ARM GAS  C:\Users\EBANO_~1\AppData\Local\Temp\ccMXEZix.s 			page 1


   1              		.cpu cortex-m0plus
   2              		.eabi_attribute 20, 1
   3              		.eabi_attribute 21, 1
   4              		.eabi_attribute 23, 3
   5              		.eabi_attribute 24, 1
   6              		.eabi_attribute 25, 1
   7              		.eabi_attribute 26, 1
   8              		.eabi_attribute 30, 2
   9              		.eabi_attribute 34, 0
  10              		.eabi_attribute 18, 4
  11              		.file	"aes.c"
  12              		.text
  13              	.Ltext0:
  14              		.cfi_sections	.debug_frame
  15              		.section	.text.aes_encrypt.part.0,"ax",%progbits
  16              		.align	1
  17              		.p2align 2,,3
  18              		.syntax unified
  19              		.code	16
  20              		.thumb_func
  21              		.fpu softvfp
  22              		.type	aes_encrypt.part.0, %function
  23              	aes_encrypt.part.0:
  24              	.LFB10:
  25              		.file 1 "../../../../../../Middlewares/Third_Party/LoRaWAN/Crypto/aes.c"
   1:../../../../../../Middlewares/Third_Party/LoRaWAN/Crypto/aes.c **** /*
   2:../../../../../../Middlewares/Third_Party/LoRaWAN/Crypto/aes.c ****  ---------------------------------------------------------------------------
   3:../../../../../../Middlewares/Third_Party/LoRaWAN/Crypto/aes.c ****  Copyright (c) 1998-2008, Brian Gladman, Worcester, UK. All rights reserved.
   4:../../../../../../Middlewares/Third_Party/LoRaWAN/Crypto/aes.c **** 
   5:../../../../../../Middlewares/Third_Party/LoRaWAN/Crypto/aes.c ****  LICENSE TERMS
   6:../../../../../../Middlewares/Third_Party/LoRaWAN/Crypto/aes.c **** 
   7:../../../../../../Middlewares/Third_Party/LoRaWAN/Crypto/aes.c ****  The redistribution and use of this software (with or without changes)
   8:../../../../../../Middlewares/Third_Party/LoRaWAN/Crypto/aes.c ****  is allowed without the payment of fees or royalties provided that:
   9:../../../../../../Middlewares/Third_Party/LoRaWAN/Crypto/aes.c **** 
  10:../../../../../../Middlewares/Third_Party/LoRaWAN/Crypto/aes.c ****   1. source code distributions include the above copyright notice, this
  11:../../../../../../Middlewares/Third_Party/LoRaWAN/Crypto/aes.c ****      list of conditions and the following disclaimer;
  12:../../../../../../Middlewares/Third_Party/LoRaWAN/Crypto/aes.c **** 
  13:../../../../../../Middlewares/Third_Party/LoRaWAN/Crypto/aes.c ****   2. binary distributions include the above copyright notice, this list
  14:../../../../../../Middlewares/Third_Party/LoRaWAN/Crypto/aes.c ****      of conditions and the following disclaimer in their documentation;
  15:../../../../../../Middlewares/Third_Party/LoRaWAN/Crypto/aes.c **** 
  16:../../../../../../Middlewares/Third_Party/LoRaWAN/Crypto/aes.c ****   3. the name of the copyright holder is not used to endorse products
  17:../../../../../../Middlewares/Third_Party/LoRaWAN/Crypto/aes.c ****      built using this software without specific written permission.
  18:../../../../../../Middlewares/Third_Party/LoRaWAN/Crypto/aes.c **** 
  19:../../../../../../Middlewares/Third_Party/LoRaWAN/Crypto/aes.c ****  DISCLAIMER
  20:../../../../../../Middlewares/Third_Party/LoRaWAN/Crypto/aes.c **** 
  21:../../../../../../Middlewares/Third_Party/LoRaWAN/Crypto/aes.c ****  This software is provided 'as is' with no explicit or implied warranties
  22:../../../../../../Middlewares/Third_Party/LoRaWAN/Crypto/aes.c ****  in respect of its properties, including, but not limited to, correctness
  23:../../../../../../Middlewares/Third_Party/LoRaWAN/Crypto/aes.c ****  and/or fitness for purpose.
  24:../../../../../../Middlewares/Third_Party/LoRaWAN/Crypto/aes.c ****  ---------------------------------------------------------------------------
  25:../../../../../../Middlewares/Third_Party/LoRaWAN/Crypto/aes.c ****  Issue 09/09/2006
  26:../../../../../../Middlewares/Third_Party/LoRaWAN/Crypto/aes.c **** 
  27:../../../../../../Middlewares/Third_Party/LoRaWAN/Crypto/aes.c ****  This is an AES implementation that uses only 8-bit byte operations on the
  28:../../../../../../Middlewares/Third_Party/LoRaWAN/Crypto/aes.c ****  cipher state (there are options to use 32-bit types if available).
  29:../../../../../../Middlewares/Third_Party/LoRaWAN/Crypto/aes.c **** 
  30:../../../../../../Middlewares/Third_Party/LoRaWAN/Crypto/aes.c ****  The combination of mix columns and byte substitution used here is based on
  31:../../../../../../Middlewares/Third_Party/LoRaWAN/Crypto/aes.c ****  that developed by Karl Malbrain. His contribution is acknowledged.
  32:../../../../../../Middlewares/Third_Party/LoRaWAN/Crypto/aes.c ****  */
ARM GAS  C:\Users\EBANO_~1\AppData\Local\Temp\ccMXEZix.s 			page 2


  33:../../../../../../Middlewares/Third_Party/LoRaWAN/Crypto/aes.c **** 
  34:../../../../../../Middlewares/Third_Party/LoRaWAN/Crypto/aes.c **** /* define if you have a fast memcpy function on your system */
  35:../../../../../../Middlewares/Third_Party/LoRaWAN/Crypto/aes.c **** #if 0
  36:../../../../../../Middlewares/Third_Party/LoRaWAN/Crypto/aes.c **** #  define HAVE_MEMCPY
  37:../../../../../../Middlewares/Third_Party/LoRaWAN/Crypto/aes.c **** #  include <string.h>
  38:../../../../../../Middlewares/Third_Party/LoRaWAN/Crypto/aes.c **** #  if defined( _MSC_VER )
  39:../../../../../../Middlewares/Third_Party/LoRaWAN/Crypto/aes.c **** #    include <intrin.h>
  40:../../../../../../Middlewares/Third_Party/LoRaWAN/Crypto/aes.c **** #    pragma intrinsic( memcpy )
  41:../../../../../../Middlewares/Third_Party/LoRaWAN/Crypto/aes.c **** #  endif
  42:../../../../../../Middlewares/Third_Party/LoRaWAN/Crypto/aes.c **** #endif
  43:../../../../../../Middlewares/Third_Party/LoRaWAN/Crypto/aes.c **** 
  44:../../../../../../Middlewares/Third_Party/LoRaWAN/Crypto/aes.c **** 
  45:../../../../../../Middlewares/Third_Party/LoRaWAN/Crypto/aes.c **** #include <stdlib.h>
  46:../../../../../../Middlewares/Third_Party/LoRaWAN/Crypto/aes.c **** #include <stdint.h>
  47:../../../../../../Middlewares/Third_Party/LoRaWAN/Crypto/aes.c **** 
  48:../../../../../../Middlewares/Third_Party/LoRaWAN/Crypto/aes.c **** /* define if you have fast 32-bit types on your system */
  49:../../../../../../Middlewares/Third_Party/LoRaWAN/Crypto/aes.c **** #if ( __CORTEX_M != 0 ) // if Cortex is different from M0/M0+
  50:../../../../../../Middlewares/Third_Party/LoRaWAN/Crypto/aes.c **** #  define HAVE_UINT_32T
  51:../../../../../../Middlewares/Third_Party/LoRaWAN/Crypto/aes.c **** #endif
  52:../../../../../../Middlewares/Third_Party/LoRaWAN/Crypto/aes.c **** 
  53:../../../../../../Middlewares/Third_Party/LoRaWAN/Crypto/aes.c **** /* define if you don't want any tables */
  54:../../../../../../Middlewares/Third_Party/LoRaWAN/Crypto/aes.c **** #if 1
  55:../../../../../../Middlewares/Third_Party/LoRaWAN/Crypto/aes.c **** #  define USE_TABLES
  56:../../../../../../Middlewares/Third_Party/LoRaWAN/Crypto/aes.c **** #endif
  57:../../../../../../Middlewares/Third_Party/LoRaWAN/Crypto/aes.c **** 
  58:../../../../../../Middlewares/Third_Party/LoRaWAN/Crypto/aes.c **** /*  On Intel Core 2 duo VERSION_1 is faster */
  59:../../../../../../Middlewares/Third_Party/LoRaWAN/Crypto/aes.c **** 
  60:../../../../../../Middlewares/Third_Party/LoRaWAN/Crypto/aes.c **** /* alternative versions (test for performance on your system) */
  61:../../../../../../Middlewares/Third_Party/LoRaWAN/Crypto/aes.c **** #if 1
  62:../../../../../../Middlewares/Third_Party/LoRaWAN/Crypto/aes.c **** #  define VERSION_1
  63:../../../../../../Middlewares/Third_Party/LoRaWAN/Crypto/aes.c **** #endif
  64:../../../../../../Middlewares/Third_Party/LoRaWAN/Crypto/aes.c **** 
  65:../../../../../../Middlewares/Third_Party/LoRaWAN/Crypto/aes.c **** #include "aes.h"
  66:../../../../../../Middlewares/Third_Party/LoRaWAN/Crypto/aes.c **** 
  67:../../../../../../Middlewares/Third_Party/LoRaWAN/Crypto/aes.c **** //#if defined( HAVE_UINT_32T )
  68:../../../../../../Middlewares/Third_Party/LoRaWAN/Crypto/aes.c **** //  typedef unsigned long uint32_t;
  69:../../../../../../Middlewares/Third_Party/LoRaWAN/Crypto/aes.c **** //#endif
  70:../../../../../../Middlewares/Third_Party/LoRaWAN/Crypto/aes.c **** 
  71:../../../../../../Middlewares/Third_Party/LoRaWAN/Crypto/aes.c **** /* functions for finite field multiplication in the AES Galois field    */
  72:../../../../../../Middlewares/Third_Party/LoRaWAN/Crypto/aes.c **** 
  73:../../../../../../Middlewares/Third_Party/LoRaWAN/Crypto/aes.c **** #define WPOLY   0x011b
  74:../../../../../../Middlewares/Third_Party/LoRaWAN/Crypto/aes.c **** #define BPOLY     0x1b
  75:../../../../../../Middlewares/Third_Party/LoRaWAN/Crypto/aes.c **** #define DPOLY   0x008d
  76:../../../../../../Middlewares/Third_Party/LoRaWAN/Crypto/aes.c **** 
  77:../../../../../../Middlewares/Third_Party/LoRaWAN/Crypto/aes.c **** #define f1(x)   (x)
  78:../../../../../../Middlewares/Third_Party/LoRaWAN/Crypto/aes.c **** #define f2(x)   ((x << 1) ^ (((x >> 7) & 1) * WPOLY))
  79:../../../../../../Middlewares/Third_Party/LoRaWAN/Crypto/aes.c **** #define f4(x)   ((x << 2) ^ (((x >> 6) & 1) * WPOLY) ^ (((x >> 6) & 2) * WPOLY))
  80:../../../../../../Middlewares/Third_Party/LoRaWAN/Crypto/aes.c **** #define f8(x)   ((x << 3) ^ (((x >> 5) & 1) * WPOLY) ^ (((x >> 5) & 2) * WPOLY) \
  81:../../../../../../Middlewares/Third_Party/LoRaWAN/Crypto/aes.c ****                           ^ (((x >> 5) & 4) * WPOLY))
  82:../../../../../../Middlewares/Third_Party/LoRaWAN/Crypto/aes.c **** #define d2(x)   (((x) >> 1) ^ ((x) & 1 ? DPOLY : 0))
  83:../../../../../../Middlewares/Third_Party/LoRaWAN/Crypto/aes.c **** 
  84:../../../../../../Middlewares/Third_Party/LoRaWAN/Crypto/aes.c **** #define f3(x)   (f2(x) ^ x)
  85:../../../../../../Middlewares/Third_Party/LoRaWAN/Crypto/aes.c **** #define f9(x)   (f8(x) ^ x)
  86:../../../../../../Middlewares/Third_Party/LoRaWAN/Crypto/aes.c **** #define fb(x)   (f8(x) ^ f2(x) ^ x)
  87:../../../../../../Middlewares/Third_Party/LoRaWAN/Crypto/aes.c **** #define fd(x)   (f8(x) ^ f4(x) ^ x)
  88:../../../../../../Middlewares/Third_Party/LoRaWAN/Crypto/aes.c **** #define fe(x)   (f8(x) ^ f4(x) ^ f2(x))
  89:../../../../../../Middlewares/Third_Party/LoRaWAN/Crypto/aes.c **** 
ARM GAS  C:\Users\EBANO_~1\AppData\Local\Temp\ccMXEZix.s 			page 3


  90:../../../../../../Middlewares/Third_Party/LoRaWAN/Crypto/aes.c **** #if defined( USE_TABLES )
  91:../../../../../../Middlewares/Third_Party/LoRaWAN/Crypto/aes.c **** 
  92:../../../../../../Middlewares/Third_Party/LoRaWAN/Crypto/aes.c **** #define sb_data(w) {    /* S Box data values */                            \
  93:../../../../../../Middlewares/Third_Party/LoRaWAN/Crypto/aes.c ****     w(0x63), w(0x7c), w(0x77), w(0x7b), w(0xf2), w(0x6b), w(0x6f), w(0xc5),\
  94:../../../../../../Middlewares/Third_Party/LoRaWAN/Crypto/aes.c ****     w(0x30), w(0x01), w(0x67), w(0x2b), w(0xfe), w(0xd7), w(0xab), w(0x76),\
  95:../../../../../../Middlewares/Third_Party/LoRaWAN/Crypto/aes.c ****     w(0xca), w(0x82), w(0xc9), w(0x7d), w(0xfa), w(0x59), w(0x47), w(0xf0),\
  96:../../../../../../Middlewares/Third_Party/LoRaWAN/Crypto/aes.c ****     w(0xad), w(0xd4), w(0xa2), w(0xaf), w(0x9c), w(0xa4), w(0x72), w(0xc0),\
  97:../../../../../../Middlewares/Third_Party/LoRaWAN/Crypto/aes.c ****     w(0xb7), w(0xfd), w(0x93), w(0x26), w(0x36), w(0x3f), w(0xf7), w(0xcc),\
  98:../../../../../../Middlewares/Third_Party/LoRaWAN/Crypto/aes.c ****     w(0x34), w(0xa5), w(0xe5), w(0xf1), w(0x71), w(0xd8), w(0x31), w(0x15),\
  99:../../../../../../Middlewares/Third_Party/LoRaWAN/Crypto/aes.c ****     w(0x04), w(0xc7), w(0x23), w(0xc3), w(0x18), w(0x96), w(0x05), w(0x9a),\
 100:../../../../../../Middlewares/Third_Party/LoRaWAN/Crypto/aes.c ****     w(0x07), w(0x12), w(0x80), w(0xe2), w(0xeb), w(0x27), w(0xb2), w(0x75),\
 101:../../../../../../Middlewares/Third_Party/LoRaWAN/Crypto/aes.c ****     w(0x09), w(0x83), w(0x2c), w(0x1a), w(0x1b), w(0x6e), w(0x5a), w(0xa0),\
 102:../../../../../../Middlewares/Third_Party/LoRaWAN/Crypto/aes.c ****     w(0x52), w(0x3b), w(0xd6), w(0xb3), w(0x29), w(0xe3), w(0x2f), w(0x84),\
 103:../../../../../../Middlewares/Third_Party/LoRaWAN/Crypto/aes.c ****     w(0x53), w(0xd1), w(0x00), w(0xed), w(0x20), w(0xfc), w(0xb1), w(0x5b),\
 104:../../../../../../Middlewares/Third_Party/LoRaWAN/Crypto/aes.c ****     w(0x6a), w(0xcb), w(0xbe), w(0x39), w(0x4a), w(0x4c), w(0x58), w(0xcf),\
 105:../../../../../../Middlewares/Third_Party/LoRaWAN/Crypto/aes.c ****     w(0xd0), w(0xef), w(0xaa), w(0xfb), w(0x43), w(0x4d), w(0x33), w(0x85),\
 106:../../../../../../Middlewares/Third_Party/LoRaWAN/Crypto/aes.c ****     w(0x45), w(0xf9), w(0x02), w(0x7f), w(0x50), w(0x3c), w(0x9f), w(0xa8),\
 107:../../../../../../Middlewares/Third_Party/LoRaWAN/Crypto/aes.c ****     w(0x51), w(0xa3), w(0x40), w(0x8f), w(0x92), w(0x9d), w(0x38), w(0xf5),\
 108:../../../../../../Middlewares/Third_Party/LoRaWAN/Crypto/aes.c ****     w(0xbc), w(0xb6), w(0xda), w(0x21), w(0x10), w(0xff), w(0xf3), w(0xd2),\
 109:../../../../../../Middlewares/Third_Party/LoRaWAN/Crypto/aes.c ****     w(0xcd), w(0x0c), w(0x13), w(0xec), w(0x5f), w(0x97), w(0x44), w(0x17),\
 110:../../../../../../Middlewares/Third_Party/LoRaWAN/Crypto/aes.c ****     w(0xc4), w(0xa7), w(0x7e), w(0x3d), w(0x64), w(0x5d), w(0x19), w(0x73),\
 111:../../../../../../Middlewares/Third_Party/LoRaWAN/Crypto/aes.c ****     w(0x60), w(0x81), w(0x4f), w(0xdc), w(0x22), w(0x2a), w(0x90), w(0x88),\
 112:../../../../../../Middlewares/Third_Party/LoRaWAN/Crypto/aes.c ****     w(0x46), w(0xee), w(0xb8), w(0x14), w(0xde), w(0x5e), w(0x0b), w(0xdb),\
 113:../../../../../../Middlewares/Third_Party/LoRaWAN/Crypto/aes.c ****     w(0xe0), w(0x32), w(0x3a), w(0x0a), w(0x49), w(0x06), w(0x24), w(0x5c),\
 114:../../../../../../Middlewares/Third_Party/LoRaWAN/Crypto/aes.c ****     w(0xc2), w(0xd3), w(0xac), w(0x62), w(0x91), w(0x95), w(0xe4), w(0x79),\
 115:../../../../../../Middlewares/Third_Party/LoRaWAN/Crypto/aes.c ****     w(0xe7), w(0xc8), w(0x37), w(0x6d), w(0x8d), w(0xd5), w(0x4e), w(0xa9),\
 116:../../../../../../Middlewares/Third_Party/LoRaWAN/Crypto/aes.c ****     w(0x6c), w(0x56), w(0xf4), w(0xea), w(0x65), w(0x7a), w(0xae), w(0x08),\
 117:../../../../../../Middlewares/Third_Party/LoRaWAN/Crypto/aes.c ****     w(0xba), w(0x78), w(0x25), w(0x2e), w(0x1c), w(0xa6), w(0xb4), w(0xc6),\
 118:../../../../../../Middlewares/Third_Party/LoRaWAN/Crypto/aes.c ****     w(0xe8), w(0xdd), w(0x74), w(0x1f), w(0x4b), w(0xbd), w(0x8b), w(0x8a),\
 119:../../../../../../Middlewares/Third_Party/LoRaWAN/Crypto/aes.c ****     w(0x70), w(0x3e), w(0xb5), w(0x66), w(0x48), w(0x03), w(0xf6), w(0x0e),\
 120:../../../../../../Middlewares/Third_Party/LoRaWAN/Crypto/aes.c ****     w(0x61), w(0x35), w(0x57), w(0xb9), w(0x86), w(0xc1), w(0x1d), w(0x9e),\
 121:../../../../../../Middlewares/Third_Party/LoRaWAN/Crypto/aes.c ****     w(0xe1), w(0xf8), w(0x98), w(0x11), w(0x69), w(0xd9), w(0x8e), w(0x94),\
 122:../../../../../../Middlewares/Third_Party/LoRaWAN/Crypto/aes.c ****     w(0x9b), w(0x1e), w(0x87), w(0xe9), w(0xce), w(0x55), w(0x28), w(0xdf),\
 123:../../../../../../Middlewares/Third_Party/LoRaWAN/Crypto/aes.c ****     w(0x8c), w(0xa1), w(0x89), w(0x0d), w(0xbf), w(0xe6), w(0x42), w(0x68),\
 124:../../../../../../Middlewares/Third_Party/LoRaWAN/Crypto/aes.c ****     w(0x41), w(0x99), w(0x2d), w(0x0f), w(0xb0), w(0x54), w(0xbb), w(0x16) }
 125:../../../../../../Middlewares/Third_Party/LoRaWAN/Crypto/aes.c **** 
 126:../../../../../../Middlewares/Third_Party/LoRaWAN/Crypto/aes.c **** #define isb_data(w) {   /* inverse S Box data values */                    \
 127:../../../../../../Middlewares/Third_Party/LoRaWAN/Crypto/aes.c ****     w(0x52), w(0x09), w(0x6a), w(0xd5), w(0x30), w(0x36), w(0xa5), w(0x38),\
 128:../../../../../../Middlewares/Third_Party/LoRaWAN/Crypto/aes.c ****     w(0xbf), w(0x40), w(0xa3), w(0x9e), w(0x81), w(0xf3), w(0xd7), w(0xfb),\
 129:../../../../../../Middlewares/Third_Party/LoRaWAN/Crypto/aes.c ****     w(0x7c), w(0xe3), w(0x39), w(0x82), w(0x9b), w(0x2f), w(0xff), w(0x87),\
 130:../../../../../../Middlewares/Third_Party/LoRaWAN/Crypto/aes.c ****     w(0x34), w(0x8e), w(0x43), w(0x44), w(0xc4), w(0xde), w(0xe9), w(0xcb),\
 131:../../../../../../Middlewares/Third_Party/LoRaWAN/Crypto/aes.c ****     w(0x54), w(0x7b), w(0x94), w(0x32), w(0xa6), w(0xc2), w(0x23), w(0x3d),\
 132:../../../../../../Middlewares/Third_Party/LoRaWAN/Crypto/aes.c ****     w(0xee), w(0x4c), w(0x95), w(0x0b), w(0x42), w(0xfa), w(0xc3), w(0x4e),\
 133:../../../../../../Middlewares/Third_Party/LoRaWAN/Crypto/aes.c ****     w(0x08), w(0x2e), w(0xa1), w(0x66), w(0x28), w(0xd9), w(0x24), w(0xb2),\
 134:../../../../../../Middlewares/Third_Party/LoRaWAN/Crypto/aes.c ****     w(0x76), w(0x5b), w(0xa2), w(0x49), w(0x6d), w(0x8b), w(0xd1), w(0x25),\
 135:../../../../../../Middlewares/Third_Party/LoRaWAN/Crypto/aes.c ****     w(0x72), w(0xf8), w(0xf6), w(0x64), w(0x86), w(0x68), w(0x98), w(0x16),\
 136:../../../../../../Middlewares/Third_Party/LoRaWAN/Crypto/aes.c ****     w(0xd4), w(0xa4), w(0x5c), w(0xcc), w(0x5d), w(0x65), w(0xb6), w(0x92),\
 137:../../../../../../Middlewares/Third_Party/LoRaWAN/Crypto/aes.c ****     w(0x6c), w(0x70), w(0x48), w(0x50), w(0xfd), w(0xed), w(0xb9), w(0xda),\
 138:../../../../../../Middlewares/Third_Party/LoRaWAN/Crypto/aes.c ****     w(0x5e), w(0x15), w(0x46), w(0x57), w(0xa7), w(0x8d), w(0x9d), w(0x84),\
 139:../../../../../../Middlewares/Third_Party/LoRaWAN/Crypto/aes.c ****     w(0x90), w(0xd8), w(0xab), w(0x00), w(0x8c), w(0xbc), w(0xd3), w(0x0a),\
 140:../../../../../../Middlewares/Third_Party/LoRaWAN/Crypto/aes.c ****     w(0xf7), w(0xe4), w(0x58), w(0x05), w(0xb8), w(0xb3), w(0x45), w(0x06),\
 141:../../../../../../Middlewares/Third_Party/LoRaWAN/Crypto/aes.c ****     w(0xd0), w(0x2c), w(0x1e), w(0x8f), w(0xca), w(0x3f), w(0x0f), w(0x02),\
 142:../../../../../../Middlewares/Third_Party/LoRaWAN/Crypto/aes.c ****     w(0xc1), w(0xaf), w(0xbd), w(0x03), w(0x01), w(0x13), w(0x8a), w(0x6b),\
 143:../../../../../../Middlewares/Third_Party/LoRaWAN/Crypto/aes.c ****     w(0x3a), w(0x91), w(0x11), w(0x41), w(0x4f), w(0x67), w(0xdc), w(0xea),\
 144:../../../../../../Middlewares/Third_Party/LoRaWAN/Crypto/aes.c ****     w(0x97), w(0xf2), w(0xcf), w(0xce), w(0xf0), w(0xb4), w(0xe6), w(0x73),\
 145:../../../../../../Middlewares/Third_Party/LoRaWAN/Crypto/aes.c ****     w(0x96), w(0xac), w(0x74), w(0x22), w(0xe7), w(0xad), w(0x35), w(0x85),\
 146:../../../../../../Middlewares/Third_Party/LoRaWAN/Crypto/aes.c ****     w(0xe2), w(0xf9), w(0x37), w(0xe8), w(0x1c), w(0x75), w(0xdf), w(0x6e),\
ARM GAS  C:\Users\EBANO_~1\AppData\Local\Temp\ccMXEZix.s 			page 4


 147:../../../../../../Middlewares/Third_Party/LoRaWAN/Crypto/aes.c ****     w(0x47), w(0xf1), w(0x1a), w(0x71), w(0x1d), w(0x29), w(0xc5), w(0x89),\
 148:../../../../../../Middlewares/Third_Party/LoRaWAN/Crypto/aes.c ****     w(0x6f), w(0xb7), w(0x62), w(0x0e), w(0xaa), w(0x18), w(0xbe), w(0x1b),\
 149:../../../../../../Middlewares/Third_Party/LoRaWAN/Crypto/aes.c ****     w(0xfc), w(0x56), w(0x3e), w(0x4b), w(0xc6), w(0xd2), w(0x79), w(0x20),\
 150:../../../../../../Middlewares/Third_Party/LoRaWAN/Crypto/aes.c ****     w(0x9a), w(0xdb), w(0xc0), w(0xfe), w(0x78), w(0xcd), w(0x5a), w(0xf4),\
 151:../../../../../../Middlewares/Third_Party/LoRaWAN/Crypto/aes.c ****     w(0x1f), w(0xdd), w(0xa8), w(0x33), w(0x88), w(0x07), w(0xc7), w(0x31),\
 152:../../../../../../Middlewares/Third_Party/LoRaWAN/Crypto/aes.c ****     w(0xb1), w(0x12), w(0x10), w(0x59), w(0x27), w(0x80), w(0xec), w(0x5f),\
 153:../../../../../../Middlewares/Third_Party/LoRaWAN/Crypto/aes.c ****     w(0x60), w(0x51), w(0x7f), w(0xa9), w(0x19), w(0xb5), w(0x4a), w(0x0d),\
 154:../../../../../../Middlewares/Third_Party/LoRaWAN/Crypto/aes.c ****     w(0x2d), w(0xe5), w(0x7a), w(0x9f), w(0x93), w(0xc9), w(0x9c), w(0xef),\
 155:../../../../../../Middlewares/Third_Party/LoRaWAN/Crypto/aes.c ****     w(0xa0), w(0xe0), w(0x3b), w(0x4d), w(0xae), w(0x2a), w(0xf5), w(0xb0),\
 156:../../../../../../Middlewares/Third_Party/LoRaWAN/Crypto/aes.c ****     w(0xc8), w(0xeb), w(0xbb), w(0x3c), w(0x83), w(0x53), w(0x99), w(0x61),\
 157:../../../../../../Middlewares/Third_Party/LoRaWAN/Crypto/aes.c ****     w(0x17), w(0x2b), w(0x04), w(0x7e), w(0xba), w(0x77), w(0xd6), w(0x26),\
 158:../../../../../../Middlewares/Third_Party/LoRaWAN/Crypto/aes.c ****     w(0xe1), w(0x69), w(0x14), w(0x63), w(0x55), w(0x21), w(0x0c), w(0x7d) }
 159:../../../../../../Middlewares/Third_Party/LoRaWAN/Crypto/aes.c **** 
 160:../../../../../../Middlewares/Third_Party/LoRaWAN/Crypto/aes.c **** #define mm_data(w) {    /* basic data for forming finite field tables */   \
 161:../../../../../../Middlewares/Third_Party/LoRaWAN/Crypto/aes.c ****     w(0x00), w(0x01), w(0x02), w(0x03), w(0x04), w(0x05), w(0x06), w(0x07),\
 162:../../../../../../Middlewares/Third_Party/LoRaWAN/Crypto/aes.c ****     w(0x08), w(0x09), w(0x0a), w(0x0b), w(0x0c), w(0x0d), w(0x0e), w(0x0f),\
 163:../../../../../../Middlewares/Third_Party/LoRaWAN/Crypto/aes.c ****     w(0x10), w(0x11), w(0x12), w(0x13), w(0x14), w(0x15), w(0x16), w(0x17),\
 164:../../../../../../Middlewares/Third_Party/LoRaWAN/Crypto/aes.c ****     w(0x18), w(0x19), w(0x1a), w(0x1b), w(0x1c), w(0x1d), w(0x1e), w(0x1f),\
 165:../../../../../../Middlewares/Third_Party/LoRaWAN/Crypto/aes.c ****     w(0x20), w(0x21), w(0x22), w(0x23), w(0x24), w(0x25), w(0x26), w(0x27),\
 166:../../../../../../Middlewares/Third_Party/LoRaWAN/Crypto/aes.c ****     w(0x28), w(0x29), w(0x2a), w(0x2b), w(0x2c), w(0x2d), w(0x2e), w(0x2f),\
 167:../../../../../../Middlewares/Third_Party/LoRaWAN/Crypto/aes.c ****     w(0x30), w(0x31), w(0x32), w(0x33), w(0x34), w(0x35), w(0x36), w(0x37),\
 168:../../../../../../Middlewares/Third_Party/LoRaWAN/Crypto/aes.c ****     w(0x38), w(0x39), w(0x3a), w(0x3b), w(0x3c), w(0x3d), w(0x3e), w(0x3f),\
 169:../../../../../../Middlewares/Third_Party/LoRaWAN/Crypto/aes.c ****     w(0x40), w(0x41), w(0x42), w(0x43), w(0x44), w(0x45), w(0x46), w(0x47),\
 170:../../../../../../Middlewares/Third_Party/LoRaWAN/Crypto/aes.c ****     w(0x48), w(0x49), w(0x4a), w(0x4b), w(0x4c), w(0x4d), w(0x4e), w(0x4f),\
 171:../../../../../../Middlewares/Third_Party/LoRaWAN/Crypto/aes.c ****     w(0x50), w(0x51), w(0x52), w(0x53), w(0x54), w(0x55), w(0x56), w(0x57),\
 172:../../../../../../Middlewares/Third_Party/LoRaWAN/Crypto/aes.c ****     w(0x58), w(0x59), w(0x5a), w(0x5b), w(0x5c), w(0x5d), w(0x5e), w(0x5f),\
 173:../../../../../../Middlewares/Third_Party/LoRaWAN/Crypto/aes.c ****     w(0x60), w(0x61), w(0x62), w(0x63), w(0x64), w(0x65), w(0x66), w(0x67),\
 174:../../../../../../Middlewares/Third_Party/LoRaWAN/Crypto/aes.c ****     w(0x68), w(0x69), w(0x6a), w(0x6b), w(0x6c), w(0x6d), w(0x6e), w(0x6f),\
 175:../../../../../../Middlewares/Third_Party/LoRaWAN/Crypto/aes.c ****     w(0x70), w(0x71), w(0x72), w(0x73), w(0x74), w(0x75), w(0x76), w(0x77),\
 176:../../../../../../Middlewares/Third_Party/LoRaWAN/Crypto/aes.c ****     w(0x78), w(0x79), w(0x7a), w(0x7b), w(0x7c), w(0x7d), w(0x7e), w(0x7f),\
 177:../../../../../../Middlewares/Third_Party/LoRaWAN/Crypto/aes.c ****     w(0x80), w(0x81), w(0x82), w(0x83), w(0x84), w(0x85), w(0x86), w(0x87),\
 178:../../../../../../Middlewares/Third_Party/LoRaWAN/Crypto/aes.c ****     w(0x88), w(0x89), w(0x8a), w(0x8b), w(0x8c), w(0x8d), w(0x8e), w(0x8f),\
 179:../../../../../../Middlewares/Third_Party/LoRaWAN/Crypto/aes.c ****     w(0x90), w(0x91), w(0x92), w(0x93), w(0x94), w(0x95), w(0x96), w(0x97),\
 180:../../../../../../Middlewares/Third_Party/LoRaWAN/Crypto/aes.c ****     w(0x98), w(0x99), w(0x9a), w(0x9b), w(0x9c), w(0x9d), w(0x9e), w(0x9f),\
 181:../../../../../../Middlewares/Third_Party/LoRaWAN/Crypto/aes.c ****     w(0xa0), w(0xa1), w(0xa2), w(0xa3), w(0xa4), w(0xa5), w(0xa6), w(0xa7),\
 182:../../../../../../Middlewares/Third_Party/LoRaWAN/Crypto/aes.c ****     w(0xa8), w(0xa9), w(0xaa), w(0xab), w(0xac), w(0xad), w(0xae), w(0xaf),\
 183:../../../../../../Middlewares/Third_Party/LoRaWAN/Crypto/aes.c ****     w(0xb0), w(0xb1), w(0xb2), w(0xb3), w(0xb4), w(0xb5), w(0xb6), w(0xb7),\
 184:../../../../../../Middlewares/Third_Party/LoRaWAN/Crypto/aes.c ****     w(0xb8), w(0xb9), w(0xba), w(0xbb), w(0xbc), w(0xbd), w(0xbe), w(0xbf),\
 185:../../../../../../Middlewares/Third_Party/LoRaWAN/Crypto/aes.c ****     w(0xc0), w(0xc1), w(0xc2), w(0xc3), w(0xc4), w(0xc5), w(0xc6), w(0xc7),\
 186:../../../../../../Middlewares/Third_Party/LoRaWAN/Crypto/aes.c ****     w(0xc8), w(0xc9), w(0xca), w(0xcb), w(0xcc), w(0xcd), w(0xce), w(0xcf),\
 187:../../../../../../Middlewares/Third_Party/LoRaWAN/Crypto/aes.c ****     w(0xd0), w(0xd1), w(0xd2), w(0xd3), w(0xd4), w(0xd5), w(0xd6), w(0xd7),\
 188:../../../../../../Middlewares/Third_Party/LoRaWAN/Crypto/aes.c ****     w(0xd8), w(0xd9), w(0xda), w(0xdb), w(0xdc), w(0xdd), w(0xde), w(0xdf),\
 189:../../../../../../Middlewares/Third_Party/LoRaWAN/Crypto/aes.c ****     w(0xe0), w(0xe1), w(0xe2), w(0xe3), w(0xe4), w(0xe5), w(0xe6), w(0xe7),\
 190:../../../../../../Middlewares/Third_Party/LoRaWAN/Crypto/aes.c ****     w(0xe8), w(0xe9), w(0xea), w(0xeb), w(0xec), w(0xed), w(0xee), w(0xef),\
 191:../../../../../../Middlewares/Third_Party/LoRaWAN/Crypto/aes.c ****     w(0xf0), w(0xf1), w(0xf2), w(0xf3), w(0xf4), w(0xf5), w(0xf6), w(0xf7),\
 192:../../../../../../Middlewares/Third_Party/LoRaWAN/Crypto/aes.c ****     w(0xf8), w(0xf9), w(0xfa), w(0xfb), w(0xfc), w(0xfd), w(0xfe), w(0xff) }
 193:../../../../../../Middlewares/Third_Party/LoRaWAN/Crypto/aes.c **** 
 194:../../../../../../Middlewares/Third_Party/LoRaWAN/Crypto/aes.c **** static const uint8_t sbox[256]  =  sb_data(f1);
 195:../../../../../../Middlewares/Third_Party/LoRaWAN/Crypto/aes.c **** 
 196:../../../../../../Middlewares/Third_Party/LoRaWAN/Crypto/aes.c **** #if defined( AES_DEC_PREKEYED )
 197:../../../../../../Middlewares/Third_Party/LoRaWAN/Crypto/aes.c **** static const uint8_t isbox[256] = isb_data(f1);
 198:../../../../../../Middlewares/Third_Party/LoRaWAN/Crypto/aes.c **** #endif
 199:../../../../../../Middlewares/Third_Party/LoRaWAN/Crypto/aes.c **** 
 200:../../../../../../Middlewares/Third_Party/LoRaWAN/Crypto/aes.c **** static const uint8_t gfm2_sbox[256] = sb_data(f2);
 201:../../../../../../Middlewares/Third_Party/LoRaWAN/Crypto/aes.c **** static const uint8_t gfm3_sbox[256] = sb_data(f3);
 202:../../../../../../Middlewares/Third_Party/LoRaWAN/Crypto/aes.c **** 
 203:../../../../../../Middlewares/Third_Party/LoRaWAN/Crypto/aes.c **** #if defined( AES_DEC_PREKEYED )
ARM GAS  C:\Users\EBANO_~1\AppData\Local\Temp\ccMXEZix.s 			page 5


 204:../../../../../../Middlewares/Third_Party/LoRaWAN/Crypto/aes.c **** static const uint8_t gfmul_9[256] = mm_data(f9);
 205:../../../../../../Middlewares/Third_Party/LoRaWAN/Crypto/aes.c **** static const uint8_t gfmul_b[256] = mm_data(fb);
 206:../../../../../../Middlewares/Third_Party/LoRaWAN/Crypto/aes.c **** static const uint8_t gfmul_d[256] = mm_data(fd);
 207:../../../../../../Middlewares/Third_Party/LoRaWAN/Crypto/aes.c **** static const uint8_t gfmul_e[256] = mm_data(fe);
 208:../../../../../../Middlewares/Third_Party/LoRaWAN/Crypto/aes.c **** #endif
 209:../../../../../../Middlewares/Third_Party/LoRaWAN/Crypto/aes.c **** 
 210:../../../../../../Middlewares/Third_Party/LoRaWAN/Crypto/aes.c **** #define s_box(x)     sbox[(x)]
 211:../../../../../../Middlewares/Third_Party/LoRaWAN/Crypto/aes.c **** #if defined( AES_DEC_PREKEYED )
 212:../../../../../../Middlewares/Third_Party/LoRaWAN/Crypto/aes.c **** #define is_box(x)    isbox[(x)]
 213:../../../../../../Middlewares/Third_Party/LoRaWAN/Crypto/aes.c **** #endif
 214:../../../../../../Middlewares/Third_Party/LoRaWAN/Crypto/aes.c **** #define gfm2_sb(x)   gfm2_sbox[(x)]
 215:../../../../../../Middlewares/Third_Party/LoRaWAN/Crypto/aes.c **** #define gfm3_sb(x)   gfm3_sbox[(x)]
 216:../../../../../../Middlewares/Third_Party/LoRaWAN/Crypto/aes.c **** #if defined( AES_DEC_PREKEYED )
 217:../../../../../../Middlewares/Third_Party/LoRaWAN/Crypto/aes.c **** #define gfm_9(x)     gfmul_9[(x)]
 218:../../../../../../Middlewares/Third_Party/LoRaWAN/Crypto/aes.c **** #define gfm_b(x)     gfmul_b[(x)]
 219:../../../../../../Middlewares/Third_Party/LoRaWAN/Crypto/aes.c **** #define gfm_d(x)     gfmul_d[(x)]
 220:../../../../../../Middlewares/Third_Party/LoRaWAN/Crypto/aes.c **** #define gfm_e(x)     gfmul_e[(x)]
 221:../../../../../../Middlewares/Third_Party/LoRaWAN/Crypto/aes.c **** #endif
 222:../../../../../../Middlewares/Third_Party/LoRaWAN/Crypto/aes.c **** #else
 223:../../../../../../Middlewares/Third_Party/LoRaWAN/Crypto/aes.c **** 
 224:../../../../../../Middlewares/Third_Party/LoRaWAN/Crypto/aes.c **** /* this is the high bit of x right shifted by 1 */
 225:../../../../../../Middlewares/Third_Party/LoRaWAN/Crypto/aes.c **** /* position. Since the starting polynomial has  */
 226:../../../../../../Middlewares/Third_Party/LoRaWAN/Crypto/aes.c **** /* 9 bits (0x11b), this right shift keeps the   */
 227:../../../../../../Middlewares/Third_Party/LoRaWAN/Crypto/aes.c **** /* values of all top bits within a byte         */
 228:../../../../../../Middlewares/Third_Party/LoRaWAN/Crypto/aes.c **** 
 229:../../../../../../Middlewares/Third_Party/LoRaWAN/Crypto/aes.c **** static uint8_t hibit(const uint8_t x)
 230:../../../../../../Middlewares/Third_Party/LoRaWAN/Crypto/aes.c **** {   uint8_t r = (uint8_t)((x >> 1) | (x >> 2));
 231:../../../../../../Middlewares/Third_Party/LoRaWAN/Crypto/aes.c **** 
 232:../../../../../../Middlewares/Third_Party/LoRaWAN/Crypto/aes.c ****     r |= (r >> 2);
 233:../../../../../../Middlewares/Third_Party/LoRaWAN/Crypto/aes.c ****     r |= (r >> 4);
 234:../../../../../../Middlewares/Third_Party/LoRaWAN/Crypto/aes.c ****     return (r + 1) >> 1;
 235:../../../../../../Middlewares/Third_Party/LoRaWAN/Crypto/aes.c **** }
 236:../../../../../../Middlewares/Third_Party/LoRaWAN/Crypto/aes.c **** 
 237:../../../../../../Middlewares/Third_Party/LoRaWAN/Crypto/aes.c **** /* return the inverse of the finite field element x */
 238:../../../../../../Middlewares/Third_Party/LoRaWAN/Crypto/aes.c **** 
 239:../../../../../../Middlewares/Third_Party/LoRaWAN/Crypto/aes.c **** static uint8_t gf_inv(const uint8_t x)
 240:../../../../../../Middlewares/Third_Party/LoRaWAN/Crypto/aes.c **** {   uint8_t p1 = x, p2 = BPOLY, n1 = hibit(x), n2 = 0x80, v1 = 1, v2 = 0;
 241:../../../../../../Middlewares/Third_Party/LoRaWAN/Crypto/aes.c **** 
 242:../../../../../../Middlewares/Third_Party/LoRaWAN/Crypto/aes.c ****     if(x < 2)
 243:../../../../../../Middlewares/Third_Party/LoRaWAN/Crypto/aes.c ****         return x;
 244:../../../../../../Middlewares/Third_Party/LoRaWAN/Crypto/aes.c **** 
 245:../../../../../../Middlewares/Third_Party/LoRaWAN/Crypto/aes.c ****     for( ; ; )
 246:../../../../../../Middlewares/Third_Party/LoRaWAN/Crypto/aes.c ****     {
 247:../../../../../../Middlewares/Third_Party/LoRaWAN/Crypto/aes.c ****         if(n1)
 248:../../../../../../Middlewares/Third_Party/LoRaWAN/Crypto/aes.c ****             while(n2 >= n1)             /* divide polynomial p2 by p1    */
 249:../../../../../../Middlewares/Third_Party/LoRaWAN/Crypto/aes.c ****             {
 250:../../../../../../Middlewares/Third_Party/LoRaWAN/Crypto/aes.c ****                 n2 /= n1;               /* shift smaller polynomial left */
 251:../../../../../../Middlewares/Third_Party/LoRaWAN/Crypto/aes.c ****                 p2 ^= (p1 * n2) & 0xff; /* and remove from larger one    */
 252:../../../../../../Middlewares/Third_Party/LoRaWAN/Crypto/aes.c ****                 v2 ^= (v1 * n2);        /* shift accumulated value and   */
 253:../../../../../../Middlewares/Third_Party/LoRaWAN/Crypto/aes.c ****                 n2 = hibit(p2);         /* add into result               */
 254:../../../../../../Middlewares/Third_Party/LoRaWAN/Crypto/aes.c ****             }
 255:../../../../../../Middlewares/Third_Party/LoRaWAN/Crypto/aes.c ****         else
 256:../../../../../../Middlewares/Third_Party/LoRaWAN/Crypto/aes.c ****             return v1;
 257:../../../../../../Middlewares/Third_Party/LoRaWAN/Crypto/aes.c **** 
 258:../../../../../../Middlewares/Third_Party/LoRaWAN/Crypto/aes.c ****         if(n2)                          /* repeat with values swapped    */
 259:../../../../../../Middlewares/Third_Party/LoRaWAN/Crypto/aes.c ****             while(n1 >= n2)
 260:../../../../../../Middlewares/Third_Party/LoRaWAN/Crypto/aes.c ****             {
ARM GAS  C:\Users\EBANO_~1\AppData\Local\Temp\ccMXEZix.s 			page 6


 261:../../../../../../Middlewares/Third_Party/LoRaWAN/Crypto/aes.c ****                 n1 /= n2;
 262:../../../../../../Middlewares/Third_Party/LoRaWAN/Crypto/aes.c ****                 p1 ^= p2 * n1;
 263:../../../../../../Middlewares/Third_Party/LoRaWAN/Crypto/aes.c ****                 v1 ^= v2 * n1;
 264:../../../../../../Middlewares/Third_Party/LoRaWAN/Crypto/aes.c ****                 n1 = hibit(p1);
 265:../../../../../../Middlewares/Third_Party/LoRaWAN/Crypto/aes.c ****             }
 266:../../../../../../Middlewares/Third_Party/LoRaWAN/Crypto/aes.c ****         else
 267:../../../../../../Middlewares/Third_Party/LoRaWAN/Crypto/aes.c ****             return v2;
 268:../../../../../../Middlewares/Third_Party/LoRaWAN/Crypto/aes.c ****     }
 269:../../../../../../Middlewares/Third_Party/LoRaWAN/Crypto/aes.c **** }
 270:../../../../../../Middlewares/Third_Party/LoRaWAN/Crypto/aes.c **** 
 271:../../../../../../Middlewares/Third_Party/LoRaWAN/Crypto/aes.c **** /* The forward and inverse affine transformations used in the S-box */
 272:../../../../../../Middlewares/Third_Party/LoRaWAN/Crypto/aes.c **** uint8_t fwd_affine(const uint8_t x)
 273:../../../../../../Middlewares/Third_Party/LoRaWAN/Crypto/aes.c **** {
 274:../../../../../../Middlewares/Third_Party/LoRaWAN/Crypto/aes.c **** #if defined( HAVE_UINT_32T )
 275:../../../../../../Middlewares/Third_Party/LoRaWAN/Crypto/aes.c ****     uint32_t w = x;
 276:../../../../../../Middlewares/Third_Party/LoRaWAN/Crypto/aes.c ****     w ^= (w << 1) ^ (w << 2) ^ (w << 3) ^ (w << 4);
 277:../../../../../../Middlewares/Third_Party/LoRaWAN/Crypto/aes.c ****     return 0x63 ^ ((w ^ (w >> 8)) & 0xff);
 278:../../../../../../Middlewares/Third_Party/LoRaWAN/Crypto/aes.c **** #else
 279:../../../../../../Middlewares/Third_Party/LoRaWAN/Crypto/aes.c ****     return 0x63 ^ x ^ (x << 1) ^ (x << 2) ^ (x << 3) ^ (x << 4)
 280:../../../../../../Middlewares/Third_Party/LoRaWAN/Crypto/aes.c ****                     ^ (x >> 7) ^ (x >> 6) ^ (x >> 5) ^ (x >> 4);
 281:../../../../../../Middlewares/Third_Party/LoRaWAN/Crypto/aes.c **** #endif
 282:../../../../../../Middlewares/Third_Party/LoRaWAN/Crypto/aes.c **** }
 283:../../../../../../Middlewares/Third_Party/LoRaWAN/Crypto/aes.c **** 
 284:../../../../../../Middlewares/Third_Party/LoRaWAN/Crypto/aes.c **** uint8_t inv_affine(const uint8_t x)
 285:../../../../../../Middlewares/Third_Party/LoRaWAN/Crypto/aes.c **** {
 286:../../../../../../Middlewares/Third_Party/LoRaWAN/Crypto/aes.c **** #if defined( HAVE_UINT_32T )
 287:../../../../../../Middlewares/Third_Party/LoRaWAN/Crypto/aes.c ****     uint32_t w = x;
 288:../../../../../../Middlewares/Third_Party/LoRaWAN/Crypto/aes.c ****     w = (w << 1) ^ (w << 3) ^ (w << 6);
 289:../../../../../../Middlewares/Third_Party/LoRaWAN/Crypto/aes.c ****     return 0x05 ^ ((w ^ (w >> 8)) & 0xff);
 290:../../../../../../Middlewares/Third_Party/LoRaWAN/Crypto/aes.c **** #else
 291:../../../../../../Middlewares/Third_Party/LoRaWAN/Crypto/aes.c ****     return 0x05 ^ (x << 1) ^ (x << 3) ^ (x << 6)
 292:../../../../../../Middlewares/Third_Party/LoRaWAN/Crypto/aes.c ****                 ^ (x >> 7) ^ (x >> 5) ^ (x >> 2);
 293:../../../../../../Middlewares/Third_Party/LoRaWAN/Crypto/aes.c **** #endif
 294:../../../../../../Middlewares/Third_Party/LoRaWAN/Crypto/aes.c **** }
 295:../../../../../../Middlewares/Third_Party/LoRaWAN/Crypto/aes.c **** 
 296:../../../../../../Middlewares/Third_Party/LoRaWAN/Crypto/aes.c **** #define s_box(x)   fwd_affine(gf_inv(x))
 297:../../../../../../Middlewares/Third_Party/LoRaWAN/Crypto/aes.c **** #define is_box(x)  gf_inv(inv_affine(x))
 298:../../../../../../Middlewares/Third_Party/LoRaWAN/Crypto/aes.c **** #define gfm2_sb(x) f2(s_box(x))
 299:../../../../../../Middlewares/Third_Party/LoRaWAN/Crypto/aes.c **** #define gfm3_sb(x) f3(s_box(x))
 300:../../../../../../Middlewares/Third_Party/LoRaWAN/Crypto/aes.c **** #define gfm_9(x)   f9(x)
 301:../../../../../../Middlewares/Third_Party/LoRaWAN/Crypto/aes.c **** #define gfm_b(x)   fb(x)
 302:../../../../../../Middlewares/Third_Party/LoRaWAN/Crypto/aes.c **** #define gfm_d(x)   fd(x)
 303:../../../../../../Middlewares/Third_Party/LoRaWAN/Crypto/aes.c **** #define gfm_e(x)   fe(x)
 304:../../../../../../Middlewares/Third_Party/LoRaWAN/Crypto/aes.c **** 
 305:../../../../../../Middlewares/Third_Party/LoRaWAN/Crypto/aes.c **** #endif
 306:../../../../../../Middlewares/Third_Party/LoRaWAN/Crypto/aes.c **** 
 307:../../../../../../Middlewares/Third_Party/LoRaWAN/Crypto/aes.c **** #if defined( HAVE_MEMCPY )
 308:../../../../../../Middlewares/Third_Party/LoRaWAN/Crypto/aes.c **** #  define block_copy_nn(d, s, l)    memcpy(d, s, l)
 309:../../../../../../Middlewares/Third_Party/LoRaWAN/Crypto/aes.c **** #  define block_copy(d, s)          memcpy(d, s, N_BLOCK)
 310:../../../../../../Middlewares/Third_Party/LoRaWAN/Crypto/aes.c **** #else
 311:../../../../../../Middlewares/Third_Party/LoRaWAN/Crypto/aes.c **** #  define block_copy_nn(d, s, l)    copy_block_nn(d, s, l)
 312:../../../../../../Middlewares/Third_Party/LoRaWAN/Crypto/aes.c **** #  define block_copy(d, s)          copy_block(d, s)
 313:../../../../../../Middlewares/Third_Party/LoRaWAN/Crypto/aes.c **** #endif
 314:../../../../../../Middlewares/Third_Party/LoRaWAN/Crypto/aes.c **** 
 315:../../../../../../Middlewares/Third_Party/LoRaWAN/Crypto/aes.c **** static void copy_block( void *d, const void *s )
 316:../../../../../../Middlewares/Third_Party/LoRaWAN/Crypto/aes.c **** {
 317:../../../../../../Middlewares/Third_Party/LoRaWAN/Crypto/aes.c **** #if defined( HAVE_UINT_32T )
ARM GAS  C:\Users\EBANO_~1\AppData\Local\Temp\ccMXEZix.s 			page 7


 318:../../../../../../Middlewares/Third_Party/LoRaWAN/Crypto/aes.c ****     ((uint32_t*)d)[ 0] = ((uint32_t*)s)[ 0];
 319:../../../../../../Middlewares/Third_Party/LoRaWAN/Crypto/aes.c ****     ((uint32_t*)d)[ 1] = ((uint32_t*)s)[ 1];
 320:../../../../../../Middlewares/Third_Party/LoRaWAN/Crypto/aes.c ****     ((uint32_t*)d)[ 2] = ((uint32_t*)s)[ 2];
 321:../../../../../../Middlewares/Third_Party/LoRaWAN/Crypto/aes.c ****     ((uint32_t*)d)[ 3] = ((uint32_t*)s)[ 3];
 322:../../../../../../Middlewares/Third_Party/LoRaWAN/Crypto/aes.c **** #else
 323:../../../../../../Middlewares/Third_Party/LoRaWAN/Crypto/aes.c ****     ((uint8_t*)d)[ 0] = ((uint8_t*)s)[ 0];
 324:../../../../../../Middlewares/Third_Party/LoRaWAN/Crypto/aes.c ****     ((uint8_t*)d)[ 1] = ((uint8_t*)s)[ 1];
 325:../../../../../../Middlewares/Third_Party/LoRaWAN/Crypto/aes.c ****     ((uint8_t*)d)[ 2] = ((uint8_t*)s)[ 2];
 326:../../../../../../Middlewares/Third_Party/LoRaWAN/Crypto/aes.c ****     ((uint8_t*)d)[ 3] = ((uint8_t*)s)[ 3];
 327:../../../../../../Middlewares/Third_Party/LoRaWAN/Crypto/aes.c ****     ((uint8_t*)d)[ 4] = ((uint8_t*)s)[ 4];
 328:../../../../../../Middlewares/Third_Party/LoRaWAN/Crypto/aes.c ****     ((uint8_t*)d)[ 5] = ((uint8_t*)s)[ 5];
 329:../../../../../../Middlewares/Third_Party/LoRaWAN/Crypto/aes.c ****     ((uint8_t*)d)[ 6] = ((uint8_t*)s)[ 6];
 330:../../../../../../Middlewares/Third_Party/LoRaWAN/Crypto/aes.c ****     ((uint8_t*)d)[ 7] = ((uint8_t*)s)[ 7];
 331:../../../../../../Middlewares/Third_Party/LoRaWAN/Crypto/aes.c ****     ((uint8_t*)d)[ 8] = ((uint8_t*)s)[ 8];
 332:../../../../../../Middlewares/Third_Party/LoRaWAN/Crypto/aes.c ****     ((uint8_t*)d)[ 9] = ((uint8_t*)s)[ 9];
 333:../../../../../../Middlewares/Third_Party/LoRaWAN/Crypto/aes.c ****     ((uint8_t*)d)[10] = ((uint8_t*)s)[10];
 334:../../../../../../Middlewares/Third_Party/LoRaWAN/Crypto/aes.c ****     ((uint8_t*)d)[11] = ((uint8_t*)s)[11];
 335:../../../../../../Middlewares/Third_Party/LoRaWAN/Crypto/aes.c ****     ((uint8_t*)d)[12] = ((uint8_t*)s)[12];
 336:../../../../../../Middlewares/Third_Party/LoRaWAN/Crypto/aes.c ****     ((uint8_t*)d)[13] = ((uint8_t*)s)[13];
 337:../../../../../../Middlewares/Third_Party/LoRaWAN/Crypto/aes.c ****     ((uint8_t*)d)[14] = ((uint8_t*)s)[14];
 338:../../../../../../Middlewares/Third_Party/LoRaWAN/Crypto/aes.c ****     ((uint8_t*)d)[15] = ((uint8_t*)s)[15];
 339:../../../../../../Middlewares/Third_Party/LoRaWAN/Crypto/aes.c **** #endif
 340:../../../../../../Middlewares/Third_Party/LoRaWAN/Crypto/aes.c **** }
 341:../../../../../../Middlewares/Third_Party/LoRaWAN/Crypto/aes.c **** 
 342:../../../../../../Middlewares/Third_Party/LoRaWAN/Crypto/aes.c **** static void copy_block_nn( uint8_t * d, const uint8_t *s, uint8_t nn )
 343:../../../../../../Middlewares/Third_Party/LoRaWAN/Crypto/aes.c **** {
 344:../../../../../../Middlewares/Third_Party/LoRaWAN/Crypto/aes.c ****     while( nn-- )
 345:../../../../../../Middlewares/Third_Party/LoRaWAN/Crypto/aes.c ****         //*((uint8_t*)d)++ = *((uint8_t*)s)++;
 346:../../../../../../Middlewares/Third_Party/LoRaWAN/Crypto/aes.c ****         *d++ = *s++;
 347:../../../../../../Middlewares/Third_Party/LoRaWAN/Crypto/aes.c **** }
 348:../../../../../../Middlewares/Third_Party/LoRaWAN/Crypto/aes.c **** 
 349:../../../../../../Middlewares/Third_Party/LoRaWAN/Crypto/aes.c **** static void xor_block( void *d, const void *s )
 350:../../../../../../Middlewares/Third_Party/LoRaWAN/Crypto/aes.c **** {
 351:../../../../../../Middlewares/Third_Party/LoRaWAN/Crypto/aes.c **** #if defined( HAVE_UINT_32T )
 352:../../../../../../Middlewares/Third_Party/LoRaWAN/Crypto/aes.c ****     ((uint32_t*)d)[ 0] ^= ((uint32_t*)s)[ 0];
 353:../../../../../../Middlewares/Third_Party/LoRaWAN/Crypto/aes.c ****     ((uint32_t*)d)[ 1] ^= ((uint32_t*)s)[ 1];
 354:../../../../../../Middlewares/Third_Party/LoRaWAN/Crypto/aes.c ****     ((uint32_t*)d)[ 2] ^= ((uint32_t*)s)[ 2];
 355:../../../../../../Middlewares/Third_Party/LoRaWAN/Crypto/aes.c ****     ((uint32_t*)d)[ 3] ^= ((uint32_t*)s)[ 3];
 356:../../../../../../Middlewares/Third_Party/LoRaWAN/Crypto/aes.c **** #else
 357:../../../../../../Middlewares/Third_Party/LoRaWAN/Crypto/aes.c ****     ((uint8_t*)d)[ 0] ^= ((uint8_t*)s)[ 0];
 358:../../../../../../Middlewares/Third_Party/LoRaWAN/Crypto/aes.c ****     ((uint8_t*)d)[ 1] ^= ((uint8_t*)s)[ 1];
 359:../../../../../../Middlewares/Third_Party/LoRaWAN/Crypto/aes.c ****     ((uint8_t*)d)[ 2] ^= ((uint8_t*)s)[ 2];
 360:../../../../../../Middlewares/Third_Party/LoRaWAN/Crypto/aes.c ****     ((uint8_t*)d)[ 3] ^= ((uint8_t*)s)[ 3];
 361:../../../../../../Middlewares/Third_Party/LoRaWAN/Crypto/aes.c ****     ((uint8_t*)d)[ 4] ^= ((uint8_t*)s)[ 4];
 362:../../../../../../Middlewares/Third_Party/LoRaWAN/Crypto/aes.c ****     ((uint8_t*)d)[ 5] ^= ((uint8_t*)s)[ 5];
 363:../../../../../../Middlewares/Third_Party/LoRaWAN/Crypto/aes.c ****     ((uint8_t*)d)[ 6] ^= ((uint8_t*)s)[ 6];
 364:../../../../../../Middlewares/Third_Party/LoRaWAN/Crypto/aes.c ****     ((uint8_t*)d)[ 7] ^= ((uint8_t*)s)[ 7];
 365:../../../../../../Middlewares/Third_Party/LoRaWAN/Crypto/aes.c ****     ((uint8_t*)d)[ 8] ^= ((uint8_t*)s)[ 8];
 366:../../../../../../Middlewares/Third_Party/LoRaWAN/Crypto/aes.c ****     ((uint8_t*)d)[ 9] ^= ((uint8_t*)s)[ 9];
 367:../../../../../../Middlewares/Third_Party/LoRaWAN/Crypto/aes.c ****     ((uint8_t*)d)[10] ^= ((uint8_t*)s)[10];
 368:../../../../../../Middlewares/Third_Party/LoRaWAN/Crypto/aes.c ****     ((uint8_t*)d)[11] ^= ((uint8_t*)s)[11];
 369:../../../../../../Middlewares/Third_Party/LoRaWAN/Crypto/aes.c ****     ((uint8_t*)d)[12] ^= ((uint8_t*)s)[12];
 370:../../../../../../Middlewares/Third_Party/LoRaWAN/Crypto/aes.c ****     ((uint8_t*)d)[13] ^= ((uint8_t*)s)[13];
 371:../../../../../../Middlewares/Third_Party/LoRaWAN/Crypto/aes.c ****     ((uint8_t*)d)[14] ^= ((uint8_t*)s)[14];
 372:../../../../../../Middlewares/Third_Party/LoRaWAN/Crypto/aes.c ****     ((uint8_t*)d)[15] ^= ((uint8_t*)s)[15];
 373:../../../../../../Middlewares/Third_Party/LoRaWAN/Crypto/aes.c **** #endif
 374:../../../../../../Middlewares/Third_Party/LoRaWAN/Crypto/aes.c **** }
ARM GAS  C:\Users\EBANO_~1\AppData\Local\Temp\ccMXEZix.s 			page 8


 375:../../../../../../Middlewares/Third_Party/LoRaWAN/Crypto/aes.c **** 
 376:../../../../../../Middlewares/Third_Party/LoRaWAN/Crypto/aes.c **** static void copy_and_key( void *d, const void *s, const void *k )
 377:../../../../../../Middlewares/Third_Party/LoRaWAN/Crypto/aes.c **** {
 378:../../../../../../Middlewares/Third_Party/LoRaWAN/Crypto/aes.c **** #if defined( HAVE_UINT_32T )
 379:../../../../../../Middlewares/Third_Party/LoRaWAN/Crypto/aes.c ****     ((uint32_t*)d)[ 0] = ((uint32_t*)s)[ 0] ^ ((uint32_t*)k)[ 0];
 380:../../../../../../Middlewares/Third_Party/LoRaWAN/Crypto/aes.c ****     ((uint32_t*)d)[ 1] = ((uint32_t*)s)[ 1] ^ ((uint32_t*)k)[ 1];
 381:../../../../../../Middlewares/Third_Party/LoRaWAN/Crypto/aes.c ****     ((uint32_t*)d)[ 2] = ((uint32_t*)s)[ 2] ^ ((uint32_t*)k)[ 2];
 382:../../../../../../Middlewares/Third_Party/LoRaWAN/Crypto/aes.c ****     ((uint32_t*)d)[ 3] = ((uint32_t*)s)[ 3] ^ ((uint32_t*)k)[ 3];
 383:../../../../../../Middlewares/Third_Party/LoRaWAN/Crypto/aes.c **** #elif 1
 384:../../../../../../Middlewares/Third_Party/LoRaWAN/Crypto/aes.c ****     ((uint8_t*)d)[ 0] = ((uint8_t*)s)[ 0] ^ ((uint8_t*)k)[ 0];
 385:../../../../../../Middlewares/Third_Party/LoRaWAN/Crypto/aes.c ****     ((uint8_t*)d)[ 1] = ((uint8_t*)s)[ 1] ^ ((uint8_t*)k)[ 1];
 386:../../../../../../Middlewares/Third_Party/LoRaWAN/Crypto/aes.c ****     ((uint8_t*)d)[ 2] = ((uint8_t*)s)[ 2] ^ ((uint8_t*)k)[ 2];
 387:../../../../../../Middlewares/Third_Party/LoRaWAN/Crypto/aes.c ****     ((uint8_t*)d)[ 3] = ((uint8_t*)s)[ 3] ^ ((uint8_t*)k)[ 3];
 388:../../../../../../Middlewares/Third_Party/LoRaWAN/Crypto/aes.c ****     ((uint8_t*)d)[ 4] = ((uint8_t*)s)[ 4] ^ ((uint8_t*)k)[ 4];
 389:../../../../../../Middlewares/Third_Party/LoRaWAN/Crypto/aes.c ****     ((uint8_t*)d)[ 5] = ((uint8_t*)s)[ 5] ^ ((uint8_t*)k)[ 5];
 390:../../../../../../Middlewares/Third_Party/LoRaWAN/Crypto/aes.c ****     ((uint8_t*)d)[ 6] = ((uint8_t*)s)[ 6] ^ ((uint8_t*)k)[ 6];
 391:../../../../../../Middlewares/Third_Party/LoRaWAN/Crypto/aes.c ****     ((uint8_t*)d)[ 7] = ((uint8_t*)s)[ 7] ^ ((uint8_t*)k)[ 7];
 392:../../../../../../Middlewares/Third_Party/LoRaWAN/Crypto/aes.c ****     ((uint8_t*)d)[ 8] = ((uint8_t*)s)[ 8] ^ ((uint8_t*)k)[ 8];
 393:../../../../../../Middlewares/Third_Party/LoRaWAN/Crypto/aes.c ****     ((uint8_t*)d)[ 9] = ((uint8_t*)s)[ 9] ^ ((uint8_t*)k)[ 9];
 394:../../../../../../Middlewares/Third_Party/LoRaWAN/Crypto/aes.c ****     ((uint8_t*)d)[10] = ((uint8_t*)s)[10] ^ ((uint8_t*)k)[10];
 395:../../../../../../Middlewares/Third_Party/LoRaWAN/Crypto/aes.c ****     ((uint8_t*)d)[11] = ((uint8_t*)s)[11] ^ ((uint8_t*)k)[11];
 396:../../../../../../Middlewares/Third_Party/LoRaWAN/Crypto/aes.c ****     ((uint8_t*)d)[12] = ((uint8_t*)s)[12] ^ ((uint8_t*)k)[12];
 397:../../../../../../Middlewares/Third_Party/LoRaWAN/Crypto/aes.c ****     ((uint8_t*)d)[13] = ((uint8_t*)s)[13] ^ ((uint8_t*)k)[13];
 398:../../../../../../Middlewares/Third_Party/LoRaWAN/Crypto/aes.c ****     ((uint8_t*)d)[14] = ((uint8_t*)s)[14] ^ ((uint8_t*)k)[14];
 399:../../../../../../Middlewares/Third_Party/LoRaWAN/Crypto/aes.c ****     ((uint8_t*)d)[15] = ((uint8_t*)s)[15] ^ ((uint8_t*)k)[15];
 400:../../../../../../Middlewares/Third_Party/LoRaWAN/Crypto/aes.c **** #else
 401:../../../../../../Middlewares/Third_Party/LoRaWAN/Crypto/aes.c ****     block_copy(d, s);
 402:../../../../../../Middlewares/Third_Party/LoRaWAN/Crypto/aes.c ****     xor_block(d, k);
 403:../../../../../../Middlewares/Third_Party/LoRaWAN/Crypto/aes.c **** #endif
 404:../../../../../../Middlewares/Third_Party/LoRaWAN/Crypto/aes.c **** }
 405:../../../../../../Middlewares/Third_Party/LoRaWAN/Crypto/aes.c **** 
 406:../../../../../../Middlewares/Third_Party/LoRaWAN/Crypto/aes.c **** static void add_round_key( uint8_t d[N_BLOCK], const uint8_t k[N_BLOCK] )
 407:../../../../../../Middlewares/Third_Party/LoRaWAN/Crypto/aes.c **** {
 408:../../../../../../Middlewares/Third_Party/LoRaWAN/Crypto/aes.c ****     xor_block(d, k);
 409:../../../../../../Middlewares/Third_Party/LoRaWAN/Crypto/aes.c **** }
 410:../../../../../../Middlewares/Third_Party/LoRaWAN/Crypto/aes.c **** 
 411:../../../../../../Middlewares/Third_Party/LoRaWAN/Crypto/aes.c **** static void shift_sub_rows( uint8_t st[N_BLOCK] )
 412:../../../../../../Middlewares/Third_Party/LoRaWAN/Crypto/aes.c **** {   uint8_t tt;
 413:../../../../../../Middlewares/Third_Party/LoRaWAN/Crypto/aes.c **** 
 414:../../../../../../Middlewares/Third_Party/LoRaWAN/Crypto/aes.c ****     st[ 0] = s_box(st[ 0]); st[ 4] = s_box(st[ 4]);
 415:../../../../../../Middlewares/Third_Party/LoRaWAN/Crypto/aes.c ****     st[ 8] = s_box(st[ 8]); st[12] = s_box(st[12]);
 416:../../../../../../Middlewares/Third_Party/LoRaWAN/Crypto/aes.c **** 
 417:../../../../../../Middlewares/Third_Party/LoRaWAN/Crypto/aes.c ****     tt = st[1]; st[ 1] = s_box(st[ 5]); st[ 5] = s_box(st[ 9]);
 418:../../../../../../Middlewares/Third_Party/LoRaWAN/Crypto/aes.c ****     st[ 9] = s_box(st[13]); st[13] = s_box( tt );
 419:../../../../../../Middlewares/Third_Party/LoRaWAN/Crypto/aes.c **** 
 420:../../../../../../Middlewares/Third_Party/LoRaWAN/Crypto/aes.c ****     tt = st[2]; st[ 2] = s_box(st[10]); st[10] = s_box( tt );
 421:../../../../../../Middlewares/Third_Party/LoRaWAN/Crypto/aes.c ****     tt = st[6]; st[ 6] = s_box(st[14]); st[14] = s_box( tt );
 422:../../../../../../Middlewares/Third_Party/LoRaWAN/Crypto/aes.c **** 
 423:../../../../../../Middlewares/Third_Party/LoRaWAN/Crypto/aes.c ****     tt = st[15]; st[15] = s_box(st[11]); st[11] = s_box(st[ 7]);
 424:../../../../../../Middlewares/Third_Party/LoRaWAN/Crypto/aes.c ****     st[ 7] = s_box(st[ 3]); st[ 3] = s_box( tt );
 425:../../../../../../Middlewares/Third_Party/LoRaWAN/Crypto/aes.c **** }
 426:../../../../../../Middlewares/Third_Party/LoRaWAN/Crypto/aes.c **** 
 427:../../../../../../Middlewares/Third_Party/LoRaWAN/Crypto/aes.c **** #if defined( AES_DEC_PREKEYED )
 428:../../../../../../Middlewares/Third_Party/LoRaWAN/Crypto/aes.c **** 
 429:../../../../../../Middlewares/Third_Party/LoRaWAN/Crypto/aes.c **** static void inv_shift_sub_rows( uint8_t st[N_BLOCK] )
 430:../../../../../../Middlewares/Third_Party/LoRaWAN/Crypto/aes.c **** {   uint8_t tt;
 431:../../../../../../Middlewares/Third_Party/LoRaWAN/Crypto/aes.c **** 
ARM GAS  C:\Users\EBANO_~1\AppData\Local\Temp\ccMXEZix.s 			page 9


 432:../../../../../../Middlewares/Third_Party/LoRaWAN/Crypto/aes.c ****     st[ 0] = is_box(st[ 0]); st[ 4] = is_box(st[ 4]);
 433:../../../../../../Middlewares/Third_Party/LoRaWAN/Crypto/aes.c ****     st[ 8] = is_box(st[ 8]); st[12] = is_box(st[12]);
 434:../../../../../../Middlewares/Third_Party/LoRaWAN/Crypto/aes.c **** 
 435:../../../../../../Middlewares/Third_Party/LoRaWAN/Crypto/aes.c ****     tt = st[13]; st[13] = is_box(st[9]); st[ 9] = is_box(st[5]);
 436:../../../../../../Middlewares/Third_Party/LoRaWAN/Crypto/aes.c ****     st[ 5] = is_box(st[1]); st[ 1] = is_box( tt );
 437:../../../../../../Middlewares/Third_Party/LoRaWAN/Crypto/aes.c **** 
 438:../../../../../../Middlewares/Third_Party/LoRaWAN/Crypto/aes.c ****     tt = st[2]; st[ 2] = is_box(st[10]); st[10] = is_box( tt );
 439:../../../../../../Middlewares/Third_Party/LoRaWAN/Crypto/aes.c ****     tt = st[6]; st[ 6] = is_box(st[14]); st[14] = is_box( tt );
 440:../../../../../../Middlewares/Third_Party/LoRaWAN/Crypto/aes.c **** 
 441:../../../../../../Middlewares/Third_Party/LoRaWAN/Crypto/aes.c ****     tt = st[3]; st[ 3] = is_box(st[ 7]); st[ 7] = is_box(st[11]);
 442:../../../../../../Middlewares/Third_Party/LoRaWAN/Crypto/aes.c ****     st[11] = is_box(st[15]); st[15] = is_box( tt );
 443:../../../../../../Middlewares/Third_Party/LoRaWAN/Crypto/aes.c **** }
 444:../../../../../../Middlewares/Third_Party/LoRaWAN/Crypto/aes.c **** 
 445:../../../../../../Middlewares/Third_Party/LoRaWAN/Crypto/aes.c **** #endif
 446:../../../../../../Middlewares/Third_Party/LoRaWAN/Crypto/aes.c **** 
 447:../../../../../../Middlewares/Third_Party/LoRaWAN/Crypto/aes.c **** #if defined( VERSION_1 )
 448:../../../../../../Middlewares/Third_Party/LoRaWAN/Crypto/aes.c ****   static void mix_sub_columns( uint8_t dt[N_BLOCK] )
 449:../../../../../../Middlewares/Third_Party/LoRaWAN/Crypto/aes.c ****   { uint8_t st[N_BLOCK];
 450:../../../../../../Middlewares/Third_Party/LoRaWAN/Crypto/aes.c ****     block_copy(st, dt);
 451:../../../../../../Middlewares/Third_Party/LoRaWAN/Crypto/aes.c **** #else
 452:../../../../../../Middlewares/Third_Party/LoRaWAN/Crypto/aes.c ****   static void mix_sub_columns( uint8_t dt[N_BLOCK], uint8_t st[N_BLOCK] )
 453:../../../../../../Middlewares/Third_Party/LoRaWAN/Crypto/aes.c ****   {
 454:../../../../../../Middlewares/Third_Party/LoRaWAN/Crypto/aes.c **** #endif
 455:../../../../../../Middlewares/Third_Party/LoRaWAN/Crypto/aes.c ****     dt[ 0] = gfm2_sb(st[0]) ^ gfm3_sb(st[5]) ^ s_box(st[10]) ^ s_box(st[15]);
 456:../../../../../../Middlewares/Third_Party/LoRaWAN/Crypto/aes.c ****     dt[ 1] = s_box(st[0]) ^ gfm2_sb(st[5]) ^ gfm3_sb(st[10]) ^ s_box(st[15]);
 457:../../../../../../Middlewares/Third_Party/LoRaWAN/Crypto/aes.c ****     dt[ 2] = s_box(st[0]) ^ s_box(st[5]) ^ gfm2_sb(st[10]) ^ gfm3_sb(st[15]);
 458:../../../../../../Middlewares/Third_Party/LoRaWAN/Crypto/aes.c ****     dt[ 3] = gfm3_sb(st[0]) ^ s_box(st[5]) ^ s_box(st[10]) ^ gfm2_sb(st[15]);
 459:../../../../../../Middlewares/Third_Party/LoRaWAN/Crypto/aes.c **** 
 460:../../../../../../Middlewares/Third_Party/LoRaWAN/Crypto/aes.c ****     dt[ 4] = gfm2_sb(st[4]) ^ gfm3_sb(st[9]) ^ s_box(st[14]) ^ s_box(st[3]);
 461:../../../../../../Middlewares/Third_Party/LoRaWAN/Crypto/aes.c ****     dt[ 5] = s_box(st[4]) ^ gfm2_sb(st[9]) ^ gfm3_sb(st[14]) ^ s_box(st[3]);
 462:../../../../../../Middlewares/Third_Party/LoRaWAN/Crypto/aes.c ****     dt[ 6] = s_box(st[4]) ^ s_box(st[9]) ^ gfm2_sb(st[14]) ^ gfm3_sb(st[3]);
 463:../../../../../../Middlewares/Third_Party/LoRaWAN/Crypto/aes.c ****     dt[ 7] = gfm3_sb(st[4]) ^ s_box(st[9]) ^ s_box(st[14]) ^ gfm2_sb(st[3]);
 464:../../../../../../Middlewares/Third_Party/LoRaWAN/Crypto/aes.c **** 
 465:../../../../../../Middlewares/Third_Party/LoRaWAN/Crypto/aes.c ****     dt[ 8] = gfm2_sb(st[8]) ^ gfm3_sb(st[13]) ^ s_box(st[2]) ^ s_box(st[7]);
 466:../../../../../../Middlewares/Third_Party/LoRaWAN/Crypto/aes.c ****     dt[ 9] = s_box(st[8]) ^ gfm2_sb(st[13]) ^ gfm3_sb(st[2]) ^ s_box(st[7]);
 467:../../../../../../Middlewares/Third_Party/LoRaWAN/Crypto/aes.c ****     dt[10] = s_box(st[8]) ^ s_box(st[13]) ^ gfm2_sb(st[2]) ^ gfm3_sb(st[7]);
 468:../../../../../../Middlewares/Third_Party/LoRaWAN/Crypto/aes.c ****     dt[11] = gfm3_sb(st[8]) ^ s_box(st[13]) ^ s_box(st[2]) ^ gfm2_sb(st[7]);
 469:../../../../../../Middlewares/Third_Party/LoRaWAN/Crypto/aes.c **** 
 470:../../../../../../Middlewares/Third_Party/LoRaWAN/Crypto/aes.c ****     dt[12] = gfm2_sb(st[12]) ^ gfm3_sb(st[1]) ^ s_box(st[6]) ^ s_box(st[11]);
 471:../../../../../../Middlewares/Third_Party/LoRaWAN/Crypto/aes.c ****     dt[13] = s_box(st[12]) ^ gfm2_sb(st[1]) ^ gfm3_sb(st[6]) ^ s_box(st[11]);
 472:../../../../../../Middlewares/Third_Party/LoRaWAN/Crypto/aes.c ****     dt[14] = s_box(st[12]) ^ s_box(st[1]) ^ gfm2_sb(st[6]) ^ gfm3_sb(st[11]);
 473:../../../../../../Middlewares/Third_Party/LoRaWAN/Crypto/aes.c ****     dt[15] = gfm3_sb(st[12]) ^ s_box(st[1]) ^ s_box(st[6]) ^ gfm2_sb(st[11]);
 474:../../../../../../Middlewares/Third_Party/LoRaWAN/Crypto/aes.c ****   }
 475:../../../../../../Middlewares/Third_Party/LoRaWAN/Crypto/aes.c **** 
 476:../../../../../../Middlewares/Third_Party/LoRaWAN/Crypto/aes.c **** #if defined( AES_DEC_PREKEYED )
 477:../../../../../../Middlewares/Third_Party/LoRaWAN/Crypto/aes.c **** 
 478:../../../../../../Middlewares/Third_Party/LoRaWAN/Crypto/aes.c **** #if defined( VERSION_1 )
 479:../../../../../../Middlewares/Third_Party/LoRaWAN/Crypto/aes.c ****   static void inv_mix_sub_columns( uint8_t dt[N_BLOCK] )
 480:../../../../../../Middlewares/Third_Party/LoRaWAN/Crypto/aes.c ****   { uint8_t st[N_BLOCK];
 481:../../../../../../Middlewares/Third_Party/LoRaWAN/Crypto/aes.c ****     block_copy(st, dt);
 482:../../../../../../Middlewares/Third_Party/LoRaWAN/Crypto/aes.c **** #else
 483:../../../../../../Middlewares/Third_Party/LoRaWAN/Crypto/aes.c ****   static void inv_mix_sub_columns( uint8_t dt[N_BLOCK], uint8_t st[N_BLOCK] )
 484:../../../../../../Middlewares/Third_Party/LoRaWAN/Crypto/aes.c ****   {
 485:../../../../../../Middlewares/Third_Party/LoRaWAN/Crypto/aes.c **** #endif
 486:../../../../../../Middlewares/Third_Party/LoRaWAN/Crypto/aes.c ****     dt[ 0] = is_box(gfm_e(st[ 0]) ^ gfm_b(st[ 1]) ^ gfm_d(st[ 2]) ^ gfm_9(st[ 3]));
 487:../../../../../../Middlewares/Third_Party/LoRaWAN/Crypto/aes.c ****     dt[ 5] = is_box(gfm_9(st[ 0]) ^ gfm_e(st[ 1]) ^ gfm_b(st[ 2]) ^ gfm_d(st[ 3]));
 488:../../../../../../Middlewares/Third_Party/LoRaWAN/Crypto/aes.c ****     dt[10] = is_box(gfm_d(st[ 0]) ^ gfm_9(st[ 1]) ^ gfm_e(st[ 2]) ^ gfm_b(st[ 3]));
ARM GAS  C:\Users\EBANO_~1\AppData\Local\Temp\ccMXEZix.s 			page 10


 489:../../../../../../Middlewares/Third_Party/LoRaWAN/Crypto/aes.c ****     dt[15] = is_box(gfm_b(st[ 0]) ^ gfm_d(st[ 1]) ^ gfm_9(st[ 2]) ^ gfm_e(st[ 3]));
 490:../../../../../../Middlewares/Third_Party/LoRaWAN/Crypto/aes.c **** 
 491:../../../../../../Middlewares/Third_Party/LoRaWAN/Crypto/aes.c ****     dt[ 4] = is_box(gfm_e(st[ 4]) ^ gfm_b(st[ 5]) ^ gfm_d(st[ 6]) ^ gfm_9(st[ 7]));
 492:../../../../../../Middlewares/Third_Party/LoRaWAN/Crypto/aes.c ****     dt[ 9] = is_box(gfm_9(st[ 4]) ^ gfm_e(st[ 5]) ^ gfm_b(st[ 6]) ^ gfm_d(st[ 7]));
 493:../../../../../../Middlewares/Third_Party/LoRaWAN/Crypto/aes.c ****     dt[14] = is_box(gfm_d(st[ 4]) ^ gfm_9(st[ 5]) ^ gfm_e(st[ 6]) ^ gfm_b(st[ 7]));
 494:../../../../../../Middlewares/Third_Party/LoRaWAN/Crypto/aes.c ****     dt[ 3] = is_box(gfm_b(st[ 4]) ^ gfm_d(st[ 5]) ^ gfm_9(st[ 6]) ^ gfm_e(st[ 7]));
 495:../../../../../../Middlewares/Third_Party/LoRaWAN/Crypto/aes.c **** 
 496:../../../../../../Middlewares/Third_Party/LoRaWAN/Crypto/aes.c ****     dt[ 8] = is_box(gfm_e(st[ 8]) ^ gfm_b(st[ 9]) ^ gfm_d(st[10]) ^ gfm_9(st[11]));
 497:../../../../../../Middlewares/Third_Party/LoRaWAN/Crypto/aes.c ****     dt[13] = is_box(gfm_9(st[ 8]) ^ gfm_e(st[ 9]) ^ gfm_b(st[10]) ^ gfm_d(st[11]));
 498:../../../../../../Middlewares/Third_Party/LoRaWAN/Crypto/aes.c ****     dt[ 2] = is_box(gfm_d(st[ 8]) ^ gfm_9(st[ 9]) ^ gfm_e(st[10]) ^ gfm_b(st[11]));
 499:../../../../../../Middlewares/Third_Party/LoRaWAN/Crypto/aes.c ****     dt[ 7] = is_box(gfm_b(st[ 8]) ^ gfm_d(st[ 9]) ^ gfm_9(st[10]) ^ gfm_e(st[11]));
 500:../../../../../../Middlewares/Third_Party/LoRaWAN/Crypto/aes.c **** 
 501:../../../../../../Middlewares/Third_Party/LoRaWAN/Crypto/aes.c ****     dt[12] = is_box(gfm_e(st[12]) ^ gfm_b(st[13]) ^ gfm_d(st[14]) ^ gfm_9(st[15]));
 502:../../../../../../Middlewares/Third_Party/LoRaWAN/Crypto/aes.c ****     dt[ 1] = is_box(gfm_9(st[12]) ^ gfm_e(st[13]) ^ gfm_b(st[14]) ^ gfm_d(st[15]));
 503:../../../../../../Middlewares/Third_Party/LoRaWAN/Crypto/aes.c ****     dt[ 6] = is_box(gfm_d(st[12]) ^ gfm_9(st[13]) ^ gfm_e(st[14]) ^ gfm_b(st[15]));
 504:../../../../../../Middlewares/Third_Party/LoRaWAN/Crypto/aes.c ****     dt[11] = is_box(gfm_b(st[12]) ^ gfm_d(st[13]) ^ gfm_9(st[14]) ^ gfm_e(st[15]));
 505:../../../../../../Middlewares/Third_Party/LoRaWAN/Crypto/aes.c ****   }
 506:../../../../../../Middlewares/Third_Party/LoRaWAN/Crypto/aes.c **** 
 507:../../../../../../Middlewares/Third_Party/LoRaWAN/Crypto/aes.c **** #endif
 508:../../../../../../Middlewares/Third_Party/LoRaWAN/Crypto/aes.c **** 
 509:../../../../../../Middlewares/Third_Party/LoRaWAN/Crypto/aes.c **** #if defined( AES_ENC_PREKEYED ) || defined( AES_DEC_PREKEYED )
 510:../../../../../../Middlewares/Third_Party/LoRaWAN/Crypto/aes.c **** 
 511:../../../../../../Middlewares/Third_Party/LoRaWAN/Crypto/aes.c **** /*  Set the cipher key for the pre-keyed version */
 512:../../../../../../Middlewares/Third_Party/LoRaWAN/Crypto/aes.c **** 
 513:../../../../../../Middlewares/Third_Party/LoRaWAN/Crypto/aes.c **** return_type aes_set_key( const uint8_t key[], length_type keylen, aes_context ctx[1] )
 514:../../../../../../Middlewares/Third_Party/LoRaWAN/Crypto/aes.c **** {
 515:../../../../../../Middlewares/Third_Party/LoRaWAN/Crypto/aes.c ****     uint8_t cc, rc, hi;
 516:../../../../../../Middlewares/Third_Party/LoRaWAN/Crypto/aes.c **** 
 517:../../../../../../Middlewares/Third_Party/LoRaWAN/Crypto/aes.c ****     switch( keylen )
 518:../../../../../../Middlewares/Third_Party/LoRaWAN/Crypto/aes.c ****     {
 519:../../../../../../Middlewares/Third_Party/LoRaWAN/Crypto/aes.c ****     case 16:
 520:../../../../../../Middlewares/Third_Party/LoRaWAN/Crypto/aes.c ****     case 24:
 521:../../../../../../Middlewares/Third_Party/LoRaWAN/Crypto/aes.c ****     case 32:
 522:../../../../../../Middlewares/Third_Party/LoRaWAN/Crypto/aes.c ****         break;
 523:../../../../../../Middlewares/Third_Party/LoRaWAN/Crypto/aes.c ****     default:
 524:../../../../../../Middlewares/Third_Party/LoRaWAN/Crypto/aes.c ****         ctx->rnd = 0;
 525:../../../../../../Middlewares/Third_Party/LoRaWAN/Crypto/aes.c ****         return ( uint8_t )-1;
 526:../../../../../../Middlewares/Third_Party/LoRaWAN/Crypto/aes.c ****     }
 527:../../../../../../Middlewares/Third_Party/LoRaWAN/Crypto/aes.c ****     block_copy_nn(ctx->ksch, key, keylen);
 528:../../../../../../Middlewares/Third_Party/LoRaWAN/Crypto/aes.c ****     hi = (keylen + 28) << 2;
 529:../../../../../../Middlewares/Third_Party/LoRaWAN/Crypto/aes.c ****     ctx->rnd = (hi >> 4) - 1;
 530:../../../../../../Middlewares/Third_Party/LoRaWAN/Crypto/aes.c ****     for( cc = keylen, rc = 1; cc < hi; cc += 4 )
 531:../../../../../../Middlewares/Third_Party/LoRaWAN/Crypto/aes.c ****     {   uint8_t tt, t0, t1, t2, t3;
 532:../../../../../../Middlewares/Third_Party/LoRaWAN/Crypto/aes.c **** 
 533:../../../../../../Middlewares/Third_Party/LoRaWAN/Crypto/aes.c ****         t0 = ctx->ksch[cc - 4];
 534:../../../../../../Middlewares/Third_Party/LoRaWAN/Crypto/aes.c ****         t1 = ctx->ksch[cc - 3];
 535:../../../../../../Middlewares/Third_Party/LoRaWAN/Crypto/aes.c ****         t2 = ctx->ksch[cc - 2];
 536:../../../../../../Middlewares/Third_Party/LoRaWAN/Crypto/aes.c ****         t3 = ctx->ksch[cc - 1];
 537:../../../../../../Middlewares/Third_Party/LoRaWAN/Crypto/aes.c ****         if( cc % keylen == 0 )
 538:../../../../../../Middlewares/Third_Party/LoRaWAN/Crypto/aes.c ****         {
 539:../../../../../../Middlewares/Third_Party/LoRaWAN/Crypto/aes.c ****             tt = t0;
 540:../../../../../../Middlewares/Third_Party/LoRaWAN/Crypto/aes.c ****             t0 = s_box(t1) ^ rc;
 541:../../../../../../Middlewares/Third_Party/LoRaWAN/Crypto/aes.c ****             t1 = s_box(t2);
 542:../../../../../../Middlewares/Third_Party/LoRaWAN/Crypto/aes.c ****             t2 = s_box(t3);
 543:../../../../../../Middlewares/Third_Party/LoRaWAN/Crypto/aes.c ****             t3 = s_box(tt);
 544:../../../../../../Middlewares/Third_Party/LoRaWAN/Crypto/aes.c ****             rc = f2(rc);
 545:../../../../../../Middlewares/Third_Party/LoRaWAN/Crypto/aes.c ****         }
ARM GAS  C:\Users\EBANO_~1\AppData\Local\Temp\ccMXEZix.s 			page 11


 546:../../../../../../Middlewares/Third_Party/LoRaWAN/Crypto/aes.c ****         else if( keylen > 24 && cc % keylen == 16 )
 547:../../../../../../Middlewares/Third_Party/LoRaWAN/Crypto/aes.c ****         {
 548:../../../../../../Middlewares/Third_Party/LoRaWAN/Crypto/aes.c ****             t0 = s_box(t0);
 549:../../../../../../Middlewares/Third_Party/LoRaWAN/Crypto/aes.c ****             t1 = s_box(t1);
 550:../../../../../../Middlewares/Third_Party/LoRaWAN/Crypto/aes.c ****             t2 = s_box(t2);
 551:../../../../../../Middlewares/Third_Party/LoRaWAN/Crypto/aes.c ****             t3 = s_box(t3);
 552:../../../../../../Middlewares/Third_Party/LoRaWAN/Crypto/aes.c ****         }
 553:../../../../../../Middlewares/Third_Party/LoRaWAN/Crypto/aes.c ****         tt = cc - keylen;
 554:../../../../../../Middlewares/Third_Party/LoRaWAN/Crypto/aes.c ****         ctx->ksch[cc + 0] = ctx->ksch[tt + 0] ^ t0;
 555:../../../../../../Middlewares/Third_Party/LoRaWAN/Crypto/aes.c ****         ctx->ksch[cc + 1] = ctx->ksch[tt + 1] ^ t1;
 556:../../../../../../Middlewares/Third_Party/LoRaWAN/Crypto/aes.c ****         ctx->ksch[cc + 2] = ctx->ksch[tt + 2] ^ t2;
 557:../../../../../../Middlewares/Third_Party/LoRaWAN/Crypto/aes.c ****         ctx->ksch[cc + 3] = ctx->ksch[tt + 3] ^ t3;
 558:../../../../../../Middlewares/Third_Party/LoRaWAN/Crypto/aes.c ****     }
 559:../../../../../../Middlewares/Third_Party/LoRaWAN/Crypto/aes.c ****     return 0;
 560:../../../../../../Middlewares/Third_Party/LoRaWAN/Crypto/aes.c **** }
 561:../../../../../../Middlewares/Third_Party/LoRaWAN/Crypto/aes.c **** 
 562:../../../../../../Middlewares/Third_Party/LoRaWAN/Crypto/aes.c **** #endif
 563:../../../../../../Middlewares/Third_Party/LoRaWAN/Crypto/aes.c **** 
 564:../../../../../../Middlewares/Third_Party/LoRaWAN/Crypto/aes.c **** #if defined( AES_ENC_PREKEYED )
 565:../../../../../../Middlewares/Third_Party/LoRaWAN/Crypto/aes.c **** 
 566:../../../../../../Middlewares/Third_Party/LoRaWAN/Crypto/aes.c **** /*  Encrypt a single block of 16 bytes */
 567:../../../../../../Middlewares/Third_Party/LoRaWAN/Crypto/aes.c **** 
 568:../../../../../../Middlewares/Third_Party/LoRaWAN/Crypto/aes.c **** return_type aes_encrypt( const uint8_t in[N_BLOCK], uint8_t  out[N_BLOCK], const aes_context ctx[1]
  26              		.loc 1 568 0
  27              		.cfi_startproc
  28              		@ args = 0, pretend = 0, frame = 152
  29              		@ frame_needed = 0, uses_anonymous_args = 0
  30              	.LVL0:
  31 0000 F0B5     		push	{r4, r5, r6, r7, lr}
  32              	.LCFI0:
  33              		.cfi_def_cfa_offset 20
  34              		.cfi_offset 4, -20
  35              		.cfi_offset 5, -16
  36              		.cfi_offset 6, -12
  37              		.cfi_offset 7, -8
  38              		.cfi_offset 14, -4
  39 0002 4546     		mov	r5, r8
  40 0004 DE46     		mov	lr, fp
  41 0006 5746     		mov	r7, r10
  42 0008 4E46     		mov	r6, r9
  43 000a E0B5     		push	{r5, r6, r7, lr}
  44              	.LCFI1:
  45              		.cfi_def_cfa_offset 36
  46              		.cfi_offset 8, -36
  47              		.cfi_offset 9, -32
  48              		.cfi_offset 10, -28
  49              		.cfi_offset 11, -24
  50 000c A7B0     		sub	sp, sp, #156
  51              	.LCFI2:
  52              		.cfi_def_cfa_offset 192
  53              		.loc 1 568 0
  54 000e 2391     		str	r1, [sp, #140]
  55 0010 1100     		movs	r1, r2
  56              	.LVL1:
  57 0012 2492     		str	r2, [sp, #144]
  58              	.LBB32:
  59              	.LBB33:
ARM GAS  C:\Users\EBANO_~1\AppData\Local\Temp\ccMXEZix.s 			page 12


  60              	.LBB34:
 384:../../../../../../Middlewares/Third_Party/LoRaWAN/Crypto/aes.c ****     ((uint8_t*)d)[ 1] = ((uint8_t*)s)[ 1] ^ ((uint8_t*)k)[ 1];
  61              		.loc 1 384 0
  62 0014 0B78     		ldrb	r3, [r1]
  63 0016 0278     		ldrb	r2, [r0]
  64              	.LVL2:
  65 0018 5A40     		eors	r2, r3
  66 001a 9346     		mov	fp, r2
  67              	.LVL3:
 385:../../../../../../Middlewares/Third_Party/LoRaWAN/Crypto/aes.c ****     ((uint8_t*)d)[ 2] = ((uint8_t*)s)[ 2] ^ ((uint8_t*)k)[ 2];
  68              		.loc 1 385 0
  69 001c 4B78     		ldrb	r3, [r1, #1]
  70 001e 4278     		ldrb	r2, [r0, #1]
  71 0020 5A40     		eors	r2, r3
  72 0022 0E92     		str	r2, [sp, #56]
  73              	.LVL4:
 386:../../../../../../Middlewares/Third_Party/LoRaWAN/Crypto/aes.c ****     ((uint8_t*)d)[ 3] = ((uint8_t*)s)[ 3] ^ ((uint8_t*)k)[ 3];
  74              		.loc 1 386 0
  75 0024 8B78     		ldrb	r3, [r1, #2]
  76 0026 8278     		ldrb	r2, [r0, #2]
  77 0028 5A40     		eors	r2, r3
  78 002a 0F92     		str	r2, [sp, #60]
  79              	.LVL5:
 387:../../../../../../Middlewares/Third_Party/LoRaWAN/Crypto/aes.c ****     ((uint8_t*)d)[ 4] = ((uint8_t*)s)[ 4] ^ ((uint8_t*)k)[ 4];
  80              		.loc 1 387 0
  81 002c CB78     		ldrb	r3, [r1, #3]
  82 002e C278     		ldrb	r2, [r0, #3]
  83 0030 5A40     		eors	r2, r3
  84 0032 1092     		str	r2, [sp, #64]
  85              	.LVL6:
 388:../../../../../../Middlewares/Third_Party/LoRaWAN/Crypto/aes.c ****     ((uint8_t*)d)[ 5] = ((uint8_t*)s)[ 5] ^ ((uint8_t*)k)[ 5];
  86              		.loc 1 388 0
  87 0034 0B79     		ldrb	r3, [r1, #4]
  88 0036 0279     		ldrb	r2, [r0, #4]
  89 0038 5A40     		eors	r2, r3
  90 003a 1192     		str	r2, [sp, #68]
  91              	.LVL7:
 389:../../../../../../Middlewares/Third_Party/LoRaWAN/Crypto/aes.c ****     ((uint8_t*)d)[ 6] = ((uint8_t*)s)[ 6] ^ ((uint8_t*)k)[ 6];
  92              		.loc 1 389 0
  93 003c 4B79     		ldrb	r3, [r1, #5]
  94 003e 4279     		ldrb	r2, [r0, #5]
  95 0040 5A40     		eors	r2, r3
  96 0042 0192     		str	r2, [sp, #4]
  97              	.LVL8:
 390:../../../../../../Middlewares/Third_Party/LoRaWAN/Crypto/aes.c ****     ((uint8_t*)d)[ 7] = ((uint8_t*)s)[ 7] ^ ((uint8_t*)k)[ 7];
  98              		.loc 1 390 0
  99 0044 8B79     		ldrb	r3, [r1, #6]
 100 0046 8279     		ldrb	r2, [r0, #6]
 101 0048 5A40     		eors	r2, r3
 102 004a 1292     		str	r2, [sp, #72]
 103              	.LVL9:
 391:../../../../../../Middlewares/Third_Party/LoRaWAN/Crypto/aes.c ****     ((uint8_t*)d)[ 8] = ((uint8_t*)s)[ 8] ^ ((uint8_t*)k)[ 8];
 104              		.loc 1 391 0
 105 004c CB79     		ldrb	r3, [r1, #7]
 106 004e C279     		ldrb	r2, [r0, #7]
 107 0050 5A40     		eors	r2, r3
 108 0052 1392     		str	r2, [sp, #76]
ARM GAS  C:\Users\EBANO_~1\AppData\Local\Temp\ccMXEZix.s 			page 13


 109              	.LVL10:
 392:../../../../../../Middlewares/Third_Party/LoRaWAN/Crypto/aes.c ****     ((uint8_t*)d)[ 9] = ((uint8_t*)s)[ 9] ^ ((uint8_t*)k)[ 9];
 110              		.loc 1 392 0
 111 0054 0B7A     		ldrb	r3, [r1, #8]
 112 0056 027A     		ldrb	r2, [r0, #8]
 113 0058 5A40     		eors	r2, r3
 114 005a 1492     		str	r2, [sp, #80]
 115              	.LVL11:
 393:../../../../../../Middlewares/Third_Party/LoRaWAN/Crypto/aes.c ****     ((uint8_t*)d)[10] = ((uint8_t*)s)[10] ^ ((uint8_t*)k)[10];
 116              		.loc 1 393 0
 117 005c 4B7A     		ldrb	r3, [r1, #9]
 118 005e 427A     		ldrb	r2, [r0, #9]
 394:../../../../../../Middlewares/Third_Party/LoRaWAN/Crypto/aes.c ****     ((uint8_t*)d)[11] = ((uint8_t*)s)[11] ^ ((uint8_t*)k)[11];
 119              		.loc 1 394 0
 120 0060 877A     		ldrb	r7, [r0, #10]
 393:../../../../../../Middlewares/Third_Party/LoRaWAN/Crypto/aes.c ****     ((uint8_t*)d)[10] = ((uint8_t*)s)[10] ^ ((uint8_t*)k)[10];
 121              		.loc 1 393 0
 122 0062 5A40     		eors	r2, r3
 394:../../../../../../Middlewares/Third_Party/LoRaWAN/Crypto/aes.c ****     ((uint8_t*)d)[11] = ((uint8_t*)s)[11] ^ ((uint8_t*)k)[11];
 123              		.loc 1 394 0
 124 0064 8B7A     		ldrb	r3, [r1, #10]
 395:../../../../../../Middlewares/Third_Party/LoRaWAN/Crypto/aes.c ****     ((uint8_t*)d)[12] = ((uint8_t*)s)[12] ^ ((uint8_t*)k)[12];
 125              		.loc 1 395 0
 126 0066 C67A     		ldrb	r6, [r0, #11]
 394:../../../../../../Middlewares/Third_Party/LoRaWAN/Crypto/aes.c ****     ((uint8_t*)d)[11] = ((uint8_t*)s)[11] ^ ((uint8_t*)k)[11];
 127              		.loc 1 394 0
 128 0068 5F40     		eors	r7, r3
 395:../../../../../../Middlewares/Third_Party/LoRaWAN/Crypto/aes.c ****     ((uint8_t*)d)[12] = ((uint8_t*)s)[12] ^ ((uint8_t*)k)[12];
 129              		.loc 1 395 0
 130 006a CB7A     		ldrb	r3, [r1, #11]
 396:../../../../../../Middlewares/Third_Party/LoRaWAN/Crypto/aes.c ****     ((uint8_t*)d)[13] = ((uint8_t*)s)[13] ^ ((uint8_t*)k)[13];
 131              		.loc 1 396 0
 132 006c 057B     		ldrb	r5, [r0, #12]
 395:../../../../../../Middlewares/Third_Party/LoRaWAN/Crypto/aes.c ****     ((uint8_t*)d)[12] = ((uint8_t*)s)[12] ^ ((uint8_t*)k)[12];
 133              		.loc 1 395 0
 134 006e 5E40     		eors	r6, r3
 396:../../../../../../Middlewares/Third_Party/LoRaWAN/Crypto/aes.c ****     ((uint8_t*)d)[13] = ((uint8_t*)s)[13] ^ ((uint8_t*)k)[13];
 135              		.loc 1 396 0
 136 0070 0B7B     		ldrb	r3, [r1, #12]
 397:../../../../../../Middlewares/Third_Party/LoRaWAN/Crypto/aes.c ****     ((uint8_t*)d)[14] = ((uint8_t*)s)[14] ^ ((uint8_t*)k)[14];
 137              		.loc 1 397 0
 138 0072 447B     		ldrb	r4, [r0, #13]
 396:../../../../../../Middlewares/Third_Party/LoRaWAN/Crypto/aes.c ****     ((uint8_t*)d)[13] = ((uint8_t*)s)[13] ^ ((uint8_t*)k)[13];
 139              		.loc 1 396 0
 140 0074 5D40     		eors	r5, r3
 397:../../../../../../Middlewares/Third_Party/LoRaWAN/Crypto/aes.c ****     ((uint8_t*)d)[14] = ((uint8_t*)s)[14] ^ ((uint8_t*)k)[14];
 141              		.loc 1 397 0
 142 0076 4B7B     		ldrb	r3, [r1, #13]
 393:../../../../../../Middlewares/Third_Party/LoRaWAN/Crypto/aes.c ****     ((uint8_t*)d)[10] = ((uint8_t*)s)[10] ^ ((uint8_t*)k)[10];
 143              		.loc 1 393 0
 144 0078 9046     		mov	r8, r2
 145              	.LVL12:
 397:../../../../../../Middlewares/Third_Party/LoRaWAN/Crypto/aes.c ****     ((uint8_t*)d)[14] = ((uint8_t*)s)[14] ^ ((uint8_t*)k)[14];
 146              		.loc 1 397 0
 147 007a 5C40     		eors	r4, r3
 148 007c 0394     		str	r4, [sp, #12]
 398:../../../../../../Middlewares/Third_Party/LoRaWAN/Crypto/aes.c ****     ((uint8_t*)d)[15] = ((uint8_t*)s)[15] ^ ((uint8_t*)k)[15];
ARM GAS  C:\Users\EBANO_~1\AppData\Local\Temp\ccMXEZix.s 			page 14


 149              		.loc 1 398 0
 150 007e 827B     		ldrb	r2, [r0, #14]
 151 0080 8C7B     		ldrb	r4, [r1, #14]
 399:../../../../../../Middlewares/Third_Party/LoRaWAN/Crypto/aes.c **** #else
 152              		.loc 1 399 0
 153 0082 CB7B     		ldrb	r3, [r1, #15]
 398:../../../../../../Middlewares/Third_Party/LoRaWAN/Crypto/aes.c ****     ((uint8_t*)d)[15] = ((uint8_t*)s)[15] ^ ((uint8_t*)k)[15];
 154              		.loc 1 398 0
 155 0084 5440     		eors	r4, r2
 399:../../../../../../Middlewares/Third_Party/LoRaWAN/Crypto/aes.c **** #else
 156              		.loc 1 399 0
 157 0086 C27B     		ldrb	r2, [r0, #15]
 394:../../../../../../Middlewares/Third_Party/LoRaWAN/Crypto/aes.c ****     ((uint8_t*)d)[11] = ((uint8_t*)s)[11] ^ ((uint8_t*)k)[11];
 158              		.loc 1 394 0
 159 0088 0297     		str	r7, [sp, #8]
 160              	.LVL13:
 399:../../../../../../Middlewares/Third_Party/LoRaWAN/Crypto/aes.c **** #else
 161              		.loc 1 399 0
 162 008a 5A40     		eors	r2, r3
 163              	.LBE34:
 164              	.LBE33:
 569:../../../../../../Middlewares/Third_Party/LoRaWAN/Crypto/aes.c **** {
 570:../../../../../../Middlewares/Third_Party/LoRaWAN/Crypto/aes.c ****     if( ctx->rnd )
 571:../../../../../../Middlewares/Third_Party/LoRaWAN/Crypto/aes.c ****     {
 572:../../../../../../Middlewares/Third_Party/LoRaWAN/Crypto/aes.c ****         uint8_t s1[N_BLOCK], r;
 573:../../../../../../Middlewares/Third_Party/LoRaWAN/Crypto/aes.c ****         copy_and_key( s1, in, ctx->ksch );
 574:../../../../../../Middlewares/Third_Party/LoRaWAN/Crypto/aes.c **** 
 575:../../../../../../Middlewares/Third_Party/LoRaWAN/Crypto/aes.c ****         for( r = 1 ; r < ctx->rnd ; ++r )
 165              		.loc 1 575 0
 166 008c F023     		movs	r3, #240
 167              	.LBB37:
 168              	.LBB35:
 395:../../../../../../Middlewares/Third_Party/LoRaWAN/Crypto/aes.c ****     ((uint8_t*)d)[12] = ((uint8_t*)s)[12] ^ ((uint8_t*)k)[12];
 169              		.loc 1 395 0
 170 008e 1596     		str	r6, [sp, #84]
 171              	.LVL14:
 396:../../../../../../Middlewares/Third_Party/LoRaWAN/Crypto/aes.c ****     ((uint8_t*)d)[13] = ((uint8_t*)s)[13] ^ ((uint8_t*)k)[13];
 172              		.loc 1 396 0
 173 0090 0D95     		str	r5, [sp, #52]
 174              	.LVL15:
 175              	.LBE35:
 176              	.LBE37:
 177              		.loc 1 575 0
 178 0092 CB5C     		ldrb	r3, [r1, r3]
 179              	.LBB38:
 180              	.LBB36:
 399:../../../../../../Middlewares/Third_Party/LoRaWAN/Crypto/aes.c **** #else
 181              		.loc 1 399 0
 182 0094 9446     		mov	ip, r2
 183              	.LVL16:
 184              	.LBE36:
 185              	.LBE38:
 186              		.loc 1 575 0
 187 0096 2593     		str	r3, [sp, #148]
 188 0098 0A00     		movs	r2, r1
 189 009a 012B     		cmp	r3, #1
 190 009c 00D8     		bhi	.LCB154
ARM GAS  C:\Users\EBANO_~1\AppData\Local\Temp\ccMXEZix.s 			page 15


 191 009e 7EE1     		b	.L4	@long jump
 192              	.LCB154:
 193 00a0 023B     		subs	r3, r3, #2
 194 00a2 DBB2     		uxtb	r3, r3
 195 00a4 1B01     		lsls	r3, r3, #4
 196 00a6 2032     		adds	r2, r2, #32
 197 00a8 0F00     		movs	r7, r1
 198 00aa 9B18     		adds	r3, r3, r2
 199 00ac 2293     		str	r3, [sp, #136]
 200 00ae C246     		mov	r10, r8
 201 00b0 6346     		mov	r3, ip
 202 00b2 BC49     		ldr	r1, .L7
 203              	.LVL17:
 204 00b4 BC4D     		ldr	r5, .L7+4
 205 00b6 1037     		adds	r7, r7, #16
 206              	.LVL18:
 207 00b8 0494     		str	r4, [sp, #16]
 208              	.LVL19:
 209              	.L3:
 210              	.LBB39:
 211              	.LBB40:
 455:../../../../../../Middlewares/Third_Party/LoRaWAN/Crypto/aes.c ****     dt[ 1] = s_box(st[0]) ^ gfm2_sb(st[5]) ^ gfm3_sb(st[10]) ^ s_box(st[15]);
 212              		.loc 1 455 0
 213 00ba CA5C     		ldrb	r2, [r1, r3]
 214 00bc 0298     		ldr	r0, [sp, #8]
 215 00be 9046     		mov	r8, r2
 456:../../../../../../Middlewares/Third_Party/LoRaWAN/Crypto/aes.c ****     dt[ 2] = s_box(st[0]) ^ s_box(st[5]) ^ gfm2_sb(st[10]) ^ gfm3_sb(st[15]);
 216              		.loc 1 456 0
 217 00c0 5A46     		mov	r2, fp
 218 00c2 8A5C     		ldrb	r2, [r1, r2]
 455:../../../../../../Middlewares/Third_Party/LoRaWAN/Crypto/aes.c ****     dt[ 1] = s_box(st[0]) ^ gfm2_sb(st[5]) ^ gfm3_sb(st[10]) ^ s_box(st[15]);
 219              		.loc 1 455 0
 220 00c4 085C     		ldrb	r0, [r1, r0]
 456:../../../../../../Middlewares/Third_Party/LoRaWAN/Crypto/aes.c ****     dt[ 2] = s_box(st[0]) ^ s_box(st[5]) ^ gfm2_sb(st[10]) ^ gfm3_sb(st[15]);
 221              		.loc 1 456 0
 222 00c6 9446     		mov	ip, r2
 462:../../../../../../Middlewares/Third_Party/LoRaWAN/Crypto/aes.c ****     dt[ 7] = gfm3_sb(st[4]) ^ s_box(st[9]) ^ s_box(st[14]) ^ gfm2_sb(st[3]);
 223              		.loc 1 462 0
 224 00c8 5246     		mov	r2, r10
 455:../../../../../../Middlewares/Third_Party/LoRaWAN/Crypto/aes.c ****     dt[ 1] = s_box(st[0]) ^ gfm2_sb(st[5]) ^ gfm3_sb(st[10]) ^ s_box(st[15]);
 225              		.loc 1 455 0
 226 00ca 0590     		str	r0, [sp, #20]
 460:../../../../../../Middlewares/Third_Party/LoRaWAN/Crypto/aes.c ****     dt[ 5] = s_box(st[4]) ^ gfm2_sb(st[9]) ^ gfm3_sb(st[14]) ^ s_box(st[3]);
 227              		.loc 1 460 0
 228 00cc 0498     		ldr	r0, [sp, #16]
 457:../../../../../../Middlewares/Third_Party/LoRaWAN/Crypto/aes.c ****     dt[ 3] = gfm3_sb(st[0]) ^ s_box(st[5]) ^ s_box(st[10]) ^ gfm2_sb(st[15]);
 229              		.loc 1 457 0
 230 00ce 019C     		ldr	r4, [sp, #4]
 460:../../../../../../Middlewares/Third_Party/LoRaWAN/Crypto/aes.c ****     dt[ 5] = s_box(st[4]) ^ gfm2_sb(st[9]) ^ gfm3_sb(st[14]) ^ s_box(st[3]);
 231              		.loc 1 460 0
 232 00d0 085C     		ldrb	r0, [r1, r0]
 457:../../../../../../Middlewares/Third_Party/LoRaWAN/Crypto/aes.c ****     dt[ 3] = gfm3_sb(st[0]) ^ s_box(st[5]) ^ s_box(st[10]) ^ gfm2_sb(st[15]);
 233              		.loc 1 457 0
 234 00d2 0C5D     		ldrb	r4, [r1, r4]
 460:../../../../../../Middlewares/Third_Party/LoRaWAN/Crypto/aes.c ****     dt[ 5] = s_box(st[4]) ^ gfm2_sb(st[9]) ^ gfm3_sb(st[14]) ^ s_box(st[3]);
 235              		.loc 1 460 0
 236 00d4 0690     		str	r0, [sp, #24]
ARM GAS  C:\Users\EBANO_~1\AppData\Local\Temp\ccMXEZix.s 			page 16


 237 00d6 1098     		ldr	r0, [sp, #64]
 457:../../../../../../Middlewares/Third_Party/LoRaWAN/Crypto/aes.c ****     dt[ 3] = gfm3_sb(st[0]) ^ s_box(st[5]) ^ s_box(st[10]) ^ gfm2_sb(st[15]);
 238              		.loc 1 457 0
 239 00d8 1694     		str	r4, [sp, #88]
 460:../../../../../../Middlewares/Third_Party/LoRaWAN/Crypto/aes.c ****     dt[ 5] = s_box(st[4]) ^ gfm2_sb(st[9]) ^ gfm3_sb(st[14]) ^ s_box(st[3]);
 240              		.loc 1 460 0
 241 00da 0790     		str	r0, [sp, #28]
 242 00dc 119C     		ldr	r4, [sp, #68]
 243 00de 085C     		ldrb	r0, [r1, r0]
 461:../../../../../../Middlewares/Third_Party/LoRaWAN/Crypto/aes.c ****     dt[ 6] = s_box(st[4]) ^ s_box(st[9]) ^ gfm2_sb(st[14]) ^ gfm3_sb(st[3]);
 244              		.loc 1 461 0
 245 00e0 0C5D     		ldrb	r4, [r1, r4]
 460:../../../../../../Middlewares/Third_Party/LoRaWAN/Crypto/aes.c ****     dt[ 5] = s_box(st[4]) ^ gfm2_sb(st[9]) ^ gfm3_sb(st[14]) ^ s_box(st[3]);
 246              		.loc 1 460 0
 247 00e2 1790     		str	r0, [sp, #92]
 465:../../../../../../Middlewares/Third_Party/LoRaWAN/Crypto/aes.c ****     dt[ 9] = s_box(st[8]) ^ gfm2_sb(st[13]) ^ gfm3_sb(st[2]) ^ s_box(st[7]);
 248              		.loc 1 465 0
 249 00e4 0F98     		ldr	r0, [sp, #60]
 461:../../../../../../Middlewares/Third_Party/LoRaWAN/Crypto/aes.c ****     dt[ 6] = s_box(st[4]) ^ s_box(st[9]) ^ gfm2_sb(st[14]) ^ gfm3_sb(st[3]);
 250              		.loc 1 461 0
 251 00e6 0894     		str	r4, [sp, #32]
 465:../../../../../../Middlewares/Third_Party/LoRaWAN/Crypto/aes.c ****     dt[ 9] = s_box(st[8]) ^ gfm2_sb(st[13]) ^ gfm3_sb(st[2]) ^ s_box(st[7]);
 252              		.loc 1 465 0
 253 00e8 0990     		str	r0, [sp, #36]
 254 00ea 149C     		ldr	r4, [sp, #80]
 255 00ec 085C     		ldrb	r0, [r1, r0]
 466:../../../../../../Middlewares/Third_Party/LoRaWAN/Crypto/aes.c ****     dt[10] = s_box(st[8]) ^ s_box(st[13]) ^ gfm2_sb(st[2]) ^ gfm3_sb(st[7]);
 256              		.loc 1 466 0
 257 00ee 0C5D     		ldrb	r4, [r1, r4]
 465:../../../../../../Middlewares/Third_Party/LoRaWAN/Crypto/aes.c ****     dt[ 9] = s_box(st[8]) ^ gfm2_sb(st[13]) ^ gfm3_sb(st[2]) ^ s_box(st[7]);
 258              		.loc 1 465 0
 259 00f0 0A90     		str	r0, [sp, #40]
 260 00f2 1398     		ldr	r0, [sp, #76]
 462:../../../../../../Middlewares/Third_Party/LoRaWAN/Crypto/aes.c ****     dt[ 7] = gfm3_sb(st[4]) ^ s_box(st[9]) ^ s_box(st[14]) ^ gfm2_sb(st[3]);
 261              		.loc 1 462 0
 262 00f4 8A5C     		ldrb	r2, [r1, r2]
 465:../../../../../../Middlewares/Third_Party/LoRaWAN/Crypto/aes.c ****     dt[ 9] = s_box(st[8]) ^ gfm2_sb(st[13]) ^ gfm3_sb(st[2]) ^ s_box(st[7]);
 263              		.loc 1 465 0
 264 00f6 0B90     		str	r0, [sp, #44]
 466:../../../../../../Middlewares/Third_Party/LoRaWAN/Crypto/aes.c ****     dt[10] = s_box(st[8]) ^ s_box(st[13]) ^ gfm2_sb(st[2]) ^ gfm3_sb(st[7]);
 265              		.loc 1 466 0
 266 00f8 1A94     		str	r4, [sp, #104]
 465:../../../../../../Middlewares/Third_Party/LoRaWAN/Crypto/aes.c ****     dt[ 9] = s_box(st[8]) ^ gfm2_sb(st[13]) ^ gfm3_sb(st[2]) ^ s_box(st[7]);
 267              		.loc 1 465 0
 268 00fa 085C     		ldrb	r0, [r1, r0]
 467:../../../../../../Middlewares/Third_Party/LoRaWAN/Crypto/aes.c ****     dt[11] = gfm3_sb(st[8]) ^ s_box(st[13]) ^ s_box(st[2]) ^ gfm2_sb(st[7]);
 269              		.loc 1 467 0
 270 00fc 039C     		ldr	r4, [sp, #12]
 465:../../../../../../Middlewares/Third_Party/LoRaWAN/Crypto/aes.c ****     dt[ 9] = s_box(st[8]) ^ gfm2_sb(st[13]) ^ gfm3_sb(st[2]) ^ s_box(st[7]);
 271              		.loc 1 465 0
 272 00fe 1990     		str	r0, [sp, #100]
 462:../../../../../../Middlewares/Third_Party/LoRaWAN/Crypto/aes.c ****     dt[ 7] = gfm3_sb(st[4]) ^ s_box(st[9]) ^ s_box(st[14]) ^ gfm2_sb(st[3]);
 273              		.loc 1 462 0
 274 0100 1892     		str	r2, [sp, #96]
 467:../../../../../../Middlewares/Third_Party/LoRaWAN/Crypto/aes.c ****     dt[11] = gfm3_sb(st[8]) ^ s_box(st[13]) ^ s_box(st[2]) ^ gfm2_sb(st[7]);
 275              		.loc 1 467 0
 276 0102 0A5D     		ldrb	r2, [r1, r4]
ARM GAS  C:\Users\EBANO_~1\AppData\Local\Temp\ccMXEZix.s 			page 17


 277              	.LVL20:
 470:../../../../../../Middlewares/Third_Party/LoRaWAN/Crypto/aes.c ****     dt[13] = s_box(st[12]) ^ gfm2_sb(st[1]) ^ gfm3_sb(st[6]) ^ s_box(st[11]);
 278              		.loc 1 470 0
 279 0104 159E     		ldr	r6, [sp, #84]
 280 0106 0D9C     		ldr	r4, [sp, #52]
 281 0108 1E96     		str	r6, [sp, #120]
 282 010a 8E5D     		ldrb	r6, [r1, r6]
 283 010c 0E98     		ldr	r0, [sp, #56]
 284 010e 1F96     		str	r6, [sp, #124]
 471:../../../../../../Middlewares/Third_Party/LoRaWAN/Crypto/aes.c ****     dt[14] = s_box(st[12]) ^ s_box(st[1]) ^ gfm2_sb(st[6]) ^ gfm3_sb(st[11]);
 285              		.loc 1 471 0
 286 0110 0E5D     		ldrb	r6, [r1, r4]
 467:../../../../../../Middlewares/Third_Party/LoRaWAN/Crypto/aes.c ****     dt[11] = gfm3_sb(st[8]) ^ s_box(st[13]) ^ s_box(st[2]) ^ gfm2_sb(st[7]);
 287              		.loc 1 467 0
 288 0112 1B92     		str	r2, [sp, #108]
 471:../../../../../../Middlewares/Third_Party/LoRaWAN/Crypto/aes.c ****     dt[14] = s_box(st[12]) ^ s_box(st[1]) ^ gfm2_sb(st[6]) ^ gfm3_sb(st[11]);
 289              		.loc 1 471 0
 290 0114 2096     		str	r6, [sp, #128]
 472:../../../../../../Middlewares/Third_Party/LoRaWAN/Crypto/aes.c ****     dt[15] = gfm3_sb(st[12]) ^ s_box(st[1]) ^ s_box(st[6]) ^ gfm2_sb(st[11]);
 291              		.loc 1 472 0
 292 0116 0E5C     		ldrb	r6, [r1, r0]
 470:../../../../../../Middlewares/Third_Party/LoRaWAN/Crypto/aes.c ****     dt[13] = s_box(st[12]) ^ gfm2_sb(st[1]) ^ gfm3_sb(st[6]) ^ s_box(st[11]);
 293              		.loc 1 470 0
 294 0118 129A     		ldr	r2, [sp, #72]
 472:../../../../../../Middlewares/Third_Party/LoRaWAN/Crypto/aes.c ****     dt[15] = gfm3_sb(st[12]) ^ s_box(st[1]) ^ s_box(st[6]) ^ gfm2_sb(st[11]);
 295              		.loc 1 472 0
 296 011a 2196     		str	r6, [sp, #132]
 455:../../../../../../Middlewares/Third_Party/LoRaWAN/Crypto/aes.c ****     dt[ 1] = s_box(st[0]) ^ gfm2_sb(st[5]) ^ gfm3_sb(st[10]) ^ s_box(st[15]);
 297              		.loc 1 455 0
 298 011c 5E46     		mov	r6, fp
 470:../../../../../../Middlewares/Third_Party/LoRaWAN/Crypto/aes.c ****     dt[13] = s_box(st[12]) ^ gfm2_sb(st[1]) ^ gfm3_sb(st[6]) ^ s_box(st[11]);
 299              		.loc 1 470 0
 300 011e 1D92     		str	r2, [sp, #116]
 301 0120 8A5C     		ldrb	r2, [r1, r2]
 471:../../../../../../Middlewares/Third_Party/LoRaWAN/Crypto/aes.c ****     dt[14] = s_box(st[12]) ^ s_box(st[1]) ^ gfm2_sb(st[6]) ^ gfm3_sb(st[11]);
 302              		.loc 1 471 0
 303 0122 0C94     		str	r4, [sp, #48]
 470:../../../../../../Middlewares/Third_Party/LoRaWAN/Crypto/aes.c ****     dt[13] = s_box(st[12]) ^ gfm2_sb(st[1]) ^ gfm3_sb(st[6]) ^ s_box(st[11]);
 304              		.loc 1 470 0
 305 0124 0D92     		str	r2, [sp, #52]
 306              	.LVL21:
 455:../../../../../../Middlewares/Third_Party/LoRaWAN/Crypto/aes.c ****     dt[ 1] = s_box(st[0]) ^ gfm2_sb(st[5]) ^ gfm3_sb(st[10]) ^ s_box(st[15]);
 307              		.loc 1 455 0
 308 0126 019C     		ldr	r4, [sp, #4]
 309 0128 A04A     		ldr	r2, .L7+8
 472:../../../../../../Middlewares/Third_Party/LoRaWAN/Crypto/aes.c ****     dt[15] = gfm3_sb(st[12]) ^ s_box(st[1]) ^ s_box(st[6]) ^ gfm2_sb(st[11]);
 310              		.loc 1 472 0
 311 012a 1C90     		str	r0, [sp, #112]
 455:../../../../../../Middlewares/Third_Party/LoRaWAN/Crypto/aes.c ****     dt[ 1] = s_box(st[0]) ^ gfm2_sb(st[5]) ^ gfm3_sb(st[10]) ^ s_box(st[15]);
 312              		.loc 1 455 0
 313 012c A85D     		ldrb	r0, [r5, r6]
 314 012e 165D     		ldrb	r6, [r2, r4]
 315 0130 059C     		ldr	r4, [sp, #20]
 316 0132 7040     		eors	r0, r6
 317 0134 4646     		mov	r6, r8
 318 0136 6040     		eors	r0, r4
 319 0138 7040     		eors	r0, r6
ARM GAS  C:\Users\EBANO_~1\AppData\Local\Temp\ccMXEZix.s 			page 18


 320              	.LBE40:
 321              	.LBE39:
 322              	.LBB69:
 323              	.LBB70:
 324              	.LBB71:
 357:../../../../../../Middlewares/Third_Party/LoRaWAN/Crypto/aes.c ****     ((uint8_t*)d)[ 1] ^= ((uint8_t*)s)[ 1];
 325              		.loc 1 357 0
 326 013a 3E78     		ldrb	r6, [r7]
 327              	.LBE71:
 328              	.LBE70:
 329              	.LBE69:
 330              	.LBB126:
 331              	.LBB41:
 456:../../../../../../Middlewares/Third_Party/LoRaWAN/Crypto/aes.c ****     dt[ 2] = s_box(st[0]) ^ s_box(st[5]) ^ gfm2_sb(st[10]) ^ gfm3_sb(st[15]);
 332              		.loc 1 456 0
 333 013c 6446     		mov	r4, ip
 334              	.LBE41:
 335              	.LBE126:
 336              	.LBB127:
 337              	.LBB99:
 338              	.LBB72:
 357:../../../../../../Middlewares/Third_Party/LoRaWAN/Crypto/aes.c ****     ((uint8_t*)d)[ 1] ^= ((uint8_t*)s)[ 1];
 339              		.loc 1 357 0
 340 013e 4640     		eors	r6, r0
 341              	.LBE72:
 342              	.LBE99:
 343              	.LBE127:
 344              	.LBB128:
 345              	.LBB42:
 455:../../../../../../Middlewares/Third_Party/LoRaWAN/Crypto/aes.c ****     dt[ 1] = s_box(st[0]) ^ gfm2_sb(st[5]) ^ gfm3_sb(st[10]) ^ s_box(st[15]);
 346              		.loc 1 455 0
 347 0140 D946     		mov	r9, fp
 348              	.LBE42:
 349              	.LBE128:
 350              	.LBB129:
 351              	.LBB100:
 352              	.LBB73:
 357:../../../../../../Middlewares/Third_Party/LoRaWAN/Crypto/aes.c ****     ((uint8_t*)d)[ 1] ^= ((uint8_t*)s)[ 1];
 353              		.loc 1 357 0
 354 0142 B346     		mov	fp, r6
 355              	.LVL22:
 356              	.LBE73:
 357              	.LBE100:
 358              	.LBE129:
 359              	.LBB130:
 360              	.LBB43:
 456:../../../../../../Middlewares/Third_Party/LoRaWAN/Crypto/aes.c ****     dt[ 2] = s_box(st[0]) ^ s_box(st[5]) ^ gfm2_sb(st[10]) ^ gfm3_sb(st[15]);
 361              		.loc 1 456 0
 362 0144 4646     		mov	r6, r8
 363 0146 6640     		eors	r6, r4
 364 0148 3000     		movs	r0, r6
 365 014a 019C     		ldr	r4, [sp, #4]
 366 014c 2E5D     		ldrb	r6, [r5, r4]
 457:../../../../../../Middlewares/Third_Party/LoRaWAN/Crypto/aes.c ****     dt[ 3] = gfm3_sb(st[0]) ^ s_box(st[5]) ^ s_box(st[10]) ^ gfm2_sb(st[15]);
 367              		.loc 1 457 0
 368 014e 169C     		ldr	r4, [sp, #88]
 456:../../../../../../Middlewares/Third_Party/LoRaWAN/Crypto/aes.c ****     dt[ 2] = s_box(st[0]) ^ s_box(st[5]) ^ gfm2_sb(st[10]) ^ gfm3_sb(st[15]);
ARM GAS  C:\Users\EBANO_~1\AppData\Local\Temp\ccMXEZix.s 			page 19


 369              		.loc 1 456 0
 370 0150 4640     		eors	r6, r0
 371 0152 0298     		ldr	r0, [sp, #8]
 372 0154 105C     		ldrb	r0, [r2, r0]
 373 0156 7040     		eors	r0, r6
 374              	.LBE43:
 375              	.LBE130:
 376              	.LBB131:
 377              	.LBB101:
 378              	.LBB74:
 358:../../../../../../Middlewares/Third_Party/LoRaWAN/Crypto/aes.c ****     ((uint8_t*)d)[ 2] ^= ((uint8_t*)s)[ 2];
 379              		.loc 1 358 0
 380 0158 7E78     		ldrb	r6, [r7, #1]
 381 015a 7040     		eors	r0, r6
 382 015c 0E90     		str	r0, [sp, #56]
 383              	.LVL23:
 384              	.LBE74:
 385              	.LBE101:
 386              	.LBE131:
 387              	.LBB132:
 388              	.LBB44:
 457:../../../../../../Middlewares/Third_Party/LoRaWAN/Crypto/aes.c ****     dt[ 3] = gfm3_sb(st[0]) ^ s_box(st[5]) ^ s_box(st[10]) ^ gfm2_sb(st[15]);
 389              		.loc 1 457 0
 390 015e 6046     		mov	r0, ip
 391 0160 029E     		ldr	r6, [sp, #8]
 392 0162 6040     		eors	r0, r4
 393 0164 AE5D     		ldrb	r6, [r5, r6]
 394 0166 4640     		eors	r6, r0
 395 0168 D05C     		ldrb	r0, [r2, r3]
 396 016a 7040     		eors	r0, r6
 397              	.LBE44:
 398              	.LBE132:
 399              	.LBB133:
 400              	.LBB102:
 401              	.LBB75:
 359:../../../../../../Middlewares/Third_Party/LoRaWAN/Crypto/aes.c ****     ((uint8_t*)d)[ 3] ^= ((uint8_t*)s)[ 3];
 402              		.loc 1 359 0
 403 016c BE78     		ldrb	r6, [r7, #2]
 404 016e 7040     		eors	r0, r6
 405              	.LBE75:
 406              	.LBE102:
 407              	.LBE133:
 408              	.LBB134:
 409              	.LBB45:
 458:../../../../../../Middlewares/Third_Party/LoRaWAN/Crypto/aes.c **** 
 410              		.loc 1 458 0
 411 0170 059E     		ldr	r6, [sp, #20]
 412              	.LBE45:
 413              	.LBE134:
 414              	.LBB135:
 415              	.LBB103:
 416              	.LBB76:
 359:../../../../../../Middlewares/Third_Party/LoRaWAN/Crypto/aes.c ****     ((uint8_t*)d)[ 3] ^= ((uint8_t*)s)[ 3];
 417              		.loc 1 359 0
 418 0172 0F90     		str	r0, [sp, #60]
 419              	.LVL24:
 420              	.LBE76:
ARM GAS  C:\Users\EBANO_~1\AppData\Local\Temp\ccMXEZix.s 			page 20


 421              	.LBE103:
 422              	.LBE135:
 423              	.LBB136:
 424              	.LBB46:
 458:../../../../../../Middlewares/Third_Party/LoRaWAN/Crypto/aes.c **** 
 425              		.loc 1 458 0
 426 0174 6640     		eors	r6, r4
 427 0176 4C46     		mov	r4, r9
 428 0178 105D     		ldrb	r0, [r2, r4]
 460:../../../../../../Middlewares/Third_Party/LoRaWAN/Crypto/aes.c ****     dt[ 5] = s_box(st[4]) ^ gfm2_sb(st[9]) ^ gfm3_sb(st[14]) ^ s_box(st[3]);
 429              		.loc 1 460 0
 430 017a 119C     		ldr	r4, [sp, #68]
 458:../../../../../../Middlewares/Third_Party/LoRaWAN/Crypto/aes.c **** 
 431              		.loc 1 458 0
 432 017c 4640     		eors	r6, r0
 433 017e E85C     		ldrb	r0, [r5, r3]
 434 0180 4640     		eors	r6, r0
 435              	.LBE46:
 436              	.LBE136:
 437              	.LBB137:
 438              	.LBB104:
 439              	.LBB77:
 360:../../../../../../Middlewares/Third_Party/LoRaWAN/Crypto/aes.c ****     ((uint8_t*)d)[ 4] ^= ((uint8_t*)s)[ 4];
 440              		.loc 1 360 0
 441 0182 3300     		movs	r3, r6
 442              	.LVL25:
 443              	.LBE77:
 444              	.LBE104:
 445              	.LBE137:
 446              	.LBB138:
 447              	.LBB47:
 460:../../../../../../Middlewares/Third_Party/LoRaWAN/Crypto/aes.c ****     dt[ 5] = s_box(st[4]) ^ gfm2_sb(st[9]) ^ gfm3_sb(st[14]) ^ s_box(st[3]);
 448              		.loc 1 460 0
 449 0184 5646     		mov	r6, r10
 450              	.LBE47:
 451              	.LBE138:
 452              	.LBB139:
 453              	.LBB105:
 454              	.LBB78:
 360:../../../../../../Middlewares/Third_Party/LoRaWAN/Crypto/aes.c ****     ((uint8_t*)d)[ 4] ^= ((uint8_t*)s)[ 4];
 455              		.loc 1 360 0
 456 0186 F878     		ldrb	r0, [r7, #3]
 457 0188 4340     		eors	r3, r0
 458 018a 1093     		str	r3, [sp, #64]
 459              	.LVL26:
 460              	.LBE78:
 461              	.LBE105:
 462              	.LBE139:
 463              	.LBB140:
 464              	.LBB48:
 460:../../../../../../Middlewares/Third_Party/LoRaWAN/Crypto/aes.c ****     dt[ 5] = s_box(st[4]) ^ gfm2_sb(st[9]) ^ gfm3_sb(st[14]) ^ s_box(st[3]);
 465              		.loc 1 460 0
 466 018c 905D     		ldrb	r0, [r2, r6]
 467 018e 2B5D     		ldrb	r3, [r5, r4]
 468 0190 179E     		ldr	r6, [sp, #92]
 469 0192 4340     		eors	r3, r0
 470 0194 0698     		ldr	r0, [sp, #24]
ARM GAS  C:\Users\EBANO_~1\AppData\Local\Temp\ccMXEZix.s 			page 21


 471 0196 4340     		eors	r3, r0
 472              	.LBE48:
 473              	.LBE140:
 474              	.LBB141:
 475              	.LBB106:
 476              	.LBB79:
 361:../../../../../../Middlewares/Third_Party/LoRaWAN/Crypto/aes.c ****     ((uint8_t*)d)[ 5] ^= ((uint8_t*)s)[ 5];
 477              		.loc 1 361 0
 478 0198 3879     		ldrb	r0, [r7, #4]
 479              	.LBE79:
 480              	.LBE106:
 481              	.LBE141:
 482              	.LBB142:
 483              	.LBB49:
 460:../../../../../../Middlewares/Third_Party/LoRaWAN/Crypto/aes.c ****     dt[ 5] = s_box(st[4]) ^ gfm2_sb(st[9]) ^ gfm3_sb(st[14]) ^ s_box(st[3]);
 484              		.loc 1 460 0
 485 019a 7340     		eors	r3, r6
 486              	.LBE49:
 487              	.LBE142:
 488              	.LBB143:
 489              	.LBB107:
 490              	.LBB80:
 361:../../../../../../Middlewares/Third_Party/LoRaWAN/Crypto/aes.c ****     ((uint8_t*)d)[ 5] ^= ((uint8_t*)s)[ 5];
 491              		.loc 1 361 0
 492 019c 4340     		eors	r3, r0
 493 019e 1193     		str	r3, [sp, #68]
 494              	.LVL27:
 495              	.LBE80:
 496              	.LBE107:
 497              	.LBE143:
 498              	.LBB144:
 499              	.LBB50:
 461:../../../../../../Middlewares/Third_Party/LoRaWAN/Crypto/aes.c ****     dt[ 6] = s_box(st[4]) ^ s_box(st[9]) ^ gfm2_sb(st[14]) ^ gfm3_sb(st[3]);
 500              		.loc 1 461 0
 501 01a0 089B     		ldr	r3, [sp, #32]
 502 01a2 5E40     		eors	r6, r3
 503 01a4 3300     		movs	r3, r6
 504 01a6 5646     		mov	r6, r10
 505 01a8 A85D     		ldrb	r0, [r5, r6]
 506              	.LBE50:
 507              	.LBE144:
 508              	.LBB145:
 509              	.LBB108:
 510              	.LBB81:
 362:../../../../../../Middlewares/Third_Party/LoRaWAN/Crypto/aes.c ****     ((uint8_t*)d)[ 6] ^= ((uint8_t*)s)[ 6];
 511              		.loc 1 362 0
 512 01aa 7E79     		ldrb	r6, [r7, #5]
 513              	.LBE81:
 514              	.LBE108:
 515              	.LBE145:
 516              	.LBB146:
 517              	.LBB51:
 461:../../../../../../Middlewares/Third_Party/LoRaWAN/Crypto/aes.c ****     dt[ 6] = s_box(st[4]) ^ s_box(st[9]) ^ gfm2_sb(st[14]) ^ gfm3_sb(st[3]);
 518              		.loc 1 461 0
 519 01ac 5840     		eors	r0, r3
 520 01ae 049B     		ldr	r3, [sp, #16]
 521 01b0 D35C     		ldrb	r3, [r2, r3]
ARM GAS  C:\Users\EBANO_~1\AppData\Local\Temp\ccMXEZix.s 			page 22


 522 01b2 4340     		eors	r3, r0
 523              	.LBE51:
 524              	.LBE146:
 525              	.LBB147:
 526              	.LBB109:
 527              	.LBB82:
 362:../../../../../../Middlewares/Third_Party/LoRaWAN/Crypto/aes.c ****     ((uint8_t*)d)[ 6] ^= ((uint8_t*)s)[ 6];
 528              		.loc 1 362 0
 529 01b4 5E40     		eors	r6, r3
 530              	.LBE82:
 531              	.LBE109:
 532              	.LBE147:
 533              	.LBB148:
 534              	.LBB52:
 462:../../../../../../Middlewares/Third_Party/LoRaWAN/Crypto/aes.c ****     dt[ 7] = gfm3_sb(st[4]) ^ s_box(st[9]) ^ s_box(st[14]) ^ gfm2_sb(st[3]);
 535              		.loc 1 462 0
 536 01b6 0498     		ldr	r0, [sp, #16]
 537              	.LBE52:
 538              	.LBE148:
 539              	.LBB149:
 540              	.LBB110:
 541              	.LBB83:
 362:../../../../../../Middlewares/Third_Party/LoRaWAN/Crypto/aes.c ****     ((uint8_t*)d)[ 6] ^= ((uint8_t*)s)[ 6];
 542              		.loc 1 362 0
 543 01b8 0196     		str	r6, [sp, #4]
 544              	.LVL28:
 545              	.LBE83:
 546              	.LBE110:
 547              	.LBE149:
 548              	.LBB150:
 549              	.LBB53:
 462:../../../../../../Middlewares/Third_Party/LoRaWAN/Crypto/aes.c ****     dt[ 7] = gfm3_sb(st[4]) ^ s_box(st[9]) ^ s_box(st[14]) ^ gfm2_sb(st[3]);
 550              		.loc 1 462 0
 551 01ba 089B     		ldr	r3, [sp, #32]
 552 01bc 189E     		ldr	r6, [sp, #96]
 553 01be 285C     		ldrb	r0, [r5, r0]
 554 01c0 7340     		eors	r3, r6
 555 01c2 5840     		eors	r0, r3
 556 01c4 079B     		ldr	r3, [sp, #28]
 557 01c6 D35C     		ldrb	r3, [r2, r3]
 558 01c8 4340     		eors	r3, r0
 559              	.LBE53:
 560              	.LBE150:
 561              	.LBB151:
 562              	.LBB111:
 563              	.LBB84:
 363:../../../../../../Middlewares/Third_Party/LoRaWAN/Crypto/aes.c ****     ((uint8_t*)d)[ 7] ^= ((uint8_t*)s)[ 7];
 564              		.loc 1 363 0
 565 01ca B879     		ldrb	r0, [r7, #6]
 566 01cc 4340     		eors	r3, r0
 567 01ce 1293     		str	r3, [sp, #72]
 568              	.LVL29:
 569              	.LBE84:
 570              	.LBE111:
 571              	.LBE151:
 572              	.LBB152:
 573              	.LBB54:
ARM GAS  C:\Users\EBANO_~1\AppData\Local\Temp\ccMXEZix.s 			page 23


 463:../../../../../../Middlewares/Third_Party/LoRaWAN/Crypto/aes.c **** 
 574              		.loc 1 463 0
 575 01d0 069B     		ldr	r3, [sp, #24]
 576 01d2 105D     		ldrb	r0, [r2, r4]
 577 01d4 7340     		eors	r3, r6
 578 01d6 4340     		eors	r3, r0
 579 01d8 0798     		ldr	r0, [sp, #28]
 465:../../../../../../Middlewares/Third_Party/LoRaWAN/Crypto/aes.c ****     dt[ 9] = s_box(st[8]) ^ gfm2_sb(st[13]) ^ gfm3_sb(st[2]) ^ s_box(st[7]);
 580              		.loc 1 465 0
 581 01da 149C     		ldr	r4, [sp, #80]
 463:../../../../../../Middlewares/Third_Party/LoRaWAN/Crypto/aes.c **** 
 582              		.loc 1 463 0
 583 01dc 285C     		ldrb	r0, [r5, r0]
 465:../../../../../../Middlewares/Third_Party/LoRaWAN/Crypto/aes.c ****     dt[ 9] = s_box(st[8]) ^ gfm2_sb(st[13]) ^ gfm3_sb(st[2]) ^ s_box(st[7]);
 584              		.loc 1 465 0
 585 01de 199E     		ldr	r6, [sp, #100]
 463:../../../../../../Middlewares/Third_Party/LoRaWAN/Crypto/aes.c **** 
 586              		.loc 1 463 0
 587 01e0 4340     		eors	r3, r0
 588              	.LBE54:
 589              	.LBE152:
 590              	.LBB153:
 591              	.LBB112:
 592              	.LBB85:
 364:../../../../../../Middlewares/Third_Party/LoRaWAN/Crypto/aes.c ****     ((uint8_t*)d)[ 8] ^= ((uint8_t*)s)[ 8];
 593              		.loc 1 364 0
 594 01e2 F879     		ldrb	r0, [r7, #7]
 595 01e4 4340     		eors	r3, r0
 596              	.LBE85:
 597              	.LBE112:
 598              	.LBE153:
 599              	.LBB154:
 600              	.LBB55:
 465:../../../../../../Middlewares/Third_Party/LoRaWAN/Crypto/aes.c ****     dt[ 9] = s_box(st[8]) ^ gfm2_sb(st[13]) ^ gfm3_sb(st[2]) ^ s_box(st[7]);
 601              		.loc 1 465 0
 602 01e6 0398     		ldr	r0, [sp, #12]
 603              	.LBE55:
 604              	.LBE154:
 605              	.LBB155:
 606              	.LBB113:
 607              	.LBB86:
 364:../../../../../../Middlewares/Third_Party/LoRaWAN/Crypto/aes.c ****     ((uint8_t*)d)[ 8] ^= ((uint8_t*)s)[ 8];
 608              		.loc 1 364 0
 609 01e8 1393     		str	r3, [sp, #76]
 610              	.LVL30:
 611              	.LBE86:
 612              	.LBE113:
 613              	.LBE155:
 614              	.LBB156:
 615              	.LBB56:
 465:../../../../../../Middlewares/Third_Party/LoRaWAN/Crypto/aes.c ****     dt[ 9] = s_box(st[8]) ^ gfm2_sb(st[13]) ^ gfm3_sb(st[2]) ^ s_box(st[7]);
 616              		.loc 1 465 0
 617 01ea 105C     		ldrb	r0, [r2, r0]
 618 01ec 2B5D     		ldrb	r3, [r5, r4]
 619 01ee 4340     		eors	r3, r0
 620 01f0 0A98     		ldr	r0, [sp, #40]
 621 01f2 4340     		eors	r3, r0
ARM GAS  C:\Users\EBANO_~1\AppData\Local\Temp\ccMXEZix.s 			page 24


 622              	.LBE56:
 623              	.LBE156:
 624              	.LBB157:
 625              	.LBB114:
 626              	.LBB87:
 365:../../../../../../Middlewares/Third_Party/LoRaWAN/Crypto/aes.c ****     ((uint8_t*)d)[ 9] ^= ((uint8_t*)s)[ 9];
 627              		.loc 1 365 0
 628 01f4 387A     		ldrb	r0, [r7, #8]
 629              	.LBE87:
 630              	.LBE114:
 631              	.LBE157:
 632              	.LBB158:
 633              	.LBB57:
 465:../../../../../../Middlewares/Third_Party/LoRaWAN/Crypto/aes.c ****     dt[ 9] = s_box(st[8]) ^ gfm2_sb(st[13]) ^ gfm3_sb(st[2]) ^ s_box(st[7]);
 634              		.loc 1 465 0
 635 01f6 7340     		eors	r3, r6
 636              	.LBE57:
 637              	.LBE158:
 638              	.LBB159:
 639              	.LBB115:
 640              	.LBB88:
 365:../../../../../../Middlewares/Third_Party/LoRaWAN/Crypto/aes.c ****     ((uint8_t*)d)[ 9] ^= ((uint8_t*)s)[ 9];
 641              		.loc 1 365 0
 642 01f8 4340     		eors	r3, r0
 643 01fa 1493     		str	r3, [sp, #80]
 644              	.LVL31:
 645              	.LBE88:
 646              	.LBE115:
 647              	.LBE159:
 648              	.LBB160:
 649              	.LBB58:
 466:../../../../../../Middlewares/Third_Party/LoRaWAN/Crypto/aes.c ****     dt[10] = s_box(st[8]) ^ s_box(st[13]) ^ gfm2_sb(st[2]) ^ gfm3_sb(st[7]);
 650              		.loc 1 466 0
 651 01fc 3300     		movs	r3, r6
 652 01fe 0398     		ldr	r0, [sp, #12]
 653 0200 1A9E     		ldr	r6, [sp, #104]
 654 0202 285C     		ldrb	r0, [r5, r0]
 655 0204 7340     		eors	r3, r6
 656 0206 5840     		eors	r0, r3
 657 0208 099B     		ldr	r3, [sp, #36]
 658 020a D35C     		ldrb	r3, [r2, r3]
 659 020c 4340     		eors	r3, r0
 660              	.LBE58:
 661              	.LBE160:
 662              	.LBB161:
 663              	.LBB116:
 664              	.LBB89:
 366:../../../../../../Middlewares/Third_Party/LoRaWAN/Crypto/aes.c ****     ((uint8_t*)d)[10] ^= ((uint8_t*)s)[10];
 665              		.loc 1 366 0
 666 020e 787A     		ldrb	r0, [r7, #9]
 667 0210 4340     		eors	r3, r0
 668 0212 9A46     		mov	r10, r3
 669              	.LVL32:
 670              	.LBE89:
 671              	.LBE116:
 672              	.LBE161:
 673              	.LBB162:
ARM GAS  C:\Users\EBANO_~1\AppData\Local\Temp\ccMXEZix.s 			page 25


 674              	.LBB59:
 467:../../../../../../Middlewares/Third_Party/LoRaWAN/Crypto/aes.c ****     dt[11] = gfm3_sb(st[8]) ^ s_box(st[13]) ^ s_box(st[2]) ^ gfm2_sb(st[7]);
 675              		.loc 1 467 0
 676 0214 3300     		movs	r3, r6
 677 0216 0998     		ldr	r0, [sp, #36]
 678 0218 1B9E     		ldr	r6, [sp, #108]
 679 021a 285C     		ldrb	r0, [r5, r0]
 680 021c 7340     		eors	r3, r6
 681 021e 5840     		eors	r0, r3
 682 0220 0B9B     		ldr	r3, [sp, #44]
 683 0222 D35C     		ldrb	r3, [r2, r3]
 684 0224 4340     		eors	r3, r0
 685              	.LBE59:
 686              	.LBE162:
 687              	.LBB163:
 688              	.LBB117:
 689              	.LBB90:
 367:../../../../../../Middlewares/Third_Party/LoRaWAN/Crypto/aes.c ****     ((uint8_t*)d)[11] ^= ((uint8_t*)s)[11];
 690              		.loc 1 367 0
 691 0226 B87A     		ldrb	r0, [r7, #10]
 692 0228 4340     		eors	r3, r0
 693 022a 0293     		str	r3, [sp, #8]
 694              	.LVL33:
 695              	.LBE90:
 696              	.LBE117:
 697              	.LBE163:
 698              	.LBB164:
 699              	.LBB60:
 468:../../../../../../Middlewares/Third_Party/LoRaWAN/Crypto/aes.c **** 
 700              		.loc 1 468 0
 701 022c 0A9B     		ldr	r3, [sp, #40]
 702 022e 105D     		ldrb	r0, [r2, r4]
 703 0230 7340     		eors	r3, r6
 704 0232 4340     		eors	r3, r0
 705 0234 0B98     		ldr	r0, [sp, #44]
 470:../../../../../../Middlewares/Third_Party/LoRaWAN/Crypto/aes.c ****     dt[13] = s_box(st[12]) ^ gfm2_sb(st[1]) ^ gfm3_sb(st[6]) ^ s_box(st[11]);
 706              		.loc 1 470 0
 707 0236 0C9C     		ldr	r4, [sp, #48]
 468:../../../../../../Middlewares/Third_Party/LoRaWAN/Crypto/aes.c **** 
 708              		.loc 1 468 0
 709 0238 285C     		ldrb	r0, [r5, r0]
 710 023a 4340     		eors	r3, r0
 711              	.LBE60:
 712              	.LBE164:
 713              	.LBB165:
 714              	.LBB118:
 715              	.LBB91:
 368:../../../../../../Middlewares/Third_Party/LoRaWAN/Crypto/aes.c ****     ((uint8_t*)d)[12] ^= ((uint8_t*)s)[12];
 716              		.loc 1 368 0
 717 023c F87A     		ldrb	r0, [r7, #11]
 718 023e 4340     		eors	r3, r0
 719 0240 1593     		str	r3, [sp, #84]
 720              	.LVL34:
 721              	.LBE91:
 722              	.LBE118:
 723              	.LBE165:
 724              	.LBB166:
ARM GAS  C:\Users\EBANO_~1\AppData\Local\Temp\ccMXEZix.s 			page 26


 725              	.LBB61:
 470:../../../../../../Middlewares/Third_Party/LoRaWAN/Crypto/aes.c ****     dt[13] = s_box(st[12]) ^ gfm2_sb(st[1]) ^ gfm3_sb(st[6]) ^ s_box(st[11]);
 726              		.loc 1 470 0
 727 0242 2B5D     		ldrb	r3, [r5, r4]
 728 0244 1C9C     		ldr	r4, [sp, #112]
 729 0246 1F9E     		ldr	r6, [sp, #124]
 730 0248 105D     		ldrb	r0, [r2, r4]
 731 024a 0D9A     		ldr	r2, [sp, #52]
 732 024c 4340     		eors	r3, r0
 733 024e 5340     		eors	r3, r2
 734              	.LBE61:
 735              	.LBE166:
 736              	.LBB167:
 737              	.LBB119:
 738              	.LBB92:
 369:../../../../../../Middlewares/Third_Party/LoRaWAN/Crypto/aes.c ****     ((uint8_t*)d)[13] ^= ((uint8_t*)s)[13];
 739              		.loc 1 369 0
 740 0250 387B     		ldrb	r0, [r7, #12]
 741              	.LBE92:
 742              	.LBE119:
 743              	.LBE167:
 744              	.LBB168:
 745              	.LBB62:
 470:../../../../../../Middlewares/Third_Party/LoRaWAN/Crypto/aes.c ****     dt[13] = s_box(st[12]) ^ gfm2_sb(st[1]) ^ gfm3_sb(st[6]) ^ s_box(st[11]);
 746              		.loc 1 470 0
 747 0252 7340     		eors	r3, r6
 748              	.LBE62:
 749              	.LBE168:
 750              	.LBB169:
 751              	.LBB120:
 752              	.LBB93:
 369:../../../../../../Middlewares/Third_Party/LoRaWAN/Crypto/aes.c ****     ((uint8_t*)d)[13] ^= ((uint8_t*)s)[13];
 753              		.loc 1 369 0
 754 0254 4340     		eors	r3, r0
 755 0256 0D93     		str	r3, [sp, #52]
 756              	.LVL35:
 757              	.LBE93:
 758              	.LBE120:
 759              	.LBE169:
 760              	.LBB170:
 761              	.LBB63:
 471:../../../../../../Middlewares/Third_Party/LoRaWAN/Crypto/aes.c ****     dt[14] = s_box(st[12]) ^ s_box(st[1]) ^ gfm2_sb(st[6]) ^ gfm3_sb(st[11]);
 762              		.loc 1 471 0
 763 0258 3300     		movs	r3, r6
 764 025a 209E     		ldr	r6, [sp, #128]
 765 025c 285D     		ldrb	r0, [r5, r4]
 766 025e 7340     		eors	r3, r6
 767 0260 5840     		eors	r0, r3
 470:../../../../../../Middlewares/Third_Party/LoRaWAN/Crypto/aes.c ****     dt[13] = s_box(st[12]) ^ gfm2_sb(st[1]) ^ gfm3_sb(st[6]) ^ s_box(st[11]);
 768              		.loc 1 470 0
 769 0262 9446     		mov	ip, r2
 471:../../../../../../Middlewares/Third_Party/LoRaWAN/Crypto/aes.c ****     dt[14] = s_box(st[12]) ^ s_box(st[1]) ^ gfm2_sb(st[6]) ^ gfm3_sb(st[11]);
 770              		.loc 1 471 0
 771 0264 514B     		ldr	r3, .L7+8
 772 0266 1D9A     		ldr	r2, [sp, #116]
 773 0268 9B5C     		ldrb	r3, [r3, r2]
 774 026a 4340     		eors	r3, r0
ARM GAS  C:\Users\EBANO_~1\AppData\Local\Temp\ccMXEZix.s 			page 27


 775              	.LBE63:
 776              	.LBE170:
 777              	.LBB171:
 778              	.LBB121:
 779              	.LBB94:
 370:../../../../../../Middlewares/Third_Party/LoRaWAN/Crypto/aes.c ****     ((uint8_t*)d)[14] ^= ((uint8_t*)s)[14];
 780              		.loc 1 370 0
 781 026c 787B     		ldrb	r0, [r7, #13]
 782 026e 4340     		eors	r3, r0
 783              	.LBE94:
 784              	.LBE121:
 785              	.LBE171:
 786              	.LBB172:
 787              	.LBB64:
 472:../../../../../../Middlewares/Third_Party/LoRaWAN/Crypto/aes.c ****     dt[15] = gfm3_sb(st[12]) ^ s_box(st[1]) ^ s_box(st[6]) ^ gfm2_sb(st[11]);
 788              		.loc 1 472 0
 789 0270 3000     		movs	r0, r6
 790 0272 219E     		ldr	r6, [sp, #132]
 791              	.LBE64:
 792              	.LBE172:
 793              	.LBB173:
 794              	.LBB122:
 795              	.LBB95:
 370:../../../../../../Middlewares/Third_Party/LoRaWAN/Crypto/aes.c ****     ((uint8_t*)d)[14] ^= ((uint8_t*)s)[14];
 796              		.loc 1 370 0
 797 0274 0393     		str	r3, [sp, #12]
 798              	.LVL36:
 799              	.LBE95:
 800              	.LBE122:
 801              	.LBE173:
 802              	.LBB174:
 803              	.LBB65:
 472:../../../../../../Middlewares/Third_Party/LoRaWAN/Crypto/aes.c ****     dt[15] = gfm3_sb(st[12]) ^ s_box(st[1]) ^ s_box(st[6]) ^ gfm2_sb(st[11]);
 804              		.loc 1 472 0
 805 0276 AB5C     		ldrb	r3, [r5, r2]
 806 0278 7040     		eors	r0, r6
 807 027a 4340     		eors	r3, r0
 808 027c 1E9A     		ldr	r2, [sp, #120]
 809 027e 4B48     		ldr	r0, .L7+8
 810 0280 845C     		ldrb	r4, [r0, r2]
 811 0282 5C40     		eors	r4, r3
 812              	.LBE65:
 813              	.LBE174:
 814              	.LBB175:
 815              	.LBB123:
 816              	.LBB96:
 371:../../../../../../Middlewares/Third_Party/LoRaWAN/Crypto/aes.c ****     ((uint8_t*)d)[15] ^= ((uint8_t*)s)[15];
 817              		.loc 1 371 0
 818 0284 BB7B     		ldrb	r3, [r7, #14]
 819 0286 5C40     		eors	r4, r3
 820              	.LBE96:
 821              	.LBE123:
 822              	.LBE175:
 823              	.LBB176:
 824              	.LBB66:
 473:../../../../../../Middlewares/Third_Party/LoRaWAN/Crypto/aes.c ****   }
 825              		.loc 1 473 0
ARM GAS  C:\Users\EBANO_~1\AppData\Local\Temp\ccMXEZix.s 			page 28


 826 0288 6346     		mov	r3, ip
 827              	.LBE66:
 828              	.LBE176:
 829              	.LBB177:
 830              	.LBB124:
 831              	.LBB97:
 371:../../../../../../Middlewares/Third_Party/LoRaWAN/Crypto/aes.c ****     ((uint8_t*)d)[15] ^= ((uint8_t*)s)[15];
 832              		.loc 1 371 0
 833 028a 0494     		str	r4, [sp, #16]
 834              	.LVL37:
 835              	.LBE97:
 836              	.LBE124:
 837              	.LBE177:
 838              	.LBB178:
 839              	.LBB67:
 473:../../../../../../Middlewares/Third_Party/LoRaWAN/Crypto/aes.c ****   }
 840              		.loc 1 473 0
 841 028c 0C9C     		ldr	r4, [sp, #48]
 842 028e 7340     		eors	r3, r6
 843 0290 005D     		ldrb	r0, [r0, r4]
 844 0292 4340     		eors	r3, r0
 845 0294 A85C     		ldrb	r0, [r5, r2]
 846              	.LBE67:
 847              	.LBE178:
 848              		.loc 1 575 0
 849 0296 229A     		ldr	r2, [sp, #136]
 850              	.LBB179:
 851              	.LBB68:
 473:../../../../../../Middlewares/Third_Party/LoRaWAN/Crypto/aes.c ****   }
 852              		.loc 1 473 0
 853 0298 4340     		eors	r3, r0
 854              	.LBE68:
 855              	.LBE179:
 856              	.LBB180:
 857              	.LBB125:
 858              	.LBB98:
 372:../../../../../../Middlewares/Third_Party/LoRaWAN/Crypto/aes.c **** #endif
 859              		.loc 1 372 0
 860 029a F87B     		ldrb	r0, [r7, #15]
 861 029c 1037     		adds	r7, r7, #16
 862              	.LVL38:
 863 029e 4340     		eors	r3, r0
 864              	.LVL39:
 865              	.LBE98:
 866              	.LBE125:
 867              	.LBE180:
 868              		.loc 1 575 0
 869 02a0 BA42     		cmp	r2, r7
 870 02a2 00D0     		beq	.LCB906
 871 02a4 09E7     		b	.L3	@long jump
 872              	.LCB906:
 873 02a6 D046     		mov	r8, r10
 874 02a8 9C46     		mov	ip, r3
 875 02aa 259B     		ldr	r3, [sp, #148]
 876              	.LVL40:
 877 02ac 049C     		ldr	r4, [sp, #16]
 878 02ae 0D9D     		ldr	r5, [sp, #52]
ARM GAS  C:\Users\EBANO_~1\AppData\Local\Temp\ccMXEZix.s 			page 29


 879 02b0 1A01     		lsls	r2, r3, #4
 880              	.LVL41:
 881              	.L2:
 882              	.LBB181:
 883              	.LBB182:
 414:../../../../../../Middlewares/Third_Party/LoRaWAN/Crypto/aes.c ****     st[ 8] = s_box(st[ 8]); st[12] = s_box(st[12]);
 884              		.loc 1 414 0
 885 02b2 119B     		ldr	r3, [sp, #68]
 417:../../../../../../Middlewares/Third_Party/LoRaWAN/Crypto/aes.c ****     st[ 9] = s_box(st[13]); st[13] = s_box( tt );
 886              		.loc 1 417 0
 887 02b4 019E     		ldr	r6, [sp, #4]
 414:../../../../../../Middlewares/Third_Party/LoRaWAN/Crypto/aes.c ****     st[ 8] = s_box(st[ 8]); st[12] = s_box(st[12]);
 888              		.loc 1 414 0
 889 02b6 CB5C     		ldrb	r3, [r1, r3]
 415:../../../../../../Middlewares/Third_Party/LoRaWAN/Crypto/aes.c **** 
 890              		.loc 1 415 0
 891 02b8 1498     		ldr	r0, [sp, #80]
 414:../../../../../../Middlewares/Third_Party/LoRaWAN/Crypto/aes.c ****     st[ 8] = s_box(st[ 8]); st[12] = s_box(st[12]);
 892              		.loc 1 414 0
 893 02ba 0493     		str	r3, [sp, #16]
 417:../../../../../../Middlewares/Third_Party/LoRaWAN/Crypto/aes.c ****     st[ 9] = s_box(st[13]); st[13] = s_box( tt );
 894              		.loc 1 417 0
 895 02bc 8B5D     		ldrb	r3, [r1, r6]
 896 02be 4646     		mov	r6, r8
 897 02c0 8E5D     		ldrb	r6, [r1, r6]
 415:../../../../../../Middlewares/Third_Party/LoRaWAN/Crypto/aes.c **** 
 898              		.loc 1 415 0
 899 02c2 085C     		ldrb	r0, [r1, r0]
 417:../../../../../../Middlewares/Third_Party/LoRaWAN/Crypto/aes.c ****     st[ 9] = s_box(st[13]); st[13] = s_box( tt );
 900              		.loc 1 417 0
 901 02c4 0196     		str	r6, [sp, #4]
 902              	.LVL42:
 420:../../../../../../Middlewares/Third_Party/LoRaWAN/Crypto/aes.c ****     tt = st[6]; st[ 6] = s_box(st[14]); st[14] = s_box( tt );
 903              		.loc 1 420 0
 904 02c6 029E     		ldr	r6, [sp, #8]
 415:../../../../../../Middlewares/Third_Party/LoRaWAN/Crypto/aes.c **** 
 905              		.loc 1 415 0
 906 02c8 0590     		str	r0, [sp, #20]
 420:../../../../../../Middlewares/Third_Party/LoRaWAN/Crypto/aes.c ****     tt = st[6]; st[ 6] = s_box(st[14]); st[14] = s_box( tt );
 907              		.loc 1 420 0
 908 02ca 885D     		ldrb	r0, [r1, r6]
 909 02cc 0F9E     		ldr	r6, [sp, #60]
 415:../../../../../../Middlewares/Third_Party/LoRaWAN/Crypto/aes.c **** 
 910              		.loc 1 415 0
 911 02ce 4D5D     		ldrb	r5, [r1, r5]
 420:../../../../../../Middlewares/Third_Party/LoRaWAN/Crypto/aes.c ****     tt = st[6]; st[ 6] = s_box(st[14]); st[14] = s_box( tt );
 912              		.loc 1 420 0
 913 02d0 8E5D     		ldrb	r6, [r1, r6]
 415:../../../../../../Middlewares/Third_Party/LoRaWAN/Crypto/aes.c **** 
 914              		.loc 1 415 0
 915 02d2 0695     		str	r5, [sp, #24]
 420:../../../../../../Middlewares/Third_Party/LoRaWAN/Crypto/aes.c ****     tt = st[6]; st[ 6] = s_box(st[14]); st[14] = s_box( tt );
 916              		.loc 1 420 0
 917 02d4 B146     		mov	r9, r6
 918              	.LVL43:
 418:../../../../../../Middlewares/Third_Party/LoRaWAN/Crypto/aes.c **** 
 919              		.loc 1 418 0
ARM GAS  C:\Users\EBANO_~1\AppData\Local\Temp\ccMXEZix.s 			page 30


 920 02d6 0E9D     		ldr	r5, [sp, #56]
 421:../../../../../../Middlewares/Third_Party/LoRaWAN/Crypto/aes.c **** 
 921              		.loc 1 421 0
 922 02d8 129E     		ldr	r6, [sp, #72]
 418:../../../../../../Middlewares/Third_Party/LoRaWAN/Crypto/aes.c **** 
 923              		.loc 1 418 0
 924 02da 039F     		ldr	r7, [sp, #12]
 925 02dc 4D5D     		ldrb	r5, [r1, r5]
 420:../../../../../../Middlewares/Third_Party/LoRaWAN/Crypto/aes.c ****     tt = st[6]; st[ 6] = s_box(st[14]); st[14] = s_box( tt );
 926              		.loc 1 420 0
 927 02de 0290     		str	r0, [sp, #8]
 928              	.LVL44:
 421:../../../../../../Middlewares/Third_Party/LoRaWAN/Crypto/aes.c **** 
 929              		.loc 1 421 0
 930 02e0 085D     		ldrb	r0, [r1, r4]
 931 02e2 8C5D     		ldrb	r4, [r1, r6]
 932              	.LVL45:
 423:../../../../../../Middlewares/Third_Party/LoRaWAN/Crypto/aes.c ****     st[ 7] = s_box(st[ 3]); st[ 3] = s_box( tt );
 933              		.loc 1 423 0
 934 02e4 159E     		ldr	r6, [sp, #84]
 418:../../../../../../Middlewares/Third_Party/LoRaWAN/Crypto/aes.c **** 
 935              		.loc 1 418 0
 936 02e6 CF5D     		ldrb	r7, [r1, r7]
 937 02e8 0795     		str	r5, [sp, #28]
 421:../../../../../../Middlewares/Third_Party/LoRaWAN/Crypto/aes.c **** 
 938              		.loc 1 421 0
 939 02ea 0894     		str	r4, [sp, #32]
 423:../../../../../../Middlewares/Third_Party/LoRaWAN/Crypto/aes.c ****     st[ 7] = s_box(st[ 3]); st[ 3] = s_box( tt );
 940              		.loc 1 423 0
 941 02ec 8D5D     		ldrb	r5, [r1, r6]
 424:../../../../../../Middlewares/Third_Party/LoRaWAN/Crypto/aes.c **** }
 942              		.loc 1 424 0
 943 02ee 109C     		ldr	r4, [sp, #64]
 423:../../../../../../Middlewares/Third_Party/LoRaWAN/Crypto/aes.c ****     st[ 7] = s_box(st[ 3]); st[ 3] = s_box( tt );
 944              		.loc 1 423 0
 945 02f0 139E     		ldr	r6, [sp, #76]
 418:../../../../../../Middlewares/Third_Party/LoRaWAN/Crypto/aes.c **** 
 946              		.loc 1 418 0
 947 02f2 0397     		str	r7, [sp, #12]
 948              	.LVL46:
 423:../../../../../../Middlewares/Third_Party/LoRaWAN/Crypto/aes.c ****     st[ 7] = s_box(st[ 3]); st[ 3] = s_box( tt );
 949              		.loc 1 423 0
 950 02f4 8E5D     		ldrb	r6, [r1, r6]
 424:../../../../../../Middlewares/Third_Party/LoRaWAN/Crypto/aes.c **** }
 951              		.loc 1 424 0
 952 02f6 0F5D     		ldrb	r7, [r1, r4]
 953 02f8 6446     		mov	r4, ip
 954 02fa 0C5D     		ldrb	r4, [r1, r4]
 955 02fc A446     		mov	ip, r4
 956              	.LVL47:
 957              	.LBE182:
 958              	.LBE181:
 576:../../../../../../Middlewares/Third_Party/LoRaWAN/Crypto/aes.c **** #if defined( VERSION_1 )
 577:../../../../../../Middlewares/Third_Party/LoRaWAN/Crypto/aes.c ****         {
 578:../../../../../../Middlewares/Third_Party/LoRaWAN/Crypto/aes.c ****             mix_sub_columns( s1 );
 579:../../../../../../Middlewares/Third_Party/LoRaWAN/Crypto/aes.c ****             add_round_key( s1, ctx->ksch + r * N_BLOCK);
 580:../../../../../../Middlewares/Third_Party/LoRaWAN/Crypto/aes.c ****         }
ARM GAS  C:\Users\EBANO_~1\AppData\Local\Temp\ccMXEZix.s 			page 31


 581:../../../../../../Middlewares/Third_Party/LoRaWAN/Crypto/aes.c **** #else
 582:../../../../../../Middlewares/Third_Party/LoRaWAN/Crypto/aes.c ****         {   uint8_t s2[N_BLOCK];
 583:../../../../../../Middlewares/Third_Party/LoRaWAN/Crypto/aes.c ****             mix_sub_columns( s2, s1 );
 584:../../../../../../Middlewares/Third_Party/LoRaWAN/Crypto/aes.c ****             copy_and_key( s1, s2, ctx->ksch + r * N_BLOCK);
 585:../../../../../../Middlewares/Third_Party/LoRaWAN/Crypto/aes.c ****         }
 586:../../../../../../Middlewares/Third_Party/LoRaWAN/Crypto/aes.c **** #endif
 587:../../../../../../Middlewares/Third_Party/LoRaWAN/Crypto/aes.c ****         shift_sub_rows( s1 );
 588:../../../../../../Middlewares/Third_Party/LoRaWAN/Crypto/aes.c ****         copy_and_key( out, s1, ctx->ksch + r * N_BLOCK );
 959              		.loc 1 588 0
 960 02fe 249C     		ldr	r4, [sp, #144]
 961 0300 A046     		mov	r8, r4
 962              	.LVL48:
 963 0302 4244     		add	r2, r2, r8
 964              	.LVL49:
 965              	.LBB183:
 966              	.LBB184:
 384:../../../../../../Middlewares/Third_Party/LoRaWAN/Crypto/aes.c ****     ((uint8_t*)d)[ 1] = ((uint8_t*)s)[ 1] ^ ((uint8_t*)k)[ 1];
 967              		.loc 1 384 0
 968 0304 1478     		ldrb	r4, [r2]
 969 0306 A046     		mov	r8, r4
 970 0308 5C46     		mov	r4, fp
 971 030a 095D     		ldrb	r1, [r1, r4]
 972 030c 8A46     		mov	r10, r1
 973 030e 4146     		mov	r1, r8
 974 0310 5446     		mov	r4, r10
 975 0312 6140     		eors	r1, r4
 976 0314 8846     		mov	r8, r1
 977 0316 4446     		mov	r4, r8
 978 0318 2399     		ldr	r1, [sp, #140]
 979 031a 0C70     		strb	r4, [r1]
 385:../../../../../../Middlewares/Third_Party/LoRaWAN/Crypto/aes.c ****     ((uint8_t*)d)[ 2] = ((uint8_t*)s)[ 2] ^ ((uint8_t*)k)[ 2];
 980              		.loc 1 385 0
 981 031c 5478     		ldrb	r4, [r2, #1]
 982 031e 6340     		eors	r3, r4
 983 0320 0C00     		movs	r4, r1
 984 0322 4B70     		strb	r3, [r1, #1]
 386:../../../../../../Middlewares/Third_Party/LoRaWAN/Crypto/aes.c ****     ((uint8_t*)d)[ 3] = ((uint8_t*)s)[ 3] ^ ((uint8_t*)k)[ 3];
 985              		.loc 1 386 0
 986 0324 9378     		ldrb	r3, [r2, #2]
 987 0326 0299     		ldr	r1, [sp, #8]
 988 0328 5940     		eors	r1, r3
 989 032a A170     		strb	r1, [r4, #2]
 387:../../../../../../Middlewares/Third_Party/LoRaWAN/Crypto/aes.c ****     ((uint8_t*)d)[ 4] = ((uint8_t*)s)[ 4] ^ ((uint8_t*)k)[ 4];
 990              		.loc 1 387 0
 991 032c 6446     		mov	r4, ip
 992 032e D378     		ldrb	r3, [r2, #3]
 993 0330 2399     		ldr	r1, [sp, #140]
 994 0332 6340     		eors	r3, r4
 995 0334 CB70     		strb	r3, [r1, #3]
 388:../../../../../../Middlewares/Third_Party/LoRaWAN/Crypto/aes.c ****     ((uint8_t*)d)[ 5] = ((uint8_t*)s)[ 5] ^ ((uint8_t*)k)[ 5];
 996              		.loc 1 388 0
 997 0336 1379     		ldrb	r3, [r2, #4]
 998 0338 049C     		ldr	r4, [sp, #16]
 999 033a 6340     		eors	r3, r4
 1000 033c 0B71     		strb	r3, [r1, #4]
 389:../../../../../../Middlewares/Third_Party/LoRaWAN/Crypto/aes.c ****     ((uint8_t*)d)[ 6] = ((uint8_t*)s)[ 6] ^ ((uint8_t*)k)[ 6];
 1001              		.loc 1 389 0
ARM GAS  C:\Users\EBANO_~1\AppData\Local\Temp\ccMXEZix.s 			page 32


 1002 033e 5379     		ldrb	r3, [r2, #5]
 1003 0340 019C     		ldr	r4, [sp, #4]
 1004 0342 6340     		eors	r3, r4
 394:../../../../../../Middlewares/Third_Party/LoRaWAN/Crypto/aes.c ****     ((uint8_t*)d)[11] = ((uint8_t*)s)[11] ^ ((uint8_t*)k)[11];
 1005              		.loc 1 394 0
 1006 0344 4C46     		mov	r4, r9
 389:../../../../../../Middlewares/Third_Party/LoRaWAN/Crypto/aes.c ****     ((uint8_t*)d)[ 6] = ((uint8_t*)s)[ 6] ^ ((uint8_t*)k)[ 6];
 1007              		.loc 1 389 0
 1008 0346 4B71     		strb	r3, [r1, #5]
 390:../../../../../../Middlewares/Third_Party/LoRaWAN/Crypto/aes.c ****     ((uint8_t*)d)[ 7] = ((uint8_t*)s)[ 7] ^ ((uint8_t*)k)[ 7];
 1009              		.loc 1 390 0
 1010 0348 9379     		ldrb	r3, [r2, #6]
 1011 034a 5840     		eors	r0, r3
 1012 034c 8871     		strb	r0, [r1, #6]
 391:../../../../../../Middlewares/Third_Party/LoRaWAN/Crypto/aes.c ****     ((uint8_t*)d)[ 8] = ((uint8_t*)s)[ 8] ^ ((uint8_t*)k)[ 8];
 1013              		.loc 1 391 0
 1014 034e D379     		ldrb	r3, [r2, #7]
 392:../../../../../../Middlewares/Third_Party/LoRaWAN/Crypto/aes.c ****     ((uint8_t*)d)[ 9] = ((uint8_t*)s)[ 9] ^ ((uint8_t*)k)[ 9];
 1015              		.loc 1 392 0
 1016 0350 0598     		ldr	r0, [sp, #20]
 391:../../../../../../Middlewares/Third_Party/LoRaWAN/Crypto/aes.c ****     ((uint8_t*)d)[ 8] = ((uint8_t*)s)[ 8] ^ ((uint8_t*)k)[ 8];
 1017              		.loc 1 391 0
 1018 0352 5F40     		eors	r7, r3
 1019 0354 CF71     		strb	r7, [r1, #7]
 392:../../../../../../Middlewares/Third_Party/LoRaWAN/Crypto/aes.c ****     ((uint8_t*)d)[ 9] = ((uint8_t*)s)[ 9] ^ ((uint8_t*)k)[ 9];
 1020              		.loc 1 392 0
 1021 0356 137A     		ldrb	r3, [r2, #8]
 393:../../../../../../Middlewares/Third_Party/LoRaWAN/Crypto/aes.c ****     ((uint8_t*)d)[10] = ((uint8_t*)s)[10] ^ ((uint8_t*)k)[10];
 1022              		.loc 1 393 0
 1023 0358 039F     		ldr	r7, [sp, #12]
 392:../../../../../../Middlewares/Third_Party/LoRaWAN/Crypto/aes.c ****     ((uint8_t*)d)[ 9] = ((uint8_t*)s)[ 9] ^ ((uint8_t*)k)[ 9];
 1024              		.loc 1 392 0
 1025 035a 4340     		eors	r3, r0
 1026 035c 0B72     		strb	r3, [r1, #8]
 393:../../../../../../Middlewares/Third_Party/LoRaWAN/Crypto/aes.c ****     ((uint8_t*)d)[10] = ((uint8_t*)s)[10] ^ ((uint8_t*)k)[10];
 1027              		.loc 1 393 0
 1028 035e 537A     		ldrb	r3, [r2, #9]
 1029 0360 7B40     		eors	r3, r7
 1030 0362 4B72     		strb	r3, [r1, #9]
 394:../../../../../../Middlewares/Third_Party/LoRaWAN/Crypto/aes.c ****     ((uint8_t*)d)[11] = ((uint8_t*)s)[11] ^ ((uint8_t*)k)[11];
 1031              		.loc 1 394 0
 1032 0364 937A     		ldrb	r3, [r2, #10]
 1033 0366 6340     		eors	r3, r4
 1034 0368 8B72     		strb	r3, [r1, #10]
 395:../../../../../../Middlewares/Third_Party/LoRaWAN/Crypto/aes.c ****     ((uint8_t*)d)[12] = ((uint8_t*)s)[12] ^ ((uint8_t*)k)[12];
 1035              		.loc 1 395 0
 1036 036a D37A     		ldrb	r3, [r2, #11]
 396:../../../../../../Middlewares/Third_Party/LoRaWAN/Crypto/aes.c ****     ((uint8_t*)d)[13] = ((uint8_t*)s)[13] ^ ((uint8_t*)k)[13];
 1037              		.loc 1 396 0
 1038 036c 0698     		ldr	r0, [sp, #24]
 395:../../../../../../Middlewares/Third_Party/LoRaWAN/Crypto/aes.c ****     ((uint8_t*)d)[12] = ((uint8_t*)s)[12] ^ ((uint8_t*)k)[12];
 1039              		.loc 1 395 0
 1040 036e 5E40     		eors	r6, r3
 1041 0370 CE72     		strb	r6, [r1, #11]
 396:../../../../../../Middlewares/Third_Party/LoRaWAN/Crypto/aes.c ****     ((uint8_t*)d)[13] = ((uint8_t*)s)[13] ^ ((uint8_t*)k)[13];
 1042              		.loc 1 396 0
 1043 0372 137B     		ldrb	r3, [r2, #12]
ARM GAS  C:\Users\EBANO_~1\AppData\Local\Temp\ccMXEZix.s 			page 33


 398:../../../../../../Middlewares/Third_Party/LoRaWAN/Crypto/aes.c ****     ((uint8_t*)d)[15] = ((uint8_t*)s)[15] ^ ((uint8_t*)k)[15];
 1044              		.loc 1 398 0
 1045 0374 089C     		ldr	r4, [sp, #32]
 396:../../../../../../Middlewares/Third_Party/LoRaWAN/Crypto/aes.c ****     ((uint8_t*)d)[13] = ((uint8_t*)s)[13] ^ ((uint8_t*)k)[13];
 1046              		.loc 1 396 0
 1047 0376 4340     		eors	r3, r0
 1048 0378 0B73     		strb	r3, [r1, #12]
 397:../../../../../../Middlewares/Third_Party/LoRaWAN/Crypto/aes.c ****     ((uint8_t*)d)[14] = ((uint8_t*)s)[14] ^ ((uint8_t*)k)[14];
 1049              		.loc 1 397 0
 1050 037a 537B     		ldrb	r3, [r2, #13]
 1051 037c 0798     		ldr	r0, [sp, #28]
 1052 037e 4340     		eors	r3, r0
 1053              	.LBE184:
 1054              	.LBE183:
 1055              	.LBE32:
 589:../../../../../../Middlewares/Third_Party/LoRaWAN/Crypto/aes.c ****     }
 590:../../../../../../Middlewares/Third_Party/LoRaWAN/Crypto/aes.c ****     else
 591:../../../../../../Middlewares/Third_Party/LoRaWAN/Crypto/aes.c ****         return ( uint8_t )-1;
 592:../../../../../../Middlewares/Third_Party/LoRaWAN/Crypto/aes.c ****     return 0;
 593:../../../../../../Middlewares/Third_Party/LoRaWAN/Crypto/aes.c **** }
 1056              		.loc 1 593 0
 1057 0380 0020     		movs	r0, #0
 1058              	.LBB187:
 1059              	.LBB186:
 1060              	.LBB185:
 397:../../../../../../Middlewares/Third_Party/LoRaWAN/Crypto/aes.c ****     ((uint8_t*)d)[14] = ((uint8_t*)s)[14] ^ ((uint8_t*)k)[14];
 1061              		.loc 1 397 0
 1062 0382 4B73     		strb	r3, [r1, #13]
 398:../../../../../../Middlewares/Third_Party/LoRaWAN/Crypto/aes.c ****     ((uint8_t*)d)[15] = ((uint8_t*)s)[15] ^ ((uint8_t*)k)[15];
 1063              		.loc 1 398 0
 1064 0384 937B     		ldrb	r3, [r2, #14]
 1065 0386 5C40     		eors	r4, r3
 1066 0388 8C73     		strb	r4, [r1, #14]
 399:../../../../../../Middlewares/Third_Party/LoRaWAN/Crypto/aes.c **** #else
 1067              		.loc 1 399 0
 1068 038a D37B     		ldrb	r3, [r2, #15]
 1069 038c 5D40     		eors	r5, r3
 1070 038e CD73     		strb	r5, [r1, #15]
 1071              	.LVL50:
 1072              	.LBE185:
 1073              	.LBE186:
 1074              	.LBE187:
 1075              		.loc 1 593 0
 1076 0390 27B0     		add	sp, sp, #156
 1077              		@ sp needed
 1078              	.LVL51:
 1079 0392 3CBC     		pop	{r2, r3, r4, r5}
 1080 0394 9046     		mov	r8, r2
 1081 0396 9946     		mov	r9, r3
 1082 0398 A246     		mov	r10, r4
 1083 039a AB46     		mov	fp, r5
 1084 039c F0BD     		pop	{r4, r5, r6, r7, pc}
 1085              	.LVL52:
 1086              	.L4:
 1087              	.LBB188:
 575:../../../../../../Middlewares/Third_Party/LoRaWAN/Crypto/aes.c **** #if defined( VERSION_1 )
 1088              		.loc 1 575 0
ARM GAS  C:\Users\EBANO_~1\AppData\Local\Temp\ccMXEZix.s 			page 34


 1089 039e 1022     		movs	r2, #16
 1090 03a0 0049     		ldr	r1, .L7
 1091              	.LVL53:
 1092 03a2 86E7     		b	.L2
 1093              	.L8:
 1094              		.align	2
 1095              	.L7:
 1096 03a4 00020000 		.word	sbox
 1097 03a8 00010000 		.word	gfm2_sbox
 1098 03ac 00000000 		.word	gfm3_sbox
 1099              	.LBE188:
 1100              		.cfi_endproc
 1101              	.LFE10:
 1102              		.size	aes_encrypt.part.0, .-aes_encrypt.part.0
 1103              		.global	__aeabi_uidivmod
 1104              		.section	.text.aes_set_key,"ax",%progbits
 1105              		.align	1
 1106              		.p2align 2,,3
 1107              		.global	aes_set_key
 1108              		.syntax unified
 1109              		.code	16
 1110              		.thumb_func
 1111              		.fpu softvfp
 1112              		.type	aes_set_key, %function
 1113              	aes_set_key:
 1114              	.LFB7:
 514:../../../../../../Middlewares/Third_Party/LoRaWAN/Crypto/aes.c ****     uint8_t cc, rc, hi;
 1115              		.loc 1 514 0
 1116              		.cfi_startproc
 1117              		@ args = 0, pretend = 0, frame = 8
 1118              		@ frame_needed = 0, uses_anonymous_args = 0
 1119              	.LVL54:
 1120 0000 F0B5     		push	{r4, r5, r6, r7, lr}
 1121              	.LCFI3:
 1122              		.cfi_def_cfa_offset 20
 1123              		.cfi_offset 4, -20
 1124              		.cfi_offset 5, -16
 1125              		.cfi_offset 6, -12
 1126              		.cfi_offset 7, -8
 1127              		.cfi_offset 14, -4
 1128 0002 5746     		mov	r7, r10
 1129 0004 DE46     		mov	lr, fp
 1130 0006 4E46     		mov	r6, r9
 1131 0008 4546     		mov	r5, r8
 1132 000a 0B00     		movs	r3, r1
 1133 000c E0B5     		push	{r5, r6, r7, lr}
 1134              	.LCFI4:
 1135              		.cfi_def_cfa_offset 36
 1136              		.cfi_offset 8, -36
 1137              		.cfi_offset 9, -32
 1138              		.cfi_offset 10, -28
 1139              		.cfi_offset 11, -24
 1140 000e 103B     		subs	r3, r3, #16
 1141 0010 DBB2     		uxtb	r3, r3
 1142 0012 83B0     		sub	sp, sp, #12
 1143              	.LCFI5:
 1144              		.cfi_def_cfa_offset 48
ARM GAS  C:\Users\EBANO_~1\AppData\Local\Temp\ccMXEZix.s 			page 35


 514:../../../../../../Middlewares/Third_Party/LoRaWAN/Crypto/aes.c ****     uint8_t cc, rc, hi;
 1145              		.loc 1 514 0
 1146 0014 8A46     		mov	r10, r1
 1147 0016 1400     		movs	r4, r2
 1148 0018 102B     		cmp	r3, #16
 1149 001a 00D9     		bls	.LCB1220
 1150 001c 8EE0     		b	.L10	@long jump
 1151              	.LCB1220:
 1152 001e 0122     		movs	r2, #1
 1153              	.LVL55:
 1154 0020 9A40     		lsls	r2, r2, r3
 1155 0022 1300     		movs	r3, r2
 1156 0024 814A     		ldr	r2, .L52
 1157 0026 1342     		tst	r3, r2
 1158 0028 00D1     		bne	.LCB1228
 1159 002a 87E0     		b	.L10	@long jump
 1160              	.LCB1228:
 1161              	.LVL56:
 1162 002c 0023     		movs	r3, #0
 1163 002e 1A00     		movs	r2, r3
 1164              	.LBB189:
 1165              	.LBB190:
 344:../../../../../../Middlewares/Third_Party/LoRaWAN/Crypto/aes.c ****         //*((uint8_t*)d)++ = *((uint8_t*)s)++;
 1166              		.loc 1 344 0
 1167 0030 4D1E     		subs	r5, r1, #1
 1168 0032 011D     		adds	r1, r0, #4
 1169              	.LVL57:
 1170 0034 8C42     		cmp	r4, r1
 1171 0036 5A41     		adcs	r2, r2, r3
 1172 0038 211D     		adds	r1, r4, #4
 1173 003a 8842     		cmp	r0, r1
 1174 003c 5B41     		adcs	r3, r3, r3
 1175 003e EDB2     		uxtb	r5, r5
 1176              	.LVL58:
 1177 0040 1343     		orrs	r3, r2
 1178 0042 00D1     		bne	.LCB1248
 1179 0044 E9E0     		b	.L13	@long jump
 1180              	.LCB1248:
 1181 0046 2300     		movs	r3, r4
 1182 0048 0343     		orrs	r3, r0
 1183 004a 9B07     		lsls	r3, r3, #30
 1184 004c 00D0     		beq	.LCB1256
 1185 004e E4E0     		b	.L13	@long jump
 1186              	.LCB1256:
 1187 0050 5346     		mov	r3, r10
 346:../../../../../../Middlewares/Third_Party/LoRaWAN/Crypto/aes.c **** }
 1188              		.loc 1 346 0
 1189 0052 0268     		ldr	r2, [r0]
 1190 0054 9B08     		lsrs	r3, r3, #2
 1191              	.LVL59:
 1192 0056 2260     		str	r2, [r4]
 1193 0058 4268     		ldr	r2, [r0, #4]
 1194 005a 6260     		str	r2, [r4, #4]
 1195 005c 8268     		ldr	r2, [r0, #8]
 1196 005e A260     		str	r2, [r4, #8]
 1197 0060 C268     		ldr	r2, [r0, #12]
 1198 0062 E260     		str	r2, [r4, #12]
ARM GAS  C:\Users\EBANO_~1\AppData\Local\Temp\ccMXEZix.s 			page 36


 1199 0064 042B     		cmp	r3, #4
 1200 0066 0DD0     		beq	.L14
 1201 0068 0269     		ldr	r2, [r0, #16]
 1202 006a 2261     		str	r2, [r4, #16]
 1203 006c 052B     		cmp	r3, #5
 1204 006e 09D0     		beq	.L14
 1205 0070 4269     		ldr	r2, [r0, #20]
 1206 0072 6261     		str	r2, [r4, #20]
 1207 0074 062B     		cmp	r3, #6
 1208 0076 05D0     		beq	.L14
 1209 0078 8269     		ldr	r2, [r0, #24]
 1210 007a A261     		str	r2, [r4, #24]
 1211 007c 082B     		cmp	r3, #8
 1212 007e 01D1     		bne	.L14
 1213 0080 C369     		ldr	r3, [r0, #28]
 1214 0082 E361     		str	r3, [r4, #28]
 1215              	.L14:
 1216 0084 0323     		movs	r3, #3
 1217 0086 5246     		mov	r2, r10
 1218 0088 9A43     		bics	r2, r3
 1219 008a 1300     		movs	r3, r2
 1220 008c 8018     		adds	r0, r0, r2
 1221              	.LVL60:
 1222 008e A118     		adds	r1, r4, r2
 1223 0090 AA1A     		subs	r2, r5, r2
 1224 0092 D2B2     		uxtb	r2, r2
 1225 0094 9A45     		cmp	r10, r3
 1226 0096 09D0     		beq	.L17
 1227              	.LVL61:
 1228 0098 0378     		ldrb	r3, [r0]
 1229 009a 0B70     		strb	r3, [r1]
 1230              	.LVL62:
 344:../../../../../../Middlewares/Third_Party/LoRaWAN/Crypto/aes.c ****         //*((uint8_t*)d)++ = *((uint8_t*)s)++;
 1231              		.loc 1 344 0
 1232 009c 002A     		cmp	r2, #0
 1233 009e 05D0     		beq	.L17
 1234              	.LVL63:
 346:../../../../../../Middlewares/Third_Party/LoRaWAN/Crypto/aes.c **** }
 1235              		.loc 1 346 0
 1236 00a0 4378     		ldrb	r3, [r0, #1]
 1237 00a2 4B70     		strb	r3, [r1, #1]
 1238              	.LVL64:
 344:../../../../../../Middlewares/Third_Party/LoRaWAN/Crypto/aes.c ****         //*((uint8_t*)d)++ = *((uint8_t*)s)++;
 1239              		.loc 1 344 0
 1240 00a4 012A     		cmp	r2, #1
 1241 00a6 01D0     		beq	.L17
 1242              	.LVL65:
 346:../../../../../../Middlewares/Third_Party/LoRaWAN/Crypto/aes.c **** }
 1243              		.loc 1 346 0
 1244 00a8 8378     		ldrb	r3, [r0, #2]
 1245 00aa 8B70     		strb	r3, [r1, #2]
 1246              	.LVL66:
 1247              	.L17:
 1248              	.LBE190:
 1249              	.LBE189:
 528:../../../../../../Middlewares/Third_Party/LoRaWAN/Crypto/aes.c ****     ctx->rnd = (hi >> 4) - 1;
 1250              		.loc 1 528 0
ARM GAS  C:\Users\EBANO_~1\AppData\Local\Temp\ccMXEZix.s 			page 37


 1251 00ac 5346     		mov	r3, r10
 529:../../../../../../Middlewares/Third_Party/LoRaWAN/Crypto/aes.c ****     for( cc = keylen, rc = 1; cc < hi; cc += 4 )
 1252              		.loc 1 529 0
 1253 00ae F022     		movs	r2, #240
 528:../../../../../../Middlewares/Third_Party/LoRaWAN/Crypto/aes.c ****     ctx->rnd = (hi >> 4) - 1;
 1254              		.loc 1 528 0
 1255 00b0 1C33     		adds	r3, r3, #28
 1256 00b2 9B00     		lsls	r3, r3, #2
 1257 00b4 DBB2     		uxtb	r3, r3
 1258 00b6 0093     		str	r3, [sp]
 1259              	.LVL67:
 529:../../../../../../Middlewares/Third_Party/LoRaWAN/Crypto/aes.c ****     for( cc = keylen, rc = 1; cc < hi; cc += 4 )
 1260              		.loc 1 529 0
 1261 00b8 1B09     		lsrs	r3, r3, #4
 1262              	.LVL68:
 1263 00ba 013B     		subs	r3, r3, #1
 1264 00bc A354     		strb	r3, [r4, r2]
 1265              	.LVL69:
 1266 00be 5346     		mov	r3, r10
 1267 00c0 182B     		cmp	r3, #24
 1268 00c2 5ED9     		bls	.L50
 530:../../../../../../Middlewares/Third_Party/LoRaWAN/Crypto/aes.c ****     {   uint8_t tt, t0, t1, t2, t3;
 1269              		.loc 1 530 0
 1270 00c4 0123     		movs	r3, #1
 529:../../../../../../Middlewares/Third_Party/LoRaWAN/Crypto/aes.c ****     for( cc = keylen, rc = 1; cc < hi; cc += 4 )
 1271              		.loc 1 529 0
 1272 00c6 5546     		mov	r5, r10
 530:../../../../../../Middlewares/Third_Party/LoRaWAN/Crypto/aes.c ****     {   uint8_t tt, t0, t1, t2, t3;
 1273              		.loc 1 530 0
 1274 00c8 9B46     		mov	fp, r3
 1275              	.LBB192:
 540:../../../../../../Middlewares/Third_Party/LoRaWAN/Crypto/aes.c ****             t1 = s_box(t2);
 1276              		.loc 1 540 0
 1277 00ca A146     		mov	r9, r4
 1278              	.LVL70:
 1279              	.L18:
 533:../../../../../../Middlewares/Third_Party/LoRaWAN/Crypto/aes.c ****         t1 = ctx->ksch[cc - 3];
 1280              		.loc 1 533 0
 1281 00cc 4B46     		mov	r3, r9
 1282 00ce 5E19     		adds	r6, r3, r5
 1283 00d0 331F     		subs	r3, r6, #4
 1284 00d2 1B78     		ldrb	r3, [r3]
 537:../../../../../../Middlewares/Third_Party/LoRaWAN/Crypto/aes.c ****         {
 1285              		.loc 1 537 0
 1286 00d4 5146     		mov	r1, r10
 533:../../../../../../Middlewares/Third_Party/LoRaWAN/Crypto/aes.c ****         t1 = ctx->ksch[cc - 3];
 1287              		.loc 1 533 0
 1288 00d6 0193     		str	r3, [sp, #4]
 1289              	.LVL71:
 534:../../../../../../Middlewares/Third_Party/LoRaWAN/Crypto/aes.c ****         t2 = ctx->ksch[cc - 2];
 1290              		.loc 1 534 0
 1291 00d8 F31E     		subs	r3, r6, #3
 1292 00da 1A78     		ldrb	r2, [r3]
 535:../../../../../../Middlewares/Third_Party/LoRaWAN/Crypto/aes.c ****         t3 = ctx->ksch[cc - 1];
 1293              		.loc 1 535 0
 1294 00dc B31E     		subs	r3, r6, #2
 1295 00de 1C78     		ldrb	r4, [r3]
ARM GAS  C:\Users\EBANO_~1\AppData\Local\Temp\ccMXEZix.s 			page 38


 537:../../../../../../Middlewares/Third_Party/LoRaWAN/Crypto/aes.c ****         {
 1296              		.loc 1 537 0
 1297 00e0 2800     		movs	r0, r5
 536:../../../../../../Middlewares/Third_Party/LoRaWAN/Crypto/aes.c ****         if( cc % keylen == 0 )
 1298              		.loc 1 536 0
 1299 00e2 731E     		subs	r3, r6, #1
 534:../../../../../../Middlewares/Third_Party/LoRaWAN/Crypto/aes.c ****         t2 = ctx->ksch[cc - 2];
 1300              		.loc 1 534 0
 1301 00e4 9046     		mov	r8, r2
 1302              	.LVL72:
 536:../../../../../../Middlewares/Third_Party/LoRaWAN/Crypto/aes.c ****         if( cc % keylen == 0 )
 1303              		.loc 1 536 0
 1304 00e6 1F78     		ldrb	r7, [r3]
 1305              	.LVL73:
 537:../../../../../../Middlewares/Third_Party/LoRaWAN/Crypto/aes.c ****         {
 1306              		.loc 1 537 0
 1307 00e8 FFF7FEFF 		bl	__aeabi_uidivmod
 1308              	.LVL74:
 1309 00ec C9B2     		uxtb	r1, r1
 1310 00ee 0029     		cmp	r1, #0
 1311 00f0 2FD0     		beq	.L51
 533:../../../../../../Middlewares/Third_Party/LoRaWAN/Crypto/aes.c ****         t1 = ctx->ksch[cc - 3];
 1312              		.loc 1 533 0 discriminator 1
 1313 00f2 019A     		ldr	r2, [sp, #4]
 546:../../../../../../Middlewares/Third_Party/LoRaWAN/Crypto/aes.c ****         {
 1314              		.loc 1 546 0 discriminator 1
 1315 00f4 1029     		cmp	r1, #16
 1316 00f6 07D1     		bne	.L22
 549:../../../../../../Middlewares/Third_Party/LoRaWAN/Crypto/aes.c ****             t2 = s_box(t2);
 1317              		.loc 1 549 0
 1318 00f8 4146     		mov	r1, r8
 548:../../../../../../Middlewares/Third_Party/LoRaWAN/Crypto/aes.c ****             t1 = s_box(t1);
 1319              		.loc 1 548 0
 1320 00fa 4D4B     		ldr	r3, .L52+4
 1321 00fc 9A5C     		ldrb	r2, [r3, r2]
 1322              	.LVL75:
 549:../../../../../../Middlewares/Third_Party/LoRaWAN/Crypto/aes.c ****             t2 = s_box(t2);
 1323              		.loc 1 549 0
 1324 00fe 5B5C     		ldrb	r3, [r3, r1]
 1325 0100 9846     		mov	r8, r3
 1326              	.LVL76:
 550:../../../../../../Middlewares/Third_Party/LoRaWAN/Crypto/aes.c ****             t3 = s_box(t3);
 1327              		.loc 1 550 0
 1328 0102 4B4B     		ldr	r3, .L52+4
 1329 0104 1C5D     		ldrb	r4, [r3, r4]
 1330              	.LVL77:
 551:../../../../../../Middlewares/Third_Party/LoRaWAN/Crypto/aes.c ****         }
 1331              		.loc 1 551 0
 1332 0106 DF5D     		ldrb	r7, [r3, r7]
 1333              	.LVL78:
 1334              	.L22:
 554:../../../../../../Middlewares/Third_Party/LoRaWAN/Crypto/aes.c ****         ctx->ksch[cc + 1] = ctx->ksch[tt + 1] ^ t1;
 1335              		.loc 1 554 0 discriminator 2
 1336 0108 5346     		mov	r3, r10
 1337 010a 4946     		mov	r1, r9
 1338 010c EB1A     		subs	r3, r5, r3
 1339 010e DBB2     		uxtb	r3, r3
ARM GAS  C:\Users\EBANO_~1\AppData\Local\Temp\ccMXEZix.s 			page 39


 1340 0110 C95C     		ldrb	r1, [r1, r3]
 555:../../../../../../Middlewares/Third_Party/LoRaWAN/Crypto/aes.c ****         ctx->ksch[cc + 2] = ctx->ksch[tt + 2] ^ t2;
 1341              		.loc 1 555 0 discriminator 2
 1342 0112 4B44     		add	r3, r3, r9
 554:../../../../../../Middlewares/Third_Party/LoRaWAN/Crypto/aes.c ****         ctx->ksch[cc + 1] = ctx->ksch[tt + 1] ^ t1;
 1343              		.loc 1 554 0 discriminator 2
 1344 0114 4A40     		eors	r2, r1
 1345              	.LVL79:
 1346 0116 4946     		mov	r1, r9
 1347 0118 4A55     		strb	r2, [r1, r5]
 555:../../../../../../Middlewares/Third_Party/LoRaWAN/Crypto/aes.c ****         ctx->ksch[cc + 2] = ctx->ksch[tt + 2] ^ t2;
 1348              		.loc 1 555 0 discriminator 2
 1349 011a 4146     		mov	r1, r8
 1350 011c 5A78     		ldrb	r2, [r3, #1]
 1351              	.LBE192:
 530:../../../../../../Middlewares/Third_Party/LoRaWAN/Crypto/aes.c ****     {   uint8_t tt, t0, t1, t2, t3;
 1352              		.loc 1 530 0 discriminator 2
 1353 011e 0435     		adds	r5, r5, #4
 1354              	.LVL80:
 1355              	.LBB193:
 555:../../../../../../Middlewares/Third_Party/LoRaWAN/Crypto/aes.c ****         ctx->ksch[cc + 2] = ctx->ksch[tt + 2] ^ t2;
 1356              		.loc 1 555 0 discriminator 2
 1357 0120 5140     		eors	r1, r2
 1358 0122 7170     		strb	r1, [r6, #1]
 556:../../../../../../Middlewares/Third_Party/LoRaWAN/Crypto/aes.c ****         ctx->ksch[cc + 3] = ctx->ksch[tt + 3] ^ t3;
 1359              		.loc 1 556 0 discriminator 2
 1360 0124 9A78     		ldrb	r2, [r3, #2]
 1361              	.LBE193:
 530:../../../../../../Middlewares/Third_Party/LoRaWAN/Crypto/aes.c ****     {   uint8_t tt, t0, t1, t2, t3;
 1362              		.loc 1 530 0 discriminator 2
 1363 0126 EDB2     		uxtb	r5, r5
 1364              	.LVL81:
 1365              	.LBB194:
 556:../../../../../../Middlewares/Third_Party/LoRaWAN/Crypto/aes.c ****         ctx->ksch[cc + 3] = ctx->ksch[tt + 3] ^ t3;
 1366              		.loc 1 556 0 discriminator 2
 1367 0128 5440     		eors	r4, r2
 1368              	.LVL82:
 1369 012a B470     		strb	r4, [r6, #2]
 557:../../../../../../Middlewares/Third_Party/LoRaWAN/Crypto/aes.c ****     }
 1370              		.loc 1 557 0 discriminator 2
 1371 012c DB78     		ldrb	r3, [r3, #3]
 1372 012e 5F40     		eors	r7, r3
 1373              	.LVL83:
 1374              	.LBE194:
 530:../../../../../../Middlewares/Third_Party/LoRaWAN/Crypto/aes.c ****     {   uint8_t tt, t0, t1, t2, t3;
 1375              		.loc 1 530 0 discriminator 2
 1376 0130 009B     		ldr	r3, [sp]
 1377              	.LBB195:
 557:../../../../../../Middlewares/Third_Party/LoRaWAN/Crypto/aes.c ****     }
 1378              		.loc 1 557 0 discriminator 2
 1379 0132 F770     		strb	r7, [r6, #3]
 1380              	.LBE195:
 530:../../../../../../Middlewares/Third_Party/LoRaWAN/Crypto/aes.c ****     {   uint8_t tt, t0, t1, t2, t3;
 1381              		.loc 1 530 0 discriminator 2
 1382 0134 AB42     		cmp	r3, r5
 1383 0136 C9D8     		bhi	.L18
 559:../../../../../../Middlewares/Third_Party/LoRaWAN/Crypto/aes.c **** }
ARM GAS  C:\Users\EBANO_~1\AppData\Local\Temp\ccMXEZix.s 			page 40


 1384              		.loc 1 559 0
 1385 0138 0020     		movs	r0, #0
 1386 013a 03E0     		b	.L12
 1387              	.LVL84:
 1388              	.L10:
 524:../../../../../../Middlewares/Third_Party/LoRaWAN/Crypto/aes.c ****         return ( uint8_t )-1;
 1389              		.loc 1 524 0
 1390 013c F023     		movs	r3, #240
 1391 013e 0022     		movs	r2, #0
 525:../../../../../../Middlewares/Third_Party/LoRaWAN/Crypto/aes.c ****     }
 1392              		.loc 1 525 0
 1393 0140 FF20     		movs	r0, #255
 1394              	.LVL85:
 524:../../../../../../Middlewares/Third_Party/LoRaWAN/Crypto/aes.c ****         return ( uint8_t )-1;
 1395              		.loc 1 524 0
 1396 0142 E254     		strb	r2, [r4, r3]
 1397              	.LVL86:
 1398              	.L12:
 560:../../../../../../Middlewares/Third_Party/LoRaWAN/Crypto/aes.c **** 
 1399              		.loc 1 560 0
 1400 0144 03B0     		add	sp, sp, #12
 1401              		@ sp needed
 1402 0146 3CBC     		pop	{r2, r3, r4, r5}
 1403 0148 9046     		mov	r8, r2
 1404 014a 9946     		mov	r9, r3
 1405 014c A246     		mov	r10, r4
 1406 014e AB46     		mov	fp, r5
 1407 0150 F0BD     		pop	{r4, r5, r6, r7, pc}
 1408              	.LVL87:
 1409              	.L51:
 1410              	.LBB196:
 540:../../../../../../Middlewares/Third_Party/LoRaWAN/Crypto/aes.c ****             t1 = s_box(t2);
 1411              		.loc 1 540 0
 1412 0152 4146     		mov	r1, r8
 1413 0154 364A     		ldr	r2, .L52+4
 543:../../../../../../Middlewares/Third_Party/LoRaWAN/Crypto/aes.c ****             rc = f2(rc);
 1414              		.loc 1 543 0
 1415 0156 019B     		ldr	r3, [sp, #4]
 540:../../../../../../Middlewares/Third_Party/LoRaWAN/Crypto/aes.c ****             t1 = s_box(t2);
 1416              		.loc 1 540 0
 1417 0158 525C     		ldrb	r2, [r2, r1]
 1418 015a 5946     		mov	r1, fp
 1419 015c 4A40     		eors	r2, r1
 1420              	.LVL88:
 541:../../../../../../Middlewares/Third_Party/LoRaWAN/Crypto/aes.c ****             t2 = s_box(t3);
 1421              		.loc 1 541 0
 1422 015e 3449     		ldr	r1, .L52+4
 1423 0160 095D     		ldrb	r1, [r1, r4]
 1424 0162 8846     		mov	r8, r1
 1425              	.LVL89:
 542:../../../../../../Middlewares/Third_Party/LoRaWAN/Crypto/aes.c ****             t3 = s_box(tt);
 1426              		.loc 1 542 0
 1427 0164 3249     		ldr	r1, .L52+4
 1428 0166 CC5D     		ldrb	r4, [r1, r7]
 1429              	.LVL90:
 543:../../../../../../Middlewares/Third_Party/LoRaWAN/Crypto/aes.c ****             rc = f2(rc);
 1430              		.loc 1 543 0
ARM GAS  C:\Users\EBANO_~1\AppData\Local\Temp\ccMXEZix.s 			page 41


 1431 0168 CF5C     		ldrb	r7, [r1, r3]
 1432              	.LVL91:
 544:../../../../../../Middlewares/Third_Party/LoRaWAN/Crypto/aes.c ****         }
 1433              		.loc 1 544 0
 1434 016a 5B46     		mov	r3, fp
 1435 016c DB09     		lsrs	r3, r3, #7
 1436 016e 5900     		lsls	r1, r3, #1
 1437 0170 5B18     		adds	r3, r3, r1
 1438 0172 D900     		lsls	r1, r3, #3
 1439 0174 5B18     		adds	r3, r3, r1
 1440 0176 5946     		mov	r1, fp
 1441 0178 4900     		lsls	r1, r1, #1
 1442 017a 4B40     		eors	r3, r1
 1443 017c DBB2     		uxtb	r3, r3
 1444 017e 9B46     		mov	fp, r3
 1445              	.LVL92:
 1446 0180 C2E7     		b	.L22
 1447              	.LVL93:
 1448              	.L50:
 1449              	.LBE196:
 529:../../../../../../Middlewares/Third_Party/LoRaWAN/Crypto/aes.c ****     for( cc = keylen, rc = 1; cc < hi; cc += 4 )
 1450              		.loc 1 529 0
 1451 0182 0125     		movs	r5, #1
 1452 0184 5646     		mov	r6, r10
 1453              	.LBB197:
 540:../../../../../../Middlewares/Third_Party/LoRaWAN/Crypto/aes.c ****             t1 = s_box(t2);
 1454              		.loc 1 540 0
 1455 0186 AB46     		mov	fp, r5
 1456 0188 A246     		mov	r10, r4
 1457              	.LVL94:
 1458 018a 0193     		str	r3, [sp, #4]
 1459              	.LVL95:
 1460              	.L20:
 533:../../../../../../Middlewares/Third_Party/LoRaWAN/Crypto/aes.c ****         t1 = ctx->ksch[cc - 3];
 1461              		.loc 1 533 0
 1462 018c 5346     		mov	r3, r10
 1463 018e 9F19     		adds	r7, r3, r6
 1464 0190 3B1F     		subs	r3, r7, #4
 1465 0192 1B78     		ldrb	r3, [r3]
 537:../../../../../../Middlewares/Third_Party/LoRaWAN/Crypto/aes.c ****         {
 1466              		.loc 1 537 0
 1467 0194 0199     		ldr	r1, [sp, #4]
 533:../../../../../../Middlewares/Third_Party/LoRaWAN/Crypto/aes.c ****         t1 = ctx->ksch[cc - 3];
 1468              		.loc 1 533 0
 1469 0196 9946     		mov	r9, r3
 1470              	.LVL96:
 534:../../../../../../Middlewares/Third_Party/LoRaWAN/Crypto/aes.c ****         t2 = ctx->ksch[cc - 2];
 1471              		.loc 1 534 0
 1472 0198 FB1E     		subs	r3, r7, #3
 1473 019a 1B78     		ldrb	r3, [r3]
 537:../../../../../../Middlewares/Third_Party/LoRaWAN/Crypto/aes.c ****         {
 1474              		.loc 1 537 0
 1475 019c 3000     		movs	r0, r6
 534:../../../../../../Middlewares/Third_Party/LoRaWAN/Crypto/aes.c ****         t2 = ctx->ksch[cc - 2];
 1476              		.loc 1 534 0
 1477 019e 9846     		mov	r8, r3
 1478              	.LVL97:
ARM GAS  C:\Users\EBANO_~1\AppData\Local\Temp\ccMXEZix.s 			page 42


 535:../../../../../../Middlewares/Third_Party/LoRaWAN/Crypto/aes.c ****         t3 = ctx->ksch[cc - 1];
 1479              		.loc 1 535 0
 1480 01a0 BB1E     		subs	r3, r7, #2
 1481 01a2 1D78     		ldrb	r5, [r3]
 1482              	.LVL98:
 536:../../../../../../Middlewares/Third_Party/LoRaWAN/Crypto/aes.c ****         if( cc % keylen == 0 )
 1483              		.loc 1 536 0
 1484 01a4 7B1E     		subs	r3, r7, #1
 1485 01a6 1C78     		ldrb	r4, [r3]
 1486              	.LVL99:
 537:../../../../../../Middlewares/Third_Party/LoRaWAN/Crypto/aes.c ****         {
 1487              		.loc 1 537 0
 1488 01a8 FFF7FEFF 		bl	__aeabi_uidivmod
 1489              	.LVL100:
 1490 01ac C9B2     		uxtb	r1, r1
 1491 01ae 0029     		cmp	r1, #0
 1492 01b0 17D1     		bne	.L19
 1493              	.LVL101:
 540:../../../../../../Middlewares/Third_Party/LoRaWAN/Crypto/aes.c ****             t1 = s_box(t2);
 1494              		.loc 1 540 0
 1495 01b2 4246     		mov	r2, r8
 1496 01b4 1E4B     		ldr	r3, .L52+4
 543:../../../../../../Middlewares/Third_Party/LoRaWAN/Crypto/aes.c ****             rc = f2(rc);
 1497              		.loc 1 543 0
 1498 01b6 4946     		mov	r1, r9
 540:../../../../../../Middlewares/Third_Party/LoRaWAN/Crypto/aes.c ****             t1 = s_box(t2);
 1499              		.loc 1 540 0
 1500 01b8 9A5C     		ldrb	r2, [r3, r2]
 1501 01ba 5B46     		mov	r3, fp
 1502 01bc 5A40     		eors	r2, r3
 1503              	.LVL102:
 541:../../../../../../Middlewares/Third_Party/LoRaWAN/Crypto/aes.c ****             t2 = s_box(t3);
 1504              		.loc 1 541 0
 1505 01be 1C4B     		ldr	r3, .L52+4
 540:../../../../../../Middlewares/Third_Party/LoRaWAN/Crypto/aes.c ****             t1 = s_box(t2);
 1506              		.loc 1 540 0
 1507 01c0 9146     		mov	r9, r2
 1508              	.LVL103:
 541:../../../../../../Middlewares/Third_Party/LoRaWAN/Crypto/aes.c ****             t2 = s_box(t3);
 1509              		.loc 1 541 0
 1510 01c2 5B5D     		ldrb	r3, [r3, r5]
 1511 01c4 9846     		mov	r8, r3
 1512              	.LVL104:
 542:../../../../../../Middlewares/Third_Party/LoRaWAN/Crypto/aes.c ****             t3 = s_box(tt);
 1513              		.loc 1 542 0
 1514 01c6 1A4B     		ldr	r3, .L52+4
 1515 01c8 1D5D     		ldrb	r5, [r3, r4]
 1516              	.LVL105:
 543:../../../../../../Middlewares/Third_Party/LoRaWAN/Crypto/aes.c ****             rc = f2(rc);
 1517              		.loc 1 543 0
 1518 01ca 5C5C     		ldrb	r4, [r3, r1]
 1519              	.LVL106:
 544:../../../../../../Middlewares/Third_Party/LoRaWAN/Crypto/aes.c ****         }
 1520              		.loc 1 544 0
 1521 01cc 5B46     		mov	r3, fp
 1522 01ce DB09     		lsrs	r3, r3, #7
 1523 01d0 5900     		lsls	r1, r3, #1
ARM GAS  C:\Users\EBANO_~1\AppData\Local\Temp\ccMXEZix.s 			page 43


 1524              	.LVL107:
 1525 01d2 5B18     		adds	r3, r3, r1
 1526 01d4 D900     		lsls	r1, r3, #3
 1527 01d6 5B18     		adds	r3, r3, r1
 1528 01d8 5946     		mov	r1, fp
 1529 01da 4900     		lsls	r1, r1, #1
 1530 01dc 4B40     		eors	r3, r1
 1531 01de DBB2     		uxtb	r3, r3
 1532 01e0 9B46     		mov	fp, r3
 1533              	.LVL108:
 1534              	.L19:
 554:../../../../../../Middlewares/Third_Party/LoRaWAN/Crypto/aes.c ****         ctx->ksch[cc + 1] = ctx->ksch[tt + 1] ^ t1;
 1535              		.loc 1 554 0
 1536 01e2 5246     		mov	r2, r10
 1537 01e4 4946     		mov	r1, r9
 1538 01e6 019B     		ldr	r3, [sp, #4]
 1539 01e8 F31A     		subs	r3, r6, r3
 1540 01ea DBB2     		uxtb	r3, r3
 1541 01ec D25C     		ldrb	r2, [r2, r3]
 555:../../../../../../Middlewares/Third_Party/LoRaWAN/Crypto/aes.c ****         ctx->ksch[cc + 2] = ctx->ksch[tt + 2] ^ t2;
 1542              		.loc 1 555 0
 1543 01ee 5344     		add	r3, r3, r10
 554:../../../../../../Middlewares/Third_Party/LoRaWAN/Crypto/aes.c ****         ctx->ksch[cc + 1] = ctx->ksch[tt + 1] ^ t1;
 1544              		.loc 1 554 0
 1545 01f0 5140     		eors	r1, r2
 1546 01f2 0A00     		movs	r2, r1
 1547 01f4 5146     		mov	r1, r10
 1548 01f6 8A55     		strb	r2, [r1, r6]
 555:../../../../../../Middlewares/Third_Party/LoRaWAN/Crypto/aes.c ****         ctx->ksch[cc + 2] = ctx->ksch[tt + 2] ^ t2;
 1549              		.loc 1 555 0
 1550 01f8 4146     		mov	r1, r8
 1551 01fa 5A78     		ldrb	r2, [r3, #1]
 1552              	.LBE197:
 530:../../../../../../Middlewares/Third_Party/LoRaWAN/Crypto/aes.c ****     {   uint8_t tt, t0, t1, t2, t3;
 1553              		.loc 1 530 0
 1554 01fc 0436     		adds	r6, r6, #4
 1555              	.LVL109:
 1556              	.LBB198:
 555:../../../../../../Middlewares/Third_Party/LoRaWAN/Crypto/aes.c ****         ctx->ksch[cc + 2] = ctx->ksch[tt + 2] ^ t2;
 1557              		.loc 1 555 0
 1558 01fe 5140     		eors	r1, r2
 1559 0200 7970     		strb	r1, [r7, #1]
 556:../../../../../../Middlewares/Third_Party/LoRaWAN/Crypto/aes.c ****         ctx->ksch[cc + 3] = ctx->ksch[tt + 3] ^ t3;
 1560              		.loc 1 556 0
 1561 0202 9A78     		ldrb	r2, [r3, #2]
 1562              	.LBE198:
 530:../../../../../../Middlewares/Third_Party/LoRaWAN/Crypto/aes.c ****     {   uint8_t tt, t0, t1, t2, t3;
 1563              		.loc 1 530 0
 1564 0204 F6B2     		uxtb	r6, r6
 1565              	.LVL110:
 1566              	.LBB199:
 556:../../../../../../Middlewares/Third_Party/LoRaWAN/Crypto/aes.c ****         ctx->ksch[cc + 3] = ctx->ksch[tt + 3] ^ t3;
 1567              		.loc 1 556 0
 1568 0206 5540     		eors	r5, r2
 1569              	.LVL111:
 1570 0208 BD70     		strb	r5, [r7, #2]
 557:../../../../../../Middlewares/Third_Party/LoRaWAN/Crypto/aes.c ****     }
ARM GAS  C:\Users\EBANO_~1\AppData\Local\Temp\ccMXEZix.s 			page 44


 1571              		.loc 1 557 0
 1572 020a DB78     		ldrb	r3, [r3, #3]
 1573 020c 5C40     		eors	r4, r3
 1574              	.LVL112:
 1575              	.LBE199:
 530:../../../../../../Middlewares/Third_Party/LoRaWAN/Crypto/aes.c ****     {   uint8_t tt, t0, t1, t2, t3;
 1576              		.loc 1 530 0
 1577 020e 009B     		ldr	r3, [sp]
 1578              	.LBB200:
 557:../../../../../../Middlewares/Third_Party/LoRaWAN/Crypto/aes.c ****     }
 1579              		.loc 1 557 0
 1580 0210 FC70     		strb	r4, [r7, #3]
 1581              	.LBE200:
 530:../../../../../../Middlewares/Third_Party/LoRaWAN/Crypto/aes.c ****     {   uint8_t tt, t0, t1, t2, t3;
 1582              		.loc 1 530 0
 1583 0212 B342     		cmp	r3, r6
 1584 0214 BAD8     		bhi	.L20
 559:../../../../../../Middlewares/Third_Party/LoRaWAN/Crypto/aes.c **** }
 1585              		.loc 1 559 0
 1586 0216 0020     		movs	r0, #0
 1587 0218 94E7     		b	.L12
 1588              	.LVL113:
 1589              	.L13:
 1590              	.LBB201:
 1591              	.LBB191:
 344:../../../../../../Middlewares/Third_Party/LoRaWAN/Crypto/aes.c ****         //*((uint8_t*)d)++ = *((uint8_t*)s)++;
 1592              		.loc 1 344 0
 1593 021a 0023     		movs	r3, #0
 1594 021c 0135     		adds	r5, r5, #1
 1595              	.LVL114:
 1596              	.L16:
 346:../../../../../../Middlewares/Third_Party/LoRaWAN/Crypto/aes.c **** }
 1597              		.loc 1 346 0
 1598 021e C25C     		ldrb	r2, [r0, r3]
 1599 0220 E254     		strb	r2, [r4, r3]
 1600              	.LVL115:
 1601 0222 0133     		adds	r3, r3, #1
 1602              	.LVL116:
 344:../../../../../../Middlewares/Third_Party/LoRaWAN/Crypto/aes.c ****         //*((uint8_t*)d)++ = *((uint8_t*)s)++;
 1603              		.loc 1 344 0
 1604 0224 AB42     		cmp	r3, r5
 1605 0226 FAD1     		bne	.L16
 1606 0228 40E7     		b	.L17
 1607              	.L53:
 1608 022a C046     		.align	2
 1609              	.L52:
 1610 022c 01010100 		.word	65793
 1611 0230 00020000 		.word	sbox
 1612              	.LBE191:
 1613              	.LBE201:
 1614              		.cfi_endproc
 1615              	.LFE7:
 1616              		.size	aes_set_key, .-aes_set_key
 1617              		.section	.text.aes_encrypt,"ax",%progbits
 1618              		.align	1
 1619              		.p2align 2,,3
 1620              		.global	aes_encrypt
ARM GAS  C:\Users\EBANO_~1\AppData\Local\Temp\ccMXEZix.s 			page 45


 1621              		.syntax unified
 1622              		.code	16
 1623              		.thumb_func
 1624              		.fpu softvfp
 1625              		.type	aes_encrypt, %function
 1626              	aes_encrypt:
 1627              	.LFB8:
 569:../../../../../../Middlewares/Third_Party/LoRaWAN/Crypto/aes.c ****     if( ctx->rnd )
 1628              		.loc 1 569 0
 1629              		.cfi_startproc
 1630              		@ args = 0, pretend = 0, frame = 0
 1631              		@ frame_needed = 0, uses_anonymous_args = 0
 1632              	.LVL117:
 570:../../../../../../Middlewares/Third_Party/LoRaWAN/Crypto/aes.c ****     {
 1633              		.loc 1 570 0
 1634 0000 F023     		movs	r3, #240
 569:../../../../../../Middlewares/Third_Party/LoRaWAN/Crypto/aes.c ****     if( ctx->rnd )
 1635              		.loc 1 569 0
 1636 0002 10B5     		push	{r4, lr}
 1637              	.LCFI6:
 1638              		.cfi_def_cfa_offset 8
 1639              		.cfi_offset 4, -8
 1640              		.cfi_offset 14, -4
 570:../../../../../../Middlewares/Third_Party/LoRaWAN/Crypto/aes.c ****     {
 1641              		.loc 1 570 0
 1642 0004 D45C     		ldrb	r4, [r2, r3]
 591:../../../../../../Middlewares/Third_Party/LoRaWAN/Crypto/aes.c ****     return 0;
 1643              		.loc 1 591 0
 1644 0006 0F33     		adds	r3, r3, #15
 570:../../../../../../Middlewares/Third_Party/LoRaWAN/Crypto/aes.c ****     {
 1645              		.loc 1 570 0
 1646 0008 002C     		cmp	r4, #0
 1647 000a 02D0     		beq	.L55
 1648 000c FFF7FEFF 		bl	aes_encrypt.part.0
 1649              	.LVL118:
 1650 0010 0300     		movs	r3, r0
 1651              	.L55:
 1652              		.loc 1 593 0
 1653 0012 1800     		movs	r0, r3
 1654              		@ sp needed
 1655 0014 10BD     		pop	{r4, pc}
 1656              		.cfi_endproc
 1657              	.LFE8:
 1658              		.size	aes_encrypt, .-aes_encrypt
 1659 0016 C046     		.section	.text.aes_cbc_encrypt,"ax",%progbits
 1660              		.align	1
 1661              		.p2align 2,,3
 1662              		.global	aes_cbc_encrypt
 1663              		.syntax unified
 1664              		.code	16
 1665              		.thumb_func
 1666              		.fpu softvfp
 1667              		.type	aes_cbc_encrypt, %function
 1668              	aes_cbc_encrypt:
 1669              	.LFB9:
 594:../../../../../../Middlewares/Third_Party/LoRaWAN/Crypto/aes.c **** 
 595:../../../../../../Middlewares/Third_Party/LoRaWAN/Crypto/aes.c **** /* CBC encrypt a number of blocks (input and return an IV) */
ARM GAS  C:\Users\EBANO_~1\AppData\Local\Temp\ccMXEZix.s 			page 46


 596:../../../../../../Middlewares/Third_Party/LoRaWAN/Crypto/aes.c **** 
 597:../../../../../../Middlewares/Third_Party/LoRaWAN/Crypto/aes.c **** return_type aes_cbc_encrypt( const uint8_t *in, uint8_t *out,
 598:../../../../../../Middlewares/Third_Party/LoRaWAN/Crypto/aes.c ****                          int32_t n_block, uint8_t iv[N_BLOCK], const aes_context ctx[1] )
 599:../../../../../../Middlewares/Third_Party/LoRaWAN/Crypto/aes.c **** {
 1670              		.loc 1 599 0
 1671              		.cfi_startproc
 1672              		@ args = 4, pretend = 0, frame = 0
 1673              		@ frame_needed = 0, uses_anonymous_args = 0
 1674              	.LVL119:
 1675 0000 F8B5     		push	{r3, r4, r5, r6, r7, lr}
 1676              	.LCFI7:
 1677              		.cfi_def_cfa_offset 24
 1678              		.cfi_offset 3, -24
 1679              		.cfi_offset 4, -20
 1680              		.cfi_offset 5, -16
 1681              		.cfi_offset 6, -12
 1682              		.cfi_offset 7, -8
 1683              		.cfi_offset 14, -4
 1684 0002 4746     		mov	r7, r8
 1685 0004 CE46     		mov	lr, r9
 1686 0006 80B5     		push	{r7, lr}
 1687              	.LCFI8:
 1688              		.cfi_def_cfa_offset 32
 1689              		.cfi_offset 8, -32
 1690              		.cfi_offset 9, -28
 1691              		.loc 1 599 0
 1692 0008 1C00     		movs	r4, r3
 1693 000a 089B     		ldr	r3, [sp, #32]
 1694              	.LVL120:
 1695 000c 0500     		movs	r5, r0
 1696 000e 0E00     		movs	r6, r1
 1697              	.LVL121:
 1698 0010 9846     		mov	r8, r3
 600:../../../../../../Middlewares/Third_Party/LoRaWAN/Crypto/aes.c **** 
 601:../../../../../../Middlewares/Third_Party/LoRaWAN/Crypto/aes.c ****     while(n_block--)
 1699              		.loc 1 601 0
 1700 0012 002A     		cmp	r2, #0
 1701 0014 00D1     		bne	.LCB1860
 1702 0016 79E0     		b	.L59	@long jump
 1703              	.LCB1860:
 1704              	.LBB208:
 1705              	.LBB209:
 570:../../../../../../Middlewares/Third_Party/LoRaWAN/Crypto/aes.c ****     {
 1706              		.loc 1 570 0
 1707 0018 F023     		movs	r3, #240
 1708 001a 1700     		movs	r7, r2
 1709 001c 9946     		mov	r9, r3
 1710 001e 2BE0     		b	.L63
 1711              	.LVL122:
 1712              	.L60:
 1713 0020 4246     		mov	r2, r8
 1714 0022 2100     		movs	r1, r4
 1715 0024 2000     		movs	r0, r4
 1716 0026 FFF7FEFF 		bl	aes_encrypt.part.0
 1717              	.LVL123:
 1718              	.LBE209:
 1719              	.LBE208:
ARM GAS  C:\Users\EBANO_~1\AppData\Local\Temp\ccMXEZix.s 			page 47


 602:../../../../../../Middlewares/Third_Party/LoRaWAN/Crypto/aes.c ****     {
 603:../../../../../../Middlewares/Third_Party/LoRaWAN/Crypto/aes.c ****         xor_block(iv, in);
 604:../../../../../../Middlewares/Third_Party/LoRaWAN/Crypto/aes.c ****         if(aes_encrypt(iv, iv, ctx) != EXIT_SUCCESS)
 1720              		.loc 1 604 0
 1721 002a 0028     		cmp	r0, #0
 1722 002c 69D1     		bne	.L62
 1723              	.LVL124:
 1724              	.LBB211:
 1725              	.LBB212:
 323:../../../../../../Middlewares/Third_Party/LoRaWAN/Crypto/aes.c ****     ((uint8_t*)d)[ 1] = ((uint8_t*)s)[ 1];
 1726              		.loc 1 323 0
 1727 002e 2378     		ldrb	r3, [r4]
 1728 0030 013F     		subs	r7, r7, #1
 1729 0032 3370     		strb	r3, [r6]
 324:../../../../../../Middlewares/Third_Party/LoRaWAN/Crypto/aes.c ****     ((uint8_t*)d)[ 2] = ((uint8_t*)s)[ 2];
 1730              		.loc 1 324 0
 1731 0034 6378     		ldrb	r3, [r4, #1]
 1732              	.LBE212:
 1733              	.LBE211:
 605:../../../../../../Middlewares/Third_Party/LoRaWAN/Crypto/aes.c ****             return EXIT_FAILURE;
 606:../../../../../../Middlewares/Third_Party/LoRaWAN/Crypto/aes.c ****         //memcpy(out, iv, N_BLOCK);
 607:../../../../../../Middlewares/Third_Party/LoRaWAN/Crypto/aes.c ****         block_copy(out, iv);
 608:../../../../../../Middlewares/Third_Party/LoRaWAN/Crypto/aes.c ****         in += N_BLOCK;
 1734              		.loc 1 608 0
 1735 0036 1035     		adds	r5, r5, #16
 1736              	.LVL125:
 1737              	.LBB214:
 1738              	.LBB213:
 324:../../../../../../Middlewares/Third_Party/LoRaWAN/Crypto/aes.c ****     ((uint8_t*)d)[ 2] = ((uint8_t*)s)[ 2];
 1739              		.loc 1 324 0
 1740 0038 7370     		strb	r3, [r6, #1]
 325:../../../../../../Middlewares/Third_Party/LoRaWAN/Crypto/aes.c ****     ((uint8_t*)d)[ 3] = ((uint8_t*)s)[ 3];
 1741              		.loc 1 325 0
 1742 003a A378     		ldrb	r3, [r4, #2]
 1743 003c B370     		strb	r3, [r6, #2]
 326:../../../../../../Middlewares/Third_Party/LoRaWAN/Crypto/aes.c ****     ((uint8_t*)d)[ 4] = ((uint8_t*)s)[ 4];
 1744              		.loc 1 326 0
 1745 003e E378     		ldrb	r3, [r4, #3]
 1746 0040 F370     		strb	r3, [r6, #3]
 327:../../../../../../Middlewares/Third_Party/LoRaWAN/Crypto/aes.c ****     ((uint8_t*)d)[ 5] = ((uint8_t*)s)[ 5];
 1747              		.loc 1 327 0
 1748 0042 2379     		ldrb	r3, [r4, #4]
 1749 0044 3371     		strb	r3, [r6, #4]
 328:../../../../../../Middlewares/Third_Party/LoRaWAN/Crypto/aes.c ****     ((uint8_t*)d)[ 6] = ((uint8_t*)s)[ 6];
 1750              		.loc 1 328 0
 1751 0046 6379     		ldrb	r3, [r4, #5]
 1752 0048 7371     		strb	r3, [r6, #5]
 329:../../../../../../Middlewares/Third_Party/LoRaWAN/Crypto/aes.c ****     ((uint8_t*)d)[ 7] = ((uint8_t*)s)[ 7];
 1753              		.loc 1 329 0
 1754 004a A379     		ldrb	r3, [r4, #6]
 1755 004c B371     		strb	r3, [r6, #6]
 330:../../../../../../Middlewares/Third_Party/LoRaWAN/Crypto/aes.c ****     ((uint8_t*)d)[ 8] = ((uint8_t*)s)[ 8];
 1756              		.loc 1 330 0
 1757 004e E379     		ldrb	r3, [r4, #7]
 1758 0050 F371     		strb	r3, [r6, #7]
 331:../../../../../../Middlewares/Third_Party/LoRaWAN/Crypto/aes.c ****     ((uint8_t*)d)[ 9] = ((uint8_t*)s)[ 9];
 1759              		.loc 1 331 0
ARM GAS  C:\Users\EBANO_~1\AppData\Local\Temp\ccMXEZix.s 			page 48


 1760 0052 237A     		ldrb	r3, [r4, #8]
 1761 0054 3372     		strb	r3, [r6, #8]
 332:../../../../../../Middlewares/Third_Party/LoRaWAN/Crypto/aes.c ****     ((uint8_t*)d)[10] = ((uint8_t*)s)[10];
 1762              		.loc 1 332 0
 1763 0056 637A     		ldrb	r3, [r4, #9]
 1764 0058 7372     		strb	r3, [r6, #9]
 333:../../../../../../Middlewares/Third_Party/LoRaWAN/Crypto/aes.c ****     ((uint8_t*)d)[11] = ((uint8_t*)s)[11];
 1765              		.loc 1 333 0
 1766 005a A37A     		ldrb	r3, [r4, #10]
 1767 005c B372     		strb	r3, [r6, #10]
 334:../../../../../../Middlewares/Third_Party/LoRaWAN/Crypto/aes.c ****     ((uint8_t*)d)[12] = ((uint8_t*)s)[12];
 1768              		.loc 1 334 0
 1769 005e E37A     		ldrb	r3, [r4, #11]
 1770 0060 F372     		strb	r3, [r6, #11]
 335:../../../../../../Middlewares/Third_Party/LoRaWAN/Crypto/aes.c ****     ((uint8_t*)d)[13] = ((uint8_t*)s)[13];
 1771              		.loc 1 335 0
 1772 0062 237B     		ldrb	r3, [r4, #12]
 1773 0064 3373     		strb	r3, [r6, #12]
 336:../../../../../../Middlewares/Third_Party/LoRaWAN/Crypto/aes.c ****     ((uint8_t*)d)[14] = ((uint8_t*)s)[14];
 1774              		.loc 1 336 0
 1775 0066 637B     		ldrb	r3, [r4, #13]
 1776 0068 7373     		strb	r3, [r6, #13]
 337:../../../../../../Middlewares/Third_Party/LoRaWAN/Crypto/aes.c ****     ((uint8_t*)d)[15] = ((uint8_t*)s)[15];
 1777              		.loc 1 337 0
 1778 006a A37B     		ldrb	r3, [r4, #14]
 1779 006c B373     		strb	r3, [r6, #14]
 338:../../../../../../Middlewares/Third_Party/LoRaWAN/Crypto/aes.c **** #endif
 1780              		.loc 1 338 0
 1781 006e E37B     		ldrb	r3, [r4, #15]
 1782 0070 F373     		strb	r3, [r6, #15]
 1783              	.LVL126:
 1784              	.LBE213:
 1785              	.LBE214:
 609:../../../../../../Middlewares/Third_Party/LoRaWAN/Crypto/aes.c ****         out += N_BLOCK;
 1786              		.loc 1 609 0
 1787 0072 1036     		adds	r6, r6, #16
 1788              	.LVL127:
 601:../../../../../../Middlewares/Third_Party/LoRaWAN/Crypto/aes.c ****     {
 1789              		.loc 1 601 0
 1790 0074 002F     		cmp	r7, #0
 1791 0076 49D0     		beq	.L59
 1792              	.L63:
 1793              	.LVL128:
 1794              	.LBB215:
 1795              	.LBB216:
 357:../../../../../../Middlewares/Third_Party/LoRaWAN/Crypto/aes.c ****     ((uint8_t*)d)[ 1] ^= ((uint8_t*)s)[ 1];
 1796              		.loc 1 357 0
 1797 0078 2A78     		ldrb	r2, [r5]
 1798 007a 2378     		ldrb	r3, [r4]
 1799 007c 5340     		eors	r3, r2
 1800 007e 2370     		strb	r3, [r4]
 358:../../../../../../Middlewares/Third_Party/LoRaWAN/Crypto/aes.c ****     ((uint8_t*)d)[ 2] ^= ((uint8_t*)s)[ 2];
 1801              		.loc 1 358 0
 1802 0080 6A78     		ldrb	r2, [r5, #1]
 1803 0082 6378     		ldrb	r3, [r4, #1]
 1804 0084 5340     		eors	r3, r2
 1805 0086 6370     		strb	r3, [r4, #1]
ARM GAS  C:\Users\EBANO_~1\AppData\Local\Temp\ccMXEZix.s 			page 49


 359:../../../../../../Middlewares/Third_Party/LoRaWAN/Crypto/aes.c ****     ((uint8_t*)d)[ 3] ^= ((uint8_t*)s)[ 3];
 1806              		.loc 1 359 0
 1807 0088 AA78     		ldrb	r2, [r5, #2]
 1808 008a A378     		ldrb	r3, [r4, #2]
 1809 008c 5340     		eors	r3, r2
 1810 008e A370     		strb	r3, [r4, #2]
 360:../../../../../../Middlewares/Third_Party/LoRaWAN/Crypto/aes.c ****     ((uint8_t*)d)[ 4] ^= ((uint8_t*)s)[ 4];
 1811              		.loc 1 360 0
 1812 0090 EA78     		ldrb	r2, [r5, #3]
 1813 0092 E378     		ldrb	r3, [r4, #3]
 1814 0094 5340     		eors	r3, r2
 1815 0096 E370     		strb	r3, [r4, #3]
 361:../../../../../../Middlewares/Third_Party/LoRaWAN/Crypto/aes.c ****     ((uint8_t*)d)[ 5] ^= ((uint8_t*)s)[ 5];
 1816              		.loc 1 361 0
 1817 0098 2A79     		ldrb	r2, [r5, #4]
 1818 009a 2379     		ldrb	r3, [r4, #4]
 1819 009c 5340     		eors	r3, r2
 1820 009e 2371     		strb	r3, [r4, #4]
 362:../../../../../../Middlewares/Third_Party/LoRaWAN/Crypto/aes.c ****     ((uint8_t*)d)[ 6] ^= ((uint8_t*)s)[ 6];
 1821              		.loc 1 362 0
 1822 00a0 6A79     		ldrb	r2, [r5, #5]
 1823 00a2 6379     		ldrb	r3, [r4, #5]
 1824 00a4 5340     		eors	r3, r2
 1825 00a6 6371     		strb	r3, [r4, #5]
 363:../../../../../../Middlewares/Third_Party/LoRaWAN/Crypto/aes.c ****     ((uint8_t*)d)[ 7] ^= ((uint8_t*)s)[ 7];
 1826              		.loc 1 363 0
 1827 00a8 AA79     		ldrb	r2, [r5, #6]
 1828 00aa A379     		ldrb	r3, [r4, #6]
 1829 00ac 5340     		eors	r3, r2
 1830 00ae A371     		strb	r3, [r4, #6]
 364:../../../../../../Middlewares/Third_Party/LoRaWAN/Crypto/aes.c ****     ((uint8_t*)d)[ 8] ^= ((uint8_t*)s)[ 8];
 1831              		.loc 1 364 0
 1832 00b0 EA79     		ldrb	r2, [r5, #7]
 1833 00b2 E379     		ldrb	r3, [r4, #7]
 1834 00b4 5340     		eors	r3, r2
 1835 00b6 E371     		strb	r3, [r4, #7]
 365:../../../../../../Middlewares/Third_Party/LoRaWAN/Crypto/aes.c ****     ((uint8_t*)d)[ 9] ^= ((uint8_t*)s)[ 9];
 1836              		.loc 1 365 0
 1837 00b8 2A7A     		ldrb	r2, [r5, #8]
 1838 00ba 237A     		ldrb	r3, [r4, #8]
 1839 00bc 5340     		eors	r3, r2
 1840 00be 2372     		strb	r3, [r4, #8]
 366:../../../../../../Middlewares/Third_Party/LoRaWAN/Crypto/aes.c ****     ((uint8_t*)d)[10] ^= ((uint8_t*)s)[10];
 1841              		.loc 1 366 0
 1842 00c0 6A7A     		ldrb	r2, [r5, #9]
 1843 00c2 637A     		ldrb	r3, [r4, #9]
 1844 00c4 5340     		eors	r3, r2
 1845 00c6 6372     		strb	r3, [r4, #9]
 367:../../../../../../Middlewares/Third_Party/LoRaWAN/Crypto/aes.c ****     ((uint8_t*)d)[11] ^= ((uint8_t*)s)[11];
 1846              		.loc 1 367 0
 1847 00c8 AA7A     		ldrb	r2, [r5, #10]
 1848 00ca A37A     		ldrb	r3, [r4, #10]
 1849 00cc 5340     		eors	r3, r2
 1850 00ce A372     		strb	r3, [r4, #10]
 368:../../../../../../Middlewares/Third_Party/LoRaWAN/Crypto/aes.c ****     ((uint8_t*)d)[12] ^= ((uint8_t*)s)[12];
 1851              		.loc 1 368 0
 1852 00d0 EA7A     		ldrb	r2, [r5, #11]
ARM GAS  C:\Users\EBANO_~1\AppData\Local\Temp\ccMXEZix.s 			page 50


 1853 00d2 E37A     		ldrb	r3, [r4, #11]
 1854 00d4 5340     		eors	r3, r2
 1855 00d6 E372     		strb	r3, [r4, #11]
 369:../../../../../../Middlewares/Third_Party/LoRaWAN/Crypto/aes.c ****     ((uint8_t*)d)[13] ^= ((uint8_t*)s)[13];
 1856              		.loc 1 369 0
 1857 00d8 2A7B     		ldrb	r2, [r5, #12]
 1858 00da 237B     		ldrb	r3, [r4, #12]
 1859 00dc 5340     		eors	r3, r2
 1860 00de 2373     		strb	r3, [r4, #12]
 370:../../../../../../Middlewares/Third_Party/LoRaWAN/Crypto/aes.c ****     ((uint8_t*)d)[14] ^= ((uint8_t*)s)[14];
 1861              		.loc 1 370 0
 1862 00e0 6A7B     		ldrb	r2, [r5, #13]
 1863 00e2 637B     		ldrb	r3, [r4, #13]
 1864 00e4 5340     		eors	r3, r2
 1865 00e6 6373     		strb	r3, [r4, #13]
 371:../../../../../../Middlewares/Third_Party/LoRaWAN/Crypto/aes.c ****     ((uint8_t*)d)[15] ^= ((uint8_t*)s)[15];
 1866              		.loc 1 371 0
 1867 00e8 AA7B     		ldrb	r2, [r5, #14]
 1868 00ea A37B     		ldrb	r3, [r4, #14]
 1869 00ec 5340     		eors	r3, r2
 1870 00ee A373     		strb	r3, [r4, #14]
 372:../../../../../../Middlewares/Third_Party/LoRaWAN/Crypto/aes.c **** #endif
 1871              		.loc 1 372 0
 1872 00f0 EA7B     		ldrb	r2, [r5, #15]
 1873 00f2 E37B     		ldrb	r3, [r4, #15]
 1874 00f4 5340     		eors	r3, r2
 1875 00f6 E373     		strb	r3, [r4, #15]
 1876              	.LVL129:
 1877              	.LBE216:
 1878              	.LBE215:
 1879              	.LBB217:
 1880              	.LBB210:
 570:../../../../../../Middlewares/Third_Party/LoRaWAN/Crypto/aes.c ****     {
 1881              		.loc 1 570 0
 1882 00f8 4A46     		mov	r2, r9
 1883 00fa 4346     		mov	r3, r8
 1884 00fc 9B5C     		ldrb	r3, [r3, r2]
 1885 00fe 002B     		cmp	r3, #0
 1886 0100 8ED1     		bne	.L60
 1887              	.LVL130:
 1888              	.L62:
 1889              	.LBE210:
 1890              	.LBE217:
 605:../../../../../../Middlewares/Third_Party/LoRaWAN/Crypto/aes.c ****         //memcpy(out, iv, N_BLOCK);
 1891              		.loc 1 605 0
 1892 0102 0120     		movs	r0, #1
 1893              	.L61:
 610:../../../../../../Middlewares/Third_Party/LoRaWAN/Crypto/aes.c ****     }
 611:../../../../../../Middlewares/Third_Party/LoRaWAN/Crypto/aes.c ****     return EXIT_SUCCESS;
 612:../../../../../../Middlewares/Third_Party/LoRaWAN/Crypto/aes.c **** }
 1894              		.loc 1 612 0
 1895              		@ sp needed
 1896              	.LVL131:
 1897              	.LVL132:
 1898              	.LVL133:
 1899 0104 0CBC     		pop	{r2, r3}
 1900 0106 9046     		mov	r8, r2
ARM GAS  C:\Users\EBANO_~1\AppData\Local\Temp\ccMXEZix.s 			page 51


 1901 0108 9946     		mov	r9, r3
 1902 010a F8BD     		pop	{r3, r4, r5, r6, r7, pc}
 1903              	.LVL134:
 1904              	.L59:
 611:../../../../../../Middlewares/Third_Party/LoRaWAN/Crypto/aes.c **** }
 1905              		.loc 1 611 0
 1906 010c 0020     		movs	r0, #0
 1907 010e F9E7     		b	.L61
 1908              		.cfi_endproc
 1909              	.LFE9:
 1910              		.size	aes_cbc_encrypt, .-aes_cbc_encrypt
 1911              		.section	.rodata
 1912              		.align	2
 1913              		.type	gfm3_sbox, %object
 1914              		.size	gfm3_sbox, 256
 1915              	gfm3_sbox:
 1916 0000 A5       		.byte	-91
 1917 0001 84       		.byte	-124
 1918 0002 99       		.byte	-103
 1919 0003 8D       		.byte	-115
 1920 0004 0D       		.byte	13
 1921 0005 BD       		.byte	-67
 1922 0006 B1       		.byte	-79
 1923 0007 54       		.byte	84
 1924 0008 50       		.byte	80
 1925 0009 03       		.byte	3
 1926 000a A9       		.byte	-87
 1927 000b 7D       		.byte	125
 1928 000c 19       		.byte	25
 1929 000d 62       		.byte	98
 1930 000e E6       		.byte	-26
 1931 000f 9A       		.byte	-102
 1932 0010 45       		.byte	69
 1933 0011 9D       		.byte	-99
 1934 0012 40       		.byte	64
 1935 0013 87       		.byte	-121
 1936 0014 15       		.byte	21
 1937 0015 EB       		.byte	-21
 1938 0016 C9       		.byte	-55
 1939 0017 0B       		.byte	11
 1940 0018 EC       		.byte	-20
 1941 0019 67       		.byte	103
 1942 001a FD       		.byte	-3
 1943 001b EA       		.byte	-22
 1944 001c BF       		.byte	-65
 1945 001d F7       		.byte	-9
 1946 001e 96       		.byte	-106
 1947 001f 5B       		.byte	91
 1948 0020 C2       		.byte	-62
 1949 0021 1C       		.byte	28
 1950 0022 AE       		.byte	-82
 1951 0023 6A       		.byte	106
 1952 0024 5A       		.byte	90
 1953 0025 41       		.byte	65
 1954 0026 02       		.byte	2
 1955 0027 4F       		.byte	79
 1956 0028 5C       		.byte	92
ARM GAS  C:\Users\EBANO_~1\AppData\Local\Temp\ccMXEZix.s 			page 52


 1957 0029 F4       		.byte	-12
 1958 002a 34       		.byte	52
 1959 002b 08       		.byte	8
 1960 002c 93       		.byte	-109
 1961 002d 73       		.byte	115
 1962 002e 53       		.byte	83
 1963 002f 3F       		.byte	63
 1964 0030 0C       		.byte	12
 1965 0031 52       		.byte	82
 1966 0032 65       		.byte	101
 1967 0033 5E       		.byte	94
 1968 0034 28       		.byte	40
 1969 0035 A1       		.byte	-95
 1970 0036 0F       		.byte	15
 1971 0037 B5       		.byte	-75
 1972 0038 09       		.byte	9
 1973 0039 36       		.byte	54
 1974 003a 9B       		.byte	-101
 1975 003b 3D       		.byte	61
 1976 003c 26       		.byte	38
 1977 003d 69       		.byte	105
 1978 003e CD       		.byte	-51
 1979 003f 9F       		.byte	-97
 1980 0040 1B       		.byte	27
 1981 0041 9E       		.byte	-98
 1982 0042 74       		.byte	116
 1983 0043 2E       		.byte	46
 1984 0044 2D       		.byte	45
 1985 0045 B2       		.byte	-78
 1986 0046 EE       		.byte	-18
 1987 0047 FB       		.byte	-5
 1988 0048 F6       		.byte	-10
 1989 0049 4D       		.byte	77
 1990 004a 61       		.byte	97
 1991 004b CE       		.byte	-50
 1992 004c 7B       		.byte	123
 1993 004d 3E       		.byte	62
 1994 004e 71       		.byte	113
 1995 004f 97       		.byte	-105
 1996 0050 F5       		.byte	-11
 1997 0051 68       		.byte	104
 1998 0052 00       		.byte	0
 1999 0053 2C       		.byte	44
 2000 0054 60       		.byte	96
 2001 0055 1F       		.byte	31
 2002 0056 C8       		.byte	-56
 2003 0057 ED       		.byte	-19
 2004 0058 BE       		.byte	-66
 2005 0059 46       		.byte	70
 2006 005a D9       		.byte	-39
 2007 005b 4B       		.byte	75
 2008 005c DE       		.byte	-34
 2009 005d D4       		.byte	-44
 2010 005e E8       		.byte	-24
 2011 005f 4A       		.byte	74
 2012 0060 6B       		.byte	107
 2013 0061 2A       		.byte	42
ARM GAS  C:\Users\EBANO_~1\AppData\Local\Temp\ccMXEZix.s 			page 53


 2014 0062 E5       		.byte	-27
 2015 0063 16       		.byte	22
 2016 0064 C5       		.byte	-59
 2017 0065 D7       		.byte	-41
 2018 0066 55       		.byte	85
 2019 0067 94       		.byte	-108
 2020 0068 CF       		.byte	-49
 2021 0069 10       		.byte	16
 2022 006a 06       		.byte	6
 2023 006b 81       		.byte	-127
 2024 006c F0       		.byte	-16
 2025 006d 44       		.byte	68
 2026 006e BA       		.byte	-70
 2027 006f E3       		.byte	-29
 2028 0070 F3       		.byte	-13
 2029 0071 FE       		.byte	-2
 2030 0072 C0       		.byte	-64
 2031 0073 8A       		.byte	-118
 2032 0074 AD       		.byte	-83
 2033 0075 BC       		.byte	-68
 2034 0076 48       		.byte	72
 2035 0077 04       		.byte	4
 2036 0078 DF       		.byte	-33
 2037 0079 C1       		.byte	-63
 2038 007a 75       		.byte	117
 2039 007b 63       		.byte	99
 2040 007c 30       		.byte	48
 2041 007d 1A       		.byte	26
 2042 007e 0E       		.byte	14
 2043 007f 6D       		.byte	109
 2044 0080 4C       		.byte	76
 2045 0081 14       		.byte	20
 2046 0082 35       		.byte	53
 2047 0083 2F       		.byte	47
 2048 0084 E1       		.byte	-31
 2049 0085 A2       		.byte	-94
 2050 0086 CC       		.byte	-52
 2051 0087 39       		.byte	57
 2052 0088 57       		.byte	87
 2053 0089 F2       		.byte	-14
 2054 008a 82       		.byte	-126
 2055 008b 47       		.byte	71
 2056 008c AC       		.byte	-84
 2057 008d E7       		.byte	-25
 2058 008e 2B       		.byte	43
 2059 008f 95       		.byte	-107
 2060 0090 A0       		.byte	-96
 2061 0091 98       		.byte	-104
 2062 0092 D1       		.byte	-47
 2063 0093 7F       		.byte	127
 2064 0094 66       		.byte	102
 2065 0095 7E       		.byte	126
 2066 0096 AB       		.byte	-85
 2067 0097 83       		.byte	-125
 2068 0098 CA       		.byte	-54
 2069 0099 29       		.byte	41
 2070 009a D3       		.byte	-45
ARM GAS  C:\Users\EBANO_~1\AppData\Local\Temp\ccMXEZix.s 			page 54


 2071 009b 3C       		.byte	60
 2072 009c 79       		.byte	121
 2073 009d E2       		.byte	-30
 2074 009e 1D       		.byte	29
 2075 009f 76       		.byte	118
 2076 00a0 3B       		.byte	59
 2077 00a1 56       		.byte	86
 2078 00a2 4E       		.byte	78
 2079 00a3 1E       		.byte	30
 2080 00a4 DB       		.byte	-37
 2081 00a5 0A       		.byte	10
 2082 00a6 6C       		.byte	108
 2083 00a7 E4       		.byte	-28
 2084 00a8 5D       		.byte	93
 2085 00a9 6E       		.byte	110
 2086 00aa EF       		.byte	-17
 2087 00ab A6       		.byte	-90
 2088 00ac A8       		.byte	-88
 2089 00ad A4       		.byte	-92
 2090 00ae 37       		.byte	55
 2091 00af 8B       		.byte	-117
 2092 00b0 32       		.byte	50
 2093 00b1 43       		.byte	67
 2094 00b2 59       		.byte	89
 2095 00b3 B7       		.byte	-73
 2096 00b4 8C       		.byte	-116
 2097 00b5 64       		.byte	100
 2098 00b6 D2       		.byte	-46
 2099 00b7 E0       		.byte	-32
 2100 00b8 B4       		.byte	-76
 2101 00b9 FA       		.byte	-6
 2102 00ba 07       		.byte	7
 2103 00bb 25       		.byte	37
 2104 00bc AF       		.byte	-81
 2105 00bd 8E       		.byte	-114
 2106 00be E9       		.byte	-23
 2107 00bf 18       		.byte	24
 2108 00c0 D5       		.byte	-43
 2109 00c1 88       		.byte	-120
 2110 00c2 6F       		.byte	111
 2111 00c3 72       		.byte	114
 2112 00c4 24       		.byte	36
 2113 00c5 F1       		.byte	-15
 2114 00c6 C7       		.byte	-57
 2115 00c7 51       		.byte	81
 2116 00c8 23       		.byte	35
 2117 00c9 7C       		.byte	124
 2118 00ca 9C       		.byte	-100
 2119 00cb 21       		.byte	33
 2120 00cc DD       		.byte	-35
 2121 00cd DC       		.byte	-36
 2122 00ce 86       		.byte	-122
 2123 00cf 85       		.byte	-123
 2124 00d0 90       		.byte	-112
 2125 00d1 42       		.byte	66
 2126 00d2 C4       		.byte	-60
 2127 00d3 AA       		.byte	-86
ARM GAS  C:\Users\EBANO_~1\AppData\Local\Temp\ccMXEZix.s 			page 55


 2128 00d4 D8       		.byte	-40
 2129 00d5 05       		.byte	5
 2130 00d6 01       		.byte	1
 2131 00d7 12       		.byte	18
 2132 00d8 A3       		.byte	-93
 2133 00d9 5F       		.byte	95
 2134 00da F9       		.byte	-7
 2135 00db D0       		.byte	-48
 2136 00dc 91       		.byte	-111
 2137 00dd 58       		.byte	88
 2138 00de 27       		.byte	39
 2139 00df B9       		.byte	-71
 2140 00e0 38       		.byte	56
 2141 00e1 13       		.byte	19
 2142 00e2 B3       		.byte	-77
 2143 00e3 33       		.byte	51
 2144 00e4 BB       		.byte	-69
 2145 00e5 70       		.byte	112
 2146 00e6 89       		.byte	-119
 2147 00e7 A7       		.byte	-89
 2148 00e8 B6       		.byte	-74
 2149 00e9 22       		.byte	34
 2150 00ea 92       		.byte	-110
 2151 00eb 20       		.byte	32
 2152 00ec 49       		.byte	73
 2153 00ed FF       		.byte	-1
 2154 00ee 78       		.byte	120
 2155 00ef 7A       		.byte	122
 2156 00f0 8F       		.byte	-113
 2157 00f1 F8       		.byte	-8
 2158 00f2 80       		.byte	-128
 2159 00f3 17       		.byte	23
 2160 00f4 DA       		.byte	-38
 2161 00f5 31       		.byte	49
 2162 00f6 C6       		.byte	-58
 2163 00f7 B8       		.byte	-72
 2164 00f8 C3       		.byte	-61
 2165 00f9 B0       		.byte	-80
 2166 00fa 77       		.byte	119
 2167 00fb 11       		.byte	17
 2168 00fc CB       		.byte	-53
 2169 00fd FC       		.byte	-4
 2170 00fe D6       		.byte	-42
 2171 00ff 3A       		.byte	58
 2172              		.type	gfm2_sbox, %object
 2173              		.size	gfm2_sbox, 256
 2174              	gfm2_sbox:
 2175 0100 C6       		.byte	-58
 2176 0101 F8       		.byte	-8
 2177 0102 EE       		.byte	-18
 2178 0103 F6       		.byte	-10
 2179 0104 FF       		.byte	-1
 2180 0105 D6       		.byte	-42
 2181 0106 DE       		.byte	-34
 2182 0107 91       		.byte	-111
 2183 0108 60       		.byte	96
 2184 0109 02       		.byte	2
ARM GAS  C:\Users\EBANO_~1\AppData\Local\Temp\ccMXEZix.s 			page 56


 2185 010a CE       		.byte	-50
 2186 010b 56       		.byte	86
 2187 010c E7       		.byte	-25
 2188 010d B5       		.byte	-75
 2189 010e 4D       		.byte	77
 2190 010f EC       		.byte	-20
 2191 0110 8F       		.byte	-113
 2192 0111 1F       		.byte	31
 2193 0112 89       		.byte	-119
 2194 0113 FA       		.byte	-6
 2195 0114 EF       		.byte	-17
 2196 0115 B2       		.byte	-78
 2197 0116 8E       		.byte	-114
 2198 0117 FB       		.byte	-5
 2199 0118 41       		.byte	65
 2200 0119 B3       		.byte	-77
 2201 011a 5F       		.byte	95
 2202 011b 45       		.byte	69
 2203 011c 23       		.byte	35
 2204 011d 53       		.byte	83
 2205 011e E4       		.byte	-28
 2206 011f 9B       		.byte	-101
 2207 0120 75       		.byte	117
 2208 0121 E1       		.byte	-31
 2209 0122 3D       		.byte	61
 2210 0123 4C       		.byte	76
 2211 0124 6C       		.byte	108
 2212 0125 7E       		.byte	126
 2213 0126 F5       		.byte	-11
 2214 0127 83       		.byte	-125
 2215 0128 68       		.byte	104
 2216 0129 51       		.byte	81
 2217 012a D1       		.byte	-47
 2218 012b F9       		.byte	-7
 2219 012c E2       		.byte	-30
 2220 012d AB       		.byte	-85
 2221 012e 62       		.byte	98
 2222 012f 2A       		.byte	42
 2223 0130 08       		.byte	8
 2224 0131 95       		.byte	-107
 2225 0132 46       		.byte	70
 2226 0133 9D       		.byte	-99
 2227 0134 30       		.byte	48
 2228 0135 37       		.byte	55
 2229 0136 0A       		.byte	10
 2230 0137 2F       		.byte	47
 2231 0138 0E       		.byte	14
 2232 0139 24       		.byte	36
 2233 013a 1B       		.byte	27
 2234 013b DF       		.byte	-33
 2235 013c CD       		.byte	-51
 2236 013d 4E       		.byte	78
 2237 013e 7F       		.byte	127
 2238 013f EA       		.byte	-22
 2239 0140 12       		.byte	18
 2240 0141 1D       		.byte	29
 2241 0142 58       		.byte	88
ARM GAS  C:\Users\EBANO_~1\AppData\Local\Temp\ccMXEZix.s 			page 57


 2242 0143 34       		.byte	52
 2243 0144 36       		.byte	54
 2244 0145 DC       		.byte	-36
 2245 0146 B4       		.byte	-76
 2246 0147 5B       		.byte	91
 2247 0148 A4       		.byte	-92
 2248 0149 76       		.byte	118
 2249 014a B7       		.byte	-73
 2250 014b 7D       		.byte	125
 2251 014c 52       		.byte	82
 2252 014d DD       		.byte	-35
 2253 014e 5E       		.byte	94
 2254 014f 13       		.byte	19
 2255 0150 A6       		.byte	-90
 2256 0151 B9       		.byte	-71
 2257 0152 00       		.byte	0
 2258 0153 C1       		.byte	-63
 2259 0154 40       		.byte	64
 2260 0155 E3       		.byte	-29
 2261 0156 79       		.byte	121
 2262 0157 B6       		.byte	-74
 2263 0158 D4       		.byte	-44
 2264 0159 8D       		.byte	-115
 2265 015a 67       		.byte	103
 2266 015b 72       		.byte	114
 2267 015c 94       		.byte	-108
 2268 015d 98       		.byte	-104
 2269 015e B0       		.byte	-80
 2270 015f 85       		.byte	-123
 2271 0160 BB       		.byte	-69
 2272 0161 C5       		.byte	-59
 2273 0162 4F       		.byte	79
 2274 0163 ED       		.byte	-19
 2275 0164 86       		.byte	-122
 2276 0165 9A       		.byte	-102
 2277 0166 66       		.byte	102
 2278 0167 11       		.byte	17
 2279 0168 8A       		.byte	-118
 2280 0169 E9       		.byte	-23
 2281 016a 04       		.byte	4
 2282 016b FE       		.byte	-2
 2283 016c A0       		.byte	-96
 2284 016d 78       		.byte	120
 2285 016e 25       		.byte	37
 2286 016f 4B       		.byte	75
 2287 0170 A2       		.byte	-94
 2288 0171 5D       		.byte	93
 2289 0172 80       		.byte	-128
 2290 0173 05       		.byte	5
 2291 0174 3F       		.byte	63
 2292 0175 21       		.byte	33
 2293 0176 70       		.byte	112
 2294 0177 F1       		.byte	-15
 2295 0178 63       		.byte	99
 2296 0179 77       		.byte	119
 2297 017a AF       		.byte	-81
 2298 017b 42       		.byte	66
ARM GAS  C:\Users\EBANO_~1\AppData\Local\Temp\ccMXEZix.s 			page 58


 2299 017c 20       		.byte	32
 2300 017d E5       		.byte	-27
 2301 017e FD       		.byte	-3
 2302 017f BF       		.byte	-65
 2303 0180 81       		.byte	-127
 2304 0181 18       		.byte	24
 2305 0182 26       		.byte	38
 2306 0183 C3       		.byte	-61
 2307 0184 BE       		.byte	-66
 2308 0185 35       		.byte	53
 2309 0186 88       		.byte	-120
 2310 0187 2E       		.byte	46
 2311 0188 93       		.byte	-109
 2312 0189 55       		.byte	85
 2313 018a FC       		.byte	-4
 2314 018b 7A       		.byte	122
 2315 018c C8       		.byte	-56
 2316 018d BA       		.byte	-70
 2317 018e 32       		.byte	50
 2318 018f E6       		.byte	-26
 2319 0190 C0       		.byte	-64
 2320 0191 19       		.byte	25
 2321 0192 9E       		.byte	-98
 2322 0193 A3       		.byte	-93
 2323 0194 44       		.byte	68
 2324 0195 54       		.byte	84
 2325 0196 3B       		.byte	59
 2326 0197 0B       		.byte	11
 2327 0198 8C       		.byte	-116
 2328 0199 C7       		.byte	-57
 2329 019a 6B       		.byte	107
 2330 019b 28       		.byte	40
 2331 019c A7       		.byte	-89
 2332 019d BC       		.byte	-68
 2333 019e 16       		.byte	22
 2334 019f AD       		.byte	-83
 2335 01a0 DB       		.byte	-37
 2336 01a1 64       		.byte	100
 2337 01a2 74       		.byte	116
 2338 01a3 14       		.byte	20
 2339 01a4 92       		.byte	-110
 2340 01a5 0C       		.byte	12
 2341 01a6 48       		.byte	72
 2342 01a7 B8       		.byte	-72
 2343 01a8 9F       		.byte	-97
 2344 01a9 BD       		.byte	-67
 2345 01aa 43       		.byte	67
 2346 01ab C4       		.byte	-60
 2347 01ac 39       		.byte	57
 2348 01ad 31       		.byte	49
 2349 01ae D3       		.byte	-45
 2350 01af F2       		.byte	-14
 2351 01b0 D5       		.byte	-43
 2352 01b1 8B       		.byte	-117
 2353 01b2 6E       		.byte	110
 2354 01b3 DA       		.byte	-38
 2355 01b4 01       		.byte	1
ARM GAS  C:\Users\EBANO_~1\AppData\Local\Temp\ccMXEZix.s 			page 59


 2356 01b5 B1       		.byte	-79
 2357 01b6 9C       		.byte	-100
 2358 01b7 49       		.byte	73
 2359 01b8 D8       		.byte	-40
 2360 01b9 AC       		.byte	-84
 2361 01ba F3       		.byte	-13
 2362 01bb CF       		.byte	-49
 2363 01bc CA       		.byte	-54
 2364 01bd F4       		.byte	-12
 2365 01be 47       		.byte	71
 2366 01bf 10       		.byte	16
 2367 01c0 6F       		.byte	111
 2368 01c1 F0       		.byte	-16
 2369 01c2 4A       		.byte	74
 2370 01c3 5C       		.byte	92
 2371 01c4 38       		.byte	56
 2372 01c5 57       		.byte	87
 2373 01c6 73       		.byte	115
 2374 01c7 97       		.byte	-105
 2375 01c8 CB       		.byte	-53
 2376 01c9 A1       		.byte	-95
 2377 01ca E8       		.byte	-24
 2378 01cb 3E       		.byte	62
 2379 01cc 96       		.byte	-106
 2380 01cd 61       		.byte	97
 2381 01ce 0D       		.byte	13
 2382 01cf 0F       		.byte	15
 2383 01d0 E0       		.byte	-32
 2384 01d1 7C       		.byte	124
 2385 01d2 71       		.byte	113
 2386 01d3 CC       		.byte	-52
 2387 01d4 90       		.byte	-112
 2388 01d5 06       		.byte	6
 2389 01d6 F7       		.byte	-9
 2390 01d7 1C       		.byte	28
 2391 01d8 C2       		.byte	-62
 2392 01d9 6A       		.byte	106
 2393 01da AE       		.byte	-82
 2394 01db 69       		.byte	105
 2395 01dc 17       		.byte	23
 2396 01dd 99       		.byte	-103
 2397 01de 3A       		.byte	58
 2398 01df 27       		.byte	39
 2399 01e0 D9       		.byte	-39
 2400 01e1 EB       		.byte	-21
 2401 01e2 2B       		.byte	43
 2402 01e3 22       		.byte	34
 2403 01e4 D2       		.byte	-46
 2404 01e5 A9       		.byte	-87
 2405 01e6 07       		.byte	7
 2406 01e7 33       		.byte	51
 2407 01e8 2D       		.byte	45
 2408 01e9 3C       		.byte	60
 2409 01ea 15       		.byte	21
 2410 01eb C9       		.byte	-55
 2411 01ec 87       		.byte	-121
 2412 01ed AA       		.byte	-86
ARM GAS  C:\Users\EBANO_~1\AppData\Local\Temp\ccMXEZix.s 			page 60


 2413 01ee 50       		.byte	80
 2414 01ef A5       		.byte	-91
 2415 01f0 03       		.byte	3
 2416 01f1 59       		.byte	89
 2417 01f2 09       		.byte	9
 2418 01f3 1A       		.byte	26
 2419 01f4 65       		.byte	101
 2420 01f5 D7       		.byte	-41
 2421 01f6 84       		.byte	-124
 2422 01f7 D0       		.byte	-48
 2423 01f8 82       		.byte	-126
 2424 01f9 29       		.byte	41
 2425 01fa 5A       		.byte	90
 2426 01fb 1E       		.byte	30
 2427 01fc 7B       		.byte	123
 2428 01fd A8       		.byte	-88
 2429 01fe 6D       		.byte	109
 2430 01ff 2C       		.byte	44
 2431              		.type	sbox, %object
 2432              		.size	sbox, 256
 2433              	sbox:
 2434 0200 63       		.byte	99
 2435 0201 7C       		.byte	124
 2436 0202 77       		.byte	119
 2437 0203 7B       		.byte	123
 2438 0204 F2       		.byte	-14
 2439 0205 6B       		.byte	107
 2440 0206 6F       		.byte	111
 2441 0207 C5       		.byte	-59
 2442 0208 30       		.byte	48
 2443 0209 01       		.byte	1
 2444 020a 67       		.byte	103
 2445 020b 2B       		.byte	43
 2446 020c FE       		.byte	-2
 2447 020d D7       		.byte	-41
 2448 020e AB       		.byte	-85
 2449 020f 76       		.byte	118
 2450 0210 CA       		.byte	-54
 2451 0211 82       		.byte	-126
 2452 0212 C9       		.byte	-55
 2453 0213 7D       		.byte	125
 2454 0214 FA       		.byte	-6
 2455 0215 59       		.byte	89
 2456 0216 47       		.byte	71
 2457 0217 F0       		.byte	-16
 2458 0218 AD       		.byte	-83
 2459 0219 D4       		.byte	-44
 2460 021a A2       		.byte	-94
 2461 021b AF       		.byte	-81
 2462 021c 9C       		.byte	-100
 2463 021d A4       		.byte	-92
 2464 021e 72       		.byte	114
 2465 021f C0       		.byte	-64
 2466 0220 B7       		.byte	-73
 2467 0221 FD       		.byte	-3
 2468 0222 93       		.byte	-109
 2469 0223 26       		.byte	38
ARM GAS  C:\Users\EBANO_~1\AppData\Local\Temp\ccMXEZix.s 			page 61


 2470 0224 36       		.byte	54
 2471 0225 3F       		.byte	63
 2472 0226 F7       		.byte	-9
 2473 0227 CC       		.byte	-52
 2474 0228 34       		.byte	52
 2475 0229 A5       		.byte	-91
 2476 022a E5       		.byte	-27
 2477 022b F1       		.byte	-15
 2478 022c 71       		.byte	113
 2479 022d D8       		.byte	-40
 2480 022e 31       		.byte	49
 2481 022f 15       		.byte	21
 2482 0230 04       		.byte	4
 2483 0231 C7       		.byte	-57
 2484 0232 23       		.byte	35
 2485 0233 C3       		.byte	-61
 2486 0234 18       		.byte	24
 2487 0235 96       		.byte	-106
 2488 0236 05       		.byte	5
 2489 0237 9A       		.byte	-102
 2490 0238 07       		.byte	7
 2491 0239 12       		.byte	18
 2492 023a 80       		.byte	-128
 2493 023b E2       		.byte	-30
 2494 023c EB       		.byte	-21
 2495 023d 27       		.byte	39
 2496 023e B2       		.byte	-78
 2497 023f 75       		.byte	117
 2498 0240 09       		.byte	9
 2499 0241 83       		.byte	-125
 2500 0242 2C       		.byte	44
 2501 0243 1A       		.byte	26
 2502 0244 1B       		.byte	27
 2503 0245 6E       		.byte	110
 2504 0246 5A       		.byte	90
 2505 0247 A0       		.byte	-96
 2506 0248 52       		.byte	82
 2507 0249 3B       		.byte	59
 2508 024a D6       		.byte	-42
 2509 024b B3       		.byte	-77
 2510 024c 29       		.byte	41
 2511 024d E3       		.byte	-29
 2512 024e 2F       		.byte	47
 2513 024f 84       		.byte	-124
 2514 0250 53       		.byte	83
 2515 0251 D1       		.byte	-47
 2516 0252 00       		.byte	0
 2517 0253 ED       		.byte	-19
 2518 0254 20       		.byte	32
 2519 0255 FC       		.byte	-4
 2520 0256 B1       		.byte	-79
 2521 0257 5B       		.byte	91
 2522 0258 6A       		.byte	106
 2523 0259 CB       		.byte	-53
 2524 025a BE       		.byte	-66
 2525 025b 39       		.byte	57
 2526 025c 4A       		.byte	74
ARM GAS  C:\Users\EBANO_~1\AppData\Local\Temp\ccMXEZix.s 			page 62


 2527 025d 4C       		.byte	76
 2528 025e 58       		.byte	88
 2529 025f CF       		.byte	-49
 2530 0260 D0       		.byte	-48
 2531 0261 EF       		.byte	-17
 2532 0262 AA       		.byte	-86
 2533 0263 FB       		.byte	-5
 2534 0264 43       		.byte	67
 2535 0265 4D       		.byte	77
 2536 0266 33       		.byte	51
 2537 0267 85       		.byte	-123
 2538 0268 45       		.byte	69
 2539 0269 F9       		.byte	-7
 2540 026a 02       		.byte	2
 2541 026b 7F       		.byte	127
 2542 026c 50       		.byte	80
 2543 026d 3C       		.byte	60
 2544 026e 9F       		.byte	-97
 2545 026f A8       		.byte	-88
 2546 0270 51       		.byte	81
 2547 0271 A3       		.byte	-93
 2548 0272 40       		.byte	64
 2549 0273 8F       		.byte	-113
 2550 0274 92       		.byte	-110
 2551 0275 9D       		.byte	-99
 2552 0276 38       		.byte	56
 2553 0277 F5       		.byte	-11
 2554 0278 BC       		.byte	-68
 2555 0279 B6       		.byte	-74
 2556 027a DA       		.byte	-38
 2557 027b 21       		.byte	33
 2558 027c 10       		.byte	16
 2559 027d FF       		.byte	-1
 2560 027e F3       		.byte	-13
 2561 027f D2       		.byte	-46
 2562 0280 CD       		.byte	-51
 2563 0281 0C       		.byte	12
 2564 0282 13       		.byte	19
 2565 0283 EC       		.byte	-20
 2566 0284 5F       		.byte	95
 2567 0285 97       		.byte	-105
 2568 0286 44       		.byte	68
 2569 0287 17       		.byte	23
 2570 0288 C4       		.byte	-60
 2571 0289 A7       		.byte	-89
 2572 028a 7E       		.byte	126
 2573 028b 3D       		.byte	61
 2574 028c 64       		.byte	100
 2575 028d 5D       		.byte	93
 2576 028e 19       		.byte	25
 2577 028f 73       		.byte	115
 2578 0290 60       		.byte	96
 2579 0291 81       		.byte	-127
 2580 0292 4F       		.byte	79
 2581 0293 DC       		.byte	-36
 2582 0294 22       		.byte	34
 2583 0295 2A       		.byte	42
ARM GAS  C:\Users\EBANO_~1\AppData\Local\Temp\ccMXEZix.s 			page 63


 2584 0296 90       		.byte	-112
 2585 0297 88       		.byte	-120
 2586 0298 46       		.byte	70
 2587 0299 EE       		.byte	-18
 2588 029a B8       		.byte	-72
 2589 029b 14       		.byte	20
 2590 029c DE       		.byte	-34
 2591 029d 5E       		.byte	94
 2592 029e 0B       		.byte	11
 2593 029f DB       		.byte	-37
 2594 02a0 E0       		.byte	-32
 2595 02a1 32       		.byte	50
 2596 02a2 3A       		.byte	58
 2597 02a3 0A       		.byte	10
 2598 02a4 49       		.byte	73
 2599 02a5 06       		.byte	6
 2600 02a6 24       		.byte	36
 2601 02a7 5C       		.byte	92
 2602 02a8 C2       		.byte	-62
 2603 02a9 D3       		.byte	-45
 2604 02aa AC       		.byte	-84
 2605 02ab 62       		.byte	98
 2606 02ac 91       		.byte	-111
 2607 02ad 95       		.byte	-107
 2608 02ae E4       		.byte	-28
 2609 02af 79       		.byte	121
 2610 02b0 E7       		.byte	-25
 2611 02b1 C8       		.byte	-56
 2612 02b2 37       		.byte	55
 2613 02b3 6D       		.byte	109
 2614 02b4 8D       		.byte	-115
 2615 02b5 D5       		.byte	-43
 2616 02b6 4E       		.byte	78
 2617 02b7 A9       		.byte	-87
 2618 02b8 6C       		.byte	108
 2619 02b9 56       		.byte	86
 2620 02ba F4       		.byte	-12
 2621 02bb EA       		.byte	-22
 2622 02bc 65       		.byte	101
 2623 02bd 7A       		.byte	122
 2624 02be AE       		.byte	-82
 2625 02bf 08       		.byte	8
 2626 02c0 BA       		.byte	-70
 2627 02c1 78       		.byte	120
 2628 02c2 25       		.byte	37
 2629 02c3 2E       		.byte	46
 2630 02c4 1C       		.byte	28
 2631 02c5 A6       		.byte	-90
 2632 02c6 B4       		.byte	-76
 2633 02c7 C6       		.byte	-58
 2634 02c8 E8       		.byte	-24
 2635 02c9 DD       		.byte	-35
 2636 02ca 74       		.byte	116
 2637 02cb 1F       		.byte	31
 2638 02cc 4B       		.byte	75
 2639 02cd BD       		.byte	-67
 2640 02ce 8B       		.byte	-117
ARM GAS  C:\Users\EBANO_~1\AppData\Local\Temp\ccMXEZix.s 			page 64


 2641 02cf 8A       		.byte	-118
 2642 02d0 70       		.byte	112
 2643 02d1 3E       		.byte	62
 2644 02d2 B5       		.byte	-75
 2645 02d3 66       		.byte	102
 2646 02d4 48       		.byte	72
 2647 02d5 03       		.byte	3
 2648 02d6 F6       		.byte	-10
 2649 02d7 0E       		.byte	14
 2650 02d8 61       		.byte	97
 2651 02d9 35       		.byte	53
 2652 02da 57       		.byte	87
 2653 02db B9       		.byte	-71
 2654 02dc 86       		.byte	-122
 2655 02dd C1       		.byte	-63
 2656 02de 1D       		.byte	29
 2657 02df 9E       		.byte	-98
 2658 02e0 E1       		.byte	-31
 2659 02e1 F8       		.byte	-8
 2660 02e2 98       		.byte	-104
 2661 02e3 11       		.byte	17
 2662 02e4 69       		.byte	105
 2663 02e5 D9       		.byte	-39
 2664 02e6 8E       		.byte	-114
 2665 02e7 94       		.byte	-108
 2666 02e8 9B       		.byte	-101
 2667 02e9 1E       		.byte	30
 2668 02ea 87       		.byte	-121
 2669 02eb E9       		.byte	-23
 2670 02ec CE       		.byte	-50
 2671 02ed 55       		.byte	85
 2672 02ee 28       		.byte	40
 2673 02ef DF       		.byte	-33
 2674 02f0 8C       		.byte	-116
 2675 02f1 A1       		.byte	-95
 2676 02f2 89       		.byte	-119
 2677 02f3 0D       		.byte	13
 2678 02f4 BF       		.byte	-65
 2679 02f5 E6       		.byte	-26
 2680 02f6 42       		.byte	66
 2681 02f7 68       		.byte	104
 2682 02f8 41       		.byte	65
 2683 02f9 99       		.byte	-103
 2684 02fa 2D       		.byte	45
 2685 02fb 0F       		.byte	15
 2686 02fc B0       		.byte	-80
 2687 02fd 54       		.byte	84
 2688 02fe BB       		.byte	-69
 2689 02ff 16       		.byte	22
 2690              		.text
 2691              	.Letext0:
 2692              		.file 2 "c:\\program files (x86)\\gnu tools arm embedded\\7 2018-q2-update\\arm-none-eabi\\include
 2693              		.file 3 "c:\\program files (x86)\\gnu tools arm embedded\\7 2018-q2-update\\arm-none-eabi\\include
 2694              		.file 4 "c:\\program files (x86)\\gnu tools arm embedded\\7 2018-q2-update\\arm-none-eabi\\include
 2695              		.file 5 "c:\\program files (x86)\\gnu tools arm embedded\\7 2018-q2-update\\lib\\gcc\\arm-none-eab
 2696              		.file 6 "c:\\program files (x86)\\gnu tools arm embedded\\7 2018-q2-update\\arm-none-eabi\\include
 2697              		.file 7 "c:\\program files (x86)\\gnu tools arm embedded\\7 2018-q2-update\\arm-none-eabi\\include
ARM GAS  C:\Users\EBANO_~1\AppData\Local\Temp\ccMXEZix.s 			page 65


 2698              		.file 8 "c:\\program files (x86)\\gnu tools arm embedded\\7 2018-q2-update\\arm-none-eabi\\include
 2699              		.file 9 "../../../../../../Middlewares/Third_Party/LoRaWAN/Crypto/aes.h"