ARM GAS  C:\Users\EBANO_~1\AppData\Local\Temp\ccMXEZix.s 			page 1


   1              		.cpu cortex-m0plus
   2              		.eabi_attribute 20, 1
   3              		.eabi_attribute 21, 1
   4              		.eabi_attribute 23, 3
   5              		.eabi_attribute 24, 1
   6              		.eabi_attribute 25, 1
   7              		.eabi_attribute 26, 1
   8              		.eabi_attribute 30, 2
   9              		.eabi_attribute 34, 0
  10              		.eabi_attribute 18, 4
  11              		.file	"aes.c"
  12              		.text
  13              	.Ltext0:
  14              		.cfi_sections	.debug_frame
  15              		.section	.text.aes_encrypt.part.0,"ax",%progbits
  16              		.align	1
  17              		.p2align 2,,3
  18              		.syntax unified
  19              		.code	16
  20              		.thumb_func
  21              		.fpu softvfp
  22              		.type	aes_encrypt.part.0, %function
  23              	aes_encrypt.part.0:
  24              	.LFB10:
  25              		.file 1 "../../../../../../Middlewares/Third_Party/LoRaWAN/Crypto/aes.c"
   1:../../../../../../Middlewares/Third_Party/LoRaWAN/Crypto/aes.c **** /*
   2:../../../../../../Middlewares/Third_Party/LoRaWAN/Crypto/aes.c ****  ---------------------------------------------------------------------------
   3:../../../../../../Middlewares/Third_Party/LoRaWAN/Crypto/aes.c ****  Copyright (c) 1998-2008, Brian Gladman, Worcester, UK. All rights reserved.
   4:../../../../../../Middlewares/Third_Party/LoRaWAN/Crypto/aes.c **** 
   5:../../../../../../Middlewares/Third_Party/LoRaWAN/Crypto/aes.c ****  LICENSE TERMS
   6:../../../../../../Middlewares/Third_Party/LoRaWAN/Crypto/aes.c **** 
   7:../../../../../../Middlewares/Third_Party/LoRaWAN/Crypto/aes.c ****  The redistribution and use of this software (with or without changes)
   8:../../../../../../Middlewares/Third_Party/LoRaWAN/Crypto/aes.c ****  is allowed without the payment of fees or royalties provided that:
   9:../../../../../../Middlewares/Third_Party/LoRaWAN/Crypto/aes.c **** 
  10:../../../../../../Middlewares/Third_Party/LoRaWAN/Crypto/aes.c ****   1. source code distributions include the above copyright notice, this
  11:../../../../../../Middlewares/Third_Party/LoRaWAN/Crypto/aes.c ****      list of conditions and the following disclaimer;
  12:../../../../../../Middlewares/Third_Party/LoRaWAN/Crypto/aes.c **** 
  13:../../../../../../Middlewares/Third_Party/LoRaWAN/Crypto/aes.c ****   2. binary distributions include the above copyright notice, this list
  14:../../../../../../Middlewares/Third_Party/LoRaWAN/Crypto/aes.c ****      of conditions and the following disclaimer in their documentation;
  15:../../../../../../Middlewares/Third_Party/LoRaWAN/Crypto/aes.c **** 
  16:../../../../../../Middlewares/Third_Party/LoRaWAN/Crypto/aes.c ****   3. the name of the copyright holder is not used to endorse products
  17:../../../../../../Middlewares/Third_Party/LoRaWAN/Crypto/aes.c ****      built using this software without specific written permission.
  18:../../../../../../Middlewares/Third_Party/LoRaWAN/Crypto/aes.c **** 
  19:../../../../../../Middlewares/Third_Party/LoRaWAN/Crypto/aes.c ****  DISCLAIMER
  20:../../../../../../Middlewares/Third_Party/LoRaWAN/Crypto/aes.c **** 
  21:../../../../../../Middlewares/Third_Party/LoRaWAN/Crypto/aes.c ****  This software is provided 'as is' with no explicit or implied warranties
  22:../../../../../../Middlewares/Third_Party/LoRaWAN/Crypto/aes.c ****  in respect of its properties, including, but not limited to, correctness
  23:../../../../../../Middlewares/Third_Party/LoRaWAN/Crypto/aes.c ****  and/or fitness for purpose.
  24:../../../../../../Middlewares/Third_Party/LoRaWAN/Crypto/aes.c ****  ---------------------------------------------------------------------------
  25:../../../../../../Middlewares/Third_Party/LoRaWAN/Crypto/aes.c ****  Issue 09/09/2006
  26:../../../../../../Middlewares/Third_Party/LoRaWAN/Crypto/aes.c **** 
  27:../../../../../../Middlewares/Third_Party/LoRaWAN/Crypto/aes.c ****  This is an AES implementation that uses only 8-bit byte operations on the
  28:../../../../../../Middlewares/Third_Party/LoRaWAN/Crypto/aes.c ****  cipher state (there are options to use 32-bit types if available).
  29:../../../../../../Middlewares/Third_Party/LoRaWAN/Crypto/aes.c **** 
  30:../../../../../../Middlewares/Third_Party/LoRaWAN/Crypto/aes.c ****  The combination of mix columns and byte substitution used here is based on
  31:../../../../../../Middlewares/Third_Party/LoRaWAN/Crypto/aes.c ****  that developed by Karl Malbrain. His contribution is acknowledged.
  32:../../../../../../Middlewares/Third_Party/LoRaWAN/Crypto/aes.c ****  */
ARM GAS  C:\Users\EBANO_~1\AppData\Local\Temp\ccMXEZix.s 			page 2


  33:../../../../../../Middlewares/Third_Party/LoRaWAN/Crypto/aes.c **** 
  34:../../../../../../Middlewares/Third_Party/LoRaWAN/Crypto/aes.c **** /* define if you have a fast memcpy function on your system */
  35:../../../../../../Middlewares/Third_Party/LoRaWAN/Crypto/aes.c **** #if 0
  36:../../../../../../Middlewares/Third_Party/LoRaWAN/Crypto/aes.c **** #  define HAVE_MEMCPY
  37:../../../../../../Middlewares/Third_Party/LoRaWAN/Crypto/aes.c **** #  include <string.h>
  38:../../../../../../Middlewares/Third_Party/LoRaWAN/Crypto/aes.c **** #  if defined( _MSC_VER )
  39:../../../../../../Middlewares/Third_Party/LoRaWAN/Crypto/aes.c **** #    include <intrin.h>
  40:../../../../../../Middlewares/Third_Party/LoRaWAN/Crypto/aes.c **** #    pragma intrinsic( memcpy )
  41:../../../../../../Middlewares/Third_Party/LoRaWAN/Crypto/aes.c **** #  endif
  42:../../../../../../Middlewares/Third_Party/LoRaWAN/Crypto/aes.c **** #endif
  43:../../../../../../Middlewares/Third_Party/LoRaWAN/Crypto/aes.c **** 
  44:../../../../../../Middlewares/Third_Party/LoRaWAN/Crypto/aes.c **** 
  45:../../../../../../Middlewares/Third_Party/LoRaWAN/Crypto/aes.c **** #include <stdlib.h>
  46:../../../../../../Middlewares/Third_Party/LoRaWAN/Crypto/aes.c **** #include <stdint.h>
  47:../../../../../../Middlewares/Third_Party/LoRaWAN/Crypto/aes.c **** 
  48:../../../../../../Middlewares/Third_Party/LoRaWAN/Crypto/aes.c **** /* define if you have fast 32-bit types on your system */
  49:../../../../../../Middlewares/Third_Party/LoRaWAN/Crypto/aes.c **** #if ( __CORTEX_M != 0 ) // if Cortex is different from M0/M0+
  50:../../../../../../Middlewares/Third_Party/LoRaWAN/Crypto/aes.c **** #  define HAVE_UINT_32T
  51:../../../../../../Middlewares/Third_Party/LoRaWAN/Crypto/aes.c **** #endif
  52:../../../../../../Middlewares/Third_Party/LoRaWAN/Crypto/aes.c **** 
  53:../../../../../../Middlewares/Third_Party/LoRaWAN/Crypto/aes.c **** /* define if you don't want any tables */
  54:../../../../../../Middlewares/Third_Party/LoRaWAN/Crypto/aes.c **** #if 1
  55:../../../../../../Middlewares/Third_Party/LoRaWAN/Crypto/aes.c **** #  define USE_TABLES
  56:../../../../../../Middlewares/Third_Party/LoRaWAN/Crypto/aes.c **** #endif
  57:../../../../../../Middlewares/Third_Party/LoRaWAN/Crypto/aes.c **** 
  58:../../../../../../Middlewares/Third_Party/LoRaWAN/Crypto/aes.c **** /*  On Intel Core 2 duo VERSION_1 is faster */
  59:../../../../../../Middlewares/Third_Party/LoRaWAN/Crypto/aes.c **** 
  60:../../../../../../Middlewares/Third_Party/LoRaWAN/Crypto/aes.c **** /* alternative versions (test for performance on your system) */
  61:../../../../../../Middlewares/Third_Party/LoRaWAN/Crypto/aes.c **** #if 1
  62:../../../../../../Middlewares/Third_Party/LoRaWAN/Crypto/aes.c **** #  define VERSION_1
  63:../../../../../../Middlewares/Third_Party/LoRaWAN/Crypto/aes.c **** #endif
  64:../../../../../../Middlewares/Third_Party/LoRaWAN/Crypto/aes.c **** 
  65:../../../../../../Middlewares/Third_Party/LoRaWAN/Crypto/aes.c **** #include "aes.h"
  66:../../../../../../Middlewares/Third_Party/LoRaWAN/Crypto/aes.c **** 
  67:../../../../../../Middlewares/Third_Party/LoRaWAN/Crypto/aes.c **** //#if defined( HAVE_UINT_32T )
  68:../../../../../../Middlewares/Third_Party/LoRaWAN/Crypto/aes.c **** //  typedef unsigned long uint32_t;
  69:../../../../../../Middlewares/Third_Party/LoRaWAN/Crypto/aes.c **** //#endif
  70:../../../../../../Middlewares/Third_Party/LoRaWAN/Crypto/aes.c **** 
  71:../../../../../../Middlewares/Third_Party/LoRaWAN/Crypto/aes.c **** /* functions for finite field multiplication in the AES Galois field    */
  72:../../../../../../Middlewares/Third_Party/LoRaWAN/Crypto/aes.c **** 
  73:../../../../../../Middlewares/Third_Party/LoRaWAN/Crypto/aes.c **** #define WPOLY   0x011b
  74:../../../../../../Middlewares/Third_Party/LoRaWAN/Crypto/aes.c **** #define BPOLY     0x1b
  75:../../../../../../Middlewares/Third_Party/LoRaWAN/Crypto/aes.c **** #define DPOLY   0x008d
  76:../../../../../../Middlewares/Third_Party/LoRaWAN/Crypto/aes.c **** 
  77:../../../../../../Middlewares/Third_Party/LoRaWAN/Crypto/aes.c **** #define f1(x)   (x)
  78:../../../../../../Middlewares/Third_Party/LoRaWAN/Crypto/aes.c **** #define f2(x)   ((x << 1) ^ (((x >> 7) & 1) * WPOLY))
  79:../../../../../../Middlewares/Third_Party/LoRaWAN/Crypto/aes.c **** #define f4(x)   ((x << 2) ^ (((x >> 6) & 1) * WPOLY) ^ (((x >> 6) & 2) * WPOLY))
  80:../../../../../../Middlewares/Third_Party/LoRaWAN/Crypto/aes.c **** #define f8(x)   ((x << 3) ^ (((x >> 5) & 1) * WPOLY) ^ (((x >> 5) & 2) * WPOLY) \
  81:../../../../../../Middlewares/Third_Party/LoRaWAN/Crypto/aes.c ****                           ^ (((x >> 5) & 4) * WPOLY))
  82:../../../../../../Middlewares/Third_Party/LoRaWAN/Crypto/aes.c **** #define d2(x)   (((x) >> 1) ^ ((x) & 1 ? DPOLY : 0))
  83:../../../../../../Middlewares/Third_Party/LoRaWAN/Crypto/aes.c **** 
  84:../../../../../../Middlewares/Third_Party/LoRaWAN/Crypto/aes.c **** #define f3(x)   (f2(x) ^ x)
  85:../../../../../../Middlewares/Third_Party/LoRaWAN/Crypto/aes.c **** #define f9(x)   (f8(x) ^ x)
  86:../../../../../../Middlewares/Third_Party/LoRaWAN/Crypto/aes.c **** #define fb(x)   (f8(x) ^ f2(x) ^ x)
  87:../../../../../../Middlewares/Third_Party/LoRaWAN/Crypto/aes.c **** #define fd(x)   (f8(x) ^ f4(x) ^ x)
  88:../../../../../../Middlewares/Third_Party/LoRaWAN/Crypto/aes.c **** #define fe(x)   (f8(x) ^ f4(x) ^ f2(x))
  89:../../../../../../Middlewares/Third_Party/LoRaWAN/Crypto/aes.c **** 
ARM GAS  C:\Users\EBANO_~1\AppData\Local\Temp\ccMXEZix.s 			page 3


  90:../../../../../../Middlewares/Third_Party/LoRaWAN/Crypto/aes.c **** #if defined( USE_TABLES )
  91:../../../../../../Middlewares/Third_Party/LoRaWAN/Crypto/aes.c **** 
  92:../../../../../../Middlewares/Third_Party/LoRaWAN/Crypto/aes.c **** #define sb_data(w) {    /* S Box data values */                            \
  93:../../../../../../Middlewares/Third_Party/LoRaWAN/Crypto/aes.c ****     w(0x63), w(0x7c), w(0x77), w(0x7b), w(0xf2), w(0x6b), w(0x6f), w(0xc5),\
  94:../../../../../../Middlewares/Third_Party/LoRaWAN/Crypto/aes.c ****     w(0x30), w(0x01), w(0x67), w(0x2b), w(0xfe), w(0xd7), w(0xab), w(0x76),\
  95:../../../../../../Middlewares/Third_Party/LoRaWAN/Crypto/aes.c ****     w(0xca), w(0x82), w(0xc9), w(0x7d), w(0xfa), w(0x59), w(0x47), w(0xf0),\
  96:../../../../../../Middlewares/Third_Party/LoRaWAN/Crypto/aes.c ****     w(0xad), w(0xd4), w(0xa2), w(0xaf), w(0x9c), w(0xa4), w(0x72), w(0xc0),\
  97:../../../../../../Middlewares/Third_Party/LoRaWAN/Crypto/aes.c ****     w(0xb7), w(0xfd), w(0x93), w(0x26), w(0x36), w(0x3f), w(0xf7), w(0xcc),\
  98:../../../../../../Middlewares/Third_Party/LoRaWAN/Crypto/aes.c ****     w(0x34), w(0xa5), w(0xe5), w(0xf1), w(0x71), w(0xd8), w(0x31), w(0x15),\
  99:../../../../../../Middlewares/Third_Party/LoRaWAN/Crypto/aes.c ****     w(0x04), w(0xc7), w(0x23), w(0xc3), w(0x18), w(0x96), w(0x05), w(0x9a),\
 100:../../../../../../Middlewares/Third_Party/LoRaWAN/Crypto/aes.c ****     w(0x07), w(0x12), w(0x80), w(0xe2), w(0xeb), w(0x27), w(0xb2), w(0x75),\
 101:../../../../../../Middlewares/Third_Party/LoRaWAN/Crypto/aes.c ****     w(0x09), w(0x83), w(0x2c), w(0x1a), w(0x1b), w(0x6e), w(0x5a), w(0xa0),\
 102:../../../../../../Middlewares/Third_Party/LoRaWAN/Crypto/aes.c ****     w(0x52), w(0x3b), w(0xd6), w(0xb3), w(0x29), w(0xe3), w(0x2f), w(0x84),\
 103:../../../../../../Middlewares/Third_Party/LoRaWAN/Crypto/aes.c ****     w(0x53), w(0xd1), w(0x00), w(0xed), w(0x20), w(0xfc), w(0xb1), w(0x5b),\
 104:../../../../../../Middlewares/Third_Party/LoRaWAN/Crypto/aes.c ****     w(0x6a), w(0xcb), w(0xbe), w(0x39), w(0x4a), w(0x4c), w(0x58), w(0xcf),\
 105:../../../../../../Middlewares/Third_Party/LoRaWAN/Crypto/aes.c ****     w(0xd0), w(0xef), w(0xaa), w(0xfb), w(0x43), w(0x4d), w(0x33), w(0x85),\
 106:../../../../../../Middlewares/Third_Party/LoRaWAN/Crypto/aes.c ****     w(0x45), w(0xf9), w(0x02), w(0x7f), w(0x50), w(0x3c), w(0x9f), w(0xa8),\
 107:../../../../../../Middlewares/Third_Party/LoRaWAN/Crypto/aes.c ****     w(0x51), w(0xa3), w(0x40), w(0x8f), w(0x92), w(0x9d), w(0x38), w(0xf5),\
 108:../../../../../../Middlewares/Third_Party/LoRaWAN/Crypto/aes.c ****     w(0xbc), w(0xb6), w(0xda), w(0x21), w(0x10), w(0xff), w(0xf3), w(0xd2),\
 109:../../../../../../Middlewares/Third_Party/LoRaWAN/Crypto/aes.c ****     w(0xcd), w(0x0c), w(0x13), w(0xec), w(0x5f), w(0x97), w(0x44), w(0x17),\
 110:../../../../../../Middlewares/Third_Party/LoRaWAN/Crypto/aes.c ****     w(0xc4), w(0xa7), w(0x7e), w(0x3d), w(0x64), w(0x5d), w(0x19), w(0x73),\
 111:../../../../../../Middlewares/Third_Party/LoRaWAN/Crypto/aes.c ****     w(0x60), w(0x81), w(0x4f), w(0xdc), w(0x22), w(0x2a), w(0x90), w(0x88),\
 112:../../../../../../Middlewares/Third_Party/LoRaWAN/Crypto/aes.c ****     w(0x46), w(0xee), w(0xb8), w(0x14), w(0xde), w(0x5e), w(0x0b), w(0xdb),\
 113:../../../../../../Middlewares/Third_Party/LoRaWAN/Crypto/aes.c ****     w(0xe0), w(0x32), w(0x3a), w(0x0a), w(0x49), w(0x06), w(0x24), w(0x5c),\
 114:../../../../../../Middlewares/Third_Party/LoRaWAN/Crypto/aes.c ****     w(0xc2), w(0xd3), w(0xac), w(0x62), w(0x91), w(0x95), w(0xe4), w(0x79),\
 115:../../../../../../Middlewares/Third_Party/LoRaWAN/Crypto/aes.c ****     w(0xe7), w(0xc8), w(0x37), w(0x6d), w(0x8d), w(0xd5), w(0x4e), w(0xa9),\
 116:../../../../../../Middlewares/Third_Party/LoRaWAN/Crypto/aes.c ****     w(0x6c), w(0x56), w(0xf4), w(0xea), w(0x65), w(0x7a), w(0xae), w(0x08),\
 117:../../../../../../Middlewares/Third_Party/LoRaWAN/Crypto/aes.c ****     w(0xba), w(0x78), w(0x25), w(0x2e), w(0x1c), w(0xa6), w(0xb4), w(0xc6),\
 118:../../../../../../Middlewares/Third_Party/LoRaWAN/Crypto/aes.c ****     w(0xe8), w(0xdd), w(0x74), w(0x1f), w(0x4b), w(0xbd), w(0x8b), w(0x8a),\
 119:../../../../../../Middlewares/Third_Party/LoRaWAN/Crypto/aes.c ****     w(0x70), w(0x3e), w(0xb5), w(0x66), w(0x48), w(0x03), w(0xf6), w(0x0e),\
 120:../../../../../../Middlewares/Third_Party/LoRaWAN/Crypto/aes.c ****     w(0x61), w(0x35), w(0x57), w(0xb9), w(0x86), w(0xc1), w(0x1d), w(0x9e),\
 121:../../../../../../Middlewares/Third_Party/LoRaWAN/Crypto/aes.c ****     w(0xe1), w(0xf8), w(0x98), w(0x11), w(0x69), w(0xd9), w(0x8e), w(0x94),\
 122:../../../../../../Middlewares/Third_Party/LoRaWAN/Crypto/aes.c ****     w(0x9b), w(0x1e), w(0x87), w(0xe9), w(0xce), w(0x55), w(0x28), w(0xdf),\
 123:../../../../../../Middlewares/Third_Party/LoRaWAN/Crypto/aes.c ****     w(0x8c), w(0xa1), w(0x89), w(0x0d), w(0xbf), w(0xe6), w(0x42), w(0x68),\
 124:../../../../../../Middlewares/Third_Party/LoRaWAN/Crypto/aes.c ****     w(0x41), w(0x99), w(0x2d), w(0x0f), w(0xb0), w(0x54), w(0xbb), w(0x16) }
 125:../../../../../../Middlewares/Third_Party/LoRaWAN/Crypto/aes.c **** 
 126:../../../../../../Middlewares/Third_Party/LoRaWAN/Crypto/aes.c **** #define isb_data(w) {   /* inverse S Box data values */                    \
 127:../../../../../../Middlewares/Third_Party/LoRaWAN/Crypto/aes.c ****     w(0x52), w(0x09), w(0x6a), w(0xd5), w(0x30), w(0x36), w(0xa5), w(0x38),\
 128:../../../../../../Middlewares/Third_Party/LoRaWAN/Crypto/aes.c ****     w(0xbf), w(0x40), w(0xa3), w(0x9e), w(0x81), w(0xf3), w(0xd7), w(0xfb),\
 129:../../../../../../Middlewares/Third_Party/LoRaWAN/Crypto/aes.c ****     w(0x7c), w(0xe3), w(0x39), w(0x82), w(0x9b), w(0x2f), w(0xff), w(0x87),\
 130:../../../../../../Middlewares/Third_Party/LoRaWAN/Crypto/aes.c ****     w(0x34), w(0x8e), w(0x43), w(0x44), w(0xc4), w(0xde), w(0xe9), w(0xcb),\
 131:../../../../../../Middlewares/Third_Party/LoRaWAN/Crypto/aes.c ****     w(0x54), w(0x7b), w(0x94), w(0x32), w(0xa6), w(0xc2), w(0x23), w(0x3d),\
 132:../../../../../../Middlewares/Third_Party/LoRaWAN/Crypto/aes.c ****     w(0xee), w(0x4c), w(0x95), w(0x0b), w(0x42), w(0xfa), w(0xc3), w(0x4e),\
 133:../../../../../../Middlewares/Third_Party/LoRaWAN/Crypto/aes.c ****     w(0x08), w(0x2e), w(0xa1), w(0x66), w(0x28), w(0xd9), w(0x24), w(0xb2),\
 134:../../../../../../Middlewares/Third_Party/LoRaWAN/Crypto/aes.c ****     w(0x76), w(0x5b), w(0xa2), w(0x49), w(0x6d), w(0x8b), w(0xd1), w(0x25),\
 135:../../../../../../Middlewares/Third_Party/LoRaWAN/Crypto/aes.c ****     w(0x72), w(0xf8), w(0xf6), w(0x64), w(0x86), w(0x68), w(0x98), w(0x16),\
 136:../../../../../../Middlewares/Third_Party/LoRaWAN/Crypto/aes.c ****     w(0xd4), w(0xa4), w(0x5c), w(0xcc), w(0x5d), w(0x65), w(0xb6), w(0x92),\
 137:../../../../../../Middlewares/Third_Party/LoRaWAN/Crypto/aes.c ****     w(0x6c), w(0x70), w(0x48), w(0x50), w(0xfd), w(0xed), w(0xb9), w(0xda),\
 138:../../../../../../Middlewares/Third_Party/LoRaWAN/Crypto/aes.c ****     w(0x5e), w(0x15), w(0x46), w(0x57), w(0xa7), w(0x8d), w(0x9d), w(0x84),\
 139:../../../../../../Middlewares/Third_Party/LoRaWAN/Crypto/aes.c ****     w(0x90), w(0xd8), w(0xab), w(0x00), w(0x8c), w(0xbc), w(0xd3), w(0x0a),\
 140:../../../../../../Middlewares/Third_Party/LoRaWAN/Crypto/aes.c ****     w(0xf7), w(0xe4), w(0x58), w(0x05), w(0xb8), w(0xb3), w(0x45), w(0x06),\
 141:../../../../../../Middlewares/Third_Party/LoRaWAN/Crypto/aes.c ****     w(0xd0), w(0x2c), w(0x1e), w(0x8f), w(0xca), w(0x3f), w(0x0f), w(0x02),\
 142:../../../../../../Middlewares/Third_Party/LoRaWAN/Crypto/aes.c ****     w(0xc1), w(0xaf), w(0xbd), w(0x03), w(0x01), w(0x13), w(0x8a), w(0x6b),\
 143:../../../../../../Middlewares/Third_Party/LoRaWAN/Crypto/aes.c ****     w(0x3a), w(0x91), w(0x11), w(0x41), w(0x4f), w(0x67), w(0xdc), w(0xea),\
 144:../../../../../../Middlewares/Third_Party/LoRaWAN/Crypto/aes.c ****     w(0x97), w(0xf2), w(0xcf), w(0xce), w(0xf0), w(0xb4), w(0xe6), w(0x73),\
 145:../../../../../../Middlewares/Third_Party/LoRaWAN/Crypto/aes.c ****     w(0x96), w(0xac), w(0x74), w(0x22), w(0xe7), w(0xad), w(0x35), w(0x85),\
 146:../../../../../../Middlewares/Third_Party/LoRaWAN/Crypto/aes.c ****     w(0xe2), w(0xf9), w(0x37), w(0xe8), w(0x1c), w(0x75), w(0xdf), w(0x6e),\
ARM GAS  C:\Users\EBANO_~1\AppData\Local\Temp\ccMXEZix.s 			page 4


 147:../../../../../../Middlewares/Third_Party/LoRaWAN/Crypto/aes.c ****     w(0x47), w(0xf1), w(0x1a), w(0x71), w(0x1d), w(0x29), w(0xc5), w(0x89),\
 148:../../../../../../Middlewares/Third_Party/LoRaWAN/Crypto/aes.c ****     w(0x6f), w(0xb7), w(0x62), w(0x0e), w(0xaa), w(0x18), w(0xbe), w(0x1b),\
 149:../../../../../../Middlewares/Third_Party/LoRaWAN/Crypto/aes.c ****     w(0xfc), w(0x56), w(0x3e), w(0x4b), w(0xc6), w(0xd2), w(0x79), w(0x20),\
 150:../../../../../../Middlewares/Third_Party/LoRaWAN/Crypto/aes.c ****     w(0x9a), w(0xdb), w(0xc0), w(0xfe), w(0x78), w(0xcd), w(0x5a), w(0xf4),\
 151:../../../../../../Middlewares/Third_Party/LoRaWAN/Crypto/aes.c ****     w(0x1f), w(0xdd), w(0xa8), w(0x33), w(0x88), w(0x07), w(0xc7), w(0x31),\
 152:../../../../../../Middlewares/Third_Party/LoRaWAN/Crypto/aes.c ****     w(0xb1), w(0x12), w(0x10), w(0x59), w(0x27), w(0x80), w(0xec), w(0x5f),\
 153:../../../../../../Middlewares/Third_Party/LoRaWAN/Crypto/aes.c ****     w(0x60), w(0x51), w(0x7f), w(0xa9), w(0x19), w(0xb5), w(0x4a), w(0x0d),\
 154:../../../../../../Middlewares/Third_Party/LoRaWAN/Crypto/aes.c ****     w(0x2d), w(0xe5), w(0x7a), w(0x9f), w(0x93), w(0xc9), w(0x9c), w(0xef),\
 155:../../../../../../Middlewares/Third_Party/LoRaWAN/Crypto/aes.c ****     w(0xa0), w(0xe0), w(0x3b), w(0x4d), w(0xae), w(0x2a), w(0xf5), w(0xb0),\
 156:../../../../../../Middlewares/Third_Party/LoRaWAN/Crypto/aes.c ****     w(0xc8), w(0xeb), w(0xbb), w(0x3c), w(0x83), w(0x53), w(0x99), w(0x61),\
 157:../../../../../../Middlewares/Third_Party/LoRaWAN/Crypto/aes.c ****     w(0x17), w(0x2b), w(0x04), w(0x7e), w(0xba), w(0x77), w(0xd6), w(0x26),\
 158:../../../../../../Middlewares/Third_Party/LoRaWAN/Crypto/aes.c ****     w(0xe1), w(0x69), w(0x14), w(0x63), w(0x55), w(0x21), w(0x0c), w(0x7d) }
 159:../../../../../../Middlewares/Third_Party/LoRaWAN/Crypto/aes.c **** 
 160:../../../../../../Middlewares/Third_Party/LoRaWAN/Crypto/aes.c **** #define mm_data(w) {    /* basic data for forming finite field tables */   \
 161:../../../../../../Middlewares/Third_Party/LoRaWAN/Crypto/aes.c ****     w(0x00), w(0x01), w(0x02), w(0x03), w(0x04), w(0x05), w(0x06), w(0x07),\
 162:../../../../../../Middlewares/Third_Party/LoRaWAN/Crypto/aes.c ****     w(0x08), w(0x09), w(0x0a), w(0x0b), w(0x0c), w(0x0d), w(0x0e), w(0x0f),\
 163:../../../../../../Middlewares/Third_Party/LoRaWAN/Crypto/aes.c ****     w(0x10), w(0x11), w(0x12), w(0x13), w(0x14), w(0x15), w(0x16), w(0x17),\
 164:../../../../../../Middlewares/Third_Party/LoRaWAN/Crypto/aes.c ****     w(0x18), w(0x19), w(0x1a), w(0x1b), w(0x1c), w(0x1d), w(0x1e), w(0x1f),\
 165:../../../../../../Middlewares/Third_Party/LoRaWAN/Crypto/aes.c ****     w(0x20), w(0x21), w(0x22), w(0x23), w(0x24), w(0x25), w(0x26), w(0x27),\
 166:../../../../../../Middlewares/Third_Party/LoRaWAN/Crypto/aes.c ****     w(0x28), w(0x29), w(0x2a), w(0x2b), w(0x2c), w(0x2d), w(0x2e), w(0x2f),\
 167:../../../../../../Middlewares/Third_Party/LoRaWAN/Crypto/aes.c ****     w(0x30), w(0x31), w(0x32), w(0x33), w(0x34), w(0x35), w(0x36), w(0x37),\
 168:../../../../../../Middlewares/Third_Party/LoRaWAN/Crypto/aes.c ****     w(0x38), w(0x39), w(0x3a), w(0x3b), w(0x3c), w(0x3d), w(0x3e), w(0x3f),\
 169:../../../../../../Middlewares/Third_Party/LoRaWAN/Crypto/aes.c ****     w(0x40), w(0x41), w(0x42), w(0x43), w(0x44), w(0x45), w(0x46), w(0x47),\
 170:../../../../../../Middlewares/Third_Party/LoRaWAN/Crypto/aes.c ****     w(0x48), w(0x49), w(0x4a), w(0x4b), w(0x4c), w(0x4d), w(0x4e), w(0x4f),\
 171:../../../../../../Middlewares/Third_Party/LoRaWAN/Crypto/aes.c ****     w(0x50), w(0x51), w(0x52), w(0x53), w(0x54), w(0x55), w(0x56), w(0x57),\
 172:../../../../../../Middlewares/Third_Party/LoRaWAN/Crypto/aes.c ****     w(0x58), w(0x59), w(0x5a), w(0x5b), w(0x5c), w(0x5d), w(0x5e), w(0x5f),\
 173:../../../../../../Middlewares/Third_Party/LoRaWAN/Crypto/aes.c ****     w(0x60), w(0x61), w(0x62), w(0x63), w(0x64), w(0x65), w(0x66), w(0x67),\
 174:../../../../../../Middlewares/Third_Party/LoRaWAN/Crypto/aes.c ****     w(0x68), w(0x69), w(0x6a), w(0x6b), w(0x6c), w(0x6d), w(0x6e), w(0x6f),\
 175:../../../../../../Middlewares/Third_Party/LoRaWAN/Crypto/aes.c ****     w(0x70), w(0x71), w(0x72), w(0x73), w(0x74), w(0x75), w(0x76), w(0x77),\
 176:../../../../../../Middlewares/Third_Party/LoRaWAN/Crypto/aes.c ****     w(0x78), w(0x79), w(0x7a), w(0x7b), w(0x7c), w(0x7d), w(0x7e), w(0x7f),\
 177:../../../../../../Middlewares/Third_Party/LoRaWAN/Crypto/aes.c ****     w(0x80), w(0x81), w(0x82), w(0x83), w(0x84), w(0x85), w(0x86), w(0x87),\
 178:../../../../../../Middlewares/Third_Party/LoRaWAN/Crypto/aes.c ****     w(0x88), w(0x89), w(0x8a), w(0x8b), w(0x8c), w(0x8d), w(0x8e), w(0x8f),\
 179:../../../../../../Middlewares/Third_Party/LoRaWAN/Crypto/aes.c ****     w(0x90), w(0x91), w(0x92), w(0x93), w(0x94), w(0x95), w(0x96), w(0x97),\
 180:../../../../../../Middlewares/Third_Party/LoRaWAN/Crypto/aes.c ****     w(0x98), w(0x99), w(0x9a), w(0x9b), w(0x9c), w(0x9d), w(0x9e), w(0x9f),\
 181:../../../../../../Middlewares/Third_Party/LoRaWAN/Crypto/aes.c ****     w(0xa0), w(0xa1), w(0xa2), w(0xa3), w(0xa4), w(0xa5), w(0xa6), w(0xa7),\
 182:../../../../../../Middlewares/Third_Party/LoRaWAN/Crypto/aes.c ****     w(0xa8), w(0xa9), w(0xaa), w(0xab), w(0xac), w(0xad), w(0xae), w(0xaf),\
 183:../../../../../../Middlewares/Third_Party/LoRaWAN/Crypto/aes.c ****     w(0xb0), w(0xb1), w(0xb2), w(0xb3), w(0xb4), w(0xb5), w(0xb6), w(0xb7),\
 184:../../../../../../Middlewares/Third_Party/LoRaWAN/Crypto/aes.c ****     w(0xb8), w(0xb9), w(0xba), w(0xbb), w(0xbc), w(0xbd), w(0xbe), w(0xbf),\
 185:../../../../../../Middlewares/Third_Party/LoRaWAN/Crypto/aes.c ****     w(0xc0), w(0xc1), w(0xc2), w(0xc3), w(0xc4), w(0xc5), w(0xc6), w(0xc7),\
 186:../../../../../../Middlewares/Third_Party/LoRaWAN/Crypto/aes.c ****     w(0xc8), w(0xc9), w(0xca), w(0xcb), w(0xcc), w(0xcd), w(0xce), w(0xcf),\
 187:../../../../../../Middlewares/Third_Party/LoRaWAN/Crypto/aes.c ****     w(0xd0), w(0xd1), w(0xd2), w(0xd3), w(0xd4), w(0xd5), w(0xd6), w(0xd7),\
 188:../../../../../../Middlewares/Third_Party/LoRaWAN/Crypto/aes.c ****     w(0xd8), w(0xd9), w(0xda), w(0xdb), w(0xdc), w(0xdd), w(0xde), w(0xdf),\
 189:../../../../../../Middlewares/Third_Party/LoRaWAN/Crypto/aes.c ****     w(0xe0), w(0xe1), w(0xe2), w(0xe3), w(0xe4), w(0xe5), w(0xe6), w(0xe7),\
 190:../../../../../../Middlewares/Third_Party/LoRaWAN/Crypto/aes.c ****     w(0xe8), w(0xe9), w(0xea), w(0xeb), w(0xec), w(0xed), w(0xee), w(0xef),\
 191:../../../../../../Middlewares/Third_Party/LoRaWAN/Crypto/aes.c ****     w(0xf0), w(0xf1), w(0xf2), w(0xf3), w(0xf4), w(0xf5), w(0xf6), w(0xf7),\
 192:../../../../../../Middlewares/Third_Party/LoRaWAN/Crypto/aes.c ****     w(0xf8), w(0xf9), w(0xfa), w(0xfb), w(0xfc), w(0xfd), w(0xfe), w(0xff) }
 193:../../../../../../Middlewares/Third_Party/LoRaWAN/Crypto/aes.c **** 
 194:../../../../../../Middlewares/Third_Party/LoRaWAN/Crypto/aes.c **** static const uint8_t sbox[256]  =  sb_data(f1);
 195:../../../../../../Middlewares/Third_Party/LoRaWAN/Crypto/aes.c **** 
 196:../../../../../../Middlewares/Third_Party/LoRaWAN/Crypto/aes.c **** #if defined( AES_DEC_PREKEYED )
 197:../../../../../../Middlewares/Third_Party/LoRaWAN/Crypto/aes.c **** static const uint8_t isbox[256] = isb_data(f1);
 198:../../../../../../Middlewares/Third_Party/LoRaWAN/Crypto/aes.c **** #endif
 199:../../../../../../Middlewares/Third_Party/LoRaWAN/Crypto/aes.c **** 
 200:../../../../../../Middlewares/Third_Party/LoRaWAN/Crypto/aes.c **** static const uint8_t gfm2_sbox[256] = sb_data(f2);
 201:../../../../../../Middlewares/Third_Party/LoRaWAN/Crypto/aes.c **** static const uint8_t gfm3_sbox[256] = sb_data(f3);
 202:../../../../../../Middlewares/Third_Party/LoRaWAN/Crypto/aes.c **** 
 203:../../../../../../Middlewares/Third_Party/LoRaWAN/Crypto/aes.c **** #if defined( AES_DEC_PREKEYED )
ARM GAS  C:\Users\EBANO_~1\AppData\Local\Temp\ccMXEZix.s 			page 5


 204:../../../../../../Middlewares/Third_Party/LoRaWAN/Crypto/aes.c **** static const uint8_t gfmul_9[256] = mm_data(f9);
 205:../../../../../../Middlewares/Third_Party/LoRaWAN/Crypto/aes.c **** static const uint8_t gfmul_b[256] = mm_data(fb);
 206:../../../../../../Middlewares/Third_Party/LoRaWAN/Crypto/aes.c **** static const uint8_t gfmul_d[256] = mm_data(fd);
 207:../../../../../../Middlewares/Third_Party/LoRaWAN/Crypto/aes.c **** static const uint8_t gfmul_e[256] = mm_data(fe);
 208:../../../../../../Middlewares/Third_Party/LoRaWAN/Crypto/aes.c **** #endif
 209:../../../../../../Middlewares/Third_Party/LoRaWAN/Crypto/aes.c **** 
 210:../../../../../../Middlewares/Third_Party/LoRaWAN/Crypto/aes.c **** #define s_box(x)     sbox[(x)]
 211:../../../../../../Middlewares/Third_Party/LoRaWAN/Crypto/aes.c **** #if defined( AES_DEC_PREKEYED )
 212:../../../../../../Middlewares/Third_Party/LoRaWAN/Crypto/aes.c **** #define is_box(x)    isbox[(x)]
 213:../../../../../../Middlewares/Third_Party/LoRaWAN/Crypto/aes.c **** #endif
 214:../../../../../../Middlewares/Third_Party/LoRaWAN/Crypto/aes.c **** #define gfm2_sb(x)   gfm2_sbox[(x)]
 215:../../../../../../Middlewares/Third_Party/LoRaWAN/Crypto/aes.c **** #define gfm3_sb(x)   gfm3_sbox[(x)]
 216:../../../../../../Middlewares/Third_Party/LoRaWAN/Crypto/aes.c **** #if defined( AES_DEC_PREKEYED )
 217:../../../../../../Middlewares/Third_Party/LoRaWAN/Crypto/aes.c **** #define gfm_9(x)     gfmul_9[(x)]
 218:../../../../../../Middlewares/Third_Party/LoRaWAN/Crypto/aes.c **** #define gfm_b(x)     gfmul_b[(x)]
 219:../../../../../../Middlewares/Third_Party/LoRaWAN/Crypto/aes.c **** #define gfm_d(x)     gfmul_d[(x)]
 220:../../../../../../Middlewares/Third_Party/LoRaWAN/Crypto/aes.c **** #define gfm_e(x)     gfmul_e[(x)]
 221:../../../../../../Middlewares/Third_Party/LoRaWAN/Crypto/aes.c **** #endif
 222:../../../../../../Middlewares/Third_Party/LoRaWAN/Crypto/aes.c **** #else
 223:../../../../../../Middlewares/Third_Party/LoRaWAN/Crypto/aes.c **** 
 224:../../../../../../Middlewares/Third_Party/LoRaWAN/Crypto/aes.c **** /* this is the high bit of x right shifted by 1 */
 225:../../../../../../Middlewares/Third_Party/LoRaWAN/Crypto/aes.c **** /* position. Since the starting polynomial has  */
 226:../../../../../../Middlewares/Third_Party/LoRaWAN/Crypto/aes.c **** /* 9 bits (0x11b), this right shift keeps the   */
 227:../../../../../../Middlewares/Third_Party/LoRaWAN/Crypto/aes.c **** /* values of all top bits within a byte         */
 228:../../../../../../Middlewares/Third_Party/LoRaWAN/Crypto/aes.c **** 
 229:../../../../../../Middlewares/Third_Party/LoRaWAN/Crypto/aes.c **** static uint8_t hibit(const uint8_t x)
 230:../../../../../../Middlewares/Third_Party/LoRaWAN/Crypto/aes.c **** {   uint8_t r = (uint8_t)((x >> 1) | (x >> 2));
 231:../../../../../../Middlewares/Third_Party/LoRaWAN/Crypto/aes.c **** 
 232:../../../../../../Middlewares/Third_Party/LoRaWAN/Crypto/aes.c ****     r |= (r >> 2);
 233:../../../../../../Middlewares/Third_Party/LoRaWAN/Crypto/aes.c ****     r |= (r >> 4);
 234:../../../../../../Middlewares/Third_Party/LoRaWAN/Crypto/aes.c ****     return (r + 1) >> 1;
 235:../../../../../../Middlewares/Third_Party/LoRaWAN/Crypto/aes.c **** }
 236:../../../../../../Middlewares/Third_Party/LoRaWAN/Crypto/aes.c **** 
 237:../../../../../../Middlewares/Third_Party/LoRaWAN/Crypto/aes.c **** /* return the inverse of the finite field element x */
 238:../../../../../../Middlewares/Third_Party/LoRaWAN/Crypto/aes.c **** 
 239:../../../../../../Middlewares/Third_Party/LoRaWAN/Crypto/aes.c **** static uint8_t gf_inv(const uint8_t x)
 240:../../../../../../Middlewares/Third_Party/LoRaWAN/Crypto/aes.c **** {   uint8_t p1 = x, p2 = BPOLY, n1 = hibit(x), n2 = 0x80, v1 = 1, v2 = 0;
 241:../../../../../../Middlewares/Third_Party/LoRaWAN/Crypto/aes.c **** 
 242:../../../../../../Middlewares/Third_Party/LoRaWAN/Crypto/aes.c ****     if(x < 2)
 243:../../../../../../Middlewares/Third_Party/LoRaWAN/Crypto/aes.c ****         return x;
 244:../../../../../../Middlewares/Third_Party/LoRaWAN/Crypto/aes.c **** 
 245:../../../../../../Middlewares/Third_Party/LoRaWAN/Crypto/aes.c ****     for( ; ; )
 246:../../../../../../Middlewares/Third_Party/LoRaWAN/Crypto/aes.c ****     {
 247:../../../../../../Middlewares/Third_Party/LoRaWAN/Crypto/aes.c ****         if(n1)
 248:../../../../../../Middlewares/Third_Party/LoRaWAN/Crypto/aes.c ****             while(n2 >= n1)             /* divide polynomial p2 by p1    */
 249:../../../../../../Middlewares/Third_Party/LoRaWAN/Crypto/aes.c ****             {
 250:../../../../../../Middlewares/Third_Party/LoRaWAN/Crypto/aes.c ****                 n2 /= n1;               /* shift smaller polynomial left */
 251:../../../../../../Middlewares/Third_Party/LoRaWAN/Crypto/aes.c ****                 p2 ^= (p1 * n2) & 0xff; /* and remove from larger one    */
 252:../../../../../../Middlewares/Third_Party/LoRaWAN/Crypto/aes.c ****                 v2 ^= (v1 * n2);        /* shift accumulated value and   */
 253:../../../../../../Middlewares/Third_Party/LoRaWAN/Crypto/aes.c ****                 n2 = hibit(p2);         /* add into result               */
 254:../../../../../../Middlewares/Third_Party/LoRaWAN/Crypto/aes.c ****             }
 255:../../../../../../Middlewares/Third_Party/LoRaWAN/Crypto/aes.c ****         else
 256:../../../../../../Middlewares/Third_Party/LoRaWAN/Crypto/aes.c ****             return v1;
 257:../../../../../../Middlewares/Third_Party/LoRaWAN/Crypto/aes.c **** 
 258:../../../../../../Middlewares/Third_Party/LoRaWAN/Crypto/aes.c ****         if(n2)                          /* repeat with values swapped    */
 259:../../../../../../Middlewares/Third_Party/LoRaWAN/Crypto/aes.c ****             while(n1 >= n2)
 260:../../../../../../Middlewares/Third_Party/LoRaWAN/Crypto/aes.c ****             {
ARM GAS  C:\Users\EBANO_~1\AppData\Local\Temp\ccMXEZix.s 			page 6


 261:../../../../../../Middlewares/Third_Party/LoRaWAN/Crypto/aes.c ****                 n1 /= n2;
 262:../../../../../../Middlewares/Third_Party/LoRaWAN/Crypto/aes.c ****                 p1 ^= p2 * n1;
 263:../../../../../../Middlewares/Third_Party/LoRaWAN/Crypto/aes.c ****                 v1 ^= v2 * n1;
 264:../../../../../../Middlewares/Third_Party/LoRaWAN/Crypto/aes.c ****                 n1 = hibit(p1);
 265:../../../../../../Middlewares/Third_Party/LoRaWAN/Crypto/aes.c ****             }
 266:../../../../../../Middlewares/Third_Party/LoRaWAN/Crypto/aes.c ****         else
 267:../../../../../../Middlewares/Third_Party/LoRaWAN/Crypto/aes.c ****             return v2;
 268:../../../../../../Middlewares/Third_Party/LoRaWAN/Crypto/aes.c ****     }
 269:../../../../../../Middlewares/Third_Party/LoRaWAN/Crypto/aes.c **** }
 270:../../../../../../Middlewares/Third_Party/LoRaWAN/Crypto/aes.c **** 
 271:../../../../../../Middlewares/Third_Party/LoRaWAN/Crypto/aes.c **** /* The forward and inverse affine transformations used in the S-box */
 272:../../../../../../Middlewares/Third_Party/LoRaWAN/Crypto/aes.c **** uint8_t fwd_affine(const uint8_t x)
 273:../../../../../../Middlewares/Third_Party/LoRaWAN/Crypto/aes.c **** {
 274:../../../../../../Middlewares/Third_Party/LoRaWAN/Crypto/aes.c **** #if defined( HAVE_UINT_32T )
 275:../../../../../../Middlewares/Third_Party/LoRaWAN/Crypto/aes.c ****     uint32_t w = x;
 276:../../../../../../Middlewares/Third_Party/LoRaWAN/Crypto/aes.c ****     w ^= (w << 1) ^ (w << 2) ^ (w << 3) ^ (w << 4);
 277:../../../../../../Middlewares/Third_Party/LoRaWAN/Crypto/aes.c ****     return 0x63 ^ ((w ^ (w >> 8)) & 0xff);
 278:../../../../../../Middlewares/Third_Party/LoRaWAN/Crypto/aes.c **** #else
 279:../../../../../../Middlewares/Third_Party/LoRaWAN/Crypto/aes.c ****     return 0x63 ^ x ^ (x << 1) ^ (x << 2) ^ (x << 3) ^ (x << 4)
 280:../../../../../../Middlewares/Third_Party/LoRaWAN/Crypto/aes.c ****                     ^ (x >> 7) ^ (x >> 6) ^ (x >> 5) ^ (x >> 4);
 281:../../../../../../Middlewares/Third_Party/LoRaWAN/Crypto/aes.c **** #endif
 282:../../../../../../Middlewares/Third_Party/LoRaWAN/Crypto/aes.c **** }
 283:../../../../../../Middlewares/Third_Party/LoRaWAN/Crypto/aes.c **** 
 284:../../../../../../Middlewares/Third_Party/LoRaWAN/Crypto/aes.c **** uint8_t inv_affine(const uint8_t x)
 285:../../../../../../Middlewares/Third_Party/LoRaWAN/Crypto/aes.c **** {
 286:../../../../../../Middlewares/Third_Party/LoRaWAN/Crypto/aes.c **** #if defined( HAVE_UINT_32T )
 287:../../../../../../Middlewares/Third_Party/LoRaWAN/Crypto/aes.c ****     uint32_t w = x;
 288:../../../../../../Middlewares/Third_Party/LoRaWAN/Crypto/aes.c ****     w = (w << 1) ^ (w << 3) ^ (w << 6);
 289:../../../../../../Middlewares/Third_Party/LoRaWAN/Crypto/aes.c ****     return 0x05 ^ ((w ^ (w >> 8)) & 0xff);
 290:../../../../../../Middlewares/Third_Party/LoRaWAN/Crypto/aes.c **** #else
 291:../../../../../../Middlewares/Third_Party/LoRaWAN/Crypto/aes.c ****     return 0x05 ^ (x << 1) ^ (x << 3) ^ (x << 6)
 292:../../../../../../Middlewares/Third_Party/LoRaWAN/Crypto/aes.c ****                 ^ (x >> 7) ^ (x >> 5) ^ (x >> 2);
 293:../../../../../../Middlewares/Third_Party/LoRaWAN/Crypto/aes.c **** #endif
 294:../../../../../../Middlewares/Third_Party/LoRaWAN/Crypto/aes.c **** }
 295:../../../../../../Middlewares/Third_Party/LoRaWAN/Crypto/aes.c **** 
 296:../../../../../../Middlewares/Third_Party/LoRaWAN/Crypto/aes.c **** #define s_box(x)   fwd_affine(gf_inv(x))
 297:../../../../../../Middlewares/Third_Party/LoRaWAN/Crypto/aes.c **** #define is_box(x)  gf_inv(inv_affine(x))
 298:../../../../../../Middlewares/Third_Party/LoRaWAN/Crypto/aes.c **** #define gfm2_sb(x) f2(s_box(x))
 299:../../../../../../Middlewares/Third_Party/LoRaWAN/Crypto/aes.c **** #define gfm3_sb(x) f3(s_box(x))
 300:../../../../../../Middlewares/Third_Party/LoRaWAN/Crypto/aes.c **** #define gfm_9(x)   f9(x)
 301:../../../../../../Middlewares/Third_Party/LoRaWAN/Crypto/aes.c **** #define gfm_b(x)   fb(x)
 302:../../../../../../Middlewares/Third_Party/LoRaWAN/Crypto/aes.c **** #define gfm_d(x)   fd(x)
 303:../../../../../../Middlewares/Third_Party/LoRaWAN/Crypto/aes.c **** #define gfm_e(x)   fe(x)
 304:../../../../../../Middlewares/Third_Party/LoRaWAN/Crypto/aes.c **** 
 305:../../../../../../Middlewares/Third_Party/LoRaWAN/Crypto/aes.c **** #endif
 306:../../../../../../Middlewares/Third_Party/LoRaWAN/Crypto/aes.c **** 
 307:../../../../../../Middlewares/Third_Party/LoRaWAN/Crypto/aes.c **** #if defined( HAVE_MEMCPY )
 308:../../../../../../Middlewares/Third_Party/LoRaWAN/Crypto/aes.c **** #  define block_copy_nn(d, s, l)    memcpy(d, s, l)
 309:../../../../../../Middlewares/Third_Party/LoRaWAN/Crypto/aes.c **** #  define block_copy(d, s)          memcpy(d, s, N_BLOCK)
 310:../../../../../../Middlewares/Third_Party/LoRaWAN/Crypto/aes.c **** #else
 311:../../../../../../Middlewares/Third_Party/LoRaWAN/Crypto/aes.c **** #  define block_copy_nn(d, s, l)    copy_block_nn(d, s, l)
 312:../../../../../../Middlewares/Third_Party/LoRaWAN/Crypto/aes.c **** #  define block_copy(d, s)          copy_block(d, s)
 313:../../../../../../Middlewares/Third_Party/LoRaWAN/Crypto/aes.c **** #endif
 314:../../../../../../Middlewares/Third_Party/LoRaWAN/Crypto/aes.c **** 
 315:../../../../../../Middlewares/Third_Party/LoRaWAN/Crypto/aes.c **** static void copy_block( void *d, const void *s )
 316:../../../../../../Middlewares/Third_Party/LoRaWAN/Crypto/aes.c **** {
 317:../../../../../../Middlewares/Third_Party/LoRaWAN/Crypto/aes.c **** #if defined( HAVE_UINT_32T )
ARM GAS  C:\Users\EBANO_~1\AppData\Local\Temp\ccMXEZix.s 			page 7


 318:../../../../../../Middlewares/Third_Party/LoRaWAN/Crypto/aes.c ****     ((uint32_t*)d)[ 0] = ((uint32_t*)s)[ 0];
 319:../../../../../../Middlewares/Third_Party/LoRaWAN/Crypto/aes.c ****     ((uint32_t*)d)[ 1] = ((uint32_t*)s)[ 1];
 320:../../../../../../Middlewares/Third_Party/LoRaWAN/Crypto/aes.c ****     ((uint32_t*)d)[ 2] = ((uint32_t*)s)[ 2];
 321:../../../../../../Middlewares/Third_Party/LoRaWAN/Crypto/aes.c ****     ((uint32_t*)d)[ 3] = ((uint32_t*)s)[ 3];
 322:../../../../../../Middlewares/Third_Party/LoRaWAN/Crypto/aes.c **** #else
 323:../../../../../../Middlewares/Third_Party/LoRaWAN/Crypto/aes.c ****     ((uint8_t*)d)[ 0] = ((uint8_t*)s)[ 0];
 324:../../../../../../Middlewares/Third_Party/LoRaWAN/Crypto/aes.c ****     ((uint8_t*)d)[ 1] = ((uint8_t*)s)[ 1];
 325:../../../../../../Middlewares/Third_Party/LoRaWAN/Crypto/aes.c ****     ((uint8_t*)d)[ 2] = ((uint8_t*)s)[ 2];
 326:../../../../../../Middlewares/Third_Party/LoRaWAN/Crypto/aes.c ****     ((uint8_t*)d)[ 3] = ((uint8_t*)s)[ 3];
 327:../../../../../../Middlewares/Third_Party/LoRaWAN/Crypto/aes.c ****     ((uint8_t*)d)[ 4] = ((uint8_t*)s)[ 4];
 328:../../../../../../Middlewares/Third_Party/LoRaWAN/Crypto/aes.c ****     ((uint8_t*)d)[ 5] = ((uint8_t*)s)[ 5];
 329:../../../../../../Middlewares/Third_Party/LoRaWAN/Crypto/aes.c ****     ((uint8_t*)d)[ 6] = ((uint8_t*)s)[ 6];
 330:../../../../../../Middlewares/Third_Party/LoRaWAN/Crypto/aes.c ****     ((uint8_t*)d)[ 7] = ((uint8_t*)s)[ 7];
 331:../../../../../../Middlewares/Third_Party/LoRaWAN/Crypto/aes.c ****     ((uint8_t*)d)[ 8] = ((uint8_t*)s)[ 8];
 332:../../../../../../Middlewares/Third_Party/LoRaWAN/Crypto/aes.c ****     ((uint8_t*)d)[ 9] = ((uint8_t*)s)[ 9];
 333:../../../../../../Middlewares/Third_Party/LoRaWAN/Crypto/aes.c ****     ((uint8_t*)d)[10] = ((uint8_t*)s)[10];
 334:../../../../../../Middlewares/Third_Party/LoRaWAN/Crypto/aes.c ****     ((uint8_t*)d)[11] = ((uint8_t*)s)[11];
 335:../../../../../../Middlewares/Third_Party/LoRaWAN/Crypto/aes.c ****     ((uint8_t*)d)[12] = ((uint8_t*)s)[12];
 336:../../../../../../Middlewares/Third_Party/LoRaWAN/Crypto/aes.c ****     ((uint8_t*)d)[13] = ((uint8_t*)s)[13];
 337:../../../../../../Middlewares/Third_Party/LoRaWAN/Crypto/aes.c ****     ((uint8_t*)d)[14] = ((uint8_t*)s)[14];
 338:../../../../../../Middlewares/Third_Party/LoRaWAN/Crypto/aes.c ****     ((uint8_t*)d)[15] = ((uint8_t*)s)[15];
 339:../../../../../../Middlewares/Third_Party/LoRaWAN/Crypto/aes.c **** #endif
 340:../../../../../../Middlewares/Third_Party/LoRaWAN/Crypto/aes.c **** }
 341:../../../../../../Middlewares/Third_Party/LoRaWAN/Crypto/aes.c **** 
 342:../../../../../../Middlewares/Third_Party/LoRaWAN/Crypto/aes.c **** static void copy_block_nn( uint8_t * d, const uint8_t *s, uint8_t nn )
 343:../../../../../../Middlewares/Third_Party/LoRaWAN/Crypto/aes.c **** {
 344:../../../../../../Middlewares/Third_Party/LoRaWAN/Crypto/aes.c ****     while( nn-- )
 345:../../../../../../Middlewares/Third_Party/LoRaWAN/Crypto/aes.c ****         //*((uint8_t*)d)++ = *((uint8_t*)s)++;
 346:../../../../../../Middlewares/Third_Party/LoRaWAN/Crypto/aes.c ****         *d++ = *s++;
 347:../../../../../../Middlewares/Third_Party/LoRaWAN/Crypto/aes.c **** }
 348:../../../../../../Middlewares/Third_Party/LoRaWAN/Crypto/aes.c **** 
 349:../../../../../../Middlewares/Third_Party/LoRaWAN/Crypto/aes.c **** static void xor_block( void *d, const void *s )
 350:../../../../../../Middlewares/Third_Party/LoRaWAN/Crypto/aes.c **** {
 351:../../../../../../Middlewares/Third_Party/LoRaWAN/Crypto/aes.c **** #if defined( HAVE_UINT_32T )
 352:../../../../../../Middlewares/Third_Party/LoRaWAN/Crypto/aes.c ****     ((uint32_t*)d)[ 0] ^= ((uint32_t*)s)[ 0];
 353:../../../../../../Middlewares/Third_Party/LoRaWAN/Crypto/aes.c ****     ((uint32_t*)d)[ 1] ^= ((uint32_t*)s)[ 1];
 354:../../../../../../Middlewares/Third_Party/LoRaWAN/Crypto/aes.c ****     ((uint32_t*)d)[ 2] ^= ((uint32_t*)s)[ 2];
 355:../../../../../../Middlewares/Third_Party/LoRaWAN/Crypto/aes.c ****     ((uint32_t*)d)[ 3] ^= ((uint32_t*)s)[ 3];
 356:../../../../../../Middlewares/Third_Party/LoRaWAN/Crypto/aes.c **** #else
 357:../../../../../../Middlewares/Third_Party/LoRaWAN/Crypto/aes.c ****     ((uint8_t*)d)[ 0] ^= ((uint8_t*)s)[ 0];
 358:../../../../../../Middlewares/Third_Party/LoRaWAN/Crypto/aes.c ****     ((uint8_t*)d)[ 1] ^= ((uint8_t*)s)[ 1];
 359:../../../../../../Middlewares/Third_Party/LoRaWAN/Crypto/aes.c ****     ((uint8_t*)d)[ 2] ^= ((uint8_t*)s)[ 2];
 360:../../../../../../Middlewares/Third_Party/LoRaWAN/Crypto/aes.c ****     ((uint8_t*)d)[ 3] ^= ((uint8_t*)s)[ 3];
 361:../../../../../../Middlewares/Third_Party/LoRaWAN/Crypto/aes.c ****     ((uint8_t*)d)[ 4] ^= ((uint8_t*)s)[ 4];
 362:../../../../../../Middlewares/Third_Party/LoRaWAN/Crypto/aes.c ****     ((uint8_t*)d)[ 5] ^= ((uint8_t*)s)[ 5];
 363:../../../../../../Middlewares/Third_Party/LoRaWAN/Crypto/aes.c ****     ((uint8_t*)d)[ 6] ^= ((uint8_t*)s)[ 6];
 364:../../../../../../Middlewares/Third_Party/LoRaWAN/Crypto/aes.c ****     ((uint8_t*)d)[ 7] ^= ((uint8_t*)s)[ 7];
 365:../../../../../../Middlewares/Third_Party/LoRaWAN/Crypto/aes.c ****     ((uint8_t*)d)[ 8] ^= ((uint8_t*)s)[ 8];
 366:../../../../../../Middlewares/Third_Party/LoRaWAN/Crypto/aes.c ****     ((uint8_t*)d)[ 9] ^= ((uint8_t*)s)[ 9];
 367:../../../../../../Middlewares/Third_Party/LoRaWAN/Crypto/aes.c ****     ((uint8_t*)d)[10] ^= ((uint8_t*)s)[10];
 368:../../../../../../Middlewares/Third_Party/LoRaWAN/Crypto/aes.c ****     ((uint8_t*)d)[11] ^= ((uint8_t*)s)[11];
 369:../../../../../../Middlewares/Third_Party/LoRaWAN/Crypto/aes.c ****     ((uint8_t*)d)[12] ^= ((uint8_t*)s)[12];
 370:../../../../../../Middlewares/Third_Party/LoRaWAN/Crypto/aes.c ****     ((uint8_t*)d)[13] ^= ((uint8_t*)s)[13];
 371:../../../../../../Middlewares/Third_Party/LoRaWAN/Crypto/aes.c ****     ((uint8_t*)d)[14] ^= ((uint8_t*)s)[14];
 372:../../../../../../Middlewares/Third_Party/LoRaWAN/Crypto/aes.c ****     ((uint8_t*)d)[15] ^= ((uint8_t*)s)[15];
 373:../../../../../../Middlewares/Third_Party/LoRaWAN/Crypto/aes.c **** #endif
 374:../../../../../../Middlewares/Third_Party/LoRaWAN/Crypto/aes.c **** }
ARM GAS  C:\Users\EBANO_~1\AppData\Local\Temp\ccMXEZix.s 			page 8


 375:../../../../../../Middlewares/Third_Party/LoRaWAN/Crypto/aes.c **** 
 376:../../../../../../Middlewares/Third_Party/LoRaWAN/Crypto/aes.c **** static void copy_and_key( void *d, const void *s, const void *k )
 377:../../../../../../Middlewares/Third_Party/LoRaWAN/Crypto/aes.c **** {
 378:../../../../../../Middlewares/Third_Party/LoRaWAN/Crypto/aes.c **** #if defined( HAVE_UINT_32T )
 379:../../../../../../Middlewares/Third_Party/LoRaWAN/Crypto/aes.c ****     ((uint32_t*)d)[ 0] = ((uint32_t*)s)[ 0] ^ ((uint32_t*)k)[ 0];
 380:../../../../../../Middlewares/Third_Party/LoRaWAN/Crypto/aes.c ****     ((uint32_t*)d)[ 1] = ((uint32_t*)s)[ 1] ^ ((uint32_t*)k)[ 1];
 381:../../../../../../Middlewares/Third_Party/LoRaWAN/Crypto/aes.c ****     ((uint32_t*)d)[ 2] = ((uint32_t*)s)[ 2] ^ ((uint32_t*)k)[ 2];
 382:../../../../../../Middlewares/Third_Party/LoRaWAN/Crypto/aes.c ****     ((uint32_t*)d)[ 3] = ((uint32_t*)s)[ 3] ^ ((uint32_t*)k)[ 3];
 383:../../../../../../Middlewares/Third_Party/LoRaWAN/Crypto/aes.c **** #elif 1
 384:../../../../../../Middlewares/Third_Party/LoRaWAN/Crypto/aes.c ****     ((uint8_t*)d)[ 0] = ((uint8_t*)s)[ 0] ^ ((uint8_t*)k)[ 0];
 385:../../../../../../Middlewares/Third_Party/LoRaWAN/Crypto/aes.c ****     ((uint8_t*)d)[ 1] = ((uint8_t*)s)[ 1] ^ ((uint8_t*)k)[ 1];
 386:../../../../../../Middlewares/Third_Party/LoRaWAN/Crypto/aes.c ****     ((uint8_t*)d)[ 2] = ((uint8_t*)s)[ 2] ^ ((uint8_t*)k)[ 2];
 387:../../../../../../Middlewares/Third_Party/LoRaWAN/Crypto/aes.c ****     ((uint8_t*)d)[ 3] = ((uint8_t*)s)[ 3] ^ ((uint8_t*)k)[ 3];
 388:../../../../../../Middlewares/Third_Party/LoRaWAN/Crypto/aes.c ****     ((uint8_t*)d)[ 4] = ((uint8_t*)s)[ 4] ^ ((uint8_t*)k)[ 4];
 389:../../../../../../Middlewares/Third_Party/LoRaWAN/Crypto/aes.c ****     ((uint8_t*)d)[ 5] = ((uint8_t*)s)[ 5] ^ ((uint8_t*)k)[ 5];
 390:../../../../../../Middlewares/Third_Party/LoRaWAN/Crypto/aes.c ****     ((uint8_t*)d)[ 6] = ((uint8_t*)s)[ 6] ^ ((uint8_t*)k)[ 6];
 391:../../../../../../Middlewares/Third_Party/LoRaWAN/Crypto/aes.c ****     ((uint8_t*)d)[ 7] = ((uint8_t*)s)[ 7] ^ ((uint8_t*)k)[ 7];
 392:../../../../../../Middlewares/Third_Party/LoRaWAN/Crypto/aes.c ****     ((uint8_t*)d)[ 8] = ((uint8_t*)s)[ 8] ^ ((uint8_t*)k)[ 8];
 393:../../../../../../Middlewares/Third_Party/LoRaWAN/Crypto/aes.c ****     ((uint8_t*)d)[ 9] = ((uint8_t*)s)[ 9] ^ ((uint8_t*)k)[ 9];
 394:../../../../../../Middlewares/Third_Party/LoRaWAN/Crypto/aes.c ****     ((uint8_t*)d)[10] = ((uint8_t*)s)[10] ^ ((uint8_t*)k)[10];
 395:../../../../../../Middlewares/Third_Party/LoRaWAN/Crypto/aes.c ****     ((uint8_t*)d)[11] = ((uint8_t*)s)[11] ^ ((uint8_t*)k)[11];
 396:../../../../../../Middlewares/Third_Party/LoRaWAN/Crypto/aes.c ****     ((uint8_t*)d)[12] = ((uint8_t*)s)[12] ^ ((uint8_t*)k)[12];
 397:../../../../../../Middlewares/Third_Party/LoRaWAN/Crypto/aes.c ****     ((uint8_t*)d)[13] = ((uint8_t*)s)[13] ^ ((uint8_t*)k)[13];
 398:../../../../../../Middlewares/Third_Party/LoRaWAN/Crypto/aes.c ****     ((uint8_t*)d)[14] = ((uint8_t*)s)[14] ^ ((uint8_t*)k)[14];
 399:../../../../../../Middlewares/Third_Party/LoRaWAN/Crypto/aes.c ****     ((uint8_t*)d)[15] = ((uint8_t*)s)[15] ^ ((uint8_t*)k)[15];
 400:../../../../../../Middlewares/Third_Party/LoRaWAN/Crypto/aes.c **** #else
 401:../../../../../../Middlewares/Third_Party/LoRaWAN/Crypto/aes.c ****     block_copy(d, s);
 402:../../../../../../Middlewares/Third_Party/LoRaWAN/Crypto/aes.c ****     xor_block(d, k);
 403:../../../../../../Middlewares/Third_Party/LoRaWAN/Crypto/aes.c **** #endif
 404:../../../../../../Middlewares/Third_Party/LoRaWAN/Crypto/aes.c **** }
 405:../../../../../../Middlewares/Third_Party/LoRaWAN/Crypto/aes.c **** 
 406:../../../../../../Middlewares/Third_Party/LoRaWAN/Crypto/aes.c **** static void add_round_key( uint8_t d[N_BLOCK], const uint8_t k[N_BLOCK] )
 407:../../../../../../Middlewares/Third_Party/LoRaWAN/Crypto/aes.c **** {
 408:../../../../../../Middlewares/Third_Party/LoRaWAN/Crypto/aes.c ****     xor_block(d, k);
 409:../../../../../../Middlewares/Third_Party/LoRaWAN/Crypto/aes.c **** }
 410:../../../../../../Middlewares/Third_Party/LoRaWAN/Crypto/aes.c **** 
 411:../../../../../../Middlewares/Third_Party/LoRaWAN/Crypto/aes.c **** static void shift_sub_rows( uint8_t st[N_BLOCK] )
 412:../../../../../../Middlewares/Third_Party/LoRaWAN/Crypto/aes.c **** {   uint8_t tt;
 413:../../../../../../Middlewares/Third_Party/LoRaWAN/Crypto/aes.c **** 
 414:../../../../../../Middlewares/Third_Party/LoRaWAN/Crypto/aes.c ****     st[ 0] = s_box(st[ 0]); st[ 4] = s_box(st[ 4]);
 415:../../../../../../Middlewares/Third_Party/LoRaWAN/Crypto/aes.c ****     st[ 8] = s_box(st[ 8]); st[12] = s_box(st[12]);
 416:../../../../../../Middlewares/Third_Party/LoRaWAN/Crypto/aes.c **** 
 417:../../../../../../Middlewares/Third_Party/LoRaWAN/Crypto/aes.c ****     tt = st[1]; st[ 1] = s_box(st[ 5]); st[ 5] = s_box(st[ 9]);
 418:../../../../../../Middlewares/Third_Party/LoRaWAN/Crypto/aes.c ****     st[ 9] = s_box(st[13]); st[13] = s_box( tt );
 419:../../../../../../Middlewares/Third_Party/LoRaWAN/Crypto/aes.c **** 
 420:../../../../../../Middlewares/Third_Party/LoRaWAN/Crypto/aes.c ****     tt = st[2]; st[ 2] = s_box(st[10]); st[10] = s_box( tt );
 421:../../../../../../Middlewares/Third_Party/LoRaWAN/Crypto/aes.c ****     tt = st[6]; st[ 6] = s_box(st[14]); st[14] = s_box( tt );
 422:../../../../../../Middlewares/Third_Party/LoRaWAN/Crypto/aes.c **** 
 423:../../../../../../Middlewares/Third_Party/LoRaWAN/Crypto/aes.c ****     tt = st[15]; st[15] = s_box(st[11]); st[11] = s_box(st[ 7]);
 424:../../../../../../Middlewares/Third_Party/LoRaWAN/Crypto/aes.c ****     st[ 7] = s_box(st[ 3]); st[ 3] = s_box( tt );
 425:../../../../../../Middlewares/Third_Party/LoRaWAN/Crypto/aes.c **** }
 426:../../../../../../Middlewares/Third_Party/LoRaWAN/Crypto/aes.c **** 
 427:../../../../../../Middlewares/Third_Party/LoRaWAN/Crypto/aes.c **** #if defined( AES_DEC_PREKEYED )
 428:../../../../../../Middlewares/Third_Party/LoRaWAN/Crypto/aes.c **** 
 429:../../../../../../Middlewares/Third_Party/LoRaWAN/Crypto/aes.c **** static void inv_shift_sub_rows( uint8_t st[N_BLOCK] )
 430:../../../../../../Middlewares/Third_Party/LoRaWAN/Crypto/aes.c **** {   uint8_t tt;
 431:../../../../../../Middlewares/Third_Party/LoRaWAN/Crypto/aes.c **** 
ARM GAS  C:\Users\EBANO_~1\AppData\Local\Temp\ccMXEZix.s 			page 9


 432:../../../../../../Middlewares/Third_Party/LoRaWAN/Crypto/aes.c ****     st[ 0] = is_box(st[ 0]); st[ 4] = is_box(st[ 4]);
 433:../../../../../../Middlewares/Third_Party/LoRaWAN/Crypto/aes.c ****     st[ 8] = is_box(st[ 8]); st[12] = is_box(st[12]);
 434:../../../../../../Middlewares/Third_Party/LoRaWAN/Crypto/aes.c **** 
 435:../../../../../../Middlewares/Third_Party/LoRaWAN/Crypto/aes.c ****     tt = st[13]; st[13] = is_box(st[9]); st[ 9] = is_box(st[5]);
 436:../../../../../../Middlewares/Third_Party/LoRaWAN/Crypto/aes.c ****     st[ 5] = is_box(st[1]); st[ 1] = is_box( tt );
 437:../../../../../../Middlewares/Third_Party/LoRaWAN/Crypto/aes.c **** 
 438:../../../../../../Middlewares/Third_Party/LoRaWAN/Crypto/aes.c ****     tt = st[2]; st[ 2] = is_box(st[10]); st[10] = is_box( tt );
 439:../../../../../../Middlewares/Third_Party/LoRaWAN/Crypto/aes.c ****     tt = st[6]; st[ 6] = is_box(st[14]); st[14] = is_box( tt );
 440:../../../../../../Middlewares/Third_Party/LoRaWAN/Crypto/aes.c **** 
 441:../../../../../../Middlewares/Third_Party/LoRaWAN/Crypto/aes.c ****     tt = st[3]; st[ 3] = is_box(st[ 7]); st[ 7] = is_box(st[11]);
 442:../../../../../../Middlewares/Third_Party/LoRaWAN/Crypto/aes.c ****     st[11] = is_box(st[15]); st[15] = is_box( tt );
 443:../../../../../../Middlewares/Third_Party/LoRaWAN/Crypto/aes.c **** }
 444:../../../../../../Middlewares/Third_Party/LoRaWAN/Crypto/aes.c **** 
 445:../../../../../../Middlewares/Third_Party/LoRaWAN/Crypto/aes.c **** #endif
 446:../../../../../../Middlewares/Third_Party/LoRaWAN/Crypto/aes.c **** 
 447:../../../../../../Middlewares/Third_Party/LoRaWAN/Crypto/aes.c **** #if defined( VERSION_1 )
 448:../../../../../../Middlewares/Third_Party/LoRaWAN/Crypto/aes.c ****   static void mix_sub_columns( uint8_t dt[N_BLOCK] )
 449:../../../../../../Middlewares/Third_Party/LoRaWAN/Crypto/aes.c ****   { uint8_t st[N_BLOCK];
 450:../../../../../../Middlewares/Third_Party/LoRaWAN/Crypto/aes.c ****     block_copy(st, dt);
 451:../../../../../../Middlewares/Third_Party/LoRaWAN/Crypto/aes.c **** #else
 452:../../../../../../Middlewares/Third_Party/LoRaWAN/Crypto/aes.c ****   static void mix_sub_columns( uint8_t dt[N_BLOCK], uint8_t st[N_BLOCK] )
 453:../../../../../../Middlewares/Third_Party/LoRaWAN/Crypto/aes.c ****   {
 454:../../../../../../Middlewares/Third_Party/LoRaWAN/Crypto/aes.c **** #endif
 455:../../../../../../Middlewares/Third_Party/LoRaWAN/Crypto/aes.c ****     dt[ 0] = gfm2_sb(st[0]) ^ gfm3_sb(st[5]) ^ s_box(st[10]) ^ s_box(st[15]);
 456:../../../../../../Middlewares/Third_Party/LoRaWAN/Crypto/aes.c ****     dt[ 1] = s_box(st[0]) ^ gfm2_sb(st[5]) ^ gfm3_sb(st[10]) ^ s_box(st[15]);
 457:../../../../../../Middlewares/Third_Party/LoRaWAN/Crypto/aes.c ****     dt[ 2] = s_box(st[0]) ^ s_box(st[5]) ^ gfm2_sb(st[10]) ^ gfm3_sb(st[15]);
 458:../../../../../../Middlewares/Third_Party/LoRaWAN/Crypto/aes.c ****     dt[ 3] = gfm3_sb(st[0]) ^ s_box(st[5]) ^ s_box(st[10]) ^ gfm2_sb(st[15]);
 459:../../../../../../Middlewares/Third_Party/LoRaWAN/Crypto/aes.c **** 
 460:../../../../../../Middlewares/Third_Party/LoRaWAN/Crypto/aes.c ****     dt[ 4] = gfm2_sb(st[4]) ^ gfm3_sb(st[9]) ^ s_box(st[14]) ^ s_box(st[3]);
 461:../../../../../../Middlewares/Third_Party/LoRaWAN/Crypto/aes.c ****     dt[ 5] = s_box(st[4]) ^ gfm2_sb(st[9]) ^ gfm3_sb(st[14]) ^ s_box(st[3]);
 462:../../../../../../Middlewares/Third_Party/LoRaWAN/Crypto/aes.c ****     dt[ 6] = s_box(st[4]) ^ s_box(st[9]) ^ gfm2_sb(st[14]) ^ gfm3_sb(st[3]);
 463:../../../../../../Middlewares/Third_Party/LoRaWAN/Crypto/aes.c ****     dt[ 7] = gfm3_sb(st[4]) ^ s_box(st[9]) ^ s_box(st[14]) ^ gfm2_sb(st[3]);
 464:../../../../../../Middlewares/Third_Party/LoRaWAN/Crypto/aes.c **** 
 465:../../../../../../Middlewares/Third_Party/LoRaWAN/Crypto/aes.c ****     dt[ 8] = gfm2_sb(st[8]) ^ gfm3_sb(st[13]) ^ s_box(st[2]) ^ s_box(st[7]);
 466:../../../../../../Middlewares/Third_Party/LoRaWAN/Crypto/aes.c ****     dt[ 9] = s_box(st[8]) ^ gfm2_sb(st[13]) ^ gfm3_sb(st[2]) ^ s_box(st[7]);
 467:../../../../../../Middlewares/Third_Party/LoRaWAN/Crypto/aes.c ****     dt[10] = s_box(st[8]) ^ s_box(st[13]) ^ gfm2_sb(st[2]) ^ gfm3_sb(st[7]);
 468:../../../../../../Middlewares/Third_Party/LoRaWAN/Crypto/aes.c ****     dt[11] = gfm3_sb(st[8]) ^ s_box(st[13]) ^ s_box(st[2]) ^ gfm2_sb(st[7]);
 469:../../../../../../Middlewares/Third_Party/LoRaWAN/Crypto/aes.c **** 
 470:../../../../../../Middlewares/Third_Party/LoRaWAN/Crypto/aes.c ****     dt[12] = gfm2_sb(st[12]) ^ gfm3_sb(st[1]) ^ s_box(st[6]) ^ s_box(st[11]);
 471:../../../../../../Middlewares/Third_Party/LoRaWAN/Crypto/aes.c ****     dt[13] = s_box(st[12]) ^ gfm2_sb(st[1]) ^ gfm3_sb(st[6]) ^ s_box(st[11]);
 472:../../../../../../Middlewares/Third_Party/LoRaWAN/Crypto/aes.c ****     dt[14] = s_box(st[12]) ^ s_box(st[1]) ^ gfm2_sb(st[6]) ^ gfm3_sb(st[11]);
 473:../../../../../../Middlewares/Third_Party/LoRaWAN/Crypto/aes.c ****     dt[15] = gfm3_sb(st[12]) ^ s_box(st[1]) ^ s_box(st[6]) ^ gfm2_sb(st[11]);
 474:../../../../../../Middlewares/Third_Party/LoRaWAN/Crypto/aes.c ****   }
 475:../../../../../../Middlewares/Third_Party/LoRaWAN/Crypto/aes.c **** 
 476:../../../../../../Middlewares/Third_Party/LoRaWAN/Crypto/aes.c **** #if defined( AES_DEC_PREKEYED )
 477:../../../../../../Middlewares/Third_Party/LoRaWAN/Crypto/aes.c **** 
 478:../../../../../../Middlewares/Third_Party/LoRaWAN/Crypto/aes.c **** #if defined( VERSION_1 )
 479:../../../../../../Middlewares/Third_Party/LoRaWAN/Crypto/aes.c ****   static void inv_mix_sub_columns( uint8_t dt[N_BLOCK] )
 480:../../../../../../Middlewares/Third_Party/LoRaWAN/Crypto/aes.c ****   { uint8_t st[N_BLOCK];
 481:../../../../../../Middlewares/Third_Party/LoRaWAN/Crypto/aes.c ****     block_copy(st, dt);
 482:../../../../../../Middlewares/Third_Party/LoRaWAN/Crypto/aes.c **** #else
 483:../../../../../../Middlewares/Third_Party/LoRaWAN/Crypto/aes.c ****   static void inv_mix_sub_columns( uint8_t dt[N_BLOCK], uint8_t st[N_BLOCK] )
 484:../../../../../../Middlewares/Third_Party/LoRaWAN/Crypto/aes.c ****   {
 485:../../../../../../Middlewares/Third_Party/LoRaWAN/Crypto/aes.c **** #endif
 486:../../../../../../Middlewares/Third_Party/LoRaWAN/Crypto/aes.c ****     dt[ 0] = is_box(gfm_e(st[ 0]) ^ gfm_b(st[ 1]) ^ gfm_d(st[ 2]) ^ gfm_9(st[ 3]));
 487:../../../../../../Middlewares/Third_Party/LoRaWAN/Crypto/aes.c ****     dt[ 5] = is_box(gfm_9(st[ 0]) ^ gfm_e(st[ 1]) ^ gfm_b(st[ 2]) ^ gfm_d(st[ 3]));
 488:../../../../../../Middlewares/Third_Party/LoRaWAN/Crypto/aes.c ****     dt[10] = is_box(gfm_d(st[ 0]) ^ gfm_9(st[ 1]) ^ gfm_e(st[ 2]) ^ gfm_b(st[ 3]));
ARM GAS  C:\Users\EBANO_~1\AppData\Local\Temp\ccMXEZix.s 			page 10


 489:../../../../../../Middlewares/Third_Party/LoRaWAN/Crypto/aes.c ****     dt[15] = is_box(gfm_b(st[ 0]) ^ gfm_d(st[ 1]) ^ gfm_9(st[ 2]) ^ gfm_e(st[ 3]));
 490:../../../../../../Middlewares/Third_Party/LoRaWAN/Crypto/aes.c **** 
 491:../../../../../../Middlewares/Third_Party/LoRaWAN/Crypto/aes.c ****     dt[ 4] = is_box(gfm_e(st[ 4]) ^ gfm_b(st[ 5]) ^ gfm_d(st[ 6]) ^ gfm_9(st[ 7]));
 492:../../../../../../Middlewares/Third_Party/LoRaWAN/Crypto/aes.c ****     dt[ 9] = is_box(gfm_9(st[ 4]) ^ gfm_e(st[ 5]) ^ gfm_b(st[ 6]) ^ gfm_d(st[ 7]));
 493:../../../../../../Middlewares/Third_Party/LoRaWAN/Crypto/aes.c ****     dt[14] = is_box(gfm_d(st[ 4]) ^ gfm_9(st[ 5]) ^ gfm_e(st[ 6]) ^ gfm_b(st[ 7]));
 494:../../../../../../Middlewares/Third_Party/LoRaWAN/Crypto/aes.c ****     dt[ 3] = is_box(gfm_b(st[ 4]) ^ gfm_d(st[ 5]) ^ gfm_9(st[ 6]) ^ gfm_e(st[ 7]));
 495:../../../../../../Middlewares/Third_Party/LoRaWAN/Crypto/aes.c **** 
 496:../../../../../../Middlewares/Third_Party/LoRaWAN/Crypto/aes.c ****     dt[ 8] = is_box(gfm_e(st[ 8]) ^ gfm_b(st[ 9]) ^ gfm_d(st[10]) ^ gfm_9(st[11]));
 497:../../../../../../Middlewares/Third_Party/LoRaWAN/Crypto/aes.c ****     dt[13] = is_box(gfm_9(st[ 8]) ^ gfm_e(st[ 9]) ^ gfm_b(st[10]) ^ gfm_d(st[11]));
 498:../../../../../../Middlewares/Third_Party/LoRaWAN/Crypto/aes.c ****     dt[ 2] = is_box(gfm_d(st[ 8]) ^ gfm_9(st[ 9]) ^ gfm_e(st[10]) ^ gfm_b(st[11]));
 499:../../../../../../Middlewares/Third_Party/LoRaWAN/Crypto/aes.c ****     dt[ 7] = is_box(gfm_b(st[ 8]) ^ gfm_d(st[ 9]) ^ gfm_9(st[10]) ^ gfm_e(st[11]));
 500:../../../../../../Middlewares/Third_Party/LoRaWAN/Crypto/aes.c **** 
 501:../../../../../../Middlewares/Third_Party/LoRaWAN/Crypto/aes.c ****     dt[12] = is_box(gfm_e(st[12]) ^ gfm_b(st[13]) ^ gfm_d(st[14]) ^ gfm_9(st[15]));
 502:../../../../../../Middlewares/Third_Party/LoRaWAN/Crypto/aes.c ****     dt[ 1] = is_box(gfm_9(st[12]) ^ gfm_e(st[13]) ^ gfm_b(st[14]) ^ gfm_d(st[15]));
 503:../../../../../../Middlewares/Third_Party/LoRaWAN/Crypto/aes.c ****     dt[ 6] = is_box(gfm_d(st[12]) ^ gfm_9(st[13]) ^ gfm_e(st[14]) ^ gfm_b(st[15]));
 504:../../../../../../Middlewares/Third_Party/LoRaWAN/Crypto/aes.c ****     dt[11] = is_box(gfm_b(st[12]) ^ gfm_d(st[13]) ^ gfm_9(st[14]) ^ gfm_e(st[15]));
 505:../../../../../../Middlewares/Third_Party/LoRaWAN/Crypto/aes.c ****   }
 506:../../../../../../Middlewares/Third_Party/LoRaWAN/Crypto/aes.c **** 
 507:../../../../../../Middlewares/Third_Party/LoRaWAN/Crypto/aes.c **** #endif
 508:../../../../../../Middlewares/Third_Party/LoRaWAN/Crypto/aes.c **** 
 509:../../../../../../Middlewares/Third_Party/LoRaWAN/Crypto/aes.c **** #if defined( AES_ENC_PREKEYED ) || defined( AES_DEC_PREKEYED )
 510:../../../../../../Middlewares/Third_Party/LoRaWAN/Crypto/aes.c **** 
 511:../../../../../../Middlewares/Third_Party/LoRaWAN/Crypto/aes.c **** /*  Set the cipher key for the pre-keyed version */
 512:../../../../../../Middlewares/Third_Party/LoRaWAN/Crypto/aes.c **** 
 513:../../../../../../Middlewares/Third_Party/LoRaWAN/Crypto/aes.c **** return_type aes_set_key( const uint8_t key[], length_type keylen, aes_context ctx[1] )
 514:../../../../../../Middlewares/Third_Party/LoRaWAN/Crypto/aes.c **** {
 515:../../../../../../Middlewares/Third_Party/LoRaWAN/Crypto/aes.c ****     uint8_t cc, rc, hi;
 516:../../../../../../Middlewares/Third_Party/LoRaWAN/Crypto/aes.c **** 
 517:../../../../../../Middlewares/Third_Party/LoRaWAN/Crypto/aes.c ****     switch( keylen )
 518:../../../../../../Middlewares/Third_Party/LoRaWAN/Crypto/aes.c ****     {
 519:../../../../../../Middlewares/Third_Party/LoRaWAN/Crypto/aes.c ****     case 16:
 520:../../../../../../Middlewares/Third_Party/LoRaWAN/Crypto/aes.c ****     case 24:
 521:../../../../../../Middlewares/Third_Party/LoRaWAN/Crypto/aes.c ****     case 32:
 522:../../../../../../Middlewares/Third_Party/LoRaWAN/Crypto/aes.c ****         break;
 523:../../../../../../Middlewares/Third_Party/LoRaWAN/Crypto/aes.c ****     default:
 524:../../../../../../Middlewares/Third_Party/LoRaWAN/Crypto/aes.c ****         ctx->rnd = 0;
 525:../../../../../../Middlewares/Third_Party/LoRaWAN/Crypto/aes.c ****         return ( uint8_t )-1;
 526:../../../../../../Middlewares/Third_Party/LoRaWAN/Crypto/aes.c ****     }
 527:../../../../../../Middlewares/Third_Party/LoRaWAN/Crypto/aes.c ****     block_copy_nn(ctx->ksch, key, keylen);
 528:../../../../../../Middlewares/Third_Party/LoRaWAN/Crypto/aes.c ****     hi = (keylen + 28) << 2;
 529:../../../../../../Middlewares/Third_Party/LoRaWAN/Crypto/aes.c ****     ctx->rnd = (hi >> 4) - 1;
 530:../../../../../../Middlewares/Third_Party/LoRaWAN/Crypto/aes.c ****     for( cc = keylen, rc = 1; cc < hi; cc += 4 )
 531:../../../../../../Middlewares/Third_Party/LoRaWAN/Crypto/aes.c ****     {   uint8_t tt, t0, t1, t2, t3;
 532:../../../../../../Middlewares/Third_Party/LoRaWAN/Crypto/aes.c **** 
 533:../../../../../../Middlewares/Third_Party/LoRaWAN/Crypto/aes.c ****         t0 = ctx->ksch[cc - 4];
 534:../../../../../../Middlewares/Third_Party/LoRaWAN/Crypto/aes.c ****         t1 = ctx->ksch[cc - 3];
 535:../../../../../../Middlewares/Third_Party/LoRaWAN/Crypto/aes.c ****         t2 = ctx->ksch[cc - 2];
 536:../../../../../../Middlewares/Third_Party/LoRaWAN/Crypto/aes.c ****         t3 = ctx->ksch[cc - 1];
 537:../../../../../../Middlewares/Third_Party/LoRaWAN/Crypto/aes.c ****         if( cc % keylen == 0 )
 538:../../../../../../Middlewares/Third_Party/LoRaWAN/Crypto/aes.c ****         {
 539:../../../../../../Middlewares/Third_Party/LoRaWAN/Crypto/aes.c ****             tt = t0;
 540:../../../../../../Middlewares/Third_Party/LoRaWAN/Crypto/aes.c ****             t0 = s_box(t1) ^ rc;
 541:../../../../../../Middlewares/Third_Party/LoRaWAN/Crypto/aes.c ****             t1 = s_box(t2);
 542:../../../../../../Middlewares/Third_Party/LoRaWAN/Crypto/aes.c ****             t2 = s_box(t3);
 543:../../../../../../Middlewares/Third_Party/LoRaWAN/Crypto/aes.c ****             t3 = s_box(tt);
 544:../../../../../../Middlewares/Third_Party/LoRaWAN/Crypto/aes.c ****             rc = f2(rc);
 545:../../../../../../Middlewares/Third_Party/LoRaWAN/Crypto/aes.c ****         }
ARM GAS  C:\Users\EBANO_~1\AppData\Local\Temp\ccMXEZix.s 			page 11


 546:../../../../../../Middlewares/Third_Party/LoRaWAN/Crypto/aes.c ****         else if( keylen > 24 && cc % keylen == 16 )
 547:../../../../../../Middlewares/Third_Party/LoRaWAN/Crypto/aes.c ****         {
 548:../../../../../../Middlewares/Third_Party/LoRaWAN/Crypto/aes.c ****             t0 = s_box(t0);
 549:../../../../../../Middlewares/Third_Party/LoRaWAN/Crypto/aes.c ****             t1 = s_box(t1);
 550:../../../../../../Middlewares/Third_Party/LoRaWAN/Crypto/aes.c ****             t2 = s_box(t2);
 551:../../../../../../Middlewares/Third_Party/LoRaWAN/Crypto/aes.c ****             t3 = s_box(t3);
 552:../../../../../../Middlewares/Third_Party/LoRaWAN/Crypto/aes.c ****         }
 553:../../../../../../Middlewares/Third_Party/LoRaWAN/Crypto/aes.c ****         tt = cc - keylen;
 554:../../../../../../Middlewares/Third_Party/LoRaWAN/Crypto/aes.c ****         ctx->ksch[cc + 0] = ctx->ksch[tt + 0] ^ t0;
 555:../../../../../../Middlewares/Third_Party/LoRaWAN/Crypto/aes.c ****         ctx->ksch[cc + 1] = ctx->ksch[tt + 1] ^ t1;
 556:../../../../../../Middlewares/Third_Party/LoRaWAN/Crypto/aes.c ****         ctx->ksch[cc + 2] = ctx->ksch[tt + 2] ^ t2;
 557:../../../../../../Middlewares/Third_Party/LoRaWAN/Crypto/aes.c ****         ctx->ksch[cc + 3] = ctx->ksch[tt + 3] ^ t3;
 558:../../../../../../Middlewares/Third_Party/LoRaWAN/Crypto/aes.c ****     }
 559:../../../../../../Middlewares/Third_Party/LoRaWAN/Crypto/aes.c ****     return 0;
 560:../../../../../../Middlewares/Third_Party/LoRaWAN/Crypto/aes.c **** }
 561:../../../../../../Middlewares/Third_Party/LoRaWAN/Crypto/aes.c **** 
 562:../../../../../../Middlewares/Third_Party/LoRaWAN/Crypto/aes.c **** #endif
 563:../../../../../../Middlewares/Third_Party/LoRaWAN/Crypto/aes.c **** 
 564:../../../../../../Middlewares/Third_Party/LoRaWAN/Crypto/aes.c **** #if defined( AES_ENC_PREKEYED )
 565:../../../../../../Middlewares/Third_Party/LoRaWAN/Crypto/aes.c **** 
 566:../../../../../../Middlewares/Third_Party/LoRaWAN/Crypto/aes.c **** /*  Encrypt a single block of 16 bytes */
 567:../../../../../../Middlewares/Third_Party/LoRaWAN/Crypto/aes.c **** 
 568:../../../../../../Middlewares/Third_Party/LoRaWAN/Crypto/aes.c **** return_type aes_encrypt( const uint8_t in[N_BLOCK], uint8_t  out[N_BLOCK], const aes_context ctx[1]
  26              		.loc 1 568 0
  27              		.cfi_startproc
  28              		@ args = 0, pretend = 0, frame = 152
  29              		@ frame_needed = 0, uses_anonymous_args = 0
  30              	.LVL0:
  31 0000 F0B5     		push	{r4, r5, r6, r7, lr}
  32              	.LCFI0:
  33              		.cfi_def_cfa_offset 20
  34              		.cfi_offset 4, -20
  35              		.cfi_offset 5, -16
  36              		.cfi_offset 6, -12
  37              		.cfi_offset 7, -8
  38              		.cfi_offset 14, -4
  39 0002 4546     		mov	r5, r8
  40 0004 DE46     		mov	lr, fp
  41 0006 5746     		mov	r7, r10
  42 0008 4E46     		mov	r6, r9
  43 000a E0B5     		push	{r5, r6, r7, lr}
  44              	.LCFI1:
  45              		.cfi_def_cfa_offset 36
  46              		.cfi_offset 8, -36
  47              		.cfi_offset 9, -32
  48              		.cfi_offset 10, -28
  49              		.cfi_offset 11, -24
  50 000c A7B0     		sub	sp, sp, #156
  51              	.LCFI2:
  52              		.cfi_def_cfa_offset 192
  53              		.loc 1 568 0
  54 000e 2391     		str	r1, [sp, #140]
  55 0010 1100     		movs	r1, r2
  56              	.LVL1:
  57 0012 2492     		str	r2, [sp, #144]
  58              	.LBB32:
  59              	.LBB33:
ARM GAS  C:\Users\EBANO_~1\AppData\Local\Temp\ccMXEZix.s 			page 12


  60              	.LBB34:
 384:../../../../../../Middlewares/Third_Party/LoRaWAN/Crypto/aes.c ****     ((uint8_t*)d)[ 1] = ((uint8_t*)s)[ 1] ^ ((uint8_t*)k)[ 1];
  61              		.loc 1 384 0
  62 0014 0B78     		ldrb	r3, [r1]
  63 0016 0278     		ldrb	r2, [r0]
  64              	.LVL2:
  65 0018 5A40     		eors	r2, r3
  66 001a 9346     		mov	fp, r2
  67              	.LVL3:
 385:../../../../../../Middlewares/Third_Party/LoRaWAN/Crypto/aes.c ****     ((uint8_t*)d)[ 2] = ((uint8_t*)s)[ 2] ^ ((uint8_t*)k)[ 2];
  68              		.loc 1 385 0
  69 001c 4B78     		ldrb	r3, [r1, #1]
  70 001e 4278     		ldrb	r2, [r0, #1]
  71 0020 5A40     		eors	r2, r3
  72 0022 0E92     		str	r2, [sp, #56]
  73              	.LVL4:
 386:../../../../../../Middlewares/Third_Party/LoRaWAN/Crypto/aes.c ****     ((uint8_t*)d)[ 3] = ((uint8_t*)s)[ 3] ^ ((uint8_t*)k)[ 3];
  74              		.loc 1 386 0
  75 0024 8B78     		ldrb	r3, [r1, #2]
  76 0026 8278     		ldrb	r2, [r0, #2]
  77 0028 5A40     		eors	r2, r3
  78 002a 0F92     		str	r2, [sp, #60]
  79              	.LVL5:
 387:../../../../../../Middlewares/Third_Party/LoRaWAN/Crypto/aes.c ****     ((uint8_t*)d)[ 4] = ((uint8_t*)s)[ 4] ^ ((uint8_t*)k)[ 4];
  80              		.loc 1 387 0
  81 002c CB78     		ldrb	r3, [r1, #3]
  82 002e C278     		ldrb	r2, [r0, #3]
  83 0030 5A40     		eors	r2, r3
  84 0032 1092     		str	r2, [sp, #64]
  85              	.LVL6:
 388:../../../../../../Middlewares/Third_Party/LoRaWAN/Crypto/aes.c ****     ((uint8_t*)d)[ 5] = ((uint8_t*)s)[ 5] ^ ((uint8_t*)k)[ 5];
  86              		.loc 1 388 0
  87 0034 0B79     		ldrb	r3, [r1, #4]
  88 0036 0279     		ldrb	r2, [r0, #4]
  89 0038 5A40     		eors	r2, r3
  90 003a 1192     		str	r2, [sp, #68]
  91              	.LVL7:
 389:../../../../../../Middlewares/Third_Party/LoRaWAN/Crypto/aes.c ****     ((uint8_t*)d)[ 6] = ((uint8_t*)s)[ 6] ^ ((uint8_t*)k)[ 6];
  92              		.loc 1 389 0
  93 003c 4B79     		ldrb	r3, [r1, #5]
  94 003e 4279     		ldrb	r2, [r0, #5]
  95 0040 5A40     		eors	r2, r3
  96 0042 0192     		str	r2, [sp, #4]
  97              	.LVL8:
 390:../../../../../../Middlewares/Third_Party/LoRaWAN/Crypto/aes.c ****     ((uint8_t*)d)[ 7] = ((uint8_t*)s)[ 7] ^ ((uint8_t*)k)[ 7];
  98              		.loc 1 390 0
  99 0044 8B79     		ldrb	r3, [r1, #6]
 100 0046 8279     		ldrb	r2, [r0, #6]
 101 0048 5A40     		eors	r2, r3
 102 004a 1292     		str	r2, [sp, #72]
 103              	.LVL9:
 391:../../../../../../Middlewares/Third_Party/LoRaWAN/Crypto/aes.c ****     ((uint8_t*)d)[ 8] = ((uint8_t*)s)[ 8] ^ ((uint8_t*)k)[ 8];
 104              		.loc 1 391 0
 105 004c CB79     		ldrb	r3, [r1, #7]
 106 004e C279     		ldrb	r2, [r0, #7]
 107 0050 5A40     		eors	r2, r3
 108 0052 1392     		str	r2, [sp, #76]
ARM GAS  C:\Users\EBANO_~1\AppData\Local\Temp\ccMXEZix.s 			page 13


 109              	.LVL10:
 392:../../../../../../Middlewares/Third_Party/LoRaWAN/Crypto/aes.c ****     ((uint8_t*)d)[ 9] = ((uint8_t*)s)[ 9] ^ ((uint8_t*)k)[ 9];
 110              		.loc 1 392 0
 111 0054 0B7A     		ldrb	r3, [r1, #8]
 112 0056 027A     		ldrb	r2, [r0, #8]
 113 0058 5A40     		eors	r2, r3
 114 005a 1492     		str	r2, [sp, #80]
 115              	.LVL11:
 393:../../../../../../Middlewares/Third_Party/LoRaWAN/Crypto/aes.c ****     ((uint8_t*)d)[10] = ((uint8_t*)s)[10] ^ ((uint8_t*)k)[10];
 116              		.loc 1 393 0
 117 005c 4B7A     		ldrb	r3, [r1, #9]
 118 005e 427A     		ldrb	r2, [r0, #9]
 394:../../../../../../Middlewares/Third_Party/LoRaWAN/Crypto/aes.c ****     ((uint8_t*)d)[11] = ((uint8_t*)s)[11] ^ ((uint8_t*)k)[11];
 119              		.loc 1 394 0
 120 0060 877A     		ldrb	r7, [r0, #10]
 393:../../../../../../Middlewares/Third_Party/LoRaWAN/Crypto/aes.c ****     ((uint8_t*)d)[10] = ((uint8_t*)s)[10] ^ ((uint8_t*)k)[10];
 121              		.loc 1 393 0
 122 0062 5A40     		eors	r2, r3
 394:../../../../../../Middlewares/Third_Party/LoRaWAN/Crypto/aes.c ****     ((uint8_t*)d)[11] = ((uint8_t*)s)[11] ^ ((uint8_t*)k)[11];
 123              		.loc 1 394 0
 124 0064 8B7A     		ldrb	r3, [r1, #10]
 395:../../../../../../Middlewares/Third_Party/LoRaWAN/Crypto/aes.c ****     ((uint8_t*)d)[12] = ((uint8_t*)s)[12] ^ ((uint8_t*)k)[12];
 125              		.loc 1 395 0
 126 0066 C67A     		ldrb	r6, [r0, #11]
 394:../../../../../../Middlewares/Third_Party/LoRaWAN/Crypto/aes.c ****     ((uint8_t*)d)[11] = ((uint8_t*)s)[11] ^ ((uint8_t*)k)[11];
 127              		.loc 1 394 0
 128 0068 5F40     		eors	r7, r3
 395:../../../../../../Middlewares/Third_Party/LoRaWAN/Crypto/aes.c ****     ((uint8_t*)d)[12] = ((uint8_t*)s)[12] ^ ((uint8_t*)k)[12];
 129              		.loc 1 395 0
 130 006a CB7A     		ldrb	r3, [r1, #11]
 396:../../../../../../Middlewares/Third_Party/LoRaWAN/Crypto/aes.c ****     ((uint8_t*)d)[13] = ((uint8_t*)s)[13] ^ ((uint8_t*)k)[13];
 131              		.loc 1 396 0
 132 006c 057B     		ldrb	r5, [r0, #12]
 395:../../../../../../Middlewares/Third_Party/LoRaWAN/Crypto/aes.c ****     ((uint8_t*)d)[12] = ((uint8_t*)s)[12] ^ ((uint8_t*)k)[12];
 133              		.loc 1 395 0
 134 006e 5E40     		eors	r6, r3
 396:../../../../../../Middlewares/Third_Party/LoRaWAN/Crypto/aes.c ****     ((uint8_t*)d)[13] = ((uint8_t*)s)[13] ^ ((uint8_t*)k)[13];
 135              		.loc 1 396 0
 136 0070 0B7B     		ldrb	r3, [r1, #12]
 397:../../../../../../Middlewares/Third_Party/LoRaWAN/Crypto/aes.c ****     ((uint8_t*)d)[14] = ((uint8_t*)s)[14] ^ ((uint8_t*)k)[14];
 137              		.loc 1 397 0
 138 0072 447B     		ldrb	r4, [r0, #13]
 396:../../../../../../Middlewares/Third_Party/LoRaWAN/Crypto/aes.c ****     ((uint8_t*)d)[13] = ((uint8_t*)s)[13] ^ ((uint8_t*)k)[13];
 139              		.loc 1 396 0
 140 0074 5D40     		eors	r5, r3
 397:../../../../../../Middlewares/Third_Party/LoRaWAN/Crypto/aes.c ****     ((uint8_t*)d)[14] = ((uint8_t*)s)[14] ^ ((uint8_t*)k)[14];
 141              		.loc 1 397 0
 142 0076 4B7B     		ldrb	r3, [r1, #13]
 393:../../../../../../Middlewares/Third_Party/LoRaWAN/Crypto/aes.c ****     ((uint8_t*)d)[10] = ((uint8_t*)s)[10] ^ ((uint8_t*)k)[10];
 143              		.loc 1 393 0
 144 0078 9046     		mov	r8, r2
 145              	.LVL12:
 397:../../../../../../Middlewares/Third_Party/LoRaWAN/Crypto/aes.c ****     ((uint8_t*)d)[14] = ((uint8_t*)s)[14] ^ ((uint8_t*)k)[14];
 146              		.loc 1 397 0
 147 007a 5C40     		eors	r4, r3
 148 007c 0394     		str	r4, [sp, #12]
 398:../../../../../../Middlewares/Third_Party/LoRaWAN/Crypto/aes.c ****     ((uint8_t*)d)[15] = ((uint8_t*)s)[15] ^ ((uint8_t*)k)[15];
ARM GAS  C:\Users\EBANO_~1\AppData\Local\Temp\ccMXEZix.s 			page 14


 149              		.loc 1 398 0
 150 007e 827B     		ldrb	r2, [r0, #14]
 151 0080 8C7B     		ldrb	r4, [r1, #14]
 399:../../../../../../Middlewares/Third_Party/LoRaWAN/Crypto/aes.c **** #else
 152              		.loc 1 399 0
 153 0082 CB7B     		ldrb	r3, [r1, #15]
 398:../../../../../../Middlewares/Third_Party/LoRaWAN/Crypto/aes.c ****     ((uint8_t*)d)[15] = ((uint8_t*)s)[15] ^ ((uint8_t*)k)[15];
 154              		.loc 1 398 0
 155 0084 5440     		eors	r4, r2
 399:../../../../../../Middlewares/Third_Party/LoRaWAN/Crypto/aes.c **** #else
 156              		.loc 1 399 0
 157 0086 C27B     		ldrb	r2, [r0, #15]
 394:../../../../../../Middlewares/Third_Party/LoRaWAN/Crypto/aes.c ****     ((uint8_t*)d)[11] = ((uint8_t*)s)[11] ^ ((uint8_t*)k)[11];
 158              		.loc 1 394 0
 159 0088 0297     		str	r7, [sp, #8]
 160              	.LVL13:
 399:../../../../../../Middlewares/Third_Party/LoRaWAN/Crypto/aes.c **** #else
 161              		.loc 1 399 0
 162 008a 5A40     		eors	r2, r3
 163              	.LBE34:
 164              	.LBE33:
 569:../../../../../../Middlewares/Third_Party/LoRaWAN/Crypto/aes.c **** {
 570:../../../../../../Middlewares/Third_Party/LoRaWAN/Crypto/aes.c ****     if( ctx->rnd )
 571:../../../../../../Middlewares/Third_Party/LoRaWAN/Crypto/aes.c ****     {
 572:../../../../../../Middlewares/Third_Party/LoRaWAN/Crypto/aes.c ****         uint8_t s1[N_BLOCK], r;
 573:../../../../../../Middlewares/Third_Party/LoRaWAN/Crypto/aes.c ****         copy_and_key( s1, in, ctx->ksch );
 574:../../../../../../Middlewares/Third_Party/LoRaWAN/Crypto/aes.c **** 
 575:../../../../../../Middlewares/Third_Party/LoRaWAN/Crypto/aes.c ****         for( r = 1 ; r < ctx->rnd ; ++r )
 165              		.loc 1 575 0
 166 008c F023     		movs	r3, #240
 167              	.LBB37:
 168              	.LBB35:
 395:../../../../../../Middlewares/Third_Party/LoRaWAN/Crypto/aes.c ****     ((uint8_t*)d)[12] = ((uint8_t*)s)[12] ^ ((uint8_t*)k)[12];
 169              		.loc 1 395 0
 170 008e 1596     		str	r6, [sp, #84]
 171              	.LVL14:
 396:../../../../../../Middlewares/Third_Party/LoRaWAN/Crypto/aes.c ****     ((uint8_t*)d)[13] = ((uint8_t*)s)[13] ^ ((uint8_t*)k)[13];
 172              		.loc 1 396 0
 173 0090 0D95     		str	r5, [sp, #52]
 174              	.LVL15:
 175              	.LBE35:
 176              	.LBE37:
 177              		.loc 1 575 0
 178 0092 CB5C     		ldrb	r3, [r1, r3]
 179              	.LBB38:
 180              	.LBB36:
 399:../../../../../../Middlewares/Third_Party/LoRaWAN/Crypto/aes.c **** #else
 181              		.loc 1 399 0
 182 0094 9446     		mov	ip, r2
 183              	.LVL16:
 184              	.LBE36:
 185              	.LBE38:
 186              		.loc 1 575 0
 187 0096 2593     		str	r3, [sp, #148]
 188 0098 0A00     		movs	r2, r1
 189 009a 012B     		cmp	r3, #1
 190 009c 00D8     		bhi	.LCB154
ARM GAS  C:\Users\EBANO_~1\AppData\Local\Temp\ccMXEZix.s 			page 15


 191 009e 7EE1     		b	.L4	@long jump
 192              	.LCB154:
 193 00a0 023B     		subs	r3, r3, #2
 194 00a2 DBB2     		uxtb	r3, r3
 195 00a4 1B01     		lsls	r3, r3, #4
 196 00a6 2032     		adds	r2, r2, #32
 197 00a8 0F00     		movs	r7, r1
 198 00aa 9B18     		adds	r3, r3, r2
 199 00ac 2293     		str	r3, [sp, #136]
 200 00ae C246     		mov	r10, r8
 201 00b0 6346     		mov	r3, ip
 202 00b2 BC49     		ldr	r1, .L7
 203              	.LVL17:
 204 00b4 BC4D     		ldr	r5, .L7+4
 205 00b6 1037     		adds	r7, r7, #16
 206              	.LVL18:
 207 00b8 0494     		str	r4, [sp, #16]
 208              	.LVL19:
 209              	.L3:
 210              	.LBB39:
 211              	.LBB40:
 455:../../../../../../Middlewares/Third_Party/LoRaWAN/Crypto/aes.c ****     dt[ 1] = s_box(st[0]) ^ gfm2_sb(st[5]) ^ gfm3_sb(st[10]) ^ s_box(st[15]);
 212              		.loc 1 455 0
 213 00ba CA5C     		ldrb	r2, [r1, r3]
 214 00bc 0298     		ldr	r0, [sp, #8]
 215 00be 9046     		mov	r8, r2
 456:../../../../../../Middlewares/Third_Party/LoRaWAN/Crypto/aes.c ****     dt[ 2] = s_box(st[0]) ^ s_box(st[5]) ^ gfm2_sb(st[10]) ^ gfm3_sb(st[15]);
 216              		.loc 1 456 0
 217 00c0 5A46     		mov	r2, fp
 218 00c2 8A5C     		ldrb	r2, [r1, r2]
 455:../../../../../../Middlewares/Third_Party/LoRaWAN/Crypto/aes.c ****     dt[ 1] = s_box(st[0]) ^ gfm2_sb(st[5]) ^ gfm3_sb(st[10]) ^ s_box(st[15]);
 219              		.loc 1 455 0
 220 00c4 085C     		ldrb	r0, [r1, r0]
 456:../../../../../../Middlewares/Third_Party/LoRaWAN/Crypto/aes.c ****     dt[ 2] = s_box(st[0]) ^ s_box(st[5]) ^ gfm2_sb(st[10]) ^ gfm3_sb(st[15]);
 221              		.loc 1 456 0
 222 00c6 9446     		mov	ip, r2
 462:../../../../../../Middlewares/Third_Party/LoRaWAN/Crypto/aes.c ****     dt[ 7] = gfm3_sb(st[4]) ^ s_box(st[9]) ^ s_box(st[14]) ^ gfm2_sb(st[3]);
 223              		.loc 1 462 0
 224 00c8 5246     		mov	r2, r10
 455:../../../../../../Middlewares/Third_Party/LoRaWAN/Crypto/aes.c ****     dt[ 1] = s_box(st[0]) ^ gfm2_sb(st[5]) ^ gfm3_sb(st[10]) ^ s_box(st[15]);
 225              		.loc 1 455 0
 226 00ca 0590     		str	r0, [sp, #20]
 460:../../../../../../Middlewares/Third_Party/LoRaWAN/Crypto/aes.c ****     dt[ 5] = s_box(st[4]) ^ gfm2_sb(st[9]) ^ gfm3_sb(st[14]) ^ s_box(st[3]);
 227              		.loc 1 460 0
 228 00cc 0498     		ldr	r0, [sp, #16]
 457:../../../../../../Middlewares/Third_Party/LoRaWAN/Crypto/aes.c ****     dt[ 3] = gfm3_sb(st[0]) ^ s_box(st[5]) ^ s_box(st[10]) ^ gfm2_sb(st[15]);
 229              		.loc 1 457 0
 230 00ce 019C     		ldr	r4, [sp, #4]
 460:../../../../../../Middlewares/Third_Party/LoRaWAN/Crypto/aes.c ****     dt[ 5] = s_box(st[4]) ^ gfm2_sb(st[9]) ^ gfm3_sb(st[14]) ^ s_box(st[3]);
 231              		.loc 1 460 0
 232 00d0 085C     		ldrb	r0, [r1, r0]
 457:../../../../../../Middlewares/Third_Party/LoRaWAN/Crypto/aes.c ****     dt[ 3] = gfm3_sb(st[0]) ^ s_box(st[5]) ^ s_box(st[10]) ^ gfm2_sb(st[15]);
 233              		.loc 1 457 0
 234 00d2 0C5D     		ldrb	r4, [r1, r4]
 460:../../../../../../Middlewares/Third_Party/LoRaWAN/Crypto/aes.c ****     dt[ 5] = s_box(st[4]) ^ gfm2_sb(st[9]) ^ gfm3_sb(st[14]) ^ s_box(st[3]);
 235              		.loc 1 460 0
 236 00d4 0690     		str	r0, [sp, #24]
ARM GAS  C:\Users\EBANO_~1\AppData\Local\Temp\ccMXEZix.s 			page 16


 237 00d6 1098     		ldr	r0, [sp, #64]
 457:../../../../../../Middlewares/Third_Party/LoRaWAN/Crypto/aes.c ****     dt[ 3] = gfm3_sb(st[0]) ^ s_box(st[5]) ^ s_box(st[10]) ^ gfm2_sb(st[15]);
 238              		.loc 1 457 0
 239 00d8 1694     		str	r4, [sp, #88]
 460:../../../../../../Middlewares/Third_Party/LoRaWAN/Crypto/aes.c ****     dt[ 5] = s_box(st[4]) ^ gfm2_sb(st[9]) ^ gfm3_sb(st[14]) ^ s_box(st[3]);
 240              		.loc 1 460 0
 241 00da 0790     		str	r0, [sp, #28]
 242 00dc 119C     		ldr	r4, [sp, #68]
 243 00de 085C     		ldrb	r0, [r1, r0]
 461:../../../../../../Middlewares/Third_Party/LoRaWAN/Crypto/aes.c ****     dt[ 6] = s_box(st[4]) ^ s_box(st[9]) ^ gfm2_sb(st[14]) ^ gfm3_sb(st[3]);
 244              		.loc 1 461 0
 245 00e0 0C5D     		ldrb	r4, [r1, r4]
 460:../../../../../../Middlewares/Third_Party/LoRaWAN/Crypto/aes.c ****     dt[ 5] = s_box(st[4]) ^ gfm2_sb(st[9]) ^ gfm3_sb(st[14]) ^ s_box(st[3]);
 246              		.loc 1 460 0
 247 00e2 1790     		str	r0, [sp, #92]
 465:../../../../../../Middlewares/Third_Party/LoRaWAN/Crypto/aes.c ****     dt[ 9] = s_box(st[8]) ^ gfm2_sb(st[13]) ^ gfm3_sb(st[2]) ^ s_box(st[7]);
 248              		.loc 1 465 0
 249 00e4 0F98     		ldr	r0, [sp, #60]
 461:../../../../../../Middlewares/Third_Party/LoRaWAN/Crypto/aes.c ****     dt[ 6] = s_box(st[4]) ^ s_box(st[9]) ^ gfm2_sb(st[14]) ^ gfm3_sb(st[3]);
 250              		.loc 1 461 0
 251 00e6 0894     		str	r4, [sp, #32]
 465:../../../../../../Middlewares/Third_Party/LoRaWAN/Crypto/aes.c ****     dt[ 9] = s_box(st[8]) ^ gfm2_sb(st[13]) ^ gfm3_sb(st[2]) ^ s_box(st[7]);
 252              		.loc 1 465 0
 253 00e8 0990     		str	r0, [sp, #36]
 254 00ea 149C     		ldr	r4, [sp, #80]
 255 00ec 085C     		ldrb	r0, [r1, r0]
 466:../../../../../../Middlewares/Third_Party/LoRaWAN/Crypto/aes.c ****     dt[10] = s_box(st[8]) ^ s_box(st[13]) ^ gfm2_sb(st[2]) ^ gfm3_sb(st[7]);
 256              		.loc 1 466 0
 257 00ee 0C5D     		ldrb	r4, [r1, r4]
 465:../../../../../../Middlewares/Third_Party/LoRaWAN/Crypto/aes.c ****     dt[ 9] = s_box(st[8]) ^ gfm2_sb(st[13]) ^ gfm3_sb(st[2]) ^ s_box(st[7]);
 258              		.loc 1 465 0
 259 00f0 0A90     		str	r0, [sp, #40]
 260 00f2 1398     		ldr	r0, [sp, #76]
 462:../../../../../../Middlewares/Third_Party/LoRaWAN/Crypto/aes.c ****     dt[ 7] = gfm3_sb(st[4]) ^ s_box(st[9]) ^ s_box(st[14]) ^ gfm2_sb(st[3]);
 261              		.loc 1 462 0
 262 00f4 8A5C     		ldrb	r2, [r1, r2]
 465:../../../../../../Middlewares/Third_Party/LoRaWAN/Crypto/aes.c ****     dt[ 9] = s_box(st[8]) ^ gfm2_sb(st[13]) ^ gfm3_sb(st[2]) ^ s_box(st[7]);
 263              		.loc 1 465 0
 264 00f6 0B90     		str	r0, [sp, #44]
 466:../../../../../../Middlewares/Third_Party/LoRaWAN/Crypto/aes.c ****     dt[10] = s_box(st[8]) ^ s_box(st[13]) ^ gfm2_sb(st[2]) ^ gfm3_sb(st[7]);
 265              		.loc 1 466 0
 266 00f8 1A94     		str	r4, [sp, #104]
 465:../../../../../../Middlewares/Third_Party/LoRaWAN/Crypto/aes.c ****     dt[ 9] = s_box(st[8]) ^ gfm2_sb(st[13]) ^ gfm3_sb(st[2]) ^ s_box(st[7]);
 267              		.loc 1 465 0
 268 00fa 085C     		ldrb	r0, [r1, r0]
 467:../../../../../../Middlewares/Third_Party/LoRaWAN/Crypto/aes.c ****     dt[11] = gfm3_sb(st[8]) ^ s_box(st[13]) ^ s_box(st[2]) ^ gfm2_sb(st[7]);
 269              		.loc 1 467 0
 270 00fc 039C     		ldr	r4, [sp, #12]
 465:../../../../../../Middlewares/Third_Party/LoRaWAN/Crypto/aes.c ****     dt[ 9] = s_box(st[8]) ^ gfm2_sb(st[13]) ^ gfm3_sb(st[2]) ^ s_box(st[7]);
 271              		.loc 1 465 0
 272 00fe 1990     		str	r0, [sp, #100]
 462:../../../../../../Middlewares/Third_Party/LoRaWAN/Crypto/aes.c ****     dt[ 7] = gfm3_sb(st[4]) ^ s_box(st[9]) ^ s_box(st[14]) ^ gfm2_sb(st[3]);
 273              		.loc 1 462 0
 274 0100 1892     		str	r2, [sp, #96]
 467:../../../../../../Middlewares/Third_Party/LoRaWAN/Crypto/aes.c ****     dt[11] = gfm3_sb(st[8]) ^ s_box(st[13]) ^ s_box(st[2]) ^ gfm2_sb(st[7]);
 275              		.loc 1 467 0
 276 0102 0A5D     		ldrb	r2, [r1, r4]
ARM GAS  C:\Users\EBANO_~1\AppData\Local\Temp\ccMXEZix.s 			page 17


 277              	.LVL20:
 470:../../../../../../Middlewares/Third_Party/LoRaWAN/Crypto/aes.c ****     dt[13] = s_box(st[12]) ^ gfm2_sb(st[1]) ^ gfm3_sb(st[6]) ^ s_box(st[11]);
 278              		.loc 1 470 0
 279 0104 159E     		ldr	r6, [sp, #84]
 280 0106 0D9C     		ldr	r4, [sp, #52]
 281 0108 1E96     		str	r6, [sp, #120]
 282 010a 8E5D     		ldrb	r6, [r1, r6]
 283 010c 0E98     		ldr	r0, [sp, #56]
 284 010e 1F96     		str	r6, [sp, #124]
 471:../../../../../../Middlewares/Third_Party/LoRaWAN/Crypto/aes.c ****     dt[14] = s_box(st[12]) ^ s_box(st[1]) ^ gfm2_sb(st[6]) ^ gfm3_sb(st[11]);
 285              		.loc 1 471 0
 286 0110 0E5D     		ldrb	r6, [r1, r4]
 467:../../../../../../Middlewares/Third_Party/LoRaWAN/Crypto/aes.c ****     dt[11] = gfm3_sb(st[8]) ^ s_box(st[13]) ^ s_box(st[2]) ^ gfm2_sb(st[7]);
 287              		.loc 1 467 0
 288 0112 1B92     		str	r2, [sp, #108]
 471:../../../../../../Middlewares/Third_Party/LoRaWAN/Crypto/aes.c ****     dt[14] = s_box(st[12]) ^ s_box(st[1]) ^ gfm2_sb(st[6]) ^ gfm3_sb(st[11]);
 289              		.loc 1 471 0
 290 0114 2096     		str	r6, [sp, #128]
 472:../../../../../../Middlewares/Third_Party/LoRaWAN/Crypto/aes.c ****     dt[15] = gfm3_sb(st[12]) ^ s_box(st[1]) ^ s_box(st[6]) ^ gfm2_sb(st[11]);
 291              		.loc 1 472 0
 292 0116 0E5C     		ldrb	r6, [r1, r0]
 470:../../../../../../Middlewares/Third_Party/LoRaWAN/Crypto/aes.c ****     dt[13] = s_box(st[12]) ^ gfm2_sb(st[1]) ^ gfm3_sb(st[6]) ^ s_box(st[11]);
 293              		.loc 1 470 0
 294 0118 129A     		ldr	r2, [sp, #72]
 472:../../../../../../Middlewares/Third_Party/LoRaWAN/Crypto/aes.c ****     dt[15] = gfm3_sb(st[12]) ^ s_box(st[1]) ^ s_box(st[6]) ^ gfm2_sb(st[11]);
 295              		.loc 1 472 0
 296 011a 2196     		str	r6, [sp, #132]
 455:../../../../../../Middlewares/Third_Party/LoRaWAN/Crypto/aes.c ****     dt[ 1] = s_box(st[0]) ^ gfm2_sb(st[5]) ^ gfm3_sb(st[10]) ^ s_box(st[15]);
 297              		.loc 1 455 0
 298 011c 5E46     		mov	r6, fp
 470:../../../../../../Middlewares/Third_Party/LoRaWAN/Crypto/aes.c ****     dt[13] = s_box(st[12]) ^ gfm2_sb(st[1]) ^ gfm3_sb(st[6]) ^ s_box(st[11]);
 299              		.loc 1 470 0
 300 011e 1D92     		str	r2, [sp, #116]
 301 0120 8A5C     		ldrb	r2, [r1, r2]
 471:../../../../../../Middlewares/Third_Party/LoRaWAN/Crypto/aes.c ****     dt[14] = s_box(st[12]) ^ s_box(st[1]) ^ gfm2_sb(st[6]) ^ gfm3_sb(st[11]);
 302              		.loc 1 471 0
 303 0122 0C94     		str	r4, [sp, #48]
 470:../../../../../../Middlewares/Third_Party/LoRaWAN/Crypto/aes.c ****     dt[13] = s_box(st[12]) ^ gfm2_sb(st[1]) ^ gfm3_sb(st[6]) ^ s_box(st[11]);
 304              		.loc 1 470 0
 305 0124 0D92     		str	r2, [sp, #52]
 306              	.LVL21:
 455:../../../../../../Middlewares/Third_Party/LoRaWAN/Crypto/aes.c ****     dt[ 1] = s_box(st[0]) ^ gfm2_sb(st[5]) ^ gfm3_sb(st[10]) ^ s_box(st[15]);
 307              		.loc 1 455 0
 308 0126 019C     		ldr	r4, [sp, #4]
 309 0128 A04A     		ldr	r2, .L7+8
 472:../../../../../../Middlewares/Third_Party/LoRaWAN/Crypto/aes.c ****     dt[15] = gfm3_sb(st[12]) ^ s_box(st[1]) ^ s_box(st[6]) ^ gfm2_sb(st[11]);
 310              		.loc 1 472 0
 311 012a 1C90     		str	r0, [sp, #112]
 455:../../../../../../Middlewares/Third_Party/LoRaWAN/Crypto/aes.c ****     dt[ 1] = s_box(st[0]) ^ gfm2_sb(st[5]) ^ gfm3_sb(st[10]) ^ s_box(st[15]);
 312              		.loc 1 455 0
 313 012c A85D     		ldrb	r0, [r5, r6]
 314 012e 165D     		ldrb	r6, [r2, r4]
 315 0130 059C     		ldr	r4, [sp, #20]
 316 0132 7040     		eors	r0, r6
 317 0134 4646     		mov	r6, r8
 318 0136 6040     		eors	r0, r4
 319 0138 7040     		eors	r0, r6
ARM GAS  C:\Users\EBANO_~1\AppData\Local\Temp\ccMXEZix.s 			page 18


 320              	.LBE40:
 321              	.LBE39:
 322              	.LBB69:
 323              	.LBB70:
 324              	.LBB71:
 357:../../../../../../Middlewares/Third_Party/LoRaWAN/Crypto/aes.c ****     ((uint8_t*)d)[ 1] ^= ((uint8_t*)s)[ 1];
 325              		.loc 1 357 0
 326 013a 3E78     		ldrb	r6, [r7]
 327              	.LBE71:
 328              	.LBE70:
 329              	.LBE69:
 330              	.LBB126:
 331              	.LBB41:
 456:../../../../../../Middlewares/Third_Party/LoRaWAN/Crypto/aes.c ****     dt[ 2] = s_box(st[0]) ^ s_box(st[5]) ^ gfm2_sb(st[10]) ^ gfm3_sb(st[15]);
 332              		.loc 1 456 0
 333 013c 6446     		mov	r4, ip
 334              	.LBE41:
 335              	.LBE126:
 336              	.LBB127:
 337              	.LBB99:
 338              	.LBB72:
 357:../../../../../../Middlewares/Third_Party/LoRaWAN/Crypto/aes.c ****     ((uint8_t*)d)[ 1] ^= ((uint8_t*)s)[ 1];
 339              		.loc 1 357 0
 340 013e 4640     		eors	r6, r0
 341              	.LBE72:
 342              	.LBE99:
 343              	.LBE127:
 344              	.LBB128:
 345              	.LBB42:
 455:../../../../../../Middlewares/Third_Party/LoRaWAN/Crypto/aes.c ****     dt[ 1] = s_box(st[0]) ^ gfm2_sb(st[5]) ^ gfm3_sb(st[10]) ^ s_box(st[15]);
 346              		.loc 1 455 0
 347 0140 D946     		mov	r9, fp
 348              	.LBE42:
 349              	.LBE128:
 350              	.LBB129:
 351              	.LBB100:
 352              	.LBB73:
 357:../../../../../../Middlewares/Third_Party/LoRaWAN/Crypto/aes.c ****     ((uint8_t*)d)[ 1] ^= ((uint8_t*)s)[ 1];
 353              		.loc 1 357 0
 354 0142 B346     		mov	fp, r6
 355              	.LVL22:
 356              	.LBE73:
 357              	.LBE100:
 358              	.LBE129:
 359              	.LBB130:
 360              	.LBB43:
 456:../../../../../../Middlewares/Third_Party/LoRaWAN/Crypto/aes.c ****     dt[ 2] = s_box(st[0]) ^ s_box(st[5]) ^ gfm2_sb(st[10]) ^ gfm3_sb(st[15]);
 361              		.loc 1 456 0
 362 0144 4646     		mov	r6, r8
 363 0146 6640     		eors	r6, r4
 364 0148 3000     		movs	r0, r6
 365 014a 019C     		ldr	r4, [sp, #4]
 366 014c 2E5D     		ldrb	r6, [r5, r4]
 457:../../../../../../Middlewares/Third_Party/LoRaWAN/Crypto/aes.c ****     dt[ 3] = gfm3_sb(st[0]) ^ s_box(st[5]) ^ s_box(st[10]) ^ gfm2_sb(st[15]);
 367              		.loc 1 457 0
 368 014e 169C     		ldr	r4, [sp, #88]
 456:../../../../../../Middlewares/Third_Party/LoRaWAN/Crypto/aes.c ****     dt[ 2] = s_box(st[0]) ^ s_box(st[5]) ^ gfm2_sb(st[10]) ^ gfm3_sb(st[15]);
ARM GAS  C:\Users\EBANO_~1\AppData\Local\Temp\ccMXEZix.s 			page 19


 369              		.loc 1 456 0
 370 0150 4640     		eors	r6, r0
 371 0152 0298     		ldr	r0, [sp, #8]
 372 0154 105C     		ldrb	r0, [r2, r0]
 373 0156 7040     		eors	r0, r6
 374              	.LBE43:
 375              	.LBE130:
 376              	.LBB131:
 377              	.LBB101:
 378              	.LBB74:
 358:../../../../../../Middlewares/Third_Party/LoRaWAN/Crypto/aes.c ****     ((uint8_t*)d)[ 2] ^= ((uint8_t*)s)[ 2];
 379              		.loc 1 358 0
 380 0158 7E78     		ldrb	r6, [r7, #1]
 381 015a 7040     		eors	r0, r6
 382 015c 0E90     		str	r0, [sp, #56]
 383              	.LVL23:
 384              	.LBE74:
 385              	.LBE101:
 386              	.LBE131:
 387              	.LBB132:
 388              	.LBB44:
 457:../../../../../../Middlewares/Third_Party/LoRaWAN/Crypto/aes.c ****     dt[ 3] = gfm3_sb(st[0]) ^ s_box(st[5]) ^ s_box(st[10]) ^ gfm2_sb(st[15]);
 389              		.loc 1 457 0
 390 015e 6046     		mov	r0, ip
 391 0160 029E     		ldr	r6, [sp, #8]
 392 0162 6040     		eors	r0, r4
 393 0164 AE5D     		ldrb	r6, [r5, r6]
 394 0166 4640     		eors	r6, r0
 395 0168 D05C     		ldrb	r0, [r2, r3]
 396 016a 7040     		eors	r0, r6
 397              	.LBE44:
 398              	.LBE132:
 399              	.LBB133:
 400              	.LBB102:
 401              	.LBB75:
 359:../../../../../../Middlewares/Third_Party/LoRaWAN/Crypto/aes.c ****     ((uint8_t*)d)[ 3] ^= ((uint8_t*)s)[ 3];
 402              		.loc 1 359 0
 403 016c BE78     		ldrb	r6, [r7, #2]
 404 016e 7040     		eors	r0, r6
 405              	.LBE75:
 406              	.LBE102:
 407              	.LBE133:
 408              	.LBB134:
 409              	.LBB45:
 458:../../../../../../Middlewares/Third_Party/LoRaWAN/Crypto/aes.c **** 
 410              		.loc 1 458 0
 411 0170 059E     		ldr	r6, [sp, #20]
 412              	.LBE45:
 413              	.LBE134:
 414              	.LBB135:
 415              	.LBB103:
 416              	.LBB76:
 359:../../../../../../Middlewares/Third_Party/LoRaWAN/Crypto/aes.c ****     ((uint8_t*)d)[ 3] ^= ((uint8_t*)s)[ 3];
 417              		.loc 1 359 0
 418 0172 0F90     		str	r0, [sp, #60]
 419              	.LVL24:
 420              	.LBE76:
ARM GAS  C:\Users\EBANO_~1\AppData\Local\Temp\ccMXEZix.s 			page 20


 421              	.LBE103:
 422              	.LBE135:
 423              	.LBB136:
 424              	.LBB46:
 458:../../../../../../Middlewares/Third_Party/LoRaWAN/Crypto/aes.c **** 
 425              		.loc 1 458 0
 426 0174 6640     		eors	r6, r4
 427 0176 4C46     		mov	r4, r9
 428 0178 105D     		ldrb	r0, [r2, r4]
 460:../../../../../../Middlewares/Third_Party/LoRaWAN/Crypto/aes.c ****     dt[ 5] = s_box(st[4]) ^ gfm2_sb(st[9]) ^ gfm3_sb(st[14]) ^ s_box(st[3]);
 429              		.loc 1 460 0
 430 017a 119C     		ldr	r4, [sp, #68]
 458:../../../../../../Middlewares/Third_Party/LoRaWAN/Crypto/aes.c **** 
 431              		.loc 1 458 0
 432 017c 4640     		eors	r6, r0
 433 017e E85C     		ldrb	r0, [r5, r3]
 434 0180 4640     		eors	r6, r0
 435              	.LBE46:
 436              	.LBE136:
 437              	.LBB137:
 438              	.LBB104:
 439              	.LBB77:
 360:../../../../../../Middlewares/Third_Party/LoRaWAN/Crypto/aes.c ****     ((uint8_t*)d)[ 4] ^= ((uint8_t*)s)[ 4];
 440              		.loc 1 360 0
 441 0182 3300     		movs	r3, r6
 442              	.LVL25:
 443              	.LBE77:
 444              	.LBE104:
 445              	.LBE137:
 446              	.LBB138:
 447              	.LBB47:
 460:../../../../../../Middlewares/Third_Party/LoRaWAN/Crypto/aes.c ****     dt[ 5] = s_box(st[4]) ^ gfm2_sb(st[9]) ^ gfm3_sb(st[14]) ^ s_box(st[3]);
 448              		.loc 1 460 0
 449 0184 5646     		mov	r6, r10
 450              	.LBE47:
 451              	.LBE138:
 452              	.LBB139:
 453              	.LBB105:
 454              	.LBB78:
 360:../../../../../../Middlewares/Third_Party/LoRaWAN/Crypto/aes.c ****     ((uint8_t*)d)[ 4] ^= ((uint8_t*)s)[ 4];
 455              		.loc 1 360 0
 456 0186 F878     		ldrb	r0, [r7, #3]
 457 0188 4340     		eors	r3, r0
 458 018a 1093     		str	r3, [sp, #64]
 459              	.LVL26:
 460              	.LBE78:
 461              	.LBE105:
 462              	.LBE139:
 463              	.LBB140:
 464              	.LBB48:
 460:../../../../../../Middlewares/Third_Party/LoRaWAN/Crypto/aes.c ****     dt[ 5] = s_box(st[4]) ^ gfm2_sb(st[9]) ^ gfm3_sb(st[14]) ^ s_box(st[3]);
 465              		.loc 1 460 0
 466 018c 905D     		ldrb	r0, [r2, r6]
 467 018e 2B5D     		ldrb	r3, [r5, r4]
 468 0190 179E     		ldr	r6, [sp, #92]
 469 0192 4340     		eors	r3, r0
 470 0194 0698     		ldr	r0, [sp, #24]
ARM GAS  C:\Users\EBANO_~1\AppData\Local\Temp\ccMXEZix.s 			page 21


 471 0196 4340     		eors	r3, r0
 472              	.LBE48:
 473              	.LBE140:
 474              	.LBB141:
 475              	.LBB106:
 476              	.LBB79:
 361:../../../../../../Middlewares/Third_Party/LoRaWAN/Crypto/aes.c ****     ((uint8_t*)d)[ 5] ^= ((uint8_t*)s)[ 5];
 477              		.loc 1 361 0
 478 0198 3879     		ldrb	r0, [r7, #4]
 479              	.LBE79:
 480              	.LBE106:
 481              	.LBE141:
 482              	.LBB142:
 483              	.LBB49:
 460:../../../../../../Middlewares/Third_Party/LoRaWAN/Crypto/aes.c ****     dt[ 5] = s_box(st[4]) ^ gfm2_sb(st[9]) ^ gfm3_sb(st[14]) ^ s_box(st[3]);
 484              		.loc 1 460 0
 485 019a 7340     		eors	r3, r6
 486              	.LBE49:
 487              	.LBE142:
 488              	.LBB143:
 489              	.LBB107:
 490              	.LBB80:
 361:../../../../../../Middlewares/Third_Party/LoRaWAN/Crypto/aes.c ****     ((uint8_t*)d)[ 5] ^= ((uint8_t*)s)[ 5];
 491              		.loc 1 361 0
 492 019c 4340     		eors	r3, r0
 493 019e 1193     		str	r3, [sp, #68]
 494              	.LVL27:
 495              	.LBE80:
 496              	.LBE107:
 497              	.LBE143:
 498              	.LBB144:
 499              	.LBB50:
 461:../../../../../../Middlewares/Third_Party/LoRaWAN/Crypto/aes.c ****     dt[ 6] = s_box(st[4]) ^ s_box(st[9]) ^ gfm2_sb(st[14]) ^ gfm3_sb(st[3]);
 500              		.loc 1 461 0
 501 01a0 089B     		ldr	r3, [sp, #32]
 502 01a2 5E40     		eors	r6, r3
 503 01a4 3300     		movs	r3, r6
 504 01a6 5646     		mov	r6, r10
 505 01a8 A85D     		ldrb	r0, [r5, r6]
 506              	.LBE50:
 507              	.LBE144:
 508              	.LBB145:
 509              	.LBB108:
 510              	.LBB81:
 362:../../../../../../Middlewares/Third_Party/LoRaWAN/Crypto/aes.c ****     ((uint8_t*)d)[ 6] ^= ((uint8_t*)s)[ 6];
 511              		.loc 1 362 0
 512 01aa 7E79     		ldrb	r6, [r7, #5]
 513              	.LBE81:
 514              	.LBE108:
 515              	.LBE145:
 516              	.LBB146:
 517              	.LBB51:
 461:../../../../../../Middlewares/Third_Party/LoRaWAN/Crypto/aes.c ****     dt[ 6] = s_box(st[4]) ^ s_box(st[9]) ^ gfm2_sb(st[14]) ^ gfm3_sb(st[3]);
 518              		.loc 1 461 0
 519 01ac 5840     		eors	r0, r3
 520 01ae 049B     		ldr	r3, [sp, #16]
 521 01b0 D35C     		ldrb	r3, [r2, r3]
ARM GAS  C:\Users\EBANO_~1\AppData\Local\Temp\ccMXEZix.s 			page 22


 522 01b2 4340     		eors	r3, r0
 523              	.LBE51:
 524              	.LBE146:
 525              	.LBB147:
 526              	.LBB109:
 527              	.LBB82:
 362:../../../../../../Middlewares/Third_Party/LoRaWAN/Crypto/aes.c ****     ((uint8_t*)d)[ 6] ^= ((uint8_t*)s)[ 6];
 528              		.loc 1 362 0
 529 01b4 5E40     		eors	r6, r3
 530              	.LBE82:
 531              	.LBE109:
 532              	.LBE147:
 533              	.LBB148:
 534              	.LBB52:
 462:../../../../../../Middlewares/Third_Party/LoRaWAN/Crypto/aes.c ****     dt[ 7] = gfm3_sb(st[4]) ^ s_box(st[9]) ^ s_box(st[14]) ^ gfm2_sb(st[3]);
 535              		.loc 1 462 0
 536 01b6 0498     		ldr	r0, [sp, #16]
 537              	.LBE52:
 538              	.LBE148:
 539              	.LBB149:
 540              	.LBB110:
 541              	.LBB83:
 362:../../../../../../Middlewares/Third_Party/LoRaWAN/Crypto/aes.c ****     ((uint8_t*)d)[ 6] ^= ((uint8_t*)s)[ 6];
 542              		.loc 1 362 0
 543 01b8 0196     		str	r6, [sp, #4]
 544              	.LVL28:
 545              	.LBE83:
 546              	.LBE110:
 547              	.LBE149:
 548              	.LBB150:
 549              	.LBB53:
 462:../../../../../../Middlewares/Third_Party/LoRaWAN/Crypto/aes.c ****     dt[ 7] = gfm3_sb(st[4]) ^ s_box(st[9]) ^ s_box(st[14]) ^ gfm2_sb(st[3]);
 550              		.loc 1 462 0
 551 01ba 089B     		ldr	r3, [sp, #32]
 552 01bc 189E     		ldr	r6, [sp, #96]
 553 01be 285C     		ldrb	r0, [r5, r0]
 554 01c0 7340     		eors	r3, r6
 555 01c2 5840     		eors	r0, r3
 556 01c4 079B     		ldr	r3, [sp, #28]
 557 01c6 D35C     		ldrb	r3, [r2, r3]
 558 01c8 4340     		eors	r3, r0
 559              	.LBE53:
 560              	.LBE150:
 561              	.LBB151:
 562              	.LBB111:
 563              	.LBB84:
 363:../../../../../../Middlewares/Third_Party/LoRaWAN/Crypto/aes.c ****     ((uint8_t*)d)[ 7] ^= ((uint8_t*)s)[ 7];
 564              		.loc 1 363 0
 565 01ca B879     		ldrb	r0, [r7, #6]
 566 01cc 4340     		eors	r3, r0
 567 01ce 1293     		str	r3, [sp, #72]
 568              	.LVL29:
 569              	.LBE84:
 570              	.LBE111:
 571              	.LBE151:
 572              	.LBB152:
 573              	.LBB54:
ARM GAS  C:\Users\EBANO_~1\AppData\Local\Temp\ccMXEZix.s 			page 23


 463:../../../../../../Middlewares/Third_Party/LoRaWAN/Crypto/aes.c **** 
 574              		.loc 1 463 0
 575 01d0 069B     		ldr	r3, [sp, #24]
 576 01d2 105D     		ldrb	r0, [r2, r4]
 577 01d4 7340     		eors	r3, r6
 578 01d6 4340     		eors	r3, r0
 579 01d8 0798     		ldr	r0, [sp, #28]
 465:../../../../../../Middlewares/Third_Party/LoRaWAN/Crypto/aes.c ****     dt[ 9] = s_box(st[8]) ^ gfm2_sb(st[13]) ^ gfm3_sb(st[2]) ^ s_box(st[7]);
 580              		.loc 1 465 0
 581 01da 149C     		ldr	r4, [sp, #80]
 463:../../../../../../Middlewares/Third_Party/LoRaWAN/Crypto/aes.c **** 
 582              		.loc 1 463 0
 583 01dc 285C     		ldrb	r0, [r5, r0]
 465:../../../../../../Middlewares/Third_Party/LoRaWAN/Crypto/aes.c ****     dt[ 9] = s_box(st[8]) ^ gfm2_sb(st[13]) ^ gfm3_sb(st[2]) ^ s_box(st[7]);
 584              		.loc 1 465 0
 585 01de 199E     		ldr	r6, [sp, #100]
 463:../../../../../../Middlewares/Third_Party/LoRaWAN/Crypto/aes.c **** 
 586              		.loc 1 463 0
 587 01e0 4340     		eors	r3, r0
 588              	.LBE54:
 589              	.LBE152:
 590              	.LBB153:
 591              	.LBB112:
 592              	.LBB85:
 364:../../../../../../Middlewares/Third_Party/LoRaWAN/Crypto/aes.c ****     ((uint8_t*)d)[ 8] ^= ((uint8_t*)s)[ 8];
 593              		.loc 1 364 0
 594 01e2 F879     		ldrb	r0, [r7, #7]
 595 01e4 4340     		eors	r3, r0
 596              	.LBE85:
 597              	.LBE112:
 598              	.LBE153:
 599              	.LBB154:
 600              	.LBB55:
 465:../../../../../../Middlewares/Third_Party/LoRaWAN/Crypto/aes.c ****     dt[ 9] = s_box(st[8]) ^ gfm2_sb(st[13]) ^ gfm3_sb(st[2]) ^ s_box(st[7]);
 601              		.loc 1 465 0
 602 01e6 0398     		ldr	r0, [sp, #12]
 603              	.LBE55:
 604              	.LBE154:
 605              	.LBB155:
 606              	.LBB113:
 607              	.LBB86:
 364:../../../../../../Middlewares/Third_Party/LoRaWAN/Crypto/aes.c ****     ((uint8_t*)d)[ 8] ^= ((uint8_t*)s)[ 8];
 608              		.loc 1 364 0
 609 01e8 1393     		str	r3, [sp, #76]
 610              	.LVL30:
 611              	.LBE86:
 612              	.LBE113:
 613              	.LBE155:
 614              	.LBB156:
 615              	.LBB56:
 465:../../../../../../Middlewares/Third_Party/LoRaWAN/Crypto/aes.c ****     dt[ 9] = s_box(st[8]) ^ gfm2_sb(st[13]) ^ gfm3_sb(st[2]) ^ s_box(st[7]);
 616              		.loc 1 465 0
 617 01ea 105C     		ldrb	r0, [r2, r0]
 618 01ec 2B5D     		ldrb	r3, [r5, r4]
 619 01ee 4340     		eors	r3, r0
 620 01f0 0A98     		ldr	r0, [sp, #40]
 621 01f2 4340     		eors	r3, r0
ARM GAS  C:\Users\EBANO_~1\AppData\Local\Temp\ccMXEZix.s 			page 24


 622              	.LBE56:
 623              	.LBE156:
 624              	.LBB157:
 625              	.LBB114:
 626              	.LBB87:
 365:../../../../../../Middlewares/Third_Party/LoRaWAN/Crypto/aes.c ****     ((uint8_t*)d)[ 9] ^= ((uint8_t*)s)[ 9];
 627              		.loc 1 365 0
 628 01f4 387A     		ldrb	r0, [r7, #8]
 629              	.LBE87:
 630              	.LBE114:
 631              	.LBE157:
 632              	.LBB158:
 633              	.LBB57:
 465:../../../../../../Middlewares/Third_Party/LoRaWAN/Crypto/aes.c ****     dt[ 9] = s_box(st[8]) ^ gfm2_sb(st[13]) ^ gfm3_sb(st[2]) ^ s_box(st[7]);
 634              		.loc 1 465 0
 635 01f6 7340     		eors	r3, r6
 636              	.LBE57:
 637              	.LBE158:
 638              	.LBB159:
 639              	.LBB115:
 640              	.LBB88:
 365:../../../../../../Middlewares/Third_Party/LoRaWAN/Crypto/aes.c ****     ((uint8_t*)d)[ 9] ^= ((uint8_t*)s)[ 9];
 641              		.loc 1 365 0
 642 01f8 4340     		eors	r3, r0
 643 01fa 1493     		str	r3, [sp, #80]
 644              	.LVL31:
 645              	.LBE88:
 646              	.LBE115:
 647              	.LBE159:
 648              	.LBB160:
 649              	.LBB58:
 466:../../../../../../Middlewares/Third_Party/LoRaWAN/Crypto/aes.c ****     dt[10] = s_box(st[8]) ^ s_box(st[13]) ^ gfm2_sb(st[2]) ^ gfm3_sb(st[7]);
 650              		.loc 1 466 0
 651 01fc 3300     		movs	r3, r6
 652 01fe 0398     		ldr	r0, [sp, #12]
 653 0200 1A9E     		ldr	r6, [sp, #104]
 654 0202 285C     		ldrb	r0, [r5, r0]
 655 0204 7340     		eors	r3, r6
 656 0206 5840     		eors	r0, r3
 657 0208 099B     		ldr	r3, [sp, #36]
 658 020a D35C     		ldrb	r3, [r2, r3]
 659 020c 4340     		eors	r3, r0
 660              	.LBE58:
 661              	.LBE160:
 662              	.LBB161:
 663              	.LBB116:
 664              	.LBB89:
 366:../../../../../../Middlewares/Third_Party/LoRaWAN/Crypto/aes.c ****     ((uint8_t*)d)[10] ^= ((uint8_t*)s)[10];
 665              		.loc 1 366 0
 666 020e 787A     		ldrb	r0, [r7, #9]
 667 0210 4340     		eors	r3, r0
 668 0212 9A46     		mov	r10, r3
 669              	.LVL32:
 670              	.LBE89:
 671              	.LBE116:
 672              	.LBE161:
 673              	.LBB162:
ARM GAS  C:\Users\EBANO_~1\AppData\Local\Temp\ccMXEZix.s 			page 25


 674              	.LBB59:
 467:../../../../../../Middlewares/Third_Party/LoRaWAN/Crypto/aes.c ****     dt[11] = gfm3_sb(st[8]) ^ s_box(st[13]) ^ s_box(st[2]) ^ gfm2_sb(st[7]);
 675              		.loc 1 467 0
 676 0214 3300     		movs	r3, r6
 677 0216 0998     		ldr	r0, [sp, #36]
 678 0218 1B9E     		ldr	r6, [sp, #108]
 679 021a 285C     		ldrb	r0, [r5, r0]
 680 021c 7340     		eors	r3, r6
 681 021e 5840     		eors	r0, r3
 682 0220 0B9B     		ldr	r3, [sp, #44]
 683 0222 D35C     		ldrb	r3, [r2, r3]
 684 0224 4340     		eors	r3, r0
 685              	.LBE59:
 686              	.LBE162:
 687              	.LBB163:
 688              	.LBB117:
 689              	.LBB90:
 367:../../../../../../Middlewares/Third_Party/LoRaWAN/Crypto/aes.c ****     ((uint8_t*)d)[11] ^= ((uint8_t*)s)[11];
 690              		.loc 1 367 0
 691 0226 B87A     		ldrb	r0, [r7, #10]
 692 0228 4340     		eors	r3, r0
 693 022a 0293     		str	r3, [sp, #8]
 694              	.LVL33:
 695              	.LBE90:
 696              	.LBE117:
 697              	.LBE163:
 698              	.LBB164:
 699              	.LBB60:
 468:../../../../../../Middlewares/Third_Party/LoRaWAN/Crypto/aes.c **** 
 700              		.loc 1 468 0
 701 022c 0A9B     		ldr	r3, [sp, #40]
 702 022e 105D     		ldrb	r0, [r2, r4]
 703 0230 7340     		eors	r3, r6
 704 0232 4340     		eors	r3, r0
 705 0234 0B98     		ldr	r0, [sp, #44]
 470:../../../../../../Middlewares/Third_Party/LoRaWAN/Crypto/aes.c ****     dt[13] = s_box(st[12]) ^ gfm2_sb(st[1]) ^ gfm3_sb(st[6]) ^ s_box(st[11]);
 706              		.loc 1 470 0
 707 0236 0C9C     		ldr	r4, [sp, #48]
 468:../../../../../../Middlewares/Third_Party/LoRaWAN/Crypto/aes.c **** 
 708              		.loc 1 468 0
 709 0238 285C     		ldrb	r0, [r5, r0]
 710 023a 4340     		eors	r3, r0
 711              	.LBE60:
 712              	.LBE164:
 713              	.LBB165:
 714              	.LBB118:
 715              	.LBB91:
 368:../../../../../../Middlewares/Third_Party/LoRaWAN/Crypto/aes.c ****     ((uint8_t*)d)[12] ^= ((uint8_t*)s)[12];
 716              		.loc 1 368 0
 717 023c F87A     		ldrb	r0, [r7, #11]
 718 023e 4340     		eors	r3, r0
 719 0240 1593     		str	r3, [sp, #84]
 720              	.LVL34:
 721              	.LBE91:
 722              	.LBE118:
 723              	.LBE165:
 724              	.LBB166:
ARM GAS  C:\Users\EBANO_~1\AppData\Local\Temp\ccMXEZix.s 			page 26


 725              	.LBB61:
 470:../../../../../../Middlewares/Third_Party/LoRaWAN/Crypto/aes.c ****     dt[13] = s_box(st[12]) ^ gfm2_sb(st[1]) ^ gfm3_sb(st[6]) ^ s_box(st[11]);
 726              		.loc 1 470 0
 727 0242 2B5D     		ldrb	r3, [r5, r4]
 728 0244 1C9C     		ldr	r4, [sp, #112]
 729 0246 1F9E     		ldr	r6, [sp, #124]
 730 0248 105D     		ldrb	r0, [r2, r4]
 731 024a 0D9A     		ldr	r2, [sp, #52]
 732 024c 4340     		eors	r3, r0
 733 024e 5340     		eors	r3, r2
 734              	.LBE61:
 735              	.LBE166:
 736              	.LBB167:
 737              	.LBB119:
 738              	.LBB92:
 369:../../../../../../Middlewares/Third_Party/LoRaWAN/Crypto/aes.c ****     ((uint8_t*)d)[13] ^= ((uint8_t*)s)[13];
 739              		.loc 1 369 0
 740 0250 387B     		ldrb	r0, [r7, #12]
 741              	.LBE92:
 742              	.LBE119:
 743              	.LBE167:
 744              	.LBB168:
 745              	.LBB62:
 470:../../../../../../Middlewares/Third_Party/LoRaWAN/Crypto/aes.c ****     dt[13] = s_box(st[12]) ^ gfm2_sb(st[1]) ^ gfm3_sb(st[6]) ^ s_box(st[11]);
 746              		.loc 1 470 0
 747 0252 7340     		eors	r3, r6
 748              	.LBE62:
 749              	.LBE168:
 750              	.LBB169:
 751              	.LBB120:
 752              	.LBB93:
 369:../../../../../../Middlewares/Third_Party/LoRaWAN/Crypto/aes.c ****     ((uint8_t*)d)[13] ^= ((uint8_t*)s)[13];
 753              		.loc 1 369 0
 754 0254 4340     		eors	r3, r0
 755 0256 0D93     		str	r3, [sp, #52]
 756              	.LVL35:
 757              	.LBE93:
 758              	.LBE120:
 759              	.LBE169:
 760              	.LBB170:
 761              	.LBB63:
 471:../../../../../../Middlewares/Third_Party/LoRaWAN/Crypto/aes.c ****     dt[14] = s_box(st[12]) ^ s_box(st[1]) ^ gfm2_sb(st[6]) ^ gfm3_sb(st[11]);
 762              		.loc 1 471 0
 763 0258 3300     		movs	r3, r6
 764 025a 209E     		ldr	r6, [sp, #128]
 765 025c 285D     		ldrb	r0, [r5, r4]
 766 025e 7340     		eors	r3, r6
 767 0260 5840     		eors	r0, r3
 470:../../../../../../Middlewares/Third_Party/LoRaWAN/Crypto/aes.c ****     dt[13] = s_box(st[12]) ^ gfm2_sb(st[1]) ^ gfm3_sb(st[6]) ^ s_box(st[11]);
 768              		.loc 1 470 0
 769 0262 9446     		mov	ip, r2
 471:../../../../../../Middlewares/Third_Party/LoRaWAN/Crypto/aes.c ****     dt[14] = s_box(st[12]) ^ s_box(st[1]) ^ gfm2_sb(st[6]) ^ gfm3_sb(st[11]);
 770              		.loc 1 471 0
 771 0264 514B     		ldr	r3, .L7+8
 772 0266 1D9A     		ldr	r2, [sp, #116]
 773 0268 9B5C     		ldrb	r3, [r3, r2]
 774 026a 4340     		eors	r3, r0
ARM GAS  C:\Users\EBANO_~1\AppData\Local\Temp\ccMXEZix.s 			page 27


 775              	.LBE63:
 776              	.LBE170:
 777              	.LBB171:
 778              	.LBB121:
 779              	.LBB94:
 370:../../../../../../Middlewares/Third_Party/LoRaWAN/Crypto/aes.c ****     ((uint8_t*)d)[14] ^= ((uint8_t*)s)[14];
 780              		.loc 1 370 0
 781 026c 787B     		ldrb	r0, [r7, #13]
 782 026e 4340     		eors	r3, r0
 783              	.LBE94:
 784              	.LBE121:
 785              	.LBE171:
 786              	.LBB172:
 787              	.LBB64:
 472:../../../../../../Middlewares/Third_Party/LoRaWAN/Crypto/aes.c ****     dt[15] = gfm3_sb(st[12]) ^ s_box(st[1]) ^ s_box(st[6]) ^ gfm2_sb(st[11]);
 788              		.loc 1 472 0
 789 0270 3000     		movs	r0, r6
 790 0272 219E     		ldr	r6, [sp, #132]
 791              	.LBE64:
 792              	.LBE172:
 793              	.LBB173:
 794              	.LBB122:
 795              	.LBB95:
 370:../../../../../../Middlewares/Third_Party/LoRaWAN/Crypto/aes.c ****     ((uint8_t*)d)[14] ^= ((uint8_t*)s)[14];
 796              		.loc 1 370 0
 797 0274 0393     		str	r3, [sp, #12]
 798              	.LVL36:
 799              	.LBE95:
 800              	.LBE122:
 801              	.LBE173:
 802              	.LBB174:
 803              	.LBB65:
 472:../../../../../../Middlewares/Third_Party/LoRaWAN/Crypto/aes.c ****     dt[15] = gfm3_sb(st[12]) ^ s_box(st[1]) ^ s_box(st[6]) ^ gfm2_sb(st[11]);
 804              		.loc 1 472 0
 805 0276 AB5C     		ldrb	r3, [r5, r2]
 806 0278 7040     		eors	r0, r6
 807 027a 4340     		eors	r3, r0
 808 027c 1E9A     		ldr	r2, [sp, #120]
 809 027e 4B48     		ldr	r0, .L7+8
 810 0280 845C     		ldrb	r4, [r0, r2]
 811 0282 5C40     		eors	r4, r3
 812              	.LBE65:
 813              	.LBE174:
 814              	.LBB175:
 815              	.LBB123:
 816              	.LBB96:
 371:../../../../../../Middlewares/Third_Party/LoRaWAN/Crypto/aes.c ****     ((uint8_t*)d)[15] ^= ((uint8_t*)s)[15];
 817              		.loc 1 371 0
 818 0284 BB7B     		ldrb	r3, [r7, #14]
 819 0286 5C40     		eors	r4, r3
 820              	.LBE96:
 821              	.LBE123:
 822              	.LBE175:
 823              	.LBB176:
 824              	.LBB66:
 473:../../../../../../Middlewares/Third_Party/LoRaWAN/Crypto/aes.c ****   }
 825              		.loc 1 473 0
ARM GAS  C:\Users\EBANO_~1\AppData\Local\Temp\ccMXEZix.s 			page 28


 826 0288 6346     		mov	r3, ip
 827              	.LBE66:
 828              	.LBE176:
 829              	.LBB177:
 830              	.LBB124:
 831              	.LBB97:
 371:../../../../../../Middlewares/Third_Party/LoRaWAN/Crypto/aes.c ****     ((uint8_t*)d)[15] ^= ((uint8_t*)s)[15];
 832              		.loc 1 371 0
 833 028a 0494     		str	r4, [sp, #16]
 834              	.LVL37:
 835              	.LBE97:
 836              	.LBE124:
 837              	.LBE177:
 838              	.LBB178:
 839              	.LBB67:
 473:../../../../../../Middlewares/Third_Party/LoRaWAN/Crypto/aes.c ****   }
 840              		.loc 1 473 0
 841 028c 0C9C     		ldr	r4, [sp, #48]
 842 028e 7340     		eors	r3, r6
 843 0290 005D     		ldrb	r0, [r0, r4]
 844 0292 4340     		eors	r3, r0
 845 0294 A85C     		ldrb	r0, [r5, r2]
 846              	.LBE67:
 847              	.LBE178:
 848              		.loc 1 575 0
 849 0296 229A     		ldr	r2, [sp, #136]
 850              	.LBB179:
 851              	.LBB68:
 473:../../../../../../Middlewares/Third_Party/LoRaWAN/Crypto/aes.c ****   }
 852              		.loc 1 473 0
 853 0298 4340     		eors	r3, r0
 854              	.LBE68:
 855              	.LBE179:
 856              	.LBB180:
 857              	.LBB125:
 858              	.LBB98:
 372:../../../../../../Middlewares/Third_Party/LoRaWAN/Crypto/aes.c **** #endif
 859              		.loc 1 372 0
 860 029a F87B     		ldrb	r0, [r7, #15]
 861 029c 1037     		adds	r7, r7, #16
 862              	.LVL38:
 863 029e 4340     		eors	r3, r0
 864              	.LVL39:
 865              	.LBE98:
 866              	.LBE125:
 867              	.LBE180:
 868              		.loc 1 575 0
 869 02a0 BA42     		cmp	r2, r7
 870 02a2 00D0     		beq	.LCB906
 871 02a4 09E7     		b	.L3	@long jump
 872              	.LCB906:
 873 02a6 D046     		mov	r8, r10
 874 02a8 9C46     		mov	ip, r3
 875 02aa 259B     		ldr	r3, [sp, #148]
 876              	.LVL40:
 877 02ac 049C     		ldr	r4, [sp, #16]
 878 02ae 0D9D     		ldr	r5, [sp, #52]
ARM GAS  C:\Users\EBANO_~1\AppData\Local\Temp\ccMXEZix.s 			page 29


 879 02b0 1A01     		lsls	r2, r3, #4
 880              	.LVL41:
 881              	.L2:
 882              	.LBB181:
 883              	.LBB182:
 414:../../../../../../Middlewares/Third_Party/LoRaWAN/Crypto/aes.c ****     st[ 8] = s_box(st[ 8]); st[12] = s_box(st[12]);
 884              		.loc 1 414 0
 885 02b2 119B     		ldr	r3, [sp, #68]
 417:../../../../../../Middlewares/Third_Party/LoRaWAN/Crypto/aes.c ****     st[ 9] = s_box(st[13]); st[13] = s_box( tt );
 886              		.loc 1 417 0
 887 02b4 019E     		ldr	r6, [sp, #4]
 414:../../../../../../Middlewares/Third_Party/LoRaWAN/Crypto/aes.c ****     st[ 8] = s_box(st[ 8]); st[12] = s_box(st[12]);
 888              		.loc 1 414 0
 889 02b6 CB5C     		ldrb	r3, [r1, r3]
 415:../../../../../../Middlewares/Third_Party/LoRaWAN/Crypto/aes.c **** 
 890              		.loc 1 415 0
 891 02b8 1498     		ldr	r0, [sp, #80]
 414:../../../../../../Middlewares/Third_Party/LoRaWAN/Crypto/aes.c ****     st[ 8] = s_box(st[ 8]); st[12] = s_box(st[12]);
 892              		.loc 1 414 0
 893 02ba 0493     		str	r3, [sp, #16]
 417:../../../../../../Middlewares/Third_Party/LoRaWAN/Crypto/aes.c ****     st[ 9] = s_box(st[13]); st[13] = s_box( tt );
 894              		.loc 1 417 0
 895 02bc 8B5D     		ldrb	r3, [r1, r6]
 896 02be 4646     		mov	r6, r8
 897 02c0 8E5D     		ldrb	r6, [r1, r6]
 415:../../../../../../Middlewares/Third_Party/LoRaWAN/Crypto/aes.c **** 
 898              		.loc 1 415 0
 899 02c2 085C     		ldrb	r0, [r1, r0]
 417:../../../../../../Middlewares/Third_Party/LoRaWAN/Crypto/aes.c ****     st[ 9] = s_box(st[13]); st[13] = s_box( tt );
 900              		.loc 1 417 0
 901 02c4 0196     		str	r6, [sp, #4]
 902              	.LVL42:
 420:../../../../../../Middlewares/Third_Party/LoRaWAN/Crypto/aes.c ****     tt = st[6]; st[ 6] = s_box(st[14]); st[14] = s_box( tt );
 903              		.loc 1 420 0
 904 02c6 029E     		ldr	r6, [sp, #8]
 415:../../../../../../Middlewares/Third_Party/LoRaWAN/Crypto/aes.c **** 
 905              		.loc 1 415 0
 906 02c8 0590     		str	r0, [sp, #20]
 420:../../../../../../Middlewares/Third_Party/LoRaWAN/Crypto/aes.c ****     tt = st[6]; st[ 6] = s_box(st[14]); st[14] = s_box( tt );
 907              		.loc 1 420 0
 908 02ca 885D     		ldrb	r0, [r1, r6]
 909 02cc 0F9E     		ldr	r6, [sp, #60]
 415:../../../../../../Middlewares/Third_Party/LoRaWAN/Crypto/aes.c **** 
 910              		.loc 1 415 0
 911 02ce 4D5D     		ldrb	r5, [r1, r5]
 420:../../../../../../Middlewares/Third_Party/LoRaWAN/Crypto/aes.c ****     tt = st[6]; st[ 6] = s_box(st[14]); st[14] = s_box( tt );
 912              		.loc 1 420 0
 913 02d0 8E5D     		ldrb	r6, [r1, r6]
 415:../../../../../../Middlewares/Third_Party/LoRaWAN/Crypto/aes.c **** 
 914              		.loc 1 415 0
 915 02d2 0695     		str	r5, [sp, #24]
 420:../../../../../../Middlewares/Third_Party/LoRaWAN/Crypto/aes.c ****     tt = st[6]; st[ 6] = s_box(st[14]); st[14] = s_box( tt );
 916              		.loc 1 420 0
 917 02d4 B146     		mov	r9, r6
 918              	.LVL43:
 418:../../../../../../Middlewares/Third_Party/LoRaWAN/Crypto/aes.c **** 
 919              		.loc 1 418 0
ARM GAS  C:\Users\EBANO_~1\AppData\Local\Temp\ccMXEZix.s 			page 30


 920 02d6 0E9D     		ldr	r5, [sp, #56]
 421:../../../../../../Middlewares/Third_Party/LoRaWAN/Crypto/aes.c **** 
 921              		.loc 1 421 0
 922 02d8 129E     		ldr	r6, [sp, #72]
 418:../../../../../../Middlewares/Third_Party/LoRaWAN/Crypto/aes.c **** 
 923              		.loc 1 418 0
 924 02da 039F     		ldr	r7, [sp, #12]
 925 02dc 4D5D     		ldrb	r5, [r1, r5]
 420:../../../../../../Middlewares/Third_Party/LoRaWAN/Crypto/aes.c ****     tt = st[6]; st[ 6] = s_box(st[14]); st[14] = s_box( tt );
 926              		.loc 1 420 0
 927 02de 0290     		str	r0, [sp, #8]
 928              	.LVL44:
 421:../../../../../../Middlewares/Third_Party/LoRaWAN/Crypto/aes.c **** 
 929              		.loc 1 421 0
 930 02e0 085D     		ldrb	r0, [r1, r4]
 931 02e2 8C5D     		ldrb	r4, [r1, r6]
 932              	.LVL45:
 423:../../../../../../Middlewares/Third_Party/LoRaWAN/Crypto/aes.c ****     st[ 7] = s_box(st[ 3]); st[ 3] = s_box( tt );
 933              		.loc 1 423 0
 934 02e4 159E     		ldr	r6, [sp, #84]
 418:../../../../../../Middlewares/Third_Party/LoRaWAN/Crypto/aes.c **** 
 935              		.loc 1 418 0
 936 02e6 CF5D     		ldrb	r7, [r1, r7]
 937 02e8 0795     		str	r5, [sp, #28]
 421:../../../../../../Middlewares/Third_Party/LoRaWAN/Crypto/aes.c **** 
 938              		.loc 1 421 0
 939 02ea 0894     		str	r4, [sp, #32]
 423:../../../../../../Middlewares/Third_Party/LoRaWAN/Crypto/aes.c ****     st[ 7] = s_box(st[ 3]); st[ 3] = s_box( tt );
 940              		.loc 1 423 0
 941 02ec 8D5D     		ldrb	r5, [r1, r6]
 424:../../../../../../Middlewares/Third_Party/LoRaWAN/Crypto/aes.c **** }
 942              		.loc 1 424 0
 943 02ee 109C     		ldr	r4, [sp, #64]
 423:../../../../../../Middlewares/Third_Party/LoRaWAN/Crypto/aes.c ****     st[ 7] = s_box(st[ 3]); st[ 3] = s_box( tt );
 944              		.loc 1 423 0
 945 02f0 139E     		ldr	r6, [sp, #76]
 418:../../../../../../Middlewares/Third_Party/LoRaWAN/Crypto/aes.c **** 
 946              		.loc 1 418 0
 947 02f2 0397     		str	r7, [sp, #12]
 948              	.LVL46:
 423:../../../../../../Middlewares/Third_Party/LoRaWAN/Crypto/aes.c ****     st[ 7] = s_box(st[ 3]); st[ 3] = s_box( tt );
 949              		.loc 1 423 0
 950 02f4 8E5D     		ldrb	r6, [r1, r6]
 424:../../../../../../Middlewares/Third_Party/LoRaWAN/Crypto/aes.c **** }
 951              		.loc 1 424 0
 952 02f6 0F5D     		ldrb	r7, [r1, r4]
 953 02f8 6446     		mov	r4, ip
 954 02fa 0C5D     		ldrb	r4, [r1, r4]
 955 02fc A446     		mov	ip, r4
 956              	.LVL47:
 957              	.LBE182:
 958              	.LBE181:
 576:../../../../../../Middlewares/Third_Party/LoRaWAN/Crypto/aes.c **** #if defined( VERSION_1 )
 577:../../../../../../Middlewares/Third_Party/LoRaWAN/Crypto/aes.c ****         {
 578:../../../../../../Middlewares/Third_Party/LoRaWAN/Crypto/aes.c ****             mix_sub_columns( s1 );
 579:../../../../../../Middlewares/Third_Party/LoRaWAN/Crypto/aes.c ****             add_round_key( s1, ctx->ksch + r * N_BLOCK);
 580:../../../../../../Middlewares/Third_Party/LoRaWAN/Crypto/aes.c ****         }
ARM GAS  C:\Users\EBANO_~1\AppData\Local\Temp\ccMXEZix.s 			page 31


 581:../../../../../../Middlewares/Third_Party/LoRaWAN/Crypto/aes.c **** #else
 582:../../../../../../Middlewares/Third_Party/LoRaWAN/Crypto/aes.c ****         {   uint8_t s2[N_BLOCK];
 583:../../../../../../Middlewares/Third_Party/LoRaWAN/Crypto/aes.c ****             mix_sub_columns( s2, s1 );
 584:../../../../../../Middlewares/Third_Party/LoRaWAN/Crypto/aes.c ****             copy_and_key( s1, s2, ctx->ksch + r * N_BLOCK);
 585:../../../../../../Middlewares/Third_Party/LoRaWAN/Crypto/aes.c ****         }
 586:../../../../../../Middlewares/Third_Party/LoRaWAN/Crypto/aes.c **** #endif
 587:../../../../../../Middlewares/Third_Party/LoRaWAN/Crypto/aes.c ****         shift_sub_rows( s1 );
 588:../../../../../../Middlewares/Third_Party/LoRaWAN/Crypto/aes.c ****         copy_and_key( out, s1, ctx->ksch + r * N_BLOCK );
 959              		.loc 1 588 0
 960 02fe 249C     		ldr	r4, [sp, #144]
 961 0300 A046     		mov	r8, r4
 962              	.LVL48:
 963 0302 4244     		add	r2, r2, r8
 964              	.LVL49:
 965              	.LBB183:
 966              	.LBB184:
 384:../../../../../../Middlewares/Third_Party/LoRaWAN/Crypto/aes.c ****     ((uint8_t*)d)[ 1] = ((uint8_t*)s)[ 1] ^ ((uint8_t*)k)[ 1];
 967              		.loc 1 384 0
 968 0304 1478     		ldrb	r4, [r2]
 969 0306 A046     		mov	r8, r4
 970 0308 5C46     		mov	r4, fp
 971 030a 095D     		ldrb	r1, [r1, r4]
 972 030c 8A46     		mov	r10, r1
 973 030e 4146     		mov	r1, r8
 974 0310 5446     		mov	r4, r10
 975 0312 6140     		eors	r1, r4
 976 0314 8846     		mov	r8, r1
 977 0316 4446     		mov	r4, r8
 978 0318 2399     		ldr	r1, [sp, #140]
 979 031a 0C70     		strb	r4, [r1]
 385:../../../../../../Middlewares/Third_Party/LoRaWAN/Crypto/aes.c ****     ((uint8_t*)d)[ 2] = ((uint8_t*)s)[ 2] ^ ((uint8_t*)k)[ 2];
 980              		.loc 1 385 0
 981 031c 5478     		ldrb	r4, [r2, #1]
 982 031e 6340     		eors	r3, r4
 983 0320 0C00     		movs	r4, r1
 984 0322 4B70     		strb	r3, [r1, #1]
 386:../../../../../../Middlewares/Third_Party/LoRaWAN/Crypto/aes.c ****     ((uint8_t*)d)[ 3] = ((uint8_t*)s)[ 3] ^ ((uint8_t*)k)[ 3];
 985              		.loc 1 386 0
 986 0324 9378     		ldrb	r3, [r2, #2]
 987 0326 0299     		ldr	r1, [sp, #8]
 988 0328 5940     		eors	r1, r3
 989 032a A170     		strb	r1, [r4, #2]
 387:../../../../../../Middlewares/Third_Party/LoRaWAN/Crypto/aes.c ****     ((uint8_t*)d)[ 4] = ((uint8_t*)s)[ 4] ^ ((uint8_t*)k)[ 4];
 990              		.loc 1 387 0
 991 032c 6446     		mov	r4, ip
 992 032e D378     		ldrb	r3, [r2, #3]
 993 0330 2399     		ldr	r1, [sp, #140]
 994 0332 6340     		eors	r3, r4
 995 0334 CB70     		strb	r3, [r1, #3]
 388:../../../../../../Middlewares/Third_Party/LoRaWAN/Crypto/aes.c ****     ((uint8_t*)d)[ 5] = ((uint8_t*)s)[ 5] ^ ((uint8_t*)k)[ 5];
 996              		.loc 1 388 0
 997 0336 1379     		ldrb	r3, [r2, #4]
 998 0338 049C     		ldr	r4, [sp, #16]
 999 033a 6340     		eors	r3, r4
 1000 033c 0B71     		strb	r3, [r1, #4]
 389:../../../../../../Middlewares/Third_Party/LoRaWAN/Crypto/aes.c ****     ((uint8_t*)d)[ 6] = ((uint8_t*)s)[ 6] ^ ((uint8_t*)k)[ 6];
 1001              		.loc 1 389 0
ARM GAS  C:\Users\EBANO_~1\AppData\Local\Temp\ccMXEZix.s 			page 32


 1002 033e 5379     		ldrb	r3, [r2, #5]
 1003 0340 019C     		ldr	r4, [sp, #4]
 1004 0342 6340     		eors	r3, r4
 394:../../../../../../Middlewares/Third_Party/LoRaWAN/Crypto/aes.c ****     ((uint8_t*)d)[11] = ((uint8_t*)s)[11] ^ ((uint8_t*)k)[11];
 1005              		.loc 1 394 0
 1006 0344 4C46     		mov	r4, r9
 389:../../../../../../Middlewares/Third_Party/LoRaWAN/Crypto/aes.c ****     ((uint8_t*)d)[ 6] = ((uint8_t*)s)[ 6] ^ ((uint8_t*)k)[ 6];
 1007              		.loc 1 389 0
 1008 0346 4B71     		strb	r3, [r1, #5]
 390:../../../../../../Middlewares/Third_Party/LoRaWAN/Crypto/aes.c ****     ((uint8_t*)d)[ 7] = ((uint8_t*)s)[ 7] ^ ((uint8_t*)k)[ 7];
 1009              		.loc 1 390 0
 1010 0348 9379     		ldrb	r3, [r2, #6]
 1011 034a 5840     		eors	r0, r3
 1012 034c 8871     		strb	r0, [r1, #6]
 391:../../../../../../Middlewares/Third_Party/LoRaWAN/Crypto/aes.c ****     ((uint8_t*)d)[ 8] = ((uint8_t*)s)[ 8] ^ ((uint8_t*)k)[ 8];
 1013              		.loc 1 391 0
 1014 034e D379     		ldrb	r3, [r2, #7]
 392:../../../../../../Middlewares/Third_Party/LoRaWAN/Crypto/aes.c ****     ((uint8_t*)d)[ 9] = ((uint8_t*)s)[ 9] ^ ((uint8_t*)k)[ 9];
 1015              		.loc 1 392 0
 1016 0350 0598     		ldr	r0, [sp, #20]
 391:../../../../../../Middlewares/Third_Party/LoRaWAN/Crypto/aes.c ****     ((uint8_t*)d)[ 8] = ((uint8_t*)s)[ 8] ^ ((uint8_t*)k)[ 8];
 1017              		.loc 1 391 0
 1018 0352 5F40     		eors	r7, r3
 1019 0354 CF71     		strb	r7, [r1, #7]
 392:../../../../../../Middlewares/Third_Party/LoRaWAN/Crypto/aes.c ****     ((uint8_t*)d)[ 9] = ((uint8_t*)s)[ 9] ^ ((uint8_t*)k)[ 9];
 1020              		.loc 1 392 0
 1021 0356 137A     		ldrb	r3, [r2, #8]
 393:../../../../../../Middlewares/Third_Party/LoRaWAN/Crypto/aes.c ****     ((uint8_t*)d)[10] = ((uint8_t*)s)[10] ^ ((uint8_t*)k)[10];
 1022              		.loc 1 393 0
 1023 0358 039F     		ldr	r7, [sp, #12]
 392:../../../../../../Middlewares/Third_Party/LoRaWAN/Crypto/aes.c ****     ((uint8_t*)d)[ 9] = ((uint8_t*)s)[ 9] ^ ((uint8_t*)k)[ 9];
 1024              		.loc 1 392 0
 1025 035a 4340     		eors	r3, r0
 1026 035c 0B72     		strb	r3, [r1, #8]
 393:../../../../../../Middlewares/Third_Party/LoRaWAN/Crypto/aes.c ****     ((uint8_t*)d)[10] = ((uint8_t*)s)[10] ^ ((uint8_t*)k)[10];
 1027              		.loc 1 393 0
 1028 035e 537A     		ldrb	r3, [r2, #9]
 1029 0360 7B40     		eors	r3, r7
 1030 0362 4B72     		strb	r3, [r1, #9]
 394:../../../../../../Middlewares/Third_Party/LoRaWAN/Crypto/aes.c ****     ((uint8_t*)d)[11] = ((uint8_t*)s)[11] ^ ((uint8_t*)k)[11];
 1031              		.loc 1 394 0
 1032 0364 937A     		ldrb	r3, [r2, #10]
 1033 0366 6340     		eors	r3, r4
 1034 0368 8B72     		strb	r3, [r1, #10]
 395:../../../../../../Middlewares/Third_Party/LoRaWAN/Crypto/aes.c ****     ((uint8_t*)d)[12] = ((uint8_t*)s)[12] ^ ((uint8_t*)k)[12];
 1035              		.loc 1 395 0
 1036 036a D37A     		ldrb	r3, [r2, #11]
 396:../../../../../../Middlewares/Third_Party/LoRaWAN/Crypto/aes.c ****     ((uint8_t*)d)[13] = ((uint8_t*)s)[13] ^ ((uint8_t*)k)[13];
 1037              		.loc 1 396 0
 1038 036c 0698     		ldr	r0, [sp, #24]
 395:../../../../../../Middlewares/Third_Party/LoRaWAN/Crypto/aes.c ****     ((uint8_t*)d)[12] = ((uint8_t*)s)[12] ^ ((uint8_t*)k)[12];
 1039              		.loc 1 395 0
 1040 036e 5E40     		eors	r6, r3
 1041 0370 CE72     		strb	r6, [r1, #11]
 396:../../../../../../Middlewares/Third_Party/LoRaWAN/Crypto/aes.c ****     ((uint8_t*)d)[13] = ((uint8_t*)s)[13] ^ ((uint8_t*)k)[13];
 1042              		.loc 1 396 0
 1043 0372 137B     		ldrb	r3, [r2, #12]
ARM GAS  C:\Users\EBANO_~1\AppData\Local\Temp\ccMXEZix.s 			page 33


 398:../../../../../../Middlewares/Third_Party/LoRaWAN/Crypto/aes.c ****     ((uint8_t*)d)[15] = ((uint8_t*)s)[15] ^ ((uint8_t*)k)[15];
 1044              		.loc 1 398 0
 1045 0374 089C     		ldr	r4, [sp, #32]
 396:../../../../../../Middlewares/Third_Party/LoRaWAN/Crypto/aes.c ****     ((uint8_t*)d)[13] = ((uint8_t*)s)[13] ^ ((uint8_t*)k)[13];
 1046              		.loc 1 396 0
 1047 0376 4340     		eors	r3, r0
 1048 0378 0B73     		strb	r3, [r1, #12]
 397:../../../../../../Middlewares/Third_Party/LoRaWAN/Crypto/aes.c ****     ((uint8_t*)d)[14] = ((uint8_t*)s)[14] ^ ((uint8_t*)k)[14];
 1049              		.loc 1 397 0
 1050 037a 537B     		ldrb	r3, [r2, #13]
 1051 037c 0798     		ldr	r0, [sp, #28]
 1052 037e 4340     		eors	r3, r0
 1053              	.LBE184:
 1054              	.LBE183:
 1055              	.LBE32:
 589:../../../../../../Middlewares/Third_Party/LoRaWAN/Crypto/aes.c ****     }
 590:../../../../../../Middlewares/Third_Party/LoRaWAN/Crypto/aes.c ****     else
 591:../../../../../../Middlewares/Third_Party/LoRaWAN/Crypto/aes.c ****         return ( uint8_t )-1;
 592:../../../../../../Middlewares/Third_Party/LoRaWAN/Crypto/aes.c ****     return 0;
 593:../../../../../../Middlewares/Third_Party/LoRaWAN/Crypto/aes.c **** }
 1056              		.loc 1 593 0
 1057 0380 0020     		movs	r0, #0
 1058              	.LBB187:
 1059              	.LBB186:
 1060              	.LBB185:
 397:../../../../../../Middlewares/Third_Party/LoRaWAN/Crypto/aes.c ****     ((uint8_t*)d)[14] = ((uint8_t*)s)[14] ^ ((uint8_t*)k)[14];
 1061              		.loc 1 397 0
 1062 0382 4B73     		strb	r3, [r1, #13]
 398:../../../../../../Middlewares/Third_Party/LoRaWAN/Crypto/aes.c ****     ((uint8_t*)d)[15] = ((uint8_t*)s)[15] ^ ((uint8_t*)k)[15];
 1063              		.loc 1 398 0
 1064 0384 937B     		ldrb	r3, [r2, #14]
 1065 0386 5C40     		eors	r4, r3
 1066 0388 8C73     		strb	r4, [r1, #14]
 399:../../../../../../Middlewares/Third_Party/LoRaWAN/Crypto/aes.c **** #else
 1067              		.loc 1 399 0
 1068 038a D37B     		ldrb	r3, [r2, #15]
 1069 038c 5D40     		eors	r5, r3
 1070 038e CD73     		strb	r5, [r1, #15]
 1071              	.LVL50:
 1072              	.LBE185:
 1073              	.LBE186:
 1074              	.LBE187:
 1075              		.loc 1 593 0
 1076 0390 27B0     		add	sp, sp, #156
 1077              		@ sp needed
 1078              	.LVL51:
 1079 0392 3CBC     		pop	{r2, r3, r4, r5}
 1080 0394 9046     		mov	r8, r2
 1081 0396 9946     		mov	r9, r3
 1082 0398 A246     		mov	r10, r4
 1083 039a AB46     		mov	fp, r5
 1084 039c F0BD     		pop	{r4, r5, r6, r7, pc}
 1085              	.LVL52:
 1086              	.L4:
 1087              	.LBB188:
 575:../../../../../../Middlewares/Third_Party/LoRaWAN/Crypto/aes.c **** #if defined( VERSION_1 )
 1088              		.loc 1 575 0
ARM GAS  C:\Users\EBANO_~1\AppData\Local\Temp\ccMXEZix.s 			page 34


 1089 039e 1022     		movs	r2, #16
 1090 03a0 0049     		ldr	r1, .L7
 1091              	.LVL53:
 1092 03a2 86E7     		b	.L2
 1093              	.L8:
 1094              		.align	2
 1095              	.L7:
 1096 03a4 00020000 		.word	sbox
 1097 03a8 00010000 		.word	gfm2_sbox
 1098 03ac 00000000 		.word	gfm3_sbox
 1099              	.LBE188:
 1100              		.cfi_endproc
 1101              	.LFE10:
 1102              		.size	aes_encrypt.part.0, .-aes_encrypt.part.0
 1103              		.global	__aeabi_uidivmod
 1104              		.section	.text.aes_set_key,"ax",%progbits
 1105              		.align	1
 1106              		.p2align 2,,3
 1107              		.global	aes_set_key
 1108              		.syntax unified
 1109              		.code	16
 1110              		.thumb_func
 1111              		.fpu softvfp
 1112              		.type	aes_set_key, %function
 1113              	aes_set_key:
 1114              	.LFB7:
 514:../../../../../../Middlewares/Third_Party/LoRaWAN/Crypto/aes.c ****     uint8_t cc, rc, hi;
 1115              		.loc 1 514 0
 1116              		.cfi_startproc
 1117              		@ args = 0, pretend = 0, frame = 8
 1118              		@ frame_needed = 0, uses_anonymous_args = 0
 1119              	.LVL54:
 1120 0000 F0B5     		push	{r4, r5, r6, r7, lr}
 1121              	.LCFI3:
 1122              		.cfi_def_cfa_offset 20
 1123              		.cfi_offset 4, -20
 1124              		.cfi_offset 5, -16
 1125              		.cfi_offset 6, -12
 1126              		.cfi_offset 7, -8
 1127              		.cfi_offset 14, -4
 1128 0002 5746     		mov	r7, r10
 1129 0004 DE46     		mov	lr, fp
 1130 0006 4E46     		mov	r6, r9
 1131 0008 4546     		mov	r5, r8
 1132 000a 0B00     		movs	r3, r1
 1133 000c E0B5     		push	{r5, r6, r7, lr}
 1134              	.LCFI4:
 1135              		.cfi_def_cfa_offset 36
 1136              		.cfi_offset 8, -36
 1137              		.cfi_offset 9, -32
 1138              		.cfi_offset 10, -28
 1139              		.cfi_offset 11, -24
 1140 000e 103B     		subs	r3, r3, #16
 1141 0010 DBB2     		uxtb	r3, r3
 1142 0012 83B0     		sub	sp, sp, #12
 1143              	.LCFI5:
 1144              		.cfi_def_cfa_offset 48
ARM GAS  C:\Users\EBANO_~1\AppData\Local\Temp\ccMXEZix.s 			page 35


 514:../../../../../../Middlewares/Third_Party/LoRaWAN/Crypto/aes.c ****     uint8_t cc, rc, hi;
 1145              		.loc 1 514 0
 1146 0014 8A46     		mov	r10, r1
 1147 0016 1400     		movs	r4, r2
 1148 0018 102B     		cmp	r3, #16
 1149 001a 00D9     		bls	.LCB1220
 1150 001c 8EE0     		b	.L10	@long jump
 1151              	.LCB1220:
 1152 001e 0122     		movs	r2, #1
 1153              	.LVL55:
 1154 0020 9A40     		lsls	r2, r2, r3
 1155 0022 1300     		movs	r3, r2
 1156 0024 814A     		ldr	r2, .L52
 1157 0026 1342     		tst	r3, r2
 1158 0028 00D1     		bne	.LCB1228
 1159 002a 87E0     		b	.L10	@long jump
 1160              	.LCB1228:
 1161              	.LVL56:
 1162 002c 0023     		movs	r3, #0
 1163 002e 1A00     		movs	r2, r3
 1164              	.LBB189:
 1165              	.LBB190:
 344:../../../../../../Middlewares/Third_Party/LoRaWAN/Crypto/aes.c ****         //*((uint8_t*)d)++ = *((uint8_t*)s)++;
 1166              		.loc 1 344 0
 1167 0030 4D1E     		subs	r5, r1, #1
 1168 0032 011D     		adds	r1, r0, #4
 1169              	.LVL57:
 1170 0034 8C42     		cmp	r4, r1
 1171 0036 5A41     		adcs	r2, r2, r3
 1172 0038 211D     		adds	r1, r4, #4
 1173 003a 8842     		cmp	r0, r1
 1174 003c 5B41     		adcs	r3, r3, r3
 1175 003e EDB2     		uxtb	r5, r5
 1176              	.LVL58:
 1177 0040 1343     		orrs	r3, r2
 1178 0042 00D1     		bne	.LCB1248
 1179 0044 E9E0     		b	.L13	@long jump
 1180              	.LCB1248:
 1181 0046 2300     		movs	r3, r4
 1182 0048 0343     		orrs	r3, r0
 1183 004a 9B07     		lsls	r3, r3, #30
 1184 004c 00D0     		beq	.LCB1256
 1185 004e E4E0     		b	.L13	@long jump
 1186              	.LCB1256:
 1187 0050 5346     		mov	r3, r10
 346:../../../../../../Middlewares/Third_Party/LoRaWAN/Crypto/aes.c **** }
 1188              		.loc 1 346 0
 1189 0052 0268     		ldr	r2, [r0]
 1190 0054 9B08     		lsrs	r3, r3, #2
 1191              	.LVL59:
 1192 0056 2260     		str	r2, [r4]
 1193 0058 4268     		ldr	r2, [r0, #4]
 1194 005a 6260     		str	r2, [r4, #4]
 1195 005c 8268     		ldr	r2, [r0, #8]
 1196 005e A260     		str	r2, [r4, #8]
 1197 0060 C268     		ldr	r2, [r0, #12]
 1198 0062 E260     		str	r2, [r4, #12]
ARM GAS  C:\Users\EBANO_~1\AppData\Local\Temp\ccMXEZix.s 			page 36


 1199 0064 042B     		cmp	r3, #4
 1200 0066 0DD0     		beq	.L14
 1201 0068 0269     		ldr	r2, [r0, #16]
 1202 006a 2261     		str	r2, [r4, #16]
 1203 006c 052B     		cmp	r3, #5
 1204 006e 09D0     		beq	.L14
 1205 0070 4269     		ldr	r2, [r0, #20]
 1206 0072 6261     		str	r2, [r4, #20]
 1207 0074 062B     		cmp	r3, #6
 1208 0076 05D0     		beq	.L14
 1209 0078 8269     		ldr	r2, [r0, #24]
 1210 007a A261     		str	r2, [r4, #24]
 1211 007c 082B     		cmp	r3, #8
 1212 007e 01D1     		bne	.L14
 1213 0080 C369     		ldr	r3, [r0, #28]
 1214 0082 E361     		str	r3, [r4, #28]
 1215              	.L14:
 1216 0084 0323     		movs	r3, #3
 1217 0086 5246     		mov	r2, r10
 1218 0088 9A43     		bics	r2, r3
 1219 008a 1300     		movs	r3, r2
 1220 008c 8018     		adds	r0, r0, r2
 1221              	.LVL60:
 1222 008e A118     		adds	r1, r4, r2
 1223 0090 AA1A     		subs	r2, r5, r2
 1224 0092 D2B2     		uxtb	r2, r2
 1225 0094 9A45     		cmp	r10, r3
 1226 0096 09D0     		beq	.L17
 1227              	.LVL61:
 1228 0098 0378     		ldrb	r3, [r0]
 1229 009a 0B70     		strb	r3, [r1]
 1230              	.LVL62:
 344:../../../../../../Middlewares/Third_Party/LoRaWAN/Crypto/aes.c ****         //*((uint8_t*)d)++ = *((uint8_t*)s)++;
 1231              		.loc 1 344 0
 1232 009c 002A     		cmp	r2, #0
 1233 009e 05D0     		beq	.L17
 1234              	.LVL63:
 346:../../../../../../Middlewares/Third_Party/LoRaWAN/Crypto/aes.c **** }
 1235              		.loc 1 346 0
 1236 00a0 4378     		ldrb	r3, [r0, #1]
 1237 00a2 4B70     		strb	r3, [r1, #1]
 1238              	.LVL64:
 344:../../../../../../Middlewares/Third_Party/LoRaWAN/Crypto/aes.c ****         //*((uint8_t*)d)++ = *((uint8_t*)s)++;
 1239              		.loc 1 344 0
 1240 00a4 012A     		cmp	r2, #1
 1241 00a6 01D0     		beq	.L17
 1242              	.LVL65:
 346:../../../../../../Middlewares/Third_Party/LoRaWAN/Crypto/aes.c **** }
 1243              		.loc 1 346 0
 1244 00a8 8378     		ldrb	r3, [r0, #2]
 1245 00aa 8B70     		strb	r3, [r1, #2]
 1246              	.LVL66:
 1247              	.L17:
 1248              	.LBE190:
 1249              	.LBE189:
 528:../../../../../../Middlewares/Third_Party/LoRaWAN/Crypto/aes.c ****     ctx->rnd = (hi >> 4) - 1;
 1250              		.loc 1 528 0
ARM GAS  C:\Users\EBANO_~1\AppData\Local\Temp\ccMXEZix.s 			page 37


 1251 00ac 5346     		mov	r3, r10
 529:../../../../../../Middlewares/Third_Party/LoRaWAN/Crypto/aes.c ****     for( cc = keylen, rc = 1; cc < hi; cc += 4 )
 1252              		.loc 1 529 0
 1253 00ae F022     		movs	r2, #240
 528:../../../../../../Middlewares/Third_Party/LoRaWAN/Crypto/aes.c ****     ctx->rnd = (hi >> 4) - 1;
 1254              		.loc 1 528 0
 1255 00b0 1C33     		adds	r3, r3, #28
 1256 00b2 9B00     		lsls	r3, r3, #2
 1257 00b4 DBB2     		uxtb	r3, r3
 1258 00b6 0093     		str	r3, [sp]
 1259              	.LVL67:
 529:../../../../../../Middlewares/Third_Party/LoRaWAN/Crypto/aes.c ****     for( cc = keylen, rc = 1; cc < hi; cc += 4 )
 1260              		.loc 1 529 0
 1261 00b8 1B09     		lsrs	r3, r3, #4
 1262              	.LVL68:
 1263 00ba 013B     		subs	r3, r3, #1
 1264 00bc A354     		strb	r3, [r4, r2]
 1265              	.LVL69:
 1266 00be 5346     		mov	r3, r10
 1267 00c0 182B     		cmp	r3, #24
 1268 00c2 5ED9     		bls	.L50
 530:../../../../../../Middlewares/Third_Party/LoRaWAN/Crypto/aes.c ****     {   uint8_t tt, t0, t1, t2, t3;
 1269              		.loc 1 530 0
 1270 00c4 0123     		movs	r3, #1
 529:../../../../../../Middlewares/Third_Party/LoRaWAN/Crypto/aes.c ****     for( cc = keylen, rc = 1; cc < hi; cc += 4 )
 1271              		.loc 1 529 0
 1272 00c6 5546     		mov	r5, r10
 530:../../../../../../Middlewares/Third_Party/LoRaWAN/Crypto/aes.c ****     {   uint8_t tt, t0, t1, t2, t3;
 1273              		.loc 1 530 0
 1274 00c8 9B46     		mov	fp, r3
 1275              	.LBB192:
 540:../../../../../../Middlewares/Third_Party/LoRaWAN/Crypto/aes.c ****             t1 = s_box(t2);
 1276              		.loc 1 540 0
 1277 00ca A146     		mov	r9, r4
 1278              	.LVL70:
 1279              	.L18:
 533:../../../../../../Middlewares/Third_Party/LoRaWAN/Crypto/aes.c ****         t1 = ctx->ksch[cc - 3];
 1280              		.loc 1 533 0
 1281 00cc 4B46     		mov	r3, r9
 1282 00ce 5E19     		adds	r6, r3, r5
 1283 00d0 331F     		subs	r3, r6, #4
 1284 00d2 1B78     		ldrb	r3, [r3]
 537:../../../../../../Middlewares/Third_Party/LoRaWAN/Crypto/aes.c ****         {
 1285              		.loc 1 537 0
 1286 00d4 5146     		mov	r1, r10
 533:../../../../../../Middlewares/Third_Party/LoRaWAN/Crypto/aes.c ****         t1 = ctx->ksch[cc - 3];
 1287              		.loc 1 533 0
 1288 00d6 0193     		str	r3, [sp, #4]
 1289              	.LVL71:
 534:../../../../../../Middlewares/Third_Party/LoRaWAN/Crypto/aes.c ****         t2 = ctx->ksch[cc - 2];
 1290              		.loc 1 534 0
 1291 00d8 F31E     		subs	r3, r6, #3
 1292 00da 1A78     		ldrb	r2, [r3]
 535:../../../../../../Middlewares/Third_Party/LoRaWAN/Crypto/aes.c ****         t3 = ctx->ksch[cc - 1];
 1293              		.loc 1 535 0
 1294 00dc B31E     		subs	r3, r6, #2
 1295 00de 1C78     		ldrb	r4, [r3]
ARM GAS  C:\Users\EBANO_~1\AppData\Local\Temp\ccMXEZix.s 			page 38


 537:../../../../../../Middlewares/Third_Party/LoRaWAN/Crypto/aes.c ****         {
 1296              		.loc 1 537 0
 1297 00e0 2800     		movs	r0, r5
 536:../../../../../../Middlewares/Third_Party/LoRaWAN/Crypto/aes.c ****         if( cc % keylen == 0 )
 1298              		.loc 1 536 0
 1299 00e2 731E     		subs	r3, r6, #1
 534:../../../../../../Middlewares/Third_Party/LoRaWAN/Crypto/aes.c ****         t2 = ctx->ksch[cc - 2];
 1300              		.loc 1 534 0
 1301 00e4 9046     		mov	r8, r2
 1302              	.LVL72:
 536:../../../../../../Middlewares/Third_Party/LoRaWAN/Crypto/aes.c ****         if( cc % keylen == 0 )
 1303              		.loc 1 536 0
 1304 00e6 1F78     		ldrb	r7, [r3]
 1305              	.LVL73:
 537:../../../../../../Middlewares/Third_Party/LoRaWAN/Crypto/aes.c ****         {
 1306              		.loc 1 537 0
 1307 00e8 FFF7FEFF 		bl	__aeabi_uidivmod
 1308              	.LVL74:
 1309 00ec C9B2     		uxtb	r1, r1
 1310 00ee 0029     		cmp	r1, #0
 1311 00f0 2FD0     		beq	.L51
 533:../../../../../../Middlewares/Third_Party/LoRaWAN/Crypto/aes.c ****         t1 = ctx->ksch[cc - 3];
 1312              		.loc 1 533 0 discriminator 1
 1313 00f2 019A     		ldr	r2, [sp, #4]
 546:../../../../../../Middlewares/Third_Party/LoRaWAN/Crypto/aes.c ****         {
 1314              		.loc 1 546 0 discriminator 1
 1315 00f4 1029     		cmp	r1, #16
 1316 00f6 07D1     		bne	.L22
 549:../../../../../../Middlewares/Third_Party/LoRaWAN/Crypto/aes.c ****             t2 = s_box(t2);
 1317              		.loc 1 549 0
 1318 00f8 4146     		mov	r1, r8
 548:../../../../../../Middlewares/Third_Party/LoRaWAN/Crypto/aes.c ****             t1 = s_box(t1);
 1319              		.loc 1 548 0
 1320 00fa 4D4B     		ldr	r3, .L52+4
 1321 00fc 9A5C     		ldrb	r2, [r3, r2]
 1322              	.LVL75:
 549:../../../../../../Middlewares/Third_Party/LoRaWAN/Crypto/aes.c ****             t2 = s_box(t2);
 1323              		.loc 1 549 0
 1324 00fe 5B5C     		ldrb	r3, [r3, r1]
 1325 0100 9846     		mov	r8, r3
 1326              	.LVL76:
 550:../../../../../../Middlewares/Third_Party/LoRaWAN/Crypto/aes.c ****             t3 = s_box(t3);
 1327              		.loc 1 550 0
 1328 0102 4B4B     		ldr	r3, .L52+4
 1329 0104 1C5D     		ldrb	r4, [r3, r4]
 1330              	.LVL77:
 551:../../../../../../Middlewares/Third_Party/LoRaWAN/Crypto/aes.c ****         }
 1331              		.loc 1 551 0
 1332 0106 DF5D     		ldrb	r7, [r3, r7]
 1333              	.LVL78:
 1334              	.L22:
 554:../../../../../../Middlewares/Third_Party/LoRaWAN/Crypto/aes.c ****         ctx->ksch[cc + 1] = ctx->ksch[tt + 1] ^ t1;
 1335              		.loc 1 554 0 discriminator 2
 1336 0108 5346     		mov	r3, r10
 1337 010a 4946     		mov	r1, r9
 1338 010c EB1A     		subs	r3, r5, r3
 1339 010e DBB2     		uxtb	r3, r3
ARM GAS  C:\Users\EBANO_~1\AppData\Local\Temp\ccMXEZix.s 			page 39


 1340 0110 C95C     		ldrb	r1, [r1, r3]
 555:../../../../../../Middlewares/Third_Party/LoRaWAN/Crypto/aes.c ****         ctx->ksch[cc + 2] = ctx->ksch[tt + 2] ^ t2;
 1341              		.loc 1 555 0 discriminator 2
 1342 0112 4B44     		add	r3, r3, r9
 554:../../../../../../Middlewares/Third_Party/LoRaWAN/Crypto/aes.c ****         ctx->ksch[cc + 1] = ctx->ksch[tt + 1] ^ t1;
 1343              		.loc 1 554 0 discriminator 2
 1344 0114 4A40     		eors	r2, r1
 1345              	.LVL79:
 1346 0116 4946     		mov	r1, r9
 1347 0118 4A55     		strb	r2, [r1, r5]
 555:../../../../../../Middlewares/Third_Party/LoRaWAN/Crypto/aes.c ****         ctx->ksch[cc + 2] = ctx->ksch[tt + 2] ^ t2;
 1348              		.loc 1 555 0 discriminator 2
 1349 011a 4146     		mov	r1, r8
 1350 011c 5A78     		ldrb	r2, [r3, #1]
 1351              	.LBE192:
 530:../../../../../../Middlewares/Third_Party/LoRaWAN/Crypto/aes.c ****     {   uint8_t tt, t0, t1, t2, t3;
 1352              		.loc 1 530 0 discriminator 2
 1353 011e 0435     		adds	r5, r5, #4
 1354              	.LVL80:
 1355              	.LBB193:
 555:../../../../../../Middlewares/Third_Party/LoRaWAN/Crypto/aes.c ****         ctx->ksch[cc + 2] = ctx->ksch[tt + 2] ^ t2;
 1356              		.loc 1 555 0 discriminator 2
 1357 0120 5140     		eors	r1, r2
 1358 0122 7170     		strb	r1, [r6, #1]
 556:../../../../../../Middlewares/Third_Party/LoRaWAN/Crypto/aes.c ****         ctx->ksch[cc + 3] = ctx->ksch[tt + 3] ^ t3;
 1359              		.loc 1 556 0 discriminator 2
 1360 0124 9A78     		ldrb	r2, [r3, #2]
 1361              	.LBE193:
 530:../../../../../../Middlewares/Third_Party/LoRaWAN/Crypto/aes.c ****     {   uint8_t tt, t0, t1, t2, t3;
 1362              		.loc 1 530 0 discriminator 2
 1363 0126 EDB2     		uxtb	r5, r5
 1364              	.LVL81:
 1365              	.LBB194:
 556:../../../../../../Middlewares/Third_Party/LoRaWAN/Crypto/aes.c ****         ctx->ksch[cc + 3] = ctx->ksch[tt + 3] ^ t3;
 1366              		.loc 1 556 0 discriminator 2
 1367 0128 5440     		eors	r4, r2
 1368              	.LVL82:
 1369 012a B470     		strb	r4, [r6, #2]
 557:../../../../../../Middlewares/Third_Party/LoRaWAN/Crypto/aes.c ****     }
 1370              		.loc 1 557 0 discriminator 2
 1371 012c DB78     		ldrb	r3, [r3, #3]
 1372 012e 5F40     		eors	r7, r3
 1373              	.LVL83:
 1374              	.LBE194:
 530:../../../../../../Middlewares/Third_Party/LoRaWAN/Crypto/aes.c ****     {   uint8_t tt, t0, t1, t2, t3;
 1375              		.loc 1 530 0 discriminator 2
 1376 0130 009B     		ldr	r3, [sp]
 1377              	.LBB195:
 557:../../../../../../Middlewares/Third_Party/LoRaWAN/Crypto/aes.c ****     }
 1378              		.loc 1 557 0 discriminator 2
 1379 0132 F770     		strb	r7, [r6, #3]
 1380              	.LBE195:
 530:../../../../../../Middlewares/Third_Party/LoRaWAN/Crypto/aes.c ****     {   uint8_t tt, t0, t1, t2, t3;
 1381              		.loc 1 530 0 discriminator 2
 1382 0134 AB42     		cmp	r3, r5
 1383 0136 C9D8     		bhi	.L18
 559:../../../../../../Middlewares/Third_Party/LoRaWAN/Crypto/aes.c **** }
ARM GAS  C:\Users\EBANO_~1\AppData\Local\Temp\ccMXEZix.s 			page 40


 1384              		.loc 1 559 0
 1385 0138 0020     		movs	r0, #0
 1386 013a 03E0     		b	.L12
 1387              	.LVL84:
 1388              	.L10:
 524:../../../../../../Middlewares/Third_Party/LoRaWAN/Crypto/aes.c ****         return ( uint8_t )-1;
 1389              		.loc 1 524 0
 1390 013c F023     		movs	r3, #240
 1391 013e 0022     		movs	r2, #0
 525:../../../../../../Middlewares/Third_Party/LoRaWAN/Crypto/aes.c ****     }
 1392              		.loc 1 525 0
 1393 0140 FF20     		movs	r0, #255
 1394              	.LVL85:
 524:../../../../../../Middlewares/Third_Party/LoRaWAN/Crypto/aes.c ****         return ( uint8_t )-1;
 1395              		.loc 1 524 0
 1396 0142 E254     		strb	r2, [r4, r3]
 1397              	.LVL86:
 1398              	.L12:
 560:../../../../../../Middlewares/Third_Party/LoRaWAN/Crypto/aes.c **** 
 1399              		.loc 1 560 0
 1400 0144 03B0     		add	sp, sp, #12
 1401              		@ sp needed
 1402 0146 3CBC     		pop	{r2, r3, r4, r5}
 1403 0148 9046     		mov	r8, r2
 1404 014a 9946     		mov	r9, r3
 1405 014c A246     		mov	r10, r4
 1406 014e AB46     		mov	fp, r5
 1407 0150 F0BD     		pop	{r4, r5, r6, r7, pc}
 1408              	.LVL87:
 1409              	.L51:
 1410              	.LBB196:
 540:../../../../../../Middlewares/Third_Party/LoRaWAN/Crypto/aes.c ****             t1 = s_box(t2);
 1411              		.loc 1 540 0
 1412 0152 4146     		mov	r1, r8
 1413 0154 364A     		ldr	r2, .L52+4
 543:../../../../../../Middlewares/Third_Party/LoRaWAN/Crypto/aes.c ****             rc = f2(rc);
 1414              		.loc 1 543 0
 1415 0156 019B     		ldr	r3, [sp, #4]
 540:../../../../../../Middlewares/Third_Party/LoRaWAN/Crypto/aes.c ****             t1 = s_box(t2);
 1416              		.loc 1 540 0
 1417 0158 525C     		ldrb	r2, [r2, r1]
 1418 015a 5946     		mov	r1, fp
 1419 015c 4A40     		eors	r2, r1
 1420              	.LVL88:
 541:../../../../../../Middlewares/Third_Party/LoRaWAN/Crypto/aes.c ****             t2 = s_box(t3);
 1421              		.loc 1 541 0
 1422 015e 3449     		ldr	r1, .L52+4
 1423 0160 095D     		ldrb	r1, [r1, r4]
 1424 0162 8846     		mov	r8, r1
 1425              	.LVL89:
 542:../../../../../../Middlewares/Third_Party/LoRaWAN/Crypto/aes.c ****             t3 = s_box(tt);
 1426              		.loc 1 542 0
 1427 0164 3249     		ldr	r1, .L52+4
 1428 0166 CC5D     		ldrb	r4, [r1, r7]
 1429              	.LVL90:
 543:../../../../../../Middlewares/Third_Party/LoRaWAN/Crypto/aes.c ****             rc = f2(rc);
 1430              		.loc 1 543 0
ARM GAS  C:\Users\EBANO_~1\AppData\Local\Temp\ccMXEZix.s 			page 41


 1431 0168 CF5C     		ldrb	r7, [r1, r3]
 1432              	.LVL91:
 544:../../../../../../Middlewares/Third_Party/LoRaWAN/Crypto/aes.c ****         }
 1433              		.loc 1 544 0
 1434 016a 5B46     		mov	r3, fp
 1435 016c DB09     		lsrs	r3, r3, #7
 1436 016e 5900     		lsls	r1, r3, #1
 1437 0170 5B18     		adds	r3, r3, r1
 1438 0172 D900     		lsls	r1, r3, #3
 1439 0174 5B18     		adds	r3, r3, r1
 1440 0176 5946     		mov	r1, fp
 1441 0178 4900     		lsls	r1, r1, #1
 1442 017a 4B40     		eors	r3, r1
 1443 017c DBB2     		uxtb	r3, r3
 1444 017e 9B46     		mov	fp, r3
 1445              	.LVL92:
 1446 0180 C2E7     		b	.L22
 1447              	.LVL93:
 1448              	.L50:
 1449              	.LBE196:
 529:../../../../../../Middlewares/Third_Party/LoRaWAN/Crypto/aes.c ****     for( cc = keylen, rc = 1; cc < hi; cc += 4 )
 1450              		.loc 1 529 0
 1451 0182 0125     		movs	r5, #1
 1452 0184 5646     		mov	r6, r10
 1453              	.LBB197:
 540:../../../../../../Middlewares/Third_Party/LoRaWAN/Crypto/aes.c ****             t1 = s_box(t2);
 1454              		.loc 1 540 0
 1455 0186 AB46     		mov	fp, r5
 1456 0188 A246     		mov	r10, r4
 1457              	.LVL94:
 1458 018a 0193     		str	r3, [sp, #4]
 1459              	.LVL95:
 1460              	.L20:
 533:../../../../../../Middlewares/Third_Party/LoRaWAN/Crypto/aes.c ****         t1 = ctx->ksch[cc - 3];
 1461              		.loc 1 533 0
 1462 018c 5346     		mov	r3, r10
 1463 018e 9F19     		adds	r7, r3, r6
 1464 0190 3B1F     		subs	r3, r7, #4
 1465 0192 1B78     		ldrb	r3, [r3]
 537:../../../../../../Middlewares/Third_Party/LoRaWAN/Crypto/aes.c ****         {
 1466              		.loc 1 537 0
 1467 0194 0199     		ldr	r1, [sp, #4]
 533:../../../../../../Middlewares/Third_Party/LoRaWAN/Crypto/aes.c ****         t1 = ctx->ksch[cc - 3];
 1468              		.loc 1 533 0
 1469 0196 9946     		mov	r9, r3
 1470              	.LVL96:
 534:../../../../../../Middlewares/Third_Party/LoRaWAN/Crypto/aes.c ****         t2 = ctx->ksch[cc - 2];
 1471              		.loc 1 534 0
 1472 0198 FB1E     		subs	r3, r7, #3
 1473 019a 1B78     		ldrb	r3, [r3]
 537:../../../../../../Middlewares/Third_Party/LoRaWAN/Crypto/aes.c ****         {
 1474              		.loc 1 537 0
 1475 019c 3000     		movs	r0, r6
 534:../../../../../../Middlewares/Third_Party/LoRaWAN/Crypto/aes.c ****         t2 = ctx->ksch[cc - 2];
 1476              		.loc 1 534 0
 1477 019e 9846     		mov	r8, r3
 1478              	.LVL97:
ARM GAS  C:\Users\EBANO_~1\AppData\Local\Temp\ccMXEZix.s 			page 42


 535:../../../../../../Middlewares/Third_Party/LoRaWAN/Crypto/aes.c ****         t3 = ctx->ksch[cc - 1];
 1479              		.loc 1 535 0
 1480 01a0 BB1E     		subs	r3, r7, #2
 1481 01a2 1D78     		ldrb	r5, [r3]
 1482              	.LVL98:
 536:../../../../../../Middlewares/Third_Party/LoRaWAN/Crypto/aes.c ****         if( cc % keylen == 0 )
 1483              		.loc 1 536 0
 1484 01a4 7B1E     		subs	r3, r7, #1
 1485 01a6 1C78     		ldrb	r4, [r3]
 1486              	.LVL99:
 537:../../../../../../Middlewares/Third_Party/LoRaWAN/Crypto/aes.c ****         {
 1487              		.loc 1 537 0
 1488 01a8 FFF7FEFF 		bl	__aeabi_uidivmod
 1489              	.LVL100:
 1490 01ac C9B2     		uxtb	r1, r1
 1491 01ae 0029     		cmp	r1, #0
 1492 01b0 17D1     		bne	.L19
 1493              	.LVL101:
 540:../../../../../../Middlewares/Third_Party/LoRaWAN/Crypto/aes.c ****             t1 = s_box(t2);
 1494              		.loc 1 540 0
 1495 01b2 4246     		mov	r2, r8
 1496 01b4 1E4B     		ldr	r3, .L52+4
 543:../../../../../../Middlewares/Third_Party/LoRaWAN/Crypto/aes.c ****             rc = f2(rc);
 1497              		.loc 1 543 0
 1498 01b6 4946     		mov	r1, r9
 540:../../../../../../Middlewares/Third_Party/LoRaWAN/Crypto/aes.c ****             t1 = s_box(t2);
 1499              		.loc 1 540 0
 1500 01b8 9A5C     		ldrb	r2, [r3, r2]
 1501 01ba 5B46     		mov	r3, fp
 1502 01bc 5A40     		eors	r2, r3
 1503              	.LVL102:
 541:../../../../../../Middlewares/Third_Party/LoRaWAN/Crypto/aes.c ****             t2 = s_box(t3);
 1504              		.loc 1 541 0
 1505 01be 1C4B     		ldr	r3, .L52+4
 540:../../../../../../Middlewares/Third_Party/LoRaWAN/Crypto/aes.c ****             t1 = s_box(t2);
 1506              		.loc 1 540 0
 1507 01c0 9146     		mov	r9, r2
 1508              	.LVL103:
 541:../../../../../../Middlewares/Third_Party/LoRaWAN/Crypto/aes.c ****             t2 = s_box(t3);
 1509              		.loc 1 541 0
 1510 01c2 5B5D     		ldrb	r3, [r3, r5]
 1511 01c4 9846     		mov	r8, r3
 1512              	.LVL104:
 542:../../../../../../Middlewares/Third_Party/LoRaWAN/Crypto/aes.c ****             t3 = s_box(tt);
 1513              		.loc 1 542 0
 1514 01c6 1A4B     		ldr	r3, .L52+4
 1515 01c8 1D5D     		ldrb	r5, [r3, r4]
 1516              	.LVL105:
 543:../../../../../../Middlewares/Third_Party/LoRaWAN/Crypto/aes.c ****             rc = f2(rc);
 1517              		.loc 1 543 0
 1518 01ca 5C5C     		ldrb	r4, [r3, r1]
 1519              	.LVL106:
 544:../../../../../../Middlewares/Third_Party/LoRaWAN/Crypto/aes.c ****         }
 1520              		.loc 1 544 0
 1521 01cc 5B46     		mov	r3, fp
 1522 01ce DB09     		lsrs	r3, r3, #7
 1523 01d0 5900     		lsls	r1, r3, #1
ARM GAS  C:\Users\EBANO_~1\AppData\Local\Temp\ccMXEZix.s 			page 43


 1524              	.LVL107:
 1525 01d2 5B18     		adds	r3, r3, r1
 1526 01d4 D900     		lsls	r1, r3, #3
 1527 01d6 5B18     		adds	r3, r3, r1
 1528 01d8 5946     		mov	r1, fp
 1529 01da 4900     		lsls	r1, r1, #1
 1530 01dc 4B40     		eors	r3, r1
 1531 01de DBB2     		uxtb	r3, r3
 1532 01e0 9B46     		mov	fp, r3
 1533              	.LVL108:
 1534              	.L19:
 554:../../../../../../Middlewares/Third_Party/LoRaWAN/Crypto/aes.c ****         ctx->ksch[cc + 1] = ctx->ksch[tt + 1] ^ t1;
 1535              		.loc 1 554 0
 1536 01e2 5246     		mov	r2, r10
 1537 01e4 4946     		mov	r1, r9
 1538 01e6 019B     		ldr	r3, [sp, #4]
 1539 01e8 F31A     		subs	r3, r6, r3
 1540 01ea DBB2     		uxtb	r3, r3
 1541 01ec D25C     		ldrb	r2, [r2, r3]
 555:../../../../../../Middlewares/Third_Party/LoRaWAN/Crypto/aes.c ****         ctx->ksch[cc + 2] = ctx->ksch[tt + 2] ^ t2;
 1542              		.loc 1 555 0
 1543 01ee 5344     		add	r3, r3, r10
 554:../../../../../../Middlewares/Third_Party/LoRaWAN/Crypto/aes.c ****         ctx->ksch[cc + 1] = ctx->ksch[tt + 1] ^ t1;
 1544              		.loc 1 554 0
 1545 01f0 5140     		eors	r1, r2
 1546 01f2 0A00     		movs	r2, r1
 1547 01f4 5146     		mov	r1, r10
 1548 01f6 8A55     		strb	r2, [r1, r6]
 555:../../../../../../Middlewares/Third_Party/LoRaWAN/Crypto/aes.c ****         ctx->ksch[cc + 2] = ctx->ksch[tt + 2] ^ t2;
 1549              		.loc 1 555 0
 1550 01f8 4146     		mov	r1, r8
 1551 01fa 5A78     		ldrb	r2, [r3, #1]
 1552              	.LBE197:
 530:../../../../../../Middlewares/Third_Party/LoRaWAN/Crypto/aes.c ****     {   uint8_t tt, t0, t1, t2, t3;
 1553              		.loc 1 530 0
 1554 01fc 0436     		adds	r6, r6, #4
 1555              	.LVL109:
 1556              	.LBB198:
 555:../../../../../../Middlewares/Third_Party/LoRaWAN/Crypto/aes.c ****         ctx->ksch[cc + 2] = ctx->ksch[tt + 2] ^ t2;
 1557              		.loc 1 555 0
 1558 01fe 5140     		eors	r1, r2
 1559 0200 7970     		strb	r1, [r7, #1]
 556:../../../../../../Middlewares/Third_Party/LoRaWAN/Crypto/aes.c ****         ctx->ksch[cc + 3] = ctx->ksch[tt + 3] ^ t3;
 1560              		.loc 1 556 0
 1561 0202 9A78     		ldrb	r2, [r3, #2]
 1562              	.LBE198:
 530:../../../../../../Middlewares/Third_Party/LoRaWAN/Crypto/aes.c ****     {   uint8_t tt, t0, t1, t2, t3;
 1563              		.loc 1 530 0
 1564 0204 F6B2     		uxtb	r6, r6
 1565              	.LVL110:
 1566              	.LBB199:
 556:../../../../../../Middlewares/Third_Party/LoRaWAN/Crypto/aes.c ****         ctx->ksch[cc + 3] = ctx->ksch[tt + 3] ^ t3;
 1567              		.loc 1 556 0
 1568 0206 5540     		eors	r5, r2
 1569              	.LVL111:
 1570 0208 BD70     		strb	r5, [r7, #2]
 557:../../../../../../Middlewares/Third_Party/LoRaWAN/Crypto/aes.c ****     }
ARM GAS  C:\Users\EBANO_~1\AppData\Local\Temp\ccMXEZix.s 			page 44


 1571              		.loc 1 557 0
 1572 020a DB78     		ldrb	r3, [r3, #3]
 1573 020c 5C40     		eors	r4, r3
 1574              	.LVL112:
 1575              	.LBE199:
 530:../../../../../../Middlewares/Third_Party/LoRaWAN/Crypto/aes.c ****     {   uint8_t tt, t0, t1, t2, t3;
 1576              		.loc 1 530 0
 1577 020e 009B     		ldr	r3, [sp]
 1578              	.LBB200:
 557:../../../../../../Middlewares/Third_Party/LoRaWAN/Crypto/aes.c ****     }
 1579              		.loc 1 557 0
 1580 0210 FC70     		strb	r4, [r7, #3]
 1581              	.LBE200:
 530:../../../../../../Middlewares/Third_Party/LoRaWAN/Crypto/aes.c ****     {   uint8_t tt, t0, t1, t2, t3;
 1582              		.loc 1 530 0
 1583 0212 B342     		cmp	r3, r6
 1584 0214 BAD8     		bhi	.L20
 559:../../../../../../Middlewares/Third_Party/LoRaWAN/Crypto/aes.c **** }
 1585              		.loc 1 559 0
 1586 0216 0020     		movs	r0, #0
 1587 0218 94E7     		b	.L12
 1588              	.LVL113:
 1589              	.L13:
 1590              	.LBB201:
 1591              	.LBB191:
 344:../../../../../../Middlewares/Third_Party/LoRaWAN/Crypto/aes.c ****         //*((uint8_t*)d)++ = *((uint8_t*)s)++;
 1592              		.loc 1 344 0
 1593 021a 0023     		movs	r3, #0
 1594 021c 0135     		adds	r5, r5, #1
 1595              	.LVL114:
 1596              	.L16:
 346:../../../../../../Middlewares/Third_Party/LoRaWAN/Crypto/aes.c **** }
 1597              		.loc 1 346 0
 1598 021e C25C     		ldrb	r2, [r0, r3]
 1599 0220 E254     		strb	r2, [r4, r3]
 1600              	.LVL115:
 1601 0222 0133     		adds	r3, r3, #1
 1602              	.LVL116:
 344:../../../../../../Middlewares/Third_Party/LoRaWAN/Crypto/aes.c ****         //*((uint8_t*)d)++ = *((uint8_t*)s)++;
 1603              		.loc 1 344 0
 1604 0224 AB42     		cmp	r3, r5
 1605 0226 FAD1     		bne	.L16
 1606 0228 40E7     		b	.L17
 1607              	.L53:
 1608 022a C046     		.align	2
 1609              	.L52:
 1610 022c 01010100 		.word	65793
 1611 0230 00020000 		.word	sbox
 1612              	.LBE191:
 1613              	.LBE201:
 1614              		.cfi_endproc
 1615              	.LFE7:
 1616              		.size	aes_set_key, .-aes_set_key
 1617              		.section	.text.aes_encrypt,"ax",%progbits
 1618              		.align	1
 1619              		.p2align 2,,3
 1620              		.global	aes_encrypt
ARM GAS  C:\Users\EBANO_~1\AppData\Local\Temp\ccMXEZix.s 			page 45


 1621              		.syntax unified
 1622              		.code	16
 1623              		.thumb_func
 1624              		.fpu softvfp
 1625              		.type	aes_encrypt, %function
 1626              	aes_encrypt:
 1627              	.LFB8:
 569:../../../../../../Middlewares/Third_Party/LoRaWAN/Crypto/aes.c ****     if( ctx->rnd )
 1628              		.loc 1 569 0
 1629              		.cfi_startproc
 1630              		@ args = 0, pretend = 0, frame = 0
 1631              		@ frame_needed = 0, uses_anonymous_args = 0
 1632              	.LVL117:
 570:../../../../../../Middlewares/Third_Party/LoRaWAN/Crypto/aes.c ****     {
 1633              		.loc 1 570 0
 1634 0000 F023     		movs	r3, #240
 569:../../../../../../Middlewares/Third_Party/LoRaWAN/Crypto/aes.c ****     if( ctx->rnd )
 1635              		.loc 1 569 0
 1636 0002 10B5     		push	{r4, lr}
 1637              	.LCFI6:
 1638              		.cfi_def_cfa_offset 8
 1639              		.cfi_offset 4, -8
 1640              		.cfi_offset 14, -4
 570:../../../../../../Middlewares/Third_Party/LoRaWAN/Crypto/aes.c ****     {
 1641              		.loc 1 570 0
 1642 0004 D45C     		ldrb	r4, [r2, r3]
 591:../../../../../../Middlewares/Third_Party/LoRaWAN/Crypto/aes.c ****     return 0;
 1643              		.loc 1 591 0
 1644 0006 0F33     		adds	r3, r3, #15
 570:../../../../../../Middlewares/Third_Party/LoRaWAN/Crypto/aes.c ****     {
 1645              		.loc 1 570 0
 1646 0008 002C     		cmp	r4, #0
 1647 000a 02D0     		beq	.L55
 1648 000c FFF7FEFF 		bl	aes_encrypt.part.0
 1649              	.LVL118:
 1650 0010 0300     		movs	r3, r0
 1651              	.L55:
 1652              		.loc 1 593 0
 1653 0012 1800     		movs	r0, r3
 1654              		@ sp needed
 1655 0014 10BD     		pop	{r4, pc}
 1656              		.cfi_endproc
 1657              	.LFE8:
 1658              		.size	aes_encrypt, .-aes_encrypt
 1659 0016 C046     		.section	.text.aes_cbc_encrypt,"ax",%progbits
 1660              		.align	1
 1661              		.p2align 2,,3
 1662              		.global	aes_cbc_encrypt
 1663              		.syntax unified
 1664              		.code	16
 1665              		.thumb_func
 1666              		.fpu softvfp
 1667              		.type	aes_cbc_encrypt, %function
 1668              	aes_cbc_encrypt:
 1669              	.LFB9:
 594:../../../../../../Middlewares/Third_Party/LoRaWAN/Crypto/aes.c **** 
 595:../../../../../../Middlewares/Third_Party/LoRaWAN/Crypto/aes.c **** /* CBC encrypt a number of blocks (input and return an IV) */
ARM GAS  C:\Users\EBANO_~1\AppData\Local\Temp\ccMXEZix.s 			page 46


 596:../../../../../../Middlewares/Third_Party/LoRaWAN/Crypto/aes.c **** 
 597:../../../../../../Middlewares/Third_Party/LoRaWAN/Crypto/aes.c **** return_type aes_cbc_encrypt( const uint8_t *in, uint8_t *out,
 598:../../../../../../Middlewares/Third_Party/LoRaWAN/Crypto/aes.c ****                          int32_t n_block, uint8_t iv[N_BLOCK], const aes_context ctx[1] )
 599:../../../../../../Middlewares/Third_Party/LoRaWAN/Crypto/aes.c **** {
 1670              		.loc 1 599 0
 1671              		.cfi_startproc
 1672              		@ args = 4, pretend = 0, frame = 0
 1673              		@ frame_needed = 0, uses_anonymous_args = 0
 1674              	.LVL119:
 1675 0000 F8B5     		push	{r3, r4, r5, r6, r7, lr}
 1676              	.LCFI7:
 1677              		.cfi_def_cfa_offset 24
 1678              		.cfi_offset 3, -24
 1679              		.cfi_offset 4, -20
 1680              		.cfi_offset 5, -16
 1681              		.cfi_offset 6, -12
 1682              		.cfi_offset 7, -8
 1683              		.cfi_offset 14, -4
 1684 0002 4746     		mov	r7, r8
 1685 0004 CE46     		mov	lr, r9
 1686 0006 80B5     		push	{r7, lr}
 1687              	.LCFI8:
 1688              		.cfi_def_cfa_offset 32
 1689              		.cfi_offset 8, -32
 1690              		.cfi_offset 9, -28
 1691              		.loc 1 599 0
 1692 0008 1C00     		movs	r4, r3
 1693 000a 089B     		ldr	r3, [sp, #32]
 1694              	.LVL120:
 1695 000c 0500     		movs	r5, r0
 1696 000e 0E00     		movs	r6, r1
 1697              	.LVL121:
 1698 0010 9846     		mov	r8, r3
 600:../../../../../../Middlewares/Third_Party/LoRaWAN/Crypto/aes.c **** 
 601:../../../../../../Middlewares/Third_Party/LoRaWAN/Crypto/aes.c ****     while(n_block--)
 1699              		.loc 1 601 0
 1700 0012 002A     		cmp	r2, #0
 1701 0014 00D1     		bne	.LCB1860
 1702 0016 79E0     		b	.L59	@long jump
 1703              	.LCB1860:
 1704              	.LBB208:
 1705              	.LBB209:
 570:../../../../../../Middlewares/Third_Party/LoRaWAN/Crypto/aes.c ****     {
 1706              		.loc 1 570 0
 1707 0018 F023     		movs	r3, #240
 1708 001a 1700     		movs	r7, r2
 1709 001c 9946     		mov	r9, r3
 1710 001e 2BE0     		b	.L63
 1711              	.LVL122:
 1712              	.L60:
 1713 0020 4246     		mov	r2, r8
 1714 0022 2100     		movs	r1, r4
 1715 0024 2000     		movs	r0, r4
 1716 0026 FFF7FEFF 		bl	aes_encrypt.part.0
 1717              	.LVL123:
 1718              	.LBE209:
 1719              	.LBE208:
ARM GAS  C:\Users\EBANO_~1\AppData\Local\Temp\ccMXEZix.s 			page 47


 602:../../../../../../Middlewares/Third_Party/LoRaWAN/Crypto/aes.c ****     {
 603:../../../../../../Middlewares/Third_Party/LoRaWAN/Crypto/aes.c ****         xor_block(iv, in);
 604:../../../../../../Middlewares/Third_Party/LoRaWAN/Crypto/aes.c ****         if(aes_encrypt(iv, iv, ctx) != EXIT_SUCCESS)
 1720              		.loc 1 604 0
 1721 002a 0028     		cmp	r0, #0
 1722 002c 69D1     		bne	.L62
 1723              	.LVL124:
 1724              	.LBB211:
 1725              	.LBB212:
 323:../../../../../../Middlewares/Third_Party/LoRaWAN/Crypto/aes.c ****     ((uint8_t*)d)[ 1] = ((uint8_t*)s)[ 1];
 1726              		.loc 1 323 0
 1727 002e 2378     		ldrb	r3, [r4]
 1728 0030 013F     		subs	r7, r7, #1
 1729 0032 3370     		strb	r3, [r6]
 324:../../../../../../Middlewares/Third_Party/LoRaWAN/Crypto/aes.c ****     ((uint8_t*)d)[ 2] = ((uint8_t*)s)[ 2];
 1730              		.loc 1 324 0
 1731 0034 6378     		ldrb	r3, [r4, #1]
 1732              	.LBE212:
 1733              	.LBE211:
 605:../../../../../../Middlewares/Third_Party/LoRaWAN/Crypto/aes.c ****             return EXIT_FAILURE;
 606:../../../../../../Middlewares/Third_Party/LoRaWAN/Crypto/aes.c ****         //memcpy(out, iv, N_BLOCK);
 607:../../../../../../Middlewares/Third_Party/LoRaWAN/Crypto/aes.c ****         block_copy(out, iv);
 608:../../../../../../Middlewares/Third_Party/LoRaWAN/Crypto/aes.c ****         in += N_BLOCK;
 1734              		.loc 1 608 0
 1735 0036 1035     		adds	r5, r5, #16
 1736              	.LVL125:
 1737              	.LBB214:
 1738              	.LBB213:
 324:../../../../../../Middlewares/Third_Party/LoRaWAN/Crypto/aes.c ****     ((uint8_t*)d)[ 2] = ((uint8_t*)s)[ 2];
 1739              		.loc 1 324 0
 1740 0038 7370     		strb	r3, [r6, #1]
 325:../../../../../../Middlewares/Third_Party/LoRaWAN/Crypto/aes.c ****     ((uint8_t*)d)[ 3] = ((uint8_t*)s)[ 3];
 1741              		.loc 1 325 0
 1742 003a A378     		ldrb	r3, [r4, #2]
 1743 003c B370     		strb	r3, [r6, #2]
 326:../../../../../../Middlewares/Third_Party/LoRaWAN/Crypto/aes.c ****     ((uint8_t*)d)[ 4] = ((uint8_t*)s)[ 4];
 1744              		.loc 1 326 0
 1745 003e E378     		ldrb	r3, [r4, #3]
 1746 0040 F370     		strb	r3, [r6, #3]
 327:../../../../../../Middlewares/Third_Party/LoRaWAN/Crypto/aes.c ****     ((uint8_t*)d)[ 5] = ((uint8_t*)s)[ 5];
 1747              		.loc 1 327 0
 1748 0042 2379     		ldrb	r3, [r4, #4]
 1749 0044 3371     		strb	r3, [r6, #4]
 328:../../../../../../Middlewares/Third_Party/LoRaWAN/Crypto/aes.c ****     ((uint8_t*)d)[ 6] = ((uint8_t*)s)[ 6];
 1750              		.loc 1 328 0
 1751 0046 6379     		ldrb	r3, [r4, #5]
 1752 0048 7371     		strb	r3, [r6, #5]
 329:../../../../../../Middlewares/Third_Party/LoRaWAN/Crypto/aes.c ****     ((uint8_t*)d)[ 7] = ((uint8_t*)s)[ 7];
 1753              		.loc 1 329 0
 1754 004a A379     		ldrb	r3, [r4, #6]
 1755 004c B371     		strb	r3, [r6, #6]
 330:../../../../../../Middlewares/Third_Party/LoRaWAN/Crypto/aes.c ****     ((uint8_t*)d)[ 8] = ((uint8_t*)s)[ 8];
 1756              		.loc 1 330 0
 1757 004e E379     		ldrb	r3, [r4, #7]
 1758 0050 F371     		strb	r3, [r6, #7]
 331:../../../../../../Middlewares/Third_Party/LoRaWAN/Crypto/aes.c ****     ((uint8_t*)d)[ 9] = ((uint8_t*)s)[ 9];
 1759              		.loc 1 331 0
ARM GAS  C:\Users\EBANO_~1\AppData\Local\Temp\ccMXEZix.s 			page 48


 1760 0052 237A     		ldrb	r3, [r4, #8]
 1761 0054 3372     		strb	r3, [r6, #8]
 332:../../../../../../Middlewares/Third_Party/LoRaWAN/Crypto/aes.c ****     ((uint8_t*)d)[10] = ((uint8_t*)s)[10];
 1762              		.loc 1 332 0
 1763 0056 637A     		ldrb	r3, [r4, #9]
 1764 0058 7372     		strb	r3, [r6, #9]
 333:../../../../../../Middlewares/Third_Party/LoRaWAN/Crypto/aes.c ****     ((uint8_t*)d)[11] = ((uint8_t*)s)[11];
 1765              		.loc 1 333 0
 1766 005a A37A     		ldrb	r3, [r4, #10]
 1767 005c B372     		strb	r3, [r6, #10]
 334:../../../../../../Middlewares/Third_Party/LoRaWAN/Crypto/aes.c ****     ((uint8_t*)d)[12] = ((uint8_t*)s)[12];
 1768              		.loc 1 334 0
 1769 005e E37A     		ldrb	r3, [r4, #11]
 1770 0060 F372     		strb	r3, [r6, #11]
 335:../../../../../../Middlewares/Third_Party/LoRaWAN/Crypto/aes.c ****     ((uint8_t*)d)[13] = ((uint8_t*)s)[13];
 1771              		.loc 1 335 0
 1772 0062 237B     		ldrb	r3, [r4, #12]
 1773 0064 3373     		strb	r3, [r6, #12]
 336:../../../../../../Middlewares/Third_Party/LoRaWAN/Crypto/aes.c ****     ((uint8_t*)d)[14] = ((uint8_t*)s)[14];
 1774              		.loc 1 336 0
 1775 0066 637B     		ldrb	r3, [r4, #13]
 1776 0068 7373     		strb	r3, [r6, #13]
 337:../../../../../../Middlewares/Third_Party/LoRaWAN/Crypto/aes.c ****     ((uint8_t*)d)[15] = ((uint8_t*)s)[15];
 1777              		.loc 1 337 0
 1778 006a A37B     		ldrb	r3, [r4, #14]
 1779 006c B373     		strb	r3, [r6, #14]
 338:../../../../../../Middlewares/Third_Party/LoRaWAN/Crypto/aes.c **** #endif
 1780              		.loc 1 338 0
 1781 006e E37B     		ldrb	r3, [r4, #15]
 1782 0070 F373     		strb	r3, [r6, #15]
 1783              	.LVL126:
 1784              	.LBE213:
 1785              	.LBE214:
 609:../../../../../../Middlewares/Third_Party/LoRaWAN/Crypto/aes.c ****         out += N_BLOCK;
 1786              		.loc 1 609 0
 1787 0072 1036     		adds	r6, r6, #16
 1788              	.LVL127:
 601:../../../../../../Middlewares/Third_Party/LoRaWAN/Crypto/aes.c ****     {
 1789              		.loc 1 601 0
 1790 0074 002F     		cmp	r7, #0
 1791 0076 49D0     		beq	.L59
 1792              	.L63:
 1793              	.LVL128:
 1794              	.LBB215:
 1795              	.LBB216:
 357:../../../../../../Middlewares/Third_Party/LoRaWAN/Crypto/aes.c ****     ((uint8_t*)d)[ 1] ^= ((uint8_t*)s)[ 1];
 1796              		.loc 1 357 0
 1797 0078 2A78     		ldrb	r2, [r5]
 1798 007a 2378     		ldrb	r3, [r4]
 1799 007c 5340     		eors	r3, r2
 1800 007e 2370     		strb	r3, [r4]
 358:../../../../../../Middlewares/Third_Party/LoRaWAN/Crypto/aes.c ****     ((uint8_t*)d)[ 2] ^= ((uint8_t*)s)[ 2];
 1801              		.loc 1 358 0
 1802 0080 6A78     		ldrb	r2, [r5, #1]
 1803 0082 6378     		ldrb	r3, [r4, #1]
 1804 0084 5340     		eors	r3, r2
 1805 0086 6370     		strb	r3, [r4, #1]
ARM GAS  C:\Users\EBANO_~1\AppData\Local\Temp\ccMXEZix.s 			page 49


 359:../../../../../../Middlewares/Third_Party/LoRaWAN/Crypto/aes.c ****     ((uint8_t*)d)[ 3] ^= ((uint8_t*)s)[ 3];
 1806              		.loc 1 359 0
 1807 0088 AA78     		ldrb	r2, [r5, #2]
 1808 008a A378     		ldrb	r3, [r4, #2]
 1809 008c 5340     		eors	r3, r2
 1810 008e A370     		strb	r3, [r4, #2]
 360:../../../../../../Middlewares/Third_Party/LoRaWAN/Crypto/aes.c ****     ((uint8_t*)d)[ 4] ^= ((uint8_t*)s)[ 4];
 1811              		.loc 1 360 0
 1812 0090 EA78     		ldrb	r2, [r5, #3]
 1813 0092 E378     		ldrb	r3, [r4, #3]
 1814 0094 5340     		eors	r3, r2
 1815 0096 E370     		strb	r3, [r4, #3]
 361:../../../../../../Middlewares/Third_Party/LoRaWAN/Crypto/aes.c ****     ((uint8_t*)d)[ 5] ^= ((uint8_t*)s)[ 5];
 1816              		.loc 1 361 0
 1817 0098 2A79     		ldrb	r2, [r5, #4]
 1818 009a 2379     		ldrb	r3, [r4, #4]
 1819 009c 5340     		eors	r3, r2
 1820 009e 2371     		strb	r3, [r4, #4]
 362:../../../../../../Middlewares/Third_Party/LoRaWAN/Crypto/aes.c ****     ((uint8_t*)d)[ 6] ^= ((uint8_t*)s)[ 6];
 1821              		.loc 1 362 0
 1822 00a0 6A79     		ldrb	r2, [r5, #5]
 1823 00a2 6379     		ldrb	r3, [r4, #5]
 1824 00a4 5340     		eors	r3, r2
 1825 00a6 6371     		strb	r3, [r4, #5]
 363:../../../../../../Middlewares/Third_Party/LoRaWAN/Crypto/aes.c ****     ((uint8_t*)d)[ 7] ^= ((uint8_t*)s)[ 7];
 1826              		.loc 1 363 0
 1827 00a8 AA79     		ldrb	r2, [r5, #6]
 1828 00aa A379     		ldrb	r3, [r4, #6]
 1829 00ac 5340     		eors	r3, r2
 1830 00ae A371     		strb	r3, [r4, #6]
 364:../../../../../../Middlewares/Third_Party/LoRaWAN/Crypto/aes.c ****     ((uint8_t*)d)[ 8] ^= ((uint8_t*)s)[ 8];
 1831              		.loc 1 364 0
 1832 00b0 EA79     		ldrb	r2, [r5, #7]
 1833 00b2 E379     		ldrb	r3, [r4, #7]
 1834 00b4 5340     		eors	r3, r2
 1835 00b6 E371     		strb	r3, [r4, #7]
 365:../../../../../../Middlewares/Third_Party/LoRaWAN/Crypto/aes.c ****     ((uint8_t*)d)[ 9] ^= ((uint8_t*)s)[ 9];
 1836              		.loc 1 365 0
 1837 00b8 2A7A     		ldrb	r2, [r5, #8]
 1838 00ba 237A     		ldrb	r3, [r4, #8]
 1839 00bc 5340     		eors	r3, r2
 1840 00be 2372     		strb	r3, [r4, #8]
 366:../../../../../../Middlewares/Third_Party/LoRaWAN/Crypto/aes.c ****     ((uint8_t*)d)[10] ^= ((uint8_t*)s)[10];
 1841              		.loc 1 366 0
 1842 00c0 6A7A     		ldrb	r2, [r5, #9]
 1843 00c2 637A     		ldrb	r3, [r4, #9]
 1844 00c4 5340     		eors	r3, r2
 1845 00c6 6372     		strb	r3, [r4, #9]
 367:../../../../../../Middlewares/Third_Party/LoRaWAN/Crypto/aes.c ****     ((uint8_t*)d)[11] ^= ((uint8_t*)s)[11];
 1846              		.loc 1 367 0
 1847 00c8 AA7A     		ldrb	r2, [r5, #10]
 1848 00ca A37A     		ldrb	r3, [r4, #10]
 1849 00cc 5340     		eors	r3, r2
 1850 00ce A372     		strb	r3, [r4, #10]
 368:../../../../../../Middlewares/Third_Party/LoRaWAN/Crypto/aes.c ****     ((uint8_t*)d)[12] ^= ((uint8_t*)s)[12];
 1851              		.loc 1 368 0
 1852 00d0 EA7A     		ldrb	r2, [r5, #11]
ARM GAS  C:\Users\EBANO_~1\AppData\Local\Temp\ccMXEZix.s 			page 50


 1853 00d2 E37A     		ldrb	r3, [r4, #11]
 1854 00d4 5340     		eors	r3, r2
 1855 00d6 E372     		strb	r3, [r4, #11]
 369:../../../../../../Middlewares/Third_Party/LoRaWAN/Crypto/aes.c ****     ((uint8_t*)d)[13] ^= ((uint8_t*)s)[13];
 1856              		.loc 1 369 0
 1857 00d8 2A7B     		ldrb	r2, [r5, #12]
 1858 00da 237B     		ldrb	r3, [r4, #12]
 1859 00dc 5340     		eors	r3, r2
 1860 00de 2373     		strb	r3, [r4, #12]
 370:../../../../../../Middlewares/Third_Party/LoRaWAN/Crypto/aes.c ****     ((uint8_t*)d)[14] ^= ((uint8_t*)s)[14];
 1861              		.loc 1 370 0
 1862 00e0 6A7B     		ldrb	r2, [r5, #13]
 1863 00e2 637B     		ldrb	r3, [r4, #13]
 1864 00e4 5340     		eors	r3, r2
 1865 00e6 6373     		strb	r3, [r4, #13]
 371:../../../../../../Middlewares/Third_Party/LoRaWAN/Crypto/aes.c ****     ((uint8_t*)d)[15] ^= ((uint8_t*)s)[15];
 1866              		.loc 1 371 0
 1867 00e8 AA7B     		ldrb	r2, [r5, #14]
 1868 00ea A37B     		ldrb	r3, [r4, #14]
 1869 00ec 5340     		eors	r3, r2
 1870 00ee A373     		strb	r3, [r4, #14]
 372:../../../../../../Middlewares/Third_Party/LoRaWAN/Crypto/aes.c **** #endif
 1871              		.loc 1 372 0
 1872 00f0 EA7B     		ldrb	r2, [r5, #15]
 1873 00f2 E37B     		ldrb	r3, [r4, #15]
 1874 00f4 5340     		eors	r3, r2
 1875 00f6 E373     		strb	r3, [r4, #15]
 1876              	.LVL129:
 1877              	.LBE216:
 1878              	.LBE215:
 1879              	.LBB217:
 1880              	.LBB210:
 570:../../../../../../Middlewares/Third_Party/LoRaWAN/Crypto/aes.c ****     {
 1881              		.loc 1 570 0
 1882 00f8 4A46     		mov	r2, r9
 1883 00fa 4346     		mov	r3, r8
 1884 00fc 9B5C     		ldrb	r3, [r3, r2]
 1885 00fe 002B     		cmp	r3, #0
 1886 0100 8ED1     		bne	.L60
 1887              	.LVL130:
 1888              	.L62:
 1889              	.LBE210:
 1890              	.LBE217:
 605:../../../../../../Middlewares/Third_Party/LoRaWAN/Crypto/aes.c ****         //memcpy(out, iv, N_BLOCK);
 1891              		.loc 1 605 0
 1892 0102 0120     		movs	r0, #1
 1893              	.L61:
 610:../../../../../../Middlewares/Third_Party/LoRaWAN/Crypto/aes.c ****     }
 611:../../../../../../Middlewares/Third_Party/LoRaWAN/Crypto/aes.c ****     return EXIT_SUCCESS;
 612:../../../../../../Middlewares/Third_Party/LoRaWAN/Crypto/aes.c **** }
 1894              		.loc 1 612 0
 1895              		@ sp needed
 1896              	.LVL131:
 1897              	.LVL132:
 1898              	.LVL133:
 1899 0104 0CBC     		pop	{r2, r3}
 1900 0106 9046     		mov	r8, r2
ARM GAS  C:\Users\EBANO_~1\AppData\Local\Temp\ccMXEZix.s 			page 51


 1901 0108 9946     		mov	r9, r3
 1902 010a F8BD     		pop	{r3, r4, r5, r6, r7, pc}
 1903              	.LVL134:
 1904              	.L59:
 611:../../../../../../Middlewares/Third_Party/LoRaWAN/Crypto/aes.c **** }
 1905              		.loc 1 611 0
 1906 010c 0020     		movs	r0, #0
 1907 010e F9E7     		b	.L61
 1908              		.cfi_endproc
 1909              	.LFE9:
 1910              		.size	aes_cbc_encrypt, .-aes_cbc_encrypt
 1911              		.section	.rodata
 1912              		.align	2
 1913              		.type	gfm3_sbox, %object
 1914              		.size	gfm3_sbox, 256
 1915              	gfm3_sbox:
 1916 0000 A5       		.byte	-91
 1917 0001 84       		.byte	-124
 1918 0002 99       		.byte	-103
 1919 0003 8D       		.byte	-115
 1920 0004 0D       		.byte	13
 1921 0005 BD       		.byte	-67
 1922 0006 B1       		.byte	-79
 1923 0007 54       		.byte	84
 1924 0008 50       		.byte	80
 1925 0009 03       		.byte	3
 1926 000a A9       		.byte	-87
 1927 000b 7D       		.byte	125
 1928 000c 19       		.byte	25
 1929 000d 62       		.byte	98
 1930 000e E6       		.byte	-26
 1931 000f 9A       		.byte	-102
 1932 0010 45       		.byte	69
 1933 0011 9D       		.byte	-99
 1934 0012 40       		.byte	64
 1935 0013 87       		.byte	-121
 1936 0014 15       		.byte	21
 1937 0015 EB       		.byte	-21
 1938 0016 C9       		.byte	-55
 1939 0017 0B       		.byte	11
 1940 0018 EC       		.byte	-20
 1941 0019 67       		.byte	103
 1942 001a FD       		.byte	-3
 1943 001b EA       		.byte	-22
 1944 001c BF       		.byte	-65
 1945 001d F7       		.byte	-9
 1946 001e 96       		.byte	-106
 1947 001f 5B       		.byte	91
 1948 0020 C2       		.byte	-62
 1949 0021 1C       		.byte	28
 1950 0022 AE       		.byte	-82
 1951 0023 6A       		.byte	106
 1952 0024 5A       		.byte	90
 1953 0025 41       		.byte	65
 1954 0026 02       		.byte	2
 1955 0027 4F       		.byte	79
 1956 0028 5C       		.byte	92
ARM GAS  C:\Users\EBANO_~1\AppData\Local\Temp\ccMXEZix.s 			page 52


 1957 0029 F4       		.byte	-12
 1958 002a 34       		.byte	52
 1959 002b 08       		.byte	8
 1960 002c 93       		.byte	-109
 1961 002d 73       		.byte	115
 1962 002e 53       		.byte	83
 1963 002f 3F       		.byte	63
 1964 0030 0C       		.byte	12
 1965 0031 52       		.byte	82
 1966 0032 65       		.byte	101
 1967 0033 5E       		.byte	94
 1968 0034 28       		.byte	40
 1969 0035 A1       		.byte	-95
 1970 0036 0F       		.byte	15
 1971 0037 B5       		.byte	-75
 1972 0038 09       		.byte	9
 1973 0039 36       		.byte	54
 1974 003a 9B       		.byte	-101
 1975 003b 3D       		.byte	61
 1976 003c 26       		.byte	38
 1977 003d 69       		.byte	105
 1978 003e CD       		.byte	-51
 1979 003f 9F       		.byte	-97
 1980 0040 1B       		.byte	27
 1981 0041 9E       		.byte	-98
 1982 0042 74       		.byte	116
 1983 0043 2E       		.byte	46
 1984 0044 2D       		.byte	45
 1985 0045 B2       		.byte	-78
 1986 0046 EE       		.byte	-18
 1987 0047 FB       		.byte	-5
 1988 0048 F6       		.byte	-10
 1989 0049 4D       		.byte	77
 1990 004a 61       		.byte	97
 1991 004b CE       		.byte	-50
 1992 004c 7B       		.byte	123
 1993 004d 3E       		.byte	62
 1994 004e 71       		.byte	113
 1995 004f 97       		.byte	-105
 1996 0050 F5       		.byte	-11
 1997 0051 68       		.byte	104
 1998 0052 00       		.byte	0
 1999 0053 2C       		.byte	44
 2000 0054 60       		.byte	96
 2001 0055 1F       		.byte	31
 2002 0056 C8       		.byte	-56
 2003 0057 ED       		.byte	-19
 2004 0058 BE       		.byte	-66
 2005 0059 46       		.byte	70
 2006 005a D9       		.byte	-39
 2007 005b 4B       		.byte	75
 2008 005c DE       		.byte	-34
 2009 005d D4       		.byte	-44
 2010 005e E8       		.byte	-24
 2011 005f 4A       		.byte	74
 2012 0060 6B       		.byte	107
 2013 0061 2A       		.byte	42
ARM GAS  C:\Users\EBANO_~1\AppData\Local\Temp\ccMXEZix.s 			page 53


 2014 0062 E5       		.byte	-27
 2015 0063 16       		.byte	22
 2016 0064 C5       		.byte	-59
 2017 0065 D7       		.byte	-41
 2018 0066 55       		.byte	85
 2019 0067 94       		.byte	-108
 2020 0068 CF       		.byte	-49
 2021 0069 10       		.byte	16
 2022 006a 06       		.byte	6
 2023 006b 81       		.byte	-127
 2024 006c F0       		.byte	-16
 2025 006d 44       		.byte	68
 2026 006e BA       		.byte	-70
 2027 006f E3       		.byte	-29
 2028 0070 F3       		.byte	-13
 2029 0071 FE       		.byte	-2
 2030 0072 C0       		.byte	-64
 2031 0073 8A       		.byte	-118
 2032 0074 AD       		.byte	-83
 2033 0075 BC       		.byte	-68
 2034 0076 48       		.byte	72
 2035 0077 04       		.byte	4
 2036 0078 DF       		.byte	-33
 2037 0079 C1       		.byte	-63
 2038 007a 75       		.byte	117
 2039 007b 63       		.byte	99
 2040 007c 30       		.byte	48
 2041 007d 1A       		.byte	26
 2042 007e 0E       		.byte	14
 2043 007f 6D       		.byte	109
 2044 0080 4C       		.byte	76
 2045 0081 14       		.byte	20
 2046 0082 35       		.byte	53
 2047 0083 2F       		.byte	47
 2048 0084 E1       		.byte	-31
 2049 0085 A2       		.byte	-94
 2050 0086 CC       		.byte	-52
 2051 0087 39       		.byte	57
 2052 0088 57       		.byte	87
 2053 0089 F2       		.byte	-14
 2054 008a 82       		.byte	-126
 2055 008b 47       		.byte	71
 2056 008c AC       		.byte	-84
 2057 008d E7       		.byte	-25
 2058 008e 2B       		.byte	43
 2059 008f 95       		.byte	-107
 2060 0090 A0       		.byte	-96
 2061 0091 98       		.byte	-104
 2062 0092 D1       		.byte	-47
 2063 0093 7F       		.byte	127
 2064 0094 66       		.byte	102
 2065 0095 7E       		.byte	126
 2066 0096 AB       		.byte	-85
 2067 0097 83       		.byte	-125
 2068 0098 CA       		.byte	-54
 2069 0099 29       		.byte	41
 2070 009a D3       		.byte	-45
ARM GAS  C:\Users\EBANO_~1\AppData\Local\Temp\ccMXEZix.s 			page 54


 2071 009b 3C       		.byte	60
 2072 009c 79       		.byte	121
 2073 009d E2       		.byte	-30
 2074 009e 1D       		.byte	29
 2075 009f 76       		.byte	118
 2076 00a0 3B       		.byte	59
 2077 00a1 56       		.byte	86
 2078 00a2 4E       		.byte	78
 2079 00a3 1E       		.byte	30
 2080 00a4 DB       		.byte	-37
 2081 00a5 0A       		.byte	10
 2082 00a6 6C       		.byte	108
 2083 00a7 E4       		.byte	-28
 2084 00a8 5D       		.byte	93
 2085 00a9 6E       		.byte	110
 2086 00aa EF       		.byte	-17
 2087 00ab A6       		.byte	-90
 2088 00ac A8       		.byte	-88
 2089 00ad A4       		.byte	-92
 2090 00ae 37       		.byte	55
 2091 00af 8B       		.byte	-117
 2092 00b0 32       		.byte	50
 2093 00b1 43       		.byte	67
 2094 00b2 59       		.byte	89
 2095 00b3 B7       		.byte	-73
 2096 00b4 8C       		.byte	-116
 2097 00b5 64       		.byte	100
 2098 00b6 D2       		.byte	-46
 2099 00b7 E0       		.byte	-32
 2100 00b8 B4       		.byte	-76
 2101 00b9 FA       		.byte	-6
 2102 00ba 07       		.byte	7
 2103 00bb 25       		.byte	37
 2104 00bc AF       		.byte	-81
 2105 00bd 8E       		.byte	-114
 2106 00be E9       		.byte	-23
 2107 00bf 18       		.byte	24
 2108 00c0 D5       		.byte	-43
 2109 00c1 88       		.byte	-120
 2110 00c2 6F       		.byte	111
 2111 00c3 72       		.byte	114
 2112 00c4 24       		.byte	36
 2113 00c5 F1       		.byte	-15
 2114 00c6 C7       		.byte	-57
 2115 00c7 51       		.byte	81
 2116 00c8 23       		.byte	35
 2117 00c9 7C       		.byte	124
 2118 00ca 9C       		.byte	-100
 2119 00cb 21       		.byte	33
 2120 00cc DD       		.byte	-35
 2121 00cd DC       		.byte	-36
 2122 00ce 86       		.byte	-122
 2123 00cf 85       		.byte	-123
 2124 00d0 90       		.byte	-112
 2125 00d1 42       		.byte	66
 2126 00d2 C4       		.byte	-60
 2127 00d3 AA       		.byte	-86
ARM GAS  C:\Users\EBANO_~1\AppData\Local\Temp\ccMXEZix.s 			page 55


 2128 00d4 D8       		.byte	-40
 2129 00d5 05       		.byte	5
 2130 00d6 01       		.byte	1
 2131 00d7 12       		.byte	18
 2132 00d8 A3       		.byte	-93
 2133 00d9 5F       		.byte	95
 2134 00da F9       		.byte	-7
 2135 00db D0       		.byte	-48
 2136 00dc 91       		.byte	-111
 2137 00dd 58       		.byte	88
 2138 00de 27       		.byte	39
 2139 00df B9       		.byte	-71
 2140 00e0 38       		.byte	56
 2141 00e1 13       		.byte	19
 2142 00e2 B3       		.byte	-77
 2143 00e3 33       		.byte	51
 2144 00e4 BB       		.byte	-69
 2145 00e5 70       		.byte	112
 2146 00e6 89       		.byte	-119
 2147 00e7 A7       		.byte	-89
 2148 00e8 B6       		.byte	-74
 2149 00e9 22       		.byte	34
 2150 00ea 92       		.byte	-110
 2151 00eb 20       		.byte	32
 2152 00ec 49       		.byte	73
 2153 00ed FF       		.byte	-1
 2154 00ee 78       		.byte	120
 2155 00ef 7A       		.byte	122
 2156 00f0 8F       		.byte	-113
 2157 00f1 F8       		.byte	-8
 2158 00f2 80       		.byte	-128
 2159 00f3 17       		.byte	23
 2160 00f4 DA       		.byte	-38
 2161 00f5 31       		.byte	49
 2162 00f6 C6       		.byte	-58
 2163 00f7 B8       		.byte	-72
 2164 00f8 C3       		.byte	-61
 2165 00f9 B0       		.byte	-80
 2166 00fa 77       		.byte	119
 2167 00fb 11       		.byte	17
 2168 00fc CB       		.byte	-53
 2169 00fd FC       		.byte	-4
 2170 00fe D6       		.byte	-42
 2171 00ff 3A       		.byte	58
 2172              		.type	gfm2_sbox, %object
 2173              		.size	gfm2_sbox, 256
 2174              	gfm2_sbox:
 2175 0100 C6       		.byte	-58
 2176 0101 F8       		.byte	-8
 2177 0102 EE       		.byte	-18
 2178 0103 F6       		.byte	-10
 2179 0104 FF       		.byte	-1
 2180 0105 D6       		.byte	-42
 2181 0106 DE       		.byte	-34
 2182 0107 91       		.byte	-111
 2183 0108 60       		.byte	96
 2184 0109 02       		.byte	2
ARM GAS  C:\Users\EBANO_~1\AppData\Local\Temp\ccMXEZix.s 			page 56


 2185 010a CE       		.byte	-50
 2186 010b 56       		.byte	86
 2187 010c E7       		.byte	-25
 2188 010d B5       		.byte	-75
 2189 010e 4D       		.byte	77
 2190 010f EC       		.byte	-20
 2191 0110 8F       		.byte	-113
 2192 0111 1F       		.byte	31
 2193 0112 89       		.byte	-119
 2194 0113 FA       		.byte	-6
 2195 0114 EF       		.byte	-17
 2196 0115 B2       		.byte	-78
 2197 0116 8E       		.byte	-114
 2198 0117 FB       		.byte	-5
 2199 0118 41       		.byte	65
 2200 0119 B3       		.byte	-77
 2201 011a 5F       		.byte	95
 2202 011b 45       		.byte	69
 2203 011c 23       		.byte	35
 2204 011d 53       		.byte	83
 2205 011e E4       		.byte	-28
 2206 011f 9B       		.byte	-101
 2207 0120 75       		.byte	117
 2208 0121 E1       		.byte	-31
 2209 0122 3D       		.byte	61
 2210 0123 4C       		.byte	76
 2211 0124 6C       		.byte	108
 2212 0125 7E       		.byte	126
 2213 0126 F5       		.byte	-11
 2214 0127 83       		.byte	-125
 2215 0128 68       		.byte	104
 2216 0129 51       		.byte	81
 2217 012a D1       		.byte	-47
 2218 012b F9       		.byte	-7
 2219 012c E2       		.byte	-30
 2220 012d AB       		.byte	-85
 2221 012e 62       		.byte	98
 2222 012f 2A       		.byte	42
 2223 0130 08       		.byte	8
 2224 0131 95       		.byte	-107
 2225 0132 46       		.byte	70
 2226 0133 9D       		.byte	-99
 2227 0134 30       		.byte	48
 2228 0135 37       		.byte	55
 2229 0136 0A       		.byte	10
 2230 0137 2F       		.byte	47
 2231 0138 0E       		.byte	14
 2232 0139 24       		.byte	36
 2233 013a 1B       		.byte	27
 2234 013b DF       		.byte	-33
 2235 013c CD       		.byte	-51
 2236 013d 4E       		.byte	78
 2237 013e 7F       		.byte	127
 2238 013f EA       		.byte	-22
 2239 0140 12       		.byte	18
 2240 0141 1D       		.byte	29
 2241 0142 58       		.byte	88
ARM GAS  C:\Users\EBANO_~1\AppData\Local\Temp\ccMXEZix.s 			page 57


 2242 0143 34       		.byte	52
 2243 0144 36       		.byte	54
 2244 0145 DC       		.byte	-36
 2245 0146 B4       		.byte	-76
 2246 0147 5B       		.byte	91
 2247 0148 A4       		.byte	-92
 2248 0149 76       		.byte	118
 2249 014a B7       		.byte	-73
 2250 014b 7D       		.byte	125
 2251 014c 52       		.byte	82
 2252 014d DD       		.byte	-35
 2253 014e 5E       		.byte	94
 2254 014f 13       		.byte	19
 2255 0150 A6       		.byte	-90
 2256 0151 B9       		.byte	-71
 2257 0152 00       		.byte	0
 2258 0153 C1       		.byte	-63
 2259 0154 40       		.byte	64
 2260 0155 E3       		.byte	-29
 2261 0156 79       		.byte	121
 2262 0157 B6       		.byte	-74
 2263 0158 D4       		.byte	-44
 2264 0159 8D       		.byte	-115
 2265 015a 67       		.byte	103
 2266 015b 72       		.byte	114
 2267 015c 94       		.byte	-108
 2268 015d 98       		.byte	-104
 2269 015e B0       		.byte	-80
 2270 015f 85       		.byte	-123
 2271 0160 BB       		.byte	-69
 2272 0161 C5       		.byte	-59
 2273 0162 4F       		.byte	79
 2274 0163 ED       		.byte	-19
 2275 0164 86       		.byte	-122
 2276 0165 9A       		.byte	-102
 2277 0166 66       		.byte	102
 2278 0167 11       		.byte	17
 2279 0168 8A       		.byte	-118
 2280 0169 E9       		.byte	-23
 2281 016a 04       		.byte	4
 2282 016b FE       		.byte	-2
 2283 016c A0       		.byte	-96
 2284 016d 78       		.byte	120
 2285 016e 25       		.byte	37
 2286 016f 4B       		.byte	75
 2287 0170 A2       		.byte	-94
 2288 0171 5D       		.byte	93
 2289 0172 80       		.byte	-128
 2290 0173 05       		.byte	5
 2291 0174 3F       		.byte	63
 2292 0175 21       		.byte	33
 2293 0176 70       		.byte	112
 2294 0177 F1       		.byte	-15
 2295 0178 63       		.byte	99
 2296 0179 77       		.byte	119
 2297 017a AF       		.byte	-81
 2298 017b 42       		.byte	66
ARM GAS  C:\Users\EBANO_~1\AppData\Local\Temp\ccMXEZix.s 			page 58


 2299 017c 20       		.byte	32
 2300 017d E5       		.byte	-27
 2301 017e FD       		.byte	-3
 2302 017f BF       		.byte	-65
 2303 0180 81       		.byte	-127
 2304 0181 18       		.byte	24
 2305 0182 26       		.byte	38
 2306 0183 C3       		.byte	-61
 2307 0184 BE       		.byte	-66
 2308 0185 35       		.byte	53
 2309 0186 88       		.byte	-120
 2310 0187 2E       		.byte	46
 2311 0188 93       		.byte	-109
 2312 0189 55       		.byte	85
 2313 018a FC       		.byte	-4
 2314 018b 7A       		.byte	122
 2315 018c C8       		.byte	-56
 2316 018d BA       		.byte	-70
 2317 018e 32       		.byte	50
 2318 018f E6       		.byte	-26
 2319 0190 C0       		.byte	-64
 2320 0191 19       		.byte	25
 2321 0192 9E       		.byte	-98
 2322 0193 A3       		.byte	-93
 2323 0194 44       		.byte	68
 2324 0195 54       		.byte	84
 2325 0196 3B       		.byte	59
 2326 0197 0B       		.byte	11
 2327 0198 8C       		.byte	-116
 2328 0199 C7       		.byte	-57
 2329 019a 6B       		.byte	107
 2330 019b 28       		.byte	40
 2331 019c A7       		.byte	-89
 2332 019d BC       		.byte	-68
 2333 019e 16       		.byte	22
 2334 019f AD       		.byte	-83
 2335 01a0 DB       		.byte	-37
 2336 01a1 64       		.byte	100
 2337 01a2 74       		.byte	116
 2338 01a3 14       		.byte	20
 2339 01a4 92       		.byte	-110
 2340 01a5 0C       		.byte	12
 2341 01a6 48       		.byte	72
 2342 01a7 B8       		.byte	-72
 2343 01a8 9F       		.byte	-97
 2344 01a9 BD       		.byte	-67
 2345 01aa 43       		.byte	67
 2346 01ab C4       		.byte	-60
 2347 01ac 39       		.byte	57
 2348 01ad 31       		.byte	49
 2349 01ae D3       		.byte	-45
 2350 01af F2       		.byte	-14
 2351 01b0 D5       		.byte	-43
 2352 01b1 8B       		.byte	-117
 2353 01b2 6E       		.byte	110
 2354 01b3 DA       		.byte	-38
 2355 01b4 01       		.byte	1
ARM GAS  C:\Users\EBANO_~1\AppData\Local\Temp\ccMXEZix.s 			page 59


 2356 01b5 B1       		.byte	-79
 2357 01b6 9C       		.byte	-100
 2358 01b7 49       		.byte	73
 2359 01b8 D8       		.byte	-40
 2360 01b9 AC       		.byte	-84
 2361 01ba F3       		.byte	-13
 2362 01bb CF       		.byte	-49
 2363 01bc CA       		.byte	-54
 2364 01bd F4       		.byte	-12
 2365 01be 47       		.byte	71
 2366 01bf 10       		.byte	16
 2367 01c0 6F       		.byte	111
 2368 01c1 F0       		.byte	-16
 2369 01c2 4A       		.byte	74
 2370 01c3 5C       		.byte	92
 2371 01c4 38       		.byte	56
 2372 01c5 57       		.byte	87
 2373 01c6 73       		.byte	115
 2374 01c7 97       		.byte	-105
 2375 01c8 CB       		.byte	-53
 2376 01c9 A1       		.byte	-95
 2377 01ca E8       		.byte	-24
 2378 01cb 3E       		.byte	62
 2379 01cc 96       		.byte	-106
 2380 01cd 61       		.byte	97
 2381 01ce 0D       		.byte	13
 2382 01cf 0F       		.byte	15
 2383 01d0 E0       		.byte	-32
 2384 01d1 7C       		.byte	124
 2385 01d2 71       		.byte	113
 2386 01d3 CC       		.byte	-52
 2387 01d4 90       		.byte	-112
 2388 01d5 06       		.byte	6
 2389 01d6 F7       		.byte	-9
 2390 01d7 1C       		.byte	28
 2391 01d8 C2       		.byte	-62
 2392 01d9 6A       		.byte	106
 2393 01da AE       		.byte	-82
 2394 01db 69       		.byte	105
 2395 01dc 17       		.byte	23
 2396 01dd 99       		.byte	-103
 2397 01de 3A       		.byte	58
 2398 01df 27       		.byte	39
 2399 01e0 D9       		.byte	-39
 2400 01e1 EB       		.byte	-21
 2401 01e2 2B       		.byte	43
 2402 01e3 22       		.byte	34
 2403 01e4 D2       		.byte	-46
 2404 01e5 A9       		.byte	-87
 2405 01e6 07       		.byte	7
 2406 01e7 33       		.byte	51
 2407 01e8 2D       		.byte	45
 2408 01e9 3C       		.byte	60
 2409 01ea 15       		.byte	21
 2410 01eb C9       		.byte	-55
 2411 01ec 87       		.byte	-121
 2412 01ed AA       		.byte	-86
ARM GAS  C:\Users\EBANO_~1\AppData\Local\Temp\ccMXEZix.s 			page 60


 2413 01ee 50       		.byte	80
 2414 01ef A5       		.byte	-91
 2415 01f0 03       		.byte	3
 2416 01f1 59       		.byte	89
 2417 01f2 09       		.byte	9
 2418 01f3 1A       		.byte	26
 2419 01f4 65       		.byte	101
 2420 01f5 D7       		.byte	-41
 2421 01f6 84       		.byte	-124
 2422 01f7 D0       		.byte	-48
 2423 01f8 82       		.byte	-126
 2424 01f9 29       		.byte	41
 2425 01fa 5A       		.byte	90
 2426 01fb 1E       		.byte	30
 2427 01fc 7B       		.byte	123
 2428 01fd A8       		.byte	-88
 2429 01fe 6D       		.byte	109
 2430 01ff 2C       		.byte	44
 2431              		.type	sbox, %object
 2432              		.size	sbox, 256
 2433              	sbox:
 2434 0200 63       		.byte	99
 2435 0201 7C       		.byte	124
 2436 0202 77       		.byte	119
 2437 0203 7B       		.byte	123
 2438 0204 F2       		.byte	-14
 2439 0205 6B       		.byte	107
 2440 0206 6F       		.byte	111
 2441 0207 C5       		.byte	-59
 2442 0208 30       		.byte	48
 2443 0209 01       		.byte	1
 2444 020a 67       		.byte	103
 2445 020b 2B       		.byte	43
 2446 020c FE       		.byte	-2
 2447 020d D7       		.byte	-41
 2448 020e AB       		.byte	-85
 2449 020f 76       		.byte	118
 2450 0210 CA       		.byte	-54
 2451 0211 82       		.byte	-126
 2452 0212 C9       		.byte	-55
 2453 0213 7D       		.byte	125
 2454 0214 FA       		.byte	-6
 2455 0215 59       		.byte	89
 2456 0216 47       		.byte	71
 2457 0217 F0       		.byte	-16
 2458 0218 AD       		.byte	-83
 2459 0219 D4       		.byte	-44
 2460 021a A2       		.byte	-94
 2461 021b AF       		.byte	-81
 2462 021c 9C       		.byte	-100
 2463 021d A4       		.byte	-92
 2464 021e 72       		.byte	114
 2465 021f C0       		.byte	-64
 2466 0220 B7       		.byte	-73
 2467 0221 FD       		.byte	-3
 2468 0222 93       		.byte	-109
 2469 0223 26       		.byte	38
ARM GAS  C:\Users\EBANO_~1\AppData\Local\Temp\ccMXEZix.s 			page 61


 2470 0224 36       		.byte	54
 2471 0225 3F       		.byte	63
 2472 0226 F7       		.byte	-9
 2473 0227 CC       		.byte	-52
 2474 0228 34       		.byte	52
 2475 0229 A5       		.byte	-91
 2476 022a E5       		.byte	-27
 2477 022b F1       		.byte	-15
 2478 022c 71       		.byte	113
 2479 022d D8       		.byte	-40
 2480 022e 31       		.byte	49
 2481 022f 15       		.byte	21
 2482 0230 04       		.byte	4
 2483 0231 C7       		.byte	-57
 2484 0232 23       		.byte	35
 2485 0233 C3       		.byte	-61
 2486 0234 18       		.byte	24
 2487 0235 96       		.byte	-106
 2488 0236 05       		.byte	5
 2489 0237 9A       		.byte	-102
 2490 0238 07       		.byte	7
 2491 0239 12       		.byte	18
 2492 023a 80       		.byte	-128
 2493 023b E2       		.byte	-30
 2494 023c EB       		.byte	-21
 2495 023d 27       		.byte	39
 2496 023e B2       		.byte	-78
 2497 023f 75       		.byte	117
 2498 0240 09       		.byte	9
 2499 0241 83       		.byte	-125
 2500 0242 2C       		.byte	44
 2501 0243 1A       		.byte	26
 2502 0244 1B       		.byte	27
 2503 0245 6E       		.byte	110
 2504 0246 5A       		.byte	90
 2505 0247 A0       		.byte	-96
 2506 0248 52       		.byte	82
 2507 0249 3B       		.byte	59
 2508 024a D6       		.byte	-42
 2509 024b B3       		.byte	-77
 2510 024c 29       		.byte	41
 2511 024d E3       		.byte	-29
 2512 024e 2F       		.byte	47
 2513 024f 84       		.byte	-124
 2514 0250 53       		.byte	83
 2515 0251 D1       		.byte	-47
 2516 0252 00       		.byte	0
 2517 0253 ED       		.byte	-19
 2518 0254 20       		.byte	32
 2519 0255 FC       		.byte	-4
 2520 0256 B1       		.byte	-79
 2521 0257 5B       		.byte	91
 2522 0258 6A       		.byte	106
 2523 0259 CB       		.byte	-53
 2524 025a BE       		.byte	-66
 2525 025b 39       		.byte	57
 2526 025c 4A       		.byte	74
ARM GAS  C:\Users\EBANO_~1\AppData\Local\Temp\ccMXEZix.s 			page 62


 2527 025d 4C       		.byte	76
 2528 025e 58       		.byte	88
 2529 025f CF       		.byte	-49
 2530 0260 D0       		.byte	-48
 2531 0261 EF       		.byte	-17
 2532 0262 AA       		.byte	-86
 2533 0263 FB       		.byte	-5
 2534 0264 43       		.byte	67
 2535 0265 4D       		.byte	77
 2536 0266 33       		.byte	51
 2537 0267 85       		.byte	-123
 2538 0268 45       		.byte	69
 2539 0269 F9       		.byte	-7
 2540 026a 02       		.byte	2
 2541 026b 7F       		.byte	127
 2542 026c 50       		.byte	80
 2543 026d 3C       		.byte	60
 2544 026e 9F       		.byte	-97
 2545 026f A8       		.byte	-88
 2546 0270 51       		.byte	81
 2547 0271 A3       		.byte	-93
 2548 0272 40       		.byte	64
 2549 0273 8F       		.byte	-113
 2550 0274 92       		.byte	-110
 2551 0275 9D       		.byte	-99
 2552 0276 38       		.byte	56
 2553 0277 F5       		.byte	-11
 2554 0278 BC       		.byte	-68
 2555 0279 B6       		.byte	-74
 2556 027a DA       		.byte	-38
 2557 027b 21       		.byte	33
 2558 027c 10       		.byte	16
 2559 027d FF       		.byte	-1
 2560 027e F3       		.byte	-13
 2561 027f D2       		.byte	-46
 2562 0280 CD       		.byte	-51
 2563 0281 0C       		.byte	12
 2564 0282 13       		.byte	19
 2565 0283 EC       		.byte	-20
 2566 0284 5F       		.byte	95
 2567 0285 97       		.byte	-105
 2568 0286 44       		.byte	68
 2569 0287 17       		.byte	23
 2570 0288 C4       		.byte	-60
 2571 0289 A7       		.byte	-89
 2572 028a 7E       		.byte	126
 2573 028b 3D       		.byte	61
 2574 028c 64       		.byte	100
 2575 028d 5D       		.byte	93
 2576 028e 19       		.byte	25
 2577 028f 73       		.byte	115
 2578 0290 60       		.byte	96
 2579 0291 81       		.byte	-127
 2580 0292 4F       		.byte	79
 2581 0293 DC       		.byte	-36
 2582 0294 22       		.byte	34
 2583 0295 2A       		.byte	42
ARM GAS  C:\Users\EBANO_~1\AppData\Local\Temp\ccMXEZix.s 			page 63


 2584 0296 90       		.byte	-112
 2585 0297 88       		.byte	-120
 2586 0298 46       		.byte	70
 2587 0299 EE       		.byte	-18
 2588 029a B8       		.byte	-72
 2589 029b 14       		.byte	20
 2590 029c DE       		.byte	-34
 2591 029d 5E       		.byte	94
 2592 029e 0B       		.byte	11
 2593 029f DB       		.byte	-37
 2594 02a0 E0       		.byte	-32
 2595 02a1 32       		.byte	50
 2596 02a2 3A       		.byte	58
 2597 02a3 0A       		.byte	10
 2598 02a4 49       		.byte	73
 2599 02a5 06       		.byte	6
 2600 02a6 24       		.byte	36
 2601 02a7 5C       		.byte	92
 2602 02a8 C2       		.byte	-62
 2603 02a9 D3       		.byte	-45
 2604 02aa AC       		.byte	-84
 2605 02ab 62       		.byte	98
 2606 02ac 91       		.byte	-111
 2607 02ad 95       		.byte	-107
 2608 02ae E4       		.byte	-28
 2609 02af 79       		.byte	121
 2610 02b0 E7       		.byte	-25
 2611 02b1 C8       		.byte	-56
 2612 02b2 37       		.byte	55
 2613 02b3 6D       		.byte	109
 2614 02b4 8D       		.byte	-115
 2615 02b5 D5       		.byte	-43
 2616 02b6 4E       		.byte	78
 2617 02b7 A9       		.byte	-87
 2618 02b8 6C       		.byte	108
 2619 02b9 56       		.byte	86
 2620 02ba F4       		.byte	-12
 2621 02bb EA       		.byte	-22
 2622 02bc 65       		.byte	101
 2623 02bd 7A       		.byte	122
 2624 02be AE       		.byte	-82
 2625 02bf 08       		.byte	8
 2626 02c0 BA       		.byte	-70
 2627 02c1 78       		.byte	120
 2628 02c2 25       		.byte	37
 2629 02c3 2E       		.byte	46
 2630 02c4 1C       		.byte	28
 2631 02c5 A6       		.byte	-90
 2632 02c6 B4       		.byte	-76
 2633 02c7 C6       		.byte	-58
 2634 02c8 E8       		.byte	-24
 2635 02c9 DD       		.byte	-35
 2636 02ca 74       		.byte	116
 2637 02cb 1F       		.byte	31
 2638 02cc 4B       		.byte	75
 2639 02cd BD       		.byte	-67
 2640 02ce 8B       		.byte	-117
ARM GAS  C:\Users\EBANO_~1\AppData\Local\Temp\ccMXEZix.s 			page 64


 2641 02cf 8A       		.byte	-118
 2642 02d0 70       		.byte	112
 2643 02d1 3E       		.byte	62
 2644 02d2 B5       		.byte	-75
 2645 02d3 66       		.byte	102
 2646 02d4 48       		.byte	72
 2647 02d5 03       		.byte	3
 2648 02d6 F6       		.byte	-10
 2649 02d7 0E       		.byte	14
 2650 02d8 61       		.byte	97
 2651 02d9 35       		.byte	53
 2652 02da 57       		.byte	87
 2653 02db B9       		.byte	-71
 2654 02dc 86       		.byte	-122
 2655 02dd C1       		.byte	-63
 2656 02de 1D       		.byte	29
 2657 02df 9E       		.byte	-98
 2658 02e0 E1       		.byte	-31
 2659 02e1 F8       		.byte	-8
 2660 02e2 98       		.byte	-104
 2661 02e3 11       		.byte	17
 2662 02e4 69       		.byte	105
 2663 02e5 D9       		.byte	-39
 2664 02e6 8E       		.byte	-114
 2665 02e7 94       		.byte	-108
 2666 02e8 9B       		.byte	-101
 2667 02e9 1E       		.byte	30
 2668 02ea 87       		.byte	-121
 2669 02eb E9       		.byte	-23
 2670 02ec CE       		.byte	-50
 2671 02ed 55       		.byte	85
 2672 02ee 28       		.byte	40
 2673 02ef DF       		.byte	-33
 2674 02f0 8C       		.byte	-116
 2675 02f1 A1       		.byte	-95
 2676 02f2 89       		.byte	-119
 2677 02f3 0D       		.byte	13
 2678 02f4 BF       		.byte	-65
 2679 02f5 E6       		.byte	-26
 2680 02f6 42       		.byte	66
 2681 02f7 68       		.byte	104
 2682 02f8 41       		.byte	65
 2683 02f9 99       		.byte	-103
 2684 02fa 2D       		.byte	45
 2685 02fb 0F       		.byte	15
 2686 02fc B0       		.byte	-80
 2687 02fd 54       		.byte	84
 2688 02fe BB       		.byte	-69
 2689 02ff 16       		.byte	22
 2690              		.text
 2691              	.Letext0:
 2692              		.file 2 "c:\\program files (x86)\\gnu tools arm embedded\\7 2018-q2-update\\arm-none-eabi\\include
 2693              		.file 3 "c:\\program files (x86)\\gnu tools arm embedded\\7 2018-q2-update\\arm-none-eabi\\include
 2694              		.file 4 "c:\\program files (x86)\\gnu tools arm embedded\\7 2018-q2-update\\arm-none-eabi\\include
 2695              		.file 5 "c:\\program files (x86)\\gnu tools arm embedded\\7 2018-q2-update\\lib\\gcc\\arm-none-eab
 2696              		.file 6 "c:\\program files (x86)\\gnu tools arm embedded\\7 2018-q2-update\\arm-none-eabi\\include
 2697              		.file 7 "c:\\program files (x86)\\gnu tools arm embedded\\7 2018-q2-update\\arm-none-eabi\\include
ARM GAS  C:\Users\EBANO_~1\AppData\Local\Temp\ccMXEZix.s 			page 65


 2698              		.file 8 "c:\\program files (x86)\\gnu tools arm embedded\\7 2018-q2-update\\arm-none-eabi\\include
 2699              		.file 9 "../../../../../../Middlewares/Third_Party/LoRaWAN/Crypto/aes.h"
 2700              		.section	.debug_info,"",%progbits
 2701              	.Ldebug_info0:
 2702 0000 810F0000 		.4byte	0xf81
 2703 0004 0200     		.2byte	0x2
 2704 0006 00000000 		.4byte	.Ldebug_abbrev0
 2705 000a 04       		.byte	0x4
 2706 000b 01       		.uleb128 0x1
 2707 000c 56030000 		.4byte	.LASF144
 2708 0010 0C       		.byte	0xc
 2709 0011 59020000 		.4byte	.LASF145
 2710 0015 E1050000 		.4byte	.LASF146
 2711 0019 C8020000 		.4byte	.Ldebug_ranges0+0x2c8
 2712 001d 00000000 		.4byte	0
 2713 0021 00000000 		.4byte	0
 2714 0025 00000000 		.4byte	.Ldebug_line0
 2715 0029 02       		.uleb128 0x2
 2716 002a 04       		.byte	0x4
 2717 002b 07       		.byte	0x7
 2718 002c D2010000 		.4byte	.LASF0
 2719 0030 03       		.uleb128 0x3
 2720 0031 04       		.byte	0x4
 2721 0032 05       		.byte	0x5
 2722 0033 696E7400 		.ascii	"int\000"
 2723 0037 02       		.uleb128 0x2
 2724 0038 08       		.byte	0x8
 2725 0039 05       		.byte	0x5
 2726 003a C7000000 		.4byte	.LASF1
 2727 003e 02       		.uleb128 0x2
 2728 003f 08       		.byte	0x8
 2729 0040 04       		.byte	0x4
 2730 0041 EA020000 		.4byte	.LASF2
 2731 0045 02       		.uleb128 0x2
 2732 0046 01       		.byte	0x1
 2733 0047 06       		.byte	0x6
 2734 0048 D5000000 		.4byte	.LASF3
 2735 004c 04       		.uleb128 0x4
 2736 004d 30000000 		.4byte	.LASF7
 2737 0051 02       		.byte	0x2
 2738 0052 2B       		.byte	0x2b
 2739 0053 57000000 		.4byte	0x57
 2740 0057 02       		.uleb128 0x2
 2741 0058 01       		.byte	0x1
 2742 0059 08       		.byte	0x8
 2743 005a F6030000 		.4byte	.LASF4
 2744 005e 02       		.uleb128 0x2
 2745 005f 02       		.byte	0x2
 2746 0060 05       		.byte	0x5
 2747 0061 12040000 		.4byte	.LASF5
 2748 0065 02       		.uleb128 0x2
 2749 0066 02       		.byte	0x2
 2750 0067 07       		.byte	0x7
 2751 0068 24020000 		.4byte	.LASF6
 2752 006c 04       		.uleb128 0x4
 2753 006d 1C050000 		.4byte	.LASF8
 2754 0071 02       		.byte	0x2
ARM GAS  C:\Users\EBANO_~1\AppData\Local\Temp\ccMXEZix.s 			page 66


 2755 0072 4D       		.byte	0x4d
 2756 0073 77000000 		.4byte	0x77
 2757 0077 02       		.uleb128 0x2
 2758 0078 04       		.byte	0x4
 2759 0079 05       		.byte	0x5
 2760 007a 1A010000 		.4byte	.LASF9
 2761 007e 02       		.uleb128 0x2
 2762 007f 04       		.byte	0x4
 2763 0080 07       		.byte	0x7
 2764 0081 FB010000 		.4byte	.LASF10
 2765 0085 02       		.uleb128 0x2
 2766 0086 08       		.byte	0x8
 2767 0087 07       		.byte	0x7
 2768 0088 74000000 		.4byte	.LASF11
 2769 008c 04       		.uleb128 0x4
 2770 008d A6020000 		.4byte	.LASF12
 2771 0091 03       		.byte	0x3
 2772 0092 22       		.byte	0x22
 2773 0093 97000000 		.4byte	0x97
 2774 0097 05       		.uleb128 0x5
 2775 0098 04       		.byte	0x4
 2776 0099 9D000000 		.4byte	0x9d
 2777 009d 06       		.uleb128 0x6
 2778 009e C7040000 		.4byte	.LASF119
 2779 00a2 01       		.byte	0x1
 2780 00a3 04       		.uleb128 0x4
 2781 00a4 2F030000 		.4byte	.LASF13
 2782 00a8 04       		.byte	0x4
 2783 00a9 2C       		.byte	0x2c
 2784 00aa 77000000 		.4byte	0x77
 2785 00ae 04       		.uleb128 0x4
 2786 00af F5040000 		.4byte	.LASF14
 2787 00b3 04       		.byte	0x4
 2788 00b4 72       		.byte	0x72
 2789 00b5 77000000 		.4byte	0x77
 2790 00b9 07       		.uleb128 0x7
 2791 00ba AE020000 		.4byte	.LASF15
 2792 00be 05       		.byte	0x5
 2793 00bf 6501     		.2byte	0x165
 2794 00c1 29000000 		.4byte	0x29
 2795 00c5 08       		.uleb128 0x8
 2796 00c6 04       		.byte	0x4
 2797 00c7 04       		.byte	0x4
 2798 00c8 A6       		.byte	0xa6
 2799 00c9 E4000000 		.4byte	0xe4
 2800 00cd 09       		.uleb128 0x9
 2801 00ce A0020000 		.4byte	.LASF16
 2802 00d2 04       		.byte	0x4
 2803 00d3 A8       		.byte	0xa8
 2804 00d4 B9000000 		.4byte	0xb9
 2805 00d8 09       		.uleb128 0x9
 2806 00d9 DF010000 		.4byte	.LASF17
 2807 00dd 04       		.byte	0x4
 2808 00de A9       		.byte	0xa9
 2809 00df E4000000 		.4byte	0xe4
 2810 00e3 00       		.byte	0
 2811 00e4 0A       		.uleb128 0xa
ARM GAS  C:\Users\EBANO_~1\AppData\Local\Temp\ccMXEZix.s 			page 67


 2812 00e5 57000000 		.4byte	0x57
 2813 00e9 F4000000 		.4byte	0xf4
 2814 00ed 0B       		.uleb128 0xb
 2815 00ee 29000000 		.4byte	0x29
 2816 00f2 03       		.byte	0x3
 2817 00f3 00       		.byte	0
 2818 00f4 0C       		.uleb128 0xc
 2819 00f5 08       		.byte	0x8
 2820 00f6 04       		.byte	0x4
 2821 00f7 A3       		.byte	0xa3
 2822 00f8 19010000 		.4byte	0x119
 2823 00fc 0D       		.uleb128 0xd
 2824 00fd BF040000 		.4byte	.LASF18
 2825 0101 04       		.byte	0x4
 2826 0102 A5       		.byte	0xa5
 2827 0103 30000000 		.4byte	0x30
 2828 0107 02       		.byte	0x2
 2829 0108 23       		.byte	0x23
 2830 0109 00       		.uleb128 0
 2831 010a 0D       		.uleb128 0xd
 2832 010b CE040000 		.4byte	.LASF19
 2833 010f 04       		.byte	0x4
 2834 0110 AA       		.byte	0xaa
 2835 0111 C5000000 		.4byte	0xc5
 2836 0115 02       		.byte	0x2
 2837 0116 23       		.byte	0x23
 2838 0117 04       		.uleb128 0x4
 2839 0118 00       		.byte	0
 2840 0119 04       		.uleb128 0x4
 2841 011a 3A040000 		.4byte	.LASF20
 2842 011e 04       		.byte	0x4
 2843 011f AB       		.byte	0xab
 2844 0120 F4000000 		.4byte	0xf4
 2845 0124 04       		.uleb128 0x4
 2846 0125 95010000 		.4byte	.LASF21
 2847 0129 04       		.byte	0x4
 2848 012a AF       		.byte	0xaf
 2849 012b 8C000000 		.4byte	0x8c
 2850 012f 0E       		.uleb128 0xe
 2851 0130 04       		.byte	0x4
 2852 0131 05       		.uleb128 0x5
 2853 0132 04       		.byte	0x4
 2854 0133 37010000 		.4byte	0x137
 2855 0137 02       		.uleb128 0x2
 2856 0138 01       		.byte	0x1
 2857 0139 08       		.byte	0x8
 2858 013a 04050000 		.4byte	.LASF22
 2859 013e 0F       		.uleb128 0xf
 2860 013f 37010000 		.4byte	0x137
 2861 0143 04       		.uleb128 0x4
 2862 0144 5C050000 		.4byte	.LASF23
 2863 0148 06       		.byte	0x6
 2864 0149 16       		.byte	0x16
 2865 014a 7E000000 		.4byte	0x7e
 2866 014e 10       		.uleb128 0x10
 2867 014f A6010000 		.4byte	.LASF28
 2868 0153 18       		.byte	0x18
ARM GAS  C:\Users\EBANO_~1\AppData\Local\Temp\ccMXEZix.s 			page 68


 2869 0154 06       		.byte	0x6
 2870 0155 2F       		.byte	0x2f
 2871 0156 AD010000 		.4byte	0x1ad
 2872 015a 0D       		.uleb128 0xd
 2873 015b 3B050000 		.4byte	.LASF24
 2874 015f 06       		.byte	0x6
 2875 0160 31       		.byte	0x31
 2876 0161 AD010000 		.4byte	0x1ad
 2877 0165 02       		.byte	0x2
 2878 0166 23       		.byte	0x23
 2879 0167 00       		.uleb128 0
 2880 0168 11       		.uleb128 0x11
 2881 0169 5F6B00   		.ascii	"_k\000"
 2882 016c 06       		.byte	0x6
 2883 016d 32       		.byte	0x32
 2884 016e 30000000 		.4byte	0x30
 2885 0172 02       		.byte	0x2
 2886 0173 23       		.byte	0x23
 2887 0174 04       		.uleb128 0x4
 2888 0175 0D       		.uleb128 0xd
 2889 0176 AA040000 		.4byte	.LASF25
 2890 017a 06       		.byte	0x6
 2891 017b 32       		.byte	0x32
 2892 017c 30000000 		.4byte	0x30
 2893 0180 02       		.byte	0x2
 2894 0181 23       		.byte	0x23
 2895 0182 08       		.uleb128 0x8
 2896 0183 0D       		.uleb128 0xd
 2897 0184 8F010000 		.4byte	.LASF26
 2898 0188 06       		.byte	0x6
 2899 0189 32       		.byte	0x32
 2900 018a 30000000 		.4byte	0x30
 2901 018e 02       		.byte	0x2
 2902 018f 23       		.byte	0x23
 2903 0190 0C       		.uleb128 0xc
 2904 0191 0D       		.uleb128 0xd
 2905 0192 A1050000 		.4byte	.LASF27
 2906 0196 06       		.byte	0x6
 2907 0197 32       		.byte	0x32
 2908 0198 30000000 		.4byte	0x30
 2909 019c 02       		.byte	0x2
 2910 019d 23       		.byte	0x23
 2911 019e 10       		.uleb128 0x10
 2912 019f 11       		.uleb128 0x11
 2913 01a0 5F7800   		.ascii	"_x\000"
 2914 01a3 06       		.byte	0x6
 2915 01a4 33       		.byte	0x33
 2916 01a5 B3010000 		.4byte	0x1b3
 2917 01a9 02       		.byte	0x2
 2918 01aa 23       		.byte	0x23
 2919 01ab 14       		.uleb128 0x14
 2920 01ac 00       		.byte	0
 2921 01ad 05       		.uleb128 0x5
 2922 01ae 04       		.byte	0x4
 2923 01af 4E010000 		.4byte	0x14e
 2924 01b3 0A       		.uleb128 0xa
 2925 01b4 43010000 		.4byte	0x143
ARM GAS  C:\Users\EBANO_~1\AppData\Local\Temp\ccMXEZix.s 			page 69


 2926 01b8 C3010000 		.4byte	0x1c3
 2927 01bc 0B       		.uleb128 0xb
 2928 01bd 29000000 		.4byte	0x29
 2929 01c1 00       		.byte	0
 2930 01c2 00       		.byte	0
 2931 01c3 10       		.uleb128 0x10
 2932 01c4 CD010000 		.4byte	.LASF29
 2933 01c8 24       		.byte	0x24
 2934 01c9 06       		.byte	0x6
 2935 01ca 37       		.byte	0x37
 2936 01cb 4E020000 		.4byte	0x24e
 2937 01cf 0D       		.uleb128 0xd
 2938 01d0 BE000000 		.4byte	.LASF30
 2939 01d4 06       		.byte	0x6
 2940 01d5 39       		.byte	0x39
 2941 01d6 30000000 		.4byte	0x30
 2942 01da 02       		.byte	0x2
 2943 01db 23       		.byte	0x23
 2944 01dc 00       		.uleb128 0
 2945 01dd 0D       		.uleb128 0xd
 2946 01de 09050000 		.4byte	.LASF31
 2947 01e2 06       		.byte	0x6
 2948 01e3 3A       		.byte	0x3a
 2949 01e4 30000000 		.4byte	0x30
 2950 01e8 02       		.byte	0x2
 2951 01e9 23       		.byte	0x23
 2952 01ea 04       		.uleb128 0x4
 2953 01eb 0D       		.uleb128 0xd
 2954 01ec ED000000 		.4byte	.LASF32
 2955 01f0 06       		.byte	0x6
 2956 01f1 3B       		.byte	0x3b
 2957 01f2 30000000 		.4byte	0x30
 2958 01f6 02       		.byte	0x2
 2959 01f7 23       		.byte	0x23
 2960 01f8 08       		.uleb128 0x8
 2961 01f9 0D       		.uleb128 0xd
 2962 01fa B5060000 		.4byte	.LASF33
 2963 01fe 06       		.byte	0x6
 2964 01ff 3C       		.byte	0x3c
 2965 0200 30000000 		.4byte	0x30
 2966 0204 02       		.byte	0x2
 2967 0205 23       		.byte	0x23
 2968 0206 0C       		.uleb128 0xc
 2969 0207 0D       		.uleb128 0xd
 2970 0208 09030000 		.4byte	.LASF34
 2971 020c 06       		.byte	0x6
 2972 020d 3D       		.byte	0x3d
 2973 020e 30000000 		.4byte	0x30
 2974 0212 02       		.byte	0x2
 2975 0213 23       		.byte	0x23
 2976 0214 10       		.uleb128 0x10
 2977 0215 0D       		.uleb128 0xd
 2978 0216 D6020000 		.4byte	.LASF35
 2979 021a 06       		.byte	0x6
 2980 021b 3E       		.byte	0x3e
 2981 021c 30000000 		.4byte	0x30
 2982 0220 02       		.byte	0x2
ARM GAS  C:\Users\EBANO_~1\AppData\Local\Temp\ccMXEZix.s 			page 70


 2983 0221 23       		.byte	0x23
 2984 0222 14       		.uleb128 0x14
 2985 0223 0D       		.uleb128 0xd
 2986 0224 A6050000 		.4byte	.LASF36
 2987 0228 06       		.byte	0x6
 2988 0229 3F       		.byte	0x3f
 2989 022a 30000000 		.4byte	0x30
 2990 022e 02       		.byte	0x2
 2991 022f 23       		.byte	0x23
 2992 0230 18       		.uleb128 0x18
 2993 0231 0D       		.uleb128 0xd
 2994 0232 1C040000 		.4byte	.LASF37
 2995 0236 06       		.byte	0x6
 2996 0237 40       		.byte	0x40
 2997 0238 30000000 		.4byte	0x30
 2998 023c 02       		.byte	0x2
 2999 023d 23       		.byte	0x23
 3000 023e 1C       		.uleb128 0x1c
 3001 023f 0D       		.uleb128 0xd
 3002 0240 62060000 		.4byte	.LASF38
 3003 0244 06       		.byte	0x6
 3004 0245 41       		.byte	0x41
 3005 0246 30000000 		.4byte	0x30
 3006 024a 02       		.byte	0x2
 3007 024b 23       		.byte	0x23
 3008 024c 20       		.uleb128 0x20
 3009 024d 00       		.byte	0
 3010 024e 12       		.uleb128 0x12
 3011 024f FC000000 		.4byte	.LASF39
 3012 0253 0801     		.2byte	0x108
 3013 0255 06       		.byte	0x6
 3014 0256 4A       		.byte	0x4a
 3015 0257 97020000 		.4byte	0x297
 3016 025b 0D       		.uleb128 0xd
 3017 025c 76010000 		.4byte	.LASF40
 3018 0260 06       		.byte	0x6
 3019 0261 4B       		.byte	0x4b
 3020 0262 97020000 		.4byte	0x297
 3021 0266 02       		.byte	0x2
 3022 0267 23       		.byte	0x23
 3023 0268 00       		.uleb128 0
 3024 0269 0D       		.uleb128 0xd
 3025 026a 00000000 		.4byte	.LASF41
 3026 026e 06       		.byte	0x6
 3027 026f 4C       		.byte	0x4c
 3028 0270 97020000 		.4byte	0x297
 3029 0274 03       		.byte	0x3
 3030 0275 23       		.byte	0x23
 3031 0276 8001     		.uleb128 0x80
 3032 0278 0D       		.uleb128 0xd
 3033 0279 4E050000 		.4byte	.LASF42
 3034 027d 06       		.byte	0x6
 3035 027e 4E       		.byte	0x4e
 3036 027f 43010000 		.4byte	0x143
 3037 0283 03       		.byte	0x3
 3038 0284 23       		.byte	0x23
 3039 0285 8002     		.uleb128 0x100
ARM GAS  C:\Users\EBANO_~1\AppData\Local\Temp\ccMXEZix.s 			page 71


 3040 0287 0D       		.uleb128 0xd
 3041 0288 2A010000 		.4byte	.LASF43
 3042 028c 06       		.byte	0x6
 3043 028d 51       		.byte	0x51
 3044 028e 43010000 		.4byte	0x143
 3045 0292 03       		.byte	0x3
 3046 0293 23       		.byte	0x23
 3047 0294 8402     		.uleb128 0x104
 3048 0296 00       		.byte	0
 3049 0297 0A       		.uleb128 0xa
 3050 0298 2F010000 		.4byte	0x12f
 3051 029c A7020000 		.4byte	0x2a7
 3052 02a0 0B       		.uleb128 0xb
 3053 02a1 29000000 		.4byte	0x29
 3054 02a5 1F       		.byte	0x1f
 3055 02a6 00       		.byte	0
 3056 02a7 12       		.uleb128 0x12
 3057 02a8 12030000 		.4byte	.LASF44
 3058 02ac 9001     		.2byte	0x190
 3059 02ae 06       		.byte	0x6
 3060 02af 5D       		.byte	0x5d
 3061 02b0 EE020000 		.4byte	0x2ee
 3062 02b4 0D       		.uleb128 0xd
 3063 02b5 3B050000 		.4byte	.LASF24
 3064 02b9 06       		.byte	0x6
 3065 02ba 5E       		.byte	0x5e
 3066 02bb EE020000 		.4byte	0x2ee
 3067 02bf 02       		.byte	0x2
 3068 02c0 23       		.byte	0x23
 3069 02c1 00       		.uleb128 0
 3070 02c2 0D       		.uleb128 0xd
 3071 02c3 73040000 		.4byte	.LASF45
 3072 02c7 06       		.byte	0x6
 3073 02c8 5F       		.byte	0x5f
 3074 02c9 30000000 		.4byte	0x30
 3075 02cd 02       		.byte	0x2
 3076 02ce 23       		.byte	0x23
 3077 02cf 04       		.uleb128 0x4
 3078 02d0 0D       		.uleb128 0xd
 3079 02d1 7E010000 		.4byte	.LASF46
 3080 02d5 06       		.byte	0x6
 3081 02d6 61       		.byte	0x61
 3082 02d7 F4020000 		.4byte	0x2f4
 3083 02db 02       		.byte	0x2
 3084 02dc 23       		.byte	0x23
 3085 02dd 08       		.uleb128 0x8
 3086 02de 0D       		.uleb128 0xd
 3087 02df FC000000 		.4byte	.LASF39
 3088 02e3 06       		.byte	0x6
 3089 02e4 62       		.byte	0x62
 3090 02e5 4E020000 		.4byte	0x24e
 3091 02e9 03       		.byte	0x3
 3092 02ea 23       		.byte	0x23
 3093 02eb 8801     		.uleb128 0x88
 3094 02ed 00       		.byte	0
 3095 02ee 05       		.uleb128 0x5
 3096 02ef 04       		.byte	0x4
ARM GAS  C:\Users\EBANO_~1\AppData\Local\Temp\ccMXEZix.s 			page 72


 3097 02f0 A7020000 		.4byte	0x2a7
 3098 02f4 0A       		.uleb128 0xa
 3099 02f5 04030000 		.4byte	0x304
 3100 02f9 04030000 		.4byte	0x304
 3101 02fd 0B       		.uleb128 0xb
 3102 02fe 29000000 		.4byte	0x29
 3103 0302 1F       		.byte	0x1f
 3104 0303 00       		.byte	0
 3105 0304 05       		.uleb128 0x5
 3106 0305 04       		.byte	0x4
 3107 0306 0A030000 		.4byte	0x30a
 3108 030a 13       		.uleb128 0x13
 3109 030b 01       		.byte	0x1
 3110 030c 10       		.uleb128 0x10
 3111 030d 26040000 		.4byte	.LASF47
 3112 0311 08       		.byte	0x8
 3113 0312 06       		.byte	0x6
 3114 0313 75       		.byte	0x75
 3115 0314 35030000 		.4byte	0x335
 3116 0318 0D       		.uleb128 0xd
 3117 0319 E7000000 		.4byte	.LASF48
 3118 031d 06       		.byte	0x6
 3119 031e 76       		.byte	0x76
 3120 031f 35030000 		.4byte	0x335
 3121 0323 02       		.byte	0x2
 3122 0324 23       		.byte	0x23
 3123 0325 00       		.uleb128 0
 3124 0326 0D       		.uleb128 0xd
 3125 0327 0C000000 		.4byte	.LASF49
 3126 032b 06       		.byte	0x6
 3127 032c 77       		.byte	0x77
 3128 032d 30000000 		.4byte	0x30
 3129 0331 02       		.byte	0x2
 3130 0332 23       		.byte	0x23
 3131 0333 04       		.uleb128 0x4
 3132 0334 00       		.byte	0
 3133 0335 05       		.uleb128 0x5
 3134 0336 04       		.byte	0x4
 3135 0337 57000000 		.4byte	0x57
 3136 033b 10       		.uleb128 0x10
 3137 033c 45040000 		.4byte	.LASF50
 3138 0340 68       		.byte	0x68
 3139 0341 06       		.byte	0x6
 3140 0342 B5       		.byte	0xb5
 3141 0343 95040000 		.4byte	0x495
 3142 0347 11       		.uleb128 0x11
 3143 0348 5F7000   		.ascii	"_p\000"
 3144 034b 06       		.byte	0x6
 3145 034c B6       		.byte	0xb6
 3146 034d 35030000 		.4byte	0x335
 3147 0351 02       		.byte	0x2
 3148 0352 23       		.byte	0x23
 3149 0353 00       		.uleb128 0
 3150 0354 11       		.uleb128 0x11
 3151 0355 5F7200   		.ascii	"_r\000"
 3152 0358 06       		.byte	0x6
 3153 0359 B7       		.byte	0xb7
ARM GAS  C:\Users\EBANO_~1\AppData\Local\Temp\ccMXEZix.s 			page 73


 3154 035a 30000000 		.4byte	0x30
 3155 035e 02       		.byte	0x2
 3156 035f 23       		.byte	0x23
 3157 0360 04       		.uleb128 0x4
 3158 0361 11       		.uleb128 0x11
 3159 0362 5F7700   		.ascii	"_w\000"
 3160 0365 06       		.byte	0x6
 3161 0366 B8       		.byte	0xb8
 3162 0367 30000000 		.4byte	0x30
 3163 036b 02       		.byte	0x2
 3164 036c 23       		.byte	0x23
 3165 036d 08       		.uleb128 0x8
 3166 036e 0D       		.uleb128 0xd
 3167 036f 23010000 		.4byte	.LASF51
 3168 0373 06       		.byte	0x6
 3169 0374 B9       		.byte	0xb9
 3170 0375 5E000000 		.4byte	0x5e
 3171 0379 02       		.byte	0x2
 3172 037a 23       		.byte	0x23
 3173 037b 0C       		.uleb128 0xc
 3174 037c 0D       		.uleb128 0xd
 3175 037d 0D020000 		.4byte	.LASF52
 3176 0381 06       		.byte	0x6
 3177 0382 BA       		.byte	0xba
 3178 0383 5E000000 		.4byte	0x5e
 3179 0387 02       		.byte	0x2
 3180 0388 23       		.byte	0x23
 3181 0389 0E       		.uleb128 0xe
 3182 038a 11       		.uleb128 0x11
 3183 038b 5F626600 		.ascii	"_bf\000"
 3184 038f 06       		.byte	0x6
 3185 0390 BB       		.byte	0xbb
 3186 0391 0C030000 		.4byte	0x30c
 3187 0395 02       		.byte	0x2
 3188 0396 23       		.byte	0x23
 3189 0397 10       		.uleb128 0x10
 3190 0398 0D       		.uleb128 0xd
 3191 0399 8B000000 		.4byte	.LASF53
 3192 039d 06       		.byte	0x6
 3193 039e BC       		.byte	0xbc
 3194 039f 30000000 		.4byte	0x30
 3195 03a3 02       		.byte	0x2
 3196 03a4 23       		.byte	0x23
 3197 03a5 18       		.uleb128 0x18
 3198 03a6 0D       		.uleb128 0xd
 3199 03a7 0A010000 		.4byte	.LASF54
 3200 03ab 06       		.byte	0x6
 3201 03ac C3       		.byte	0xc3
 3202 03ad 2F010000 		.4byte	0x12f
 3203 03b1 02       		.byte	0x2
 3204 03b2 23       		.byte	0x23
 3205 03b3 1C       		.uleb128 0x1c
 3206 03b4 0D       		.uleb128 0xd
 3207 03b5 BD010000 		.4byte	.LASF55
 3208 03b9 06       		.byte	0x6
 3209 03ba C5       		.byte	0xc5
 3210 03bb 1D060000 		.4byte	0x61d
ARM GAS  C:\Users\EBANO_~1\AppData\Local\Temp\ccMXEZix.s 			page 74


 3211 03bf 02       		.byte	0x2
 3212 03c0 23       		.byte	0x23
 3213 03c1 20       		.uleb128 0x20
 3214 03c2 0D       		.uleb128 0xd
 3215 03c3 CF020000 		.4byte	.LASF56
 3216 03c7 06       		.byte	0x6
 3217 03c8 C7       		.byte	0xc7
 3218 03c9 48060000 		.4byte	0x648
 3219 03cd 02       		.byte	0x2
 3220 03ce 23       		.byte	0x23
 3221 03cf 24       		.uleb128 0x24
 3222 03d0 0D       		.uleb128 0xd
 3223 03d1 D6040000 		.4byte	.LASF57
 3224 03d5 06       		.byte	0x6
 3225 03d6 CA       		.byte	0xca
 3226 03d7 6D060000 		.4byte	0x66d
 3227 03db 02       		.byte	0x2
 3228 03dc 23       		.byte	0x23
 3229 03dd 28       		.uleb128 0x28
 3230 03de 0D       		.uleb128 0xd
 3231 03df 7C060000 		.4byte	.LASF58
 3232 03e3 06       		.byte	0x6
 3233 03e4 CB       		.byte	0xcb
 3234 03e5 88060000 		.4byte	0x688
 3235 03e9 02       		.byte	0x2
 3236 03ea 23       		.byte	0x23
 3237 03eb 2C       		.uleb128 0x2c
 3238 03ec 11       		.uleb128 0x11
 3239 03ed 5F756200 		.ascii	"_ub\000"
 3240 03f1 06       		.byte	0x6
 3241 03f2 CE       		.byte	0xce
 3242 03f3 0C030000 		.4byte	0x30c
 3243 03f7 02       		.byte	0x2
 3244 03f8 23       		.byte	0x23
 3245 03f9 30       		.uleb128 0x30
 3246 03fa 11       		.uleb128 0x11
 3247 03fb 5F757000 		.ascii	"_up\000"
 3248 03ff 06       		.byte	0x6
 3249 0400 CF       		.byte	0xcf
 3250 0401 35030000 		.4byte	0x335
 3251 0405 02       		.byte	0x2
 3252 0406 23       		.byte	0x23
 3253 0407 38       		.uleb128 0x38
 3254 0408 11       		.uleb128 0x11
 3255 0409 5F757200 		.ascii	"_ur\000"
 3256 040d 06       		.byte	0x6
 3257 040e D0       		.byte	0xd0
 3258 040f 30000000 		.4byte	0x30
 3259 0413 02       		.byte	0x2
 3260 0414 23       		.byte	0x23
 3261 0415 3C       		.uleb128 0x3c
 3262 0416 0D       		.uleb128 0xd
 3263 0417 E1000000 		.4byte	.LASF59
 3264 041b 06       		.byte	0x6
 3265 041c D3       		.byte	0xd3
 3266 041d 8E060000 		.4byte	0x68e
 3267 0421 02       		.byte	0x2
ARM GAS  C:\Users\EBANO_~1\AppData\Local\Temp\ccMXEZix.s 			page 75


 3268 0422 23       		.byte	0x23
 3269 0423 40       		.uleb128 0x40
 3270 0424 0D       		.uleb128 0xd
 3271 0425 54060000 		.4byte	.LASF60
 3272 0429 06       		.byte	0x6
 3273 042a D4       		.byte	0xd4
 3274 042b 9E060000 		.4byte	0x69e
 3275 042f 02       		.byte	0x2
 3276 0430 23       		.byte	0x23
 3277 0431 43       		.uleb128 0x43
 3278 0432 11       		.uleb128 0x11
 3279 0433 5F6C6200 		.ascii	"_lb\000"
 3280 0437 06       		.byte	0x6
 3281 0438 D7       		.byte	0xd7
 3282 0439 0C030000 		.4byte	0x30c
 3283 043d 02       		.byte	0x2
 3284 043e 23       		.byte	0x23
 3285 043f 44       		.uleb128 0x44
 3286 0440 0D       		.uleb128 0xd
 3287 0441 39010000 		.4byte	.LASF61
 3288 0445 06       		.byte	0x6
 3289 0446 DA       		.byte	0xda
 3290 0447 30000000 		.4byte	0x30
 3291 044b 02       		.byte	0x2
 3292 044c 23       		.byte	0x23
 3293 044d 4C       		.uleb128 0x4c
 3294 044e 0D       		.uleb128 0xd
 3295 044f 4F010000 		.4byte	.LASF62
 3296 0453 06       		.byte	0x6
 3297 0454 DB       		.byte	0xdb
 3298 0455 A3000000 		.4byte	0xa3
 3299 0459 02       		.byte	0x2
 3300 045a 23       		.byte	0x23
 3301 045b 50       		.uleb128 0x50
 3302 045c 0D       		.uleb128 0xd
 3303 045d 3A000000 		.4byte	.LASF63
 3304 0461 06       		.byte	0x6
 3305 0462 DE       		.byte	0xde
 3306 0463 B4040000 		.4byte	0x4b4
 3307 0467 02       		.byte	0x2
 3308 0468 23       		.byte	0x23
 3309 0469 54       		.uleb128 0x54
 3310 046a 0D       		.uleb128 0xd
 3311 046b B5020000 		.4byte	.LASF64
 3312 046f 06       		.byte	0x6
 3313 0470 E2       		.byte	0xe2
 3314 0471 24010000 		.4byte	0x124
 3315 0475 02       		.byte	0x2
 3316 0476 23       		.byte	0x23
 3317 0477 58       		.uleb128 0x58
 3318 0478 0D       		.uleb128 0xd
 3319 0479 4D040000 		.4byte	.LASF65
 3320 047d 06       		.byte	0x6
 3321 047e E4       		.byte	0xe4
 3322 047f 19010000 		.4byte	0x119
 3323 0483 02       		.byte	0x2
 3324 0484 23       		.byte	0x23
ARM GAS  C:\Users\EBANO_~1\AppData\Local\Temp\ccMXEZix.s 			page 76


 3325 0485 5C       		.uleb128 0x5c
 3326 0486 0D       		.uleb128 0xd
 3327 0487 BB020000 		.4byte	.LASF66
 3328 048b 06       		.byte	0x6
 3329 048c E5       		.byte	0xe5
 3330 048d 30000000 		.4byte	0x30
 3331 0491 02       		.byte	0x2
 3332 0492 23       		.byte	0x23
 3333 0493 64       		.uleb128 0x64
 3334 0494 00       		.byte	0
 3335 0495 14       		.uleb128 0x14
 3336 0496 01       		.byte	0x1
 3337 0497 30000000 		.4byte	0x30
 3338 049b B4040000 		.4byte	0x4b4
 3339 049f 15       		.uleb128 0x15
 3340 04a0 B4040000 		.4byte	0x4b4
 3341 04a4 15       		.uleb128 0x15
 3342 04a5 2F010000 		.4byte	0x12f
 3343 04a9 15       		.uleb128 0x15
 3344 04aa 31010000 		.4byte	0x131
 3345 04ae 15       		.uleb128 0x15
 3346 04af 30000000 		.4byte	0x30
 3347 04b3 00       		.byte	0
 3348 04b4 05       		.uleb128 0x5
 3349 04b5 04       		.byte	0x4
 3350 04b6 BF040000 		.4byte	0x4bf
 3351 04ba 0F       		.uleb128 0xf
 3352 04bb B4040000 		.4byte	0x4b4
 3353 04bf 16       		.uleb128 0x16
 3354 04c0 B2040000 		.4byte	.LASF67
 3355 04c4 2804     		.2byte	0x428
 3356 04c6 06       		.byte	0x6
 3357 04c7 6002     		.2byte	0x260
 3358 04c9 1D060000 		.4byte	0x61d
 3359 04cd 17       		.uleb128 0x17
 3360 04ce FD040000 		.4byte	.LASF68
 3361 04d2 06       		.byte	0x6
 3362 04d3 6202     		.2byte	0x262
 3363 04d5 30000000 		.4byte	0x30
 3364 04d9 02       		.byte	0x2
 3365 04da 23       		.byte	0x23
 3366 04db 00       		.uleb128 0
 3367 04dc 17       		.uleb128 0x17
 3368 04dd 32010000 		.4byte	.LASF69
 3369 04e1 06       		.byte	0x6
 3370 04e2 6702     		.2byte	0x267
 3371 04e4 FB060000 		.4byte	0x6fb
 3372 04e8 02       		.byte	0x2
 3373 04e9 23       		.byte	0x23
 3374 04ea 04       		.uleb128 0x4
 3375 04eb 17       		.uleb128 0x17
 3376 04ec E6010000 		.4byte	.LASF70
 3377 04f0 06       		.byte	0x6
 3378 04f1 6702     		.2byte	0x267
 3379 04f3 FB060000 		.4byte	0x6fb
 3380 04f7 02       		.byte	0x2
 3381 04f8 23       		.byte	0x23
ARM GAS  C:\Users\EBANO_~1\AppData\Local\Temp\ccMXEZix.s 			page 77


 3382 04f9 08       		.uleb128 0x8
 3383 04fa 17       		.uleb128 0x17
 3384 04fb 9E010000 		.4byte	.LASF71
 3385 04ff 06       		.byte	0x6
 3386 0500 6702     		.2byte	0x267
 3387 0502 FB060000 		.4byte	0x6fb
 3388 0506 02       		.byte	0x2
 3389 0507 23       		.byte	0x23
 3390 0508 0C       		.uleb128 0xc
 3391 0509 17       		.uleb128 0x17
 3392 050a 6E040000 		.4byte	.LASF72
 3393 050e 06       		.byte	0x6
 3394 050f 6902     		.2byte	0x269
 3395 0511 30000000 		.4byte	0x30
 3396 0515 02       		.byte	0x2
 3397 0516 23       		.byte	0x23
 3398 0517 10       		.uleb128 0x10
 3399 0518 17       		.uleb128 0x17
 3400 0519 25000000 		.4byte	.LASF73
 3401 051d 06       		.byte	0x6
 3402 051e 6A02     		.2byte	0x26a
 3403 0520 16090000 		.4byte	0x916
 3404 0524 02       		.byte	0x2
 3405 0525 23       		.byte	0x23
 3406 0526 14       		.uleb128 0x14
 3407 0527 17       		.uleb128 0x17
 3408 0528 8A040000 		.4byte	.LASF74
 3409 052c 06       		.byte	0x6
 3410 052d 6D02     		.2byte	0x26d
 3411 052f 30000000 		.4byte	0x30
 3412 0533 02       		.byte	0x2
 3413 0534 23       		.byte	0x23
 3414 0535 30       		.uleb128 0x30
 3415 0536 17       		.uleb128 0x17
 3416 0537 78040000 		.4byte	.LASF75
 3417 053b 06       		.byte	0x6
 3418 053c 6E02     		.2byte	0x26e
 3419 053e 2C090000 		.4byte	0x92c
 3420 0542 02       		.byte	0x2
 3421 0543 23       		.byte	0x23
 3422 0544 34       		.uleb128 0x34
 3423 0545 17       		.uleb128 0x17
 3424 0546 24030000 		.4byte	.LASF76
 3425 054a 06       		.byte	0x6
 3426 054b 7002     		.2byte	0x270
 3427 054d 30000000 		.4byte	0x30
 3428 0551 02       		.byte	0x2
 3429 0552 23       		.byte	0x23
 3430 0553 38       		.uleb128 0x38
 3431 0554 17       		.uleb128 0x17
 3432 0555 80040000 		.4byte	.LASF77
 3433 0559 06       		.byte	0x6
 3434 055a 7202     		.2byte	0x272
 3435 055c 3E090000 		.4byte	0x93e
 3436 0560 02       		.byte	0x2
 3437 0561 23       		.byte	0x23
 3438 0562 3C       		.uleb128 0x3c
ARM GAS  C:\Users\EBANO_~1\AppData\Local\Temp\ccMXEZix.s 			page 78


 3439 0563 17       		.uleb128 0x17
 3440 0564 98020000 		.4byte	.LASF78
 3441 0568 06       		.byte	0x6
 3442 0569 7502     		.2byte	0x275
 3443 056b AD010000 		.4byte	0x1ad
 3444 056f 02       		.byte	0x2
 3445 0570 23       		.byte	0x23
 3446 0571 40       		.uleb128 0x40
 3447 0572 17       		.uleb128 0x17
 3448 0573 C3010000 		.4byte	.LASF79
 3449 0577 06       		.byte	0x6
 3450 0578 7602     		.2byte	0x276
 3451 057a 30000000 		.4byte	0x30
 3452 057e 02       		.byte	0x2
 3453 057f 23       		.byte	0x23
 3454 0580 44       		.uleb128 0x44
 3455 0581 17       		.uleb128 0x17
 3456 0582 96060000 		.4byte	.LASF80
 3457 0586 06       		.byte	0x6
 3458 0587 7702     		.2byte	0x277
 3459 0589 AD010000 		.4byte	0x1ad
 3460 058d 02       		.byte	0x2
 3461 058e 23       		.byte	0x23
 3462 058f 48       		.uleb128 0x48
 3463 0590 17       		.uleb128 0x17
 3464 0591 3E030000 		.4byte	.LASF81
 3465 0595 06       		.byte	0x6
 3466 0596 7802     		.2byte	0x278
 3467 0598 44090000 		.4byte	0x944
 3468 059c 02       		.byte	0x2
 3469 059d 23       		.byte	0x23
 3470 059e 4C       		.uleb128 0x4c
 3471 059f 17       		.uleb128 0x17
 3472 05a0 EE010000 		.4byte	.LASF82
 3473 05a4 06       		.byte	0x6
 3474 05a5 7B02     		.2byte	0x27b
 3475 05a7 30000000 		.4byte	0x30
 3476 05ab 02       		.byte	0x2
 3477 05ac 23       		.byte	0x23
 3478 05ad 50       		.uleb128 0x50
 3479 05ae 17       		.uleb128 0x17
 3480 05af 47010000 		.4byte	.LASF83
 3481 05b3 06       		.byte	0x6
 3482 05b4 7C02     		.2byte	0x27c
 3483 05b6 31010000 		.4byte	0x131
 3484 05ba 02       		.byte	0x2
 3485 05bb 23       		.byte	0x23
 3486 05bc 54       		.uleb128 0x54
 3487 05bd 17       		.uleb128 0x17
 3488 05be 04040000 		.4byte	.LASF84
 3489 05c2 06       		.byte	0x6
 3490 05c3 9F02     		.2byte	0x29f
 3491 05c5 F4080000 		.4byte	0x8f4
 3492 05c9 02       		.byte	0x2
 3493 05ca 23       		.byte	0x23
 3494 05cb 58       		.uleb128 0x58
 3495 05cc 17       		.uleb128 0x17
ARM GAS  C:\Users\EBANO_~1\AppData\Local\Temp\ccMXEZix.s 			page 79


 3496 05cd 12030000 		.4byte	.LASF44
 3497 05d1 06       		.byte	0x6
 3498 05d2 A302     		.2byte	0x2a3
 3499 05d4 EE020000 		.4byte	0x2ee
 3500 05d8 03       		.byte	0x3
 3501 05d9 23       		.byte	0x23
 3502 05da C802     		.uleb128 0x148
 3503 05dc 17       		.uleb128 0x17
 3504 05dd 37020000 		.4byte	.LASF85
 3505 05e1 06       		.byte	0x6
 3506 05e2 A402     		.2byte	0x2a4
 3507 05e4 A7020000 		.4byte	0x2a7
 3508 05e8 03       		.byte	0x3
 3509 05e9 23       		.byte	0x23
 3510 05ea CC02     		.uleb128 0x14c
 3511 05ec 17       		.uleb128 0x17
 3512 05ed C9050000 		.4byte	.LASF86
 3513 05f1 06       		.byte	0x6
 3514 05f2 A802     		.2byte	0x2a8
 3515 05f4 56090000 		.4byte	0x956
 3516 05f8 03       		.byte	0x3
 3517 05f9 23       		.byte	0x23
 3518 05fa DC05     		.uleb128 0x2dc
 3519 05fc 17       		.uleb128 0x17
 3520 05fd 12010000 		.4byte	.LASF87
 3521 0601 06       		.byte	0x6
 3522 0602 AD02     		.2byte	0x2ad
 3523 0604 BA060000 		.4byte	0x6ba
 3524 0608 03       		.byte	0x3
 3525 0609 23       		.byte	0x23
 3526 060a E005     		.uleb128 0x2e0
 3527 060c 17       		.uleb128 0x17
 3528 060d F7000000 		.4byte	.LASF88
 3529 0611 06       		.byte	0x6
 3530 0612 AF02     		.2byte	0x2af
 3531 0614 62090000 		.4byte	0x962
 3532 0618 03       		.byte	0x3
 3533 0619 23       		.byte	0x23
 3534 061a EC05     		.uleb128 0x2ec
 3535 061c 00       		.byte	0
 3536 061d 05       		.uleb128 0x5
 3537 061e 04       		.byte	0x4
 3538 061f 95040000 		.4byte	0x495
 3539 0623 14       		.uleb128 0x14
 3540 0624 01       		.byte	0x1
 3541 0625 30000000 		.4byte	0x30
 3542 0629 42060000 		.4byte	0x642
 3543 062d 15       		.uleb128 0x15
 3544 062e B4040000 		.4byte	0x4b4
 3545 0632 15       		.uleb128 0x15
 3546 0633 2F010000 		.4byte	0x12f
 3547 0637 15       		.uleb128 0x15
 3548 0638 42060000 		.4byte	0x642
 3549 063c 15       		.uleb128 0x15
 3550 063d 30000000 		.4byte	0x30
 3551 0641 00       		.byte	0
 3552 0642 05       		.uleb128 0x5
ARM GAS  C:\Users\EBANO_~1\AppData\Local\Temp\ccMXEZix.s 			page 80


 3553 0643 04       		.byte	0x4
 3554 0644 3E010000 		.4byte	0x13e
 3555 0648 05       		.uleb128 0x5
 3556 0649 04       		.byte	0x4
 3557 064a 23060000 		.4byte	0x623
 3558 064e 14       		.uleb128 0x14
 3559 064f 01       		.byte	0x1
 3560 0650 AE000000 		.4byte	0xae
 3561 0654 6D060000 		.4byte	0x66d
 3562 0658 15       		.uleb128 0x15
 3563 0659 B4040000 		.4byte	0x4b4
 3564 065d 15       		.uleb128 0x15
 3565 065e 2F010000 		.4byte	0x12f
 3566 0662 15       		.uleb128 0x15
 3567 0663 AE000000 		.4byte	0xae
 3568 0667 15       		.uleb128 0x15
 3569 0668 30000000 		.4byte	0x30
 3570 066c 00       		.byte	0
 3571 066d 05       		.uleb128 0x5
 3572 066e 04       		.byte	0x4
 3573 066f 4E060000 		.4byte	0x64e
 3574 0673 14       		.uleb128 0x14
 3575 0674 01       		.byte	0x1
 3576 0675 30000000 		.4byte	0x30
 3577 0679 88060000 		.4byte	0x688
 3578 067d 15       		.uleb128 0x15
 3579 067e B4040000 		.4byte	0x4b4
 3580 0682 15       		.uleb128 0x15
 3581 0683 2F010000 		.4byte	0x12f
 3582 0687 00       		.byte	0
 3583 0688 05       		.uleb128 0x5
 3584 0689 04       		.byte	0x4
 3585 068a 73060000 		.4byte	0x673
 3586 068e 0A       		.uleb128 0xa
 3587 068f 57000000 		.4byte	0x57
 3588 0693 9E060000 		.4byte	0x69e
 3589 0697 0B       		.uleb128 0xb
 3590 0698 29000000 		.4byte	0x29
 3591 069c 02       		.byte	0x2
 3592 069d 00       		.byte	0
 3593 069e 0A       		.uleb128 0xa
 3594 069f 57000000 		.4byte	0x57
 3595 06a3 AE060000 		.4byte	0x6ae
 3596 06a7 0B       		.uleb128 0xb
 3597 06a8 29000000 		.4byte	0x29
 3598 06ac 00       		.byte	0
 3599 06ad 00       		.byte	0
 3600 06ae 07       		.uleb128 0x7
 3601 06af 33040000 		.4byte	.LASF89
 3602 06b3 06       		.byte	0x6
 3603 06b4 1F01     		.2byte	0x11f
 3604 06b6 3B030000 		.4byte	0x33b
 3605 06ba 18       		.uleb128 0x18
 3606 06bb B0050000 		.4byte	.LASF90
 3607 06bf 0C       		.byte	0xc
 3608 06c0 06       		.byte	0x6
 3609 06c1 2301     		.2byte	0x123
ARM GAS  C:\Users\EBANO_~1\AppData\Local\Temp\ccMXEZix.s 			page 81


 3610 06c3 F5060000 		.4byte	0x6f5
 3611 06c7 17       		.uleb128 0x17
 3612 06c8 3B050000 		.4byte	.LASF24
 3613 06cc 06       		.byte	0x6
 3614 06cd 2501     		.2byte	0x125
 3615 06cf F5060000 		.4byte	0x6f5
 3616 06d3 02       		.byte	0x2
 3617 06d4 23       		.byte	0x23
 3618 06d5 00       		.uleb128 0
 3619 06d6 17       		.uleb128 0x17
 3620 06d7 1D020000 		.4byte	.LASF91
 3621 06db 06       		.byte	0x6
 3622 06dc 2601     		.2byte	0x126
 3623 06de 30000000 		.4byte	0x30
 3624 06e2 02       		.byte	0x2
 3625 06e3 23       		.byte	0x23
 3626 06e4 04       		.uleb128 0x4
 3627 06e5 17       		.uleb128 0x17
 3628 06e6 2D040000 		.4byte	.LASF92
 3629 06ea 06       		.byte	0x6
 3630 06eb 2701     		.2byte	0x127
 3631 06ed FB060000 		.4byte	0x6fb
 3632 06f1 02       		.byte	0x2
 3633 06f2 23       		.byte	0x23
 3634 06f3 08       		.uleb128 0x8
 3635 06f4 00       		.byte	0
 3636 06f5 05       		.uleb128 0x5
 3637 06f6 04       		.byte	0x4
 3638 06f7 BA060000 		.4byte	0x6ba
 3639 06fb 05       		.uleb128 0x5
 3640 06fc 04       		.byte	0x4
 3641 06fd AE060000 		.4byte	0x6ae
 3642 0701 18       		.uleb128 0x18
 3643 0702 1D000000 		.4byte	.LASF93
 3644 0706 0E       		.byte	0xe
 3645 0707 06       		.byte	0x6
 3646 0708 3F01     		.2byte	0x13f
 3647 070a 3C070000 		.4byte	0x73c
 3648 070e 17       		.uleb128 0x17
 3649 070f B9040000 		.4byte	.LASF94
 3650 0713 06       		.byte	0x6
 3651 0714 4001     		.2byte	0x140
 3652 0716 3C070000 		.4byte	0x73c
 3653 071a 02       		.byte	0x2
 3654 071b 23       		.byte	0x23
 3655 071c 00       		.uleb128 0
 3656 071d 17       		.uleb128 0x17
 3657 071e 26050000 		.4byte	.LASF95
 3658 0722 06       		.byte	0x6
 3659 0723 4101     		.2byte	0x141
 3660 0725 3C070000 		.4byte	0x73c
 3661 0729 02       		.byte	0x2
 3662 072a 23       		.byte	0x23
 3663 072b 06       		.uleb128 0x6
 3664 072c 17       		.uleb128 0x17
 3665 072d 57050000 		.4byte	.LASF96
 3666 0731 06       		.byte	0x6
ARM GAS  C:\Users\EBANO_~1\AppData\Local\Temp\ccMXEZix.s 			page 82


 3667 0732 4201     		.2byte	0x142
 3668 0734 65000000 		.4byte	0x65
 3669 0738 02       		.byte	0x2
 3670 0739 23       		.byte	0x23
 3671 073a 0C       		.uleb128 0xc
 3672 073b 00       		.byte	0
 3673 073c 0A       		.uleb128 0xa
 3674 073d 65000000 		.4byte	0x65
 3675 0741 4C070000 		.4byte	0x74c
 3676 0745 0B       		.uleb128 0xb
 3677 0746 29000000 		.4byte	0x29
 3678 074a 02       		.byte	0x2
 3679 074b 00       		.byte	0
 3680 074c 19       		.uleb128 0x19
 3681 074d D0       		.byte	0xd0
 3682 074e 06       		.byte	0x6
 3683 074f 8002     		.2byte	0x280
 3684 0751 7C080000 		.4byte	0x87c
 3685 0755 17       		.uleb128 0x17
 3686 0756 94050000 		.4byte	.LASF97
 3687 075a 06       		.byte	0x6
 3688 075b 8202     		.2byte	0x282
 3689 075d 29000000 		.4byte	0x29
 3690 0761 02       		.byte	0x2
 3691 0762 23       		.byte	0x23
 3692 0763 00       		.uleb128 0
 3693 0764 17       		.uleb128 0x17
 3694 0765 41050000 		.4byte	.LASF98
 3695 0769 06       		.byte	0x6
 3696 076a 8302     		.2byte	0x283
 3697 076c 31010000 		.4byte	0x131
 3698 0770 02       		.byte	0x2
 3699 0771 23       		.byte	0x23
 3700 0772 04       		.uleb128 0x4
 3701 0773 17       		.uleb128 0x17
 3702 0774 4C020000 		.4byte	.LASF99
 3703 0778 06       		.byte	0x6
 3704 0779 8402     		.2byte	0x284
 3705 077b 7C080000 		.4byte	0x87c
 3706 077f 02       		.byte	0x2
 3707 0780 23       		.byte	0x23
 3708 0781 08       		.uleb128 0x8
 3709 0782 17       		.uleb128 0x17
 3710 0783 6D060000 		.4byte	.LASF100
 3711 0787 06       		.byte	0x6
 3712 0788 8502     		.2byte	0x285
 3713 078a C3010000 		.4byte	0x1c3
 3714 078e 02       		.byte	0x2
 3715 078f 23       		.byte	0x23
 3716 0790 24       		.uleb128 0x24
 3717 0791 17       		.uleb128 0x17
 3718 0792 AE010000 		.4byte	.LASF101
 3719 0796 06       		.byte	0x6
 3720 0797 8602     		.2byte	0x286
 3721 0799 30000000 		.4byte	0x30
 3722 079d 02       		.byte	0x2
 3723 079e 23       		.byte	0x23
ARM GAS  C:\Users\EBANO_~1\AppData\Local\Temp\ccMXEZix.s 			page 83


 3724 079f 48       		.uleb128 0x48
 3725 07a0 17       		.uleb128 0x17
 3726 07a1 56040000 		.4byte	.LASF102
 3727 07a5 06       		.byte	0x6
 3728 07a6 8702     		.2byte	0x287
 3729 07a8 85000000 		.4byte	0x85
 3730 07ac 02       		.byte	0x2
 3731 07ad 23       		.byte	0x23
 3732 07ae 50       		.uleb128 0x50
 3733 07af 17       		.uleb128 0x17
 3734 07b0 83060000 		.4byte	.LASF103
 3735 07b4 06       		.byte	0x6
 3736 07b5 8802     		.2byte	0x288
 3737 07b7 01070000 		.4byte	0x701
 3738 07bb 02       		.byte	0x2
 3739 07bc 23       		.byte	0x23
 3740 07bd 58       		.uleb128 0x58
 3741 07be 17       		.uleb128 0x17
 3742 07bf 61040000 		.4byte	.LASF104
 3743 07c3 06       		.byte	0x6
 3744 07c4 8902     		.2byte	0x289
 3745 07c6 19010000 		.4byte	0x119
 3746 07ca 02       		.byte	0x2
 3747 07cb 23       		.byte	0x23
 3748 07cc 68       		.uleb128 0x68
 3749 07cd 17       		.uleb128 0x17
 3750 07ce 88060000 		.4byte	.LASF105
 3751 07d2 06       		.byte	0x6
 3752 07d3 8A02     		.2byte	0x28a
 3753 07d5 19010000 		.4byte	0x119
 3754 07d9 02       		.byte	0x2
 3755 07da 23       		.byte	0x23
 3756 07db 70       		.uleb128 0x70
 3757 07dc 17       		.uleb128 0x17
 3758 07dd 48030000 		.4byte	.LASF106
 3759 07e1 06       		.byte	0x6
 3760 07e2 8B02     		.2byte	0x28b
 3761 07e4 19010000 		.4byte	0x119
 3762 07e8 02       		.byte	0x2
 3763 07e9 23       		.byte	0x23
 3764 07ea 78       		.uleb128 0x78
 3765 07eb 17       		.uleb128 0x17
 3766 07ec BF050000 		.4byte	.LASF107
 3767 07f0 06       		.byte	0x6
 3768 07f1 8C02     		.2byte	0x28c
 3769 07f3 8C080000 		.4byte	0x88c
 3770 07f7 03       		.byte	0x3
 3771 07f8 23       		.byte	0x23
 3772 07f9 8001     		.uleb128 0x80
 3773 07fb 17       		.uleb128 0x17
 3774 07fc 40020000 		.4byte	.LASF108
 3775 0800 06       		.byte	0x6
 3776 0801 8D02     		.2byte	0x28d
 3777 0803 9C080000 		.4byte	0x89c
 3778 0807 03       		.byte	0x3
 3779 0808 23       		.byte	0x23
 3780 0809 8801     		.uleb128 0x88
ARM GAS  C:\Users\EBANO_~1\AppData\Local\Temp\ccMXEZix.s 			page 84


 3781 080b 17       		.uleb128 0x17
 3782 080c 64050000 		.4byte	.LASF109
 3783 0810 06       		.byte	0x6
 3784 0811 8E02     		.2byte	0x28e
 3785 0813 30000000 		.4byte	0x30
 3786 0817 03       		.byte	0x3
 3787 0818 23       		.byte	0x23
 3788 0819 A001     		.uleb128 0xa0
 3789 081b 17       		.uleb128 0x17
 3790 081c 68010000 		.4byte	.LASF110
 3791 0820 06       		.byte	0x6
 3792 0821 8F02     		.2byte	0x28f
 3793 0823 19010000 		.4byte	0x119
 3794 0827 03       		.byte	0x3
 3795 0828 23       		.byte	0x23
 3796 0829 A401     		.uleb128 0xa4
 3797 082b 17       		.uleb128 0x17
 3798 082c AF000000 		.4byte	.LASF111
 3799 0830 06       		.byte	0x6
 3800 0831 9002     		.2byte	0x290
 3801 0833 19010000 		.4byte	0x119
 3802 0837 03       		.byte	0x3
 3803 0838 23       		.byte	0x23
 3804 0839 AC01     		.uleb128 0xac
 3805 083b 17       		.uleb128 0x17
 3806 083c 57010000 		.4byte	.LASF112
 3807 0840 06       		.byte	0x6
 3808 0841 9102     		.2byte	0x291
 3809 0843 19010000 		.4byte	0x119
 3810 0847 03       		.byte	0x3
 3811 0848 23       		.byte	0x23
 3812 0849 B401     		.uleb128 0xb4
 3813 084b 17       		.uleb128 0x17
 3814 084c 48000000 		.4byte	.LASF113
 3815 0850 06       		.byte	0x6
 3816 0851 9202     		.2byte	0x292
 3817 0853 19010000 		.4byte	0x119
 3818 0857 03       		.byte	0x3
 3819 0858 23       		.byte	0x23
 3820 0859 BC01     		.uleb128 0xbc
 3821 085b 17       		.uleb128 0x17
 3822 085c 57000000 		.4byte	.LASF114
 3823 0860 06       		.byte	0x6
 3824 0861 9302     		.2byte	0x293
 3825 0863 19010000 		.4byte	0x119
 3826 0867 03       		.byte	0x3
 3827 0868 23       		.byte	0x23
 3828 0869 C401     		.uleb128 0xc4
 3829 086b 17       		.uleb128 0x17
 3830 086c 09040000 		.4byte	.LASF115
 3831 0870 06       		.byte	0x6
 3832 0871 9402     		.2byte	0x294
 3833 0873 30000000 		.4byte	0x30
 3834 0877 03       		.byte	0x3
 3835 0878 23       		.byte	0x23
 3836 0879 CC01     		.uleb128 0xcc
 3837 087b 00       		.byte	0
ARM GAS  C:\Users\EBANO_~1\AppData\Local\Temp\ccMXEZix.s 			page 85


 3838 087c 0A       		.uleb128 0xa
 3839 087d 37010000 		.4byte	0x137
 3840 0881 8C080000 		.4byte	0x88c
 3841 0885 0B       		.uleb128 0xb
 3842 0886 29000000 		.4byte	0x29
 3843 088a 19       		.byte	0x19
 3844 088b 00       		.byte	0
 3845 088c 0A       		.uleb128 0xa
 3846 088d 37010000 		.4byte	0x137
 3847 0891 9C080000 		.4byte	0x89c
 3848 0895 0B       		.uleb128 0xb
 3849 0896 29000000 		.4byte	0x29
 3850 089a 07       		.byte	0x7
 3851 089b 00       		.byte	0
 3852 089c 0A       		.uleb128 0xa
 3853 089d 37010000 		.4byte	0x137
 3854 08a1 AC080000 		.4byte	0x8ac
 3855 08a5 0B       		.uleb128 0xb
 3856 08a6 29000000 		.4byte	0x29
 3857 08aa 17       		.byte	0x17
 3858 08ab 00       		.byte	0
 3859 08ac 19       		.uleb128 0x19
 3860 08ad F0       		.byte	0xf0
 3861 08ae 06       		.byte	0x6
 3862 08af 9902     		.2byte	0x299
 3863 08b1 D4080000 		.4byte	0x8d4
 3864 08b5 17       		.uleb128 0x17
 3865 08b6 F6020000 		.4byte	.LASF116
 3866 08ba 06       		.byte	0x6
 3867 08bb 9C02     		.2byte	0x29c
 3868 08bd D4080000 		.4byte	0x8d4
 3869 08c1 02       		.byte	0x2
 3870 08c2 23       		.byte	0x23
 3871 08c3 00       		.uleb128 0
 3872 08c4 17       		.uleb128 0x17
 3873 08c5 B6050000 		.4byte	.LASF117
 3874 08c9 06       		.byte	0x6
 3875 08ca 9D02     		.2byte	0x29d
 3876 08cc E4080000 		.4byte	0x8e4
 3877 08d0 02       		.byte	0x2
 3878 08d1 23       		.byte	0x23
 3879 08d2 78       		.uleb128 0x78
 3880 08d3 00       		.byte	0
 3881 08d4 0A       		.uleb128 0xa
 3882 08d5 35030000 		.4byte	0x335
 3883 08d9 E4080000 		.4byte	0x8e4
 3884 08dd 0B       		.uleb128 0xb
 3885 08de 29000000 		.4byte	0x29
 3886 08e2 1D       		.byte	0x1d
 3887 08e3 00       		.byte	0
 3888 08e4 0A       		.uleb128 0xa
 3889 08e5 29000000 		.4byte	0x29
 3890 08e9 F4080000 		.4byte	0x8f4
 3891 08ed 0B       		.uleb128 0xb
 3892 08ee 29000000 		.4byte	0x29
 3893 08f2 1D       		.byte	0x1d
 3894 08f3 00       		.byte	0
ARM GAS  C:\Users\EBANO_~1\AppData\Local\Temp\ccMXEZix.s 			page 86


 3895 08f4 1A       		.uleb128 0x1a
 3896 08f5 F0       		.byte	0xf0
 3897 08f6 06       		.byte	0x6
 3898 08f7 7E02     		.2byte	0x27e
 3899 08f9 16090000 		.4byte	0x916
 3900 08fd 1B       		.uleb128 0x1b
 3901 08fe B2040000 		.4byte	.LASF67
 3902 0902 06       		.byte	0x6
 3903 0903 9502     		.2byte	0x295
 3904 0905 4C070000 		.4byte	0x74c
 3905 0909 1B       		.uleb128 0x1b
 3906 090a 5A060000 		.4byte	.LASF118
 3907 090e 06       		.byte	0x6
 3908 090f 9E02     		.2byte	0x29e
 3909 0911 AC080000 		.4byte	0x8ac
 3910 0915 00       		.byte	0
 3911 0916 0A       		.uleb128 0xa
 3912 0917 37010000 		.4byte	0x137
 3913 091b 26090000 		.4byte	0x926
 3914 091f 0B       		.uleb128 0xb
 3915 0920 29000000 		.4byte	0x29
 3916 0924 18       		.byte	0x18
 3917 0925 00       		.byte	0
 3918 0926 06       		.uleb128 0x6
 3919 0927 A4000000 		.4byte	.LASF120
 3920 092b 01       		.byte	0x1
 3921 092c 05       		.uleb128 0x5
 3922 092d 04       		.byte	0x4
 3923 092e 26090000 		.4byte	0x926
 3924 0932 1C       		.uleb128 0x1c
 3925 0933 01       		.byte	0x1
 3926 0934 3E090000 		.4byte	0x93e
 3927 0938 15       		.uleb128 0x15
 3928 0939 B4040000 		.4byte	0x4b4
 3929 093d 00       		.byte	0
 3930 093e 05       		.uleb128 0x5
 3931 093f 04       		.byte	0x4
 3932 0940 32090000 		.4byte	0x932
 3933 0944 05       		.uleb128 0x5
 3934 0945 04       		.byte	0x4
 3935 0946 AD010000 		.4byte	0x1ad
 3936 094a 1C       		.uleb128 0x1c
 3937 094b 01       		.byte	0x1
 3938 094c 56090000 		.4byte	0x956
 3939 0950 15       		.uleb128 0x15
 3940 0951 30000000 		.4byte	0x30
 3941 0955 00       		.byte	0
 3942 0956 05       		.uleb128 0x5
 3943 0957 04       		.byte	0x4
 3944 0958 5C090000 		.4byte	0x95c
 3945 095c 05       		.uleb128 0x5
 3946 095d 04       		.byte	0x4
 3947 095e 4A090000 		.4byte	0x94a
 3948 0962 0A       		.uleb128 0xa
 3949 0963 AE060000 		.4byte	0x6ae
 3950 0967 72090000 		.4byte	0x972
 3951 096b 0B       		.uleb128 0xb
ARM GAS  C:\Users\EBANO_~1\AppData\Local\Temp\ccMXEZix.s 			page 87


 3952 096c 29000000 		.4byte	0x29
 3953 0970 02       		.byte	0x2
 3954 0971 00       		.byte	0
 3955 0972 1D       		.uleb128 0x1d
 3956 0973 DC040000 		.4byte	.LASF121
 3957 0977 06       		.byte	0x6
 3958 0978 2E03     		.2byte	0x32e
 3959 097a B4040000 		.4byte	0x4b4
 3960 097e 01       		.byte	0x1
 3961 097f 01       		.byte	0x1
 3962 0980 1D       		.uleb128 0x1d
 3963 0981 71050000 		.4byte	.LASF122
 3964 0985 06       		.byte	0x6
 3965 0986 2F03     		.2byte	0x32f
 3966 0988 BA040000 		.4byte	0x4ba
 3967 098c 01       		.byte	0x1
 3968 098d 01       		.byte	0x1
 3969 098e 05       		.uleb128 0x5
 3970 098f 04       		.byte	0x4
 3971 0990 94090000 		.4byte	0x994
 3972 0994 1E       		.uleb128 0x1e
 3973 0995 1F       		.uleb128 0x1f
 3974 0996 1A030000 		.4byte	.LASF123
 3975 099a 07       		.byte	0x7
 3976 099b 63       		.byte	0x63
 3977 099c 31010000 		.4byte	0x131
 3978 09a0 01       		.byte	0x1
 3979 09a1 01       		.byte	0x1
 3980 09a2 04       		.uleb128 0x4
 3981 09a3 36030000 		.4byte	.LASF124
 3982 09a7 08       		.byte	0x8
 3983 09a8 18       		.byte	0x18
 3984 09a9 4C000000 		.4byte	0x4c
 3985 09ad 0F       		.uleb128 0xf
 3986 09ae A2090000 		.4byte	0x9a2
 3987 09b2 04       		.uleb128 0x4
 3988 09b3 EE030000 		.4byte	.LASF125
 3989 09b7 08       		.byte	0x8
 3990 09b8 2C       		.byte	0x2c
 3991 09b9 6C000000 		.4byte	0x6c
 3992 09bd 04       		.uleb128 0x4
 3993 09be FD020000 		.4byte	.LASF126
 3994 09c2 09       		.byte	0x9
 3995 09c3 3C       		.byte	0x3c
 3996 09c4 A2090000 		.4byte	0x9a2
 3997 09c8 04       		.uleb128 0x4
 3998 09c9 A9060000 		.4byte	.LASF127
 3999 09cd 09       		.byte	0x9
 4000 09ce 42       		.byte	0x42
 4001 09cf A2090000 		.4byte	0x9a2
 4002 09d3 0C       		.uleb128 0xc
 4003 09d4 F1       		.byte	0xf1
 4004 09d5 09       		.byte	0x9
 4005 09d6 44       		.byte	0x44
 4006 09d7 F9090000 		.4byte	0x9f9
 4007 09db 0D       		.uleb128 0xd
 4008 09dc F6010000 		.4byte	.LASF128
ARM GAS  C:\Users\EBANO_~1\AppData\Local\Temp\ccMXEZix.s 			page 88


 4009 09e0 09       		.byte	0x9
 4010 09e1 45       		.byte	0x45
 4011 09e2 F9090000 		.4byte	0x9f9
 4012 09e6 02       		.byte	0x2
 4013 09e7 23       		.byte	0x23
 4014 09e8 00       		.uleb128 0
 4015 09e9 11       		.uleb128 0x11
 4016 09ea 726E6400 		.ascii	"rnd\000"
 4017 09ee 09       		.byte	0x9
 4018 09ef 46       		.byte	0x46
 4019 09f0 A2090000 		.4byte	0x9a2
 4020 09f4 03       		.byte	0x3
 4021 09f5 23       		.byte	0x23
 4022 09f6 F001     		.uleb128 0xf0
 4023 09f8 00       		.byte	0
 4024 09f9 0A       		.uleb128 0xa
 4025 09fa A2090000 		.4byte	0x9a2
 4026 09fe 090A0000 		.4byte	0xa09
 4027 0a02 0B       		.uleb128 0xb
 4028 0a03 29000000 		.4byte	0x29
 4029 0a07 EF       		.byte	0xef
 4030 0a08 00       		.byte	0
 4031 0a09 04       		.uleb128 0x4
 4032 0a0a 83010000 		.4byte	.LASF129
 4033 0a0e 09       		.byte	0x9
 4034 0a0f 47       		.byte	0x47
 4035 0a10 D3090000 		.4byte	0x9d3
 4036 0a14 0F       		.uleb128 0xf
 4037 0a15 090A0000 		.4byte	0xa09
 4038 0a19 0A       		.uleb128 0xa
 4039 0a1a AD090000 		.4byte	0x9ad
 4040 0a1e 290A0000 		.4byte	0xa29
 4041 0a22 0B       		.uleb128 0xb
 4042 0a23 29000000 		.4byte	0x29
 4043 0a27 FF       		.byte	0xff
 4044 0a28 00       		.byte	0
 4045 0a29 0F       		.uleb128 0xf
 4046 0a2a 190A0000 		.4byte	0xa19
 4047 0a2e 20       		.uleb128 0x20
 4048 0a2f 42010000 		.4byte	.LASF130
 4049 0a33 01       		.byte	0x1
 4050 0a34 C2       		.byte	0xc2
 4051 0a35 290A0000 		.4byte	0xa29
 4052 0a39 05       		.byte	0x5
 4053 0a3a 03       		.byte	0x3
 4054 0a3b 00020000 		.4byte	sbox
 4055 0a3f 20       		.uleb128 0x20
 4056 0a40 13020000 		.4byte	.LASF131
 4057 0a44 01       		.byte	0x1
 4058 0a45 C8       		.byte	0xc8
 4059 0a46 290A0000 		.4byte	0xa29
 4060 0a4a 05       		.byte	0x5
 4061 0a4b 03       		.byte	0x3
 4062 0a4c 00010000 		.4byte	gfm2_sbox
 4063 0a50 20       		.uleb128 0x20
 4064 0a51 E0020000 		.4byte	.LASF132
 4065 0a55 01       		.byte	0x1
ARM GAS  C:\Users\EBANO_~1\AppData\Local\Temp\ccMXEZix.s 			page 89


 4066 0a56 C9       		.byte	0xc9
 4067 0a57 290A0000 		.4byte	0xa29
 4068 0a5b 05       		.byte	0x5
 4069 0a5c 03       		.byte	0x3
 4070 0a5d 00000000 		.4byte	gfm3_sbox
 4071 0a61 21       		.uleb128 0x21
 4072 0a62 01       		.byte	0x1
 4073 0a63 94000000 		.4byte	.LASF134
 4074 0a67 01       		.byte	0x1
 4075 0a68 5502     		.2byte	0x255
 4076 0a6a 01       		.byte	0x1
 4077 0a6b BD090000 		.4byte	0x9bd
 4078 0a6f 00000000 		.4byte	.LFB9
 4079 0a73 10010000 		.4byte	.LFE9
 4080 0a77 00000000 		.4byte	.LLST37
 4081 0a7b 01       		.byte	0x1
 4082 0a7c 640B0000 		.4byte	0xb64
 4083 0a80 22       		.uleb128 0x22
 4084 0a81 696E00   		.ascii	"in\000"
 4085 0a84 01       		.byte	0x1
 4086 0a85 5502     		.2byte	0x255
 4087 0a87 640B0000 		.4byte	0xb64
 4088 0a8b 2C000000 		.4byte	.LLST38
 4089 0a8f 22       		.uleb128 0x22
 4090 0a90 6F757400 		.ascii	"out\000"
 4091 0a94 01       		.byte	0x1
 4092 0a95 5502     		.2byte	0x255
 4093 0a97 6A0B0000 		.4byte	0xb6a
 4094 0a9b 6D000000 		.4byte	.LLST39
 4095 0a9f 23       		.uleb128 0x23
 4096 0aa0 40000000 		.4byte	.LASF133
 4097 0aa4 01       		.byte	0x1
 4098 0aa5 5602     		.2byte	0x256
 4099 0aa7 B2090000 		.4byte	0x9b2
 4100 0aab 96000000 		.4byte	.LLST40
 4101 0aaf 22       		.uleb128 0x22
 4102 0ab0 697600   		.ascii	"iv\000"
 4103 0ab3 01       		.byte	0x1
 4104 0ab4 5602     		.2byte	0x256
 4105 0ab6 6A0B0000 		.4byte	0xb6a
 4106 0aba B6000000 		.4byte	.LLST41
 4107 0abe 24       		.uleb128 0x24
 4108 0abf 63747800 		.ascii	"ctx\000"
 4109 0ac3 01       		.byte	0x1
 4110 0ac4 5602     		.2byte	0x256
 4111 0ac6 700B0000 		.4byte	0xb70
 4112 0aca 02       		.byte	0x2
 4113 0acb 91       		.byte	0x91
 4114 0acc 00       		.sleb128 0
 4115 0acd 25       		.uleb128 0x25
 4116 0ace 760B0000 		.4byte	0xb76
 4117 0ad2 18000000 		.4byte	.LBB208
 4118 0ad6 98020000 		.4byte	.Ldebug_ranges0+0x298
 4119 0ada 01       		.byte	0x1
 4120 0adb 5C02     		.2byte	0x25c
 4121 0add 190B0000 		.4byte	0xb19
 4122 0ae1 26       		.uleb128 0x26
ARM GAS  C:\Users\EBANO_~1\AppData\Local\Temp\ccMXEZix.s 			page 90


 4123 0ae2 A00B0000 		.4byte	0xba0
 4124 0ae6 ED000000 		.4byte	.LLST42
 4125 0aea 26       		.uleb128 0x26
 4126 0aeb 940B0000 		.4byte	0xb94
 4127 0aef 0B010000 		.4byte	.LLST43
 4128 0af3 26       		.uleb128 0x26
 4129 0af4 890B0000 		.4byte	0xb89
 4130 0af8 0B010000 		.4byte	.LLST43
 4131 0afc 27       		.uleb128 0x27
 4132 0afd 2A000000 		.4byte	.LVL123
 4133 0b01 E60D0000 		.4byte	0xde6
 4134 0b05 28       		.uleb128 0x28
 4135 0b06 01       		.byte	0x1
 4136 0b07 50       		.byte	0x50
 4137 0b08 02       		.byte	0x2
 4138 0b09 74       		.byte	0x74
 4139 0b0a 00       		.sleb128 0
 4140 0b0b 28       		.uleb128 0x28
 4141 0b0c 01       		.byte	0x1
 4142 0b0d 51       		.byte	0x51
 4143 0b0e 02       		.byte	0x2
 4144 0b0f 74       		.byte	0x74
 4145 0b10 00       		.sleb128 0
 4146 0b11 28       		.uleb128 0x28
 4147 0b12 01       		.byte	0x1
 4148 0b13 52       		.byte	0x52
 4149 0b14 02       		.byte	0x2
 4150 0b15 78       		.byte	0x78
 4151 0b16 00       		.sleb128 0
 4152 0b17 00       		.byte	0
 4153 0b18 00       		.byte	0
 4154 0b19 25       		.uleb128 0x25
 4155 0b1a C30D0000 		.4byte	0xdc3
 4156 0b1e 2E000000 		.4byte	.LBB211
 4157 0b22 B0020000 		.4byte	.Ldebug_ranges0+0x2b0
 4158 0b26 01       		.byte	0x1
 4159 0b27 5F02     		.2byte	0x25f
 4160 0b29 400B0000 		.4byte	0xb40
 4161 0b2d 26       		.uleb128 0x26
 4162 0b2e DB0D0000 		.4byte	0xddb
 4163 0b32 29010000 		.4byte	.LLST45
 4164 0b36 26       		.uleb128 0x26
 4165 0b37 D10D0000 		.4byte	0xdd1
 4166 0b3b 3C010000 		.4byte	.LLST46
 4167 0b3f 00       		.byte	0
 4168 0b40 29       		.uleb128 0x29
 4169 0b41 720D0000 		.4byte	0xd72
 4170 0b45 78000000 		.4byte	.LBB215
 4171 0b49 F8000000 		.4byte	.LBE215
 4172 0b4d 01       		.byte	0x1
 4173 0b4e 5B02     		.2byte	0x25b
 4174 0b50 26       		.uleb128 0x26
 4175 0b51 8A0D0000 		.4byte	0xd8a
 4176 0b55 4F010000 		.4byte	.LLST47
 4177 0b59 26       		.uleb128 0x26
 4178 0b5a 800D0000 		.4byte	0xd80
 4179 0b5e 62010000 		.4byte	.LLST48
ARM GAS  C:\Users\EBANO_~1\AppData\Local\Temp\ccMXEZix.s 			page 91


 4180 0b62 00       		.byte	0
 4181 0b63 00       		.byte	0
 4182 0b64 05       		.uleb128 0x5
 4183 0b65 04       		.byte	0x4
 4184 0b66 AD090000 		.4byte	0x9ad
 4185 0b6a 05       		.uleb128 0x5
 4186 0b6b 04       		.byte	0x4
 4187 0b6c A2090000 		.4byte	0x9a2
 4188 0b70 05       		.uleb128 0x5
 4189 0b71 04       		.byte	0x4
 4190 0b72 140A0000 		.4byte	0xa14
 4191 0b76 2A       		.uleb128 0x2a
 4192 0b77 01       		.byte	0x1
 4193 0b78 68000000 		.4byte	.LASF147
 4194 0b7c 01       		.byte	0x1
 4195 0b7d 3802     		.2byte	0x238
 4196 0b7f 01       		.byte	0x1
 4197 0b80 BD090000 		.4byte	0x9bd
 4198 0b84 01       		.byte	0x1
 4199 0b85 C40B0000 		.4byte	0xbc4
 4200 0b89 2B       		.uleb128 0x2b
 4201 0b8a 696E00   		.ascii	"in\000"
 4202 0b8d 01       		.byte	0x1
 4203 0b8e 3802     		.2byte	0x238
 4204 0b90 640B0000 		.4byte	0xb64
 4205 0b94 2B       		.uleb128 0x2b
 4206 0b95 6F757400 		.ascii	"out\000"
 4207 0b99 01       		.byte	0x1
 4208 0b9a 3802     		.2byte	0x238
 4209 0b9c 6A0B0000 		.4byte	0xb6a
 4210 0ba0 2B       		.uleb128 0x2b
 4211 0ba1 63747800 		.ascii	"ctx\000"
 4212 0ba5 01       		.byte	0x1
 4213 0ba6 3802     		.2byte	0x238
 4214 0ba8 700B0000 		.4byte	0xb70
 4215 0bac 2C       		.uleb128 0x2c
 4216 0bad 2D       		.uleb128 0x2d
 4217 0bae 733100   		.ascii	"s1\000"
 4218 0bb1 01       		.byte	0x1
 4219 0bb2 3C02     		.2byte	0x23c
 4220 0bb4 C40B0000 		.4byte	0xbc4
 4221 0bb8 2D       		.uleb128 0x2d
 4222 0bb9 7200     		.ascii	"r\000"
 4223 0bbb 01       		.byte	0x1
 4224 0bbc 3C02     		.2byte	0x23c
 4225 0bbe A2090000 		.4byte	0x9a2
 4226 0bc2 00       		.byte	0
 4227 0bc3 00       		.byte	0
 4228 0bc4 0A       		.uleb128 0xa
 4229 0bc5 A2090000 		.4byte	0x9a2
 4230 0bc9 D40B0000 		.4byte	0xbd4
 4231 0bcd 0B       		.uleb128 0xb
 4232 0bce 29000000 		.4byte	0x29
 4233 0bd2 0F       		.byte	0xf
 4234 0bd3 00       		.byte	0
 4235 0bd4 2E       		.uleb128 0x2e
 4236 0bd5 01       		.byte	0x1
ARM GAS  C:\Users\EBANO_~1\AppData\Local\Temp\ccMXEZix.s 			page 92


 4237 0bd6 C3020000 		.4byte	.LASF135
 4238 0bda 01       		.byte	0x1
 4239 0bdb 0102     		.2byte	0x201
 4240 0bdd 01       		.byte	0x1
 4241 0bde BD090000 		.4byte	0x9bd
 4242 0be2 00000000 		.4byte	.LFB7
 4243 0be6 34020000 		.4byte	.LFE7
 4244 0bea 75010000 		.4byte	.LLST18
 4245 0bee 01       		.byte	0x1
 4246 0bef D20C0000 		.4byte	0xcd2
 4247 0bf3 22       		.uleb128 0x22
 4248 0bf4 6B657900 		.ascii	"key\000"
 4249 0bf8 01       		.byte	0x1
 4250 0bf9 0102     		.2byte	0x201
 4251 0bfb 640B0000 		.4byte	0xb64
 4252 0bff AD010000 		.4byte	.LLST19
 4253 0c03 23       		.uleb128 0x23
 4254 0c04 A3040000 		.4byte	.LASF136
 4255 0c08 01       		.byte	0x1
 4256 0c09 0102     		.2byte	0x201
 4257 0c0b C8090000 		.4byte	0x9c8
 4258 0c0f F2010000 		.4byte	.LLST20
 4259 0c13 22       		.uleb128 0x22
 4260 0c14 63747800 		.ascii	"ctx\000"
 4261 0c18 01       		.byte	0x1
 4262 0c19 0102     		.2byte	0x201
 4263 0c1b D20C0000 		.4byte	0xcd2
 4264 0c1f 2C020000 		.4byte	.LLST21
 4265 0c23 2F       		.uleb128 0x2f
 4266 0c24 636300   		.ascii	"cc\000"
 4267 0c27 01       		.byte	0x1
 4268 0c28 0302     		.2byte	0x203
 4269 0c2a A2090000 		.4byte	0x9a2
 4270 0c2e 9A020000 		.4byte	.LLST22
 4271 0c32 2F       		.uleb128 0x2f
 4272 0c33 726300   		.ascii	"rc\000"
 4273 0c36 01       		.byte	0x1
 4274 0c37 0302     		.2byte	0x203
 4275 0c39 A2090000 		.4byte	0x9a2
 4276 0c3d FA020000 		.4byte	.LLST23
 4277 0c41 2F       		.uleb128 0x2f
 4278 0c42 686900   		.ascii	"hi\000"
 4279 0c45 01       		.byte	0x1
 4280 0c46 0302     		.2byte	0x203
 4281 0c48 A2090000 		.4byte	0x9a2
 4282 0c4c 3B030000 		.4byte	.LLST24
 4283 0c50 30       		.uleb128 0x30
 4284 0c51 48020000 		.4byte	.Ldebug_ranges0+0x248
 4285 0c55 A50C0000 		.4byte	0xca5
 4286 0c59 2F       		.uleb128 0x2f
 4287 0c5a 747400   		.ascii	"tt\000"
 4288 0c5d 01       		.byte	0x1
 4289 0c5e 1302     		.2byte	0x213
 4290 0c60 A2090000 		.4byte	0x9a2
 4291 0c64 66030000 		.4byte	.LLST28
 4292 0c68 2F       		.uleb128 0x2f
 4293 0c69 743000   		.ascii	"t0\000"
ARM GAS  C:\Users\EBANO_~1\AppData\Local\Temp\ccMXEZix.s 			page 93


 4294 0c6c 01       		.byte	0x1
 4295 0c6d 1302     		.2byte	0x213
 4296 0c6f A2090000 		.4byte	0x9a2
 4297 0c73 B2030000 		.4byte	.LLST29
 4298 0c77 2F       		.uleb128 0x2f
 4299 0c78 743100   		.ascii	"t1\000"
 4300 0c7b 01       		.byte	0x1
 4301 0c7c 1302     		.2byte	0x213
 4302 0c7e A2090000 		.4byte	0x9a2
 4303 0c82 09040000 		.4byte	.LLST30
 4304 0c86 2F       		.uleb128 0x2f
 4305 0c87 743200   		.ascii	"t2\000"
 4306 0c8a 01       		.byte	0x1
 4307 0c8b 1302     		.2byte	0x213
 4308 0c8d A2090000 		.4byte	0x9a2
 4309 0c91 32040000 		.4byte	.LLST31
 4310 0c95 2F       		.uleb128 0x2f
 4311 0c96 743300   		.ascii	"t3\000"
 4312 0c99 01       		.byte	0x1
 4313 0c9a 1302     		.2byte	0x213
 4314 0c9c A2090000 		.4byte	0x9a2
 4315 0ca0 5B040000 		.4byte	.LLST32
 4316 0ca4 00       		.byte	0
 4317 0ca5 31       		.uleb128 0x31
 4318 0ca6 950D0000 		.4byte	0xd95
 4319 0caa 30000000 		.4byte	.LBB189
 4320 0cae 30020000 		.4byte	.Ldebug_ranges0+0x230
 4321 0cb2 01       		.byte	0x1
 4322 0cb3 0F02     		.2byte	0x20f
 4323 0cb5 26       		.uleb128 0x26
 4324 0cb6 B70D0000 		.4byte	0xdb7
 4325 0cba 84040000 		.4byte	.LLST25
 4326 0cbe 26       		.uleb128 0x26
 4327 0cbf AD0D0000 		.4byte	0xdad
 4328 0cc3 03050000 		.4byte	.LLST26
 4329 0cc7 26       		.uleb128 0x26
 4330 0cc8 A30D0000 		.4byte	0xda3
 4331 0ccc 6A050000 		.4byte	.LLST27
 4332 0cd0 00       		.byte	0
 4333 0cd1 00       		.byte	0
 4334 0cd2 05       		.uleb128 0x5
 4335 0cd3 04       		.byte	0x4
 4336 0cd4 090A0000 		.4byte	0xa09
 4337 0cd8 32       		.uleb128 0x32
 4338 0cd9 84050000 		.4byte	.LASF137
 4339 0cdd 01       		.byte	0x1
 4340 0cde C001     		.2byte	0x1c0
 4341 0ce0 01       		.byte	0x1
 4342 0ce1 01       		.byte	0x1
 4343 0ce2 FD0C0000 		.4byte	0xcfd
 4344 0ce6 2B       		.uleb128 0x2b
 4345 0ce7 647400   		.ascii	"dt\000"
 4346 0cea 01       		.byte	0x1
 4347 0ceb C001     		.2byte	0x1c0
 4348 0ced 6A0B0000 		.4byte	0xb6a
 4349 0cf1 2D       		.uleb128 0x2d
 4350 0cf2 737400   		.ascii	"st\000"
ARM GAS  C:\Users\EBANO_~1\AppData\Local\Temp\ccMXEZix.s 			page 94


 4351 0cf5 01       		.byte	0x1
 4352 0cf6 C101     		.2byte	0x1c1
 4353 0cf8 C40B0000 		.4byte	0xbc4
 4354 0cfc 00       		.byte	0
 4355 0cfd 32       		.uleb128 0x32
 4356 0cfe 2C050000 		.4byte	.LASF138
 4357 0d02 01       		.byte	0x1
 4358 0d03 9B01     		.2byte	0x19b
 4359 0d05 01       		.byte	0x1
 4360 0d06 01       		.byte	0x1
 4361 0d07 220D0000 		.4byte	0xd22
 4362 0d0b 2B       		.uleb128 0x2b
 4363 0d0c 737400   		.ascii	"st\000"
 4364 0d0f 01       		.byte	0x1
 4365 0d10 9B01     		.2byte	0x19b
 4366 0d12 6A0B0000 		.4byte	0xb6a
 4367 0d16 2D       		.uleb128 0x2d
 4368 0d17 747400   		.ascii	"tt\000"
 4369 0d1a 01       		.byte	0x1
 4370 0d1b 9C01     		.2byte	0x19c
 4371 0d1d A2090000 		.4byte	0x9a2
 4372 0d21 00       		.byte	0
 4373 0d22 32       		.uleb128 0x32
 4374 0d23 D3050000 		.4byte	.LASF139
 4375 0d27 01       		.byte	0x1
 4376 0d28 9601     		.2byte	0x196
 4377 0d2a 01       		.byte	0x1
 4378 0d2b 01       		.byte	0x1
 4379 0d2c 450D0000 		.4byte	0xd45
 4380 0d30 2B       		.uleb128 0x2b
 4381 0d31 6400     		.ascii	"d\000"
 4382 0d33 01       		.byte	0x1
 4383 0d34 9601     		.2byte	0x196
 4384 0d36 6A0B0000 		.4byte	0xb6a
 4385 0d3a 2B       		.uleb128 0x2b
 4386 0d3b 6B00     		.ascii	"k\000"
 4387 0d3d 01       		.byte	0x1
 4388 0d3e 9601     		.2byte	0x196
 4389 0d40 640B0000 		.4byte	0xb64
 4390 0d44 00       		.byte	0
 4391 0d45 32       		.uleb128 0x32
 4392 0d46 E8040000 		.4byte	.LASF140
 4393 0d4a 01       		.byte	0x1
 4394 0d4b 7801     		.2byte	0x178
 4395 0d4d 01       		.byte	0x1
 4396 0d4e 01       		.byte	0x1
 4397 0d4f 720D0000 		.4byte	0xd72
 4398 0d53 2B       		.uleb128 0x2b
 4399 0d54 6400     		.ascii	"d\000"
 4400 0d56 01       		.byte	0x1
 4401 0d57 7801     		.2byte	0x178
 4402 0d59 2F010000 		.4byte	0x12f
 4403 0d5d 2B       		.uleb128 0x2b
 4404 0d5e 7300     		.ascii	"s\000"
 4405 0d60 01       		.byte	0x1
 4406 0d61 7801     		.2byte	0x178
 4407 0d63 8E090000 		.4byte	0x98e
ARM GAS  C:\Users\EBANO_~1\AppData\Local\Temp\ccMXEZix.s 			page 95


 4408 0d67 2B       		.uleb128 0x2b
 4409 0d68 6B00     		.ascii	"k\000"
 4410 0d6a 01       		.byte	0x1
 4411 0d6b 7801     		.2byte	0x178
 4412 0d6d 8E090000 		.4byte	0x98e
 4413 0d71 00       		.byte	0
 4414 0d72 32       		.uleb128 0x32
 4415 0d73 12050000 		.4byte	.LASF141
 4416 0d77 01       		.byte	0x1
 4417 0d78 5D01     		.2byte	0x15d
 4418 0d7a 01       		.byte	0x1
 4419 0d7b 01       		.byte	0x1
 4420 0d7c 950D0000 		.4byte	0xd95
 4421 0d80 2B       		.uleb128 0x2b
 4422 0d81 6400     		.ascii	"d\000"
 4423 0d83 01       		.byte	0x1
 4424 0d84 5D01     		.2byte	0x15d
 4425 0d86 2F010000 		.4byte	0x12f
 4426 0d8a 2B       		.uleb128 0x2b
 4427 0d8b 7300     		.ascii	"s\000"
 4428 0d8d 01       		.byte	0x1
 4429 0d8e 5D01     		.2byte	0x15d
 4430 0d90 8E090000 		.4byte	0x98e
 4431 0d94 00       		.byte	0
 4432 0d95 32       		.uleb128 0x32
 4433 0d96 9B060000 		.4byte	.LASF142
 4434 0d9a 01       		.byte	0x1
 4435 0d9b 5601     		.2byte	0x156
 4436 0d9d 01       		.byte	0x1
 4437 0d9e 01       		.byte	0x1
 4438 0d9f C30D0000 		.4byte	0xdc3
 4439 0da3 2B       		.uleb128 0x2b
 4440 0da4 6400     		.ascii	"d\000"
 4441 0da6 01       		.byte	0x1
 4442 0da7 5601     		.2byte	0x156
 4443 0da9 6A0B0000 		.4byte	0xb6a
 4444 0dad 2B       		.uleb128 0x2b
 4445 0dae 7300     		.ascii	"s\000"
 4446 0db0 01       		.byte	0x1
 4447 0db1 5601     		.2byte	0x156
 4448 0db3 640B0000 		.4byte	0xb64
 4449 0db7 2B       		.uleb128 0x2b
 4450 0db8 6E6E00   		.ascii	"nn\000"
 4451 0dbb 01       		.byte	0x1
 4452 0dbc 5601     		.2byte	0x156
 4453 0dbe A2090000 		.4byte	0x9a2
 4454 0dc2 00       		.byte	0
 4455 0dc3 32       		.uleb128 0x32
 4456 0dc4 12000000 		.4byte	.LASF143
 4457 0dc8 01       		.byte	0x1
 4458 0dc9 3B01     		.2byte	0x13b
 4459 0dcb 01       		.byte	0x1
 4460 0dcc 01       		.byte	0x1
 4461 0dcd E60D0000 		.4byte	0xde6
 4462 0dd1 2B       		.uleb128 0x2b
 4463 0dd2 6400     		.ascii	"d\000"
 4464 0dd4 01       		.byte	0x1
ARM GAS  C:\Users\EBANO_~1\AppData\Local\Temp\ccMXEZix.s 			page 96


 4465 0dd5 3B01     		.2byte	0x13b
 4466 0dd7 2F010000 		.4byte	0x12f
 4467 0ddb 2B       		.uleb128 0x2b
 4468 0ddc 7300     		.ascii	"s\000"
 4469 0dde 01       		.byte	0x1
 4470 0ddf 3B01     		.2byte	0x13b
 4471 0de1 8E090000 		.4byte	0x98e
 4472 0de5 00       		.byte	0
 4473 0de6 33       		.uleb128 0x33
 4474 0de7 760B0000 		.4byte	0xb76
 4475 0deb 00000000 		.4byte	.LFB10
 4476 0def B0030000 		.4byte	.LFE10
 4477 0df3 D1050000 		.4byte	.LLST0
 4478 0df7 01       		.byte	0x1
 4479 0df8 370F0000 		.4byte	0xf37
 4480 0dfc 26       		.uleb128 0x26
 4481 0dfd 890B0000 		.4byte	0xb89
 4482 0e01 0A060000 		.4byte	.LLST1
 4483 0e05 26       		.uleb128 0x26
 4484 0e06 940B0000 		.4byte	0xb94
 4485 0e0a 36060000 		.4byte	.LLST2
 4486 0e0e 26       		.uleb128 0x26
 4487 0e0f A00B0000 		.4byte	0xba0
 4488 0e13 55060000 		.4byte	.LLST3
 4489 0e17 34       		.uleb128 0x34
 4490 0e18 AC0B0000 		.4byte	0xbac
 4491 0e1c 00000000 		.4byte	.Ldebug_ranges0+0
 4492 0e20 35       		.uleb128 0x35
 4493 0e21 AD0B0000 		.4byte	0xbad
 4494 0e25 A1060000 		.4byte	.LLST4
 4495 0e29 35       		.uleb128 0x35
 4496 0e2a B80B0000 		.4byte	0xbb8
 4497 0e2e 14120000 		.4byte	.LLST5
 4498 0e32 25       		.uleb128 0x25
 4499 0e33 450D0000 		.4byte	0xd45
 4500 0e37 14000000 		.4byte	.LBB33
 4501 0e3b 20000000 		.4byte	.Ldebug_ranges0+0x20
 4502 0e3f 01       		.byte	0x1
 4503 0e40 3D02     		.2byte	0x23d
 4504 0e42 650E0000 		.4byte	0xe65
 4505 0e46 26       		.uleb128 0x26
 4506 0e47 670D0000 		.4byte	0xd67
 4507 0e4b 34120000 		.4byte	.LLST6
 4508 0e4f 26       		.uleb128 0x26
 4509 0e50 5D0D0000 		.4byte	0xd5d
 4510 0e54 80120000 		.4byte	.LLST7
 4511 0e58 36       		.uleb128 0x36
 4512 0e59 530D0000 		.4byte	0xd53
 4513 0e5d 06       		.byte	0x6
 4514 0e5e F2       		.byte	0xf2
 4515 0e5f 200E0000 		.4byte	.Ldebug_info0+3616
 4516 0e63 00       		.sleb128 0
 4517 0e64 00       		.byte	0
 4518 0e65 25       		.uleb128 0x25
 4519 0e66 D80C0000 		.4byte	0xcd8
 4520 0e6a BA000000 		.4byte	.LBB39
 4521 0e6e 40000000 		.4byte	.Ldebug_ranges0+0x40
ARM GAS  C:\Users\EBANO_~1\AppData\Local\Temp\ccMXEZix.s 			page 97


 4522 0e72 01       		.byte	0x1
 4523 0e73 4202     		.2byte	0x242
 4524 0e75 8E0E0000 		.4byte	0xe8e
 4525 0e79 26       		.uleb128 0x26
 4526 0e7a E60C0000 		.4byte	0xce6
 4527 0e7e AC120000 		.4byte	.LLST8
 4528 0e82 37       		.uleb128 0x37
 4529 0e83 40000000 		.4byte	.Ldebug_ranges0+0x40
 4530 0e87 38       		.uleb128 0x38
 4531 0e88 F10C0000 		.4byte	0xcf1
 4532 0e8c 00       		.byte	0
 4533 0e8d 00       		.byte	0
 4534 0e8e 25       		.uleb128 0x25
 4535 0e8f 220D0000 		.4byte	0xd22
 4536 0e93 3A010000 		.4byte	.LBB69
 4537 0e97 30010000 		.4byte	.Ldebug_ranges0+0x130
 4538 0e9b 01       		.byte	0x1
 4539 0e9c 4302     		.2byte	0x243
 4540 0e9e D80E0000 		.4byte	0xed8
 4541 0ea2 26       		.uleb128 0x26
 4542 0ea3 3A0D0000 		.4byte	0xd3a
 4543 0ea7 C4120000 		.4byte	.LLST9
 4544 0eab 26       		.uleb128 0x26
 4545 0eac 300D0000 		.4byte	0xd30
 4546 0eb0 E4120000 		.4byte	.LLST10
 4547 0eb4 31       		.uleb128 0x31
 4548 0eb5 720D0000 		.4byte	0xd72
 4549 0eb9 3A010000 		.4byte	.LBB70
 4550 0ebd 30010000 		.4byte	.Ldebug_ranges0+0x130
 4551 0ec1 01       		.byte	0x1
 4552 0ec2 9801     		.2byte	0x198
 4553 0ec4 26       		.uleb128 0x26
 4554 0ec5 8A0D0000 		.4byte	0xd8a
 4555 0ec9 C4120000 		.4byte	.LLST9
 4556 0ecd 26       		.uleb128 0x26
 4557 0ece 800D0000 		.4byte	0xd80
 4558 0ed2 E4120000 		.4byte	.LLST10
 4559 0ed6 00       		.byte	0
 4560 0ed7 00       		.byte	0
 4561 0ed8 39       		.uleb128 0x39
 4562 0ed9 FD0C0000 		.4byte	0xcfd
 4563 0edd B2020000 		.4byte	.LBB181
 4564 0ee1 FE020000 		.4byte	.LBE181
 4565 0ee5 01       		.byte	0x1
 4566 0ee6 4B02     		.2byte	0x24b
 4567 0ee8 090F0000 		.4byte	0xf09
 4568 0eec 26       		.uleb128 0x26
 4569 0eed 0B0D0000 		.4byte	0xd0b
 4570 0ef1 FC120000 		.4byte	.LLST13
 4571 0ef5 3A       		.uleb128 0x3a
 4572 0ef6 B2020000 		.4byte	.LBB182
 4573 0efa FE020000 		.4byte	.LBE182
 4574 0efe 35       		.uleb128 0x35
 4575 0eff 160D0000 		.4byte	0xd16
 4576 0f03 14130000 		.4byte	.LLST14
 4577 0f07 00       		.byte	0
 4578 0f08 00       		.byte	0
ARM GAS  C:\Users\EBANO_~1\AppData\Local\Temp\ccMXEZix.s 			page 98


 4579 0f09 31       		.uleb128 0x31
 4580 0f0a 450D0000 		.4byte	0xd45
 4581 0f0e 04030000 		.4byte	.LBB183
 4582 0f12 18020000 		.4byte	.Ldebug_ranges0+0x218
 4583 0f16 01       		.byte	0x1
 4584 0f17 4C02     		.2byte	0x24c
 4585 0f19 26       		.uleb128 0x26
 4586 0f1a 670D0000 		.4byte	0xd67
 4587 0f1e 34130000 		.4byte	.LLST15
 4588 0f22 26       		.uleb128 0x26
 4589 0f23 5D0D0000 		.4byte	0xd5d
 4590 0f27 47130000 		.4byte	.LLST16
 4591 0f2b 26       		.uleb128 0x26
 4592 0f2c 530D0000 		.4byte	0xd53
 4593 0f30 5F130000 		.4byte	.LLST17
 4594 0f34 00       		.byte	0
 4595 0f35 00       		.byte	0
 4596 0f36 00       		.byte	0
 4597 0f37 3B       		.uleb128 0x3b
 4598 0f38 760B0000 		.4byte	0xb76
 4599 0f3c 00000000 		.4byte	.LFB8
 4600 0f40 16000000 		.4byte	.LFE8
 4601 0f44 73130000 		.4byte	.LLST33
 4602 0f48 01       		.byte	0x1
 4603 0f49 26       		.uleb128 0x26
 4604 0f4a 890B0000 		.4byte	0xb89
 4605 0f4e 93130000 		.4byte	.LLST34
 4606 0f52 26       		.uleb128 0x26
 4607 0f53 940B0000 		.4byte	0xb94
 4608 0f57 B4130000 		.4byte	.LLST35
 4609 0f5b 26       		.uleb128 0x26
 4610 0f5c A00B0000 		.4byte	0xba0
 4611 0f60 D5130000 		.4byte	.LLST36
 4612 0f64 27       		.uleb128 0x27
 4613 0f65 10000000 		.4byte	.LVL118
 4614 0f69 E60D0000 		.4byte	0xde6
 4615 0f6d 28       		.uleb128 0x28
 4616 0f6e 01       		.byte	0x1
 4617 0f6f 50       		.byte	0x50
 4618 0f70 03       		.byte	0x3
 4619 0f71 F3       		.byte	0xf3
 4620 0f72 01       		.uleb128 0x1
 4621 0f73 50       		.byte	0x50
 4622 0f74 28       		.uleb128 0x28
 4623 0f75 01       		.byte	0x1
 4624 0f76 51       		.byte	0x51
 4625 0f77 03       		.byte	0x3
 4626 0f78 F3       		.byte	0xf3
 4627 0f79 01       		.uleb128 0x1
 4628 0f7a 51       		.byte	0x51
 4629 0f7b 28       		.uleb128 0x28
 4630 0f7c 01       		.byte	0x1
 4631 0f7d 52       		.byte	0x52
 4632 0f7e 03       		.byte	0x3
 4633 0f7f F3       		.byte	0xf3
 4634 0f80 01       		.uleb128 0x1
 4635 0f81 52       		.byte	0x52
ARM GAS  C:\Users\EBANO_~1\AppData\Local\Temp\ccMXEZix.s 			page 99


 4636 0f82 00       		.byte	0
 4637 0f83 00       		.byte	0
 4638 0f84 00       		.byte	0
 4639              		.section	.debug_abbrev,"",%progbits
 4640              	.Ldebug_abbrev0:
 4641 0000 01       		.uleb128 0x1
 4642 0001 11       		.uleb128 0x11
 4643 0002 01       		.byte	0x1
 4644 0003 25       		.uleb128 0x25
 4645 0004 0E       		.uleb128 0xe
 4646 0005 13       		.uleb128 0x13
 4647 0006 0B       		.uleb128 0xb
 4648 0007 03       		.uleb128 0x3
 4649 0008 0E       		.uleb128 0xe
 4650 0009 1B       		.uleb128 0x1b
 4651 000a 0E       		.uleb128 0xe
 4652 000b 55       		.uleb128 0x55
 4653 000c 06       		.uleb128 0x6
 4654 000d 11       		.uleb128 0x11
 4655 000e 01       		.uleb128 0x1
 4656 000f 52       		.uleb128 0x52
 4657 0010 01       		.uleb128 0x1
 4658 0011 10       		.uleb128 0x10
 4659 0012 06       		.uleb128 0x6
 4660 0013 00       		.byte	0
 4661 0014 00       		.byte	0
 4662 0015 02       		.uleb128 0x2
 4663 0016 24       		.uleb128 0x24
 4664 0017 00       		.byte	0
 4665 0018 0B       		.uleb128 0xb
 4666 0019 0B       		.uleb128 0xb
 4667 001a 3E       		.uleb128 0x3e
 4668 001b 0B       		.uleb128 0xb
 4669 001c 03       		.uleb128 0x3
 4670 001d 0E       		.uleb128 0xe
 4671 001e 00       		.byte	0
 4672 001f 00       		.byte	0
 4673 0020 03       		.uleb128 0x3
 4674 0021 24       		.uleb128 0x24
 4675 0022 00       		.byte	0
 4676 0023 0B       		.uleb128 0xb
 4677 0024 0B       		.uleb128 0xb
 4678 0025 3E       		.uleb128 0x3e
 4679 0026 0B       		.uleb128 0xb
 4680 0027 03       		.uleb128 0x3
 4681 0028 08       		.uleb128 0x8
 4682 0029 00       		.byte	0
 4683 002a 00       		.byte	0
 4684 002b 04       		.uleb128 0x4
 4685 002c 16       		.uleb128 0x16
 4686 002d 00       		.byte	0
 4687 002e 03       		.uleb128 0x3
 4688 002f 0E       		.uleb128 0xe
 4689 0030 3A       		.uleb128 0x3a
 4690 0031 0B       		.uleb128 0xb
 4691 0032 3B       		.uleb128 0x3b
 4692 0033 0B       		.uleb128 0xb
ARM GAS  C:\Users\EBANO_~1\AppData\Local\Temp\ccMXEZix.s 			page 100


 4693 0034 49       		.uleb128 0x49
 4694 0035 13       		.uleb128 0x13
 4695 0036 00       		.byte	0
 4696 0037 00       		.byte	0
 4697 0038 05       		.uleb128 0x5
 4698 0039 0F       		.uleb128 0xf
 4699 003a 00       		.byte	0
 4700 003b 0B       		.uleb128 0xb
 4701 003c 0B       		.uleb128 0xb
 4702 003d 49       		.uleb128 0x49
 4703 003e 13       		.uleb128 0x13
 4704 003f 00       		.byte	0
 4705 0040 00       		.byte	0
 4706 0041 06       		.uleb128 0x6
 4707 0042 13       		.uleb128 0x13
 4708 0043 00       		.byte	0
 4709 0044 03       		.uleb128 0x3
 4710 0045 0E       		.uleb128 0xe
 4711 0046 3C       		.uleb128 0x3c
 4712 0047 0C       		.uleb128 0xc
 4713 0048 00       		.byte	0
 4714 0049 00       		.byte	0
 4715 004a 07       		.uleb128 0x7
 4716 004b 16       		.uleb128 0x16
 4717 004c 00       		.byte	0
 4718 004d 03       		.uleb128 0x3
 4719 004e 0E       		.uleb128 0xe
 4720 004f 3A       		.uleb128 0x3a
 4721 0050 0B       		.uleb128 0xb
 4722 0051 3B       		.uleb128 0x3b
 4723 0052 05       		.uleb128 0x5
 4724 0053 49       		.uleb128 0x49
 4725 0054 13       		.uleb128 0x13
 4726 0055 00       		.byte	0
 4727 0056 00       		.byte	0
 4728 0057 08       		.uleb128 0x8
 4729 0058 17       		.uleb128 0x17
 4730 0059 01       		.byte	0x1
 4731 005a 0B       		.uleb128 0xb
 4732 005b 0B       		.uleb128 0xb
 4733 005c 3A       		.uleb128 0x3a
 4734 005d 0B       		.uleb128 0xb
 4735 005e 3B       		.uleb128 0x3b
 4736 005f 0B       		.uleb128 0xb
 4737 0060 01       		.uleb128 0x1
 4738 0061 13       		.uleb128 0x13
 4739 0062 00       		.byte	0
 4740 0063 00       		.byte	0
 4741 0064 09       		.uleb128 0x9
 4742 0065 0D       		.uleb128 0xd
 4743 0066 00       		.byte	0
 4744 0067 03       		.uleb128 0x3
 4745 0068 0E       		.uleb128 0xe
 4746 0069 3A       		.uleb128 0x3a
 4747 006a 0B       		.uleb128 0xb
 4748 006b 3B       		.uleb128 0x3b
 4749 006c 0B       		.uleb128 0xb
ARM GAS  C:\Users\EBANO_~1\AppData\Local\Temp\ccMXEZix.s 			page 101


 4750 006d 49       		.uleb128 0x49
 4751 006e 13       		.uleb128 0x13
 4752 006f 00       		.byte	0
 4753 0070 00       		.byte	0
 4754 0071 0A       		.uleb128 0xa
 4755 0072 01       		.uleb128 0x1
 4756 0073 01       		.byte	0x1
 4757 0074 49       		.uleb128 0x49
 4758 0075 13       		.uleb128 0x13
 4759 0076 01       		.uleb128 0x1
 4760 0077 13       		.uleb128 0x13
 4761 0078 00       		.byte	0
 4762 0079 00       		.byte	0
 4763 007a 0B       		.uleb128 0xb
 4764 007b 21       		.uleb128 0x21
 4765 007c 00       		.byte	0
 4766 007d 49       		.uleb128 0x49
 4767 007e 13       		.uleb128 0x13
 4768 007f 2F       		.uleb128 0x2f
 4769 0080 0B       		.uleb128 0xb
 4770 0081 00       		.byte	0
 4771 0082 00       		.byte	0
 4772 0083 0C       		.uleb128 0xc
 4773 0084 13       		.uleb128 0x13
 4774 0085 01       		.byte	0x1
 4775 0086 0B       		.uleb128 0xb
 4776 0087 0B       		.uleb128 0xb
 4777 0088 3A       		.uleb128 0x3a
 4778 0089 0B       		.uleb128 0xb
 4779 008a 3B       		.uleb128 0x3b
 4780 008b 0B       		.uleb128 0xb
 4781 008c 01       		.uleb128 0x1
 4782 008d 13       		.uleb128 0x13
 4783 008e 00       		.byte	0
 4784 008f 00       		.byte	0
 4785 0090 0D       		.uleb128 0xd
 4786 0091 0D       		.uleb128 0xd
 4787 0092 00       		.byte	0
 4788 0093 03       		.uleb128 0x3
 4789 0094 0E       		.uleb128 0xe
 4790 0095 3A       		.uleb128 0x3a
 4791 0096 0B       		.uleb128 0xb
 4792 0097 3B       		.uleb128 0x3b
 4793 0098 0B       		.uleb128 0xb
 4794 0099 49       		.uleb128 0x49
 4795 009a 13       		.uleb128 0x13
 4796 009b 38       		.uleb128 0x38
 4797 009c 0A       		.uleb128 0xa
 4798 009d 00       		.byte	0
 4799 009e 00       		.byte	0
 4800 009f 0E       		.uleb128 0xe
 4801 00a0 0F       		.uleb128 0xf
 4802 00a1 00       		.byte	0
 4803 00a2 0B       		.uleb128 0xb
 4804 00a3 0B       		.uleb128 0xb
 4805 00a4 00       		.byte	0
 4806 00a5 00       		.byte	0
ARM GAS  C:\Users\EBANO_~1\AppData\Local\Temp\ccMXEZix.s 			page 102


 4807 00a6 0F       		.uleb128 0xf
 4808 00a7 26       		.uleb128 0x26
 4809 00a8 00       		.byte	0
 4810 00a9 49       		.uleb128 0x49
 4811 00aa 13       		.uleb128 0x13
 4812 00ab 00       		.byte	0
 4813 00ac 00       		.byte	0
 4814 00ad 10       		.uleb128 0x10
 4815 00ae 13       		.uleb128 0x13
 4816 00af 01       		.byte	0x1
 4817 00b0 03       		.uleb128 0x3
 4818 00b1 0E       		.uleb128 0xe
 4819 00b2 0B       		.uleb128 0xb
 4820 00b3 0B       		.uleb128 0xb
 4821 00b4 3A       		.uleb128 0x3a
 4822 00b5 0B       		.uleb128 0xb
 4823 00b6 3B       		.uleb128 0x3b
 4824 00b7 0B       		.uleb128 0xb
 4825 00b8 01       		.uleb128 0x1
 4826 00b9 13       		.uleb128 0x13
 4827 00ba 00       		.byte	0
 4828 00bb 00       		.byte	0
 4829 00bc 11       		.uleb128 0x11
 4830 00bd 0D       		.uleb128 0xd
 4831 00be 00       		.byte	0
 4832 00bf 03       		.uleb128 0x3
 4833 00c0 08       		.uleb128 0x8
 4834 00c1 3A       		.uleb128 0x3a
 4835 00c2 0B       		.uleb128 0xb
 4836 00c3 3B       		.uleb128 0x3b
 4837 00c4 0B       		.uleb128 0xb
 4838 00c5 49       		.uleb128 0x49
 4839 00c6 13       		.uleb128 0x13
 4840 00c7 38       		.uleb128 0x38
 4841 00c8 0A       		.uleb128 0xa
 4842 00c9 00       		.byte	0
 4843 00ca 00       		.byte	0
 4844 00cb 12       		.uleb128 0x12
 4845 00cc 13       		.uleb128 0x13
 4846 00cd 01       		.byte	0x1
 4847 00ce 03       		.uleb128 0x3
 4848 00cf 0E       		.uleb128 0xe
 4849 00d0 0B       		.uleb128 0xb
 4850 00d1 05       		.uleb128 0x5
 4851 00d2 3A       		.uleb128 0x3a
 4852 00d3 0B       		.uleb128 0xb
 4853 00d4 3B       		.uleb128 0x3b
 4854 00d5 0B       		.uleb128 0xb
 4855 00d6 01       		.uleb128 0x1
 4856 00d7 13       		.uleb128 0x13
 4857 00d8 00       		.byte	0
 4858 00d9 00       		.byte	0
 4859 00da 13       		.uleb128 0x13
 4860 00db 15       		.uleb128 0x15
 4861 00dc 00       		.byte	0
 4862 00dd 27       		.uleb128 0x27
 4863 00de 0C       		.uleb128 0xc
ARM GAS  C:\Users\EBANO_~1\AppData\Local\Temp\ccMXEZix.s 			page 103


 4864 00df 00       		.byte	0
 4865 00e0 00       		.byte	0
 4866 00e1 14       		.uleb128 0x14
 4867 00e2 15       		.uleb128 0x15
 4868 00e3 01       		.byte	0x1
 4869 00e4 27       		.uleb128 0x27
 4870 00e5 0C       		.uleb128 0xc
 4871 00e6 49       		.uleb128 0x49
 4872 00e7 13       		.uleb128 0x13
 4873 00e8 01       		.uleb128 0x1
 4874 00e9 13       		.uleb128 0x13
 4875 00ea 00       		.byte	0
 4876 00eb 00       		.byte	0
 4877 00ec 15       		.uleb128 0x15
 4878 00ed 05       		.uleb128 0x5
 4879 00ee 00       		.byte	0
 4880 00ef 49       		.uleb128 0x49
 4881 00f0 13       		.uleb128 0x13
 4882 00f1 00       		.byte	0
 4883 00f2 00       		.byte	0
 4884 00f3 16       		.uleb128 0x16
 4885 00f4 13       		.uleb128 0x13
 4886 00f5 01       		.byte	0x1
 4887 00f6 03       		.uleb128 0x3
 4888 00f7 0E       		.uleb128 0xe
 4889 00f8 0B       		.uleb128 0xb
 4890 00f9 05       		.uleb128 0x5
 4891 00fa 3A       		.uleb128 0x3a
 4892 00fb 0B       		.uleb128 0xb
 4893 00fc 3B       		.uleb128 0x3b
 4894 00fd 05       		.uleb128 0x5
 4895 00fe 01       		.uleb128 0x1
 4896 00ff 13       		.uleb128 0x13
 4897 0100 00       		.byte	0
 4898 0101 00       		.byte	0
 4899 0102 17       		.uleb128 0x17
 4900 0103 0D       		.uleb128 0xd
 4901 0104 00       		.byte	0
 4902 0105 03       		.uleb128 0x3
 4903 0106 0E       		.uleb128 0xe
 4904 0107 3A       		.uleb128 0x3a
 4905 0108 0B       		.uleb128 0xb
 4906 0109 3B       		.uleb128 0x3b
 4907 010a 05       		.uleb128 0x5
 4908 010b 49       		.uleb128 0x49
 4909 010c 13       		.uleb128 0x13
 4910 010d 38       		.uleb128 0x38
 4911 010e 0A       		.uleb128 0xa
 4912 010f 00       		.byte	0
 4913 0110 00       		.byte	0
 4914 0111 18       		.uleb128 0x18
 4915 0112 13       		.uleb128 0x13
 4916 0113 01       		.byte	0x1
 4917 0114 03       		.uleb128 0x3
 4918 0115 0E       		.uleb128 0xe
 4919 0116 0B       		.uleb128 0xb
 4920 0117 0B       		.uleb128 0xb
ARM GAS  C:\Users\EBANO_~1\AppData\Local\Temp\ccMXEZix.s 			page 104


 4921 0118 3A       		.uleb128 0x3a
 4922 0119 0B       		.uleb128 0xb
 4923 011a 3B       		.uleb128 0x3b
 4924 011b 05       		.uleb128 0x5
 4925 011c 01       		.uleb128 0x1
 4926 011d 13       		.uleb128 0x13
 4927 011e 00       		.byte	0
 4928 011f 00       		.byte	0
 4929 0120 19       		.uleb128 0x19
 4930 0121 13       		.uleb128 0x13
 4931 0122 01       		.byte	0x1
 4932 0123 0B       		.uleb128 0xb
 4933 0124 0B       		.uleb128 0xb
 4934 0125 3A       		.uleb128 0x3a
 4935 0126 0B       		.uleb128 0xb
 4936 0127 3B       		.uleb128 0x3b
 4937 0128 05       		.uleb128 0x5
 4938 0129 01       		.uleb128 0x1
 4939 012a 13       		.uleb128 0x13
 4940 012b 00       		.byte	0
 4941 012c 00       		.byte	0
 4942 012d 1A       		.uleb128 0x1a
 4943 012e 17       		.uleb128 0x17
 4944 012f 01       		.byte	0x1
 4945 0130 0B       		.uleb128 0xb
 4946 0131 0B       		.uleb128 0xb
 4947 0132 3A       		.uleb128 0x3a
 4948 0133 0B       		.uleb128 0xb
 4949 0134 3B       		.uleb128 0x3b
 4950 0135 05       		.uleb128 0x5
 4951 0136 01       		.uleb128 0x1
 4952 0137 13       		.uleb128 0x13
 4953 0138 00       		.byte	0
 4954 0139 00       		.byte	0
 4955 013a 1B       		.uleb128 0x1b
 4956 013b 0D       		.uleb128 0xd
 4957 013c 00       		.byte	0
 4958 013d 03       		.uleb128 0x3
 4959 013e 0E       		.uleb128 0xe
 4960 013f 3A       		.uleb128 0x3a
 4961 0140 0B       		.uleb128 0xb
 4962 0141 3B       		.uleb128 0x3b
 4963 0142 05       		.uleb128 0x5
 4964 0143 49       		.uleb128 0x49
 4965 0144 13       		.uleb128 0x13
 4966 0145 00       		.byte	0
 4967 0146 00       		.byte	0
 4968 0147 1C       		.uleb128 0x1c
 4969 0148 15       		.uleb128 0x15
 4970 0149 01       		.byte	0x1
 4971 014a 27       		.uleb128 0x27
 4972 014b 0C       		.uleb128 0xc
 4973 014c 01       		.uleb128 0x1
 4974 014d 13       		.uleb128 0x13
 4975 014e 00       		.byte	0
 4976 014f 00       		.byte	0
 4977 0150 1D       		.uleb128 0x1d
ARM GAS  C:\Users\EBANO_~1\AppData\Local\Temp\ccMXEZix.s 			page 105


 4978 0151 34       		.uleb128 0x34
 4979 0152 00       		.byte	0
 4980 0153 03       		.uleb128 0x3
 4981 0154 0E       		.uleb128 0xe
 4982 0155 3A       		.uleb128 0x3a
 4983 0156 0B       		.uleb128 0xb
 4984 0157 3B       		.uleb128 0x3b
 4985 0158 05       		.uleb128 0x5
 4986 0159 49       		.uleb128 0x49
 4987 015a 13       		.uleb128 0x13
 4988 015b 3F       		.uleb128 0x3f
 4989 015c 0C       		.uleb128 0xc
 4990 015d 3C       		.uleb128 0x3c
 4991 015e 0C       		.uleb128 0xc
 4992 015f 00       		.byte	0
 4993 0160 00       		.byte	0
 4994 0161 1E       		.uleb128 0x1e
 4995 0162 26       		.uleb128 0x26
 4996 0163 00       		.byte	0
 4997 0164 00       		.byte	0
 4998 0165 00       		.byte	0
 4999 0166 1F       		.uleb128 0x1f
 5000 0167 34       		.uleb128 0x34
 5001 0168 00       		.byte	0
 5002 0169 03       		.uleb128 0x3
 5003 016a 0E       		.uleb128 0xe
 5004 016b 3A       		.uleb128 0x3a
 5005 016c 0B       		.uleb128 0xb
 5006 016d 3B       		.uleb128 0x3b
 5007 016e 0B       		.uleb128 0xb
 5008 016f 49       		.uleb128 0x49
 5009 0170 13       		.uleb128 0x13
 5010 0171 3F       		.uleb128 0x3f
 5011 0172 0C       		.uleb128 0xc
 5012 0173 3C       		.uleb128 0x3c
 5013 0174 0C       		.uleb128 0xc
 5014 0175 00       		.byte	0
 5015 0176 00       		.byte	0
 5016 0177 20       		.uleb128 0x20
 5017 0178 34       		.uleb128 0x34
 5018 0179 00       		.byte	0
 5019 017a 03       		.uleb128 0x3
 5020 017b 0E       		.uleb128 0xe
 5021 017c 3A       		.uleb128 0x3a
 5022 017d 0B       		.uleb128 0xb
 5023 017e 3B       		.uleb128 0x3b
 5024 017f 0B       		.uleb128 0xb
 5025 0180 49       		.uleb128 0x49
 5026 0181 13       		.uleb128 0x13
 5027 0182 02       		.uleb128 0x2
 5028 0183 0A       		.uleb128 0xa
 5029 0184 00       		.byte	0
 5030 0185 00       		.byte	0
 5031 0186 21       		.uleb128 0x21
 5032 0187 2E       		.uleb128 0x2e
 5033 0188 01       		.byte	0x1
 5034 0189 3F       		.uleb128 0x3f
ARM GAS  C:\Users\EBANO_~1\AppData\Local\Temp\ccMXEZix.s 			page 106


 5035 018a 0C       		.uleb128 0xc
 5036 018b 03       		.uleb128 0x3
 5037 018c 0E       		.uleb128 0xe
 5038 018d 3A       		.uleb128 0x3a
 5039 018e 0B       		.uleb128 0xb
 5040 018f 3B       		.uleb128 0x3b
 5041 0190 05       		.uleb128 0x5
 5042 0191 27       		.uleb128 0x27
 5043 0192 0C       		.uleb128 0xc
 5044 0193 49       		.uleb128 0x49
 5045 0194 13       		.uleb128 0x13
 5046 0195 11       		.uleb128 0x11
 5047 0196 01       		.uleb128 0x1
 5048 0197 12       		.uleb128 0x12
 5049 0198 01       		.uleb128 0x1
 5050 0199 40       		.uleb128 0x40
 5051 019a 06       		.uleb128 0x6
 5052 019b 9742     		.uleb128 0x2117
 5053 019d 0C       		.uleb128 0xc
 5054 019e 01       		.uleb128 0x1
 5055 019f 13       		.uleb128 0x13
 5056 01a0 00       		.byte	0
 5057 01a1 00       		.byte	0
 5058 01a2 22       		.uleb128 0x22
 5059 01a3 05       		.uleb128 0x5
 5060 01a4 00       		.byte	0
 5061 01a5 03       		.uleb128 0x3
 5062 01a6 08       		.uleb128 0x8
 5063 01a7 3A       		.uleb128 0x3a
 5064 01a8 0B       		.uleb128 0xb
 5065 01a9 3B       		.uleb128 0x3b
 5066 01aa 05       		.uleb128 0x5
 5067 01ab 49       		.uleb128 0x49
 5068 01ac 13       		.uleb128 0x13
 5069 01ad 02       		.uleb128 0x2
 5070 01ae 06       		.uleb128 0x6
 5071 01af 00       		.byte	0
 5072 01b0 00       		.byte	0
 5073 01b1 23       		.uleb128 0x23
 5074 01b2 05       		.uleb128 0x5
 5075 01b3 00       		.byte	0
 5076 01b4 03       		.uleb128 0x3
 5077 01b5 0E       		.uleb128 0xe
 5078 01b6 3A       		.uleb128 0x3a
 5079 01b7 0B       		.uleb128 0xb
 5080 01b8 3B       		.uleb128 0x3b
 5081 01b9 05       		.uleb128 0x5
 5082 01ba 49       		.uleb128 0x49
 5083 01bb 13       		.uleb128 0x13
 5084 01bc 02       		.uleb128 0x2
 5085 01bd 06       		.uleb128 0x6
 5086 01be 00       		.byte	0
 5087 01bf 00       		.byte	0
 5088 01c0 24       		.uleb128 0x24
 5089 01c1 05       		.uleb128 0x5
 5090 01c2 00       		.byte	0
 5091 01c3 03       		.uleb128 0x3
ARM GAS  C:\Users\EBANO_~1\AppData\Local\Temp\ccMXEZix.s 			page 107


 5092 01c4 08       		.uleb128 0x8
 5093 01c5 3A       		.uleb128 0x3a
 5094 01c6 0B       		.uleb128 0xb
 5095 01c7 3B       		.uleb128 0x3b
 5096 01c8 05       		.uleb128 0x5
 5097 01c9 49       		.uleb128 0x49
 5098 01ca 13       		.uleb128 0x13
 5099 01cb 02       		.uleb128 0x2
 5100 01cc 0A       		.uleb128 0xa
 5101 01cd 00       		.byte	0
 5102 01ce 00       		.byte	0
 5103 01cf 25       		.uleb128 0x25
 5104 01d0 1D       		.uleb128 0x1d
 5105 01d1 01       		.byte	0x1
 5106 01d2 31       		.uleb128 0x31
 5107 01d3 13       		.uleb128 0x13
 5108 01d4 52       		.uleb128 0x52
 5109 01d5 01       		.uleb128 0x1
 5110 01d6 55       		.uleb128 0x55
 5111 01d7 06       		.uleb128 0x6
 5112 01d8 58       		.uleb128 0x58
 5113 01d9 0B       		.uleb128 0xb
 5114 01da 59       		.uleb128 0x59
 5115 01db 05       		.uleb128 0x5
 5116 01dc 01       		.uleb128 0x1
 5117 01dd 13       		.uleb128 0x13
 5118 01de 00       		.byte	0
 5119 01df 00       		.byte	0
 5120 01e0 26       		.uleb128 0x26
 5121 01e1 05       		.uleb128 0x5
 5122 01e2 00       		.byte	0
 5123 01e3 31       		.uleb128 0x31
 5124 01e4 13       		.uleb128 0x13
 5125 01e5 02       		.uleb128 0x2
 5126 01e6 06       		.uleb128 0x6
 5127 01e7 00       		.byte	0
 5128 01e8 00       		.byte	0
 5129 01e9 27       		.uleb128 0x27
 5130 01ea 898201   		.uleb128 0x4109
 5131 01ed 01       		.byte	0x1
 5132 01ee 11       		.uleb128 0x11
 5133 01ef 01       		.uleb128 0x1
 5134 01f0 31       		.uleb128 0x31
 5135 01f1 13       		.uleb128 0x13
 5136 01f2 00       		.byte	0
 5137 01f3 00       		.byte	0
 5138 01f4 28       		.uleb128 0x28
 5139 01f5 8A8201   		.uleb128 0x410a
 5140 01f8 00       		.byte	0
 5141 01f9 02       		.uleb128 0x2
 5142 01fa 0A       		.uleb128 0xa
 5143 01fb 9142     		.uleb128 0x2111
 5144 01fd 0A       		.uleb128 0xa
 5145 01fe 00       		.byte	0
 5146 01ff 00       		.byte	0
 5147 0200 29       		.uleb128 0x29
 5148 0201 1D       		.uleb128 0x1d
ARM GAS  C:\Users\EBANO_~1\AppData\Local\Temp\ccMXEZix.s 			page 108


 5149 0202 01       		.byte	0x1
 5150 0203 31       		.uleb128 0x31
 5151 0204 13       		.uleb128 0x13
 5152 0205 11       		.uleb128 0x11
 5153 0206 01       		.uleb128 0x1
 5154 0207 12       		.uleb128 0x12
 5155 0208 01       		.uleb128 0x1
 5156 0209 58       		.uleb128 0x58
 5157 020a 0B       		.uleb128 0xb
 5158 020b 59       		.uleb128 0x59
 5159 020c 05       		.uleb128 0x5
 5160 020d 00       		.byte	0
 5161 020e 00       		.byte	0
 5162 020f 2A       		.uleb128 0x2a
 5163 0210 2E       		.uleb128 0x2e
 5164 0211 01       		.byte	0x1
 5165 0212 3F       		.uleb128 0x3f
 5166 0213 0C       		.uleb128 0xc
 5167 0214 03       		.uleb128 0x3
 5168 0215 0E       		.uleb128 0xe
 5169 0216 3A       		.uleb128 0x3a
 5170 0217 0B       		.uleb128 0xb
 5171 0218 3B       		.uleb128 0x3b
 5172 0219 05       		.uleb128 0x5
 5173 021a 27       		.uleb128 0x27
 5174 021b 0C       		.uleb128 0xc
 5175 021c 49       		.uleb128 0x49
 5176 021d 13       		.uleb128 0x13
 5177 021e 20       		.uleb128 0x20
 5178 021f 0B       		.uleb128 0xb
 5179 0220 01       		.uleb128 0x1
 5180 0221 13       		.uleb128 0x13
 5181 0222 00       		.byte	0
 5182 0223 00       		.byte	0
 5183 0224 2B       		.uleb128 0x2b
 5184 0225 05       		.uleb128 0x5
 5185 0226 00       		.byte	0
 5186 0227 03       		.uleb128 0x3
 5187 0228 08       		.uleb128 0x8
 5188 0229 3A       		.uleb128 0x3a
 5189 022a 0B       		.uleb128 0xb
 5190 022b 3B       		.uleb128 0x3b
 5191 022c 05       		.uleb128 0x5
 5192 022d 49       		.uleb128 0x49
 5193 022e 13       		.uleb128 0x13
 5194 022f 00       		.byte	0
 5195 0230 00       		.byte	0
 5196 0231 2C       		.uleb128 0x2c
 5197 0232 0B       		.uleb128 0xb
 5198 0233 01       		.byte	0x1
 5199 0234 00       		.byte	0
 5200 0235 00       		.byte	0
 5201 0236 2D       		.uleb128 0x2d
 5202 0237 34       		.uleb128 0x34
 5203 0238 00       		.byte	0
 5204 0239 03       		.uleb128 0x3
 5205 023a 08       		.uleb128 0x8
ARM GAS  C:\Users\EBANO_~1\AppData\Local\Temp\ccMXEZix.s 			page 109


 5206 023b 3A       		.uleb128 0x3a
 5207 023c 0B       		.uleb128 0xb
 5208 023d 3B       		.uleb128 0x3b
 5209 023e 05       		.uleb128 0x5
 5210 023f 49       		.uleb128 0x49
 5211 0240 13       		.uleb128 0x13
 5212 0241 00       		.byte	0
 5213 0242 00       		.byte	0
 5214 0243 2E       		.uleb128 0x2e
 5215 0244 2E       		.uleb128 0x2e
 5216 0245 01       		.byte	0x1
 5217 0246 3F       		.uleb128 0x3f
 5218 0247 0C       		.uleb128 0xc
 5219 0248 03       		.uleb128 0x3
 5220 0249 0E       		.uleb128 0xe
 5221 024a 3A       		.uleb128 0x3a
 5222 024b 0B       		.uleb128 0xb
 5223 024c 3B       		.uleb128 0x3b
 5224 024d 05       		.uleb128 0x5
 5225 024e 27       		.uleb128 0x27
 5226 024f 0C       		.uleb128 0xc
 5227 0250 49       		.uleb128 0x49
 5228 0251 13       		.uleb128 0x13
 5229 0252 11       		.uleb128 0x11
 5230 0253 01       		.uleb128 0x1
 5231 0254 12       		.uleb128 0x12
 5232 0255 01       		.uleb128 0x1
 5233 0256 40       		.uleb128 0x40
 5234 0257 06       		.uleb128 0x6
 5235 0258 9642     		.uleb128 0x2116
 5236 025a 0C       		.uleb128 0xc
 5237 025b 01       		.uleb128 0x1
 5238 025c 13       		.uleb128 0x13
 5239 025d 00       		.byte	0
 5240 025e 00       		.byte	0
 5241 025f 2F       		.uleb128 0x2f
 5242 0260 34       		.uleb128 0x34
 5243 0261 00       		.byte	0
 5244 0262 03       		.uleb128 0x3
 5245 0263 08       		.uleb128 0x8
 5246 0264 3A       		.uleb128 0x3a
 5247 0265 0B       		.uleb128 0xb
 5248 0266 3B       		.uleb128 0x3b
 5249 0267 05       		.uleb128 0x5
 5250 0268 49       		.uleb128 0x49
 5251 0269 13       		.uleb128 0x13
 5252 026a 02       		.uleb128 0x2
 5253 026b 06       		.uleb128 0x6
 5254 026c 00       		.byte	0
 5255 026d 00       		.byte	0
 5256 026e 30       		.uleb128 0x30
 5257 026f 0B       		.uleb128 0xb
 5258 0270 01       		.byte	0x1
 5259 0271 55       		.uleb128 0x55
 5260 0272 06       		.uleb128 0x6
 5261 0273 01       		.uleb128 0x1
 5262 0274 13       		.uleb128 0x13
ARM GAS  C:\Users\EBANO_~1\AppData\Local\Temp\ccMXEZix.s 			page 110


 5263 0275 00       		.byte	0
 5264 0276 00       		.byte	0
 5265 0277 31       		.uleb128 0x31
 5266 0278 1D       		.uleb128 0x1d
 5267 0279 01       		.byte	0x1
 5268 027a 31       		.uleb128 0x31
 5269 027b 13       		.uleb128 0x13
 5270 027c 52       		.uleb128 0x52
 5271 027d 01       		.uleb128 0x1
 5272 027e 55       		.uleb128 0x55
 5273 027f 06       		.uleb128 0x6
 5274 0280 58       		.uleb128 0x58
 5275 0281 0B       		.uleb128 0xb
 5276 0282 59       		.uleb128 0x59
 5277 0283 05       		.uleb128 0x5
 5278 0284 00       		.byte	0
 5279 0285 00       		.byte	0
 5280 0286 32       		.uleb128 0x32
 5281 0287 2E       		.uleb128 0x2e
 5282 0288 01       		.byte	0x1
 5283 0289 03       		.uleb128 0x3
 5284 028a 0E       		.uleb128 0xe
 5285 028b 3A       		.uleb128 0x3a
 5286 028c 0B       		.uleb128 0xb
 5287 028d 3B       		.uleb128 0x3b
 5288 028e 05       		.uleb128 0x5
 5289 028f 27       		.uleb128 0x27
 5290 0290 0C       		.uleb128 0xc
 5291 0291 20       		.uleb128 0x20
 5292 0292 0B       		.uleb128 0xb
 5293 0293 01       		.uleb128 0x1
 5294 0294 13       		.uleb128 0x13
 5295 0295 00       		.byte	0
 5296 0296 00       		.byte	0
 5297 0297 33       		.uleb128 0x33
 5298 0298 2E       		.uleb128 0x2e
 5299 0299 01       		.byte	0x1
 5300 029a 31       		.uleb128 0x31
 5301 029b 13       		.uleb128 0x13
 5302 029c 11       		.uleb128 0x11
 5303 029d 01       		.uleb128 0x1
 5304 029e 12       		.uleb128 0x12
 5305 029f 01       		.uleb128 0x1
 5306 02a0 40       		.uleb128 0x40
 5307 02a1 06       		.uleb128 0x6
 5308 02a2 9742     		.uleb128 0x2117
 5309 02a4 0C       		.uleb128 0xc
 5310 02a5 01       		.uleb128 0x1
 5311 02a6 13       		.uleb128 0x13
 5312 02a7 00       		.byte	0
 5313 02a8 00       		.byte	0
 5314 02a9 34       		.uleb128 0x34
 5315 02aa 0B       		.uleb128 0xb
 5316 02ab 01       		.byte	0x1
 5317 02ac 31       		.uleb128 0x31
 5318 02ad 13       		.uleb128 0x13
 5319 02ae 55       		.uleb128 0x55
ARM GAS  C:\Users\EBANO_~1\AppData\Local\Temp\ccMXEZix.s 			page 111


 5320 02af 06       		.uleb128 0x6
 5321 02b0 00       		.byte	0
 5322 02b1 00       		.byte	0
 5323 02b2 35       		.uleb128 0x35
 5324 02b3 34       		.uleb128 0x34
 5325 02b4 00       		.byte	0
 5326 02b5 31       		.uleb128 0x31
 5327 02b6 13       		.uleb128 0x13
 5328 02b7 02       		.uleb128 0x2
 5329 02b8 06       		.uleb128 0x6
 5330 02b9 00       		.byte	0
 5331 02ba 00       		.byte	0
 5332 02bb 36       		.uleb128 0x36
 5333 02bc 05       		.uleb128 0x5
 5334 02bd 00       		.byte	0
 5335 02be 31       		.uleb128 0x31
 5336 02bf 13       		.uleb128 0x13
 5337 02c0 02       		.uleb128 0x2
 5338 02c1 0A       		.uleb128 0xa
 5339 02c2 00       		.byte	0
 5340 02c3 00       		.byte	0
 5341 02c4 37       		.uleb128 0x37
 5342 02c5 0B       		.uleb128 0xb
 5343 02c6 01       		.byte	0x1
 5344 02c7 55       		.uleb128 0x55
 5345 02c8 06       		.uleb128 0x6
 5346 02c9 00       		.byte	0
 5347 02ca 00       		.byte	0
 5348 02cb 38       		.uleb128 0x38
 5349 02cc 34       		.uleb128 0x34
 5350 02cd 00       		.byte	0
 5351 02ce 31       		.uleb128 0x31
 5352 02cf 13       		.uleb128 0x13
 5353 02d0 00       		.byte	0
 5354 02d1 00       		.byte	0
 5355 02d2 39       		.uleb128 0x39
 5356 02d3 1D       		.uleb128 0x1d
 5357 02d4 01       		.byte	0x1
 5358 02d5 31       		.uleb128 0x31
 5359 02d6 13       		.uleb128 0x13
 5360 02d7 11       		.uleb128 0x11
 5361 02d8 01       		.uleb128 0x1
 5362 02d9 12       		.uleb128 0x12
 5363 02da 01       		.uleb128 0x1
 5364 02db 58       		.uleb128 0x58
 5365 02dc 0B       		.uleb128 0xb
 5366 02dd 59       		.uleb128 0x59
 5367 02de 05       		.uleb128 0x5
 5368 02df 01       		.uleb128 0x1
 5369 02e0 13       		.uleb128 0x13
 5370 02e1 00       		.byte	0
 5371 02e2 00       		.byte	0
 5372 02e3 3A       		.uleb128 0x3a
 5373 02e4 0B       		.uleb128 0xb
 5374 02e5 01       		.byte	0x1
 5375 02e6 11       		.uleb128 0x11
 5376 02e7 01       		.uleb128 0x1
ARM GAS  C:\Users\EBANO_~1\AppData\Local\Temp\ccMXEZix.s 			page 112


 5377 02e8 12       		.uleb128 0x12
 5378 02e9 01       		.uleb128 0x1
 5379 02ea 00       		.byte	0
 5380 02eb 00       		.byte	0
 5381 02ec 3B       		.uleb128 0x3b
 5382 02ed 2E       		.uleb128 0x2e
 5383 02ee 01       		.byte	0x1
 5384 02ef 31       		.uleb128 0x31
 5385 02f0 13       		.uleb128 0x13
 5386 02f1 11       		.uleb128 0x11
 5387 02f2 01       		.uleb128 0x1
 5388 02f3 12       		.uleb128 0x12
 5389 02f4 01       		.uleb128 0x1
 5390 02f5 40       		.uleb128 0x40
 5391 02f6 06       		.uleb128 0x6
 5392 02f7 9742     		.uleb128 0x2117
 5393 02f9 0C       		.uleb128 0xc
 5394 02fa 00       		.byte	0
 5395 02fb 00       		.byte	0
 5396 02fc 00       		.byte	0
 5397              		.section	.debug_loc,"",%progbits
 5398              	.Ldebug_loc0:
 5399              	.LLST37:
 5400 0000 00000000 		.4byte	.LFB9
 5401 0004 02000000 		.4byte	.LCFI7
 5402 0008 0200     		.2byte	0x2
 5403 000a 7D       		.byte	0x7d
 5404 000b 00       		.sleb128 0
 5405 000c 02000000 		.4byte	.LCFI7
 5406 0010 08000000 		.4byte	.LCFI8
 5407 0014 0200     		.2byte	0x2
 5408 0016 7D       		.byte	0x7d
 5409 0017 18       		.sleb128 24
 5410 0018 08000000 		.4byte	.LCFI8
 5411 001c 10010000 		.4byte	.LFE9
 5412 0020 0200     		.2byte	0x2
 5413 0022 7D       		.byte	0x7d
 5414 0023 20       		.sleb128 32
 5415 0024 00000000 		.4byte	0
 5416 0028 00000000 		.4byte	0
 5417              	.LLST38:
 5418 002c 00000000 		.4byte	.LVL119
 5419 0030 20000000 		.4byte	.LVL122
 5420 0034 0100     		.2byte	0x1
 5421 0036 50       		.byte	0x50
 5422 0037 20000000 		.4byte	.LVL122
 5423 003b 38000000 		.4byte	.LVL125
 5424 003f 0100     		.2byte	0x1
 5425 0041 55       		.byte	0x55
 5426 0042 38000000 		.4byte	.LVL125
 5427 0046 72000000 		.4byte	.LVL126
 5428 004a 0300     		.2byte	0x3
 5429 004c 75       		.byte	0x75
 5430 004d 70       		.sleb128 -16
 5431 004e 9F       		.byte	0x9f
 5432 004f 72000000 		.4byte	.LVL126
 5433 0053 04010000 		.4byte	.LVL132
ARM GAS  C:\Users\EBANO_~1\AppData\Local\Temp\ccMXEZix.s 			page 113


 5434 0057 0100     		.2byte	0x1
 5435 0059 55       		.byte	0x55
 5436 005a 0C010000 		.4byte	.LVL134
 5437 005e 10010000 		.4byte	.LFE9
 5438 0062 0100     		.2byte	0x1
 5439 0064 55       		.byte	0x55
 5440 0065 00000000 		.4byte	0
 5441 0069 00000000 		.4byte	0
 5442              	.LLST39:
 5443 006d 00000000 		.4byte	.LVL119
 5444 0071 20000000 		.4byte	.LVL122
 5445 0075 0100     		.2byte	0x1
 5446 0077 51       		.byte	0x51
 5447 0078 20000000 		.4byte	.LVL122
 5448 007c 04010000 		.4byte	.LVL133
 5449 0080 0100     		.2byte	0x1
 5450 0082 56       		.byte	0x56
 5451 0083 0C010000 		.4byte	.LVL134
 5452 0087 10010000 		.4byte	.LFE9
 5453 008b 0100     		.2byte	0x1
 5454 008d 56       		.byte	0x56
 5455 008e 00000000 		.4byte	0
 5456 0092 00000000 		.4byte	0
 5457              	.LLST40:
 5458 0096 00000000 		.4byte	.LVL119
 5459 009a 10000000 		.4byte	.LVL121
 5460 009e 0100     		.2byte	0x1
 5461 00a0 52       		.byte	0x52
 5462 00a1 10000000 		.4byte	.LVL121
 5463 00a5 20000000 		.4byte	.LVL122
 5464 00a9 0300     		.2byte	0x3
 5465 00ab 72       		.byte	0x72
 5466 00ac 7F       		.sleb128 -1
 5467 00ad 9F       		.byte	0x9f
 5468 00ae 00000000 		.4byte	0
 5469 00b2 00000000 		.4byte	0
 5470              	.LLST41:
 5471 00b6 00000000 		.4byte	.LVL119
 5472 00ba 0C000000 		.4byte	.LVL120
 5473 00be 0100     		.2byte	0x1
 5474 00c0 53       		.byte	0x53
 5475 00c1 0C000000 		.4byte	.LVL120
 5476 00c5 04010000 		.4byte	.LVL131
 5477 00c9 0100     		.2byte	0x1
 5478 00cb 54       		.byte	0x54
 5479 00cc 04010000 		.4byte	.LVL131
 5480 00d0 0C010000 		.4byte	.LVL134
 5481 00d4 0400     		.2byte	0x4
 5482 00d6 F3       		.byte	0xf3
 5483 00d7 01       		.uleb128 0x1
 5484 00d8 53       		.byte	0x53
 5485 00d9 9F       		.byte	0x9f
 5486 00da 0C010000 		.4byte	.LVL134
 5487 00de 10010000 		.4byte	.LFE9
 5488 00e2 0100     		.2byte	0x1
 5489 00e4 54       		.byte	0x54
 5490 00e5 00000000 		.4byte	0
ARM GAS  C:\Users\EBANO_~1\AppData\Local\Temp\ccMXEZix.s 			page 114


 5491 00e9 00000000 		.4byte	0
 5492              	.LLST42:
 5493 00ed 20000000 		.4byte	.LVL122
 5494 00f1 2A000000 		.4byte	.LVL123
 5495 00f5 0100     		.2byte	0x1
 5496 00f7 58       		.byte	0x58
 5497 00f8 F8000000 		.4byte	.LVL129
 5498 00fc 02010000 		.4byte	.LVL130
 5499 0100 0100     		.2byte	0x1
 5500 0102 58       		.byte	0x58
 5501 0103 00000000 		.4byte	0
 5502 0107 00000000 		.4byte	0
 5503              	.LLST43:
 5504 010b 20000000 		.4byte	.LVL122
 5505 010f 2A000000 		.4byte	.LVL123
 5506 0113 0100     		.2byte	0x1
 5507 0115 54       		.byte	0x54
 5508 0116 F8000000 		.4byte	.LVL129
 5509 011a 02010000 		.4byte	.LVL130
 5510 011e 0100     		.2byte	0x1
 5511 0120 54       		.byte	0x54
 5512 0121 00000000 		.4byte	0
 5513 0125 00000000 		.4byte	0
 5514              	.LLST45:
 5515 0129 2E000000 		.4byte	.LVL124
 5516 012d 72000000 		.4byte	.LVL126
 5517 0131 0100     		.2byte	0x1
 5518 0133 54       		.byte	0x54
 5519 0134 00000000 		.4byte	0
 5520 0138 00000000 		.4byte	0
 5521              	.LLST46:
 5522 013c 2E000000 		.4byte	.LVL124
 5523 0140 72000000 		.4byte	.LVL126
 5524 0144 0100     		.2byte	0x1
 5525 0146 56       		.byte	0x56
 5526 0147 00000000 		.4byte	0
 5527 014b 00000000 		.4byte	0
 5528              	.LLST47:
 5529 014f 78000000 		.4byte	.LVL128
 5530 0153 F8000000 		.4byte	.LVL129
 5531 0157 0100     		.2byte	0x1
 5532 0159 55       		.byte	0x55
 5533 015a 00000000 		.4byte	0
 5534 015e 00000000 		.4byte	0
 5535              	.LLST48:
 5536 0162 78000000 		.4byte	.LVL128
 5537 0166 F8000000 		.4byte	.LVL129
 5538 016a 0100     		.2byte	0x1
 5539 016c 54       		.byte	0x54
 5540 016d 00000000 		.4byte	0
 5541 0171 00000000 		.4byte	0
 5542              	.LLST18:
 5543 0175 00000000 		.4byte	.LFB7
 5544 0179 02000000 		.4byte	.LCFI3
 5545 017d 0200     		.2byte	0x2
 5546 017f 7D       		.byte	0x7d
 5547 0180 00       		.sleb128 0
ARM GAS  C:\Users\EBANO_~1\AppData\Local\Temp\ccMXEZix.s 			page 115


 5548 0181 02000000 		.4byte	.LCFI3
 5549 0185 0E000000 		.4byte	.LCFI4
 5550 0189 0200     		.2byte	0x2
 5551 018b 7D       		.byte	0x7d
 5552 018c 14       		.sleb128 20
 5553 018d 0E000000 		.4byte	.LCFI4
 5554 0191 14000000 		.4byte	.LCFI5
 5555 0195 0200     		.2byte	0x2
 5556 0197 7D       		.byte	0x7d
 5557 0198 24       		.sleb128 36
 5558 0199 14000000 		.4byte	.LCFI5
 5559 019d 34020000 		.4byte	.LFE7
 5560 01a1 0200     		.2byte	0x2
 5561 01a3 7D       		.byte	0x7d
 5562 01a4 30       		.sleb128 48
 5563 01a5 00000000 		.4byte	0
 5564 01a9 00000000 		.4byte	0
 5565              	.LLST19:
 5566 01ad 00000000 		.4byte	.LVL54
 5567 01b1 8E000000 		.4byte	.LVL60
 5568 01b5 0100     		.2byte	0x1
 5569 01b7 50       		.byte	0x50
 5570 01b8 8E000000 		.4byte	.LVL60
 5571 01bc 3C010000 		.4byte	.LVL84
 5572 01c0 0400     		.2byte	0x4
 5573 01c2 F3       		.byte	0xf3
 5574 01c3 01       		.uleb128 0x1
 5575 01c4 50       		.byte	0x50
 5576 01c5 9F       		.byte	0x9f
 5577 01c6 3C010000 		.4byte	.LVL84
 5578 01ca 42010000 		.4byte	.LVL85
 5579 01ce 0100     		.2byte	0x1
 5580 01d0 50       		.byte	0x50
 5581 01d1 42010000 		.4byte	.LVL85
 5582 01d5 1A020000 		.4byte	.LVL113
 5583 01d9 0400     		.2byte	0x4
 5584 01db F3       		.byte	0xf3
 5585 01dc 01       		.uleb128 0x1
 5586 01dd 50       		.byte	0x50
 5587 01de 9F       		.byte	0x9f
 5588 01df 1A020000 		.4byte	.LVL113
 5589 01e3 34020000 		.4byte	.LFE7
 5590 01e7 0100     		.2byte	0x1
 5591 01e9 50       		.byte	0x50
 5592 01ea 00000000 		.4byte	0
 5593 01ee 00000000 		.4byte	0
 5594              	.LLST20:
 5595 01f2 00000000 		.4byte	.LVL54
 5596 01f6 34000000 		.4byte	.LVL57
 5597 01fa 0100     		.2byte	0x1
 5598 01fc 51       		.byte	0x51
 5599 01fd 34000000 		.4byte	.LVL57
 5600 0201 3C010000 		.4byte	.LVL84
 5601 0205 0400     		.2byte	0x4
 5602 0207 F3       		.byte	0xf3
 5603 0208 01       		.uleb128 0x1
 5604 0209 51       		.byte	0x51
ARM GAS  C:\Users\EBANO_~1\AppData\Local\Temp\ccMXEZix.s 			page 116


 5605 020a 9F       		.byte	0x9f
 5606 020b 3C010000 		.4byte	.LVL84
 5607 020f 44010000 		.4byte	.LVL86
 5608 0213 0100     		.2byte	0x1
 5609 0215 51       		.byte	0x51
 5610 0216 44010000 		.4byte	.LVL86
 5611 021a 34020000 		.4byte	.LFE7
 5612 021e 0400     		.2byte	0x4
 5613 0220 F3       		.byte	0xf3
 5614 0221 01       		.uleb128 0x1
 5615 0222 51       		.byte	0x51
 5616 0223 9F       		.byte	0x9f
 5617 0224 00000000 		.4byte	0
 5618 0228 00000000 		.4byte	0
 5619              	.LLST21:
 5620 022c 00000000 		.4byte	.LVL54
 5621 0230 20000000 		.4byte	.LVL55
 5622 0234 0100     		.2byte	0x1
 5623 0236 52       		.byte	0x52
 5624 0237 20000000 		.4byte	.LVL55
 5625 023b CC000000 		.4byte	.LVL70
 5626 023f 0100     		.2byte	0x1
 5627 0241 54       		.byte	0x54
 5628 0242 CC000000 		.4byte	.LVL70
 5629 0246 3C010000 		.4byte	.LVL84
 5630 024a 0100     		.2byte	0x1
 5631 024c 59       		.byte	0x59
 5632 024d 3C010000 		.4byte	.LVL84
 5633 0251 44010000 		.4byte	.LVL86
 5634 0255 0100     		.2byte	0x1
 5635 0257 54       		.byte	0x54
 5636 0258 44010000 		.4byte	.LVL86
 5637 025c 52010000 		.4byte	.LVL87
 5638 0260 0400     		.2byte	0x4
 5639 0262 F3       		.byte	0xf3
 5640 0263 01       		.uleb128 0x1
 5641 0264 52       		.byte	0x52
 5642 0265 9F       		.byte	0x9f
 5643 0266 52010000 		.4byte	.LVL87
 5644 026a 82010000 		.4byte	.LVL93
 5645 026e 0100     		.2byte	0x1
 5646 0270 59       		.byte	0x59
 5647 0271 82010000 		.4byte	.LVL93
 5648 0275 8C010000 		.4byte	.LVL95
 5649 0279 0100     		.2byte	0x1
 5650 027b 54       		.byte	0x54
 5651 027c 8C010000 		.4byte	.LVL95
 5652 0280 1A020000 		.4byte	.LVL113
 5653 0284 0100     		.2byte	0x1
 5654 0286 5A       		.byte	0x5a
 5655 0287 1A020000 		.4byte	.LVL113
 5656 028b 34020000 		.4byte	.LFE7
 5657 028f 0100     		.2byte	0x1
 5658 0291 54       		.byte	0x54
 5659 0292 00000000 		.4byte	0
 5660 0296 00000000 		.4byte	0
 5661              	.LLST22:
ARM GAS  C:\Users\EBANO_~1\AppData\Local\Temp\ccMXEZix.s 			page 117


 5662 029a BE000000 		.4byte	.LVL69
 5663 029e CC000000 		.4byte	.LVL70
 5664 02a2 0100     		.2byte	0x1
 5665 02a4 5A       		.byte	0x5a
 5666 02a5 CC000000 		.4byte	.LVL70
 5667 02a9 20010000 		.4byte	.LVL80
 5668 02ad 0100     		.2byte	0x1
 5669 02af 55       		.byte	0x55
 5670 02b0 28010000 		.4byte	.LVL81
 5671 02b4 3C010000 		.4byte	.LVL84
 5672 02b8 0100     		.2byte	0x1
 5673 02ba 55       		.byte	0x55
 5674 02bb 52010000 		.4byte	.LVL87
 5675 02bf 82010000 		.4byte	.LVL93
 5676 02c3 0100     		.2byte	0x1
 5677 02c5 55       		.byte	0x55
 5678 02c6 82010000 		.4byte	.LVL93
 5679 02ca 8A010000 		.4byte	.LVL94
 5680 02ce 0100     		.2byte	0x1
 5681 02d0 5A       		.byte	0x5a
 5682 02d1 8A010000 		.4byte	.LVL94
 5683 02d5 8C010000 		.4byte	.LVL95
 5684 02d9 0100     		.2byte	0x1
 5685 02db 53       		.byte	0x53
 5686 02dc 8C010000 		.4byte	.LVL95
 5687 02e0 FE010000 		.4byte	.LVL109
 5688 02e4 0100     		.2byte	0x1
 5689 02e6 56       		.byte	0x56
 5690 02e7 06020000 		.4byte	.LVL110
 5691 02eb 1A020000 		.4byte	.LVL113
 5692 02ef 0100     		.2byte	0x1
 5693 02f1 56       		.byte	0x56
 5694 02f2 00000000 		.4byte	0
 5695 02f6 00000000 		.4byte	0
 5696              	.LLST23:
 5697 02fa BE000000 		.4byte	.LVL69
 5698 02fe CC000000 		.4byte	.LVL70
 5699 0302 0200     		.2byte	0x2
 5700 0304 31       		.byte	0x31
 5701 0305 9F       		.byte	0x9f
 5702 0306 CC000000 		.4byte	.LVL70
 5703 030a 3C010000 		.4byte	.LVL84
 5704 030e 0100     		.2byte	0x1
 5705 0310 5B       		.byte	0x5b
 5706 0311 52010000 		.4byte	.LVL87
 5707 0315 82010000 		.4byte	.LVL93
 5708 0319 0100     		.2byte	0x1
 5709 031b 5B       		.byte	0x5b
 5710 031c 82010000 		.4byte	.LVL93
 5711 0320 8C010000 		.4byte	.LVL95
 5712 0324 0200     		.2byte	0x2
 5713 0326 31       		.byte	0x31
 5714 0327 9F       		.byte	0x9f
 5715 0328 8C010000 		.4byte	.LVL95
 5716 032c 1A020000 		.4byte	.LVL113
 5717 0330 0100     		.2byte	0x1
 5718 0332 5B       		.byte	0x5b
ARM GAS  C:\Users\EBANO_~1\AppData\Local\Temp\ccMXEZix.s 			page 118


 5719 0333 00000000 		.4byte	0
 5720 0337 00000000 		.4byte	0
 5721              	.LLST24:
 5722 033b B8000000 		.4byte	.LVL67
 5723 033f BA000000 		.4byte	.LVL68
 5724 0343 0100     		.2byte	0x1
 5725 0345 53       		.byte	0x53
 5726 0346 BA000000 		.4byte	.LVL68
 5727 034a 3C010000 		.4byte	.LVL84
 5728 034e 0200     		.2byte	0x2
 5729 0350 7D       		.byte	0x7d
 5730 0351 00       		.sleb128 0
 5731 0352 52010000 		.4byte	.LVL87
 5732 0356 1A020000 		.4byte	.LVL113
 5733 035a 0200     		.2byte	0x2
 5734 035c 7D       		.byte	0x7d
 5735 035d 00       		.sleb128 0
 5736 035e 00000000 		.4byte	0
 5737 0362 00000000 		.4byte	0
 5738              	.LLST28:
 5739 0366 08010000 		.4byte	.LVL78
 5740 036a 20010000 		.4byte	.LVL80
 5741 036e 0600     		.2byte	0x6
 5742 0370 75       		.byte	0x75
 5743 0371 00       		.sleb128 0
 5744 0372 7A       		.byte	0x7a
 5745 0373 00       		.sleb128 0
 5746 0374 1C       		.byte	0x1c
 5747 0375 9F       		.byte	0x9f
 5748 0376 52010000 		.4byte	.LVL87
 5749 037a 82010000 		.4byte	.LVL93
 5750 037e 0200     		.2byte	0x2
 5751 0380 91       		.byte	0x91
 5752 0381 54       		.sleb128 -44
 5753 0382 B2010000 		.4byte	.LVL101
 5754 0386 C2010000 		.4byte	.LVL103
 5755 038a 0100     		.2byte	0x1
 5756 038c 59       		.byte	0x59
 5757 038d C2010000 		.4byte	.LVL103
 5758 0391 D2010000 		.4byte	.LVL107
 5759 0395 0100     		.2byte	0x1
 5760 0397 51       		.byte	0x51
 5761 0398 E2010000 		.4byte	.LVL108
 5762 039c FE010000 		.4byte	.LVL109
 5763 03a0 0800     		.2byte	0x8
 5764 03a2 76       		.byte	0x76
 5765 03a3 00       		.sleb128 0
 5766 03a4 91       		.byte	0x91
 5767 03a5 54       		.sleb128 -44
 5768 03a6 94       		.byte	0x94
 5769 03a7 01       		.byte	0x1
 5770 03a8 1C       		.byte	0x1c
 5771 03a9 9F       		.byte	0x9f
 5772 03aa 00000000 		.4byte	0
 5773 03ae 00000000 		.4byte	0
 5774              	.LLST29:
 5775 03b2 CC000000 		.4byte	.LVL70
ARM GAS  C:\Users\EBANO_~1\AppData\Local\Temp\ccMXEZix.s 			page 119


 5776 03b6 D8000000 		.4byte	.LVL71
 5777 03ba 0200     		.2byte	0x2
 5778 03bc 91       		.byte	0x91
 5779 03bd 54       		.sleb128 -44
 5780 03be FE000000 		.4byte	.LVL75
 5781 03c2 16010000 		.4byte	.LVL79
 5782 03c6 0100     		.2byte	0x1
 5783 03c8 52       		.byte	0x52
 5784 03c9 52010000 		.4byte	.LVL87
 5785 03cd 5E010000 		.4byte	.LVL88
 5786 03d1 0200     		.2byte	0x2
 5787 03d3 91       		.byte	0x91
 5788 03d4 54       		.sleb128 -44
 5789 03d5 5E010000 		.4byte	.LVL88
 5790 03d9 82010000 		.4byte	.LVL93
 5791 03dd 0100     		.2byte	0x1
 5792 03df 52       		.byte	0x52
 5793 03e0 98010000 		.4byte	.LVL96
 5794 03e4 BE010000 		.4byte	.LVL102
 5795 03e8 0100     		.2byte	0x1
 5796 03ea 59       		.byte	0x59
 5797 03eb BE010000 		.4byte	.LVL102
 5798 03ef E2010000 		.4byte	.LVL108
 5799 03f3 0100     		.2byte	0x1
 5800 03f5 52       		.byte	0x52
 5801 03f6 E2010000 		.4byte	.LVL108
 5802 03fa 1A020000 		.4byte	.LVL113
 5803 03fe 0100     		.2byte	0x1
 5804 0400 59       		.byte	0x59
 5805 0401 00000000 		.4byte	0
 5806 0405 00000000 		.4byte	0
 5807              	.LLST30:
 5808 0409 E6000000 		.4byte	.LVL72
 5809 040d 3C010000 		.4byte	.LVL84
 5810 0411 0100     		.2byte	0x1
 5811 0413 58       		.byte	0x58
 5812 0414 52010000 		.4byte	.LVL87
 5813 0418 82010000 		.4byte	.LVL93
 5814 041c 0100     		.2byte	0x1
 5815 041e 58       		.byte	0x58
 5816 041f A0010000 		.4byte	.LVL97
 5817 0423 1A020000 		.4byte	.LVL113
 5818 0427 0100     		.2byte	0x1
 5819 0429 58       		.byte	0x58
 5820 042a 00000000 		.4byte	0
 5821 042e 00000000 		.4byte	0
 5822              	.LLST31:
 5823 0432 E6000000 		.4byte	.LVL72
 5824 0436 2A010000 		.4byte	.LVL82
 5825 043a 0100     		.2byte	0x1
 5826 043c 54       		.byte	0x54
 5827 043d 52010000 		.4byte	.LVL87
 5828 0441 82010000 		.4byte	.LVL93
 5829 0445 0100     		.2byte	0x1
 5830 0447 54       		.byte	0x54
 5831 0448 A4010000 		.4byte	.LVL98
 5832 044c 08020000 		.4byte	.LVL111
ARM GAS  C:\Users\EBANO_~1\AppData\Local\Temp\ccMXEZix.s 			page 120


 5833 0450 0100     		.2byte	0x1
 5834 0452 55       		.byte	0x55
 5835 0453 00000000 		.4byte	0
 5836 0457 00000000 		.4byte	0
 5837              	.LLST32:
 5838 045b E8000000 		.4byte	.LVL73
 5839 045f 30010000 		.4byte	.LVL83
 5840 0463 0100     		.2byte	0x1
 5841 0465 57       		.byte	0x57
 5842 0466 52010000 		.4byte	.LVL87
 5843 046a 82010000 		.4byte	.LVL93
 5844 046e 0100     		.2byte	0x1
 5845 0470 57       		.byte	0x57
 5846 0471 A8010000 		.4byte	.LVL99
 5847 0475 0E020000 		.4byte	.LVL112
 5848 0479 0100     		.2byte	0x1
 5849 047b 54       		.byte	0x54
 5850 047c 00000000 		.4byte	0
 5851 0480 00000000 		.4byte	0
 5852              	.LLST25:
 5853 0484 2C000000 		.4byte	.LVL56
 5854 0488 34000000 		.4byte	.LVL57
 5855 048c 0100     		.2byte	0x1
 5856 048e 51       		.byte	0x51
 5857 048f 34000000 		.4byte	.LVL57
 5858 0493 40000000 		.4byte	.LVL58
 5859 0497 0400     		.2byte	0x4
 5860 0499 F3       		.byte	0xf3
 5861 049a 01       		.uleb128 0x1
 5862 049b 51       		.byte	0x51
 5863 049c 9F       		.byte	0x9f
 5864 049d 40000000 		.4byte	.LVL58
 5865 04a1 56000000 		.4byte	.LVL59
 5866 04a5 0100     		.2byte	0x1
 5867 04a7 55       		.byte	0x55
 5868 04a8 98000000 		.4byte	.LVL61
 5869 04ac 9C000000 		.4byte	.LVL62
 5870 04b0 0100     		.2byte	0x1
 5871 04b2 52       		.byte	0x52
 5872 04b3 9C000000 		.4byte	.LVL62
 5873 04b7 A4000000 		.4byte	.LVL64
 5874 04bb 0300     		.2byte	0x3
 5875 04bd 72       		.byte	0x72
 5876 04be 7F       		.sleb128 -1
 5877 04bf 9F       		.byte	0x9f
 5878 04c0 A4000000 		.4byte	.LVL64
 5879 04c4 AC000000 		.4byte	.LVL66
 5880 04c8 0300     		.2byte	0x3
 5881 04ca 72       		.byte	0x72
 5882 04cb 7E       		.sleb128 -2
 5883 04cc 9F       		.byte	0x9f
 5884 04cd 1A020000 		.4byte	.LVL113
 5885 04d1 1E020000 		.4byte	.LVL114
 5886 04d5 0100     		.2byte	0x1
 5887 04d7 55       		.byte	0x55
 5888 04d8 1E020000 		.4byte	.LVL114
 5889 04dc 22020000 		.4byte	.LVL115
ARM GAS  C:\Users\EBANO_~1\AppData\Local\Temp\ccMXEZix.s 			page 121


 5890 04e0 0700     		.2byte	0x7
 5891 04e2 73       		.byte	0x73
 5892 04e3 00       		.sleb128 0
 5893 04e4 20       		.byte	0x20
 5894 04e5 7A       		.byte	0x7a
 5895 04e6 00       		.sleb128 0
 5896 04e7 22       		.byte	0x22
 5897 04e8 9F       		.byte	0x9f
 5898 04e9 22020000 		.4byte	.LVL115
 5899 04ed 24020000 		.4byte	.LVL116
 5900 04f1 0800     		.2byte	0x8
 5901 04f3 7A       		.byte	0x7a
 5902 04f4 00       		.sleb128 0
 5903 04f5 73       		.byte	0x73
 5904 04f6 00       		.sleb128 0
 5905 04f7 1C       		.byte	0x1c
 5906 04f8 32       		.byte	0x32
 5907 04f9 1C       		.byte	0x1c
 5908 04fa 9F       		.byte	0x9f
 5909 04fb 00000000 		.4byte	0
 5910 04ff 00000000 		.4byte	0
 5911              	.LLST26:
 5912 0503 2C000000 		.4byte	.LVL56
 5913 0507 56000000 		.4byte	.LVL59
 5914 050b 0100     		.2byte	0x1
 5915 050d 50       		.byte	0x50
 5916 050e 98000000 		.4byte	.LVL61
 5917 0512 A0000000 		.4byte	.LVL63
 5918 0516 0300     		.2byte	0x3
 5919 0518 70       		.byte	0x70
 5920 0519 01       		.sleb128 1
 5921 051a 9F       		.byte	0x9f
 5922 051b A0000000 		.4byte	.LVL63
 5923 051f A8000000 		.4byte	.LVL65
 5924 0523 0300     		.2byte	0x3
 5925 0525 70       		.byte	0x70
 5926 0526 02       		.sleb128 2
 5927 0527 9F       		.byte	0x9f
 5928 0528 A8000000 		.4byte	.LVL65
 5929 052c AC000000 		.4byte	.LVL66
 5930 0530 0300     		.2byte	0x3
 5931 0532 70       		.byte	0x70
 5932 0533 03       		.sleb128 3
 5933 0534 9F       		.byte	0x9f
 5934 0535 1A020000 		.4byte	.LVL113
 5935 0539 1E020000 		.4byte	.LVL114
 5936 053d 0100     		.2byte	0x1
 5937 053f 50       		.byte	0x50
 5938 0540 1E020000 		.4byte	.LVL114
 5939 0544 24020000 		.4byte	.LVL116
 5940 0548 0800     		.2byte	0x8
 5941 054a 70       		.byte	0x70
 5942 054b 00       		.sleb128 0
 5943 054c 73       		.byte	0x73
 5944 054d 00       		.sleb128 0
 5945 054e 22       		.byte	0x22
 5946 054f 23       		.byte	0x23
ARM GAS  C:\Users\EBANO_~1\AppData\Local\Temp\ccMXEZix.s 			page 122


 5947 0550 01       		.uleb128 0x1
 5948 0551 9F       		.byte	0x9f
 5949 0552 24020000 		.4byte	.LVL116
 5950 0556 34020000 		.4byte	.LFE7
 5951 055a 0600     		.2byte	0x6
 5952 055c 70       		.byte	0x70
 5953 055d 00       		.sleb128 0
 5954 055e 73       		.byte	0x73
 5955 055f 00       		.sleb128 0
 5956 0560 22       		.byte	0x22
 5957 0561 9F       		.byte	0x9f
 5958 0562 00000000 		.4byte	0
 5959 0566 00000000 		.4byte	0
 5960              	.LLST27:
 5961 056a 2C000000 		.4byte	.LVL56
 5962 056e 56000000 		.4byte	.LVL59
 5963 0572 0100     		.2byte	0x1
 5964 0574 54       		.byte	0x54
 5965 0575 98000000 		.4byte	.LVL61
 5966 0579 A0000000 		.4byte	.LVL63
 5967 057d 0300     		.2byte	0x3
 5968 057f 71       		.byte	0x71
 5969 0580 01       		.sleb128 1
 5970 0581 9F       		.byte	0x9f
 5971 0582 A0000000 		.4byte	.LVL63
 5972 0586 A8000000 		.4byte	.LVL65
 5973 058a 0300     		.2byte	0x3
 5974 058c 71       		.byte	0x71
 5975 058d 02       		.sleb128 2
 5976 058e 9F       		.byte	0x9f
 5977 058f A8000000 		.4byte	.LVL65
 5978 0593 AC000000 		.4byte	.LVL66
 5979 0597 0300     		.2byte	0x3
 5980 0599 71       		.byte	0x71
 5981 059a 03       		.sleb128 3
 5982 059b 9F       		.byte	0x9f
 5983 059c 1A020000 		.4byte	.LVL113
 5984 05a0 1E020000 		.4byte	.LVL114
 5985 05a4 0100     		.2byte	0x1
 5986 05a6 54       		.byte	0x54
 5987 05a7 1E020000 		.4byte	.LVL114
 5988 05ab 24020000 		.4byte	.LVL116
 5989 05af 0800     		.2byte	0x8
 5990 05b1 74       		.byte	0x74
 5991 05b2 00       		.sleb128 0
 5992 05b3 73       		.byte	0x73
 5993 05b4 00       		.sleb128 0
 5994 05b5 22       		.byte	0x22
 5995 05b6 23       		.byte	0x23
 5996 05b7 01       		.uleb128 0x1
 5997 05b8 9F       		.byte	0x9f
 5998 05b9 24020000 		.4byte	.LVL116
 5999 05bd 34020000 		.4byte	.LFE7
 6000 05c1 0600     		.2byte	0x6
 6001 05c3 74       		.byte	0x74
 6002 05c4 00       		.sleb128 0
 6003 05c5 73       		.byte	0x73
ARM GAS  C:\Users\EBANO_~1\AppData\Local\Temp\ccMXEZix.s 			page 123


 6004 05c6 00       		.sleb128 0
 6005 05c7 22       		.byte	0x22
 6006 05c8 9F       		.byte	0x9f
 6007 05c9 00000000 		.4byte	0
 6008 05cd 00000000 		.4byte	0
 6009              	.LLST0:
 6010 05d1 00000000 		.4byte	.LFB10
 6011 05d5 02000000 		.4byte	.LCFI0
 6012 05d9 0200     		.2byte	0x2
 6013 05db 7D       		.byte	0x7d
 6014 05dc 00       		.sleb128 0
 6015 05dd 02000000 		.4byte	.LCFI0
 6016 05e1 0C000000 		.4byte	.LCFI1
 6017 05e5 0200     		.2byte	0x2
 6018 05e7 7D       		.byte	0x7d
 6019 05e8 14       		.sleb128 20
 6020 05e9 0C000000 		.4byte	.LCFI1
 6021 05ed 0E000000 		.4byte	.LCFI2
 6022 05f1 0200     		.2byte	0x2
 6023 05f3 7D       		.byte	0x7d
 6024 05f4 24       		.sleb128 36
 6025 05f5 0E000000 		.4byte	.LCFI2
 6026 05f9 B0030000 		.4byte	.LFE10
 6027 05fd 0300     		.2byte	0x3
 6028 05ff 7D       		.byte	0x7d
 6029 0600 C001     		.sleb128 192
 6030 0602 00000000 		.4byte	0
 6031 0606 00000000 		.4byte	0
 6032              	.LLST1:
 6033 060a 00000000 		.4byte	.LVL0
 6034 060e BA000000 		.4byte	.LVL19
 6035 0612 0100     		.2byte	0x1
 6036 0614 50       		.byte	0x50
 6037 0615 BA000000 		.4byte	.LVL19
 6038 0619 9E030000 		.4byte	.LVL52
 6039 061d 0400     		.2byte	0x4
 6040 061f F3       		.byte	0xf3
 6041 0620 01       		.uleb128 0x1
 6042 0621 50       		.byte	0x50
 6043 0622 9F       		.byte	0x9f
 6044 0623 9E030000 		.4byte	.LVL52
 6045 0627 B0030000 		.4byte	.LFE10
 6046 062b 0100     		.2byte	0x1
 6047 062d 50       		.byte	0x50
 6048 062e 00000000 		.4byte	0
 6049 0632 00000000 		.4byte	0
 6050              	.LLST2:
 6051 0636 00000000 		.4byte	.LVL0
 6052 063a 12000000 		.4byte	.LVL1
 6053 063e 0100     		.2byte	0x1
 6054 0640 51       		.byte	0x51
 6055 0641 12000000 		.4byte	.LVL1
 6056 0645 B0030000 		.4byte	.LFE10
 6057 0649 0200     		.2byte	0x2
 6058 064b 91       		.byte	0x91
 6059 064c 4C       		.sleb128 -52
 6060 064d 00000000 		.4byte	0
ARM GAS  C:\Users\EBANO_~1\AppData\Local\Temp\ccMXEZix.s 			page 124


 6061 0651 00000000 		.4byte	0
 6062              	.LLST3:
 6063 0655 00000000 		.4byte	.LVL0
 6064 0659 18000000 		.4byte	.LVL2
 6065 065d 0100     		.2byte	0x1
 6066 065f 52       		.byte	0x52
 6067 0660 18000000 		.4byte	.LVL2
 6068 0664 B4000000 		.4byte	.LVL17
 6069 0668 0100     		.2byte	0x1
 6070 066a 51       		.byte	0x51
 6071 066b B4000000 		.4byte	.LVL17
 6072 066f B8000000 		.4byte	.LVL18
 6073 0673 0100     		.2byte	0x1
 6074 0675 57       		.byte	0x57
 6075 0676 B8000000 		.4byte	.LVL18
 6076 067a 9E030000 		.4byte	.LVL52
 6077 067e 0200     		.2byte	0x2
 6078 0680 91       		.byte	0x91
 6079 0681 50       		.sleb128 -48
 6080 0682 9E030000 		.4byte	.LVL52
 6081 0686 A2030000 		.4byte	.LVL53
 6082 068a 0100     		.2byte	0x1
 6083 068c 51       		.byte	0x51
 6084 068d A2030000 		.4byte	.LVL53
 6085 0691 B0030000 		.4byte	.LFE10
 6086 0695 0200     		.2byte	0x2
 6087 0697 91       		.byte	0x91
 6088 0698 50       		.sleb128 -48
 6089 0699 00000000 		.4byte	0
 6090 069d 00000000 		.4byte	0
 6091              	.LLST4:
 6092 06a1 1C000000 		.4byte	.LVL3
 6093 06a5 24000000 		.4byte	.LVL4
 6094 06a9 0500     		.2byte	0x5
 6095 06ab 5B       		.byte	0x5b
 6096 06ac 93       		.byte	0x93
 6097 06ad 01       		.uleb128 0x1
 6098 06ae 93       		.byte	0x93
 6099 06af 0F       		.uleb128 0xf
 6100 06b0 24000000 		.4byte	.LVL4
 6101 06b4 2C000000 		.4byte	.LVL5
 6102 06b8 0A00     		.2byte	0xa
 6103 06ba 5B       		.byte	0x5b
 6104 06bb 93       		.byte	0x93
 6105 06bc 01       		.uleb128 0x1
 6106 06bd 91       		.byte	0x91
 6107 06be F87E     		.sleb128 -136
 6108 06c0 93       		.byte	0x93
 6109 06c1 01       		.uleb128 0x1
 6110 06c2 93       		.byte	0x93
 6111 06c3 0E       		.uleb128 0xe
 6112 06c4 2C000000 		.4byte	.LVL5
 6113 06c8 34000000 		.4byte	.LVL6
 6114 06cc 0F00     		.2byte	0xf
 6115 06ce 5B       		.byte	0x5b
 6116 06cf 93       		.byte	0x93
 6117 06d0 01       		.uleb128 0x1
ARM GAS  C:\Users\EBANO_~1\AppData\Local\Temp\ccMXEZix.s 			page 125


 6118 06d1 91       		.byte	0x91
 6119 06d2 F87E     		.sleb128 -136
 6120 06d4 93       		.byte	0x93
 6121 06d5 01       		.uleb128 0x1
 6122 06d6 91       		.byte	0x91
 6123 06d7 FC7E     		.sleb128 -132
 6124 06d9 93       		.byte	0x93
 6125 06da 01       		.uleb128 0x1
 6126 06db 93       		.byte	0x93
 6127 06dc 0D       		.uleb128 0xd
 6128 06dd 34000000 		.4byte	.LVL6
 6129 06e1 3C000000 		.4byte	.LVL7
 6130 06e5 1400     		.2byte	0x14
 6131 06e7 5B       		.byte	0x5b
 6132 06e8 93       		.byte	0x93
 6133 06e9 01       		.uleb128 0x1
 6134 06ea 91       		.byte	0x91
 6135 06eb F87E     		.sleb128 -136
 6136 06ed 93       		.byte	0x93
 6137 06ee 01       		.uleb128 0x1
 6138 06ef 91       		.byte	0x91
 6139 06f0 FC7E     		.sleb128 -132
 6140 06f2 93       		.byte	0x93
 6141 06f3 01       		.uleb128 0x1
 6142 06f4 91       		.byte	0x91
 6143 06f5 807F     		.sleb128 -128
 6144 06f7 93       		.byte	0x93
 6145 06f8 01       		.uleb128 0x1
 6146 06f9 93       		.byte	0x93
 6147 06fa 0C       		.uleb128 0xc
 6148 06fb 3C000000 		.4byte	.LVL7
 6149 06ff 44000000 		.4byte	.LVL8
 6150 0703 1E00     		.2byte	0x1e
 6151 0705 5B       		.byte	0x5b
 6152 0706 93       		.byte	0x93
 6153 0707 01       		.uleb128 0x1
 6154 0708 91       		.byte	0x91
 6155 0709 F87E     		.sleb128 -136
 6156 070b 93       		.byte	0x93
 6157 070c 01       		.uleb128 0x1
 6158 070d 91       		.byte	0x91
 6159 070e FC7E     		.sleb128 -132
 6160 0710 93       		.byte	0x93
 6161 0711 01       		.uleb128 0x1
 6162 0712 91       		.byte	0x91
 6163 0713 807F     		.sleb128 -128
 6164 0715 93       		.byte	0x93
 6165 0716 01       		.uleb128 0x1
 6166 0717 91       		.byte	0x91
 6167 0718 847F     		.sleb128 -124
 6168 071a 93       		.byte	0x93
 6169 071b 01       		.uleb128 0x1
 6170 071c 91       		.byte	0x91
 6171 071d C47E     		.sleb128 -188
 6172 071f 93       		.byte	0x93
 6173 0720 01       		.uleb128 0x1
 6174 0721 93       		.byte	0x93
ARM GAS  C:\Users\EBANO_~1\AppData\Local\Temp\ccMXEZix.s 			page 126


 6175 0722 0A       		.uleb128 0xa
 6176 0723 44000000 		.4byte	.LVL8
 6177 0727 4C000000 		.4byte	.LVL9
 6178 072b 1900     		.2byte	0x19
 6179 072d 5B       		.byte	0x5b
 6180 072e 93       		.byte	0x93
 6181 072f 01       		.uleb128 0x1
 6182 0730 91       		.byte	0x91
 6183 0731 F87E     		.sleb128 -136
 6184 0733 93       		.byte	0x93
 6185 0734 01       		.uleb128 0x1
 6186 0735 91       		.byte	0x91
 6187 0736 FC7E     		.sleb128 -132
 6188 0738 93       		.byte	0x93
 6189 0739 01       		.uleb128 0x1
 6190 073a 91       		.byte	0x91
 6191 073b 807F     		.sleb128 -128
 6192 073d 93       		.byte	0x93
 6193 073e 01       		.uleb128 0x1
 6194 073f 91       		.byte	0x91
 6195 0740 847F     		.sleb128 -124
 6196 0742 93       		.byte	0x93
 6197 0743 01       		.uleb128 0x1
 6198 0744 93       		.byte	0x93
 6199 0745 0B       		.uleb128 0xb
 6200 0746 4C000000 		.4byte	.LVL9
 6201 074a 54000000 		.4byte	.LVL10
 6202 074e 2000     		.2byte	0x20
 6203 0750 5B       		.byte	0x5b
 6204 0751 93       		.byte	0x93
 6205 0752 01       		.uleb128 0x1
 6206 0753 91       		.byte	0x91
 6207 0754 F87E     		.sleb128 -136
 6208 0756 93       		.byte	0x93
 6209 0757 01       		.uleb128 0x1
 6210 0758 91       		.byte	0x91
 6211 0759 FC7E     		.sleb128 -132
 6212 075b 93       		.byte	0x93
 6213 075c 01       		.uleb128 0x1
 6214 075d 91       		.byte	0x91
 6215 075e 807F     		.sleb128 -128
 6216 0760 93       		.byte	0x93
 6217 0761 01       		.uleb128 0x1
 6218 0762 91       		.byte	0x91
 6219 0763 847F     		.sleb128 -124
 6220 0765 93       		.byte	0x93
 6221 0766 01       		.uleb128 0x1
 6222 0767 93       		.byte	0x93
 6223 0768 01       		.uleb128 0x1
 6224 0769 91       		.byte	0x91
 6225 076a 887F     		.sleb128 -120
 6226 076c 93       		.byte	0x93
 6227 076d 01       		.uleb128 0x1
 6228 076e 93       		.byte	0x93
 6229 076f 09       		.uleb128 0x9
 6230 0770 54000000 		.4byte	.LVL10
 6231 0774 5C000000 		.4byte	.LVL11
ARM GAS  C:\Users\EBANO_~1\AppData\Local\Temp\ccMXEZix.s 			page 127


 6232 0778 2500     		.2byte	0x25
 6233 077a 5B       		.byte	0x5b
 6234 077b 93       		.byte	0x93
 6235 077c 01       		.uleb128 0x1
 6236 077d 91       		.byte	0x91
 6237 077e F87E     		.sleb128 -136
 6238 0780 93       		.byte	0x93
 6239 0781 01       		.uleb128 0x1
 6240 0782 91       		.byte	0x91
 6241 0783 FC7E     		.sleb128 -132
 6242 0785 93       		.byte	0x93
 6243 0786 01       		.uleb128 0x1
 6244 0787 91       		.byte	0x91
 6245 0788 807F     		.sleb128 -128
 6246 078a 93       		.byte	0x93
 6247 078b 01       		.uleb128 0x1
 6248 078c 91       		.byte	0x91
 6249 078d 847F     		.sleb128 -124
 6250 078f 93       		.byte	0x93
 6251 0790 01       		.uleb128 0x1
 6252 0791 93       		.byte	0x93
 6253 0792 01       		.uleb128 0x1
 6254 0793 91       		.byte	0x91
 6255 0794 887F     		.sleb128 -120
 6256 0796 93       		.byte	0x93
 6257 0797 01       		.uleb128 0x1
 6258 0798 91       		.byte	0x91
 6259 0799 8C7F     		.sleb128 -116
 6260 079b 93       		.byte	0x93
 6261 079c 01       		.uleb128 0x1
 6262 079d 93       		.byte	0x93
 6263 079e 08       		.uleb128 0x8
 6264 079f 5C000000 		.4byte	.LVL11
 6265 07a3 7A000000 		.4byte	.LVL12
 6266 07a7 2A00     		.2byte	0x2a
 6267 07a9 5B       		.byte	0x5b
 6268 07aa 93       		.byte	0x93
 6269 07ab 01       		.uleb128 0x1
 6270 07ac 91       		.byte	0x91
 6271 07ad F87E     		.sleb128 -136
 6272 07af 93       		.byte	0x93
 6273 07b0 01       		.uleb128 0x1
 6274 07b1 91       		.byte	0x91
 6275 07b2 FC7E     		.sleb128 -132
 6276 07b4 93       		.byte	0x93
 6277 07b5 01       		.uleb128 0x1
 6278 07b6 91       		.byte	0x91
 6279 07b7 807F     		.sleb128 -128
 6280 07b9 93       		.byte	0x93
 6281 07ba 01       		.uleb128 0x1
 6282 07bb 91       		.byte	0x91
 6283 07bc 847F     		.sleb128 -124
 6284 07be 93       		.byte	0x93
 6285 07bf 01       		.uleb128 0x1
 6286 07c0 93       		.byte	0x93
 6287 07c1 01       		.uleb128 0x1
 6288 07c2 91       		.byte	0x91
ARM GAS  C:\Users\EBANO_~1\AppData\Local\Temp\ccMXEZix.s 			page 128


 6289 07c3 887F     		.sleb128 -120
 6290 07c5 93       		.byte	0x93
 6291 07c6 01       		.uleb128 0x1
 6292 07c7 91       		.byte	0x91
 6293 07c8 8C7F     		.sleb128 -116
 6294 07ca 93       		.byte	0x93
 6295 07cb 01       		.uleb128 0x1
 6296 07cc 91       		.byte	0x91
 6297 07cd 907F     		.sleb128 -112
 6298 07cf 93       		.byte	0x93
 6299 07d0 01       		.uleb128 0x1
 6300 07d1 93       		.byte	0x93
 6301 07d2 07       		.uleb128 0x7
 6302 07d3 7A000000 		.4byte	.LVL12
 6303 07d7 8A000000 		.4byte	.LVL13
 6304 07db 2D00     		.2byte	0x2d
 6305 07dd 5B       		.byte	0x5b
 6306 07de 93       		.byte	0x93
 6307 07df 01       		.uleb128 0x1
 6308 07e0 91       		.byte	0x91
 6309 07e1 F87E     		.sleb128 -136
 6310 07e3 93       		.byte	0x93
 6311 07e4 01       		.uleb128 0x1
 6312 07e5 91       		.byte	0x91
 6313 07e6 FC7E     		.sleb128 -132
 6314 07e8 93       		.byte	0x93
 6315 07e9 01       		.uleb128 0x1
 6316 07ea 91       		.byte	0x91
 6317 07eb 807F     		.sleb128 -128
 6318 07ed 93       		.byte	0x93
 6319 07ee 01       		.uleb128 0x1
 6320 07ef 91       		.byte	0x91
 6321 07f0 847F     		.sleb128 -124
 6322 07f2 93       		.byte	0x93
 6323 07f3 01       		.uleb128 0x1
 6324 07f4 93       		.byte	0x93
 6325 07f5 01       		.uleb128 0x1
 6326 07f6 91       		.byte	0x91
 6327 07f7 887F     		.sleb128 -120
 6328 07f9 93       		.byte	0x93
 6329 07fa 01       		.uleb128 0x1
 6330 07fb 91       		.byte	0x91
 6331 07fc 8C7F     		.sleb128 -116
 6332 07fe 93       		.byte	0x93
 6333 07ff 01       		.uleb128 0x1
 6334 0800 91       		.byte	0x91
 6335 0801 907F     		.sleb128 -112
 6336 0803 93       		.byte	0x93
 6337 0804 01       		.uleb128 0x1
 6338 0805 58       		.byte	0x58
 6339 0806 93       		.byte	0x93
 6340 0807 01       		.uleb128 0x1
 6341 0808 93       		.byte	0x93
 6342 0809 06       		.uleb128 0x6
 6343 080a 8A000000 		.4byte	.LVL13
 6344 080e 90000000 		.4byte	.LVL14
 6345 0812 3200     		.2byte	0x32
ARM GAS  C:\Users\EBANO_~1\AppData\Local\Temp\ccMXEZix.s 			page 129


 6346 0814 5B       		.byte	0x5b
 6347 0815 93       		.byte	0x93
 6348 0816 01       		.uleb128 0x1
 6349 0817 91       		.byte	0x91
 6350 0818 F87E     		.sleb128 -136
 6351 081a 93       		.byte	0x93
 6352 081b 01       		.uleb128 0x1
 6353 081c 91       		.byte	0x91
 6354 081d FC7E     		.sleb128 -132
 6355 081f 93       		.byte	0x93
 6356 0820 01       		.uleb128 0x1
 6357 0821 91       		.byte	0x91
 6358 0822 807F     		.sleb128 -128
 6359 0824 93       		.byte	0x93
 6360 0825 01       		.uleb128 0x1
 6361 0826 91       		.byte	0x91
 6362 0827 847F     		.sleb128 -124
 6363 0829 93       		.byte	0x93
 6364 082a 01       		.uleb128 0x1
 6365 082b 93       		.byte	0x93
 6366 082c 01       		.uleb128 0x1
 6367 082d 91       		.byte	0x91
 6368 082e 887F     		.sleb128 -120
 6369 0830 93       		.byte	0x93
 6370 0831 01       		.uleb128 0x1
 6371 0832 91       		.byte	0x91
 6372 0833 8C7F     		.sleb128 -116
 6373 0835 93       		.byte	0x93
 6374 0836 01       		.uleb128 0x1
 6375 0837 91       		.byte	0x91
 6376 0838 907F     		.sleb128 -112
 6377 083a 93       		.byte	0x93
 6378 083b 01       		.uleb128 0x1
 6379 083c 58       		.byte	0x58
 6380 083d 93       		.byte	0x93
 6381 083e 01       		.uleb128 0x1
 6382 083f 91       		.byte	0x91
 6383 0840 C87E     		.sleb128 -184
 6384 0842 93       		.byte	0x93
 6385 0843 01       		.uleb128 0x1
 6386 0844 93       		.byte	0x93
 6387 0845 05       		.uleb128 0x5
 6388 0846 90000000 		.4byte	.LVL14
 6389 084a 92000000 		.4byte	.LVL15
 6390 084e 3700     		.2byte	0x37
 6391 0850 5B       		.byte	0x5b
 6392 0851 93       		.byte	0x93
 6393 0852 01       		.uleb128 0x1
 6394 0853 91       		.byte	0x91
 6395 0854 F87E     		.sleb128 -136
 6396 0856 93       		.byte	0x93
 6397 0857 01       		.uleb128 0x1
 6398 0858 91       		.byte	0x91
 6399 0859 FC7E     		.sleb128 -132
 6400 085b 93       		.byte	0x93
 6401 085c 01       		.uleb128 0x1
 6402 085d 91       		.byte	0x91
ARM GAS  C:\Users\EBANO_~1\AppData\Local\Temp\ccMXEZix.s 			page 130


 6403 085e 807F     		.sleb128 -128
 6404 0860 93       		.byte	0x93
 6405 0861 01       		.uleb128 0x1
 6406 0862 91       		.byte	0x91
 6407 0863 847F     		.sleb128 -124
 6408 0865 93       		.byte	0x93
 6409 0866 01       		.uleb128 0x1
 6410 0867 93       		.byte	0x93
 6411 0868 01       		.uleb128 0x1
 6412 0869 91       		.byte	0x91
 6413 086a 887F     		.sleb128 -120
 6414 086c 93       		.byte	0x93
 6415 086d 01       		.uleb128 0x1
 6416 086e 91       		.byte	0x91
 6417 086f 8C7F     		.sleb128 -116
 6418 0871 93       		.byte	0x93
 6419 0872 01       		.uleb128 0x1
 6420 0873 91       		.byte	0x91
 6421 0874 907F     		.sleb128 -112
 6422 0876 93       		.byte	0x93
 6423 0877 01       		.uleb128 0x1
 6424 0878 58       		.byte	0x58
 6425 0879 93       		.byte	0x93
 6426 087a 01       		.uleb128 0x1
 6427 087b 91       		.byte	0x91
 6428 087c C87E     		.sleb128 -184
 6429 087e 93       		.byte	0x93
 6430 087f 01       		.uleb128 0x1
 6431 0880 91       		.byte	0x91
 6432 0881 947F     		.sleb128 -108
 6433 0883 93       		.byte	0x93
 6434 0884 01       		.uleb128 0x1
 6435 0885 93       		.byte	0x93
 6436 0886 04       		.uleb128 0x4
 6437 0887 92000000 		.4byte	.LVL15
 6438 088b 96000000 		.4byte	.LVL16
 6439 088f 4400     		.2byte	0x44
 6440 0891 5B       		.byte	0x5b
 6441 0892 93       		.byte	0x93
 6442 0893 01       		.uleb128 0x1
 6443 0894 91       		.byte	0x91
 6444 0895 F87E     		.sleb128 -136
 6445 0897 93       		.byte	0x93
 6446 0898 01       		.uleb128 0x1
 6447 0899 91       		.byte	0x91
 6448 089a FC7E     		.sleb128 -132
 6449 089c 93       		.byte	0x93
 6450 089d 01       		.uleb128 0x1
 6451 089e 91       		.byte	0x91
 6452 089f 807F     		.sleb128 -128
 6453 08a1 93       		.byte	0x93
 6454 08a2 01       		.uleb128 0x1
 6455 08a3 91       		.byte	0x91
 6456 08a4 847F     		.sleb128 -124
 6457 08a6 93       		.byte	0x93
 6458 08a7 01       		.uleb128 0x1
 6459 08a8 93       		.byte	0x93
ARM GAS  C:\Users\EBANO_~1\AppData\Local\Temp\ccMXEZix.s 			page 131


 6460 08a9 01       		.uleb128 0x1
 6461 08aa 91       		.byte	0x91
 6462 08ab 887F     		.sleb128 -120
 6463 08ad 93       		.byte	0x93
 6464 08ae 01       		.uleb128 0x1
 6465 08af 91       		.byte	0x91
 6466 08b0 8C7F     		.sleb128 -116
 6467 08b2 93       		.byte	0x93
 6468 08b3 01       		.uleb128 0x1
 6469 08b4 91       		.byte	0x91
 6470 08b5 907F     		.sleb128 -112
 6471 08b7 93       		.byte	0x93
 6472 08b8 01       		.uleb128 0x1
 6473 08b9 58       		.byte	0x58
 6474 08ba 93       		.byte	0x93
 6475 08bb 01       		.uleb128 0x1
 6476 08bc 91       		.byte	0x91
 6477 08bd C87E     		.sleb128 -184
 6478 08bf 93       		.byte	0x93
 6479 08c0 01       		.uleb128 0x1
 6480 08c1 91       		.byte	0x91
 6481 08c2 947F     		.sleb128 -108
 6482 08c4 93       		.byte	0x93
 6483 08c5 01       		.uleb128 0x1
 6484 08c6 91       		.byte	0x91
 6485 08c7 F47E     		.sleb128 -140
 6486 08c9 93       		.byte	0x93
 6487 08ca 01       		.uleb128 0x1
 6488 08cb 91       		.byte	0x91
 6489 08cc CC7E     		.sleb128 -180
 6490 08ce 93       		.byte	0x93
 6491 08cf 01       		.uleb128 0x1
 6492 08d0 54       		.byte	0x54
 6493 08d1 93       		.byte	0x93
 6494 08d2 01       		.uleb128 0x1
 6495 08d3 93       		.byte	0x93
 6496 08d4 01       		.uleb128 0x1
 6497 08d5 96000000 		.4byte	.LVL16
 6498 08d9 BA000000 		.4byte	.LVL19
 6499 08dd 4500     		.2byte	0x45
 6500 08df 5B       		.byte	0x5b
 6501 08e0 93       		.byte	0x93
 6502 08e1 01       		.uleb128 0x1
 6503 08e2 91       		.byte	0x91
 6504 08e3 F87E     		.sleb128 -136
 6505 08e5 93       		.byte	0x93
 6506 08e6 01       		.uleb128 0x1
 6507 08e7 91       		.byte	0x91
 6508 08e8 FC7E     		.sleb128 -132
 6509 08ea 93       		.byte	0x93
 6510 08eb 01       		.uleb128 0x1
 6511 08ec 91       		.byte	0x91
 6512 08ed 807F     		.sleb128 -128
 6513 08ef 93       		.byte	0x93
 6514 08f0 01       		.uleb128 0x1
 6515 08f1 91       		.byte	0x91
 6516 08f2 847F     		.sleb128 -124
ARM GAS  C:\Users\EBANO_~1\AppData\Local\Temp\ccMXEZix.s 			page 132


 6517 08f4 93       		.byte	0x93
 6518 08f5 01       		.uleb128 0x1
 6519 08f6 93       		.byte	0x93
 6520 08f7 01       		.uleb128 0x1
 6521 08f8 91       		.byte	0x91
 6522 08f9 887F     		.sleb128 -120
 6523 08fb 93       		.byte	0x93
 6524 08fc 01       		.uleb128 0x1
 6525 08fd 91       		.byte	0x91
 6526 08fe 8C7F     		.sleb128 -116
 6527 0900 93       		.byte	0x93
 6528 0901 01       		.uleb128 0x1
 6529 0902 91       		.byte	0x91
 6530 0903 907F     		.sleb128 -112
 6531 0905 93       		.byte	0x93
 6532 0906 01       		.uleb128 0x1
 6533 0907 58       		.byte	0x58
 6534 0908 93       		.byte	0x93
 6535 0909 01       		.uleb128 0x1
 6536 090a 91       		.byte	0x91
 6537 090b C87E     		.sleb128 -184
 6538 090d 93       		.byte	0x93
 6539 090e 01       		.uleb128 0x1
 6540 090f 91       		.byte	0x91
 6541 0910 947F     		.sleb128 -108
 6542 0912 93       		.byte	0x93
 6543 0913 01       		.uleb128 0x1
 6544 0914 91       		.byte	0x91
 6545 0915 F47E     		.sleb128 -140
 6546 0917 93       		.byte	0x93
 6547 0918 01       		.uleb128 0x1
 6548 0919 91       		.byte	0x91
 6549 091a CC7E     		.sleb128 -180
 6550 091c 93       		.byte	0x93
 6551 091d 01       		.uleb128 0x1
 6552 091e 54       		.byte	0x54
 6553 091f 93       		.byte	0x93
 6554 0920 01       		.uleb128 0x1
 6555 0921 5C       		.byte	0x5c
 6556 0922 93       		.byte	0x93
 6557 0923 01       		.uleb128 0x1
 6558 0924 BA000000 		.4byte	.LVL19
 6559 0928 26010000 		.4byte	.LVL21
 6560 092c 4A00     		.2byte	0x4a
 6561 092e 5B       		.byte	0x5b
 6562 092f 93       		.byte	0x93
 6563 0930 01       		.uleb128 0x1
 6564 0931 91       		.byte	0x91
 6565 0932 F87E     		.sleb128 -136
 6566 0934 93       		.byte	0x93
 6567 0935 01       		.uleb128 0x1
 6568 0936 91       		.byte	0x91
 6569 0937 FC7E     		.sleb128 -132
 6570 0939 93       		.byte	0x93
 6571 093a 01       		.uleb128 0x1
 6572 093b 91       		.byte	0x91
 6573 093c 807F     		.sleb128 -128
ARM GAS  C:\Users\EBANO_~1\AppData\Local\Temp\ccMXEZix.s 			page 133


 6574 093e 93       		.byte	0x93
 6575 093f 01       		.uleb128 0x1
 6576 0940 91       		.byte	0x91
 6577 0941 847F     		.sleb128 -124
 6578 0943 93       		.byte	0x93
 6579 0944 01       		.uleb128 0x1
 6580 0945 91       		.byte	0x91
 6581 0946 C47E     		.sleb128 -188
 6582 0948 93       		.byte	0x93
 6583 0949 01       		.uleb128 0x1
 6584 094a 91       		.byte	0x91
 6585 094b 887F     		.sleb128 -120
 6586 094d 93       		.byte	0x93
 6587 094e 01       		.uleb128 0x1
 6588 094f 91       		.byte	0x91
 6589 0950 8C7F     		.sleb128 -116
 6590 0952 93       		.byte	0x93
 6591 0953 01       		.uleb128 0x1
 6592 0954 91       		.byte	0x91
 6593 0955 907F     		.sleb128 -112
 6594 0957 93       		.byte	0x93
 6595 0958 01       		.uleb128 0x1
 6596 0959 5A       		.byte	0x5a
 6597 095a 93       		.byte	0x93
 6598 095b 01       		.uleb128 0x1
 6599 095c 91       		.byte	0x91
 6600 095d C87E     		.sleb128 -184
 6601 095f 93       		.byte	0x93
 6602 0960 01       		.uleb128 0x1
 6603 0961 91       		.byte	0x91
 6604 0962 947F     		.sleb128 -108
 6605 0964 93       		.byte	0x93
 6606 0965 01       		.uleb128 0x1
 6607 0966 91       		.byte	0x91
 6608 0967 F47E     		.sleb128 -140
 6609 0969 93       		.byte	0x93
 6610 096a 01       		.uleb128 0x1
 6611 096b 91       		.byte	0x91
 6612 096c CC7E     		.sleb128 -180
 6613 096e 93       		.byte	0x93
 6614 096f 01       		.uleb128 0x1
 6615 0970 91       		.byte	0x91
 6616 0971 D07E     		.sleb128 -176
 6617 0973 93       		.byte	0x93
 6618 0974 01       		.uleb128 0x1
 6619 0975 53       		.byte	0x53
 6620 0976 93       		.byte	0x93
 6621 0977 01       		.uleb128 0x1
 6622 0978 26010000 		.4byte	.LVL21
 6623 097c 44010000 		.4byte	.LVL22
 6624 0980 4700     		.2byte	0x47
 6625 0982 5B       		.byte	0x5b
 6626 0983 93       		.byte	0x93
 6627 0984 01       		.uleb128 0x1
 6628 0985 91       		.byte	0x91
 6629 0986 F87E     		.sleb128 -136
 6630 0988 93       		.byte	0x93
ARM GAS  C:\Users\EBANO_~1\AppData\Local\Temp\ccMXEZix.s 			page 134


 6631 0989 01       		.uleb128 0x1
 6632 098a 91       		.byte	0x91
 6633 098b FC7E     		.sleb128 -132
 6634 098d 93       		.byte	0x93
 6635 098e 01       		.uleb128 0x1
 6636 098f 91       		.byte	0x91
 6637 0990 807F     		.sleb128 -128
 6638 0992 93       		.byte	0x93
 6639 0993 01       		.uleb128 0x1
 6640 0994 91       		.byte	0x91
 6641 0995 847F     		.sleb128 -124
 6642 0997 93       		.byte	0x93
 6643 0998 01       		.uleb128 0x1
 6644 0999 91       		.byte	0x91
 6645 099a C47E     		.sleb128 -188
 6646 099c 93       		.byte	0x93
 6647 099d 01       		.uleb128 0x1
 6648 099e 91       		.byte	0x91
 6649 099f 887F     		.sleb128 -120
 6650 09a1 93       		.byte	0x93
 6651 09a2 01       		.uleb128 0x1
 6652 09a3 91       		.byte	0x91
 6653 09a4 8C7F     		.sleb128 -116
 6654 09a6 93       		.byte	0x93
 6655 09a7 01       		.uleb128 0x1
 6656 09a8 91       		.byte	0x91
 6657 09a9 907F     		.sleb128 -112
 6658 09ab 93       		.byte	0x93
 6659 09ac 01       		.uleb128 0x1
 6660 09ad 5A       		.byte	0x5a
 6661 09ae 93       		.byte	0x93
 6662 09af 01       		.uleb128 0x1
 6663 09b0 91       		.byte	0x91
 6664 09b1 C87E     		.sleb128 -184
 6665 09b3 93       		.byte	0x93
 6666 09b4 01       		.uleb128 0x1
 6667 09b5 91       		.byte	0x91
 6668 09b6 947F     		.sleb128 -108
 6669 09b8 93       		.byte	0x93
 6670 09b9 01       		.uleb128 0x1
 6671 09ba 93       		.byte	0x93
 6672 09bb 01       		.uleb128 0x1
 6673 09bc 91       		.byte	0x91
 6674 09bd CC7E     		.sleb128 -180
 6675 09bf 93       		.byte	0x93
 6676 09c0 01       		.uleb128 0x1
 6677 09c1 91       		.byte	0x91
 6678 09c2 D07E     		.sleb128 -176
 6679 09c4 93       		.byte	0x93
 6680 09c5 01       		.uleb128 0x1
 6681 09c6 53       		.byte	0x53
 6682 09c7 93       		.byte	0x93
 6683 09c8 01       		.uleb128 0x1
 6684 09c9 44010000 		.4byte	.LVL22
 6685 09cd 5E010000 		.4byte	.LVL23
 6686 09d1 4700     		.2byte	0x47
 6687 09d3 5B       		.byte	0x5b
ARM GAS  C:\Users\EBANO_~1\AppData\Local\Temp\ccMXEZix.s 			page 135


 6688 09d4 93       		.byte	0x93
 6689 09d5 01       		.uleb128 0x1
 6690 09d6 91       		.byte	0x91
 6691 09d7 F87E     		.sleb128 -136
 6692 09d9 93       		.byte	0x93
 6693 09da 01       		.uleb128 0x1
 6694 09db 91       		.byte	0x91
 6695 09dc FC7E     		.sleb128 -132
 6696 09de 93       		.byte	0x93
 6697 09df 01       		.uleb128 0x1
 6698 09e0 91       		.byte	0x91
 6699 09e1 807F     		.sleb128 -128
 6700 09e3 93       		.byte	0x93
 6701 09e4 01       		.uleb128 0x1
 6702 09e5 91       		.byte	0x91
 6703 09e6 847F     		.sleb128 -124
 6704 09e8 93       		.byte	0x93
 6705 09e9 01       		.uleb128 0x1
 6706 09ea 91       		.byte	0x91
 6707 09eb C47E     		.sleb128 -188
 6708 09ed 93       		.byte	0x93
 6709 09ee 01       		.uleb128 0x1
 6710 09ef 91       		.byte	0x91
 6711 09f0 887F     		.sleb128 -120
 6712 09f2 93       		.byte	0x93
 6713 09f3 01       		.uleb128 0x1
 6714 09f4 91       		.byte	0x91
 6715 09f5 8C7F     		.sleb128 -116
 6716 09f7 93       		.byte	0x93
 6717 09f8 01       		.uleb128 0x1
 6718 09f9 91       		.byte	0x91
 6719 09fa 907F     		.sleb128 -112
 6720 09fc 93       		.byte	0x93
 6721 09fd 01       		.uleb128 0x1
 6722 09fe 5A       		.byte	0x5a
 6723 09ff 93       		.byte	0x93
 6724 0a00 01       		.uleb128 0x1
 6725 0a01 91       		.byte	0x91
 6726 0a02 C87E     		.sleb128 -184
 6727 0a04 93       		.byte	0x93
 6728 0a05 01       		.uleb128 0x1
 6729 0a06 91       		.byte	0x91
 6730 0a07 947F     		.sleb128 -108
 6731 0a09 93       		.byte	0x93
 6732 0a0a 01       		.uleb128 0x1
 6733 0a0b 93       		.byte	0x93
 6734 0a0c 01       		.uleb128 0x1
 6735 0a0d 91       		.byte	0x91
 6736 0a0e CC7E     		.sleb128 -180
 6737 0a10 93       		.byte	0x93
 6738 0a11 01       		.uleb128 0x1
 6739 0a12 91       		.byte	0x91
 6740 0a13 D07E     		.sleb128 -176
 6741 0a15 93       		.byte	0x93
 6742 0a16 01       		.uleb128 0x1
 6743 0a17 53       		.byte	0x53
 6744 0a18 93       		.byte	0x93
ARM GAS  C:\Users\EBANO_~1\AppData\Local\Temp\ccMXEZix.s 			page 136


 6745 0a19 01       		.uleb128 0x1
 6746 0a1a 5E010000 		.4byte	.LVL23
 6747 0a1e 74010000 		.4byte	.LVL24
 6748 0a22 4700     		.2byte	0x47
 6749 0a24 5B       		.byte	0x5b
 6750 0a25 93       		.byte	0x93
 6751 0a26 01       		.uleb128 0x1
 6752 0a27 91       		.byte	0x91
 6753 0a28 F87E     		.sleb128 -136
 6754 0a2a 93       		.byte	0x93
 6755 0a2b 01       		.uleb128 0x1
 6756 0a2c 91       		.byte	0x91
 6757 0a2d FC7E     		.sleb128 -132
 6758 0a2f 93       		.byte	0x93
 6759 0a30 01       		.uleb128 0x1
 6760 0a31 91       		.byte	0x91
 6761 0a32 807F     		.sleb128 -128
 6762 0a34 93       		.byte	0x93
 6763 0a35 01       		.uleb128 0x1
 6764 0a36 91       		.byte	0x91
 6765 0a37 847F     		.sleb128 -124
 6766 0a39 93       		.byte	0x93
 6767 0a3a 01       		.uleb128 0x1
 6768 0a3b 91       		.byte	0x91
 6769 0a3c C47E     		.sleb128 -188
 6770 0a3e 93       		.byte	0x93
 6771 0a3f 01       		.uleb128 0x1
 6772 0a40 91       		.byte	0x91
 6773 0a41 887F     		.sleb128 -120
 6774 0a43 93       		.byte	0x93
 6775 0a44 01       		.uleb128 0x1
 6776 0a45 91       		.byte	0x91
 6777 0a46 8C7F     		.sleb128 -116
 6778 0a48 93       		.byte	0x93
 6779 0a49 01       		.uleb128 0x1
 6780 0a4a 91       		.byte	0x91
 6781 0a4b 907F     		.sleb128 -112
 6782 0a4d 93       		.byte	0x93
 6783 0a4e 01       		.uleb128 0x1
 6784 0a4f 5A       		.byte	0x5a
 6785 0a50 93       		.byte	0x93
 6786 0a51 01       		.uleb128 0x1
 6787 0a52 91       		.byte	0x91
 6788 0a53 C87E     		.sleb128 -184
 6789 0a55 93       		.byte	0x93
 6790 0a56 01       		.uleb128 0x1
 6791 0a57 91       		.byte	0x91
 6792 0a58 947F     		.sleb128 -108
 6793 0a5a 93       		.byte	0x93
 6794 0a5b 01       		.uleb128 0x1
 6795 0a5c 93       		.byte	0x93
 6796 0a5d 01       		.uleb128 0x1
 6797 0a5e 91       		.byte	0x91
 6798 0a5f CC7E     		.sleb128 -180
 6799 0a61 93       		.byte	0x93
 6800 0a62 01       		.uleb128 0x1
 6801 0a63 91       		.byte	0x91
ARM GAS  C:\Users\EBANO_~1\AppData\Local\Temp\ccMXEZix.s 			page 137


 6802 0a64 D07E     		.sleb128 -176
 6803 0a66 93       		.byte	0x93
 6804 0a67 01       		.uleb128 0x1
 6805 0a68 53       		.byte	0x53
 6806 0a69 93       		.byte	0x93
 6807 0a6a 01       		.uleb128 0x1
 6808 0a6b 74010000 		.4byte	.LVL24
 6809 0a6f 84010000 		.4byte	.LVL25
 6810 0a73 4700     		.2byte	0x47
 6811 0a75 5B       		.byte	0x5b
 6812 0a76 93       		.byte	0x93
 6813 0a77 01       		.uleb128 0x1
 6814 0a78 91       		.byte	0x91
 6815 0a79 F87E     		.sleb128 -136
 6816 0a7b 93       		.byte	0x93
 6817 0a7c 01       		.uleb128 0x1
 6818 0a7d 91       		.byte	0x91
 6819 0a7e FC7E     		.sleb128 -132
 6820 0a80 93       		.byte	0x93
 6821 0a81 01       		.uleb128 0x1
 6822 0a82 91       		.byte	0x91
 6823 0a83 807F     		.sleb128 -128
 6824 0a85 93       		.byte	0x93
 6825 0a86 01       		.uleb128 0x1
 6826 0a87 91       		.byte	0x91
 6827 0a88 847F     		.sleb128 -124
 6828 0a8a 93       		.byte	0x93
 6829 0a8b 01       		.uleb128 0x1
 6830 0a8c 91       		.byte	0x91
 6831 0a8d C47E     		.sleb128 -188
 6832 0a8f 93       		.byte	0x93
 6833 0a90 01       		.uleb128 0x1
 6834 0a91 91       		.byte	0x91
 6835 0a92 887F     		.sleb128 -120
 6836 0a94 93       		.byte	0x93
 6837 0a95 01       		.uleb128 0x1
 6838 0a96 91       		.byte	0x91
 6839 0a97 8C7F     		.sleb128 -116
 6840 0a99 93       		.byte	0x93
 6841 0a9a 01       		.uleb128 0x1
 6842 0a9b 91       		.byte	0x91
 6843 0a9c 907F     		.sleb128 -112
 6844 0a9e 93       		.byte	0x93
 6845 0a9f 01       		.uleb128 0x1
 6846 0aa0 5A       		.byte	0x5a
 6847 0aa1 93       		.byte	0x93
 6848 0aa2 01       		.uleb128 0x1
 6849 0aa3 91       		.byte	0x91
 6850 0aa4 C87E     		.sleb128 -184
 6851 0aa6 93       		.byte	0x93
 6852 0aa7 01       		.uleb128 0x1
 6853 0aa8 91       		.byte	0x91
 6854 0aa9 947F     		.sleb128 -108
 6855 0aab 93       		.byte	0x93
 6856 0aac 01       		.uleb128 0x1
 6857 0aad 93       		.byte	0x93
 6858 0aae 01       		.uleb128 0x1
ARM GAS  C:\Users\EBANO_~1\AppData\Local\Temp\ccMXEZix.s 			page 138


 6859 0aaf 91       		.byte	0x91
 6860 0ab0 CC7E     		.sleb128 -180
 6861 0ab2 93       		.byte	0x93
 6862 0ab3 01       		.uleb128 0x1
 6863 0ab4 91       		.byte	0x91
 6864 0ab5 D07E     		.sleb128 -176
 6865 0ab7 93       		.byte	0x93
 6866 0ab8 01       		.uleb128 0x1
 6867 0ab9 53       		.byte	0x53
 6868 0aba 93       		.byte	0x93
 6869 0abb 01       		.uleb128 0x1
 6870 0abc 84010000 		.4byte	.LVL25
 6871 0ac0 8C010000 		.4byte	.LVL26
 6872 0ac4 4600     		.2byte	0x46
 6873 0ac6 5B       		.byte	0x5b
 6874 0ac7 93       		.byte	0x93
 6875 0ac8 01       		.uleb128 0x1
 6876 0ac9 91       		.byte	0x91
 6877 0aca F87E     		.sleb128 -136
 6878 0acc 93       		.byte	0x93
 6879 0acd 01       		.uleb128 0x1
 6880 0ace 91       		.byte	0x91
 6881 0acf FC7E     		.sleb128 -132
 6882 0ad1 93       		.byte	0x93
 6883 0ad2 01       		.uleb128 0x1
 6884 0ad3 91       		.byte	0x91
 6885 0ad4 807F     		.sleb128 -128
 6886 0ad6 93       		.byte	0x93
 6887 0ad7 01       		.uleb128 0x1
 6888 0ad8 91       		.byte	0x91
 6889 0ad9 847F     		.sleb128 -124
 6890 0adb 93       		.byte	0x93
 6891 0adc 01       		.uleb128 0x1
 6892 0add 91       		.byte	0x91
 6893 0ade C47E     		.sleb128 -188
 6894 0ae0 93       		.byte	0x93
 6895 0ae1 01       		.uleb128 0x1
 6896 0ae2 91       		.byte	0x91
 6897 0ae3 887F     		.sleb128 -120
 6898 0ae5 93       		.byte	0x93
 6899 0ae6 01       		.uleb128 0x1
 6900 0ae7 91       		.byte	0x91
 6901 0ae8 8C7F     		.sleb128 -116
 6902 0aea 93       		.byte	0x93
 6903 0aeb 01       		.uleb128 0x1
 6904 0aec 91       		.byte	0x91
 6905 0aed 907F     		.sleb128 -112
 6906 0aef 93       		.byte	0x93
 6907 0af0 01       		.uleb128 0x1
 6908 0af1 5A       		.byte	0x5a
 6909 0af2 93       		.byte	0x93
 6910 0af3 01       		.uleb128 0x1
 6911 0af4 91       		.byte	0x91
 6912 0af5 C87E     		.sleb128 -184
 6913 0af7 93       		.byte	0x93
 6914 0af8 01       		.uleb128 0x1
 6915 0af9 91       		.byte	0x91
ARM GAS  C:\Users\EBANO_~1\AppData\Local\Temp\ccMXEZix.s 			page 139


 6916 0afa 947F     		.sleb128 -108
 6917 0afc 93       		.byte	0x93
 6918 0afd 01       		.uleb128 0x1
 6919 0afe 93       		.byte	0x93
 6920 0aff 01       		.uleb128 0x1
 6921 0b00 91       		.byte	0x91
 6922 0b01 CC7E     		.sleb128 -180
 6923 0b03 93       		.byte	0x93
 6924 0b04 01       		.uleb128 0x1
 6925 0b05 91       		.byte	0x91
 6926 0b06 D07E     		.sleb128 -176
 6927 0b08 93       		.byte	0x93
 6928 0b09 01       		.uleb128 0x1
 6929 0b0a 93       		.byte	0x93
 6930 0b0b 01       		.uleb128 0x1
 6931 0b0c 8C010000 		.4byte	.LVL26
 6932 0b10 A0010000 		.4byte	.LVL27
 6933 0b14 4600     		.2byte	0x46
 6934 0b16 5B       		.byte	0x5b
 6935 0b17 93       		.byte	0x93
 6936 0b18 01       		.uleb128 0x1
 6937 0b19 91       		.byte	0x91
 6938 0b1a F87E     		.sleb128 -136
 6939 0b1c 93       		.byte	0x93
 6940 0b1d 01       		.uleb128 0x1
 6941 0b1e 91       		.byte	0x91
 6942 0b1f FC7E     		.sleb128 -132
 6943 0b21 93       		.byte	0x93
 6944 0b22 01       		.uleb128 0x1
 6945 0b23 91       		.byte	0x91
 6946 0b24 807F     		.sleb128 -128
 6947 0b26 93       		.byte	0x93
 6948 0b27 01       		.uleb128 0x1
 6949 0b28 91       		.byte	0x91
 6950 0b29 847F     		.sleb128 -124
 6951 0b2b 93       		.byte	0x93
 6952 0b2c 01       		.uleb128 0x1
 6953 0b2d 91       		.byte	0x91
 6954 0b2e C47E     		.sleb128 -188
 6955 0b30 93       		.byte	0x93
 6956 0b31 01       		.uleb128 0x1
 6957 0b32 91       		.byte	0x91
 6958 0b33 887F     		.sleb128 -120
 6959 0b35 93       		.byte	0x93
 6960 0b36 01       		.uleb128 0x1
 6961 0b37 91       		.byte	0x91
 6962 0b38 8C7F     		.sleb128 -116
 6963 0b3a 93       		.byte	0x93
 6964 0b3b 01       		.uleb128 0x1
 6965 0b3c 91       		.byte	0x91
 6966 0b3d 907F     		.sleb128 -112
 6967 0b3f 93       		.byte	0x93
 6968 0b40 01       		.uleb128 0x1
 6969 0b41 5A       		.byte	0x5a
 6970 0b42 93       		.byte	0x93
 6971 0b43 01       		.uleb128 0x1
 6972 0b44 91       		.byte	0x91
ARM GAS  C:\Users\EBANO_~1\AppData\Local\Temp\ccMXEZix.s 			page 140


 6973 0b45 C87E     		.sleb128 -184
 6974 0b47 93       		.byte	0x93
 6975 0b48 01       		.uleb128 0x1
 6976 0b49 91       		.byte	0x91
 6977 0b4a 947F     		.sleb128 -108
 6978 0b4c 93       		.byte	0x93
 6979 0b4d 01       		.uleb128 0x1
 6980 0b4e 93       		.byte	0x93
 6981 0b4f 01       		.uleb128 0x1
 6982 0b50 91       		.byte	0x91
 6983 0b51 CC7E     		.sleb128 -180
 6984 0b53 93       		.byte	0x93
 6985 0b54 01       		.uleb128 0x1
 6986 0b55 91       		.byte	0x91
 6987 0b56 D07E     		.sleb128 -176
 6988 0b58 93       		.byte	0x93
 6989 0b59 01       		.uleb128 0x1
 6990 0b5a 93       		.byte	0x93
 6991 0b5b 01       		.uleb128 0x1
 6992 0b5c A0010000 		.4byte	.LVL27
 6993 0b60 BA010000 		.4byte	.LVL28
 6994 0b64 4600     		.2byte	0x46
 6995 0b66 5B       		.byte	0x5b
 6996 0b67 93       		.byte	0x93
 6997 0b68 01       		.uleb128 0x1
 6998 0b69 91       		.byte	0x91
 6999 0b6a F87E     		.sleb128 -136
 7000 0b6c 93       		.byte	0x93
 7001 0b6d 01       		.uleb128 0x1
 7002 0b6e 91       		.byte	0x91
 7003 0b6f FC7E     		.sleb128 -132
 7004 0b71 93       		.byte	0x93
 7005 0b72 01       		.uleb128 0x1
 7006 0b73 91       		.byte	0x91
 7007 0b74 807F     		.sleb128 -128
 7008 0b76 93       		.byte	0x93
 7009 0b77 01       		.uleb128 0x1
 7010 0b78 91       		.byte	0x91
 7011 0b79 847F     		.sleb128 -124
 7012 0b7b 93       		.byte	0x93
 7013 0b7c 01       		.uleb128 0x1
 7014 0b7d 91       		.byte	0x91
 7015 0b7e C47E     		.sleb128 -188
 7016 0b80 93       		.byte	0x93
 7017 0b81 01       		.uleb128 0x1
 7018 0b82 91       		.byte	0x91
 7019 0b83 887F     		.sleb128 -120
 7020 0b85 93       		.byte	0x93
 7021 0b86 01       		.uleb128 0x1
 7022 0b87 91       		.byte	0x91
 7023 0b88 8C7F     		.sleb128 -116
 7024 0b8a 93       		.byte	0x93
 7025 0b8b 01       		.uleb128 0x1
 7026 0b8c 91       		.byte	0x91
 7027 0b8d 907F     		.sleb128 -112
 7028 0b8f 93       		.byte	0x93
 7029 0b90 01       		.uleb128 0x1
ARM GAS  C:\Users\EBANO_~1\AppData\Local\Temp\ccMXEZix.s 			page 141


 7030 0b91 5A       		.byte	0x5a
 7031 0b92 93       		.byte	0x93
 7032 0b93 01       		.uleb128 0x1
 7033 0b94 91       		.byte	0x91
 7034 0b95 C87E     		.sleb128 -184
 7035 0b97 93       		.byte	0x93
 7036 0b98 01       		.uleb128 0x1
 7037 0b99 91       		.byte	0x91
 7038 0b9a 947F     		.sleb128 -108
 7039 0b9c 93       		.byte	0x93
 7040 0b9d 01       		.uleb128 0x1
 7041 0b9e 93       		.byte	0x93
 7042 0b9f 01       		.uleb128 0x1
 7043 0ba0 91       		.byte	0x91
 7044 0ba1 CC7E     		.sleb128 -180
 7045 0ba3 93       		.byte	0x93
 7046 0ba4 01       		.uleb128 0x1
 7047 0ba5 91       		.byte	0x91
 7048 0ba6 D07E     		.sleb128 -176
 7049 0ba8 93       		.byte	0x93
 7050 0ba9 01       		.uleb128 0x1
 7051 0baa 93       		.byte	0x93
 7052 0bab 01       		.uleb128 0x1
 7053 0bac BA010000 		.4byte	.LVL28
 7054 0bb0 D0010000 		.4byte	.LVL29
 7055 0bb4 4600     		.2byte	0x46
 7056 0bb6 5B       		.byte	0x5b
 7057 0bb7 93       		.byte	0x93
 7058 0bb8 01       		.uleb128 0x1
 7059 0bb9 91       		.byte	0x91
 7060 0bba F87E     		.sleb128 -136
 7061 0bbc 93       		.byte	0x93
 7062 0bbd 01       		.uleb128 0x1
 7063 0bbe 91       		.byte	0x91
 7064 0bbf FC7E     		.sleb128 -132
 7065 0bc1 93       		.byte	0x93
 7066 0bc2 01       		.uleb128 0x1
 7067 0bc3 91       		.byte	0x91
 7068 0bc4 807F     		.sleb128 -128
 7069 0bc6 93       		.byte	0x93
 7070 0bc7 01       		.uleb128 0x1
 7071 0bc8 91       		.byte	0x91
 7072 0bc9 847F     		.sleb128 -124
 7073 0bcb 93       		.byte	0x93
 7074 0bcc 01       		.uleb128 0x1
 7075 0bcd 91       		.byte	0x91
 7076 0bce C47E     		.sleb128 -188
 7077 0bd0 93       		.byte	0x93
 7078 0bd1 01       		.uleb128 0x1
 7079 0bd2 91       		.byte	0x91
 7080 0bd3 887F     		.sleb128 -120
 7081 0bd5 93       		.byte	0x93
 7082 0bd6 01       		.uleb128 0x1
 7083 0bd7 91       		.byte	0x91
 7084 0bd8 8C7F     		.sleb128 -116
 7085 0bda 93       		.byte	0x93
 7086 0bdb 01       		.uleb128 0x1
ARM GAS  C:\Users\EBANO_~1\AppData\Local\Temp\ccMXEZix.s 			page 142


 7087 0bdc 91       		.byte	0x91
 7088 0bdd 907F     		.sleb128 -112
 7089 0bdf 93       		.byte	0x93
 7090 0be0 01       		.uleb128 0x1
 7091 0be1 5A       		.byte	0x5a
 7092 0be2 93       		.byte	0x93
 7093 0be3 01       		.uleb128 0x1
 7094 0be4 91       		.byte	0x91
 7095 0be5 C87E     		.sleb128 -184
 7096 0be7 93       		.byte	0x93
 7097 0be8 01       		.uleb128 0x1
 7098 0be9 91       		.byte	0x91
 7099 0bea 947F     		.sleb128 -108
 7100 0bec 93       		.byte	0x93
 7101 0bed 01       		.uleb128 0x1
 7102 0bee 93       		.byte	0x93
 7103 0bef 01       		.uleb128 0x1
 7104 0bf0 91       		.byte	0x91
 7105 0bf1 CC7E     		.sleb128 -180
 7106 0bf3 93       		.byte	0x93
 7107 0bf4 01       		.uleb128 0x1
 7108 0bf5 91       		.byte	0x91
 7109 0bf6 D07E     		.sleb128 -176
 7110 0bf8 93       		.byte	0x93
 7111 0bf9 01       		.uleb128 0x1
 7112 0bfa 93       		.byte	0x93
 7113 0bfb 01       		.uleb128 0x1
 7114 0bfc D0010000 		.4byte	.LVL29
 7115 0c00 EA010000 		.4byte	.LVL30
 7116 0c04 4600     		.2byte	0x46
 7117 0c06 5B       		.byte	0x5b
 7118 0c07 93       		.byte	0x93
 7119 0c08 01       		.uleb128 0x1
 7120 0c09 91       		.byte	0x91
 7121 0c0a F87E     		.sleb128 -136
 7122 0c0c 93       		.byte	0x93
 7123 0c0d 01       		.uleb128 0x1
 7124 0c0e 91       		.byte	0x91
 7125 0c0f FC7E     		.sleb128 -132
 7126 0c11 93       		.byte	0x93
 7127 0c12 01       		.uleb128 0x1
 7128 0c13 91       		.byte	0x91
 7129 0c14 807F     		.sleb128 -128
 7130 0c16 93       		.byte	0x93
 7131 0c17 01       		.uleb128 0x1
 7132 0c18 91       		.byte	0x91
 7133 0c19 847F     		.sleb128 -124
 7134 0c1b 93       		.byte	0x93
 7135 0c1c 01       		.uleb128 0x1
 7136 0c1d 91       		.byte	0x91
 7137 0c1e C47E     		.sleb128 -188
 7138 0c20 93       		.byte	0x93
 7139 0c21 01       		.uleb128 0x1
 7140 0c22 91       		.byte	0x91
 7141 0c23 887F     		.sleb128 -120
 7142 0c25 93       		.byte	0x93
 7143 0c26 01       		.uleb128 0x1
ARM GAS  C:\Users\EBANO_~1\AppData\Local\Temp\ccMXEZix.s 			page 143


 7144 0c27 91       		.byte	0x91
 7145 0c28 8C7F     		.sleb128 -116
 7146 0c2a 93       		.byte	0x93
 7147 0c2b 01       		.uleb128 0x1
 7148 0c2c 91       		.byte	0x91
 7149 0c2d 907F     		.sleb128 -112
 7150 0c2f 93       		.byte	0x93
 7151 0c30 01       		.uleb128 0x1
 7152 0c31 5A       		.byte	0x5a
 7153 0c32 93       		.byte	0x93
 7154 0c33 01       		.uleb128 0x1
 7155 0c34 91       		.byte	0x91
 7156 0c35 C87E     		.sleb128 -184
 7157 0c37 93       		.byte	0x93
 7158 0c38 01       		.uleb128 0x1
 7159 0c39 91       		.byte	0x91
 7160 0c3a 947F     		.sleb128 -108
 7161 0c3c 93       		.byte	0x93
 7162 0c3d 01       		.uleb128 0x1
 7163 0c3e 93       		.byte	0x93
 7164 0c3f 01       		.uleb128 0x1
 7165 0c40 91       		.byte	0x91
 7166 0c41 CC7E     		.sleb128 -180
 7167 0c43 93       		.byte	0x93
 7168 0c44 01       		.uleb128 0x1
 7169 0c45 91       		.byte	0x91
 7170 0c46 D07E     		.sleb128 -176
 7171 0c48 93       		.byte	0x93
 7172 0c49 01       		.uleb128 0x1
 7173 0c4a 93       		.byte	0x93
 7174 0c4b 01       		.uleb128 0x1
 7175 0c4c EA010000 		.4byte	.LVL30
 7176 0c50 FC010000 		.4byte	.LVL31
 7177 0c54 4600     		.2byte	0x46
 7178 0c56 5B       		.byte	0x5b
 7179 0c57 93       		.byte	0x93
 7180 0c58 01       		.uleb128 0x1
 7181 0c59 91       		.byte	0x91
 7182 0c5a F87E     		.sleb128 -136
 7183 0c5c 93       		.byte	0x93
 7184 0c5d 01       		.uleb128 0x1
 7185 0c5e 91       		.byte	0x91
 7186 0c5f FC7E     		.sleb128 -132
 7187 0c61 93       		.byte	0x93
 7188 0c62 01       		.uleb128 0x1
 7189 0c63 91       		.byte	0x91
 7190 0c64 807F     		.sleb128 -128
 7191 0c66 93       		.byte	0x93
 7192 0c67 01       		.uleb128 0x1
 7193 0c68 91       		.byte	0x91
 7194 0c69 847F     		.sleb128 -124
 7195 0c6b 93       		.byte	0x93
 7196 0c6c 01       		.uleb128 0x1
 7197 0c6d 91       		.byte	0x91
 7198 0c6e C47E     		.sleb128 -188
 7199 0c70 93       		.byte	0x93
 7200 0c71 01       		.uleb128 0x1
ARM GAS  C:\Users\EBANO_~1\AppData\Local\Temp\ccMXEZix.s 			page 144


 7201 0c72 91       		.byte	0x91
 7202 0c73 887F     		.sleb128 -120
 7203 0c75 93       		.byte	0x93
 7204 0c76 01       		.uleb128 0x1
 7205 0c77 91       		.byte	0x91
 7206 0c78 8C7F     		.sleb128 -116
 7207 0c7a 93       		.byte	0x93
 7208 0c7b 01       		.uleb128 0x1
 7209 0c7c 91       		.byte	0x91
 7210 0c7d 907F     		.sleb128 -112
 7211 0c7f 93       		.byte	0x93
 7212 0c80 01       		.uleb128 0x1
 7213 0c81 5A       		.byte	0x5a
 7214 0c82 93       		.byte	0x93
 7215 0c83 01       		.uleb128 0x1
 7216 0c84 91       		.byte	0x91
 7217 0c85 C87E     		.sleb128 -184
 7218 0c87 93       		.byte	0x93
 7219 0c88 01       		.uleb128 0x1
 7220 0c89 91       		.byte	0x91
 7221 0c8a 947F     		.sleb128 -108
 7222 0c8c 93       		.byte	0x93
 7223 0c8d 01       		.uleb128 0x1
 7224 0c8e 93       		.byte	0x93
 7225 0c8f 01       		.uleb128 0x1
 7226 0c90 91       		.byte	0x91
 7227 0c91 CC7E     		.sleb128 -180
 7228 0c93 93       		.byte	0x93
 7229 0c94 01       		.uleb128 0x1
 7230 0c95 91       		.byte	0x91
 7231 0c96 D07E     		.sleb128 -176
 7232 0c98 93       		.byte	0x93
 7233 0c99 01       		.uleb128 0x1
 7234 0c9a 93       		.byte	0x93
 7235 0c9b 01       		.uleb128 0x1
 7236 0c9c FC010000 		.4byte	.LVL31
 7237 0ca0 14020000 		.4byte	.LVL32
 7238 0ca4 4600     		.2byte	0x46
 7239 0ca6 5B       		.byte	0x5b
 7240 0ca7 93       		.byte	0x93
 7241 0ca8 01       		.uleb128 0x1
 7242 0ca9 91       		.byte	0x91
 7243 0caa F87E     		.sleb128 -136
 7244 0cac 93       		.byte	0x93
 7245 0cad 01       		.uleb128 0x1
 7246 0cae 91       		.byte	0x91
 7247 0caf FC7E     		.sleb128 -132
 7248 0cb1 93       		.byte	0x93
 7249 0cb2 01       		.uleb128 0x1
 7250 0cb3 91       		.byte	0x91
 7251 0cb4 807F     		.sleb128 -128
 7252 0cb6 93       		.byte	0x93
 7253 0cb7 01       		.uleb128 0x1
 7254 0cb8 91       		.byte	0x91
 7255 0cb9 847F     		.sleb128 -124
 7256 0cbb 93       		.byte	0x93
 7257 0cbc 01       		.uleb128 0x1
ARM GAS  C:\Users\EBANO_~1\AppData\Local\Temp\ccMXEZix.s 			page 145


 7258 0cbd 91       		.byte	0x91
 7259 0cbe C47E     		.sleb128 -188
 7260 0cc0 93       		.byte	0x93
 7261 0cc1 01       		.uleb128 0x1
 7262 0cc2 91       		.byte	0x91
 7263 0cc3 887F     		.sleb128 -120
 7264 0cc5 93       		.byte	0x93
 7265 0cc6 01       		.uleb128 0x1
 7266 0cc7 91       		.byte	0x91
 7267 0cc8 8C7F     		.sleb128 -116
 7268 0cca 93       		.byte	0x93
 7269 0ccb 01       		.uleb128 0x1
 7270 0ccc 91       		.byte	0x91
 7271 0ccd 907F     		.sleb128 -112
 7272 0ccf 93       		.byte	0x93
 7273 0cd0 01       		.uleb128 0x1
 7274 0cd1 5A       		.byte	0x5a
 7275 0cd2 93       		.byte	0x93
 7276 0cd3 01       		.uleb128 0x1
 7277 0cd4 91       		.byte	0x91
 7278 0cd5 C87E     		.sleb128 -184
 7279 0cd7 93       		.byte	0x93
 7280 0cd8 01       		.uleb128 0x1
 7281 0cd9 91       		.byte	0x91
 7282 0cda 947F     		.sleb128 -108
 7283 0cdc 93       		.byte	0x93
 7284 0cdd 01       		.uleb128 0x1
 7285 0cde 93       		.byte	0x93
 7286 0cdf 01       		.uleb128 0x1
 7287 0ce0 91       		.byte	0x91
 7288 0ce1 CC7E     		.sleb128 -180
 7289 0ce3 93       		.byte	0x93
 7290 0ce4 01       		.uleb128 0x1
 7291 0ce5 91       		.byte	0x91
 7292 0ce6 D07E     		.sleb128 -176
 7293 0ce8 93       		.byte	0x93
 7294 0ce9 01       		.uleb128 0x1
 7295 0cea 93       		.byte	0x93
 7296 0ceb 01       		.uleb128 0x1
 7297 0cec 14020000 		.4byte	.LVL32
 7298 0cf0 2C020000 		.4byte	.LVL33
 7299 0cf4 4600     		.2byte	0x46
 7300 0cf6 5B       		.byte	0x5b
 7301 0cf7 93       		.byte	0x93
 7302 0cf8 01       		.uleb128 0x1
 7303 0cf9 91       		.byte	0x91
 7304 0cfa F87E     		.sleb128 -136
 7305 0cfc 93       		.byte	0x93
 7306 0cfd 01       		.uleb128 0x1
 7307 0cfe 91       		.byte	0x91
 7308 0cff FC7E     		.sleb128 -132
 7309 0d01 93       		.byte	0x93
 7310 0d02 01       		.uleb128 0x1
 7311 0d03 91       		.byte	0x91
 7312 0d04 807F     		.sleb128 -128
 7313 0d06 93       		.byte	0x93
 7314 0d07 01       		.uleb128 0x1
ARM GAS  C:\Users\EBANO_~1\AppData\Local\Temp\ccMXEZix.s 			page 146


 7315 0d08 91       		.byte	0x91
 7316 0d09 847F     		.sleb128 -124
 7317 0d0b 93       		.byte	0x93
 7318 0d0c 01       		.uleb128 0x1
 7319 0d0d 91       		.byte	0x91
 7320 0d0e C47E     		.sleb128 -188
 7321 0d10 93       		.byte	0x93
 7322 0d11 01       		.uleb128 0x1
 7323 0d12 91       		.byte	0x91
 7324 0d13 887F     		.sleb128 -120
 7325 0d15 93       		.byte	0x93
 7326 0d16 01       		.uleb128 0x1
 7327 0d17 91       		.byte	0x91
 7328 0d18 8C7F     		.sleb128 -116
 7329 0d1a 93       		.byte	0x93
 7330 0d1b 01       		.uleb128 0x1
 7331 0d1c 91       		.byte	0x91
 7332 0d1d 907F     		.sleb128 -112
 7333 0d1f 93       		.byte	0x93
 7334 0d20 01       		.uleb128 0x1
 7335 0d21 5A       		.byte	0x5a
 7336 0d22 93       		.byte	0x93
 7337 0d23 01       		.uleb128 0x1
 7338 0d24 91       		.byte	0x91
 7339 0d25 C87E     		.sleb128 -184
 7340 0d27 93       		.byte	0x93
 7341 0d28 01       		.uleb128 0x1
 7342 0d29 91       		.byte	0x91
 7343 0d2a 947F     		.sleb128 -108
 7344 0d2c 93       		.byte	0x93
 7345 0d2d 01       		.uleb128 0x1
 7346 0d2e 93       		.byte	0x93
 7347 0d2f 01       		.uleb128 0x1
 7348 0d30 91       		.byte	0x91
 7349 0d31 CC7E     		.sleb128 -180
 7350 0d33 93       		.byte	0x93
 7351 0d34 01       		.uleb128 0x1
 7352 0d35 91       		.byte	0x91
 7353 0d36 D07E     		.sleb128 -176
 7354 0d38 93       		.byte	0x93
 7355 0d39 01       		.uleb128 0x1
 7356 0d3a 93       		.byte	0x93
 7357 0d3b 01       		.uleb128 0x1
 7358 0d3c 2C020000 		.4byte	.LVL33
 7359 0d40 42020000 		.4byte	.LVL34
 7360 0d44 4600     		.2byte	0x46
 7361 0d46 5B       		.byte	0x5b
 7362 0d47 93       		.byte	0x93
 7363 0d48 01       		.uleb128 0x1
 7364 0d49 91       		.byte	0x91
 7365 0d4a F87E     		.sleb128 -136
 7366 0d4c 93       		.byte	0x93
 7367 0d4d 01       		.uleb128 0x1
 7368 0d4e 91       		.byte	0x91
 7369 0d4f FC7E     		.sleb128 -132
 7370 0d51 93       		.byte	0x93
 7371 0d52 01       		.uleb128 0x1
ARM GAS  C:\Users\EBANO_~1\AppData\Local\Temp\ccMXEZix.s 			page 147


 7372 0d53 91       		.byte	0x91
 7373 0d54 807F     		.sleb128 -128
 7374 0d56 93       		.byte	0x93
 7375 0d57 01       		.uleb128 0x1
 7376 0d58 91       		.byte	0x91
 7377 0d59 847F     		.sleb128 -124
 7378 0d5b 93       		.byte	0x93
 7379 0d5c 01       		.uleb128 0x1
 7380 0d5d 91       		.byte	0x91
 7381 0d5e C47E     		.sleb128 -188
 7382 0d60 93       		.byte	0x93
 7383 0d61 01       		.uleb128 0x1
 7384 0d62 91       		.byte	0x91
 7385 0d63 887F     		.sleb128 -120
 7386 0d65 93       		.byte	0x93
 7387 0d66 01       		.uleb128 0x1
 7388 0d67 91       		.byte	0x91
 7389 0d68 8C7F     		.sleb128 -116
 7390 0d6a 93       		.byte	0x93
 7391 0d6b 01       		.uleb128 0x1
 7392 0d6c 91       		.byte	0x91
 7393 0d6d 907F     		.sleb128 -112
 7394 0d6f 93       		.byte	0x93
 7395 0d70 01       		.uleb128 0x1
 7396 0d71 5A       		.byte	0x5a
 7397 0d72 93       		.byte	0x93
 7398 0d73 01       		.uleb128 0x1
 7399 0d74 91       		.byte	0x91
 7400 0d75 C87E     		.sleb128 -184
 7401 0d77 93       		.byte	0x93
 7402 0d78 01       		.uleb128 0x1
 7403 0d79 91       		.byte	0x91
 7404 0d7a 947F     		.sleb128 -108
 7405 0d7c 93       		.byte	0x93
 7406 0d7d 01       		.uleb128 0x1
 7407 0d7e 93       		.byte	0x93
 7408 0d7f 01       		.uleb128 0x1
 7409 0d80 91       		.byte	0x91
 7410 0d81 CC7E     		.sleb128 -180
 7411 0d83 93       		.byte	0x93
 7412 0d84 01       		.uleb128 0x1
 7413 0d85 91       		.byte	0x91
 7414 0d86 D07E     		.sleb128 -176
 7415 0d88 93       		.byte	0x93
 7416 0d89 01       		.uleb128 0x1
 7417 0d8a 93       		.byte	0x93
 7418 0d8b 01       		.uleb128 0x1
 7419 0d8c 42020000 		.4byte	.LVL34
 7420 0d90 58020000 		.4byte	.LVL35
 7421 0d94 4600     		.2byte	0x46
 7422 0d96 5B       		.byte	0x5b
 7423 0d97 93       		.byte	0x93
 7424 0d98 01       		.uleb128 0x1
 7425 0d99 91       		.byte	0x91
 7426 0d9a F87E     		.sleb128 -136
 7427 0d9c 93       		.byte	0x93
 7428 0d9d 01       		.uleb128 0x1
ARM GAS  C:\Users\EBANO_~1\AppData\Local\Temp\ccMXEZix.s 			page 148


 7429 0d9e 91       		.byte	0x91
 7430 0d9f FC7E     		.sleb128 -132
 7431 0da1 93       		.byte	0x93
 7432 0da2 01       		.uleb128 0x1
 7433 0da3 91       		.byte	0x91
 7434 0da4 807F     		.sleb128 -128
 7435 0da6 93       		.byte	0x93
 7436 0da7 01       		.uleb128 0x1
 7437 0da8 91       		.byte	0x91
 7438 0da9 847F     		.sleb128 -124
 7439 0dab 93       		.byte	0x93
 7440 0dac 01       		.uleb128 0x1
 7441 0dad 91       		.byte	0x91
 7442 0dae C47E     		.sleb128 -188
 7443 0db0 93       		.byte	0x93
 7444 0db1 01       		.uleb128 0x1
 7445 0db2 91       		.byte	0x91
 7446 0db3 887F     		.sleb128 -120
 7447 0db5 93       		.byte	0x93
 7448 0db6 01       		.uleb128 0x1
 7449 0db7 91       		.byte	0x91
 7450 0db8 8C7F     		.sleb128 -116
 7451 0dba 93       		.byte	0x93
 7452 0dbb 01       		.uleb128 0x1
 7453 0dbc 91       		.byte	0x91
 7454 0dbd 907F     		.sleb128 -112
 7455 0dbf 93       		.byte	0x93
 7456 0dc0 01       		.uleb128 0x1
 7457 0dc1 5A       		.byte	0x5a
 7458 0dc2 93       		.byte	0x93
 7459 0dc3 01       		.uleb128 0x1
 7460 0dc4 91       		.byte	0x91
 7461 0dc5 C87E     		.sleb128 -184
 7462 0dc7 93       		.byte	0x93
 7463 0dc8 01       		.uleb128 0x1
 7464 0dc9 91       		.byte	0x91
 7465 0dca 947F     		.sleb128 -108
 7466 0dcc 93       		.byte	0x93
 7467 0dcd 01       		.uleb128 0x1
 7468 0dce 93       		.byte	0x93
 7469 0dcf 01       		.uleb128 0x1
 7470 0dd0 91       		.byte	0x91
 7471 0dd1 CC7E     		.sleb128 -180
 7472 0dd3 93       		.byte	0x93
 7473 0dd4 01       		.uleb128 0x1
 7474 0dd5 91       		.byte	0x91
 7475 0dd6 D07E     		.sleb128 -176
 7476 0dd8 93       		.byte	0x93
 7477 0dd9 01       		.uleb128 0x1
 7478 0dda 93       		.byte	0x93
 7479 0ddb 01       		.uleb128 0x1
 7480 0ddc 58020000 		.4byte	.LVL35
 7481 0de0 76020000 		.4byte	.LVL36
 7482 0de4 4900     		.2byte	0x49
 7483 0de6 5B       		.byte	0x5b
 7484 0de7 93       		.byte	0x93
 7485 0de8 01       		.uleb128 0x1
ARM GAS  C:\Users\EBANO_~1\AppData\Local\Temp\ccMXEZix.s 			page 149


 7486 0de9 91       		.byte	0x91
 7487 0dea F87E     		.sleb128 -136
 7488 0dec 93       		.byte	0x93
 7489 0ded 01       		.uleb128 0x1
 7490 0dee 91       		.byte	0x91
 7491 0def FC7E     		.sleb128 -132
 7492 0df1 93       		.byte	0x93
 7493 0df2 01       		.uleb128 0x1
 7494 0df3 91       		.byte	0x91
 7495 0df4 807F     		.sleb128 -128
 7496 0df6 93       		.byte	0x93
 7497 0df7 01       		.uleb128 0x1
 7498 0df8 91       		.byte	0x91
 7499 0df9 847F     		.sleb128 -124
 7500 0dfb 93       		.byte	0x93
 7501 0dfc 01       		.uleb128 0x1
 7502 0dfd 91       		.byte	0x91
 7503 0dfe C47E     		.sleb128 -188
 7504 0e00 93       		.byte	0x93
 7505 0e01 01       		.uleb128 0x1
 7506 0e02 91       		.byte	0x91
 7507 0e03 887F     		.sleb128 -120
 7508 0e05 93       		.byte	0x93
 7509 0e06 01       		.uleb128 0x1
 7510 0e07 91       		.byte	0x91
 7511 0e08 8C7F     		.sleb128 -116
 7512 0e0a 93       		.byte	0x93
 7513 0e0b 01       		.uleb128 0x1
 7514 0e0c 91       		.byte	0x91
 7515 0e0d 907F     		.sleb128 -112
 7516 0e0f 93       		.byte	0x93
 7517 0e10 01       		.uleb128 0x1
 7518 0e11 5A       		.byte	0x5a
 7519 0e12 93       		.byte	0x93
 7520 0e13 01       		.uleb128 0x1
 7521 0e14 91       		.byte	0x91
 7522 0e15 C87E     		.sleb128 -184
 7523 0e17 93       		.byte	0x93
 7524 0e18 01       		.uleb128 0x1
 7525 0e19 91       		.byte	0x91
 7526 0e1a 947F     		.sleb128 -108
 7527 0e1c 93       		.byte	0x93
 7528 0e1d 01       		.uleb128 0x1
 7529 0e1e 91       		.byte	0x91
 7530 0e1f F47E     		.sleb128 -140
 7531 0e21 93       		.byte	0x93
 7532 0e22 01       		.uleb128 0x1
 7533 0e23 91       		.byte	0x91
 7534 0e24 CC7E     		.sleb128 -180
 7535 0e26 93       		.byte	0x93
 7536 0e27 01       		.uleb128 0x1
 7537 0e28 91       		.byte	0x91
 7538 0e29 D07E     		.sleb128 -176
 7539 0e2b 93       		.byte	0x93
 7540 0e2c 01       		.uleb128 0x1
 7541 0e2d 93       		.byte	0x93
 7542 0e2e 01       		.uleb128 0x1
ARM GAS  C:\Users\EBANO_~1\AppData\Local\Temp\ccMXEZix.s 			page 150


 7543 0e2f 76020000 		.4byte	.LVL36
 7544 0e33 8C020000 		.4byte	.LVL37
 7545 0e37 4900     		.2byte	0x49
 7546 0e39 5B       		.byte	0x5b
 7547 0e3a 93       		.byte	0x93
 7548 0e3b 01       		.uleb128 0x1
 7549 0e3c 91       		.byte	0x91
 7550 0e3d F87E     		.sleb128 -136
 7551 0e3f 93       		.byte	0x93
 7552 0e40 01       		.uleb128 0x1
 7553 0e41 91       		.byte	0x91
 7554 0e42 FC7E     		.sleb128 -132
 7555 0e44 93       		.byte	0x93
 7556 0e45 01       		.uleb128 0x1
 7557 0e46 91       		.byte	0x91
 7558 0e47 807F     		.sleb128 -128
 7559 0e49 93       		.byte	0x93
 7560 0e4a 01       		.uleb128 0x1
 7561 0e4b 91       		.byte	0x91
 7562 0e4c 847F     		.sleb128 -124
 7563 0e4e 93       		.byte	0x93
 7564 0e4f 01       		.uleb128 0x1
 7565 0e50 91       		.byte	0x91
 7566 0e51 C47E     		.sleb128 -188
 7567 0e53 93       		.byte	0x93
 7568 0e54 01       		.uleb128 0x1
 7569 0e55 91       		.byte	0x91
 7570 0e56 887F     		.sleb128 -120
 7571 0e58 93       		.byte	0x93
 7572 0e59 01       		.uleb128 0x1
 7573 0e5a 91       		.byte	0x91
 7574 0e5b 8C7F     		.sleb128 -116
 7575 0e5d 93       		.byte	0x93
 7576 0e5e 01       		.uleb128 0x1
 7577 0e5f 91       		.byte	0x91
 7578 0e60 907F     		.sleb128 -112
 7579 0e62 93       		.byte	0x93
 7580 0e63 01       		.uleb128 0x1
 7581 0e64 5A       		.byte	0x5a
 7582 0e65 93       		.byte	0x93
 7583 0e66 01       		.uleb128 0x1
 7584 0e67 91       		.byte	0x91
 7585 0e68 C87E     		.sleb128 -184
 7586 0e6a 93       		.byte	0x93
 7587 0e6b 01       		.uleb128 0x1
 7588 0e6c 91       		.byte	0x91
 7589 0e6d 947F     		.sleb128 -108
 7590 0e6f 93       		.byte	0x93
 7591 0e70 01       		.uleb128 0x1
 7592 0e71 91       		.byte	0x91
 7593 0e72 F47E     		.sleb128 -140
 7594 0e74 93       		.byte	0x93
 7595 0e75 01       		.uleb128 0x1
 7596 0e76 91       		.byte	0x91
 7597 0e77 CC7E     		.sleb128 -180
 7598 0e79 93       		.byte	0x93
 7599 0e7a 01       		.uleb128 0x1
ARM GAS  C:\Users\EBANO_~1\AppData\Local\Temp\ccMXEZix.s 			page 151


 7600 0e7b 91       		.byte	0x91
 7601 0e7c D07E     		.sleb128 -176
 7602 0e7e 93       		.byte	0x93
 7603 0e7f 01       		.uleb128 0x1
 7604 0e80 93       		.byte	0x93
 7605 0e81 01       		.uleb128 0x1
 7606 0e82 8C020000 		.4byte	.LVL37
 7607 0e86 A0020000 		.4byte	.LVL39
 7608 0e8a 4900     		.2byte	0x49
 7609 0e8c 5B       		.byte	0x5b
 7610 0e8d 93       		.byte	0x93
 7611 0e8e 01       		.uleb128 0x1
 7612 0e8f 91       		.byte	0x91
 7613 0e90 F87E     		.sleb128 -136
 7614 0e92 93       		.byte	0x93
 7615 0e93 01       		.uleb128 0x1
 7616 0e94 91       		.byte	0x91
 7617 0e95 FC7E     		.sleb128 -132
 7618 0e97 93       		.byte	0x93
 7619 0e98 01       		.uleb128 0x1
 7620 0e99 91       		.byte	0x91
 7621 0e9a 807F     		.sleb128 -128
 7622 0e9c 93       		.byte	0x93
 7623 0e9d 01       		.uleb128 0x1
 7624 0e9e 91       		.byte	0x91
 7625 0e9f 847F     		.sleb128 -124
 7626 0ea1 93       		.byte	0x93
 7627 0ea2 01       		.uleb128 0x1
 7628 0ea3 91       		.byte	0x91
 7629 0ea4 C47E     		.sleb128 -188
 7630 0ea6 93       		.byte	0x93
 7631 0ea7 01       		.uleb128 0x1
 7632 0ea8 91       		.byte	0x91
 7633 0ea9 887F     		.sleb128 -120
 7634 0eab 93       		.byte	0x93
 7635 0eac 01       		.uleb128 0x1
 7636 0ead 91       		.byte	0x91
 7637 0eae 8C7F     		.sleb128 -116
 7638 0eb0 93       		.byte	0x93
 7639 0eb1 01       		.uleb128 0x1
 7640 0eb2 91       		.byte	0x91
 7641 0eb3 907F     		.sleb128 -112
 7642 0eb5 93       		.byte	0x93
 7643 0eb6 01       		.uleb128 0x1
 7644 0eb7 5A       		.byte	0x5a
 7645 0eb8 93       		.byte	0x93
 7646 0eb9 01       		.uleb128 0x1
 7647 0eba 91       		.byte	0x91
 7648 0ebb C87E     		.sleb128 -184
 7649 0ebd 93       		.byte	0x93
 7650 0ebe 01       		.uleb128 0x1
 7651 0ebf 91       		.byte	0x91
 7652 0ec0 947F     		.sleb128 -108
 7653 0ec2 93       		.byte	0x93
 7654 0ec3 01       		.uleb128 0x1
 7655 0ec4 91       		.byte	0x91
 7656 0ec5 F47E     		.sleb128 -140
ARM GAS  C:\Users\EBANO_~1\AppData\Local\Temp\ccMXEZix.s 			page 152


 7657 0ec7 93       		.byte	0x93
 7658 0ec8 01       		.uleb128 0x1
 7659 0ec9 91       		.byte	0x91
 7660 0eca CC7E     		.sleb128 -180
 7661 0ecc 93       		.byte	0x93
 7662 0ecd 01       		.uleb128 0x1
 7663 0ece 91       		.byte	0x91
 7664 0ecf D07E     		.sleb128 -176
 7665 0ed1 93       		.byte	0x93
 7666 0ed2 01       		.uleb128 0x1
 7667 0ed3 93       		.byte	0x93
 7668 0ed4 01       		.uleb128 0x1
 7669 0ed5 A0020000 		.4byte	.LVL39
 7670 0ed9 AC020000 		.4byte	.LVL40
 7671 0edd 4A00     		.2byte	0x4a
 7672 0edf 5B       		.byte	0x5b
 7673 0ee0 93       		.byte	0x93
 7674 0ee1 01       		.uleb128 0x1
 7675 0ee2 91       		.byte	0x91
 7676 0ee3 F87E     		.sleb128 -136
 7677 0ee5 93       		.byte	0x93
 7678 0ee6 01       		.uleb128 0x1
 7679 0ee7 91       		.byte	0x91
 7680 0ee8 FC7E     		.sleb128 -132
 7681 0eea 93       		.byte	0x93
 7682 0eeb 01       		.uleb128 0x1
 7683 0eec 91       		.byte	0x91
 7684 0eed 807F     		.sleb128 -128
 7685 0eef 93       		.byte	0x93
 7686 0ef0 01       		.uleb128 0x1
 7687 0ef1 91       		.byte	0x91
 7688 0ef2 847F     		.sleb128 -124
 7689 0ef4 93       		.byte	0x93
 7690 0ef5 01       		.uleb128 0x1
 7691 0ef6 91       		.byte	0x91
 7692 0ef7 C47E     		.sleb128 -188
 7693 0ef9 93       		.byte	0x93
 7694 0efa 01       		.uleb128 0x1
 7695 0efb 91       		.byte	0x91
 7696 0efc 887F     		.sleb128 -120
 7697 0efe 93       		.byte	0x93
 7698 0eff 01       		.uleb128 0x1
 7699 0f00 91       		.byte	0x91
 7700 0f01 8C7F     		.sleb128 -116
 7701 0f03 93       		.byte	0x93
 7702 0f04 01       		.uleb128 0x1
 7703 0f05 91       		.byte	0x91
 7704 0f06 907F     		.sleb128 -112
 7705 0f08 93       		.byte	0x93
 7706 0f09 01       		.uleb128 0x1
 7707 0f0a 5A       		.byte	0x5a
 7708 0f0b 93       		.byte	0x93
 7709 0f0c 01       		.uleb128 0x1
 7710 0f0d 91       		.byte	0x91
 7711 0f0e C87E     		.sleb128 -184
 7712 0f10 93       		.byte	0x93
 7713 0f11 01       		.uleb128 0x1
ARM GAS  C:\Users\EBANO_~1\AppData\Local\Temp\ccMXEZix.s 			page 153


 7714 0f12 91       		.byte	0x91
 7715 0f13 947F     		.sleb128 -108
 7716 0f15 93       		.byte	0x93
 7717 0f16 01       		.uleb128 0x1
 7718 0f17 91       		.byte	0x91
 7719 0f18 F47E     		.sleb128 -140
 7720 0f1a 93       		.byte	0x93
 7721 0f1b 01       		.uleb128 0x1
 7722 0f1c 91       		.byte	0x91
 7723 0f1d CC7E     		.sleb128 -180
 7724 0f1f 93       		.byte	0x93
 7725 0f20 01       		.uleb128 0x1
 7726 0f21 91       		.byte	0x91
 7727 0f22 D07E     		.sleb128 -176
 7728 0f24 93       		.byte	0x93
 7729 0f25 01       		.uleb128 0x1
 7730 0f26 53       		.byte	0x53
 7731 0f27 93       		.byte	0x93
 7732 0f28 01       		.uleb128 0x1
 7733 0f29 AC020000 		.4byte	.LVL40
 7734 0f2d B2020000 		.4byte	.LVL41
 7735 0f31 4A00     		.2byte	0x4a
 7736 0f33 5B       		.byte	0x5b
 7737 0f34 93       		.byte	0x93
 7738 0f35 01       		.uleb128 0x1
 7739 0f36 91       		.byte	0x91
 7740 0f37 F87E     		.sleb128 -136
 7741 0f39 93       		.byte	0x93
 7742 0f3a 01       		.uleb128 0x1
 7743 0f3b 91       		.byte	0x91
 7744 0f3c FC7E     		.sleb128 -132
 7745 0f3e 93       		.byte	0x93
 7746 0f3f 01       		.uleb128 0x1
 7747 0f40 91       		.byte	0x91
 7748 0f41 807F     		.sleb128 -128
 7749 0f43 93       		.byte	0x93
 7750 0f44 01       		.uleb128 0x1
 7751 0f45 91       		.byte	0x91
 7752 0f46 847F     		.sleb128 -124
 7753 0f48 93       		.byte	0x93
 7754 0f49 01       		.uleb128 0x1
 7755 0f4a 91       		.byte	0x91
 7756 0f4b C47E     		.sleb128 -188
 7757 0f4d 93       		.byte	0x93
 7758 0f4e 01       		.uleb128 0x1
 7759 0f4f 91       		.byte	0x91
 7760 0f50 887F     		.sleb128 -120
 7761 0f52 93       		.byte	0x93
 7762 0f53 01       		.uleb128 0x1
 7763 0f54 91       		.byte	0x91
 7764 0f55 8C7F     		.sleb128 -116
 7765 0f57 93       		.byte	0x93
 7766 0f58 01       		.uleb128 0x1
 7767 0f59 91       		.byte	0x91
 7768 0f5a 907F     		.sleb128 -112
 7769 0f5c 93       		.byte	0x93
 7770 0f5d 01       		.uleb128 0x1
ARM GAS  C:\Users\EBANO_~1\AppData\Local\Temp\ccMXEZix.s 			page 154


 7771 0f5e 5A       		.byte	0x5a
 7772 0f5f 93       		.byte	0x93
 7773 0f60 01       		.uleb128 0x1
 7774 0f61 91       		.byte	0x91
 7775 0f62 C87E     		.sleb128 -184
 7776 0f64 93       		.byte	0x93
 7777 0f65 01       		.uleb128 0x1
 7778 0f66 91       		.byte	0x91
 7779 0f67 947F     		.sleb128 -108
 7780 0f69 93       		.byte	0x93
 7781 0f6a 01       		.uleb128 0x1
 7782 0f6b 91       		.byte	0x91
 7783 0f6c F47E     		.sleb128 -140
 7784 0f6e 93       		.byte	0x93
 7785 0f6f 01       		.uleb128 0x1
 7786 0f70 91       		.byte	0x91
 7787 0f71 CC7E     		.sleb128 -180
 7788 0f73 93       		.byte	0x93
 7789 0f74 01       		.uleb128 0x1
 7790 0f75 91       		.byte	0x91
 7791 0f76 D07E     		.sleb128 -176
 7792 0f78 93       		.byte	0x93
 7793 0f79 01       		.uleb128 0x1
 7794 0f7a 5C       		.byte	0x5c
 7795 0f7b 93       		.byte	0x93
 7796 0f7c 01       		.uleb128 0x1
 7797 0f7d B2020000 		.4byte	.LVL41
 7798 0f81 C6020000 		.4byte	.LVL42
 7799 0f85 4800     		.2byte	0x48
 7800 0f87 5B       		.byte	0x5b
 7801 0f88 93       		.byte	0x93
 7802 0f89 01       		.uleb128 0x1
 7803 0f8a 91       		.byte	0x91
 7804 0f8b F87E     		.sleb128 -136
 7805 0f8d 93       		.byte	0x93
 7806 0f8e 01       		.uleb128 0x1
 7807 0f8f 91       		.byte	0x91
 7808 0f90 FC7E     		.sleb128 -132
 7809 0f92 93       		.byte	0x93
 7810 0f93 01       		.uleb128 0x1
 7811 0f94 91       		.byte	0x91
 7812 0f95 807F     		.sleb128 -128
 7813 0f97 93       		.byte	0x93
 7814 0f98 01       		.uleb128 0x1
 7815 0f99 91       		.byte	0x91
 7816 0f9a 847F     		.sleb128 -124
 7817 0f9c 93       		.byte	0x93
 7818 0f9d 01       		.uleb128 0x1
 7819 0f9e 91       		.byte	0x91
 7820 0f9f C47E     		.sleb128 -188
 7821 0fa1 93       		.byte	0x93
 7822 0fa2 01       		.uleb128 0x1
 7823 0fa3 91       		.byte	0x91
 7824 0fa4 887F     		.sleb128 -120
 7825 0fa6 93       		.byte	0x93
 7826 0fa7 01       		.uleb128 0x1
 7827 0fa8 91       		.byte	0x91
ARM GAS  C:\Users\EBANO_~1\AppData\Local\Temp\ccMXEZix.s 			page 155


 7828 0fa9 8C7F     		.sleb128 -116
 7829 0fab 93       		.byte	0x93
 7830 0fac 01       		.uleb128 0x1
 7831 0fad 91       		.byte	0x91
 7832 0fae 907F     		.sleb128 -112
 7833 0fb0 93       		.byte	0x93
 7834 0fb1 01       		.uleb128 0x1
 7835 0fb2 58       		.byte	0x58
 7836 0fb3 93       		.byte	0x93
 7837 0fb4 01       		.uleb128 0x1
 7838 0fb5 91       		.byte	0x91
 7839 0fb6 C87E     		.sleb128 -184
 7840 0fb8 93       		.byte	0x93
 7841 0fb9 01       		.uleb128 0x1
 7842 0fba 91       		.byte	0x91
 7843 0fbb 947F     		.sleb128 -108
 7844 0fbd 93       		.byte	0x93
 7845 0fbe 01       		.uleb128 0x1
 7846 0fbf 91       		.byte	0x91
 7847 0fc0 F47E     		.sleb128 -140
 7848 0fc2 93       		.byte	0x93
 7849 0fc3 01       		.uleb128 0x1
 7850 0fc4 91       		.byte	0x91
 7851 0fc5 CC7E     		.sleb128 -180
 7852 0fc7 93       		.byte	0x93
 7853 0fc8 01       		.uleb128 0x1
 7854 0fc9 54       		.byte	0x54
 7855 0fca 93       		.byte	0x93
 7856 0fcb 01       		.uleb128 0x1
 7857 0fcc 5C       		.byte	0x5c
 7858 0fcd 93       		.byte	0x93
 7859 0fce 01       		.uleb128 0x1
 7860 0fcf C6020000 		.4byte	.LVL42
 7861 0fd3 E0020000 		.4byte	.LVL44
 7862 0fd7 4500     		.2byte	0x45
 7863 0fd9 5B       		.byte	0x5b
 7864 0fda 93       		.byte	0x93
 7865 0fdb 01       		.uleb128 0x1
 7866 0fdc 91       		.byte	0x91
 7867 0fdd F87E     		.sleb128 -136
 7868 0fdf 93       		.byte	0x93
 7869 0fe0 01       		.uleb128 0x1
 7870 0fe1 91       		.byte	0x91
 7871 0fe2 FC7E     		.sleb128 -132
 7872 0fe4 93       		.byte	0x93
 7873 0fe5 01       		.uleb128 0x1
 7874 0fe6 91       		.byte	0x91
 7875 0fe7 807F     		.sleb128 -128
 7876 0fe9 93       		.byte	0x93
 7877 0fea 01       		.uleb128 0x1
 7878 0feb 91       		.byte	0x91
 7879 0fec 847F     		.sleb128 -124
 7880 0fee 93       		.byte	0x93
 7881 0fef 01       		.uleb128 0x1
 7882 0ff0 93       		.byte	0x93
 7883 0ff1 01       		.uleb128 0x1
 7884 0ff2 91       		.byte	0x91
ARM GAS  C:\Users\EBANO_~1\AppData\Local\Temp\ccMXEZix.s 			page 156


 7885 0ff3 887F     		.sleb128 -120
 7886 0ff5 93       		.byte	0x93
 7887 0ff6 01       		.uleb128 0x1
 7888 0ff7 91       		.byte	0x91
 7889 0ff8 8C7F     		.sleb128 -116
 7890 0ffa 93       		.byte	0x93
 7891 0ffb 01       		.uleb128 0x1
 7892 0ffc 91       		.byte	0x91
 7893 0ffd 907F     		.sleb128 -112
 7894 0fff 93       		.byte	0x93
 7895 1000 01       		.uleb128 0x1
 7896 1001 58       		.byte	0x58
 7897 1002 93       		.byte	0x93
 7898 1003 01       		.uleb128 0x1
 7899 1004 91       		.byte	0x91
 7900 1005 C87E     		.sleb128 -184
 7901 1007 93       		.byte	0x93
 7902 1008 01       		.uleb128 0x1
 7903 1009 91       		.byte	0x91
 7904 100a 947F     		.sleb128 -108
 7905 100c 93       		.byte	0x93
 7906 100d 01       		.uleb128 0x1
 7907 100e 91       		.byte	0x91
 7908 100f F47E     		.sleb128 -140
 7909 1011 93       		.byte	0x93
 7910 1012 01       		.uleb128 0x1
 7911 1013 91       		.byte	0x91
 7912 1014 CC7E     		.sleb128 -180
 7913 1016 93       		.byte	0x93
 7914 1017 01       		.uleb128 0x1
 7915 1018 54       		.byte	0x54
 7916 1019 93       		.byte	0x93
 7917 101a 01       		.uleb128 0x1
 7918 101b 5C       		.byte	0x5c
 7919 101c 93       		.byte	0x93
 7920 101d 01       		.uleb128 0x1
 7921 101e E0020000 		.4byte	.LVL44
 7922 1022 E4020000 		.4byte	.LVL45
 7923 1026 4200     		.2byte	0x42
 7924 1028 5B       		.byte	0x5b
 7925 1029 93       		.byte	0x93
 7926 102a 01       		.uleb128 0x1
 7927 102b 91       		.byte	0x91
 7928 102c F87E     		.sleb128 -136
 7929 102e 93       		.byte	0x93
 7930 102f 01       		.uleb128 0x1
 7931 1030 91       		.byte	0x91
 7932 1031 FC7E     		.sleb128 -132
 7933 1033 93       		.byte	0x93
 7934 1034 01       		.uleb128 0x1
 7935 1035 91       		.byte	0x91
 7936 1036 807F     		.sleb128 -128
 7937 1038 93       		.byte	0x93
 7938 1039 01       		.uleb128 0x1
 7939 103a 91       		.byte	0x91
 7940 103b 847F     		.sleb128 -124
 7941 103d 93       		.byte	0x93
ARM GAS  C:\Users\EBANO_~1\AppData\Local\Temp\ccMXEZix.s 			page 157


 7942 103e 01       		.uleb128 0x1
 7943 103f 93       		.byte	0x93
 7944 1040 01       		.uleb128 0x1
 7945 1041 91       		.byte	0x91
 7946 1042 887F     		.sleb128 -120
 7947 1044 93       		.byte	0x93
 7948 1045 01       		.uleb128 0x1
 7949 1046 91       		.byte	0x91
 7950 1047 8C7F     		.sleb128 -116
 7951 1049 93       		.byte	0x93
 7952 104a 01       		.uleb128 0x1
 7953 104b 91       		.byte	0x91
 7954 104c 907F     		.sleb128 -112
 7955 104e 93       		.byte	0x93
 7956 104f 01       		.uleb128 0x1
 7957 1050 58       		.byte	0x58
 7958 1051 93       		.byte	0x93
 7959 1052 01       		.uleb128 0x1
 7960 1053 93       		.byte	0x93
 7961 1054 01       		.uleb128 0x1
 7962 1055 91       		.byte	0x91
 7963 1056 947F     		.sleb128 -108
 7964 1058 93       		.byte	0x93
 7965 1059 01       		.uleb128 0x1
 7966 105a 91       		.byte	0x91
 7967 105b F47E     		.sleb128 -140
 7968 105d 93       		.byte	0x93
 7969 105e 01       		.uleb128 0x1
 7970 105f 91       		.byte	0x91
 7971 1060 CC7E     		.sleb128 -180
 7972 1062 93       		.byte	0x93
 7973 1063 01       		.uleb128 0x1
 7974 1064 54       		.byte	0x54
 7975 1065 93       		.byte	0x93
 7976 1066 01       		.uleb128 0x1
 7977 1067 5C       		.byte	0x5c
 7978 1068 93       		.byte	0x93
 7979 1069 01       		.uleb128 0x1
 7980 106a E4020000 		.4byte	.LVL45
 7981 106e F4020000 		.4byte	.LVL46
 7982 1072 4100     		.2byte	0x41
 7983 1074 5B       		.byte	0x5b
 7984 1075 93       		.byte	0x93
 7985 1076 01       		.uleb128 0x1
 7986 1077 91       		.byte	0x91
 7987 1078 F87E     		.sleb128 -136
 7988 107a 93       		.byte	0x93
 7989 107b 01       		.uleb128 0x1
 7990 107c 91       		.byte	0x91
 7991 107d FC7E     		.sleb128 -132
 7992 107f 93       		.byte	0x93
 7993 1080 01       		.uleb128 0x1
 7994 1081 91       		.byte	0x91
 7995 1082 807F     		.sleb128 -128
 7996 1084 93       		.byte	0x93
 7997 1085 01       		.uleb128 0x1
 7998 1086 91       		.byte	0x91
ARM GAS  C:\Users\EBANO_~1\AppData\Local\Temp\ccMXEZix.s 			page 158


 7999 1087 847F     		.sleb128 -124
 8000 1089 93       		.byte	0x93
 8001 108a 01       		.uleb128 0x1
 8002 108b 93       		.byte	0x93
 8003 108c 01       		.uleb128 0x1
 8004 108d 91       		.byte	0x91
 8005 108e 887F     		.sleb128 -120
 8006 1090 93       		.byte	0x93
 8007 1091 01       		.uleb128 0x1
 8008 1092 91       		.byte	0x91
 8009 1093 8C7F     		.sleb128 -116
 8010 1095 93       		.byte	0x93
 8011 1096 01       		.uleb128 0x1
 8012 1097 91       		.byte	0x91
 8013 1098 907F     		.sleb128 -112
 8014 109a 93       		.byte	0x93
 8015 109b 01       		.uleb128 0x1
 8016 109c 58       		.byte	0x58
 8017 109d 93       		.byte	0x93
 8018 109e 01       		.uleb128 0x1
 8019 109f 93       		.byte	0x93
 8020 10a0 01       		.uleb128 0x1
 8021 10a1 91       		.byte	0x91
 8022 10a2 947F     		.sleb128 -108
 8023 10a4 93       		.byte	0x93
 8024 10a5 01       		.uleb128 0x1
 8025 10a6 91       		.byte	0x91
 8026 10a7 F47E     		.sleb128 -140
 8027 10a9 93       		.byte	0x93
 8028 10aa 01       		.uleb128 0x1
 8029 10ab 91       		.byte	0x91
 8030 10ac CC7E     		.sleb128 -180
 8031 10ae 93       		.byte	0x93
 8032 10af 01       		.uleb128 0x1
 8033 10b0 93       		.byte	0x93
 8034 10b1 01       		.uleb128 0x1
 8035 10b2 5C       		.byte	0x5c
 8036 10b3 93       		.byte	0x93
 8037 10b4 01       		.uleb128 0x1
 8038 10b5 F4020000 		.4byte	.LVL46
 8039 10b9 FE020000 		.4byte	.LVL47
 8040 10bd 3C00     		.2byte	0x3c
 8041 10bf 5B       		.byte	0x5b
 8042 10c0 93       		.byte	0x93
 8043 10c1 01       		.uleb128 0x1
 8044 10c2 91       		.byte	0x91
 8045 10c3 F87E     		.sleb128 -136
 8046 10c5 93       		.byte	0x93
 8047 10c6 01       		.uleb128 0x1
 8048 10c7 91       		.byte	0x91
 8049 10c8 FC7E     		.sleb128 -132
 8050 10ca 93       		.byte	0x93
 8051 10cb 01       		.uleb128 0x1
 8052 10cc 91       		.byte	0x91
 8053 10cd 807F     		.sleb128 -128
 8054 10cf 93       		.byte	0x93
 8055 10d0 01       		.uleb128 0x1
ARM GAS  C:\Users\EBANO_~1\AppData\Local\Temp\ccMXEZix.s 			page 159


 8056 10d1 91       		.byte	0x91
 8057 10d2 847F     		.sleb128 -124
 8058 10d4 93       		.byte	0x93
 8059 10d5 01       		.uleb128 0x1
 8060 10d6 93       		.byte	0x93
 8061 10d7 01       		.uleb128 0x1
 8062 10d8 91       		.byte	0x91
 8063 10d9 887F     		.sleb128 -120
 8064 10db 93       		.byte	0x93
 8065 10dc 01       		.uleb128 0x1
 8066 10dd 91       		.byte	0x91
 8067 10de 8C7F     		.sleb128 -116
 8068 10e0 93       		.byte	0x93
 8069 10e1 01       		.uleb128 0x1
 8070 10e2 91       		.byte	0x91
 8071 10e3 907F     		.sleb128 -112
 8072 10e5 93       		.byte	0x93
 8073 10e6 01       		.uleb128 0x1
 8074 10e7 58       		.byte	0x58
 8075 10e8 93       		.byte	0x93
 8076 10e9 01       		.uleb128 0x1
 8077 10ea 93       		.byte	0x93
 8078 10eb 01       		.uleb128 0x1
 8079 10ec 91       		.byte	0x91
 8080 10ed 947F     		.sleb128 -108
 8081 10ef 93       		.byte	0x93
 8082 10f0 01       		.uleb128 0x1
 8083 10f1 91       		.byte	0x91
 8084 10f2 F47E     		.sleb128 -140
 8085 10f4 93       		.byte	0x93
 8086 10f5 01       		.uleb128 0x1
 8087 10f6 93       		.byte	0x93
 8088 10f7 02       		.uleb128 0x2
 8089 10f8 5C       		.byte	0x5c
 8090 10f9 93       		.byte	0x93
 8091 10fa 01       		.uleb128 0x1
 8092 10fb FE020000 		.4byte	.LVL47
 8093 10ff 02030000 		.4byte	.LVL48
 8094 1103 3900     		.2byte	0x39
 8095 1105 5B       		.byte	0x5b
 8096 1106 93       		.byte	0x93
 8097 1107 01       		.uleb128 0x1
 8098 1108 91       		.byte	0x91
 8099 1109 F87E     		.sleb128 -136
 8100 110b 93       		.byte	0x93
 8101 110c 01       		.uleb128 0x1
 8102 110d 91       		.byte	0x91
 8103 110e FC7E     		.sleb128 -132
 8104 1110 93       		.byte	0x93
 8105 1111 01       		.uleb128 0x1
 8106 1112 91       		.byte	0x91
 8107 1113 807F     		.sleb128 -128
 8108 1115 93       		.byte	0x93
 8109 1116 01       		.uleb128 0x1
 8110 1117 91       		.byte	0x91
 8111 1118 847F     		.sleb128 -124
 8112 111a 93       		.byte	0x93
ARM GAS  C:\Users\EBANO_~1\AppData\Local\Temp\ccMXEZix.s 			page 160


 8113 111b 01       		.uleb128 0x1
 8114 111c 93       		.byte	0x93
 8115 111d 01       		.uleb128 0x1
 8116 111e 91       		.byte	0x91
 8117 111f 887F     		.sleb128 -120
 8118 1121 93       		.byte	0x93
 8119 1122 01       		.uleb128 0x1
 8120 1123 91       		.byte	0x91
 8121 1124 8C7F     		.sleb128 -116
 8122 1126 93       		.byte	0x93
 8123 1127 01       		.uleb128 0x1
 8124 1128 91       		.byte	0x91
 8125 1129 907F     		.sleb128 -112
 8126 112b 93       		.byte	0x93
 8127 112c 01       		.uleb128 0x1
 8128 112d 58       		.byte	0x58
 8129 112e 93       		.byte	0x93
 8130 112f 01       		.uleb128 0x1
 8131 1130 93       		.byte	0x93
 8132 1131 01       		.uleb128 0x1
 8133 1132 91       		.byte	0x91
 8134 1133 947F     		.sleb128 -108
 8135 1135 93       		.byte	0x93
 8136 1136 01       		.uleb128 0x1
 8137 1137 91       		.byte	0x91
 8138 1138 F47E     		.sleb128 -140
 8139 113a 93       		.byte	0x93
 8140 113b 01       		.uleb128 0x1
 8141 113c 93       		.byte	0x93
 8142 113d 03       		.uleb128 0x3
 8143 113e 02030000 		.4byte	.LVL48
 8144 1142 92030000 		.4byte	.LVL51
 8145 1146 3600     		.2byte	0x36
 8146 1148 5B       		.byte	0x5b
 8147 1149 93       		.byte	0x93
 8148 114a 01       		.uleb128 0x1
 8149 114b 91       		.byte	0x91
 8150 114c F87E     		.sleb128 -136
 8151 114e 93       		.byte	0x93
 8152 114f 01       		.uleb128 0x1
 8153 1150 91       		.byte	0x91
 8154 1151 FC7E     		.sleb128 -132
 8155 1153 93       		.byte	0x93
 8156 1154 01       		.uleb128 0x1
 8157 1155 91       		.byte	0x91
 8158 1156 807F     		.sleb128 -128
 8159 1158 93       		.byte	0x93
 8160 1159 01       		.uleb128 0x1
 8161 115a 91       		.byte	0x91
 8162 115b 847F     		.sleb128 -124
 8163 115d 93       		.byte	0x93
 8164 115e 01       		.uleb128 0x1
 8165 115f 93       		.byte	0x93
 8166 1160 01       		.uleb128 0x1
 8167 1161 91       		.byte	0x91
 8168 1162 887F     		.sleb128 -120
 8169 1164 93       		.byte	0x93
ARM GAS  C:\Users\EBANO_~1\AppData\Local\Temp\ccMXEZix.s 			page 161


 8170 1165 01       		.uleb128 0x1
 8171 1166 91       		.byte	0x91
 8172 1167 8C7F     		.sleb128 -116
 8173 1169 93       		.byte	0x93
 8174 116a 01       		.uleb128 0x1
 8175 116b 91       		.byte	0x91
 8176 116c 907F     		.sleb128 -112
 8177 116e 93       		.byte	0x93
 8178 116f 01       		.uleb128 0x1
 8179 1170 93       		.byte	0x93
 8180 1171 02       		.uleb128 0x2
 8181 1172 91       		.byte	0x91
 8182 1173 947F     		.sleb128 -108
 8183 1175 93       		.byte	0x93
 8184 1176 01       		.uleb128 0x1
 8185 1177 91       		.byte	0x91
 8186 1178 F47E     		.sleb128 -140
 8187 117a 93       		.byte	0x93
 8188 117b 01       		.uleb128 0x1
 8189 117c 93       		.byte	0x93
 8190 117d 03       		.uleb128 0x3
 8191 117e 92030000 		.4byte	.LVL51
 8192 1182 9E030000 		.4byte	.LVL52
 8193 1186 3500     		.2byte	0x35
 8194 1188 93       		.byte	0x93
 8195 1189 01       		.uleb128 0x1
 8196 118a 91       		.byte	0x91
 8197 118b F87E     		.sleb128 -136
 8198 118d 93       		.byte	0x93
 8199 118e 01       		.uleb128 0x1
 8200 118f 91       		.byte	0x91
 8201 1190 FC7E     		.sleb128 -132
 8202 1192 93       		.byte	0x93
 8203 1193 01       		.uleb128 0x1
 8204 1194 91       		.byte	0x91
 8205 1195 807F     		.sleb128 -128
 8206 1197 93       		.byte	0x93
 8207 1198 01       		.uleb128 0x1
 8208 1199 91       		.byte	0x91
 8209 119a 847F     		.sleb128 -124
 8210 119c 93       		.byte	0x93
 8211 119d 01       		.uleb128 0x1
 8212 119e 93       		.byte	0x93
 8213 119f 01       		.uleb128 0x1
 8214 11a0 91       		.byte	0x91
 8215 11a1 887F     		.sleb128 -120
 8216 11a3 93       		.byte	0x93
 8217 11a4 01       		.uleb128 0x1
 8218 11a5 91       		.byte	0x91
 8219 11a6 8C7F     		.sleb128 -116
 8220 11a8 93       		.byte	0x93
 8221 11a9 01       		.uleb128 0x1
 8222 11aa 91       		.byte	0x91
 8223 11ab 907F     		.sleb128 -112
 8224 11ad 93       		.byte	0x93
 8225 11ae 01       		.uleb128 0x1
 8226 11af 93       		.byte	0x93
ARM GAS  C:\Users\EBANO_~1\AppData\Local\Temp\ccMXEZix.s 			page 162


 8227 11b0 02       		.uleb128 0x2
 8228 11b1 91       		.byte	0x91
 8229 11b2 947F     		.sleb128 -108
 8230 11b4 93       		.byte	0x93
 8231 11b5 01       		.uleb128 0x1
 8232 11b6 91       		.byte	0x91
 8233 11b7 F47E     		.sleb128 -140
 8234 11b9 93       		.byte	0x93
 8235 11ba 01       		.uleb128 0x1
 8236 11bb 93       		.byte	0x93
 8237 11bc 03       		.uleb128 0x3
 8238 11bd 9E030000 		.4byte	.LVL52
 8239 11c1 B0030000 		.4byte	.LFE10
 8240 11c5 4500     		.2byte	0x45
 8241 11c7 5B       		.byte	0x5b
 8242 11c8 93       		.byte	0x93
 8243 11c9 01       		.uleb128 0x1
 8244 11ca 91       		.byte	0x91
 8245 11cb F87E     		.sleb128 -136
 8246 11cd 93       		.byte	0x93
 8247 11ce 01       		.uleb128 0x1
 8248 11cf 91       		.byte	0x91
 8249 11d0 FC7E     		.sleb128 -132
 8250 11d2 93       		.byte	0x93
 8251 11d3 01       		.uleb128 0x1
 8252 11d4 91       		.byte	0x91
 8253 11d5 807F     		.sleb128 -128
 8254 11d7 93       		.byte	0x93
 8255 11d8 01       		.uleb128 0x1
 8256 11d9 91       		.byte	0x91
 8257 11da 847F     		.sleb128 -124
 8258 11dc 93       		.byte	0x93
 8259 11dd 01       		.uleb128 0x1
 8260 11de 93       		.byte	0x93
 8261 11df 01       		.uleb128 0x1
 8262 11e0 91       		.byte	0x91
 8263 11e1 887F     		.sleb128 -120
 8264 11e3 93       		.byte	0x93
 8265 11e4 01       		.uleb128 0x1
 8266 11e5 91       		.byte	0x91
 8267 11e6 8C7F     		.sleb128 -116
 8268 11e8 93       		.byte	0x93
 8269 11e9 01       		.uleb128 0x1
 8270 11ea 91       		.byte	0x91
 8271 11eb 907F     		.sleb128 -112
 8272 11ed 93       		.byte	0x93
 8273 11ee 01       		.uleb128 0x1
 8274 11ef 58       		.byte	0x58
 8275 11f0 93       		.byte	0x93
 8276 11f1 01       		.uleb128 0x1
 8277 11f2 91       		.byte	0x91
 8278 11f3 C87E     		.sleb128 -184
 8279 11f5 93       		.byte	0x93
 8280 11f6 01       		.uleb128 0x1
 8281 11f7 91       		.byte	0x91
 8282 11f8 947F     		.sleb128 -108
 8283 11fa 93       		.byte	0x93
ARM GAS  C:\Users\EBANO_~1\AppData\Local\Temp\ccMXEZix.s 			page 163


 8284 11fb 01       		.uleb128 0x1
 8285 11fc 91       		.byte	0x91
 8286 11fd F47E     		.sleb128 -140
 8287 11ff 93       		.byte	0x93
 8288 1200 01       		.uleb128 0x1
 8289 1201 91       		.byte	0x91
 8290 1202 CC7E     		.sleb128 -180
 8291 1204 93       		.byte	0x93
 8292 1205 01       		.uleb128 0x1
 8293 1206 54       		.byte	0x54
 8294 1207 93       		.byte	0x93
 8295 1208 01       		.uleb128 0x1
 8296 1209 5C       		.byte	0x5c
 8297 120a 93       		.byte	0x93
 8298 120b 01       		.uleb128 0x1
 8299 120c 00000000 		.4byte	0
 8300 1210 00000000 		.4byte	0
 8301              	.LLST5:
 8302 1214 96000000 		.4byte	.LVL16
 8303 1218 BA000000 		.4byte	.LVL19
 8304 121c 0200     		.2byte	0x2
 8305 121e 31       		.byte	0x31
 8306 121f 9F       		.byte	0x9f
 8307 1220 9E030000 		.4byte	.LVL52
 8308 1224 B0030000 		.4byte	.LFE10
 8309 1228 0200     		.2byte	0x2
 8310 122a 31       		.byte	0x31
 8311 122b 9F       		.byte	0x9f
 8312 122c 00000000 		.4byte	0
 8313 1230 00000000 		.4byte	0
 8314              	.LLST6:
 8315 1234 12000000 		.4byte	.LVL1
 8316 1238 18000000 		.4byte	.LVL2
 8317 123c 0100     		.2byte	0x1
 8318 123e 52       		.byte	0x52
 8319 123f 18000000 		.4byte	.LVL2
 8320 1243 B4000000 		.4byte	.LVL17
 8321 1247 0100     		.2byte	0x1
 8322 1249 51       		.byte	0x51
 8323 124a B4000000 		.4byte	.LVL17
 8324 124e B8000000 		.4byte	.LVL18
 8325 1252 0100     		.2byte	0x1
 8326 1254 57       		.byte	0x57
 8327 1255 B8000000 		.4byte	.LVL18
 8328 1259 9E030000 		.4byte	.LVL52
 8329 125d 0200     		.2byte	0x2
 8330 125f 91       		.byte	0x91
 8331 1260 50       		.sleb128 -48
 8332 1261 9E030000 		.4byte	.LVL52
 8333 1265 A2030000 		.4byte	.LVL53
 8334 1269 0100     		.2byte	0x1
 8335 126b 51       		.byte	0x51
 8336 126c A2030000 		.4byte	.LVL53
 8337 1270 B0030000 		.4byte	.LFE10
 8338 1274 0200     		.2byte	0x2
 8339 1276 91       		.byte	0x91
 8340 1277 50       		.sleb128 -48
ARM GAS  C:\Users\EBANO_~1\AppData\Local\Temp\ccMXEZix.s 			page 164


 8341 1278 00000000 		.4byte	0
 8342 127c 00000000 		.4byte	0
 8343              	.LLST7:
 8344 1280 00000000 		.4byte	.LVL0
 8345 1284 BA000000 		.4byte	.LVL19
 8346 1288 0100     		.2byte	0x1
 8347 128a 50       		.byte	0x50
 8348 128b BA000000 		.4byte	.LVL19
 8349 128f 9E030000 		.4byte	.LVL52
 8350 1293 0400     		.2byte	0x4
 8351 1295 F3       		.byte	0xf3
 8352 1296 01       		.uleb128 0x1
 8353 1297 50       		.byte	0x50
 8354 1298 9F       		.byte	0x9f
 8355 1299 9E030000 		.4byte	.LVL52
 8356 129d B0030000 		.4byte	.LFE10
 8357 12a1 0100     		.2byte	0x1
 8358 12a3 50       		.byte	0x50
 8359 12a4 00000000 		.4byte	0
 8360 12a8 00000000 		.4byte	0
 8361              	.LLST8:
 8362 12ac BA000000 		.4byte	.LVL19
 8363 12b0 04010000 		.4byte	.LVL20
 8364 12b4 0600     		.2byte	0x6
 8365 12b6 F2       		.byte	0xf2
 8366 12b7 200E0000 		.4byte	.Ldebug_info0+3616
 8367 12bb 00       		.sleb128 0
 8368 12bc 00000000 		.4byte	0
 8369 12c0 00000000 		.4byte	0
 8370              	.LLST9:
 8371 12c4 04010000 		.4byte	.LVL20
 8372 12c8 9E020000 		.4byte	.LVL38
 8373 12cc 0100     		.2byte	0x1
 8374 12ce 57       		.byte	0x57
 8375 12cf 9E020000 		.4byte	.LVL38
 8376 12d3 A0020000 		.4byte	.LVL39
 8377 12d7 0300     		.2byte	0x3
 8378 12d9 77       		.byte	0x77
 8379 12da 70       		.sleb128 -16
 8380 12db 9F       		.byte	0x9f
 8381 12dc 00000000 		.4byte	0
 8382 12e0 00000000 		.4byte	0
 8383              	.LLST10:
 8384 12e4 04010000 		.4byte	.LVL20
 8385 12e8 A0020000 		.4byte	.LVL39
 8386 12ec 0600     		.2byte	0x6
 8387 12ee F2       		.byte	0xf2
 8388 12ef 200E0000 		.4byte	.Ldebug_info0+3616
 8389 12f3 00       		.sleb128 0
 8390 12f4 00000000 		.4byte	0
 8391 12f8 00000000 		.4byte	0
 8392              	.LLST13:
 8393 12fc B2020000 		.4byte	.LVL41
 8394 1300 FE020000 		.4byte	.LVL47
 8395 1304 0600     		.2byte	0x6
 8396 1306 F2       		.byte	0xf2
 8397 1307 200E0000 		.4byte	.Ldebug_info0+3616
ARM GAS  C:\Users\EBANO_~1\AppData\Local\Temp\ccMXEZix.s 			page 165


 8398 130b 00       		.sleb128 0
 8399 130c 00000000 		.4byte	0
 8400 1310 00000000 		.4byte	0
 8401              	.LLST14:
 8402 1314 B2020000 		.4byte	.LVL41
 8403 1318 D6020000 		.4byte	.LVL43
 8404 131c 0300     		.2byte	0x3
 8405 131e 91       		.byte	0x91
 8406 131f FC7E     		.sleb128 -132
 8407 1321 D6020000 		.4byte	.LVL43
 8408 1325 FE020000 		.4byte	.LVL47
 8409 1329 0100     		.2byte	0x1
 8410 132b 5C       		.byte	0x5c
 8411 132c 00000000 		.4byte	0
 8412 1330 00000000 		.4byte	0
 8413              	.LLST15:
 8414 1334 04030000 		.4byte	.LVL49
 8415 1338 90030000 		.4byte	.LVL50
 8416 133c 0100     		.2byte	0x1
 8417 133e 52       		.byte	0x52
 8418 133f 00000000 		.4byte	0
 8419 1343 00000000 		.4byte	0
 8420              	.LLST16:
 8421 1347 04030000 		.4byte	.LVL49
 8422 134b 90030000 		.4byte	.LVL50
 8423 134f 0600     		.2byte	0x6
 8424 1351 F2       		.byte	0xf2
 8425 1352 200E0000 		.4byte	.Ldebug_info0+3616
 8426 1356 00       		.sleb128 0
 8427 1357 00000000 		.4byte	0
 8428 135b 00000000 		.4byte	0
 8429              	.LLST17:
 8430 135f 04030000 		.4byte	.LVL49
 8431 1363 90030000 		.4byte	.LVL50
 8432 1367 0200     		.2byte	0x2
 8433 1369 91       		.byte	0x91
 8434 136a 4C       		.sleb128 -52
 8435 136b 00000000 		.4byte	0
 8436 136f 00000000 		.4byte	0
 8437              	.LLST33:
 8438 1373 00000000 		.4byte	.LFB8
 8439 1377 04000000 		.4byte	.LCFI6
 8440 137b 0200     		.2byte	0x2
 8441 137d 7D       		.byte	0x7d
 8442 137e 00       		.sleb128 0
 8443 137f 04000000 		.4byte	.LCFI6
 8444 1383 16000000 		.4byte	.LFE8
 8445 1387 0200     		.2byte	0x2
 8446 1389 7D       		.byte	0x7d
 8447 138a 08       		.sleb128 8
 8448 138b 00000000 		.4byte	0
 8449 138f 00000000 		.4byte	0
 8450              	.LLST34:
 8451 1393 00000000 		.4byte	.LVL117
 8452 1397 0F000000 		.4byte	.LVL118-1
 8453 139b 0100     		.2byte	0x1
 8454 139d 50       		.byte	0x50
ARM GAS  C:\Users\EBANO_~1\AppData\Local\Temp\ccMXEZix.s 			page 166


 8455 139e 0F000000 		.4byte	.LVL118-1
 8456 13a2 16000000 		.4byte	.LFE8
 8457 13a6 0400     		.2byte	0x4
 8458 13a8 F3       		.byte	0xf3
 8459 13a9 01       		.uleb128 0x1
 8460 13aa 50       		.byte	0x50
 8461 13ab 9F       		.byte	0x9f
 8462 13ac 00000000 		.4byte	0
 8463 13b0 00000000 		.4byte	0
 8464              	.LLST35:
 8465 13b4 00000000 		.4byte	.LVL117
 8466 13b8 0F000000 		.4byte	.LVL118-1
 8467 13bc 0100     		.2byte	0x1
 8468 13be 51       		.byte	0x51
 8469 13bf 0F000000 		.4byte	.LVL118-1
 8470 13c3 16000000 		.4byte	.LFE8
 8471 13c7 0400     		.2byte	0x4
 8472 13c9 F3       		.byte	0xf3
 8473 13ca 01       		.uleb128 0x1
 8474 13cb 51       		.byte	0x51
 8475 13cc 9F       		.byte	0x9f
 8476 13cd 00000000 		.4byte	0
 8477 13d1 00000000 		.4byte	0
 8478              	.LLST36:
 8479 13d5 00000000 		.4byte	.LVL117
 8480 13d9 0F000000 		.4byte	.LVL118-1
 8481 13dd 0100     		.2byte	0x1
 8482 13df 52       		.byte	0x52
 8483 13e0 0F000000 		.4byte	.LVL118-1
 8484 13e4 16000000 		.4byte	.LFE8
 8485 13e8 0400     		.2byte	0x4
 8486 13ea F3       		.byte	0xf3
 8487 13eb 01       		.uleb128 0x1
 8488 13ec 52       		.byte	0x52
 8489 13ed 9F       		.byte	0x9f
 8490 13ee 00000000 		.4byte	0
 8491 13f2 00000000 		.4byte	0
 8492              		.section	.debug_aranges,"",%progbits
 8493 0000 34000000 		.4byte	0x34
 8494 0004 0200     		.2byte	0x2
 8495 0006 00000000 		.4byte	.Ldebug_info0
 8496 000a 04       		.byte	0x4
 8497 000b 00       		.byte	0
 8498 000c 0000     		.2byte	0
 8499 000e 0000     		.2byte	0
 8500 0010 00000000 		.4byte	.LFB10
 8501 0014 B0030000 		.4byte	.LFE10-.LFB10
 8502 0018 00000000 		.4byte	.LFB7
 8503 001c 34020000 		.4byte	.LFE7-.LFB7
 8504 0020 00000000 		.4byte	.LFB8
 8505 0024 16000000 		.4byte	.LFE8-.LFB8
 8506 0028 00000000 		.4byte	.LFB9
 8507 002c 10010000 		.4byte	.LFE9-.LFB9
 8508 0030 00000000 		.4byte	0
 8509 0034 00000000 		.4byte	0
 8510              		.section	.debug_ranges,"",%progbits
 8511              	.Ldebug_ranges0:
ARM GAS  C:\Users\EBANO_~1\AppData\Local\Temp\ccMXEZix.s 			page 167


 8512 0000 14000000 		.4byte	.LBB32
 8513 0004 80030000 		.4byte	.LBE32
 8514 0008 82030000 		.4byte	.LBB187
 8515 000c 90030000 		.4byte	.LBE187
 8516 0010 9E030000 		.4byte	.LBB188
 8517 0014 B0030000 		.4byte	.LBE188
 8518 0018 00000000 		.4byte	0
 8519 001c 00000000 		.4byte	0
 8520 0020 14000000 		.4byte	.LBB33
 8521 0024 8C000000 		.4byte	.LBE33
 8522 0028 8E000000 		.4byte	.LBB37
 8523 002c 92000000 		.4byte	.LBE37
 8524 0030 94000000 		.4byte	.LBB38
 8525 0034 96000000 		.4byte	.LBE38
 8526 0038 00000000 		.4byte	0
 8527 003c 00000000 		.4byte	0
 8528 0040 BA000000 		.4byte	.LBB39
 8529 0044 3A010000 		.4byte	.LBE39
 8530 0048 3C010000 		.4byte	.LBB126
 8531 004c 3E010000 		.4byte	.LBE126
 8532 0050 40010000 		.4byte	.LBB128
 8533 0054 42010000 		.4byte	.LBE128
 8534 0058 44010000 		.4byte	.LBB130
 8535 005c 58010000 		.4byte	.LBE130
 8536 0060 5E010000 		.4byte	.LBB132
 8537 0064 6C010000 		.4byte	.LBE132
 8538 0068 70010000 		.4byte	.LBB134
 8539 006c 72010000 		.4byte	.LBE134
 8540 0070 74010000 		.4byte	.LBB136
 8541 0074 82010000 		.4byte	.LBE136
 8542 0078 84010000 		.4byte	.LBB138
 8543 007c 86010000 		.4byte	.LBE138
 8544 0080 8C010000 		.4byte	.LBB140
 8545 0084 98010000 		.4byte	.LBE140
 8546 0088 9A010000 		.4byte	.LBB142
 8547 008c 9C010000 		.4byte	.LBE142
 8548 0090 A0010000 		.4byte	.LBB144
 8549 0094 AA010000 		.4byte	.LBE144
 8550 0098 AC010000 		.4byte	.LBB146
 8551 009c B4010000 		.4byte	.LBE146
 8552 00a0 B6010000 		.4byte	.LBB148
 8553 00a4 B8010000 		.4byte	.LBE148
 8554 00a8 BA010000 		.4byte	.LBB150
 8555 00ac CA010000 		.4byte	.LBE150
 8556 00b0 D0010000 		.4byte	.LBB152
 8557 00b4 E2010000 		.4byte	.LBE152
 8558 00b8 E6010000 		.4byte	.LBB154
 8559 00bc E8010000 		.4byte	.LBE154
 8560 00c0 EA010000 		.4byte	.LBB156
 8561 00c4 F4010000 		.4byte	.LBE156
 8562 00c8 F6010000 		.4byte	.LBB158
 8563 00cc F8010000 		.4byte	.LBE158
 8564 00d0 FC010000 		.4byte	.LBB160
 8565 00d4 0E020000 		.4byte	.LBE160
 8566 00d8 14020000 		.4byte	.LBB162
 8567 00dc 26020000 		.4byte	.LBE162
 8568 00e0 2C020000 		.4byte	.LBB164
ARM GAS  C:\Users\EBANO_~1\AppData\Local\Temp\ccMXEZix.s 			page 168


 8569 00e4 3C020000 		.4byte	.LBE164
 8570 00e8 42020000 		.4byte	.LBB166
 8571 00ec 50020000 		.4byte	.LBE166
 8572 00f0 52020000 		.4byte	.LBB168
 8573 00f4 54020000 		.4byte	.LBE168
 8574 00f8 58020000 		.4byte	.LBB170
 8575 00fc 6C020000 		.4byte	.LBE170
 8576 0100 70020000 		.4byte	.LBB172
 8577 0104 74020000 		.4byte	.LBE172
 8578 0108 76020000 		.4byte	.LBB174
 8579 010c 84020000 		.4byte	.LBE174
 8580 0110 88020000 		.4byte	.LBB176
 8581 0114 8A020000 		.4byte	.LBE176
 8582 0118 8C020000 		.4byte	.LBB178
 8583 011c 96020000 		.4byte	.LBE178
 8584 0120 98020000 		.4byte	.LBB179
 8585 0124 9A020000 		.4byte	.LBE179
 8586 0128 00000000 		.4byte	0
 8587 012c 00000000 		.4byte	0
 8588 0130 3A010000 		.4byte	.LBB69
 8589 0134 3C010000 		.4byte	.LBE69
 8590 0138 3E010000 		.4byte	.LBB127
 8591 013c 40010000 		.4byte	.LBE127
 8592 0140 42010000 		.4byte	.LBB129
 8593 0144 44010000 		.4byte	.LBE129
 8594 0148 58010000 		.4byte	.LBB131
 8595 014c 5E010000 		.4byte	.LBE131
 8596 0150 6C010000 		.4byte	.LBB133
 8597 0154 70010000 		.4byte	.LBE133
 8598 0158 72010000 		.4byte	.LBB135
 8599 015c 74010000 		.4byte	.LBE135
 8600 0160 82010000 		.4byte	.LBB137
 8601 0164 84010000 		.4byte	.LBE137
 8602 0168 86010000 		.4byte	.LBB139
 8603 016c 8C010000 		.4byte	.LBE139
 8604 0170 98010000 		.4byte	.LBB141
 8605 0174 9A010000 		.4byte	.LBE141
 8606 0178 9C010000 		.4byte	.LBB143
 8607 017c A0010000 		.4byte	.LBE143
 8608 0180 AA010000 		.4byte	.LBB145
 8609 0184 AC010000 		.4byte	.LBE145
 8610 0188 B4010000 		.4byte	.LBB147
 8611 018c B6010000 		.4byte	.LBE147
 8612 0190 B8010000 		.4byte	.LBB149
 8613 0194 BA010000 		.4byte	.LBE149
 8614 0198 CA010000 		.4byte	.LBB151
 8615 019c D0010000 		.4byte	.LBE151
 8616 01a0 E2010000 		.4byte	.LBB153
 8617 01a4 E6010000 		.4byte	.LBE153
 8618 01a8 E8010000 		.4byte	.LBB155
 8619 01ac EA010000 		.4byte	.LBE155
 8620 01b0 F4010000 		.4byte	.LBB157
 8621 01b4 F6010000 		.4byte	.LBE157
 8622 01b8 F8010000 		.4byte	.LBB159
 8623 01bc FC010000 		.4byte	.LBE159
 8624 01c0 0E020000 		.4byte	.LBB161
 8625 01c4 14020000 		.4byte	.LBE161
ARM GAS  C:\Users\EBANO_~1\AppData\Local\Temp\ccMXEZix.s 			page 169


 8626 01c8 26020000 		.4byte	.LBB163
 8627 01cc 2C020000 		.4byte	.LBE163
 8628 01d0 3C020000 		.4byte	.LBB165
 8629 01d4 42020000 		.4byte	.LBE165
 8630 01d8 50020000 		.4byte	.LBB167
 8631 01dc 52020000 		.4byte	.LBE167
 8632 01e0 54020000 		.4byte	.LBB169
 8633 01e4 58020000 		.4byte	.LBE169
 8634 01e8 6C020000 		.4byte	.LBB171
 8635 01ec 70020000 		.4byte	.LBE171
 8636 01f0 74020000 		.4byte	.LBB173
 8637 01f4 76020000 		.4byte	.LBE173
 8638 01f8 84020000 		.4byte	.LBB175
 8639 01fc 88020000 		.4byte	.LBE175
 8640 0200 8A020000 		.4byte	.LBB177
 8641 0204 8C020000 		.4byte	.LBE177
 8642 0208 9A020000 		.4byte	.LBB180
 8643 020c A0020000 		.4byte	.LBE180
 8644 0210 00000000 		.4byte	0
 8645 0214 00000000 		.4byte	0
 8646 0218 04030000 		.4byte	.LBB183
 8647 021c 80030000 		.4byte	.LBE183
 8648 0220 82030000 		.4byte	.LBB186
 8649 0224 90030000 		.4byte	.LBE186
 8650 0228 00000000 		.4byte	0
 8651 022c 00000000 		.4byte	0
 8652 0230 30000000 		.4byte	.LBB189
 8653 0234 AC000000 		.4byte	.LBE189
 8654 0238 1A020000 		.4byte	.LBB201
 8655 023c 34020000 		.4byte	.LBE201
 8656 0240 00000000 		.4byte	0
 8657 0244 00000000 		.4byte	0
 8658 0248 CA000000 		.4byte	.LBB192
 8659 024c 1E010000 		.4byte	.LBE192
 8660 0250 20010000 		.4byte	.LBB193
 8661 0254 26010000 		.4byte	.LBE193
 8662 0258 28010000 		.4byte	.LBB194
 8663 025c 30010000 		.4byte	.LBE194
 8664 0260 32010000 		.4byte	.LBB195
 8665 0264 34010000 		.4byte	.LBE195
 8666 0268 52010000 		.4byte	.LBB196
 8667 026c 82010000 		.4byte	.LBE196
 8668 0270 86010000 		.4byte	.LBB197
 8669 0274 FC010000 		.4byte	.LBE197
 8670 0278 FE010000 		.4byte	.LBB198
 8671 027c 04020000 		.4byte	.LBE198
 8672 0280 06020000 		.4byte	.LBB199
 8673 0284 0E020000 		.4byte	.LBE199
 8674 0288 10020000 		.4byte	.LBB200
 8675 028c 12020000 		.4byte	.LBE200
 8676 0290 00000000 		.4byte	0
 8677 0294 00000000 		.4byte	0
 8678 0298 18000000 		.4byte	.LBB208
 8679 029c 2A000000 		.4byte	.LBE208
 8680 02a0 F8000000 		.4byte	.LBB217
 8681 02a4 02010000 		.4byte	.LBE217
 8682 02a8 00000000 		.4byte	0
ARM GAS  C:\Users\EBANO_~1\AppData\Local\Temp\ccMXEZix.s 			page 170


 8683 02ac 00000000 		.4byte	0
 8684 02b0 2E000000 		.4byte	.LBB211
 8685 02b4 36000000 		.4byte	.LBE211
 8686 02b8 38000000 		.4byte	.LBB214
 8687 02bc 72000000 		.4byte	.LBE214
 8688 02c0 00000000 		.4byte	0
 8689 02c4 00000000 		.4byte	0
 8690 02c8 00000000 		.4byte	.LFB10
 8691 02cc B0030000 		.4byte	.LFE10
 8692 02d0 00000000 		.4byte	.LFB7
 8693 02d4 34020000 		.4byte	.LFE7
 8694 02d8 00000000 		.4byte	.LFB8
 8695 02dc 16000000 		.4byte	.LFE8
 8696 02e0 00000000 		.4byte	.LFB9
 8697 02e4 10010000 		.4byte	.LFE9
 8698 02e8 00000000 		.4byte	0
 8699 02ec 00000000 		.4byte	0
 8700              		.section	.debug_line,"",%progbits
 8701              	.Ldebug_line0:
 8702 0000 4D050000 		.section	.debug_str,"MS",%progbits,1
 8702      02002602 
 8702      00000201 
 8702      FB0E0D00 
 8702      01010101 
 8703              	.LASF41:
 8704 0000 5F64736F 		.ascii	"_dso_handle\000"
 8704      5F68616E 
 8704      646C6500 
 8705              	.LASF49:
 8706 000c 5F73697A 		.ascii	"_size\000"
 8706      6500
 8707              	.LASF143:
 8708 0012 636F7079 		.ascii	"copy_block\000"
 8708      5F626C6F 
 8708      636B00
 8709              	.LASF93:
 8710 001d 5F72616E 		.ascii	"_rand48\000"
 8710      64343800 
 8711              	.LASF73:
 8712 0025 5F656D65 		.ascii	"_emergency\000"
 8712      7267656E 
 8712      637900
 8713              	.LASF7:
 8714 0030 5F5F7569 		.ascii	"__uint8_t\000"
 8714      6E74385F 
 8714      7400
 8715              	.LASF63:
 8716 003a 5F646174 		.ascii	"_data\000"
 8716      6100
 8717              	.LASF133:
 8718 0040 6E5F626C 		.ascii	"n_block\000"
 8718      6F636B00 
 8719              	.LASF113:
 8720 0048 5F776372 		.ascii	"_wcrtomb_state\000"
 8720      746F6D62 
 8720      5F737461 
 8720      746500
ARM GAS  C:\Users\EBANO_~1\AppData\Local\Temp\ccMXEZix.s 			page 171


 8721              	.LASF114:
 8722 0057 5F776373 		.ascii	"_wcsrtombs_state\000"
 8722      72746F6D 
 8722      62735F73 
 8722      74617465 
 8722      00
 8723              	.LASF147:
 8724 0068 6165735F 		.ascii	"aes_encrypt\000"
 8724      656E6372 
 8724      79707400 
 8725              	.LASF11:
 8726 0074 6C6F6E67 		.ascii	"long long unsigned int\000"
 8726      206C6F6E 
 8726      6720756E 
 8726      7369676E 
 8726      65642069 
 8727              	.LASF53:
 8728 008b 5F6C6266 		.ascii	"_lbfsize\000"
 8728      73697A65 
 8728      00
 8729              	.LASF134:
 8730 0094 6165735F 		.ascii	"aes_cbc_encrypt\000"
 8730      6362635F 
 8730      656E6372 
 8730      79707400 
 8731              	.LASF120:
 8732 00a4 5F5F6C6F 		.ascii	"__locale_t\000"
 8732      63616C65 
 8732      5F7400
 8733              	.LASF111:
 8734 00af 5F6D6272 		.ascii	"_mbrtowc_state\000"
 8734      746F7763 
 8734      5F737461 
 8734      746500
 8735              	.LASF30:
 8736 00be 5F5F746D 		.ascii	"__tm_sec\000"
 8736      5F736563 
 8736      00
 8737              	.LASF1:
 8738 00c7 6C6F6E67 		.ascii	"long long int\000"
 8738      206C6F6E 
 8738      6720696E 
 8738      7400
 8739              	.LASF3:
 8740 00d5 7369676E 		.ascii	"signed char\000"
 8740      65642063 
 8740      68617200 
 8741              	.LASF59:
 8742 00e1 5F756275 		.ascii	"_ubuf\000"
 8742      6600
 8743              	.LASF48:
 8744 00e7 5F626173 		.ascii	"_base\000"
 8744      6500
 8745              	.LASF32:
 8746 00ed 5F5F746D 		.ascii	"__tm_hour\000"
 8746      5F686F75 
 8746      7200
ARM GAS  C:\Users\EBANO_~1\AppData\Local\Temp\ccMXEZix.s 			page 172


 8747              	.LASF88:
 8748 00f7 5F5F7366 		.ascii	"__sf\000"
 8748      00
 8749              	.LASF39:
 8750 00fc 5F6F6E5F 		.ascii	"_on_exit_args\000"
 8750      65786974 
 8750      5F617267 
 8750      7300
 8751              	.LASF54:
 8752 010a 5F636F6F 		.ascii	"_cookie\000"
 8752      6B696500 
 8753              	.LASF87:
 8754 0112 5F5F7367 		.ascii	"__sglue\000"
 8754      6C756500 
 8755              	.LASF9:
 8756 011a 6C6F6E67 		.ascii	"long int\000"
 8756      20696E74 
 8756      00
 8757              	.LASF51:
 8758 0123 5F666C61 		.ascii	"_flags\000"
 8758      677300
 8759              	.LASF43:
 8760 012a 5F69735F 		.ascii	"_is_cxa\000"
 8760      63786100 
 8761              	.LASF69:
 8762 0132 5F737464 		.ascii	"_stdin\000"
 8762      696E00
 8763              	.LASF61:
 8764 0139 5F626C6B 		.ascii	"_blksize\000"
 8764      73697A65 
 8764      00
 8765              	.LASF130:
 8766 0142 73626F78 		.ascii	"sbox\000"
 8766      00
 8767              	.LASF83:
 8768 0147 5F637674 		.ascii	"_cvtbuf\000"
 8768      62756600 
 8769              	.LASF62:
 8770 014f 5F6F6666 		.ascii	"_offset\000"
 8770      73657400 
 8771              	.LASF112:
 8772 0157 5F6D6273 		.ascii	"_mbsrtowcs_state\000"
 8772      72746F77 
 8772      63735F73 
 8772      74617465 
 8772      00
 8773              	.LASF110:
 8774 0168 5F6D6272 		.ascii	"_mbrlen_state\000"
 8774      6C656E5F 
 8774      73746174 
 8774      6500
 8775              	.LASF40:
 8776 0176 5F666E61 		.ascii	"_fnargs\000"
 8776      72677300 
 8777              	.LASF46:
 8778 017e 5F666E73 		.ascii	"_fns\000"
 8778      00
ARM GAS  C:\Users\EBANO_~1\AppData\Local\Temp\ccMXEZix.s 			page 173


 8779              	.LASF129:
 8780 0183 6165735F 		.ascii	"aes_context\000"
 8780      636F6E74 
 8780      65787400 
 8781              	.LASF26:
 8782 018f 5F736967 		.ascii	"_sign\000"
 8782      6E00
 8783              	.LASF21:
 8784 0195 5F666C6F 		.ascii	"_flock_t\000"
 8784      636B5F74 
 8784      00
 8785              	.LASF71:
 8786 019e 5F737464 		.ascii	"_stderr\000"
 8786      65727200 
 8787              	.LASF28:
 8788 01a6 5F426967 		.ascii	"_Bigint\000"
 8788      696E7400 
 8789              	.LASF101:
 8790 01ae 5F67616D 		.ascii	"_gamma_signgam\000"
 8790      6D615F73 
 8790      69676E67 
 8790      616D00
 8791              	.LASF55:
 8792 01bd 5F726561 		.ascii	"_read\000"
 8792      6400
 8793              	.LASF79:
 8794 01c3 5F726573 		.ascii	"_result_k\000"
 8794      756C745F 
 8794      6B00
 8795              	.LASF29:
 8796 01cd 5F5F746D 		.ascii	"__tm\000"
 8796      00
 8797              	.LASF0:
 8798 01d2 756E7369 		.ascii	"unsigned int\000"
 8798      676E6564 
 8798      20696E74 
 8798      00
 8799              	.LASF17:
 8800 01df 5F5F7763 		.ascii	"__wchb\000"
 8800      686200
 8801              	.LASF70:
 8802 01e6 5F737464 		.ascii	"_stdout\000"
 8802      6F757400 
 8803              	.LASF82:
 8804 01ee 5F637674 		.ascii	"_cvtlen\000"
 8804      6C656E00 
 8805              	.LASF128:
 8806 01f6 6B736368 		.ascii	"ksch\000"
 8806      00
 8807              	.LASF10:
 8808 01fb 6C6F6E67 		.ascii	"long unsigned int\000"
 8808      20756E73 
 8808      69676E65 
 8808      6420696E 
 8808      7400
 8809              	.LASF52:
 8810 020d 5F66696C 		.ascii	"_file\000"
ARM GAS  C:\Users\EBANO_~1\AppData\Local\Temp\ccMXEZix.s 			page 174


 8810      6500
 8811              	.LASF131:
 8812 0213 67666D32 		.ascii	"gfm2_sbox\000"
 8812      5F73626F 
 8812      7800
 8813              	.LASF91:
 8814 021d 5F6E696F 		.ascii	"_niobs\000"
 8814      627300
 8815              	.LASF6:
 8816 0224 73686F72 		.ascii	"short unsigned int\000"
 8816      7420756E 
 8816      7369676E 
 8816      65642069 
 8816      6E7400
 8817              	.LASF85:
 8818 0237 5F617465 		.ascii	"_atexit0\000"
 8818      78697430 
 8818      00
 8819              	.LASF108:
 8820 0240 5F736967 		.ascii	"_signal_buf\000"
 8820      6E616C5F 
 8820      62756600 
 8821              	.LASF99:
 8822 024c 5F617363 		.ascii	"_asctime_buf\000"
 8822      74696D65 
 8822      5F627566 
 8822      00
 8823              	.LASF145:
 8824 0259 2E2E2F2E 		.ascii	"../../../../../../Middlewares/Third_Party/LoRaWAN/C"
 8824      2E2F2E2E 
 8824      2F2E2E2F 
 8824      2E2E2F2E 
 8824      2E2F4D69 
 8825 028c 72797074 		.ascii	"rypto/aes.c\000"
 8825      6F2F6165 
 8825      732E6300 
 8826              	.LASF78:
 8827 0298 5F726573 		.ascii	"_result\000"
 8827      756C7400 
 8828              	.LASF16:
 8829 02a0 5F5F7763 		.ascii	"__wch\000"
 8829      6800
 8830              	.LASF12:
 8831 02a6 5F4C4F43 		.ascii	"_LOCK_T\000"
 8831      4B5F5400 
 8832              	.LASF15:
 8833 02ae 77696E74 		.ascii	"wint_t\000"
 8833      5F7400
 8834              	.LASF64:
 8835 02b5 5F6C6F63 		.ascii	"_lock\000"
 8835      6B00
 8836              	.LASF66:
 8837 02bb 5F666C61 		.ascii	"_flags2\000"
 8837      67733200 
 8838              	.LASF135:
 8839 02c3 6165735F 		.ascii	"aes_set_key\000"
 8839      7365745F 
ARM GAS  C:\Users\EBANO_~1\AppData\Local\Temp\ccMXEZix.s 			page 175


 8839      6B657900 
 8840              	.LASF56:
 8841 02cf 5F777269 		.ascii	"_write\000"
 8841      746500
 8842              	.LASF35:
 8843 02d6 5F5F746D 		.ascii	"__tm_year\000"
 8843      5F796561 
 8843      7200
 8844              	.LASF132:
 8845 02e0 67666D33 		.ascii	"gfm3_sbox\000"
 8845      5F73626F 
 8845      7800
 8846              	.LASF2:
 8847 02ea 6C6F6E67 		.ascii	"long double\000"
 8847      20646F75 
 8847      626C6500 
 8848              	.LASF116:
 8849 02f6 5F6E6578 		.ascii	"_nextf\000"
 8849      746600
 8850              	.LASF126:
 8851 02fd 72657475 		.ascii	"return_type\000"
 8851      726E5F74 
 8851      79706500 
 8852              	.LASF34:
 8853 0309 5F5F746D 		.ascii	"__tm_mon\000"
 8853      5F6D6F6E 
 8853      00
 8854              	.LASF44:
 8855 0312 5F617465 		.ascii	"_atexit\000"
 8855      78697400 
 8856              	.LASF123:
 8857 031a 7375626F 		.ascii	"suboptarg\000"
 8857      70746172 
 8857      6700
 8858              	.LASF76:
 8859 0324 5F5F7364 		.ascii	"__sdidinit\000"
 8859      6964696E 
 8859      697400
 8860              	.LASF13:
 8861 032f 5F6F6666 		.ascii	"_off_t\000"
 8861      5F7400
 8862              	.LASF124:
 8863 0336 75696E74 		.ascii	"uint8_t\000"
 8863      385F7400 
 8864              	.LASF81:
 8865 033e 5F667265 		.ascii	"_freelist\000"
 8865      656C6973 
 8865      7400
 8866              	.LASF106:
 8867 0348 5F776374 		.ascii	"_wctomb_state\000"
 8867      6F6D625F 
 8867      73746174 
 8867      6500
 8868              	.LASF144:
 8869 0356 474E5520 		.ascii	"GNU C11 7.3.1 20180622 (release) [ARM/embedded-7-br"
 8869      43313120 
 8869      372E332E 
ARM GAS  C:\Users\EBANO_~1\AppData\Local\Temp\ccMXEZix.s 			page 176


 8869      31203230 
 8869      31383036 
 8870 0389 616E6368 		.ascii	"anch revision 261907] -mcpu=cortex-m0plus -mthumb -"
 8870      20726576 
 8870      6973696F 
 8870      6E203236 
 8870      31393037 
 8871 03bc 6D666C6F 		.ascii	"mfloat-abi=soft -gdwarf-2 -O3 -ffunction-sections\000"
 8871      61742D61 
 8871      62693D73 
 8871      6F667420 
 8871      2D676477 
 8872              	.LASF125:
 8873 03ee 696E7433 		.ascii	"int32_t\000"
 8873      325F7400 
 8874              	.LASF4:
 8875 03f6 756E7369 		.ascii	"unsigned char\000"
 8875      676E6564 
 8875      20636861 
 8875      7200
 8876              	.LASF84:
 8877 0404 5F6E6577 		.ascii	"_new\000"
 8877      00
 8878              	.LASF115:
 8879 0409 5F685F65 		.ascii	"_h_errno\000"
 8879      72726E6F 
 8879      00
 8880              	.LASF5:
 8881 0412 73686F72 		.ascii	"short int\000"
 8881      7420696E 
 8881      7400
 8882              	.LASF37:
 8883 041c 5F5F746D 		.ascii	"__tm_yday\000"
 8883      5F796461 
 8883      7900
 8884              	.LASF47:
 8885 0426 5F5F7362 		.ascii	"__sbuf\000"
 8885      756600
 8886              	.LASF92:
 8887 042d 5F696F62 		.ascii	"_iobs\000"
 8887      7300
 8888              	.LASF89:
 8889 0433 5F5F4649 		.ascii	"__FILE\000"
 8889      4C4500
 8890              	.LASF20:
 8891 043a 5F6D6273 		.ascii	"_mbstate_t\000"
 8891      74617465 
 8891      5F7400
 8892              	.LASF50:
 8893 0445 5F5F7346 		.ascii	"__sFILE\000"
 8893      494C4500 
 8894              	.LASF65:
 8895 044d 5F6D6273 		.ascii	"_mbstate\000"
 8895      74617465 
 8895      00
 8896              	.LASF102:
 8897 0456 5F72616E 		.ascii	"_rand_next\000"
ARM GAS  C:\Users\EBANO_~1\AppData\Local\Temp\ccMXEZix.s 			page 177


 8897      645F6E65 
 8897      787400
 8898              	.LASF104:
 8899 0461 5F6D626C 		.ascii	"_mblen_state\000"
 8899      656E5F73 
 8899      74617465 
 8899      00
 8900              	.LASF72:
 8901 046e 5F696E63 		.ascii	"_inc\000"
 8901      00
 8902              	.LASF45:
 8903 0473 5F696E64 		.ascii	"_ind\000"
 8903      00
 8904              	.LASF75:
 8905 0478 5F6C6F63 		.ascii	"_locale\000"
 8905      616C6500 
 8906              	.LASF77:
 8907 0480 5F5F636C 		.ascii	"__cleanup\000"
 8907      65616E75 
 8907      7000
 8908              	.LASF74:
 8909 048a 5F756E73 		.ascii	"_unspecified_locale_info\000"
 8909      70656369 
 8909      66696564 
 8909      5F6C6F63 
 8909      616C655F 
 8910              	.LASF136:
 8911 04a3 6B65796C 		.ascii	"keylen\000"
 8911      656E00
 8912              	.LASF25:
 8913 04aa 5F6D6178 		.ascii	"_maxwds\000"
 8913      77647300 
 8914              	.LASF67:
 8915 04b2 5F726565 		.ascii	"_reent\000"
 8915      6E7400
 8916              	.LASF94:
 8917 04b9 5F736565 		.ascii	"_seed\000"
 8917      6400
 8918              	.LASF18:
 8919 04bf 5F5F636F 		.ascii	"__count\000"
 8919      756E7400 
 8920              	.LASF119:
 8921 04c7 5F5F6C6F 		.ascii	"__lock\000"
 8921      636B00
 8922              	.LASF19:
 8923 04ce 5F5F7661 		.ascii	"__value\000"
 8923      6C756500 
 8924              	.LASF57:
 8925 04d6 5F736565 		.ascii	"_seek\000"
 8925      6B00
 8926              	.LASF121:
 8927 04dc 5F696D70 		.ascii	"_impure_ptr\000"
 8927      7572655F 
 8927      70747200 
 8928              	.LASF140:
 8929 04e8 636F7079 		.ascii	"copy_and_key\000"
 8929      5F616E64 
ARM GAS  C:\Users\EBANO_~1\AppData\Local\Temp\ccMXEZix.s 			page 178


 8929      5F6B6579 
 8929      00
 8930              	.LASF14:
 8931 04f5 5F66706F 		.ascii	"_fpos_t\000"
 8931      735F7400 
 8932              	.LASF68:
 8933 04fd 5F657272 		.ascii	"_errno\000"
 8933      6E6F00
 8934              	.LASF22:
 8935 0504 63686172 		.ascii	"char\000"
 8935      00
 8936              	.LASF31:
 8937 0509 5F5F746D 		.ascii	"__tm_min\000"
 8937      5F6D696E 
 8937      00
 8938              	.LASF141:
 8939 0512 786F725F 		.ascii	"xor_block\000"
 8939      626C6F63 
 8939      6B00
 8940              	.LASF8:
 8941 051c 5F5F696E 		.ascii	"__int32_t\000"
 8941      7433325F 
 8941      7400
 8942              	.LASF95:
 8943 0526 5F6D756C 		.ascii	"_mult\000"
 8943      7400
 8944              	.LASF138:
 8945 052c 73686966 		.ascii	"shift_sub_rows\000"
 8945      745F7375 
 8945      625F726F 
 8945      777300
 8946              	.LASF24:
 8947 053b 5F6E6578 		.ascii	"_next\000"
 8947      7400
 8948              	.LASF98:
 8949 0541 5F737472 		.ascii	"_strtok_last\000"
 8949      746F6B5F 
 8949      6C617374 
 8949      00
 8950              	.LASF42:
 8951 054e 5F666E74 		.ascii	"_fntypes\000"
 8951      79706573 
 8951      00
 8952              	.LASF96:
 8953 0557 5F616464 		.ascii	"_add\000"
 8953      00
 8954              	.LASF23:
 8955 055c 5F5F554C 		.ascii	"__ULong\000"
 8955      6F6E6700 
 8956              	.LASF109:
 8957 0564 5F676574 		.ascii	"_getdate_err\000"
 8957      64617465 
 8957      5F657272 
 8957      00
 8958              	.LASF122:
 8959 0571 5F676C6F 		.ascii	"_global_impure_ptr\000"
 8959      62616C5F 
ARM GAS  C:\Users\EBANO_~1\AppData\Local\Temp\ccMXEZix.s 			page 179


 8959      696D7075 
 8959      72655F70 
 8959      747200
 8960              	.LASF137:
 8961 0584 6D69785F 		.ascii	"mix_sub_columns\000"
 8961      7375625F 
 8961      636F6C75 
 8961      6D6E7300 
 8962              	.LASF97:
 8963 0594 5F756E75 		.ascii	"_unused_rand\000"
 8963      7365645F 
 8963      72616E64 
 8963      00
 8964              	.LASF27:
 8965 05a1 5F776473 		.ascii	"_wds\000"
 8965      00
 8966              	.LASF36:
 8967 05a6 5F5F746D 		.ascii	"__tm_wday\000"
 8967      5F776461 
 8967      7900
 8968              	.LASF90:
 8969 05b0 5F676C75 		.ascii	"_glue\000"
 8969      6500
 8970              	.LASF117:
 8971 05b6 5F6E6D61 		.ascii	"_nmalloc\000"
 8971      6C6C6F63 
 8971      00
 8972              	.LASF107:
 8973 05bf 5F6C3634 		.ascii	"_l64a_buf\000"
 8973      615F6275 
 8973      6600
 8974              	.LASF86:
 8975 05c9 5F736967 		.ascii	"_sig_func\000"
 8975      5F66756E 
 8975      6300
 8976              	.LASF139:
 8977 05d3 6164645F 		.ascii	"add_round_key\000"
 8977      726F756E 
 8977      645F6B65 
 8977      7900
 8978              	.LASF146:
 8979 05e1 443A5C67 		.ascii	"D:\\git_pessoal\\keil_gcc\\STM32CubeExpansion_LRWAN"
 8979      69745F70 
 8979      6573736F 
 8979      616C5C6B 
 8979      65696C5F 
 8980 0611 5F56312E 		.ascii	"_V1.2.1\\Projects\\B-L072Z-LRWAN1\\Applications\\Lo"
 8980      322E315C 
 8980      50726F6A 
 8980      65637473 
 8980      5C422D4C 
 8981 0640 52615C45 		.ascii	"Ra\\End_Node\\MDK-ARM\000"
 8981      6E645F4E 
 8981      6F64655C 
 8981      4D444B2D 
 8981      41524D00 
 8982              	.LASF60:
ARM GAS  C:\Users\EBANO_~1\AppData\Local\Temp\ccMXEZix.s 			page 180


 8983 0654 5F6E6275 		.ascii	"_nbuf\000"
 8983      6600
 8984              	.LASF118:
 8985 065a 5F756E75 		.ascii	"_unused\000"
 8985      73656400 
 8986              	.LASF38:
 8987 0662 5F5F746D 		.ascii	"__tm_isdst\000"
 8987      5F697364 
 8987      737400
 8988              	.LASF100:
 8989 066d 5F6C6F63 		.ascii	"_localtime_buf\000"
 8989      616C7469 
 8989      6D655F62 
 8989      756600
 8990              	.LASF58:
 8991 067c 5F636C6F 		.ascii	"_close\000"
 8991      736500
 8992              	.LASF103:
 8993 0683 5F723438 		.ascii	"_r48\000"
 8993      00
 8994              	.LASF105:
 8995 0688 5F6D6274 		.ascii	"_mbtowc_state\000"
 8995      6F77635F 
 8995      73746174 
 8995      6500
 8996              	.LASF80:
 8997 0696 5F703573 		.ascii	"_p5s\000"
 8997      00
 8998              	.LASF142:
 8999 069b 636F7079 		.ascii	"copy_block_nn\000"
 8999      5F626C6F 
 8999      636B5F6E 
 8999      6E00
 9000              	.LASF127:
 9001 06a9 6C656E67 		.ascii	"length_type\000"
 9001      74685F74 
 9001      79706500 
 9002              	.LASF33:
 9003 06b5 5F5F746D 		.ascii	"__tm_mday\000"
 9003      5F6D6461 
 9003      7900
 9004              		.ident	"GCC: (GNU Tools for Arm Embedded Processors 7-2018-q2-update) 7.3.1 20180622 (release) [AR
ARM GAS  C:\Users\EBANO_~1\AppData\Local\Temp\ccMXEZix.s 			page 181


DEFINED SYMBOLS
                            *ABS*:00000000 aes.c
C:\Users\EBANO_~1\AppData\Local\Temp\ccMXEZix.s:16     .text.aes_encrypt.part.0:00000000 $t
C:\Users\EBANO_~1\AppData\Local\Temp\ccMXEZix.s:23     .text.aes_encrypt.part.0:00000000 aes_encrypt.part.0
C:\Users\EBANO_~1\AppData\Local\Temp\ccMXEZix.s:1096   .text.aes_encrypt.part.0:000003a4 $d
C:\Users\EBANO_~1\AppData\Local\Temp\ccMXEZix.s:2433   .rodata:00000200 sbox
C:\Users\EBANO_~1\AppData\Local\Temp\ccMXEZix.s:2174   .rodata:00000100 gfm2_sbox
C:\Users\EBANO_~1\AppData\Local\Temp\ccMXEZix.s:1915   .rodata:00000000 gfm3_sbox
C:\Users\EBANO_~1\AppData\Local\Temp\ccMXEZix.s:1105   .text.aes_set_key:00000000 $t
C:\Users\EBANO_~1\AppData\Local\Temp\ccMXEZix.s:1113   .text.aes_set_key:00000000 aes_set_key
C:\Users\EBANO_~1\AppData\Local\Temp\ccMXEZix.s:1610   .text.aes_set_key:0000022c $d
C:\Users\EBANO_~1\AppData\Local\Temp\ccMXEZix.s:1618   .text.aes_encrypt:00000000 $t
C:\Users\EBANO_~1\AppData\Local\Temp\ccMXEZix.s:1626   .text.aes_encrypt:00000000 aes_encrypt
C:\Users\EBANO_~1\AppData\Local\Temp\ccMXEZix.s:1660   .text.aes_cbc_encrypt:00000000 $t
C:\Users\EBANO_~1\AppData\Local\Temp\ccMXEZix.s:1668   .text.aes_cbc_encrypt:00000000 aes_cbc_encrypt
C:\Users\EBANO_~1\AppData\Local\Temp\ccMXEZix.s:1912   .rodata:00000000 $d

UNDEFINED SYMBOLS
__aeabi_uidivmod
