ARM GAS  C:\Users\EBANO_~1\AppData\Local\Temp\cco1ynqH.s 			page 1


   1              		.cpu cortex-m0plus
   2              		.eabi_attribute 20, 1
   3              		.eabi_attribute 21, 1
   4              		.eabi_attribute 23, 3
   5              		.eabi_attribute 24, 1
   6              		.eabi_attribute 25, 1
   7              		.eabi_attribute 26, 1
   8              		.eabi_attribute 30, 2
   9              		.eabi_attribute 34, 0
  10              		.eabi_attribute 18, 4
  11              		.file	"cmac.c"
  12              		.text
  13              	.Ltext0:
  14              		.cfi_sections	.debug_frame
  15              		.section	.text.AES_CMAC_Init,"ax",%progbits
  16              		.align	1
  17              		.p2align 2,,3
  18              		.global	AES_CMAC_Init
  19              		.syntax unified
  20              		.code	16
  21              		.thumb_func
  22              		.fpu softvfp
  23              		.type	AES_CMAC_Init, %function
  24              	AES_CMAC_Init:
  25              	.LFB39:
  26              		.file 1 "../../../../../../Middlewares/Third_Party/LoRaWAN/Crypto/cmac.c"
   1:../../../../../../Middlewares/Third_Party/LoRaWAN/Crypto/cmac.c **** /**************************************************************************
   2:../../../../../../Middlewares/Third_Party/LoRaWAN/Crypto/cmac.c **** Copyright (C) 2009 Lander Casado, Philippas Tsigas
   3:../../../../../../Middlewares/Third_Party/LoRaWAN/Crypto/cmac.c **** 
   4:../../../../../../Middlewares/Third_Party/LoRaWAN/Crypto/cmac.c **** All rights reserved.
   5:../../../../../../Middlewares/Third_Party/LoRaWAN/Crypto/cmac.c **** 
   6:../../../../../../Middlewares/Third_Party/LoRaWAN/Crypto/cmac.c **** Permission is hereby granted, free of charge, to any person obtaining
   7:../../../../../../Middlewares/Third_Party/LoRaWAN/Crypto/cmac.c **** a copy of this software and associated documentation files 
   8:../../../../../../Middlewares/Third_Party/LoRaWAN/Crypto/cmac.c **** (the "Software"), to deal with the Software without restriction, including
   9:../../../../../../Middlewares/Third_Party/LoRaWAN/Crypto/cmac.c **** without limitation the rights to use, copy, modify, merge, publish, 
  10:../../../../../../Middlewares/Third_Party/LoRaWAN/Crypto/cmac.c **** distribute, sublicense, and/or sell copies of the Software, and to
  11:../../../../../../Middlewares/Third_Party/LoRaWAN/Crypto/cmac.c **** permit persons to whom the Software is furnished to do so, subject to
  12:../../../../../../Middlewares/Third_Party/LoRaWAN/Crypto/cmac.c **** the following conditions: 
  13:../../../../../../Middlewares/Third_Party/LoRaWAN/Crypto/cmac.c **** 
  14:../../../../../../Middlewares/Third_Party/LoRaWAN/Crypto/cmac.c **** Redistributions of source code must retain the above copyright notice, 
  15:../../../../../../Middlewares/Third_Party/LoRaWAN/Crypto/cmac.c **** this list of conditions and the following disclaimers. Redistributions in
  16:../../../../../../Middlewares/Third_Party/LoRaWAN/Crypto/cmac.c **** binary form must reproduce the above copyright notice, this list of
  17:../../../../../../Middlewares/Third_Party/LoRaWAN/Crypto/cmac.c **** conditions and the following disclaimers in the documentation and/or 
  18:../../../../../../Middlewares/Third_Party/LoRaWAN/Crypto/cmac.c **** other materials provided with the distribution.
  19:../../../../../../Middlewares/Third_Party/LoRaWAN/Crypto/cmac.c **** 
  20:../../../../../../Middlewares/Third_Party/LoRaWAN/Crypto/cmac.c **** In no event shall the authors or copyright holders be liable for any special,
  21:../../../../../../Middlewares/Third_Party/LoRaWAN/Crypto/cmac.c **** incidental, indirect or consequential damages of any kind, or any damages 
  22:../../../../../../Middlewares/Third_Party/LoRaWAN/Crypto/cmac.c **** whatsoever resulting from loss of use, data or profits, whether or not 
  23:../../../../../../Middlewares/Third_Party/LoRaWAN/Crypto/cmac.c **** advised of the possibility of damage, and on any theory of liability, 
  24:../../../../../../Middlewares/Third_Party/LoRaWAN/Crypto/cmac.c **** arising out of or in connection with the use or performance of this software.
  25:../../../../../../Middlewares/Third_Party/LoRaWAN/Crypto/cmac.c ****  
  26:../../../../../../Middlewares/Third_Party/LoRaWAN/Crypto/cmac.c **** THE SOFTWARE IS PROVIDED "AS IS", WITHOUT WARRANTY OF ANY KIND, EXPRESS
  27:../../../../../../Middlewares/Third_Party/LoRaWAN/Crypto/cmac.c **** OR IMPLIED, INCLUDING BUT NOT LIMITED TO THE WARRANTIES OF MERCHANTABILITY,
  28:../../../../../../Middlewares/Third_Party/LoRaWAN/Crypto/cmac.c **** FITNESS FOR A PARTICULAR PURPOSE AND NONINFRINGEMENT. IN NO EVENT SHALL THE
  29:../../../../../../Middlewares/Third_Party/LoRaWAN/Crypto/cmac.c **** CONTRIBUTORS OR COPYRIGHT HOLDERS BE LIABLE FOR ANY CLAIM, DAMAGES OR OTHER
  30:../../../../../../Middlewares/Third_Party/LoRaWAN/Crypto/cmac.c **** LIABILITY, WHETHER IN AN ACTION OF CONTRACT, TORT OR OTHERWISE, ARISING 
  31:../../../../../../Middlewares/Third_Party/LoRaWAN/Crypto/cmac.c **** FROM, OUT OF OR IN CONNECTION WITH THE SOFTWARE OR THE USE OR OTHER 
ARM GAS  C:\Users\EBANO_~1\AppData\Local\Temp\cco1ynqH.s 			page 2


  32:../../../../../../Middlewares/Third_Party/LoRaWAN/Crypto/cmac.c **** DEALINGS WITH THE SOFTWARE
  33:../../../../../../Middlewares/Third_Party/LoRaWAN/Crypto/cmac.c **** 
  34:../../../../../../Middlewares/Third_Party/LoRaWAN/Crypto/cmac.c **** *****************************************************************************/
  35:../../../../../../Middlewares/Third_Party/LoRaWAN/Crypto/cmac.c **** //#include <sys/param.h>
  36:../../../../../../Middlewares/Third_Party/LoRaWAN/Crypto/cmac.c **** //#include <sys/systm.h> 
  37:../../../../../../Middlewares/Third_Party/LoRaWAN/Crypto/cmac.c **** #include <stdint.h>
  38:../../../../../../Middlewares/Third_Party/LoRaWAN/Crypto/cmac.c **** #include "aes.h"
  39:../../../../../../Middlewares/Third_Party/LoRaWAN/Crypto/cmac.c **** #include "cmac.h"
  40:../../../../../../Middlewares/Third_Party/LoRaWAN/Crypto/cmac.c **** #include "utilities.h"
  41:../../../../../../Middlewares/Third_Party/LoRaWAN/Crypto/cmac.c **** 
  42:../../../../../../Middlewares/Third_Party/LoRaWAN/Crypto/cmac.c **** #define LSHIFT(v, r) do {                                       \
  43:../../../../../../Middlewares/Third_Party/LoRaWAN/Crypto/cmac.c ****   int32_t i;                                                  \
  44:../../../../../../Middlewares/Third_Party/LoRaWAN/Crypto/cmac.c ****            for (i = 0; i < 15; i++)                                \
  45:../../../../../../Middlewares/Third_Party/LoRaWAN/Crypto/cmac.c ****                     (r)[i] = (v)[i] << 1 | (v)[i + 1] >> 7;         \
  46:../../../../../../Middlewares/Third_Party/LoRaWAN/Crypto/cmac.c ****             (r)[15] = (v)[15] << 1;                                 \
  47:../../../../../../Middlewares/Third_Party/LoRaWAN/Crypto/cmac.c ****     } while (0)
  48:../../../../../../Middlewares/Third_Party/LoRaWAN/Crypto/cmac.c ****     
  49:../../../../../../Middlewares/Third_Party/LoRaWAN/Crypto/cmac.c **** #define XOR(v, r) do {                                          \
  50:../../../../../../Middlewares/Third_Party/LoRaWAN/Crypto/cmac.c ****             int32_t i;                                                  \
  51:../../../../../../Middlewares/Third_Party/LoRaWAN/Crypto/cmac.c ****             for (i = 0; i < 16; i++)     \
  52:../../../../../../Middlewares/Third_Party/LoRaWAN/Crypto/cmac.c ****         {   \
  53:../../../../../../Middlewares/Third_Party/LoRaWAN/Crypto/cmac.c ****                     (r)[i] = (r)[i] ^ (v)[i]; \
  54:../../../../../../Middlewares/Third_Party/LoRaWAN/Crypto/cmac.c ****         }                          \
  55:../../../../../../Middlewares/Third_Party/LoRaWAN/Crypto/cmac.c ****     } while (0) \
  56:../../../../../../Middlewares/Third_Party/LoRaWAN/Crypto/cmac.c **** 
  57:../../../../../../Middlewares/Third_Party/LoRaWAN/Crypto/cmac.c **** 
  58:../../../../../../Middlewares/Third_Party/LoRaWAN/Crypto/cmac.c **** void AES_CMAC_Init(AES_CMAC_CTX *ctx)
  59:../../../../../../Middlewares/Third_Party/LoRaWAN/Crypto/cmac.c **** {
  27              		.loc 1 59 0
  28              		.cfi_startproc
  29              		@ args = 0, pretend = 0, frame = 0
  30              		@ frame_needed = 0, uses_anonymous_args = 0
  31              	.LVL0:
  32 0000 10B5     		push	{r4, lr}
  33              	.LCFI0:
  34              		.cfi_def_cfa_offset 8
  35              		.cfi_offset 4, -8
  36              		.cfi_offset 14, -4
  60:../../../../../../Middlewares/Third_Party/LoRaWAN/Crypto/cmac.c ****             memset1(ctx->X, 0, sizeof ctx->X);
  37              		.loc 1 60 0
  38 0002 1022     		movs	r2, #16
  59:../../../../../../Middlewares/Third_Party/LoRaWAN/Crypto/cmac.c ****             memset1(ctx->X, 0, sizeof ctx->X);
  39              		.loc 1 59 0
  40 0004 0400     		movs	r4, r0
  41              		.loc 1 60 0
  42 0006 0021     		movs	r1, #0
  43 0008 F130     		adds	r0, r0, #241
  44              	.LVL1:
  45 000a FFF7FEFF 		bl	memset1
  46              	.LVL2:
  61:../../../../../../Middlewares/Third_Party/LoRaWAN/Crypto/cmac.c ****             ctx->M_n = 0;
  47              		.loc 1 61 0
  48 000e 8A23     		movs	r3, #138
  49 0010 0022     		movs	r2, #0
  50 0012 5B00     		lsls	r3, r3, #1
  51 0014 E250     		str	r2, [r4, r3]
  62:../../../../../../Middlewares/Third_Party/LoRaWAN/Crypto/cmac.c ****         memset1(ctx->rijndael.ksch, '\0', 240);
ARM GAS  C:\Users\EBANO_~1\AppData\Local\Temp\cco1ynqH.s 			page 3


  52              		.loc 1 62 0
  53 0016 0021     		movs	r1, #0
  54 0018 F032     		adds	r2, r2, #240
  55 001a 2000     		movs	r0, r4
  56 001c FFF7FEFF 		bl	memset1
  57              	.LVL3:
  63:../../../../../../Middlewares/Third_Party/LoRaWAN/Crypto/cmac.c **** }
  58              		.loc 1 63 0
  59              		@ sp needed
  60              	.LVL4:
  61 0020 10BD     		pop	{r4, pc}
  62              		.cfi_endproc
  63              	.LFE39:
  64              		.size	AES_CMAC_Init, .-AES_CMAC_Init
  65 0022 C046     		.section	.text.AES_CMAC_SetKey,"ax",%progbits
  66              		.align	1
  67              		.p2align 2,,3
  68              		.global	AES_CMAC_SetKey
  69              		.syntax unified
  70              		.code	16
  71              		.thumb_func
  72              		.fpu softvfp
  73              		.type	AES_CMAC_SetKey, %function
  74              	AES_CMAC_SetKey:
  75              	.LFB40:
  64:../../../../../../Middlewares/Third_Party/LoRaWAN/Crypto/cmac.c ****     
  65:../../../../../../Middlewares/Third_Party/LoRaWAN/Crypto/cmac.c **** void AES_CMAC_SetKey(AES_CMAC_CTX *ctx, const uint8_t key[AES_CMAC_KEY_LENGTH])
  66:../../../../../../Middlewares/Third_Party/LoRaWAN/Crypto/cmac.c **** {
  76              		.loc 1 66 0
  77              		.cfi_startproc
  78              		@ args = 0, pretend = 0, frame = 0
  79              		@ frame_needed = 0, uses_anonymous_args = 0
  80              	.LVL5:
  81 0000 10B5     		push	{r4, lr}
  82              	.LCFI1:
  83              		.cfi_def_cfa_offset 8
  84              		.cfi_offset 4, -8
  85              		.cfi_offset 14, -4
  86              		.loc 1 66 0
  87 0002 0200     		movs	r2, r0
  88 0004 0800     		movs	r0, r1
  89              	.LVL6:
  67:../../../../../../Middlewares/Third_Party/LoRaWAN/Crypto/cmac.c ****            //rijndael_set_key_enc_only(&ctx->rijndael, key, 128);
  68:../../../../../../Middlewares/Third_Party/LoRaWAN/Crypto/cmac.c ****        aes_set_key( key, AES_CMAC_KEY_LENGTH, &ctx->rijndael);
  90              		.loc 1 68 0
  91 0006 1021     		movs	r1, #16
  92              	.LVL7:
  93 0008 FFF7FEFF 		bl	aes_set_key
  94              	.LVL8:
  69:../../../../../../Middlewares/Third_Party/LoRaWAN/Crypto/cmac.c **** }
  95              		.loc 1 69 0
  96              		@ sp needed
  97 000c 10BD     		pop	{r4, pc}
  98              		.cfi_endproc
  99              	.LFE40:
 100              		.size	AES_CMAC_SetKey, .-AES_CMAC_SetKey
 101 000e C046     		.section	.text.AES_CMAC_Update,"ax",%progbits
ARM GAS  C:\Users\EBANO_~1\AppData\Local\Temp\cco1ynqH.s 			page 4


 102              		.align	1
 103              		.p2align 2,,3
 104              		.global	AES_CMAC_Update
 105              		.syntax unified
 106              		.code	16
 107              		.thumb_func
 108              		.fpu softvfp
 109              		.type	AES_CMAC_Update, %function
 110              	AES_CMAC_Update:
 111              	.LFB41:
  70:../../../../../../Middlewares/Third_Party/LoRaWAN/Crypto/cmac.c ****     
  71:../../../../../../Middlewares/Third_Party/LoRaWAN/Crypto/cmac.c **** void AES_CMAC_Update(AES_CMAC_CTX *ctx, const uint8_t *data, uint32_t len)
  72:../../../../../../Middlewares/Third_Party/LoRaWAN/Crypto/cmac.c **** {
 112              		.loc 1 72 0
 113              		.cfi_startproc
 114              		@ args = 0, pretend = 0, frame = 24
 115              		@ frame_needed = 0, uses_anonymous_args = 0
 116              	.LVL9:
 117 0000 F0B5     		push	{r4, r5, r6, r7, lr}
 118              	.LCFI2:
 119              		.cfi_def_cfa_offset 20
 120              		.cfi_offset 4, -20
 121              		.cfi_offset 5, -16
 122              		.cfi_offset 6, -12
 123              		.cfi_offset 7, -8
 124              		.cfi_offset 14, -4
 125 0002 4E46     		mov	r6, r9
 126 0004 4546     		mov	r5, r8
 127 0006 DE46     		mov	lr, fp
 128 0008 5746     		mov	r7, r10
  73:../../../../../../Middlewares/Third_Party/LoRaWAN/Crypto/cmac.c ****             uint32_t mlen;
  74:../../../../../../Middlewares/Third_Party/LoRaWAN/Crypto/cmac.c ****         uint8_t in[16];
  75:../../../../../../Middlewares/Third_Party/LoRaWAN/Crypto/cmac.c ****     
  76:../../../../../../Middlewares/Third_Party/LoRaWAN/Crypto/cmac.c ****             if (ctx->M_n > 0) {
 129              		.loc 1 76 0
 130 000a 8A23     		movs	r3, #138
  72:../../../../../../Middlewares/Third_Party/LoRaWAN/Crypto/cmac.c ****             uint32_t mlen;
 131              		.loc 1 72 0
 132 000c 0400     		movs	r4, r0
 133 000e E0B5     		push	{r5, r6, r7, lr}
 134              	.LCFI3:
 135              		.cfi_def_cfa_offset 36
 136              		.cfi_offset 8, -36
 137              		.cfi_offset 9, -32
 138              		.cfi_offset 10, -28
 139              		.cfi_offset 11, -24
 140              		.loc 1 76 0
 141 0010 5B00     		lsls	r3, r3, #1
 142 0012 C058     		ldr	r0, [r0, r3]
 143              	.LVL10:
 144 0014 A31C     		adds	r3, r4, #2
  72:../../../../../../Middlewares/Third_Party/LoRaWAN/Crypto/cmac.c ****             uint32_t mlen;
 145              		.loc 1 72 0
 146 0016 87B0     		sub	sp, sp, #28
 147              	.LCFI4:
 148              		.cfi_def_cfa_offset 64
 149 0018 FF33     		adds	r3, r3, #255
ARM GAS  C:\Users\EBANO_~1\AppData\Local\Temp\cco1ynqH.s 			page 5


  72:../../../../../../Middlewares/Third_Party/LoRaWAN/Crypto/cmac.c ****             uint32_t mlen;
 150              		.loc 1 72 0
 151 001a 0D00     		movs	r5, r1
 152 001c 1600     		movs	r6, r2
 153 001e 0093     		str	r3, [sp]
 154              		.loc 1 76 0
 155 0020 0028     		cmp	r0, #0
 156 0022 00D0     		beq	.LCB98
 157 0024 8BE0     		b	.L15	@long jump
 158              	.LCB98:
 159              	.LVL11:
 160              	.L5:
  77:../../../../../../Middlewares/Third_Party/LoRaWAN/Crypto/cmac.c ****                   mlen = MIN(16 - ctx->M_n, len);
  78:../../../../../../Middlewares/Third_Party/LoRaWAN/Crypto/cmac.c ****                     memcpy1(ctx->M_last + ctx->M_n, data, mlen);
  79:../../../../../../Middlewares/Third_Party/LoRaWAN/Crypto/cmac.c ****                     ctx->M_n += mlen;
  80:../../../../../../Middlewares/Third_Party/LoRaWAN/Crypto/cmac.c ****                     if (ctx->M_n < 16 || len == mlen)
  81:../../../../../../Middlewares/Third_Party/LoRaWAN/Crypto/cmac.c ****                             return;
  82:../../../../../../Middlewares/Third_Party/LoRaWAN/Crypto/cmac.c ****                    XOR(ctx->M_last, ctx->X);
  83:../../../../../../Middlewares/Third_Party/LoRaWAN/Crypto/cmac.c ****                     //rijndael_encrypt(&ctx->rijndael, ctx->X, ctx->X);
  84:../../../../../../Middlewares/Third_Party/LoRaWAN/Crypto/cmac.c ****             aes_encrypt( ctx->X, ctx->X, &ctx->rijndael);
  85:../../../../../../Middlewares/Third_Party/LoRaWAN/Crypto/cmac.c ****                     data += mlen;
  86:../../../../../../Middlewares/Third_Party/LoRaWAN/Crypto/cmac.c ****                     len -= mlen;
  87:../../../../../../Middlewares/Third_Party/LoRaWAN/Crypto/cmac.c ****             }
  88:../../../../../../Middlewares/Third_Party/LoRaWAN/Crypto/cmac.c ****             while (len > 16) {      /* not last block */
 161              		.loc 1 88 0
 162 0026 102E     		cmp	r6, #16
 163 0028 7AD9     		bls	.L8
 164 002a F123     		movs	r3, #241
 165 002c 9A46     		mov	r10, r3
 166 002e 3300     		movs	r3, r6
 167 0030 113B     		subs	r3, r3, #17
 168 0032 1B09     		lsrs	r3, r3, #4
 169 0034 0193     		str	r3, [sp, #4]
 170 0036 0133     		adds	r3, r3, #1
 171 0038 1B01     		lsls	r3, r3, #4
 172 003a 9B46     		mov	fp, r3
 173              	.LBB2:
  89:../../../../../../Middlewares/Third_Party/LoRaWAN/Crypto/cmac.c **** 
  90:../../../../../../Middlewares/Third_Party/LoRaWAN/Crypto/cmac.c ****                     XOR(data, ctx->X);
 174              		.loc 1 90 0
 175 003c F123     		movs	r3, #241
 176 003e 9946     		mov	r9, r3
 177 0040 0133     		adds	r3, r3, #1
 178 0042 9846     		mov	r8, r3
 179 0044 3300     		movs	r3, r6
 180 0046 A244     		add	r10, r10, r4
 181 0048 5646     		mov	r6, r10
 182              	.LVL12:
 183 004a F327     		movs	r7, #243
 184 004c 9A46     		mov	r10, r3
 185 004e AB44     		add	fp, fp, r5
 186              	.LVL13:
 187              	.L9:
 188 0050 4B46     		mov	r3, r9
 189 0052 2A78     		ldrb	r2, [r5]
 190 0054 E35C     		ldrb	r3, [r4, r3]
 191              	.LBE2:
ARM GAS  C:\Users\EBANO_~1\AppData\Local\Temp\cco1ynqH.s 			page 6


  91:../../../../../../Middlewares/Third_Party/LoRaWAN/Crypto/cmac.c ****                     //rijndael_encrypt(&ctx->rijndael, ctx->X, ctx->X);
  92:../../../../../../Middlewares/Third_Party/LoRaWAN/Crypto/cmac.c **** 
  93:../../../../../../Middlewares/Third_Party/LoRaWAN/Crypto/cmac.c ****                     memcpy1(in, &ctx->X[0], 16); //Bestela ez du ondo iten
 192              		.loc 1 93 0
 193 0056 02A8     		add	r0, sp, #8
 194              	.LBB3:
  90:../../../../../../Middlewares/Third_Party/LoRaWAN/Crypto/cmac.c ****                     //rijndael_encrypt(&ctx->rijndael, ctx->X, ctx->X);
 195              		.loc 1 90 0
 196 0058 5340     		eors	r3, r2
 197 005a 4A46     		mov	r2, r9
 198 005c A354     		strb	r3, [r4, r2]
 199              	.LVL14:
 200 005e 4346     		mov	r3, r8
 201 0060 6A78     		ldrb	r2, [r5, #1]
 202 0062 E35C     		ldrb	r3, [r4, r3]
 203 0064 5340     		eors	r3, r2
 204 0066 4246     		mov	r2, r8
 205 0068 A354     		strb	r3, [r4, r2]
 206              	.LVL15:
 207 006a AA78     		ldrb	r2, [r5, #2]
 208 006c E35D     		ldrb	r3, [r4, r7]
 209 006e 5340     		eors	r3, r2
 210 0070 F422     		movs	r2, #244
 211 0072 E355     		strb	r3, [r4, r7]
 212              	.LVL16:
 213 0074 E978     		ldrb	r1, [r5, #3]
 214 0076 A35C     		ldrb	r3, [r4, r2]
 215 0078 4B40     		eors	r3, r1
 216 007a A354     		strb	r3, [r4, r2]
 217              	.LVL17:
 218 007c 0132     		adds	r2, r2, #1
 219 007e 2979     		ldrb	r1, [r5, #4]
 220 0080 A35C     		ldrb	r3, [r4, r2]
 221 0082 4B40     		eors	r3, r1
 222 0084 A354     		strb	r3, [r4, r2]
 223              	.LVL18:
 224 0086 0132     		adds	r2, r2, #1
 225 0088 6979     		ldrb	r1, [r5, #5]
 226 008a A35C     		ldrb	r3, [r4, r2]
 227 008c 4B40     		eors	r3, r1
 228 008e A354     		strb	r3, [r4, r2]
 229              	.LVL19:
 230 0090 0132     		adds	r2, r2, #1
 231 0092 A979     		ldrb	r1, [r5, #6]
 232 0094 A35C     		ldrb	r3, [r4, r2]
 233 0096 4B40     		eors	r3, r1
 234 0098 A354     		strb	r3, [r4, r2]
 235              	.LVL20:
 236 009a 0132     		adds	r2, r2, #1
 237 009c E979     		ldrb	r1, [r5, #7]
 238 009e A35C     		ldrb	r3, [r4, r2]
 239 00a0 4B40     		eors	r3, r1
 240 00a2 A354     		strb	r3, [r4, r2]
 241              	.LVL21:
 242 00a4 0132     		adds	r2, r2, #1
 243 00a6 297A     		ldrb	r1, [r5, #8]
 244 00a8 A35C     		ldrb	r3, [r4, r2]
ARM GAS  C:\Users\EBANO_~1\AppData\Local\Temp\cco1ynqH.s 			page 7


 245 00aa 4B40     		eors	r3, r1
 246 00ac A354     		strb	r3, [r4, r2]
 247              	.LVL22:
 248 00ae 0132     		adds	r2, r2, #1
 249 00b0 697A     		ldrb	r1, [r5, #9]
 250 00b2 A35C     		ldrb	r3, [r4, r2]
 251 00b4 4B40     		eors	r3, r1
 252 00b6 A354     		strb	r3, [r4, r2]
 253              	.LVL23:
 254 00b8 0132     		adds	r2, r2, #1
 255 00ba A97A     		ldrb	r1, [r5, #10]
 256 00bc A35C     		ldrb	r3, [r4, r2]
 257 00be 4B40     		eors	r3, r1
 258 00c0 A354     		strb	r3, [r4, r2]
 259              	.LVL24:
 260 00c2 0132     		adds	r2, r2, #1
 261 00c4 E97A     		ldrb	r1, [r5, #11]
 262 00c6 A35C     		ldrb	r3, [r4, r2]
 263 00c8 4B40     		eors	r3, r1
 264 00ca A354     		strb	r3, [r4, r2]
 265              	.LVL25:
 266 00cc 0132     		adds	r2, r2, #1
 267 00ce 297B     		ldrb	r1, [r5, #12]
 268 00d0 A35C     		ldrb	r3, [r4, r2]
 269 00d2 4B40     		eors	r3, r1
 270 00d4 A354     		strb	r3, [r4, r2]
 271              	.LVL26:
 272 00d6 0132     		adds	r2, r2, #1
 273 00d8 697B     		ldrb	r1, [r5, #13]
 274 00da A35C     		ldrb	r3, [r4, r2]
 275 00dc 4B40     		eors	r3, r1
 276 00de A354     		strb	r3, [r4, r2]
 277              	.LVL27:
 278 00e0 0132     		adds	r2, r2, #1
 279 00e2 A97B     		ldrb	r1, [r5, #14]
 280 00e4 A35C     		ldrb	r3, [r4, r2]
 281 00e6 4B40     		eors	r3, r1
 282 00e8 A354     		strb	r3, [r4, r2]
 283              	.LVL28:
 284 00ea 0132     		adds	r2, r2, #1
 285 00ec E97B     		ldrb	r1, [r5, #15]
 286 00ee A35C     		ldrb	r3, [r4, r2]
 287              	.LBE3:
  94:../../../../../../Middlewares/Third_Party/LoRaWAN/Crypto/cmac.c ****             aes_encrypt( in, in, &ctx->rijndael);
  95:../../../../../../Middlewares/Third_Party/LoRaWAN/Crypto/cmac.c ****                     memcpy1(&ctx->X[0], in, 16);
  96:../../../../../../Middlewares/Third_Party/LoRaWAN/Crypto/cmac.c **** 
  97:../../../../../../Middlewares/Third_Party/LoRaWAN/Crypto/cmac.c ****                     data += 16;
 288              		.loc 1 97 0
 289 00f0 1035     		adds	r5, r5, #16
 290              	.LVL29:
 291              	.LBB4:
  90:../../../../../../Middlewares/Third_Party/LoRaWAN/Crypto/cmac.c ****                     //rijndael_encrypt(&ctx->rijndael, ctx->X, ctx->X);
 292              		.loc 1 90 0
 293 00f2 4B40     		eors	r3, r1
 294 00f4 A354     		strb	r3, [r4, r2]
 295              	.LVL30:
 296              	.LBE4:
ARM GAS  C:\Users\EBANO_~1\AppData\Local\Temp\cco1ynqH.s 			page 8


  93:../../../../../../Middlewares/Third_Party/LoRaWAN/Crypto/cmac.c ****             aes_encrypt( in, in, &ctx->rijndael);
 297              		.loc 1 93 0
 298 00f6 3100     		movs	r1, r6
 299 00f8 F03A     		subs	r2, r2, #240
 300 00fa FFF7FEFF 		bl	memcpy1
 301              	.LVL31:
  94:../../../../../../Middlewares/Third_Party/LoRaWAN/Crypto/cmac.c ****             aes_encrypt( in, in, &ctx->rijndael);
 302              		.loc 1 94 0
 303 00fe 02A9     		add	r1, sp, #8
 304 0100 2200     		movs	r2, r4
 305 0102 0800     		movs	r0, r1
 306 0104 FFF7FEFF 		bl	aes_encrypt
 307              	.LVL32:
  95:../../../../../../Middlewares/Third_Party/LoRaWAN/Crypto/cmac.c **** 
 308              		.loc 1 95 0
 309 0108 1022     		movs	r2, #16
 310 010a 02A9     		add	r1, sp, #8
 311 010c 3000     		movs	r0, r6
 312 010e FFF7FEFF 		bl	memcpy1
 313              	.LVL33:
  88:../../../../../../Middlewares/Third_Party/LoRaWAN/Crypto/cmac.c **** 
 314              		.loc 1 88 0
 315 0112 5D45     		cmp	r5, fp
 316 0114 9CD1     		bne	.L9
 317 0116 5346     		mov	r3, r10
 318 0118 019A     		ldr	r2, [sp, #4]
 319 011a 103B     		subs	r3, r3, #16
 320 011c 1601     		lsls	r6, r2, #4
 321 011e 9E1B     		subs	r6, r3, r6
 322              	.LVL34:
 323              	.L8:
  98:../../../../../../Middlewares/Third_Party/LoRaWAN/Crypto/cmac.c ****                     len -= 16;
  99:../../../../../../Middlewares/Third_Party/LoRaWAN/Crypto/cmac.c ****             }
 100:../../../../../../Middlewares/Third_Party/LoRaWAN/Crypto/cmac.c ****             /* potential last block, save it */
 101:../../../../../../Middlewares/Third_Party/LoRaWAN/Crypto/cmac.c ****             memcpy1(ctx->M_last, data, len);
 324              		.loc 1 101 0
 325 0120 B2B2     		uxth	r2, r6
 326 0122 2900     		movs	r1, r5
 327 0124 0098     		ldr	r0, [sp]
 328 0126 FFF7FEFF 		bl	memcpy1
 329              	.LVL35:
 102:../../../../../../Middlewares/Third_Party/LoRaWAN/Crypto/cmac.c ****             ctx->M_n = len;
 330              		.loc 1 102 0
 331 012a 8A23     		movs	r3, #138
 332 012c 5B00     		lsls	r3, r3, #1
 333 012e E650     		str	r6, [r4, r3]
 334              	.L4:
 103:../../../../../../Middlewares/Third_Party/LoRaWAN/Crypto/cmac.c **** }
 335              		.loc 1 103 0
 336 0130 07B0     		add	sp, sp, #28
 337              		@ sp needed
 338              	.LVL36:
 339              	.LVL37:
 340 0132 3CBC     		pop	{r2, r3, r4, r5}
 341 0134 9046     		mov	r8, r2
 342 0136 9946     		mov	r9, r3
 343 0138 A246     		mov	r10, r4
ARM GAS  C:\Users\EBANO_~1\AppData\Local\Temp\cco1ynqH.s 			page 9


 344 013a AB46     		mov	fp, r5
 345 013c F0BD     		pop	{r4, r5, r6, r7, pc}
 346              	.LVL38:
 347              	.L15:
  77:../../../../../../Middlewares/Third_Party/LoRaWAN/Crypto/cmac.c ****                     memcpy1(ctx->M_last + ctx->M_n, data, mlen);
 348              		.loc 1 77 0
 349 013e 1023     		movs	r3, #16
 350 0140 1B1A     		subs	r3, r3, r0
 351 0142 9846     		mov	r8, r3
 352 0144 1F00     		movs	r7, r3
 353 0146 9342     		cmp	r3, r2
 354 0148 4AD8     		bhi	.L16
 355              	.L6:
 356              	.LVL39:
  78:../../../../../../Middlewares/Third_Party/LoRaWAN/Crypto/cmac.c ****                     ctx->M_n += mlen;
 357              		.loc 1 78 0
 358 014a A31C     		adds	r3, r4, #2
 359 014c FF33     		adds	r3, r3, #255
 360 014e 9C46     		mov	ip, r3
 361 0150 BAB2     		uxth	r2, r7
 362              	.LVL40:
 363 0152 6044     		add	r0, r0, ip
 364 0154 2900     		movs	r1, r5
 365              	.LVL41:
 366 0156 FFF7FEFF 		bl	memcpy1
 367              	.LVL42:
  79:../../../../../../Middlewares/Third_Party/LoRaWAN/Crypto/cmac.c ****                     if (ctx->M_n < 16 || len == mlen)
 368              		.loc 1 79 0
 369 015a 8A22     		movs	r2, #138
 370 015c 5200     		lsls	r2, r2, #1
 371 015e A358     		ldr	r3, [r4, r2]
 372 0160 FB18     		adds	r3, r7, r3
 373 0162 A350     		str	r3, [r4, r2]
  80:../../../../../../Middlewares/Third_Party/LoRaWAN/Crypto/cmac.c ****                             return;
 374              		.loc 1 80 0
 375 0164 0F2B     		cmp	r3, #15
 376 0166 E3D9     		bls	.L4
  80:../../../../../../Middlewares/Third_Party/LoRaWAN/Crypto/cmac.c ****                             return;
 377              		.loc 1 80 0 is_stmt 0 discriminator 1
 378 0168 B045     		cmp	r8, r6
 379 016a E1D2     		bcs	.L4
 380              	.LVL43:
 381              	.LBB5:
  82:../../../../../../Middlewares/Third_Party/LoRaWAN/Crypto/cmac.c ****                     //rijndael_encrypt(&ctx->rijndael, ctx->X, ctx->X);
 382              		.loc 1 82 0 is_stmt 1
 383 016c 0223     		movs	r3, #2
 384 016e 233A     		subs	r2, r2, #35
 385 0170 FF33     		adds	r3, r3, #255
 386 0172 A15C     		ldrb	r1, [r4, r2]
 387 0174 E35C     		ldrb	r3, [r4, r3]
 388              	.LBE5:
  84:../../../../../../Middlewares/Third_Party/LoRaWAN/Crypto/cmac.c ****                     data += mlen;
 389              		.loc 1 84 0
 390 0176 2000     		movs	r0, r4
 391              	.LBB6:
  82:../../../../../../Middlewares/Third_Party/LoRaWAN/Crypto/cmac.c ****                     //rijndael_encrypt(&ctx->rijndael, ctx->X, ctx->X);
 392              		.loc 1 82 0
ARM GAS  C:\Users\EBANO_~1\AppData\Local\Temp\cco1ynqH.s 			page 10


 393 0178 4B40     		eors	r3, r1
 394 017a A354     		strb	r3, [r4, r2]
 395              	.LVL44:
 396 017c 8123     		movs	r3, #129
 397 017e 0132     		adds	r2, r2, #1
 398 0180 5B00     		lsls	r3, r3, #1
 399 0182 A15C     		ldrb	r1, [r4, r2]
 400 0184 E35C     		ldrb	r3, [r4, r3]
 401              	.LBE6:
  84:../../../../../../Middlewares/Third_Party/LoRaWAN/Crypto/cmac.c ****                     data += mlen;
 402              		.loc 1 84 0
 403 0186 F130     		adds	r0, r0, #241
 404              	.LBB7:
  82:../../../../../../Middlewares/Third_Party/LoRaWAN/Crypto/cmac.c ****                     //rijndael_encrypt(&ctx->rijndael, ctx->X, ctx->X);
 405              		.loc 1 82 0
 406 0188 4B40     		eors	r3, r1
 407 018a A354     		strb	r3, [r4, r2]
 408              	.LVL45:
 409 018c 0423     		movs	r3, #4
 410 018e 0132     		adds	r2, r2, #1
 411 0190 FF33     		adds	r3, r3, #255
 412 0192 A15C     		ldrb	r1, [r4, r2]
 413 0194 E35C     		ldrb	r3, [r4, r3]
 414              	.LBE7:
  85:../../../../../../Middlewares/Third_Party/LoRaWAN/Crypto/cmac.c ****                     len -= mlen;
 415              		.loc 1 85 0
 416 0196 ED19     		adds	r5, r5, r7
 417              	.LVL46:
 418              	.LBB8:
  82:../../../../../../Middlewares/Third_Party/LoRaWAN/Crypto/cmac.c ****                     //rijndael_encrypt(&ctx->rijndael, ctx->X, ctx->X);
 419              		.loc 1 82 0
 420 0198 4B40     		eors	r3, r1
 421 019a A354     		strb	r3, [r4, r2]
 422              	.LVL47:
 423 019c 8223     		movs	r3, #130
 424 019e 0132     		adds	r2, r2, #1
 425 01a0 5B00     		lsls	r3, r3, #1
 426 01a2 A158     		ldr	r1, [r4, r2]
 427 01a4 E358     		ldr	r3, [r4, r3]
 428              	.LBE8:
  86:../../../../../../Middlewares/Third_Party/LoRaWAN/Crypto/cmac.c ****             }
 429              		.loc 1 86 0
 430 01a6 F61B     		subs	r6, r6, r7
 431              	.LVL48:
 432              	.LBB9:
  82:../../../../../../Middlewares/Third_Party/LoRaWAN/Crypto/cmac.c ****                     //rijndael_encrypt(&ctx->rijndael, ctx->X, ctx->X);
 433              		.loc 1 82 0
 434 01a8 4B40     		eors	r3, r1
 435 01aa A350     		str	r3, [r4, r2]
 436 01ac 8423     		movs	r3, #132
 437 01ae 0432     		adds	r2, r2, #4
 438 01b0 5B00     		lsls	r3, r3, #1
 439 01b2 A158     		ldr	r1, [r4, r2]
 440 01b4 E358     		ldr	r3, [r4, r3]
 441 01b6 4B40     		eors	r3, r1
 442 01b8 A350     		str	r3, [r4, r2]
 443 01ba 8623     		movs	r3, #134
ARM GAS  C:\Users\EBANO_~1\AppData\Local\Temp\cco1ynqH.s 			page 11


 444 01bc 0432     		adds	r2, r2, #4
 445 01be 5B00     		lsls	r3, r3, #1
 446 01c0 A158     		ldr	r1, [r4, r2]
 447 01c2 E358     		ldr	r3, [r4, r3]
 448 01c4 4B40     		eors	r3, r1
 449 01c6 A350     		str	r3, [r4, r2]
 450              	.LVL49:
 451 01c8 8823     		movs	r3, #136
 452 01ca 0432     		adds	r2, r2, #4
 453 01cc 5B00     		lsls	r3, r3, #1
 454 01ce A15C     		ldrb	r1, [r4, r2]
 455 01d0 E35C     		ldrb	r3, [r4, r3]
 456 01d2 4B40     		eors	r3, r1
 457 01d4 A354     		strb	r3, [r4, r2]
 458              	.LVL50:
 459              	.LBE9:
  84:../../../../../../Middlewares/Third_Party/LoRaWAN/Crypto/cmac.c ****                     data += mlen;
 460              		.loc 1 84 0
 461 01d6 0100     		movs	r1, r0
 462 01d8 2200     		movs	r2, r4
 463 01da FFF7FEFF 		bl	aes_encrypt
 464              	.LVL51:
 465 01de 22E7     		b	.L5
 466              	.LVL52:
 467              	.L16:
  77:../../../../../../Middlewares/Third_Party/LoRaWAN/Crypto/cmac.c ****                     memcpy1(ctx->M_last + ctx->M_n, data, mlen);
 468              		.loc 1 77 0
 469 01e0 1700     		movs	r7, r2
 470 01e2 B2E7     		b	.L6
 471              		.cfi_endproc
 472              	.LFE41:
 473              		.size	AES_CMAC_Update, .-AES_CMAC_Update
 474              		.section	.text.AES_CMAC_Final,"ax",%progbits
 475              		.align	1
 476              		.p2align 2,,3
 477              		.global	AES_CMAC_Final
 478              		.syntax unified
 479              		.code	16
 480              		.thumb_func
 481              		.fpu softvfp
 482              		.type	AES_CMAC_Final, %function
 483              	AES_CMAC_Final:
 484              	.LFB42:
 104:../../../../../../Middlewares/Third_Party/LoRaWAN/Crypto/cmac.c ****    
 105:../../../../../../Middlewares/Third_Party/LoRaWAN/Crypto/cmac.c **** void AES_CMAC_Final(uint8_t digest[AES_CMAC_DIGEST_LENGTH], AES_CMAC_CTX *ctx)
 106:../../../../../../Middlewares/Third_Party/LoRaWAN/Crypto/cmac.c **** {
 485              		.loc 1 106 0
 486              		.cfi_startproc
 487              		@ args = 0, pretend = 0, frame = 32
 488              		@ frame_needed = 0, uses_anonymous_args = 0
 489              	.LVL53:
 490 0000 70B5     		push	{r4, r5, r6, lr}
 491              	.LCFI5:
 492              		.cfi_def_cfa_offset 16
 493              		.cfi_offset 4, -16
 494              		.cfi_offset 5, -12
 495              		.cfi_offset 6, -8
ARM GAS  C:\Users\EBANO_~1\AppData\Local\Temp\cco1ynqH.s 			page 12


 496              		.cfi_offset 14, -4
 497 0002 0C00     		movs	r4, r1
 498 0004 88B0     		sub	sp, sp, #32
 499              	.LCFI6:
 500              		.cfi_def_cfa_offset 48
 107:../../../../../../Middlewares/Third_Party/LoRaWAN/Crypto/cmac.c ****             uint8_t K[16];
 108:../../../../../../Middlewares/Third_Party/LoRaWAN/Crypto/cmac.c ****         uint8_t in[16];
 109:../../../../../../Middlewares/Third_Party/LoRaWAN/Crypto/cmac.c ****             /* generate subkey K1 */
 110:../../../../../../Middlewares/Third_Party/LoRaWAN/Crypto/cmac.c ****             memset1(K, '\0', 16);
 501              		.loc 1 110 0
 502 0006 1022     		movs	r2, #16
 503 0008 0021     		movs	r1, #0
 504              	.LVL54:
 106:../../../../../../Middlewares/Third_Party/LoRaWAN/Crypto/cmac.c ****             uint8_t K[16];
 505              		.loc 1 106 0
 506 000a 0500     		movs	r5, r0
 507              		.loc 1 110 0
 508 000c 6846     		mov	r0, sp
 509              	.LVL55:
 510 000e FFF7FEFF 		bl	memset1
 511              	.LVL56:
 111:../../../../../../Middlewares/Third_Party/LoRaWAN/Crypto/cmac.c **** 
 112:../../../../../../Middlewares/Third_Party/LoRaWAN/Crypto/cmac.c ****             //rijndael_encrypt(&ctx->rijndael, K, K);
 113:../../../../../../Middlewares/Third_Party/LoRaWAN/Crypto/cmac.c **** 
 114:../../../../../../Middlewares/Third_Party/LoRaWAN/Crypto/cmac.c ****             aes_encrypt( K, K, &ctx->rijndael);
 512              		.loc 1 114 0
 513 0012 2200     		movs	r2, r4
 514 0014 6946     		mov	r1, sp
 515 0016 6846     		mov	r0, sp
 516 0018 FFF7FEFF 		bl	aes_encrypt
 517              	.LVL57:
 115:../../../../../../Middlewares/Third_Party/LoRaWAN/Crypto/cmac.c **** 
 116:../../../../../../Middlewares/Third_Party/LoRaWAN/Crypto/cmac.c ****             if (K[0] & 0x80) {
 518              		.loc 1 116 0
 519 001c 6B46     		mov	r3, sp
 520 001e 1B78     		ldrb	r3, [r3]
 521 0020 5AB2     		sxtb	r2, r3
 522 0022 002A     		cmp	r2, #0
 523 0024 00DA     		bge	.LCB464
 524 0026 E5E1     		b	.L25	@long jump
 525              	.LCB464:
 526              	.LVL58:
 527              	.LBB10:
 117:../../../../../../Middlewares/Third_Party/LoRaWAN/Crypto/cmac.c ****                     LSHIFT(K, K);
 118:../../../../../../Middlewares/Third_Party/LoRaWAN/Crypto/cmac.c ****                    K[15] ^= 0x87;
 119:../../../../../../Middlewares/Third_Party/LoRaWAN/Crypto/cmac.c ****             } else
 120:../../../../../../Middlewares/Third_Party/LoRaWAN/Crypto/cmac.c ****                     LSHIFT(K, K);
 528              		.loc 1 120 0
 529 0028 6A46     		mov	r2, sp
 530 002a 5278     		ldrb	r2, [r2, #1]
 531 002c 5B00     		lsls	r3, r3, #1
 532 002e D109     		lsrs	r1, r2, #7
 533 0030 0B43     		orrs	r3, r1
 534 0032 6946     		mov	r1, sp
 535 0034 0B70     		strb	r3, [r1]
 536              	.LVL59:
 537 0036 8B78     		ldrb	r3, [r1, #2]
ARM GAS  C:\Users\EBANO_~1\AppData\Local\Temp\cco1ynqH.s 			page 13


 538 0038 5200     		lsls	r2, r2, #1
 539 003a D909     		lsrs	r1, r3, #7
 540 003c 0A43     		orrs	r2, r1
 541 003e 6946     		mov	r1, sp
 542 0040 4A70     		strb	r2, [r1, #1]
 543              	.LVL60:
 544 0042 CA78     		ldrb	r2, [r1, #3]
 545 0044 5B00     		lsls	r3, r3, #1
 546 0046 D109     		lsrs	r1, r2, #7
 547 0048 0B43     		orrs	r3, r1
 548 004a 6946     		mov	r1, sp
 549 004c 8B70     		strb	r3, [r1, #2]
 550              	.LVL61:
 551 004e 0B79     		ldrb	r3, [r1, #4]
 552 0050 5200     		lsls	r2, r2, #1
 553 0052 D909     		lsrs	r1, r3, #7
 554 0054 0A43     		orrs	r2, r1
 555 0056 6946     		mov	r1, sp
 556 0058 CA70     		strb	r2, [r1, #3]
 557              	.LVL62:
 558 005a 4A79     		ldrb	r2, [r1, #5]
 559 005c 5B00     		lsls	r3, r3, #1
 560 005e D109     		lsrs	r1, r2, #7
 561 0060 0B43     		orrs	r3, r1
 562 0062 6946     		mov	r1, sp
 563 0064 0B71     		strb	r3, [r1, #4]
 564              	.LVL63:
 565 0066 8B79     		ldrb	r3, [r1, #6]
 566 0068 5200     		lsls	r2, r2, #1
 567 006a D909     		lsrs	r1, r3, #7
 568 006c 0A43     		orrs	r2, r1
 569 006e 6946     		mov	r1, sp
 570 0070 4A71     		strb	r2, [r1, #5]
 571              	.LVL64:
 572 0072 CA79     		ldrb	r2, [r1, #7]
 573 0074 5B00     		lsls	r3, r3, #1
 574 0076 D109     		lsrs	r1, r2, #7
 575 0078 0B43     		orrs	r3, r1
 576 007a 6946     		mov	r1, sp
 577 007c 8B71     		strb	r3, [r1, #6]
 578              	.LVL65:
 579 007e 0B7A     		ldrb	r3, [r1, #8]
 580 0080 5200     		lsls	r2, r2, #1
 581 0082 D909     		lsrs	r1, r3, #7
 582 0084 0A43     		orrs	r2, r1
 583 0086 6946     		mov	r1, sp
 584 0088 CA71     		strb	r2, [r1, #7]
 585              	.LVL66:
 586 008a 4A7A     		ldrb	r2, [r1, #9]
 587 008c 5B00     		lsls	r3, r3, #1
 588 008e D109     		lsrs	r1, r2, #7
 589 0090 0B43     		orrs	r3, r1
 590 0092 6946     		mov	r1, sp
 591 0094 0B72     		strb	r3, [r1, #8]
 592              	.LVL67:
 593 0096 8B7A     		ldrb	r3, [r1, #10]
 594 0098 5200     		lsls	r2, r2, #1
ARM GAS  C:\Users\EBANO_~1\AppData\Local\Temp\cco1ynqH.s 			page 14


 595 009a D909     		lsrs	r1, r3, #7
 596 009c 0A43     		orrs	r2, r1
 597 009e 6946     		mov	r1, sp
 598 00a0 4A72     		strb	r2, [r1, #9]
 599              	.LVL68:
 600 00a2 CA7A     		ldrb	r2, [r1, #11]
 601 00a4 5B00     		lsls	r3, r3, #1
 602 00a6 D109     		lsrs	r1, r2, #7
 603 00a8 0B43     		orrs	r3, r1
 604 00aa 6946     		mov	r1, sp
 605 00ac 8B72     		strb	r3, [r1, #10]
 606              	.LVL69:
 607 00ae 0B7B     		ldrb	r3, [r1, #12]
 608 00b0 5200     		lsls	r2, r2, #1
 609 00b2 D909     		lsrs	r1, r3, #7
 610 00b4 0A43     		orrs	r2, r1
 611 00b6 6946     		mov	r1, sp
 612 00b8 CA72     		strb	r2, [r1, #11]
 613              	.LVL70:
 614 00ba 4A7B     		ldrb	r2, [r1, #13]
 615 00bc 5B00     		lsls	r3, r3, #1
 616 00be D109     		lsrs	r1, r2, #7
 617 00c0 0B43     		orrs	r3, r1
 618 00c2 6946     		mov	r1, sp
 619 00c4 0B73     		strb	r3, [r1, #12]
 620              	.LVL71:
 621 00c6 8B7B     		ldrb	r3, [r1, #14]
 622 00c8 5200     		lsls	r2, r2, #1
 623 00ca D909     		lsrs	r1, r3, #7
 624 00cc 0A43     		orrs	r2, r1
 625 00ce 6946     		mov	r1, sp
 626 00d0 4A73     		strb	r2, [r1, #13]
 627              	.LVL72:
 628 00d2 CA7B     		ldrb	r2, [r1, #15]
 629 00d4 5B00     		lsls	r3, r3, #1
 630 00d6 D109     		lsrs	r1, r2, #7
 631 00d8 0B43     		orrs	r3, r1
 632 00da 6946     		mov	r1, sp
 633 00dc 5200     		lsls	r2, r2, #1
 634 00de 8B73     		strb	r3, [r1, #14]
 635              	.LVL73:
 636 00e0 CA73     		strb	r2, [r1, #15]
 637              	.LVL74:
 638              	.L19:
 639              	.LBE10:
 121:../../../../../../Middlewares/Third_Party/LoRaWAN/Crypto/cmac.c **** 
 122:../../../../../../Middlewares/Third_Party/LoRaWAN/Crypto/cmac.c **** 
 123:../../../../../../Middlewares/Third_Party/LoRaWAN/Crypto/cmac.c ****             if (ctx->M_n == 16) {
 640              		.loc 1 123 0
 641 00e2 8A23     		movs	r3, #138
 642 00e4 5B00     		lsls	r3, r3, #1
 643 00e6 E058     		ldr	r0, [r4, r3]
 644 00e8 1028     		cmp	r0, #16
 645 00ea 77D0     		beq	.L24
 646 00ec 6B46     		mov	r3, sp
 647 00ee 1B78     		ldrb	r3, [r3]
 124:../../../../../../Middlewares/Third_Party/LoRaWAN/Crypto/cmac.c ****                     /* last block was a complete block */
ARM GAS  C:\Users\EBANO_~1\AppData\Local\Temp\cco1ynqH.s 			page 15


 125:../../../../../../Middlewares/Third_Party/LoRaWAN/Crypto/cmac.c ****                     XOR(K, ctx->M_last);
 126:../../../../../../Middlewares/Third_Party/LoRaWAN/Crypto/cmac.c **** 
 127:../../../../../../Middlewares/Third_Party/LoRaWAN/Crypto/cmac.c ****            } else {
 128:../../../../../../Middlewares/Third_Party/LoRaWAN/Crypto/cmac.c ****                    /* generate subkey K2 */
 129:../../../../../../Middlewares/Third_Party/LoRaWAN/Crypto/cmac.c ****                   if (K[0] & 0x80) {
 648              		.loc 1 129 0
 649 00f0 5AB2     		sxtb	r2, r3
 650 00f2 002A     		cmp	r2, #0
 651 00f4 00DA     		bge	.LCB588
 652 00f6 1CE1     		b	.L26	@long jump
 653              	.LCB588:
 654              	.LVL75:
 655              	.LBB11:
 130:../../../../../../Middlewares/Third_Party/LoRaWAN/Crypto/cmac.c ****                           LSHIFT(K, K);
 131:../../../../../../Middlewares/Third_Party/LoRaWAN/Crypto/cmac.c ****                           K[15] ^= 0x87;
 132:../../../../../../Middlewares/Third_Party/LoRaWAN/Crypto/cmac.c ****                   } else
 133:../../../../../../Middlewares/Third_Party/LoRaWAN/Crypto/cmac.c ****                            LSHIFT(K, K);
 656              		.loc 1 133 0
 657 00f8 6A46     		mov	r2, sp
 658 00fa 5278     		ldrb	r2, [r2, #1]
 659 00fc 5B00     		lsls	r3, r3, #1
 660 00fe D109     		lsrs	r1, r2, #7
 661 0100 0B43     		orrs	r3, r1
 662 0102 6946     		mov	r1, sp
 663 0104 0B70     		strb	r3, [r1]
 664              	.LVL76:
 665 0106 8B78     		ldrb	r3, [r1, #2]
 666 0108 5200     		lsls	r2, r2, #1
 667 010a D909     		lsrs	r1, r3, #7
 668 010c 0A43     		orrs	r2, r1
 669 010e 6946     		mov	r1, sp
 670 0110 4A70     		strb	r2, [r1, #1]
 671              	.LVL77:
 672 0112 CA78     		ldrb	r2, [r1, #3]
 673 0114 5B00     		lsls	r3, r3, #1
 674 0116 D109     		lsrs	r1, r2, #7
 675 0118 0B43     		orrs	r3, r1
 676 011a 6946     		mov	r1, sp
 677 011c 8B70     		strb	r3, [r1, #2]
 678              	.LVL78:
 679 011e 0B79     		ldrb	r3, [r1, #4]
 680 0120 5200     		lsls	r2, r2, #1
 681 0122 D909     		lsrs	r1, r3, #7
 682 0124 0A43     		orrs	r2, r1
 683 0126 6946     		mov	r1, sp
 684 0128 CA70     		strb	r2, [r1, #3]
 685              	.LVL79:
 686 012a 4A79     		ldrb	r2, [r1, #5]
 687 012c 5B00     		lsls	r3, r3, #1
 688 012e D109     		lsrs	r1, r2, #7
 689 0130 0B43     		orrs	r3, r1
 690 0132 6946     		mov	r1, sp
 691 0134 0B71     		strb	r3, [r1, #4]
 692              	.LVL80:
 693 0136 8B79     		ldrb	r3, [r1, #6]
 694 0138 5200     		lsls	r2, r2, #1
 695 013a D909     		lsrs	r1, r3, #7
ARM GAS  C:\Users\EBANO_~1\AppData\Local\Temp\cco1ynqH.s 			page 16


 696 013c 0A43     		orrs	r2, r1
 697 013e 6946     		mov	r1, sp
 698 0140 4A71     		strb	r2, [r1, #5]
 699              	.LVL81:
 700 0142 CA79     		ldrb	r2, [r1, #7]
 701 0144 5B00     		lsls	r3, r3, #1
 702 0146 D109     		lsrs	r1, r2, #7
 703 0148 0B43     		orrs	r3, r1
 704 014a 6946     		mov	r1, sp
 705 014c 8B71     		strb	r3, [r1, #6]
 706              	.LVL82:
 707 014e 0B7A     		ldrb	r3, [r1, #8]
 708 0150 5200     		lsls	r2, r2, #1
 709 0152 D909     		lsrs	r1, r3, #7
 710 0154 0A43     		orrs	r2, r1
 711 0156 6946     		mov	r1, sp
 712 0158 CA71     		strb	r2, [r1, #7]
 713              	.LVL83:
 714 015a 4A7A     		ldrb	r2, [r1, #9]
 715 015c 5B00     		lsls	r3, r3, #1
 716 015e D109     		lsrs	r1, r2, #7
 717 0160 0B43     		orrs	r3, r1
 718 0162 6946     		mov	r1, sp
 719 0164 0B72     		strb	r3, [r1, #8]
 720              	.LVL84:
 721 0166 8B7A     		ldrb	r3, [r1, #10]
 722 0168 5200     		lsls	r2, r2, #1
 723 016a D909     		lsrs	r1, r3, #7
 724 016c 0A43     		orrs	r2, r1
 725 016e 6946     		mov	r1, sp
 726 0170 4A72     		strb	r2, [r1, #9]
 727              	.LVL85:
 728 0172 CA7A     		ldrb	r2, [r1, #11]
 729 0174 5B00     		lsls	r3, r3, #1
 730 0176 D109     		lsrs	r1, r2, #7
 731 0178 0B43     		orrs	r3, r1
 732 017a 6946     		mov	r1, sp
 733 017c 8B72     		strb	r3, [r1, #10]
 734              	.LVL86:
 735 017e 0B7B     		ldrb	r3, [r1, #12]
 736 0180 5200     		lsls	r2, r2, #1
 737 0182 D909     		lsrs	r1, r3, #7
 738 0184 0A43     		orrs	r2, r1
 739 0186 6946     		mov	r1, sp
 740 0188 CA72     		strb	r2, [r1, #11]
 741              	.LVL87:
 742 018a 4A7B     		ldrb	r2, [r1, #13]
 743 018c 5B00     		lsls	r3, r3, #1
 744 018e D109     		lsrs	r1, r2, #7
 745 0190 0B43     		orrs	r3, r1
 746 0192 6946     		mov	r1, sp
 747 0194 0B73     		strb	r3, [r1, #12]
 748              	.LVL88:
 749 0196 8B7B     		ldrb	r3, [r1, #14]
 750 0198 5200     		lsls	r2, r2, #1
 751 019a D909     		lsrs	r1, r3, #7
 752 019c 0A43     		orrs	r2, r1
ARM GAS  C:\Users\EBANO_~1\AppData\Local\Temp\cco1ynqH.s 			page 17


 753 019e 6946     		mov	r1, sp
 754 01a0 4A73     		strb	r2, [r1, #13]
 755              	.LVL89:
 756 01a2 CA7B     		ldrb	r2, [r1, #15]
 757 01a4 5B00     		lsls	r3, r3, #1
 758 01a6 D109     		lsrs	r1, r2, #7
 759 01a8 0B43     		orrs	r3, r1
 760 01aa 6946     		mov	r1, sp
 761 01ac 5200     		lsls	r2, r2, #1
 762 01ae 8B73     		strb	r3, [r1, #14]
 763              	.LVL90:
 764 01b0 CA73     		strb	r2, [r1, #15]
 765              	.LVL91:
 766              	.L23:
 767              	.LBE11:
 134:../../../../../../Middlewares/Third_Party/LoRaWAN/Crypto/cmac.c **** 
 135:../../../../../../Middlewares/Third_Party/LoRaWAN/Crypto/cmac.c ****                    /* padding(M_last) */
 136:../../../../../../Middlewares/Third_Party/LoRaWAN/Crypto/cmac.c ****                    ctx->M_last[ctx->M_n] = 0x80;
 768              		.loc 1 136 0
 769 01b2 8022     		movs	r2, #128
 137:../../../../../../Middlewares/Third_Party/LoRaWAN/Crypto/cmac.c ****                    while (++ctx->M_n < 16)
 770              		.loc 1 137 0
 771 01b4 8A26     		movs	r6, #138
 136:../../../../../../Middlewares/Third_Party/LoRaWAN/Crypto/cmac.c ****                    while (++ctx->M_n < 16)
 772              		.loc 1 136 0
 773 01b6 2318     		adds	r3, r4, r0
 774 01b8 0233     		adds	r3, r3, #2
 775 01ba FF33     		adds	r3, r3, #255
 776 01bc 1A70     		strb	r2, [r3]
 777              		.loc 1 137 0
 778 01be 7600     		lsls	r6, r6, #1
 779 01c0 431C     		adds	r3, r0, #1
 780 01c2 A351     		str	r3, [r4, r6]
 781 01c4 0F2B     		cmp	r3, #15
 782 01c6 09D8     		bhi	.L24
 138:../../../../../../Middlewares/Third_Party/LoRaWAN/Crypto/cmac.c ****                          ctx->M_last[ctx->M_n] = 0;
 783              		.loc 1 138 0
 784 01c8 713A     		subs	r2, r2, #113
 785 01ca 121A     		subs	r2, r2, r0
 786 01cc 0330     		adds	r0, r0, #3
 787 01ce FF30     		adds	r0, r0, #255
 788 01d0 2018     		adds	r0, r4, r0
 789 01d2 0021     		movs	r1, #0
 790 01d4 FFF7FEFF 		bl	memset
 791              	.LVL92:
 792 01d8 1023     		movs	r3, #16
 793 01da A351     		str	r3, [r4, r6]
 794              	.L24:
 795              	.LVL93:
 796              	.LBB12:
 139:../../../../../../Middlewares/Third_Party/LoRaWAN/Crypto/cmac.c ****    
 140:../../../../../../Middlewares/Third_Party/LoRaWAN/Crypto/cmac.c ****                   XOR(K, ctx->M_last);
 797              		.loc 1 140 0
 798 01dc 0222     		movs	r2, #2
 799 01de 6946     		mov	r1, sp
 800 01e0 FF32     		adds	r2, r2, #255
 801 01e2 A35C     		ldrb	r3, [r4, r2]
ARM GAS  C:\Users\EBANO_~1\AppData\Local\Temp\cco1ynqH.s 			page 18


 802 01e4 0978     		ldrb	r1, [r1]
 803              	.LBE12:
 141:../../../../../../Middlewares/Third_Party/LoRaWAN/Crypto/cmac.c **** 
 142:../../../../../../Middlewares/Third_Party/LoRaWAN/Crypto/cmac.c **** 
 143:../../../../../../Middlewares/Third_Party/LoRaWAN/Crypto/cmac.c ****            }
 144:../../../../../../Middlewares/Third_Party/LoRaWAN/Crypto/cmac.c ****            XOR(ctx->M_last, ctx->X);
 145:../../../../../../Middlewares/Third_Party/LoRaWAN/Crypto/cmac.c **** 
 146:../../../../../../Middlewares/Third_Party/LoRaWAN/Crypto/cmac.c ****            //rijndael_encrypt(&ctx->rijndael, ctx->X, digest);
 147:../../../../../../Middlewares/Third_Party/LoRaWAN/Crypto/cmac.c **** 
 148:../../../../../../Middlewares/Third_Party/LoRaWAN/Crypto/cmac.c ****        memcpy1(in, &ctx->X[0], 16); //Bestela ez du ondo iten
 804              		.loc 1 148 0
 805 01e6 04A8     		add	r0, sp, #16
 806              	.LBB13:
 140:../../../../../../Middlewares/Third_Party/LoRaWAN/Crypto/cmac.c **** 
 807              		.loc 1 140 0
 808 01e8 4B40     		eors	r3, r1
 809 01ea 6946     		mov	r1, sp
 810 01ec A354     		strb	r3, [r4, r2]
 811              	.LVL94:
 812 01ee 0132     		adds	r2, r2, #1
 813 01f0 A35C     		ldrb	r3, [r4, r2]
 814 01f2 4978     		ldrb	r1, [r1, #1]
 815 01f4 4B40     		eors	r3, r1
 816 01f6 A354     		strb	r3, [r4, r2]
 817              	.LVL95:
 818 01f8 0422     		movs	r2, #4
 819 01fa 6946     		mov	r1, sp
 820 01fc FF32     		adds	r2, r2, #255
 821 01fe A35C     		ldrb	r3, [r4, r2]
 822 0200 8978     		ldrb	r1, [r1, #2]
 823 0202 4B40     		eors	r3, r1
 824 0204 6946     		mov	r1, sp
 825 0206 A354     		strb	r3, [r4, r2]
 826              	.LVL96:
 827 0208 0132     		adds	r2, r2, #1
 828 020a A35C     		ldrb	r3, [r4, r2]
 829 020c C978     		ldrb	r1, [r1, #3]
 830 020e 4B40     		eors	r3, r1
 831 0210 A354     		strb	r3, [r4, r2]
 832              	.LVL97:
 833 0212 0622     		movs	r2, #6
 834 0214 6946     		mov	r1, sp
 835 0216 FF32     		adds	r2, r2, #255
 836 0218 A35C     		ldrb	r3, [r4, r2]
 837 021a 0979     		ldrb	r1, [r1, #4]
 838 021c 4B40     		eors	r3, r1
 839 021e 6946     		mov	r1, sp
 840 0220 A354     		strb	r3, [r4, r2]
 841              	.LVL98:
 842 0222 0132     		adds	r2, r2, #1
 843 0224 A35C     		ldrb	r3, [r4, r2]
 844 0226 4979     		ldrb	r1, [r1, #5]
 845 0228 4B40     		eors	r3, r1
 846 022a A354     		strb	r3, [r4, r2]
 847              	.LVL99:
 848 022c 0822     		movs	r2, #8
 849 022e 6946     		mov	r1, sp
ARM GAS  C:\Users\EBANO_~1\AppData\Local\Temp\cco1ynqH.s 			page 19


 850 0230 FF32     		adds	r2, r2, #255
 851 0232 A35C     		ldrb	r3, [r4, r2]
 852 0234 8979     		ldrb	r1, [r1, #6]
 853 0236 4B40     		eors	r3, r1
 854 0238 6946     		mov	r1, sp
 855 023a A354     		strb	r3, [r4, r2]
 856              	.LVL100:
 857 023c 0132     		adds	r2, r2, #1
 858 023e A35C     		ldrb	r3, [r4, r2]
 859 0240 C979     		ldrb	r1, [r1, #7]
 860 0242 4B40     		eors	r3, r1
 861 0244 A354     		strb	r3, [r4, r2]
 862              	.LVL101:
 863 0246 0A22     		movs	r2, #10
 864 0248 6946     		mov	r1, sp
 865 024a FF32     		adds	r2, r2, #255
 866 024c A35C     		ldrb	r3, [r4, r2]
 867 024e 097A     		ldrb	r1, [r1, #8]
 868 0250 4B40     		eors	r3, r1
 869 0252 6946     		mov	r1, sp
 870 0254 A354     		strb	r3, [r4, r2]
 871              	.LVL102:
 872 0256 0132     		adds	r2, r2, #1
 873 0258 A35C     		ldrb	r3, [r4, r2]
 874 025a 497A     		ldrb	r1, [r1, #9]
 875 025c 4B40     		eors	r3, r1
 876 025e A354     		strb	r3, [r4, r2]
 877              	.LVL103:
 878 0260 0C22     		movs	r2, #12
 879 0262 6946     		mov	r1, sp
 880 0264 FF32     		adds	r2, r2, #255
 881 0266 A35C     		ldrb	r3, [r4, r2]
 882 0268 897A     		ldrb	r1, [r1, #10]
 883 026a 4B40     		eors	r3, r1
 884 026c 6946     		mov	r1, sp
 885 026e A354     		strb	r3, [r4, r2]
 886              	.LVL104:
 887 0270 0132     		adds	r2, r2, #1
 888 0272 A35C     		ldrb	r3, [r4, r2]
 889 0274 C97A     		ldrb	r1, [r1, #11]
 890 0276 4B40     		eors	r3, r1
 891 0278 A354     		strb	r3, [r4, r2]
 892              	.LVL105:
 893 027a 0E22     		movs	r2, #14
 894 027c 6946     		mov	r1, sp
 895 027e FF32     		adds	r2, r2, #255
 896 0280 A35C     		ldrb	r3, [r4, r2]
 897 0282 097B     		ldrb	r1, [r1, #12]
 898 0284 4B40     		eors	r3, r1
 899 0286 6946     		mov	r1, sp
 900 0288 A354     		strb	r3, [r4, r2]
 901              	.LVL106:
 902 028a 0132     		adds	r2, r2, #1
 903 028c A35C     		ldrb	r3, [r4, r2]
 904 028e 497B     		ldrb	r1, [r1, #13]
 905 0290 4B40     		eors	r3, r1
 906 0292 A354     		strb	r3, [r4, r2]
ARM GAS  C:\Users\EBANO_~1\AppData\Local\Temp\cco1ynqH.s 			page 20


 907              	.LVL107:
 908 0294 1022     		movs	r2, #16
 909 0296 6946     		mov	r1, sp
 910 0298 FF32     		adds	r2, r2, #255
 911 029a A35C     		ldrb	r3, [r4, r2]
 912 029c 897B     		ldrb	r1, [r1, #14]
 913 029e 4B40     		eors	r3, r1
 914 02a0 6946     		mov	r1, sp
 915 02a2 A354     		strb	r3, [r4, r2]
 916              	.LVL108:
 917 02a4 0132     		adds	r2, r2, #1
 918 02a6 A35C     		ldrb	r3, [r4, r2]
 919 02a8 C97B     		ldrb	r1, [r1, #15]
 920 02aa 4B40     		eors	r3, r1
 921 02ac A354     		strb	r3, [r4, r2]
 922              	.LVL109:
 923              	.LBE13:
 924              	.LBB14:
 144:../../../../../../Middlewares/Third_Party/LoRaWAN/Crypto/cmac.c **** 
 925              		.loc 1 144 0
 926 02ae 0223     		movs	r3, #2
 927 02b0 F122     		movs	r2, #241
 928 02b2 FF33     		adds	r3, r3, #255
 929 02b4 A15C     		ldrb	r1, [r4, r2]
 930 02b6 E35C     		ldrb	r3, [r4, r3]
 931 02b8 4B40     		eors	r3, r1
 932 02ba 8121     		movs	r1, #129
 933 02bc A354     		strb	r3, [r4, r2]
 934              	.LVL110:
 935 02be 4900     		lsls	r1, r1, #1
 936 02c0 0132     		adds	r2, r2, #1
 937 02c2 A35C     		ldrb	r3, [r4, r2]
 938 02c4 615C     		ldrb	r1, [r4, r1]
 939 02c6 4B40     		eors	r3, r1
 940 02c8 A354     		strb	r3, [r4, r2]
 941              	.LVL111:
 942 02ca 0423     		movs	r3, #4
 943 02cc 0132     		adds	r2, r2, #1
 944 02ce FF33     		adds	r3, r3, #255
 945 02d0 A15C     		ldrb	r1, [r4, r2]
 946 02d2 E35C     		ldrb	r3, [r4, r3]
 947 02d4 4B40     		eors	r3, r1
 948 02d6 A354     		strb	r3, [r4, r2]
 949              	.LVL112:
 950 02d8 8223     		movs	r3, #130
 951 02da 0132     		adds	r2, r2, #1
 952 02dc 5B00     		lsls	r3, r3, #1
 953 02de A158     		ldr	r1, [r4, r2]
 954 02e0 E358     		ldr	r3, [r4, r3]
 955 02e2 4B40     		eors	r3, r1
 956 02e4 A350     		str	r3, [r4, r2]
 957 02e6 8423     		movs	r3, #132
 958 02e8 0432     		adds	r2, r2, #4
 959 02ea 5B00     		lsls	r3, r3, #1
 960 02ec A158     		ldr	r1, [r4, r2]
 961 02ee E358     		ldr	r3, [r4, r3]
 962 02f0 4B40     		eors	r3, r1
ARM GAS  C:\Users\EBANO_~1\AppData\Local\Temp\cco1ynqH.s 			page 21


 963 02f2 A350     		str	r3, [r4, r2]
 964 02f4 8623     		movs	r3, #134
 965 02f6 0432     		adds	r2, r2, #4
 966 02f8 5B00     		lsls	r3, r3, #1
 967 02fa A158     		ldr	r1, [r4, r2]
 968 02fc E358     		ldr	r3, [r4, r3]
 969 02fe 4B40     		eors	r3, r1
 970 0300 A350     		str	r3, [r4, r2]
 971              	.LVL113:
 972 0302 8823     		movs	r3, #136
 973 0304 0432     		adds	r2, r2, #4
 974 0306 5B00     		lsls	r3, r3, #1
 975 0308 A15C     		ldrb	r1, [r4, r2]
 976 030a E35C     		ldrb	r3, [r4, r3]
 977 030c 4B40     		eors	r3, r1
 978              	.LBE14:
 979              		.loc 1 148 0
 980 030e 2100     		movs	r1, r4
 981              	.LBB15:
 144:../../../../../../Middlewares/Third_Party/LoRaWAN/Crypto/cmac.c **** 
 982              		.loc 1 144 0
 983 0310 A354     		strb	r3, [r4, r2]
 984              	.LVL114:
 985              	.LBE15:
 986              		.loc 1 148 0
 987 0312 F131     		adds	r1, r1, #241
 988 0314 F03A     		subs	r2, r2, #240
 989 0316 FFF7FEFF 		bl	memcpy1
 990              	.LVL115:
 149:../../../../../../Middlewares/Third_Party/LoRaWAN/Crypto/cmac.c ****        aes_encrypt(in, digest, &ctx->rijndael);
 991              		.loc 1 149 0
 992 031a 2200     		movs	r2, r4
 993 031c 2900     		movs	r1, r5
 994 031e 04A8     		add	r0, sp, #16
 995 0320 FFF7FEFF 		bl	aes_encrypt
 996              	.LVL116:
 150:../../../../../../Middlewares/Third_Party/LoRaWAN/Crypto/cmac.c ****            memset1(K, 0, sizeof K);
 997              		.loc 1 150 0
 998 0324 1022     		movs	r2, #16
 999 0326 0021     		movs	r1, #0
 1000 0328 6846     		mov	r0, sp
 1001 032a FFF7FEFF 		bl	memset1
 1002              	.LVL117:
 151:../../../../../../Middlewares/Third_Party/LoRaWAN/Crypto/cmac.c **** 
 152:../../../../../../Middlewares/Third_Party/LoRaWAN/Crypto/cmac.c **** }
 1003              		.loc 1 152 0
 1004 032e 08B0     		add	sp, sp, #32
 1005              		@ sp needed
 1006              	.LVL118:
 1007              	.LVL119:
 1008 0330 70BD     		pop	{r4, r5, r6, pc}
 1009              	.LVL120:
 1010              	.L26:
 1011              	.LBB16:
 130:../../../../../../Middlewares/Third_Party/LoRaWAN/Crypto/cmac.c ****                           K[15] ^= 0x87;
 1012              		.loc 1 130 0
 1013 0332 6A46     		mov	r2, sp
ARM GAS  C:\Users\EBANO_~1\AppData\Local\Temp\cco1ynqH.s 			page 22


 1014 0334 5278     		ldrb	r2, [r2, #1]
 1015 0336 5B00     		lsls	r3, r3, #1
 1016 0338 D109     		lsrs	r1, r2, #7
 1017 033a 0B43     		orrs	r3, r1
 1018 033c 6946     		mov	r1, sp
 1019 033e 0B70     		strb	r3, [r1]
 1020              	.LVL121:
 1021 0340 8B78     		ldrb	r3, [r1, #2]
 1022 0342 5200     		lsls	r2, r2, #1
 1023 0344 D909     		lsrs	r1, r3, #7
 1024 0346 0A43     		orrs	r2, r1
 1025 0348 6946     		mov	r1, sp
 1026 034a 4A70     		strb	r2, [r1, #1]
 1027              	.LVL122:
 1028 034c CA78     		ldrb	r2, [r1, #3]
 1029 034e 5B00     		lsls	r3, r3, #1
 1030 0350 D109     		lsrs	r1, r2, #7
 1031 0352 0B43     		orrs	r3, r1
 1032 0354 6946     		mov	r1, sp
 1033 0356 8B70     		strb	r3, [r1, #2]
 1034              	.LVL123:
 1035 0358 0B79     		ldrb	r3, [r1, #4]
 1036 035a 5200     		lsls	r2, r2, #1
 1037 035c D909     		lsrs	r1, r3, #7
 1038 035e 0A43     		orrs	r2, r1
 1039 0360 6946     		mov	r1, sp
 1040 0362 CA70     		strb	r2, [r1, #3]
 1041              	.LVL124:
 1042 0364 4A79     		ldrb	r2, [r1, #5]
 1043 0366 5B00     		lsls	r3, r3, #1
 1044 0368 D109     		lsrs	r1, r2, #7
 1045 036a 0B43     		orrs	r3, r1
 1046 036c 6946     		mov	r1, sp
 1047 036e 0B71     		strb	r3, [r1, #4]
 1048              	.LVL125:
 1049 0370 8B79     		ldrb	r3, [r1, #6]
 1050 0372 5200     		lsls	r2, r2, #1
 1051 0374 D909     		lsrs	r1, r3, #7
 1052 0376 0A43     		orrs	r2, r1
 1053 0378 6946     		mov	r1, sp
 1054 037a 4A71     		strb	r2, [r1, #5]
 1055              	.LVL126:
 1056 037c CA79     		ldrb	r2, [r1, #7]
 1057 037e 5B00     		lsls	r3, r3, #1
 1058 0380 D109     		lsrs	r1, r2, #7
 1059 0382 0B43     		orrs	r3, r1
 1060 0384 6946     		mov	r1, sp
 1061 0386 8B71     		strb	r3, [r1, #6]
 1062              	.LVL127:
 1063 0388 0B7A     		ldrb	r3, [r1, #8]
 1064 038a 5200     		lsls	r2, r2, #1
 1065 038c D909     		lsrs	r1, r3, #7
 1066 038e 0A43     		orrs	r2, r1
 1067 0390 6946     		mov	r1, sp
 1068 0392 CA71     		strb	r2, [r1, #7]
 1069              	.LVL128:
 1070 0394 4A7A     		ldrb	r2, [r1, #9]
ARM GAS  C:\Users\EBANO_~1\AppData\Local\Temp\cco1ynqH.s 			page 23


 1071 0396 5B00     		lsls	r3, r3, #1
 1072 0398 D109     		lsrs	r1, r2, #7
 1073 039a 0B43     		orrs	r3, r1
 1074 039c 6946     		mov	r1, sp
 1075 039e 0B72     		strb	r3, [r1, #8]
 1076              	.LVL129:
 1077 03a0 8B7A     		ldrb	r3, [r1, #10]
 1078 03a2 5200     		lsls	r2, r2, #1
 1079 03a4 D909     		lsrs	r1, r3, #7
 1080 03a6 0A43     		orrs	r2, r1
 1081 03a8 6946     		mov	r1, sp
 1082 03aa 4A72     		strb	r2, [r1, #9]
 1083              	.LVL130:
 1084 03ac CA7A     		ldrb	r2, [r1, #11]
 1085 03ae 5B00     		lsls	r3, r3, #1
 1086 03b0 D109     		lsrs	r1, r2, #7
 1087 03b2 0B43     		orrs	r3, r1
 1088 03b4 6946     		mov	r1, sp
 1089 03b6 8B72     		strb	r3, [r1, #10]
 1090              	.LVL131:
 1091 03b8 0B7B     		ldrb	r3, [r1, #12]
 1092 03ba 5200     		lsls	r2, r2, #1
 1093 03bc D909     		lsrs	r1, r3, #7
 1094 03be 0A43     		orrs	r2, r1
 1095 03c0 6946     		mov	r1, sp
 1096 03c2 CA72     		strb	r2, [r1, #11]
 1097              	.LVL132:
 1098 03c4 4A7B     		ldrb	r2, [r1, #13]
 1099 03c6 5B00     		lsls	r3, r3, #1
 1100 03c8 D109     		lsrs	r1, r2, #7
 1101 03ca 0B43     		orrs	r3, r1
 1102 03cc 6946     		mov	r1, sp
 1103 03ce 0B73     		strb	r3, [r1, #12]
 1104              	.LVL133:
 1105 03d0 8B7B     		ldrb	r3, [r1, #14]
 1106 03d2 5200     		lsls	r2, r2, #1
 1107 03d4 D909     		lsrs	r1, r3, #7
 1108 03d6 0A43     		orrs	r2, r1
 1109 03d8 6946     		mov	r1, sp
 1110 03da 4A73     		strb	r2, [r1, #13]
 1111              	.LVL134:
 1112 03dc CA7B     		ldrb	r2, [r1, #15]
 1113 03de 5B00     		lsls	r3, r3, #1
 1114 03e0 D109     		lsrs	r1, r2, #7
 1115 03e2 0B43     		orrs	r3, r1
 1116 03e4 6946     		mov	r1, sp
 1117 03e6 8B73     		strb	r3, [r1, #14]
 1118              	.LVL135:
 1119              	.LBE16:
 131:../../../../../../Middlewares/Third_Party/LoRaWAN/Crypto/cmac.c ****                   } else
 1120              		.loc 1 131 0
 1121 03e8 7923     		movs	r3, #121
 1122              	.LBB17:
 130:../../../../../../Middlewares/Third_Party/LoRaWAN/Crypto/cmac.c ****                           K[15] ^= 0x87;
 1123              		.loc 1 130 0
 1124 03ea 5200     		lsls	r2, r2, #1
 1125              	.LBE17:
ARM GAS  C:\Users\EBANO_~1\AppData\Local\Temp\cco1ynqH.s 			page 24


 131:../../../../../../Middlewares/Third_Party/LoRaWAN/Crypto/cmac.c ****                   } else
 1126              		.loc 1 131 0
 1127 03ec 5B42     		rsbs	r3, r3, #0
 1128 03ee 5A40     		eors	r2, r3
 1129 03f0 CA73     		strb	r2, [r1, #15]
 1130 03f2 DEE6     		b	.L23
 1131              	.LVL136:
 1132              	.L25:
 1133              	.LBB18:
 117:../../../../../../Middlewares/Third_Party/LoRaWAN/Crypto/cmac.c ****                    K[15] ^= 0x87;
 1134              		.loc 1 117 0
 1135 03f4 6A46     		mov	r2, sp
 1136 03f6 5278     		ldrb	r2, [r2, #1]
 1137 03f8 5B00     		lsls	r3, r3, #1
 1138 03fa D109     		lsrs	r1, r2, #7
 1139 03fc 0B43     		orrs	r3, r1
 1140 03fe 6946     		mov	r1, sp
 1141 0400 0B70     		strb	r3, [r1]
 1142              	.LVL137:
 1143 0402 8B78     		ldrb	r3, [r1, #2]
 1144 0404 5200     		lsls	r2, r2, #1
 1145 0406 D909     		lsrs	r1, r3, #7
 1146 0408 0A43     		orrs	r2, r1
 1147 040a 6946     		mov	r1, sp
 1148 040c 4A70     		strb	r2, [r1, #1]
 1149              	.LVL138:
 1150 040e CA78     		ldrb	r2, [r1, #3]
 1151 0410 5B00     		lsls	r3, r3, #1
 1152 0412 D109     		lsrs	r1, r2, #7
 1153 0414 0B43     		orrs	r3, r1
 1154 0416 6946     		mov	r1, sp
 1155 0418 8B70     		strb	r3, [r1, #2]
 1156              	.LVL139:
 1157 041a 0B79     		ldrb	r3, [r1, #4]
 1158 041c 5200     		lsls	r2, r2, #1
 1159 041e D909     		lsrs	r1, r3, #7
 1160 0420 0A43     		orrs	r2, r1
 1161 0422 6946     		mov	r1, sp
 1162 0424 CA70     		strb	r2, [r1, #3]
 1163              	.LVL140:
 1164 0426 4A79     		ldrb	r2, [r1, #5]
 1165 0428 5B00     		lsls	r3, r3, #1
 1166 042a D109     		lsrs	r1, r2, #7
 1167 042c 0B43     		orrs	r3, r1
 1168 042e 6946     		mov	r1, sp
 1169 0430 0B71     		strb	r3, [r1, #4]
 1170              	.LVL141:
 1171 0432 8B79     		ldrb	r3, [r1, #6]
 1172 0434 5200     		lsls	r2, r2, #1
 1173 0436 D909     		lsrs	r1, r3, #7
 1174 0438 0A43     		orrs	r2, r1
 1175 043a 6946     		mov	r1, sp
 1176 043c 4A71     		strb	r2, [r1, #5]
 1177              	.LVL142:
 1178 043e CA79     		ldrb	r2, [r1, #7]
 1179 0440 5B00     		lsls	r3, r3, #1
 1180 0442 D109     		lsrs	r1, r2, #7
ARM GAS  C:\Users\EBANO_~1\AppData\Local\Temp\cco1ynqH.s 			page 25


 1181 0444 0B43     		orrs	r3, r1
 1182 0446 6946     		mov	r1, sp
 1183 0448 8B71     		strb	r3, [r1, #6]
 1184              	.LVL143:
 1185 044a 0B7A     		ldrb	r3, [r1, #8]
 1186 044c 5200     		lsls	r2, r2, #1
 1187 044e D909     		lsrs	r1, r3, #7
 1188 0450 0A43     		orrs	r2, r1
 1189 0452 6946     		mov	r1, sp
 1190 0454 CA71     		strb	r2, [r1, #7]
 1191              	.LVL144:
 1192 0456 4A7A     		ldrb	r2, [r1, #9]
 1193 0458 5B00     		lsls	r3, r3, #1
 1194 045a D109     		lsrs	r1, r2, #7
 1195 045c 0B43     		orrs	r3, r1
 1196 045e 6946     		mov	r1, sp
 1197 0460 0B72     		strb	r3, [r1, #8]
 1198              	.LVL145:
 1199 0462 8B7A     		ldrb	r3, [r1, #10]
 1200 0464 5200     		lsls	r2, r2, #1
 1201 0466 D909     		lsrs	r1, r3, #7
 1202 0468 0A43     		orrs	r2, r1
 1203 046a 6946     		mov	r1, sp
 1204 046c 4A72     		strb	r2, [r1, #9]
 1205              	.LVL146:
 1206 046e CA7A     		ldrb	r2, [r1, #11]
 1207 0470 5B00     		lsls	r3, r3, #1
 1208 0472 D109     		lsrs	r1, r2, #7
 1209 0474 0B43     		orrs	r3, r1
 1210 0476 6946     		mov	r1, sp
 1211 0478 8B72     		strb	r3, [r1, #10]
 1212              	.LVL147:
 1213 047a 0B7B     		ldrb	r3, [r1, #12]
 1214 047c 5200     		lsls	r2, r2, #1
 1215 047e D909     		lsrs	r1, r3, #7
 1216 0480 0A43     		orrs	r2, r1
 1217 0482 6946     		mov	r1, sp
 1218 0484 CA72     		strb	r2, [r1, #11]
 1219              	.LVL148:
 1220 0486 4A7B     		ldrb	r2, [r1, #13]
 1221 0488 5B00     		lsls	r3, r3, #1
 1222 048a D109     		lsrs	r1, r2, #7
 1223 048c 0B43     		orrs	r3, r1
 1224 048e 6946     		mov	r1, sp
 1225 0490 0B73     		strb	r3, [r1, #12]
 1226              	.LVL149:
 1227 0492 8B7B     		ldrb	r3, [r1, #14]
 1228 0494 5200     		lsls	r2, r2, #1
 1229 0496 D909     		lsrs	r1, r3, #7
 1230 0498 0A43     		orrs	r2, r1
 1231 049a 6946     		mov	r1, sp
 1232 049c 4A73     		strb	r2, [r1, #13]
 1233              	.LVL150:
 1234 049e CA7B     		ldrb	r2, [r1, #15]
 1235 04a0 5B00     		lsls	r3, r3, #1
 1236 04a2 D109     		lsrs	r1, r2, #7
 1237 04a4 0B43     		orrs	r3, r1
ARM GAS  C:\Users\EBANO_~1\AppData\Local\Temp\cco1ynqH.s 			page 26


 1238 04a6 6946     		mov	r1, sp
 1239 04a8 8B73     		strb	r3, [r1, #14]
 1240              	.LVL151:
 1241              	.LBE18:
 118:../../../../../../Middlewares/Third_Party/LoRaWAN/Crypto/cmac.c ****             } else
 1242              		.loc 1 118 0
 1243 04aa 7923     		movs	r3, #121
 1244              	.LBB19:
 117:../../../../../../Middlewares/Third_Party/LoRaWAN/Crypto/cmac.c ****                    K[15] ^= 0x87;
 1245              		.loc 1 117 0
 1246 04ac 5200     		lsls	r2, r2, #1
 1247              	.LBE19:
 118:../../../../../../Middlewares/Third_Party/LoRaWAN/Crypto/cmac.c ****             } else
 1248              		.loc 1 118 0
 1249 04ae 5B42     		rsbs	r3, r3, #0
 1250 04b0 5A40     		eors	r2, r3
 1251 04b2 CA73     		strb	r2, [r1, #15]
 1252 04b4 15E6     		b	.L19
 1253              		.cfi_endproc
 1254              	.LFE42:
 1255              		.size	AES_CMAC_Final, .-AES_CMAC_Final
 1256 04b6 C046     		.text
 1257              	.Letext0:
 1258              		.file 2 "c:\\program files (x86)\\gnu tools arm embedded\\7 2018-q2-update\\arm-none-eabi\\include
 1259              		.file 3 "c:\\program files (x86)\\gnu tools arm embedded\\7 2018-q2-update\\arm-none-eabi\\include
 1260              		.file 4 "../../../../../../Middlewares/Third_Party/LoRaWAN/Crypto/aes.h"
 1261              		.file 5 "../../../../../../Middlewares/Third_Party/LoRaWAN/Crypto/cmac.h"
 1262              		.file 6 "../../../../../../Drivers/CMSIS/Device/ST/STM32L0xx/Include/system_stm32l0xx.h"
 1263              		.file 7 "c:\\program files (x86)\\gnu tools arm embedded\\7 2018-q2-update\\arm-none-eabi\\include
 1264              		.file 8 "c:\\program files (x86)\\gnu tools arm embedded\\7 2018-q2-update\\arm-none-eabi\\include
 1265              		.file 9 "c:\\program files (x86)\\gnu tools arm embedded\\7 2018-q2-update\\lib\\gcc\\arm-none-eab
 1266              		.file 10 "c:\\program files (x86)\\gnu tools arm embedded\\7 2018-q2-update\\arm-none-eabi\\includ
 1267              		.file 11 "c:\\program files (x86)\\gnu tools arm embedded\\7 2018-q2-update\\arm-none-eabi\\includ
 1268              		.file 12 "../../../../../../Middlewares/Third_Party/LoRaWAN/Utilities/utilities.h"
 1269              		.file 13 "<built-in>"