ARM GAS  C:\Users\EBANO_~1\AppData\Local\Temp\ccXyQ0sk.s 			page 1


   1              		.cpu cortex-m0plus
   2              		.eabi_attribute 20, 1
   3              		.eabi_attribute 21, 1
   4              		.eabi_attribute 23, 3
   5              		.eabi_attribute 24, 1
   6              		.eabi_attribute 25, 1
   7              		.eabi_attribute 26, 1
   8              		.eabi_attribute 30, 2
   9              		.eabi_attribute 34, 0
  10              		.eabi_attribute 18, 4
  11              		.file	"hw_gpio.c"
  12              		.text
  13              	.Ltext0:
  14              		.cfi_sections	.debug_frame
  15              		.section	.text.HW_GPIO_Init,"ax",%progbits
  16              		.align	1
  17              		.p2align 2,,3
  18              		.global	HW_GPIO_Init
  19              		.syntax unified
  20              		.code	16
  21              		.thumb_func
  22              		.fpu softvfp
  23              		.type	HW_GPIO_Init, %function
  24              	HW_GPIO_Init:
  25              	.LFB39:
  26              		.file 1 "../LoRaWAN/App/src/hw_gpio.c"
   1:../LoRaWAN/App/src/hw_gpio.c **** /*
   2:../LoRaWAN/App/src/hw_gpio.c ****  / _____)             _              | |
   3:../LoRaWAN/App/src/hw_gpio.c **** ( (____  _____ ____ _| |_ _____  ____| |__
   4:../LoRaWAN/App/src/hw_gpio.c ****  \____ \| ___ |    (_   _) ___ |/ ___)  _ \
   5:../LoRaWAN/App/src/hw_gpio.c ****  _____) ) ____| | | || |_| ____( (___| | | |
   6:../LoRaWAN/App/src/hw_gpio.c **** (______/|_____)_|_|_| \__)_____)\____)_| |_|
   7:../LoRaWAN/App/src/hw_gpio.c ****     (C)2013 Semtech
   8:../LoRaWAN/App/src/hw_gpio.c **** 
   9:../LoRaWAN/App/src/hw_gpio.c **** Description: Bleeper board GPIO driver implementation
  10:../LoRaWAN/App/src/hw_gpio.c **** 
  11:../LoRaWAN/App/src/hw_gpio.c **** License: Revised BSD License, see LICENSE.TXT file include in the project
  12:../LoRaWAN/App/src/hw_gpio.c **** 
  13:../LoRaWAN/App/src/hw_gpio.c **** Maintainer: Miguel Luis and Gregory Cristian
  14:../LoRaWAN/App/src/hw_gpio.c **** */
  15:../LoRaWAN/App/src/hw_gpio.c **** /**
  16:../LoRaWAN/App/src/hw_gpio.c ****   ******************************************************************************
  17:../LoRaWAN/App/src/hw_gpio.c ****   * @file    hw_gpio.c
  18:../LoRaWAN/App/src/hw_gpio.c ****   * @author  MCD Application Team
  19:../LoRaWAN/App/src/hw_gpio.c ****   * @brief   driver for GPIO
  20:../LoRaWAN/App/src/hw_gpio.c ****   ******************************************************************************
  21:../LoRaWAN/App/src/hw_gpio.c ****   * @attention
  22:../LoRaWAN/App/src/hw_gpio.c ****   *
  23:../LoRaWAN/App/src/hw_gpio.c ****   * <h2><center>&copy; Copyright (c) 2018 STMicroelectronics.
  24:../LoRaWAN/App/src/hw_gpio.c ****   * All rights reserved.</center></h2>
  25:../LoRaWAN/App/src/hw_gpio.c ****   *
  26:../LoRaWAN/App/src/hw_gpio.c ****   * This software component is licensed by ST under Ultimate Liberty license
  27:../LoRaWAN/App/src/hw_gpio.c ****   * SLA0044, the "License"; You may not use this file except in compliance with
  28:../LoRaWAN/App/src/hw_gpio.c ****   * the License. You may obtain a copy of the License at:
  29:../LoRaWAN/App/src/hw_gpio.c ****   *                             www.st.com/SLA0044
  30:../LoRaWAN/App/src/hw_gpio.c ****   *
  31:../LoRaWAN/App/src/hw_gpio.c ****   ******************************************************************************
ARM GAS  C:\Users\EBANO_~1\AppData\Local\Temp\ccXyQ0sk.s 			page 2


  32:../LoRaWAN/App/src/hw_gpio.c ****   */
  33:../LoRaWAN/App/src/hw_gpio.c **** 
  34:../LoRaWAN/App/src/hw_gpio.c **** /* Includes ------------------------------------------------------------------*/
  35:../LoRaWAN/App/src/hw_gpio.c **** #include "hw.h"
  36:../LoRaWAN/App/src/hw_gpio.c **** 
  37:../LoRaWAN/App/src/hw_gpio.c **** /* Private typedef -----------------------------------------------------------*/
  38:../LoRaWAN/App/src/hw_gpio.c **** /* Private define ------------------------------------------------------------*/
  39:../LoRaWAN/App/src/hw_gpio.c **** /* Private macro -------------------------------------------------------------*/
  40:../LoRaWAN/App/src/hw_gpio.c **** /* Private variables ---------------------------------------------------------*/
  41:../LoRaWAN/App/src/hw_gpio.c **** static GpioIrqHandler *GpioIrq[16] = { NULL };
  42:../LoRaWAN/App/src/hw_gpio.c **** 
  43:../LoRaWAN/App/src/hw_gpio.c **** /* Private function prototypes -----------------------------------------------*/
  44:../LoRaWAN/App/src/hw_gpio.c **** 
  45:../LoRaWAN/App/src/hw_gpio.c **** static uint8_t HW_GPIO_GetBitPos(uint16_t GPIO_Pin);
  46:../LoRaWAN/App/src/hw_gpio.c **** 
  47:../LoRaWAN/App/src/hw_gpio.c **** /* Exported functions ---------------------------------------------------------*/
  48:../LoRaWAN/App/src/hw_gpio.c **** /*!
  49:../LoRaWAN/App/src/hw_gpio.c ****  * @brief Initializes the given GPIO object
  50:../LoRaWAN/App/src/hw_gpio.c ****  *
  51:../LoRaWAN/App/src/hw_gpio.c ****  * @param  GPIOx: where x can be (A..E and H)
  52:../LoRaWAN/App/src/hw_gpio.c ****  * @param  GPIO_Pin: specifies the port bit to be written.
  53:../LoRaWAN/App/src/hw_gpio.c ****  *                   This parameter can be one of GPIO_PIN_x where x can be (0..15).
  54:../LoRaWAN/App/src/hw_gpio.c ****  *                   All port bits are not necessarily available on all GPIOs.
  55:../LoRaWAN/App/src/hw_gpio.c ****  * @param [IN] initStruct  GPIO_InitTypeDef intit structure
  56:../LoRaWAN/App/src/hw_gpio.c ****  * @retval none
  57:../LoRaWAN/App/src/hw_gpio.c ****  */
  58:../LoRaWAN/App/src/hw_gpio.c **** void HW_GPIO_Init( GPIO_TypeDef* port, uint16_t GPIO_Pin, GPIO_InitTypeDef* initStruct)
  59:../LoRaWAN/App/src/hw_gpio.c **** {
  27              		.loc 1 59 0
  28              		.cfi_startproc
  29              		@ args = 0, pretend = 0, frame = 24
  30              		@ frame_needed = 0, uses_anonymous_args = 0
  31              	.LVL0:
  32 0000 30B5     		push	{r4, r5, lr}
  33              	.LCFI0:
  34              		.cfi_def_cfa_offset 12
  35              		.cfi_offset 4, -12
  36              		.cfi_offset 5, -8
  37              		.cfi_offset 14, -4
  60:../LoRaWAN/App/src/hw_gpio.c **** 
  61:../LoRaWAN/App/src/hw_gpio.c ****   RCC_GPIO_CLK_ENABLE(  (uint32_t) port);
  38              		.loc 1 61 0
  39 0002 234B     		ldr	r3, .L11
  59:../LoRaWAN/App/src/hw_gpio.c **** 
  40              		.loc 1 59 0
  41 0004 87B0     		sub	sp, sp, #28
  42              	.LCFI1:
  43              		.cfi_def_cfa_offset 40
  44              		.loc 1 61 0
  45 0006 9842     		cmp	r0, r3
  46 0008 37D0     		beq	.L3
  47 000a 1ED9     		bls	.L10
  48 000c 214B     		ldr	r3, .L11+4
  49 000e 9842     		cmp	r0, r3
  50 0010 11D0     		beq	.L6
  51 0012 214B     		ldr	r3, .L11+8
  52 0014 9842     		cmp	r0, r3
ARM GAS  C:\Users\EBANO_~1\AppData\Local\Temp\ccXyQ0sk.s 			page 3


  53 0016 26D1     		bne	.L2
  54              	.LBB6:
  55              		.loc 1 61 0 is_stmt 0 discriminator 5
  56 0018 0823     		movs	r3, #8
  57 001a 204C     		ldr	r4, .L11+12
  58 001c E56A     		ldr	r5, [r4, #44]
  59 001e 1D43     		orrs	r5, r3
  60 0020 E562     		str	r5, [r4, #44]
  61 0022 E46A     		ldr	r4, [r4, #44]
  62 0024 2340     		ands	r3, r4
  63 0026 0493     		str	r3, [sp, #16]
  64 0028 049B     		ldr	r3, [sp, #16]
  65              	.L8:
  66              	.LBE6:
  62:../LoRaWAN/App/src/hw_gpio.c **** 
  63:../LoRaWAN/App/src/hw_gpio.c ****   initStruct->Pin = GPIO_Pin ;
  67              		.loc 1 63 0 is_stmt 1
  68 002a 1160     		str	r1, [r2]
  64:../LoRaWAN/App/src/hw_gpio.c **** 
  65:../LoRaWAN/App/src/hw_gpio.c ****   HAL_GPIO_Init( port, initStruct );
  69              		.loc 1 65 0
  70 002c 1100     		movs	r1, r2
  71              	.LVL1:
  72 002e FFF7FEFF 		bl	HAL_GPIO_Init
  73              	.LVL2:
  66:../LoRaWAN/App/src/hw_gpio.c **** }
  74              		.loc 1 66 0
  75 0032 07B0     		add	sp, sp, #28
  76              		@ sp needed
  77 0034 30BD     		pop	{r4, r5, pc}
  78              	.LVL3:
  79              	.L6:
  80              	.LBB7:
  61:../LoRaWAN/App/src/hw_gpio.c **** 
  81              		.loc 1 61 0 discriminator 4
  82 0036 0423     		movs	r3, #4
  83 0038 184C     		ldr	r4, .L11+12
  84 003a E56A     		ldr	r5, [r4, #44]
  85 003c 1D43     		orrs	r5, r3
  86 003e E562     		str	r5, [r4, #44]
  87 0040 E46A     		ldr	r4, [r4, #44]
  88 0042 2340     		ands	r3, r4
  89 0044 0393     		str	r3, [sp, #12]
  90 0046 039B     		ldr	r3, [sp, #12]
  91              	.LBE7:
  92 0048 EFE7     		b	.L8
  93              	.L10:
  61:../LoRaWAN/App/src/hw_gpio.c **** 
  94              		.loc 1 61 0 is_stmt 0
  95 004a A023     		movs	r3, #160
  96 004c DB05     		lsls	r3, r3, #23
  97 004e 9842     		cmp	r0, r3
  98 0050 09D1     		bne	.L2
  99              	.LBB8:
  61:../LoRaWAN/App/src/hw_gpio.c **** 
 100              		.loc 1 61 0 discriminator 2
 101 0052 0123     		movs	r3, #1
ARM GAS  C:\Users\EBANO_~1\AppData\Local\Temp\ccXyQ0sk.s 			page 4


 102 0054 114C     		ldr	r4, .L11+12
 103 0056 E56A     		ldr	r5, [r4, #44]
 104 0058 1D43     		orrs	r5, r3
 105 005a E562     		str	r5, [r4, #44]
 106 005c E46A     		ldr	r4, [r4, #44]
 107 005e 2340     		ands	r3, r4
 108 0060 0193     		str	r3, [sp, #4]
 109 0062 019B     		ldr	r3, [sp, #4]
 110              	.LBE8:
 111 0064 E1E7     		b	.L8
 112              	.L2:
 113              	.LBB9:
  61:../LoRaWAN/App/src/hw_gpio.c **** 
 114              		.loc 1 61 0 discriminator 1
 115 0066 8023     		movs	r3, #128
 116 0068 0C4C     		ldr	r4, .L11+12
 117 006a E56A     		ldr	r5, [r4, #44]
 118 006c 1D43     		orrs	r5, r3
 119 006e E562     		str	r5, [r4, #44]
 120 0070 E46A     		ldr	r4, [r4, #44]
 121 0072 2340     		ands	r3, r4
 122 0074 0593     		str	r3, [sp, #20]
 123 0076 059B     		ldr	r3, [sp, #20]
 124 0078 D7E7     		b	.L8
 125              	.L3:
 126              	.LBE9:
 127              	.LBB10:
  61:../LoRaWAN/App/src/hw_gpio.c **** 
 128              		.loc 1 61 0 discriminator 3
 129 007a 0223     		movs	r3, #2
 130 007c 074C     		ldr	r4, .L11+12
 131 007e E56A     		ldr	r5, [r4, #44]
 132 0080 1D43     		orrs	r5, r3
 133 0082 E562     		str	r5, [r4, #44]
 134 0084 E46A     		ldr	r4, [r4, #44]
 135 0086 2340     		ands	r3, r4
 136 0088 0293     		str	r3, [sp, #8]
 137 008a 029B     		ldr	r3, [sp, #8]
 138              	.LBE10:
 139 008c CDE7     		b	.L8
 140              	.L12:
 141 008e C046     		.align	2
 142              	.L11:
 143 0090 00040050 		.word	1342178304
 144 0094 00080050 		.word	1342179328
 145 0098 000C0050 		.word	1342180352
 146 009c 00100240 		.word	1073876992
 147              		.cfi_endproc
 148              	.LFE39:
 149              		.size	HW_GPIO_Init, .-HW_GPIO_Init
 150              		.section	.text.HW_GPIO_SetIrq,"ax",%progbits
 151              		.align	1
 152              		.p2align 2,,3
 153              		.global	HW_GPIO_SetIrq
 154              		.syntax unified
 155              		.code	16
 156              		.thumb_func
ARM GAS  C:\Users\EBANO_~1\AppData\Local\Temp\ccXyQ0sk.s 			page 5


 157              		.fpu softvfp
 158              		.type	HW_GPIO_SetIrq, %function
 159              	HW_GPIO_SetIrq:
 160              	.LFB40:
  67:../LoRaWAN/App/src/hw_gpio.c **** 
  68:../LoRaWAN/App/src/hw_gpio.c **** /*!
  69:../LoRaWAN/App/src/hw_gpio.c ****  * @brief Records the interrupt handler for the GPIO  object
  70:../LoRaWAN/App/src/hw_gpio.c ****  *
  71:../LoRaWAN/App/src/hw_gpio.c ****  * @param  GPIOx: where x can be (A..E and H) 
  72:../LoRaWAN/App/src/hw_gpio.c ****  * @param  GPIO_Pin: specifies the port bit to be written.
  73:../LoRaWAN/App/src/hw_gpio.c ****  *                   This parameter can be one of GPIO_PIN_x where x can be (0..15).
  74:../LoRaWAN/App/src/hw_gpio.c ****  *                   All port bits are not necessarily available on all GPIOs.
  75:../LoRaWAN/App/src/hw_gpio.c ****  * @param [IN] prio       NVIC priority (0 is highest)
  76:../LoRaWAN/App/src/hw_gpio.c ****  * @param [IN] irqHandler  points to the  function to execute
  77:../LoRaWAN/App/src/hw_gpio.c ****  * @retval none
  78:../LoRaWAN/App/src/hw_gpio.c ****  */
  79:../LoRaWAN/App/src/hw_gpio.c **** void HW_GPIO_SetIrq( GPIO_TypeDef* GPIOx, uint16_t GPIO_Pin, uint32_t prio,  GpioIrqHandler *irqHan
  80:../LoRaWAN/App/src/hw_gpio.c **** {
 161              		.loc 1 80 0 is_stmt 1
 162              		.cfi_startproc
 163              		@ args = 0, pretend = 0, frame = 0
 164              		@ frame_needed = 0, uses_anonymous_args = 0
 165              	.LVL4:
 166 0000 70B5     		push	{r4, r5, r6, lr}
 167              	.LCFI2:
 168              		.cfi_def_cfa_offset 16
 169              		.cfi_offset 4, -16
 170              		.cfi_offset 5, -12
 171              		.cfi_offset 6, -8
 172              		.cfi_offset 14, -4
 173              	.LBB11:
 174              	.LBB12:
  81:../LoRaWAN/App/src/hw_gpio.c ****   IRQn_Type IRQnb;
  82:../LoRaWAN/App/src/hw_gpio.c ****   
  83:../LoRaWAN/App/src/hw_gpio.c ****   uint32_t BitPos = HW_GPIO_GetBitPos( GPIO_Pin ) ;
  84:../LoRaWAN/App/src/hw_gpio.c ****   
  85:../LoRaWAN/App/src/hw_gpio.c ****   if ( irqHandler != NULL)
  86:../LoRaWAN/App/src/hw_gpio.c ****   {
  87:../LoRaWAN/App/src/hw_gpio.c ****     GpioIrq[ BitPos ] = irqHandler;
  88:../LoRaWAN/App/src/hw_gpio.c **** 
  89:../LoRaWAN/App/src/hw_gpio.c ****     IRQnb = MSP_GetIRQn( GPIO_Pin );
  90:../LoRaWAN/App/src/hw_gpio.c **** 
  91:../LoRaWAN/App/src/hw_gpio.c ****     HAL_NVIC_SetPriority( IRQnb , prio, 0);
  92:../LoRaWAN/App/src/hw_gpio.c ****     
  93:../LoRaWAN/App/src/hw_gpio.c ****     HAL_NVIC_EnableIRQ( IRQnb );
  94:../LoRaWAN/App/src/hw_gpio.c ****   }
  95:../LoRaWAN/App/src/hw_gpio.c ****   else
  96:../LoRaWAN/App/src/hw_gpio.c ****   {
  97:../LoRaWAN/App/src/hw_gpio.c ****     GpioIrq[ BitPos ] = NULL;
  98:../LoRaWAN/App/src/hw_gpio.c ****   }
  99:../LoRaWAN/App/src/hw_gpio.c **** }
 100:../LoRaWAN/App/src/hw_gpio.c **** 
 101:../LoRaWAN/App/src/hw_gpio.c **** /*!
 102:../LoRaWAN/App/src/hw_gpio.c ****  * @brief Execute the interrupt from the object
 103:../LoRaWAN/App/src/hw_gpio.c ****  *
 104:../LoRaWAN/App/src/hw_gpio.c ****  * @param  GPIO_Pin: specifies the port bit to be written.
 105:../LoRaWAN/App/src/hw_gpio.c ****  *                   This parameter can be one of GPIO_PIN_x where x can be (0..15).
ARM GAS  C:\Users\EBANO_~1\AppData\Local\Temp\ccXyQ0sk.s 			page 6


 106:../LoRaWAN/App/src/hw_gpio.c ****  *                   All port bits are not necessarily available on all GPIOs.
 107:../LoRaWAN/App/src/hw_gpio.c ****  * @retval none
 108:../LoRaWAN/App/src/hw_gpio.c ****  */
 109:../LoRaWAN/App/src/hw_gpio.c **** void HW_GPIO_IrqHandler( uint16_t GPIO_Pin )
 110:../LoRaWAN/App/src/hw_gpio.c **** {
 111:../LoRaWAN/App/src/hw_gpio.c ****   uint32_t BitPos = HW_GPIO_GetBitPos( GPIO_Pin );
 112:../LoRaWAN/App/src/hw_gpio.c ****   
 113:../LoRaWAN/App/src/hw_gpio.c ****   if ( GpioIrq[ BitPos ]  != NULL)
 114:../LoRaWAN/App/src/hw_gpio.c ****   {
 115:../LoRaWAN/App/src/hw_gpio.c ****     GpioIrq[ BitPos ] ( NULL );
 116:../LoRaWAN/App/src/hw_gpio.c ****   }
 117:../LoRaWAN/App/src/hw_gpio.c **** }
 118:../LoRaWAN/App/src/hw_gpio.c **** 
 119:../LoRaWAN/App/src/hw_gpio.c **** /*!
 120:../LoRaWAN/App/src/hw_gpio.c ****  * @brief Writes the given value to the GPIO output
 121:../LoRaWAN/App/src/hw_gpio.c ****  *
 122:../LoRaWAN/App/src/hw_gpio.c ****  * @param  GPIO_Pin: specifies the port bit to be written.
 123:../LoRaWAN/App/src/hw_gpio.c ****  *                   This parameter can be one of GPIO_PIN_x where x can be (0..15).
 124:../LoRaWAN/App/src/hw_gpio.c ****  *                   All port bits are not necessarily available on all GPIOs.
 125:../LoRaWAN/App/src/hw_gpio.c ****  * @param [IN] value New GPIO output value
 126:../LoRaWAN/App/src/hw_gpio.c ****  * @retval none
 127:../LoRaWAN/App/src/hw_gpio.c ****  */
 128:../LoRaWAN/App/src/hw_gpio.c **** void HW_GPIO_Write( GPIO_TypeDef* GPIOx, uint16_t GPIO_Pin,  uint32_t value )
 129:../LoRaWAN/App/src/hw_gpio.c **** {
 130:../LoRaWAN/App/src/hw_gpio.c ****   HAL_GPIO_WritePin( GPIOx, GPIO_Pin , (GPIO_PinState) value );
 131:../LoRaWAN/App/src/hw_gpio.c **** }
 132:../LoRaWAN/App/src/hw_gpio.c **** 
 133:../LoRaWAN/App/src/hw_gpio.c **** /*!
 134:../LoRaWAN/App/src/hw_gpio.c ****  * @brief Reads the current GPIO input value
 135:../LoRaWAN/App/src/hw_gpio.c ****  *
 136:../LoRaWAN/App/src/hw_gpio.c ****  * @param  GPIOx: where x can be (A..E and H) 
 137:../LoRaWAN/App/src/hw_gpio.c ****  * @param  GPIO_Pin: specifies the port bit to be written.
 138:../LoRaWAN/App/src/hw_gpio.c ****  *                   This parameter can be one of GPIO_PIN_x where x can be (0..15).
 139:../LoRaWAN/App/src/hw_gpio.c ****  *                   All port bits are not necessarily available on all GPIOs.
 140:../LoRaWAN/App/src/hw_gpio.c ****  * @retval value   Current GPIO input value
 141:../LoRaWAN/App/src/hw_gpio.c ****  */
 142:../LoRaWAN/App/src/hw_gpio.c **** uint32_t HW_GPIO_Read( GPIO_TypeDef* GPIOx, uint16_t GPIO_Pin )
 143:../LoRaWAN/App/src/hw_gpio.c **** {
 144:../LoRaWAN/App/src/hw_gpio.c ****   return HAL_GPIO_ReadPin( GPIOx, GPIO_Pin);
 145:../LoRaWAN/App/src/hw_gpio.c **** }
 146:../LoRaWAN/App/src/hw_gpio.c **** 
 147:../LoRaWAN/App/src/hw_gpio.c **** /* Private functions ---------------------------------------------------------*/
 148:../LoRaWAN/App/src/hw_gpio.c **** 
 149:../LoRaWAN/App/src/hw_gpio.c **** /*!
 150:../LoRaWAN/App/src/hw_gpio.c ****  * @brief Get the position of the bit set in the GPIO_Pin
 151:../LoRaWAN/App/src/hw_gpio.c ****  * @param  GPIO_Pin: specifies the port bit to be written.
 152:../LoRaWAN/App/src/hw_gpio.c ****  *                   This parameter can be one of GPIO_PIN_x where x can be (0..15).
 153:../LoRaWAN/App/src/hw_gpio.c ****  *                   All port bits are not necessarily available on all GPIOs.
 154:../LoRaWAN/App/src/hw_gpio.c ****  * @retval the position of the bit
 155:../LoRaWAN/App/src/hw_gpio.c ****  */
 156:../LoRaWAN/App/src/hw_gpio.c **** static uint8_t HW_GPIO_GetBitPos(uint16_t GPIO_Pin)
 157:../LoRaWAN/App/src/hw_gpio.c **** {
 158:../LoRaWAN/App/src/hw_gpio.c ****   uint8_t PinPos=0;
 159:../LoRaWAN/App/src/hw_gpio.c ****   
 160:../LoRaWAN/App/src/hw_gpio.c ****   if ( ( GPIO_Pin & 0xFF00 ) != 0) { PinPos |= 0x8; }
 175              		.loc 1 160 0
 176 0002 0800     		movs	r0, r1
ARM GAS  C:\Users\EBANO_~1\AppData\Local\Temp\ccXyQ0sk.s 			page 7


 177              	.LVL5:
 178              	.LBE12:
 179              	.LBE11:
  80:../LoRaWAN/App/src/hw_gpio.c ****   IRQn_Type IRQnb;
 180              		.loc 1 80 0
 181 0004 1400     		movs	r4, r2
 182              	.LBB14:
 183              	.LBB13:
 184              		.loc 1 160 0
 185 0006 FF22     		movs	r2, #255
 186              	.LVL6:
 187 0008 9043     		bics	r0, r2
 188 000a 0200     		movs	r2, r0
 189 000c 0425     		movs	r5, #4
 190 000e 0028     		cmp	r0, #0
 191 0010 01D0     		beq	.L14
 192 0012 0C25     		movs	r5, #12
 193 0014 0822     		movs	r2, #8
 194              	.L14:
 195              	.LVL7:
 161:../LoRaWAN/App/src/hw_gpio.c ****   if ( ( GPIO_Pin & 0xF0F0 ) != 0) { PinPos |= 0x4; }
 196              		.loc 1 161 0
 197 0016 1248     		ldr	r0, .L31
 198 0018 0142     		tst	r1, r0
 199 001a 00D0     		beq	.L15
 200 001c 2A00     		movs	r2, r5
 201              	.LVL8:
 202              	.L15:
 162:../LoRaWAN/App/src/hw_gpio.c ****   if ( ( GPIO_Pin & 0xCCCC ) != 0) { PinPos |= 0x2; }
 203              		.loc 1 162 0
 204 001e 1148     		ldr	r0, .L31+4
 205 0020 0142     		tst	r1, r0
 206 0022 02D0     		beq	.L16
 207 0024 0220     		movs	r0, #2
 208 0026 0243     		orrs	r2, r0
 209              	.LVL9:
 210 0028 D2B2     		uxtb	r2, r2
 211              	.LVL10:
 212              	.L16:
 163:../LoRaWAN/App/src/hw_gpio.c ****   if ( ( GPIO_Pin & 0xAAAA ) != 0) { PinPos |= 0x1; }
 213              		.loc 1 163 0
 214 002a 0F48     		ldr	r0, .L31+8
 215 002c 0142     		tst	r1, r0
 216 002e 02D0     		beq	.L17
 217 0030 0120     		movs	r0, #1
 218 0032 0243     		orrs	r2, r0
 219              	.LVL11:
 220 0034 D2B2     		uxtb	r2, r2
 221              	.LVL12:
 222              	.L17:
 223              	.LBE13:
 224              	.LBE14:
  87:../LoRaWAN/App/src/hw_gpio.c **** 
 225              		.loc 1 87 0
 226 0036 9200     		lsls	r2, r2, #2
 227              	.LVL13:
  85:../LoRaWAN/App/src/hw_gpio.c ****   {
ARM GAS  C:\Users\EBANO_~1\AppData\Local\Temp\ccXyQ0sk.s 			page 8


 228              		.loc 1 85 0
 229 0038 002B     		cmp	r3, #0
 230 003a 02D1     		bne	.L30
  97:../LoRaWAN/App/src/hw_gpio.c ****   }
 231              		.loc 1 97 0
 232 003c 0B49     		ldr	r1, .L31+12
 233              	.LVL14:
 234 003e 5350     		str	r3, [r2, r1]
 235              	.LVL15:
 236              	.L13:
  99:../LoRaWAN/App/src/hw_gpio.c **** 
 237              		.loc 1 99 0
 238              		@ sp needed
 239              	.LVL16:
 240 0040 70BD     		pop	{r4, r5, r6, pc}
 241              	.LVL17:
 242              	.L30:
  87:../LoRaWAN/App/src/hw_gpio.c **** 
 243              		.loc 1 87 0
 244 0042 0A48     		ldr	r0, .L31+12
 245 0044 1350     		str	r3, [r2, r0]
  89:../LoRaWAN/App/src/hw_gpio.c **** 
 246              		.loc 1 89 0
 247 0046 0800     		movs	r0, r1
 248 0048 FFF7FEFF 		bl	MSP_GetIRQn
 249              	.LVL18:
 250 004c 0500     		movs	r5, r0
 251              	.LVL19:
  91:../LoRaWAN/App/src/hw_gpio.c ****     
 252              		.loc 1 91 0
 253 004e 0022     		movs	r2, #0
 254 0050 2100     		movs	r1, r4
 255 0052 FFF7FEFF 		bl	HAL_NVIC_SetPriority
 256              	.LVL20:
  93:../LoRaWAN/App/src/hw_gpio.c ****   }
 257              		.loc 1 93 0
 258 0056 2800     		movs	r0, r5
 259 0058 FFF7FEFF 		bl	HAL_NVIC_EnableIRQ
 260              	.LVL21:
 261 005c F0E7     		b	.L13
 262              	.L32:
 263 005e C046     		.align	2
 264              	.L31:
 265 0060 F0F0FFFF 		.word	-3856
 266 0064 CCCCFFFF 		.word	-13108
 267 0068 AAAAFFFF 		.word	-21846
 268 006c 00000000 		.word	.LANCHOR0
 269              		.cfi_endproc
 270              	.LFE40:
 271              		.size	HW_GPIO_SetIrq, .-HW_GPIO_SetIrq
 272              		.section	.text.HW_GPIO_IrqHandler,"ax",%progbits
 273              		.align	1
 274              		.p2align 2,,3
 275              		.global	HW_GPIO_IrqHandler
 276              		.syntax unified
 277              		.code	16
 278              		.thumb_func
ARM GAS  C:\Users\EBANO_~1\AppData\Local\Temp\ccXyQ0sk.s 			page 9


 279              		.fpu softvfp
 280              		.type	HW_GPIO_IrqHandler, %function
 281              	HW_GPIO_IrqHandler:
 282              	.LFB41:
 110:../LoRaWAN/App/src/hw_gpio.c ****   uint32_t BitPos = HW_GPIO_GetBitPos( GPIO_Pin );
 283              		.loc 1 110 0
 284              		.cfi_startproc
 285              		@ args = 0, pretend = 0, frame = 0
 286              		@ frame_needed = 0, uses_anonymous_args = 0
 287              	.LVL22:
 288              	.LBB15:
 289              	.LBB16:
 160:../LoRaWAN/App/src/hw_gpio.c ****   if ( ( GPIO_Pin & 0xF0F0 ) != 0) { PinPos |= 0x4; }
 290              		.loc 1 160 0
 291 0000 FF23     		movs	r3, #255
 292 0002 0200     		movs	r2, r0
 293 0004 9A43     		bics	r2, r3
 294              	.LBE16:
 295              	.LBE15:
 110:../LoRaWAN/App/src/hw_gpio.c ****   uint32_t BitPos = HW_GPIO_GetBitPos( GPIO_Pin );
 296              		.loc 1 110 0
 297 0006 10B5     		push	{r4, lr}
 298              	.LCFI3:
 299              		.cfi_def_cfa_offset 8
 300              		.cfi_offset 4, -8
 301              		.cfi_offset 14, -4
 302              	.LBB18:
 303              	.LBB17:
 160:../LoRaWAN/App/src/hw_gpio.c ****   if ( ( GPIO_Pin & 0xF0F0 ) != 0) { PinPos |= 0x4; }
 304              		.loc 1 160 0
 305 0008 1300     		movs	r3, r2
 306 000a 0421     		movs	r1, #4
 307 000c 002A     		cmp	r2, #0
 308 000e 01D0     		beq	.L34
 309 0010 0C21     		movs	r1, #12
 310 0012 0823     		movs	r3, #8
 311              	.L34:
 312              	.LVL23:
 161:../LoRaWAN/App/src/hw_gpio.c ****   if ( ( GPIO_Pin & 0xCCCC ) != 0) { PinPos |= 0x2; }
 313              		.loc 1 161 0
 314 0014 0B4A     		ldr	r2, .L52
 315 0016 1042     		tst	r0, r2
 316 0018 00D0     		beq	.L35
 317 001a 0B00     		movs	r3, r1
 318              	.LVL24:
 319              	.L35:
 162:../LoRaWAN/App/src/hw_gpio.c ****   if ( ( GPIO_Pin & 0xAAAA ) != 0) { PinPos |= 0x1; }
 320              		.loc 1 162 0
 321 001c 0A4A     		ldr	r2, .L52+4
 322 001e 1042     		tst	r0, r2
 323 0020 02D0     		beq	.L36
 324 0022 0222     		movs	r2, #2
 325 0024 1343     		orrs	r3, r2
 326              	.LVL25:
 327 0026 DBB2     		uxtb	r3, r3
 328              	.LVL26:
 329              	.L36:
ARM GAS  C:\Users\EBANO_~1\AppData\Local\Temp\ccXyQ0sk.s 			page 10


 330              		.loc 1 163 0
 331 0028 084A     		ldr	r2, .L52+8
 332 002a 1042     		tst	r0, r2
 333 002c 02D0     		beq	.L37
 334 002e 0122     		movs	r2, #1
 335 0030 1343     		orrs	r3, r2
 336              	.LVL27:
 337 0032 DBB2     		uxtb	r3, r3
 338              	.LVL28:
 339              	.L37:
 340              	.LBE17:
 341              	.LBE18:
 113:../LoRaWAN/App/src/hw_gpio.c ****   {
 342              		.loc 1 113 0
 343 0034 064A     		ldr	r2, .L52+12
 344 0036 9B00     		lsls	r3, r3, #2
 345              	.LVL29:
 346 0038 9B58     		ldr	r3, [r3, r2]
 347 003a 002B     		cmp	r3, #0
 348 003c 01D0     		beq	.L33
 115:../LoRaWAN/App/src/hw_gpio.c ****   }
 349              		.loc 1 115 0
 350 003e 0020     		movs	r0, #0
 351              	.LVL30:
 352 0040 9847     		blx	r3
 353              	.LVL31:
 354              	.L33:
 117:../LoRaWAN/App/src/hw_gpio.c **** 
 355              		.loc 1 117 0
 356              		@ sp needed
 357 0042 10BD     		pop	{r4, pc}
 358              	.L53:
 359              		.align	2
 360              	.L52:
 361 0044 F0F0FFFF 		.word	-3856
 362 0048 CCCCFFFF 		.word	-13108
 363 004c AAAAFFFF 		.word	-21846
 364 0050 00000000 		.word	.LANCHOR0
 365              		.cfi_endproc
 366              	.LFE41:
 367              		.size	HW_GPIO_IrqHandler, .-HW_GPIO_IrqHandler
 368              		.section	.text.HW_GPIO_Write,"ax",%progbits
 369              		.align	1
 370              		.p2align 2,,3
 371              		.global	HW_GPIO_Write
 372              		.syntax unified
 373              		.code	16
 374              		.thumb_func
 375              		.fpu softvfp
 376              		.type	HW_GPIO_Write, %function
 377              	HW_GPIO_Write:
 378              	.LFB42:
 129:../LoRaWAN/App/src/hw_gpio.c ****   HAL_GPIO_WritePin( GPIOx, GPIO_Pin , (GPIO_PinState) value );
 379              		.loc 1 129 0
 380              		.cfi_startproc
 381              		@ args = 0, pretend = 0, frame = 0
 382              		@ frame_needed = 0, uses_anonymous_args = 0
ARM GAS  C:\Users\EBANO_~1\AppData\Local\Temp\ccXyQ0sk.s 			page 11


 383              	.LVL32:
 384 0000 10B5     		push	{r4, lr}
 385              	.LCFI4:
 386              		.cfi_def_cfa_offset 8
 387              		.cfi_offset 4, -8
 388              		.cfi_offset 14, -4
 130:../LoRaWAN/App/src/hw_gpio.c **** }
 389              		.loc 1 130 0
 390 0002 D2B2     		uxtb	r2, r2
 391              	.LVL33:
 392 0004 FFF7FEFF 		bl	HAL_GPIO_WritePin
 393              	.LVL34:
 131:../LoRaWAN/App/src/hw_gpio.c **** 
 394              		.loc 1 131 0
 395              		@ sp needed
 396 0008 10BD     		pop	{r4, pc}
 397              		.cfi_endproc
 398              	.LFE42:
 399              		.size	HW_GPIO_Write, .-HW_GPIO_Write
 400 000a C046     		.section	.text.HW_GPIO_Read,"ax",%progbits
 401              		.align	1
 402              		.p2align 2,,3
 403              		.global	HW_GPIO_Read
 404              		.syntax unified
 405              		.code	16
 406              		.thumb_func
 407              		.fpu softvfp
 408              		.type	HW_GPIO_Read, %function
 409              	HW_GPIO_Read:
 410              	.LFB43:
 143:../LoRaWAN/App/src/hw_gpio.c ****   return HAL_GPIO_ReadPin( GPIOx, GPIO_Pin);
 411              		.loc 1 143 0
 412              		.cfi_startproc
 413              		@ args = 0, pretend = 0, frame = 0
 414              		@ frame_needed = 0, uses_anonymous_args = 0
 415              	.LVL35:
 416 0000 10B5     		push	{r4, lr}
 417              	.LCFI5:
 418              		.cfi_def_cfa_offset 8
 419              		.cfi_offset 4, -8
 420              		.cfi_offset 14, -4
 144:../LoRaWAN/App/src/hw_gpio.c **** }
 421              		.loc 1 144 0
 422 0002 FFF7FEFF 		bl	HAL_GPIO_ReadPin
 423              	.LVL36:
 145:../LoRaWAN/App/src/hw_gpio.c **** 
 424              		.loc 1 145 0
 425              		@ sp needed
 426 0006 10BD     		pop	{r4, pc}
 427              		.cfi_endproc
 428              	.LFE43:
 429              		.size	HW_GPIO_Read, .-HW_GPIO_Read
 430              		.bss
 431              		.align	2
 432              		.set	.LANCHOR0,. + 0
 433              		.type	GpioIrq, %object
 434              		.size	GpioIrq, 64
ARM GAS  C:\Users\EBANO_~1\AppData\Local\Temp\ccXyQ0sk.s 			page 12


 435              	GpioIrq:
 436 0000 00000000 		.space	64
 436      00000000 
 436      00000000 
 436      00000000 
 436      00000000 
 437              		.text
 438              	.Letext0:
 439              		.file 2 "c:\\program files (x86)\\gnu tools arm embedded\\7 2018-q2-update\\arm-none-eabi\\include
 440              		.file 3 "c:\\program files (x86)\\gnu tools arm embedded\\7 2018-q2-update\\arm-none-eabi\\include
 441              		.file 4 "c:\\program files (x86)\\gnu tools arm embedded\\7 2018-q2-update\\arm-none-eabi\\include
 442              		.file 5 "c:\\program files (x86)\\gnu tools arm embedded\\7 2018-q2-update\\lib\\gcc\\arm-none-eab
 443              		.file 6 "c:\\program files (x86)\\gnu tools arm embedded\\7 2018-q2-update\\arm-none-eabi\\include
 444              		.file 7 "c:\\program files (x86)\\gnu tools arm embedded\\7 2018-q2-update\\arm-none-eabi\\include
 445              		.file 8 "c:\\program files (x86)\\gnu tools arm embedded\\7 2018-q2-update\\arm-none-eabi\\include
 446              		.file 9 "../../../../../../Drivers/CMSIS/Device/ST/STM32L0xx/Include/stm32l072xx.h"
 447              		.file 10 "../../../../../../Drivers/CMSIS/Device/ST/STM32L0xx/Include/system_stm32l0xx.h"
 448              		.file 11 "../../../../../../Drivers/STM32L0xx_HAL_Driver/Inc/stm32l0xx_hal_gpio.h"
 449              		.file 12 "c:\\program files (x86)\\gnu tools arm embedded\\7 2018-q2-update\\arm-none-eabi\\includ
 450              		.file 13 "../LoRaWAN/App/inc/hw_gpio.h"
 451              		.file 14 "c:\\program files (x86)\\gnu tools arm embedded\\7 2018-q2-update\\arm-none-eabi\\includ
 452              		.file 15 "../../../../../../Drivers/STM32L0xx_HAL_Driver/Inc/stm32l0xx_hal_cortex.h"
 453              		.section	.debug_info,"",%progbits
 454              	.Ldebug_info0:
 455 0000 D9110000 		.4byte	0x11d9
 456 0004 0200     		.2byte	0x2
 457 0006 00000000 		.4byte	.Ldebug_abbrev0
 458 000a 04       		.byte	0x4
 459 000b 01       		.uleb128 0x1
 460 000c 83080000 		.4byte	.LASF235
 461 0010 0C       		.byte	0xc
 462 0011 DD040000 		.4byte	.LASF236
 463 0015 E9020000 		.4byte	.LASF237
 464 0019 30000000 		.4byte	.Ldebug_ranges0+0x30
 465 001d 00000000 		.4byte	0
 466 0021 00000000 		.4byte	0
 467 0025 00000000 		.4byte	.Ldebug_line0
 468 0029 02       		.uleb128 0x2
 469 002a 04       		.byte	0x4
 470 002b 05       		.byte	0x5
 471 002c 696E7400 		.ascii	"int\000"
 472 0030 03       		.uleb128 0x3
 473 0031 04       		.byte	0x4
 474 0032 07       		.byte	0x7
 475 0033 AA050000 		.4byte	.LASF0
 476 0037 03       		.uleb128 0x3
 477 0038 08       		.byte	0x8
 478 0039 05       		.byte	0x5
 479 003a 1A050000 		.4byte	.LASF1
 480 003e 03       		.uleb128 0x3
 481 003f 08       		.byte	0x8
 482 0040 04       		.byte	0x4
 483 0041 6B060000 		.4byte	.LASF2
 484 0045 03       		.uleb128 0x3
 485 0046 01       		.byte	0x1
 486 0047 06       		.byte	0x6
 487 0048 0C020000 		.4byte	.LASF3
ARM GAS  C:\Users\EBANO_~1\AppData\Local\Temp\ccXyQ0sk.s 			page 13


 488 004c 04       		.uleb128 0x4
 489 004d 0A010000 		.4byte	.LASF6
 490 0051 02       		.byte	0x2
 491 0052 2B       		.byte	0x2b
 492 0053 57000000 		.4byte	0x57
 493 0057 03       		.uleb128 0x3
 494 0058 01       		.byte	0x1
 495 0059 08       		.byte	0x8
 496 005a 3F020000 		.4byte	.LASF4
 497 005e 03       		.uleb128 0x3
 498 005f 02       		.byte	0x2
 499 0060 05       		.byte	0x5
 500 0061 6A080000 		.4byte	.LASF5
 501 0065 04       		.uleb128 0x4
 502 0066 DE020000 		.4byte	.LASF7
 503 006a 02       		.byte	0x2
 504 006b 39       		.byte	0x39
 505 006c 70000000 		.4byte	0x70
 506 0070 03       		.uleb128 0x3
 507 0071 02       		.byte	0x2
 508 0072 07       		.byte	0x7
 509 0073 010A0000 		.4byte	.LASF8
 510 0077 03       		.uleb128 0x3
 511 0078 04       		.byte	0x4
 512 0079 05       		.byte	0x5
 513 007a 77010000 		.4byte	.LASF9
 514 007e 04       		.uleb128 0x4
 515 007f FA040000 		.4byte	.LASF10
 516 0083 02       		.byte	0x2
 517 0084 4F       		.byte	0x4f
 518 0085 89000000 		.4byte	0x89
 519 0089 03       		.uleb128 0x3
 520 008a 04       		.byte	0x4
 521 008b 07       		.byte	0x7
 522 008c 36040000 		.4byte	.LASF11
 523 0090 03       		.uleb128 0x3
 524 0091 08       		.byte	0x8
 525 0092 07       		.byte	0x7
 526 0093 EB060000 		.4byte	.LASF12
 527 0097 04       		.uleb128 0x4
 528 0098 A1090000 		.4byte	.LASF13
 529 009c 03       		.byte	0x3
 530 009d 22       		.byte	0x22
 531 009e A2000000 		.4byte	0xa2
 532 00a2 05       		.uleb128 0x5
 533 00a3 04       		.byte	0x4
 534 00a4 A8000000 		.4byte	0xa8
 535 00a8 06       		.uleb128 0x6
 536 00a9 AF030000 		.4byte	.LASF120
 537 00ad 01       		.byte	0x1
 538 00ae 04       		.uleb128 0x4
 539 00af F5090000 		.4byte	.LASF14
 540 00b3 04       		.byte	0x4
 541 00b4 2C       		.byte	0x2c
 542 00b5 77000000 		.4byte	0x77
 543 00b9 04       		.uleb128 0x4
 544 00ba AF060000 		.4byte	.LASF15
ARM GAS  C:\Users\EBANO_~1\AppData\Local\Temp\ccXyQ0sk.s 			page 14


 545 00be 04       		.byte	0x4
 546 00bf 72       		.byte	0x72
 547 00c0 77000000 		.4byte	0x77
 548 00c4 07       		.uleb128 0x7
 549 00c5 C2070000 		.4byte	.LASF16
 550 00c9 05       		.byte	0x5
 551 00ca 6501     		.2byte	0x165
 552 00cc 30000000 		.4byte	0x30
 553 00d0 08       		.uleb128 0x8
 554 00d1 04       		.byte	0x4
 555 00d2 04       		.byte	0x4
 556 00d3 A6       		.byte	0xa6
 557 00d4 EF000000 		.4byte	0xef
 558 00d8 09       		.uleb128 0x9
 559 00d9 04010000 		.4byte	.LASF17
 560 00dd 04       		.byte	0x4
 561 00de A8       		.byte	0xa8
 562 00df C4000000 		.4byte	0xc4
 563 00e3 09       		.uleb128 0x9
 564 00e4 B7060000 		.4byte	.LASF18
 565 00e8 04       		.byte	0x4
 566 00e9 A9       		.byte	0xa9
 567 00ea EF000000 		.4byte	0xef
 568 00ee 00       		.byte	0
 569 00ef 0A       		.uleb128 0xa
 570 00f0 57000000 		.4byte	0x57
 571 00f4 FF000000 		.4byte	0xff
 572 00f8 0B       		.uleb128 0xb
 573 00f9 30000000 		.4byte	0x30
 574 00fd 03       		.byte	0x3
 575 00fe 00       		.byte	0
 576 00ff 0C       		.uleb128 0xc
 577 0100 08       		.byte	0x8
 578 0101 04       		.byte	0x4
 579 0102 A3       		.byte	0xa3
 580 0103 24010000 		.4byte	0x124
 581 0107 0D       		.uleb128 0xd
 582 0108 59060000 		.4byte	.LASF19
 583 010c 04       		.byte	0x4
 584 010d A5       		.byte	0xa5
 585 010e 29000000 		.4byte	0x29
 586 0112 02       		.byte	0x2
 587 0113 23       		.byte	0x23
 588 0114 00       		.uleb128 0
 589 0115 0D       		.uleb128 0xd
 590 0116 1B000000 		.4byte	.LASF20
 591 011a 04       		.byte	0x4
 592 011b AA       		.byte	0xaa
 593 011c D0000000 		.4byte	0xd0
 594 0120 02       		.byte	0x2
 595 0121 23       		.byte	0x23
 596 0122 04       		.uleb128 0x4
 597 0123 00       		.byte	0
 598 0124 04       		.uleb128 0x4
 599 0125 A9070000 		.4byte	.LASF21
 600 0129 04       		.byte	0x4
 601 012a AB       		.byte	0xab
ARM GAS  C:\Users\EBANO_~1\AppData\Local\Temp\ccXyQ0sk.s 			page 15


 602 012b FF000000 		.4byte	0xff
 603 012f 04       		.uleb128 0x4
 604 0130 99070000 		.4byte	.LASF22
 605 0134 04       		.byte	0x4
 606 0135 AF       		.byte	0xaf
 607 0136 97000000 		.4byte	0x97
 608 013a 0E       		.uleb128 0xe
 609 013b 04       		.byte	0x4
 610 013c 05       		.uleb128 0x5
 611 013d 04       		.byte	0x4
 612 013e 42010000 		.4byte	0x142
 613 0142 03       		.uleb128 0x3
 614 0143 01       		.byte	0x1
 615 0144 08       		.byte	0x8
 616 0145 BF020000 		.4byte	.LASF23
 617 0149 0F       		.uleb128 0xf
 618 014a 42010000 		.4byte	0x142
 619 014e 04       		.uleb128 0x4
 620 014f B8090000 		.4byte	.LASF24
 621 0153 06       		.byte	0x6
 622 0154 16       		.byte	0x16
 623 0155 89000000 		.4byte	0x89
 624 0159 10       		.uleb128 0x10
 625 015a A4040000 		.4byte	.LASF29
 626 015e 18       		.byte	0x18
 627 015f 06       		.byte	0x6
 628 0160 2F       		.byte	0x2f
 629 0161 B8010000 		.4byte	0x1b8
 630 0165 0D       		.uleb128 0xd
 631 0166 D0070000 		.4byte	.LASF25
 632 016a 06       		.byte	0x6
 633 016b 31       		.byte	0x31
 634 016c B8010000 		.4byte	0x1b8
 635 0170 02       		.byte	0x2
 636 0171 23       		.byte	0x23
 637 0172 00       		.uleb128 0
 638 0173 11       		.uleb128 0x11
 639 0174 5F6B00   		.ascii	"_k\000"
 640 0177 06       		.byte	0x6
 641 0178 32       		.byte	0x32
 642 0179 29000000 		.4byte	0x29
 643 017d 02       		.byte	0x2
 644 017e 23       		.byte	0x23
 645 017f 04       		.uleb128 0x4
 646 0180 0D       		.uleb128 0xd
 647 0181 AC040000 		.4byte	.LASF26
 648 0185 06       		.byte	0x6
 649 0186 32       		.byte	0x32
 650 0187 29000000 		.4byte	0x29
 651 018b 02       		.byte	0x2
 652 018c 23       		.byte	0x23
 653 018d 08       		.uleb128 0x8
 654 018e 0D       		.uleb128 0xd
 655 018f 85050000 		.4byte	.LASF27
 656 0193 06       		.byte	0x6
 657 0194 32       		.byte	0x32
 658 0195 29000000 		.4byte	0x29
ARM GAS  C:\Users\EBANO_~1\AppData\Local\Temp\ccXyQ0sk.s 			page 16


 659 0199 02       		.byte	0x2
 660 019a 23       		.byte	0x23
 661 019b 0C       		.uleb128 0xc
 662 019c 0D       		.uleb128 0xd
 663 019d A4030000 		.4byte	.LASF28
 664 01a1 06       		.byte	0x6
 665 01a2 32       		.byte	0x32
 666 01a3 29000000 		.4byte	0x29
 667 01a7 02       		.byte	0x2
 668 01a8 23       		.byte	0x23
 669 01a9 10       		.uleb128 0x10
 670 01aa 11       		.uleb128 0x11
 671 01ab 5F7800   		.ascii	"_x\000"
 672 01ae 06       		.byte	0x6
 673 01af 33       		.byte	0x33
 674 01b0 BE010000 		.4byte	0x1be
 675 01b4 02       		.byte	0x2
 676 01b5 23       		.byte	0x23
 677 01b6 14       		.uleb128 0x14
 678 01b7 00       		.byte	0
 679 01b8 05       		.uleb128 0x5
 680 01b9 04       		.byte	0x4
 681 01ba 59010000 		.4byte	0x159
 682 01be 0A       		.uleb128 0xa
 683 01bf 4E010000 		.4byte	0x14e
 684 01c3 CE010000 		.4byte	0x1ce
 685 01c7 0B       		.uleb128 0xb
 686 01c8 30000000 		.4byte	0x30
 687 01cc 00       		.byte	0
 688 01cd 00       		.byte	0
 689 01ce 10       		.uleb128 0x10
 690 01cf 81000000 		.4byte	.LASF30
 691 01d3 24       		.byte	0x24
 692 01d4 06       		.byte	0x6
 693 01d5 37       		.byte	0x37
 694 01d6 59020000 		.4byte	0x259
 695 01da 0D       		.uleb128 0xd
 696 01db 9D000000 		.4byte	.LASF31
 697 01df 06       		.byte	0x6
 698 01e0 39       		.byte	0x39
 699 01e1 29000000 		.4byte	0x29
 700 01e5 02       		.byte	0x2
 701 01e6 23       		.byte	0x23
 702 01e7 00       		.uleb128 0
 703 01e8 0D       		.uleb128 0xd
 704 01e9 7A0A0000 		.4byte	.LASF32
 705 01ed 06       		.byte	0x6
 706 01ee 3A       		.byte	0x3a
 707 01ef 29000000 		.4byte	0x29
 708 01f3 02       		.byte	0x2
 709 01f4 23       		.byte	0x23
 710 01f5 04       		.uleb128 0x4
 711 01f6 0D       		.uleb128 0xd
 712 01f7 140A0000 		.4byte	.LASF33
 713 01fb 06       		.byte	0x6
 714 01fc 3B       		.byte	0x3b
 715 01fd 29000000 		.4byte	0x29
ARM GAS  C:\Users\EBANO_~1\AppData\Local\Temp\ccXyQ0sk.s 			page 17


 716 0201 02       		.byte	0x2
 717 0202 23       		.byte	0x23
 718 0203 08       		.uleb128 0x8
 719 0204 0D       		.uleb128 0xd
 720 0205 EC050000 		.4byte	.LASF34
 721 0209 06       		.byte	0x6
 722 020a 3C       		.byte	0x3c
 723 020b 29000000 		.4byte	0x29
 724 020f 02       		.byte	0x2
 725 0210 23       		.byte	0x23
 726 0211 0C       		.uleb128 0xc
 727 0212 0D       		.uleb128 0xd
 728 0213 C3010000 		.4byte	.LASF35
 729 0217 06       		.byte	0x6
 730 0218 3D       		.byte	0x3d
 731 0219 29000000 		.4byte	0x29
 732 021d 02       		.byte	0x2
 733 021e 23       		.byte	0x23
 734 021f 10       		.uleb128 0x10
 735 0220 0D       		.uleb128 0xd
 736 0221 3B090000 		.4byte	.LASF36
 737 0225 06       		.byte	0x6
 738 0226 3E       		.byte	0x3e
 739 0227 29000000 		.4byte	0x29
 740 022b 02       		.byte	0x2
 741 022c 23       		.byte	0x23
 742 022d 14       		.uleb128 0x14
 743 022e 0D       		.uleb128 0xd
 744 022f 61060000 		.4byte	.LASF37
 745 0233 06       		.byte	0x6
 746 0234 3F       		.byte	0x3f
 747 0235 29000000 		.4byte	0x29
 748 0239 02       		.byte	0x2
 749 023a 23       		.byte	0x23
 750 023b 18       		.uleb128 0x18
 751 023c 0D       		.uleb128 0xd
 752 023d 77060000 		.4byte	.LASF38
 753 0241 06       		.byte	0x6
 754 0242 40       		.byte	0x40
 755 0243 29000000 		.4byte	0x29
 756 0247 02       		.byte	0x2
 757 0248 23       		.byte	0x23
 758 0249 1C       		.uleb128 0x1c
 759 024a 0D       		.uleb128 0xd
 760 024b 520A0000 		.4byte	.LASF39
 761 024f 06       		.byte	0x6
 762 0250 41       		.byte	0x41
 763 0251 29000000 		.4byte	0x29
 764 0255 02       		.byte	0x2
 765 0256 23       		.byte	0x23
 766 0257 20       		.uleb128 0x20
 767 0258 00       		.byte	0
 768 0259 12       		.uleb128 0x12
 769 025a 3C010000 		.4byte	.LASF40
 770 025e 0801     		.2byte	0x108
 771 0260 06       		.byte	0x6
 772 0261 4A       		.byte	0x4a
ARM GAS  C:\Users\EBANO_~1\AppData\Local\Temp\ccXyQ0sk.s 			page 18


 773 0262 A2020000 		.4byte	0x2a2
 774 0266 0D       		.uleb128 0xd
 775 0267 4A0A0000 		.4byte	.LASF41
 776 026b 06       		.byte	0x6
 777 026c 4B       		.byte	0x4b
 778 026d A2020000 		.4byte	0x2a2
 779 0271 02       		.byte	0x2
 780 0272 23       		.byte	0x23
 781 0273 00       		.uleb128 0
 782 0274 0D       		.uleb128 0xd
 783 0275 0B070000 		.4byte	.LASF42
 784 0279 06       		.byte	0x6
 785 027a 4C       		.byte	0x4c
 786 027b A2020000 		.4byte	0x2a2
 787 027f 03       		.byte	0x3
 788 0280 23       		.byte	0x23
 789 0281 8001     		.uleb128 0x80
 790 0283 0D       		.uleb128 0xd
 791 0284 25090000 		.4byte	.LASF43
 792 0288 06       		.byte	0x6
 793 0289 4E       		.byte	0x4e
 794 028a 4E010000 		.4byte	0x14e
 795 028e 03       		.byte	0x3
 796 028f 23       		.byte	0x23
 797 0290 8002     		.uleb128 0x100
 798 0292 0D       		.uleb128 0xd
 799 0293 99090000 		.4byte	.LASF44
 800 0297 06       		.byte	0x6
 801 0298 51       		.byte	0x51
 802 0299 4E010000 		.4byte	0x14e
 803 029d 03       		.byte	0x3
 804 029e 23       		.byte	0x23
 805 029f 8402     		.uleb128 0x104
 806 02a1 00       		.byte	0
 807 02a2 0A       		.uleb128 0xa
 808 02a3 3A010000 		.4byte	0x13a
 809 02a7 B2020000 		.4byte	0x2b2
 810 02ab 0B       		.uleb128 0xb
 811 02ac 30000000 		.4byte	0x30
 812 02b0 1F       		.byte	0x1f
 813 02b1 00       		.byte	0
 814 02b2 12       		.uleb128 0x12
 815 02b3 47060000 		.4byte	.LASF45
 816 02b7 9001     		.2byte	0x190
 817 02b9 06       		.byte	0x6
 818 02ba 5D       		.byte	0x5d
 819 02bb F9020000 		.4byte	0x2f9
 820 02bf 0D       		.uleb128 0xd
 821 02c0 D0070000 		.4byte	.LASF25
 822 02c4 06       		.byte	0x6
 823 02c5 5E       		.byte	0x5e
 824 02c6 F9020000 		.4byte	0x2f9
 825 02ca 02       		.byte	0x2
 826 02cb 23       		.byte	0x23
 827 02cc 00       		.uleb128 0
 828 02cd 0D       		.uleb128 0xd
 829 02ce 71090000 		.4byte	.LASF46
ARM GAS  C:\Users\EBANO_~1\AppData\Local\Temp\ccXyQ0sk.s 			page 19


 830 02d2 06       		.byte	0x6
 831 02d3 5F       		.byte	0x5f
 832 02d4 29000000 		.4byte	0x29
 833 02d8 02       		.byte	0x2
 834 02d9 23       		.byte	0x23
 835 02da 04       		.uleb128 0x4
 836 02db 0D       		.uleb128 0xd
 837 02dc C4020000 		.4byte	.LASF47
 838 02e0 06       		.byte	0x6
 839 02e1 61       		.byte	0x61
 840 02e2 FF020000 		.4byte	0x2ff
 841 02e6 02       		.byte	0x2
 842 02e7 23       		.byte	0x23
 843 02e8 08       		.uleb128 0x8
 844 02e9 0D       		.uleb128 0xd
 845 02ea 3C010000 		.4byte	.LASF40
 846 02ee 06       		.byte	0x6
 847 02ef 62       		.byte	0x62
 848 02f0 59020000 		.4byte	0x259
 849 02f4 03       		.byte	0x3
 850 02f5 23       		.byte	0x23
 851 02f6 8801     		.uleb128 0x88
 852 02f8 00       		.byte	0
 853 02f9 05       		.uleb128 0x5
 854 02fa 04       		.byte	0x4
 855 02fb B2020000 		.4byte	0x2b2
 856 02ff 0A       		.uleb128 0xa
 857 0300 0F030000 		.4byte	0x30f
 858 0304 0F030000 		.4byte	0x30f
 859 0308 0B       		.uleb128 0xb
 860 0309 30000000 		.4byte	0x30
 861 030d 1F       		.byte	0x1f
 862 030e 00       		.byte	0
 863 030f 05       		.uleb128 0x5
 864 0310 04       		.byte	0x4
 865 0311 15030000 		.4byte	0x315
 866 0315 13       		.uleb128 0x13
 867 0316 01       		.byte	0x1
 868 0317 10       		.uleb128 0x10
 869 0318 92090000 		.4byte	.LASF48
 870 031c 08       		.byte	0x8
 871 031d 06       		.byte	0x6
 872 031e 75       		.byte	0x75
 873 031f 40030000 		.4byte	0x340
 874 0323 0D       		.uleb128 0xd
 875 0324 70070000 		.4byte	.LASF49
 876 0328 06       		.byte	0x6
 877 0329 76       		.byte	0x76
 878 032a 40030000 		.4byte	0x340
 879 032e 02       		.byte	0x2
 880 032f 23       		.byte	0x23
 881 0330 00       		.uleb128 0
 882 0331 0D       		.uleb128 0xd
 883 0332 96010000 		.4byte	.LASF50
 884 0336 06       		.byte	0x6
 885 0337 77       		.byte	0x77
 886 0338 29000000 		.4byte	0x29
ARM GAS  C:\Users\EBANO_~1\AppData\Local\Temp\ccXyQ0sk.s 			page 20


 887 033c 02       		.byte	0x2
 888 033d 23       		.byte	0x23
 889 033e 04       		.uleb128 0x4
 890 033f 00       		.byte	0
 891 0340 05       		.uleb128 0x5
 892 0341 04       		.byte	0x4
 893 0342 57000000 		.4byte	0x57
 894 0346 10       		.uleb128 0x10
 895 0347 48040000 		.4byte	.LASF51
 896 034b 68       		.byte	0x68
 897 034c 06       		.byte	0x6
 898 034d B5       		.byte	0xb5
 899 034e A0040000 		.4byte	0x4a0
 900 0352 11       		.uleb128 0x11
 901 0353 5F7000   		.ascii	"_p\000"
 902 0356 06       		.byte	0x6
 903 0357 B6       		.byte	0xb6
 904 0358 40030000 		.4byte	0x340
 905 035c 02       		.byte	0x2
 906 035d 23       		.byte	0x23
 907 035e 00       		.uleb128 0
 908 035f 11       		.uleb128 0x11
 909 0360 5F7200   		.ascii	"_r\000"
 910 0363 06       		.byte	0x6
 911 0364 B7       		.byte	0xb7
 912 0365 29000000 		.4byte	0x29
 913 0369 02       		.byte	0x2
 914 036a 23       		.byte	0x23
 915 036b 04       		.uleb128 0x4
 916 036c 11       		.uleb128 0x11
 917 036d 5F7700   		.ascii	"_w\000"
 918 0370 06       		.byte	0x6
 919 0371 B8       		.byte	0xb8
 920 0372 29000000 		.4byte	0x29
 921 0376 02       		.byte	0x2
 922 0377 23       		.byte	0x23
 923 0378 08       		.uleb128 0x8
 924 0379 0D       		.uleb128 0xd
 925 037a 40060000 		.4byte	.LASF52
 926 037e 06       		.byte	0x6
 927 037f B9       		.byte	0xb9
 928 0380 5E000000 		.4byte	0x5e
 929 0384 02       		.byte	0x2
 930 0385 23       		.byte	0x23
 931 0386 0C       		.uleb128 0xc
 932 0387 0D       		.uleb128 0xd
 933 0388 2F010000 		.4byte	.LASF53
 934 038c 06       		.byte	0x6
 935 038d BA       		.byte	0xba
 936 038e 5E000000 		.4byte	0x5e
 937 0392 02       		.byte	0x2
 938 0393 23       		.byte	0x23
 939 0394 0E       		.uleb128 0xe
 940 0395 11       		.uleb128 0x11
 941 0396 5F626600 		.ascii	"_bf\000"
 942 039a 06       		.byte	0x6
 943 039b BB       		.byte	0xbb
ARM GAS  C:\Users\EBANO_~1\AppData\Local\Temp\ccXyQ0sk.s 			page 21


 944 039c 17030000 		.4byte	0x317
 945 03a0 02       		.byte	0x2
 946 03a1 23       		.byte	0x23
 947 03a2 10       		.uleb128 0x10
 948 03a3 0D       		.uleb128 0xd
 949 03a4 63090000 		.4byte	.LASF54
 950 03a8 06       		.byte	0x6
 951 03a9 BC       		.byte	0xbc
 952 03aa 29000000 		.4byte	0x29
 953 03ae 02       		.byte	0x2
 954 03af 23       		.byte	0x23
 955 03b0 18       		.uleb128 0x18
 956 03b1 0D       		.uleb128 0xd
 957 03b2 9C030000 		.4byte	.LASF55
 958 03b6 06       		.byte	0x6
 959 03b7 C3       		.byte	0xc3
 960 03b8 3A010000 		.4byte	0x13a
 961 03bc 02       		.byte	0x2
 962 03bd 23       		.byte	0x23
 963 03be 1C       		.uleb128 0x1c
 964 03bf 0D       		.uleb128 0xd
 965 03c0 30000000 		.4byte	.LASF56
 966 03c4 06       		.byte	0x6
 967 03c5 C5       		.byte	0xc5
 968 03c6 28060000 		.4byte	0x628
 969 03ca 02       		.byte	0x2
 970 03cb 23       		.byte	0x23
 971 03cc 20       		.uleb128 0x20
 972 03cd 0D       		.uleb128 0xd
 973 03ce 47000000 		.4byte	.LASF57
 974 03d2 06       		.byte	0x6
 975 03d3 C7       		.byte	0xc7
 976 03d4 53060000 		.4byte	0x653
 977 03d8 02       		.byte	0x2
 978 03d9 23       		.byte	0x23
 979 03da 24       		.uleb128 0x24
 980 03db 0D       		.uleb128 0xd
 981 03dc 97060000 		.4byte	.LASF58
 982 03e0 06       		.byte	0x6
 983 03e1 CA       		.byte	0xca
 984 03e2 78060000 		.4byte	0x678
 985 03e6 02       		.byte	0x2
 986 03e7 23       		.byte	0x23
 987 03e8 28       		.uleb128 0x28
 988 03e9 0D       		.uleb128 0xd
 989 03ea C9020000 		.4byte	.LASF59
 990 03ee 06       		.byte	0x6
 991 03ef CB       		.byte	0xcb
 992 03f0 93060000 		.4byte	0x693
 993 03f4 02       		.byte	0x2
 994 03f5 23       		.byte	0x23
 995 03f6 2C       		.uleb128 0x2c
 996 03f7 11       		.uleb128 0x11
 997 03f8 5F756200 		.ascii	"_ub\000"
 998 03fc 06       		.byte	0x6
 999 03fd CE       		.byte	0xce
 1000 03fe 17030000 		.4byte	0x317
ARM GAS  C:\Users\EBANO_~1\AppData\Local\Temp\ccXyQ0sk.s 			page 22


 1001 0402 02       		.byte	0x2
 1002 0403 23       		.byte	0x23
 1003 0404 30       		.uleb128 0x30
 1004 0405 11       		.uleb128 0x11
 1005 0406 5F757000 		.ascii	"_up\000"
 1006 040a 06       		.byte	0x6
 1007 040b CF       		.byte	0xcf
 1008 040c 40030000 		.4byte	0x340
 1009 0410 02       		.byte	0x2
 1010 0411 23       		.byte	0x23
 1011 0412 38       		.uleb128 0x38
 1012 0413 11       		.uleb128 0x11
 1013 0414 5F757200 		.ascii	"_ur\000"
 1014 0418 06       		.byte	0x6
 1015 0419 D0       		.byte	0xd0
 1016 041a 29000000 		.4byte	0x29
 1017 041e 02       		.byte	0x2
 1018 041f 23       		.byte	0x23
 1019 0420 3C       		.uleb128 0x3c
 1020 0421 0D       		.uleb128 0xd
 1021 0422 10060000 		.4byte	.LASF60
 1022 0426 06       		.byte	0x6
 1023 0427 D3       		.byte	0xd3
 1024 0428 99060000 		.4byte	0x699
 1025 042c 02       		.byte	0x2
 1026 042d 23       		.byte	0x23
 1027 042e 40       		.uleb128 0x40
 1028 042f 0D       		.uleb128 0xd
 1029 0430 97000000 		.4byte	.LASF61
 1030 0434 06       		.byte	0x6
 1031 0435 D4       		.byte	0xd4
 1032 0436 A9060000 		.4byte	0x6a9
 1033 043a 02       		.byte	0x2
 1034 043b 23       		.byte	0x23
 1035 043c 43       		.uleb128 0x43
 1036 043d 11       		.uleb128 0x11
 1037 043e 5F6C6200 		.ascii	"_lb\000"
 1038 0442 06       		.byte	0x6
 1039 0443 D7       		.byte	0xd7
 1040 0444 17030000 		.4byte	0x317
 1041 0448 02       		.byte	0x2
 1042 0449 23       		.byte	0x23
 1043 044a 44       		.uleb128 0x44
 1044 044b 0D       		.uleb128 0xd
 1045 044c 67070000 		.4byte	.LASF62
 1046 0450 06       		.byte	0x6
 1047 0451 DA       		.byte	0xda
 1048 0452 29000000 		.4byte	0x29
 1049 0456 02       		.byte	0x2
 1050 0457 23       		.byte	0x23
 1051 0458 4C       		.uleb128 0x4c
 1052 0459 0D       		.uleb128 0xd
 1053 045a C5030000 		.4byte	.LASF63
 1054 045e 06       		.byte	0x6
 1055 045f DB       		.byte	0xdb
 1056 0460 AE000000 		.4byte	0xae
 1057 0464 02       		.byte	0x2
ARM GAS  C:\Users\EBANO_~1\AppData\Local\Temp\ccXyQ0sk.s 			page 23


 1058 0465 23       		.byte	0x23
 1059 0466 50       		.uleb128 0x50
 1060 0467 0D       		.uleb128 0xd
 1061 0468 DD070000 		.4byte	.LASF64
 1062 046c 06       		.byte	0x6
 1063 046d DE       		.byte	0xde
 1064 046e BF040000 		.4byte	0x4bf
 1065 0472 02       		.byte	0x2
 1066 0473 23       		.byte	0x23
 1067 0474 54       		.uleb128 0x54
 1068 0475 0D       		.uleb128 0xd
 1069 0476 D0000000 		.4byte	.LASF65
 1070 047a 06       		.byte	0x6
 1071 047b E2       		.byte	0xe2
 1072 047c 2F010000 		.4byte	0x12f
 1073 0480 02       		.byte	0x2
 1074 0481 23       		.byte	0x23
 1075 0482 58       		.uleb128 0x58
 1076 0483 0D       		.uleb128 0xd
 1077 0484 2C060000 		.4byte	.LASF66
 1078 0488 06       		.byte	0x6
 1079 0489 E4       		.byte	0xe4
 1080 048a 24010000 		.4byte	0x124
 1081 048e 02       		.byte	0x2
 1082 048f 23       		.byte	0x23
 1083 0490 5C       		.uleb128 0x5c
 1084 0491 0D       		.uleb128 0xd
 1085 0492 5B040000 		.4byte	.LASF67
 1086 0496 06       		.byte	0x6
 1087 0497 E5       		.byte	0xe5
 1088 0498 29000000 		.4byte	0x29
 1089 049c 02       		.byte	0x2
 1090 049d 23       		.byte	0x23
 1091 049e 64       		.uleb128 0x64
 1092 049f 00       		.byte	0
 1093 04a0 14       		.uleb128 0x14
 1094 04a1 01       		.byte	0x1
 1095 04a2 29000000 		.4byte	0x29
 1096 04a6 BF040000 		.4byte	0x4bf
 1097 04aa 15       		.uleb128 0x15
 1098 04ab BF040000 		.4byte	0x4bf
 1099 04af 15       		.uleb128 0x15
 1100 04b0 3A010000 		.4byte	0x13a
 1101 04b4 15       		.uleb128 0x15
 1102 04b5 3C010000 		.4byte	0x13c
 1103 04b9 15       		.uleb128 0x15
 1104 04ba 29000000 		.4byte	0x29
 1105 04be 00       		.byte	0
 1106 04bf 05       		.uleb128 0x5
 1107 04c0 04       		.byte	0x4
 1108 04c1 CA040000 		.4byte	0x4ca
 1109 04c5 0F       		.uleb128 0xf
 1110 04c6 BF040000 		.4byte	0x4bf
 1111 04ca 16       		.uleb128 0x16
 1112 04cb 79020000 		.4byte	.LASF68
 1113 04cf 2804     		.2byte	0x428
 1114 04d1 06       		.byte	0x6
ARM GAS  C:\Users\EBANO_~1\AppData\Local\Temp\ccXyQ0sk.s 			page 24


 1115 04d2 6002     		.2byte	0x260
 1116 04d4 28060000 		.4byte	0x628
 1117 04d8 17       		.uleb128 0x17
 1118 04d9 8C040000 		.4byte	.LASF69
 1119 04dd 06       		.byte	0x6
 1120 04de 6202     		.2byte	0x262
 1121 04e0 29000000 		.4byte	0x29
 1122 04e4 02       		.byte	0x2
 1123 04e5 23       		.byte	0x23
 1124 04e6 00       		.uleb128 0
 1125 04e7 17       		.uleb128 0x17
 1126 04e8 5C030000 		.4byte	.LASF70
 1127 04ec 06       		.byte	0x6
 1128 04ed 6702     		.2byte	0x267
 1129 04ef 06070000 		.4byte	0x706
 1130 04f3 02       		.byte	0x2
 1131 04f4 23       		.byte	0x23
 1132 04f5 04       		.uleb128 0x4
 1133 04f6 17       		.uleb128 0x17
 1134 04f7 42070000 		.4byte	.LASF71
 1135 04fb 06       		.byte	0x6
 1136 04fc 6702     		.2byte	0x267
 1137 04fe 06070000 		.4byte	0x706
 1138 0502 02       		.byte	0x2
 1139 0503 23       		.byte	0x23
 1140 0504 08       		.uleb128 0x8
 1141 0505 17       		.uleb128 0x17
 1142 0506 16060000 		.4byte	.LASF72
 1143 050a 06       		.byte	0x6
 1144 050b 6702     		.2byte	0x267
 1145 050d 06070000 		.4byte	0x706
 1146 0511 02       		.byte	0x2
 1147 0512 23       		.byte	0x23
 1148 0513 0C       		.uleb128 0xc
 1149 0514 17       		.uleb128 0x17
 1150 0515 6C090000 		.4byte	.LASF73
 1151 0519 06       		.byte	0x6
 1152 051a 6902     		.2byte	0x269
 1153 051c 29000000 		.4byte	0x29
 1154 0520 02       		.byte	0x2
 1155 0521 23       		.byte	0x23
 1156 0522 10       		.uleb128 0x10
 1157 0523 17       		.uleb128 0x17
 1158 0524 05050000 		.4byte	.LASF74
 1159 0528 06       		.byte	0x6
 1160 0529 6A02     		.2byte	0x26a
 1161 052b 21090000 		.4byte	0x921
 1162 052f 02       		.byte	0x2
 1163 0530 23       		.byte	0x23
 1164 0531 14       		.uleb128 0x14
 1165 0532 17       		.uleb128 0x17
 1166 0533 60020000 		.4byte	.LASF75
 1167 0537 06       		.byte	0x6
 1168 0538 6D02     		.2byte	0x26d
 1169 053a 29000000 		.4byte	0x29
 1170 053e 02       		.byte	0x2
 1171 053f 23       		.byte	0x23
ARM GAS  C:\Users\EBANO_~1\AppData\Local\Temp\ccXyQ0sk.s 			page 25


 1172 0540 30       		.uleb128 0x30
 1173 0541 17       		.uleb128 0x17
 1174 0542 B0090000 		.4byte	.LASF76
 1175 0546 06       		.byte	0x6
 1176 0547 6E02     		.2byte	0x26e
 1177 0549 37090000 		.4byte	0x937
 1178 054d 02       		.byte	0x2
 1179 054e 23       		.byte	0x23
 1180 054f 34       		.uleb128 0x34
 1181 0550 17       		.uleb128 0x17
 1182 0551 50040000 		.4byte	.LASF77
 1183 0555 06       		.byte	0x6
 1184 0556 7002     		.2byte	0x270
 1185 0558 29000000 		.4byte	0x29
 1186 055c 02       		.byte	0x2
 1187 055d 23       		.byte	0x23
 1188 055e 38       		.uleb128 0x38
 1189 055f 17       		.uleb128 0x17
 1190 0560 BC040000 		.4byte	.LASF78
 1191 0564 06       		.byte	0x6
 1192 0565 7202     		.2byte	0x272
 1193 0567 49090000 		.4byte	0x949
 1194 056b 02       		.byte	0x2
 1195 056c 23       		.byte	0x23
 1196 056d 3C       		.uleb128 0x3c
 1197 056e 17       		.uleb128 0x17
 1198 056f C9090000 		.4byte	.LASF79
 1199 0573 06       		.byte	0x6
 1200 0574 7502     		.2byte	0x275
 1201 0576 B8010000 		.4byte	0x1b8
 1202 057a 02       		.byte	0x2
 1203 057b 23       		.byte	0x23
 1204 057c 40       		.uleb128 0x40
 1205 057d 17       		.uleb128 0x17
 1206 057e 8C010000 		.4byte	.LASF80
 1207 0582 06       		.byte	0x6
 1208 0583 7602     		.2byte	0x276
 1209 0585 29000000 		.4byte	0x29
 1210 0589 02       		.byte	0x2
 1211 058a 23       		.byte	0x23
 1212 058b 44       		.uleb128 0x44
 1213 058c 17       		.uleb128 0x17
 1214 058d 31040000 		.4byte	.LASF81
 1215 0591 06       		.byte	0x6
 1216 0592 7702     		.2byte	0x277
 1217 0594 B8010000 		.4byte	0x1b8
 1218 0598 02       		.byte	0x2
 1219 0599 23       		.byte	0x23
 1220 059a 48       		.uleb128 0x48
 1221 059b 17       		.uleb128 0x17
 1222 059c 6F050000 		.4byte	.LASF82
 1223 05a0 06       		.byte	0x6
 1224 05a1 7802     		.2byte	0x278
 1225 05a3 4F090000 		.4byte	0x94f
 1226 05a7 02       		.byte	0x2
 1227 05a8 23       		.byte	0x23
 1228 05a9 4C       		.uleb128 0x4c
ARM GAS  C:\Users\EBANO_~1\AppData\Local\Temp\ccXyQ0sk.s 			page 26


 1229 05aa 17       		.uleb128 0x17
 1230 05ab 5B000000 		.4byte	.LASF83
 1231 05af 06       		.byte	0x6
 1232 05b0 7B02     		.2byte	0x27b
 1233 05b2 29000000 		.4byte	0x29
 1234 05b6 02       		.byte	0x2
 1235 05b7 23       		.byte	0x23
 1236 05b8 50       		.uleb128 0x50
 1237 05b9 17       		.uleb128 0x17
 1238 05ba E6030000 		.4byte	.LASF84
 1239 05be 06       		.byte	0x6
 1240 05bf 7C02     		.2byte	0x27c
 1241 05c1 3C010000 		.4byte	0x13c
 1242 05c5 02       		.byte	0x2
 1243 05c6 23       		.byte	0x23
 1244 05c7 54       		.uleb128 0x54
 1245 05c8 17       		.uleb128 0x17
 1246 05c9 0B060000 		.4byte	.LASF85
 1247 05cd 06       		.byte	0x6
 1248 05ce 9F02     		.2byte	0x29f
 1249 05d0 FF080000 		.4byte	0x8ff
 1250 05d4 02       		.byte	0x2
 1251 05d5 23       		.byte	0x23
 1252 05d6 58       		.uleb128 0x58
 1253 05d7 17       		.uleb128 0x17
 1254 05d8 47060000 		.4byte	.LASF45
 1255 05dc 06       		.byte	0x6
 1256 05dd A302     		.2byte	0x2a3
 1257 05df F9020000 		.4byte	0x2f9
 1258 05e3 03       		.byte	0x3
 1259 05e4 23       		.byte	0x23
 1260 05e5 C802     		.uleb128 0x148
 1261 05e7 17       		.uleb128 0x17
 1262 05e8 C6040000 		.4byte	.LASF86
 1263 05ec 06       		.byte	0x6
 1264 05ed A402     		.2byte	0x2a4
 1265 05ef B2020000 		.4byte	0x2b2
 1266 05f3 03       		.byte	0x3
 1267 05f4 23       		.byte	0x23
 1268 05f5 CC02     		.uleb128 0x14c
 1269 05f7 17       		.uleb128 0x17
 1270 05f8 B6030000 		.4byte	.LASF87
 1271 05fc 06       		.byte	0x6
 1272 05fd A802     		.2byte	0x2a8
 1273 05ff 61090000 		.4byte	0x961
 1274 0603 03       		.byte	0x3
 1275 0604 23       		.byte	0x23
 1276 0605 DC05     		.uleb128 0x2dc
 1277 0607 17       		.uleb128 0x17
 1278 0608 3F050000 		.4byte	.LASF88
 1279 060c 06       		.byte	0x6
 1280 060d AD02     		.2byte	0x2ad
 1281 060f C5060000 		.4byte	0x6c5
 1282 0613 03       		.byte	0x3
 1283 0614 23       		.byte	0x23
 1284 0615 E005     		.uleb128 0x2e0
 1285 0617 17       		.uleb128 0x17
ARM GAS  C:\Users\EBANO_~1\AppData\Local\Temp\ccXyQ0sk.s 			page 27


 1286 0618 23000000 		.4byte	.LASF89
 1287 061c 06       		.byte	0x6
 1288 061d AF02     		.2byte	0x2af
 1289 061f 6D090000 		.4byte	0x96d
 1290 0623 03       		.byte	0x3
 1291 0624 23       		.byte	0x23
 1292 0625 EC05     		.uleb128 0x2ec
 1293 0627 00       		.byte	0
 1294 0628 05       		.uleb128 0x5
 1295 0629 04       		.byte	0x4
 1296 062a A0040000 		.4byte	0x4a0
 1297 062e 14       		.uleb128 0x14
 1298 062f 01       		.byte	0x1
 1299 0630 29000000 		.4byte	0x29
 1300 0634 4D060000 		.4byte	0x64d
 1301 0638 15       		.uleb128 0x15
 1302 0639 BF040000 		.4byte	0x4bf
 1303 063d 15       		.uleb128 0x15
 1304 063e 3A010000 		.4byte	0x13a
 1305 0642 15       		.uleb128 0x15
 1306 0643 4D060000 		.4byte	0x64d
 1307 0647 15       		.uleb128 0x15
 1308 0648 29000000 		.4byte	0x29
 1309 064c 00       		.byte	0
 1310 064d 05       		.uleb128 0x5
 1311 064e 04       		.byte	0x4
 1312 064f 49010000 		.4byte	0x149
 1313 0653 05       		.uleb128 0x5
 1314 0654 04       		.byte	0x4
 1315 0655 2E060000 		.4byte	0x62e
 1316 0659 14       		.uleb128 0x14
 1317 065a 01       		.byte	0x1
 1318 065b B9000000 		.4byte	0xb9
 1319 065f 78060000 		.4byte	0x678
 1320 0663 15       		.uleb128 0x15
 1321 0664 BF040000 		.4byte	0x4bf
 1322 0668 15       		.uleb128 0x15
 1323 0669 3A010000 		.4byte	0x13a
 1324 066d 15       		.uleb128 0x15
 1325 066e B9000000 		.4byte	0xb9
 1326 0672 15       		.uleb128 0x15
 1327 0673 29000000 		.4byte	0x29
 1328 0677 00       		.byte	0
 1329 0678 05       		.uleb128 0x5
 1330 0679 04       		.byte	0x4
 1331 067a 59060000 		.4byte	0x659
 1332 067e 14       		.uleb128 0x14
 1333 067f 01       		.byte	0x1
 1334 0680 29000000 		.4byte	0x29
 1335 0684 93060000 		.4byte	0x693
 1336 0688 15       		.uleb128 0x15
 1337 0689 BF040000 		.4byte	0x4bf
 1338 068d 15       		.uleb128 0x15
 1339 068e 3A010000 		.4byte	0x13a
 1340 0692 00       		.byte	0
 1341 0693 05       		.uleb128 0x5
 1342 0694 04       		.byte	0x4
ARM GAS  C:\Users\EBANO_~1\AppData\Local\Temp\ccXyQ0sk.s 			page 28


 1343 0695 7E060000 		.4byte	0x67e
 1344 0699 0A       		.uleb128 0xa
 1345 069a 57000000 		.4byte	0x57
 1346 069e A9060000 		.4byte	0x6a9
 1347 06a2 0B       		.uleb128 0xb
 1348 06a3 30000000 		.4byte	0x30
 1349 06a7 02       		.byte	0x2
 1350 06a8 00       		.byte	0
 1351 06a9 0A       		.uleb128 0xa
 1352 06aa 57000000 		.4byte	0x57
 1353 06ae B9060000 		.4byte	0x6b9
 1354 06b2 0B       		.uleb128 0xb
 1355 06b3 30000000 		.4byte	0x30
 1356 06b7 00       		.byte	0
 1357 06b8 00       		.byte	0
 1358 06b9 07       		.uleb128 0x7
 1359 06ba A2070000 		.4byte	.LASF90
 1360 06be 06       		.byte	0x6
 1361 06bf 1F01     		.2byte	0x11f
 1362 06c1 46030000 		.4byte	0x346
 1363 06c5 18       		.uleb128 0x18
 1364 06c6 7F050000 		.4byte	.LASF91
 1365 06ca 0C       		.byte	0xc
 1366 06cb 06       		.byte	0x6
 1367 06cc 2301     		.2byte	0x123
 1368 06ce 00070000 		.4byte	0x700
 1369 06d2 17       		.uleb128 0x17
 1370 06d3 D0070000 		.4byte	.LASF25
 1371 06d7 06       		.byte	0x6
 1372 06d8 2501     		.2byte	0x125
 1373 06da 00070000 		.4byte	0x700
 1374 06de 02       		.byte	0x2
 1375 06df 23       		.byte	0x23
 1376 06e0 00       		.uleb128 0
 1377 06e1 17       		.uleb128 0x17
 1378 06e2 2E050000 		.4byte	.LASF92
 1379 06e6 06       		.byte	0x6
 1380 06e7 2601     		.2byte	0x126
 1381 06e9 29000000 		.4byte	0x29
 1382 06ed 02       		.byte	0x2
 1383 06ee 23       		.byte	0x23
 1384 06ef 04       		.uleb128 0x4
 1385 06f0 17       		.uleb128 0x17
 1386 06f1 79050000 		.4byte	.LASF93
 1387 06f5 06       		.byte	0x6
 1388 06f6 2701     		.2byte	0x127
 1389 06f8 06070000 		.4byte	0x706
 1390 06fc 02       		.byte	0x2
 1391 06fd 23       		.byte	0x23
 1392 06fe 08       		.uleb128 0x8
 1393 06ff 00       		.byte	0
 1394 0700 05       		.uleb128 0x5
 1395 0701 04       		.byte	0x4
 1396 0702 C5060000 		.4byte	0x6c5
 1397 0706 05       		.uleb128 0x5
 1398 0707 04       		.byte	0x4
 1399 0708 B9060000 		.4byte	0x6b9
ARM GAS  C:\Users\EBANO_~1\AppData\Local\Temp\ccXyQ0sk.s 			page 29


 1400 070c 18       		.uleb128 0x18
 1401 070d 30070000 		.4byte	.LASF94
 1402 0711 0E       		.byte	0xe
 1403 0712 06       		.byte	0x6
 1404 0713 3F01     		.2byte	0x13f
 1405 0715 47070000 		.4byte	0x747
 1406 0719 17       		.uleb128 0x17
 1407 071a 8B060000 		.4byte	.LASF95
 1408 071e 06       		.byte	0x6
 1409 071f 4001     		.2byte	0x140
 1410 0721 47070000 		.4byte	0x747
 1411 0725 02       		.byte	0x2
 1412 0726 23       		.byte	0x23
 1413 0727 00       		.uleb128 0
 1414 0728 17       		.uleb128 0x17
 1415 0729 E3000000 		.4byte	.LASF96
 1416 072d 06       		.byte	0x6
 1417 072e 4101     		.2byte	0x141
 1418 0730 47070000 		.4byte	0x747
 1419 0734 02       		.byte	0x2
 1420 0735 23       		.byte	0x23
 1421 0736 06       		.uleb128 0x6
 1422 0737 17       		.uleb128 0x17
 1423 0738 FC090000 		.4byte	.LASF97
 1424 073c 06       		.byte	0x6
 1425 073d 4201     		.2byte	0x142
 1426 073f 70000000 		.4byte	0x70
 1427 0743 02       		.byte	0x2
 1428 0744 23       		.byte	0x23
 1429 0745 0C       		.uleb128 0xc
 1430 0746 00       		.byte	0
 1431 0747 0A       		.uleb128 0xa
 1432 0748 70000000 		.4byte	0x70
 1433 074c 57070000 		.4byte	0x757
 1434 0750 0B       		.uleb128 0xb
 1435 0751 30000000 		.4byte	0x30
 1436 0755 02       		.byte	0x2
 1437 0756 00       		.byte	0
 1438 0757 19       		.uleb128 0x19
 1439 0758 D0       		.byte	0xd0
 1440 0759 06       		.byte	0x6
 1441 075a 8002     		.2byte	0x280
 1442 075c 87080000 		.4byte	0x887
 1443 0760 17       		.uleb128 0x17
 1444 0761 FF010000 		.4byte	.LASF98
 1445 0765 06       		.byte	0x6
 1446 0766 8202     		.2byte	0x282
 1447 0768 30000000 		.4byte	0x30
 1448 076c 02       		.byte	0x2
 1449 076d 23       		.byte	0x23
 1450 076e 00       		.uleb128 0
 1451 076f 17       		.uleb128 0x17
 1452 0770 7D070000 		.4byte	.LASF99
 1453 0774 06       		.byte	0x6
 1454 0775 8302     		.2byte	0x283
 1455 0777 3C010000 		.4byte	0x13c
 1456 077b 02       		.byte	0x2
ARM GAS  C:\Users\EBANO_~1\AppData\Local\Temp\ccXyQ0sk.s 			page 30


 1457 077c 23       		.byte	0x23
 1458 077d 04       		.uleb128 0x4
 1459 077e 17       		.uleb128 0x17
 1460 077f 4E000000 		.4byte	.LASF100
 1461 0783 06       		.byte	0x6
 1462 0784 8402     		.2byte	0x284
 1463 0786 87080000 		.4byte	0x887
 1464 078a 02       		.byte	0x2
 1465 078b 23       		.byte	0x23
 1466 078c 08       		.uleb128 0x8
 1467 078d 17       		.uleb128 0x17
 1468 078e 9C010000 		.4byte	.LASF101
 1469 0792 06       		.byte	0x6
 1470 0793 8502     		.2byte	0x285
 1471 0795 CE010000 		.4byte	0x1ce
 1472 0799 02       		.byte	0x2
 1473 079a 23       		.byte	0x23
 1474 079b 24       		.uleb128 0x24
 1475 079c 17       		.uleb128 0x17
 1476 079d 57050000 		.4byte	.LASF102
 1477 07a1 06       		.byte	0x6
 1478 07a2 8602     		.2byte	0x286
 1479 07a4 29000000 		.4byte	0x29
 1480 07a8 02       		.byte	0x2
 1481 07a9 23       		.byte	0x23
 1482 07aa 48       		.uleb128 0x48
 1483 07ab 17       		.uleb128 0x17
 1484 07ac 35060000 		.4byte	.LASF103
 1485 07b0 06       		.byte	0x6
 1486 07b1 8702     		.2byte	0x287
 1487 07b3 90000000 		.4byte	0x90
 1488 07b7 02       		.byte	0x2
 1489 07b8 23       		.byte	0x23
 1490 07b9 50       		.uleb128 0x50
 1491 07ba 17       		.uleb128 0x17
 1492 07bb B4070000 		.4byte	.LASF104
 1493 07bf 06       		.byte	0x6
 1494 07c0 8802     		.2byte	0x288
 1495 07c2 0C070000 		.4byte	0x70c
 1496 07c6 02       		.byte	0x2
 1497 07c7 23       		.byte	0x23
 1498 07c8 58       		.uleb128 0x58
 1499 07c9 17       		.uleb128 0x17
 1500 07ca 5D080000 		.4byte	.LASF105
 1501 07ce 06       		.byte	0x6
 1502 07cf 8902     		.2byte	0x289
 1503 07d1 24010000 		.4byte	0x124
 1504 07d5 02       		.byte	0x2
 1505 07d6 23       		.byte	0x23
 1506 07d7 68       		.uleb128 0x68
 1507 07d8 17       		.uleb128 0x17
 1508 07d9 DD060000 		.4byte	.LASF106
 1509 07dd 06       		.byte	0x6
 1510 07de 8A02     		.2byte	0x28a
 1511 07e0 24010000 		.4byte	0x124
 1512 07e4 02       		.byte	0x2
 1513 07e5 23       		.byte	0x23
ARM GAS  C:\Users\EBANO_~1\AppData\Local\Temp\ccXyQ0sk.s 			page 31


 1514 07e6 70       		.uleb128 0x70
 1515 07e7 17       		.uleb128 0x17
 1516 07e8 1E060000 		.4byte	.LASF107
 1517 07ec 06       		.byte	0x6
 1518 07ed 8B02     		.2byte	0x28b
 1519 07ef 24010000 		.4byte	0x124
 1520 07f3 02       		.byte	0x2
 1521 07f4 23       		.byte	0x23
 1522 07f5 78       		.uleb128 0x78
 1523 07f6 17       		.uleb128 0x17
 1524 07f7 A6000000 		.4byte	.LASF108
 1525 07fb 06       		.byte	0x6
 1526 07fc 8C02     		.2byte	0x28c
 1527 07fe 97080000 		.4byte	0x897
 1528 0802 03       		.byte	0x3
 1529 0803 23       		.byte	0x23
 1530 0804 8001     		.uleb128 0x80
 1531 0806 17       		.uleb128 0x17
 1532 0807 93040000 		.4byte	.LASF109
 1533 080b 06       		.byte	0x6
 1534 080c 8D02     		.2byte	0x28d
 1535 080e A7080000 		.4byte	0x8a7
 1536 0812 03       		.byte	0x3
 1537 0813 23       		.byte	0x23
 1538 0814 8801     		.uleb128 0x88
 1539 0816 17       		.uleb128 0x17
 1540 0817 830A0000 		.4byte	.LASF110
 1541 081b 06       		.byte	0x6
 1542 081c 8E02     		.2byte	0x28e
 1543 081e 29000000 		.4byte	0x29
 1544 0822 03       		.byte	0x3
 1545 0823 23       		.byte	0x23
 1546 0824 A001     		.uleb128 0xa0
 1547 0826 17       		.uleb128 0x17
 1548 0827 69010000 		.4byte	.LASF111
 1549 082b 06       		.byte	0x6
 1550 082c 8F02     		.2byte	0x28f
 1551 082e 24010000 		.4byte	0x124
 1552 0832 03       		.byte	0x3
 1553 0833 23       		.byte	0x23
 1554 0834 A401     		.uleb128 0xa4
 1555 0836 17       		.uleb128 0x17
 1556 0837 8A070000 		.4byte	.LASF112
 1557 083b 06       		.byte	0x6
 1558 083c 9002     		.2byte	0x290
 1559 083e 24010000 		.4byte	0x124
 1560 0842 03       		.byte	0x3
 1561 0843 23       		.byte	0x23
 1562 0844 AC01     		.uleb128 0xac
 1563 0846 17       		.uleb128 0x17
 1564 0847 340A0000 		.4byte	.LASF113
 1565 084b 06       		.byte	0x6
 1566 084c 9102     		.2byte	0x291
 1567 084e 24010000 		.4byte	0x124
 1568 0852 03       		.byte	0x3
 1569 0853 23       		.byte	0x23
 1570 0854 B401     		.uleb128 0xb4
ARM GAS  C:\Users\EBANO_~1\AppData\Local\Temp\ccXyQ0sk.s 			page 32


 1571 0856 17       		.uleb128 0x17
 1572 0857 DD050000 		.4byte	.LASF114
 1573 085b 06       		.byte	0x6
 1574 085c 9202     		.2byte	0x292
 1575 085e 24010000 		.4byte	0x124
 1576 0862 03       		.byte	0x3
 1577 0863 23       		.byte	0x23
 1578 0864 BC01     		.uleb128 0xbc
 1579 0866 17       		.uleb128 0x17
 1580 0867 86000000 		.4byte	.LASF115
 1581 086b 06       		.byte	0x6
 1582 086c 9302     		.2byte	0x293
 1583 086e 24010000 		.4byte	0x124
 1584 0872 03       		.byte	0x3
 1585 0873 23       		.byte	0x23
 1586 0874 C401     		.uleb128 0xc4
 1587 0876 17       		.uleb128 0x17
 1588 0877 D4050000 		.4byte	.LASF116
 1589 087b 06       		.byte	0x6
 1590 087c 9402     		.2byte	0x294
 1591 087e 29000000 		.4byte	0x29
 1592 0882 03       		.byte	0x3
 1593 0883 23       		.byte	0x23
 1594 0884 CC01     		.uleb128 0xcc
 1595 0886 00       		.byte	0
 1596 0887 0A       		.uleb128 0xa
 1597 0888 42010000 		.4byte	0x142
 1598 088c 97080000 		.4byte	0x897
 1599 0890 0B       		.uleb128 0xb
 1600 0891 30000000 		.4byte	0x30
 1601 0895 19       		.byte	0x19
 1602 0896 00       		.byte	0
 1603 0897 0A       		.uleb128 0xa
 1604 0898 42010000 		.4byte	0x142
 1605 089c A7080000 		.4byte	0x8a7
 1606 08a0 0B       		.uleb128 0xb
 1607 08a1 30000000 		.4byte	0x30
 1608 08a5 07       		.byte	0x7
 1609 08a6 00       		.byte	0
 1610 08a7 0A       		.uleb128 0xa
 1611 08a8 42010000 		.4byte	0x142
 1612 08ac B7080000 		.4byte	0x8b7
 1613 08b0 0B       		.uleb128 0xb
 1614 08b1 30000000 		.4byte	0x30
 1615 08b5 17       		.byte	0x17
 1616 08b6 00       		.byte	0
 1617 08b7 19       		.uleb128 0x19
 1618 08b8 F0       		.byte	0xf0
 1619 08b9 06       		.byte	0x6
 1620 08ba 9902     		.2byte	0x299
 1621 08bc DF080000 		.4byte	0x8df
 1622 08c0 17       		.uleb128 0x17
 1623 08c1 A9090000 		.4byte	.LASF117
 1624 08c5 06       		.byte	0x6
 1625 08c6 9C02     		.2byte	0x29c
 1626 08c8 DF080000 		.4byte	0x8df
 1627 08cc 02       		.byte	0x2
ARM GAS  C:\Users\EBANO_~1\AppData\Local\Temp\ccXyQ0sk.s 			page 33


 1628 08cd 23       		.byte	0x23
 1629 08ce 00       		.uleb128 0
 1630 08cf 17       		.uleb128 0x17
 1631 08d0 47050000 		.4byte	.LASF118
 1632 08d4 06       		.byte	0x6
 1633 08d5 9D02     		.2byte	0x29d
 1634 08d7 EF080000 		.4byte	0x8ef
 1635 08db 02       		.byte	0x2
 1636 08dc 23       		.byte	0x23
 1637 08dd 78       		.uleb128 0x78
 1638 08de 00       		.byte	0
 1639 08df 0A       		.uleb128 0xa
 1640 08e0 40030000 		.4byte	0x340
 1641 08e4 EF080000 		.4byte	0x8ef
 1642 08e8 0B       		.uleb128 0xb
 1643 08e9 30000000 		.4byte	0x30
 1644 08ed 1D       		.byte	0x1d
 1645 08ee 00       		.byte	0
 1646 08ef 0A       		.uleb128 0xa
 1647 08f0 30000000 		.4byte	0x30
 1648 08f4 FF080000 		.4byte	0x8ff
 1649 08f8 0B       		.uleb128 0xb
 1650 08f9 30000000 		.4byte	0x30
 1651 08fd 1D       		.byte	0x1d
 1652 08fe 00       		.byte	0
 1653 08ff 1A       		.uleb128 0x1a
 1654 0900 F0       		.byte	0xf0
 1655 0901 06       		.byte	0x6
 1656 0902 7E02     		.2byte	0x27e
 1657 0904 21090000 		.4byte	0x921
 1658 0908 1B       		.uleb128 0x1b
 1659 0909 79020000 		.4byte	.LASF68
 1660 090d 06       		.byte	0x6
 1661 090e 9502     		.2byte	0x295
 1662 0910 57070000 		.4byte	0x757
 1663 0914 1B       		.uleb128 0x1b
 1664 0915 79000000 		.4byte	.LASF119
 1665 0919 06       		.byte	0x6
 1666 091a 9E02     		.2byte	0x29e
 1667 091c B7080000 		.4byte	0x8b7
 1668 0920 00       		.byte	0
 1669 0921 0A       		.uleb128 0xa
 1670 0922 42010000 		.4byte	0x142
 1671 0926 31090000 		.4byte	0x931
 1672 092a 0B       		.uleb128 0xb
 1673 092b 30000000 		.4byte	0x30
 1674 092f 18       		.byte	0x18
 1675 0930 00       		.byte	0
 1676 0931 06       		.uleb128 0x6
 1677 0932 10000000 		.4byte	.LASF121
 1678 0936 01       		.byte	0x1
 1679 0937 05       		.uleb128 0x5
 1680 0938 04       		.byte	0x4
 1681 0939 31090000 		.4byte	0x931
 1682 093d 1C       		.uleb128 0x1c
 1683 093e 01       		.byte	0x1
 1684 093f 49090000 		.4byte	0x949
ARM GAS  C:\Users\EBANO_~1\AppData\Local\Temp\ccXyQ0sk.s 			page 34


 1685 0943 15       		.uleb128 0x15
 1686 0944 BF040000 		.4byte	0x4bf
 1687 0948 00       		.byte	0
 1688 0949 05       		.uleb128 0x5
 1689 094a 04       		.byte	0x4
 1690 094b 3D090000 		.4byte	0x93d
 1691 094f 05       		.uleb128 0x5
 1692 0950 04       		.byte	0x4
 1693 0951 B8010000 		.4byte	0x1b8
 1694 0955 1C       		.uleb128 0x1c
 1695 0956 01       		.byte	0x1
 1696 0957 61090000 		.4byte	0x961
 1697 095b 15       		.uleb128 0x15
 1698 095c 29000000 		.4byte	0x29
 1699 0960 00       		.byte	0
 1700 0961 05       		.uleb128 0x5
 1701 0962 04       		.byte	0x4
 1702 0963 67090000 		.4byte	0x967
 1703 0967 05       		.uleb128 0x5
 1704 0968 04       		.byte	0x4
 1705 0969 55090000 		.4byte	0x955
 1706 096d 0A       		.uleb128 0xa
 1707 096e B9060000 		.4byte	0x6b9
 1708 0972 7D090000 		.4byte	0x97d
 1709 0976 0B       		.uleb128 0xb
 1710 0977 30000000 		.4byte	0x30
 1711 097b 02       		.byte	0x2
 1712 097c 00       		.byte	0
 1713 097d 1D       		.uleb128 0x1d
 1714 097e 80010000 		.4byte	.LASF122
 1715 0982 06       		.byte	0x6
 1716 0983 2E03     		.2byte	0x32e
 1717 0985 BF040000 		.4byte	0x4bf
 1718 0989 01       		.byte	0x1
 1719 098a 01       		.byte	0x1
 1720 098b 1D       		.uleb128 0x1d
 1721 098c 80020000 		.4byte	.LASF123
 1722 0990 06       		.byte	0x6
 1723 0991 2F03     		.2byte	0x32f
 1724 0993 C5040000 		.4byte	0x4c5
 1725 0997 01       		.byte	0x1
 1726 0998 01       		.byte	0x1
 1727 0999 03       		.uleb128 0x3
 1728 099a 04       		.byte	0x4
 1729 099b 04       		.byte	0x4
 1730 099c 94050000 		.4byte	.LASF124
 1731 09a0 03       		.uleb128 0x3
 1732 09a1 08       		.byte	0x8
 1733 09a2 04       		.byte	0x4
 1734 09a3 50050000 		.4byte	.LASF125
 1735 09a7 1E       		.uleb128 0x1e
 1736 09a8 56070000 		.4byte	.LASF238
 1737 09ac 05       		.byte	0x5
 1738 09ad 01       		.byte	0x1
 1739 09ae 45000000 		.4byte	0x45
 1740 09b2 07       		.byte	0x7
 1741 09b3 8202     		.2byte	0x282
ARM GAS  C:\Users\EBANO_~1\AppData\Local\Temp\ccXyQ0sk.s 			page 35


 1742 09b5 D2090000 		.4byte	0x9d2
 1743 09b9 1F       		.uleb128 0x1f
 1744 09ba 84090000 		.4byte	.LASF126
 1745 09be 7F       		.sleb128 -1
 1746 09bf 20       		.uleb128 0x20
 1747 09c0 CF040000 		.4byte	.LASF127
 1748 09c4 00       		.byte	0
 1749 09c5 20       		.uleb128 0x20
 1750 09c6 74080000 		.4byte	.LASF128
 1751 09ca 01       		.byte	0x1
 1752 09cb 20       		.uleb128 0x20
 1753 09cc 12080000 		.4byte	.LASF129
 1754 09d0 02       		.byte	0x2
 1755 09d1 00       		.byte	0
 1756 09d2 1D       		.uleb128 0x1d
 1757 09d3 17040000 		.4byte	.LASF130
 1758 09d7 07       		.byte	0x7
 1759 09d8 8D02     		.2byte	0x28d
 1760 09da A7090000 		.4byte	0x9a7
 1761 09de 01       		.byte	0x1
 1762 09df 01       		.byte	0x1
 1763 09e0 04       		.uleb128 0x4
 1764 09e1 18020000 		.4byte	.LASF131
 1765 09e5 08       		.byte	0x8
 1766 09e6 18       		.byte	0x18
 1767 09e7 4C000000 		.4byte	0x4c
 1768 09eb 0F       		.uleb128 0xf
 1769 09ec E0090000 		.4byte	0x9e0
 1770 09f0 04       		.uleb128 0x4
 1771 09f1 02070000 		.4byte	.LASF132
 1772 09f5 08       		.byte	0x8
 1773 09f6 24       		.byte	0x24
 1774 09f7 65000000 		.4byte	0x65
 1775 09fb 04       		.uleb128 0x4
 1776 09fc C0090000 		.4byte	.LASF133
 1777 0a00 08       		.byte	0x8
 1778 0a01 30       		.byte	0x30
 1779 0a02 7E000000 		.4byte	0x7e
 1780 0a06 21       		.uleb128 0x21
 1781 0a07 FB090000 		.4byte	0x9fb
 1782 0a0b 22       		.uleb128 0x22
 1783 0a0c 05       		.byte	0x5
 1784 0a0d 01       		.byte	0x1
 1785 0a0e 45000000 		.4byte	0x45
 1786 0a12 09       		.byte	0x9
 1787 0a13 57       		.byte	0x57
 1788 0a14 EB0A0000 		.4byte	0xaeb
 1789 0a18 1F       		.uleb128 0x1f
 1790 0a19 FD030000 		.4byte	.LASF134
 1791 0a1d 72       		.sleb128 -14
 1792 0a1e 1F       		.uleb128 0x1f
 1793 0a1f C1000000 		.4byte	.LASF135
 1794 0a23 73       		.sleb128 -13
 1795 0a24 1F       		.uleb128 0x1f
 1796 0a25 63000000 		.4byte	.LASF136
 1797 0a29 7B       		.sleb128 -5
 1798 0a2a 1F       		.uleb128 0x1f
ARM GAS  C:\Users\EBANO_~1\AppData\Local\Temp\ccXyQ0sk.s 			page 36


 1799 0a2b 280A0000 		.4byte	.LASF137
 1800 0a2f 7E       		.sleb128 -2
 1801 0a30 1F       		.uleb128 0x1f
 1802 0a31 DF010000 		.4byte	.LASF138
 1803 0a35 7F       		.sleb128 -1
 1804 0a36 20       		.uleb128 0x20
 1805 0a37 27040000 		.4byte	.LASF139
 1806 0a3b 00       		.byte	0
 1807 0a3c 20       		.uleb128 0x20
 1808 0a3d B9070000 		.4byte	.LASF140
 1809 0a41 01       		.byte	0x1
 1810 0a42 20       		.uleb128 0x20
 1811 0a43 900A0000 		.4byte	.LASF141
 1812 0a47 02       		.byte	0x2
 1813 0a48 20       		.uleb128 0x20
 1814 0a49 B0000000 		.4byte	.LASF142
 1815 0a4d 03       		.byte	0x3
 1816 0a4e 20       		.uleb128 0x20
 1817 0a4f 6C000000 		.4byte	.LASF143
 1818 0a53 04       		.byte	0x4
 1819 0a54 20       		.uleb128 0x20
 1820 0a55 D6000000 		.4byte	.LASF144
 1821 0a59 05       		.byte	0x5
 1822 0a5a 20       		.uleb128 0x20
 1823 0a5b D1090000 		.4byte	.LASF145
 1824 0a5f 06       		.byte	0x6
 1825 0a60 20       		.uleb128 0x20
 1826 0a61 31020000 		.4byte	.LASF146
 1827 0a65 07       		.byte	0x7
 1828 0a66 20       		.uleb128 0x20
 1829 0a67 8B050000 		.4byte	.LASF147
 1830 0a6b 08       		.byte	0x8
 1831 0a6c 20       		.uleb128 0x20
 1832 0a6d 9A020000 		.4byte	.LASF148
 1833 0a71 09       		.byte	0x9
 1834 0a72 20       		.uleb128 0x20
 1835 0a73 F6050000 		.4byte	.LASF149
 1836 0a77 0A       		.byte	0xa
 1837 0a78 20       		.uleb128 0x20
 1838 0a79 17070000 		.4byte	.LASF150
 1839 0a7d 0B       		.byte	0xb
 1840 0a7e 20       		.uleb128 0x20
 1841 0a7f 4E080000 		.4byte	.LASF151
 1842 0a83 0C       		.byte	0xc
 1843 0a84 20       		.uleb128 0x20
 1844 0a85 B3020000 		.4byte	.LASF152
 1845 0a89 0D       		.byte	0xd
 1846 0a8a 20       		.uleb128 0x20
 1847 0a8b 76090000 		.4byte	.LASF153
 1848 0a8f 0E       		.byte	0xe
 1849 0a90 20       		.uleb128 0x20
 1850 0a91 E9000000 		.4byte	.LASF154
 1851 0a95 0F       		.byte	0xf
 1852 0a96 20       		.uleb128 0x20
 1853 0a97 38070000 		.4byte	.LASF155
 1854 0a9b 10       		.byte	0x10
 1855 0a9c 20       		.uleb128 0x20
ARM GAS  C:\Users\EBANO_~1\AppData\Local\Temp\ccXyQ0sk.s 			page 37


 1856 0a9d B7050000 		.4byte	.LASF156
 1857 0aa1 11       		.byte	0x11
 1858 0aa2 20       		.uleb128 0x20
 1859 0aa3 10050000 		.4byte	.LASF157
 1860 0aa7 12       		.byte	0x12
 1861 0aa8 20       		.uleb128 0x20
 1862 0aa9 07080000 		.4byte	.LASF158
 1863 0aad 14       		.byte	0x14
 1864 0aae 20       		.uleb128 0x20
 1865 0aaf AB010000 		.4byte	.LASF159
 1866 0ab3 15       		.byte	0x15
 1867 0ab4 20       		.uleb128 0x20
 1868 0ab5 5D0A0000 		.4byte	.LASF160
 1869 0ab9 16       		.byte	0x16
 1870 0aba 20       		.uleb128 0x20
 1871 0abb 4F060000 		.4byte	.LASF161
 1872 0abf 17       		.byte	0x17
 1873 0ac0 20       		.uleb128 0x20
 1874 0ac1 4D020000 		.4byte	.LASF162
 1875 0ac5 18       		.byte	0x18
 1876 0ac6 20       		.uleb128 0x20
 1877 0ac7 35050000 		.4byte	.LASF163
 1878 0acb 19       		.byte	0x19
 1879 0acc 20       		.uleb128 0x20
 1880 0acd 25010000 		.4byte	.LASF164
 1881 0ad1 1A       		.byte	0x1a
 1882 0ad2 20       		.uleb128 0x20
 1883 0ad3 4A070000 		.4byte	.LASF165
 1884 0ad7 1B       		.byte	0x1b
 1885 0ad8 20       		.uleb128 0x20
 1886 0ad9 6D030000 		.4byte	.LASF166
 1887 0add 1C       		.byte	0x1c
 1888 0ade 20       		.uleb128 0x20
 1889 0adf 36000000 		.4byte	.LASF167
 1890 0ae3 1D       		.byte	0x1d
 1891 0ae4 20       		.uleb128 0x20
 1892 0ae5 57020000 		.4byte	.LASF168
 1893 0ae9 1F       		.byte	0x1f
 1894 0aea 00       		.byte	0
 1895 0aeb 04       		.uleb128 0x4
 1896 0aec 82040000 		.4byte	.LASF169
 1897 0af0 09       		.byte	0x9
 1898 0af1 7E       		.byte	0x7e
 1899 0af2 0B0A0000 		.4byte	0xa0b
 1900 0af6 0A       		.uleb128 0xa
 1901 0af7 060A0000 		.4byte	0xa06
 1902 0afb 060B0000 		.4byte	0xb06
 1903 0aff 0B       		.uleb128 0xb
 1904 0b00 30000000 		.4byte	0x30
 1905 0b04 01       		.byte	0x1
 1906 0b05 00       		.byte	0
 1907 0b06 21       		.uleb128 0x21
 1908 0b07 F60A0000 		.4byte	0xaf6
 1909 0b0b 23       		.uleb128 0x23
 1910 0b0c 63040000 		.4byte	.LASF170
 1911 0b10 0A       		.byte	0xa
 1912 0b11 4A       		.byte	0x4a
ARM GAS  C:\Users\EBANO_~1\AppData\Local\Temp\ccXyQ0sk.s 			page 38


 1913 0b12 FB090000 		.4byte	0x9fb
 1914 0b16 01       		.byte	0x1
 1915 0b17 01       		.byte	0x1
 1916 0b18 0A       		.uleb128 0xa
 1917 0b19 EB090000 		.4byte	0x9eb
 1918 0b1d 280B0000 		.4byte	0xb28
 1919 0b21 0B       		.uleb128 0xb
 1920 0b22 30000000 		.4byte	0x30
 1921 0b26 0F       		.byte	0xf
 1922 0b27 00       		.byte	0
 1923 0b28 0F       		.uleb128 0xf
 1924 0b29 180B0000 		.4byte	0xb18
 1925 0b2d 23       		.uleb128 0x23
 1926 0b2e C7060000 		.4byte	.LASF171
 1927 0b32 0A       		.byte	0xa
 1928 0b33 4D       		.byte	0x4d
 1929 0b34 280B0000 		.4byte	0xb28
 1930 0b38 01       		.byte	0x1
 1931 0b39 01       		.byte	0x1
 1932 0b3a 0A       		.uleb128 0xa
 1933 0b3b EB090000 		.4byte	0x9eb
 1934 0b3f 4A0B0000 		.4byte	0xb4a
 1935 0b43 0B       		.uleb128 0xb
 1936 0b44 30000000 		.4byte	0x30
 1937 0b48 07       		.byte	0x7
 1938 0b49 00       		.byte	0
 1939 0b4a 0F       		.uleb128 0xf
 1940 0b4b 3A0B0000 		.4byte	0xb3a
 1941 0b4f 23       		.uleb128 0x23
 1942 0b50 26080000 		.4byte	.LASF172
 1943 0b54 0A       		.byte	0xa
 1944 0b55 4E       		.byte	0x4e
 1945 0b56 4A0B0000 		.4byte	0xb4a
 1946 0b5a 01       		.byte	0x1
 1947 0b5b 01       		.byte	0x1
 1948 0b5c 0A       		.uleb128 0xa
 1949 0b5d EB090000 		.4byte	0x9eb
 1950 0b61 6C0B0000 		.4byte	0xb6c
 1951 0b65 0B       		.uleb128 0xb
 1952 0b66 30000000 		.4byte	0x30
 1953 0b6a 08       		.byte	0x8
 1954 0b6b 00       		.byte	0
 1955 0b6c 0F       		.uleb128 0xf
 1956 0b6d 5C0B0000 		.4byte	0xb5c
 1957 0b71 23       		.uleb128 0x23
 1958 0b72 DA030000 		.4byte	.LASF173
 1959 0b76 0A       		.byte	0xa
 1960 0b77 4F       		.byte	0x4f
 1961 0b78 6C0B0000 		.4byte	0xb6c
 1962 0b7c 01       		.byte	0x1
 1963 0b7d 01       		.byte	0x1
 1964 0b7e 19       		.uleb128 0x19
 1965 0b7f 2C       		.byte	0x2c
 1966 0b80 09       		.byte	0x9
 1967 0b81 3F01     		.2byte	0x13f
 1968 0b83 1E0C0000 		.4byte	0xc1e
 1969 0b87 17       		.uleb128 0x17
ARM GAS  C:\Users\EBANO_~1\AppData\Local\Temp\ccXyQ0sk.s 			page 39


 1970 0b88 A4050000 		.4byte	.LASF174
 1971 0b8c 09       		.byte	0x9
 1972 0b8d 4101     		.2byte	0x141
 1973 0b8f 060A0000 		.4byte	0xa06
 1974 0b93 02       		.byte	0x2
 1975 0b94 23       		.byte	0x23
 1976 0b95 00       		.uleb128 0
 1977 0b96 17       		.uleb128 0x17
 1978 0b97 C9070000 		.4byte	.LASF175
 1979 0b9b 09       		.byte	0x9
 1980 0b9c 4201     		.2byte	0x142
 1981 0b9e 060A0000 		.4byte	0xa06
 1982 0ba2 02       		.byte	0x2
 1983 0ba3 23       		.byte	0x23
 1984 0ba4 04       		.uleb128 0x4
 1985 0ba5 17       		.uleb128 0x17
 1986 0ba6 28000000 		.4byte	.LASF176
 1987 0baa 09       		.byte	0x9
 1988 0bab 4301     		.2byte	0x143
 1989 0bad 060A0000 		.4byte	0xa06
 1990 0bb1 02       		.byte	0x2
 1991 0bb2 23       		.byte	0x23
 1992 0bb3 08       		.uleb128 0x8
 1993 0bb4 17       		.uleb128 0x17
 1994 0bb5 28050000 		.4byte	.LASF177
 1995 0bb9 09       		.byte	0x9
 1996 0bba 4401     		.2byte	0x144
 1997 0bbc 060A0000 		.4byte	0xa06
 1998 0bc0 02       		.byte	0x2
 1999 0bc1 23       		.byte	0x23
 2000 0bc2 0C       		.uleb128 0xc
 2001 0bc3 24       		.uleb128 0x24
 2002 0bc4 49445200 		.ascii	"IDR\000"
 2003 0bc8 09       		.byte	0x9
 2004 0bc9 4501     		.2byte	0x145
 2005 0bcb 060A0000 		.4byte	0xa06
 2006 0bcf 02       		.byte	0x2
 2007 0bd0 23       		.byte	0x23
 2008 0bd1 10       		.uleb128 0x10
 2009 0bd2 24       		.uleb128 0x24
 2010 0bd3 4F445200 		.ascii	"ODR\000"
 2011 0bd7 09       		.byte	0x9
 2012 0bd8 4601     		.2byte	0x146
 2013 0bda 060A0000 		.4byte	0xa06
 2014 0bde 02       		.byte	0x2
 2015 0bdf 23       		.byte	0x23
 2016 0be0 14       		.uleb128 0x14
 2017 0be1 17       		.uleb128 0x17
 2018 0be2 51090000 		.4byte	.LASF178
 2019 0be6 09       		.byte	0x9
 2020 0be7 4701     		.2byte	0x147
 2021 0be9 060A0000 		.4byte	0xa06
 2022 0bed 02       		.byte	0x2
 2023 0bee 23       		.byte	0x23
 2024 0bef 18       		.uleb128 0x18
 2025 0bf0 17       		.uleb128 0x17
 2026 0bf1 9F040000 		.4byte	.LASF179
ARM GAS  C:\Users\EBANO_~1\AppData\Local\Temp\ccXyQ0sk.s 			page 40


 2027 0bf5 09       		.byte	0x9
 2028 0bf6 4801     		.2byte	0x148
 2029 0bf8 060A0000 		.4byte	0xa06
 2030 0bfc 02       		.byte	0x2
 2031 0bfd 23       		.byte	0x23
 2032 0bfe 1C       		.uleb128 0x1c
 2033 0bff 24       		.uleb128 0x24
 2034 0c00 41465200 		.ascii	"AFR\000"
 2035 0c04 09       		.byte	0x9
 2036 0c05 4901     		.2byte	0x149
 2037 0c07 060B0000 		.4byte	0xb06
 2038 0c0b 02       		.byte	0x2
 2039 0c0c 23       		.byte	0x23
 2040 0c0d 20       		.uleb128 0x20
 2041 0c0e 24       		.uleb128 0x24
 2042 0c0f 42525200 		.ascii	"BRR\000"
 2043 0c13 09       		.byte	0x9
 2044 0c14 4A01     		.2byte	0x14a
 2045 0c16 060A0000 		.4byte	0xa06
 2046 0c1a 02       		.byte	0x2
 2047 0c1b 23       		.byte	0x23
 2048 0c1c 28       		.uleb128 0x28
 2049 0c1d 00       		.byte	0
 2050 0c1e 07       		.uleb128 0x7
 2051 0c1f 56090000 		.4byte	.LASF180
 2052 0c23 09       		.byte	0x9
 2053 0c24 4B01     		.2byte	0x14b
 2054 0c26 7E0B0000 		.4byte	0xb7e
 2055 0c2a 19       		.uleb128 0x19
 2056 0c2b 54       		.byte	0x54
 2057 0c2c 09       		.byte	0x9
 2058 0c2d A801     		.2byte	0x1a8
 2059 0c2f 6E0D0000 		.4byte	0xd6e
 2060 0c33 24       		.uleb128 0x24
 2061 0c34 435200   		.ascii	"CR\000"
 2062 0c37 09       		.byte	0x9
 2063 0c38 AA01     		.2byte	0x1aa
 2064 0c3a 060A0000 		.4byte	0xa06
 2065 0c3e 02       		.byte	0x2
 2066 0c3f 23       		.byte	0x23
 2067 0c40 00       		.uleb128 0
 2068 0c41 17       		.uleb128 0x17
 2069 0c42 BB000000 		.4byte	.LASF181
 2070 0c46 09       		.byte	0x9
 2071 0c47 AB01     		.2byte	0x1ab
 2072 0c49 060A0000 		.4byte	0xa06
 2073 0c4d 02       		.byte	0x2
 2074 0c4e 23       		.byte	0x23
 2075 0c4f 04       		.uleb128 0x4
 2076 0c50 17       		.uleb128 0x17
 2077 0c51 A9030000 		.4byte	.LASF182
 2078 0c55 09       		.byte	0x9
 2079 0c56 AC01     		.2byte	0x1ac
 2080 0c58 060A0000 		.4byte	0xa06
 2081 0c5c 02       		.byte	0x2
 2082 0c5d 23       		.byte	0x23
 2083 0c5e 08       		.uleb128 0x8
ARM GAS  C:\Users\EBANO_~1\AppData\Local\Temp\ccXyQ0sk.s 			page 41


 2084 0c5f 17       		.uleb128 0x17
 2085 0c60 C0030000 		.4byte	.LASF183
 2086 0c64 09       		.byte	0x9
 2087 0c65 AD01     		.2byte	0x1ad
 2088 0c67 060A0000 		.4byte	0xa06
 2089 0c6b 02       		.byte	0x2
 2090 0c6c 23       		.byte	0x23
 2091 0c6d 0C       		.uleb128 0xc
 2092 0c6e 17       		.uleb128 0x17
 2093 0c6f F0090000 		.4byte	.LASF184
 2094 0c73 09       		.byte	0x9
 2095 0c74 AE01     		.2byte	0x1ae
 2096 0c76 060A0000 		.4byte	0xa06
 2097 0c7a 02       		.byte	0x2
 2098 0c7b 23       		.byte	0x23
 2099 0c7c 10       		.uleb128 0x10
 2100 0c7d 17       		.uleb128 0x17
 2101 0c7e 450A0000 		.4byte	.LASF185
 2102 0c82 09       		.byte	0x9
 2103 0c83 AF01     		.2byte	0x1af
 2104 0c85 060A0000 		.4byte	0xa06
 2105 0c89 02       		.byte	0x2
 2106 0c8a 23       		.byte	0x23
 2107 0c8b 14       		.uleb128 0x14
 2108 0c8c 17       		.uleb128 0x17
 2109 0c8d 4C090000 		.4byte	.LASF186
 2110 0c91 09       		.byte	0x9
 2111 0c92 B001     		.2byte	0x1b0
 2112 0c94 060A0000 		.4byte	0xa06
 2113 0c98 02       		.byte	0x2
 2114 0c99 23       		.byte	0x23
 2115 0c9a 18       		.uleb128 0x18
 2116 0c9b 17       		.uleb128 0x17
 2117 0c9c 720A0000 		.4byte	.LASF187
 2118 0ca0 09       		.byte	0x9
 2119 0ca1 B101     		.2byte	0x1b1
 2120 0ca3 060A0000 		.4byte	0xa06
 2121 0ca7 02       		.byte	0x2
 2122 0ca8 23       		.byte	0x23
 2123 0ca9 1C       		.uleb128 0x1c
 2124 0caa 17       		.uleb128 0x17
 2125 0cab B4040000 		.4byte	.LASF188
 2126 0caf 09       		.byte	0x9
 2127 0cb0 B201     		.2byte	0x1b2
 2128 0cb2 060A0000 		.4byte	0xa06
 2129 0cb6 02       		.byte	0x2
 2130 0cb7 23       		.byte	0x23
 2131 0cb8 20       		.uleb128 0x20
 2132 0cb9 17       		.uleb128 0x17
 2133 0cba 66050000 		.4byte	.LASF189
 2134 0cbe 09       		.byte	0x9
 2135 0cbf B301     		.2byte	0x1b3
 2136 0cc1 060A0000 		.4byte	0xa06
 2137 0cc5 02       		.byte	0x2
 2138 0cc6 23       		.byte	0x23
 2139 0cc7 24       		.uleb128 0x24
 2140 0cc8 17       		.uleb128 0x17
ARM GAS  C:\Users\EBANO_~1\AppData\Local\Temp\ccXyQ0sk.s 			page 42


 2141 0cc9 BE060000 		.4byte	.LASF190
 2142 0ccd 09       		.byte	0x9
 2143 0cce B401     		.2byte	0x1b4
 2144 0cd0 060A0000 		.4byte	0xa06
 2145 0cd4 02       		.byte	0x2
 2146 0cd5 23       		.byte	0x23
 2147 0cd6 28       		.uleb128 0x28
 2148 0cd7 17       		.uleb128 0x17
 2149 0cd8 76070000 		.4byte	.LASF191
 2150 0cdc 09       		.byte	0x9
 2151 0cdd B501     		.2byte	0x1b5
 2152 0cdf 060A0000 		.4byte	0xa06
 2153 0ce3 02       		.byte	0x2
 2154 0ce4 23       		.byte	0x23
 2155 0ce5 2C       		.uleb128 0x2c
 2156 0ce6 17       		.uleb128 0x17
 2157 0ce7 45090000 		.4byte	.LASF192
 2158 0ceb 09       		.byte	0x9
 2159 0cec B601     		.2byte	0x1b6
 2160 0cee 060A0000 		.4byte	0xa06
 2161 0cf2 02       		.byte	0x2
 2162 0cf3 23       		.byte	0x23
 2163 0cf4 30       		.uleb128 0x30
 2164 0cf5 17       		.uleb128 0x17
 2165 0cf6 CC010000 		.4byte	.LASF193
 2166 0cfa 09       		.byte	0x9
 2167 0cfb B701     		.2byte	0x1b7
 2168 0cfd 060A0000 		.4byte	0xa06
 2169 0d01 02       		.byte	0x2
 2170 0d02 23       		.byte	0x23
 2171 0d03 34       		.uleb128 0x34
 2172 0d04 17       		.uleb128 0x17
 2173 0d05 D5060000 		.4byte	.LASF194
 2174 0d09 09       		.byte	0x9
 2175 0d0a B801     		.2byte	0x1b8
 2176 0d0c 060A0000 		.4byte	0xa06
 2177 0d10 02       		.byte	0x2
 2178 0d11 23       		.byte	0x23
 2179 0d12 38       		.uleb128 0x38
 2180 0d13 17       		.uleb128 0x17
 2181 0d14 60010000 		.4byte	.LASF195
 2182 0d18 09       		.byte	0x9
 2183 0d19 B901     		.2byte	0x1b9
 2184 0d1b 060A0000 		.4byte	0xa06
 2185 0d1f 02       		.byte	0x2
 2186 0d20 23       		.byte	0x23
 2187 0d21 3C       		.uleb128 0x3c
 2188 0d22 17       		.uleb128 0x17
 2189 0d23 57010000 		.4byte	.LASF196
 2190 0d27 09       		.byte	0x9
 2191 0d28 BA01     		.2byte	0x1ba
 2192 0d2a 060A0000 		.4byte	0xa06
 2193 0d2e 02       		.byte	0x2
 2194 0d2f 23       		.byte	0x23
 2195 0d30 40       		.uleb128 0x40
 2196 0d31 17       		.uleb128 0x17
 2197 0d32 1E0A0000 		.4byte	.LASF197
ARM GAS  C:\Users\EBANO_~1\AppData\Local\Temp\ccXyQ0sk.s 			page 43


 2198 0d36 09       		.byte	0x9
 2199 0d37 BB01     		.2byte	0x1bb
 2200 0d39 060A0000 		.4byte	0xa06
 2201 0d3d 02       		.byte	0x2
 2202 0d3e 23       		.byte	0x23
 2203 0d3f 44       		.uleb128 0x44
 2204 0d40 17       		.uleb128 0x17
 2205 0d41 06000000 		.4byte	.LASF198
 2206 0d45 09       		.byte	0x9
 2207 0d46 BC01     		.2byte	0x1bc
 2208 0d48 060A0000 		.4byte	0xa06
 2209 0d4c 02       		.byte	0x2
 2210 0d4d 23       		.byte	0x23
 2211 0d4e 48       		.uleb128 0x48
 2212 0d4f 17       		.uleb128 0x17
 2213 0d50 11040000 		.4byte	.LASF199
 2214 0d54 09       		.byte	0x9
 2215 0d55 BD01     		.2byte	0x1bd
 2216 0d57 060A0000 		.4byte	0xa06
 2217 0d5b 02       		.byte	0x2
 2218 0d5c 23       		.byte	0x23
 2219 0d5d 4C       		.uleb128 0x4c
 2220 0d5e 24       		.uleb128 0x24
 2221 0d5f 43535200 		.ascii	"CSR\000"
 2222 0d63 09       		.byte	0x9
 2223 0d64 BE01     		.2byte	0x1be
 2224 0d66 060A0000 		.4byte	0xa06
 2225 0d6a 02       		.byte	0x2
 2226 0d6b 23       		.byte	0x23
 2227 0d6c 50       		.uleb128 0x50
 2228 0d6d 00       		.byte	0
 2229 0d6e 07       		.uleb128 0x7
 2230 0d6f 42080000 		.4byte	.LASF200
 2231 0d73 09       		.byte	0x9
 2232 0d74 BF01     		.2byte	0x1bf
 2233 0d76 2A0C0000 		.4byte	0xc2a
 2234 0d7a 0C       		.uleb128 0xc
 2235 0d7b 14       		.byte	0x14
 2236 0d7c 0B       		.byte	0xb
 2237 0d7d 44       		.byte	0x44
 2238 0d7e C90D0000 		.4byte	0xdc9
 2239 0d82 11       		.uleb128 0x11
 2240 0d83 50696E00 		.ascii	"Pin\000"
 2241 0d87 0B       		.byte	0xb
 2242 0d88 46       		.byte	0x46
 2243 0d89 FB090000 		.4byte	0x9fb
 2244 0d8d 02       		.byte	0x2
 2245 0d8e 23       		.byte	0x23
 2246 0d8f 00       		.uleb128 0
 2247 0d90 0D       		.uleb128 0xd
 2248 0d91 86060000 		.4byte	.LASF201
 2249 0d95 0B       		.byte	0xb
 2250 0d96 49       		.byte	0x49
 2251 0d97 FB090000 		.4byte	0x9fb
 2252 0d9b 02       		.byte	0x2
 2253 0d9c 23       		.byte	0x23
 2254 0d9d 04       		.uleb128 0x4
ARM GAS  C:\Users\EBANO_~1\AppData\Local\Temp\ccXyQ0sk.s 			page 44


 2255 0d9e 0D       		.uleb128 0xd
 2256 0d9f 81060000 		.4byte	.LASF202
 2257 0da3 0B       		.byte	0xb
 2258 0da4 4C       		.byte	0x4c
 2259 0da5 FB090000 		.4byte	0x9fb
 2260 0da9 02       		.byte	0x2
 2261 0daa 23       		.byte	0x23
 2262 0dab 08       		.uleb128 0x8
 2263 0dac 0D       		.uleb128 0xd
 2264 0dad 00000000 		.4byte	.LASF203
 2265 0db1 0B       		.byte	0xb
 2266 0db2 4F       		.byte	0x4f
 2267 0db3 FB090000 		.4byte	0x9fb
 2268 0db7 02       		.byte	0x2
 2269 0db8 23       		.byte	0x23
 2270 0db9 0C       		.uleb128 0xc
 2271 0dba 0D       		.uleb128 0xd
 2272 0dbb 9A050000 		.4byte	.LASF204
 2273 0dbf 0B       		.byte	0xb
 2274 0dc0 52       		.byte	0x52
 2275 0dc1 FB090000 		.4byte	0x9fb
 2276 0dc5 02       		.byte	0x2
 2277 0dc6 23       		.byte	0x23
 2278 0dc7 10       		.uleb128 0x10
 2279 0dc8 00       		.byte	0
 2280 0dc9 04       		.uleb128 0x4
 2281 0dca 20020000 		.4byte	.LASF205
 2282 0dce 0B       		.byte	0xb
 2283 0dcf 54       		.byte	0x54
 2284 0dd0 7A0D0000 		.4byte	0xd7a
 2285 0dd4 22       		.uleb128 0x22
 2286 0dd5 07       		.byte	0x7
 2287 0dd6 01       		.byte	0x1
 2288 0dd7 57000000 		.4byte	0x57
 2289 0ddb 0B       		.byte	0xb
 2290 0ddc 60       		.byte	0x60
 2291 0ddd EE0D0000 		.4byte	0xdee
 2292 0de1 20       		.uleb128 0x20
 2293 0de2 73040000 		.4byte	.LASF206
 2294 0de6 00       		.byte	0
 2295 0de7 20       		.uleb128 0x20
 2296 0de8 4A010000 		.4byte	.LASF207
 2297 0dec 01       		.byte	0x1
 2298 0ded 00       		.byte	0
 2299 0dee 04       		.uleb128 0x4
 2300 0def B5010000 		.4byte	.LASF208
 2301 0df3 0B       		.byte	0xb
 2302 0df4 63       		.byte	0x63
 2303 0df5 D40D0000 		.4byte	0xdd4
 2304 0df9 23       		.uleb128 0x23
 2305 0dfa 1B090000 		.4byte	.LASF209
 2306 0dfe 0C       		.byte	0xc
 2307 0dff 63       		.byte	0x63
 2308 0e00 3C010000 		.4byte	0x13c
 2309 0e04 01       		.byte	0x1
 2310 0e05 01       		.byte	0x1
 2311 0e06 04       		.uleb128 0x4
ARM GAS  C:\Users\EBANO_~1\AppData\Local\Temp\ccXyQ0sk.s 			page 45


 2312 0e07 EE030000 		.4byte	.LASF210
 2313 0e0b 0D       		.byte	0xd
 2314 0e0c 2E       		.byte	0x2e
 2315 0e0d 110E0000 		.4byte	0xe11
 2316 0e11 1C       		.uleb128 0x1c
 2317 0e12 01       		.byte	0x1
 2318 0e13 1D0E0000 		.4byte	0xe1d
 2319 0e17 15       		.uleb128 0x15
 2320 0e18 3A010000 		.4byte	0x13a
 2321 0e1c 00       		.byte	0
 2322 0e1d 23       		.uleb128 0x23
 2323 0e1e 63030000 		.4byte	.LASF211
 2324 0e22 0E       		.byte	0xe
 2325 0e23 9A       		.byte	0x9a
 2326 0e24 77000000 		.4byte	0x77
 2327 0e28 01       		.byte	0x1
 2328 0e29 01       		.byte	0x1
 2329 0e2a 23       		.uleb128 0x23
 2330 0e2b 680A0000 		.4byte	.LASF212
 2331 0e2f 0E       		.byte	0xe
 2332 0e30 9B       		.byte	0x9b
 2333 0e31 29000000 		.4byte	0x29
 2334 0e35 01       		.byte	0x1
 2335 0e36 01       		.byte	0x1
 2336 0e37 0A       		.uleb128 0xa
 2337 0e38 3C010000 		.4byte	0x13c
 2338 0e3c 470E0000 		.4byte	0xe47
 2339 0e40 0B       		.uleb128 0xb
 2340 0e41 30000000 		.4byte	0x30
 2341 0e45 01       		.byte	0x1
 2342 0e46 00       		.byte	0
 2343 0e47 23       		.uleb128 0x23
 2344 0e48 94030000 		.4byte	.LASF213
 2345 0e4c 0E       		.byte	0xe
 2346 0e4d 9E       		.byte	0x9e
 2347 0e4e 370E0000 		.4byte	0xe37
 2348 0e52 01       		.byte	0x1
 2349 0e53 01       		.byte	0x1
 2350 0e54 0A       		.uleb128 0xa
 2351 0e55 640E0000 		.4byte	0xe64
 2352 0e59 640E0000 		.4byte	0xe64
 2353 0e5d 0B       		.uleb128 0xb
 2354 0e5e 30000000 		.4byte	0x30
 2355 0e62 0F       		.byte	0xf
 2356 0e63 00       		.byte	0
 2357 0e64 05       		.uleb128 0x5
 2358 0e65 04       		.byte	0x4
 2359 0e66 060E0000 		.4byte	0xe06
 2360 0e6a 25       		.uleb128 0x25
 2361 0e6b F6070000 		.4byte	.LASF219
 2362 0e6f 01       		.byte	0x1
 2363 0e70 29       		.byte	0x29
 2364 0e71 540E0000 		.4byte	0xe54
 2365 0e75 05       		.byte	0x5
 2366 0e76 03       		.byte	0x3
 2367 0e77 00000000 		.4byte	GpioIrq
 2368 0e7b 26       		.uleb128 0x26
ARM GAS  C:\Users\EBANO_~1\AppData\Local\Temp\ccXyQ0sk.s 			page 46


 2369 0e7c 9D060000 		.4byte	.LASF239
 2370 0e80 01       		.byte	0x1
 2371 0e81 9C       		.byte	0x9c
 2372 0e82 01       		.byte	0x1
 2373 0e83 E0090000 		.4byte	0x9e0
 2374 0e87 01       		.byte	0x1
 2375 0e88 A30E0000 		.4byte	0xea3
 2376 0e8c 27       		.uleb128 0x27
 2377 0e8d FE070000 		.4byte	.LASF215
 2378 0e91 01       		.byte	0x1
 2379 0e92 9C       		.byte	0x9c
 2380 0e93 F0090000 		.4byte	0x9f0
 2381 0e97 28       		.uleb128 0x28
 2382 0e98 35010000 		.4byte	.LASF240
 2383 0e9c 01       		.byte	0x1
 2384 0e9d 9E       		.byte	0x9e
 2385 0e9e E0090000 		.4byte	0x9e0
 2386 0ea2 00       		.byte	0
 2387 0ea3 29       		.uleb128 0x29
 2388 0ea4 01       		.byte	0x1
 2389 0ea5 2E090000 		.4byte	.LASF241
 2390 0ea9 01       		.byte	0x1
 2391 0eaa 8E       		.byte	0x8e
 2392 0eab 01       		.byte	0x1
 2393 0eac FB090000 		.4byte	0x9fb
 2394 0eb0 00000000 		.4byte	.LFB43
 2395 0eb4 08000000 		.4byte	.LFE43
 2396 0eb8 00000000 		.4byte	.LLST21
 2397 0ebc 01       		.byte	0x1
 2398 0ebd F10E0000 		.4byte	0xef1
 2399 0ec1 2A       		.uleb128 0x2a
 2400 0ec2 79030000 		.4byte	.LASF214
 2401 0ec6 01       		.byte	0x1
 2402 0ec7 8E       		.byte	0x8e
 2403 0ec8 F10E0000 		.4byte	0xef1
 2404 0ecc 20000000 		.4byte	.LLST22
 2405 0ed0 2A       		.uleb128 0x2a
 2406 0ed1 FE070000 		.4byte	.LASF215
 2407 0ed5 01       		.byte	0x1
 2408 0ed6 8E       		.byte	0x8e
 2409 0ed7 F0090000 		.4byte	0x9f0
 2410 0edb 41000000 		.4byte	.LLST23
 2411 0edf 2B       		.uleb128 0x2b
 2412 0ee0 06000000 		.4byte	.LVL36
 2413 0ee4 89110000 		.4byte	0x1189
 2414 0ee8 2C       		.uleb128 0x2c
 2415 0ee9 01       		.byte	0x1
 2416 0eea 50       		.byte	0x50
 2417 0eeb 03       		.byte	0x3
 2418 0eec F3       		.byte	0xf3
 2419 0eed 01       		.uleb128 0x1
 2420 0eee 50       		.byte	0x50
 2421 0eef 00       		.byte	0
 2422 0ef0 00       		.byte	0
 2423 0ef1 05       		.uleb128 0x5
 2424 0ef2 04       		.byte	0x4
 2425 0ef3 1E0C0000 		.4byte	0xc1e
ARM GAS  C:\Users\EBANO_~1\AppData\Local\Temp\ccXyQ0sk.s 			page 47


 2426 0ef7 2D       		.uleb128 0x2d
 2427 0ef8 01       		.byte	0x1
 2428 0ef9 D0020000 		.4byte	.LASF217
 2429 0efd 01       		.byte	0x1
 2430 0efe 80       		.byte	0x80
 2431 0eff 01       		.byte	0x1
 2432 0f00 00000000 		.4byte	.LFB42
 2433 0f04 0A000000 		.4byte	.LFE42
 2434 0f08 62000000 		.4byte	.LLST17
 2435 0f0c 01       		.byte	0x1
 2436 0f0d 570F0000 		.4byte	0xf57
 2437 0f11 2A       		.uleb128 0x2a
 2438 0f12 79030000 		.4byte	.LASF214
 2439 0f16 01       		.byte	0x1
 2440 0f17 80       		.byte	0x80
 2441 0f18 F10E0000 		.4byte	0xef1
 2442 0f1c 82000000 		.4byte	.LLST18
 2443 0f20 2A       		.uleb128 0x2a
 2444 0f21 FE070000 		.4byte	.LASF215
 2445 0f25 01       		.byte	0x1
 2446 0f26 80       		.byte	0x80
 2447 0f27 F0090000 		.4byte	0x9f0
 2448 0f2b A3000000 		.4byte	.LLST19
 2449 0f2f 2A       		.uleb128 0x2a
 2450 0f30 AD020000 		.4byte	.LASF216
 2451 0f34 01       		.byte	0x1
 2452 0f35 80       		.byte	0x80
 2453 0f36 FB090000 		.4byte	0x9fb
 2454 0f3a C4000000 		.4byte	.LLST20
 2455 0f3e 2B       		.uleb128 0x2b
 2456 0f3f 08000000 		.4byte	.LVL34
 2457 0f43 97110000 		.4byte	0x1197
 2458 0f47 2C       		.uleb128 0x2c
 2459 0f48 01       		.byte	0x1
 2460 0f49 50       		.byte	0x50
 2461 0f4a 03       		.byte	0x3
 2462 0f4b F3       		.byte	0xf3
 2463 0f4c 01       		.uleb128 0x1
 2464 0f4d 50       		.byte	0x50
 2465 0f4e 2C       		.uleb128 0x2c
 2466 0f4f 01       		.byte	0x1
 2467 0f50 52       		.byte	0x52
 2468 0f51 03       		.byte	0x3
 2469 0f52 F3       		.byte	0xf3
 2470 0f53 01       		.uleb128 0x1
 2471 0f54 52       		.byte	0x52
 2472 0f55 00       		.byte	0
 2473 0f56 00       		.byte	0
 2474 0f57 2D       		.uleb128 0x2d
 2475 0f58 01       		.byte	0x1
 2476 0f59 EC010000 		.4byte	.LASF218
 2477 0f5d 01       		.byte	0x1
 2478 0f5e 6D       		.byte	0x6d
 2479 0f5f 01       		.byte	0x1
 2480 0f60 00000000 		.4byte	.LFB41
 2481 0f64 54000000 		.4byte	.LFE41
 2482 0f68 E5000000 		.4byte	.LLST12
ARM GAS  C:\Users\EBANO_~1\AppData\Local\Temp\ccXyQ0sk.s 			page 48


 2483 0f6c 01       		.byte	0x1
 2484 0f6d C70F0000 		.4byte	0xfc7
 2485 0f71 2A       		.uleb128 0x2a
 2486 0f72 FE070000 		.4byte	.LASF215
 2487 0f76 01       		.byte	0x1
 2488 0f77 6D       		.byte	0x6d
 2489 0f78 F0090000 		.4byte	0x9f0
 2490 0f7c 05010000 		.4byte	.LLST13
 2491 0f80 2E       		.uleb128 0x2e
 2492 0f81 93020000 		.4byte	.LASF220
 2493 0f85 01       		.byte	0x1
 2494 0f86 6F       		.byte	0x6f
 2495 0f87 FB090000 		.4byte	0x9fb
 2496 0f8b 26010000 		.4byte	.LLST14
 2497 0f8f 2F       		.uleb128 0x2f
 2498 0f90 7B0E0000 		.4byte	0xe7b
 2499 0f94 00000000 		.4byte	.LBB15
 2500 0f98 18000000 		.4byte	.Ldebug_ranges0+0x18
 2501 0f9c 01       		.byte	0x1
 2502 0f9d 6F       		.byte	0x6f
 2503 0f9e BB0F0000 		.4byte	0xfbb
 2504 0fa2 30       		.uleb128 0x30
 2505 0fa3 8C0E0000 		.4byte	0xe8c
 2506 0fa7 3E010000 		.4byte	.LLST15
 2507 0fab 31       		.uleb128 0x31
 2508 0fac 18000000 		.4byte	.Ldebug_ranges0+0x18
 2509 0fb0 32       		.uleb128 0x32
 2510 0fb1 970E0000 		.4byte	0xe97
 2511 0fb5 51010000 		.4byte	.LLST16
 2512 0fb9 00       		.byte	0
 2513 0fba 00       		.byte	0
 2514 0fbb 33       		.uleb128 0x33
 2515 0fbc 42000000 		.4byte	.LVL31
 2516 0fc0 2C       		.uleb128 0x2c
 2517 0fc1 01       		.byte	0x1
 2518 0fc2 50       		.byte	0x50
 2519 0fc3 01       		.byte	0x1
 2520 0fc4 30       		.byte	0x30
 2521 0fc5 00       		.byte	0
 2522 0fc6 00       		.byte	0
 2523 0fc7 2D       		.uleb128 0x2d
 2524 0fc8 01       		.byte	0x1
 2525 0fc9 C5050000 		.4byte	.LASF221
 2526 0fcd 01       		.byte	0x1
 2527 0fce 4F       		.byte	0x4f
 2528 0fcf 01       		.byte	0x1
 2529 0fd0 00000000 		.4byte	.LFB40
 2530 0fd4 70000000 		.4byte	.LFE40
 2531 0fd8 7B010000 		.4byte	.LLST4
 2532 0fdc 01       		.byte	0x1
 2533 0fdd 9E100000 		.4byte	0x109e
 2534 0fe1 2A       		.uleb128 0x2a
 2535 0fe2 79030000 		.4byte	.LASF214
 2536 0fe6 01       		.byte	0x1
 2537 0fe7 4F       		.byte	0x4f
 2538 0fe8 F10E0000 		.4byte	0xef1
 2539 0fec 9B010000 		.4byte	.LLST5
ARM GAS  C:\Users\EBANO_~1\AppData\Local\Temp\ccXyQ0sk.s 			page 49


 2540 0ff0 2A       		.uleb128 0x2a
 2541 0ff1 FE070000 		.4byte	.LASF215
 2542 0ff5 01       		.byte	0x1
 2543 0ff6 4F       		.byte	0x4f
 2544 0ff7 F0090000 		.4byte	0x9f0
 2545 0ffb BC010000 		.4byte	.LLST6
 2546 0fff 2A       		.uleb128 0x2a
 2547 1000 FF000000 		.4byte	.LASF222
 2548 1004 01       		.byte	0x1
 2549 1005 4F       		.byte	0x4f
 2550 1006 FB090000 		.4byte	0x9fb
 2551 100a F6010000 		.4byte	.LLST7
 2552 100e 2A       		.uleb128 0x2a
 2553 100f 990A0000 		.4byte	.LASF223
 2554 1013 01       		.byte	0x1
 2555 1014 4F       		.byte	0x4f
 2556 1015 640E0000 		.4byte	0xe64
 2557 1019 2D020000 		.4byte	.LLST8
 2558 101d 25       		.uleb128 0x25
 2559 101e 91060000 		.4byte	.LASF224
 2560 1022 01       		.byte	0x1
 2561 1023 51       		.byte	0x51
 2562 1024 EB0A0000 		.4byte	0xaeb
 2563 1028 01       		.byte	0x1
 2564 1029 55       		.byte	0x55
 2565 102a 2E       		.uleb128 0x2e
 2566 102b 93020000 		.4byte	.LASF220
 2567 102f 01       		.byte	0x1
 2568 1030 53       		.byte	0x53
 2569 1031 FB090000 		.4byte	0x9fb
 2570 1035 67020000 		.4byte	.LLST9
 2571 1039 2F       		.uleb128 0x2f
 2572 103a 7B0E0000 		.4byte	0xe7b
 2573 103e 02000000 		.4byte	.LBB11
 2574 1042 00000000 		.4byte	.Ldebug_ranges0+0
 2575 1046 01       		.byte	0x1
 2576 1047 53       		.byte	0x53
 2577 1048 65100000 		.4byte	0x1065
 2578 104c 30       		.uleb128 0x30
 2579 104d 8C0E0000 		.4byte	0xe8c
 2580 1051 7A020000 		.4byte	.LLST10
 2581 1055 31       		.uleb128 0x31
 2582 1056 00000000 		.4byte	.Ldebug_ranges0+0
 2583 105a 32       		.uleb128 0x32
 2584 105b 970E0000 		.4byte	0xe97
 2585 105f 8D020000 		.4byte	.LLST11
 2586 1063 00       		.byte	0
 2587 1064 00       		.byte	0
 2588 1065 34       		.uleb128 0x34
 2589 1066 4C000000 		.4byte	.LVL18
 2590 106a A5110000 		.4byte	0x11a5
 2591 106e 35       		.uleb128 0x35
 2592 106f 56000000 		.4byte	.LVL20
 2593 1073 B2110000 		.4byte	0x11b2
 2594 1077 8D100000 		.4byte	0x108d
 2595 107b 2C       		.uleb128 0x2c
 2596 107c 01       		.byte	0x1
ARM GAS  C:\Users\EBANO_~1\AppData\Local\Temp\ccXyQ0sk.s 			page 50


 2597 107d 50       		.byte	0x50
 2598 107e 02       		.byte	0x2
 2599 107f 75       		.byte	0x75
 2600 1080 00       		.sleb128 0
 2601 1081 2C       		.uleb128 0x2c
 2602 1082 01       		.byte	0x1
 2603 1083 51       		.byte	0x51
 2604 1084 02       		.byte	0x2
 2605 1085 74       		.byte	0x74
 2606 1086 00       		.sleb128 0
 2607 1087 2C       		.uleb128 0x2c
 2608 1088 01       		.byte	0x1
 2609 1089 52       		.byte	0x52
 2610 108a 01       		.byte	0x1
 2611 108b 30       		.byte	0x30
 2612 108c 00       		.byte	0
 2613 108d 2B       		.uleb128 0x2b
 2614 108e 5C000000 		.4byte	.LVL21
 2615 1092 C0110000 		.4byte	0x11c0
 2616 1096 2C       		.uleb128 0x2c
 2617 1097 01       		.byte	0x1
 2618 1098 50       		.byte	0x50
 2619 1099 02       		.byte	0x2
 2620 109a 75       		.byte	0x75
 2621 109b 00       		.sleb128 0
 2622 109c 00       		.byte	0
 2623 109d 00       		.byte	0
 2624 109e 2D       		.uleb128 0x2d
 2625 109f 01       		.byte	0x1
 2626 10a0 CD030000 		.4byte	.LASF225
 2627 10a4 01       		.byte	0x1
 2628 10a5 3A       		.byte	0x3a
 2629 10a6 01       		.byte	0x1
 2630 10a7 00000000 		.4byte	.LFB39
 2631 10ab A0000000 		.4byte	.LFE39
 2632 10af B7020000 		.4byte	.LLST0
 2633 10b3 01       		.byte	0x1
 2634 10b4 83110000 		.4byte	0x1183
 2635 10b8 2A       		.uleb128 0x2a
 2636 10b9 21080000 		.4byte	.LASF226
 2637 10bd 01       		.byte	0x1
 2638 10be 3A       		.byte	0x3a
 2639 10bf F10E0000 		.4byte	0xef1
 2640 10c3 E3020000 		.4byte	.LLST1
 2641 10c7 2A       		.uleb128 0x2a
 2642 10c8 FE070000 		.4byte	.LASF215
 2643 10cc 01       		.byte	0x1
 2644 10cd 3A       		.byte	0x3a
 2645 10ce F0090000 		.4byte	0x9f0
 2646 10d2 0F030000 		.4byte	.LLST2
 2647 10d6 2A       		.uleb128 0x2a
 2648 10d7 D4010000 		.4byte	.LASF227
 2649 10db 01       		.byte	0x1
 2650 10dc 3A       		.byte	0x3a
 2651 10dd 83110000 		.4byte	0x1183
 2652 10e1 3B030000 		.4byte	.LLST3
 2653 10e5 36       		.uleb128 0x36
ARM GAS  C:\Users\EBANO_~1\AppData\Local\Temp\ccXyQ0sk.s 			page 51


 2654 10e6 52000000 		.4byte	.LBB8
 2655 10ea 64000000 		.4byte	.LBE8
 2656 10ee 01110000 		.4byte	0x1101
 2657 10f2 25       		.uleb128 0x25
 2658 10f3 D6070000 		.4byte	.LASF228
 2659 10f7 01       		.byte	0x1
 2660 10f8 3D       		.byte	0x3d
 2661 10f9 060A0000 		.4byte	0xa06
 2662 10fd 02       		.byte	0x2
 2663 10fe 91       		.byte	0x91
 2664 10ff 5C       		.sleb128 -36
 2665 1100 00       		.byte	0
 2666 1101 36       		.uleb128 0x36
 2667 1102 7A000000 		.4byte	.LBB10
 2668 1106 8C000000 		.4byte	.LBE10
 2669 110a 1D110000 		.4byte	0x111d
 2670 110e 25       		.uleb128 0x25
 2671 110f D6070000 		.4byte	.LASF228
 2672 1113 01       		.byte	0x1
 2673 1114 3D       		.byte	0x3d
 2674 1115 060A0000 		.4byte	0xa06
 2675 1119 02       		.byte	0x2
 2676 111a 91       		.byte	0x91
 2677 111b 60       		.sleb128 -32
 2678 111c 00       		.byte	0
 2679 111d 36       		.uleb128 0x36
 2680 111e 36000000 		.4byte	.LBB7
 2681 1122 48000000 		.4byte	.LBE7
 2682 1126 39110000 		.4byte	0x1139
 2683 112a 25       		.uleb128 0x25
 2684 112b D6070000 		.4byte	.LASF228
 2685 112f 01       		.byte	0x1
 2686 1130 3D       		.byte	0x3d
 2687 1131 060A0000 		.4byte	0xa06
 2688 1135 02       		.byte	0x2
 2689 1136 91       		.byte	0x91
 2690 1137 64       		.sleb128 -28
 2691 1138 00       		.byte	0
 2692 1139 36       		.uleb128 0x36
 2693 113a 18000000 		.4byte	.LBB6
 2694 113e 2A000000 		.4byte	.LBE6
 2695 1142 55110000 		.4byte	0x1155
 2696 1146 25       		.uleb128 0x25
 2697 1147 D6070000 		.4byte	.LASF228
 2698 114b 01       		.byte	0x1
 2699 114c 3D       		.byte	0x3d
 2700 114d 060A0000 		.4byte	0xa06
 2701 1151 02       		.byte	0x2
 2702 1152 91       		.byte	0x91
 2703 1153 68       		.sleb128 -24
 2704 1154 00       		.byte	0
 2705 1155 36       		.uleb128 0x36
 2706 1156 66000000 		.4byte	.LBB9
 2707 115a 7A000000 		.4byte	.LBE9
 2708 115e 71110000 		.4byte	0x1171
 2709 1162 25       		.uleb128 0x25
 2710 1163 D6070000 		.4byte	.LASF228
ARM GAS  C:\Users\EBANO_~1\AppData\Local\Temp\ccXyQ0sk.s 			page 52


 2711 1167 01       		.byte	0x1
 2712 1168 3D       		.byte	0x3d
 2713 1169 060A0000 		.4byte	0xa06
 2714 116d 02       		.byte	0x2
 2715 116e 91       		.byte	0x91
 2716 116f 6C       		.sleb128 -20
 2717 1170 00       		.byte	0
 2718 1171 2B       		.uleb128 0x2b
 2719 1172 32000000 		.4byte	.LVL2
 2720 1176 CE110000 		.4byte	0x11ce
 2721 117a 2C       		.uleb128 0x2c
 2722 117b 01       		.byte	0x1
 2723 117c 51       		.byte	0x51
 2724 117d 03       		.byte	0x3
 2725 117e F3       		.byte	0xf3
 2726 117f 01       		.uleb128 0x1
 2727 1180 52       		.byte	0x52
 2728 1181 00       		.byte	0
 2729 1182 00       		.byte	0
 2730 1183 05       		.uleb128 0x5
 2731 1184 04       		.byte	0x4
 2732 1185 C90D0000 		.4byte	0xdc9
 2733 1189 37       		.uleb128 0x37
 2734 118a 01       		.byte	0x1
 2735 118b 01       		.byte	0x1
 2736 118c 14010000 		.4byte	.LASF229
 2737 1190 14010000 		.4byte	.LASF229
 2738 1194 0B       		.byte	0xb
 2739 1195 2E01     		.2byte	0x12e
 2740 1197 37       		.uleb128 0x37
 2741 1198 01       		.byte	0x1
 2742 1199 01       		.byte	0x1
 2743 119a DE090000 		.4byte	.LASF230
 2744 119e DE090000 		.4byte	.LASF230
 2745 11a2 0B       		.byte	0xb
 2746 11a3 2F01     		.2byte	0x12f
 2747 11a5 38       		.uleb128 0x38
 2748 11a6 01       		.byte	0x1
 2749 11a7 01       		.byte	0x1
 2750 11a8 F3000000 		.4byte	.LASF231
 2751 11ac F3000000 		.4byte	.LASF231
 2752 11b0 0D       		.byte	0xd
 2753 11b1 3B       		.byte	0x3b
 2754 11b2 37       		.uleb128 0x37
 2755 11b3 01       		.byte	0x1
 2756 11b4 01       		.byte	0x1
 2757 11b5 7F030000 		.4byte	.LASF232
 2758 11b9 7F030000 		.4byte	.LASF232
 2759 11bd 0F       		.byte	0xf
 2760 11be 0101     		.2byte	0x101
 2761 11c0 37       		.uleb128 0x37
 2762 11c1 01       		.byte	0x1
 2763 11c2 01       		.byte	0x1
 2764 11c3 E3070000 		.4byte	.LASF233
 2765 11c7 E3070000 		.4byte	.LASF233
 2766 11cb 0F       		.byte	0xf
 2767 11cc 0201     		.2byte	0x102
ARM GAS  C:\Users\EBANO_~1\AppData\Local\Temp\ccXyQ0sk.s 			page 53


 2768 11ce 37       		.uleb128 0x37
 2769 11cf 01       		.byte	0x1
 2770 11d0 01       		.byte	0x1
 2771 11d1 34080000 		.4byte	.LASF234
 2772 11d5 34080000 		.4byte	.LASF234
 2773 11d9 0B       		.byte	0xb
 2774 11da 2401     		.2byte	0x124
 2775 11dc 00       		.byte	0
 2776              		.section	.debug_abbrev,"",%progbits
 2777              	.Ldebug_abbrev0:
 2778 0000 01       		.uleb128 0x1
 2779 0001 11       		.uleb128 0x11
 2780 0002 01       		.byte	0x1
 2781 0003 25       		.uleb128 0x25
 2782 0004 0E       		.uleb128 0xe
 2783 0005 13       		.uleb128 0x13
 2784 0006 0B       		.uleb128 0xb
 2785 0007 03       		.uleb128 0x3
 2786 0008 0E       		.uleb128 0xe
 2787 0009 1B       		.uleb128 0x1b
 2788 000a 0E       		.uleb128 0xe
 2789 000b 55       		.uleb128 0x55
 2790 000c 06       		.uleb128 0x6
 2791 000d 11       		.uleb128 0x11
 2792 000e 01       		.uleb128 0x1
 2793 000f 52       		.uleb128 0x52
 2794 0010 01       		.uleb128 0x1
 2795 0011 10       		.uleb128 0x10
 2796 0012 06       		.uleb128 0x6
 2797 0013 00       		.byte	0
 2798 0014 00       		.byte	0
 2799 0015 02       		.uleb128 0x2
 2800 0016 24       		.uleb128 0x24
 2801 0017 00       		.byte	0
 2802 0018 0B       		.uleb128 0xb
 2803 0019 0B       		.uleb128 0xb
 2804 001a 3E       		.uleb128 0x3e
 2805 001b 0B       		.uleb128 0xb
 2806 001c 03       		.uleb128 0x3
 2807 001d 08       		.uleb128 0x8
 2808 001e 00       		.byte	0
 2809 001f 00       		.byte	0
 2810 0020 03       		.uleb128 0x3
 2811 0021 24       		.uleb128 0x24
 2812 0022 00       		.byte	0
 2813 0023 0B       		.uleb128 0xb
 2814 0024 0B       		.uleb128 0xb
 2815 0025 3E       		.uleb128 0x3e
 2816 0026 0B       		.uleb128 0xb
 2817 0027 03       		.uleb128 0x3
 2818 0028 0E       		.uleb128 0xe
 2819 0029 00       		.byte	0
 2820 002a 00       		.byte	0
 2821 002b 04       		.uleb128 0x4
 2822 002c 16       		.uleb128 0x16
 2823 002d 00       		.byte	0
 2824 002e 03       		.uleb128 0x3
ARM GAS  C:\Users\EBANO_~1\AppData\Local\Temp\ccXyQ0sk.s 			page 54


 2825 002f 0E       		.uleb128 0xe
 2826 0030 3A       		.uleb128 0x3a
 2827 0031 0B       		.uleb128 0xb
 2828 0032 3B       		.uleb128 0x3b
 2829 0033 0B       		.uleb128 0xb
 2830 0034 49       		.uleb128 0x49
 2831 0035 13       		.uleb128 0x13
 2832 0036 00       		.byte	0
 2833 0037 00       		.byte	0
 2834 0038 05       		.uleb128 0x5
 2835 0039 0F       		.uleb128 0xf
 2836 003a 00       		.byte	0
 2837 003b 0B       		.uleb128 0xb
 2838 003c 0B       		.uleb128 0xb
 2839 003d 49       		.uleb128 0x49
 2840 003e 13       		.uleb128 0x13
 2841 003f 00       		.byte	0
 2842 0040 00       		.byte	0
 2843 0041 06       		.uleb128 0x6
 2844 0042 13       		.uleb128 0x13
 2845 0043 00       		.byte	0
 2846 0044 03       		.uleb128 0x3
 2847 0045 0E       		.uleb128 0xe
 2848 0046 3C       		.uleb128 0x3c
 2849 0047 0C       		.uleb128 0xc
 2850 0048 00       		.byte	0
 2851 0049 00       		.byte	0
 2852 004a 07       		.uleb128 0x7
 2853 004b 16       		.uleb128 0x16
 2854 004c 00       		.byte	0
 2855 004d 03       		.uleb128 0x3
 2856 004e 0E       		.uleb128 0xe
 2857 004f 3A       		.uleb128 0x3a
 2858 0050 0B       		.uleb128 0xb
 2859 0051 3B       		.uleb128 0x3b
 2860 0052 05       		.uleb128 0x5
 2861 0053 49       		.uleb128 0x49
 2862 0054 13       		.uleb128 0x13
 2863 0055 00       		.byte	0
 2864 0056 00       		.byte	0
 2865 0057 08       		.uleb128 0x8
 2866 0058 17       		.uleb128 0x17
 2867 0059 01       		.byte	0x1
 2868 005a 0B       		.uleb128 0xb
 2869 005b 0B       		.uleb128 0xb
 2870 005c 3A       		.uleb128 0x3a
 2871 005d 0B       		.uleb128 0xb
 2872 005e 3B       		.uleb128 0x3b
 2873 005f 0B       		.uleb128 0xb
 2874 0060 01       		.uleb128 0x1
 2875 0061 13       		.uleb128 0x13
 2876 0062 00       		.byte	0
 2877 0063 00       		.byte	0
 2878 0064 09       		.uleb128 0x9
 2879 0065 0D       		.uleb128 0xd
 2880 0066 00       		.byte	0
 2881 0067 03       		.uleb128 0x3
ARM GAS  C:\Users\EBANO_~1\AppData\Local\Temp\ccXyQ0sk.s 			page 55


 2882 0068 0E       		.uleb128 0xe
 2883 0069 3A       		.uleb128 0x3a
 2884 006a 0B       		.uleb128 0xb
 2885 006b 3B       		.uleb128 0x3b
 2886 006c 0B       		.uleb128 0xb
 2887 006d 49       		.uleb128 0x49
 2888 006e 13       		.uleb128 0x13
 2889 006f 00       		.byte	0
 2890 0070 00       		.byte	0
 2891 0071 0A       		.uleb128 0xa
 2892 0072 01       		.uleb128 0x1
 2893 0073 01       		.byte	0x1
 2894 0074 49       		.uleb128 0x49
 2895 0075 13       		.uleb128 0x13
 2896 0076 01       		.uleb128 0x1
 2897 0077 13       		.uleb128 0x13
 2898 0078 00       		.byte	0
 2899 0079 00       		.byte	0
 2900 007a 0B       		.uleb128 0xb
 2901 007b 21       		.uleb128 0x21
 2902 007c 00       		.byte	0
 2903 007d 49       		.uleb128 0x49
 2904 007e 13       		.uleb128 0x13
 2905 007f 2F       		.uleb128 0x2f
 2906 0080 0B       		.uleb128 0xb
 2907 0081 00       		.byte	0
 2908 0082 00       		.byte	0
 2909 0083 0C       		.uleb128 0xc
 2910 0084 13       		.uleb128 0x13
 2911 0085 01       		.byte	0x1
 2912 0086 0B       		.uleb128 0xb
 2913 0087 0B       		.uleb128 0xb
 2914 0088 3A       		.uleb128 0x3a
 2915 0089 0B       		.uleb128 0xb
 2916 008a 3B       		.uleb128 0x3b
 2917 008b 0B       		.uleb128 0xb
 2918 008c 01       		.uleb128 0x1
 2919 008d 13       		.uleb128 0x13
 2920 008e 00       		.byte	0
 2921 008f 00       		.byte	0
 2922 0090 0D       		.uleb128 0xd
 2923 0091 0D       		.uleb128 0xd
 2924 0092 00       		.byte	0
 2925 0093 03       		.uleb128 0x3
 2926 0094 0E       		.uleb128 0xe
 2927 0095 3A       		.uleb128 0x3a
 2928 0096 0B       		.uleb128 0xb
 2929 0097 3B       		.uleb128 0x3b
 2930 0098 0B       		.uleb128 0xb
 2931 0099 49       		.uleb128 0x49
 2932 009a 13       		.uleb128 0x13
 2933 009b 38       		.uleb128 0x38
 2934 009c 0A       		.uleb128 0xa
 2935 009d 00       		.byte	0
 2936 009e 00       		.byte	0
 2937 009f 0E       		.uleb128 0xe
 2938 00a0 0F       		.uleb128 0xf
ARM GAS  C:\Users\EBANO_~1\AppData\Local\Temp\ccXyQ0sk.s 			page 56


 2939 00a1 00       		.byte	0
 2940 00a2 0B       		.uleb128 0xb
 2941 00a3 0B       		.uleb128 0xb
 2942 00a4 00       		.byte	0
 2943 00a5 00       		.byte	0
 2944 00a6 0F       		.uleb128 0xf
 2945 00a7 26       		.uleb128 0x26
 2946 00a8 00       		.byte	0
 2947 00a9 49       		.uleb128 0x49
 2948 00aa 13       		.uleb128 0x13
 2949 00ab 00       		.byte	0
 2950 00ac 00       		.byte	0
 2951 00ad 10       		.uleb128 0x10
 2952 00ae 13       		.uleb128 0x13
 2953 00af 01       		.byte	0x1
 2954 00b0 03       		.uleb128 0x3
 2955 00b1 0E       		.uleb128 0xe
 2956 00b2 0B       		.uleb128 0xb
 2957 00b3 0B       		.uleb128 0xb
 2958 00b4 3A       		.uleb128 0x3a
 2959 00b5 0B       		.uleb128 0xb
 2960 00b6 3B       		.uleb128 0x3b
 2961 00b7 0B       		.uleb128 0xb
 2962 00b8 01       		.uleb128 0x1
 2963 00b9 13       		.uleb128 0x13
 2964 00ba 00       		.byte	0
 2965 00bb 00       		.byte	0
 2966 00bc 11       		.uleb128 0x11
 2967 00bd 0D       		.uleb128 0xd
 2968 00be 00       		.byte	0
 2969 00bf 03       		.uleb128 0x3
 2970 00c0 08       		.uleb128 0x8
 2971 00c1 3A       		.uleb128 0x3a
 2972 00c2 0B       		.uleb128 0xb
 2973 00c3 3B       		.uleb128 0x3b
 2974 00c4 0B       		.uleb128 0xb
 2975 00c5 49       		.uleb128 0x49
 2976 00c6 13       		.uleb128 0x13
 2977 00c7 38       		.uleb128 0x38
 2978 00c8 0A       		.uleb128 0xa
 2979 00c9 00       		.byte	0
 2980 00ca 00       		.byte	0
 2981 00cb 12       		.uleb128 0x12
 2982 00cc 13       		.uleb128 0x13
 2983 00cd 01       		.byte	0x1
 2984 00ce 03       		.uleb128 0x3
 2985 00cf 0E       		.uleb128 0xe
 2986 00d0 0B       		.uleb128 0xb
 2987 00d1 05       		.uleb128 0x5
 2988 00d2 3A       		.uleb128 0x3a
 2989 00d3 0B       		.uleb128 0xb
 2990 00d4 3B       		.uleb128 0x3b
 2991 00d5 0B       		.uleb128 0xb
 2992 00d6 01       		.uleb128 0x1
 2993 00d7 13       		.uleb128 0x13
 2994 00d8 00       		.byte	0
 2995 00d9 00       		.byte	0
ARM GAS  C:\Users\EBANO_~1\AppData\Local\Temp\ccXyQ0sk.s 			page 57


 2996 00da 13       		.uleb128 0x13
 2997 00db 15       		.uleb128 0x15
 2998 00dc 00       		.byte	0
 2999 00dd 27       		.uleb128 0x27
 3000 00de 0C       		.uleb128 0xc
 3001 00df 00       		.byte	0
 3002 00e0 00       		.byte	0
 3003 00e1 14       		.uleb128 0x14
 3004 00e2 15       		.uleb128 0x15
 3005 00e3 01       		.byte	0x1
 3006 00e4 27       		.uleb128 0x27
 3007 00e5 0C       		.uleb128 0xc
 3008 00e6 49       		.uleb128 0x49
 3009 00e7 13       		.uleb128 0x13
 3010 00e8 01       		.uleb128 0x1
 3011 00e9 13       		.uleb128 0x13
 3012 00ea 00       		.byte	0
 3013 00eb 00       		.byte	0
 3014 00ec 15       		.uleb128 0x15
 3015 00ed 05       		.uleb128 0x5
 3016 00ee 00       		.byte	0
 3017 00ef 49       		.uleb128 0x49
 3018 00f0 13       		.uleb128 0x13
 3019 00f1 00       		.byte	0
 3020 00f2 00       		.byte	0
 3021 00f3 16       		.uleb128 0x16
 3022 00f4 13       		.uleb128 0x13
 3023 00f5 01       		.byte	0x1
 3024 00f6 03       		.uleb128 0x3
 3025 00f7 0E       		.uleb128 0xe
 3026 00f8 0B       		.uleb128 0xb
 3027 00f9 05       		.uleb128 0x5
 3028 00fa 3A       		.uleb128 0x3a
 3029 00fb 0B       		.uleb128 0xb
 3030 00fc 3B       		.uleb128 0x3b
 3031 00fd 05       		.uleb128 0x5
 3032 00fe 01       		.uleb128 0x1
 3033 00ff 13       		.uleb128 0x13
 3034 0100 00       		.byte	0
 3035 0101 00       		.byte	0
 3036 0102 17       		.uleb128 0x17
 3037 0103 0D       		.uleb128 0xd
 3038 0104 00       		.byte	0
 3039 0105 03       		.uleb128 0x3
 3040 0106 0E       		.uleb128 0xe
 3041 0107 3A       		.uleb128 0x3a
 3042 0108 0B       		.uleb128 0xb
 3043 0109 3B       		.uleb128 0x3b
 3044 010a 05       		.uleb128 0x5
 3045 010b 49       		.uleb128 0x49
 3046 010c 13       		.uleb128 0x13
 3047 010d 38       		.uleb128 0x38
 3048 010e 0A       		.uleb128 0xa
 3049 010f 00       		.byte	0
 3050 0110 00       		.byte	0
 3051 0111 18       		.uleb128 0x18
 3052 0112 13       		.uleb128 0x13
ARM GAS  C:\Users\EBANO_~1\AppData\Local\Temp\ccXyQ0sk.s 			page 58


 3053 0113 01       		.byte	0x1
 3054 0114 03       		.uleb128 0x3
 3055 0115 0E       		.uleb128 0xe
 3056 0116 0B       		.uleb128 0xb
 3057 0117 0B       		.uleb128 0xb
 3058 0118 3A       		.uleb128 0x3a
 3059 0119 0B       		.uleb128 0xb
 3060 011a 3B       		.uleb128 0x3b
 3061 011b 05       		.uleb128 0x5
 3062 011c 01       		.uleb128 0x1
 3063 011d 13       		.uleb128 0x13
 3064 011e 00       		.byte	0
 3065 011f 00       		.byte	0
 3066 0120 19       		.uleb128 0x19
 3067 0121 13       		.uleb128 0x13
 3068 0122 01       		.byte	0x1
 3069 0123 0B       		.uleb128 0xb
 3070 0124 0B       		.uleb128 0xb
 3071 0125 3A       		.uleb128 0x3a
 3072 0126 0B       		.uleb128 0xb
 3073 0127 3B       		.uleb128 0x3b
 3074 0128 05       		.uleb128 0x5
 3075 0129 01       		.uleb128 0x1
 3076 012a 13       		.uleb128 0x13
 3077 012b 00       		.byte	0
 3078 012c 00       		.byte	0
 3079 012d 1A       		.uleb128 0x1a
 3080 012e 17       		.uleb128 0x17
 3081 012f 01       		.byte	0x1
 3082 0130 0B       		.uleb128 0xb
 3083 0131 0B       		.uleb128 0xb
 3084 0132 3A       		.uleb128 0x3a
 3085 0133 0B       		.uleb128 0xb
 3086 0134 3B       		.uleb128 0x3b
 3087 0135 05       		.uleb128 0x5
 3088 0136 01       		.uleb128 0x1
 3089 0137 13       		.uleb128 0x13
 3090 0138 00       		.byte	0
 3091 0139 00       		.byte	0
 3092 013a 1B       		.uleb128 0x1b
 3093 013b 0D       		.uleb128 0xd
 3094 013c 00       		.byte	0
 3095 013d 03       		.uleb128 0x3
 3096 013e 0E       		.uleb128 0xe
 3097 013f 3A       		.uleb128 0x3a
 3098 0140 0B       		.uleb128 0xb
 3099 0141 3B       		.uleb128 0x3b
 3100 0142 05       		.uleb128 0x5
 3101 0143 49       		.uleb128 0x49
 3102 0144 13       		.uleb128 0x13
 3103 0145 00       		.byte	0
 3104 0146 00       		.byte	0
 3105 0147 1C       		.uleb128 0x1c
 3106 0148 15       		.uleb128 0x15
 3107 0149 01       		.byte	0x1
 3108 014a 27       		.uleb128 0x27
 3109 014b 0C       		.uleb128 0xc
ARM GAS  C:\Users\EBANO_~1\AppData\Local\Temp\ccXyQ0sk.s 			page 59


 3110 014c 01       		.uleb128 0x1
 3111 014d 13       		.uleb128 0x13
 3112 014e 00       		.byte	0
 3113 014f 00       		.byte	0
 3114 0150 1D       		.uleb128 0x1d
 3115 0151 34       		.uleb128 0x34
 3116 0152 00       		.byte	0
 3117 0153 03       		.uleb128 0x3
 3118 0154 0E       		.uleb128 0xe
 3119 0155 3A       		.uleb128 0x3a
 3120 0156 0B       		.uleb128 0xb
 3121 0157 3B       		.uleb128 0x3b
 3122 0158 05       		.uleb128 0x5
 3123 0159 49       		.uleb128 0x49
 3124 015a 13       		.uleb128 0x13
 3125 015b 3F       		.uleb128 0x3f
 3126 015c 0C       		.uleb128 0xc
 3127 015d 3C       		.uleb128 0x3c
 3128 015e 0C       		.uleb128 0xc
 3129 015f 00       		.byte	0
 3130 0160 00       		.byte	0
 3131 0161 1E       		.uleb128 0x1e
 3132 0162 04       		.uleb128 0x4
 3133 0163 01       		.byte	0x1
 3134 0164 03       		.uleb128 0x3
 3135 0165 0E       		.uleb128 0xe
 3136 0166 3E       		.uleb128 0x3e
 3137 0167 0B       		.uleb128 0xb
 3138 0168 0B       		.uleb128 0xb
 3139 0169 0B       		.uleb128 0xb
 3140 016a 49       		.uleb128 0x49
 3141 016b 13       		.uleb128 0x13
 3142 016c 3A       		.uleb128 0x3a
 3143 016d 0B       		.uleb128 0xb
 3144 016e 3B       		.uleb128 0x3b
 3145 016f 05       		.uleb128 0x5
 3146 0170 01       		.uleb128 0x1
 3147 0171 13       		.uleb128 0x13
 3148 0172 00       		.byte	0
 3149 0173 00       		.byte	0
 3150 0174 1F       		.uleb128 0x1f
 3151 0175 28       		.uleb128 0x28
 3152 0176 00       		.byte	0
 3153 0177 03       		.uleb128 0x3
 3154 0178 0E       		.uleb128 0xe
 3155 0179 1C       		.uleb128 0x1c
 3156 017a 0D       		.uleb128 0xd
 3157 017b 00       		.byte	0
 3158 017c 00       		.byte	0
 3159 017d 20       		.uleb128 0x20
 3160 017e 28       		.uleb128 0x28
 3161 017f 00       		.byte	0
 3162 0180 03       		.uleb128 0x3
 3163 0181 0E       		.uleb128 0xe
 3164 0182 1C       		.uleb128 0x1c
 3165 0183 0B       		.uleb128 0xb
 3166 0184 00       		.byte	0
ARM GAS  C:\Users\EBANO_~1\AppData\Local\Temp\ccXyQ0sk.s 			page 60


 3167 0185 00       		.byte	0
 3168 0186 21       		.uleb128 0x21
 3169 0187 35       		.uleb128 0x35
 3170 0188 00       		.byte	0
 3171 0189 49       		.uleb128 0x49
 3172 018a 13       		.uleb128 0x13
 3173 018b 00       		.byte	0
 3174 018c 00       		.byte	0
 3175 018d 22       		.uleb128 0x22
 3176 018e 04       		.uleb128 0x4
 3177 018f 01       		.byte	0x1
 3178 0190 3E       		.uleb128 0x3e
 3179 0191 0B       		.uleb128 0xb
 3180 0192 0B       		.uleb128 0xb
 3181 0193 0B       		.uleb128 0xb
 3182 0194 49       		.uleb128 0x49
 3183 0195 13       		.uleb128 0x13
 3184 0196 3A       		.uleb128 0x3a
 3185 0197 0B       		.uleb128 0xb
 3186 0198 3B       		.uleb128 0x3b
 3187 0199 0B       		.uleb128 0xb
 3188 019a 01       		.uleb128 0x1
 3189 019b 13       		.uleb128 0x13
 3190 019c 00       		.byte	0
 3191 019d 00       		.byte	0
 3192 019e 23       		.uleb128 0x23
 3193 019f 34       		.uleb128 0x34
 3194 01a0 00       		.byte	0
 3195 01a1 03       		.uleb128 0x3
 3196 01a2 0E       		.uleb128 0xe
 3197 01a3 3A       		.uleb128 0x3a
 3198 01a4 0B       		.uleb128 0xb
 3199 01a5 3B       		.uleb128 0x3b
 3200 01a6 0B       		.uleb128 0xb
 3201 01a7 49       		.uleb128 0x49
 3202 01a8 13       		.uleb128 0x13
 3203 01a9 3F       		.uleb128 0x3f
 3204 01aa 0C       		.uleb128 0xc
 3205 01ab 3C       		.uleb128 0x3c
 3206 01ac 0C       		.uleb128 0xc
 3207 01ad 00       		.byte	0
 3208 01ae 00       		.byte	0
 3209 01af 24       		.uleb128 0x24
 3210 01b0 0D       		.uleb128 0xd
 3211 01b1 00       		.byte	0
 3212 01b2 03       		.uleb128 0x3
 3213 01b3 08       		.uleb128 0x8
 3214 01b4 3A       		.uleb128 0x3a
 3215 01b5 0B       		.uleb128 0xb
 3216 01b6 3B       		.uleb128 0x3b
 3217 01b7 05       		.uleb128 0x5
 3218 01b8 49       		.uleb128 0x49
 3219 01b9 13       		.uleb128 0x13
 3220 01ba 38       		.uleb128 0x38
 3221 01bb 0A       		.uleb128 0xa
 3222 01bc 00       		.byte	0
 3223 01bd 00       		.byte	0
ARM GAS  C:\Users\EBANO_~1\AppData\Local\Temp\ccXyQ0sk.s 			page 61


 3224 01be 25       		.uleb128 0x25
 3225 01bf 34       		.uleb128 0x34
 3226 01c0 00       		.byte	0
 3227 01c1 03       		.uleb128 0x3
 3228 01c2 0E       		.uleb128 0xe
 3229 01c3 3A       		.uleb128 0x3a
 3230 01c4 0B       		.uleb128 0xb
 3231 01c5 3B       		.uleb128 0x3b
 3232 01c6 0B       		.uleb128 0xb
 3233 01c7 49       		.uleb128 0x49
 3234 01c8 13       		.uleb128 0x13
 3235 01c9 02       		.uleb128 0x2
 3236 01ca 0A       		.uleb128 0xa
 3237 01cb 00       		.byte	0
 3238 01cc 00       		.byte	0
 3239 01cd 26       		.uleb128 0x26
 3240 01ce 2E       		.uleb128 0x2e
 3241 01cf 01       		.byte	0x1
 3242 01d0 03       		.uleb128 0x3
 3243 01d1 0E       		.uleb128 0xe
 3244 01d2 3A       		.uleb128 0x3a
 3245 01d3 0B       		.uleb128 0xb
 3246 01d4 3B       		.uleb128 0x3b
 3247 01d5 0B       		.uleb128 0xb
 3248 01d6 27       		.uleb128 0x27
 3249 01d7 0C       		.uleb128 0xc
 3250 01d8 49       		.uleb128 0x49
 3251 01d9 13       		.uleb128 0x13
 3252 01da 20       		.uleb128 0x20
 3253 01db 0B       		.uleb128 0xb
 3254 01dc 01       		.uleb128 0x1
 3255 01dd 13       		.uleb128 0x13
 3256 01de 00       		.byte	0
 3257 01df 00       		.byte	0
 3258 01e0 27       		.uleb128 0x27
 3259 01e1 05       		.uleb128 0x5
 3260 01e2 00       		.byte	0
 3261 01e3 03       		.uleb128 0x3
 3262 01e4 0E       		.uleb128 0xe
 3263 01e5 3A       		.uleb128 0x3a
 3264 01e6 0B       		.uleb128 0xb
 3265 01e7 3B       		.uleb128 0x3b
 3266 01e8 0B       		.uleb128 0xb
 3267 01e9 49       		.uleb128 0x49
 3268 01ea 13       		.uleb128 0x13
 3269 01eb 00       		.byte	0
 3270 01ec 00       		.byte	0
 3271 01ed 28       		.uleb128 0x28
 3272 01ee 34       		.uleb128 0x34
 3273 01ef 00       		.byte	0
 3274 01f0 03       		.uleb128 0x3
 3275 01f1 0E       		.uleb128 0xe
 3276 01f2 3A       		.uleb128 0x3a
 3277 01f3 0B       		.uleb128 0xb
 3278 01f4 3B       		.uleb128 0x3b
 3279 01f5 0B       		.uleb128 0xb
 3280 01f6 49       		.uleb128 0x49
ARM GAS  C:\Users\EBANO_~1\AppData\Local\Temp\ccXyQ0sk.s 			page 62


 3281 01f7 13       		.uleb128 0x13
 3282 01f8 00       		.byte	0
 3283 01f9 00       		.byte	0
 3284 01fa 29       		.uleb128 0x29
 3285 01fb 2E       		.uleb128 0x2e
 3286 01fc 01       		.byte	0x1
 3287 01fd 3F       		.uleb128 0x3f
 3288 01fe 0C       		.uleb128 0xc
 3289 01ff 03       		.uleb128 0x3
 3290 0200 0E       		.uleb128 0xe
 3291 0201 3A       		.uleb128 0x3a
 3292 0202 0B       		.uleb128 0xb
 3293 0203 3B       		.uleb128 0x3b
 3294 0204 0B       		.uleb128 0xb
 3295 0205 27       		.uleb128 0x27
 3296 0206 0C       		.uleb128 0xc
 3297 0207 49       		.uleb128 0x49
 3298 0208 13       		.uleb128 0x13
 3299 0209 11       		.uleb128 0x11
 3300 020a 01       		.uleb128 0x1
 3301 020b 12       		.uleb128 0x12
 3302 020c 01       		.uleb128 0x1
 3303 020d 40       		.uleb128 0x40
 3304 020e 06       		.uleb128 0x6
 3305 020f 9742     		.uleb128 0x2117
 3306 0211 0C       		.uleb128 0xc
 3307 0212 01       		.uleb128 0x1
 3308 0213 13       		.uleb128 0x13
 3309 0214 00       		.byte	0
 3310 0215 00       		.byte	0
 3311 0216 2A       		.uleb128 0x2a
 3312 0217 05       		.uleb128 0x5
 3313 0218 00       		.byte	0
 3314 0219 03       		.uleb128 0x3
 3315 021a 0E       		.uleb128 0xe
 3316 021b 3A       		.uleb128 0x3a
 3317 021c 0B       		.uleb128 0xb
 3318 021d 3B       		.uleb128 0x3b
 3319 021e 0B       		.uleb128 0xb
 3320 021f 49       		.uleb128 0x49
 3321 0220 13       		.uleb128 0x13
 3322 0221 02       		.uleb128 0x2
 3323 0222 06       		.uleb128 0x6
 3324 0223 00       		.byte	0
 3325 0224 00       		.byte	0
 3326 0225 2B       		.uleb128 0x2b
 3327 0226 898201   		.uleb128 0x4109
 3328 0229 01       		.byte	0x1
 3329 022a 11       		.uleb128 0x11
 3330 022b 01       		.uleb128 0x1
 3331 022c 31       		.uleb128 0x31
 3332 022d 13       		.uleb128 0x13
 3333 022e 00       		.byte	0
 3334 022f 00       		.byte	0
 3335 0230 2C       		.uleb128 0x2c
 3336 0231 8A8201   		.uleb128 0x410a
 3337 0234 00       		.byte	0
ARM GAS  C:\Users\EBANO_~1\AppData\Local\Temp\ccXyQ0sk.s 			page 63


 3338 0235 02       		.uleb128 0x2
 3339 0236 0A       		.uleb128 0xa
 3340 0237 9142     		.uleb128 0x2111
 3341 0239 0A       		.uleb128 0xa
 3342 023a 00       		.byte	0
 3343 023b 00       		.byte	0
 3344 023c 2D       		.uleb128 0x2d
 3345 023d 2E       		.uleb128 0x2e
 3346 023e 01       		.byte	0x1
 3347 023f 3F       		.uleb128 0x3f
 3348 0240 0C       		.uleb128 0xc
 3349 0241 03       		.uleb128 0x3
 3350 0242 0E       		.uleb128 0xe
 3351 0243 3A       		.uleb128 0x3a
 3352 0244 0B       		.uleb128 0xb
 3353 0245 3B       		.uleb128 0x3b
 3354 0246 0B       		.uleb128 0xb
 3355 0247 27       		.uleb128 0x27
 3356 0248 0C       		.uleb128 0xc
 3357 0249 11       		.uleb128 0x11
 3358 024a 01       		.uleb128 0x1
 3359 024b 12       		.uleb128 0x12
 3360 024c 01       		.uleb128 0x1
 3361 024d 40       		.uleb128 0x40
 3362 024e 06       		.uleb128 0x6
 3363 024f 9742     		.uleb128 0x2117
 3364 0251 0C       		.uleb128 0xc
 3365 0252 01       		.uleb128 0x1
 3366 0253 13       		.uleb128 0x13
 3367 0254 00       		.byte	0
 3368 0255 00       		.byte	0
 3369 0256 2E       		.uleb128 0x2e
 3370 0257 34       		.uleb128 0x34
 3371 0258 00       		.byte	0
 3372 0259 03       		.uleb128 0x3
 3373 025a 0E       		.uleb128 0xe
 3374 025b 3A       		.uleb128 0x3a
 3375 025c 0B       		.uleb128 0xb
 3376 025d 3B       		.uleb128 0x3b
 3377 025e 0B       		.uleb128 0xb
 3378 025f 49       		.uleb128 0x49
 3379 0260 13       		.uleb128 0x13
 3380 0261 02       		.uleb128 0x2
 3381 0262 06       		.uleb128 0x6
 3382 0263 00       		.byte	0
 3383 0264 00       		.byte	0
 3384 0265 2F       		.uleb128 0x2f
 3385 0266 1D       		.uleb128 0x1d
 3386 0267 01       		.byte	0x1
 3387 0268 31       		.uleb128 0x31
 3388 0269 13       		.uleb128 0x13
 3389 026a 52       		.uleb128 0x52
 3390 026b 01       		.uleb128 0x1
 3391 026c 55       		.uleb128 0x55
 3392 026d 06       		.uleb128 0x6
 3393 026e 58       		.uleb128 0x58
 3394 026f 0B       		.uleb128 0xb
ARM GAS  C:\Users\EBANO_~1\AppData\Local\Temp\ccXyQ0sk.s 			page 64


 3395 0270 59       		.uleb128 0x59
 3396 0271 0B       		.uleb128 0xb
 3397 0272 01       		.uleb128 0x1
 3398 0273 13       		.uleb128 0x13
 3399 0274 00       		.byte	0
 3400 0275 00       		.byte	0
 3401 0276 30       		.uleb128 0x30
 3402 0277 05       		.uleb128 0x5
 3403 0278 00       		.byte	0
 3404 0279 31       		.uleb128 0x31
 3405 027a 13       		.uleb128 0x13
 3406 027b 02       		.uleb128 0x2
 3407 027c 06       		.uleb128 0x6
 3408 027d 00       		.byte	0
 3409 027e 00       		.byte	0
 3410 027f 31       		.uleb128 0x31
 3411 0280 0B       		.uleb128 0xb
 3412 0281 01       		.byte	0x1
 3413 0282 55       		.uleb128 0x55
 3414 0283 06       		.uleb128 0x6
 3415 0284 00       		.byte	0
 3416 0285 00       		.byte	0
 3417 0286 32       		.uleb128 0x32
 3418 0287 34       		.uleb128 0x34
 3419 0288 00       		.byte	0
 3420 0289 31       		.uleb128 0x31
 3421 028a 13       		.uleb128 0x13
 3422 028b 02       		.uleb128 0x2
 3423 028c 06       		.uleb128 0x6
 3424 028d 00       		.byte	0
 3425 028e 00       		.byte	0
 3426 028f 33       		.uleb128 0x33
 3427 0290 898201   		.uleb128 0x4109
 3428 0293 01       		.byte	0x1
 3429 0294 11       		.uleb128 0x11
 3430 0295 01       		.uleb128 0x1
 3431 0296 00       		.byte	0
 3432 0297 00       		.byte	0
 3433 0298 34       		.uleb128 0x34
 3434 0299 898201   		.uleb128 0x4109
 3435 029c 00       		.byte	0
 3436 029d 11       		.uleb128 0x11
 3437 029e 01       		.uleb128 0x1
 3438 029f 31       		.uleb128 0x31
 3439 02a0 13       		.uleb128 0x13
 3440 02a1 00       		.byte	0
 3441 02a2 00       		.byte	0
 3442 02a3 35       		.uleb128 0x35
 3443 02a4 898201   		.uleb128 0x4109
 3444 02a7 01       		.byte	0x1
 3445 02a8 11       		.uleb128 0x11
 3446 02a9 01       		.uleb128 0x1
 3447 02aa 31       		.uleb128 0x31
 3448 02ab 13       		.uleb128 0x13
 3449 02ac 01       		.uleb128 0x1
 3450 02ad 13       		.uleb128 0x13
 3451 02ae 00       		.byte	0
ARM GAS  C:\Users\EBANO_~1\AppData\Local\Temp\ccXyQ0sk.s 			page 65


 3452 02af 00       		.byte	0
 3453 02b0 36       		.uleb128 0x36
 3454 02b1 0B       		.uleb128 0xb
 3455 02b2 01       		.byte	0x1
 3456 02b3 11       		.uleb128 0x11
 3457 02b4 01       		.uleb128 0x1
 3458 02b5 12       		.uleb128 0x12
 3459 02b6 01       		.uleb128 0x1
 3460 02b7 01       		.uleb128 0x1
 3461 02b8 13       		.uleb128 0x13
 3462 02b9 00       		.byte	0
 3463 02ba 00       		.byte	0
 3464 02bb 37       		.uleb128 0x37
 3465 02bc 2E       		.uleb128 0x2e
 3466 02bd 00       		.byte	0
 3467 02be 3F       		.uleb128 0x3f
 3468 02bf 0C       		.uleb128 0xc
 3469 02c0 3C       		.uleb128 0x3c
 3470 02c1 0C       		.uleb128 0xc
 3471 02c2 8740     		.uleb128 0x2007
 3472 02c4 0E       		.uleb128 0xe
 3473 02c5 03       		.uleb128 0x3
 3474 02c6 0E       		.uleb128 0xe
 3475 02c7 3A       		.uleb128 0x3a
 3476 02c8 0B       		.uleb128 0xb
 3477 02c9 3B       		.uleb128 0x3b
 3478 02ca 05       		.uleb128 0x5
 3479 02cb 00       		.byte	0
 3480 02cc 00       		.byte	0
 3481 02cd 38       		.uleb128 0x38
 3482 02ce 2E       		.uleb128 0x2e
 3483 02cf 00       		.byte	0
 3484 02d0 3F       		.uleb128 0x3f
 3485 02d1 0C       		.uleb128 0xc
 3486 02d2 3C       		.uleb128 0x3c
 3487 02d3 0C       		.uleb128 0xc
 3488 02d4 8740     		.uleb128 0x2007
 3489 02d6 0E       		.uleb128 0xe
 3490 02d7 03       		.uleb128 0x3
 3491 02d8 0E       		.uleb128 0xe
 3492 02d9 3A       		.uleb128 0x3a
 3493 02da 0B       		.uleb128 0xb
 3494 02db 3B       		.uleb128 0x3b
 3495 02dc 0B       		.uleb128 0xb
 3496 02dd 00       		.byte	0
 3497 02de 00       		.byte	0
 3498 02df 00       		.byte	0
 3499              		.section	.debug_loc,"",%progbits
 3500              	.Ldebug_loc0:
 3501              	.LLST21:
 3502 0000 00000000 		.4byte	.LFB43
 3503 0004 02000000 		.4byte	.LCFI5
 3504 0008 0200     		.2byte	0x2
 3505 000a 7D       		.byte	0x7d
 3506 000b 00       		.sleb128 0
 3507 000c 02000000 		.4byte	.LCFI5
 3508 0010 08000000 		.4byte	.LFE43
ARM GAS  C:\Users\EBANO_~1\AppData\Local\Temp\ccXyQ0sk.s 			page 66


 3509 0014 0200     		.2byte	0x2
 3510 0016 7D       		.byte	0x7d
 3511 0017 08       		.sleb128 8
 3512 0018 00000000 		.4byte	0
 3513 001c 00000000 		.4byte	0
 3514              	.LLST22:
 3515 0020 00000000 		.4byte	.LVL35
 3516 0024 05000000 		.4byte	.LVL36-1
 3517 0028 0100     		.2byte	0x1
 3518 002a 50       		.byte	0x50
 3519 002b 05000000 		.4byte	.LVL36-1
 3520 002f 08000000 		.4byte	.LFE43
 3521 0033 0400     		.2byte	0x4
 3522 0035 F3       		.byte	0xf3
 3523 0036 01       		.uleb128 0x1
 3524 0037 50       		.byte	0x50
 3525 0038 9F       		.byte	0x9f
 3526 0039 00000000 		.4byte	0
 3527 003d 00000000 		.4byte	0
 3528              	.LLST23:
 3529 0041 00000000 		.4byte	.LVL35
 3530 0045 05000000 		.4byte	.LVL36-1
 3531 0049 0100     		.2byte	0x1
 3532 004b 51       		.byte	0x51
 3533 004c 05000000 		.4byte	.LVL36-1
 3534 0050 08000000 		.4byte	.LFE43
 3535 0054 0400     		.2byte	0x4
 3536 0056 F3       		.byte	0xf3
 3537 0057 01       		.uleb128 0x1
 3538 0058 51       		.byte	0x51
 3539 0059 9F       		.byte	0x9f
 3540 005a 00000000 		.4byte	0
 3541 005e 00000000 		.4byte	0
 3542              	.LLST17:
 3543 0062 00000000 		.4byte	.LFB42
 3544 0066 02000000 		.4byte	.LCFI4
 3545 006a 0200     		.2byte	0x2
 3546 006c 7D       		.byte	0x7d
 3547 006d 00       		.sleb128 0
 3548 006e 02000000 		.4byte	.LCFI4
 3549 0072 0A000000 		.4byte	.LFE42
 3550 0076 0200     		.2byte	0x2
 3551 0078 7D       		.byte	0x7d
 3552 0079 08       		.sleb128 8
 3553 007a 00000000 		.4byte	0
 3554 007e 00000000 		.4byte	0
 3555              	.LLST18:
 3556 0082 00000000 		.4byte	.LVL32
 3557 0086 07000000 		.4byte	.LVL34-1
 3558 008a 0100     		.2byte	0x1
 3559 008c 50       		.byte	0x50
 3560 008d 07000000 		.4byte	.LVL34-1
 3561 0091 0A000000 		.4byte	.LFE42
 3562 0095 0400     		.2byte	0x4
 3563 0097 F3       		.byte	0xf3
 3564 0098 01       		.uleb128 0x1
 3565 0099 50       		.byte	0x50
ARM GAS  C:\Users\EBANO_~1\AppData\Local\Temp\ccXyQ0sk.s 			page 67


 3566 009a 9F       		.byte	0x9f
 3567 009b 00000000 		.4byte	0
 3568 009f 00000000 		.4byte	0
 3569              	.LLST19:
 3570 00a3 00000000 		.4byte	.LVL32
 3571 00a7 07000000 		.4byte	.LVL34-1
 3572 00ab 0100     		.2byte	0x1
 3573 00ad 51       		.byte	0x51
 3574 00ae 07000000 		.4byte	.LVL34-1
 3575 00b2 0A000000 		.4byte	.LFE42
 3576 00b6 0400     		.2byte	0x4
 3577 00b8 F3       		.byte	0xf3
 3578 00b9 01       		.uleb128 0x1
 3579 00ba 51       		.byte	0x51
 3580 00bb 9F       		.byte	0x9f
 3581 00bc 00000000 		.4byte	0
 3582 00c0 00000000 		.4byte	0
 3583              	.LLST20:
 3584 00c4 00000000 		.4byte	.LVL32
 3585 00c8 04000000 		.4byte	.LVL33
 3586 00cc 0100     		.2byte	0x1
 3587 00ce 52       		.byte	0x52
 3588 00cf 04000000 		.4byte	.LVL33
 3589 00d3 0A000000 		.4byte	.LFE42
 3590 00d7 0400     		.2byte	0x4
 3591 00d9 F3       		.byte	0xf3
 3592 00da 01       		.uleb128 0x1
 3593 00db 52       		.byte	0x52
 3594 00dc 9F       		.byte	0x9f
 3595 00dd 00000000 		.4byte	0
 3596 00e1 00000000 		.4byte	0
 3597              	.LLST12:
 3598 00e5 00000000 		.4byte	.LFB41
 3599 00e9 08000000 		.4byte	.LCFI3
 3600 00ed 0200     		.2byte	0x2
 3601 00ef 7D       		.byte	0x7d
 3602 00f0 00       		.sleb128 0
 3603 00f1 08000000 		.4byte	.LCFI3
 3604 00f5 54000000 		.4byte	.LFE41
 3605 00f9 0200     		.2byte	0x2
 3606 00fb 7D       		.byte	0x7d
 3607 00fc 08       		.sleb128 8
 3608 00fd 00000000 		.4byte	0
 3609 0101 00000000 		.4byte	0
 3610              	.LLST13:
 3611 0105 00000000 		.4byte	.LVL22
 3612 0109 40000000 		.4byte	.LVL30
 3613 010d 0100     		.2byte	0x1
 3614 010f 50       		.byte	0x50
 3615 0110 40000000 		.4byte	.LVL30
 3616 0114 54000000 		.4byte	.LFE41
 3617 0118 0400     		.2byte	0x4
 3618 011a F3       		.byte	0xf3
 3619 011b 01       		.uleb128 0x1
 3620 011c 50       		.byte	0x50
 3621 011d 9F       		.byte	0x9f
 3622 011e 00000000 		.4byte	0
ARM GAS  C:\Users\EBANO_~1\AppData\Local\Temp\ccXyQ0sk.s 			page 68


 3623 0122 00000000 		.4byte	0
 3624              	.LLST14:
 3625 0126 34000000 		.4byte	.LVL28
 3626 012a 38000000 		.4byte	.LVL29
 3627 012e 0600     		.2byte	0x6
 3628 0130 73       		.byte	0x73
 3629 0131 00       		.sleb128 0
 3630 0132 08       		.byte	0x8
 3631 0133 FF       		.byte	0xff
 3632 0134 1A       		.byte	0x1a
 3633 0135 9F       		.byte	0x9f
 3634 0136 00000000 		.4byte	0
 3635 013a 00000000 		.4byte	0
 3636              	.LLST15:
 3637 013e 00000000 		.4byte	.LVL22
 3638 0142 34000000 		.4byte	.LVL28
 3639 0146 0100     		.2byte	0x1
 3640 0148 50       		.byte	0x50
 3641 0149 00000000 		.4byte	0
 3642 014d 00000000 		.4byte	0
 3643              	.LLST16:
 3644 0151 00000000 		.4byte	.LVL22
 3645 0155 14000000 		.4byte	.LVL23
 3646 0159 0200     		.2byte	0x2
 3647 015b 30       		.byte	0x30
 3648 015c 9F       		.byte	0x9f
 3649 015d 14000000 		.4byte	.LVL23
 3650 0161 26000000 		.4byte	.LVL25
 3651 0165 0100     		.2byte	0x1
 3652 0167 53       		.byte	0x53
 3653 0168 28000000 		.4byte	.LVL26
 3654 016c 32000000 		.4byte	.LVL27
 3655 0170 0100     		.2byte	0x1
 3656 0172 53       		.byte	0x53
 3657 0173 00000000 		.4byte	0
 3658 0177 00000000 		.4byte	0
 3659              	.LLST4:
 3660 017b 00000000 		.4byte	.LFB40
 3661 017f 02000000 		.4byte	.LCFI2
 3662 0183 0200     		.2byte	0x2
 3663 0185 7D       		.byte	0x7d
 3664 0186 00       		.sleb128 0
 3665 0187 02000000 		.4byte	.LCFI2
 3666 018b 70000000 		.4byte	.LFE40
 3667 018f 0200     		.2byte	0x2
 3668 0191 7D       		.byte	0x7d
 3669 0192 10       		.sleb128 16
 3670 0193 00000000 		.4byte	0
 3671 0197 00000000 		.4byte	0
 3672              	.LLST5:
 3673 019b 00000000 		.4byte	.LVL4
 3674 019f 04000000 		.4byte	.LVL5
 3675 01a3 0100     		.2byte	0x1
 3676 01a5 50       		.byte	0x50
 3677 01a6 04000000 		.4byte	.LVL5
 3678 01aa 70000000 		.4byte	.LFE40
 3679 01ae 0400     		.2byte	0x4
ARM GAS  C:\Users\EBANO_~1\AppData\Local\Temp\ccXyQ0sk.s 			page 69


 3680 01b0 F3       		.byte	0xf3
 3681 01b1 01       		.uleb128 0x1
 3682 01b2 50       		.byte	0x50
 3683 01b3 9F       		.byte	0x9f
 3684 01b4 00000000 		.4byte	0
 3685 01b8 00000000 		.4byte	0
 3686              	.LLST6:
 3687 01bc 00000000 		.4byte	.LVL4
 3688 01c0 3E000000 		.4byte	.LVL14
 3689 01c4 0100     		.2byte	0x1
 3690 01c6 51       		.byte	0x51
 3691 01c7 3E000000 		.4byte	.LVL14
 3692 01cb 42000000 		.4byte	.LVL17
 3693 01cf 0400     		.2byte	0x4
 3694 01d1 F3       		.byte	0xf3
 3695 01d2 01       		.uleb128 0x1
 3696 01d3 51       		.byte	0x51
 3697 01d4 9F       		.byte	0x9f
 3698 01d5 42000000 		.4byte	.LVL17
 3699 01d9 4B000000 		.4byte	.LVL18-1
 3700 01dd 0100     		.2byte	0x1
 3701 01df 51       		.byte	0x51
 3702 01e0 4B000000 		.4byte	.LVL18-1
 3703 01e4 70000000 		.4byte	.LFE40
 3704 01e8 0400     		.2byte	0x4
 3705 01ea F3       		.byte	0xf3
 3706 01eb 01       		.uleb128 0x1
 3707 01ec 51       		.byte	0x51
 3708 01ed 9F       		.byte	0x9f
 3709 01ee 00000000 		.4byte	0
 3710 01f2 00000000 		.4byte	0
 3711              	.LLST7:
 3712 01f6 00000000 		.4byte	.LVL4
 3713 01fa 08000000 		.4byte	.LVL6
 3714 01fe 0100     		.2byte	0x1
 3715 0200 52       		.byte	0x52
 3716 0201 08000000 		.4byte	.LVL6
 3717 0205 40000000 		.4byte	.LVL16
 3718 0209 0100     		.2byte	0x1
 3719 020b 54       		.byte	0x54
 3720 020c 40000000 		.4byte	.LVL16
 3721 0210 42000000 		.4byte	.LVL17
 3722 0214 0400     		.2byte	0x4
 3723 0216 F3       		.byte	0xf3
 3724 0217 01       		.uleb128 0x1
 3725 0218 52       		.byte	0x52
 3726 0219 9F       		.byte	0x9f
 3727 021a 42000000 		.4byte	.LVL17
 3728 021e 70000000 		.4byte	.LFE40
 3729 0222 0100     		.2byte	0x1
 3730 0224 54       		.byte	0x54
 3731 0225 00000000 		.4byte	0
 3732 0229 00000000 		.4byte	0
 3733              	.LLST8:
 3734 022d 00000000 		.4byte	.LVL4
 3735 0231 40000000 		.4byte	.LVL15
 3736 0235 0100     		.2byte	0x1
ARM GAS  C:\Users\EBANO_~1\AppData\Local\Temp\ccXyQ0sk.s 			page 70


 3737 0237 53       		.byte	0x53
 3738 0238 40000000 		.4byte	.LVL15
 3739 023c 42000000 		.4byte	.LVL17
 3740 0240 0400     		.2byte	0x4
 3741 0242 F3       		.byte	0xf3
 3742 0243 01       		.uleb128 0x1
 3743 0244 53       		.byte	0x53
 3744 0245 9F       		.byte	0x9f
 3745 0246 42000000 		.4byte	.LVL17
 3746 024a 4B000000 		.4byte	.LVL18-1
 3747 024e 0100     		.2byte	0x1
 3748 0250 53       		.byte	0x53
 3749 0251 4B000000 		.4byte	.LVL18-1
 3750 0255 70000000 		.4byte	.LFE40
 3751 0259 0400     		.2byte	0x4
 3752 025b F3       		.byte	0xf3
 3753 025c 01       		.uleb128 0x1
 3754 025d 53       		.byte	0x53
 3755 025e 9F       		.byte	0x9f
 3756 025f 00000000 		.4byte	0
 3757 0263 00000000 		.4byte	0
 3758              	.LLST9:
 3759 0267 36000000 		.4byte	.LVL12
 3760 026b 38000000 		.4byte	.LVL13
 3761 026f 0100     		.2byte	0x1
 3762 0271 52       		.byte	0x52
 3763 0272 00000000 		.4byte	0
 3764 0276 00000000 		.4byte	0
 3765              	.LLST10:
 3766 027a 00000000 		.4byte	.LVL4
 3767 027e 36000000 		.4byte	.LVL12
 3768 0282 0100     		.2byte	0x1
 3769 0284 51       		.byte	0x51
 3770 0285 00000000 		.4byte	0
 3771 0289 00000000 		.4byte	0
 3772              	.LLST11:
 3773 028d 00000000 		.4byte	.LVL4
 3774 0291 16000000 		.4byte	.LVL7
 3775 0295 0200     		.2byte	0x2
 3776 0297 30       		.byte	0x30
 3777 0298 9F       		.byte	0x9f
 3778 0299 16000000 		.4byte	.LVL7
 3779 029d 28000000 		.4byte	.LVL9
 3780 02a1 0100     		.2byte	0x1
 3781 02a3 52       		.byte	0x52
 3782 02a4 2A000000 		.4byte	.LVL10
 3783 02a8 34000000 		.4byte	.LVL11
 3784 02ac 0100     		.2byte	0x1
 3785 02ae 52       		.byte	0x52
 3786 02af 00000000 		.4byte	0
 3787 02b3 00000000 		.4byte	0
 3788              	.LLST0:
 3789 02b7 00000000 		.4byte	.LFB39
 3790 02bb 02000000 		.4byte	.LCFI0
 3791 02bf 0200     		.2byte	0x2
 3792 02c1 7D       		.byte	0x7d
 3793 02c2 00       		.sleb128 0
ARM GAS  C:\Users\EBANO_~1\AppData\Local\Temp\ccXyQ0sk.s 			page 71


 3794 02c3 02000000 		.4byte	.LCFI0
 3795 02c7 06000000 		.4byte	.LCFI1
 3796 02cb 0200     		.2byte	0x2
 3797 02cd 7D       		.byte	0x7d
 3798 02ce 0C       		.sleb128 12
 3799 02cf 06000000 		.4byte	.LCFI1
 3800 02d3 A0000000 		.4byte	.LFE39
 3801 02d7 0200     		.2byte	0x2
 3802 02d9 7D       		.byte	0x7d
 3803 02da 28       		.sleb128 40
 3804 02db 00000000 		.4byte	0
 3805 02df 00000000 		.4byte	0
 3806              	.LLST1:
 3807 02e3 00000000 		.4byte	.LVL0
 3808 02e7 31000000 		.4byte	.LVL2-1
 3809 02eb 0100     		.2byte	0x1
 3810 02ed 50       		.byte	0x50
 3811 02ee 31000000 		.4byte	.LVL2-1
 3812 02f2 36000000 		.4byte	.LVL3
 3813 02f6 0400     		.2byte	0x4
 3814 02f8 F3       		.byte	0xf3
 3815 02f9 01       		.uleb128 0x1
 3816 02fa 50       		.byte	0x50
 3817 02fb 9F       		.byte	0x9f
 3818 02fc 36000000 		.4byte	.LVL3
 3819 0300 A0000000 		.4byte	.LFE39
 3820 0304 0100     		.2byte	0x1
 3821 0306 50       		.byte	0x50
 3822 0307 00000000 		.4byte	0
 3823 030b 00000000 		.4byte	0
 3824              	.LLST2:
 3825 030f 00000000 		.4byte	.LVL0
 3826 0313 2E000000 		.4byte	.LVL1
 3827 0317 0100     		.2byte	0x1
 3828 0319 51       		.byte	0x51
 3829 031a 2E000000 		.4byte	.LVL1
 3830 031e 36000000 		.4byte	.LVL3
 3831 0322 0400     		.2byte	0x4
 3832 0324 F3       		.byte	0xf3
 3833 0325 01       		.uleb128 0x1
 3834 0326 51       		.byte	0x51
 3835 0327 9F       		.byte	0x9f
 3836 0328 36000000 		.4byte	.LVL3
 3837 032c A0000000 		.4byte	.LFE39
 3838 0330 0100     		.2byte	0x1
 3839 0332 51       		.byte	0x51
 3840 0333 00000000 		.4byte	0
 3841 0337 00000000 		.4byte	0
 3842              	.LLST3:
 3843 033b 00000000 		.4byte	.LVL0
 3844 033f 31000000 		.4byte	.LVL2-1
 3845 0343 0100     		.2byte	0x1
 3846 0345 52       		.byte	0x52
 3847 0346 31000000 		.4byte	.LVL2-1
 3848 034a 36000000 		.4byte	.LVL3
 3849 034e 0400     		.2byte	0x4
 3850 0350 F3       		.byte	0xf3
ARM GAS  C:\Users\EBANO_~1\AppData\Local\Temp\ccXyQ0sk.s 			page 72


 3851 0351 01       		.uleb128 0x1
 3852 0352 52       		.byte	0x52
 3853 0353 9F       		.byte	0x9f
 3854 0354 36000000 		.4byte	.LVL3
 3855 0358 A0000000 		.4byte	.LFE39
 3856 035c 0100     		.2byte	0x1
 3857 035e 52       		.byte	0x52
 3858 035f 00000000 		.4byte	0
 3859 0363 00000000 		.4byte	0
 3860              		.section	.debug_aranges,"",%progbits
 3861 0000 3C000000 		.4byte	0x3c
 3862 0004 0200     		.2byte	0x2
 3863 0006 00000000 		.4byte	.Ldebug_info0
 3864 000a 04       		.byte	0x4
 3865 000b 00       		.byte	0
 3866 000c 0000     		.2byte	0
 3867 000e 0000     		.2byte	0
 3868 0010 00000000 		.4byte	.LFB39
 3869 0014 A0000000 		.4byte	.LFE39-.LFB39
 3870 0018 00000000 		.4byte	.LFB40
 3871 001c 70000000 		.4byte	.LFE40-.LFB40
 3872 0020 00000000 		.4byte	.LFB41
 3873 0024 54000000 		.4byte	.LFE41-.LFB41
 3874 0028 00000000 		.4byte	.LFB42
 3875 002c 0A000000 		.4byte	.LFE42-.LFB42
 3876 0030 00000000 		.4byte	.LFB43
 3877 0034 08000000 		.4byte	.LFE43-.LFB43
 3878 0038 00000000 		.4byte	0
 3879 003c 00000000 		.4byte	0
 3880              		.section	.debug_ranges,"",%progbits
 3881              	.Ldebug_ranges0:
 3882 0000 02000000 		.4byte	.LBB11
 3883 0004 04000000 		.4byte	.LBE11
 3884 0008 06000000 		.4byte	.LBB14
 3885 000c 36000000 		.4byte	.LBE14
 3886 0010 00000000 		.4byte	0
 3887 0014 00000000 		.4byte	0
 3888 0018 00000000 		.4byte	.LBB15
 3889 001c 06000000 		.4byte	.LBE15
 3890 0020 08000000 		.4byte	.LBB18
 3891 0024 34000000 		.4byte	.LBE18
 3892 0028 00000000 		.4byte	0
 3893 002c 00000000 		.4byte	0
 3894 0030 00000000 		.4byte	.LFB39
 3895 0034 A0000000 		.4byte	.LFE39
 3896 0038 00000000 		.4byte	.LFB40
 3897 003c 70000000 		.4byte	.LFE40
 3898 0040 00000000 		.4byte	.LFB41
 3899 0044 54000000 		.4byte	.LFE41
 3900 0048 00000000 		.4byte	.LFB42
 3901 004c 0A000000 		.4byte	.LFE42
 3902 0050 00000000 		.4byte	.LFB43
 3903 0054 08000000 		.4byte	.LFE43
 3904 0058 00000000 		.4byte	0
 3905 005c 00000000 		.4byte	0
 3906              		.section	.debug_line,"",%progbits
 3907              	.Ldebug_line0:
ARM GAS  C:\Users\EBANO_~1\AppData\Local\Temp\ccXyQ0sk.s 			page 73


 3908 0000 A2030000 		.section	.debug_str,"MS",%progbits,1
 3908      0200F702 
 3908      00000201 
 3908      FB0E0D00 
 3908      01010101 
 3909              	.LASF203:
 3910 0000 53706565 		.ascii	"Speed\000"
 3910      6400
 3911              	.LASF198:
 3912 0006 41504231 		.ascii	"APB1SMENR\000"
 3912      534D454E 
 3912      5200
 3913              	.LASF121:
 3914 0010 5F5F6C6F 		.ascii	"__locale_t\000"
 3914      63616C65 
 3914      5F7400
 3915              	.LASF20:
 3916 001b 5F5F7661 		.ascii	"__value\000"
 3916      6C756500 
 3917              	.LASF89:
 3918 0023 5F5F7366 		.ascii	"__sf\000"
 3918      00
 3919              	.LASF176:
 3920 0028 4F535045 		.ascii	"OSPEEDR\000"
 3920      45445200 
 3921              	.LASF56:
 3922 0030 5F726561 		.ascii	"_read\000"
 3922      6400
 3923              	.LASF167:
 3924 0036 524E475F 		.ascii	"RNG_LPUART1_IRQn\000"
 3924      4C505541 
 3924      5254315F 
 3924      4952516E 
 3924      00
 3925              	.LASF57:
 3926 0047 5F777269 		.ascii	"_write\000"
 3926      746500
 3927              	.LASF100:
 3928 004e 5F617363 		.ascii	"_asctime_buf\000"
 3928      74696D65 
 3928      5F627566 
 3928      00
 3929              	.LASF83:
 3930 005b 5F637674 		.ascii	"_cvtlen\000"
 3930      6C656E00 
 3931              	.LASF136:
 3932 0063 5356435F 		.ascii	"SVC_IRQn\000"
 3932      4952516E 
 3932      00
 3933              	.LASF143:
 3934 006c 5243435F 		.ascii	"RCC_CRS_IRQn\000"
 3934      4352535F 
 3934      4952516E 
 3934      00
 3935              	.LASF119:
 3936 0079 5F756E75 		.ascii	"_unused\000"
 3936      73656400 
ARM GAS  C:\Users\EBANO_~1\AppData\Local\Temp\ccXyQ0sk.s 			page 74


 3937              	.LASF30:
 3938 0081 5F5F746D 		.ascii	"__tm\000"
 3938      00
 3939              	.LASF115:
 3940 0086 5F776373 		.ascii	"_wcsrtombs_state\000"
 3940      72746F6D 
 3940      62735F73 
 3940      74617465 
 3940      00
 3941              	.LASF61:
 3942 0097 5F6E6275 		.ascii	"_nbuf\000"
 3942      6600
 3943              	.LASF31:
 3944 009d 5F5F746D 		.ascii	"__tm_sec\000"
 3944      5F736563 
 3944      00
 3945              	.LASF108:
 3946 00a6 5F6C3634 		.ascii	"_l64a_buf\000"
 3946      615F6275 
 3946      6600
 3947              	.LASF142:
 3948 00b0 464C4153 		.ascii	"FLASH_IRQn\000"
 3948      485F4952 
 3948      516E00
 3949              	.LASF181:
 3950 00bb 49435343 		.ascii	"ICSCR\000"
 3950      5200
 3951              	.LASF135:
 3952 00c1 48617264 		.ascii	"HardFault_IRQn\000"
 3952      4661756C 
 3952      745F4952 
 3952      516E00
 3953              	.LASF65:
 3954 00d0 5F6C6F63 		.ascii	"_lock\000"
 3954      6B00
 3955              	.LASF144:
 3956 00d6 45585449 		.ascii	"EXTI0_1_IRQn\000"
 3956      305F315F 
 3956      4952516E 
 3956      00
 3957              	.LASF96:
 3958 00e3 5F6D756C 		.ascii	"_mult\000"
 3958      7400
 3959              	.LASF154:
 3960 00e9 54494D32 		.ascii	"TIM2_IRQn\000"
 3960      5F495251 
 3960      6E00
 3961              	.LASF231:
 3962 00f3 4D53505F 		.ascii	"MSP_GetIRQn\000"
 3962      47657449 
 3962      52516E00 
 3963              	.LASF222:
 3964 00ff 7072696F 		.ascii	"prio\000"
 3964      00
 3965              	.LASF17:
 3966 0104 5F5F7763 		.ascii	"__wch\000"
 3966      6800
ARM GAS  C:\Users\EBANO_~1\AppData\Local\Temp\ccXyQ0sk.s 			page 75


 3967              	.LASF6:
 3968 010a 5F5F7569 		.ascii	"__uint8_t\000"
 3968      6E74385F 
 3968      7400
 3969              	.LASF229:
 3970 0114 48414C5F 		.ascii	"HAL_GPIO_ReadPin\000"
 3970      4750494F 
 3970      5F526561 
 3970      6450696E 
 3970      00
 3971              	.LASF164:
 3972 0125 53504932 		.ascii	"SPI2_IRQn\000"
 3972      5F495251 
 3972      6E00
 3973              	.LASF53:
 3974 012f 5F66696C 		.ascii	"_file\000"
 3974      6500
 3975              	.LASF240:
 3976 0135 50696E50 		.ascii	"PinPos\000"
 3976      6F7300
 3977              	.LASF40:
 3978 013c 5F6F6E5F 		.ascii	"_on_exit_args\000"
 3978      65786974 
 3978      5F617267 
 3978      7300
 3979              	.LASF207:
 3980 014a 4750494F 		.ascii	"GPIO_PIN_SET\000"
 3980      5F50494E 
 3980      5F534554 
 3980      00
 3981              	.LASF196:
 3982 0157 41484253 		.ascii	"AHBSMENR\000"
 3982      4D454E52 
 3982      00
 3983              	.LASF195:
 3984 0160 494F5053 		.ascii	"IOPSMENR\000"
 3984      4D454E52 
 3984      00
 3985              	.LASF111:
 3986 0169 5F6D6272 		.ascii	"_mbrlen_state\000"
 3986      6C656E5F 
 3986      73746174 
 3986      6500
 3987              	.LASF9:
 3988 0177 6C6F6E67 		.ascii	"long int\000"
 3988      20696E74 
 3988      00
 3989              	.LASF122:
 3990 0180 5F696D70 		.ascii	"_impure_ptr\000"
 3990      7572655F 
 3990      70747200 
 3991              	.LASF80:
 3992 018c 5F726573 		.ascii	"_result_k\000"
 3992      756C745F 
 3992      6B00
 3993              	.LASF50:
 3994 0196 5F73697A 		.ascii	"_size\000"
ARM GAS  C:\Users\EBANO_~1\AppData\Local\Temp\ccXyQ0sk.s 			page 76


 3994      6500
 3995              	.LASF101:
 3996 019c 5F6C6F63 		.ascii	"_localtime_buf\000"
 3996      616C7469 
 3996      6D655F62 
 3996      756600
 3997              	.LASF159:
 3998 01ab 49324333 		.ascii	"I2C3_IRQn\000"
 3998      5F495251 
 3998      6E00
 3999              	.LASF208:
 4000 01b5 4750494F 		.ascii	"GPIO_PinState\000"
 4000      5F50696E 
 4000      53746174 
 4000      6500
 4001              	.LASF35:
 4002 01c3 5F5F746D 		.ascii	"__tm_mon\000"
 4002      5F6D6F6E 
 4002      00
 4003              	.LASF193:
 4004 01cc 41504232 		.ascii	"APB2ENR\000"
 4004      454E5200 
 4005              	.LASF227:
 4006 01d4 696E6974 		.ascii	"initStruct\000"
 4006      53747275 
 4006      637400
 4007              	.LASF138:
 4008 01df 53797354 		.ascii	"SysTick_IRQn\000"
 4008      69636B5F 
 4008      4952516E 
 4008      00
 4009              	.LASF218:
 4010 01ec 48575F47 		.ascii	"HW_GPIO_IrqHandler\000"
 4010      50494F5F 
 4010      49727148 
 4010      616E646C 
 4010      657200
 4011              	.LASF98:
 4012 01ff 5F756E75 		.ascii	"_unused_rand\000"
 4012      7365645F 
 4012      72616E64 
 4012      00
 4013              	.LASF3:
 4014 020c 7369676E 		.ascii	"signed char\000"
 4014      65642063 
 4014      68617200 
 4015              	.LASF131:
 4016 0218 75696E74 		.ascii	"uint8_t\000"
 4016      385F7400 
 4017              	.LASF205:
 4018 0220 4750494F 		.ascii	"GPIO_InitTypeDef\000"
 4018      5F496E69 
 4018      74547970 
 4018      65446566 
 4018      00
 4019              	.LASF146:
 4020 0231 45585449 		.ascii	"EXTI4_15_IRQn\000"
ARM GAS  C:\Users\EBANO_~1\AppData\Local\Temp\ccXyQ0sk.s 			page 77


 4020      345F3135 
 4020      5F495251 
 4020      6E00
 4021              	.LASF4:
 4022 023f 756E7369 		.ascii	"unsigned char\000"
 4022      676E6564 
 4022      20636861 
 4022      7200
 4023              	.LASF162:
 4024 024d 49324332 		.ascii	"I2C2_IRQn\000"
 4024      5F495251 
 4024      6E00
 4025              	.LASF168:
 4026 0257 5553425F 		.ascii	"USB_IRQn\000"
 4026      4952516E 
 4026      00
 4027              	.LASF75:
 4028 0260 5F756E73 		.ascii	"_unspecified_locale_info\000"
 4028      70656369 
 4028      66696564 
 4028      5F6C6F63 
 4028      616C655F 
 4029              	.LASF68:
 4030 0279 5F726565 		.ascii	"_reent\000"
 4030      6E7400
 4031              	.LASF123:
 4032 0280 5F676C6F 		.ascii	"_global_impure_ptr\000"
 4032      62616C5F 
 4032      696D7075 
 4032      72655F70 
 4032      747200
 4033              	.LASF220:
 4034 0293 42697450 		.ascii	"BitPos\000"
 4034      6F7300
 4035              	.LASF148:
 4036 029a 444D4131 		.ascii	"DMA1_Channel1_IRQn\000"
 4036      5F436861 
 4036      6E6E656C 
 4036      315F4952 
 4036      516E00
 4037              	.LASF216:
 4038 02ad 76616C75 		.ascii	"value\000"
 4038      6500
 4039              	.LASF152:
 4040 02b3 4C505449 		.ascii	"LPTIM1_IRQn\000"
 4040      4D315F49 
 4040      52516E00 
 4041              	.LASF23:
 4042 02bf 63686172 		.ascii	"char\000"
 4042      00
 4043              	.LASF47:
 4044 02c4 5F666E73 		.ascii	"_fns\000"
 4044      00
 4045              	.LASF59:
 4046 02c9 5F636C6F 		.ascii	"_close\000"
 4046      736500
 4047              	.LASF217:
ARM GAS  C:\Users\EBANO_~1\AppData\Local\Temp\ccXyQ0sk.s 			page 78


 4048 02d0 48575F47 		.ascii	"HW_GPIO_Write\000"
 4048      50494F5F 
 4048      57726974 
 4048      6500
 4049              	.LASF7:
 4050 02de 5F5F7569 		.ascii	"__uint16_t\000"
 4050      6E743136 
 4050      5F7400
 4051              	.LASF237:
 4052 02e9 443A5C67 		.ascii	"D:\\git_pessoal\\keil_gcc\\STM32CubeExpansion_LRWAN"
 4052      69745F70 
 4052      6573736F 
 4052      616C5C6B 
 4052      65696C5F 
 4053 0319 5F56312E 		.ascii	"_V1.2.1\\Projects\\B-L072Z-LRWAN1\\Applications\\Lo"
 4053      322E315C 
 4053      50726F6A 
 4053      65637473 
 4053      5C422D4C 
 4054 0348 52615C45 		.ascii	"Ra\\End_Node\\MDK-ARM\000"
 4054      6E645F4E 
 4054      6F64655C 
 4054      4D444B2D 
 4054      41524D00 
 4055              	.LASF70:
 4056 035c 5F737464 		.ascii	"_stdin\000"
 4056      696E00
 4057              	.LASF211:
 4058 0363 5F74696D 		.ascii	"_timezone\000"
 4058      657A6F6E 
 4058      6500
 4059              	.LASF166:
 4060 036d 55534152 		.ascii	"USART2_IRQn\000"
 4060      54325F49 
 4060      52516E00 
 4061              	.LASF214:
 4062 0379 4750494F 		.ascii	"GPIOx\000"
 4062      7800
 4063              	.LASF232:
 4064 037f 48414C5F 		.ascii	"HAL_NVIC_SetPriority\000"
 4064      4E564943 
 4064      5F536574 
 4064      5072696F 
 4064      72697479 
 4065              	.LASF213:
 4066 0394 5F747A6E 		.ascii	"_tzname\000"
 4066      616D6500 
 4067              	.LASF55:
 4068 039c 5F636F6F 		.ascii	"_cookie\000"
 4068      6B696500 
 4069              	.LASF28:
 4070 03a4 5F776473 		.ascii	"_wds\000"
 4070      00
 4071              	.LASF182:
 4072 03a9 43525243 		.ascii	"CRRCR\000"
 4072      5200
 4073              	.LASF120:
ARM GAS  C:\Users\EBANO_~1\AppData\Local\Temp\ccXyQ0sk.s 			page 79


 4074 03af 5F5F6C6F 		.ascii	"__lock\000"
 4074      636B00
 4075              	.LASF87:
 4076 03b6 5F736967 		.ascii	"_sig_func\000"
 4076      5F66756E 
 4076      6300
 4077              	.LASF183:
 4078 03c0 43464752 		.ascii	"CFGR\000"
 4078      00
 4079              	.LASF63:
 4080 03c5 5F6F6666 		.ascii	"_offset\000"
 4080      73657400 
 4081              	.LASF225:
 4082 03cd 48575F47 		.ascii	"HW_GPIO_Init\000"
 4082      50494F5F 
 4082      496E6974 
 4082      00
 4083              	.LASF173:
 4084 03da 504C4C4D 		.ascii	"PLLMulTable\000"
 4084      756C5461 
 4084      626C6500 
 4085              	.LASF84:
 4086 03e6 5F637674 		.ascii	"_cvtbuf\000"
 4086      62756600 
 4087              	.LASF210:
 4088 03ee 4770696F 		.ascii	"GpioIrqHandler\000"
 4088      49727148 
 4088      616E646C 
 4088      657200
 4089              	.LASF134:
 4090 03fd 4E6F6E4D 		.ascii	"NonMaskableInt_IRQn\000"
 4090      61736B61 
 4090      626C6549 
 4090      6E745F49 
 4090      52516E00 
 4091              	.LASF199:
 4092 0411 43434950 		.ascii	"CCIPR\000"
 4092      5200
 4093              	.LASF130:
 4094 0417 5F5F6664 		.ascii	"__fdlib_version\000"
 4094      6C69625F 
 4094      76657273 
 4094      696F6E00 
 4095              	.LASF139:
 4096 0427 57574447 		.ascii	"WWDG_IRQn\000"
 4096      5F495251 
 4096      6E00
 4097              	.LASF81:
 4098 0431 5F703573 		.ascii	"_p5s\000"
 4098      00
 4099              	.LASF11:
 4100 0436 6C6F6E67 		.ascii	"long unsigned int\000"
 4100      20756E73 
 4100      69676E65 
 4100      6420696E 
 4100      7400
 4101              	.LASF51:
ARM GAS  C:\Users\EBANO_~1\AppData\Local\Temp\ccXyQ0sk.s 			page 80


 4102 0448 5F5F7346 		.ascii	"__sFILE\000"
 4102      494C4500 
 4103              	.LASF77:
 4104 0450 5F5F7364 		.ascii	"__sdidinit\000"
 4104      6964696E 
 4104      697400
 4105              	.LASF67:
 4106 045b 5F666C61 		.ascii	"_flags2\000"
 4106      67733200 
 4107              	.LASF170:
 4108 0463 53797374 		.ascii	"SystemCoreClock\000"
 4108      656D436F 
 4108      7265436C 
 4108      6F636B00 
 4109              	.LASF206:
 4110 0473 4750494F 		.ascii	"GPIO_PIN_RESET\000"
 4110      5F50494E 
 4110      5F524553 
 4110      455400
 4111              	.LASF169:
 4112 0482 4952516E 		.ascii	"IRQn_Type\000"
 4112      5F547970 
 4112      6500
 4113              	.LASF69:
 4114 048c 5F657272 		.ascii	"_errno\000"
 4114      6E6F00
 4115              	.LASF109:
 4116 0493 5F736967 		.ascii	"_signal_buf\000"
 4116      6E616C5F 
 4116      62756600 
 4117              	.LASF179:
 4118 049f 4C434B52 		.ascii	"LCKR\000"
 4118      00
 4119              	.LASF29:
 4120 04a4 5F426967 		.ascii	"_Bigint\000"
 4120      696E7400 
 4121              	.LASF26:
 4122 04ac 5F6D6178 		.ascii	"_maxwds\000"
 4122      77647300 
 4123              	.LASF188:
 4124 04b4 41484252 		.ascii	"AHBRSTR\000"
 4124      53545200 
 4125              	.LASF78:
 4126 04bc 5F5F636C 		.ascii	"__cleanup\000"
 4126      65616E75 
 4126      7000
 4127              	.LASF86:
 4128 04c6 5F617465 		.ascii	"_atexit0\000"
 4128      78697430 
 4128      00
 4129              	.LASF127:
 4130 04cf 5F5F6664 		.ascii	"__fdlibm_svid\000"
 4130      6C69626D 
 4130      5F737669 
 4130      6400
 4131              	.LASF236:
 4132 04dd 2E2E2F4C 		.ascii	"../LoRaWAN/App/src/hw_gpio.c\000"
ARM GAS  C:\Users\EBANO_~1\AppData\Local\Temp\ccXyQ0sk.s 			page 81


 4132      6F526157 
 4132      414E2F41 
 4132      70702F73 
 4132      72632F68 
 4133              	.LASF10:
 4134 04fa 5F5F7569 		.ascii	"__uint32_t\000"
 4134      6E743332 
 4134      5F7400
 4135              	.LASF74:
 4136 0505 5F656D65 		.ascii	"_emergency\000"
 4136      7267656E 
 4136      637900
 4137              	.LASF157:
 4138 0510 54494D37 		.ascii	"TIM7_IRQn\000"
 4138      5F495251 
 4138      6E00
 4139              	.LASF1:
 4140 051a 6C6F6E67 		.ascii	"long long int\000"
 4140      206C6F6E 
 4140      6720696E 
 4140      7400
 4141              	.LASF177:
 4142 0528 50555044 		.ascii	"PUPDR\000"
 4142      5200
 4143              	.LASF92:
 4144 052e 5F6E696F 		.ascii	"_niobs\000"
 4144      627300
 4145              	.LASF163:
 4146 0535 53504931 		.ascii	"SPI1_IRQn\000"
 4146      5F495251 
 4146      6E00
 4147              	.LASF88:
 4148 053f 5F5F7367 		.ascii	"__sglue\000"
 4148      6C756500 
 4149              	.LASF118:
 4150 0547 5F6E6D61 		.ascii	"_nmalloc\000"
 4150      6C6C6F63 
 4150      00
 4151              	.LASF125:
 4152 0550 646F7562 		.ascii	"double\000"
 4152      6C6500
 4153              	.LASF102:
 4154 0557 5F67616D 		.ascii	"_gamma_signgam\000"
 4154      6D615F73 
 4154      69676E67 
 4154      616D00
 4155              	.LASF189:
 4156 0566 41504232 		.ascii	"APB2RSTR\000"
 4156      52535452 
 4156      00
 4157              	.LASF82:
 4158 056f 5F667265 		.ascii	"_freelist\000"
 4158      656C6973 
 4158      7400
 4159              	.LASF93:
 4160 0579 5F696F62 		.ascii	"_iobs\000"
 4160      7300
ARM GAS  C:\Users\EBANO_~1\AppData\Local\Temp\ccXyQ0sk.s 			page 82


 4161              	.LASF91:
 4162 057f 5F676C75 		.ascii	"_glue\000"
 4162      6500
 4163              	.LASF27:
 4164 0585 5F736967 		.ascii	"_sign\000"
 4164      6E00
 4165              	.LASF147:
 4166 058b 5453435F 		.ascii	"TSC_IRQn\000"
 4166      4952516E 
 4166      00
 4167              	.LASF124:
 4168 0594 666C6F61 		.ascii	"float\000"
 4168      7400
 4169              	.LASF204:
 4170 059a 416C7465 		.ascii	"Alternate\000"
 4170      726E6174 
 4170      6500
 4171              	.LASF174:
 4172 05a4 4D4F4445 		.ascii	"MODER\000"
 4172      5200
 4173              	.LASF0:
 4174 05aa 756E7369 		.ascii	"unsigned int\000"
 4174      676E6564 
 4174      20696E74 
 4174      00
 4175              	.LASF156:
 4176 05b7 54494D36 		.ascii	"TIM6_DAC_IRQn\000"
 4176      5F444143 
 4176      5F495251 
 4176      6E00
 4177              	.LASF221:
 4178 05c5 48575F47 		.ascii	"HW_GPIO_SetIrq\000"
 4178      50494F5F 
 4178      53657449 
 4178      727100
 4179              	.LASF116:
 4180 05d4 5F685F65 		.ascii	"_h_errno\000"
 4180      72726E6F 
 4180      00
 4181              	.LASF114:
 4182 05dd 5F776372 		.ascii	"_wcrtomb_state\000"
 4182      746F6D62 
 4182      5F737461 
 4182      746500
 4183              	.LASF34:
 4184 05ec 5F5F746D 		.ascii	"__tm_mday\000"
 4184      5F6D6461 
 4184      7900
 4185              	.LASF149:
 4186 05f6 444D4131 		.ascii	"DMA1_Channel2_3_IRQn\000"
 4186      5F436861 
 4186      6E6E656C 
 4186      325F335F 
 4186      4952516E 
 4187              	.LASF85:
 4188 060b 5F6E6577 		.ascii	"_new\000"
 4188      00
ARM GAS  C:\Users\EBANO_~1\AppData\Local\Temp\ccXyQ0sk.s 			page 83


 4189              	.LASF60:
 4190 0610 5F756275 		.ascii	"_ubuf\000"
 4190      6600
 4191              	.LASF72:
 4192 0616 5F737464 		.ascii	"_stderr\000"
 4192      65727200 
 4193              	.LASF107:
 4194 061e 5F776374 		.ascii	"_wctomb_state\000"
 4194      6F6D625F 
 4194      73746174 
 4194      6500
 4195              	.LASF66:
 4196 062c 5F6D6273 		.ascii	"_mbstate\000"
 4196      74617465 
 4196      00
 4197              	.LASF103:
 4198 0635 5F72616E 		.ascii	"_rand_next\000"
 4198      645F6E65 
 4198      787400
 4199              	.LASF52:
 4200 0640 5F666C61 		.ascii	"_flags\000"
 4200      677300
 4201              	.LASF45:
 4202 0647 5F617465 		.ascii	"_atexit\000"
 4202      78697400 
 4203              	.LASF161:
 4204 064f 49324331 		.ascii	"I2C1_IRQn\000"
 4204      5F495251 
 4204      6E00
 4205              	.LASF19:
 4206 0659 5F5F636F 		.ascii	"__count\000"
 4206      756E7400 
 4207              	.LASF37:
 4208 0661 5F5F746D 		.ascii	"__tm_wday\000"
 4208      5F776461 
 4208      7900
 4209              	.LASF2:
 4210 066b 6C6F6E67 		.ascii	"long double\000"
 4210      20646F75 
 4210      626C6500 
 4211              	.LASF38:
 4212 0677 5F5F746D 		.ascii	"__tm_yday\000"
 4212      5F796461 
 4212      7900
 4213              	.LASF202:
 4214 0681 50756C6C 		.ascii	"Pull\000"
 4214      00
 4215              	.LASF201:
 4216 0686 4D6F6465 		.ascii	"Mode\000"
 4216      00
 4217              	.LASF95:
 4218 068b 5F736565 		.ascii	"_seed\000"
 4218      6400
 4219              	.LASF224:
 4220 0691 4952516E 		.ascii	"IRQnb\000"
 4220      6200
 4221              	.LASF58:
ARM GAS  C:\Users\EBANO_~1\AppData\Local\Temp\ccXyQ0sk.s 			page 84


 4222 0697 5F736565 		.ascii	"_seek\000"
 4222      6B00
 4223              	.LASF239:
 4224 069d 48575F47 		.ascii	"HW_GPIO_GetBitPos\000"
 4224      50494F5F 
 4224      47657442 
 4224      6974506F 
 4224      7300
 4225              	.LASF15:
 4226 06af 5F66706F 		.ascii	"_fpos_t\000"
 4226      735F7400 
 4227              	.LASF18:
 4228 06b7 5F5F7763 		.ascii	"__wchb\000"
 4228      686200
 4229              	.LASF190:
 4230 06be 41504231 		.ascii	"APB1RSTR\000"
 4230      52535452 
 4230      00
 4231              	.LASF171:
 4232 06c7 41484250 		.ascii	"AHBPrescTable\000"
 4232      72657363 
 4232      5461626C 
 4232      6500
 4233              	.LASF194:
 4234 06d5 41504231 		.ascii	"APB1ENR\000"
 4234      454E5200 
 4235              	.LASF106:
 4236 06dd 5F6D6274 		.ascii	"_mbtowc_state\000"
 4236      6F77635F 
 4236      73746174 
 4236      6500
 4237              	.LASF12:
 4238 06eb 6C6F6E67 		.ascii	"long long unsigned int\000"
 4238      206C6F6E 
 4238      6720756E 
 4238      7369676E 
 4238      65642069 
 4239              	.LASF132:
 4240 0702 75696E74 		.ascii	"uint16_t\000"
 4240      31365F74 
 4240      00
 4241              	.LASF42:
 4242 070b 5F64736F 		.ascii	"_dso_handle\000"
 4242      5F68616E 
 4242      646C6500 
 4243              	.LASF150:
 4244 0717 444D4131 		.ascii	"DMA1_Channel4_5_6_7_IRQn\000"
 4244      5F436861 
 4244      6E6E656C 
 4244      345F355F 
 4244      365F375F 
 4245              	.LASF94:
 4246 0730 5F72616E 		.ascii	"_rand48\000"
 4246      64343800 
 4247              	.LASF155:
 4248 0738 54494D33 		.ascii	"TIM3_IRQn\000"
 4248      5F495251 
ARM GAS  C:\Users\EBANO_~1\AppData\Local\Temp\ccXyQ0sk.s 			page 85


 4248      6E00
 4249              	.LASF71:
 4250 0742 5F737464 		.ascii	"_stdout\000"
 4250      6F757400 
 4251              	.LASF165:
 4252 074a 55534152 		.ascii	"USART1_IRQn\000"
 4252      54315F49 
 4252      52516E00 
 4253              	.LASF238:
 4254 0756 5F5F6664 		.ascii	"__fdlibm_version\000"
 4254      6C69626D 
 4254      5F766572 
 4254      73696F6E 
 4254      00
 4255              	.LASF62:
 4256 0767 5F626C6B 		.ascii	"_blksize\000"
 4256      73697A65 
 4256      00
 4257              	.LASF49:
 4258 0770 5F626173 		.ascii	"_base\000"
 4258      6500
 4259              	.LASF191:
 4260 0776 494F5045 		.ascii	"IOPENR\000"
 4260      4E5200
 4261              	.LASF99:
 4262 077d 5F737472 		.ascii	"_strtok_last\000"
 4262      746F6B5F 
 4262      6C617374 
 4262      00
 4263              	.LASF112:
 4264 078a 5F6D6272 		.ascii	"_mbrtowc_state\000"
 4264      746F7763 
 4264      5F737461 
 4264      746500
 4265              	.LASF22:
 4266 0799 5F666C6F 		.ascii	"_flock_t\000"
 4266      636B5F74 
 4266      00
 4267              	.LASF90:
 4268 07a2 5F5F4649 		.ascii	"__FILE\000"
 4268      4C4500
 4269              	.LASF21:
 4270 07a9 5F6D6273 		.ascii	"_mbstate_t\000"
 4270      74617465 
 4270      5F7400
 4271              	.LASF104:
 4272 07b4 5F723438 		.ascii	"_r48\000"
 4272      00
 4273              	.LASF140:
 4274 07b9 5056445F 		.ascii	"PVD_IRQn\000"
 4274      4952516E 
 4274      00
 4275              	.LASF16:
 4276 07c2 77696E74 		.ascii	"wint_t\000"
 4276      5F7400
 4277              	.LASF175:
 4278 07c9 4F545950 		.ascii	"OTYPER\000"
ARM GAS  C:\Users\EBANO_~1\AppData\Local\Temp\ccXyQ0sk.s 			page 86


 4278      455200
 4279              	.LASF25:
 4280 07d0 5F6E6578 		.ascii	"_next\000"
 4280      7400
 4281              	.LASF228:
 4282 07d6 746D7072 		.ascii	"tmpreg\000"
 4282      656700
 4283              	.LASF64:
 4284 07dd 5F646174 		.ascii	"_data\000"
 4284      6100
 4285              	.LASF233:
 4286 07e3 48414C5F 		.ascii	"HAL_NVIC_EnableIRQ\000"
 4286      4E564943 
 4286      5F456E61 
 4286      626C6549 
 4286      525100
 4287              	.LASF219:
 4288 07f6 4770696F 		.ascii	"GpioIrq\000"
 4288      49727100 
 4289              	.LASF215:
 4290 07fe 4750494F 		.ascii	"GPIO_Pin\000"
 4290      5F50696E 
 4290      00
 4291              	.LASF158:
 4292 0807 54494D32 		.ascii	"TIM21_IRQn\000"
 4292      315F4952 
 4292      516E00
 4293              	.LASF129:
 4294 0812 5F5F6664 		.ascii	"__fdlibm_posix\000"
 4294      6C69626D 
 4294      5F706F73 
 4294      697800
 4295              	.LASF226:
 4296 0821 706F7274 		.ascii	"port\000"
 4296      00
 4297              	.LASF172:
 4298 0826 41504250 		.ascii	"APBPrescTable\000"
 4298      72657363 
 4298      5461626C 
 4298      6500
 4299              	.LASF234:
 4300 0834 48414C5F 		.ascii	"HAL_GPIO_Init\000"
 4300      4750494F 
 4300      5F496E69 
 4300      7400
 4301              	.LASF200:
 4302 0842 5243435F 		.ascii	"RCC_TypeDef\000"
 4302      54797065 
 4302      44656600 
 4303              	.LASF151:
 4304 084e 41444331 		.ascii	"ADC1_COMP_IRQn\000"
 4304      5F434F4D 
 4304      505F4952 
 4304      516E00
 4305              	.LASF105:
 4306 085d 5F6D626C 		.ascii	"_mblen_state\000"
 4306      656E5F73 
ARM GAS  C:\Users\EBANO_~1\AppData\Local\Temp\ccXyQ0sk.s 			page 87


 4306      74617465 
 4306      00
 4307              	.LASF5:
 4308 086a 73686F72 		.ascii	"short int\000"
 4308      7420696E 
 4308      7400
 4309              	.LASF128:
 4310 0874 5F5F6664 		.ascii	"__fdlibm_xopen\000"
 4310      6C69626D 
 4310      5F786F70 
 4310      656E00
 4311              	.LASF235:
 4312 0883 474E5520 		.ascii	"GNU C11 7.3.1 20180622 (release) [ARM/embedded-7-br"
 4312      43313120 
 4312      372E332E 
 4312      31203230 
 4312      31383036 
 4313 08b6 616E6368 		.ascii	"anch revision 261907] -mcpu=cortex-m0plus -mthumb -"
 4313      20726576 
 4313      6973696F 
 4313      6E203236 
 4313      31393037 
 4314 08e9 6D666C6F 		.ascii	"mfloat-abi=soft -gdwarf-2 -O3 -ffunction-sections\000"
 4314      61742D61 
 4314      62693D73 
 4314      6F667420 
 4314      2D676477 
 4315              	.LASF209:
 4316 091b 7375626F 		.ascii	"suboptarg\000"
 4316      70746172 
 4316      6700
 4317              	.LASF43:
 4318 0925 5F666E74 		.ascii	"_fntypes\000"
 4318      79706573 
 4318      00
 4319              	.LASF241:
 4320 092e 48575F47 		.ascii	"HW_GPIO_Read\000"
 4320      50494F5F 
 4320      52656164 
 4320      00
 4321              	.LASF36:
 4322 093b 5F5F746D 		.ascii	"__tm_year\000"
 4322      5F796561 
 4322      7200
 4323              	.LASF192:
 4324 0945 41484245 		.ascii	"AHBENR\000"
 4324      4E5200
 4325              	.LASF186:
 4326 094c 43494352 		.ascii	"CICR\000"
 4326      00
 4327              	.LASF178:
 4328 0951 42535252 		.ascii	"BSRR\000"
 4328      00
 4329              	.LASF180:
 4330 0956 4750494F 		.ascii	"GPIO_TypeDef\000"
 4330      5F547970 
 4330      65446566 
ARM GAS  C:\Users\EBANO_~1\AppData\Local\Temp\ccXyQ0sk.s 			page 88


 4330      00
 4331              	.LASF54:
 4332 0963 5F6C6266 		.ascii	"_lbfsize\000"
 4332      73697A65 
 4332      00
 4333              	.LASF73:
 4334 096c 5F696E63 		.ascii	"_inc\000"
 4334      00
 4335              	.LASF46:
 4336 0971 5F696E64 		.ascii	"_ind\000"
 4336      00
 4337              	.LASF153:
 4338 0976 55534152 		.ascii	"USART4_5_IRQn\000"
 4338      54345F35 
 4338      5F495251 
 4338      6E00
 4339              	.LASF126:
 4340 0984 5F5F6664 		.ascii	"__fdlibm_ieee\000"
 4340      6C69626D 
 4340      5F696565 
 4340      6500
 4341              	.LASF48:
 4342 0992 5F5F7362 		.ascii	"__sbuf\000"
 4342      756600
 4343              	.LASF44:
 4344 0999 5F69735F 		.ascii	"_is_cxa\000"
 4344      63786100 
 4345              	.LASF13:
 4346 09a1 5F4C4F43 		.ascii	"_LOCK_T\000"
 4346      4B5F5400 
 4347              	.LASF117:
 4348 09a9 5F6E6578 		.ascii	"_nextf\000"
 4348      746600
 4349              	.LASF76:
 4350 09b0 5F6C6F63 		.ascii	"_locale\000"
 4350      616C6500 
 4351              	.LASF24:
 4352 09b8 5F5F554C 		.ascii	"__ULong\000"
 4352      6F6E6700 
 4353              	.LASF133:
 4354 09c0 75696E74 		.ascii	"uint32_t\000"
 4354      33325F74 
 4354      00
 4355              	.LASF79:
 4356 09c9 5F726573 		.ascii	"_result\000"
 4356      756C7400 
 4357              	.LASF145:
 4358 09d1 45585449 		.ascii	"EXTI2_3_IRQn\000"
 4358      325F335F 
 4358      4952516E 
 4358      00
 4359              	.LASF230:
 4360 09de 48414C5F 		.ascii	"HAL_GPIO_WritePin\000"
 4360      4750494F 
 4360      5F577269 
 4360      74655069 
 4360      6E00
ARM GAS  C:\Users\EBANO_~1\AppData\Local\Temp\ccXyQ0sk.s 			page 89


 4361              	.LASF184:
 4362 09f0 43494552 		.ascii	"CIER\000"
 4362      00
 4363              	.LASF14:
 4364 09f5 5F6F6666 		.ascii	"_off_t\000"
 4364      5F7400
 4365              	.LASF97:
 4366 09fc 5F616464 		.ascii	"_add\000"
 4366      00
 4367              	.LASF8:
 4368 0a01 73686F72 		.ascii	"short unsigned int\000"
 4368      7420756E 
 4368      7369676E 
 4368      65642069 
 4368      6E7400
 4369              	.LASF33:
 4370 0a14 5F5F746D 		.ascii	"__tm_hour\000"
 4370      5F686F75 
 4370      7200
 4371              	.LASF197:
 4372 0a1e 41504232 		.ascii	"APB2SMENR\000"
 4372      534D454E 
 4372      5200
 4373              	.LASF137:
 4374 0a28 50656E64 		.ascii	"PendSV_IRQn\000"
 4374      53565F49 
 4374      52516E00 
 4375              	.LASF113:
 4376 0a34 5F6D6273 		.ascii	"_mbsrtowcs_state\000"
 4376      72746F77 
 4376      63735F73 
 4376      74617465 
 4376      00
 4377              	.LASF185:
 4378 0a45 43494652 		.ascii	"CIFR\000"
 4378      00
 4379              	.LASF41:
 4380 0a4a 5F666E61 		.ascii	"_fnargs\000"
 4380      72677300 
 4381              	.LASF39:
 4382 0a52 5F5F746D 		.ascii	"__tm_isdst\000"
 4382      5F697364 
 4382      737400
 4383              	.LASF160:
 4384 0a5d 54494D32 		.ascii	"TIM22_IRQn\000"
 4384      325F4952 
 4384      516E00
 4385              	.LASF212:
 4386 0a68 5F646179 		.ascii	"_daylight\000"
 4386      6C696768 
 4386      7400
 4387              	.LASF187:
 4388 0a72 494F5052 		.ascii	"IOPRSTR\000"
 4388      53545200 
 4389              	.LASF32:
 4390 0a7a 5F5F746D 		.ascii	"__tm_min\000"
 4390      5F6D696E 
ARM GAS  C:\Users\EBANO_~1\AppData\Local\Temp\ccXyQ0sk.s 			page 90


 4390      00
 4391              	.LASF110:
 4392 0a83 5F676574 		.ascii	"_getdate_err\000"
 4392      64617465 
 4392      5F657272 
 4392      00
 4393              	.LASF141:
 4394 0a90 5254435F 		.ascii	"RTC_IRQn\000"
 4394      4952516E 
 4394      00
 4395              	.LASF223:
 4396 0a99 69727148 		.ascii	"irqHandler\000"
 4396      616E646C 
 4396      657200
 4397              		.ident	"GCC: (GNU Tools for Arm Embedded Processors 7-2018-q2-update) 7.3.1 20180622 (release) [AR
ARM GAS  C:\Users\EBANO_~1\AppData\Local\Temp\ccXyQ0sk.s 			page 91


DEFINED SYMBOLS
                            *ABS*:00000000 hw_gpio.c
C:\Users\EBANO_~1\AppData\Local\Temp\ccXyQ0sk.s:16     .text.HW_GPIO_Init:00000000 $t
C:\Users\EBANO_~1\AppData\Local\Temp\ccXyQ0sk.s:24     .text.HW_GPIO_Init:00000000 HW_GPIO_Init
C:\Users\EBANO_~1\AppData\Local\Temp\ccXyQ0sk.s:143    .text.HW_GPIO_Init:00000090 $d
C:\Users\EBANO_~1\AppData\Local\Temp\ccXyQ0sk.s:151    .text.HW_GPIO_SetIrq:00000000 $t
C:\Users\EBANO_~1\AppData\Local\Temp\ccXyQ0sk.s:159    .text.HW_GPIO_SetIrq:00000000 HW_GPIO_SetIrq
C:\Users\EBANO_~1\AppData\Local\Temp\ccXyQ0sk.s:265    .text.HW_GPIO_SetIrq:00000060 $d
C:\Users\EBANO_~1\AppData\Local\Temp\ccXyQ0sk.s:273    .text.HW_GPIO_IrqHandler:00000000 $t
C:\Users\EBANO_~1\AppData\Local\Temp\ccXyQ0sk.s:281    .text.HW_GPIO_IrqHandler:00000000 HW_GPIO_IrqHandler
C:\Users\EBANO_~1\AppData\Local\Temp\ccXyQ0sk.s:361    .text.HW_GPIO_IrqHandler:00000044 $d
C:\Users\EBANO_~1\AppData\Local\Temp\ccXyQ0sk.s:369    .text.HW_GPIO_Write:00000000 $t
C:\Users\EBANO_~1\AppData\Local\Temp\ccXyQ0sk.s:377    .text.HW_GPIO_Write:00000000 HW_GPIO_Write
C:\Users\EBANO_~1\AppData\Local\Temp\ccXyQ0sk.s:401    .text.HW_GPIO_Read:00000000 $t
C:\Users\EBANO_~1\AppData\Local\Temp\ccXyQ0sk.s:409    .text.HW_GPIO_Read:00000000 HW_GPIO_Read
C:\Users\EBANO_~1\AppData\Local\Temp\ccXyQ0sk.s:431    .bss:00000000 $d
C:\Users\EBANO_~1\AppData\Local\Temp\ccXyQ0sk.s:435    .bss:00000000 GpioIrq

UNDEFINED SYMBOLS
HAL_GPIO_Init
MSP_GetIRQn
HAL_NVIC_SetPriority
HAL_NVIC_EnableIRQ
HAL_GPIO_WritePin
HAL_GPIO_ReadPin
