ARM GAS  C:\Users\EBANO_~1\AppData\Local\Temp\ccXyQ0sk.s 			page 1


   1              		.cpu cortex-m0plus
   2              		.eabi_attribute 20, 1
   3              		.eabi_attribute 21, 1
   4              		.eabi_attribute 23, 3
   5              		.eabi_attribute 24, 1
   6              		.eabi_attribute 25, 1
   7              		.eabi_attribute 26, 1
   8              		.eabi_attribute 30, 2
   9              		.eabi_attribute 34, 0
  10              		.eabi_attribute 18, 4
  11              		.file	"hw_gpio.c"
  12              		.text
  13              	.Ltext0:
  14              		.cfi_sections	.debug_frame
  15              		.section	.text.HW_GPIO_Init,"ax",%progbits
  16              		.align	1
  17              		.p2align 2,,3
  18              		.global	HW_GPIO_Init
  19              		.syntax unified
  20              		.code	16
  21              		.thumb_func
  22              		.fpu softvfp
  23              		.type	HW_GPIO_Init, %function
  24              	HW_GPIO_Init:
  25              	.LFB39:
  26              		.file 1 "../LoRaWAN/App/src/hw_gpio.c"
   1:../LoRaWAN/App/src/hw_gpio.c **** /*
   2:../LoRaWAN/App/src/hw_gpio.c ****  / _____)             _              | |
   3:../LoRaWAN/App/src/hw_gpio.c **** ( (____  _____ ____ _| |_ _____  ____| |__
   4:../LoRaWAN/App/src/hw_gpio.c ****  \____ \| ___ |    (_   _) ___ |/ ___)  _ \
   5:../LoRaWAN/App/src/hw_gpio.c ****  _____) ) ____| | | || |_| ____( (___| | | |
   6:../LoRaWAN/App/src/hw_gpio.c **** (______/|_____)_|_|_| \__)_____)\____)_| |_|
   7:../LoRaWAN/App/src/hw_gpio.c ****     (C)2013 Semtech
   8:../LoRaWAN/App/src/hw_gpio.c **** 
   9:../LoRaWAN/App/src/hw_gpio.c **** Description: Bleeper board GPIO driver implementation
  10:../LoRaWAN/App/src/hw_gpio.c **** 
  11:../LoRaWAN/App/src/hw_gpio.c **** License: Revised BSD License, see LICENSE.TXT file include in the project
  12:../LoRaWAN/App/src/hw_gpio.c **** 
  13:../LoRaWAN/App/src/hw_gpio.c **** Maintainer: Miguel Luis and Gregory Cristian
  14:../LoRaWAN/App/src/hw_gpio.c **** */
  15:../LoRaWAN/App/src/hw_gpio.c **** /**
  16:../LoRaWAN/App/src/hw_gpio.c ****   ******************************************************************************
  17:../LoRaWAN/App/src/hw_gpio.c ****   * @file    hw_gpio.c
  18:../LoRaWAN/App/src/hw_gpio.c ****   * @author  MCD Application Team
  19:../LoRaWAN/App/src/hw_gpio.c ****   * @brief   driver for GPIO
  20:../LoRaWAN/App/src/hw_gpio.c ****   ******************************************************************************
  21:../LoRaWAN/App/src/hw_gpio.c ****   * @attention
  22:../LoRaWAN/App/src/hw_gpio.c ****   *
  23:../LoRaWAN/App/src/hw_gpio.c ****   * <h2><center>&copy; Copyright (c) 2018 STMicroelectronics.
  24:../LoRaWAN/App/src/hw_gpio.c ****   * All rights reserved.</center></h2>
  25:../LoRaWAN/App/src/hw_gpio.c ****   *
  26:../LoRaWAN/App/src/hw_gpio.c ****   * This software component is licensed by ST under Ultimate Liberty license
  27:../LoRaWAN/App/src/hw_gpio.c ****   * SLA0044, the "License"; You may not use this file except in compliance with
  28:../LoRaWAN/App/src/hw_gpio.c ****   * the License. You may obtain a copy of the License at:
  29:../LoRaWAN/App/src/hw_gpio.c ****   *                             www.st.com/SLA0044
  30:../LoRaWAN/App/src/hw_gpio.c ****   *
  31:../LoRaWAN/App/src/hw_gpio.c ****   ******************************************************************************
ARM GAS  C:\Users\EBANO_~1\AppData\Local\Temp\ccXyQ0sk.s 			page 2


  32:../LoRaWAN/App/src/hw_gpio.c ****   */
  33:../LoRaWAN/App/src/hw_gpio.c **** 
  34:../LoRaWAN/App/src/hw_gpio.c **** /* Includes ------------------------------------------------------------------*/
  35:../LoRaWAN/App/src/hw_gpio.c **** #include "hw.h"
  36:../LoRaWAN/App/src/hw_gpio.c **** 
  37:../LoRaWAN/App/src/hw_gpio.c **** /* Private typedef -----------------------------------------------------------*/
  38:../LoRaWAN/App/src/hw_gpio.c **** /* Private define ------------------------------------------------------------*/
  39:../LoRaWAN/App/src/hw_gpio.c **** /* Private macro -------------------------------------------------------------*/
  40:../LoRaWAN/App/src/hw_gpio.c **** /* Private variables ---------------------------------------------------------*/
  41:../LoRaWAN/App/src/hw_gpio.c **** static GpioIrqHandler *GpioIrq[16] = { NULL };
  42:../LoRaWAN/App/src/hw_gpio.c **** 
  43:../LoRaWAN/App/src/hw_gpio.c **** /* Private function prototypes -----------------------------------------------*/
  44:../LoRaWAN/App/src/hw_gpio.c **** 
  45:../LoRaWAN/App/src/hw_gpio.c **** static uint8_t HW_GPIO_GetBitPos(uint16_t GPIO_Pin);
  46:../LoRaWAN/App/src/hw_gpio.c **** 
  47:../LoRaWAN/App/src/hw_gpio.c **** /* Exported functions ---------------------------------------------------------*/
  48:../LoRaWAN/App/src/hw_gpio.c **** /*!
  49:../LoRaWAN/App/src/hw_gpio.c ****  * @brief Initializes the given GPIO object
  50:../LoRaWAN/App/src/hw_gpio.c ****  *
  51:../LoRaWAN/App/src/hw_gpio.c ****  * @param  GPIOx: where x can be (A..E and H)
  52:../LoRaWAN/App/src/hw_gpio.c ****  * @param  GPIO_Pin: specifies the port bit to be written.
  53:../LoRaWAN/App/src/hw_gpio.c ****  *                   This parameter can be one of GPIO_PIN_x where x can be (0..15).
  54:../LoRaWAN/App/src/hw_gpio.c ****  *                   All port bits are not necessarily available on all GPIOs.
  55:../LoRaWAN/App/src/hw_gpio.c ****  * @param [IN] initStruct  GPIO_InitTypeDef intit structure
  56:../LoRaWAN/App/src/hw_gpio.c ****  * @retval none
  57:../LoRaWAN/App/src/hw_gpio.c ****  */
  58:../LoRaWAN/App/src/hw_gpio.c **** void HW_GPIO_Init( GPIO_TypeDef* port, uint16_t GPIO_Pin, GPIO_InitTypeDef* initStruct)
  59:../LoRaWAN/App/src/hw_gpio.c **** {
  27              		.loc 1 59 0
  28              		.cfi_startproc
  29              		@ args = 0, pretend = 0, frame = 24
  30              		@ frame_needed = 0, uses_anonymous_args = 0
  31              	.LVL0:
  32 0000 30B5     		push	{r4, r5, lr}
  33              	.LCFI0:
  34              		.cfi_def_cfa_offset 12
  35              		.cfi_offset 4, -12
  36              		.cfi_offset 5, -8
  37              		.cfi_offset 14, -4
  60:../LoRaWAN/App/src/hw_gpio.c **** 
  61:../LoRaWAN/App/src/hw_gpio.c ****   RCC_GPIO_CLK_ENABLE(  (uint32_t) port);
  38              		.loc 1 61 0
  39 0002 234B     		ldr	r3, .L11
  59:../LoRaWAN/App/src/hw_gpio.c **** 
  40              		.loc 1 59 0
  41 0004 87B0     		sub	sp, sp, #28
  42              	.LCFI1:
  43              		.cfi_def_cfa_offset 40
  44              		.loc 1 61 0
  45 0006 9842     		cmp	r0, r3
  46 0008 37D0     		beq	.L3
  47 000a 1ED9     		bls	.L10
  48 000c 214B     		ldr	r3, .L11+4
  49 000e 9842     		cmp	r0, r3
  50 0010 11D0     		beq	.L6
  51 0012 214B     		ldr	r3, .L11+8
  52 0014 9842     		cmp	r0, r3
ARM GAS  C:\Users\EBANO_~1\AppData\Local\Temp\ccXyQ0sk.s 			page 3


  53 0016 26D1     		bne	.L2
  54              	.LBB6:
  55              		.loc 1 61 0 is_stmt 0 discriminator 5
  56 0018 0823     		movs	r3, #8
  57 001a 204C     		ldr	r4, .L11+12
  58 001c E56A     		ldr	r5, [r4, #44]
  59 001e 1D43     		orrs	r5, r3
  60 0020 E562     		str	r5, [r4, #44]
  61 0022 E46A     		ldr	r4, [r4, #44]
  62 0024 2340     		ands	r3, r4
  63 0026 0493     		str	r3, [sp, #16]
  64 0028 049B     		ldr	r3, [sp, #16]
  65              	.L8:
  66              	.LBE6:
  62:../LoRaWAN/App/src/hw_gpio.c **** 
  63:../LoRaWAN/App/src/hw_gpio.c ****   initStruct->Pin = GPIO_Pin ;
  67              		.loc 1 63 0 is_stmt 1
  68 002a 1160     		str	r1, [r2]
  64:../LoRaWAN/App/src/hw_gpio.c **** 
  65:../LoRaWAN/App/src/hw_gpio.c ****   HAL_GPIO_Init( port, initStruct );
  69              		.loc 1 65 0
  70 002c 1100     		movs	r1, r2
  71              	.LVL1:
  72 002e FFF7FEFF 		bl	HAL_GPIO_Init
  73              	.LVL2:
  66:../LoRaWAN/App/src/hw_gpio.c **** }
  74              		.loc 1 66 0
  75 0032 07B0     		add	sp, sp, #28
  76              		@ sp needed
  77 0034 30BD     		pop	{r4, r5, pc}
  78              	.LVL3:
  79              	.L6:
  80              	.LBB7:
  61:../LoRaWAN/App/src/hw_gpio.c **** 
  81              		.loc 1 61 0 discriminator 4
  82 0036 0423     		movs	r3, #4
  83 0038 184C     		ldr	r4, .L11+12
  84 003a E56A     		ldr	r5, [r4, #44]
  85 003c 1D43     		orrs	r5, r3
  86 003e E562     		str	r5, [r4, #44]
  87 0040 E46A     		ldr	r4, [r4, #44]
  88 0042 2340     		ands	r3, r4
  89 0044 0393     		str	r3, [sp, #12]
  90 0046 039B     		ldr	r3, [sp, #12]
  91              	.LBE7:
  92 0048 EFE7     		b	.L8
  93              	.L10:
  61:../LoRaWAN/App/src/hw_gpio.c **** 
  94              		.loc 1 61 0 is_stmt 0
  95 004a A023     		movs	r3, #160
  96 004c DB05     		lsls	r3, r3, #23
  97 004e 9842     		cmp	r0, r3
  98 0050 09D1     		bne	.L2
  99              	.LBB8:
  61:../LoRaWAN/App/src/hw_gpio.c **** 
 100              		.loc 1 61 0 discriminator 2
 101 0052 0123     		movs	r3, #1
ARM GAS  C:\Users\EBANO_~1\AppData\Local\Temp\ccXyQ0sk.s 			page 4


 102 0054 114C     		ldr	r4, .L11+12
 103 0056 E56A     		ldr	r5, [r4, #44]
 104 0058 1D43     		orrs	r5, r3
 105 005a E562     		str	r5, [r4, #44]
 106 005c E46A     		ldr	r4, [r4, #44]
 107 005e 2340     		ands	r3, r4
 108 0060 0193     		str	r3, [sp, #4]
 109 0062 019B     		ldr	r3, [sp, #4]
 110              	.LBE8:
 111 0064 E1E7     		b	.L8
 112              	.L2:
 113              	.LBB9:
  61:../LoRaWAN/App/src/hw_gpio.c **** 
 114              		.loc 1 61 0 discriminator 1
 115 0066 8023     		movs	r3, #128
 116 0068 0C4C     		ldr	r4, .L11+12
 117 006a E56A     		ldr	r5, [r4, #44]
 118 006c 1D43     		orrs	r5, r3
 119 006e E562     		str	r5, [r4, #44]
 120 0070 E46A     		ldr	r4, [r4, #44]
 121 0072 2340     		ands	r3, r4
 122 0074 0593     		str	r3, [sp, #20]
 123 0076 059B     		ldr	r3, [sp, #20]
 124 0078 D7E7     		b	.L8
 125              	.L3:
 126              	.LBE9:
 127              	.LBB10:
  61:../LoRaWAN/App/src/hw_gpio.c **** 
 128              		.loc 1 61 0 discriminator 3
 129 007a 0223     		movs	r3, #2
 130 007c 074C     		ldr	r4, .L11+12
 131 007e E56A     		ldr	r5, [r4, #44]
 132 0080 1D43     		orrs	r5, r3
 133 0082 E562     		str	r5, [r4, #44]
 134 0084 E46A     		ldr	r4, [r4, #44]
 135 0086 2340     		ands	r3, r4
 136 0088 0293     		str	r3, [sp, #8]
 137 008a 029B     		ldr	r3, [sp, #8]
 138              	.LBE10:
 139 008c CDE7     		b	.L8
 140              	.L12:
 141 008e C046     		.align	2
 142              	.L11:
 143 0090 00040050 		.word	1342178304
 144 0094 00080050 		.word	1342179328
 145 0098 000C0050 		.word	1342180352
 146 009c 00100240 		.word	1073876992
 147              		.cfi_endproc
 148              	.LFE39:
 149              		.size	HW_GPIO_Init, .-HW_GPIO_Init
 150              		.section	.text.HW_GPIO_SetIrq,"ax",%progbits
 151              		.align	1
 152              		.p2align 2,,3
 153              		.global	HW_GPIO_SetIrq
 154              		.syntax unified
 155              		.code	16
 156              		.thumb_func
ARM GAS  C:\Users\EBANO_~1\AppData\Local\Temp\ccXyQ0sk.s 			page 5


 157              		.fpu softvfp
 158              		.type	HW_GPIO_SetIrq, %function
 159              	HW_GPIO_SetIrq:
 160              	.LFB40:
  67:../LoRaWAN/App/src/hw_gpio.c **** 
  68:../LoRaWAN/App/src/hw_gpio.c **** /*!
  69:../LoRaWAN/App/src/hw_gpio.c ****  * @brief Records the interrupt handler for the GPIO  object
  70:../LoRaWAN/App/src/hw_gpio.c ****  *
  71:../LoRaWAN/App/src/hw_gpio.c ****  * @param  GPIOx: where x can be (A..E and H) 
  72:../LoRaWAN/App/src/hw_gpio.c ****  * @param  GPIO_Pin: specifies the port bit to be written.
  73:../LoRaWAN/App/src/hw_gpio.c ****  *                   This parameter can be one of GPIO_PIN_x where x can be (0..15).
  74:../LoRaWAN/App/src/hw_gpio.c ****  *                   All port bits are not necessarily available on all GPIOs.
  75:../LoRaWAN/App/src/hw_gpio.c ****  * @param [IN] prio       NVIC priority (0 is highest)
  76:../LoRaWAN/App/src/hw_gpio.c ****  * @param [IN] irqHandler  points to the  function to execute
  77:../LoRaWAN/App/src/hw_gpio.c ****  * @retval none
  78:../LoRaWAN/App/src/hw_gpio.c ****  */
  79:../LoRaWAN/App/src/hw_gpio.c **** void HW_GPIO_SetIrq( GPIO_TypeDef* GPIOx, uint16_t GPIO_Pin, uint32_t prio,  GpioIrqHandler *irqHan
  80:../LoRaWAN/App/src/hw_gpio.c **** {
 161              		.loc 1 80 0 is_stmt 1
 162              		.cfi_startproc
 163              		@ args = 0, pretend = 0, frame = 0
 164              		@ frame_needed = 0, uses_anonymous_args = 0
 165              	.LVL4:
 166 0000 70B5     		push	{r4, r5, r6, lr}
 167              	.LCFI2:
 168              		.cfi_def_cfa_offset 16
 169              		.cfi_offset 4, -16
 170              		.cfi_offset 5, -12
 171              		.cfi_offset 6, -8
 172              		.cfi_offset 14, -4
 173              	.LBB11:
 174              	.LBB12:
  81:../LoRaWAN/App/src/hw_gpio.c ****   IRQn_Type IRQnb;
  82:../LoRaWAN/App/src/hw_gpio.c ****   
  83:../LoRaWAN/App/src/hw_gpio.c ****   uint32_t BitPos = HW_GPIO_GetBitPos( GPIO_Pin ) ;
  84:../LoRaWAN/App/src/hw_gpio.c ****   
  85:../LoRaWAN/App/src/hw_gpio.c ****   if ( irqHandler != NULL)
  86:../LoRaWAN/App/src/hw_gpio.c ****   {
  87:../LoRaWAN/App/src/hw_gpio.c ****     GpioIrq[ BitPos ] = irqHandler;
  88:../LoRaWAN/App/src/hw_gpio.c **** 
  89:../LoRaWAN/App/src/hw_gpio.c ****     IRQnb = MSP_GetIRQn( GPIO_Pin );
  90:../LoRaWAN/App/src/hw_gpio.c **** 
  91:../LoRaWAN/App/src/hw_gpio.c ****     HAL_NVIC_SetPriority( IRQnb , prio, 0);
  92:../LoRaWAN/App/src/hw_gpio.c ****     
  93:../LoRaWAN/App/src/hw_gpio.c ****     HAL_NVIC_EnableIRQ( IRQnb );
  94:../LoRaWAN/App/src/hw_gpio.c ****   }
  95:../LoRaWAN/App/src/hw_gpio.c ****   else
  96:../LoRaWAN/App/src/hw_gpio.c ****   {
  97:../LoRaWAN/App/src/hw_gpio.c ****     GpioIrq[ BitPos ] = NULL;
  98:../LoRaWAN/App/src/hw_gpio.c ****   }
  99:../LoRaWAN/App/src/hw_gpio.c **** }
 100:../LoRaWAN/App/src/hw_gpio.c **** 
 101:../LoRaWAN/App/src/hw_gpio.c **** /*!
 102:../LoRaWAN/App/src/hw_gpio.c ****  * @brief Execute the interrupt from the object
 103:../LoRaWAN/App/src/hw_gpio.c ****  *
 104:../LoRaWAN/App/src/hw_gpio.c ****  * @param  GPIO_Pin: specifies the port bit to be written.
 105:../LoRaWAN/App/src/hw_gpio.c ****  *                   This parameter can be one of GPIO_PIN_x where x can be (0..15).
ARM GAS  C:\Users\EBANO_~1\AppData\Local\Temp\ccXyQ0sk.s 			page 6


 106:../LoRaWAN/App/src/hw_gpio.c ****  *                   All port bits are not necessarily available on all GPIOs.
 107:../LoRaWAN/App/src/hw_gpio.c ****  * @retval none
 108:../LoRaWAN/App/src/hw_gpio.c ****  */
 109:../LoRaWAN/App/src/hw_gpio.c **** void HW_GPIO_IrqHandler( uint16_t GPIO_Pin )
 110:../LoRaWAN/App/src/hw_gpio.c **** {
 111:../LoRaWAN/App/src/hw_gpio.c ****   uint32_t BitPos = HW_GPIO_GetBitPos( GPIO_Pin );
 112:../LoRaWAN/App/src/hw_gpio.c ****   
 113:../LoRaWAN/App/src/hw_gpio.c ****   if ( GpioIrq[ BitPos ]  != NULL)
 114:../LoRaWAN/App/src/hw_gpio.c ****   {
 115:../LoRaWAN/App/src/hw_gpio.c ****     GpioIrq[ BitPos ] ( NULL );
 116:../LoRaWAN/App/src/hw_gpio.c ****   }
 117:../LoRaWAN/App/src/hw_gpio.c **** }
 118:../LoRaWAN/App/src/hw_gpio.c **** 
 119:../LoRaWAN/App/src/hw_gpio.c **** /*!
 120:../LoRaWAN/App/src/hw_gpio.c ****  * @brief Writes the given value to the GPIO output
 121:../LoRaWAN/App/src/hw_gpio.c ****  *
 122:../LoRaWAN/App/src/hw_gpio.c ****  * @param  GPIO_Pin: specifies the port bit to be written.
 123:../LoRaWAN/App/src/hw_gpio.c ****  *                   This parameter can be one of GPIO_PIN_x where x can be (0..15).
 124:../LoRaWAN/App/src/hw_gpio.c ****  *                   All port bits are not necessarily available on all GPIOs.
 125:../LoRaWAN/App/src/hw_gpio.c ****  * @param [IN] value New GPIO output value
 126:../LoRaWAN/App/src/hw_gpio.c ****  * @retval none
 127:../LoRaWAN/App/src/hw_gpio.c ****  */
 128:../LoRaWAN/App/src/hw_gpio.c **** void HW_GPIO_Write( GPIO_TypeDef* GPIOx, uint16_t GPIO_Pin,  uint32_t value )
 129:../LoRaWAN/App/src/hw_gpio.c **** {
 130:../LoRaWAN/App/src/hw_gpio.c ****   HAL_GPIO_WritePin( GPIOx, GPIO_Pin , (GPIO_PinState) value );
 131:../LoRaWAN/App/src/hw_gpio.c **** }
 132:../LoRaWAN/App/src/hw_gpio.c **** 
 133:../LoRaWAN/App/src/hw_gpio.c **** /*!
 134:../LoRaWAN/App/src/hw_gpio.c ****  * @brief Reads the current GPIO input value
 135:../LoRaWAN/App/src/hw_gpio.c ****  *
 136:../LoRaWAN/App/src/hw_gpio.c ****  * @param  GPIOx: where x can be (A..E and H) 
 137:../LoRaWAN/App/src/hw_gpio.c ****  * @param  GPIO_Pin: specifies the port bit to be written.
 138:../LoRaWAN/App/src/hw_gpio.c ****  *                   This parameter can be one of GPIO_PIN_x where x can be (0..15).
 139:../LoRaWAN/App/src/hw_gpio.c ****  *                   All port bits are not necessarily available on all GPIOs.
 140:../LoRaWAN/App/src/hw_gpio.c ****  * @retval value   Current GPIO input value
 141:../LoRaWAN/App/src/hw_gpio.c ****  */
 142:../LoRaWAN/App/src/hw_gpio.c **** uint32_t HW_GPIO_Read( GPIO_TypeDef* GPIOx, uint16_t GPIO_Pin )
 143:../LoRaWAN/App/src/hw_gpio.c **** {
 144:../LoRaWAN/App/src/hw_gpio.c ****   return HAL_GPIO_ReadPin( GPIOx, GPIO_Pin);
 145:../LoRaWAN/App/src/hw_gpio.c **** }
 146:../LoRaWAN/App/src/hw_gpio.c **** 
 147:../LoRaWAN/App/src/hw_gpio.c **** /* Private functions ---------------------------------------------------------*/
 148:../LoRaWAN/App/src/hw_gpio.c **** 
 149:../LoRaWAN/App/src/hw_gpio.c **** /*!
 150:../LoRaWAN/App/src/hw_gpio.c ****  * @brief Get the position of the bit set in the GPIO_Pin
 151:../LoRaWAN/App/src/hw_gpio.c ****  * @param  GPIO_Pin: specifies the port bit to be written.
 152:../LoRaWAN/App/src/hw_gpio.c ****  *                   This parameter can be one of GPIO_PIN_x where x can be (0..15).
 153:../LoRaWAN/App/src/hw_gpio.c ****  *                   All port bits are not necessarily available on all GPIOs.
 154:../LoRaWAN/App/src/hw_gpio.c ****  * @retval the position of the bit
 155:../LoRaWAN/App/src/hw_gpio.c ****  */
 156:../LoRaWAN/App/src/hw_gpio.c **** static uint8_t HW_GPIO_GetBitPos(uint16_t GPIO_Pin)
 157:../LoRaWAN/App/src/hw_gpio.c **** {
 158:../LoRaWAN/App/src/hw_gpio.c ****   uint8_t PinPos=0;
 159:../LoRaWAN/App/src/hw_gpio.c ****   
 160:../LoRaWAN/App/src/hw_gpio.c ****   if ( ( GPIO_Pin & 0xFF00 ) != 0) { PinPos |= 0x8; }
 175              		.loc 1 160 0
 176 0002 0800     		movs	r0, r1
ARM GAS  C:\Users\EBANO_~1\AppData\Local\Temp\ccXyQ0sk.s 			page 7


 177              	.LVL5:
 178              	.LBE12:
 179              	.LBE11:
  80:../LoRaWAN/App/src/hw_gpio.c ****   IRQn_Type IRQnb;
 180              		.loc 1 80 0
 181 0004 1400     		movs	r4, r2
 182              	.LBB14:
 183              	.LBB13:
 184              		.loc 1 160 0
 185 0006 FF22     		movs	r2, #255
 186              	.LVL6:
 187 0008 9043     		bics	r0, r2
 188 000a 0200     		movs	r2, r0
 189 000c 0425     		movs	r5, #4
 190 000e 0028     		cmp	r0, #0
 191 0010 01D0     		beq	.L14
 192 0012 0C25     		movs	r5, #12
 193 0014 0822     		movs	r2, #8
 194              	.L14:
 195              	.LVL7:
 161:../LoRaWAN/App/src/hw_gpio.c ****   if ( ( GPIO_Pin & 0xF0F0 ) != 0) { PinPos |= 0x4; }
 196              		.loc 1 161 0
 197 0016 1248     		ldr	r0, .L31
 198 0018 0142     		tst	r1, r0
 199 001a 00D0     		beq	.L15
 200 001c 2A00     		movs	r2, r5
 201              	.LVL8:
 202              	.L15:
 162:../LoRaWAN/App/src/hw_gpio.c ****   if ( ( GPIO_Pin & 0xCCCC ) != 0) { PinPos |= 0x2; }
 203              		.loc 1 162 0
 204 001e 1148     		ldr	r0, .L31+4
 205 0020 0142     		tst	r1, r0
 206 0022 02D0     		beq	.L16
 207 0024 0220     		movs	r0, #2
 208 0026 0243     		orrs	r2, r0
 209              	.LVL9:
 210 0028 D2B2     		uxtb	r2, r2
 211              	.LVL10:
 212              	.L16:
 163:../LoRaWAN/App/src/hw_gpio.c ****   if ( ( GPIO_Pin & 0xAAAA ) != 0) { PinPos |= 0x1; }
 213              		.loc 1 163 0
 214 002a 0F48     		ldr	r0, .L31+8
 215 002c 0142     		tst	r1, r0
 216 002e 02D0     		beq	.L17
 217 0030 0120     		movs	r0, #1
 218 0032 0243     		orrs	r2, r0
 219              	.LVL11:
 220 0034 D2B2     		uxtb	r2, r2
 221              	.LVL12:
 222              	.L17:
 223              	.LBE13:
 224              	.LBE14:
  87:../LoRaWAN/App/src/hw_gpio.c **** 
 225              		.loc 1 87 0
 226 0036 9200     		lsls	r2, r2, #2
 227              	.LVL13:
  85:../LoRaWAN/App/src/hw_gpio.c ****   {
ARM GAS  C:\Users\EBANO_~1\AppData\Local\Temp\ccXyQ0sk.s 			page 8


 228              		.loc 1 85 0
 229 0038 002B     		cmp	r3, #0
 230 003a 02D1     		bne	.L30
  97:../LoRaWAN/App/src/hw_gpio.c ****   }
 231              		.loc 1 97 0
 232 003c 0B49     		ldr	r1, .L31+12
 233              	.LVL14:
 234 003e 5350     		str	r3, [r2, r1]
 235              	.LVL15:
 236              	.L13:
  99:../LoRaWAN/App/src/hw_gpio.c **** 
 237              		.loc 1 99 0
 238              		@ sp needed
 239              	.LVL16:
 240 0040 70BD     		pop	{r4, r5, r6, pc}
 241              	.LVL17:
 242              	.L30:
  87:../LoRaWAN/App/src/hw_gpio.c **** 
 243              		.loc 1 87 0
 244 0042 0A48     		ldr	r0, .L31+12
 245 0044 1350     		str	r3, [r2, r0]
  89:../LoRaWAN/App/src/hw_gpio.c **** 
 246              		.loc 1 89 0
 247 0046 0800     		movs	r0, r1
 248 0048 FFF7FEFF 		bl	MSP_GetIRQn
 249              	.LVL18:
 250 004c 0500     		movs	r5, r0
 251              	.LVL19:
  91:../LoRaWAN/App/src/hw_gpio.c ****     
 252              		.loc 1 91 0
 253 004e 0022     		movs	r2, #0
 254 0050 2100     		movs	r1, r4
 255 0052 FFF7FEFF 		bl	HAL_NVIC_SetPriority
 256              	.LVL20:
  93:../LoRaWAN/App/src/hw_gpio.c ****   }
 257              		.loc 1 93 0
 258 0056 2800     		movs	r0, r5
 259 0058 FFF7FEFF 		bl	HAL_NVIC_EnableIRQ
 260              	.LVL21:
 261 005c F0E7     		b	.L13
 262              	.L32:
 263 005e C046     		.align	2
 264              	.L31:
 265 0060 F0F0FFFF 		.word	-3856
 266 0064 CCCCFFFF 		.word	-13108
 267 0068 AAAAFFFF 		.word	-21846
 268 006c 00000000 		.word	.LANCHOR0
 269              		.cfi_endproc
 270              	.LFE40:
 271              		.size	HW_GPIO_SetIrq, .-HW_GPIO_SetIrq
 272              		.section	.text.HW_GPIO_IrqHandler,"ax",%progbits
 273              		.align	1
 274              		.p2align 2,,3
 275              		.global	HW_GPIO_IrqHandler
 276              		.syntax unified
 277              		.code	16
 278              		.thumb_func
ARM GAS  C:\Users\EBANO_~1\AppData\Local\Temp\ccXyQ0sk.s 			page 9


 279              		.fpu softvfp
 280              		.type	HW_GPIO_IrqHandler, %function
 281              	HW_GPIO_IrqHandler:
 282              	.LFB41:
 110:../LoRaWAN/App/src/hw_gpio.c ****   uint32_t BitPos = HW_GPIO_GetBitPos( GPIO_Pin );
 283              		.loc 1 110 0
 284              		.cfi_startproc
 285              		@ args = 0, pretend = 0, frame = 0
 286              		@ frame_needed = 0, uses_anonymous_args = 0
 287              	.LVL22:
 288              	.LBB15:
 289              	.LBB16:
 160:../LoRaWAN/App/src/hw_gpio.c ****   if ( ( GPIO_Pin & 0xF0F0 ) != 0) { PinPos |= 0x4; }
 290              		.loc 1 160 0
 291 0000 FF23     		movs	r3, #255
 292 0002 0200     		movs	r2, r0
 293 0004 9A43     		bics	r2, r3
 294              	.LBE16:
 295              	.LBE15:
 110:../LoRaWAN/App/src/hw_gpio.c ****   uint32_t BitPos = HW_GPIO_GetBitPos( GPIO_Pin );
 296              		.loc 1 110 0
 297 0006 10B5     		push	{r4, lr}
 298              	.LCFI3:
 299              		.cfi_def_cfa_offset 8
 300              		.cfi_offset 4, -8
 301              		.cfi_offset 14, -4
 302              	.LBB18:
 303              	.LBB17:
 160:../LoRaWAN/App/src/hw_gpio.c ****   if ( ( GPIO_Pin & 0xF0F0 ) != 0) { PinPos |= 0x4; }
 304              		.loc 1 160 0
 305 0008 1300     		movs	r3, r2
 306 000a 0421     		movs	r1, #4
 307 000c 002A     		cmp	r2, #0
 308 000e 01D0     		beq	.L34
 309 0010 0C21     		movs	r1, #12
 310 0012 0823     		movs	r3, #8
 311              	.L34:
 312              	.LVL23:
 161:../LoRaWAN/App/src/hw_gpio.c ****   if ( ( GPIO_Pin & 0xCCCC ) != 0) { PinPos |= 0x2; }
 313              		.loc 1 161 0
 314 0014 0B4A     		ldr	r2, .L52
 315 0016 1042     		tst	r0, r2
 316 0018 00D0     		beq	.L35
 317 001a 0B00     		movs	r3, r1
 318              	.LVL24:
 319              	.L35:
 162:../LoRaWAN/App/src/hw_gpio.c ****   if ( ( GPIO_Pin & 0xAAAA ) != 0) { PinPos |= 0x1; }
 320              		.loc 1 162 0
 321 001c 0A4A     		ldr	r2, .L52+4
 322 001e 1042     		tst	r0, r2
 323 0020 02D0     		beq	.L36
 324 0022 0222     		movs	r2, #2
 325 0024 1343     		orrs	r3, r2
 326              	.LVL25:
 327 0026 DBB2     		uxtb	r3, r3
 328              	.LVL26:
 329              	.L36:
ARM GAS  C:\Users\EBANO_~1\AppData\Local\Temp\ccXyQ0sk.s 			page 10


 330              		.loc 1 163 0
 331 0028 084A     		ldr	r2, .L52+8
 332 002a 1042     		tst	r0, r2
 333 002c 02D0     		beq	.L37
 334 002e 0122     		movs	r2, #1
 335 0030 1343     		orrs	r3, r2
 336              	.LVL27:
 337 0032 DBB2     		uxtb	r3, r3
 338              	.LVL28:
 339              	.L37:
 340              	.LBE17:
 341              	.LBE18:
 113:../LoRaWAN/App/src/hw_gpio.c ****   {
 342              		.loc 1 113 0
 343 0034 064A     		ldr	r2, .L52+12
 344 0036 9B00     		lsls	r3, r3, #2
 345              	.LVL29:
 346 0038 9B58     		ldr	r3, [r3, r2]
 347 003a 002B     		cmp	r3, #0
 348 003c 01D0     		beq	.L33
 115:../LoRaWAN/App/src/hw_gpio.c ****   }
 349              		.loc 1 115 0
 350 003e 0020     		movs	r0, #0
 351              	.LVL30:
 352 0040 9847     		blx	r3
 353              	.LVL31:
 354              	.L33:
 117:../LoRaWAN/App/src/hw_gpio.c **** 
 355              		.loc 1 117 0
 356              		@ sp needed
 357 0042 10BD     		pop	{r4, pc}
 358              	.L53:
 359              		.align	2
 360              	.L52:
 361 0044 F0F0FFFF 		.word	-3856
 362 0048 CCCCFFFF 		.word	-13108
 363 004c AAAAFFFF 		.word	-21846
 364 0050 00000000 		.word	.LANCHOR0
 365              		.cfi_endproc
 366              	.LFE41:
 367              		.size	HW_GPIO_IrqHandler, .-HW_GPIO_IrqHandler
 368              		.section	.text.HW_GPIO_Write,"ax",%progbits
 369              		.align	1
 370              		.p2align 2,,3
 371              		.global	HW_GPIO_Write
 372              		.syntax unified
 373              		.code	16
 374              		.thumb_func
 375              		.fpu softvfp
 376              		.type	HW_GPIO_Write, %function
 377              	HW_GPIO_Write:
 378              	.LFB42:
 129:../LoRaWAN/App/src/hw_gpio.c ****   HAL_GPIO_WritePin( GPIOx, GPIO_Pin , (GPIO_PinState) value );
 379              		.loc 1 129 0
 380              		.cfi_startproc
 381              		@ args = 0, pretend = 0, frame = 0
 382              		@ frame_needed = 0, uses_anonymous_args = 0
ARM GAS  C:\Users\EBANO_~1\AppData\Local\Temp\ccXyQ0sk.s 			page 11


 383              	.LVL32:
 384 0000 10B5     		push	{r4, lr}
 385              	.LCFI4:
 386              		.cfi_def_cfa_offset 8
 387              		.cfi_offset 4, -8
 388              		.cfi_offset 14, -4
 130:../LoRaWAN/App/src/hw_gpio.c **** }
 389              		.loc 1 130 0
 390 0002 D2B2     		uxtb	r2, r2
 391              	.LVL33:
 392 0004 FFF7FEFF 		bl	HAL_GPIO_WritePin
 393              	.LVL34:
 131:../LoRaWAN/App/src/hw_gpio.c **** 
 394              		.loc 1 131 0
 395              		@ sp needed
 396 0008 10BD     		pop	{r4, pc}
 397              		.cfi_endproc
 398              	.LFE42:
 399              		.size	HW_GPIO_Write, .-HW_GPIO_Write
 400 000a C046     		.section	.text.HW_GPIO_Read,"ax",%progbits
 401              		.align	1
 402              		.p2align 2,,3
 403              		.global	HW_GPIO_Read
 404              		.syntax unified
 405              		.code	16
 406              		.thumb_func
 407              		.fpu softvfp
 408              		.type	HW_GPIO_Read, %function
 409              	HW_GPIO_Read:
 410              	.LFB43:
 143:../LoRaWAN/App/src/hw_gpio.c ****   return HAL_GPIO_ReadPin( GPIOx, GPIO_Pin);
 411              		.loc 1 143 0
 412              		.cfi_startproc
 413              		@ args = 0, pretend = 0, frame = 0
 414              		@ frame_needed = 0, uses_anonymous_args = 0
 415              	.LVL35:
 416 0000 10B5     		push	{r4, lr}
 417              	.LCFI5:
 418              		.cfi_def_cfa_offset 8
 419              		.cfi_offset 4, -8
 420              		.cfi_offset 14, -4
 144:../LoRaWAN/App/src/hw_gpio.c **** }
 421              		.loc 1 144 0
 422 0002 FFF7FEFF 		bl	HAL_GPIO_ReadPin
 423              	.LVL36:
 145:../LoRaWAN/App/src/hw_gpio.c **** 
 424              		.loc 1 145 0
 425              		@ sp needed
 426 0006 10BD     		pop	{r4, pc}
 427              		.cfi_endproc
 428              	.LFE43:
 429              		.size	HW_GPIO_Read, .-HW_GPIO_Read
 430              		.bss
 431              		.align	2
 432              		.set	.LANCHOR0,. + 0
 433              		.type	GpioIrq, %object
 434              		.size	GpioIrq, 64
ARM GAS  C:\Users\EBANO_~1\AppData\Local\Temp\ccXyQ0sk.s 			page 12


 435              	GpioIrq:
 436 0000 00000000 		.space	64
 436      00000000 
 436      00000000 
 436      00000000 
 436      00000000 
 437              		.text
 438              	.Letext0:
 439              		.file 2 "c:\\program files (x86)\\gnu tools arm embedded\\7 2018-q2-update\\arm-none-eabi\\include
 440              		.file 3 "c:\\program files (x86)\\gnu tools arm embedded\\7 2018-q2-update\\arm-none-eabi\\include
 441              		.file 4 "c:\\program files (x86)\\gnu tools arm embedded\\7 2018-q2-update\\arm-none-eabi\\include
 442              		.file 5 "c:\\program files (x86)\\gnu tools arm embedded\\7 2018-q2-update\\lib\\gcc\\arm-none-eab
 443              		.file 6 "c:\\program files (x86)\\gnu tools arm embedded\\7 2018-q2-update\\arm-none-eabi\\include
 444              		.file 7 "c:\\program files (x86)\\gnu tools arm embedded\\7 2018-q2-update\\arm-none-eabi\\include
 445              		.file 8 "c:\\program files (x86)\\gnu tools arm embedded\\7 2018-q2-update\\arm-none-eabi\\include
 446              		.file 9 "../../../../../../Drivers/CMSIS/Device/ST/STM32L0xx/Include/stm32l072xx.h"
 447              		.file 10 "../../../../../../Drivers/CMSIS/Device/ST/STM32L0xx/Include/system_stm32l0xx.h"
 448              		.file 11 "../../../../../../Drivers/STM32L0xx_HAL_Driver/Inc/stm32l0xx_hal_gpio.h"
 449              		.file 12 "c:\\program files (x86)\\gnu tools arm embedded\\7 2018-q2-update\\arm-none-eabi\\includ
 450              		.file 13 "../LoRaWAN/App/inc/hw_gpio.h"
 451              		.file 14 "c:\\program files (x86)\\gnu tools arm embedded\\7 2018-q2-update\\arm-none-eabi\\includ
 452              		.file 15 "../../../../../../Drivers/STM32L0xx_HAL_Driver/Inc/stm32l0xx_hal_cortex.h"