ARM GAS  C:\Users\EBANO_~1\AppData\Local\Temp\cchOOF4s.s 			page 1


   1              		.cpu cortex-m0plus
   2              		.eabi_attribute 20, 1
   3              		.eabi_attribute 21, 1
   4              		.eabi_attribute 23, 3
   5              		.eabi_attribute 24, 1
   6              		.eabi_attribute 25, 1
   7              		.eabi_attribute 26, 1
   8              		.eabi_attribute 30, 2
   9              		.eabi_attribute 34, 0
  10              		.eabi_attribute 18, 4
  11              		.file	"hw_spi.c"
  12              		.text
  13              	.Ltext0:
  14              		.cfi_sections	.debug_frame
  15              		.section	.text.HW_SPI_Init,"ax",%progbits
  16              		.align	1
  17              		.p2align 2,,3
  18              		.global	HW_SPI_Init
  19              		.syntax unified
  20              		.code	16
  21              		.thumb_func
  22              		.fpu softvfp
  23              		.type	HW_SPI_Init, %function
  24              	HW_SPI_Init:
  25              	.LFB39:
  26              		.file 1 "../LoRaWAN/App/src/hw_spi.c"
   1:../LoRaWAN/App/src/hw_spi.c **** /*
   2:../LoRaWAN/App/src/hw_spi.c ****  / _____)             _              | |
   3:../LoRaWAN/App/src/hw_spi.c **** ( (____  _____ ____ _| |_ _____  ____| |__
   4:../LoRaWAN/App/src/hw_spi.c ****  \____ \| ___ |    (_   _) ___ |/ ___)  _ \
   5:../LoRaWAN/App/src/hw_spi.c ****  _____) ) ____| | | || |_| ____( (___| | | |
   6:../LoRaWAN/App/src/hw_spi.c **** (______/|_____)_|_|_| \__)_____)\____)_| |_|
   7:../LoRaWAN/App/src/hw_spi.c ****     (C)2013 Semtech
   8:../LoRaWAN/App/src/hw_spi.c **** 
   9:../LoRaWAN/App/src/hw_spi.c **** Description: Bleeper board SPI driver implementation
  10:../LoRaWAN/App/src/hw_spi.c **** 
  11:../LoRaWAN/App/src/hw_spi.c **** License: Revised BSD License, see LICENSE.TXT file include in the project
  12:../LoRaWAN/App/src/hw_spi.c **** 
  13:../LoRaWAN/App/src/hw_spi.c **** Maintainer: Miguel Luis and Gregory Cristian
  14:../LoRaWAN/App/src/hw_spi.c **** */
  15:../LoRaWAN/App/src/hw_spi.c **** /**
  16:../LoRaWAN/App/src/hw_spi.c ****   ******************************************************************************
  17:../LoRaWAN/App/src/hw_spi.c ****   * @file    hw_spi.c
  18:../LoRaWAN/App/src/hw_spi.c ****   * @author  MCD Application Team
  19:../LoRaWAN/App/src/hw_spi.c ****   * @brief   manages the SPI interface
  20:../LoRaWAN/App/src/hw_spi.c ****   ******************************************************************************
  21:../LoRaWAN/App/src/hw_spi.c ****   * @attention
  22:../LoRaWAN/App/src/hw_spi.c ****   *
  23:../LoRaWAN/App/src/hw_spi.c ****   * <h2><center>&copy; Copyright (c) 2018 STMicroelectronics.
  24:../LoRaWAN/App/src/hw_spi.c ****   * All rights reserved.</center></h2>
  25:../LoRaWAN/App/src/hw_spi.c ****   *
  26:../LoRaWAN/App/src/hw_spi.c ****   * This software component is licensed by ST under Ultimate Liberty license
  27:../LoRaWAN/App/src/hw_spi.c ****   * SLA0044, the "License"; You may not use this file except in compliance with
  28:../LoRaWAN/App/src/hw_spi.c ****   * the License. You may obtain a copy of the License at:
  29:../LoRaWAN/App/src/hw_spi.c ****   *                             www.st.com/SLA0044
  30:../LoRaWAN/App/src/hw_spi.c ****   *
  31:../LoRaWAN/App/src/hw_spi.c ****   ******************************************************************************
ARM GAS  C:\Users\EBANO_~1\AppData\Local\Temp\cchOOF4s.s 			page 2


  32:../LoRaWAN/App/src/hw_spi.c ****   */
  33:../LoRaWAN/App/src/hw_spi.c **** 
  34:../LoRaWAN/App/src/hw_spi.c **** /* Includes ------------------------------------------------------------------*/
  35:../LoRaWAN/App/src/hw_spi.c **** #include "hw.h"
  36:../LoRaWAN/App/src/hw_spi.c **** #include "utilities.h"
  37:../LoRaWAN/App/src/hw_spi.c **** 
  38:../LoRaWAN/App/src/hw_spi.c **** 
  39:../LoRaWAN/App/src/hw_spi.c **** /* Private typedef -----------------------------------------------------------*/
  40:../LoRaWAN/App/src/hw_spi.c **** /* Private define ------------------------------------------------------------*/
  41:../LoRaWAN/App/src/hw_spi.c **** /* Private macro -------------------------------------------------------------*/
  42:../LoRaWAN/App/src/hw_spi.c **** /* Private variables ---------------------------------------------------------*/
  43:../LoRaWAN/App/src/hw_spi.c **** static SPI_HandleTypeDef hspi;
  44:../LoRaWAN/App/src/hw_spi.c **** /* Private function prototypes -----------------------------------------------*/
  45:../LoRaWAN/App/src/hw_spi.c **** 
  46:../LoRaWAN/App/src/hw_spi.c **** /*!
  47:../LoRaWAN/App/src/hw_spi.c ****  * @brief Calculates Spi Divisor based on Spi Frequency and Mcu Frequency
  48:../LoRaWAN/App/src/hw_spi.c ****  *
  49:../LoRaWAN/App/src/hw_spi.c ****  * @param [IN] Spi Frequency
  50:../LoRaWAN/App/src/hw_spi.c ****  * @retval Spi divisor
  51:../LoRaWAN/App/src/hw_spi.c ****  */
  52:../LoRaWAN/App/src/hw_spi.c **** static uint32_t SpiFrequency( uint32_t hz );
  53:../LoRaWAN/App/src/hw_spi.c **** 
  54:../LoRaWAN/App/src/hw_spi.c **** /* Exported functions ---------------------------------------------------------*/
  55:../LoRaWAN/App/src/hw_spi.c **** 
  56:../LoRaWAN/App/src/hw_spi.c **** /*!
  57:../LoRaWAN/App/src/hw_spi.c ****  * @brief Initializes the SPI object and MCU peripheral
  58:../LoRaWAN/App/src/hw_spi.c ****  *
  59:../LoRaWAN/App/src/hw_spi.c ****  * @param [IN] none
  60:../LoRaWAN/App/src/hw_spi.c ****  */
  61:../LoRaWAN/App/src/hw_spi.c **** void HW_SPI_Init( void )
  62:../LoRaWAN/App/src/hw_spi.c **** {
  27              		.loc 1 62 0
  28              		.cfi_startproc
  29              		@ args = 0, pretend = 0, frame = 24
  30              		@ frame_needed = 0, uses_anonymous_args = 0
  63:../LoRaWAN/App/src/hw_spi.c ****   
  64:../LoRaWAN/App/src/hw_spi.c ****   /*##-1- Configure the SPI peripheral */
  65:../LoRaWAN/App/src/hw_spi.c ****   /* Set the SPI parameters */
  66:../LoRaWAN/App/src/hw_spi.c **** 
  67:../LoRaWAN/App/src/hw_spi.c ****   hspi.Instance = SPI1;
  31              		.loc 1 67 0
  32 0000 424B     		ldr	r3, .L29
  33 0002 4348     		ldr	r0, .L29+4
  62:../LoRaWAN/App/src/hw_spi.c ****   
  34              		.loc 1 62 0
  35 0004 00B5     		push	{lr}
  36              	.LCFI0:
  37              		.cfi_def_cfa_offset 4
  38              		.cfi_offset 14, -4
  39              		.loc 1 67 0
  40 0006 0360     		str	r3, [r0]
  41              	.LVL0:
  42              	.LBB6:
  43              	.LBB7:
  68:../LoRaWAN/App/src/hw_spi.c **** 
  69:../LoRaWAN/App/src/hw_spi.c ****   hspi.Init.BaudRatePrescaler = SpiFrequency( 10000000 );
  70:../LoRaWAN/App/src/hw_spi.c ****   hspi.Init.Direction      = SPI_DIRECTION_2LINES;
ARM GAS  C:\Users\EBANO_~1\AppData\Local\Temp\cchOOF4s.s 			page 3


  71:../LoRaWAN/App/src/hw_spi.c ****   hspi.Init.Mode           = SPI_MODE_MASTER;
  72:../LoRaWAN/App/src/hw_spi.c ****   hspi.Init.CLKPolarity    = SPI_POLARITY_LOW;
  73:../LoRaWAN/App/src/hw_spi.c ****   hspi.Init.CLKPhase       = SPI_PHASE_1EDGE;
  74:../LoRaWAN/App/src/hw_spi.c ****   hspi.Init.DataSize       = SPI_DATASIZE_8BIT;
  75:../LoRaWAN/App/src/hw_spi.c ****   hspi.Init.CRCCalculation = SPI_CRCCALCULATION_DISABLE;  
  76:../LoRaWAN/App/src/hw_spi.c ****   hspi.Init.FirstBit       = SPI_FIRSTBIT_MSB;
  77:../LoRaWAN/App/src/hw_spi.c ****   hspi.Init.NSS            = SPI_NSS_SOFT;
  78:../LoRaWAN/App/src/hw_spi.c ****   hspi.Init.TIMode         = SPI_TIMODE_DISABLE;
  79:../LoRaWAN/App/src/hw_spi.c **** 
  80:../LoRaWAN/App/src/hw_spi.c **** 
  81:../LoRaWAN/App/src/hw_spi.c ****   SPI_CLK_ENABLE(); 
  82:../LoRaWAN/App/src/hw_spi.c **** 
  83:../LoRaWAN/App/src/hw_spi.c **** 
  84:../LoRaWAN/App/src/hw_spi.c ****   if(HAL_SPI_Init( &hspi) != HAL_OK)
  85:../LoRaWAN/App/src/hw_spi.c ****   {
  86:../LoRaWAN/App/src/hw_spi.c ****     /* Initialization Error */
  87:../LoRaWAN/App/src/hw_spi.c ****      Error_Handler();
  88:../LoRaWAN/App/src/hw_spi.c ****   }
  89:../LoRaWAN/App/src/hw_spi.c **** 
  90:../LoRaWAN/App/src/hw_spi.c ****   /*##-2- Configure the SPI GPIOs */
  91:../LoRaWAN/App/src/hw_spi.c ****   HW_SPI_IoInit(  );
  92:../LoRaWAN/App/src/hw_spi.c **** }
  93:../LoRaWAN/App/src/hw_spi.c **** 
  94:../LoRaWAN/App/src/hw_spi.c **** /*!
  95:../LoRaWAN/App/src/hw_spi.c ****  * @brief De-initializes the SPI object and MCU peripheral
  96:../LoRaWAN/App/src/hw_spi.c ****  *
  97:../LoRaWAN/App/src/hw_spi.c ****  * @param [IN] none
  98:../LoRaWAN/App/src/hw_spi.c ****  */
  99:../LoRaWAN/App/src/hw_spi.c **** void HW_SPI_DeInit( void )
 100:../LoRaWAN/App/src/hw_spi.c **** {
 101:../LoRaWAN/App/src/hw_spi.c **** 
 102:../LoRaWAN/App/src/hw_spi.c ****   HAL_SPI_DeInit( &hspi);
 103:../LoRaWAN/App/src/hw_spi.c **** 
 104:../LoRaWAN/App/src/hw_spi.c ****     /*##-1- Reset peripherals ####*/
 105:../LoRaWAN/App/src/hw_spi.c ****   __HAL_RCC_SPI1_FORCE_RESET();
 106:../LoRaWAN/App/src/hw_spi.c ****   __HAL_RCC_SPI1_RELEASE_RESET();
 107:../LoRaWAN/App/src/hw_spi.c ****   /*##-2- Configure the SPI GPIOs */
 108:../LoRaWAN/App/src/hw_spi.c ****   HW_SPI_IoDeInit( );
 109:../LoRaWAN/App/src/hw_spi.c **** }
 110:../LoRaWAN/App/src/hw_spi.c **** 
 111:../LoRaWAN/App/src/hw_spi.c **** void HW_SPI_IoInit( void )
 112:../LoRaWAN/App/src/hw_spi.c **** {
 113:../LoRaWAN/App/src/hw_spi.c ****   GPIO_InitTypeDef initStruct={0};
 114:../LoRaWAN/App/src/hw_spi.c ****   
 115:../LoRaWAN/App/src/hw_spi.c **** 
 116:../LoRaWAN/App/src/hw_spi.c ****   initStruct.Mode =GPIO_MODE_AF_PP;
 117:../LoRaWAN/App/src/hw_spi.c ****   initStruct.Pull =GPIO_NOPULL  ;
 118:../LoRaWAN/App/src/hw_spi.c ****   initStruct.Speed = GPIO_SPEED_HIGH;
 119:../LoRaWAN/App/src/hw_spi.c ****   initStruct.Alternate= SPI1_AF ;
 120:../LoRaWAN/App/src/hw_spi.c **** 
 121:../LoRaWAN/App/src/hw_spi.c ****   HW_GPIO_Init( RADIO_SCLK_PORT, RADIO_SCLK_PIN, &initStruct);
 122:../LoRaWAN/App/src/hw_spi.c ****   HW_GPIO_Init( RADIO_MISO_PORT, RADIO_MISO_PIN, &initStruct);
 123:../LoRaWAN/App/src/hw_spi.c ****   HW_GPIO_Init( RADIO_MOSI_PORT, RADIO_MOSI_PIN, &initStruct);
 124:../LoRaWAN/App/src/hw_spi.c **** 
 125:../LoRaWAN/App/src/hw_spi.c ****   initStruct.Mode = GPIO_MODE_OUTPUT_PP;
 126:../LoRaWAN/App/src/hw_spi.c ****   initStruct.Pull = GPIO_NOPULL;
 127:../LoRaWAN/App/src/hw_spi.c **** 
ARM GAS  C:\Users\EBANO_~1\AppData\Local\Temp\cchOOF4s.s 			page 4


 128:../LoRaWAN/App/src/hw_spi.c ****   HW_GPIO_Init(  RADIO_NSS_PORT, RADIO_NSS_PIN, &initStruct );
 129:../LoRaWAN/App/src/hw_spi.c **** 
 130:../LoRaWAN/App/src/hw_spi.c ****   HW_GPIO_Write ( RADIO_NSS_PORT, RADIO_NSS_PIN, 1 );
 131:../LoRaWAN/App/src/hw_spi.c **** }
 132:../LoRaWAN/App/src/hw_spi.c **** 
 133:../LoRaWAN/App/src/hw_spi.c **** void HW_SPI_IoDeInit( void )
 134:../LoRaWAN/App/src/hw_spi.c **** {
 135:../LoRaWAN/App/src/hw_spi.c ****   GPIO_InitTypeDef initStruct={0};
 136:../LoRaWAN/App/src/hw_spi.c ****     
 137:../LoRaWAN/App/src/hw_spi.c ****   initStruct.Mode =GPIO_MODE_OUTPUT_PP;
 138:../LoRaWAN/App/src/hw_spi.c **** 
 139:../LoRaWAN/App/src/hw_spi.c ****   initStruct.Pull =GPIO_NOPULL  ; 
 140:../LoRaWAN/App/src/hw_spi.c ****   HW_GPIO_Init ( RADIO_MOSI_PORT, RADIO_MOSI_PIN, &initStruct ); 
 141:../LoRaWAN/App/src/hw_spi.c ****   HW_GPIO_Write( RADIO_MOSI_PORT, RADIO_MOSI_PIN, 0 );
 142:../LoRaWAN/App/src/hw_spi.c ****   
 143:../LoRaWAN/App/src/hw_spi.c ****   initStruct.Pull =GPIO_PULLDOWN; 
 144:../LoRaWAN/App/src/hw_spi.c ****   HW_GPIO_Init ( RADIO_MISO_PORT, RADIO_MISO_PIN, &initStruct ); 
 145:../LoRaWAN/App/src/hw_spi.c ****   HW_GPIO_Write( RADIO_MISO_PORT, RADIO_MISO_PIN, 0 );
 146:../LoRaWAN/App/src/hw_spi.c ****   
 147:../LoRaWAN/App/src/hw_spi.c ****   initStruct.Pull =GPIO_NOPULL  ; 
 148:../LoRaWAN/App/src/hw_spi.c ****   HW_GPIO_Init ( RADIO_SCLK_PORT, RADIO_SCLK_PIN, &initStruct ); 
 149:../LoRaWAN/App/src/hw_spi.c ****   HW_GPIO_Write(  RADIO_SCLK_PORT, RADIO_SCLK_PIN, 0 );
 150:../LoRaWAN/App/src/hw_spi.c **** 
 151:../LoRaWAN/App/src/hw_spi.c ****   initStruct.Pull =GPIO_NOPULL  ; 
 152:../LoRaWAN/App/src/hw_spi.c ****   HW_GPIO_Init ( RADIO_NSS_PORT, RADIO_NSS_PIN , &initStruct ); 
 153:../LoRaWAN/App/src/hw_spi.c ****   HW_GPIO_Write( RADIO_NSS_PORT, RADIO_NSS_PIN , 1 );
 154:../LoRaWAN/App/src/hw_spi.c **** }
 155:../LoRaWAN/App/src/hw_spi.c **** 
 156:../LoRaWAN/App/src/hw_spi.c **** /*!
 157:../LoRaWAN/App/src/hw_spi.c ****  * @brief Sends outData and receives inData
 158:../LoRaWAN/App/src/hw_spi.c ****  *
 159:../LoRaWAN/App/src/hw_spi.c ****  * @param [IN] outData Byte to be sent
 160:../LoRaWAN/App/src/hw_spi.c ****  * @retval inData      Received byte.
 161:../LoRaWAN/App/src/hw_spi.c ****  */
 162:../LoRaWAN/App/src/hw_spi.c **** uint16_t HW_SPI_InOut( uint16_t txData )
 163:../LoRaWAN/App/src/hw_spi.c **** {
 164:../LoRaWAN/App/src/hw_spi.c ****   uint16_t rxData ;
 165:../LoRaWAN/App/src/hw_spi.c **** 
 166:../LoRaWAN/App/src/hw_spi.c ****   HAL_SPI_TransmitReceive( &hspi, ( uint8_t * ) &txData, ( uint8_t* ) &rxData, 1, HAL_MAX_DELAY);	
 167:../LoRaWAN/App/src/hw_spi.c **** 
 168:../LoRaWAN/App/src/hw_spi.c ****   return rxData;
 169:../LoRaWAN/App/src/hw_spi.c **** }
 170:../LoRaWAN/App/src/hw_spi.c **** 
 171:../LoRaWAN/App/src/hw_spi.c **** /* Private functions ---------------------------------------------------------*/
 172:../LoRaWAN/App/src/hw_spi.c **** 
 173:../LoRaWAN/App/src/hw_spi.c **** static uint32_t SpiFrequency( uint32_t hz )
 174:../LoRaWAN/App/src/hw_spi.c **** {
 175:../LoRaWAN/App/src/hw_spi.c ****   uint32_t divisor = 0;
 176:../LoRaWAN/App/src/hw_spi.c ****   uint32_t SysClkTmp = SystemCoreClock;
  44              		.loc 1 176 0
  45 0008 424B     		ldr	r3, .L29+8
 177:../LoRaWAN/App/src/hw_spi.c ****   uint32_t baudRate;
 178:../LoRaWAN/App/src/hw_spi.c ****   
 179:../LoRaWAN/App/src/hw_spi.c ****   while( SysClkTmp > hz)
  46              		.loc 1 179 0
  47 000a 434A     		ldr	r2, .L29+12
 176:../LoRaWAN/App/src/hw_spi.c ****   uint32_t baudRate;
ARM GAS  C:\Users\EBANO_~1\AppData\Local\Temp\cchOOF4s.s 			page 5


  48              		.loc 1 176 0
  49 000c 1B68     		ldr	r3, [r3]
  50              	.LVL1:
  51              	.LBE7:
  52              	.LBE6:
  62:../LoRaWAN/App/src/hw_spi.c ****   
  53              		.loc 1 62 0
  54 000e 87B0     		sub	sp, sp, #28
  55              	.LCFI1:
  56              		.cfi_def_cfa_offset 32
  57              	.LBB10:
  58              	.LBB8:
  59              		.loc 1 179 0
  60 0010 9342     		cmp	r3, r2
  61 0012 5CD9     		bls	.L9
  62              	.LVL2:
 180:../LoRaWAN/App/src/hw_spi.c ****   {
 181:../LoRaWAN/App/src/hw_spi.c ****     divisor++;
 182:../LoRaWAN/App/src/hw_spi.c ****     SysClkTmp= ( SysClkTmp >> 1);
  63              		.loc 1 182 0
  64 0014 5908     		lsrs	r1, r3, #1
  65              	.LVL3:
 179:../LoRaWAN/App/src/hw_spi.c ****   {
  66              		.loc 1 179 0
  67 0016 9142     		cmp	r1, r2
  68 0018 5BD9     		bls	.L10
  69              	.LVL4:
  70              		.loc 1 182 0
  71 001a 9908     		lsrs	r1, r3, #2
  72              	.LVL5:
 179:../LoRaWAN/App/src/hw_spi.c ****   {
  73              		.loc 1 179 0
  74 001c 9142     		cmp	r1, r2
  75 001e 63D9     		bls	.L11
  76              	.LVL6:
  77              		.loc 1 182 0
  78 0020 D908     		lsrs	r1, r3, #3
  79              	.LVL7:
 179:../LoRaWAN/App/src/hw_spi.c ****   {
  80              		.loc 1 179 0
  81 0022 9142     		cmp	r1, r2
  82 0024 62D9     		bls	.L12
  83              	.LVL8:
  84              		.loc 1 182 0
  85 0026 1909     		lsrs	r1, r3, #4
  86              	.LVL9:
 179:../LoRaWAN/App/src/hw_spi.c ****   {
  87              		.loc 1 179 0
  88 0028 9142     		cmp	r1, r2
  89 002a 61D9     		bls	.L13
  90              	.LVL10:
  91              		.loc 1 182 0
  92 002c 5909     		lsrs	r1, r3, #5
  93              	.LVL11:
 179:../LoRaWAN/App/src/hw_spi.c ****   {
  94              		.loc 1 179 0
  95 002e 9142     		cmp	r1, r2
ARM GAS  C:\Users\EBANO_~1\AppData\Local\Temp\cchOOF4s.s 			page 6


  96 0030 65D9     		bls	.L14
  97              	.LVL12:
  98              		.loc 1 182 0
  99 0032 9B09     		lsrs	r3, r3, #6
 100              	.LVL13:
 179:../LoRaWAN/App/src/hw_spi.c ****   {
 101              		.loc 1 179 0
 102 0034 3021     		movs	r1, #48
 103 0036 9342     		cmp	r3, r2
 104 0038 63D9     		bls	.L27
 105              	.LVL14:
 106              	.L5:
 107 003a 0823     		movs	r3, #8
 108 003c 1943     		orrs	r1, r3
 109              	.L2:
 110              	.LVL15:
 111              	.LBE8:
 112              	.LBE10:
  70:../LoRaWAN/App/src/hw_spi.c ****   hspi.Init.Mode           = SPI_MODE_MASTER;
 113              		.loc 1 70 0
 114 003e 0023     		movs	r3, #0
  71:../LoRaWAN/App/src/hw_spi.c ****   hspi.Init.CLKPolarity    = SPI_POLARITY_LOW;
 115              		.loc 1 71 0
 116 0040 8222     		movs	r2, #130
  70:../LoRaWAN/App/src/hw_spi.c ****   hspi.Init.Mode           = SPI_MODE_MASTER;
 117              		.loc 1 70 0
 118 0042 8360     		str	r3, [r0, #8]
  72:../LoRaWAN/App/src/hw_spi.c ****   hspi.Init.CLKPhase       = SPI_PHASE_1EDGE;
 119              		.loc 1 72 0
 120 0044 0361     		str	r3, [r0, #16]
  73:../LoRaWAN/App/src/hw_spi.c ****   hspi.Init.DataSize       = SPI_DATASIZE_8BIT;
 121              		.loc 1 73 0
 122 0046 4361     		str	r3, [r0, #20]
  74:../LoRaWAN/App/src/hw_spi.c ****   hspi.Init.CRCCalculation = SPI_CRCCALCULATION_DISABLE;  
 123              		.loc 1 74 0
 124 0048 C360     		str	r3, [r0, #12]
  75:../LoRaWAN/App/src/hw_spi.c ****   hspi.Init.FirstBit       = SPI_FIRSTBIT_MSB;
 125              		.loc 1 75 0
 126 004a 8362     		str	r3, [r0, #40]
  76:../LoRaWAN/App/src/hw_spi.c ****   hspi.Init.NSS            = SPI_NSS_SOFT;
 127              		.loc 1 76 0
 128 004c 0362     		str	r3, [r0, #32]
  78:../LoRaWAN/App/src/hw_spi.c **** 
 129              		.loc 1 78 0
 130 004e 4362     		str	r3, [r0, #36]
  81:../LoRaWAN/App/src/hw_spi.c **** 
 131              		.loc 1 81 0
 132 0050 8023     		movs	r3, #128
  71:../LoRaWAN/App/src/hw_spi.c ****   hspi.Init.CLKPolarity    = SPI_POLARITY_LOW;
 133              		.loc 1 71 0
 134 0052 5200     		lsls	r2, r2, #1
 135 0054 4260     		str	r2, [r0, #4]
  77:../LoRaWAN/App/src/hw_spi.c ****   hspi.Init.TIMode         = SPI_TIMODE_DISABLE;
 136              		.loc 1 77 0
 137 0056 FC32     		adds	r2, r2, #252
 138 0058 8261     		str	r2, [r0, #24]
  81:../LoRaWAN/App/src/hw_spi.c **** 
ARM GAS  C:\Users\EBANO_~1\AppData\Local\Temp\cchOOF4s.s 			page 7


 139              		.loc 1 81 0
 140 005a 304A     		ldr	r2, .L29+16
  69:../LoRaWAN/App/src/hw_spi.c ****   hspi.Init.Direction      = SPI_DIRECTION_2LINES;
 141              		.loc 1 69 0
 142 005c C161     		str	r1, [r0, #28]
  81:../LoRaWAN/App/src/hw_spi.c **** 
 143              		.loc 1 81 0
 144 005e 516B     		ldr	r1, [r2, #52]
 145 0060 5B01     		lsls	r3, r3, #5
 146 0062 0B43     		orrs	r3, r1
 147 0064 5363     		str	r3, [r2, #52]
  84:../LoRaWAN/App/src/hw_spi.c ****   {
 148              		.loc 1 84 0
 149 0066 FFF7FEFF 		bl	HAL_SPI_Init
 150              	.LVL16:
 151 006a 0028     		cmp	r0, #0
 152 006c 01D0     		beq	.L7
  87:../LoRaWAN/App/src/hw_spi.c ****   }
 153              		.loc 1 87 0
 154 006e FFF7FEFF 		bl	Error_Handler
 155              	.LVL17:
 156              	.L7:
 157              	.LBB11:
 158              	.LBB12:
 113:../LoRaWAN/App/src/hw_spi.c ****   
 159              		.loc 1 113 0
 160 0072 1422     		movs	r2, #20
 161 0074 0021     		movs	r1, #0
 162 0076 01A8     		add	r0, sp, #4
 163 0078 FFF7FEFF 		bl	memset
 164              	.LVL18:
 116:../LoRaWAN/App/src/hw_spi.c ****   initStruct.Pull =GPIO_NOPULL  ;
 165              		.loc 1 116 0
 166 007c 0223     		movs	r3, #2
 121:../LoRaWAN/App/src/hw_spi.c ****   HW_GPIO_Init( RADIO_MISO_PORT, RADIO_MISO_PIN, &initStruct);
 167              		.loc 1 121 0
 168 007e 01AA     		add	r2, sp, #4
 116:../LoRaWAN/App/src/hw_spi.c ****   initStruct.Pull =GPIO_NOPULL  ;
 169              		.loc 1 116 0
 170 0080 0293     		str	r3, [sp, #8]
 121:../LoRaWAN/App/src/hw_spi.c ****   HW_GPIO_Init( RADIO_MISO_PORT, RADIO_MISO_PIN, &initStruct);
 171              		.loc 1 121 0
 172 0082 0821     		movs	r1, #8
 118:../LoRaWAN/App/src/hw_spi.c ****   initStruct.Alternate= SPI1_AF ;
 173              		.loc 1 118 0
 174 0084 0133     		adds	r3, r3, #1
 121:../LoRaWAN/App/src/hw_spi.c ****   HW_GPIO_Init( RADIO_MISO_PORT, RADIO_MISO_PIN, &initStruct);
 175              		.loc 1 121 0
 176 0086 2648     		ldr	r0, .L29+20
 118:../LoRaWAN/App/src/hw_spi.c ****   initStruct.Alternate= SPI1_AF ;
 177              		.loc 1 118 0
 178 0088 0493     		str	r3, [sp, #16]
 121:../LoRaWAN/App/src/hw_spi.c ****   HW_GPIO_Init( RADIO_MISO_PORT, RADIO_MISO_PIN, &initStruct);
 179              		.loc 1 121 0
 180 008a FFF7FEFF 		bl	HW_GPIO_Init
 181              	.LVL19:
 122:../LoRaWAN/App/src/hw_spi.c ****   HW_GPIO_Init( RADIO_MOSI_PORT, RADIO_MOSI_PIN, &initStruct);
ARM GAS  C:\Users\EBANO_~1\AppData\Local\Temp\cchOOF4s.s 			page 8


 182              		.loc 1 122 0
 183 008e A020     		movs	r0, #160
 184 0090 01AA     		add	r2, sp, #4
 185 0092 4021     		movs	r1, #64
 186 0094 C005     		lsls	r0, r0, #23
 187 0096 FFF7FEFF 		bl	HW_GPIO_Init
 188              	.LVL20:
 123:../LoRaWAN/App/src/hw_spi.c **** 
 189              		.loc 1 123 0
 190 009a A020     		movs	r0, #160
 191 009c 01AA     		add	r2, sp, #4
 192 009e 8021     		movs	r1, #128
 193 00a0 C005     		lsls	r0, r0, #23
 194 00a2 FFF7FEFF 		bl	HW_GPIO_Init
 195              	.LVL21:
 125:../LoRaWAN/App/src/hw_spi.c ****   initStruct.Pull = GPIO_NOPULL;
 196              		.loc 1 125 0
 197 00a6 0123     		movs	r3, #1
 128:../LoRaWAN/App/src/hw_spi.c **** 
 198              		.loc 1 128 0
 199 00a8 8021     		movs	r1, #128
 200 00aa A020     		movs	r0, #160
 125:../LoRaWAN/App/src/hw_spi.c ****   initStruct.Pull = GPIO_NOPULL;
 201              		.loc 1 125 0
 202 00ac 0293     		str	r3, [sp, #8]
 126:../LoRaWAN/App/src/hw_spi.c **** 
 203              		.loc 1 126 0
 204 00ae 0023     		movs	r3, #0
 128:../LoRaWAN/App/src/hw_spi.c **** 
 205              		.loc 1 128 0
 206 00b0 01AA     		add	r2, sp, #4
 207 00b2 0902     		lsls	r1, r1, #8
 208 00b4 C005     		lsls	r0, r0, #23
 126:../LoRaWAN/App/src/hw_spi.c **** 
 209              		.loc 1 126 0
 210 00b6 0393     		str	r3, [sp, #12]
 128:../LoRaWAN/App/src/hw_spi.c **** 
 211              		.loc 1 128 0
 212 00b8 FFF7FEFF 		bl	HW_GPIO_Init
 213              	.LVL22:
 130:../LoRaWAN/App/src/hw_spi.c **** }
 214              		.loc 1 130 0
 215 00bc 8021     		movs	r1, #128
 216 00be A020     		movs	r0, #160
 217 00c0 0122     		movs	r2, #1
 218 00c2 0902     		lsls	r1, r1, #8
 219 00c4 C005     		lsls	r0, r0, #23
 220 00c6 FFF7FEFF 		bl	HW_GPIO_Write
 221              	.LVL23:
 222              	.LBE12:
 223              	.LBE11:
  92:../LoRaWAN/App/src/hw_spi.c **** 
 224              		.loc 1 92 0
 225 00ca 07B0     		add	sp, sp, #28
 226              		@ sp needed
 227 00cc 00BD     		pop	{pc}
 228              	.LVL24:
ARM GAS  C:\Users\EBANO_~1\AppData\Local\Temp\cchOOF4s.s 			page 9


 229              	.L9:
 230              	.LBB13:
 231              	.LBB9:
 183:../LoRaWAN/App/src/hw_spi.c ****     
 184:../LoRaWAN/App/src/hw_spi.c ****     if (divisor >= 7)
 185:../LoRaWAN/App/src/hw_spi.c ****       break;
 186:../LoRaWAN/App/src/hw_spi.c ****   }
 187:../LoRaWAN/App/src/hw_spi.c ****   
 188:../LoRaWAN/App/src/hw_spi.c ****   baudRate =((( divisor & 0x4 ) == 0 )? 0x0 : SPI_CR1_BR_2  )| 
 232              		.loc 1 188 0
 233 00ce 0021     		movs	r1, #0
 234 00d0 B5E7     		b	.L2
 235              	.LVL25:
 236              	.L10:
 181:../LoRaWAN/App/src/hw_spi.c ****     SysClkTmp= ( SysClkTmp >> 1);
 237              		.loc 1 181 0
 238 00d2 0121     		movs	r1, #1
 239              	.LVL26:
 240              	.L3:
 241 00d4 0223     		movs	r3, #2
 242 00d6 0122     		movs	r2, #1
 243 00d8 0B40     		ands	r3, r1
 244 00da 0A40     		ands	r2, r1
 245              		.loc 1 188 0
 246 00dc 0021     		movs	r1, #0
 247              	.LVL27:
 248              	.L8:
 189:../LoRaWAN/App/src/hw_spi.c ****             ((( divisor & 0x2 ) == 0 )? 0x0 : SPI_CR1_BR_1  )| 
 249              		.loc 1 189 0
 250 00de 002B     		cmp	r3, #0
 251 00e0 11D1     		bne	.L28
 252              	.L6:
 190:../LoRaWAN/App/src/hw_spi.c ****             ((( divisor & 0x1 ) == 0 )? 0x0 : SPI_CR1_BR_0  );
 253              		.loc 1 190 0
 254 00e2 002A     		cmp	r2, #0
 255 00e4 ABD0     		beq	.L2
 256 00e6 A8E7     		b	.L5
 257              	.LVL28:
 258              	.L11:
 181:../LoRaWAN/App/src/hw_spi.c ****     SysClkTmp= ( SysClkTmp >> 1);
 259              		.loc 1 181 0
 260 00e8 0221     		movs	r1, #2
 261              	.LVL29:
 262 00ea F3E7     		b	.L3
 263              	.LVL30:
 264              	.L12:
 265 00ec 0321     		movs	r1, #3
 266              	.LVL31:
 267 00ee F1E7     		b	.L3
 268              	.LVL32:
 269              	.L13:
 270 00f0 0421     		movs	r1, #4
 271              	.LVL33:
 272              	.L4:
 273 00f2 0223     		movs	r3, #2
 274 00f4 0122     		movs	r2, #1
 275 00f6 0B40     		ands	r3, r1
ARM GAS  C:\Users\EBANO_~1\AppData\Local\Temp\cchOOF4s.s 			page 10


 276 00f8 0A40     		ands	r2, r1
 188:../LoRaWAN/App/src/hw_spi.c ****             ((( divisor & 0x2 ) == 0 )? 0x0 : SPI_CR1_BR_1  )| 
 277              		.loc 1 188 0
 278 00fa 2021     		movs	r1, #32
 279              	.LVL34:
 280 00fc EFE7     		b	.L8
 281              	.LVL35:
 282              	.L14:
 181:../LoRaWAN/App/src/hw_spi.c ****     SysClkTmp= ( SysClkTmp >> 1);
 283              		.loc 1 181 0
 284 00fe 0521     		movs	r1, #5
 285              	.LVL36:
 286 0100 F7E7     		b	.L4
 287              	.LVL37:
 288              	.L27:
 289 0102 2A39     		subs	r1, r1, #42
 290 0104 F5E7     		b	.L4
 291              	.LVL38:
 292              	.L28:
 293 0106 1023     		movs	r3, #16
 294 0108 1943     		orrs	r1, r3
 295 010a EAE7     		b	.L6
 296              	.L30:
 297              		.align	2
 298              	.L29:
 299 010c 00300140 		.word	1073819648
 300 0110 00000000 		.word	.LANCHOR0
 301 0114 00000000 		.word	SystemCoreClock
 302 0118 80969800 		.word	10000000
 303 011c 00100240 		.word	1073876992
 304 0120 00040050 		.word	1342178304
 305              	.LBE9:
 306              	.LBE13:
 307              		.cfi_endproc
 308              	.LFE39:
 309              		.size	HW_SPI_Init, .-HW_SPI_Init
 310              		.section	.text.HW_SPI_DeInit,"ax",%progbits
 311              		.align	1
 312              		.p2align 2,,3
 313              		.global	HW_SPI_DeInit
 314              		.syntax unified
 315              		.code	16
 316              		.thumb_func
 317              		.fpu softvfp
 318              		.type	HW_SPI_DeInit, %function
 319              	HW_SPI_DeInit:
 320              	.LFB40:
 100:../LoRaWAN/App/src/hw_spi.c **** 
 321              		.loc 1 100 0
 322              		.cfi_startproc
 323              		@ args = 0, pretend = 0, frame = 24
 324              		@ frame_needed = 0, uses_anonymous_args = 0
 325 0000 70B5     		push	{r4, r5, r6, lr}
 326              	.LCFI2:
 327              		.cfi_def_cfa_offset 16
 328              		.cfi_offset 4, -16
 329              		.cfi_offset 5, -12
ARM GAS  C:\Users\EBANO_~1\AppData\Local\Temp\cchOOF4s.s 			page 11


 330              		.cfi_offset 6, -8
 331              		.cfi_offset 14, -4
 102:../LoRaWAN/App/src/hw_spi.c **** 
 332              		.loc 1 102 0
 333 0002 2448     		ldr	r0, .L32
 100:../LoRaWAN/App/src/hw_spi.c **** 
 334              		.loc 1 100 0
 335 0004 86B0     		sub	sp, sp, #24
 336              	.LCFI3:
 337              		.cfi_def_cfa_offset 40
 102:../LoRaWAN/App/src/hw_spi.c **** 
 338              		.loc 1 102 0
 339 0006 FFF7FEFF 		bl	HAL_SPI_DeInit
 340              	.LVL39:
 105:../LoRaWAN/App/src/hw_spi.c ****   __HAL_RCC_SPI1_RELEASE_RESET();
 341              		.loc 1 105 0
 342 000a 8022     		movs	r2, #128
 343 000c 224B     		ldr	r3, .L32+4
 344 000e 5201     		lsls	r2, r2, #5
 345 0010 596A     		ldr	r1, [r3, #36]
 346              	.LBB16:
 347              	.LBB17:
 140:../LoRaWAN/App/src/hw_spi.c ****   HW_GPIO_Write( RADIO_MOSI_PORT, RADIO_MOSI_PIN, 0 );
 348              		.loc 1 140 0
 349 0012 A024     		movs	r4, #160
 350              	.LBE17:
 351              	.LBE16:
 105:../LoRaWAN/App/src/hw_spi.c ****   __HAL_RCC_SPI1_RELEASE_RESET();
 352              		.loc 1 105 0
 353 0014 0A43     		orrs	r2, r1
 354 0016 5A62     		str	r2, [r3, #36]
 106:../LoRaWAN/App/src/hw_spi.c ****   /*##-2- Configure the SPI GPIOs */
 355              		.loc 1 106 0
 356 0018 5A6A     		ldr	r2, [r3, #36]
 357 001a 2049     		ldr	r1, .L32+8
 358              	.LBB20:
 359              	.LBB18:
 135:../LoRaWAN/App/src/hw_spi.c ****     
 360              		.loc 1 135 0
 361 001c 01A8     		add	r0, sp, #4
 362              	.LBE18:
 363              	.LBE20:
 106:../LoRaWAN/App/src/hw_spi.c ****   /*##-2- Configure the SPI GPIOs */
 364              		.loc 1 106 0
 365 001e 0A40     		ands	r2, r1
 366 0020 5A62     		str	r2, [r3, #36]
 367              	.LBB21:
 368              	.LBB19:
 135:../LoRaWAN/App/src/hw_spi.c ****     
 369              		.loc 1 135 0
 370 0022 0021     		movs	r1, #0
 371 0024 1422     		movs	r2, #20
 372 0026 FFF7FEFF 		bl	memset
 373              	.LVL40:
 137:../LoRaWAN/App/src/hw_spi.c **** 
 374              		.loc 1 137 0
 375 002a 0123     		movs	r3, #1
ARM GAS  C:\Users\EBANO_~1\AppData\Local\Temp\cchOOF4s.s 			page 12


 140:../LoRaWAN/App/src/hw_spi.c ****   HW_GPIO_Write( RADIO_MOSI_PORT, RADIO_MOSI_PIN, 0 );
 376              		.loc 1 140 0
 377 002c E405     		lsls	r4, r4, #23
 378 002e 01AA     		add	r2, sp, #4
 379 0030 2000     		movs	r0, r4
 380 0032 8021     		movs	r1, #128
 137:../LoRaWAN/App/src/hw_spi.c **** 
 381              		.loc 1 137 0
 382 0034 0293     		str	r3, [sp, #8]
 140:../LoRaWAN/App/src/hw_spi.c ****   HW_GPIO_Write( RADIO_MOSI_PORT, RADIO_MOSI_PIN, 0 );
 383              		.loc 1 140 0
 384 0036 FFF7FEFF 		bl	HW_GPIO_Init
 385              	.LVL41:
 141:../LoRaWAN/App/src/hw_spi.c ****   
 386              		.loc 1 141 0
 387 003a 2000     		movs	r0, r4
 388 003c 0022     		movs	r2, #0
 389 003e 8021     		movs	r1, #128
 390 0040 FFF7FEFF 		bl	HW_GPIO_Write
 391              	.LVL42:
 143:../LoRaWAN/App/src/hw_spi.c ****   HW_GPIO_Init ( RADIO_MISO_PORT, RADIO_MISO_PIN, &initStruct ); 
 392              		.loc 1 143 0
 393 0044 0223     		movs	r3, #2
 147:../LoRaWAN/App/src/hw_spi.c ****   HW_GPIO_Init ( RADIO_SCLK_PORT, RADIO_SCLK_PIN, &initStruct ); 
 394              		.loc 1 147 0
 395 0046 0025     		movs	r5, #0
 144:../LoRaWAN/App/src/hw_spi.c ****   HW_GPIO_Write( RADIO_MISO_PORT, RADIO_MISO_PIN, 0 );
 396              		.loc 1 144 0
 397 0048 01AA     		add	r2, sp, #4
 398 004a 2000     		movs	r0, r4
 148:../LoRaWAN/App/src/hw_spi.c ****   HW_GPIO_Write(  RADIO_SCLK_PORT, RADIO_SCLK_PIN, 0 );
 399              		.loc 1 148 0
 400 004c 144E     		ldr	r6, .L32+12
 144:../LoRaWAN/App/src/hw_spi.c ****   HW_GPIO_Write( RADIO_MISO_PORT, RADIO_MISO_PIN, 0 );
 401              		.loc 1 144 0
 402 004e 4021     		movs	r1, #64
 143:../LoRaWAN/App/src/hw_spi.c ****   HW_GPIO_Init ( RADIO_MISO_PORT, RADIO_MISO_PIN, &initStruct ); 
 403              		.loc 1 143 0
 404 0050 0393     		str	r3, [sp, #12]
 144:../LoRaWAN/App/src/hw_spi.c ****   HW_GPIO_Write( RADIO_MISO_PORT, RADIO_MISO_PIN, 0 );
 405              		.loc 1 144 0
 406 0052 FFF7FEFF 		bl	HW_GPIO_Init
 407              	.LVL43:
 145:../LoRaWAN/App/src/hw_spi.c ****   
 408              		.loc 1 145 0
 409 0056 2000     		movs	r0, r4
 410 0058 0022     		movs	r2, #0
 411 005a 4021     		movs	r1, #64
 412 005c FFF7FEFF 		bl	HW_GPIO_Write
 413              	.LVL44:
 148:../LoRaWAN/App/src/hw_spi.c ****   HW_GPIO_Write(  RADIO_SCLK_PORT, RADIO_SCLK_PIN, 0 );
 414              		.loc 1 148 0
 415 0060 01AA     		add	r2, sp, #4
 416 0062 3000     		movs	r0, r6
 417 0064 0821     		movs	r1, #8
 147:../LoRaWAN/App/src/hw_spi.c ****   HW_GPIO_Init ( RADIO_SCLK_PORT, RADIO_SCLK_PIN, &initStruct ); 
 418              		.loc 1 147 0
ARM GAS  C:\Users\EBANO_~1\AppData\Local\Temp\cchOOF4s.s 			page 13


 419 0066 0395     		str	r5, [sp, #12]
 148:../LoRaWAN/App/src/hw_spi.c ****   HW_GPIO_Write(  RADIO_SCLK_PORT, RADIO_SCLK_PIN, 0 );
 420              		.loc 1 148 0
 421 0068 FFF7FEFF 		bl	HW_GPIO_Init
 422              	.LVL45:
 149:../LoRaWAN/App/src/hw_spi.c **** 
 423              		.loc 1 149 0
 424 006c 3000     		movs	r0, r6
 425 006e 0022     		movs	r2, #0
 426 0070 0821     		movs	r1, #8
 427 0072 FFF7FEFF 		bl	HW_GPIO_Write
 428              	.LVL46:
 151:../LoRaWAN/App/src/hw_spi.c ****   HW_GPIO_Init ( RADIO_NSS_PORT, RADIO_NSS_PIN , &initStruct ); 
 429              		.loc 1 151 0
 430 0076 0395     		str	r5, [sp, #12]
 152:../LoRaWAN/App/src/hw_spi.c ****   HW_GPIO_Write( RADIO_NSS_PORT, RADIO_NSS_PIN , 1 );
 431              		.loc 1 152 0
 432 0078 8025     		movs	r5, #128
 433 007a 2D02     		lsls	r5, r5, #8
 434 007c 01AA     		add	r2, sp, #4
 435 007e 2900     		movs	r1, r5
 436 0080 2000     		movs	r0, r4
 437 0082 FFF7FEFF 		bl	HW_GPIO_Init
 438              	.LVL47:
 153:../LoRaWAN/App/src/hw_spi.c **** }
 439              		.loc 1 153 0
 440 0086 0122     		movs	r2, #1
 441 0088 2900     		movs	r1, r5
 442 008a 2000     		movs	r0, r4
 443 008c FFF7FEFF 		bl	HW_GPIO_Write
 444              	.LVL48:
 445              	.LBE19:
 446              	.LBE21:
 109:../LoRaWAN/App/src/hw_spi.c **** 
 447              		.loc 1 109 0
 448 0090 06B0     		add	sp, sp, #24
 449              		@ sp needed
 450 0092 70BD     		pop	{r4, r5, r6, pc}
 451              	.L33:
 452              		.align	2
 453              	.L32:
 454 0094 00000000 		.word	.LANCHOR0
 455 0098 00100240 		.word	1073876992
 456 009c FFEFFFFF 		.word	-4097
 457 00a0 00040050 		.word	1342178304
 458              		.cfi_endproc
 459              	.LFE40:
 460              		.size	HW_SPI_DeInit, .-HW_SPI_DeInit
 461              		.section	.text.HW_SPI_IoInit,"ax",%progbits
 462              		.align	1
 463              		.p2align 2,,3
 464              		.global	HW_SPI_IoInit
 465              		.syntax unified
 466              		.code	16
 467              		.thumb_func
 468              		.fpu softvfp
 469              		.type	HW_SPI_IoInit, %function
ARM GAS  C:\Users\EBANO_~1\AppData\Local\Temp\cchOOF4s.s 			page 14


 470              	HW_SPI_IoInit:
 471              	.LFB41:
 112:../LoRaWAN/App/src/hw_spi.c ****   GPIO_InitTypeDef initStruct={0};
 472              		.loc 1 112 0
 473              		.cfi_startproc
 474              		@ args = 0, pretend = 0, frame = 24
 475              		@ frame_needed = 0, uses_anonymous_args = 0
 476 0000 30B5     		push	{r4, r5, lr}
 477              	.LCFI4:
 478              		.cfi_def_cfa_offset 12
 479              		.cfi_offset 4, -12
 480              		.cfi_offset 5, -8
 481              		.cfi_offset 14, -4
 482 0002 87B0     		sub	sp, sp, #28
 483              	.LCFI5:
 484              		.cfi_def_cfa_offset 40
 113:../LoRaWAN/App/src/hw_spi.c ****   
 485              		.loc 1 113 0
 486 0004 1422     		movs	r2, #20
 487 0006 0021     		movs	r1, #0
 488 0008 01A8     		add	r0, sp, #4
 489 000a FFF7FEFF 		bl	memset
 490              	.LVL49:
 122:../LoRaWAN/App/src/hw_spi.c ****   HW_GPIO_Init( RADIO_MOSI_PORT, RADIO_MOSI_PIN, &initStruct);
 491              		.loc 1 122 0
 492 000e A024     		movs	r4, #160
 116:../LoRaWAN/App/src/hw_spi.c ****   initStruct.Pull =GPIO_NOPULL  ;
 493              		.loc 1 116 0
 494 0010 0223     		movs	r3, #2
 122:../LoRaWAN/App/src/hw_spi.c ****   HW_GPIO_Init( RADIO_MOSI_PORT, RADIO_MOSI_PIN, &initStruct);
 495              		.loc 1 122 0
 496 0012 E405     		lsls	r4, r4, #23
 116:../LoRaWAN/App/src/hw_spi.c ****   initStruct.Pull =GPIO_NOPULL  ;
 497              		.loc 1 116 0
 498 0014 0293     		str	r3, [sp, #8]
 121:../LoRaWAN/App/src/hw_spi.c ****   HW_GPIO_Init( RADIO_MISO_PORT, RADIO_MISO_PIN, &initStruct);
 499              		.loc 1 121 0
 500 0016 01AA     		add	r2, sp, #4
 118:../LoRaWAN/App/src/hw_spi.c ****   initStruct.Alternate= SPI1_AF ;
 501              		.loc 1 118 0
 502 0018 0133     		adds	r3, r3, #1
 121:../LoRaWAN/App/src/hw_spi.c ****   HW_GPIO_Init( RADIO_MISO_PORT, RADIO_MISO_PIN, &initStruct);
 503              		.loc 1 121 0
 504 001a 0821     		movs	r1, #8
 505 001c 0F48     		ldr	r0, .L35
 118:../LoRaWAN/App/src/hw_spi.c ****   initStruct.Alternate= SPI1_AF ;
 506              		.loc 1 118 0
 507 001e 0493     		str	r3, [sp, #16]
 121:../LoRaWAN/App/src/hw_spi.c ****   HW_GPIO_Init( RADIO_MISO_PORT, RADIO_MISO_PIN, &initStruct);
 508              		.loc 1 121 0
 509 0020 FFF7FEFF 		bl	HW_GPIO_Init
 510              	.LVL50:
 122:../LoRaWAN/App/src/hw_spi.c ****   HW_GPIO_Init( RADIO_MOSI_PORT, RADIO_MOSI_PIN, &initStruct);
 511              		.loc 1 122 0
 512 0024 01AA     		add	r2, sp, #4
 513 0026 2000     		movs	r0, r4
 514 0028 4021     		movs	r1, #64
ARM GAS  C:\Users\EBANO_~1\AppData\Local\Temp\cchOOF4s.s 			page 15


 515 002a FFF7FEFF 		bl	HW_GPIO_Init
 516              	.LVL51:
 123:../LoRaWAN/App/src/hw_spi.c **** 
 517              		.loc 1 123 0
 518 002e 01AA     		add	r2, sp, #4
 519 0030 2000     		movs	r0, r4
 520 0032 8021     		movs	r1, #128
 521 0034 FFF7FEFF 		bl	HW_GPIO_Init
 522              	.LVL52:
 125:../LoRaWAN/App/src/hw_spi.c ****   initStruct.Pull = GPIO_NOPULL;
 523              		.loc 1 125 0
 524 0038 0123     		movs	r3, #1
 128:../LoRaWAN/App/src/hw_spi.c **** 
 525              		.loc 1 128 0
 526 003a 8025     		movs	r5, #128
 125:../LoRaWAN/App/src/hw_spi.c ****   initStruct.Pull = GPIO_NOPULL;
 527              		.loc 1 125 0
 528 003c 0293     		str	r3, [sp, #8]
 126:../LoRaWAN/App/src/hw_spi.c **** 
 529              		.loc 1 126 0
 530 003e 0023     		movs	r3, #0
 128:../LoRaWAN/App/src/hw_spi.c **** 
 531              		.loc 1 128 0
 532 0040 2D02     		lsls	r5, r5, #8
 533 0042 01AA     		add	r2, sp, #4
 534 0044 2900     		movs	r1, r5
 535 0046 2000     		movs	r0, r4
 126:../LoRaWAN/App/src/hw_spi.c **** 
 536              		.loc 1 126 0
 537 0048 0393     		str	r3, [sp, #12]
 128:../LoRaWAN/App/src/hw_spi.c **** 
 538              		.loc 1 128 0
 539 004a FFF7FEFF 		bl	HW_GPIO_Init
 540              	.LVL53:
 130:../LoRaWAN/App/src/hw_spi.c **** }
 541              		.loc 1 130 0
 542 004e 0122     		movs	r2, #1
 543 0050 2900     		movs	r1, r5
 544 0052 2000     		movs	r0, r4
 545 0054 FFF7FEFF 		bl	HW_GPIO_Write
 546              	.LVL54:
 131:../LoRaWAN/App/src/hw_spi.c **** 
 547              		.loc 1 131 0
 548 0058 07B0     		add	sp, sp, #28
 549              		@ sp needed
 550 005a 30BD     		pop	{r4, r5, pc}
 551              	.L36:
 552              		.align	2
 553              	.L35:
 554 005c 00040050 		.word	1342178304
 555              		.cfi_endproc
 556              	.LFE41:
 557              		.size	HW_SPI_IoInit, .-HW_SPI_IoInit
 558              		.section	.text.HW_SPI_IoDeInit,"ax",%progbits
 559              		.align	1
 560              		.p2align 2,,3
 561              		.global	HW_SPI_IoDeInit
ARM GAS  C:\Users\EBANO_~1\AppData\Local\Temp\cchOOF4s.s 			page 16


 562              		.syntax unified
 563              		.code	16
 564              		.thumb_func
 565              		.fpu softvfp
 566              		.type	HW_SPI_IoDeInit, %function
 567              	HW_SPI_IoDeInit:
 568              	.LFB42:
 134:../LoRaWAN/App/src/hw_spi.c ****   GPIO_InitTypeDef initStruct={0};
 569              		.loc 1 134 0
 570              		.cfi_startproc
 571              		@ args = 0, pretend = 0, frame = 24
 572              		@ frame_needed = 0, uses_anonymous_args = 0
 573 0000 70B5     		push	{r4, r5, r6, lr}
 574              	.LCFI6:
 575              		.cfi_def_cfa_offset 16
 576              		.cfi_offset 4, -16
 577              		.cfi_offset 5, -12
 578              		.cfi_offset 6, -8
 579              		.cfi_offset 14, -4
 140:../LoRaWAN/App/src/hw_spi.c ****   HW_GPIO_Write( RADIO_MOSI_PORT, RADIO_MOSI_PIN, 0 );
 580              		.loc 1 140 0
 581 0002 A024     		movs	r4, #160
 134:../LoRaWAN/App/src/hw_spi.c ****   GPIO_InitTypeDef initStruct={0};
 582              		.loc 1 134 0
 583 0004 86B0     		sub	sp, sp, #24
 584              	.LCFI7:
 585              		.cfi_def_cfa_offset 40
 135:../LoRaWAN/App/src/hw_spi.c ****     
 586              		.loc 1 135 0
 587 0006 1422     		movs	r2, #20
 588 0008 0021     		movs	r1, #0
 589 000a 01A8     		add	r0, sp, #4
 590 000c FFF7FEFF 		bl	memset
 591              	.LVL55:
 137:../LoRaWAN/App/src/hw_spi.c **** 
 592              		.loc 1 137 0
 593 0010 0123     		movs	r3, #1
 140:../LoRaWAN/App/src/hw_spi.c ****   HW_GPIO_Write( RADIO_MOSI_PORT, RADIO_MOSI_PIN, 0 );
 594              		.loc 1 140 0
 595 0012 E405     		lsls	r4, r4, #23
 596 0014 01AA     		add	r2, sp, #4
 597 0016 2000     		movs	r0, r4
 598 0018 8021     		movs	r1, #128
 137:../LoRaWAN/App/src/hw_spi.c **** 
 599              		.loc 1 137 0
 600 001a 0293     		str	r3, [sp, #8]
 140:../LoRaWAN/App/src/hw_spi.c ****   HW_GPIO_Write( RADIO_MOSI_PORT, RADIO_MOSI_PIN, 0 );
 601              		.loc 1 140 0
 602 001c FFF7FEFF 		bl	HW_GPIO_Init
 603              	.LVL56:
 141:../LoRaWAN/App/src/hw_spi.c ****   
 604              		.loc 1 141 0
 605 0020 2000     		movs	r0, r4
 606 0022 0022     		movs	r2, #0
 607 0024 8021     		movs	r1, #128
 608 0026 FFF7FEFF 		bl	HW_GPIO_Write
 609              	.LVL57:
ARM GAS  C:\Users\EBANO_~1\AppData\Local\Temp\cchOOF4s.s 			page 17


 143:../LoRaWAN/App/src/hw_spi.c ****   HW_GPIO_Init ( RADIO_MISO_PORT, RADIO_MISO_PIN, &initStruct ); 
 610              		.loc 1 143 0
 611 002a 0223     		movs	r3, #2
 147:../LoRaWAN/App/src/hw_spi.c ****   HW_GPIO_Init ( RADIO_SCLK_PORT, RADIO_SCLK_PIN, &initStruct ); 
 612              		.loc 1 147 0
 613 002c 0025     		movs	r5, #0
 144:../LoRaWAN/App/src/hw_spi.c ****   HW_GPIO_Write( RADIO_MISO_PORT, RADIO_MISO_PIN, 0 );
 614              		.loc 1 144 0
 615 002e 01AA     		add	r2, sp, #4
 616 0030 2000     		movs	r0, r4
 148:../LoRaWAN/App/src/hw_spi.c ****   HW_GPIO_Write(  RADIO_SCLK_PORT, RADIO_SCLK_PIN, 0 );
 617              		.loc 1 148 0
 618 0032 124E     		ldr	r6, .L38
 144:../LoRaWAN/App/src/hw_spi.c ****   HW_GPIO_Write( RADIO_MISO_PORT, RADIO_MISO_PIN, 0 );
 619              		.loc 1 144 0
 620 0034 4021     		movs	r1, #64
 143:../LoRaWAN/App/src/hw_spi.c ****   HW_GPIO_Init ( RADIO_MISO_PORT, RADIO_MISO_PIN, &initStruct ); 
 621              		.loc 1 143 0
 622 0036 0393     		str	r3, [sp, #12]
 144:../LoRaWAN/App/src/hw_spi.c ****   HW_GPIO_Write( RADIO_MISO_PORT, RADIO_MISO_PIN, 0 );
 623              		.loc 1 144 0
 624 0038 FFF7FEFF 		bl	HW_GPIO_Init
 625              	.LVL58:
 145:../LoRaWAN/App/src/hw_spi.c ****   
 626              		.loc 1 145 0
 627 003c 2000     		movs	r0, r4
 628 003e 0022     		movs	r2, #0
 629 0040 4021     		movs	r1, #64
 630 0042 FFF7FEFF 		bl	HW_GPIO_Write
 631              	.LVL59:
 148:../LoRaWAN/App/src/hw_spi.c ****   HW_GPIO_Write(  RADIO_SCLK_PORT, RADIO_SCLK_PIN, 0 );
 632              		.loc 1 148 0
 633 0046 01AA     		add	r2, sp, #4
 634 0048 3000     		movs	r0, r6
 635 004a 0821     		movs	r1, #8
 147:../LoRaWAN/App/src/hw_spi.c ****   HW_GPIO_Init ( RADIO_SCLK_PORT, RADIO_SCLK_PIN, &initStruct ); 
 636              		.loc 1 147 0
 637 004c 0395     		str	r5, [sp, #12]
 148:../LoRaWAN/App/src/hw_spi.c ****   HW_GPIO_Write(  RADIO_SCLK_PORT, RADIO_SCLK_PIN, 0 );
 638              		.loc 1 148 0
 639 004e FFF7FEFF 		bl	HW_GPIO_Init
 640              	.LVL60:
 149:../LoRaWAN/App/src/hw_spi.c **** 
 641              		.loc 1 149 0
 642 0052 3000     		movs	r0, r6
 643 0054 0022     		movs	r2, #0
 644 0056 0821     		movs	r1, #8
 645 0058 FFF7FEFF 		bl	HW_GPIO_Write
 646              	.LVL61:
 151:../LoRaWAN/App/src/hw_spi.c ****   HW_GPIO_Init ( RADIO_NSS_PORT, RADIO_NSS_PIN , &initStruct ); 
 647              		.loc 1 151 0
 648 005c 0395     		str	r5, [sp, #12]
 152:../LoRaWAN/App/src/hw_spi.c ****   HW_GPIO_Write( RADIO_NSS_PORT, RADIO_NSS_PIN , 1 );
 649              		.loc 1 152 0
 650 005e 8025     		movs	r5, #128
 651 0060 2D02     		lsls	r5, r5, #8
 652 0062 01AA     		add	r2, sp, #4
ARM GAS  C:\Users\EBANO_~1\AppData\Local\Temp\cchOOF4s.s 			page 18


 653 0064 2900     		movs	r1, r5
 654 0066 2000     		movs	r0, r4
 655 0068 FFF7FEFF 		bl	HW_GPIO_Init
 656              	.LVL62:
 153:../LoRaWAN/App/src/hw_spi.c **** }
 657              		.loc 1 153 0
 658 006c 0122     		movs	r2, #1
 659 006e 2900     		movs	r1, r5
 660 0070 2000     		movs	r0, r4
 661 0072 FFF7FEFF 		bl	HW_GPIO_Write
 662              	.LVL63:
 154:../LoRaWAN/App/src/hw_spi.c **** 
 663              		.loc 1 154 0
 664 0076 06B0     		add	sp, sp, #24
 665              		@ sp needed
 666 0078 70BD     		pop	{r4, r5, r6, pc}
 667              	.L39:
 668 007a C046     		.align	2
 669              	.L38:
 670 007c 00040050 		.word	1342178304
 671              		.cfi_endproc
 672              	.LFE42:
 673              		.size	HW_SPI_IoDeInit, .-HW_SPI_IoDeInit
 674              		.section	.text.HW_SPI_InOut,"ax",%progbits
 675              		.align	1
 676              		.p2align 2,,3
 677              		.global	HW_SPI_InOut
 678              		.syntax unified
 679              		.code	16
 680              		.thumb_func
 681              		.fpu softvfp
 682              		.type	HW_SPI_InOut, %function
 683              	HW_SPI_InOut:
 684              	.LFB43:
 163:../LoRaWAN/App/src/hw_spi.c ****   uint16_t rxData ;
 685              		.loc 1 163 0
 686              		.cfi_startproc
 687              		@ args = 0, pretend = 0, frame = 16
 688              		@ frame_needed = 0, uses_anonymous_args = 0
 689              	.LVL64:
 690 0000 10B5     		push	{r4, lr}
 691              	.LCFI8:
 692              		.cfi_def_cfa_offset 8
 693              		.cfi_offset 4, -8
 694              		.cfi_offset 14, -4
 695 0002 0E21     		movs	r1, #14
 166:../LoRaWAN/App/src/hw_spi.c **** 
 696              		.loc 1 166 0
 697 0004 1624     		movs	r4, #22
 698 0006 0123     		movs	r3, #1
 163:../LoRaWAN/App/src/hw_spi.c ****   uint16_t rxData ;
 699              		.loc 1 163 0
 700 0008 86B0     		sub	sp, sp, #24
 701              	.LCFI9:
 702              		.cfi_def_cfa_offset 32
 163:../LoRaWAN/App/src/hw_spi.c ****   uint16_t rxData ;
 703              		.loc 1 163 0
ARM GAS  C:\Users\EBANO_~1\AppData\Local\Temp\cchOOF4s.s 			page 19


 704 000a 6944     		add	r1, r1, sp
 166:../LoRaWAN/App/src/hw_spi.c **** 
 705              		.loc 1 166 0
 706 000c 6C44     		add	r4, r4, sp
 707 000e 5B42     		rsbs	r3, r3, #0
 163:../LoRaWAN/App/src/hw_spi.c ****   uint16_t rxData ;
 708              		.loc 1 163 0
 709 0010 0880     		strh	r0, [r1]
 166:../LoRaWAN/App/src/hw_spi.c **** 
 710              		.loc 1 166 0
 711 0012 2200     		movs	r2, r4
 712 0014 0093     		str	r3, [sp]
 713 0016 0348     		ldr	r0, .L41
 714              	.LVL65:
 715 0018 0233     		adds	r3, r3, #2
 716 001a FFF7FEFF 		bl	HAL_SPI_TransmitReceive
 717              	.LVL66:
 168:../LoRaWAN/App/src/hw_spi.c **** }
 718              		.loc 1 168 0
 719 001e 2088     		ldrh	r0, [r4]
 169:../LoRaWAN/App/src/hw_spi.c **** 
 720              		.loc 1 169 0
 721 0020 06B0     		add	sp, sp, #24
 722              		@ sp needed
 723 0022 10BD     		pop	{r4, pc}
 724              	.L42:
 725              		.align	2
 726              	.L41:
 727 0024 00000000 		.word	.LANCHOR0
 728              		.cfi_endproc
 729              	.LFE43:
 730              		.size	HW_SPI_InOut, .-HW_SPI_InOut
 731              		.bss
 732              		.align	2
 733              		.set	.LANCHOR0,. + 0
 734              		.type	hspi, %object
 735              		.size	hspi, 88
 736              	hspi:
 737 0000 00000000 		.space	88
 737      00000000 
 737      00000000 
 737      00000000 
 737      00000000 
 738              		.text
 739              	.Letext0:
 740              		.file 2 "c:\\program files (x86)\\gnu tools arm embedded\\7 2018-q2-update\\arm-none-eabi\\include
 741              		.file 3 "c:\\program files (x86)\\gnu tools arm embedded\\7 2018-q2-update\\arm-none-eabi\\include
 742              		.file 4 "c:\\program files (x86)\\gnu tools arm embedded\\7 2018-q2-update\\arm-none-eabi\\include
 743              		.file 5 "c:\\program files (x86)\\gnu tools arm embedded\\7 2018-q2-update\\lib\\gcc\\arm-none-eab
 744              		.file 6 "c:\\program files (x86)\\gnu tools arm embedded\\7 2018-q2-update\\arm-none-eabi\\include
 745              		.file 7 "c:\\program files (x86)\\gnu tools arm embedded\\7 2018-q2-update\\arm-none-eabi\\include
 746              		.file 8 "c:\\program files (x86)\\gnu tools arm embedded\\7 2018-q2-update\\arm-none-eabi\\include
 747              		.file 9 "../../../../../../Drivers/CMSIS/Device/ST/STM32L0xx/Include/system_stm32l0xx.h"
 748              		.file 10 "../../../../../../Drivers/CMSIS/Device/ST/STM32L0xx/Include/stm32l072xx.h"
 749              		.file 11 "../../../../../../Drivers/STM32L0xx_HAL_Driver/Inc/stm32l0xx_hal_def.h"
 750              		.file 12 "../../../../../../Drivers/STM32L0xx_HAL_Driver/Inc/stm32l0xx_hal_gpio.h"
 751              		.file 13 "../../../../../../Drivers/STM32L0xx_HAL_Driver/Inc/stm32l0xx_hal_dma.h"
ARM GAS  C:\Users\EBANO_~1\AppData\Local\Temp\cchOOF4s.s 			page 20


 752              		.file 14 "../../../../../../Drivers/STM32L0xx_HAL_Driver/Inc/stm32l0xx_hal_spi.h"
 753              		.file 15 "c:\\program files (x86)\\gnu tools arm embedded\\7 2018-q2-update\\arm-none-eabi\\includ
 754              		.file 16 "c:\\program files (x86)\\gnu tools arm embedded\\7 2018-q2-update\\arm-none-eabi\\includ
 755              		.file 17 "../LoRaWAN/App/inc/hw_gpio.h"
 756              		.file 18 "../LoRaWAN/App/inc/debug.h"
 757              		.file 19 "<built-in>"