Archive member included to satisfy reference by file (symbol)

c:/program files (x86)/gnu tools arm embedded/7 2018-q2-update/bin/../lib/gcc/arm-none-eabi/7.3.1/../../../../arm-none-eabi/lib/thumb/v6-m\libm.a(lib_a-s_ceil.o)
                              ./objects/sx1276.o (ceil)
c:/program files (x86)/gnu tools arm embedded/7 2018-q2-update/bin/../lib/gcc/arm-none-eabi/7.3.1/../../../../arm-none-eabi/lib/thumb/v6-m\libm.a(lib_a-s_floor.o)
                              ./objects/sx1276.o (floor)
c:/program files (x86)/gnu tools arm embedded/7 2018-q2-update/bin/../lib/gcc/arm-none-eabi/7.3.1/../../../../arm-none-eabi/lib/thumb/v6-m\libm.a(lib_a-s_round.o)
                              ./objects/sx1276.o (round)
c:/program files (x86)/gnu tools arm embedded/7 2018-q2-update/bin/../lib/gcc/arm-none-eabi/7.3.1/thumb/v6-m\libgcc.a(_udivsi3.o)
                              ./objects/sx1276.o (__aeabi_uidiv)
c:/program files (x86)/gnu tools arm embedded/7 2018-q2-update/bin/../lib/gcc/arm-none-eabi/7.3.1/thumb/v6-m\libgcc.a(_divsi3.o)
                              ./objects/sx1276.o (__aeabi_idiv)
c:/program files (x86)/gnu tools arm embedded/7 2018-q2-update/bin/../lib/gcc/arm-none-eabi/7.3.1/thumb/v6-m\libgcc.a(_dvmd_tls.o)
                              c:/program files (x86)/gnu tools arm embedded/7 2018-q2-update/bin/../lib/gcc/arm-none-eabi/7.3.1/thumb/v6-m\libgcc.a(_udivsi3.o) (__aeabi_idiv0)
c:/program files (x86)/gnu tools arm embedded/7 2018-q2-update/bin/../lib/gcc/arm-none-eabi/7.3.1/thumb/v6-m\libgcc.a(_arm_cmpdf2.o)
                              ./objects/sx1276.o (__aeabi_dcmpgt)
c:/program files (x86)/gnu tools arm embedded/7 2018-q2-update/bin/../lib/gcc/arm-none-eabi/7.3.1/thumb/v6-m\libgcc.a(_arm_cmpsf2.o)
                              ./objects/hw_rtc.o (__aeabi_fcmplt)
c:/program files (x86)/gnu tools arm embedded/7 2018-q2-update/bin/../lib/gcc/arm-none-eabi/7.3.1/thumb/v6-m\libgcc.a(_aeabi_ldivmod.o)
                              ./objects/stm32l0xx_hal_uart.o (__aeabi_ldivmod)
c:/program files (x86)/gnu tools arm embedded/7 2018-q2-update/bin/../lib/gcc/arm-none-eabi/7.3.1/thumb/v6-m\libgcc.a(_aeabi_uldivmod.o)
                              ./objects/stm32l0xx_hal_uart.o (__aeabi_uldivmod)
c:/program files (x86)/gnu tools arm embedded/7 2018-q2-update/bin/../lib/gcc/arm-none-eabi/7.3.1/thumb/v6-m\libgcc.a(_fixunssfsi.o)
                              ./objects/hw_rtc.o (__aeabi_f2uiz)
c:/program files (x86)/gnu tools arm embedded/7 2018-q2-update/bin/../lib/gcc/arm-none-eabi/7.3.1/thumb/v6-m\libgcc.a(_fixunsdfsi.o)
                              ./objects/sx1276.o (__aeabi_d2uiz)
c:/program files (x86)/gnu tools arm embedded/7 2018-q2-update/bin/../lib/gcc/arm-none-eabi/7.3.1/thumb/v6-m\libgcc.a(_udivmoddi4.o)
                              c:/program files (x86)/gnu tools arm embedded/7 2018-q2-update/bin/../lib/gcc/arm-none-eabi/7.3.1/thumb/v6-m\libgcc.a(_aeabi_uldivmod.o) (__udivmoddi4)
c:/program files (x86)/gnu tools arm embedded/7 2018-q2-update/bin/../lib/gcc/arm-none-eabi/7.3.1/thumb/v6-m\libgcc.a(bpabi.o)
                              c:/program files (x86)/gnu tools arm embedded/7 2018-q2-update/bin/../lib/gcc/arm-none-eabi/7.3.1/thumb/v6-m\libgcc.a(_aeabi_ldivmod.o) (__gnu_ldivmod_helper)
c:/program files (x86)/gnu tools arm embedded/7 2018-q2-update/bin/../lib/gcc/arm-none-eabi/7.3.1/thumb/v6-m\libgcc.a(addsf3.o)
                              ./objects/hw_rtc.o (__aeabi_fadd)
c:/program files (x86)/gnu tools arm embedded/7 2018-q2-update/bin/../lib/gcc/arm-none-eabi/7.3.1/thumb/v6-m\libgcc.a(divsf3.o)
                              ./objects/hw_rtc.o (__aeabi_fdiv)
c:/program files (x86)/gnu tools arm embedded/7 2018-q2-update/bin/../lib/gcc/arm-none-eabi/7.3.1/thumb/v6-m\libgcc.a(eqsf2.o)
                              c:/program files (x86)/gnu tools arm embedded/7 2018-q2-update/bin/../lib/gcc/arm-none-eabi/7.3.1/thumb/v6-m\libgcc.a(_arm_cmpsf2.o) (__eqsf2)
c:/program files (x86)/gnu tools arm embedded/7 2018-q2-update/bin/../lib/gcc/arm-none-eabi/7.3.1/thumb/v6-m\libgcc.a(gesf2.o)
                              c:/program files (x86)/gnu tools arm embedded/7 2018-q2-update/bin/../lib/gcc/arm-none-eabi/7.3.1/thumb/v6-m\libgcc.a(_arm_cmpsf2.o) (__gesf2)
c:/program files (x86)/gnu tools arm embedded/7 2018-q2-update/bin/../lib/gcc/arm-none-eabi/7.3.1/thumb/v6-m\libgcc.a(lesf2.o)
                              c:/program files (x86)/gnu tools arm embedded/7 2018-q2-update/bin/../lib/gcc/arm-none-eabi/7.3.1/thumb/v6-m\libgcc.a(_arm_cmpsf2.o) (__lesf2)
c:/program files (x86)/gnu tools arm embedded/7 2018-q2-update/bin/../lib/gcc/arm-none-eabi/7.3.1/thumb/v6-m\libgcc.a(mulsf3.o)
                              ./objects/hw_rtc.o (__aeabi_fmul)
c:/program files (x86)/gnu tools arm embedded/7 2018-q2-update/bin/../lib/gcc/arm-none-eabi/7.3.1/thumb/v6-m\libgcc.a(subsf3.o)
                              ./objects/hw_rtc.o (__aeabi_fsub)
c:/program files (x86)/gnu tools arm embedded/7 2018-q2-update/bin/../lib/gcc/arm-none-eabi/7.3.1/thumb/v6-m\libgcc.a(fixsfsi.o)
                              ./objects/main.o (__aeabi_f2iz)
c:/program files (x86)/gnu tools arm embedded/7 2018-q2-update/bin/../lib/gcc/arm-none-eabi/7.3.1/thumb/v6-m\libgcc.a(floatunsisf.o)
                              ./objects/hw_rtc.o (__aeabi_ui2f)
c:/program files (x86)/gnu tools arm embedded/7 2018-q2-update/bin/../lib/gcc/arm-none-eabi/7.3.1/thumb/v6-m\libgcc.a(adddf3.o)
                              ./objects/sx1276.o (__aeabi_dadd)
c:/program files (x86)/gnu tools arm embedded/7 2018-q2-update/bin/../lib/gcc/arm-none-eabi/7.3.1/thumb/v6-m\libgcc.a(divdf3.o)
                              ./objects/sx1276.o (__aeabi_ddiv)
c:/program files (x86)/gnu tools arm embedded/7 2018-q2-update/bin/../lib/gcc/arm-none-eabi/7.3.1/thumb/v6-m\libgcc.a(eqdf2.o)
                              c:/program files (x86)/gnu tools arm embedded/7 2018-q2-update/bin/../lib/gcc/arm-none-eabi/7.3.1/thumb/v6-m\libgcc.a(_arm_cmpdf2.o) (__eqdf2)
c:/program files (x86)/gnu tools arm embedded/7 2018-q2-update/bin/../lib/gcc/arm-none-eabi/7.3.1/thumb/v6-m\libgcc.a(gedf2.o)
                              c:/program files (x86)/gnu tools arm embedded/7 2018-q2-update/bin/../lib/gcc/arm-none-eabi/7.3.1/thumb/v6-m\libgcc.a(_arm_cmpdf2.o) (__gedf2)
c:/program files (x86)/gnu tools arm embedded/7 2018-q2-update/bin/../lib/gcc/arm-none-eabi/7.3.1/thumb/v6-m\libgcc.a(ledf2.o)
                              c:/program files (x86)/gnu tools arm embedded/7 2018-q2-update/bin/../lib/gcc/arm-none-eabi/7.3.1/thumb/v6-m\libgcc.a(_arm_cmpdf2.o) (__ledf2)
c:/program files (x86)/gnu tools arm embedded/7 2018-q2-update/bin/../lib/gcc/arm-none-eabi/7.3.1/thumb/v6-m\libgcc.a(muldf3.o)
                              ./objects/sx1276.o (__aeabi_dmul)
c:/program files (x86)/gnu tools arm embedded/7 2018-q2-update/bin/../lib/gcc/arm-none-eabi/7.3.1/thumb/v6-m\libgcc.a(subdf3.o)
                              ./objects/regioncommon.o (__aeabi_dsub)
c:/program files (x86)/gnu tools arm embedded/7 2018-q2-update/bin/../lib/gcc/arm-none-eabi/7.3.1/thumb/v6-m\libgcc.a(fixdfsi.o)
                              ./objects/regioncommon.o (__aeabi_d2iz)
c:/program files (x86)/gnu tools arm embedded/7 2018-q2-update/bin/../lib/gcc/arm-none-eabi/7.3.1/thumb/v6-m\libgcc.a(floatsidf.o)
                              ./objects/sx1276.o (__aeabi_i2d)
c:/program files (x86)/gnu tools arm embedded/7 2018-q2-update/bin/../lib/gcc/arm-none-eabi/7.3.1/thumb/v6-m\libgcc.a(floatunsidf.o)
                              ./objects/sx1276.o (__aeabi_ui2d)
c:/program files (x86)/gnu tools arm embedded/7 2018-q2-update/bin/../lib/gcc/arm-none-eabi/7.3.1/thumb/v6-m\libgcc.a(extendsfdf2.o)
                              ./objects/hw_rtc.o (__aeabi_f2d)
c:/program files (x86)/gnu tools arm embedded/7 2018-q2-update/bin/../lib/gcc/arm-none-eabi/7.3.1/thumb/v6-m\libgcc.a(truncdfsf2.o)
                              ./objects/hw_rtc.o (__aeabi_d2f)
c:/program files (x86)/gnu tools arm embedded/7 2018-q2-update/bin/../lib/gcc/arm-none-eabi/7.3.1/thumb/v6-m\libgcc.a(_clzsi2.o)
                              c:/program files (x86)/gnu tools arm embedded/7 2018-q2-update/bin/../lib/gcc/arm-none-eabi/7.3.1/thumb/v6-m\libgcc.a(addsf3.o) (__clzsi2)
c:/program files (x86)/gnu tools arm embedded/7 2018-q2-update/bin/../lib/gcc/arm-none-eabi/7.3.1/thumb/v6-m\libgcc.a(_clzdi2.o)
                              c:/program files (x86)/gnu tools arm embedded/7 2018-q2-update/bin/../lib/gcc/arm-none-eabi/7.3.1/thumb/v6-m\libgcc.a(_udivmoddi4.o) (__clzdi2)
c:/program files (x86)/gnu tools arm embedded/7 2018-q2-update/bin/../lib/gcc/arm-none-eabi/7.3.1/thumb/v6-m\libgcc.a(_muldi3.o)
                              c:/program files (x86)/gnu tools arm embedded/7 2018-q2-update/bin/../lib/gcc/arm-none-eabi/7.3.1/thumb/v6-m\libgcc.a(bpabi.o) (__aeabi_lmul)
c:/program files (x86)/gnu tools arm embedded/7 2018-q2-update/bin/../lib/gcc/arm-none-eabi/7.3.1/thumb/v6-m\libgcc.a(_divdi3.o)
                              c:/program files (x86)/gnu tools arm embedded/7 2018-q2-update/bin/../lib/gcc/arm-none-eabi/7.3.1/thumb/v6-m\libgcc.a(bpabi.o) (__divdi3)
c:/program files (x86)/gnu tools arm embedded/7 2018-q2-update/bin/../lib/gcc/arm-none-eabi/7.3.1/../../../../arm-none-eabi/lib/thumb/v6-m\libc_nano.a(lib_a-exit.o)
                              c:/program files (x86)/gnu tools arm embedded/7 2018-q2-update/bin/../lib/gcc/arm-none-eabi/7.3.1/../../../../arm-none-eabi/lib/thumb/v6-m/crt0.o (exit)
c:/program files (x86)/gnu tools arm embedded/7 2018-q2-update/bin/../lib/gcc/arm-none-eabi/7.3.1/../../../../arm-none-eabi/lib/thumb/v6-m\libc_nano.a(lib_a-impure.o)
                              c:/program files (x86)/gnu tools arm embedded/7 2018-q2-update/bin/../lib/gcc/arm-none-eabi/7.3.1/../../../../arm-none-eabi/lib/thumb/v6-m\libc_nano.a(lib_a-exit.o) (_global_impure_ptr)
c:/program files (x86)/gnu tools arm embedded/7 2018-q2-update/bin/../lib/gcc/arm-none-eabi/7.3.1/../../../../arm-none-eabi/lib/thumb/v6-m\libc_nano.a(lib_a-init.o)
                              c:/program files (x86)/gnu tools arm embedded/7 2018-q2-update/bin/../lib/gcc/arm-none-eabi/7.3.1/../../../../arm-none-eabi/lib/thumb/v6-m/crt0.o (__libc_init_array)
c:/program files (x86)/gnu tools arm embedded/7 2018-q2-update/bin/../lib/gcc/arm-none-eabi/7.3.1/../../../../arm-none-eabi/lib/thumb/v6-m\libc_nano.a(lib_a-memset.o)
                              c:/program files (x86)/gnu tools arm embedded/7 2018-q2-update/bin/../lib/gcc/arm-none-eabi/7.3.1/../../../../arm-none-eabi/lib/thumb/v6-m/crt0.o (memset)
c:/program files (x86)/gnu tools arm embedded/7 2018-q2-update/bin/../lib/gcc/arm-none-eabi/7.3.1/../../../../arm-none-eabi/lib/thumb/v6-m\libc_nano.a(lib_a-strrchr.o)
                              ./objects/trace.o (strrchr)
c:/program files (x86)/gnu tools arm embedded/7 2018-q2-update/bin/../lib/gcc/arm-none-eabi/7.3.1/../../../../arm-none-eabi/lib/thumb/v6-m\libc_nano.a(lib_a-vsnprintf.o)
                              ./objects/trace.o (vsnprintf)
c:/program files (x86)/gnu tools arm embedded/7 2018-q2-update/bin/../lib/gcc/arm-none-eabi/7.3.1/../../../../arm-none-eabi/lib/thumb/v6-m\libc_nano.a(lib_a-nano-svfprintf.o)
                              c:/program files (x86)/gnu tools arm embedded/7 2018-q2-update/bin/../lib/gcc/arm-none-eabi/7.3.1/../../../../arm-none-eabi/lib/thumb/v6-m\libc_nano.a(lib_a-vsnprintf.o) (_svfprintf_r)
c:/program files (x86)/gnu tools arm embedded/7 2018-q2-update/bin/../lib/gcc/arm-none-eabi/7.3.1/../../../../arm-none-eabi/lib/thumb/v6-m\libc_nano.a(lib_a-nano-vfprintf_i.o)
                              c:/program files (x86)/gnu tools arm embedded/7 2018-q2-update/bin/../lib/gcc/arm-none-eabi/7.3.1/../../../../arm-none-eabi/lib/thumb/v6-m\libc_nano.a(lib_a-nano-svfprintf.o) (_printf_i)
c:/program files (x86)/gnu tools arm embedded/7 2018-q2-update/bin/../lib/gcc/arm-none-eabi/7.3.1/../../../../arm-none-eabi/lib/thumb/v6-m\libc_nano.a(lib_a-strchr.o)
                              c:/program files (x86)/gnu tools arm embedded/7 2018-q2-update/bin/../lib/gcc/arm-none-eabi/7.3.1/../../../../arm-none-eabi/lib/thumb/v6-m\libc_nano.a(lib_a-strrchr.o) (strchr)
c:/program files (x86)/gnu tools arm embedded/7 2018-q2-update/bin/../lib/gcc/arm-none-eabi/7.3.1/../../../../arm-none-eabi/lib/thumb/v6-m\libc_nano.a(lib_a-memchr-stub.o)
                              c:/program files (x86)/gnu tools arm embedded/7 2018-q2-update/bin/../lib/gcc/arm-none-eabi/7.3.1/../../../../arm-none-eabi/lib/thumb/v6-m\libc_nano.a(lib_a-nano-svfprintf.o) (memchr)
c:/program files (x86)/gnu tools arm embedded/7 2018-q2-update/bin/../lib/gcc/arm-none-eabi/7.3.1/../../../../arm-none-eabi/lib/thumb/v6-m\libc_nano.a(lib_a-memcpy-stub.o)
                              c:/program files (x86)/gnu tools arm embedded/7 2018-q2-update/bin/../lib/gcc/arm-none-eabi/7.3.1/../../../../arm-none-eabi/lib/thumb/v6-m\libc_nano.a(lib_a-nano-svfprintf.o) (memcpy)
c:/program files (x86)/gnu tools arm embedded/7 2018-q2-update/bin/../lib/gcc/arm-none-eabi/7.3.1/../../../../arm-none-eabi/lib/thumb/v6-m\libc_nano.a(lib_a-memmove.o)
                              c:/program files (x86)/gnu tools arm embedded/7 2018-q2-update/bin/../lib/gcc/arm-none-eabi/7.3.1/../../../../arm-none-eabi/lib/thumb/v6-m\libc_nano.a(lib_a-nano-svfprintf.o) (memmove)
c:/program files (x86)/gnu tools arm embedded/7 2018-q2-update/bin/../lib/gcc/arm-none-eabi/7.3.1/../../../../arm-none-eabi/lib/thumb/v6-m\libc_nano.a(lib_a-nano-freer.o)
                              c:/program files (x86)/gnu tools arm embedded/7 2018-q2-update/bin/../lib/gcc/arm-none-eabi/7.3.1/../../../../arm-none-eabi/lib/thumb/v6-m\libc_nano.a(lib_a-nano-svfprintf.o) (_free_r)
c:/program files (x86)/gnu tools arm embedded/7 2018-q2-update/bin/../lib/gcc/arm-none-eabi/7.3.1/../../../../arm-none-eabi/lib/thumb/v6-m\libc_nano.a(lib_a-nano-mallocr.o)
                              c:/program files (x86)/gnu tools arm embedded/7 2018-q2-update/bin/../lib/gcc/arm-none-eabi/7.3.1/../../../../arm-none-eabi/lib/thumb/v6-m\libc_nano.a(lib_a-nano-svfprintf.o) (_malloc_r)
c:/program files (x86)/gnu tools arm embedded/7 2018-q2-update/bin/../lib/gcc/arm-none-eabi/7.3.1/../../../../arm-none-eabi/lib/thumb/v6-m\libc_nano.a(lib_a-nano-reallocr.o)
                              c:/program files (x86)/gnu tools arm embedded/7 2018-q2-update/bin/../lib/gcc/arm-none-eabi/7.3.1/../../../../arm-none-eabi/lib/thumb/v6-m\libc_nano.a(lib_a-nano-svfprintf.o) (_realloc_r)
c:/program files (x86)/gnu tools arm embedded/7 2018-q2-update/bin/../lib/gcc/arm-none-eabi/7.3.1/../../../../arm-none-eabi/lib/thumb/v6-m\libc_nano.a(lib_a-sbrkr.o)
                              c:/program files (x86)/gnu tools arm embedded/7 2018-q2-update/bin/../lib/gcc/arm-none-eabi/7.3.1/../../../../arm-none-eabi/lib/thumb/v6-m\libc_nano.a(lib_a-nano-mallocr.o) (_sbrk_r)
c:/program files (x86)/gnu tools arm embedded/7 2018-q2-update/bin/../lib/gcc/arm-none-eabi/7.3.1/../../../../arm-none-eabi/lib/thumb/v6-m\libc_nano.a(lib_a-mlock.o)
                              c:/program files (x86)/gnu tools arm embedded/7 2018-q2-update/bin/../lib/gcc/arm-none-eabi/7.3.1/../../../../arm-none-eabi/lib/thumb/v6-m\libc_nano.a(lib_a-nano-freer.o) (__malloc_lock)
c:/program files (x86)/gnu tools arm embedded/7 2018-q2-update/bin/../lib/gcc/arm-none-eabi/7.3.1/../../../../arm-none-eabi/lib/thumb/v6-m\libc_nano.a(lib_a-nano-msizer.o)
                              c:/program files (x86)/gnu tools arm embedded/7 2018-q2-update/bin/../lib/gcc/arm-none-eabi/7.3.1/../../../../arm-none-eabi/lib/thumb/v6-m\libc_nano.a(lib_a-nano-reallocr.o) (_malloc_usable_size_r)
c:/program files (x86)/gnu tools arm embedded/7 2018-q2-update/bin/../lib/gcc/arm-none-eabi/7.3.1/../../../../arm-none-eabi/lib/thumb/v6-m\libc_nano.a(lib_a-reent.o)
                              c:/program files (x86)/gnu tools arm embedded/7 2018-q2-update/bin/../lib/gcc/arm-none-eabi/7.3.1/../../../../arm-none-eabi/lib/thumb/v6-m\libc_nano.a(lib_a-sbrkr.o) (errno)
c:/program files (x86)/gnu tools arm embedded/7 2018-q2-update/bin/../lib/gcc/arm-none-eabi/7.3.1/../../../../arm-none-eabi/lib/thumb/v6-m\libnosys.a(sbrk.o)
                              c:/program files (x86)/gnu tools arm embedded/7 2018-q2-update/bin/../lib/gcc/arm-none-eabi/7.3.1/../../../../arm-none-eabi/lib/thumb/v6-m\libc_nano.a(lib_a-sbrkr.o) (_sbrk)
c:/program files (x86)/gnu tools arm embedded/7 2018-q2-update/bin/../lib/gcc/arm-none-eabi/7.3.1/../../../../arm-none-eabi/lib/thumb/v6-m\libnosys.a(_exit.o)
                              c:/program files (x86)/gnu tools arm embedded/7 2018-q2-update/bin/../lib/gcc/arm-none-eabi/7.3.1/../../../../arm-none-eabi/lib/thumb/v6-m\libc_nano.a(lib_a-exit.o) (_exit)

Allocating common symbols
Common symbol       size              file

errno               0x4               c:/program files (x86)/gnu tools arm embedded/7 2018-q2-update/bin/../lib/gcc/arm-none-eabi/7.3.1/../../../../arm-none-eabi/lib/thumb/v6-m\libc_nano.a(lib_a-reent.o)
TxDoneParams        0x4               ./objects/loramac.o
uwTick              0x4               ./objects/stm32l0xx_hal.o
RxDoneParams        0x10              ./objects/loramac.o
Contexts            0x40              ./objects/loramac.o
TxTimeoutTimer      0x18              ./objects/sx1276.o
RxTimeoutSyncWord   0x18              ./objects/sx1276.o
SX1276              0x68              ./objects/sx1276.o
RxTimeoutTimer      0x18              ./objects/sx1276.o

Discarded input sections

 .text          0x00000000        0x0 c:/program files (x86)/gnu tools arm embedded/7 2018-q2-update/bin/../lib/gcc/arm-none-eabi/7.3.1/thumb/v6-m/crti.o
 .data          0x00000000        0x0 c:/program files (x86)/gnu tools arm embedded/7 2018-q2-update/bin/../lib/gcc/arm-none-eabi/7.3.1/thumb/v6-m/crti.o
 .bss           0x00000000        0x0 c:/program files (x86)/gnu tools arm embedded/7 2018-q2-update/bin/../lib/gcc/arm-none-eabi/7.3.1/thumb/v6-m/crti.o
 .data          0x00000000        0x4 c:/program files (x86)/gnu tools arm embedded/7 2018-q2-update/bin/../lib/gcc/arm-none-eabi/7.3.1/thumb/v6-m/crtbegin.o
 .text          0x00000000       0x78 c:/program files (x86)/gnu tools arm embedded/7 2018-q2-update/bin/../lib/gcc/arm-none-eabi/7.3.1/../../../../arm-none-eabi/lib/thumb/v6-m/crt0.o
 .data          0x00000000        0x0 c:/program files (x86)/gnu tools arm embedded/7 2018-q2-update/bin/../lib/gcc/arm-none-eabi/7.3.1/../../../../arm-none-eabi/lib/thumb/v6-m/crt0.o
 .bss           0x00000000        0x0 c:/program files (x86)/gnu tools arm embedded/7 2018-q2-update/bin/../lib/gcc/arm-none-eabi/7.3.1/../../../../arm-none-eabi/lib/thumb/v6-m/crt0.o
 .ARM.extab     0x00000000        0x0 c:/program files (x86)/gnu tools arm embedded/7 2018-q2-update/bin/../lib/gcc/arm-none-eabi/7.3.1/../../../../arm-none-eabi/lib/thumb/v6-m/crt0.o
 .ARM.exidx     0x00000000        0x8 c:/program files (x86)/gnu tools arm embedded/7 2018-q2-update/bin/../lib/gcc/arm-none-eabi/7.3.1/../../../../arm-none-eabi/lib/thumb/v6-m/crt0.o
 .ARM.attributes
                0x00000000       0x1b c:/program files (x86)/gnu tools arm embedded/7 2018-q2-update/bin/../lib/gcc/arm-none-eabi/7.3.1/../../../../arm-none-eabi/lib/thumb/v6-m/crt0.o
 .text          0x00000000        0x0 ./objects/sx1276.o
 .text.SX1276Reset
                0x00000000       0x50 ./objects/sx1276.o
 .text.SX1276WriteFifo
                0x00000000       0x44 ./objects/sx1276.o
 .text.SX1276ReadFifo
                0x00000000       0x44 ./objects/sx1276.o
 .text.SX1276OnDio5Irq
                0x00000000        0x4 ./objects/sx1276.o
 .text          0x00000000        0x0 ./objects/mlm32l07x01.o
 .bss           0x00000000        0x0 ./objects/mlm32l07x01.o
 .text.SX1276GetPaSelect
                0x00000000        0xc ./objects/mlm32l07x01.o
 .text          0x00000000        0x0 ./objects/b-l072z-lrwan1.o
 .bss           0x00000000        0x0 ./objects/b-l072z-lrwan1.o
 .text.BSP_GetVersion
                0x00000000        0x8 ./objects/b-l072z-lrwan1.o
 .text.BSP_LED_Toggle
                0x00000000       0x1c ./objects/b-l072z-lrwan1.o
 .text.BSP_PB_Init
                0x00000000       0x90 ./objects/b-l072z-lrwan1.o
 .text.BSP_PB_GetState
                0x00000000       0x18 ./objects/b-l072z-lrwan1.o
 .text          0x00000000        0x0 ./objects/system_stm32l0xx.o
 .bss           0x00000000        0x0 ./objects/system_stm32l0xx.o
 .text.SystemCoreClockUpdate
                0x00000000       0xa4 ./objects/system_stm32l0xx.o
 .text          0x00000000        0x0 ./objects/stm32l0xx_hal_spi.o
 .data          0x00000000        0x0 ./objects/stm32l0xx_hal_spi.o
 .bss           0x00000000        0x0 ./objects/stm32l0xx_hal_spi.o
 .text.HAL_SPI_MspDeInit
                0x00000000        0x4 ./objects/stm32l0xx_hal_spi.o
 .text.HAL_SPI_DeInit
                0x00000000       0x30 ./objects/stm32l0xx_hal_spi.o
 .text.HAL_SPI_Transmit
                0x00000000      0x280 ./objects/stm32l0xx_hal_spi.o
 .text.HAL_SPI_Receive
                0x00000000      0x328 ./objects/stm32l0xx_hal_spi.o
 .text.HAL_SPI_Transmit_IT
                0x00000000       0xb8 ./objects/stm32l0xx_hal_spi.o
 .text.HAL_SPI_Receive_IT
                0x00000000      0x120 ./objects/stm32l0xx_hal_spi.o
 .text.HAL_SPI_TransmitReceive_IT
                0x00000000       0xac ./objects/stm32l0xx_hal_spi.o
 .text.HAL_SPI_Transmit_DMA
                0x00000000       0xd0 ./objects/stm32l0xx_hal_spi.o
 .text.HAL_SPI_TransmitReceive_DMA
                0x00000000      0x100 ./objects/stm32l0xx_hal_spi.o
 .text.HAL_SPI_Receive_DMA
                0x00000000       0xfc ./objects/stm32l0xx_hal_spi.o
 .text.HAL_SPI_DMAPause
                0x00000000       0x28 ./objects/stm32l0xx_hal_spi.o
 .text.HAL_SPI_DMAResume
                0x00000000       0x28 ./objects/stm32l0xx_hal_spi.o
 .text.HAL_SPI_DMAStop
                0x00000000       0x34 ./objects/stm32l0xx_hal_spi.o
 .text.HAL_SPI_TxCpltCallback
                0x00000000        0x4 ./objects/stm32l0xx_hal_spi.o
 .text.HAL_SPI_RxCpltCallback
                0x00000000        0x4 ./objects/stm32l0xx_hal_spi.o
 .text.HAL_SPI_TxRxCpltCallback
                0x00000000        0x4 ./objects/stm32l0xx_hal_spi.o
 .text.HAL_SPI_TxHalfCpltCallback
                0x00000000        0x4 ./objects/stm32l0xx_hal_spi.o
 .text.SPI_DMAHalfTransmitCplt
                0x00000000        0xc ./objects/stm32l0xx_hal_spi.o
 .text.HAL_SPI_RxHalfCpltCallback
                0x00000000        0x4 ./objects/stm32l0xx_hal_spi.o
 .text.SPI_DMAHalfReceiveCplt
                0x00000000        0xc ./objects/stm32l0xx_hal_spi.o
 .text.HAL_SPI_TxRxHalfCpltCallback
                0x00000000        0x4 ./objects/stm32l0xx_hal_spi.o
 .text.SPI_DMAHalfTransmitReceiveCplt
                0x00000000        0xc ./objects/stm32l0xx_hal_spi.o
 .text.HAL_SPI_ErrorCallback
                0x00000000        0x4 ./objects/stm32l0xx_hal_spi.o
 .text.SPI_TxISR
                0x00000000      0x170 ./objects/stm32l0xx_hal_spi.o
 .text.SPI_RxISR
                0x00000000      0x1d4 ./objects/stm32l0xx_hal_spi.o
 .text.SPI_DMAError
                0x00000000       0x20 ./objects/stm32l0xx_hal_spi.o
 .text.SPI_DMATransmitCplt
                0x00000000      0x110 ./objects/stm32l0xx_hal_spi.o
 .text.SPI_DMAReceiveCplt
                0x00000000      0x15c ./objects/stm32l0xx_hal_spi.o
 .text.SPI_DMATransmitReceiveCplt
                0x00000000      0x1ec ./objects/stm32l0xx_hal_spi.o
 .text.HAL_SPI_IRQHandler
                0x00000000       0xb8 ./objects/stm32l0xx_hal_spi.o
 .text.SPI_2LinesRxISR
                0x00000000      0x1a0 ./objects/stm32l0xx_hal_spi.o
 .text.HAL_SPI_GetState
                0x00000000        0x8 ./objects/stm32l0xx_hal_spi.o
 .text.HAL_SPI_GetError
                0x00000000        0x4 ./objects/stm32l0xx_hal_spi.o
 .text          0x00000000        0x0 ./objects/stm32l0xx_hal_uart.o
 .data          0x00000000        0x0 ./objects/stm32l0xx_hal_uart.o
 .bss           0x00000000        0x0 ./objects/stm32l0xx_hal_uart.o
 .text.HAL_UART_MspInit
                0x00000000        0x4 ./objects/stm32l0xx_hal_uart.o
 .text.HAL_UART_MspDeInit
                0x00000000        0x4 ./objects/stm32l0xx_hal_uart.o
 .text.HAL_UART_DeInit
                0x00000000       0x38 ./objects/stm32l0xx_hal_uart.o
 .text.HAL_UART_Transmit
                0x00000000      0x130 ./objects/stm32l0xx_hal_uart.o
 .text.HAL_UART_Receive
                0x00000000      0x174 ./objects/stm32l0xx_hal_uart.o
 .text.HAL_UART_Transmit_IT
                0x00000000       0x64 ./objects/stm32l0xx_hal_uart.o
 .text.HAL_UART_Receive_IT
                0x00000000       0xd0 ./objects/stm32l0xx_hal_uart.o
 .text.HAL_UART_Receive_DMA
                0x00000000       0xac ./objects/stm32l0xx_hal_uart.o
 .text.HAL_UART_DMAPause
                0x00000000       0x6c ./objects/stm32l0xx_hal_uart.o
 .text.HAL_UART_DMAResume
                0x00000000       0x54 ./objects/stm32l0xx_hal_uart.o
 .text.HAL_UART_DMAStop
                0x00000000       0x80 ./objects/stm32l0xx_hal_uart.o
 .text.HAL_UART_Abort
                0x00000000       0x78 ./objects/stm32l0xx_hal_uart.o
 .text.HAL_UART_AbortTransmit
                0x00000000       0x3c ./objects/stm32l0xx_hal_uart.o
 .text.HAL_UART_AbortReceive
                0x00000000       0x50 ./objects/stm32l0xx_hal_uart.o
 .text.HAL_UART_TxCpltCallback
                0x00000000        0x4 ./objects/stm32l0xx_hal_uart.o
 .text.UART_DMAReceiveCplt
                0x00000000       0x40 ./objects/stm32l0xx_hal_uart.o
 .text.HAL_UART_RxHalfCpltCallback
                0x00000000        0x4 ./objects/stm32l0xx_hal_uart.o
 .text.UART_DMARxHalfCplt
                0x00000000        0xc ./objects/stm32l0xx_hal_uart.o
 .text.HAL_UART_AbortCpltCallback
                0x00000000        0x4 ./objects/stm32l0xx_hal_uart.o
 .text.HAL_UART_Abort_IT
                0x00000000       0xd4 ./objects/stm32l0xx_hal_uart.o
 .text.UART_DMARxAbortCallback
                0x00000000       0x3c ./objects/stm32l0xx_hal_uart.o
 .text.UART_DMATxAbortCallback
                0x00000000       0x3c ./objects/stm32l0xx_hal_uart.o
 .text.HAL_UART_AbortTransmitCpltCallback
                0x00000000        0x4 ./objects/stm32l0xx_hal_uart.o
 .text.HAL_UART_AbortTransmit_IT
                0x00000000       0x54 ./objects/stm32l0xx_hal_uart.o
 .text.UART_DMATxOnlyAbortCallback
                0x00000000       0x18 ./objects/stm32l0xx_hal_uart.o
 .text.HAL_UART_AbortReceiveCpltCallback
                0x00000000        0x4 ./objects/stm32l0xx_hal_uart.o
 .text.HAL_UART_AbortReceive_IT
                0x00000000       0x68 ./objects/stm32l0xx_hal_uart.o
 .text.UART_DMARxOnlyAbortCallback
                0x00000000       0x1c ./objects/stm32l0xx_hal_uart.o
 .text.HAL_MultiProcessor_EnableMuteMode
                0x00000000       0xcc ./objects/stm32l0xx_hal_uart.o
 .text.HAL_MultiProcessor_DisableMuteMode
                0x00000000       0xcc ./objects/stm32l0xx_hal_uart.o
 .text.HAL_MultiProcessor_EnterMuteMode
                0x00000000        0xc ./objects/stm32l0xx_hal_uart.o
 .text.HAL_HalfDuplex_EnableTransmitter
                0x00000000       0x34 ./objects/stm32l0xx_hal_uart.o
 .text.HAL_HalfDuplex_EnableReceiver
                0x00000000       0x34 ./objects/stm32l0xx_hal_uart.o
 .text.HAL_LIN_SendBreak
                0x00000000       0x2c ./objects/stm32l0xx_hal_uart.o
 .text.HAL_UART_GetState
                0x00000000        0xc ./objects/stm32l0xx_hal_uart.o
 .text.HAL_UART_GetError
                0x00000000        0x4 ./objects/stm32l0xx_hal_uart.o
 .text.UART_WaitOnFlagUntilTimeout
                0x00000000       0x78 ./objects/stm32l0xx_hal_uart.o
 .text          0x00000000        0x0 ./objects/stm32l0xx_hal_adc.o
 .data          0x00000000        0x0 ./objects/stm32l0xx_hal_adc.o
 .bss           0x00000000        0x0 ./objects/stm32l0xx_hal_adc.o
 .text.HAL_ADC_MspDeInit
                0x00000000        0x4 ./objects/stm32l0xx_hal_adc.o
 .text.HAL_ADC_DeInit
                0x00000000      0x13c ./objects/stm32l0xx_hal_adc.o
 .text.HAL_ADC_Stop
                0x00000000       0xe8 ./objects/stm32l0xx_hal_adc.o
 .text.HAL_ADC_PollForEvent
                0x00000000       0x78 ./objects/stm32l0xx_hal_adc.o
 .text.HAL_ADC_Start_IT
                0x00000000      0x100 ./objects/stm32l0xx_hal_adc.o
 .text.HAL_ADC_Stop_IT
                0x00000000       0xf0 ./objects/stm32l0xx_hal_adc.o
 .text.HAL_ADC_Start_DMA
                0x00000000      0x124 ./objects/stm32l0xx_hal_adc.o
 .text.HAL_ADC_Stop_DMA
                0x00000000      0x168 ./objects/stm32l0xx_hal_adc.o
 .text.HAL_ADC_ConvCpltCallback
                0x00000000        0x4 ./objects/stm32l0xx_hal_adc.o
 .text.ADC_DMAConvCplt
                0x00000000       0x70 ./objects/stm32l0xx_hal_adc.o
 .text.HAL_ADC_ConvHalfCpltCallback
                0x00000000        0x4 ./objects/stm32l0xx_hal_adc.o
 .text.ADC_DMAHalfConvCplt
                0x00000000        0xc ./objects/stm32l0xx_hal_adc.o
 .text.HAL_ADC_LevelOutOfWindowCallback
                0x00000000        0x4 ./objects/stm32l0xx_hal_adc.o
 .text.HAL_ADC_ErrorCallback
                0x00000000        0x4 ./objects/stm32l0xx_hal_adc.o
 .text.ADC_DMAError
                0x00000000       0x1c ./objects/stm32l0xx_hal_adc.o
 .text.HAL_ADC_IRQHandler
                0x00000000       0xec ./objects/stm32l0xx_hal_adc.o
 .text.HAL_ADC_AnalogWDGConfig
                0x00000000       0x98 ./objects/stm32l0xx_hal_adc.o
 .text.HAL_ADC_GetState
                0x00000000        0x4 ./objects/stm32l0xx_hal_adc.o
 .text.HAL_ADC_GetError
                0x00000000        0x4 ./objects/stm32l0xx_hal_adc.o
 .text          0x00000000        0x0 ./objects/stm32l0xx_hal_rcc.o
 .data          0x00000000        0x0 ./objects/stm32l0xx_hal_rcc.o
 .bss           0x00000000        0x0 ./objects/stm32l0xx_hal_rcc.o
 .text.HAL_RCC_DeInit
                0x00000000       0x7c ./objects/stm32l0xx_hal_rcc.o
 .text.HAL_RCC_MCOConfig
                0x00000000       0xa4 ./objects/stm32l0xx_hal_rcc.o
 .text.HAL_RCC_EnableCSS
                0x00000000       0x14 ./objects/stm32l0xx_hal_rcc.o
 .text.HAL_RCC_GetHCLKFreq
                0x00000000        0xc ./objects/stm32l0xx_hal_rcc.o
 .text.HAL_RCC_GetOscConfig
                0x00000000       0xac ./objects/stm32l0xx_hal_rcc.o
 .text.HAL_RCC_GetClockConfig
                0x00000000       0x40 ./objects/stm32l0xx_hal_rcc.o
 .text.HAL_RCC_CSSCallback
                0x00000000        0x4 ./objects/stm32l0xx_hal_rcc.o
 .text.HAL_RCC_NMI_IRQHandler
                0x00000000       0x1c ./objects/stm32l0xx_hal_rcc.o
 .text          0x00000000        0x0 ./objects/stm32l0xx_hal_rcc_ex.o
 .data          0x00000000        0x0 ./objects/stm32l0xx_hal_rcc_ex.o
 .bss           0x00000000        0x0 ./objects/stm32l0xx_hal_rcc_ex.o
 .text.HAL_RCCEx_GetPeriphCLKConfig
                0x00000000       0x68 ./objects/stm32l0xx_hal_rcc_ex.o
 .text.HAL_RCCEx_EnableLSECSS
                0x00000000       0x14 ./objects/stm32l0xx_hal_rcc_ex.o
 .text.HAL_RCCEx_DisableLSECSS
                0x00000000       0x1c ./objects/stm32l0xx_hal_rcc_ex.o
 .text.HAL_RCCEx_EnableLSECSS_IT
                0x00000000       0x30 ./objects/stm32l0xx_hal_rcc_ex.o
 .text.HAL_RCCEx_LSECSS_Callback
                0x00000000        0x4 ./objects/stm32l0xx_hal_rcc_ex.o
 .text.HAL_RCCEx_LSECSS_IRQHandler
                0x00000000       0x18 ./objects/stm32l0xx_hal_rcc_ex.o
 .text.HAL_RCCEx_EnableHSI48_VREFINT
                0x00000000       0x14 ./objects/stm32l0xx_hal_rcc_ex.o
 .text.HAL_RCCEx_DisableHSI48_VREFINT
                0x00000000       0x14 ./objects/stm32l0xx_hal_rcc_ex.o
 .text.HAL_RCCEx_CRSConfig
                0x00000000       0x54 ./objects/stm32l0xx_hal_rcc_ex.o
 .text.HAL_RCCEx_CRSSoftwareSynchronizationGenerate
                0x00000000       0x10 ./objects/stm32l0xx_hal_rcc_ex.o
 .text.HAL_RCCEx_CRSGetSynchronizationInfo
                0x00000000       0x28 ./objects/stm32l0xx_hal_rcc_ex.o
 .text.HAL_RCCEx_CRSWaitSynchronization
                0x00000000      0x160 ./objects/stm32l0xx_hal_rcc_ex.o
 .text.HAL_RCCEx_CRS_SyncOkCallback
                0x00000000        0x4 ./objects/stm32l0xx_hal_rcc_ex.o
 .text.HAL_RCCEx_CRS_SyncWarnCallback
                0x00000000        0x4 ./objects/stm32l0xx_hal_rcc_ex.o
 .text.HAL_RCCEx_CRS_ExpectedSyncCallback
                0x00000000        0x4 ./objects/stm32l0xx_hal_rcc_ex.o
 .text.HAL_RCCEx_CRS_ErrorCallback
                0x00000000        0x4 ./objects/stm32l0xx_hal_rcc_ex.o
 .text.HAL_RCCEx_CRS_IRQHandler
                0x00000000       0x80 ./objects/stm32l0xx_hal_rcc_ex.o
 .text          0x00000000        0x0 ./objects/stm32l0xx_hal.o
 .data          0x00000000        0x0 ./objects/stm32l0xx_hal.o
 .bss           0x00000000        0x0 ./objects/stm32l0xx_hal.o
 .text.HAL_MspInit
                0x00000000        0x4 ./objects/stm32l0xx_hal.o
 .text.HAL_MspDeInit
                0x00000000        0x4 ./objects/stm32l0xx_hal.o
 .text.HAL_DeInit
                0x00000000       0x28 ./objects/stm32l0xx_hal.o
 .text.HAL_InitTick
                0x00000000       0x28 ./objects/stm32l0xx_hal.o
 .text.HAL_Delay
                0x00000000       0x1c ./objects/stm32l0xx_hal.o
 .text.HAL_SuspendTick
                0x00000000       0x10 ./objects/stm32l0xx_hal.o
 .text.HAL_ResumeTick
                0x00000000       0x10 ./objects/stm32l0xx_hal.o
 .text.HAL_GetHalVersion
                0x00000000        0x8 ./objects/stm32l0xx_hal.o
 .text.HAL_GetREVID
                0x00000000        0xc ./objects/stm32l0xx_hal.o
 .text.HAL_GetDEVID
                0x00000000       0x10 ./objects/stm32l0xx_hal.o
 .text.HAL_DBGMCU_EnableDBGSleepMode
                0x00000000       0x10 ./objects/stm32l0xx_hal.o
 .text.HAL_DBGMCU_EnableDBGStopMode
                0x00000000       0x10 ./objects/stm32l0xx_hal.o
 .text.HAL_DBGMCU_EnableDBGStandbyMode
                0x00000000       0x10 ./objects/stm32l0xx_hal.o
 .text.HAL_DBGMCU_DBG_EnableLowPowerConfig
                0x00000000       0x10 ./objects/stm32l0xx_hal.o
 .text.HAL_DBGMCU_DBG_DisableLowPowerConfig
                0x00000000       0x10 ./objects/stm32l0xx_hal.o
 .text.HAL_SYSCFG_GetBootMode
                0x00000000       0x10 ./objects/stm32l0xx_hal.o
 .text.HAL_SYSCFG_VREFINT_OutputSelect
                0x00000000       0x18 ./objects/stm32l0xx_hal.o
 .text.HAL_SYSCFG_Enable_Lock_VREFINT
                0x00000000       0x14 ./objects/stm32l0xx_hal.o
 .text.HAL_SYSCFG_Disable_Lock_VREFINT
                0x00000000       0x10 ./objects/stm32l0xx_hal.o
 .text          0x00000000        0x0 ./objects/stm32l0xx_hal_cortex.o
 .data          0x00000000        0x0 ./objects/stm32l0xx_hal_cortex.o
 .bss           0x00000000        0x0 ./objects/stm32l0xx_hal_cortex.o
 .text.HAL_NVIC_DisableIRQ
                0x00000000       0x20 ./objects/stm32l0xx_hal_cortex.o
 .text.HAL_NVIC_SystemReset
                0x00000000       0x1c ./objects/stm32l0xx_hal_cortex.o
 .text.HAL_SYSTICK_Config
                0x00000000       0x38 ./objects/stm32l0xx_hal_cortex.o
 .text.HAL_NVIC_GetPriority
                0x00000000       0x48 ./objects/stm32l0xx_hal_cortex.o
 .text.HAL_NVIC_SetPendingIRQ
                0x00000000       0x1c ./objects/stm32l0xx_hal_cortex.o
 .text.HAL_NVIC_GetPendingIRQ
                0x00000000       0x20 ./objects/stm32l0xx_hal_cortex.o
 .text.HAL_NVIC_ClearPendingIRQ
                0x00000000       0x1c ./objects/stm32l0xx_hal_cortex.o
 .text.HAL_SYSTICK_CLKSourceConfig
                0x00000000       0x1c ./objects/stm32l0xx_hal_cortex.o
 .text.HAL_SYSTICK_Callback
                0x00000000        0x4 ./objects/stm32l0xx_hal_cortex.o
 .text.HAL_SYSTICK_IRQHandler
                0x00000000        0x8 ./objects/stm32l0xx_hal_cortex.o
 .text.HAL_MPU_ConfigRegion
                0x00000000       0x50 ./objects/stm32l0xx_hal_cortex.o
 .text          0x00000000        0x0 ./objects/stm32l0xx_hal_gpio.o
 .data          0x00000000        0x0 ./objects/stm32l0xx_hal_gpio.o
 .bss           0x00000000        0x0 ./objects/stm32l0xx_hal_gpio.o
 .text.HAL_GPIO_DeInit
                0x00000000      0x148 ./objects/stm32l0xx_hal_gpio.o
 .text.HAL_GPIO_ReadPin
                0x00000000        0xc ./objects/stm32l0xx_hal_gpio.o
 .text.HAL_GPIO_TogglePin
                0x00000000        0x8 ./objects/stm32l0xx_hal_gpio.o
 .text.HAL_GPIO_LockPin
                0x00000000       0x28 ./objects/stm32l0xx_hal_gpio.o
 .text.HAL_GPIO_EXTI_Callback
                0x00000000        0x4 ./objects/stm32l0xx_hal_gpio.o
 .text          0x00000000        0x0 ./objects/stm32l0xx_hal_dma.o
 .data          0x00000000        0x0 ./objects/stm32l0xx_hal_dma.o
 .bss           0x00000000        0x0 ./objects/stm32l0xx_hal_dma.o
 .text.HAL_DMA_DeInit
                0x00000000      0x18c ./objects/stm32l0xx_hal_dma.o
 .text.HAL_DMA_Start
                0x00000000       0x40 ./objects/stm32l0xx_hal_dma.o
 .text.HAL_DMA_Abort
                0x00000000       0x54 ./objects/stm32l0xx_hal_dma.o
 .text.HAL_DMA_PollForTransfer
                0x00000000      0x3c4 ./objects/stm32l0xx_hal_dma.o
 .text.HAL_DMA_GetState
                0x00000000        0x8 ./objects/stm32l0xx_hal_dma.o
 .text.HAL_DMA_GetError
                0x00000000        0x4 ./objects/stm32l0xx_hal_dma.o
 .text          0x00000000        0x0 ./objects/stm32l0xx_hal_pwr.o
 .data          0x00000000        0x0 ./objects/stm32l0xx_hal_pwr.o
 .bss           0x00000000        0x0 ./objects/stm32l0xx_hal_pwr.o
 .text.HAL_PWR_DeInit
                0x00000000       0x20 ./objects/stm32l0xx_hal_pwr.o
 .text.HAL_PWR_EnableBkUpAccess
                0x00000000       0x14 ./objects/stm32l0xx_hal_pwr.o
 .text.HAL_PWR_DisableBkUpAccess
                0x00000000       0x14 ./objects/stm32l0xx_hal_pwr.o
 .text.HAL_PWR_ConfigPVD
                0x00000000       0x78 ./objects/stm32l0xx_hal_pwr.o
 .text.HAL_PWR_EnablePVD
                0x00000000       0x10 ./objects/stm32l0xx_hal_pwr.o
 .text.HAL_PWR_EnableWakeUpPin
                0x00000000       0x10 ./objects/stm32l0xx_hal_pwr.o
 .text.HAL_PWR_DisableWakeUpPin
                0x00000000       0x10 ./objects/stm32l0xx_hal_pwr.o
 .text.HAL_PWR_EnterSTANDBYMode
                0x00000000       0x20 ./objects/stm32l0xx_hal_pwr.o
 .text.HAL_PWR_EnableSleepOnExit
                0x00000000       0x10 ./objects/stm32l0xx_hal_pwr.o
 .text.HAL_PWR_DisableSleepOnExit
                0x00000000       0x10 ./objects/stm32l0xx_hal_pwr.o
 .text.HAL_PWR_EnableSEVOnPend
                0x00000000       0x10 ./objects/stm32l0xx_hal_pwr.o
 .text.HAL_PWR_DisableSEVOnPend
                0x00000000       0x10 ./objects/stm32l0xx_hal_pwr.o
 .text.HAL_PWR_PVDCallback
                0x00000000        0x4 ./objects/stm32l0xx_hal_pwr.o
 .text.HAL_PWR_PVD_IRQHandler
                0x00000000       0x1c ./objects/stm32l0xx_hal_pwr.o
 .text          0x00000000        0x0 ./objects/stm32l0xx_hal_pwr_ex.o
 .data          0x00000000        0x0 ./objects/stm32l0xx_hal_pwr_ex.o
 .bss           0x00000000        0x0 ./objects/stm32l0xx_hal_pwr_ex.o
 .text.HAL_PWREx_GetVoltageRange
                0x00000000       0x10 ./objects/stm32l0xx_hal_pwr_ex.o
 .text.HAL_PWREx_DisableFastWakeUp
                0x00000000       0x14 ./objects/stm32l0xx_hal_pwr_ex.o
 .text.HAL_PWREx_DisableUltraLowPower
                0x00000000       0x14 ./objects/stm32l0xx_hal_pwr_ex.o
 .text.HAL_PWREx_EnableLowPowerRunMode
                0x00000000       0x1c ./objects/stm32l0xx_hal_pwr_ex.o
 .text.HAL_PWREx_DisableLowPowerRunMode
                0x00000000       0x5c ./objects/stm32l0xx_hal_pwr_ex.o
 .text          0x00000000        0x0 ./objects/stm32l0xx_hal_rtc.o
 .data          0x00000000        0x0 ./objects/stm32l0xx_hal_rtc.o
 .bss           0x00000000        0x0 ./objects/stm32l0xx_hal_rtc.o
 .text.HAL_RTC_MspInit
                0x00000000        0x4 ./objects/stm32l0xx_hal_rtc.o
 .text.HAL_RTC_MspDeInit
                0x00000000        0x4 ./objects/stm32l0xx_hal_rtc.o
 .text.HAL_RTC_DeInit
                0x00000000      0x108 ./objects/stm32l0xx_hal_rtc.o
 .text.HAL_RTC_SetAlarm
                0x00000000      0x1e4 ./objects/stm32l0xx_hal_rtc.o
 .text.HAL_RTC_GetAlarm
                0x00000000       0xc8 ./objects/stm32l0xx_hal_rtc.o
 .text.HAL_RTC_AlarmAEventCallback
                0x00000000        0x4 ./objects/stm32l0xx_hal_rtc.o
 .text.HAL_RTC_AlarmIRQHandler
                0x00000000       0x64 ./objects/stm32l0xx_hal_rtc.o
 .text.HAL_RTC_PollForAlarmAEvent
                0x00000000       0x58 ./objects/stm32l0xx_hal_rtc.o
 .text.HAL_RTC_WaitForSynchro
                0x00000000       0x38 ./objects/stm32l0xx_hal_rtc.o
 .text.HAL_RTC_GetState
                0x00000000        0x8 ./objects/stm32l0xx_hal_rtc.o
 .text.RTC_EnterInitMode
                0x00000000       0x3c ./objects/stm32l0xx_hal_rtc.o
 .text.RTC_ByteToBcd2
                0x00000000       0x18 ./objects/stm32l0xx_hal_rtc.o
 .text.RTC_Bcd2ToByte
                0x00000000       0x14 ./objects/stm32l0xx_hal_rtc.o
 .text          0x00000000        0x0 ./objects/stm32l0xx_hal_rtc_ex.o
 .data          0x00000000        0x0 ./objects/stm32l0xx_hal_rtc_ex.o
 .bss           0x00000000        0x0 ./objects/stm32l0xx_hal_rtc_ex.o
 .text.HAL_RTCEx_SetTimeStamp
                0x00000000       0x48 ./objects/stm32l0xx_hal_rtc_ex.o
 .text.HAL_RTCEx_SetTimeStamp_IT
                0x00000000       0x68 ./objects/stm32l0xx_hal_rtc_ex.o
 .text.HAL_RTCEx_DeactivateTimeStamp
                0x00000000       0x48 ./objects/stm32l0xx_hal_rtc_ex.o
 .text.HAL_RTCEx_GetTimeStamp
                0x00000000       0xa8 ./objects/stm32l0xx_hal_rtc_ex.o
 .text.HAL_RTCEx_SetTamper
                0x00000000       0xe0 ./objects/stm32l0xx_hal_rtc_ex.o
 .text.HAL_RTCEx_SetTamper_IT
                0x00000000      0x100 ./objects/stm32l0xx_hal_rtc_ex.o
 .text.HAL_RTCEx_DeactivateTamper
                0x00000000       0x64 ./objects/stm32l0xx_hal_rtc_ex.o
 .text.HAL_RTCEx_TimeStampEventCallback
                0x00000000        0x4 ./objects/stm32l0xx_hal_rtc_ex.o
 .text.HAL_RTCEx_Tamper1EventCallback
                0x00000000        0x4 ./objects/stm32l0xx_hal_rtc_ex.o
 .text.HAL_RTCEx_Tamper2EventCallback
                0x00000000        0x4 ./objects/stm32l0xx_hal_rtc_ex.o
 .text.HAL_RTCEx_Tamper3EventCallback
                0x00000000        0x4 ./objects/stm32l0xx_hal_rtc_ex.o
 .text.HAL_RTCEx_TamperTimeStampIRQHandler
                0x00000000       0xc4 ./objects/stm32l0xx_hal_rtc_ex.o
 .text.HAL_RTCEx_PollForTimeStampEvent
                0x00000000       0x84 ./objects/stm32l0xx_hal_rtc_ex.o
 .text.HAL_RTCEx_PollForTamper1Event
                0x00000000       0x58 ./objects/stm32l0xx_hal_rtc_ex.o
 .text.HAL_RTCEx_PollForTamper2Event
                0x00000000       0x58 ./objects/stm32l0xx_hal_rtc_ex.o
 .text.HAL_RTCEx_PollForTamper3Event
                0x00000000       0x58 ./objects/stm32l0xx_hal_rtc_ex.o
 .text.HAL_RTCEx_SetWakeUpTimer
                0x00000000       0xe8 ./objects/stm32l0xx_hal_rtc_ex.o
 .text.HAL_RTCEx_SetWakeUpTimer_IT
                0x00000000      0x11c ./objects/stm32l0xx_hal_rtc_ex.o
 .text.HAL_RTCEx_DeactivateWakeUpTimer
                0x00000000       0x90 ./objects/stm32l0xx_hal_rtc_ex.o
 .text.HAL_RTCEx_GetWakeUpTimer
                0x00000000        0xc ./objects/stm32l0xx_hal_rtc_ex.o
 .text.HAL_RTCEx_WakeUpTimerEventCallback
                0x00000000        0x4 ./objects/stm32l0xx_hal_rtc_ex.o
 .text.HAL_RTCEx_WakeUpTimerIRQHandler
                0x00000000       0x38 ./objects/stm32l0xx_hal_rtc_ex.o
 .text.HAL_RTCEx_PollForWakeUpTimerEvent
                0x00000000       0x58 ./objects/stm32l0xx_hal_rtc_ex.o
 .text.HAL_RTCEx_SetSmoothCalib
                0x00000000       0x98 ./objects/stm32l0xx_hal_rtc_ex.o
 .text.HAL_RTCEx_SetSynchroShift
                0x00000000       0xc8 ./objects/stm32l0xx_hal_rtc_ex.o
 .text.HAL_RTCEx_SetCalibrationOutPut
                0x00000000       0x4c ./objects/stm32l0xx_hal_rtc_ex.o
 .text.HAL_RTCEx_DeactivateCalibrationOutPut
                0x00000000       0x3c ./objects/stm32l0xx_hal_rtc_ex.o
 .text.HAL_RTCEx_SetRefClock
                0x00000000       0x58 ./objects/stm32l0xx_hal_rtc_ex.o
 .text.HAL_RTCEx_DeactivateRefClock
                0x00000000       0x58 ./objects/stm32l0xx_hal_rtc_ex.o
 .text.HAL_RTCEx_DisableBypassShadow
                0x00000000       0x38 ./objects/stm32l0xx_hal_rtc_ex.o
 .text.HAL_RTCEx_AlarmBEventCallback
                0x00000000        0x4 ./objects/stm32l0xx_hal_rtc_ex.o
 .text.HAL_RTCEx_PollForAlarmBEvent
                0x00000000       0x58 ./objects/stm32l0xx_hal_rtc_ex.o
 .text          0x00000000        0x0 ./objects/stm32l0xx_hal_tim.o
 .data          0x00000000        0x0 ./objects/stm32l0xx_hal_tim.o
 .bss           0x00000000        0x0 ./objects/stm32l0xx_hal_tim.o
 .text.HAL_TIM_Base_MspInit
                0x00000000        0x4 ./objects/stm32l0xx_hal_tim.o
 .text.HAL_TIM_Base_Init
                0x00000000       0x80 ./objects/stm32l0xx_hal_tim.o
 .text.HAL_TIM_Base_MspDeInit
                0x00000000        0x4 ./objects/stm32l0xx_hal_tim.o
 .text.HAL_TIM_Base_DeInit
                0x00000000       0x34 ./objects/stm32l0xx_hal_tim.o
 .text.HAL_TIM_Base_Start
                0x00000000       0x18 ./objects/stm32l0xx_hal_tim.o
 .text.HAL_TIM_Base_Stop
                0x00000000       0x28 ./objects/stm32l0xx_hal_tim.o
 .text.HAL_TIM_Base_Start_IT
                0x00000000       0x14 ./objects/stm32l0xx_hal_tim.o
 .text.HAL_TIM_Base_Stop_IT
                0x00000000       0x20 ./objects/stm32l0xx_hal_tim.o
 .text.HAL_TIM_Base_Start_DMA
                0x00000000       0x60 ./objects/stm32l0xx_hal_tim.o
 .text.HAL_TIM_Base_Stop_DMA
                0x00000000       0x2c ./objects/stm32l0xx_hal_tim.o
 .text.HAL_TIM_OC_MspInit
                0x00000000        0x4 ./objects/stm32l0xx_hal_tim.o
 .text.HAL_TIM_OC_Init
                0x00000000       0x80 ./objects/stm32l0xx_hal_tim.o
 .text.HAL_TIM_OC_MspDeInit
                0x00000000        0x4 ./objects/stm32l0xx_hal_tim.o
 .text.HAL_TIM_OC_DeInit
                0x00000000       0x34 ./objects/stm32l0xx_hal_tim.o
 .text.HAL_TIM_OC_Start
                0x00000000       0x20 ./objects/stm32l0xx_hal_tim.o
 .text.HAL_TIM_OC_Stop
                0x00000000       0x2c ./objects/stm32l0xx_hal_tim.o
 .text.HAL_TIM_OC_Start_IT
                0x00000000       0x4c ./objects/stm32l0xx_hal_tim.o
 .text.HAL_TIM_OC_Stop_IT
                0x00000000       0x58 ./objects/stm32l0xx_hal_tim.o
 .text.HAL_TIM_OC_Start_DMA
                0x00000000       0xe4 ./objects/stm32l0xx_hal_tim.o
 .text.HAL_TIM_OC_Stop_DMA
                0x00000000       0x78 ./objects/stm32l0xx_hal_tim.o
 .text.HAL_TIM_PWM_MspInit
                0x00000000        0x4 ./objects/stm32l0xx_hal_tim.o
 .text.HAL_TIM_PWM_Init
                0x00000000       0x80 ./objects/stm32l0xx_hal_tim.o
 .text.HAL_TIM_PWM_MspDeInit
                0x00000000        0x4 ./objects/stm32l0xx_hal_tim.o
 .text.HAL_TIM_PWM_DeInit
                0x00000000       0x34 ./objects/stm32l0xx_hal_tim.o
 .text.HAL_TIM_PWM_Start
                0x00000000       0x20 ./objects/stm32l0xx_hal_tim.o
 .text.HAL_TIM_PWM_Stop
                0x00000000       0x30 ./objects/stm32l0xx_hal_tim.o
 .text.HAL_TIM_PWM_Start_IT
                0x00000000       0x4c ./objects/stm32l0xx_hal_tim.o
 .text.HAL_TIM_PWM_Stop_IT
                0x00000000       0x58 ./objects/stm32l0xx_hal_tim.o
 .text.HAL_TIM_PWM_Start_DMA
                0x00000000       0xe4 ./objects/stm32l0xx_hal_tim.o
 .text.HAL_TIM_PWM_Stop_DMA
                0x00000000       0x78 ./objects/stm32l0xx_hal_tim.o
 .text.HAL_TIM_IC_MspInit
                0x00000000        0x4 ./objects/stm32l0xx_hal_tim.o
 .text.HAL_TIM_IC_Init
                0x00000000       0x80 ./objects/stm32l0xx_hal_tim.o
 .text.HAL_TIM_IC_MspDeInit
                0x00000000        0x4 ./objects/stm32l0xx_hal_tim.o
 .text.HAL_TIM_IC_DeInit
                0x00000000       0x34 ./objects/stm32l0xx_hal_tim.o
 .text.HAL_TIM_IC_Start
                0x00000000       0x20 ./objects/stm32l0xx_hal_tim.o
 .text.HAL_TIM_IC_Stop
                0x00000000       0x2c ./objects/stm32l0xx_hal_tim.o
 .text.HAL_TIM_IC_Start_IT
                0x00000000       0x4c ./objects/stm32l0xx_hal_tim.o
 .text.HAL_TIM_IC_Stop_IT
                0x00000000       0x58 ./objects/stm32l0xx_hal_tim.o
 .text.HAL_TIM_IC_Start_DMA
                0x00000000       0xe0 ./objects/stm32l0xx_hal_tim.o
 .text.HAL_TIM_IC_Stop_DMA
                0x00000000       0x78 ./objects/stm32l0xx_hal_tim.o
 .text.HAL_TIM_OnePulse_MspInit
                0x00000000        0x4 ./objects/stm32l0xx_hal_tim.o
 .text.HAL_TIM_OnePulse_Init
                0x00000000       0x94 ./objects/stm32l0xx_hal_tim.o
 .text.HAL_TIM_OnePulse_MspDeInit
                0x00000000        0x4 ./objects/stm32l0xx_hal_tim.o
 .text.HAL_TIM_OnePulse_DeInit
                0x00000000       0x34 ./objects/stm32l0xx_hal_tim.o
 .text.HAL_TIM_OnePulse_Start
                0x00000000       0x24 ./objects/stm32l0xx_hal_tim.o
 .text.HAL_TIM_OnePulse_Stop
                0x00000000       0x30 ./objects/stm32l0xx_hal_tim.o
 .text.HAL_TIM_OnePulse_Start_IT
                0x00000000       0x34 ./objects/stm32l0xx_hal_tim.o
 .text.HAL_TIM_OnePulse_Stop_IT
                0x00000000       0x40 ./objects/stm32l0xx_hal_tim.o
 .text.HAL_TIM_Encoder_MspInit
                0x00000000        0x4 ./objects/stm32l0xx_hal_tim.o
 .text.HAL_TIM_Encoder_Init
                0x00000000       0xe8 ./objects/stm32l0xx_hal_tim.o
 .text.HAL_TIM_Encoder_MspDeInit
                0x00000000        0x4 ./objects/stm32l0xx_hal_tim.o
 .text.HAL_TIM_Encoder_DeInit
                0x00000000       0x34 ./objects/stm32l0xx_hal_tim.o
 .text.HAL_TIM_Encoder_Start
                0x00000000       0x40 ./objects/stm32l0xx_hal_tim.o
 .text.HAL_TIM_Encoder_Stop
                0x00000000       0x58 ./objects/stm32l0xx_hal_tim.o
 .text.HAL_TIM_Encoder_Start_IT
                0x00000000       0x74 ./objects/stm32l0xx_hal_tim.o
 .text.HAL_TIM_Encoder_Stop_IT
                0x00000000       0x78 ./objects/stm32l0xx_hal_tim.o
 .text.HAL_TIM_Encoder_Start_DMA
                0x00000000      0x130 ./objects/stm32l0xx_hal_tim.o
 .text.HAL_TIM_Encoder_Stop_DMA
                0x00000000       0x80 ./objects/stm32l0xx_hal_tim.o
 .text.HAL_TIM_OC_ConfigChannel
                0x00000000      0x108 ./objects/stm32l0xx_hal_tim.o
 .text.HAL_TIM_IC_ConfigChannel
                0x00000000      0x1a0 ./objects/stm32l0xx_hal_tim.o
 .text.HAL_TIM_PWM_ConfigChannel
                0x00000000      0x170 ./objects/stm32l0xx_hal_tim.o
 .text.HAL_TIM_OnePulse_ConfigChannel
                0x00000000      0x1cc ./objects/stm32l0xx_hal_tim.o
 .text.HAL_TIM_DMABurst_WriteStart
                0x00000000       0xcc ./objects/stm32l0xx_hal_tim.o
 .text.HAL_TIM_DMABurst_WriteStop
                0x00000000       0x74 ./objects/stm32l0xx_hal_tim.o
 .text.HAL_TIM_DMABurst_ReadStart
                0x00000000       0xcc ./objects/stm32l0xx_hal_tim.o
 .text.HAL_TIM_DMABurst_ReadStop
                0x00000000       0x74 ./objects/stm32l0xx_hal_tim.o
 .text.HAL_TIM_GenerateEvent
                0x00000000       0x24 ./objects/stm32l0xx_hal_tim.o
 .text.HAL_TIM_ConfigOCrefClear
                0x00000000       0xe8 ./objects/stm32l0xx_hal_tim.o
 .text.HAL_TIM_ConfigClockSource
                0x00000000      0x18c ./objects/stm32l0xx_hal_tim.o
 .text.HAL_TIM_ConfigTI1Input
                0x00000000       0x10 ./objects/stm32l0xx_hal_tim.o
 .text.HAL_TIM_SlaveConfigSynchronization
                0x00000000       0xe8 ./objects/stm32l0xx_hal_tim.o
 .text.HAL_TIM_SlaveConfigSynchronization_IT
                0x00000000       0xe8 ./objects/stm32l0xx_hal_tim.o
 .text.HAL_TIM_ReadCapturedValue
                0x00000000       0x44 ./objects/stm32l0xx_hal_tim.o
 .text.HAL_TIM_PeriodElapsedCallback
                0x00000000        0x4 ./objects/stm32l0xx_hal_tim.o
 .text.TIM_DMAPeriodElapsedCplt
                0x00000000       0x10 ./objects/stm32l0xx_hal_tim.o
 .text.HAL_TIM_OC_DelayElapsedCallback
                0x00000000        0x4 ./objects/stm32l0xx_hal_tim.o
 .text.HAL_TIM_IC_CaptureCallback
                0x00000000        0x4 ./objects/stm32l0xx_hal_tim.o
 .text.TIM_DMACaptureCplt
                0x00000000       0x40 ./objects/stm32l0xx_hal_tim.o
 .text.HAL_TIM_PWM_PulseFinishedCallback
                0x00000000        0x4 ./objects/stm32l0xx_hal_tim.o
 .text.TIM_DMADelayPulseCplt
                0x00000000       0x40 ./objects/stm32l0xx_hal_tim.o
 .text.HAL_TIM_TriggerCallback
                0x00000000        0x4 ./objects/stm32l0xx_hal_tim.o
 .text.HAL_TIM_IRQHandler
                0x00000000      0x11c ./objects/stm32l0xx_hal_tim.o
 .text.TIM_DMATriggerCplt
                0x00000000       0x10 ./objects/stm32l0xx_hal_tim.o
 .text.HAL_TIM_ErrorCallback
                0x00000000        0x4 ./objects/stm32l0xx_hal_tim.o
 .text.TIM_DMAError
                0x00000000       0x10 ./objects/stm32l0xx_hal_tim.o
 .text.HAL_TIM_Base_GetState
                0x00000000        0x8 ./objects/stm32l0xx_hal_tim.o
 .text.HAL_TIM_OC_GetState
                0x00000000        0x8 ./objects/stm32l0xx_hal_tim.o
 .text.HAL_TIM_PWM_GetState
                0x00000000        0x8 ./objects/stm32l0xx_hal_tim.o
 .text.HAL_TIM_IC_GetState
                0x00000000        0x8 ./objects/stm32l0xx_hal_tim.o
 .text.HAL_TIM_OnePulse_GetState
                0x00000000        0x8 ./objects/stm32l0xx_hal_tim.o
 .text.HAL_TIM_Encoder_GetState
                0x00000000        0x8 ./objects/stm32l0xx_hal_tim.o
 .debug_info    0x00000000     0x4299 ./objects/stm32l0xx_hal_tim.o
 .debug_abbrev  0x00000000      0x3e5 ./objects/stm32l0xx_hal_tim.o
 .debug_loc     0x00000000     0x4e1c ./objects/stm32l0xx_hal_tim.o
 .debug_aranges
                0x00000000      0x1e8 ./objects/stm32l0xx_hal_tim.o
 .debug_ranges  0x00000000      0x6e0 ./objects/stm32l0xx_hal_tim.o
 .debug_line    0x00000000     0x138c ./objects/stm32l0xx_hal_tim.o
 .debug_str     0x00000000     0x174b ./objects/stm32l0xx_hal_tim.o
 .comment       0x00000000       0x80 ./objects/stm32l0xx_hal_tim.o
 .debug_frame   0x00000000      0x88c ./objects/stm32l0xx_hal_tim.o
 .ARM.attributes
                0x00000000       0x32 ./objects/stm32l0xx_hal_tim.o
 .text          0x00000000        0x0 ./objects/stm32l0xx_hal_tim_ex.o
 .data          0x00000000        0x0 ./objects/stm32l0xx_hal_tim_ex.o
 .bss           0x00000000        0x0 ./objects/stm32l0xx_hal_tim_ex.o
 .text.HAL_TIMEx_MasterConfigSynchronization
                0x00000000       0x3c ./objects/stm32l0xx_hal_tim_ex.o
 .text.HAL_TIMEx_RemapConfig
                0x00000000       0x18 ./objects/stm32l0xx_hal_tim_ex.o
 .debug_info    0x00000000      0xfca ./objects/stm32l0xx_hal_tim_ex.o
 .debug_abbrev  0x00000000      0x217 ./objects/stm32l0xx_hal_tim_ex.o
 .debug_loc     0x00000000       0xf2 ./objects/stm32l0xx_hal_tim_ex.o
 .debug_aranges
                0x00000000       0x28 ./objects/stm32l0xx_hal_tim_ex.o
 .debug_ranges  0x00000000       0x18 ./objects/stm32l0xx_hal_tim_ex.o
 .debug_line    0x00000000      0x340 ./objects/stm32l0xx_hal_tim_ex.o
 .debug_str     0x00000000      0xab5 ./objects/stm32l0xx_hal_tim_ex.o
 .comment       0x00000000       0x80 ./objects/stm32l0xx_hal_tim_ex.o
 .debug_frame   0x00000000       0x44 ./objects/stm32l0xx_hal_tim_ex.o
 .ARM.attributes
                0x00000000       0x32 ./objects/stm32l0xx_hal_tim_ex.o
 .text          0x00000000        0x0 ./objects/stm32l0xx_hal_adc_ex.o
 .data          0x00000000        0x0 ./objects/stm32l0xx_hal_adc_ex.o
 .bss           0x00000000        0x0 ./objects/stm32l0xx_hal_adc_ex.o
 .text.HAL_ADCEx_Calibration_GetValue
                0x00000000        0xc ./objects/stm32l0xx_hal_adc_ex.o
 .text.HAL_ADCEx_Calibration_SetValue
                0x00000000       0x5c ./objects/stm32l0xx_hal_adc_ex.o
 .text.HAL_ADCEx_EnableVREFINT
                0x00000000       0x38 ./objects/stm32l0xx_hal_adc_ex.o
 .text.HAL_ADCEx_DisableVREFINT
                0x00000000       0x14 ./objects/stm32l0xx_hal_adc_ex.o
 .text.HAL_ADCEx_EnableVREFINTTempSensor
                0x00000000       0x38 ./objects/stm32l0xx_hal_adc_ex.o
 .text.HAL_ADCEx_DisableVREFINTTempSensor
                0x00000000       0x14 ./objects/stm32l0xx_hal_adc_ex.o
 .text          0x00000000        0x0 ./objects/stm32l0xx_hal_uart_ex.o
 .data          0x00000000        0x0 ./objects/stm32l0xx_hal_uart_ex.o
 .bss           0x00000000        0x0 ./objects/stm32l0xx_hal_uart_ex.o
 .text.HAL_RS485Ex_Init
                0x00000000       0x98 ./objects/stm32l0xx_hal_uart_ex.o
 .text.HAL_MultiProcessorEx_AddressLength_Set
                0x00000000       0x30 ./objects/stm32l0xx_hal_uart_ex.o
 .text.HAL_UARTEx_StopModeWakeUpSourceConfig
                0x00000000       0x94 ./objects/stm32l0xx_hal_uart_ex.o
 .text.HAL_UARTEx_EnableStopMode
                0x00000000       0x2c ./objects/stm32l0xx_hal_uart_ex.o
 .text.HAL_UARTEx_DisableStopMode
                0x00000000       0x2c ./objects/stm32l0xx_hal_uart_ex.o
 .text.HAL_UARTEx_EnableClockStopMode
                0x00000000       0x2c ./objects/stm32l0xx_hal_uart_ex.o
 .text.HAL_UARTEx_DisableClockStopMode
                0x00000000       0x30 ./objects/stm32l0xx_hal_uart_ex.o
 .text          0x00000000        0x0 ./objects/stm32l0xx_hal_i2c.o
 .data          0x00000000        0x0 ./objects/stm32l0xx_hal_i2c.o
 .bss           0x00000000        0x0 ./objects/stm32l0xx_hal_i2c.o
 .text.I2C_DMASlaveTransmitCplt
                0x00000000        0x4 ./objects/stm32l0xx_hal_i2c.o
 .text.I2C_DMAMasterTransmitCplt
                0x00000000       0x90 ./objects/stm32l0xx_hal_i2c.o
 .text.I2C_DMAMasterReceiveCplt
                0x00000000       0x8c ./objects/stm32l0xx_hal_i2c.o
 .text.I2C_WaitOnRXNEFlagUntilTimeout
                0x00000000      0x10c ./objects/stm32l0xx_hal_i2c.o
 .text.I2C_DMASlaveReceiveCplt
                0x00000000        0x4 ./objects/stm32l0xx_hal_i2c.o
 .text.I2C_WaitOnTXISFlagUntilTimeout
                0x00000000       0xd0 ./objects/stm32l0xx_hal_i2c.o
 .text.I2C_WaitOnSTOPFlagUntilTimeout
                0x00000000       0xcc ./objects/stm32l0xx_hal_i2c.o
 .text.HAL_I2C_MspInit
                0x00000000        0x4 ./objects/stm32l0xx_hal_i2c.o
 .text.HAL_I2C_Init
                0x00000000       0xb0 ./objects/stm32l0xx_hal_i2c.o
 .text.HAL_I2C_MspDeInit
                0x00000000        0x4 ./objects/stm32l0xx_hal_i2c.o
 .text.HAL_I2C_DeInit
                0x00000000       0x34 ./objects/stm32l0xx_hal_i2c.o
 .text.HAL_I2C_Master_Transmit
                0x00000000      0x198 ./objects/stm32l0xx_hal_i2c.o
 .text.HAL_I2C_Master_Receive
                0x00000000      0x198 ./objects/stm32l0xx_hal_i2c.o
 .text.HAL_I2C_Slave_Transmit
                0x00000000      0x1e4 ./objects/stm32l0xx_hal_i2c.o
 .text.HAL_I2C_Slave_Receive
                0x00000000      0x1c8 ./objects/stm32l0xx_hal_i2c.o
 .text.HAL_I2C_Master_Transmit_IT
                0x00000000       0xa0 ./objects/stm32l0xx_hal_i2c.o
 .text.HAL_I2C_Master_Receive_IT
                0x00000000       0xa0 ./objects/stm32l0xx_hal_i2c.o
 .text.HAL_I2C_Slave_Transmit_IT
                0x00000000       0x58 ./objects/stm32l0xx_hal_i2c.o
 .text.HAL_I2C_Slave_Receive_IT
                0x00000000       0x58 ./objects/stm32l0xx_hal_i2c.o
 .text.HAL_I2C_Master_Transmit_DMA
                0x00000000      0x140 ./objects/stm32l0xx_hal_i2c.o
 .text.HAL_I2C_Master_Receive_DMA
                0x00000000      0x140 ./objects/stm32l0xx_hal_i2c.o
 .text.HAL_I2C_Slave_Transmit_DMA
                0x00000000       0xa8 ./objects/stm32l0xx_hal_i2c.o
 .text.HAL_I2C_Slave_Receive_DMA
                0x00000000       0xac ./objects/stm32l0xx_hal_i2c.o
 .text.HAL_I2C_Mem_Write
                0x00000000      0x270 ./objects/stm32l0xx_hal_i2c.o
 .text.HAL_I2C_Mem_Read
                0x00000000      0x29c ./objects/stm32l0xx_hal_i2c.o
 .text.HAL_I2C_Mem_Write_IT
                0x00000000      0x22c ./objects/stm32l0xx_hal_i2c.o
 .text.HAL_I2C_Mem_Read_IT
                0x00000000      0x22c ./objects/stm32l0xx_hal_i2c.o
 .text.HAL_I2C_Mem_Write_DMA
                0x00000000      0x274 ./objects/stm32l0xx_hal_i2c.o
 .text.HAL_I2C_Mem_Read_DMA
                0x00000000      0x274 ./objects/stm32l0xx_hal_i2c.o
 .text.HAL_I2C_IsDeviceReady
                0x00000000      0x1a8 ./objects/stm32l0xx_hal_i2c.o
 .text.HAL_I2C_Master_Sequential_Transmit_IT
                0x00000000       0x9c ./objects/stm32l0xx_hal_i2c.o
 .text.HAL_I2C_Master_Sequential_Receive_IT
                0x00000000       0x9c ./objects/stm32l0xx_hal_i2c.o
 .text.HAL_I2C_Slave_Sequential_Transmit_IT
                0x00000000       0xd0 ./objects/stm32l0xx_hal_i2c.o
 .text.HAL_I2C_Slave_Sequential_Receive_IT
                0x00000000       0xd0 ./objects/stm32l0xx_hal_i2c.o
 .text.HAL_I2C_EnableListen_IT
                0x00000000       0x28 ./objects/stm32l0xx_hal_i2c.o
 .text.HAL_I2C_DisableListen_IT
                0x00000000       0x34 ./objects/stm32l0xx_hal_i2c.o
 .text.HAL_I2C_Master_Abort_IT
                0x00000000       0xac ./objects/stm32l0xx_hal_i2c.o
 .text.HAL_I2C_EV_IRQHandler
                0x00000000       0x14 ./objects/stm32l0xx_hal_i2c.o
 .text.HAL_I2C_MasterTxCpltCallback
                0x00000000        0x4 ./objects/stm32l0xx_hal_i2c.o
 .text.HAL_I2C_MasterRxCpltCallback
                0x00000000        0x4 ./objects/stm32l0xx_hal_i2c.o
 .text.HAL_I2C_SlaveTxCpltCallback
                0x00000000        0x4 ./objects/stm32l0xx_hal_i2c.o
 .text.HAL_I2C_SlaveRxCpltCallback
                0x00000000        0x4 ./objects/stm32l0xx_hal_i2c.o
 .text.HAL_I2C_AddrCallback
                0x00000000        0x4 ./objects/stm32l0xx_hal_i2c.o
 .text.HAL_I2C_ListenCpltCallback
                0x00000000        0x4 ./objects/stm32l0xx_hal_i2c.o
 .text.HAL_I2C_MemTxCpltCallback
                0x00000000        0x4 ./objects/stm32l0xx_hal_i2c.o
 .text.HAL_I2C_MemRxCpltCallback
                0x00000000        0x4 ./objects/stm32l0xx_hal_i2c.o
 .text.HAL_I2C_ErrorCallback
                0x00000000        0x4 ./objects/stm32l0xx_hal_i2c.o
 .text.HAL_I2C_AbortCpltCallback
                0x00000000        0x4 ./objects/stm32l0xx_hal_i2c.o
 .text.I2C_ITError
                0x00000000      0x124 ./objects/stm32l0xx_hal_i2c.o
 .text.I2C_ITSlaveCplt
                0x00000000      0x190 ./objects/stm32l0xx_hal_i2c.o
 .text.I2C_Slave_ISR_IT
                0x00000000      0x394 ./objects/stm32l0xx_hal_i2c.o
 .text.I2C_Slave_ISR_DMA
                0x00000000       0x9c ./objects/stm32l0xx_hal_i2c.o
 .text.I2C_DMAAbort
                0x00000000       0x34 ./objects/stm32l0xx_hal_i2c.o
 .text.I2C_DMAError
                0x00000000      0x130 ./objects/stm32l0xx_hal_i2c.o
 .text.I2C_ITMasterCplt
                0x00000000      0x200 ./objects/stm32l0xx_hal_i2c.o
 .text.I2C_Master_ISR_IT
                0x00000000      0x248 ./objects/stm32l0xx_hal_i2c.o
 .text.I2C_Master_ISR_DMA
                0x00000000      0x108 ./objects/stm32l0xx_hal_i2c.o
 .text.HAL_I2C_ER_IRQHandler
                0x00000000      0x1a0 ./objects/stm32l0xx_hal_i2c.o
 .text.HAL_I2C_GetState
                0x00000000        0x8 ./objects/stm32l0xx_hal_i2c.o
 .text.HAL_I2C_GetMode
                0x00000000        0x8 ./objects/stm32l0xx_hal_i2c.o
 .text.HAL_I2C_GetError
                0x00000000        0x4 ./objects/stm32l0xx_hal_i2c.o
 .debug_info    0x00000000     0x52b0 ./objects/stm32l0xx_hal_i2c.o
 .debug_abbrev  0x00000000      0x466 ./objects/stm32l0xx_hal_i2c.o
 .debug_loc     0x00000000     0x6b66 ./objects/stm32l0xx_hal_i2c.o
 .debug_aranges
                0x00000000      0x1a8 ./objects/stm32l0xx_hal_i2c.o
 .debug_ranges  0x00000000     0x10f0 ./objects/stm32l0xx_hal_i2c.o
 .debug_line    0x00000000     0x2055 ./objects/stm32l0xx_hal_i2c.o
 .debug_str     0x00000000     0x12cc ./objects/stm32l0xx_hal_i2c.o
 .comment       0x00000000       0x80 ./objects/stm32l0xx_hal_i2c.o
 .debug_frame   0x00000000      0x80c ./objects/stm32l0xx_hal_i2c.o
 .ARM.attributes
                0x00000000       0x32 ./objects/stm32l0xx_hal_i2c.o
 .text          0x00000000       0x14 ./objects/startup_stm32l072xx.o
 .data          0x00000000        0x0 ./objects/startup_stm32l072xx.o
 .bss           0x00000000        0x0 ./objects/startup_stm32l072xx.o
 .text          0x00000000        0x0 ./objects/bsp.o
 .data          0x00000000        0x0 ./objects/bsp.o
 .bss           0x00000000        0x0 ./objects/bsp.o
 .text          0x00000000        0x0 ./objects/debug.o
 .data          0x00000000        0x0 ./objects/debug.o
 .bss           0x00000000        0x0 ./objects/debug.o
 .text          0x00000000        0x0 ./objects/hw_gpio.o
 .data          0x00000000        0x0 ./objects/hw_gpio.o
 .text.HW_GPIO_Read
                0x00000000        0x8 ./objects/hw_gpio.o
 .text          0x00000000        0x0 ./objects/hw_rtc.o
 .data          0x00000000        0x0 ./objects/hw_rtc.o
 .text.HW_RTC_setMcuWakeUpTime
                0x00000000      0x140 ./objects/hw_rtc.o
 .text.HW_RTC_getMcuWakeUpTime
                0x00000000        0xc ./objects/hw_rtc.o
 .text.RtcTempCompensation
                0x00000000       0x68 ./objects/hw_rtc.o
 .text          0x00000000        0x0 ./objects/hw_spi.o
 .data          0x00000000        0x0 ./objects/hw_spi.o
 .text.HW_SPI_DeInit
                0x00000000       0xa4 ./objects/hw_spi.o
 .text.HW_SPI_IoDeInit
                0x00000000       0x80 ./objects/hw_spi.o
 .text          0x00000000        0x0 ./objects/main.o
 .text.Send     0x00000000       0x18 ./objects/main.o
 .text          0x00000000        0x0 ./objects/vcom.o
 .data          0x00000000        0x0 ./objects/vcom.o
 .text.vcom_DeInit
                0x00000000       0x10 ./objects/vcom.o
 .text.HAL_UART_MspDeInit
                0x00000000       0x7c ./objects/vcom.o
 .text          0x00000000        0x0 ./objects/mlm32l0xx_hal_msp.o
 .data          0x00000000        0x0 ./objects/mlm32l0xx_hal_msp.o
 .bss           0x00000000        0x0 ./objects/mlm32l0xx_hal_msp.o
 .text.HAL_RTC_MspDeInit
                0x00000000       0x14 ./objects/mlm32l0xx_hal_msp.o
 .text          0x00000000        0x0 ./objects/mlm32l0xx_hw.o
 .data          0x00000000        0x0 ./objects/mlm32l0xx_hw.o
 .text.HW_DeInit
                0x00000000       0x20 ./objects/mlm32l0xx_hw.o
 .text.HW_AdcInit
                0x00000000       0x58 ./objects/mlm32l0xx_hw.o
 .text.HW_AdcDeInit
                0x00000000        0xc ./objects/mlm32l0xx_hw.o
 .text.HW_AdcReadChannel
                0x00000000       0x9c ./objects/mlm32l0xx_hw.o
 .text          0x00000000        0x0 ./objects/mlm32l0xx_it.o
 .data          0x00000000        0x0 ./objects/mlm32l0xx_it.o
 .bss           0x00000000        0x0 ./objects/mlm32l0xx_it.o
 .text.MemManage_Handler
                0x00000000        0x4 ./objects/mlm32l0xx_it.o
 .text.BusFault_Handler
                0x00000000        0x4 ./objects/mlm32l0xx_it.o
 .text.UsageFault_Handler
                0x00000000        0x4 ./objects/mlm32l0xx_it.o
 .text.DebugMon_Handler
                0x00000000        0x4 ./objects/mlm32l0xx_it.o
 .text          0x00000000        0x0 ./objects/lora.o
 .text.LORA_GetCurrentClass
                0x00000000       0x1c ./objects/lora.o
 .text          0x00000000        0x0 ./objects/lora-test.o
 .data          0x00000000        0x0 ./objects/lora-test.o
 .text          0x00000000        0x0 ./objects/loramac.o
 .data          0x00000000        0x0 ./objects/loramac.o
 .text.PrepareFrame
                0x00000000      0x20c ./objects/loramac.o
 .text.SetTxContinuousWave
                0x00000000       0x54 ./objects/loramac.o
 .text.SetTxContinuousWave1
                0x00000000       0x2c ./objects/loramac.o
 .text.GetCtxs  0x00000000       0x78 ./objects/loramac.o
 .text.DetermineFrameType
                0x00000000       0x58 ./objects/loramac.o
 .text.LoRaMacStop
                0x00000000       0x30 ./objects/loramac.o
 .text.LoRaMacChannelAdd
                0x00000000       0x50 ./objects/loramac.o
 .text.LoRaMacChannelRemove
                0x00000000       0x54 ./objects/loramac.o
 .text.LoRaMacMulticastChannelSet
                0x00000000       0x84 ./objects/loramac.o
 .text          0x00000000        0x0 ./objects/loramaccrypto.o
 .text.ResetFCnts
                0x00000000       0x24 ./objects/loramaccrypto.o
 .text.LoRaMacCryptoPrepareReJoinType1
                0x00000000       0x60 ./objects/loramaccrypto.o
 .text.LoRaMacCryptoPrepareReJoinType0or2
                0x00000000       0x54 ./objects/loramaccrypto.o
 .text.LoRaMacCryptoDeriveMcKEKey
                0x00000000       0x70 ./objects/loramaccrypto.o
 .text.LoRaMacCryptoDeriveMcSessionKeyPair
                0x00000000       0xb8 ./objects/loramaccrypto.o
 .text          0x00000000        0x0 ./objects/loramacclassb.o
 .data          0x00000000        0x0 ./objects/loramacclassb.o
 .bss           0x00000000        0x0 ./objects/loramacclassb.o
 .text.LoRaMacClassBIsAcquisitionPending
                0x00000000        0x4 ./objects/loramacclassb.o
 .text.LoRaMacClassBStartRxSlots
                0x00000000        0x4 ./objects/loramacclassb.o
 .text.LoRaMacClassBSetMulticastPeriodicity
                0x00000000        0x4 ./objects/loramacclassb.o
 .text          0x00000000        0x0 ./objects/loramaccommands.o
 .data          0x00000000        0x0 ./objects/loramaccommands.o
 .text.isSlotFree
                0x00000000       0x68 ./objects/loramaccommands.o
 .text.mallocNewMacCommandSlot
                0x00000000       0x78 ./objects/loramaccommands.o
 .text.freeMacCommandSlot
                0x00000000       0x18 ./objects/loramaccommands.o
 .text.LoRaMacCommandsRemoveCmd
                0x00000000       0x80 ./objects/loramaccommands.o
 .text.LoRaMacCommandsGetCmd
                0x00000000       0x20 ./objects/loramaccommands.o
 .rodata        0x00000000        0x3 ./objects/loramaccommands.o
 .text          0x00000000        0x0 ./objects/loramacconfirmqueue.o
 .data          0x00000000        0x0 ./objects/loramacconfirmqueue.o
 .text.LoRaMacConfirmQueueRemoveLast
                0x00000000       0x28 ./objects/loramacconfirmqueue.o
 .text.LoRaMacConfirmQueueRemoveFirst
                0x00000000       0x2c ./objects/loramacconfirmqueue.o
 .text          0x00000000        0x0 ./objects/loramacfcnthandler.o
 .data          0x00000000        0x0 ./objects/loramacfcnthandler.o
 .text          0x00000000        0x0 ./objects/loramacparser.o
 .data          0x00000000        0x0 ./objects/loramacparser.o
 .bss           0x00000000        0x0 ./objects/loramacparser.o
 .text          0x00000000        0x0 ./objects/loramacserializer.o
 .data          0x00000000        0x0 ./objects/loramacserializer.o
 .bss           0x00000000        0x0 ./objects/loramacserializer.o
 .text.LoRaMacSerializerReJoinType1
                0x00000000       0x50 ./objects/loramacserializer.o
 .text.LoRaMacSerializerReJoinType0or2
                0x00000000       0x50 ./objects/loramacserializer.o
 .text          0x00000000        0x0 ./objects/loramacadr.o
 .data          0x00000000        0x0 ./objects/loramacadr.o
 .bss           0x00000000        0x0 ./objects/loramacadr.o
 .text          0x00000000        0x0 ./objects/region.o
 .data          0x00000000        0x0 ./objects/region.o
 .bss           0x00000000        0x0 ./objects/region.o
 .text.RegionChannelAdd
                0x00000000       0x14 ./objects/region.o
 .text.RegionChannelsRemove
                0x00000000       0x14 ./objects/region.o
 .text.RegionRxBeaconSetup
                0x00000000       0x14 ./objects/region.o
 .text          0x00000000        0x0 ./objects/regionas923.o
 .data          0x00000000        0x0 ./objects/regionas923.o
 .bss           0x00000000       0xd4 ./objects/regionas923.o
 .text.RegionAS923GetPhyParam
                0x00000000      0x150 ./objects/regionas923.o
 .rodata        0x00000000      0x14c ./objects/regionas923.o
 .text.RegionAS923SetBandTxDone
                0x00000000       0x24 ./objects/regionas923.o
 .text.RegionAS923InitDefaults
                0x00000000       0x88 ./objects/regionas923.o
 .text.RegionAS923GetNvmCtx
                0x00000000        0xc ./objects/regionas923.o
 .text.RegionAS923Verify
                0x00000000       0x7c ./objects/regionas923.o
 .text.RegionAS923ApplyCFList
                0x00000000      0x144 ./objects/regionas923.o
 .text.RegionAS923ChanMaskSet
                0x00000000       0x34 ./objects/regionas923.o
 .text.RegionAS923ComputeRxWindowParameters
                0x00000000       0x94 ./objects/regionas923.o
 .text.RegionAS923RxConfig
                0x00000000      0x10c ./objects/regionas923.o
 .text.RegionAS923TxConfig
                0x00000000      0x13c ./objects/regionas923.o
 .text.RegionAS923LinkAdrReq
                0x00000000      0x30c ./objects/regionas923.o
 .text.RegionAS923RxParamSetupReq
                0x00000000       0x64 ./objects/regionas923.o
 .text.RegionAS923NewChannelReq
                0x00000000      0x104 ./objects/regionas923.o
 .text.RegionAS923TxParamSetupReq
                0x00000000        0x4 ./objects/regionas923.o
 .text.RegionAS923DlChannelReq
                0x00000000       0x70 ./objects/regionas923.o
 .text.RegionAS923AlternateDr
                0x00000000        0x4 ./objects/regionas923.o
 .text.RegionAS923CalcBackOff
                0x00000000       0x34 ./objects/regionas923.o
 .text.RegionAS923NextChannel
                0x00000000      0x208 ./objects/regionas923.o
 .text.RegionAS923ChannelAdd
                0x00000000       0xd8 ./objects/regionas923.o
 .text.RegionAS923ChannelsRemove
                0x00000000       0x30 ./objects/regionas923.o
 .text.RegionAS923SetContinuousWave
                0x00000000       0x50 ./objects/regionas923.o
 .text.RegionAS923ApplyDrOffset
                0x00000000       0x28 ./objects/regionas923.o
 .text.RegionAS923RxBeaconSetup
                0x00000000       0x38 ./objects/regionas923.o
 .debug_info    0x00000000     0x347f ./objects/regionas923.o
 .debug_abbrev  0x00000000      0x52d ./objects/regionas923.o
 .debug_loc     0x00000000     0x1a8b ./objects/regionas923.o
 .debug_aranges
                0x00000000       0xd0 ./objects/regionas923.o
 .debug_ranges  0x00000000      0x2e8 ./objects/regionas923.o
 .debug_line    0x00000000      0x974 ./objects/regionas923.o
 .debug_str     0x00000000     0x220b ./objects/regionas923.o
 .comment       0x00000000       0x80 ./objects/regionas923.o
 .debug_frame   0x00000000      0x330 ./objects/regionas923.o
 .ARM.attributes
                0x00000000       0x32 ./objects/regionas923.o
 .text          0x00000000        0x0 ./objects/regionau915.o
 .data          0x00000000        0x0 ./objects/regionau915.o
 .bss           0x00000000      0x398 ./objects/regionau915.o
 .text.RegionAU915GetPhyParam
                0x00000000      0x17c ./objects/regionau915.o
 .rodata        0x00000000      0x1a7 ./objects/regionau915.o
 .text.RegionAU915SetBandTxDone
                0x00000000       0x24 ./objects/regionau915.o
 .text.RegionAU915InitDefaults
                0x00000000      0x16c ./objects/regionau915.o
 .text.RegionAU915GetNvmCtx
                0x00000000       0x10 ./objects/regionau915.o
 .text.RegionAU915Verify
                0x00000000       0x78 ./objects/regionau915.o
 .text.RegionAU915ApplyCFList
                0x00000000       0x94 ./objects/regionau915.o
 .text.RegionAU915ChanMaskSet
                0x00000000       0x7c ./objects/regionau915.o
 .text.RegionAU915ComputeRxWindowParameters
                0x00000000       0x80 ./objects/regionau915.o
 .text.RegionAU915RxConfig
                0x00000000       0xc4 ./objects/regionau915.o
 .text.RegionAU915TxConfig
                0x00000000       0xfc ./objects/regionau915.o
 .text.RegionAU915LinkAdrReq
                0x00000000      0x2dc ./objects/regionau915.o
 .text.RegionAU915RxParamSetupReq
                0x00000000       0x84 ./objects/regionau915.o
 .text.RegionAU915NewChannelReq
                0x00000000        0x4 ./objects/regionau915.o
 .text.RegionAU915TxParamSetupReq
                0x00000000        0x4 ./objects/regionau915.o
 .text.RegionAU915DlChannelReq
                0x00000000        0x4 ./objects/regionau915.o
 .text.RegionAU915AlternateDr
                0x00000000       0x28 ./objects/regionau915.o
 .text.RegionAU915CalcBackOff
                0x00000000       0x3c ./objects/regionau915.o
 .text.RegionAU915NextChannel
                0x00000000      0x190 ./objects/regionau915.o
 .text.RegionAU915ChannelAdd
                0x00000000        0x4 ./objects/regionau915.o
 .text.RegionAU915ChannelsRemove
                0x00000000        0x4 ./objects/regionau915.o
 .text.RegionAU915SetContinuousWave
                0x00000000       0x50 ./objects/regionau915.o
 .text.RegionAU915ApplyDrOffset
                0x00000000       0x24 ./objects/regionau915.o
 .text.RegionAU915RxBeaconSetup
                0x00000000       0x38 ./objects/regionau915.o
 .debug_info    0x00000000     0x3084 ./objects/regionau915.o
 .debug_abbrev  0x00000000      0x4d4 ./objects/regionau915.o
 .debug_loc     0x00000000     0x1475 ./objects/regionau915.o
 .debug_aranges
                0x00000000       0xc8 ./objects/regionau915.o
 .debug_ranges  0x00000000      0x270 ./objects/regionau915.o
 .debug_line    0x00000000      0x8fb ./objects/regionau915.o
 .debug_str     0x00000000     0x21e4 ./objects/regionau915.o
 .comment       0x00000000       0x80 ./objects/regionau915.o
 .debug_frame   0x00000000      0x2c4 ./objects/regionau915.o
 .ARM.attributes
                0x00000000       0x32 ./objects/regionau915.o
 .text          0x00000000        0x0 ./objects/regioncn470.o
 .data          0x00000000        0x0 ./objects/regioncn470.o
 .bss           0x00000000      0x4a8 ./objects/regioncn470.o
 .text.RegionCN470GetPhyParam
                0x00000000      0x118 ./objects/regioncn470.o
 .rodata        0x00000000       0xd2 ./objects/regioncn470.o
 .text.RegionCN470SetBandTxDone
                0x00000000       0x24 ./objects/regioncn470.o
 .text.RegionCN470InitDefaults
                0x00000000       0xb0 ./objects/regioncn470.o
 .text.RegionCN470GetNvmCtx
                0x00000000       0x10 ./objects/regioncn470.o
 .text.RegionCN470Verify
                0x00000000       0x3c ./objects/regioncn470.o
 .text.RegionCN470ApplyCFList
                0x00000000       0x80 ./objects/regioncn470.o
 .text.RegionCN470ChanMaskSet
                0x00000000       0x34 ./objects/regioncn470.o
 .text.RegionCN470ComputeRxWindowParameters
                0x00000000       0x80 ./objects/regioncn470.o
 .text.RegionCN470RxConfig
                0x00000000       0xc8 ./objects/regioncn470.o
 .text.RegionCN470TxConfig
                0x00000000       0xd0 ./objects/regioncn470.o
 .text.RegionCN470LinkAdrReq
                0x00000000      0x2b8 ./objects/regioncn470.o
 .text.RegionCN470RxParamSetupReq
                0x00000000       0x70 ./objects/regioncn470.o
 .text.RegionCN470NewChannelReq
                0x00000000        0x4 ./objects/regioncn470.o
 .text.RegionCN470TxParamSetupReq
                0x00000000        0x8 ./objects/regioncn470.o
 .text.RegionCN470DlChannelReq
                0x00000000        0x4 ./objects/regioncn470.o
 .text.RegionCN470AlternateDr
                0x00000000        0x4 ./objects/regioncn470.o
 .text.RegionCN470CalcBackOff
                0x00000000       0x3c ./objects/regioncn470.o
 .text.RegionCN470NextChannel
                0x00000000      0x160 ./objects/regioncn470.o
 .text.RegionCN470ChannelAdd
                0x00000000        0x4 ./objects/regioncn470.o
 .text.RegionCN470ChannelsRemove
                0x00000000        0x4 ./objects/regioncn470.o
 .text.RegionCN470SetContinuousWave
                0x00000000       0x50 ./objects/regioncn470.o
 .text.RegionCN470ApplyDrOffset
                0x00000000       0x10 ./objects/regioncn470.o
 .text.RegionCN470RxBeaconSetup
                0x00000000       0x38 ./objects/regioncn470.o
 .debug_info    0x00000000     0x2e82 ./objects/regioncn470.o
 .debug_abbrev  0x00000000      0x4c1 ./objects/regioncn470.o
 .debug_loc     0x00000000     0x12b6 ./objects/regioncn470.o
 .debug_aranges
                0x00000000       0xc8 ./objects/regioncn470.o
 .debug_ranges  0x00000000      0x200 ./objects/regioncn470.o
 .debug_line    0x00000000      0x7b4 ./objects/regioncn470.o
 .debug_str     0x00000000     0x2120 ./objects/regioncn470.o
 .comment       0x00000000       0x80 ./objects/regioncn470.o
 .debug_frame   0x00000000      0x2c0 ./objects/regioncn470.o
 .ARM.attributes
                0x00000000       0x32 ./objects/regioncn470.o
 .text          0x00000000        0x0 ./objects/regioncn779.o
 .data          0x00000000        0x0 ./objects/regioncn779.o
 .bss           0x00000000       0xd4 ./objects/regioncn779.o
 .text.RegionCN779GetPhyParam
                0x00000000      0x114 ./objects/regioncn779.o
 .rodata        0x00000000      0x134 ./objects/regioncn779.o
 .text.RegionCN779SetBandTxDone
                0x00000000       0x24 ./objects/regioncn779.o
 .text.RegionCN779InitDefaults
                0x00000000       0x94 ./objects/regioncn779.o
 .text.RegionCN779GetNvmCtx
                0x00000000        0xc ./objects/regioncn779.o
 .text.RegionCN779Verify
                0x00000000       0x48 ./objects/regioncn779.o
 .text.RegionCN779ApplyCFList
                0x00000000      0x144 ./objects/regioncn779.o
 .text.RegionCN779ChanMaskSet
                0x00000000       0x34 ./objects/regioncn779.o
 .text.RegionCN779ComputeRxWindowParameters
                0x00000000       0x94 ./objects/regioncn779.o
 .text.RegionCN779RxConfig
                0x00000000      0x10c ./objects/regioncn779.o
 .text.RegionCN779TxConfig
                0x00000000      0x13c ./objects/regioncn779.o
 .text.RegionCN779LinkAdrReq
                0x00000000      0x2fc ./objects/regioncn779.o
 .text.RegionCN779RxParamSetupReq
                0x00000000       0x64 ./objects/regioncn779.o
 .text.RegionCN779NewChannelReq
                0x00000000      0x108 ./objects/regioncn779.o
 .text.RegionCN779TxParamSetupReq
                0x00000000        0x8 ./objects/regioncn779.o
 .text.RegionCN779DlChannelReq
                0x00000000       0x70 ./objects/regioncn779.o
 .text.RegionCN779AlternateDr
                0x00000000        0x4 ./objects/regioncn779.o
 .text.RegionCN779CalcBackOff
                0x00000000       0x34 ./objects/regioncn779.o
 .text.RegionCN779NextChannel
                0x00000000      0x1bc ./objects/regioncn779.o
 .text.RegionCN779ChannelAdd
                0x00000000       0xd8 ./objects/regioncn779.o
 .text.RegionCN779ChannelsRemove
                0x00000000       0x30 ./objects/regioncn779.o
 .text.RegionCN779SetContinuousWave
                0x00000000       0x50 ./objects/regioncn779.o
 .text.RegionCN779ApplyDrOffset
                0x00000000       0x10 ./objects/regioncn779.o
 .text.RegionCN779RxBeaconSetup
                0x00000000       0x38 ./objects/regioncn779.o
 .debug_info    0x00000000     0x3381 ./objects/regioncn779.o
 .debug_abbrev  0x00000000      0x4ce ./objects/regioncn779.o
 .debug_loc     0x00000000     0x1905 ./objects/regioncn779.o
 .debug_aranges
                0x00000000       0xd0 ./objects/regioncn779.o
 .debug_ranges  0x00000000      0x2f8 ./objects/regioncn779.o
 .debug_line    0x00000000      0x92f ./objects/regioncn779.o
 .debug_str     0x00000000     0x2193 ./objects/regioncn779.o
 .comment       0x00000000       0x80 ./objects/regioncn779.o
 .debug_frame   0x00000000      0x330 ./objects/regioncn779.o
 .ARM.attributes
                0x00000000       0x32 ./objects/regioncn779.o
 .text          0x00000000        0x0 ./objects/regioncommon.o
 .data          0x00000000        0x0 ./objects/regioncommon.o
 .bss           0x00000000        0x0 ./objects/regioncommon.o
 .text.RegionCommonGetJoinDc
                0x00000000       0x30 ./objects/regioncommon.o
 .text.RegionCommonChanVerifyDr
                0x00000000       0x98 ./objects/regioncommon.o
 .text.RegionCommonRxBeaconSetup
                0x00000000       0x5c ./objects/regioncommon.o
 .text          0x00000000        0x0 ./objects/regioneu433.o
 .data          0x00000000        0x0 ./objects/regioneu433.o
 .bss           0x00000000       0xd4 ./objects/regioneu433.o
 .text.RegionEU433GetPhyParam
                0x00000000      0x108 ./objects/regioneu433.o
 .rodata        0x00000000      0x134 ./objects/regioneu433.o
 .text.RegionEU433SetBandTxDone
                0x00000000       0x24 ./objects/regioneu433.o
 .text.RegionEU433InitDefaults
                0x00000000       0x94 ./objects/regioneu433.o
 .text.RegionEU433GetNvmCtx
                0x00000000        0xc ./objects/regioneu433.o
 .text.RegionEU433Verify
                0x00000000       0x48 ./objects/regioneu433.o
 .text.RegionEU433ApplyCFList
                0x00000000      0x144 ./objects/regioneu433.o
 .text.RegionEU433ChanMaskSet
                0x00000000       0x34 ./objects/regioneu433.o
 .text.RegionEU433ComputeRxWindowParameters
                0x00000000       0x94 ./objects/regioneu433.o
 .text.RegionEU433RxConfig
                0x00000000      0x10c ./objects/regioneu433.o
 .text.RegionEU433TxConfig
                0x00000000      0x13c ./objects/regioneu433.o
 .text.RegionEU433LinkAdrReq
                0x00000000      0x2fc ./objects/regioneu433.o
 .text.RegionEU433RxParamSetupReq
                0x00000000       0x64 ./objects/regioneu433.o
 .text.RegionEU433NewChannelReq
                0x00000000      0x108 ./objects/regioneu433.o
 .text.RegionEU433TxParamSetupReq
                0x00000000        0x8 ./objects/regioneu433.o
 .text.RegionEU433DlChannelReq
                0x00000000       0x70 ./objects/regioneu433.o
 .text.RegionEU433AlternateDr
                0x00000000        0x4 ./objects/regioneu433.o
 .text.RegionEU433CalcBackOff
                0x00000000       0x34 ./objects/regioneu433.o
 .text.RegionEU433NextChannel
                0x00000000      0x1bc ./objects/regioneu433.o
 .text.RegionEU433ChannelAdd
                0x00000000       0xd8 ./objects/regioneu433.o
 .text.RegionEU433ChannelsRemove
                0x00000000       0x30 ./objects/regioneu433.o
 .text.RegionEU433SetContinuousWave
                0x00000000       0x50 ./objects/regioneu433.o
 .text.RegionEU433ApplyDrOffset
                0x00000000       0x10 ./objects/regioneu433.o
 .text.RegionEU433RxBeaconSetup
                0x00000000       0x38 ./objects/regioneu433.o
 .debug_info    0x00000000     0x3381 ./objects/regioneu433.o
 .debug_abbrev  0x00000000      0x4ce ./objects/regioneu433.o
 .debug_loc     0x00000000     0x1905 ./objects/regioneu433.o
 .debug_aranges
                0x00000000       0xd0 ./objects/regioneu433.o
 .debug_ranges  0x00000000      0x2f8 ./objects/regioneu433.o
 .debug_line    0x00000000      0x931 ./objects/regioneu433.o
 .debug_str     0x00000000     0x2193 ./objects/regioneu433.o
 .comment       0x00000000       0x80 ./objects/regioneu433.o
 .debug_frame   0x00000000      0x330 ./objects/regioneu433.o
 .ARM.attributes
                0x00000000       0x32 ./objects/regioneu433.o
 .text          0x00000000        0x0 ./objects/regioneu868.o
 .data          0x00000000        0x0 ./objects/regioneu868.o
 .text.RegionEU868ChannelAdd
                0x00000000      0x150 ./objects/regioneu868.o
 .text.RegionEU868ChannelsRemove
                0x00000000       0x30 ./objects/regioneu868.o
 .text.RegionEU868RxBeaconSetup
                0x00000000       0x38 ./objects/regioneu868.o
 .text          0x00000000        0x0 ./objects/regionin865.o
 .data          0x00000000        0x0 ./objects/regionin865.o
 .bss           0x00000000       0xd4 ./objects/regionin865.o
 .text.RegionIN865GetPhyParam
                0x00000000      0x11c ./objects/regionin865.o
 .rodata        0x00000000      0x13c ./objects/regionin865.o
 .text.RegionIN865SetBandTxDone
                0x00000000       0x24 ./objects/regionin865.o
 .text.RegionIN865InitDefaults
                0x00000000       0x94 ./objects/regionin865.o
 .text.RegionIN865GetNvmCtx
                0x00000000        0xc ./objects/regionin865.o
 .text.RegionIN865Verify
                0x00000000       0x64 ./objects/regionin865.o
 .text.RegionIN865ApplyCFList
                0x00000000      0x144 ./objects/regionin865.o
 .text.RegionIN865ChanMaskSet
                0x00000000       0x34 ./objects/regionin865.o
 .text.RegionIN865ComputeRxWindowParameters
                0x00000000       0x94 ./objects/regionin865.o
 .text.RegionIN865RxConfig
                0x00000000      0x10c ./objects/regionin865.o
 .text.RegionIN865TxConfig
                0x00000000      0x13c ./objects/regionin865.o
 .text.RegionIN865LinkAdrReq
                0x00000000      0x364 ./objects/regionin865.o
 .text.RegionIN865RxParamSetupReq
                0x00000000       0x64 ./objects/regionin865.o
 .text.RegionIN865NewChannelReq
                0x00000000      0x108 ./objects/regionin865.o
 .text.RegionIN865TxParamSetupReq
                0x00000000        0x8 ./objects/regionin865.o
 .text.RegionIN865DlChannelReq
                0x00000000       0x70 ./objects/regionin865.o
 .text.RegionIN865AlternateDr
                0x00000000        0x4 ./objects/regionin865.o
 .text.RegionIN865CalcBackOff
                0x00000000       0x34 ./objects/regionin865.o
 .text.RegionIN865NextChannel
                0x00000000      0x1bc ./objects/regionin865.o
 .text.RegionIN865ChannelAdd
                0x00000000       0xd8 ./objects/regionin865.o
 .text.RegionIN865ChannelsRemove
                0x00000000       0x30 ./objects/regionin865.o
 .text.RegionIN865SetContinuousWave
                0x00000000       0x50 ./objects/regionin865.o
 .text.RegionIN865ApplyDrOffset
                0x00000000       0x20 ./objects/regionin865.o
 .text.RegionIN865RxBeaconSetup
                0x00000000       0x38 ./objects/regionin865.o
 .debug_info    0x00000000     0x33ad ./objects/regionin865.o
 .debug_abbrev  0x00000000      0x4ce ./objects/regionin865.o
 .debug_loc     0x00000000     0x1979 ./objects/regionin865.o
 .debug_aranges
                0x00000000       0xd0 ./objects/regionin865.o
 .debug_ranges  0x00000000      0x318 ./objects/regionin865.o
 .debug_line    0x00000000      0x965 ./objects/regionin865.o
 .debug_str     0x00000000     0x21ad ./objects/regionin865.o
 .comment       0x00000000       0x80 ./objects/regionin865.o
 .debug_frame   0x00000000      0x330 ./objects/regionin865.o
 .ARM.attributes
                0x00000000       0x32 ./objects/regionin865.o
 .text          0x00000000        0x0 ./objects/regionkr920.o
 .data          0x00000000        0x0 ./objects/regionkr920.o
 .bss           0x00000000       0xd4 ./objects/regionkr920.o
 .text.RegionKR920GetPhyParam
                0x00000000      0x10c ./objects/regionkr920.o
 .rodata        0x00000000      0x100 ./objects/regionkr920.o
 .text.RegionKR920SetBandTxDone
                0x00000000       0x24 ./objects/regionkr920.o
 .text.RegionKR920InitDefaults
                0x00000000       0x94 ./objects/regionkr920.o
 .text.RegionKR920GetNvmCtx
                0x00000000        0xc ./objects/regionkr920.o
 .text.RegionKR920Verify
                0x00000000       0x3c ./objects/regionkr920.o
 .text.RegionKR920ApplyCFList
                0x00000000      0x140 ./objects/regionkr920.o
 .text.RegionKR920ChanMaskSet
                0x00000000       0x34 ./objects/regionkr920.o
 .text.RegionKR920ComputeRxWindowParameters
                0x00000000       0x80 ./objects/regionkr920.o
 .text.RegionKR920RxConfig
                0x00000000       0xb4 ./objects/regionkr920.o
 .text.RegionKR920TxConfig
                0x00000000      0x130 ./objects/regionkr920.o
 .text.RegionKR920LinkAdrReq
                0x00000000      0x2fc ./objects/regionkr920.o
 .text.RegionKR920RxParamSetupReq
                0x00000000       0x70 ./objects/regionkr920.o
 .text.RegionKR920NewChannelReq
                0x00000000      0x11c ./objects/regionkr920.o
 .text.RegionKR920TxParamSetupReq
                0x00000000        0x8 ./objects/regionkr920.o
 .text.RegionKR920DlChannelReq
                0x00000000       0x74 ./objects/regionkr920.o
 .text.RegionKR920AlternateDr
                0x00000000        0x4 ./objects/regionkr920.o
 .text.RegionKR920CalcBackOff
                0x00000000       0x34 ./objects/regionkr920.o
 .text.RegionKR920NextChannel
                0x00000000      0x208 ./objects/regionkr920.o
 .text.RegionKR920ChannelAdd
                0x00000000       0xe8 ./objects/regionkr920.o
 .text.RegionKR920ChannelsRemove
                0x00000000       0x30 ./objects/regionkr920.o
 .text.RegionKR920SetContinuousWave
                0x00000000       0x8c ./objects/regionkr920.o
 .text.RegionKR920ApplyDrOffset
                0x00000000       0x10 ./objects/regionkr920.o
 .text.RegionKR920RxBeaconSetup
                0x00000000       0x38 ./objects/regionkr920.o
 .debug_info    0x00000000     0x3490 ./objects/regionkr920.o
 .debug_abbrev  0x00000000      0x52a ./objects/regionkr920.o
 .debug_loc     0x00000000     0x1b8c ./objects/regionkr920.o
 .debug_aranges
                0x00000000       0xd0 ./objects/regionkr920.o
 .debug_ranges  0x00000000      0x3a0 ./objects/regionkr920.o
 .debug_line    0x00000000      0x987 ./objects/regionkr920.o
 .debug_str     0x00000000     0x2193 ./objects/regionkr920.o
 .comment       0x00000000       0x80 ./objects/regionkr920.o
 .debug_frame   0x00000000      0x338 ./objects/regionkr920.o
 .ARM.attributes
                0x00000000       0x32 ./objects/regionkr920.o
 .text          0x00000000        0x0 ./objects/regionus915.o
 .data          0x00000000        0x0 ./objects/regionus915.o
 .bss           0x00000000      0x398 ./objects/regionus915.o
 .text.RegionUS915GetPhyParam
                0x00000000      0x108 ./objects/regionus915.o
 .rodata        0x00000000      0x170 ./objects/regionus915.o
 .text.RegionUS915SetBandTxDone
                0x00000000       0x24 ./objects/regionus915.o
 .text.RegionUS915InitDefaults
                0x00000000      0x16c ./objects/regionus915.o
 .text.RegionUS915GetNvmCtx
                0x00000000       0x10 ./objects/regionus915.o
 .text.RegionUS915Verify
                0x00000000       0x6c ./objects/regionus915.o
 .text.RegionUS915ApplyCFList
                0x00000000       0x94 ./objects/regionus915.o
 .text.RegionUS915ChanMaskSet
                0x00000000       0x8c ./objects/regionus915.o
 .text.RegionUS915ComputeRxWindowParameters
                0x00000000       0x80 ./objects/regionus915.o
 .text.RegionUS915RxConfig
                0x00000000       0xc4 ./objects/regionus915.o
 .text.RegionUS915TxConfig
                0x00000000      0x12c ./objects/regionus915.o
 .text.RegionUS915LinkAdrReq
                0x00000000      0x2c8 ./objects/regionus915.o
 .text.RegionUS915RxParamSetupReq
                0x00000000       0x90 ./objects/regionus915.o
 .text.RegionUS915NewChannelReq
                0x00000000        0x4 ./objects/regionus915.o
 .text.RegionUS915TxParamSetupReq
                0x00000000        0x8 ./objects/regionus915.o
 .text.RegionUS915DlChannelReq
                0x00000000        0x4 ./objects/regionus915.o
 .text.RegionUS915AlternateDr
                0x00000000       0x34 ./objects/regionus915.o
 .text.RegionUS915CalcBackOff
                0x00000000       0x3c ./objects/regionus915.o
 .text.RegionUS915NextChannel
                0x00000000      0x314 ./objects/regionus915.o
 .text.RegionUS915ChannelAdd
                0x00000000        0x4 ./objects/regionus915.o
 .text.RegionUS915ChannelsRemove
                0x00000000        0x4 ./objects/regionus915.o
 .text.RegionUS915SetContinuousWave
                0x00000000       0x90 ./objects/regionus915.o
 .text.RegionUS915ApplyDrOffset
                0x00000000       0x1c ./objects/regionus915.o
 .text.RegionUS915RxBeaconSetup
                0x00000000       0x38 ./objects/regionus915.o
 .debug_info    0x00000000     0x3245 ./objects/regionus915.o
 .debug_abbrev  0x00000000      0x4d8 ./objects/regionus915.o
 .debug_loc     0x00000000     0x1d2b ./objects/regionus915.o
 .debug_aranges
                0x00000000       0xc8 ./objects/regionus915.o
 .debug_ranges  0x00000000      0x2e8 ./objects/regionus915.o
 .debug_line    0x00000000      0x950 ./objects/regionus915.o
 .debug_str     0x00000000     0x2277 ./objects/regionus915.o
 .comment       0x00000000       0x80 ./objects/regionus915.o
 .debug_frame   0x00000000      0x2d0 ./objects/regionus915.o
 .ARM.attributes
                0x00000000       0x32 ./objects/regionus915.o
 .text          0x00000000        0x0 ./objects/regionru864.o
 .data          0x00000000        0x0 ./objects/regionru864.o
 .bss           0x00000000       0x74 ./objects/regionru864.o
 .text.RegionRU864GetPhyParam
                0x00000000      0x104 ./objects/regionru864.o
 .rodata        0x00000000      0x11c ./objects/regionru864.o
 .text.RegionRU864SetBandTxDone
                0x00000000       0x24 ./objects/regionru864.o
 .text.RegionRU864InitDefaults
                0x00000000       0x80 ./objects/regionru864.o
 .text.RegionRU864GetNvmCtx
                0x00000000        0xc ./objects/regionru864.o
 .text.RegionRU864Verify
                0x00000000       0x48 ./objects/regionru864.o
 .text.RegionRU864ApplyCFList
                0x00000000      0x15c ./objects/regionru864.o
 .text.RegionRU864ChanMaskSet
                0x00000000       0x34 ./objects/regionru864.o
 .text.RegionRU864ComputeRxWindowParameters
                0x00000000       0x94 ./objects/regionru864.o
 .text.RegionRU864RxConfig
                0x00000000      0x10c ./objects/regionru864.o
 .text.RegionRU864TxConfig
                0x00000000      0x13c ./objects/regionru864.o
 .text.RegionRU864LinkAdrReq
                0x00000000      0x220 ./objects/regionru864.o
 .text.RegionRU864RxParamSetupReq
                0x00000000       0x64 ./objects/regionru864.o
 .text.RegionRU864NewChannelReq
                0x00000000      0x104 ./objects/regionru864.o
 .text.RegionRU864TxParamSetupReq
                0x00000000        0x8 ./objects/regionru864.o
 .text.RegionRU864DlChannelReq
                0x00000000       0x70 ./objects/regionru864.o
 .text.RegionRU864AlternateDr
                0x00000000        0x4 ./objects/regionru864.o
 .text.RegionRU864CalcBackOff
                0x00000000       0x34 ./objects/regionru864.o
 .text.RegionRU864NextChannel
                0x00000000      0x1a4 ./objects/regionru864.o
 .text.RegionRU864ChannelAdd
                0x00000000       0xd8 ./objects/regionru864.o
 .text.RegionRU864ChannelsRemove
                0x00000000       0x30 ./objects/regionru864.o
 .text.RegionRU864SetContinuousWave
                0x00000000       0x50 ./objects/regionru864.o
 .text.RegionRU864ApplyDrOffset
                0x00000000       0x10 ./objects/regionru864.o
 .text.RegionRU864RxBeaconSetup
                0x00000000       0x38 ./objects/regionru864.o
 .debug_info    0x00000000     0x337e ./objects/regionru864.o
 .debug_abbrev  0x00000000      0x4c7 ./objects/regionru864.o
 .debug_loc     0x00000000     0x1899 ./objects/regionru864.o
 .debug_aranges
                0x00000000       0xd0 ./objects/regionru864.o
 .debug_ranges  0x00000000      0x2d8 ./objects/regionru864.o
 .debug_line    0x00000000      0x8ec ./objects/regionru864.o
 .debug_str     0x00000000     0x2193 ./objects/regionru864.o
 .comment       0x00000000       0x80 ./objects/regionru864.o
 .debug_frame   0x00000000      0x32c ./objects/regionru864.o
 .ARM.attributes
                0x00000000       0x32 ./objects/regionru864.o
 .text          0x00000000        0x0 ./objects/low_power_manager.o
 .data          0x00000000        0x0 ./objects/low_power_manager.o
 .text.LPM_EnterSleepMode
                0x00000000        0x4 ./objects/low_power_manager.o
 .text.LPM_EnterStopMode
                0x00000000        0x4 ./objects/low_power_manager.o
 .text.LPM_ExitStopMode
                0x00000000        0x4 ./objects/low_power_manager.o
 .text          0x00000000        0x0 ./objects/timeserver.o
 .data          0x00000000        0x0 ./objects/timeserver.o
 .text.TimerSetContext
                0x00000000        0x4 ./objects/timeserver.o
 .text.TimerReset
                0x00000000      0x158 ./objects/timeserver.o
 .text.TimerTempCompensation
                0x00000000        0x8 ./objects/timeserver.o
 .text          0x00000000        0x0 ./objects/utilities.o
 .bss           0x00000000        0x0 ./objects/utilities.o
 .text.Nibble2HexChar
                0x00000000       0x18 ./objects/utilities.o
 .text          0x00000000        0x0 ./objects/queue.o
 .data          0x00000000        0x0 ./objects/queue.o
 .bss           0x00000000        0x0 ./objects/queue.o
 .text          0x00000000        0x0 ./objects/trace.o
 .text.TraceGetFileName
                0x00000000       0x24 ./objects/trace.o
 .text          0x00000000        0x0 ./objects/systime.o
 .data          0x00000000       0x1c ./objects/systime.o
 .bss           0x00000000        0x0 ./objects/systime.o
 .text.SysTime2Ms
                0x00000000       0x44 ./objects/systime.o
 .text.SysTimeMkTime
                0x00000000       0x88 ./objects/systime.o
 .text.SysTimeLocalTime
                0x00000000      0x2d0 ./objects/systime.o
 .rodata        0x00000000       0x10 ./objects/systime.o
 .rodata.str1.4
                0x00000000       0x1c ./objects/systime.o
 .text          0x00000000        0x0 ./objects/aes.o
 .data          0x00000000        0x0 ./objects/aes.o
 .bss           0x00000000        0x0 ./objects/aes.o
 .text.aes_cbc_encrypt
                0x00000000      0x110 ./objects/aes.o
 .text          0x00000000        0x0 ./objects/cmac.o
 .data          0x00000000        0x0 ./objects/cmac.o
 .bss           0x00000000        0x0 ./objects/cmac.o
 .text          0x00000000        0x0 ./objects/soft-se.o
 .data          0x00000000        0x0 ./objects/soft-se.o
 .text.GetKeyByID
                0x00000000       0x30 ./objects/soft-se.o
 .text.ComputeCmac
                0x00000000       0x80 ./objects/soft-se.o
 .text.SecureElementRandomNumber
                0x00000000       0x24 ./objects/soft-se.o
 .text          0x00000000        0x0 c:/program files (x86)/gnu tools arm embedded/7 2018-q2-update/bin/../lib/gcc/arm-none-eabi/7.3.1/../../../../arm-none-eabi/lib/thumb/v6-m\libm.a(lib_a-s_ceil.o)
 .data          0x00000000        0x0 c:/program files (x86)/gnu tools arm embedded/7 2018-q2-update/bin/../lib/gcc/arm-none-eabi/7.3.1/../../../../arm-none-eabi/lib/thumb/v6-m\libm.a(lib_a-s_ceil.o)
 .bss           0x00000000        0x0 c:/program files (x86)/gnu tools arm embedded/7 2018-q2-update/bin/../lib/gcc/arm-none-eabi/7.3.1/../../../../arm-none-eabi/lib/thumb/v6-m\libm.a(lib_a-s_ceil.o)
 .text          0x00000000        0x0 c:/program files (x86)/gnu tools arm embedded/7 2018-q2-update/bin/../lib/gcc/arm-none-eabi/7.3.1/../../../../arm-none-eabi/lib/thumb/v6-m\libm.a(lib_a-s_floor.o)
 .data          0x00000000        0x0 c:/program files (x86)/gnu tools arm embedded/7 2018-q2-update/bin/../lib/gcc/arm-none-eabi/7.3.1/../../../../arm-none-eabi/lib/thumb/v6-m\libm.a(lib_a-s_floor.o)
 .bss           0x00000000        0x0 c:/program files (x86)/gnu tools arm embedded/7 2018-q2-update/bin/../lib/gcc/arm-none-eabi/7.3.1/../../../../arm-none-eabi/lib/thumb/v6-m\libm.a(lib_a-s_floor.o)
 .text          0x00000000        0x0 c:/program files (x86)/gnu tools arm embedded/7 2018-q2-update/bin/../lib/gcc/arm-none-eabi/7.3.1/../../../../arm-none-eabi/lib/thumb/v6-m\libm.a(lib_a-s_round.o)
 .data          0x00000000        0x0 c:/program files (x86)/gnu tools arm embedded/7 2018-q2-update/bin/../lib/gcc/arm-none-eabi/7.3.1/../../../../arm-none-eabi/lib/thumb/v6-m\libm.a(lib_a-s_round.o)
 .bss           0x00000000        0x0 c:/program files (x86)/gnu tools arm embedded/7 2018-q2-update/bin/../lib/gcc/arm-none-eabi/7.3.1/../../../../arm-none-eabi/lib/thumb/v6-m\libm.a(lib_a-s_round.o)
 .data          0x00000000        0x0 c:/program files (x86)/gnu tools arm embedded/7 2018-q2-update/bin/../lib/gcc/arm-none-eabi/7.3.1/thumb/v6-m\libgcc.a(_udivsi3.o)
 .bss           0x00000000        0x0 c:/program files (x86)/gnu tools arm embedded/7 2018-q2-update/bin/../lib/gcc/arm-none-eabi/7.3.1/thumb/v6-m\libgcc.a(_udivsi3.o)
 .data          0x00000000        0x0 c:/program files (x86)/gnu tools arm embedded/7 2018-q2-update/bin/../lib/gcc/arm-none-eabi/7.3.1/thumb/v6-m\libgcc.a(_divsi3.o)
 .bss           0x00000000        0x0 c:/program files (x86)/gnu tools arm embedded/7 2018-q2-update/bin/../lib/gcc/arm-none-eabi/7.3.1/thumb/v6-m\libgcc.a(_divsi3.o)
 .data          0x00000000        0x0 c:/program files (x86)/gnu tools arm embedded/7 2018-q2-update/bin/../lib/gcc/arm-none-eabi/7.3.1/thumb/v6-m\libgcc.a(_dvmd_tls.o)
 .bss           0x00000000        0x0 c:/program files (x86)/gnu tools arm embedded/7 2018-q2-update/bin/../lib/gcc/arm-none-eabi/7.3.1/thumb/v6-m\libgcc.a(_dvmd_tls.o)
 .data          0x00000000        0x0 c:/program files (x86)/gnu tools arm embedded/7 2018-q2-update/bin/../lib/gcc/arm-none-eabi/7.3.1/thumb/v6-m\libgcc.a(_arm_cmpdf2.o)
 .bss           0x00000000        0x0 c:/program files (x86)/gnu tools arm embedded/7 2018-q2-update/bin/../lib/gcc/arm-none-eabi/7.3.1/thumb/v6-m\libgcc.a(_arm_cmpdf2.o)
 .data          0x00000000        0x0 c:/program files (x86)/gnu tools arm embedded/7 2018-q2-update/bin/../lib/gcc/arm-none-eabi/7.3.1/thumb/v6-m\libgcc.a(_arm_cmpsf2.o)
 .bss           0x00000000        0x0 c:/program files (x86)/gnu tools arm embedded/7 2018-q2-update/bin/../lib/gcc/arm-none-eabi/7.3.1/thumb/v6-m\libgcc.a(_arm_cmpsf2.o)
 .text          0x00000000       0x48 c:/program files (x86)/gnu tools arm embedded/7 2018-q2-update/bin/../lib/gcc/arm-none-eabi/7.3.1/thumb/v6-m\libgcc.a(_aeabi_ldivmod.o)
 .data          0x00000000        0x0 c:/program files (x86)/gnu tools arm embedded/7 2018-q2-update/bin/../lib/gcc/arm-none-eabi/7.3.1/thumb/v6-m\libgcc.a(_aeabi_ldivmod.o)
 .bss           0x00000000        0x0 c:/program files (x86)/gnu tools arm embedded/7 2018-q2-update/bin/../lib/gcc/arm-none-eabi/7.3.1/thumb/v6-m\libgcc.a(_aeabi_ldivmod.o)
 .ARM.attributes
                0x00000000       0x1e c:/program files (x86)/gnu tools arm embedded/7 2018-q2-update/bin/../lib/gcc/arm-none-eabi/7.3.1/thumb/v6-m\libgcc.a(_aeabi_ldivmod.o)
 .data          0x00000000        0x0 c:/program files (x86)/gnu tools arm embedded/7 2018-q2-update/bin/../lib/gcc/arm-none-eabi/7.3.1/thumb/v6-m\libgcc.a(_aeabi_uldivmod.o)
 .bss           0x00000000        0x0 c:/program files (x86)/gnu tools arm embedded/7 2018-q2-update/bin/../lib/gcc/arm-none-eabi/7.3.1/thumb/v6-m\libgcc.a(_aeabi_uldivmod.o)
 .data          0x00000000        0x0 c:/program files (x86)/gnu tools arm embedded/7 2018-q2-update/bin/../lib/gcc/arm-none-eabi/7.3.1/thumb/v6-m\libgcc.a(_fixunssfsi.o)
 .bss           0x00000000        0x0 c:/program files (x86)/gnu tools arm embedded/7 2018-q2-update/bin/../lib/gcc/arm-none-eabi/7.3.1/thumb/v6-m\libgcc.a(_fixunssfsi.o)
 .data          0x00000000        0x0 c:/program files (x86)/gnu tools arm embedded/7 2018-q2-update/bin/../lib/gcc/arm-none-eabi/7.3.1/thumb/v6-m\libgcc.a(_fixunsdfsi.o)
 .bss           0x00000000        0x0 c:/program files (x86)/gnu tools arm embedded/7 2018-q2-update/bin/../lib/gcc/arm-none-eabi/7.3.1/thumb/v6-m\libgcc.a(_fixunsdfsi.o)
 .data          0x00000000        0x0 c:/program files (x86)/gnu tools arm embedded/7 2018-q2-update/bin/../lib/gcc/arm-none-eabi/7.3.1/thumb/v6-m\libgcc.a(_udivmoddi4.o)
 .bss           0x00000000        0x0 c:/program files (x86)/gnu tools arm embedded/7 2018-q2-update/bin/../lib/gcc/arm-none-eabi/7.3.1/thumb/v6-m\libgcc.a(_udivmoddi4.o)
 .ARM.extab     0x00000000        0x0 c:/program files (x86)/gnu tools arm embedded/7 2018-q2-update/bin/../lib/gcc/arm-none-eabi/7.3.1/thumb/v6-m\libgcc.a(_udivmoddi4.o)
 .text          0x00000000       0x38 c:/program files (x86)/gnu tools arm embedded/7 2018-q2-update/bin/../lib/gcc/arm-none-eabi/7.3.1/thumb/v6-m\libgcc.a(bpabi.o)
 .data          0x00000000        0x0 c:/program files (x86)/gnu tools arm embedded/7 2018-q2-update/bin/../lib/gcc/arm-none-eabi/7.3.1/thumb/v6-m\libgcc.a(bpabi.o)
 .bss           0x00000000        0x0 c:/program files (x86)/gnu tools arm embedded/7 2018-q2-update/bin/../lib/gcc/arm-none-eabi/7.3.1/thumb/v6-m\libgcc.a(bpabi.o)
 .debug_frame   0x00000000       0x30 c:/program files (x86)/gnu tools arm embedded/7 2018-q2-update/bin/../lib/gcc/arm-none-eabi/7.3.1/thumb/v6-m\libgcc.a(bpabi.o)
 .ARM.attributes
                0x00000000       0x2c c:/program files (x86)/gnu tools arm embedded/7 2018-q2-update/bin/../lib/gcc/arm-none-eabi/7.3.1/thumb/v6-m\libgcc.a(bpabi.o)
 .text          0x00000000      0x334 c:/program files (x86)/gnu tools arm embedded/7 2018-q2-update/bin/../lib/gcc/arm-none-eabi/7.3.1/thumb/v6-m\libgcc.a(addsf3.o)
 .data          0x00000000        0x0 c:/program files (x86)/gnu tools arm embedded/7 2018-q2-update/bin/../lib/gcc/arm-none-eabi/7.3.1/thumb/v6-m\libgcc.a(addsf3.o)
 .bss           0x00000000        0x0 c:/program files (x86)/gnu tools arm embedded/7 2018-q2-update/bin/../lib/gcc/arm-none-eabi/7.3.1/thumb/v6-m\libgcc.a(addsf3.o)
 .debug_frame   0x00000000       0x38 c:/program files (x86)/gnu tools arm embedded/7 2018-q2-update/bin/../lib/gcc/arm-none-eabi/7.3.1/thumb/v6-m\libgcc.a(addsf3.o)
 .ARM.attributes
                0x00000000       0x2c c:/program files (x86)/gnu tools arm embedded/7 2018-q2-update/bin/../lib/gcc/arm-none-eabi/7.3.1/thumb/v6-m\libgcc.a(addsf3.o)
 .data          0x00000000        0x0 c:/program files (x86)/gnu tools arm embedded/7 2018-q2-update/bin/../lib/gcc/arm-none-eabi/7.3.1/thumb/v6-m\libgcc.a(divsf3.o)
 .bss           0x00000000        0x0 c:/program files (x86)/gnu tools arm embedded/7 2018-q2-update/bin/../lib/gcc/arm-none-eabi/7.3.1/thumb/v6-m\libgcc.a(divsf3.o)
 .data          0x00000000        0x0 c:/program files (x86)/gnu tools arm embedded/7 2018-q2-update/bin/../lib/gcc/arm-none-eabi/7.3.1/thumb/v6-m\libgcc.a(eqsf2.o)
 .bss           0x00000000        0x0 c:/program files (x86)/gnu tools arm embedded/7 2018-q2-update/bin/../lib/gcc/arm-none-eabi/7.3.1/thumb/v6-m\libgcc.a(eqsf2.o)
 .data          0x00000000        0x0 c:/program files (x86)/gnu tools arm embedded/7 2018-q2-update/bin/../lib/gcc/arm-none-eabi/7.3.1/thumb/v6-m\libgcc.a(gesf2.o)
 .bss           0x00000000        0x0 c:/program files (x86)/gnu tools arm embedded/7 2018-q2-update/bin/../lib/gcc/arm-none-eabi/7.3.1/thumb/v6-m\libgcc.a(gesf2.o)
 .data          0x00000000        0x0 c:/program files (x86)/gnu tools arm embedded/7 2018-q2-update/bin/../lib/gcc/arm-none-eabi/7.3.1/thumb/v6-m\libgcc.a(lesf2.o)
 .bss           0x00000000        0x0 c:/program files (x86)/gnu tools arm embedded/7 2018-q2-update/bin/../lib/gcc/arm-none-eabi/7.3.1/thumb/v6-m\libgcc.a(lesf2.o)
 .data          0x00000000        0x0 c:/program files (x86)/gnu tools arm embedded/7 2018-q2-update/bin/../lib/gcc/arm-none-eabi/7.3.1/thumb/v6-m\libgcc.a(mulsf3.o)
 .bss           0x00000000        0x0 c:/program files (x86)/gnu tools arm embedded/7 2018-q2-update/bin/../lib/gcc/arm-none-eabi/7.3.1/thumb/v6-m\libgcc.a(mulsf3.o)
 .data          0x00000000        0x0 c:/program files (x86)/gnu tools arm embedded/7 2018-q2-update/bin/../lib/gcc/arm-none-eabi/7.3.1/thumb/v6-m\libgcc.a(subsf3.o)
 .bss           0x00000000        0x0 c:/program files (x86)/gnu tools arm embedded/7 2018-q2-update/bin/../lib/gcc/arm-none-eabi/7.3.1/thumb/v6-m\libgcc.a(subsf3.o)
 .data          0x00000000        0x0 c:/program files (x86)/gnu tools arm embedded/7 2018-q2-update/bin/../lib/gcc/arm-none-eabi/7.3.1/thumb/v6-m\libgcc.a(fixsfsi.o)
 .bss           0x00000000        0x0 c:/program files (x86)/gnu tools arm embedded/7 2018-q2-update/bin/../lib/gcc/arm-none-eabi/7.3.1/thumb/v6-m\libgcc.a(fixsfsi.o)
 .data          0x00000000        0x0 c:/program files (x86)/gnu tools arm embedded/7 2018-q2-update/bin/../lib/gcc/arm-none-eabi/7.3.1/thumb/v6-m\libgcc.a(floatunsisf.o)
 .bss           0x00000000        0x0 c:/program files (x86)/gnu tools arm embedded/7 2018-q2-update/bin/../lib/gcc/arm-none-eabi/7.3.1/thumb/v6-m\libgcc.a(floatunsisf.o)
 .data          0x00000000        0x0 c:/program files (x86)/gnu tools arm embedded/7 2018-q2-update/bin/../lib/gcc/arm-none-eabi/7.3.1/thumb/v6-m\libgcc.a(adddf3.o)
 .bss           0x00000000        0x0 c:/program files (x86)/gnu tools arm embedded/7 2018-q2-update/bin/../lib/gcc/arm-none-eabi/7.3.1/thumb/v6-m\libgcc.a(adddf3.o)
 .data          0x00000000        0x0 c:/program files (x86)/gnu tools arm embedded/7 2018-q2-update/bin/../lib/gcc/arm-none-eabi/7.3.1/thumb/v6-m\libgcc.a(divdf3.o)
 .bss           0x00000000        0x0 c:/program files (x86)/gnu tools arm embedded/7 2018-q2-update/bin/../lib/gcc/arm-none-eabi/7.3.1/thumb/v6-m\libgcc.a(divdf3.o)
 .data          0x00000000        0x0 c:/program files (x86)/gnu tools arm embedded/7 2018-q2-update/bin/../lib/gcc/arm-none-eabi/7.3.1/thumb/v6-m\libgcc.a(eqdf2.o)
 .bss           0x00000000        0x0 c:/program files (x86)/gnu tools arm embedded/7 2018-q2-update/bin/../lib/gcc/arm-none-eabi/7.3.1/thumb/v6-m\libgcc.a(eqdf2.o)
 .data          0x00000000        0x0 c:/program files (x86)/gnu tools arm embedded/7 2018-q2-update/bin/../lib/gcc/arm-none-eabi/7.3.1/thumb/v6-m\libgcc.a(gedf2.o)
 .bss           0x00000000        0x0 c:/program files (x86)/gnu tools arm embedded/7 2018-q2-update/bin/../lib/gcc/arm-none-eabi/7.3.1/thumb/v6-m\libgcc.a(gedf2.o)
 .data          0x00000000        0x0 c:/program files (x86)/gnu tools arm embedded/7 2018-q2-update/bin/../lib/gcc/arm-none-eabi/7.3.1/thumb/v6-m\libgcc.a(ledf2.o)
 .bss           0x00000000        0x0 c:/program files (x86)/gnu tools arm embedded/7 2018-q2-update/bin/../lib/gcc/arm-none-eabi/7.3.1/thumb/v6-m\libgcc.a(ledf2.o)
 .data          0x00000000        0x0 c:/program files (x86)/gnu tools arm embedded/7 2018-q2-update/bin/../lib/gcc/arm-none-eabi/7.3.1/thumb/v6-m\libgcc.a(muldf3.o)
 .bss           0x00000000        0x0 c:/program files (x86)/gnu tools arm embedded/7 2018-q2-update/bin/../lib/gcc/arm-none-eabi/7.3.1/thumb/v6-m\libgcc.a(muldf3.o)
 .data          0x00000000        0x0 c:/program files (x86)/gnu tools arm embedded/7 2018-q2-update/bin/../lib/gcc/arm-none-eabi/7.3.1/thumb/v6-m\libgcc.a(subdf3.o)
 .bss           0x00000000        0x0 c:/program files (x86)/gnu tools arm embedded/7 2018-q2-update/bin/../lib/gcc/arm-none-eabi/7.3.1/thumb/v6-m\libgcc.a(subdf3.o)
 .data          0x00000000        0x0 c:/program files (x86)/gnu tools arm embedded/7 2018-q2-update/bin/../lib/gcc/arm-none-eabi/7.3.1/thumb/v6-m\libgcc.a(fixdfsi.o)
 .bss           0x00000000        0x0 c:/program files (x86)/gnu tools arm embedded/7 2018-q2-update/bin/../lib/gcc/arm-none-eabi/7.3.1/thumb/v6-m\libgcc.a(fixdfsi.o)
 .data          0x00000000        0x0 c:/program files (x86)/gnu tools arm embedded/7 2018-q2-update/bin/../lib/gcc/arm-none-eabi/7.3.1/thumb/v6-m\libgcc.a(floatsidf.o)
 .bss           0x00000000        0x0 c:/program files (x86)/gnu tools arm embedded/7 2018-q2-update/bin/../lib/gcc/arm-none-eabi/7.3.1/thumb/v6-m\libgcc.a(floatsidf.o)
 .data          0x00000000        0x0 c:/program files (x86)/gnu tools arm embedded/7 2018-q2-update/bin/../lib/gcc/arm-none-eabi/7.3.1/thumb/v6-m\libgcc.a(floatunsidf.o)
 .bss           0x00000000        0x0 c:/program files (x86)/gnu tools arm embedded/7 2018-q2-update/bin/../lib/gcc/arm-none-eabi/7.3.1/thumb/v6-m\libgcc.a(floatunsidf.o)
 .data          0x00000000        0x0 c:/program files (x86)/gnu tools arm embedded/7 2018-q2-update/bin/../lib/gcc/arm-none-eabi/7.3.1/thumb/v6-m\libgcc.a(extendsfdf2.o)
 .bss           0x00000000        0x0 c:/program files (x86)/gnu tools arm embedded/7 2018-q2-update/bin/../lib/gcc/arm-none-eabi/7.3.1/thumb/v6-m\libgcc.a(extendsfdf2.o)
 .text          0x00000000      0x108 c:/program files (x86)/gnu tools arm embedded/7 2018-q2-update/bin/../lib/gcc/arm-none-eabi/7.3.1/thumb/v6-m\libgcc.a(truncdfsf2.o)
 .data          0x00000000        0x0 c:/program files (x86)/gnu tools arm embedded/7 2018-q2-update/bin/../lib/gcc/arm-none-eabi/7.3.1/thumb/v6-m\libgcc.a(truncdfsf2.o)
 .bss           0x00000000        0x0 c:/program files (x86)/gnu tools arm embedded/7 2018-q2-update/bin/../lib/gcc/arm-none-eabi/7.3.1/thumb/v6-m\libgcc.a(truncdfsf2.o)
 .debug_frame   0x00000000       0x30 c:/program files (x86)/gnu tools arm embedded/7 2018-q2-update/bin/../lib/gcc/arm-none-eabi/7.3.1/thumb/v6-m\libgcc.a(truncdfsf2.o)
 .ARM.attributes
                0x00000000       0x2c c:/program files (x86)/gnu tools arm embedded/7 2018-q2-update/bin/../lib/gcc/arm-none-eabi/7.3.1/thumb/v6-m\libgcc.a(truncdfsf2.o)
 .data          0x00000000        0x0 c:/program files (x86)/gnu tools arm embedded/7 2018-q2-update/bin/../lib/gcc/arm-none-eabi/7.3.1/thumb/v6-m\libgcc.a(_clzsi2.o)
 .bss           0x00000000        0x0 c:/program files (x86)/gnu tools arm embedded/7 2018-q2-update/bin/../lib/gcc/arm-none-eabi/7.3.1/thumb/v6-m\libgcc.a(_clzsi2.o)
 .data          0x00000000        0x0 c:/program files (x86)/gnu tools arm embedded/7 2018-q2-update/bin/../lib/gcc/arm-none-eabi/7.3.1/thumb/v6-m\libgcc.a(_clzdi2.o)
 .bss           0x00000000        0x0 c:/program files (x86)/gnu tools arm embedded/7 2018-q2-update/bin/../lib/gcc/arm-none-eabi/7.3.1/thumb/v6-m\libgcc.a(_clzdi2.o)
 .text          0x00000000       0x54 c:/program files (x86)/gnu tools arm embedded/7 2018-q2-update/bin/../lib/gcc/arm-none-eabi/7.3.1/thumb/v6-m\libgcc.a(_muldi3.o)
 .data          0x00000000        0x0 c:/program files (x86)/gnu tools arm embedded/7 2018-q2-update/bin/../lib/gcc/arm-none-eabi/7.3.1/thumb/v6-m\libgcc.a(_muldi3.o)
 .bss           0x00000000        0x0 c:/program files (x86)/gnu tools arm embedded/7 2018-q2-update/bin/../lib/gcc/arm-none-eabi/7.3.1/thumb/v6-m\libgcc.a(_muldi3.o)
 .debug_frame   0x00000000       0x34 c:/program files (x86)/gnu tools arm embedded/7 2018-q2-update/bin/../lib/gcc/arm-none-eabi/7.3.1/thumb/v6-m\libgcc.a(_muldi3.o)
 .ARM.attributes
                0x00000000       0x2c c:/program files (x86)/gnu tools arm embedded/7 2018-q2-update/bin/../lib/gcc/arm-none-eabi/7.3.1/thumb/v6-m\libgcc.a(_muldi3.o)
 .text          0x00000000      0x1b0 c:/program files (x86)/gnu tools arm embedded/7 2018-q2-update/bin/../lib/gcc/arm-none-eabi/7.3.1/thumb/v6-m\libgcc.a(_divdi3.o)
 .data          0x00000000        0x0 c:/program files (x86)/gnu tools arm embedded/7 2018-q2-update/bin/../lib/gcc/arm-none-eabi/7.3.1/thumb/v6-m\libgcc.a(_divdi3.o)
 .bss           0x00000000        0x0 c:/program files (x86)/gnu tools arm embedded/7 2018-q2-update/bin/../lib/gcc/arm-none-eabi/7.3.1/thumb/v6-m\libgcc.a(_divdi3.o)
 .ARM.extab     0x00000000        0x0 c:/program files (x86)/gnu tools arm embedded/7 2018-q2-update/bin/../lib/gcc/arm-none-eabi/7.3.1/thumb/v6-m\libgcc.a(_divdi3.o)
 .ARM.exidx     0x00000000        0x8 c:/program files (x86)/gnu tools arm embedded/7 2018-q2-update/bin/../lib/gcc/arm-none-eabi/7.3.1/thumb/v6-m\libgcc.a(_divdi3.o)
 .debug_frame   0x00000000       0x3c c:/program files (x86)/gnu tools arm embedded/7 2018-q2-update/bin/../lib/gcc/arm-none-eabi/7.3.1/thumb/v6-m\libgcc.a(_divdi3.o)
 .ARM.attributes
                0x00000000       0x2c c:/program files (x86)/gnu tools arm embedded/7 2018-q2-update/bin/../lib/gcc/arm-none-eabi/7.3.1/thumb/v6-m\libgcc.a(_divdi3.o)
 .text          0x00000000        0x0 c:/program files (x86)/gnu tools arm embedded/7 2018-q2-update/bin/../lib/gcc/arm-none-eabi/7.3.1/../../../../arm-none-eabi/lib/thumb/v6-m\libc_nano.a(lib_a-exit.o)
 .data          0x00000000        0x0 c:/program files (x86)/gnu tools arm embedded/7 2018-q2-update/bin/../lib/gcc/arm-none-eabi/7.3.1/../../../../arm-none-eabi/lib/thumb/v6-m\libc_nano.a(lib_a-exit.o)
 .bss           0x00000000        0x0 c:/program files (x86)/gnu tools arm embedded/7 2018-q2-update/bin/../lib/gcc/arm-none-eabi/7.3.1/../../../../arm-none-eabi/lib/thumb/v6-m\libc_nano.a(lib_a-exit.o)
 .text.exit     0x00000000       0x2c c:/program files (x86)/gnu tools arm embedded/7 2018-q2-update/bin/../lib/gcc/arm-none-eabi/7.3.1/../../../../arm-none-eabi/lib/thumb/v6-m\libc_nano.a(lib_a-exit.o)
 .debug_frame   0x00000000       0x28 c:/program files (x86)/gnu tools arm embedded/7 2018-q2-update/bin/../lib/gcc/arm-none-eabi/7.3.1/../../../../arm-none-eabi/lib/thumb/v6-m\libc_nano.a(lib_a-exit.o)
 .ARM.attributes
                0x00000000       0x2c c:/program files (x86)/gnu tools arm embedded/7 2018-q2-update/bin/../lib/gcc/arm-none-eabi/7.3.1/../../../../arm-none-eabi/lib/thumb/v6-m\libc_nano.a(lib_a-exit.o)
 .text          0x00000000        0x0 c:/program files (x86)/gnu tools arm embedded/7 2018-q2-update/bin/../lib/gcc/arm-none-eabi/7.3.1/../../../../arm-none-eabi/lib/thumb/v6-m\libc_nano.a(lib_a-impure.o)
 .data          0x00000000        0x0 c:/program files (x86)/gnu tools arm embedded/7 2018-q2-update/bin/../lib/gcc/arm-none-eabi/7.3.1/../../../../arm-none-eabi/lib/thumb/v6-m\libc_nano.a(lib_a-impure.o)
 .bss           0x00000000        0x0 c:/program files (x86)/gnu tools arm embedded/7 2018-q2-update/bin/../lib/gcc/arm-none-eabi/7.3.1/../../../../arm-none-eabi/lib/thumb/v6-m\libc_nano.a(lib_a-impure.o)
 .rodata._global_impure_ptr
                0x00000000        0x4 c:/program files (x86)/gnu tools arm embedded/7 2018-q2-update/bin/../lib/gcc/arm-none-eabi/7.3.1/../../../../arm-none-eabi/lib/thumb/v6-m\libc_nano.a(lib_a-impure.o)
 .text          0x00000000        0x0 c:/program files (x86)/gnu tools arm embedded/7 2018-q2-update/bin/../lib/gcc/arm-none-eabi/7.3.1/../../../../arm-none-eabi/lib/thumb/v6-m\libc_nano.a(lib_a-init.o)
 .data          0x00000000        0x0 c:/program files (x86)/gnu tools arm embedded/7 2018-q2-update/bin/../lib/gcc/arm-none-eabi/7.3.1/../../../../arm-none-eabi/lib/thumb/v6-m\libc_nano.a(lib_a-init.o)
 .bss           0x00000000        0x0 c:/program files (x86)/gnu tools arm embedded/7 2018-q2-update/bin/../lib/gcc/arm-none-eabi/7.3.1/../../../../arm-none-eabi/lib/thumb/v6-m\libc_nano.a(lib_a-init.o)
 .text          0x00000000        0x0 c:/program files (x86)/gnu tools arm embedded/7 2018-q2-update/bin/../lib/gcc/arm-none-eabi/7.3.1/../../../../arm-none-eabi/lib/thumb/v6-m\libc_nano.a(lib_a-memset.o)
 .data          0x00000000        0x0 c:/program files (x86)/gnu tools arm embedded/7 2018-q2-update/bin/../lib/gcc/arm-none-eabi/7.3.1/../../../../arm-none-eabi/lib/thumb/v6-m\libc_nano.a(lib_a-memset.o)
 .bss           0x00000000        0x0 c:/program files (x86)/gnu tools arm embedded/7 2018-q2-update/bin/../lib/gcc/arm-none-eabi/7.3.1/../../../../arm-none-eabi/lib/thumb/v6-m\libc_nano.a(lib_a-memset.o)
 .text          0x00000000        0x0 c:/program files (x86)/gnu tools arm embedded/7 2018-q2-update/bin/../lib/gcc/arm-none-eabi/7.3.1/../../../../arm-none-eabi/lib/thumb/v6-m\libc_nano.a(lib_a-strrchr.o)
 .data          0x00000000        0x0 c:/program files (x86)/gnu tools arm embedded/7 2018-q2-update/bin/../lib/gcc/arm-none-eabi/7.3.1/../../../../arm-none-eabi/lib/thumb/v6-m\libc_nano.a(lib_a-strrchr.o)
 .bss           0x00000000        0x0 c:/program files (x86)/gnu tools arm embedded/7 2018-q2-update/bin/../lib/gcc/arm-none-eabi/7.3.1/../../../../arm-none-eabi/lib/thumb/v6-m\libc_nano.a(lib_a-strrchr.o)
 .text.strrchr  0x00000000       0x26 c:/program files (x86)/gnu tools arm embedded/7 2018-q2-update/bin/../lib/gcc/arm-none-eabi/7.3.1/../../../../arm-none-eabi/lib/thumb/v6-m\libc_nano.a(lib_a-strrchr.o)
 .debug_frame   0x00000000       0x2c c:/program files (x86)/gnu tools arm embedded/7 2018-q2-update/bin/../lib/gcc/arm-none-eabi/7.3.1/../../../../arm-none-eabi/lib/thumb/v6-m\libc_nano.a(lib_a-strrchr.o)
 .ARM.attributes
                0x00000000       0x2c c:/program files (x86)/gnu tools arm embedded/7 2018-q2-update/bin/../lib/gcc/arm-none-eabi/7.3.1/../../../../arm-none-eabi/lib/thumb/v6-m\libc_nano.a(lib_a-strrchr.o)
 .text          0x00000000        0x0 c:/program files (x86)/gnu tools arm embedded/7 2018-q2-update/bin/../lib/gcc/arm-none-eabi/7.3.1/../../../../arm-none-eabi/lib/thumb/v6-m\libc_nano.a(lib_a-vsnprintf.o)
 .data          0x00000000        0x0 c:/program files (x86)/gnu tools arm embedded/7 2018-q2-update/bin/../lib/gcc/arm-none-eabi/7.3.1/../../../../arm-none-eabi/lib/thumb/v6-m\libc_nano.a(lib_a-vsnprintf.o)
 .bss           0x00000000        0x0 c:/program files (x86)/gnu tools arm embedded/7 2018-q2-update/bin/../lib/gcc/arm-none-eabi/7.3.1/../../../../arm-none-eabi/lib/thumb/v6-m\libc_nano.a(lib_a-vsnprintf.o)
 .text          0x00000000        0x0 c:/program files (x86)/gnu tools arm embedded/7 2018-q2-update/bin/../lib/gcc/arm-none-eabi/7.3.1/../../../../arm-none-eabi/lib/thumb/v6-m\libc_nano.a(lib_a-nano-svfprintf.o)
 .data          0x00000000        0x0 c:/program files (x86)/gnu tools arm embedded/7 2018-q2-update/bin/../lib/gcc/arm-none-eabi/7.3.1/../../../../arm-none-eabi/lib/thumb/v6-m\libc_nano.a(lib_a-nano-svfprintf.o)
 .bss           0x00000000        0x0 c:/program files (x86)/gnu tools arm embedded/7 2018-q2-update/bin/../lib/gcc/arm-none-eabi/7.3.1/../../../../arm-none-eabi/lib/thumb/v6-m\libc_nano.a(lib_a-nano-svfprintf.o)
 .text.__ssprint_r
                0x00000000       0xfc c:/program files (x86)/gnu tools arm embedded/7 2018-q2-update/bin/../lib/gcc/arm-none-eabi/7.3.1/../../../../arm-none-eabi/lib/thumb/v6-m\libc_nano.a(lib_a-nano-svfprintf.o)
 .text          0x00000000        0x0 c:/program files (x86)/gnu tools arm embedded/7 2018-q2-update/bin/../lib/gcc/arm-none-eabi/7.3.1/../../../../arm-none-eabi/lib/thumb/v6-m\libc_nano.a(lib_a-nano-vfprintf_i.o)
 .data          0x00000000        0x0 c:/program files (x86)/gnu tools arm embedded/7 2018-q2-update/bin/../lib/gcc/arm-none-eabi/7.3.1/../../../../arm-none-eabi/lib/thumb/v6-m\libc_nano.a(lib_a-nano-vfprintf_i.o)
 .bss           0x00000000        0x0 c:/program files (x86)/gnu tools arm embedded/7 2018-q2-update/bin/../lib/gcc/arm-none-eabi/7.3.1/../../../../arm-none-eabi/lib/thumb/v6-m\libc_nano.a(lib_a-nano-vfprintf_i.o)
 .text          0x00000000        0x0 c:/program files (x86)/gnu tools arm embedded/7 2018-q2-update/bin/../lib/gcc/arm-none-eabi/7.3.1/../../../../arm-none-eabi/lib/thumb/v6-m\libc_nano.a(lib_a-strchr.o)
 .data          0x00000000        0x0 c:/program files (x86)/gnu tools arm embedded/7 2018-q2-update/bin/../lib/gcc/arm-none-eabi/7.3.1/../../../../arm-none-eabi/lib/thumb/v6-m\libc_nano.a(lib_a-strchr.o)
 .bss           0x00000000        0x0 c:/program files (x86)/gnu tools arm embedded/7 2018-q2-update/bin/../lib/gcc/arm-none-eabi/7.3.1/../../../../arm-none-eabi/lib/thumb/v6-m\libc_nano.a(lib_a-strchr.o)
 .text.strchr   0x00000000       0x1c c:/program files (x86)/gnu tools arm embedded/7 2018-q2-update/bin/../lib/gcc/arm-none-eabi/7.3.1/../../../../arm-none-eabi/lib/thumb/v6-m\libc_nano.a(lib_a-strchr.o)
 .debug_frame   0x00000000       0x20 c:/program files (x86)/gnu tools arm embedded/7 2018-q2-update/bin/../lib/gcc/arm-none-eabi/7.3.1/../../../../arm-none-eabi/lib/thumb/v6-m\libc_nano.a(lib_a-strchr.o)
 .ARM.attributes
                0x00000000       0x2c c:/program files (x86)/gnu tools arm embedded/7 2018-q2-update/bin/../lib/gcc/arm-none-eabi/7.3.1/../../../../arm-none-eabi/lib/thumb/v6-m\libc_nano.a(lib_a-strchr.o)
 .text          0x00000000        0x0 c:/program files (x86)/gnu tools arm embedded/7 2018-q2-update/bin/../lib/gcc/arm-none-eabi/7.3.1/../../../../arm-none-eabi/lib/thumb/v6-m\libc_nano.a(lib_a-memchr-stub.o)
 .data          0x00000000        0x0 c:/program files (x86)/gnu tools arm embedded/7 2018-q2-update/bin/../lib/gcc/arm-none-eabi/7.3.1/../../../../arm-none-eabi/lib/thumb/v6-m\libc_nano.a(lib_a-memchr-stub.o)
 .bss           0x00000000        0x0 c:/program files (x86)/gnu tools arm embedded/7 2018-q2-update/bin/../lib/gcc/arm-none-eabi/7.3.1/../../../../arm-none-eabi/lib/thumb/v6-m\libc_nano.a(lib_a-memchr-stub.o)
 .text          0x00000000        0x0 c:/program files (x86)/gnu tools arm embedded/7 2018-q2-update/bin/../lib/gcc/arm-none-eabi/7.3.1/../../../../arm-none-eabi/lib/thumb/v6-m\libc_nano.a(lib_a-memcpy-stub.o)
 .data          0x00000000        0x0 c:/program files (x86)/gnu tools arm embedded/7 2018-q2-update/bin/../lib/gcc/arm-none-eabi/7.3.1/../../../../arm-none-eabi/lib/thumb/v6-m\libc_nano.a(lib_a-memcpy-stub.o)
 .bss           0x00000000        0x0 c:/program files (x86)/gnu tools arm embedded/7 2018-q2-update/bin/../lib/gcc/arm-none-eabi/7.3.1/../../../../arm-none-eabi/lib/thumb/v6-m\libc_nano.a(lib_a-memcpy-stub.o)
 .text          0x00000000        0x0 c:/program files (x86)/gnu tools arm embedded/7 2018-q2-update/bin/../lib/gcc/arm-none-eabi/7.3.1/../../../../arm-none-eabi/lib/thumb/v6-m\libc_nano.a(lib_a-memmove.o)
 .data          0x00000000        0x0 c:/program files (x86)/gnu tools arm embedded/7 2018-q2-update/bin/../lib/gcc/arm-none-eabi/7.3.1/../../../../arm-none-eabi/lib/thumb/v6-m\libc_nano.a(lib_a-memmove.o)
 .bss           0x00000000        0x0 c:/program files (x86)/gnu tools arm embedded/7 2018-q2-update/bin/../lib/gcc/arm-none-eabi/7.3.1/../../../../arm-none-eabi/lib/thumb/v6-m\libc_nano.a(lib_a-memmove.o)
 .text          0x00000000        0x0 c:/program files (x86)/gnu tools arm embedded/7 2018-q2-update/bin/../lib/gcc/arm-none-eabi/7.3.1/../../../../arm-none-eabi/lib/thumb/v6-m\libc_nano.a(lib_a-nano-freer.o)
 .data          0x00000000        0x0 c:/program files (x86)/gnu tools arm embedded/7 2018-q2-update/bin/../lib/gcc/arm-none-eabi/7.3.1/../../../../arm-none-eabi/lib/thumb/v6-m\libc_nano.a(lib_a-nano-freer.o)
 .bss           0x00000000        0x0 c:/program files (x86)/gnu tools arm embedded/7 2018-q2-update/bin/../lib/gcc/arm-none-eabi/7.3.1/../../../../arm-none-eabi/lib/thumb/v6-m\libc_nano.a(lib_a-nano-freer.o)
 .text          0x00000000        0x0 c:/program files (x86)/gnu tools arm embedded/7 2018-q2-update/bin/../lib/gcc/arm-none-eabi/7.3.1/../../../../arm-none-eabi/lib/thumb/v6-m\libc_nano.a(lib_a-nano-mallocr.o)
 .data          0x00000000        0x0 c:/program files (x86)/gnu tools arm embedded/7 2018-q2-update/bin/../lib/gcc/arm-none-eabi/7.3.1/../../../../arm-none-eabi/lib/thumb/v6-m\libc_nano.a(lib_a-nano-mallocr.o)
 .bss           0x00000000        0x0 c:/program files (x86)/gnu tools arm embedded/7 2018-q2-update/bin/../lib/gcc/arm-none-eabi/7.3.1/../../../../arm-none-eabi/lib/thumb/v6-m\libc_nano.a(lib_a-nano-mallocr.o)
 .text          0x00000000        0x0 c:/program files (x86)/gnu tools arm embedded/7 2018-q2-update/bin/../lib/gcc/arm-none-eabi/7.3.1/../../../../arm-none-eabi/lib/thumb/v6-m\libc_nano.a(lib_a-nano-reallocr.o)
 .data          0x00000000        0x0 c:/program files (x86)/gnu tools arm embedded/7 2018-q2-update/bin/../lib/gcc/arm-none-eabi/7.3.1/../../../../arm-none-eabi/lib/thumb/v6-m\libc_nano.a(lib_a-nano-reallocr.o)
 .bss           0x00000000        0x0 c:/program files (x86)/gnu tools arm embedded/7 2018-q2-update/bin/../lib/gcc/arm-none-eabi/7.3.1/../../../../arm-none-eabi/lib/thumb/v6-m\libc_nano.a(lib_a-nano-reallocr.o)
 .text          0x00000000        0x0 c:/program files (x86)/gnu tools arm embedded/7 2018-q2-update/bin/../lib/gcc/arm-none-eabi/7.3.1/../../../../arm-none-eabi/lib/thumb/v6-m\libc_nano.a(lib_a-sbrkr.o)
 .data          0x00000000        0x0 c:/program files (x86)/gnu tools arm embedded/7 2018-q2-update/bin/../lib/gcc/arm-none-eabi/7.3.1/../../../../arm-none-eabi/lib/thumb/v6-m\libc_nano.a(lib_a-sbrkr.o)
 .bss           0x00000000        0x0 c:/program files (x86)/gnu tools arm embedded/7 2018-q2-update/bin/../lib/gcc/arm-none-eabi/7.3.1/../../../../arm-none-eabi/lib/thumb/v6-m\libc_nano.a(lib_a-sbrkr.o)
 .text          0x00000000        0x0 c:/program files (x86)/gnu tools arm embedded/7 2018-q2-update/bin/../lib/gcc/arm-none-eabi/7.3.1/../../../../arm-none-eabi/lib/thumb/v6-m\libc_nano.a(lib_a-mlock.o)
 .data          0x00000000        0x0 c:/program files (x86)/gnu tools arm embedded/7 2018-q2-update/bin/../lib/gcc/arm-none-eabi/7.3.1/../../../../arm-none-eabi/lib/thumb/v6-m\libc_nano.a(lib_a-mlock.o)
 .bss           0x00000000        0x0 c:/program files (x86)/gnu tools arm embedded/7 2018-q2-update/bin/../lib/gcc/arm-none-eabi/7.3.1/../../../../arm-none-eabi/lib/thumb/v6-m\libc_nano.a(lib_a-mlock.o)
 .text          0x00000000        0x0 c:/program files (x86)/gnu tools arm embedded/7 2018-q2-update/bin/../lib/gcc/arm-none-eabi/7.3.1/../../../../arm-none-eabi/lib/thumb/v6-m\libc_nano.a(lib_a-nano-msizer.o)
 .data          0x00000000        0x0 c:/program files (x86)/gnu tools arm embedded/7 2018-q2-update/bin/../lib/gcc/arm-none-eabi/7.3.1/../../../../arm-none-eabi/lib/thumb/v6-m\libc_nano.a(lib_a-nano-msizer.o)
 .bss           0x00000000        0x0 c:/program files (x86)/gnu tools arm embedded/7 2018-q2-update/bin/../lib/gcc/arm-none-eabi/7.3.1/../../../../arm-none-eabi/lib/thumb/v6-m\libc_nano.a(lib_a-nano-msizer.o)
 .text          0x00000000        0x0 c:/program files (x86)/gnu tools arm embedded/7 2018-q2-update/bin/../lib/gcc/arm-none-eabi/7.3.1/../../../../arm-none-eabi/lib/thumb/v6-m\libc_nano.a(lib_a-reent.o)
 .data          0x00000000        0x0 c:/program files (x86)/gnu tools arm embedded/7 2018-q2-update/bin/../lib/gcc/arm-none-eabi/7.3.1/../../../../arm-none-eabi/lib/thumb/v6-m\libc_nano.a(lib_a-reent.o)
 .bss           0x00000000        0x0 c:/program files (x86)/gnu tools arm embedded/7 2018-q2-update/bin/../lib/gcc/arm-none-eabi/7.3.1/../../../../arm-none-eabi/lib/thumb/v6-m\libc_nano.a(lib_a-reent.o)
 .text.cleanup_glue
                0x00000000       0x1a c:/program files (x86)/gnu tools arm embedded/7 2018-q2-update/bin/../lib/gcc/arm-none-eabi/7.3.1/../../../../arm-none-eabi/lib/thumb/v6-m\libc_nano.a(lib_a-reent.o)
 .text._reclaim_reent
                0x00000000       0xcc c:/program files (x86)/gnu tools arm embedded/7 2018-q2-update/bin/../lib/gcc/arm-none-eabi/7.3.1/../../../../arm-none-eabi/lib/thumb/v6-m\libc_nano.a(lib_a-reent.o)
 .text          0x00000000        0x0 c:/program files (x86)/gnu tools arm embedded/7 2018-q2-update/bin/../lib/gcc/arm-none-eabi/7.3.1/../../../../arm-none-eabi/lib/thumb/v6-m\libnosys.a(sbrk.o)
 .data          0x00000000        0x0 c:/program files (x86)/gnu tools arm embedded/7 2018-q2-update/bin/../lib/gcc/arm-none-eabi/7.3.1/../../../../arm-none-eabi/lib/thumb/v6-m\libnosys.a(sbrk.o)
 .bss           0x00000000        0x0 c:/program files (x86)/gnu tools arm embedded/7 2018-q2-update/bin/../lib/gcc/arm-none-eabi/7.3.1/../../../../arm-none-eabi/lib/thumb/v6-m\libnosys.a(sbrk.o)
 .text          0x00000000        0x0 c:/program files (x86)/gnu tools arm embedded/7 2018-q2-update/bin/../lib/gcc/arm-none-eabi/7.3.1/../../../../arm-none-eabi/lib/thumb/v6-m\libnosys.a(_exit.o)
 .data          0x00000000        0x0 c:/program files (x86)/gnu tools arm embedded/7 2018-q2-update/bin/../lib/gcc/arm-none-eabi/7.3.1/../../../../arm-none-eabi/lib/thumb/v6-m\libnosys.a(_exit.o)
 .bss           0x00000000        0x0 c:/program files (x86)/gnu tools arm embedded/7 2018-q2-update/bin/../lib/gcc/arm-none-eabi/7.3.1/../../../../arm-none-eabi/lib/thumb/v6-m\libnosys.a(_exit.o)
 .text._exit    0x00000000        0x4 c:/program files (x86)/gnu tools arm embedded/7 2018-q2-update/bin/../lib/gcc/arm-none-eabi/7.3.1/../../../../arm-none-eabi/lib/thumb/v6-m\libnosys.a(_exit.o)
 .debug_frame   0x00000000       0x20 c:/program files (x86)/gnu tools arm embedded/7 2018-q2-update/bin/../lib/gcc/arm-none-eabi/7.3.1/../../../../arm-none-eabi/lib/thumb/v6-m\libnosys.a(_exit.o)
 .ARM.attributes
                0x00000000       0x2c c:/program files (x86)/gnu tools arm embedded/7 2018-q2-update/bin/../lib/gcc/arm-none-eabi/7.3.1/../../../../arm-none-eabi/lib/thumb/v6-m\libnosys.a(_exit.o)
 .text          0x00000000        0x0 c:/program files (x86)/gnu tools arm embedded/7 2018-q2-update/bin/../lib/gcc/arm-none-eabi/7.3.1/thumb/v6-m/crtend.o
 .data          0x00000000        0x0 c:/program files (x86)/gnu tools arm embedded/7 2018-q2-update/bin/../lib/gcc/arm-none-eabi/7.3.1/thumb/v6-m/crtend.o
 .bss           0x00000000        0x0 c:/program files (x86)/gnu tools arm embedded/7 2018-q2-update/bin/../lib/gcc/arm-none-eabi/7.3.1/thumb/v6-m/crtend.o
 .eh_frame      0x00000000        0x4 c:/program files (x86)/gnu tools arm embedded/7 2018-q2-update/bin/../lib/gcc/arm-none-eabi/7.3.1/thumb/v6-m/crtend.o
 .ARM.attributes
                0x00000000       0x2c c:/program files (x86)/gnu tools arm embedded/7 2018-q2-update/bin/../lib/gcc/arm-none-eabi/7.3.1/thumb/v6-m/crtend.o
 .text          0x00000000        0x0 c:/program files (x86)/gnu tools arm embedded/7 2018-q2-update/bin/../lib/gcc/arm-none-eabi/7.3.1/thumb/v6-m/crtn.o
 .data          0x00000000        0x0 c:/program files (x86)/gnu tools arm embedded/7 2018-q2-update/bin/../lib/gcc/arm-none-eabi/7.3.1/thumb/v6-m/crtn.o
 .bss           0x00000000        0x0 c:/program files (x86)/gnu tools arm embedded/7 2018-q2-update/bin/../lib/gcc/arm-none-eabi/7.3.1/thumb/v6-m/crtn.o

Memory Configuration

Name             Origin             Length             Attributes
RAM              0x20000000         0x00005000         xrw
FLASH            0x08000000         0x00030000         xr
*default*        0x00000000         0xffffffff

Linker script and memory map

LOAD c:/program files (x86)/gnu tools arm embedded/7 2018-q2-update/bin/../lib/gcc/arm-none-eabi/7.3.1/thumb/v6-m/crti.o
LOAD c:/program files (x86)/gnu tools arm embedded/7 2018-q2-update/bin/../lib/gcc/arm-none-eabi/7.3.1/thumb/v6-m/crtbegin.o
LOAD c:/program files (x86)/gnu tools arm embedded/7 2018-q2-update/bin/../lib/gcc/arm-none-eabi/7.3.1/../../../../arm-none-eabi/lib/thumb/v6-m/crt0.o
LOAD ./objects/sx1276.o
LOAD ./objects/mlm32l07x01.o
LOAD ./objects/b-l072z-lrwan1.o
LOAD ./objects/system_stm32l0xx.o
LOAD ./objects/stm32l0xx_hal_spi.o
LOAD ./objects/stm32l0xx_hal_uart.o
LOAD ./objects/stm32l0xx_hal_adc.o
LOAD ./objects/stm32l0xx_hal_rcc.o
LOAD ./objects/stm32l0xx_hal_rcc_ex.o
LOAD ./objects/stm32l0xx_hal.o
LOAD ./objects/stm32l0xx_hal_cortex.o
LOAD ./objects/stm32l0xx_hal_gpio.o
LOAD ./objects/stm32l0xx_hal_dma.o
LOAD ./objects/stm32l0xx_hal_pwr.o
LOAD ./objects/stm32l0xx_hal_pwr_ex.o
LOAD ./objects/stm32l0xx_hal_rtc.o
LOAD ./objects/stm32l0xx_hal_rtc_ex.o
LOAD ./objects/stm32l0xx_hal_tim.o
LOAD ./objects/stm32l0xx_hal_tim_ex.o
LOAD ./objects/stm32l0xx_hal_adc_ex.o
LOAD ./objects/stm32l0xx_hal_uart_ex.o
LOAD ./objects/stm32l0xx_hal_i2c.o
LOAD ./objects/startup_stm32l072xx.o
LOAD ./objects/bsp.o
LOAD ./objects/debug.o
LOAD ./objects/hw_gpio.o
LOAD ./objects/hw_rtc.o
LOAD ./objects/hw_spi.o
LOAD ./objects/main.o
LOAD ./objects/vcom.o
LOAD ./objects/mlm32l0xx_hal_msp.o
LOAD ./objects/mlm32l0xx_hw.o
LOAD ./objects/mlm32l0xx_it.o
LOAD ./objects/lora.o
LOAD ./objects/lora-test.o
LOAD ./objects/loramac.o
LOAD ./objects/loramaccrypto.o
LOAD ./objects/loramacclassb.o
LOAD ./objects/loramaccommands.o
LOAD ./objects/loramacconfirmqueue.o
LOAD ./objects/loramacfcnthandler.o
LOAD ./objects/loramacparser.o
LOAD ./objects/loramacserializer.o
LOAD ./objects/loramacadr.o
LOAD ./objects/region.o
LOAD ./objects/regionas923.o
LOAD ./objects/regionau915.o
LOAD ./objects/regioncn470.o
LOAD ./objects/regioncn779.o
LOAD ./objects/regioncommon.o
LOAD ./objects/regioneu433.o
LOAD ./objects/regioneu868.o
LOAD ./objects/regionin865.o
LOAD ./objects/regionkr920.o
LOAD ./objects/regionus915.o
LOAD ./objects/regionru864.o
LOAD ./objects/low_power_manager.o
LOAD ./objects/timeserver.o
LOAD ./objects/utilities.o
LOAD ./objects/queue.o
LOAD ./objects/trace.o
LOAD ./objects/systime.o
LOAD ./objects/aes.o
LOAD ./objects/cmac.o
LOAD ./objects/soft-se.o
LOAD c:/program files (x86)/gnu tools arm embedded/7 2018-q2-update/bin/../lib/gcc/arm-none-eabi/7.3.1/../../../../arm-none-eabi/lib/thumb/v6-m\libm.a
START GROUP
LOAD c:/program files (x86)/gnu tools arm embedded/7 2018-q2-update/bin/../lib/gcc/arm-none-eabi/7.3.1/thumb/v6-m\libgcc.a
LOAD c:/program files (x86)/gnu tools arm embedded/7 2018-q2-update/bin/../lib/gcc/arm-none-eabi/7.3.1/../../../../arm-none-eabi/lib/thumb/v6-m\libc_nano.a
END GROUP
START GROUP
LOAD c:/program files (x86)/gnu tools arm embedded/7 2018-q2-update/bin/../lib/gcc/arm-none-eabi/7.3.1/thumb/v6-m\libgcc.a
LOAD c:/program files (x86)/gnu tools arm embedded/7 2018-q2-update/bin/../lib/gcc/arm-none-eabi/7.3.1/../../../../arm-none-eabi/lib/thumb/v6-m\libc_nano.a
LOAD c:/program files (x86)/gnu tools arm embedded/7 2018-q2-update/bin/../lib/gcc/arm-none-eabi/7.3.1/../../../../arm-none-eabi/lib/thumb/v6-m\libnosys.a
END GROUP
START GROUP
LOAD c:/program files (x86)/gnu tools arm embedded/7 2018-q2-update/bin/../lib/gcc/arm-none-eabi/7.3.1/thumb/v6-m\libgcc.a
LOAD c:/program files (x86)/gnu tools arm embedded/7 2018-q2-update/bin/../lib/gcc/arm-none-eabi/7.3.1/../../../../arm-none-eabi/lib/thumb/v6-m\libc_nano.a
LOAD c:/program files (x86)/gnu tools arm embedded/7 2018-q2-update/bin/../lib/gcc/arm-none-eabi/7.3.1/../../../../arm-none-eabi/lib/thumb/v6-m\libnosys.a
END GROUP
LOAD c:/program files (x86)/gnu tools arm embedded/7 2018-q2-update/bin/../lib/gcc/arm-none-eabi/7.3.1/thumb/v6-m/crtend.o
LOAD c:/program files (x86)/gnu tools arm embedded/7 2018-q2-update/bin/../lib/gcc/arm-none-eabi/7.3.1/thumb/v6-m/crtn.o
                0x20005000                _estack = 0x20005000
                0x00000200                _Min_Heap_Size = 0x200
                0x00000400                _Min_Stack_Size = 0x400

.isr_vector     0x08000000       0xc0
                0x08000000                . = ALIGN (0x4)
 *(.isr_vector)
 .isr_vector    0x08000000       0xc0 ./objects/startup_stm32l072xx.o
                0x08000000                g_pfnVectors
                0x080000c0                . = ALIGN (0x4)

.text           0x080000c0    0x16f14
                0x080000c0                . = ALIGN (0x4)
 *(.text)
 .text          0x080000c0       0x48 c:/program files (x86)/gnu tools arm embedded/7 2018-q2-update/bin/../lib/gcc/arm-none-eabi/7.3.1/thumb/v6-m/crtbegin.o
 .text          0x08000108      0x114 c:/program files (x86)/gnu tools arm embedded/7 2018-q2-update/bin/../lib/gcc/arm-none-eabi/7.3.1/thumb/v6-m\libgcc.a(_udivsi3.o)
                0x08000108                __aeabi_uidiv
                0x08000108                __udivsi3
                0x08000214                __aeabi_uidivmod
 .text          0x0800021c      0x1d4 c:/program files (x86)/gnu tools arm embedded/7 2018-q2-update/bin/../lib/gcc/arm-none-eabi/7.3.1/thumb/v6-m\libgcc.a(_divsi3.o)
                0x0800021c                __divsi3
                0x0800021c                __aeabi_idiv
                0x080003e8                __aeabi_idivmod
 .text          0x080003f0        0x4 c:/program files (x86)/gnu tools arm embedded/7 2018-q2-update/bin/../lib/gcc/arm-none-eabi/7.3.1/thumb/v6-m\libgcc.a(_dvmd_tls.o)
                0x080003f0                __aeabi_idiv0
                0x080003f0                __aeabi_ldiv0
 .text          0x080003f4       0x7c c:/program files (x86)/gnu tools arm embedded/7 2018-q2-update/bin/../lib/gcc/arm-none-eabi/7.3.1/thumb/v6-m\libgcc.a(_arm_cmpdf2.o)
                0x080003f4                __aeabi_cdrcmple
                0x08000404                __aeabi_cdcmple
                0x08000404                __aeabi_cdcmpeq
                0x08000414                __aeabi_dcmpeq
                0x08000420                __aeabi_dcmplt
                0x08000434                __aeabi_dcmple
                0x08000448                __aeabi_dcmpgt
                0x0800045c                __aeabi_dcmpge
 .text          0x08000470       0x74 c:/program files (x86)/gnu tools arm embedded/7 2018-q2-update/bin/../lib/gcc/arm-none-eabi/7.3.1/thumb/v6-m\libgcc.a(_arm_cmpsf2.o)
                0x08000470                __aeabi_cfrcmple
                0x08000478                __aeabi_cfcmpeq
                0x08000478                __aeabi_cfcmple
                0x08000488                __aeabi_fcmpeq
                0x08000494                __aeabi_fcmplt
                0x080004a8                __aeabi_fcmple
                0x080004bc                __aeabi_fcmpgt
                0x080004d0                __aeabi_fcmpge
 .text          0x080004e4       0x40 c:/program files (x86)/gnu tools arm embedded/7 2018-q2-update/bin/../lib/gcc/arm-none-eabi/7.3.1/thumb/v6-m\libgcc.a(_aeabi_uldivmod.o)
                0x080004e4                __aeabi_uldivmod
 .text          0x08000524       0x30 c:/program files (x86)/gnu tools arm embedded/7 2018-q2-update/bin/../lib/gcc/arm-none-eabi/7.3.1/thumb/v6-m\libgcc.a(_fixunssfsi.o)
                0x08000524                __fixunssfsi
                0x08000524                __aeabi_f2uiz
 .text          0x08000554       0x3c c:/program files (x86)/gnu tools arm embedded/7 2018-q2-update/bin/../lib/gcc/arm-none-eabi/7.3.1/thumb/v6-m\libgcc.a(_fixunsdfsi.o)
                0x08000554                __aeabi_d2uiz
                0x08000554                __fixunsdfsi
 .text          0x08000590      0x184 c:/program files (x86)/gnu tools arm embedded/7 2018-q2-update/bin/../lib/gcc/arm-none-eabi/7.3.1/thumb/v6-m\libgcc.a(_udivmoddi4.o)
                0x08000590                __udivmoddi4
 .text          0x08000714      0x224 c:/program files (x86)/gnu tools arm embedded/7 2018-q2-update/bin/../lib/gcc/arm-none-eabi/7.3.1/thumb/v6-m\libgcc.a(divsf3.o)
                0x08000714                __aeabi_fdiv
 .text          0x08000938       0x50 c:/program files (x86)/gnu tools arm embedded/7 2018-q2-update/bin/../lib/gcc/arm-none-eabi/7.3.1/thumb/v6-m\libgcc.a(eqsf2.o)
                0x08000938                __eqsf2
                0x08000938                __nesf2
 .text          0x08000988       0x9c c:/program files (x86)/gnu tools arm embedded/7 2018-q2-update/bin/../lib/gcc/arm-none-eabi/7.3.1/thumb/v6-m\libgcc.a(gesf2.o)
                0x08000988                __gesf2
                0x08000988                __gtsf2
 .text          0x08000a24       0xa0 c:/program files (x86)/gnu tools arm embedded/7 2018-q2-update/bin/../lib/gcc/arm-none-eabi/7.3.1/thumb/v6-m\libgcc.a(lesf2.o)
                0x08000a24                __ltsf2
                0x08000a24                __lesf2
 .text          0x08000ac4      0x264 c:/program files (x86)/gnu tools arm embedded/7 2018-q2-update/bin/../lib/gcc/arm-none-eabi/7.3.1/thumb/v6-m\libgcc.a(mulsf3.o)
                0x08000ac4                __aeabi_fmul
 .text          0x08000d28      0x388 c:/program files (x86)/gnu tools arm embedded/7 2018-q2-update/bin/../lib/gcc/arm-none-eabi/7.3.1/thumb/v6-m\libgcc.a(subsf3.o)
                0x08000d28                __aeabi_fsub
 .text          0x080010b0       0x40 c:/program files (x86)/gnu tools arm embedded/7 2018-q2-update/bin/../lib/gcc/arm-none-eabi/7.3.1/thumb/v6-m\libgcc.a(fixsfsi.o)
                0x080010b0                __aeabi_f2iz
 .text          0x080010f0       0x80 c:/program files (x86)/gnu tools arm embedded/7 2018-q2-update/bin/../lib/gcc/arm-none-eabi/7.3.1/thumb/v6-m\libgcc.a(floatunsisf.o)
                0x080010f0                __aeabi_ui2f
 .text          0x08001170      0x638 c:/program files (x86)/gnu tools arm embedded/7 2018-q2-update/bin/../lib/gcc/arm-none-eabi/7.3.1/thumb/v6-m\libgcc.a(adddf3.o)
                0x08001170                __aeabi_dadd
 .text          0x080017a8      0x604 c:/program files (x86)/gnu tools arm embedded/7 2018-q2-update/bin/../lib/gcc/arm-none-eabi/7.3.1/thumb/v6-m\libgcc.a(divdf3.o)
                0x080017a8                __aeabi_ddiv
 .text          0x08001dac       0x78 c:/program files (x86)/gnu tools arm embedded/7 2018-q2-update/bin/../lib/gcc/arm-none-eabi/7.3.1/thumb/v6-m\libgcc.a(eqdf2.o)
                0x08001dac                __nedf2
                0x08001dac                __eqdf2
 .text          0x08001e24       0xc8 c:/program files (x86)/gnu tools arm embedded/7 2018-q2-update/bin/../lib/gcc/arm-none-eabi/7.3.1/thumb/v6-m\libgcc.a(gedf2.o)
                0x08001e24                __gedf2
                0x08001e24                __gtdf2
 .text          0x08001eec       0xd0 c:/program files (x86)/gnu tools arm embedded/7 2018-q2-update/bin/../lib/gcc/arm-none-eabi/7.3.1/thumb/v6-m\libgcc.a(ledf2.o)
                0x08001eec                __ledf2
                0x08001eec                __ltdf2
 .text          0x08001fbc      0x4e4 c:/program files (x86)/gnu tools arm embedded/7 2018-q2-update/bin/../lib/gcc/arm-none-eabi/7.3.1/thumb/v6-m\libgcc.a(muldf3.o)
                0x08001fbc                __aeabi_dmul
 .text          0x080024a0      0x690 c:/program files (x86)/gnu tools arm embedded/7 2018-q2-update/bin/../lib/gcc/arm-none-eabi/7.3.1/thumb/v6-m\libgcc.a(subdf3.o)
                0x080024a0                __aeabi_dsub
 .text          0x08002b30       0x6c c:/program files (x86)/gnu tools arm embedded/7 2018-q2-update/bin/../lib/gcc/arm-none-eabi/7.3.1/thumb/v6-m\libgcc.a(fixdfsi.o)
                0x08002b30                __aeabi_d2iz
 .text          0x08002b9c       0x74 c:/program files (x86)/gnu tools arm embedded/7 2018-q2-update/bin/../lib/gcc/arm-none-eabi/7.3.1/thumb/v6-m\libgcc.a(floatsidf.o)
                0x08002b9c                __aeabi_i2d
 .text          0x08002c10       0x64 c:/program files (x86)/gnu tools arm embedded/7 2018-q2-update/bin/../lib/gcc/arm-none-eabi/7.3.1/thumb/v6-m\libgcc.a(floatunsidf.o)
                0x08002c10                __aeabi_ui2d
 .text          0x08002c74       0xa4 c:/program files (x86)/gnu tools arm embedded/7 2018-q2-update/bin/../lib/gcc/arm-none-eabi/7.3.1/thumb/v6-m\libgcc.a(extendsfdf2.o)
                0x08002c74                __aeabi_f2d
 .text          0x08002d18       0x3c c:/program files (x86)/gnu tools arm embedded/7 2018-q2-update/bin/../lib/gcc/arm-none-eabi/7.3.1/thumb/v6-m\libgcc.a(_clzsi2.o)
                0x08002d18                __clzsi2
 .text          0x08002d54       0x18 c:/program files (x86)/gnu tools arm embedded/7 2018-q2-update/bin/../lib/gcc/arm-none-eabi/7.3.1/thumb/v6-m\libgcc.a(_clzdi2.o)
                0x08002d54                __clzdi2
 *(.text*)
 .text.SX1276OnDio4Irq
                0x08002d6c       0x1c ./objects/sx1276.o
                0x08002d6c                SX1276OnDio4Irq
 .text.SX1276ReadBuffer.constprop.12
                0x08002d88       0x34 ./objects/sx1276.o
 .text.SX1276WriteBuffer.constprop.13
                0x08002dbc       0x34 ./objects/sx1276.o
 .text.SX1276SetOpMode.part.2
                0x08002df0       0x68 ./objects/sx1276.o
 .text.SX1276SetModem.part.3
                0x08002e58      0x248 ./objects/sx1276.o
 .text.SX1276OnDio3Irq
                0x080030a0       0xb0 ./objects/sx1276.o
                0x080030a0                SX1276OnDio3Irq
 .text.SX1276OnDio2Irq
                0x08003150      0x198 ./objects/sx1276.o
                0x08003150                SX1276OnDio2Irq
 .text.SX1276OnDio1Irq
                0x080032e8      0x21c ./objects/sx1276.o
                0x080032e8                SX1276OnDio1Irq
 .text.SX1276OnDio0Irq
                0x08003504      0x58c ./objects/sx1276.o
                0x08003504                SX1276OnDio0Irq
 .text.SX1276BoardInit
                0x08003a90        0xc ./objects/sx1276.o
                0x08003a90                SX1276BoardInit
 .text.SX1276GetStatus
                0x08003a9c        0xc ./objects/sx1276.o
                0x08003a9c                SX1276GetStatus
 .text.SX1276SetChannel
                0x08003aa8       0xa4 ./objects/sx1276.o
                0x08003aa8                SX1276SetChannel
 .text.RxChainCalibration
                0x08003b4c      0x2c4 ./objects/sx1276.o
                0x08003b4c                RxChainCalibration
 .text.SX1276Init
                0x08003e10      0x308 ./objects/sx1276.o
                0x08003e10                SX1276Init
 .text.SX1276OnTimeoutIrq
                0x08004118      0x370 ./objects/sx1276.o
                0x08004118                SX1276OnTimeoutIrq
 .text.SX1276SetRxConfig
                0x08004488      0x698 ./objects/sx1276.o
                0x08004488                SX1276SetRxConfig
 .text.SX1276SetTxConfig
                0x08004b20      0x5c0 ./objects/sx1276.o
                0x08004b20                SX1276SetTxConfig
 .text.SX1276GetTimeOnAir
                0x080050e0      0x264 ./objects/sx1276.o
                0x080050e0                SX1276GetTimeOnAir
 .text.SX1276SetSleep
                0x08005344       0x84 ./objects/sx1276.o
                0x08005344                SX1276SetSleep
 .text.SX1276ReadRssi
                0x080053c8       0xc0 ./objects/sx1276.o
                0x080053c8                SX1276ReadRssi
 .text.SX1276SetOpMode
                0x08005488       0x84 ./objects/sx1276.o
                0x08005488                SX1276SetOpMode
 .text.SX1276SetStby
                0x0800550c       0x28 ./objects/sx1276.o
                0x0800550c                SX1276SetStby
 .text.SX1276SetRx
                0x08005534      0x604 ./objects/sx1276.o
                0x08005534                SX1276SetRx
 .text.SX1276SetTx
                0x08005b38      0x1fc ./objects/sx1276.o
                0x08005b38                SX1276SetTx
 .text.SX1276StartCad
                0x08005d34       0x98 ./objects/sx1276.o
                0x08005d34                SX1276StartCad
 .text.SX1276IsChannelFree
                0x08005dcc      0x1c8 ./objects/sx1276.o
                0x08005dcc                SX1276IsChannelFree
 .text.SX1276Random
                0x08005f94      0x138 ./objects/sx1276.o
                0x08005f94                SX1276Random
 .text.SX1276SetTxContinuousWave
                0x080060cc      0x420 ./objects/sx1276.o
                0x080060cc                SX1276SetTxContinuousWave
 .text.SX1276Send
                0x080064ec      0x2d4 ./objects/sx1276.o
                0x080064ec                SX1276Send
 .text.SX1276SetModem
                0x080067c0       0x48 ./objects/sx1276.o
                0x080067c0                SX1276SetModem
 .text.SX1276Write
                0x08006808       0x34 ./objects/sx1276.o
                0x08006808                SX1276Write
 .text.SX1276Read
                0x0800683c       0x34 ./objects/sx1276.o
                0x0800683c                SX1276Read
 .text.SX1276WriteBuffer
                0x08006870       0x48 ./objects/sx1276.o
                0x08006870                SX1276WriteBuffer
 .text.SX1276ReadBuffer
                0x080068b8       0x48 ./objects/sx1276.o
                0x080068b8                SX1276ReadBuffer
 .text.SX1276SetMaxPayloadLength
                0x08006900      0x2e4 ./objects/sx1276.o
                0x08006900                SX1276SetMaxPayloadLength
 .text.SX1276SetPublicNetwork
                0x08006be4      0x1b0 ./objects/sx1276.o
                0x08006be4                SX1276SetPublicNetwork
 .text.SX1276GetWakeupTime
                0x08006d94       0x14 ./objects/sx1276.o
                0x08006d94                SX1276GetWakeupTime
 .text.SX1276GetWakeTime
                0x08006da8        0x4 ./objects/mlm32l07x01.o
                0x08006da8                SX1276GetWakeTime
 .text.SX1276CheckRfFrequency
                0x08006dac        0x4 ./objects/mlm32l07x01.o
                0x08006dac                SX1276CheckRfFrequency
 .text.SX1276SetRfTxPower
                0x08006db0       0xa8 ./objects/mlm32l07x01.o
                0x08006db0                SX1276SetRfTxPower
 .text.SX1276IoInit
                0x08006e58       0x78 ./objects/mlm32l07x01.o
                0x08006e58                SX1276IoInit
 .text.SX1276IoDeInit
                0x08006ed0       0x54 ./objects/mlm32l07x01.o
                0x08006ed0                SX1276IoDeInit
 .text.SX1276SetAntSwLowPower
                0x08006f24       0x70 ./objects/mlm32l07x01.o
                0x08006f24                SX1276SetAntSwLowPower
 .text.SX1276IoIrqInit
                0x08006f94       0x44 ./objects/mlm32l07x01.o
                0x08006f94                SX1276IoIrqInit
 .text.SX1276SetAntSw
                0x08006fd8       0x4c ./objects/mlm32l07x01.o
                0x08006fd8                SX1276SetAntSw
 .text.SX1276SetXO
                0x08007024       0x2c ./objects/mlm32l07x01.o
                0x08007024                SX1276SetXO
 .text.BSP_LED_Init
                0x08007050       0x90 ./objects/b-l072z-lrwan1.o
                0x08007050                BSP_LED_Init
 .text.BSP_LED_On
                0x080070e0       0x20 ./objects/b-l072z-lrwan1.o
                0x080070e0                BSP_LED_On
 .text.BSP_LED_Off
                0x08007100       0x20 ./objects/b-l072z-lrwan1.o
                0x08007100                BSP_LED_Off
 .text.SystemInit
                0x08007120       0x5c ./objects/system_stm32l0xx.o
                0x08007120                SystemInit
 .text.HAL_SPI_MspInit
                0x0800717c        0x4 ./objects/stm32l0xx_hal_spi.o
                0x0800717c                HAL_SPI_MspInit
 .text.HAL_SPI_Init
                0x08007180       0x80 ./objects/stm32l0xx_hal_spi.o
                0x08007180                HAL_SPI_Init
 .text.HAL_SPI_TransmitReceive
                0x08007200      0x550 ./objects/stm32l0xx_hal_spi.o
                0x08007200                HAL_SPI_TransmitReceive
 .text.HAL_UART_Transmit_DMA
                0x08007750       0x94 ./objects/stm32l0xx_hal_uart.o
                0x08007750                HAL_UART_Transmit_DMA
 .text.UART_DMATransmitCplt
                0x080077e4       0x30 ./objects/stm32l0xx_hal_uart.o
 .text.HAL_UART_TxHalfCpltCallback
                0x08007814        0x4 ./objects/stm32l0xx_hal_uart.o
                0x08007814                HAL_UART_TxHalfCpltCallback
 .text.UART_DMATxHalfCplt
                0x08007818        0xc ./objects/stm32l0xx_hal_uart.o
 .text.HAL_UART_RxCpltCallback
                0x08007824        0x4 ./objects/stm32l0xx_hal_uart.o
                0x08007824                HAL_UART_RxCpltCallback
 .text.HAL_UART_ErrorCallback
                0x08007828        0x4 ./objects/stm32l0xx_hal_uart.o
                0x08007828                HAL_UART_ErrorCallback
 .text.UART_DMAError
                0x0800782c       0x68 ./objects/stm32l0xx_hal_uart.o
 .text.HAL_UART_IRQHandler
                0x08007894      0x2a0 ./objects/stm32l0xx_hal_uart.o
                0x08007894                HAL_UART_IRQHandler
 .text.UART_DMAAbortOnError
                0x08007b34       0x14 ./objects/stm32l0xx_hal_uart.o
 .text.UART_SetConfig
                0x08007b48      0x304 ./objects/stm32l0xx_hal_uart.o
                0x08007b48                UART_SetConfig
 .text.UART_AdvFeatureConfig
                0x08007e4c       0xd0 ./objects/stm32l0xx_hal_uart.o
                0x08007e4c                UART_AdvFeatureConfig
 .text.HAL_UART_Init
                0x08007f1c      0x454 ./objects/stm32l0xx_hal_uart.o
                0x08007f1c                HAL_UART_Init
 .text.HAL_HalfDuplex_Init
                0x08008370      0x460 ./objects/stm32l0xx_hal_uart.o
                0x08008370                HAL_HalfDuplex_Init
 .text.HAL_MultiProcessor_Init
                0x080087d0      0x488 ./objects/stm32l0xx_hal_uart.o
                0x080087d0                HAL_MultiProcessor_Init
 .text.UART_CheckIdleState
                0x08008c58       0x9c ./objects/stm32l0xx_hal_uart.o
                0x08008c58                UART_CheckIdleState
 .text.HAL_LIN_Init
                0x08008cf4      0x3c0 ./objects/stm32l0xx_hal_uart.o
                0x08008cf4                HAL_LIN_Init
 .text.HAL_ADC_MspInit
                0x080090b4        0x4 ./objects/stm32l0xx_hal_adc.o
                0x080090b4                HAL_ADC_MspInit
 .text.HAL_ADC_Init
                0x080090b8      0x1c8 ./objects/stm32l0xx_hal_adc.o
                0x080090b8                HAL_ADC_Init
 .text.HAL_ADC_Start
                0x08009280       0xe0 ./objects/stm32l0xx_hal_adc.o
                0x08009280                HAL_ADC_Start
 .text.HAL_ADC_PollForConversion
                0x08009360       0xc0 ./objects/stm32l0xx_hal_adc.o
                0x08009360                HAL_ADC_PollForConversion
 .text.HAL_ADC_GetValue
                0x08009420        0x8 ./objects/stm32l0xx_hal_adc.o
                0x08009420                HAL_ADC_GetValue
 .text.HAL_ADC_ConfigChannel
                0x08009428       0xd4 ./objects/stm32l0xx_hal_adc.o
                0x08009428                HAL_ADC_ConfigChannel
 .text.HAL_RCC_OscConfig
                0x080094fc      0x644 ./objects/stm32l0xx_hal_rcc.o
                0x080094fc                HAL_RCC_OscConfig
 .text.HAL_RCC_ClockConfig
                0x08009b40      0x234 ./objects/stm32l0xx_hal_rcc.o
                0x08009b40                HAL_RCC_ClockConfig
 .text.HAL_RCC_GetSysClockFreq
                0x08009d74       0xa8 ./objects/stm32l0xx_hal_rcc.o
                0x08009d74                HAL_RCC_GetSysClockFreq
 .text.HAL_RCC_GetPCLK1Freq
                0x08009e1c       0x20 ./objects/stm32l0xx_hal_rcc.o
                0x08009e1c                HAL_RCC_GetPCLK1Freq
 .text.HAL_RCC_GetPCLK2Freq
                0x08009e3c       0x20 ./objects/stm32l0xx_hal_rcc.o
                0x08009e3c                HAL_RCC_GetPCLK2Freq
 .text.HAL_RCCEx_PeriphCLKConfig
                0x08009e5c      0x1ec ./objects/stm32l0xx_hal_rcc_ex.o
                0x08009e5c                HAL_RCCEx_PeriphCLKConfig
 .text.HAL_RCCEx_GetPeriphCLKFreq
                0x0800a048      0x220 ./objects/stm32l0xx_hal_rcc_ex.o
                0x0800a048                HAL_RCCEx_GetPeriphCLKFreq
 .text.HAL_Init
                0x0800a268       0x20 ./objects/stm32l0xx_hal.o
                0x0800a268                HAL_Init
 .text.HAL_IncTick
                0x0800a288       0x10 ./objects/stm32l0xx_hal.o
                0x0800a288                HAL_IncTick
 .text.HAL_GetTick
                0x0800a298        0xc ./objects/stm32l0xx_hal.o
                0x0800a298                HAL_GetTick
 .text.HAL_DBGMCU_DisableDBGSleepMode
                0x0800a2a4       0x10 ./objects/stm32l0xx_hal.o
                0x0800a2a4                HAL_DBGMCU_DisableDBGSleepMode
 .text.HAL_DBGMCU_DisableDBGStopMode
                0x0800a2b4       0x10 ./objects/stm32l0xx_hal.o
                0x0800a2b4                HAL_DBGMCU_DisableDBGStopMode
 .text.HAL_DBGMCU_DisableDBGStandbyMode
                0x0800a2c4       0x10 ./objects/stm32l0xx_hal.o
                0x0800a2c4                HAL_DBGMCU_DisableDBGStandbyMode
 .text.HAL_NVIC_SetPriority
                0x0800a2d4       0x58 ./objects/stm32l0xx_hal_cortex.o
                0x0800a2d4                HAL_NVIC_SetPriority
 .text.HAL_NVIC_EnableIRQ
                0x0800a32c       0x18 ./objects/stm32l0xx_hal_cortex.o
                0x0800a32c                HAL_NVIC_EnableIRQ
 .text.HAL_GPIO_Init
                0x0800a344      0x1ec ./objects/stm32l0xx_hal_gpio.o
                0x0800a344                HAL_GPIO_Init
 .text.HAL_GPIO_WritePin
                0x0800a530        0xc ./objects/stm32l0xx_hal_gpio.o
                0x0800a530                HAL_GPIO_WritePin
 .text.HAL_GPIO_EXTI_IRQHandler
                0x0800a53c       0x18 ./objects/stm32l0xx_hal_gpio.o
                0x0800a53c                HAL_GPIO_EXTI_IRQHandler
 .text.HAL_DMA_Init
                0x0800a554      0x148 ./objects/stm32l0xx_hal_dma.o
                0x0800a554                HAL_DMA_Init
 .text.HAL_DMA_Start_IT
                0x0800a69c       0x58 ./objects/stm32l0xx_hal_dma.o
                0x0800a69c                HAL_DMA_Start_IT
 .text.HAL_DMA_Abort_IT
                0x0800a6f4       0xb4 ./objects/stm32l0xx_hal_dma.o
                0x0800a6f4                HAL_DMA_Abort_IT
 .text.HAL_DMA_IRQHandler
                0x0800a7a8      0x294 ./objects/stm32l0xx_hal_dma.o
                0x0800a7a8                HAL_DMA_IRQHandler
 .text.HAL_PWR_DisablePVD
                0x0800aa3c       0x10 ./objects/stm32l0xx_hal_pwr.o
                0x0800aa3c                HAL_PWR_DisablePVD
 .text.HAL_PWR_EnterSLEEPMode
                0x0800aa4c       0x30 ./objects/stm32l0xx_hal_pwr.o
                0x0800aa4c                HAL_PWR_EnterSLEEPMode
 .text.HAL_PWR_EnterSTOPMode
                0x0800aa7c       0x3c ./objects/stm32l0xx_hal_pwr.o
                0x0800aa7c                HAL_PWR_EnterSTOPMode
 .text.HAL_PWREx_EnableFastWakeUp
                0x0800aab8       0x14 ./objects/stm32l0xx_hal_pwr_ex.o
                0x0800aab8                HAL_PWREx_EnableFastWakeUp
 .text.HAL_PWREx_EnableUltraLowPower
                0x0800aacc       0x14 ./objects/stm32l0xx_hal_pwr_ex.o
                0x0800aacc                HAL_PWREx_EnableUltraLowPower
 .text.HAL_RTC_Init
                0x0800aae0       0xbc ./objects/stm32l0xx_hal_rtc.o
                0x0800aae0                HAL_RTC_Init
 .text.HAL_RTC_SetTime
                0x0800ab9c      0x1a4 ./objects/stm32l0xx_hal_rtc.o
                0x0800ab9c                HAL_RTC_SetTime
 .text.HAL_RTC_GetTime
                0x0800ad40       0x68 ./objects/stm32l0xx_hal_rtc.o
                0x0800ad40                HAL_RTC_GetTime
 .text.HAL_RTC_SetDate
                0x0800ada8      0x160 ./objects/stm32l0xx_hal_rtc.o
                0x0800ada8                HAL_RTC_SetDate
 .text.HAL_RTC_GetDate
                0x0800af08       0x5c ./objects/stm32l0xx_hal_rtc.o
                0x0800af08                HAL_RTC_GetDate
 .text.HAL_RTC_SetAlarm_IT
                0x0800af64      0x218 ./objects/stm32l0xx_hal_rtc.o
                0x0800af64                HAL_RTC_SetAlarm_IT
 .text.HAL_RTC_DeactivateAlarm
                0x0800b17c       0xd0 ./objects/stm32l0xx_hal_rtc.o
                0x0800b17c                HAL_RTC_DeactivateAlarm
 .text.HAL_RTCEx_BKUPWrite
                0x0800b24c        0xc ./objects/stm32l0xx_hal_rtc_ex.o
                0x0800b24c                HAL_RTCEx_BKUPWrite
 .text.HAL_RTCEx_BKUPRead
                0x0800b258        0xc ./objects/stm32l0xx_hal_rtc_ex.o
                0x0800b258                HAL_RTCEx_BKUPRead
 .text.HAL_RTCEx_EnableBypassShadow
                0x0800b264       0x34 ./objects/stm32l0xx_hal_rtc_ex.o
                0x0800b264                HAL_RTCEx_EnableBypassShadow
 .text.HAL_ADCEx_Calibration_Start
                0x0800b298       0xa8 ./objects/stm32l0xx_hal_adc_ex.o
                0x0800b298                HAL_ADCEx_Calibration_Start
 .text.HAL_UARTEx_WakeupCallback
                0x0800b340        0x4 ./objects/stm32l0xx_hal_uart_ex.o
                0x0800b340                HAL_UARTEx_WakeupCallback
 .text.Reset_Handler
                0x0800b344       0x50 ./objects/startup_stm32l072xx.o
                0x0800b344                Reset_Handler
 .text.Default_Handler
                0x0800b394        0x2 ./objects/startup_stm32l072xx.o
                0x0800b394                TSC_IRQHandler
                0x0800b394                ADC1_COMP_IRQHandler
                0x0800b394                PVD_IRQHandler
                0x0800b394                I2C1_IRQHandler
                0x0800b394                RCC_CRS_IRQHandler
                0x0800b394                SPI1_IRQHandler
                0x0800b394                TIM6_DAC_IRQHandler
                0x0800b394                I2C2_IRQHandler
                0x0800b394                TIM3_IRQHandler
                0x0800b394                DMA1_Channel1_IRQHandler
                0x0800b394                USART4_5_IRQHandler
                0x0800b394                Default_Handler
                0x0800b394                TIM22_IRQHandler
                0x0800b394                TIM7_IRQHandler
                0x0800b394                USB_IRQHandler
                0x0800b394                I2C3_IRQHandler
                0x0800b394                SPI2_IRQHandler
                0x0800b394                TIM21_IRQHandler
                0x0800b394                WWDG_IRQHandler
                0x0800b394                TIM2_IRQHandler
                0x0800b394                DMA1_Channel2_3_IRQHandler
                0x0800b394                FLASH_IRQHandler
                0x0800b394                USART1_IRQHandler
                0x0800b394                RNG_LPUART1_IRQHandler
                0x0800b394                LPTIM1_IRQHandler
 *fill*         0x0800b396        0x2 
 .text.BSP_sensor_Read
                0x0800b398       0x1c ./objects/bsp.o
                0x0800b398                BSP_sensor_Read
 .text.BSP_sensor_Init
                0x0800b3b4        0x4 ./objects/bsp.o
                0x0800b3b4                BSP_sensor_Init
 .text.DBG_Init
                0x0800b3b8       0x64 ./objects/debug.o
                0x0800b3b8                DBG_Init
 .text.Error_Handler
                0x0800b41c       0x10 ./objects/debug.o
                0x0800b41c                Error_Handler
 .text.HW_GPIO_Init
                0x0800b42c       0xa0 ./objects/hw_gpio.o
                0x0800b42c                HW_GPIO_Init
 .text.HW_GPIO_SetIrq
                0x0800b4cc       0x70 ./objects/hw_gpio.o
                0x0800b4cc                HW_GPIO_SetIrq
 .text.HW_GPIO_IrqHandler
                0x0800b53c       0x54 ./objects/hw_gpio.o
                0x0800b53c                HW_GPIO_IrqHandler
 .text.HW_GPIO_Write
                0x0800b590        0xc ./objects/hw_gpio.o
                0x0800b590                HW_GPIO_Write
 .text.HW_RTC_Init
                0x0800b59c      0x144 ./objects/hw_rtc.o
                0x0800b59c                HW_RTC_Init
 .text.HW_RTC_GetMinimumTimeout
                0x0800b6e0        0x4 ./objects/hw_rtc.o
                0x0800b6e0                HW_RTC_GetMinimumTimeout
 .text.HW_RTC_ms2Tick
                0x0800b6e4       0x10 ./objects/hw_rtc.o
                0x0800b6e4                HW_RTC_ms2Tick
 .text.HW_RTC_Tick2ms
                0x0800b6f4       0x20 ./objects/hw_rtc.o
                0x0800b6f4                HW_RTC_Tick2ms
 .text.HW_RTC_SetAlarm
                0x0800b714      0x524 ./objects/hw_rtc.o
                0x0800b714                HW_RTC_SetAlarm
 .text.HW_RTC_GetTimerElapsedTime
                0x0800bc38       0xdc ./objects/hw_rtc.o
                0x0800bc38                HW_RTC_GetTimerElapsedTime
 .text.HW_RTC_GetTimerValue
                0x0800bd14       0xcc ./objects/hw_rtc.o
                0x0800bd14                HW_RTC_GetTimerValue
 .text.HW_RTC_StopAlarm
                0x0800bde0       0x34 ./objects/hw_rtc.o
                0x0800bde0                HW_RTC_StopAlarm
 .text.HW_RTC_IrqHandler
                0x0800be14       0x44 ./objects/hw_rtc.o
                0x0800be14                HW_RTC_IrqHandler
 .text.HW_RTC_DelayMs
                0x0800be58      0x1d0 ./objects/hw_rtc.o
                0x0800be58                HW_RTC_DelayMs
 .text.HW_RTC_SetTimerContext
                0x0800c028       0xe0 ./objects/hw_rtc.o
                0x0800c028                HW_RTC_SetTimerContext
 .text.HW_RTC_GetTimerContext
                0x0800c108        0xc ./objects/hw_rtc.o
                0x0800c108                HW_RTC_GetTimerContext
 .text.HW_RTC_GetCalendarTime
                0x0800c114       0xec ./objects/hw_rtc.o
                0x0800c114                HW_RTC_GetCalendarTime
 .text.HW_RTC_BKUPWrite
                0x0800c200       0x24 ./objects/hw_rtc.o
                0x0800c200                HW_RTC_BKUPWrite
 .text.HW_RTC_BKUPRead
                0x0800c224       0x24 ./objects/hw_rtc.o
                0x0800c224                HW_RTC_BKUPRead
 .text.HW_SPI_Init
                0x0800c248      0x124 ./objects/hw_spi.o
                0x0800c248                HW_SPI_Init
 .text.HW_SPI_IoInit
                0x0800c36c       0x60 ./objects/hw_spi.o
                0x0800c36c                HW_SPI_IoInit
 .text.HW_SPI_InOut
                0x0800c3cc       0x28 ./objects/hw_spi.o
                0x0800c3cc                HW_SPI_InOut
 .text.LoraMacProcessNotify
                0x0800c3f4        0xc ./objects/main.o
 .text.LORA_TxNeeded
                0x0800c400       0x18 ./objects/main.o
 .text.LORA_ConfirmClass
                0x0800c418       0x28 ./objects/main.o
 .text.LORA_HasJoined
                0x0800c440       0x14 ./objects/main.o
 .text.OnTimerLedEvent
                0x0800c454        0xc ./objects/main.o
 .text.LORA_RxData
                0x0800c460       0x9c ./objects/main.o
 .text.OnTxTimerEvent
                0x0800c4fc       0x14 ./objects/main.o
 .text.Send.part.0
                0x0800c510       0xe0 ./objects/main.o
 .text.startup.main
                0x0800c5f0       0xb0 ./objects/main.o
                0x0800c5f0                main
 .text.vcom_Init
                0x0800c6a0       0x38 ./objects/vcom.o
                0x0800c6a0                vcom_Init
 .text.vcom_Trace
                0x0800c6d8       0x14 ./objects/vcom.o
                0x0800c6d8                vcom_Trace
 .text.HAL_UART_TxCpltCallback
                0x0800c6ec       0x10 ./objects/vcom.o
                0x0800c6ec                HAL_UART_TxCpltCallback
 .text.vcom_DMA_TX_IRQHandler
                0x0800c6fc       0x10 ./objects/vcom.o
                0x0800c6fc                vcom_DMA_TX_IRQHandler
 .text.vcom_IRQHandler
                0x0800c70c       0x10 ./objects/vcom.o
                0x0800c70c                vcom_IRQHandler
 .text.HAL_UART_MspInit
                0x0800c71c       0xec ./objects/vcom.o
                0x0800c71c                HAL_UART_MspInit
 .text.vcom_IoInit
                0x0800c808       0x58 ./objects/vcom.o
                0x0800c808                vcom_IoInit
 .text.vcom_IoDeInit
                0x0800c860       0x48 ./objects/vcom.o
                0x0800c860                vcom_IoDeInit
 .text.HAL_InitTick
                0x0800c8a8        0x4 ./objects/mlm32l0xx_hal_msp.o
                0x0800c8a8                HAL_InitTick
 .text.HAL_Delay
                0x0800c8ac       0x10 ./objects/mlm32l0xx_hal_msp.o
                0x0800c8ac                HAL_Delay
 .text.HAL_MspInit
                0x0800c8bc       0x34 ./objects/mlm32l0xx_hal_msp.o
                0x0800c8bc                HAL_MspInit
 .text.HAL_RTC_MspInit
                0x0800c8f0       0x60 ./objects/mlm32l0xx_hal_msp.o
                0x0800c8f0                HAL_RTC_MspInit
 .text.HAL_RTC_AlarmAEventCallback
                0x0800c950        0x8 ./objects/mlm32l0xx_hal_msp.o
                0x0800c950                HAL_RTC_AlarmAEventCallback
 .text.HAL_GPIO_EXTI_Callback
                0x0800c958        0x8 ./objects/mlm32l0xx_hal_msp.o
                0x0800c958                HAL_GPIO_EXTI_Callback
 .text.MSP_GetIRQn
                0x0800c960       0x1c ./objects/mlm32l0xx_hal_msp.o
                0x0800c960                MSP_GetIRQn
 .text.HW_Init  0x0800c97c       0x9c ./objects/mlm32l0xx_hw.o
                0x0800c97c                HW_Init
 .text.HW_GpioInit
                0x0800ca18       0xc0 ./objects/mlm32l0xx_hw.o
                0x0800ca18                HW_GpioInit
 .text.SystemClock_Config
                0x0800cad8       0x94 ./objects/mlm32l0xx_hw.o
                0x0800cad8                SystemClock_Config
 .text.HW_GetRandomSeed
                0x0800cb6c       0x20 ./objects/mlm32l0xx_hw.o
                0x0800cb6c                HW_GetRandomSeed
 .text.HW_GetUniqueId
                0x0800cb8c       0x5c ./objects/mlm32l0xx_hw.o
                0x0800cb8c                HW_GetUniqueId
 .text.HW_GetTemperatureLevel
                0x0800cbe8      0x174 ./objects/mlm32l0xx_hw.o
                0x0800cbe8                HW_GetTemperatureLevel
 .text.HW_GetBatteryLevel
                0x0800cd5c       0xec ./objects/mlm32l0xx_hw.o
                0x0800cd5c                HW_GetBatteryLevel
 .text.LPM_EnterStopMode
                0x0800ce48       0x78 ./objects/mlm32l0xx_hw.o
                0x0800ce48                LPM_EnterStopMode
 .text.LPM_ExitStopMode
                0x0800cec0       0x68 ./objects/mlm32l0xx_hw.o
                0x0800cec0                LPM_ExitStopMode
 .text.LPM_EnterSleepMode
                0x0800cf28        0xc ./objects/mlm32l0xx_hw.o
                0x0800cf28                LPM_EnterSleepMode
 .text.NMI_Handler
                0x0800cf34        0x4 ./objects/mlm32l0xx_it.o
                0x0800cf34                NMI_Handler
 .text.HardFault_Handler
                0x0800cf38        0x4 ./objects/mlm32l0xx_it.o
                0x0800cf38                HardFault_Handler
 .text.SVC_Handler
                0x0800cf3c        0x4 ./objects/mlm32l0xx_it.o
                0x0800cf3c                SVC_Handler
 .text.PendSV_Handler
                0x0800cf40        0x4 ./objects/mlm32l0xx_it.o
                0x0800cf40                PendSV_Handler
 .text.SysTick_Handler
                0x0800cf44        0x8 ./objects/mlm32l0xx_it.o
                0x0800cf44                SysTick_Handler
 .text.USART2_IRQHandler
                0x0800cf4c        0x8 ./objects/mlm32l0xx_it.o
                0x0800cf4c                USART2_IRQHandler
 .text.DMA1_Channel4_5_6_7_IRQHandler
                0x0800cf54        0x8 ./objects/mlm32l0xx_it.o
                0x0800cf54                DMA1_Channel4_5_6_7_IRQHandler
 .text.RTC_IRQHandler
                0x0800cf5c        0x8 ./objects/mlm32l0xx_it.o
                0x0800cf5c                RTC_IRQHandler
 .text.EXTI0_1_IRQHandler
                0x0800cf64       0x10 ./objects/mlm32l0xx_it.o
                0x0800cf64                EXTI0_1_IRQHandler
 .text.EXTI2_3_IRQHandler
                0x0800cf74       0x10 ./objects/mlm32l0xx_it.o
                0x0800cf74                EXTI2_3_IRQHandler
 .text.EXTI4_15_IRQHandler
                0x0800cf84       0x5c ./objects/mlm32l0xx_it.o
                0x0800cf84                EXTI4_15_IRQHandler
 .text.MlmeIndication
                0x0800cfe0       0x18 ./objects/lora.o
 .text.McpsIndication
                0x0800cff8       0x64 ./objects/lora.o
 .text.McpsConfirm
                0x0800d05c       0x20 ./objects/lora.o
 .text.MlmeConfirm
                0x0800d07c       0x68 ./objects/lora.o
 .text.LORA_Init
                0x0800d0e4      0x184 ./objects/lora.o
                0x0800d0e4                LORA_Init
 .text.LORA_Join
                0x0800d268       0x38 ./objects/lora.o
                0x0800d268                LORA_Join
 .text.LORA_JoinStatus
                0x0800d2a0       0x20 ./objects/lora.o
                0x0800d2a0                LORA_JoinStatus
 .text.LORA_send
                0x0800d2c0       0x78 ./objects/lora.o
                0x0800d2c0                LORA_send
 .text.LORA_RequestClass
                0x0800d338       0x84 ./objects/lora.o
                0x0800d338                LORA_RequestClass
 .text.OnCertifTxNextPacketTimerEvent
                0x0800d3bc       0xb8 ./objects/lora-test.o
 .text.certif_running
                0x0800d474        0xc ./objects/lora-test.o
                0x0800d474                certif_running
 .text.certif_DownLinkIncrement
                0x0800d480       0x10 ./objects/lora-test.o
                0x0800d480                certif_DownLinkIncrement
 .text.certif_linkCheck
                0x0800d490       0x1c ./objects/lora-test.o
                0x0800d490                certif_linkCheck
 .text.certif_rx
                0x0800d4ac      0x568 ./objects/lora-test.o
                0x0800d4ac                certif_rx
 .text.OnRadioRxError
                0x0800da14       0x2c ./objects/loramac.o
 .text.EventCryptoNvmCtxChanged
                0x0800da40       0x20 ./objects/loramac.o
 .text.EventSecureElementNvmCtxChanged
                0x0800da60       0x20 ./objects/loramac.o
 .text.EventCommandsNvmCtxChanged
                0x0800da80       0x20 ./objects/loramac.o
 .text.EventClassBNvmCtxChanged
                0x0800daa0       0x20 ./objects/loramac.o
 .text.EventConfirmQueueNvmCtxChanged
                0x0800dac0       0x20 ./objects/loramac.o
 .text.EventFCntHandlerNvmCtxChanged
                0x0800dae0       0x20 ./objects/loramac.o
 .text.OnAckTimeoutTimerEvent
                0x0800db00       0x58 ./objects/loramac.o
 .text.OnRadioRxTimeout
                0x0800db58       0x50 ./objects/loramac.o
 .text.OnRadioTxTimeout
                0x0800dba8       0x50 ./objects/loramac.o
 .text.OnRadioRxDone
                0x0800dbf8       0x6c ./objects/loramac.o
 .text.OnRadioTxDone
                0x0800dc64       0x70 ./objects/loramac.o
 .text.OnRxWindow1TimerEvent
                0x0800dcd4       0xc4 ./objects/loramac.o
 .text.unlikely.ProcessMacCommands.isra.2.constprop.6
                0x0800dd98      0x534 ./objects/loramac.o
 .text.OnRxWindow2TimerEvent
                0x0800e2cc       0xb4 ./objects/loramac.o
 .text.PrepareRxDoneAbort
                0x0800e380       0x7c ./objects/loramac.o
 .text.HandleRadioRxErrorTimeout
                0x0800e3fc      0x1f4 ./objects/loramac.o
 .text.SendFrameOnChannel
                0x0800e5f0      0x110 ./objects/loramac.o
                0x0800e5f0                SendFrameOnChannel
 .text.Send     0x0800e700      0x550 ./objects/loramac.o
                0x0800e700                Send
 .text.OnTxDelayedTimerEvent
                0x0800ec50      0x334 ./objects/loramac.o
 .text.LoRaMacProcess
                0x0800ef84     0x10b4 ./objects/loramac.o
                0x0800ef84                LoRaMacProcess
 .text.SendReJoinReq
                0x08010038      0x2b4 ./objects/loramac.o
                0x08010038                SendReJoinReq
 .text.RestoreCtxs
                0x080102ec       0xa4 ./objects/loramac.o
                0x080102ec                RestoreCtxs
 .text.LoRaMacInitialization
                0x08010390      0x498 ./objects/loramac.o
                0x08010390                LoRaMacInitialization
 .text.LoRaMacStart
                0x08010828       0x14 ./objects/loramac.o
                0x08010828                LoRaMacStart
 .text.LoRaMacQueryTxPossible
                0x0801083c       0xe4 ./objects/loramac.o
                0x0801083c                LoRaMacQueryTxPossible
 .text.LoRaMacMibGetRequestConfirm
                0x08010920      0x264 ./objects/loramac.o
                0x08010920                LoRaMacMibGetRequestConfirm
 .text.LoRaMacMibSetRequestConfirm
                0x08010b84      0x5b0 ./objects/loramac.o
                0x08010b84                LoRaMacMibSetRequestConfirm
 .text.LoRaMacMlmeRequest
                0x08011134      0x2cc ./objects/loramac.o
                0x08011134                LoRaMacMlmeRequest
 .text.LoRaMacMcpsRequest
                0x08011400      0x190 ./objects/loramac.o
                0x08011400                LoRaMacMcpsRequest
 .text.LoRaMacTestSetDutyCycleOn
                0x08011590       0x30 ./objects/loramac.o
                0x08011590                LoRaMacTestSetDutyCycleOn
 .text.DummyCB  0x080115c0        0x4 ./objects/loramaccrypto.o
 .text.PayloadEncrypt
                0x080115c4      0x210 ./objects/loramaccrypto.o
 .text.ComputeCmacB1.constprop.5
                0x080117d4       0xb8 ./objects/loramaccrypto.o
 .text.VerifyCmacB0.constprop.6
                0x0801188c       0xb8 ./objects/loramaccrypto.o
 .text.ComputeCmacB0.part.4.constprop.7
                0x08011944       0x98 ./objects/loramaccrypto.o
 .text.LoRaMacCryptoInit
                0x080119dc       0x58 ./objects/loramaccrypto.o
                0x080119dc                LoRaMacCryptoInit
 .text.LoRaMacCryptoSetLrWanVersion
                0x08011a34        0xc ./objects/loramaccrypto.o
                0x08011a34                LoRaMacCryptoSetLrWanVersion
 .text.LoRaMacCryptoRestoreNvmCtx
                0x08011a40       0x20 ./objects/loramaccrypto.o
                0x08011a40                LoRaMacCryptoRestoreNvmCtx
 .text.LoRaMacCryptoGetNvmCtx
                0x08011a60       0x10 ./objects/loramaccrypto.o
                0x08011a60                LoRaMacCryptoGetNvmCtx
 .text.LoRaMacCryptoSetKey
                0x08011a70       0x14 ./objects/loramaccrypto.o
                0x08011a70                LoRaMacCryptoSetKey
 .text.LoRaMacCryptoPrepareJoinRequest
                0x08011a84       0xb8 ./objects/loramaccrypto.o
                0x08011a84                LoRaMacCryptoPrepareJoinRequest
 .text.LoRaMacCryptoHandleJoinAccept
                0x08011b3c      0x3a8 ./objects/loramaccrypto.o
                0x08011b3c                LoRaMacCryptoHandleJoinAccept
 .text.LoRaMacCryptoSecureMessage
                0x08011ee4      0x33c ./objects/loramaccrypto.o
                0x08011ee4                LoRaMacCryptoSecureMessage
 .text.LoRaMacCryptoUnsecureMessage
                0x08012220      0x304 ./objects/loramaccrypto.o
                0x08012220                LoRaMacCryptoUnsecureMessage
 .text.LoRaMacClassBInit
                0x08012524        0x4 ./objects/loramacclassb.o
                0x08012524                LoRaMacClassBInit
 .text.LoRaMacClassBRestoreNvmCtx
                0x08012528        0x4 ./objects/loramacclassb.o
                0x08012528                LoRaMacClassBRestoreNvmCtx
 .text.LoRaMacClassBGetNvmCtx
                0x0801252c        0x8 ./objects/loramacclassb.o
                0x0801252c                LoRaMacClassBGetNvmCtx
 .text.LoRaMacClassBSetBeaconState
                0x08012534        0x4 ./objects/loramacclassb.o
                0x08012534                LoRaMacClassBSetBeaconState
 .text.LoRaMacClassBSetPingSlotState
                0x08012538        0x4 ./objects/loramacclassb.o
                0x08012538                LoRaMacClassBSetPingSlotState
 .text.LoRaMacClassBSetMulticastSlotState
                0x0801253c        0x4 ./objects/loramacclassb.o
                0x0801253c                LoRaMacClassBSetMulticastSlotState
 .text.LoRaMacClassBIsAcquisitionInProgress
                0x08012540        0x4 ./objects/loramacclassb.o
                0x08012540                LoRaMacClassBIsAcquisitionInProgress
 .text.LoRaMacClassBBeaconTimerEvent
                0x08012544        0x4 ./objects/loramacclassb.o
                0x08012544                LoRaMacClassBBeaconTimerEvent
 .text.LoRaMacClassBPingSlotTimerEvent
                0x08012548        0x4 ./objects/loramacclassb.o
                0x08012548                LoRaMacClassBPingSlotTimerEvent
 .text.LoRaMacClassBMulticastSlotTimerEvent
                0x0801254c        0x4 ./objects/loramacclassb.o
                0x0801254c                LoRaMacClassBMulticastSlotTimerEvent
 .text.LoRaMacClassBRxBeacon
                0x08012550        0x4 ./objects/loramacclassb.o
                0x08012550                LoRaMacClassBRxBeacon
 .text.LoRaMacClassBIsBeaconExpected
                0x08012554        0x4 ./objects/loramacclassb.o
                0x08012554                LoRaMacClassBIsBeaconExpected
 .text.LoRaMacClassBIsPingExpected
                0x08012558        0x4 ./objects/loramacclassb.o
                0x08012558                LoRaMacClassBIsPingExpected
 .text.LoRaMacClassBIsMulticastExpected
                0x0801255c        0x4 ./objects/loramacclassb.o
                0x0801255c                LoRaMacClassBIsMulticastExpected
 .text.LoRaMacClassBIsBeaconModeActive
                0x08012560        0x4 ./objects/loramacclassb.o
                0x08012560                LoRaMacClassBIsBeaconModeActive
 .text.LoRaMacClassBSetPingSlotInfo
                0x08012564        0x4 ./objects/loramacclassb.o
                0x08012564                LoRaMacClassBSetPingSlotInfo
 .text.LoRaMacClassBHaltBeaconing
                0x08012568        0x4 ./objects/loramacclassb.o
                0x08012568                LoRaMacClassBHaltBeaconing
 .text.LoRaMacClassBResumeBeaconing
                0x0801256c        0x4 ./objects/loramacclassb.o
                0x0801256c                LoRaMacClassBResumeBeaconing
 .text.LoRaMacClassBSwitchClass
                0x08012570        0x4 ./objects/loramacclassb.o
                0x08012570                LoRaMacClassBSwitchClass
 .text.LoRaMacClassBMibGetRequestConfirm
                0x08012574        0x4 ./objects/loramacclassb.o
                0x08012574                LoRaMacClassBMibGetRequestConfirm
 .text.LoRaMacMibClassBSetRequestConfirm
                0x08012578        0x4 ./objects/loramacclassb.o
                0x08012578                LoRaMacMibClassBSetRequestConfirm
 .text.LoRaMacClassBPingSlotInfoAns
                0x0801257c        0x4 ./objects/loramacclassb.o
                0x0801257c                LoRaMacClassBPingSlotInfoAns
 .text.LoRaMacClassBPingSlotChannelReq
                0x08012580        0x4 ./objects/loramacclassb.o
                0x08012580                LoRaMacClassBPingSlotChannelReq
 .text.LoRaMacClassBBeaconTimingAns
                0x08012584        0x4 ./objects/loramacclassb.o
                0x08012584                LoRaMacClassBBeaconTimingAns
 .text.LoRaMacClassBDeviceTimeAns
                0x08012588        0x4 ./objects/loramacclassb.o
                0x08012588                LoRaMacClassBDeviceTimeAns
 .text.LoRaMacClassBBeaconFreqReq
                0x0801258c        0x4 ./objects/loramacclassb.o
                0x0801258c                LoRaMacClassBBeaconFreqReq
 .text.LoRaMacClassBIsUplinkCollision
                0x08012590        0x4 ./objects/loramacclassb.o
                0x08012590                LoRaMacClassBIsUplinkCollision
 .text.LoRaMacClassBStopRxSlots
                0x08012594        0x4 ./objects/loramacclassb.o
                0x08012594                LoRaMacClassBStopRxSlots
 .text.LoRaMacClassBProcess
                0x08012598        0x4 ./objects/loramacclassb.o
                0x08012598                LoRaMacClassBProcess
 .text.LoRaMacCommandsInit
                0x0801259c       0x28 ./objects/loramaccommands.o
                0x0801259c                LoRaMacCommandsInit
 .text.LoRaMacCommandsRestoreNvmCtx
                0x080125c4       0x1c ./objects/loramaccommands.o
                0x080125c4                LoRaMacCommandsRestoreNvmCtx
 .text.LoRaMacCommandsGetNvmCtx
                0x080125e0        0xc ./objects/loramaccommands.o
                0x080125e0                LoRaMacCommandsGetNvmCtx
 .text.LoRaMacCommandsAddCmd
                0x080125ec      0x104 ./objects/loramaccommands.o
                0x080125ec                LoRaMacCommandsAddCmd
 .text.LoRaMacCommandsRemoveNoneStickyCmds
                0x080126f0       0x9c ./objects/loramaccommands.o
                0x080126f0                LoRaMacCommandsRemoveNoneStickyCmds
 .text.LoRaMacCommandsRemoveStickyAnsCmds
                0x0801278c       0xb4 ./objects/loramaccommands.o
                0x0801278c                LoRaMacCommandsRemoveStickyAnsCmds
 .text.LoRaMacCommandsGetSizeSerializedCmds
                0x08012840       0x18 ./objects/loramaccommands.o
                0x08012840                LoRaMacCommandsGetSizeSerializedCmds
 .text.LoRaMacCommandsSerializeCmds
                0x08012858       0x5c ./objects/loramaccommands.o
                0x08012858                LoRaMacCommandsSerializeCmds
 .text.LoRaMacCommandsStickyCmdsPending
                0x080128b4       0x34 ./objects/loramaccommands.o
                0x080128b4                LoRaMacCommandsStickyCmdsPending
 .text.LoRaMacConfirmQueueInit
                0x080128e8       0x30 ./objects/loramacconfirmqueue.o
                0x080128e8                LoRaMacConfirmQueueInit
 .text.LoRaMacConfirmQueueRestoreNvmCtx
                0x08012918       0x20 ./objects/loramacconfirmqueue.o
                0x08012918                LoRaMacConfirmQueueRestoreNvmCtx
 .text.LoRaMacConfirmQueueGetNvmCtx
                0x08012938       0x10 ./objects/loramacconfirmqueue.o
                0x08012938                LoRaMacConfirmQueueGetNvmCtx
 .text.LoRaMacConfirmQueueAdd
                0x08012948       0x40 ./objects/loramacconfirmqueue.o
                0x08012948                LoRaMacConfirmQueueAdd
 .text.LoRaMacConfirmQueueSetStatus
                0x08012988       0x44 ./objects/loramacconfirmqueue.o
                0x08012988                LoRaMacConfirmQueueSetStatus
 .text.LoRaMacConfirmQueueGetStatus
                0x080129cc       0x48 ./objects/loramacconfirmqueue.o
                0x080129cc                LoRaMacConfirmQueueGetStatus
 .text.LoRaMacConfirmQueueSetStatusCmn
                0x08012a14       0x3c ./objects/loramacconfirmqueue.o
                0x08012a14                LoRaMacConfirmQueueSetStatusCmn
 .text.LoRaMacConfirmQueueGetStatusCmn
                0x08012a50        0xc ./objects/loramacconfirmqueue.o
                0x08012a50                LoRaMacConfirmQueueGetStatusCmn
 .text.LoRaMacConfirmQueueIsCmdActive
                0x08012a5c       0x3c ./objects/loramacconfirmqueue.o
                0x08012a5c                LoRaMacConfirmQueueIsCmdActive
 .text.LoRaMacConfirmQueueHandleCb
                0x08012a98       0xcc ./objects/loramacconfirmqueue.o
                0x08012a98                LoRaMacConfirmQueueHandleCb
 .text.LoRaMacConfirmQueueGetCnt
                0x08012b64        0xc ./objects/loramacconfirmqueue.o
                0x08012b64                LoRaMacConfirmQueueGetCnt
 .text.LoRaMacConfirmQueueIsFull
                0x08012b70       0x14 ./objects/loramacconfirmqueue.o
                0x08012b70                LoRaMacConfirmQueueIsFull
 .text.LoRaMacFCntHandlerInit
                0x08012b84       0x2c ./objects/loramacfcnthandler.o
                0x08012b84                LoRaMacFCntHandlerInit
 .text.LoRaMacFCntHandlerRestoreNvmCtx
                0x08012bb0       0x1c ./objects/loramacfcnthandler.o
                0x08012bb0                LoRaMacFCntHandlerRestoreNvmCtx
 .text.LoRaMacFCntHandlerGetNvmCtx
                0x08012bcc        0xc ./objects/loramacfcnthandler.o
                0x08012bcc                LoRaMacFCntHandlerGetNvmCtx
 .text.LoRaMacGetFCntDown
                0x08012bd8       0xe4 ./objects/loramacfcnthandler.o
                0x08012bd8                LoRaMacGetFCntDown
 .text.LoRaMacSetFCntDown
                0x08012cbc       0x58 ./objects/loramacfcnthandler.o
                0x08012cbc                LoRaMacSetFCntDown
 .text.LoRaMacGetFCntUp
                0x08012d14       0x18 ./objects/loramacfcnthandler.o
                0x08012d14                LoRaMacGetFCntUp
 .text.LoRaMacSetFCntUp
                0x08012d2c       0x18 ./objects/loramacfcnthandler.o
                0x08012d2c                LoRaMacSetFCntUp
 .text.LoRaMacResetFCnts
                0x08012d44       0x28 ./objects/loramacfcnthandler.o
                0x08012d44                LoRaMacResetFCnts
 .text.LoRaMacFCntHandlerSetMulticastReference
                0x08012d6c       0x28 ./objects/loramacfcnthandler.o
                0x08012d6c                LoRaMacFCntHandlerSetMulticastReference
 .text.LoRaMacParserJoinAccept
                0x08012d94       0xa0 ./objects/loramacparser.o
                0x08012d94                LoRaMacParserJoinAccept
 .text.LoRaMacParserData
                0x08012e34       0xb8 ./objects/loramacparser.o
                0x08012e34                LoRaMacParserData
 .text.LoRaMacSerializerJoinRequest
                0x08012eec       0x68 ./objects/loramacserializer.o
                0x08012eec                LoRaMacSerializerJoinRequest
 .text.LoRaMacSerializerData
                0x08012f54       0xdc ./objects/loramacserializer.o
                0x08012f54                LoRaMacSerializerData
 .text.LoRaMacAdrCalcNext
                0x08013030       0xf0 ./objects/loramacadr.o
                0x08013030                LoRaMacAdrCalcNext
 .text.RegionIsActive
                0x08013120        0x8 ./objects/region.o
                0x08013120                RegionIsActive
 .text.RegionGetPhyParam
                0x08013128       0x1c ./objects/region.o
                0x08013128                RegionGetPhyParam
 .text.RegionSetBandTxDone
                0x08013144       0x10 ./objects/region.o
                0x08013144                RegionSetBandTxDone
 .text.RegionInitDefaults
                0x08013154       0x10 ./objects/region.o
                0x08013154                RegionInitDefaults
 .text.RegionGetNvmCtx
                0x08013164       0x14 ./objects/region.o
                0x08013164                RegionGetNvmCtx
 .text.RegionVerify
                0x08013178       0x18 ./objects/region.o
                0x08013178                RegionVerify
 .text.RegionApplyCFList
                0x08013190       0x10 ./objects/region.o
                0x08013190                RegionApplyCFList
 .text.RegionChanMaskSet
                0x080131a0       0x14 ./objects/region.o
                0x080131a0                RegionChanMaskSet
 .text.RegionComputeRxWindowParameters
                0x080131b4       0x18 ./objects/region.o
                0x080131b4                RegionComputeRxWindowParameters
 .text.RegionRxConfig
                0x080131cc       0x18 ./objects/region.o
                0x080131cc                RegionRxConfig
 .text.RegionTxConfig
                0x080131e4       0x18 ./objects/region.o
                0x080131e4                RegionTxConfig
 .text.RegionLinkAdrReq
                0x080131fc       0x24 ./objects/region.o
                0x080131fc                RegionLinkAdrReq
 .text.RegionRxParamSetupReq
                0x08013220       0x14 ./objects/region.o
                0x08013220                RegionRxParamSetupReq
 .text.RegionNewChannelReq
                0x08013234       0x14 ./objects/region.o
                0x08013234                RegionNewChannelReq
 .text.RegionTxParamSetupReq
                0x08013248       0x14 ./objects/region.o
                0x08013248                RegionTxParamSetupReq
 .text.RegionDlChannelReq
                0x0801325c       0x14 ./objects/region.o
                0x0801325c                RegionDlChannelReq
 .text.RegionAlternateDr
                0x08013270       0x18 ./objects/region.o
                0x08013270                RegionAlternateDr
 .text.RegionCalcBackOff
                0x08013288       0x10 ./objects/region.o
                0x08013288                RegionCalcBackOff
 .text.RegionNextChannel
                0x08013298       0x1c ./objects/region.o
                0x08013298                RegionNextChannel
 .text.RegionSetContinuousWave
                0x080132b4       0x10 ./objects/region.o
                0x080132b4                RegionSetContinuousWave
 .text.RegionApplyDrOffset
                0x080132c4       0x18 ./objects/region.o
                0x080132c4                RegionApplyDrOffset
 .text.RegionCommonValueInRange
                0x080132dc       0x14 ./objects/regioncommon.o
                0x080132dc                RegionCommonValueInRange
 .text.RegionCommonChanDisable
                0x080132f0       0x28 ./objects/regioncommon.o
                0x080132f0                RegionCommonChanDisable
 .text.RegionCommonCountChannels
                0x08013318       0xec ./objects/regioncommon.o
                0x08013318                RegionCommonCountChannels
 .text.RegionCommonChanMaskCopy
                0x08013404       0x74 ./objects/regioncommon.o
                0x08013404                RegionCommonChanMaskCopy
 .text.RegionCommonSetBandTxDone
                0x08013478        0xc ./objects/regioncommon.o
                0x08013478                RegionCommonSetBandTxDone
 .text.RegionCommonUpdateBandTimeOff
                0x08013484       0xd8 ./objects/regioncommon.o
                0x08013484                RegionCommonUpdateBandTimeOff
 .text.RegionCommonParseLinkAdrReq
                0x0801355c       0x38 ./objects/regioncommon.o
                0x0801355c                RegionCommonParseLinkAdrReq
 .text.RegionCommonLinkAdrReqVerifyParams
                0x08013594      0x134 ./objects/regioncommon.o
                0x08013594                RegionCommonLinkAdrReqVerifyParams
 .text.RegionCommonComputeSymbolTimeLoRa
                0x080136c8       0x34 ./objects/regioncommon.o
                0x080136c8                RegionCommonComputeSymbolTimeLoRa
 .text.RegionCommonComputeSymbolTimeFsk
                0x080136fc       0x18 ./objects/regioncommon.o
                0x080136fc                RegionCommonComputeSymbolTimeFsk
 .text.RegionCommonComputeRxWindowParameters
                0x08013714       0xbc ./objects/regioncommon.o
                0x08013714                RegionCommonComputeRxWindowParameters
 .text.RegionCommonComputeTxPower
                0x080137d0       0x2c ./objects/regioncommon.o
                0x080137d0                RegionCommonComputeTxPower
 .text.RegionCommonCalcBackOff
                0x080137fc       0x90 ./objects/regioncommon.o
                0x080137fc                RegionCommonCalcBackOff
 .text.RegionEU868GetPhyParam
                0x0801388c      0x108 ./objects/regioneu868.o
                0x0801388c                RegionEU868GetPhyParam
 .text.RegionEU868SetBandTxDone
                0x08013994       0x24 ./objects/regioneu868.o
                0x08013994                RegionEU868SetBandTxDone
 .text.RegionEU868InitDefaults
                0x080139b8       0xb4 ./objects/regioneu868.o
                0x080139b8                RegionEU868InitDefaults
 .text.RegionEU868GetNvmCtx
                0x08013a6c       0x10 ./objects/regioneu868.o
                0x08013a6c                RegionEU868GetNvmCtx
 .text.RegionEU868Verify
                0x08013a7c       0x48 ./objects/regioneu868.o
                0x08013a7c                RegionEU868Verify
 .text.RegionEU868ApplyCFList
                0x08013ac4      0x1b8 ./objects/regioneu868.o
                0x08013ac4                RegionEU868ApplyCFList
 .text.RegionEU868ChanMaskSet
                0x08013c7c       0x34 ./objects/regioneu868.o
                0x08013c7c                RegionEU868ChanMaskSet
 .text.RegionEU868ComputeRxWindowParameters
                0x08013cb0       0x94 ./objects/regioneu868.o
                0x08013cb0                RegionEU868ComputeRxWindowParameters
 .text.RegionEU868RxConfig
                0x08013d44      0x10c ./objects/regioneu868.o
                0x08013d44                RegionEU868RxConfig
 .text.RegionEU868TxConfig
                0x08013e50      0x13c ./objects/regioneu868.o
                0x08013e50                RegionEU868TxConfig
 .text.RegionEU868LinkAdrReq
                0x08013f8c      0x300 ./objects/regioneu868.o
                0x08013f8c                RegionEU868LinkAdrReq
 .text.RegionEU868RxParamSetupReq
                0x0801428c       0x9c ./objects/regioneu868.o
                0x0801428c                RegionEU868RxParamSetupReq
 .text.RegionEU868NewChannelReq
                0x08014328      0x190 ./objects/regioneu868.o
                0x08014328                RegionEU868NewChannelReq
 .text.RegionEU868TxParamSetupReq
                0x080144b8        0x8 ./objects/regioneu868.o
                0x080144b8                RegionEU868TxParamSetupReq
 .text.RegionEU868DlChannelReq
                0x080144c0       0x9c ./objects/regioneu868.o
                0x080144c0                RegionEU868DlChannelReq
 .text.RegionEU868AlternateDr
                0x0801455c        0x4 ./objects/regioneu868.o
                0x0801455c                RegionEU868AlternateDr
 .text.RegionEU868CalcBackOff
                0x08014560       0x34 ./objects/regioneu868.o
                0x08014560                RegionEU868CalcBackOff
 .text.RegionEU868NextChannel
                0x08014594      0x1c8 ./objects/regioneu868.o
                0x08014594                RegionEU868NextChannel
 .text.RegionEU868SetContinuousWave
                0x0801475c       0x50 ./objects/regioneu868.o
                0x0801475c                RegionEU868SetContinuousWave
 .text.RegionEU868ApplyDrOffset
                0x080147ac       0x10 ./objects/regioneu868.o
                0x080147ac                RegionEU868ApplyDrOffset
 .text.LPM_SetOffMode
                0x080147bc       0x2c ./objects/low_power_manager.o
                0x080147bc                LPM_SetOffMode
 .text.LPM_SetStopMode
                0x080147e8       0x2c ./objects/low_power_manager.o
                0x080147e8                LPM_SetStopMode
 .text.LPM_GetMode
                0x08014814       0x24 ./objects/low_power_manager.o
                0x08014814                LPM_GetMode
 .text.LPM_ExitSleepMode
                0x08014838        0x4 ./objects/low_power_manager.o
                0x08014838                LPM_ExitSleepMode
 .text.LPM_EnterOffMode
                0x0801483c        0x4 ./objects/low_power_manager.o
                0x0801483c                LPM_EnterOffMode
 .text.LPM_ExitOffMode
                0x08014840        0x4 ./objects/low_power_manager.o
                0x08014840                LPM_ExitOffMode
 .text.LPM_EnterLowPower
                0x08014844       0x34 ./objects/low_power_manager.o
                0x08014844                LPM_EnterLowPower
 .text.TimerInit
                0x08014878       0x14 ./objects/timeserver.o
                0x08014878                TimerInit
 .text.TimerStart
                0x0801488c       0xd8 ./objects/timeserver.o
                0x0801488c                TimerStart
 .text.TimerIsStarted
                0x08014964        0x4 ./objects/timeserver.o
                0x08014964                TimerIsStarted
 .text.TimerIrqHandler
                0x08014968       0xc0 ./objects/timeserver.o
                0x08014968                TimerIrqHandler
 .text.TimerStop
                0x08014a28       0x88 ./objects/timeserver.o
                0x08014a28                TimerStop
 .text.TimerSetValue
                0x08014ab0       0xb8 ./objects/timeserver.o
                0x08014ab0                TimerSetValue
 .text.TimerGetCurrentTime
                0x08014b68        0xc ./objects/timeserver.o
                0x08014b68                TimerGetCurrentTime
 .text.TimerGetElapsedTime
                0x08014b74       0x18 ./objects/timeserver.o
                0x08014b74                TimerGetElapsedTime
 .text.rand1    0x08014b8c       0x2c ./objects/utilities.o
                0x08014b8c                rand1
 .text.srand1   0x08014bb8        0xc ./objects/utilities.o
                0x08014bb8                srand1
 .text.randr    0x08014bc4       0x3c ./objects/utilities.o
                0x08014bc4                randr
 .text.memcpy1  0x08014c00       0x84 ./objects/utilities.o
                0x08014c00                memcpy1
 .text.memcpyr  0x08014c84       0x1c ./objects/utilities.o
                0x08014c84                memcpyr
 .text.memset1  0x08014ca0       0x14 ./objects/utilities.o
                0x08014ca0                memset1
 .text.circular_queue_init
                0x08014cb4       0x10 ./objects/queue.o
                0x08014cb4                circular_queue_init
 .text.circular_queue_add
                0x08014cc4      0x31c ./objects/queue.o
                0x08014cc4                circular_queue_add
 .text.circular_queue_get
                0x08014fe0       0x40 ./objects/queue.o
                0x08014fe0                circular_queue_get
 .text.circular_queue_remove
                0x08015020       0x54 ./objects/queue.o
                0x08015020                circular_queue_remove
 .text.circular_queue_sense
                0x08015074        0xc ./objects/queue.o
                0x08015074                circular_queue_sense
 .text.Trace_TxCpltCallback
                0x08015080       0x58 ./objects/trace.o
 .text.TraceInit
                0x080150d8       0x24 ./objects/trace.o
                0x080150d8                TraceInit
 .text.TraceSend
                0x080150fc       0x80 ./objects/trace.o
                0x080150fc                TraceSend
 .text.SysTimeAdd
                0x0801517c       0x3c ./objects/systime.o
                0x0801517c                SysTimeAdd
 .text.SysTimeSub
                0x080151b8       0x34 ./objects/systime.o
                0x080151b8                SysTimeSub
 .text.SysTimeSet
                0x080151ec       0x40 ./objects/systime.o
                0x080151ec                SysTimeSet
 .text.SysTimeGet
                0x0801522c       0x58 ./objects/systime.o
                0x0801522c                SysTimeGet
 .text.SysTimeGetMcuTime
                0x08015284       0x24 ./objects/systime.o
                0x08015284                SysTimeGetMcuTime
 .text.aes_encrypt.part.0
                0x080152a8      0x3b0 ./objects/aes.o
 .text.aes_set_key
                0x08015658      0x234 ./objects/aes.o
                0x08015658                aes_set_key
 .text.aes_encrypt
                0x0801588c       0x18 ./objects/aes.o
                0x0801588c                aes_encrypt
 .text.AES_CMAC_Init
                0x080158a4       0x24 ./objects/cmac.o
                0x080158a4                AES_CMAC_Init
 .text.AES_CMAC_SetKey
                0x080158c8       0x10 ./objects/cmac.o
                0x080158c8                AES_CMAC_SetKey
 .text.AES_CMAC_Update
                0x080158d8      0x1e4 ./objects/cmac.o
                0x080158d8                AES_CMAC_Update
 .text.AES_CMAC_Final
                0x08015abc      0x4b8 ./objects/cmac.o
                0x08015abc                AES_CMAC_Final
 .text.DummyCB  0x08015f74        0x4 ./objects/soft-se.o
 .text.SecureElementInit
                0x08015f78       0xe4 ./objects/soft-se.o
                0x08015f78                SecureElementInit
 .text.SecureElementRestoreNvmCtx
                0x0801605c       0x20 ./objects/soft-se.o
                0x0801605c                SecureElementRestoreNvmCtx
 .text.SecureElementGetNvmCtx
                0x0801607c       0x10 ./objects/soft-se.o
                0x0801607c                SecureElementGetNvmCtx
 .text.SecureElementSetKey
                0x0801608c       0xb8 ./objects/soft-se.o
                0x0801608c                SecureElementSetKey
 .text.SecureElementComputeAesCmac
                0x08016144       0x84 ./objects/soft-se.o
                0x08016144                SecureElementComputeAesCmac
 .text.SecureElementVerifyAesCmac
                0x080161c8       0x80 ./objects/soft-se.o
                0x080161c8                SecureElementVerifyAesCmac
 .text.SecureElementAesEncrypt
                0x08016248       0x90 ./objects/soft-se.o
                0x08016248                SecureElementAesEncrypt
 .text.SecureElementDeriveAndStoreKey
                0x080162d8      0x120 ./objects/soft-se.o
                0x080162d8                SecureElementDeriveAndStoreKey
 .text.ceil     0x080163f8      0x128 c:/program files (x86)/gnu tools arm embedded/7 2018-q2-update/bin/../lib/gcc/arm-none-eabi/7.3.1/../../../../arm-none-eabi/lib/thumb/v6-m\libm.a(lib_a-s_ceil.o)
                0x080163f8                ceil
 .text.floor    0x08016520      0x138 c:/program files (x86)/gnu tools arm embedded/7 2018-q2-update/bin/../lib/gcc/arm-none-eabi/7.3.1/../../../../arm-none-eabi/lib/thumb/v6-m\libm.a(lib_a-s_floor.o)
                0x08016520                floor
 .text.round    0x08016658       0xb0 c:/program files (x86)/gnu tools arm embedded/7 2018-q2-update/bin/../lib/gcc/arm-none-eabi/7.3.1/../../../../arm-none-eabi/lib/thumb/v6-m\libm.a(lib_a-s_round.o)
                0x08016658                round
 .text.__libc_init_array
                0x08016708       0x48 c:/program files (x86)/gnu tools arm embedded/7 2018-q2-update/bin/../lib/gcc/arm-none-eabi/7.3.1/../../../../arm-none-eabi/lib/thumb/v6-m\libc_nano.a(lib_a-init.o)
                0x08016708                __libc_init_array
 .text.memset   0x08016750       0x10 c:/program files (x86)/gnu tools arm embedded/7 2018-q2-update/bin/../lib/gcc/arm-none-eabi/7.3.1/../../../../arm-none-eabi/lib/thumb/v6-m\libc_nano.a(lib_a-memset.o)
                0x08016750                memset
 .text._vsnprintf_r
                0x08016760       0x56 c:/program files (x86)/gnu tools arm embedded/7 2018-q2-update/bin/../lib/gcc/arm-none-eabi/7.3.1/../../../../arm-none-eabi/lib/thumb/v6-m\libc_nano.a(lib_a-vsnprintf.o)
                0x08016760                _vsniprintf_r
                0x08016760                _vsnprintf_r
 *fill*         0x080167b6        0x2 
 .text.vsnprintf
                0x080167b8       0x18 c:/program files (x86)/gnu tools arm embedded/7 2018-q2-update/bin/../lib/gcc/arm-none-eabi/7.3.1/../../../../arm-none-eabi/lib/thumb/v6-m\libc_nano.a(lib_a-vsnprintf.o)
                0x080167b8                vsniprintf
                0x080167b8                vsnprintf
 .text.__ssputs_r
                0x080167d0       0xc4 c:/program files (x86)/gnu tools arm embedded/7 2018-q2-update/bin/../lib/gcc/arm-none-eabi/7.3.1/../../../../arm-none-eabi/lib/thumb/v6-m\libc_nano.a(lib_a-nano-svfprintf.o)
                0x080167d0                __ssputs_r
 .text._svfprintf_r
                0x08016894      0x1fc c:/program files (x86)/gnu tools arm embedded/7 2018-q2-update/bin/../lib/gcc/arm-none-eabi/7.3.1/../../../../arm-none-eabi/lib/thumb/v6-m\libc_nano.a(lib_a-nano-svfprintf.o)
                0x08016894                _svfiprintf_r
                0x08016894                _svfprintf_r
 .text._printf_common
                0x08016a90       0xda c:/program files (x86)/gnu tools arm embedded/7 2018-q2-update/bin/../lib/gcc/arm-none-eabi/7.3.1/../../../../arm-none-eabi/lib/thumb/v6-m\libc_nano.a(lib_a-nano-vfprintf_i.o)
                0x08016a90                _printf_common
 *fill*         0x08016b6a        0x2 
 .text._printf_i
                0x08016b6c      0x210 c:/program files (x86)/gnu tools arm embedded/7 2018-q2-update/bin/../lib/gcc/arm-none-eabi/7.3.1/../../../../arm-none-eabi/lib/thumb/v6-m\libc_nano.a(lib_a-nano-vfprintf_i.o)
                0x08016b6c                _printf_i
 .text.memchr   0x08016d7c       0x16 c:/program files (x86)/gnu tools arm embedded/7 2018-q2-update/bin/../lib/gcc/arm-none-eabi/7.3.1/../../../../arm-none-eabi/lib/thumb/v6-m\libc_nano.a(lib_a-memchr-stub.o)
                0x08016d7c                memchr
 .text.memcpy   0x08016d92       0x12 c:/program files (x86)/gnu tools arm embedded/7 2018-q2-update/bin/../lib/gcc/arm-none-eabi/7.3.1/../../../../arm-none-eabi/lib/thumb/v6-m\libc_nano.a(lib_a-memcpy-stub.o)
                0x08016d92                memcpy
 .text.memmove  0x08016da4       0x26 c:/program files (x86)/gnu tools arm embedded/7 2018-q2-update/bin/../lib/gcc/arm-none-eabi/7.3.1/../../../../arm-none-eabi/lib/thumb/v6-m\libc_nano.a(lib_a-memmove.o)
                0x08016da4                memmove
 *fill*         0x08016dca        0x2 
 .text._free_r  0x08016dcc       0x94 c:/program files (x86)/gnu tools arm embedded/7 2018-q2-update/bin/../lib/gcc/arm-none-eabi/7.3.1/../../../../arm-none-eabi/lib/thumb/v6-m\libc_nano.a(lib_a-nano-freer.o)
                0x08016dcc                _free_r
 .text._malloc_r
                0x08016e60       0xbc c:/program files (x86)/gnu tools arm embedded/7 2018-q2-update/bin/../lib/gcc/arm-none-eabi/7.3.1/../../../../arm-none-eabi/lib/thumb/v6-m\libc_nano.a(lib_a-nano-mallocr.o)
                0x08016e60                _malloc_r
 .text._realloc_r
                0x08016f1c       0x4c c:/program files (x86)/gnu tools arm embedded/7 2018-q2-update/bin/../lib/gcc/arm-none-eabi/7.3.1/../../../../arm-none-eabi/lib/thumb/v6-m\libc_nano.a(lib_a-nano-reallocr.o)
                0x08016f1c                _realloc_r
 .text._sbrk_r  0x08016f68       0x24 c:/program files (x86)/gnu tools arm embedded/7 2018-q2-update/bin/../lib/gcc/arm-none-eabi/7.3.1/../../../../arm-none-eabi/lib/thumb/v6-m\libc_nano.a(lib_a-sbrkr.o)
                0x08016f68                _sbrk_r
 .text.__malloc_lock
                0x08016f8c        0x2 c:/program files (x86)/gnu tools arm embedded/7 2018-q2-update/bin/../lib/gcc/arm-none-eabi/7.3.1/../../../../arm-none-eabi/lib/thumb/v6-m\libc_nano.a(lib_a-mlock.o)
                0x08016f8c                __malloc_lock
 .text.__malloc_unlock
                0x08016f8e        0x2 c:/program files (x86)/gnu tools arm embedded/7 2018-q2-update/bin/../lib/gcc/arm-none-eabi/7.3.1/../../../../arm-none-eabi/lib/thumb/v6-m\libc_nano.a(lib_a-mlock.o)
                0x08016f8e                __malloc_unlock
 .text._malloc_usable_size_r
                0x08016f90       0x10 c:/program files (x86)/gnu tools arm embedded/7 2018-q2-update/bin/../lib/gcc/arm-none-eabi/7.3.1/../../../../arm-none-eabi/lib/thumb/v6-m\libc_nano.a(lib_a-nano-msizer.o)
                0x08016f90                _malloc_usable_size_r
 .text._sbrk    0x08016fa0       0x1c c:/program files (x86)/gnu tools arm embedded/7 2018-q2-update/bin/../lib/gcc/arm-none-eabi/7.3.1/../../../../arm-none-eabi/lib/thumb/v6-m\libnosys.a(sbrk.o)
                0x08016fa0                _sbrk
 *(.glue_7)
 .glue_7        0x08016fbc        0x0 linker stubs
 *(.glue_7t)
 .glue_7t       0x08016fbc        0x0 linker stubs
 *(.eh_frame)
 .eh_frame      0x08016fbc        0x0 c:/program files (x86)/gnu tools arm embedded/7 2018-q2-update/bin/../lib/gcc/arm-none-eabi/7.3.1/thumb/v6-m/crtbegin.o
 *(.init)
 .init          0x08016fbc        0x4 c:/program files (x86)/gnu tools arm embedded/7 2018-q2-update/bin/../lib/gcc/arm-none-eabi/7.3.1/thumb/v6-m/crti.o
                0x08016fbc                _init
 .init          0x08016fc0        0x8 c:/program files (x86)/gnu tools arm embedded/7 2018-q2-update/bin/../lib/gcc/arm-none-eabi/7.3.1/thumb/v6-m/crtn.o
 *(.fini)
 .fini          0x08016fc8        0x4 c:/program files (x86)/gnu tools arm embedded/7 2018-q2-update/bin/../lib/gcc/arm-none-eabi/7.3.1/thumb/v6-m/crti.o
                0x08016fc8                _fini
 .fini          0x08016fcc        0x8 c:/program files (x86)/gnu tools arm embedded/7 2018-q2-update/bin/../lib/gcc/arm-none-eabi/7.3.1/thumb/v6-m/crtn.o
                0x08016fd4                . = ALIGN (0x4)
                0x08016fd4                _etext = .

.vfp11_veneer   0x08016fd4        0x0
 .vfp11_veneer  0x08016fd4        0x0 linker stubs

.v4_bx          0x08016fd4        0x0
 .v4_bx         0x08016fd4        0x0 linker stubs

.iplt           0x08016fd4        0x0
 .iplt          0x08016fd4        0x0 c:/program files (x86)/gnu tools arm embedded/7 2018-q2-update/bin/../lib/gcc/arm-none-eabi/7.3.1/thumb/v6-m/crtbegin.o

.rodata         0x08016fd8     0x115c
                0x08016fd8                . = ALIGN (0x4)
 *(.rodata)
 .rodata        0x08016fd8      0x120 ./objects/sx1276.o
                0x08017000                RadioRegsInit
                0x08017048                FskBandwidths
 .rodata        0x080170f8       0x74 ./objects/mlm32l07x01.o
                0x080170f8                Radio
 .rodata        0x0801716c        0xe ./objects/b-l072z-lrwan1.o
                0x0801716c                LED_PIN
                0x08017174                BUTTON_IRQn
                0x08017178                BUTTON_PIN
 *fill*         0x0801717a        0x2 
 .rodata        0x0801717c       0x24 ./objects/system_stm32l0xx.o
                0x0801717c                PLLMulTable
                0x08017188                AHBPrescTable
                0x08017198                APBPrescTable
 .rodata        0x080171a0      0x17c ./objects/stm32l0xx_hal_uart.o
 .rodata        0x0801731c       0x18 ./objects/hw_rtc.o
 .rodata        0x08017334       0x20 ./objects/lora-test.o
 .rodata        0x08017354      0x214 ./objects/loramac.o
 .rodata        0x08017568       0x40 ./objects/loramaccrypto.o
 .rodata        0x080175a8       0x34 ./objects/loramacfcnthandler.o
 .rodata        0x080175dc      0x134 ./objects/regioneu868.o
 .rodata        0x08017710      0x300 ./objects/aes.o
 .rodata        0x08017a10       0x80 c:/program files (x86)/gnu tools arm embedded/7 2018-q2-update/bin/../lib/gcc/arm-none-eabi/7.3.1/thumb/v6-m\libgcc.a(divsf3.o)
 .rodata        0x08017a90       0x40 c:/program files (x86)/gnu tools arm embedded/7 2018-q2-update/bin/../lib/gcc/arm-none-eabi/7.3.1/thumb/v6-m\libgcc.a(mulsf3.o)
 .rodata        0x08017ad0       0x40 c:/program files (x86)/gnu tools arm embedded/7 2018-q2-update/bin/../lib/gcc/arm-none-eabi/7.3.1/thumb/v6-m\libgcc.a(divdf3.o)
 .rodata        0x08017b10       0x40 c:/program files (x86)/gnu tools arm embedded/7 2018-q2-update/bin/../lib/gcc/arm-none-eabi/7.3.1/thumb/v6-m\libgcc.a(muldf3.o)
 *(.rodata*)
 .rodata.str1.4
                0x08017b50       0x10 ./objects/debug.o
 .rodata.str1.4
                0x08017b60       0x72 ./objects/main.o
 *fill*         0x08017bd2        0x2 
 .rodata.str1.4
                0x08017bd4      0x4dd ./objects/lora.o
 *fill*         0x080180b1        0x3 
 .rodata.str1.4
                0x080180b4       0x4c ./objects/loramac.o
                                 0x49 (size before relaxing)
 .rodata._svfprintf_r.str1.1
                0x08018100       0x11 c:/program files (x86)/gnu tools arm embedded/7 2018-q2-update/bin/../lib/gcc/arm-none-eabi/7.3.1/../../../../arm-none-eabi/lib/thumb/v6-m\libc_nano.a(lib_a-nano-svfprintf.o)
 .rodata._printf_i.str1.1
                0x08018111       0x22 c:/program files (x86)/gnu tools arm embedded/7 2018-q2-update/bin/../lib/gcc/arm-none-eabi/7.3.1/../../../../arm-none-eabi/lib/thumb/v6-m\libc_nano.a(lib_a-nano-vfprintf_i.o)
                0x08018134                . = ALIGN (0x4)
 *fill*         0x08018133        0x1 

.ARM.extab
 *(.ARM.extab* .gnu.linkonce.armextab.*)

.ARM            0x08018134        0x8
                0x08018134                __exidx_start = .
 *(.ARM.exidx*)
 .ARM.exidx     0x08018134        0x8 c:/program files (x86)/gnu tools arm embedded/7 2018-q2-update/bin/../lib/gcc/arm-none-eabi/7.3.1/thumb/v6-m\libgcc.a(_udivmoddi4.o)
                0x0801813c                __exidx_end = .

.rel.dyn        0x0801813c        0x0
 .rel.iplt      0x0801813c        0x0 c:/program files (x86)/gnu tools arm embedded/7 2018-q2-update/bin/../lib/gcc/arm-none-eabi/7.3.1/thumb/v6-m/crtbegin.o

.preinit_array  0x0801813c        0x0
                0x0801813c                PROVIDE (__preinit_array_start = .)
 *(.preinit_array*)
                0x0801813c                PROVIDE (__preinit_array_end = .)

.init_array     0x0801813c        0x4
                0x0801813c                PROVIDE (__init_array_start = .)
 *(SORT_BY_NAME(.init_array.*))
 *(.init_array*)
 .init_array    0x0801813c        0x4 c:/program files (x86)/gnu tools arm embedded/7 2018-q2-update/bin/../lib/gcc/arm-none-eabi/7.3.1/thumb/v6-m/crtbegin.o
                0x08018140                PROVIDE (__init_array_end = .)

.fini_array     0x08018140        0x4
                [!provide]                PROVIDE (__fini_array_start = .)
 *(SORT_BY_NAME(.fini_array.*))
 *(.fini_array*)
 .fini_array    0x08018140        0x4 c:/program files (x86)/gnu tools arm embedded/7 2018-q2-update/bin/../lib/gcc/arm-none-eabi/7.3.1/thumb/v6-m/crtbegin.o
                [!provide]                PROVIDE (__fini_array_end = .)
                0x08018144                _sidata = LOADADDR (.data)

.data           0x20000000      0x200 load address 0x08018144
                0x20000000                . = ALIGN (0x4)
                0x20000000                _sdata = .
 *(.data)
 .data          0x20000000       0x18 ./objects/sx1276.o
                0x20000000                DioIrq
 .data          0x20000018       0x18 ./objects/mlm32l07x01.o
 .data          0x20000030       0x14 ./objects/b-l072z-lrwan1.o
                0x20000030                LED_PORT
                0x20000040                BUTTON_PORT
 .data          0x20000044        0x4 ./objects/system_stm32l0xx.o
                0x20000044                SystemCoreClock
 .data          0x20000048       0x30 ./objects/main.o
                0x20000048                AppData
 .data          0x20000078      0x108 ./objects/lora.o
                0x200000a8                MlmeReqStrings
                0x200000e4                MacStatusStrings
                0x2000013c                EventInfoStatusStrings
 .data          0x20000180       0x14 ./objects/loramaccrypto.o
 .data          0x20000194        0x4 ./objects/utilities.o
 .data          0x20000198        0x1 ./objects/trace.o
                0x20000198                TracePeripheralReady
 *(.data*)
 *fill*         0x20000199        0x3 
 .data._impure_ptr
                0x2000019c        0x4 c:/program files (x86)/gnu tools arm embedded/7 2018-q2-update/bin/../lib/gcc/arm-none-eabi/7.3.1/../../../../arm-none-eabi/lib/thumb/v6-m\libc_nano.a(lib_a-impure.o)
                0x2000019c                _impure_ptr
 .data.impure_data
                0x200001a0       0x60 c:/program files (x86)/gnu tools arm embedded/7 2018-q2-update/bin/../lib/gcc/arm-none-eabi/7.3.1/../../../../arm-none-eabi/lib/thumb/v6-m\libc_nano.a(lib_a-impure.o)
                0x20000200                . = ALIGN (0x4)
                0x20000200                _edata = .

.igot.plt       0x20000200        0x0 load address 0x08018344
 .igot.plt      0x20000200        0x0 c:/program files (x86)/gnu tools arm embedded/7 2018-q2-update/bin/../lib/gcc/arm-none-eabi/7.3.1/thumb/v6-m/crtbegin.o
                0x20000200                . = ALIGN (0x4)

.bss            0x20000200     0x1378 load address 0x08018344
                0x20000200                _sbss = .
                0x20000200                __bss_start__ = _sbss
 *(.bss)
 .bss           0x20000200       0x1c c:/program files (x86)/gnu tools arm embedded/7 2018-q2-update/bin/../lib/gcc/arm-none-eabi/7.3.1/thumb/v6-m/crtbegin.o
 .bss           0x2000021c      0x108 ./objects/sx1276.o
 .bss           0x20000324       0x40 ./objects/hw_gpio.o
 .bss           0x20000364       0x72 ./objects/hw_rtc.o
 *fill*         0x200003d6        0x2 
 .bss           0x200003d8       0x58 ./objects/hw_spi.o
 .bss           0x20000430       0x78 ./objects/main.o
                0x20000430                LoraMacProcessRequest
                0x2000044c                AppProcessRequest
 .bss           0x200004a8       0xb4 ./objects/vcom.o
 .bss           0x2000055c       0x64 ./objects/mlm32l0xx_hw.o
 .bss           0x200005c0       0x4c ./objects/lora.o
 .bss           0x2000060c       0x65 ./objects/lora-test.o
 *fill*         0x20000671        0x3 
 .bss           0x20000674      0x6a4 ./objects/loramac.o
                0x20000674                LoRaMacRadioEvents
 .bss           0x20000d18       0x40 ./objects/loramaccrypto.o
 .bss           0x20000d58      0x100 ./objects/loramaccommands.o
 .bss           0x20000e58       0x2a ./objects/loramacconfirmqueue.o
 *fill*         0x20000e82        0x2 
 .bss           0x20000e84       0x24 ./objects/loramacfcnthandler.o
 .bss           0x20000ea8      0x114 ./objects/regioneu868.o
 .bss           0x20000fbc        0x8 ./objects/low_power_manager.o
 .bss           0x20000fc4        0x4 ./objects/timeserver.o
 .bss           0x20000fc8      0x110 ./objects/trace.o
 .bss           0x200010d8      0x388 ./objects/soft-se.o
 *(.bss*)
 .bss.__malloc_free_list
                0x20001460        0x4 c:/program files (x86)/gnu tools arm embedded/7 2018-q2-update/bin/../lib/gcc/arm-none-eabi/7.3.1/../../../../arm-none-eabi/lib/thumb/v6-m\libc_nano.a(lib_a-nano-mallocr.o)
                0x20001460                __malloc_free_list
 .bss.__malloc_sbrk_start
                0x20001464        0x4 c:/program files (x86)/gnu tools arm embedded/7 2018-q2-update/bin/../lib/gcc/arm-none-eabi/7.3.1/../../../../arm-none-eabi/lib/thumb/v6-m\libc_nano.a(lib_a-nano-mallocr.o)
                0x20001464                __malloc_sbrk_start
 .bss.heap_end.4102
                0x20001468        0x4 c:/program files (x86)/gnu tools arm embedded/7 2018-q2-update/bin/../lib/gcc/arm-none-eabi/7.3.1/../../../../arm-none-eabi/lib/thumb/v6-m\libnosys.a(sbrk.o)
 *(COMMON)
 COMMON         0x2000146c       0xb0 ./objects/sx1276.o
                0x2000146c                TxTimeoutTimer
                0x20001484                RxTimeoutSyncWord
                0x2000149c                SX1276
                0x20001504                RxTimeoutTimer
 COMMON         0x2000151c        0x4 ./objects/stm32l0xx_hal.o
                0x2000151c                uwTick
 COMMON         0x20001520       0x54 ./objects/loramac.o
                0x20001520                TxDoneParams
                0x20001524                RxDoneParams
                0x20001534                Contexts
 COMMON         0x20001574        0x4 c:/program files (x86)/gnu tools arm embedded/7 2018-q2-update/bin/../lib/gcc/arm-none-eabi/7.3.1/../../../../arm-none-eabi/lib/thumb/v6-m\libc_nano.a(lib_a-reent.o)
                0x20001574                errno
                0x20001578                . = ALIGN (0x4)
                0x20001578                _ebss = .
                0x20001578                __bss_end__ = _ebss

._user_heap_stack
                0x20001578      0x600 load address 0x08018344
                0x20001578                . = ALIGN (0x8)
                0x20001578                PROVIDE (end = .)
                [!provide]                PROVIDE (_end = .)
                0x20001778                . = (. + _Min_Heap_Size)
 *fill*         0x20001578      0x200 
                0x20001b78                . = (. + _Min_Stack_Size)
 *fill*         0x20001778      0x400 
                0x20001b78                . = ALIGN (0x8)

/DISCARD/
 libc.a(*)
 libm.a(*)
 libgcc.a(*)

.ARM.attributes
                0x00000000       0x28
 *(.ARM.attributes)
 .ARM.attributes
                0x00000000       0x1e c:/program files (x86)/gnu tools arm embedded/7 2018-q2-update/bin/../lib/gcc/arm-none-eabi/7.3.1/thumb/v6-m/crti.o
 .ARM.attributes
                0x0000001e       0x2c c:/program files (x86)/gnu tools arm embedded/7 2018-q2-update/bin/../lib/gcc/arm-none-eabi/7.3.1/thumb/v6-m/crtbegin.o
 .ARM.attributes
                0x0000004a       0x32 ./objects/sx1276.o
 .ARM.attributes
                0x0000007c       0x32 ./objects/mlm32l07x01.o
 .ARM.attributes
                0x000000ae       0x32 ./objects/b-l072z-lrwan1.o
 .ARM.attributes
                0x000000e0       0x32 ./objects/system_stm32l0xx.o
 .ARM.attributes
                0x00000112       0x32 ./objects/stm32l0xx_hal_spi.o
 .ARM.attributes
                0x00000144       0x32 ./objects/stm32l0xx_hal_uart.o
 .ARM.attributes
                0x00000176       0x32 ./objects/stm32l0xx_hal_adc.o
 .ARM.attributes
                0x000001a8       0x32 ./objects/stm32l0xx_hal_rcc.o
 .ARM.attributes
                0x000001da       0x32 ./objects/stm32l0xx_hal_rcc_ex.o
 .ARM.attributes
                0x0000020c       0x32 ./objects/stm32l0xx_hal.o
 .ARM.attributes
                0x0000023e       0x32 ./objects/stm32l0xx_hal_cortex.o
 .ARM.attributes
                0x00000270       0x32 ./objects/stm32l0xx_hal_gpio.o
 .ARM.attributes
                0x000002a2       0x32 ./objects/stm32l0xx_hal_dma.o
 .ARM.attributes
                0x000002d4       0x32 ./objects/stm32l0xx_hal_pwr.o
 .ARM.attributes
                0x00000306       0x32 ./objects/stm32l0xx_hal_pwr_ex.o
 .ARM.attributes
                0x00000338       0x32 ./objects/stm32l0xx_hal_rtc.o
 .ARM.attributes
                0x0000036a       0x32 ./objects/stm32l0xx_hal_rtc_ex.o
 .ARM.attributes
                0x0000039c       0x32 ./objects/stm32l0xx_hal_adc_ex.o
 .ARM.attributes
                0x000003ce       0x32 ./objects/stm32l0xx_hal_uart_ex.o
 .ARM.attributes
                0x00000400       0x22 ./objects/startup_stm32l072xx.o
 .ARM.attributes
                0x00000422       0x32 ./objects/bsp.o
 .ARM.attributes
                0x00000454       0x32 ./objects/debug.o
 .ARM.attributes
                0x00000486       0x32 ./objects/hw_gpio.o
 .ARM.attributes
                0x000004b8       0x32 ./objects/hw_rtc.o
 .ARM.attributes
                0x000004ea       0x32 ./objects/hw_spi.o
 .ARM.attributes
                0x0000051c       0x32 ./objects/main.o
 .ARM.attributes
                0x0000054e       0x32 ./objects/vcom.o
 .ARM.attributes
                0x00000580       0x32 ./objects/mlm32l0xx_hal_msp.o
 .ARM.attributes
                0x000005b2       0x32 ./objects/mlm32l0xx_hw.o
 .ARM.attributes
                0x000005e4       0x32 ./objects/mlm32l0xx_it.o
 .ARM.attributes
                0x00000616       0x32 ./objects/lora.o
 .ARM.attributes
                0x00000648       0x32 ./objects/lora-test.o
 .ARM.attributes
                0x0000067a       0x32 ./objects/loramac.o
 .ARM.attributes
                0x000006ac       0x32 ./objects/loramaccrypto.o
 .ARM.attributes
                0x000006de       0x32 ./objects/loramacclassb.o
 .ARM.attributes
                0x00000710       0x32 ./objects/loramaccommands.o
 .ARM.attributes
                0x00000742       0x32 ./objects/loramacconfirmqueue.o
 .ARM.attributes
                0x00000774       0x32 ./objects/loramacfcnthandler.o
 .ARM.attributes
                0x000007a6       0x32 ./objects/loramacparser.o
 .ARM.attributes
                0x000007d8       0x32 ./objects/loramacserializer.o
 .ARM.attributes
                0x0000080a       0x32 ./objects/loramacadr.o
 .ARM.attributes
                0x0000083c       0x32 ./objects/region.o
 .ARM.attributes
                0x0000086e       0x32 ./objects/regioncommon.o
 .ARM.attributes
                0x000008a0       0x32 ./objects/regioneu868.o
 .ARM.attributes
                0x000008d2       0x32 ./objects/low_power_manager.o
 .ARM.attributes
                0x00000904       0x32 ./objects/timeserver.o
 .ARM.attributes
                0x00000936       0x32 ./objects/utilities.o
 .ARM.attributes
                0x00000968       0x32 ./objects/queue.o
 .ARM.attributes
                0x0000099a       0x32 ./objects/trace.o
 .ARM.attributes
                0x000009cc       0x32 ./objects/systime.o
 .ARM.attributes
                0x000009fe       0x32 ./objects/aes.o
 .ARM.attributes
                0x00000a30       0x32 ./objects/cmac.o
 .ARM.attributes
                0x00000a62       0x32 ./objects/soft-se.o
 .ARM.attributes
                0x00000a94       0x2c c:/program files (x86)/gnu tools arm embedded/7 2018-q2-update/bin/../lib/gcc/arm-none-eabi/7.3.1/../../../../arm-none-eabi/lib/thumb/v6-m\libm.a(lib_a-s_ceil.o)
 .ARM.attributes
                0x00000ac0       0x2c c:/program files (x86)/gnu tools arm embedded/7 2018-q2-update/bin/../lib/gcc/arm-none-eabi/7.3.1/../../../../arm-none-eabi/lib/thumb/v6-m\libm.a(lib_a-s_floor.o)
 .ARM.attributes
                0x00000aec       0x2c c:/program files (x86)/gnu tools arm embedded/7 2018-q2-update/bin/../lib/gcc/arm-none-eabi/7.3.1/../../../../arm-none-eabi/lib/thumb/v6-m\libm.a(lib_a-s_round.o)
 .ARM.attributes
                0x00000b18       0x1e c:/program files (x86)/gnu tools arm embedded/7 2018-q2-update/bin/../lib/gcc/arm-none-eabi/7.3.1/thumb/v6-m\libgcc.a(_udivsi3.o)
 .ARM.attributes
                0x00000b36       0x1e c:/program files (x86)/gnu tools arm embedded/7 2018-q2-update/bin/../lib/gcc/arm-none-eabi/7.3.1/thumb/v6-m\libgcc.a(_divsi3.o)
 .ARM.attributes
                0x00000b54       0x1e c:/program files (x86)/gnu tools arm embedded/7 2018-q2-update/bin/../lib/gcc/arm-none-eabi/7.3.1/thumb/v6-m\libgcc.a(_dvmd_tls.o)
 .ARM.attributes
                0x00000b72       0x1e c:/program files (x86)/gnu tools arm embedded/7 2018-q2-update/bin/../lib/gcc/arm-none-eabi/7.3.1/thumb/v6-m\libgcc.a(_arm_cmpdf2.o)
 .ARM.attributes
                0x00000b90       0x1e c:/program files (x86)/gnu tools arm embedded/7 2018-q2-update/bin/../lib/gcc/arm-none-eabi/7.3.1/thumb/v6-m\libgcc.a(_arm_cmpsf2.o)
 .ARM.attributes
                0x00000bae       0x1e c:/program files (x86)/gnu tools arm embedded/7 2018-q2-update/bin/../lib/gcc/arm-none-eabi/7.3.1/thumb/v6-m\libgcc.a(_aeabi_uldivmod.o)
 .ARM.attributes
                0x00000bcc       0x2c c:/program files (x86)/gnu tools arm embedded/7 2018-q2-update/bin/../lib/gcc/arm-none-eabi/7.3.1/thumb/v6-m\libgcc.a(_fixunssfsi.o)
 .ARM.attributes
                0x00000bf8       0x2c c:/program files (x86)/gnu tools arm embedded/7 2018-q2-update/bin/../lib/gcc/arm-none-eabi/7.3.1/thumb/v6-m\libgcc.a(_fixunsdfsi.o)
 .ARM.attributes
                0x00000c24       0x2c c:/program files (x86)/gnu tools arm embedded/7 2018-q2-update/bin/../lib/gcc/arm-none-eabi/7.3.1/thumb/v6-m\libgcc.a(_udivmoddi4.o)
 .ARM.attributes
                0x00000c50       0x2c c:/program files (x86)/gnu tools arm embedded/7 2018-q2-update/bin/../lib/gcc/arm-none-eabi/7.3.1/thumb/v6-m\libgcc.a(divsf3.o)
 .ARM.attributes
                0x00000c7c       0x2c c:/program files (x86)/gnu tools arm embedded/7 2018-q2-update/bin/../lib/gcc/arm-none-eabi/7.3.1/thumb/v6-m\libgcc.a(eqsf2.o)
 .ARM.attributes
                0x00000ca8       0x2c c:/program files (x86)/gnu tools arm embedded/7 2018-q2-update/bin/../lib/gcc/arm-none-eabi/7.3.1/thumb/v6-m\libgcc.a(gesf2.o)
 .ARM.attributes
                0x00000cd4       0x2c c:/program files (x86)/gnu tools arm embedded/7 2018-q2-update/bin/../lib/gcc/arm-none-eabi/7.3.1/thumb/v6-m\libgcc.a(lesf2.o)
 .ARM.attributes
                0x00000d00       0x2c c:/program files (x86)/gnu tools arm embedded/7 2018-q2-update/bin/../lib/gcc/arm-none-eabi/7.3.1/thumb/v6-m\libgcc.a(mulsf3.o)
 .ARM.attributes
                0x00000d2c       0x2c c:/program files (x86)/gnu tools arm embedded/7 2018-q2-update/bin/../lib/gcc/arm-none-eabi/7.3.1/thumb/v6-m\libgcc.a(subsf3.o)
 .ARM.attributes
                0x00000d58       0x2c c:/program files (x86)/gnu tools arm embedded/7 2018-q2-update/bin/../lib/gcc/arm-none-eabi/7.3.1/thumb/v6-m\libgcc.a(fixsfsi.o)
 .ARM.attributes
                0x00000d84       0x2c c:/program files (x86)/gnu tools arm embedded/7 2018-q2-update/bin/../lib/gcc/arm-none-eabi/7.3.1/thumb/v6-m\libgcc.a(floatunsisf.o)
 .ARM.attributes
                0x00000db0       0x2c c:/program files (x86)/gnu tools arm embedded/7 2018-q2-update/bin/../lib/gcc/arm-none-eabi/7.3.1/thumb/v6-m\libgcc.a(adddf3.o)
 .ARM.attributes
                0x00000ddc       0x2c c:/program files (x86)/gnu tools arm embedded/7 2018-q2-update/bin/../lib/gcc/arm-none-eabi/7.3.1/thumb/v6-m\libgcc.a(divdf3.o)
 .ARM.attributes
                0x00000e08       0x2c c:/program files (x86)/gnu tools arm embedded/7 2018-q2-update/bin/../lib/gcc/arm-none-eabi/7.3.1/thumb/v6-m\libgcc.a(eqdf2.o)
 .ARM.attributes
                0x00000e34       0x2c c:/program files (x86)/gnu tools arm embedded/7 2018-q2-update/bin/../lib/gcc/arm-none-eabi/7.3.1/thumb/v6-m\libgcc.a(gedf2.o)
 .ARM.attributes
                0x00000e60       0x2c c:/program files (x86)/gnu tools arm embedded/7 2018-q2-update/bin/../lib/gcc/arm-none-eabi/7.3.1/thumb/v6-m\libgcc.a(ledf2.o)
 .ARM.attributes
                0x00000e8c       0x2c c:/program files (x86)/gnu tools arm embedded/7 2018-q2-update/bin/../lib/gcc/arm-none-eabi/7.3.1/thumb/v6-m\libgcc.a(muldf3.o)
 .ARM.attributes
                0x00000eb8       0x2c c:/program files (x86)/gnu tools arm embedded/7 2018-q2-update/bin/../lib/gcc/arm-none-eabi/7.3.1/thumb/v6-m\libgcc.a(subdf3.o)
 .ARM.attributes
                0x00000ee4       0x2c c:/program files (x86)/gnu tools arm embedded/7 2018-q2-update/bin/../lib/gcc/arm-none-eabi/7.3.1/thumb/v6-m\libgcc.a(fixdfsi.o)
 .ARM.attributes
                0x00000f10       0x2c c:/program files (x86)/gnu tools arm embedded/7 2018-q2-update/bin/../lib/gcc/arm-none-eabi/7.3.1/thumb/v6-m\libgcc.a(floatsidf.o)
 .ARM.attributes
                0x00000f3c       0x2c c:/program files (x86)/gnu tools arm embedded/7 2018-q2-update/bin/../lib/gcc/arm-none-eabi/7.3.1/thumb/v6-m\libgcc.a(floatunsidf.o)
 .ARM.attributes
                0x00000f68       0x2c c:/program files (x86)/gnu tools arm embedded/7 2018-q2-update/bin/../lib/gcc/arm-none-eabi/7.3.1/thumb/v6-m\libgcc.a(extendsfdf2.o)
 .ARM.attributes
                0x00000f94       0x1e c:/program files (x86)/gnu tools arm embedded/7 2018-q2-update/bin/../lib/gcc/arm-none-eabi/7.3.1/thumb/v6-m\libgcc.a(_clzsi2.o)
 .ARM.attributes
                0x00000fb2       0x1e c:/program files (x86)/gnu tools arm embedded/7 2018-q2-update/bin/../lib/gcc/arm-none-eabi/7.3.1/thumb/v6-m\libgcc.a(_clzdi2.o)
 .ARM.attributes
                0x00000fd0       0x2c c:/program files (x86)/gnu tools arm embedded/7 2018-q2-update/bin/../lib/gcc/arm-none-eabi/7.3.1/../../../../arm-none-eabi/lib/thumb/v6-m\libc_nano.a(lib_a-impure.o)
 .ARM.attributes
                0x00000ffc       0x2c c:/program files (x86)/gnu tools arm embedded/7 2018-q2-update/bin/../lib/gcc/arm-none-eabi/7.3.1/../../../../arm-none-eabi/lib/thumb/v6-m\libc_nano.a(lib_a-init.o)
 .ARM.attributes
                0x00001028       0x2c c:/program files (x86)/gnu tools arm embedded/7 2018-q2-update/bin/../lib/gcc/arm-none-eabi/7.3.1/../../../../arm-none-eabi/lib/thumb/v6-m\libc_nano.a(lib_a-memset.o)
 .ARM.attributes
                0x00001054       0x2c c:/program files (x86)/gnu tools arm embedded/7 2018-q2-update/bin/../lib/gcc/arm-none-eabi/7.3.1/../../../../arm-none-eabi/lib/thumb/v6-m\libc_nano.a(lib_a-vsnprintf.o)
 .ARM.attributes
                0x00001080       0x2c c:/program files (x86)/gnu tools arm embedded/7 2018-q2-update/bin/../lib/gcc/arm-none-eabi/7.3.1/../../../../arm-none-eabi/lib/thumb/v6-m\libc_nano.a(lib_a-nano-svfprintf.o)
 .ARM.attributes
                0x000010ac       0x2c c:/program files (x86)/gnu tools arm embedded/7 2018-q2-update/bin/../lib/gcc/arm-none-eabi/7.3.1/../../../../arm-none-eabi/lib/thumb/v6-m\libc_nano.a(lib_a-nano-vfprintf_i.o)
 .ARM.attributes
                0x000010d8       0x2c c:/program files (x86)/gnu tools arm embedded/7 2018-q2-update/bin/../lib/gcc/arm-none-eabi/7.3.1/../../../../arm-none-eabi/lib/thumb/v6-m\libc_nano.a(lib_a-memchr-stub.o)
 .ARM.attributes
                0x00001104       0x2c c:/program files (x86)/gnu tools arm embedded/7 2018-q2-update/bin/../lib/gcc/arm-none-eabi/7.3.1/../../../../arm-none-eabi/lib/thumb/v6-m\libc_nano.a(lib_a-memcpy-stub.o)
 .ARM.attributes
                0x00001130       0x2c c:/program files (x86)/gnu tools arm embedded/7 2018-q2-update/bin/../lib/gcc/arm-none-eabi/7.3.1/../../../../arm-none-eabi/lib/thumb/v6-m\libc_nano.a(lib_a-memmove.o)
 .ARM.attributes
                0x0000115c       0x2c c:/program files (x86)/gnu tools arm embedded/7 2018-q2-update/bin/../lib/gcc/arm-none-eabi/7.3.1/../../../../arm-none-eabi/lib/thumb/v6-m\libc_nano.a(lib_a-nano-freer.o)
 .ARM.attributes
                0x00001188       0x2c c:/program files (x86)/gnu tools arm embedded/7 2018-q2-update/bin/../lib/gcc/arm-none-eabi/7.3.1/../../../../arm-none-eabi/lib/thumb/v6-m\libc_nano.a(lib_a-nano-mallocr.o)
 .ARM.attributes
                0x000011b4       0x2c c:/program files (x86)/gnu tools arm embedded/7 2018-q2-update/bin/../lib/gcc/arm-none-eabi/7.3.1/../../../../arm-none-eabi/lib/thumb/v6-m\libc_nano.a(lib_a-nano-reallocr.o)
 .ARM.attributes
                0x000011e0       0x2c c:/program files (x86)/gnu tools arm embedded/7 2018-q2-update/bin/../lib/gcc/arm-none-eabi/7.3.1/../../../../arm-none-eabi/lib/thumb/v6-m\libc_nano.a(lib_a-sbrkr.o)
 .ARM.attributes
                0x0000120c       0x2c c:/program files (x86)/gnu tools arm embedded/7 2018-q2-update/bin/../lib/gcc/arm-none-eabi/7.3.1/../../../../arm-none-eabi/lib/thumb/v6-m\libc_nano.a(lib_a-mlock.o)
 .ARM.attributes
                0x00001238       0x2c c:/program files (x86)/gnu tools arm embedded/7 2018-q2-update/bin/../lib/gcc/arm-none-eabi/7.3.1/../../../../arm-none-eabi/lib/thumb/v6-m\libc_nano.a(lib_a-nano-msizer.o)
 .ARM.attributes
                0x00001264       0x2c c:/program files (x86)/gnu tools arm embedded/7 2018-q2-update/bin/../lib/gcc/arm-none-eabi/7.3.1/../../../../arm-none-eabi/lib/thumb/v6-m\libc_nano.a(lib_a-reent.o)
 .ARM.attributes
                0x00001290       0x2c c:/program files (x86)/gnu tools arm embedded/7 2018-q2-update/bin/../lib/gcc/arm-none-eabi/7.3.1/../../../../arm-none-eabi/lib/thumb/v6-m\libnosys.a(sbrk.o)
 .ARM.attributes
                0x000012bc       0x1e c:/program files (x86)/gnu tools arm embedded/7 2018-q2-update/bin/../lib/gcc/arm-none-eabi/7.3.1/thumb/v6-m/crtn.o
OUTPUT(./Objects/Lora.elf elf32-littlearm)

.debug_info     0x00000000    0x64c4f
 .debug_info    0x00000000    0x10b94 ./objects/sx1276.o
 .debug_info    0x00010b94     0x1c5a ./objects/mlm32l07x01.o
 .debug_info    0x000127ee     0x139e ./objects/b-l072z-lrwan1.o
 .debug_info    0x00013b8c      0xcd8 ./objects/system_stm32l0xx.o
 .debug_info    0x00014864     0x2774 ./objects/stm32l0xx_hal_spi.o
 .debug_info    0x00016fd8     0x3024 ./objects/stm32l0xx_hal_uart.o
 .debug_info    0x00019ffc     0x1cc8 ./objects/stm32l0xx_hal_adc.o
 .debug_info    0x0001bcc4     0x169d ./objects/stm32l0xx_hal_rcc.o
 .debug_info    0x0001d361     0x128d ./objects/stm32l0xx_hal_rcc_ex.o
 .debug_info    0x0001e5ee     0x11c5 ./objects/stm32l0xx_hal.o
 .debug_info    0x0001f7b3     0x12f0 ./objects/stm32l0xx_hal_cortex.o
 .debug_info    0x00020aa3     0x1058 ./objects/stm32l0xx_hal_gpio.o
 .debug_info    0x00021afb     0x1096 ./objects/stm32l0xx_hal_dma.o
 .debug_info    0x00022b91      0xf46 ./objects/stm32l0xx_hal_pwr.o
 .debug_info    0x00023ad7      0xb50 ./objects/stm32l0xx_hal_pwr_ex.o
 .debug_info    0x00024627     0x1bd8 ./objects/stm32l0xx_hal_rtc.o
 .debug_info    0x000261ff     0x1a12 ./objects/stm32l0xx_hal_rtc_ex.o
 .debug_info    0x00027c11     0x1182 ./objects/stm32l0xx_hal_adc_ex.o
 .debug_info    0x00028d93     0x132b ./objects/stm32l0xx_hal_uart_ex.o
 .debug_info    0x0002a0be       0x22 ./objects/startup_stm32l072xx.o
 .debug_info    0x0002a0e0      0xbc3 ./objects/bsp.o
 .debug_info    0x0002aca3      0xe47 ./objects/debug.o
 .debug_info    0x0002baea     0x11dd ./objects/hw_gpio.o
 .debug_info    0x0002ccc7     0x216c ./objects/hw_rtc.o
 .debug_info    0x0002ee33     0x1814 ./objects/hw_spi.o
 .debug_info    0x00030647     0x1caf ./objects/main.o
 .debug_info    0x000322f6     0x192c ./objects/vcom.o
 .debug_info    0x00033c22     0x1502 ./objects/mlm32l0xx_hal_msp.o
 .debug_info    0x00035124     0x2545 ./objects/mlm32l0xx_hw.o
 .debug_info    0x00037669      0xda3 ./objects/mlm32l0xx_it.o
 .debug_info    0x0003840c     0x2dde ./objects/lora.o
 .debug_info    0x0003b1ea     0x2614 ./objects/lora-test.o
 .debug_info    0x0003d7fe     0x8911 ./objects/loramac.o
 .debug_info    0x0004610f     0x3688 ./objects/loramaccrypto.o
 .debug_info    0x00049797     0x259c ./objects/loramacclassb.o
 .debug_info    0x0004bd33     0x1b1c ./objects/loramaccommands.o
 .debug_info    0x0004d84f     0x1bc5 ./objects/loramacconfirmqueue.o
 .debug_info    0x0004f414     0x1231 ./objects/loramacfcnthandler.o
 .debug_info    0x00050645      0xe90 ./objects/loramacparser.o
 .debug_info    0x000514d5      0xfed ./objects/loramacserializer.o
 .debug_info    0x000524c2     0x1685 ./objects/loramacadr.o
 .debug_info    0x00053b47     0x267e ./objects/region.o
 .debug_info    0x000561c5     0x1e4b ./objects/regioncommon.o
 .debug_info    0x00058010     0x34bf ./objects/regioneu868.o
 .debug_info    0x0005b4cf      0xdd4 ./objects/low_power_manager.o
 .debug_info    0x0005c2a3     0x16f3 ./objects/timeserver.o
 .debug_info    0x0005d996      0xc40 ./objects/utilities.o
 .debug_info    0x0005e5d6      0x4ba ./objects/queue.o
 .debug_info    0x0005ea90      0xfe3 ./objects/trace.o
 .debug_info    0x0005fa73     0x12d4 ./objects/systime.o
 .debug_info    0x00060d47      0xf85 ./objects/aes.o
 .debug_info    0x00061ccc      0xedb ./objects/cmac.o
 .debug_info    0x00062ba7     0x20a8 ./objects/soft-se.o

.debug_abbrev   0x00000000     0xad23
 .debug_abbrev  0x00000000      0x5aa ./objects/sx1276.o
 .debug_abbrev  0x000005aa      0x3fa ./objects/mlm32l07x01.o
 .debug_abbrev  0x000009a4      0x2d4 ./objects/b-l072z-lrwan1.o
 .debug_abbrev  0x00000c78      0x1e6 ./objects/system_stm32l0xx.o
 .debug_abbrev  0x00000e5e      0x3e0 ./objects/stm32l0xx_hal_spi.o
 .debug_abbrev  0x0000123e      0x467 ./objects/stm32l0xx_hal_uart.o
 .debug_abbrev  0x000016a5      0x392 ./objects/stm32l0xx_hal_adc.o
 .debug_abbrev  0x00001a37      0x3b5 ./objects/stm32l0xx_hal_rcc.o
 .debug_abbrev  0x00001dec      0x2eb ./objects/stm32l0xx_hal_rcc_ex.o
 .debug_abbrev  0x000020d7      0x2f9 ./objects/stm32l0xx_hal.o
 .debug_abbrev  0x000023d0      0x376 ./objects/stm32l0xx_hal_cortex.o
 .debug_abbrev  0x00002746      0x2b5 ./objects/stm32l0xx_hal_gpio.o
 .debug_abbrev  0x000029fb      0x2d8 ./objects/stm32l0xx_hal_dma.o
 .debug_abbrev  0x00002cd3      0x248 ./objects/stm32l0xx_hal_pwr.o
 .debug_abbrev  0x00002f1b      0x209 ./objects/stm32l0xx_hal_pwr_ex.o
 .debug_abbrev  0x00003124      0x3b4 ./objects/stm32l0xx_hal_rtc.o
 .debug_abbrev  0x000034d8      0x31b ./objects/stm32l0xx_hal_rtc_ex.o
 .debug_abbrev  0x000037f3      0x262 ./objects/stm32l0xx_hal_adc_ex.o
 .debug_abbrev  0x00003a55      0x2c2 ./objects/stm32l0xx_hal_uart_ex.o
 .debug_abbrev  0x00003d17       0x12 ./objects/startup_stm32l072xx.o
 .debug_abbrev  0x00003d29      0x1e8 ./objects/bsp.o
 .debug_abbrev  0x00003f11      0x248 ./objects/debug.o
 .debug_abbrev  0x00004159      0x2e0 ./objects/hw_gpio.o
 .debug_abbrev  0x00004439      0x4dc ./objects/hw_rtc.o
 .debug_abbrev  0x00004915      0x321 ./objects/hw_spi.o
 .debug_abbrev  0x00004c36      0x3f3 ./objects/main.o
 .debug_abbrev  0x00005029      0x306 ./objects/vcom.o
 .debug_abbrev  0x0000532f      0x284 ./objects/mlm32l0xx_hal_msp.o
 .debug_abbrev  0x000055b3      0x441 ./objects/mlm32l0xx_hw.o
 .debug_abbrev  0x000059f4      0x24d ./objects/mlm32l0xx_it.o
 .debug_abbrev  0x00005c41      0x47f ./objects/lora.o
 .debug_abbrev  0x000060c0      0x3c4 ./objects/lora-test.o
 .debug_abbrev  0x00006484      0x5b9 ./objects/loramac.o
 .debug_abbrev  0x00006a3d      0x4af ./objects/loramaccrypto.o
 .debug_abbrev  0x00006eec      0x360 ./objects/loramacclassb.o
 .debug_abbrev  0x0000724c      0x470 ./objects/loramaccommands.o
 .debug_abbrev  0x000076bc      0x40e ./objects/loramacconfirmqueue.o
 .debug_abbrev  0x00007aca      0x31a ./objects/loramacfcnthandler.o
 .debug_abbrev  0x00007de4      0x252 ./objects/loramacparser.o
 .debug_abbrev  0x00008036      0x252 ./objects/loramacserializer.o
 .debug_abbrev  0x00008288      0x2cb ./objects/loramacadr.o
 .debug_abbrev  0x00008553      0x2cf ./objects/region.o
 .debug_abbrev  0x00008822      0x474 ./objects/regioncommon.o
 .debug_abbrev  0x00008c96      0x4d7 ./objects/regioneu868.o
 .debug_abbrev  0x0000916d      0x305 ./objects/low_power_manager.o
 .debug_abbrev  0x00009472      0x454 ./objects/timeserver.o
 .debug_abbrev  0x000098c6      0x279 ./objects/utilities.o
 .debug_abbrev  0x00009b3f      0x16f ./objects/queue.o
 .debug_abbrev  0x00009cae      0x34e ./objects/trace.o
 .debug_abbrev  0x00009ffc      0x373 ./objects/systime.o
 .debug_abbrev  0x0000a36f      0x2fd ./objects/aes.o
 .debug_abbrev  0x0000a66c      0x24b ./objects/cmac.o
 .debug_abbrev  0x0000a8b7      0x46c ./objects/soft-se.o

.debug_loc      0x00000000    0x2d5a9
 .debug_loc     0x00000000     0x9561 ./objects/sx1276.o
 .debug_loc     0x00009561      0x3d7 ./objects/mlm32l07x01.o
 .debug_loc     0x00009938      0x256 ./objects/b-l072z-lrwan1.o
 .debug_loc     0x00009b8e      0x1e3 ./objects/system_stm32l0xx.o
 .debug_loc     0x00009d71     0x2eae ./objects/stm32l0xx_hal_spi.o
 .debug_loc     0x0000cc1f     0x256e ./objects/stm32l0xx_hal_uart.o
 .debug_loc     0x0000f18d     0x13a2 ./objects/stm32l0xx_hal_adc.o
 .debug_loc     0x0001052f      0x985 ./objects/stm32l0xx_hal_rcc.o
 .debug_loc     0x00010eb4      0x877 ./objects/stm32l0xx_hal_rcc_ex.o
 .debug_loc     0x0001172b      0x138 ./objects/stm32l0xx_hal.o
 .debug_loc     0x00011863      0x409 ./objects/stm32l0xx_hal_cortex.o
 .debug_loc     0x00011c6c      0x494 ./objects/stm32l0xx_hal_gpio.o
 .debug_loc     0x00012100      0x974 ./objects/stm32l0xx_hal_dma.o
 .debug_loc     0x00012a74      0x19a ./objects/stm32l0xx_hal_pwr.o
 .debug_loc     0x00012c0e       0x3f ./objects/stm32l0xx_hal_pwr_ex.o
 .debug_loc     0x00012c4d     0x1602 ./objects/stm32l0xx_hal_rtc.o
 .debug_loc     0x0001424f     0x1576 ./objects/stm32l0xx_hal_rtc_ex.o
 .debug_loc     0x000157c5      0x301 ./objects/stm32l0xx_hal_adc_ex.o
 .debug_loc     0x00015ac6      0x4c7 ./objects/stm32l0xx_hal_uart_ex.o
 .debug_loc     0x00015f8d       0x4c ./objects/debug.o
 .debug_loc     0x00015fd9      0x367 ./objects/hw_gpio.o
 .debug_loc     0x00016340     0x4a7a ./objects/hw_rtc.o
 .debug_loc     0x0001adba      0x314 ./objects/hw_spi.o
 .debug_loc     0x0001b0ce      0x304 ./objects/main.o
 .debug_loc     0x0001b3d2      0x267 ./objects/vcom.o
 .debug_loc     0x0001b639      0x1af ./objects/mlm32l0xx_hal_msp.o
 .debug_loc     0x0001b7e8      0x3e2 ./objects/mlm32l0xx_hw.o
 .debug_loc     0x0001bbca       0xe0 ./objects/mlm32l0xx_it.o
 .debug_loc     0x0001bcaa      0x4b7 ./objects/lora.o
 .debug_loc     0x0001c161      0x334 ./objects/lora-test.o
 .debug_loc     0x0001c495     0x38f0 ./objects/loramac.o
 .debug_loc     0x0001fd85     0x2569 ./objects/loramaccrypto.o
 .debug_loc     0x000222ee      0x108 ./objects/loramacclassb.o
 .debug_loc     0x000223f6      0xbc7 ./objects/loramaccommands.o
 .debug_loc     0x00022fbd      0x689 ./objects/loramacconfirmqueue.o
 .debug_loc     0x00023646      0x607 ./objects/loramacfcnthandler.o
 .debug_loc     0x00023c4d      0x1fb ./objects/loramacparser.o
 .debug_loc     0x00023e48      0x302 ./objects/loramacserializer.o
 .debug_loc     0x0002414a      0x385 ./objects/loramacadr.o
 .debug_loc     0x000244cf      0xf1f ./objects/region.o
 .debug_loc     0x000253ee     0x1307 ./objects/regioncommon.o
 .debug_loc     0x000266f5     0x1b35 ./objects/regioneu868.o
 .debug_loc     0x0002822a      0x125 ./objects/low_power_manager.o
 .debug_loc     0x0002834f      0xb07 ./objects/timeserver.o
 .debug_loc     0x00028e56      0x32e ./objects/utilities.o
 .debug_loc     0x00029184      0x955 ./objects/queue.o
 .debug_loc     0x00029ad9      0x1bb ./objects/trace.o
 .debug_loc     0x00029c94      0xca0 ./objects/systime.o
 .debug_loc     0x0002a934     0x13f6 ./objects/aes.o
 .debug_loc     0x0002bd2a      0x813 ./objects/cmac.o
 .debug_loc     0x0002c53d     0x106c ./objects/soft-se.o

.debug_aranges  0x00000000     0x19c8
 .debug_aranges
                0x00000000      0x160 ./objects/sx1276.o
 .debug_aranges
                0x00000160       0x68 ./objects/mlm32l07x01.o
 .debug_aranges
                0x000001c8       0x50 ./objects/b-l072z-lrwan1.o
 .debug_aranges
                0x00000218       0x28 ./objects/system_stm32l0xx.o
 .debug_aranges
                0x00000240       0xf8 ./objects/stm32l0xx_hal_spi.o
 .debug_aranges
                0x00000338      0x178 ./objects/stm32l0xx_hal_uart.o
 .debug_aranges
                0x000004b0       0xb8 ./objects/stm32l0xx_hal_adc.o
 .debug_aranges
                0x00000568       0x80 ./objects/stm32l0xx_hal_rcc.o
 .debug_aranges
                0x000005e8       0x98 ./objects/stm32l0xx_hal_rcc_ex.o
 .debug_aranges
                0x00000680       0xd8 ./objects/stm32l0xx_hal.o
 .debug_aranges
                0x00000758       0x80 ./objects/stm32l0xx_hal_cortex.o
 .debug_aranges
                0x000007d8       0x58 ./objects/stm32l0xx_hal_gpio.o
 .debug_aranges
                0x00000830       0x68 ./objects/stm32l0xx_hal_dma.o
 .debug_aranges
                0x00000898       0xa0 ./objects/stm32l0xx_hal_pwr.o
 .debug_aranges
                0x00000938       0x50 ./objects/stm32l0xx_hal_pwr_ex.o
 .debug_aranges
                0x00000988       0xa8 ./objects/stm32l0xx_hal_rtc.o
 .debug_aranges
                0x00000a30      0x108 ./objects/stm32l0xx_hal_rtc_ex.o
 .debug_aranges
                0x00000b38       0x50 ./objects/stm32l0xx_hal_adc_ex.o
 .debug_aranges
                0x00000b88       0x58 ./objects/stm32l0xx_hal_uart_ex.o
 .debug_aranges
                0x00000be0       0x28 ./objects/startup_stm32l072xx.o
 .debug_aranges
                0x00000c08       0x28 ./objects/bsp.o
 .debug_aranges
                0x00000c30       0x28 ./objects/debug.o
 .debug_aranges
                0x00000c58       0x40 ./objects/hw_gpio.o
 .debug_aranges
                0x00000c98       0xa8 ./objects/hw_rtc.o
 .debug_aranges
                0x00000d40       0x40 ./objects/hw_spi.o
 .debug_aranges
                0x00000d80       0x68 ./objects/main.o
 .debug_aranges
                0x00000de8       0x68 ./objects/vcom.o
 .debug_aranges
                0x00000e50       0x58 ./objects/mlm32l0xx_hal_msp.o
 .debug_aranges
                0x00000ea8       0x88 ./objects/mlm32l0xx_hw.o
 .debug_aranges
                0x00000f30       0x78 ./objects/mlm32l0xx_it.o
 .debug_aranges
                0x00000fa8       0x68 ./objects/lora.o
 .debug_aranges
                0x00001010       0x40 ./objects/lora-test.o
 .debug_aranges
                0x00001050      0x158 ./objects/loramac.o
 .debug_aranges
                0x000011a8       0xb0 ./objects/loramaccrypto.o
 .debug_aranges
                0x00001258       0x88 ./objects/loramacclassb.o
 .debug_aranges
                0x000012e0       0x88 ./objects/loramaccommands.o
 .debug_aranges
                0x00001368       0x88 ./objects/loramacconfirmqueue.o
 .debug_aranges
                0x000013f0       0x60 ./objects/loramacfcnthandler.o
 .debug_aranges
                0x00001450       0x28 ./objects/loramacparser.o
 .debug_aranges
                0x00001478       0x38 ./objects/loramacserializer.o
 .debug_aranges
                0x000014b0       0x20 ./objects/loramacadr.o
 .debug_aranges
                0x000014d0       0xd8 ./objects/region.o
 .debug_aranges
                0x000015a8       0x98 ./objects/regioncommon.o
 .debug_aranges
                0x00001640       0xd0 ./objects/regioneu868.o
 .debug_aranges
                0x00001710       0x40 ./objects/low_power_manager.o
 .debug_aranges
                0x00001750       0x70 ./objects/timeserver.o
 .debug_aranges
                0x000017c0       0x50 ./objects/utilities.o
 .debug_aranges
                0x00001810       0x40 ./objects/queue.o
 .debug_aranges
                0x00001850       0x38 ./objects/trace.o
 .debug_aranges
                0x00001888       0x58 ./objects/systime.o
 .debug_aranges
                0x000018e0       0x38 ./objects/aes.o
 .debug_aranges
                0x00001918       0x38 ./objects/cmac.o
 .debug_aranges
                0x00001950       0x78 ./objects/soft-se.o

.debug_ranges   0x00000000     0x5980
 .debug_ranges  0x00000000     0x1258 ./objects/sx1276.o
 .debug_ranges  0x00001258       0x90 ./objects/mlm32l07x01.o
 .debug_ranges  0x000012e8       0x60 ./objects/b-l072z-lrwan1.o
 .debug_ranges  0x00001348       0x18 ./objects/system_stm32l0xx.o
 .debug_ranges  0x00001360      0x520 ./objects/stm32l0xx_hal_spi.o
 .debug_ranges  0x00001880      0x508 ./objects/stm32l0xx_hal_uart.o
 .debug_ranges  0x00001d88      0x258 ./objects/stm32l0xx_hal_adc.o
 .debug_ranges  0x00001fe0      0x1a0 ./objects/stm32l0xx_hal_rcc.o
 .debug_ranges  0x00002180       0xa0 ./objects/stm32l0xx_hal_rcc_ex.o
 .debug_ranges  0x00002220       0xc8 ./objects/stm32l0xx_hal.o
 .debug_ranges  0x000022e8       0xd8 ./objects/stm32l0xx_hal_cortex.o
 .debug_ranges  0x000023c0       0x48 ./objects/stm32l0xx_hal_gpio.o
 .debug_ranges  0x00002408       0x88 ./objects/stm32l0xx_hal_dma.o
 .debug_ranges  0x00002490       0x90 ./objects/stm32l0xx_hal_pwr.o
 .debug_ranges  0x00002520       0x40 ./objects/stm32l0xx_hal_pwr_ex.o
 .debug_ranges  0x00002560      0x240 ./objects/stm32l0xx_hal_rtc.o
 .debug_ranges  0x000027a0       0xf8 ./objects/stm32l0xx_hal_rtc_ex.o
 .debug_ranges  0x00002898       0x40 ./objects/stm32l0xx_hal_adc_ex.o
 .debug_ranges  0x000028d8       0x48 ./objects/stm32l0xx_hal_uart_ex.o
 .debug_ranges  0x00002920       0x20 ./objects/startup_stm32l072xx.o
 .debug_ranges  0x00002940       0x18 ./objects/bsp.o
 .debug_ranges  0x00002958       0x48 ./objects/debug.o
 .debug_ranges  0x000029a0       0x60 ./objects/hw_gpio.o
 .debug_ranges  0x00002a00      0x248 ./objects/hw_rtc.o
 .debug_ranges  0x00002c48       0x70 ./objects/hw_spi.o
 .debug_ranges  0x00002cb8       0xa0 ./objects/main.o
 .debug_ranges  0x00002d58      0x1b8 ./objects/vcom.o
 .debug_ranges  0x00002f10       0x48 ./objects/mlm32l0xx_hal_msp.o
 .debug_ranges  0x00002f58      0x148 ./objects/mlm32l0xx_hw.o
 .debug_ranges  0x000030a0       0x68 ./objects/mlm32l0xx_it.o
 .debug_ranges  0x00003108       0x88 ./objects/lora.o
 .debug_ranges  0x00003190       0xa0 ./objects/lora-test.o
 .debug_ranges  0x00003230      0xcc8 ./objects/loramac.o
 .debug_ranges  0x00003ef8      0x3b0 ./objects/loramaccrypto.o
 .debug_ranges  0x000042a8       0x78 ./objects/loramacclassb.o
 .debug_ranges  0x00004320      0x240 ./objects/loramaccommands.o
 .debug_ranges  0x00004560      0x1d0 ./objects/loramacconfirmqueue.o
 .debug_ranges  0x00004730       0x70 ./objects/loramacfcnthandler.o
 .debug_ranges  0x000047a0       0x18 ./objects/loramacparser.o
 .debug_ranges  0x000047b8       0x28 ./objects/loramacserializer.o
 .debug_ranges  0x000047e0       0x28 ./objects/loramacadr.o
 .debug_ranges  0x00004808       0xc8 ./objects/region.o
 .debug_ranges  0x000048d0      0x220 ./objects/regioncommon.o
 .debug_ranges  0x00004af0      0x3b8 ./objects/regioneu868.o
 .debug_ranges  0x00004ea8       0x30 ./objects/low_power_manager.o
 .debug_ranges  0x00004ed8      0x1e8 ./objects/timeserver.o
 .debug_ranges  0x000050c0       0x68 ./objects/utilities.o
 .debug_ranges  0x00005128      0x170 ./objects/queue.o
 .debug_ranges  0x00005298       0x28 ./objects/trace.o
 .debug_ranges  0x000052c0      0x1a0 ./objects/systime.o
 .debug_ranges  0x00005460      0x2f0 ./objects/aes.o
 .debug_ranges  0x00005750       0xd8 ./objects/cmac.o
 .debug_ranges  0x00005828      0x158 ./objects/soft-se.o

.debug_line     0x00000000    0x1540c
 .debug_line    0x00000000     0x1aa4 ./objects/sx1276.o
 .debug_line    0x00001aa4      0x4e2 ./objects/mlm32l07x01.o
 .debug_line    0x00001f86      0x409 ./objects/b-l072z-lrwan1.o
 .debug_line    0x0000238f      0x2dc ./objects/system_stm32l0xx.o
 .debug_line    0x0000266b      0xf3f ./objects/stm32l0xx_hal_spi.o
 .debug_line    0x000035aa     0x136b ./objects/stm32l0xx_hal_uart.o
 .debug_line    0x00004915      0x8ed ./objects/stm32l0xx_hal_adc.o
 .debug_line    0x00005202      0x71a ./objects/stm32l0xx_hal_rcc.o
 .debug_line    0x0000591c      0x683 ./objects/stm32l0xx_hal_rcc_ex.o
 .debug_line    0x00005f9f      0x4c1 ./objects/stm32l0xx_hal.o
 .debug_line    0x00006460      0x489 ./objects/stm32l0xx_hal_cortex.o
 .debug_line    0x000068e9      0x45a ./objects/stm32l0xx_hal_gpio.o
 .debug_line    0x00006d43      0x71c ./objects/stm32l0xx_hal_dma.o
 .debug_line    0x0000745f      0x43d ./objects/stm32l0xx_hal_pwr.o
 .debug_line    0x0000789c      0x330 ./objects/stm32l0xx_hal_pwr_ex.o
 .debug_line    0x00007bcc      0x903 ./objects/stm32l0xx_hal_rtc.o
 .debug_line    0x000084cf      0xb00 ./objects/stm32l0xx_hal_rtc_ex.o
 .debug_line    0x00008fcf      0x3ef ./objects/stm32l0xx_hal_adc_ex.o
 .debug_line    0x000093be      0x492 ./objects/stm32l0xx_hal_uart_ex.o
 .debug_line    0x00009850       0xc1 ./objects/startup_stm32l072xx.o
 .debug_line    0x00009911      0x2b0 ./objects/bsp.o
 .debug_line    0x00009bc1      0x363 ./objects/debug.o
 .debug_line    0x00009f24      0x3a6 ./objects/hw_gpio.o
 .debug_line    0x0000a2ca      0x86b ./objects/hw_rtc.o
 .debug_line    0x0000ab35      0x45b ./objects/hw_spi.o
 .debug_line    0x0000af90      0x63f ./objects/main.o
 .debug_line    0x0000b5cf      0x4df ./objects/vcom.o
 .debug_line    0x0000baae      0x4ac ./objects/mlm32l0xx_hal_msp.o
 .debug_line    0x0000bf5a      0x789 ./objects/mlm32l0xx_hw.o
 .debug_line    0x0000c6e3      0x3d2 ./objects/mlm32l0xx_it.o
 .debug_line    0x0000cab5      0x591 ./objects/lora.o
 .debug_line    0x0000d046      0x52d ./objects/lora-test.o
 .debug_line    0x0000d573     0x1962 ./objects/loramac.o
 .debug_line    0x0000eed5      0x956 ./objects/loramaccrypto.o
 .debug_line    0x0000f82b      0x45e ./objects/loramacclassb.o
 .debug_line    0x0000fc89      0x5cb ./objects/loramaccommands.o
 .debug_line    0x00010254      0x5a9 ./objects/loramacconfirmqueue.o
 .debug_line    0x000107fd      0x493 ./objects/loramacfcnthandler.o
 .debug_line    0x00010c90      0x39b ./objects/loramacparser.o
 .debug_line    0x0001102b      0x3ec ./objects/loramacserializer.o
 .debug_line    0x00011417      0x3c7 ./objects/loramacadr.o
 .debug_line    0x000117de      0x5a0 ./objects/region.o
 .debug_line    0x00011d7e      0x677 ./objects/regioncommon.o
 .debug_line    0x000123f5      0x97b ./objects/regioneu868.o
 .debug_line    0x00012d70      0x3d4 ./objects/low_power_manager.o
 .debug_line    0x00013144      0x5d6 ./objects/timeserver.o
 .debug_line    0x0001371a      0x339 ./objects/utilities.o
 .debug_line    0x00013a53      0x298 ./objects/queue.o
 .debug_line    0x00013ceb      0x3fe ./objects/trace.o
 .debug_line    0x000140e9      0x4cb ./objects/systime.o
 .debug_line    0x000145b4      0x551 ./objects/aes.o
 .debug_line    0x00014b05      0x398 ./objects/cmac.o
 .debug_line    0x00014e9d      0x56f ./objects/soft-se.o

.debug_str      0x00000000     0xc8f8
 .debug_str     0x00000000      0xf50 ./objects/sx1276.o
                               0x11f6 (size before relaxing)
 .debug_str     0x00000f50      0x13d ./objects/mlm32l07x01.o
                                0xd70 (size before relaxing)
 .debug_str     0x0000108d      0x4f6 ./objects/b-l072z-lrwan1.o
                                0xb6e (size before relaxing)
 .debug_str     0x00001583       0x9a ./objects/system_stm32l0xx.o
                                0x73b (size before relaxing)
 .debug_str     0x0000161d      0x751 ./objects/stm32l0xx_hal_spi.o
                                0xdda (size before relaxing)
 .debug_str     0x00001d6e      0x98a ./objects/stm32l0xx_hal_uart.o
                               0x132b (size before relaxing)
 .debug_str     0x000026f8      0x507 ./objects/stm32l0xx_hal_adc.o
                                0xd9f (size before relaxing)
 .debug_str     0x00002bff      0x359 ./objects/stm32l0xx_hal_rcc.o
                                0xb32 (size before relaxing)
 .debug_str     0x00002f58      0x427 ./objects/stm32l0xx_hal_rcc_ex.o
                                0xbff (size before relaxing)
 .debug_str     0x0000337f      0x2d5 ./objects/stm32l0xx_hal.o
                                0xbed (size before relaxing)
 .debug_str     0x00003654      0x28e ./objects/stm32l0xx_hal_cortex.o
                                0xb63 (size before relaxing)
 .debug_str     0x000038e2       0xd3 ./objects/stm32l0xx_hal_gpio.o
                                0x8ba (size before relaxing)
 .debug_str     0x000039b5      0x152 ./objects/stm32l0xx_hal_dma.o
                                0x9a8 (size before relaxing)
 .debug_str     0x00003b07      0x215 ./objects/stm32l0xx_hal_pwr.o
                                0x8f1 (size before relaxing)
 .debug_str     0x00003d1c      0x129 ./objects/stm32l0xx_hal_pwr_ex.o
                                0x74d (size before relaxing)
 .debug_str     0x00003e45      0x41e ./objects/stm32l0xx_hal_rtc.o
                                0xb1b (size before relaxing)
 .debug_str     0x00004263      0x577 ./objects/stm32l0xx_hal_rtc_ex.o
                                0xe7d (size before relaxing)
 .debug_str     0x000047da      0x157 ./objects/stm32l0xx_hal_adc_ex.o
                                0xb72 (size before relaxing)
 .debug_str     0x00004931      0x194 ./objects/stm32l0xx_hal_uart_ex.o
                                0xcc5 (size before relaxing)
 .debug_str     0x00004ac5       0x6d ./objects/startup_stm32l072xx.o
                                 0xe0 (size before relaxing)
 .debug_str     0x00004b32       0xc7 ./objects/bsp.o
                                0x759 (size before relaxing)
 .debug_str     0x00004bf9       0x4f ./objects/debug.o
                                0x84b (size before relaxing)
 .debug_str     0x00004c48       0x8f ./objects/hw_gpio.o
                                0xaa4 (size before relaxing)
 .debug_str     0x00004cd7      0x435 ./objects/hw_rtc.o
                               0x10a6 (size before relaxing)
 .debug_str     0x0000510c       0x8a ./objects/hw_spi.o
                                0xc55 (size before relaxing)
 .debug_str     0x00005196      0x35c ./objects/main.o
                                0xe70 (size before relaxing)
 .debug_str     0x000054f2       0x9b ./objects/vcom.o
                                0xf9a (size before relaxing)
 .debug_str     0x0000558d       0x50 ./objects/mlm32l0xx_hal_msp.o
                                0xe75 (size before relaxing)
 .debug_str     0x000055dd      0x16a ./objects/mlm32l0xx_hw.o
                               0x128b (size before relaxing)
 .debug_str     0x00005747      0x125 ./objects/mlm32l0xx_it.o
                                0x7ff (size before relaxing)
 .debug_str     0x0000586c     0x1b74 ./objects/lora.o
                               0x29b1 (size before relaxing)
 .debug_str     0x000073e0       0xec ./objects/lora-test.o
                               0x2461 (size before relaxing)
 .debug_str     0x000074cc     0x3243 ./objects/loramac.o
                               0x5c02 (size before relaxing)
 .debug_str     0x0000a70f      0x632 ./objects/loramaccrypto.o
                               0x1734 (size before relaxing)
 .debug_str     0x0000ad41      0x13d ./objects/loramacclassb.o
                               0x2769 (size before relaxing)
 .debug_str     0x0000ae7e      0x241 ./objects/loramaccommands.o
                                0xe7b (size before relaxing)
 .debug_str     0x0000b0bf      0x1f3 ./objects/loramacconfirmqueue.o
                               0x137f (size before relaxing)
 .debug_str     0x0000b2b2      0x10f ./objects/loramacfcnthandler.o
                                0xd19 (size before relaxing)
 .debug_str     0x0000b3c1       0x5c ./objects/loramacparser.o
                                0x8eb (size before relaxing)
 .debug_str     0x0000b41d       0x74 ./objects/loramacserializer.o
                                0x9a0 (size before relaxing)
 .debug_str     0x0000b491       0x77 ./objects/loramacadr.o
                               0x1112 (size before relaxing)
 .debug_str     0x0000b508      0x3d7 ./objects/region.o
                               0x1e94 (size before relaxing)
 .debug_str     0x0000b8df      0x53a ./objects/regioncommon.o
                               0x11bd (size before relaxing)
 .debug_str     0x0000be19      0x1c7 ./objects/regioneu868.o
                               0x2198 (size before relaxing)
 .debug_str     0x0000bfe0       0xda ./objects/low_power_manager.o
                                0x884 (size before relaxing)
 .debug_str     0x0000c0ba      0x116 ./objects/timeserver.o
                                0x9bb (size before relaxing)
 .debug_str     0x0000c1d0       0x57 ./objects/utilities.o
                                0x6c9 (size before relaxing)
 .debug_str     0x0000c227      0x185 ./objects/queue.o
                                0x370 (size before relaxing)
 .debug_str     0x0000c3ac       0xfa ./objects/trace.o
                                0x8c5 (size before relaxing)
 .debug_str     0x0000c4a6      0x14b ./objects/systime.o
                                0x86e (size before relaxing)
 .debug_str     0x0000c5f1      0x110 ./objects/aes.o
                                0x6bf (size before relaxing)
 .debug_str     0x0000c701       0xa7 ./objects/cmac.o
                                0x700 (size before relaxing)
 .debug_str     0x0000c7a8      0x150 ./objects/soft-se.o
                                0xdcd (size before relaxing)

.comment        0x00000000       0x7f
 .comment       0x00000000       0x7f ./objects/sx1276.o
                                 0x80 (size before relaxing)
 .comment       0x0000007f       0x80 ./objects/mlm32l07x01.o
 .comment       0x0000007f       0x80 ./objects/b-l072z-lrwan1.o
 .comment       0x0000007f       0x80 ./objects/system_stm32l0xx.o
 .comment       0x0000007f       0x80 ./objects/stm32l0xx_hal_spi.o
 .comment       0x0000007f       0x80 ./objects/stm32l0xx_hal_uart.o
 .comment       0x0000007f       0x80 ./objects/stm32l0xx_hal_adc.o
 .comment       0x0000007f       0x80 ./objects/stm32l0xx_hal_rcc.o
 .comment       0x0000007f       0x80 ./objects/stm32l0xx_hal_rcc_ex.o
 .comment       0x0000007f       0x80 ./objects/stm32l0xx_hal.o
 .comment       0x0000007f       0x80 ./objects/stm32l0xx_hal_cortex.o
 .comment       0x0000007f       0x80 ./objects/stm32l0xx_hal_gpio.o
 .comment       0x0000007f       0x80 ./objects/stm32l0xx_hal_dma.o
 .comment       0x0000007f       0x80 ./objects/stm32l0xx_hal_pwr.o
 .comment       0x0000007f       0x80 ./objects/stm32l0xx_hal_pwr_ex.o
 .comment       0x0000007f       0x80 ./objects/stm32l0xx_hal_rtc.o
 .comment       0x0000007f       0x80 ./objects/stm32l0xx_hal_rtc_ex.o
 .comment       0x0000007f       0x80 ./objects/stm32l0xx_hal_adc_ex.o
 .comment       0x0000007f       0x80 ./objects/stm32l0xx_hal_uart_ex.o
 .comment       0x0000007f       0x80 ./objects/bsp.o
 .comment       0x0000007f       0x80 ./objects/debug.o
 .comment       0x0000007f       0x80 ./objects/hw_gpio.o
 .comment       0x0000007f       0x80 ./objects/hw_rtc.o
 .comment       0x0000007f       0x80 ./objects/hw_spi.o
 .comment       0x0000007f       0x80 ./objects/main.o
 .comment       0x0000007f       0x80 ./objects/vcom.o
 .comment       0x0000007f       0x80 ./objects/mlm32l0xx_hal_msp.o
 .comment       0x0000007f       0x80 ./objects/mlm32l0xx_hw.o
 .comment       0x0000007f       0x80 ./objects/mlm32l0xx_it.o
 .comment       0x0000007f       0x80 ./objects/lora.o
 .comment       0x0000007f       0x80 ./objects/lora-test.o
 .comment       0x0000007f       0x80 ./objects/loramac.o
 .comment       0x0000007f       0x80 ./objects/loramaccrypto.o
 .comment       0x0000007f       0x80 ./objects/loramacclassb.o
 .comment       0x0000007f       0x80 ./objects/loramaccommands.o
 .comment       0x0000007f       0x80 ./objects/loramacconfirmqueue.o
 .comment       0x0000007f       0x80 ./objects/loramacfcnthandler.o
 .comment       0x0000007f       0x80 ./objects/loramacparser.o
 .comment       0x0000007f       0x80 ./objects/loramacserializer.o
 .comment       0x0000007f       0x80 ./objects/loramacadr.o
 .comment       0x0000007f       0x80 ./objects/region.o
 .comment       0x0000007f       0x80 ./objects/regioncommon.o
 .comment       0x0000007f       0x80 ./objects/regioneu868.o
 .comment       0x0000007f       0x80 ./objects/low_power_manager.o
 .comment       0x0000007f       0x80 ./objects/timeserver.o
 .comment       0x0000007f       0x80 ./objects/utilities.o
 .comment       0x0000007f       0x80 ./objects/queue.o
 .comment       0x0000007f       0x80 ./objects/trace.o
 .comment       0x0000007f       0x80 ./objects/systime.o
 .comment       0x0000007f       0x80 ./objects/aes.o
 .comment       0x0000007f       0x80 ./objects/cmac.o
 .comment       0x0000007f       0x80 ./objects/soft-se.o

.debug_frame    0x00000000     0x5be4
 .debug_frame   0x00000000      0x5bc ./objects/sx1276.o
 .debug_frame   0x000005bc      0x10c ./objects/mlm32l07x01.o
 .debug_frame   0x000006c8       0xcc ./objects/b-l072z-lrwan1.o
 .debug_frame   0x00000794       0x40 ./objects/system_stm32l0xx.o
 .debug_frame   0x000007d4      0x410 ./objects/stm32l0xx_hal_spi.o
 .debug_frame   0x00000be4      0x5f8 ./objects/stm32l0xx_hal_uart.o
 .debug_frame   0x000011dc      0x2c4 ./objects/stm32l0xx_hal_adc.o
 .debug_frame   0x000014a0      0x160 ./objects/stm32l0xx_hal_rcc.o
 .debug_frame   0x00001600      0x1b8 ./objects/stm32l0xx_hal_rcc_ex.o
 .debug_frame   0x000017b8      0x1d0 ./objects/stm32l0xx_hal.o
 .debug_frame   0x00001988      0x110 ./objects/stm32l0xx_hal_cortex.o
 .debug_frame   0x00001a98       0xe8 ./objects/stm32l0xx_hal_gpio.o
 .debug_frame   0x00001b80      0x130 ./objects/stm32l0xx_hal_dma.o
 .debug_frame   0x00001cb0      0x148 ./objects/stm32l0xx_hal_pwr.o
 .debug_frame   0x00001df8       0x8c ./objects/stm32l0xx_hal_pwr_ex.o
 .debug_frame   0x00001e84      0x2b0 ./objects/stm32l0xx_hal_rtc.o
 .debug_frame   0x00002134      0x470 ./objects/stm32l0xx_hal_rtc_ex.o
 .debug_frame   0x000025a4       0xbc ./objects/stm32l0xx_hal_adc_ex.o
 .debug_frame   0x00002660       0xf4 ./objects/stm32l0xx_hal_uart_ex.o
 .debug_frame   0x00002754       0x30 ./objects/bsp.o
 .debug_frame   0x00002784       0x4c ./objects/debug.o
 .debug_frame   0x000027d0       0xa4 ./objects/hw_gpio.o
 .debug_frame   0x00002874      0x26c ./objects/hw_rtc.o
 .debug_frame   0x00002ae0       0xb0 ./objects/hw_spi.o
 .debug_frame   0x00002b90      0x134 ./objects/main.o
 .debug_frame   0x00002cc4      0x13c ./objects/vcom.o
 .debug_frame   0x00002e00       0xcc ./objects/mlm32l0xx_hal_msp.o
 .debug_frame   0x00002ecc      0x1b4 ./objects/mlm32l0xx_hw.o
 .debug_frame   0x00003080      0x154 ./objects/mlm32l0xx_it.o
 .debug_frame   0x000031d4      0x144 ./objects/lora.o
 .debug_frame   0x00003318       0x94 ./objects/lora-test.o
 .debug_frame   0x000033ac      0x5b0 ./objects/loramac.o
 .debug_frame   0x0000395c      0x2b8 ./objects/loramaccrypto.o
 .debug_frame   0x00003c14      0x210 ./objects/loramacclassb.o
 .debug_frame   0x00003e24      0x18c ./objects/loramaccommands.o
 .debug_frame   0x00003fb0      0x180 ./objects/loramacconfirmqueue.o
 .debug_frame   0x00004130       0xf0 ./objects/loramacfcnthandler.o
 .debug_frame   0x00004220       0x58 ./objects/loramacparser.o
 .debug_frame   0x00004278       0x84 ./objects/loramacserializer.o
 .debug_frame   0x000042fc       0x44 ./objects/loramacadr.o
 .debug_frame   0x00004340      0x2a4 ./objects/region.o
 .debug_frame   0x000045e4      0x234 ./objects/regioncommon.o
 .debug_frame   0x00004818      0x330 ./objects/regioneu868.o
 .debug_frame   0x00004b48       0xbc ./objects/low_power_manager.o
 .debug_frame   0x00004c04      0x168 ./objects/timeserver.o
 .debug_frame   0x00004d6c       0xbc ./objects/utilities.o
 .debug_frame   0x00004e28       0xa4 ./objects/queue.o
 .debug_frame   0x00004ecc       0x9c ./objects/trace.o
 .debug_frame   0x00004f68      0x118 ./objects/systime.o
 .debug_frame   0x00005080       0xc8 ./objects/aes.o
 .debug_frame   0x00005148       0xa0 ./objects/cmac.o
 .debug_frame   0x000051e8      0x194 ./objects/soft-se.o
 .debug_frame   0x0000537c       0x38 c:/program files (x86)/gnu tools arm embedded/7 2018-q2-update/bin/../lib/gcc/arm-none-eabi/7.3.1/../../../../arm-none-eabi/lib/thumb/v6-m\libm.a(lib_a-s_ceil.o)
 .debug_frame   0x000053b4       0x38 c:/program files (x86)/gnu tools arm embedded/7 2018-q2-update/bin/../lib/gcc/arm-none-eabi/7.3.1/../../../../arm-none-eabi/lib/thumb/v6-m\libm.a(lib_a-s_floor.o)
 .debug_frame   0x000053ec       0x30 c:/program files (x86)/gnu tools arm embedded/7 2018-q2-update/bin/../lib/gcc/arm-none-eabi/7.3.1/../../../../arm-none-eabi/lib/thumb/v6-m\libm.a(lib_a-s_round.o)
 .debug_frame   0x0000541c       0x20 c:/program files (x86)/gnu tools arm embedded/7 2018-q2-update/bin/../lib/gcc/arm-none-eabi/7.3.1/thumb/v6-m\libgcc.a(_udivsi3.o)
 .debug_frame   0x0000543c       0x20 c:/program files (x86)/gnu tools arm embedded/7 2018-q2-update/bin/../lib/gcc/arm-none-eabi/7.3.1/thumb/v6-m\libgcc.a(_divsi3.o)
 .debug_frame   0x0000545c       0x28 c:/program files (x86)/gnu tools arm embedded/7 2018-q2-update/bin/../lib/gcc/arm-none-eabi/7.3.1/thumb/v6-m\libgcc.a(_fixunssfsi.o)
 .debug_frame   0x00005484       0x2c c:/program files (x86)/gnu tools arm embedded/7 2018-q2-update/bin/../lib/gcc/arm-none-eabi/7.3.1/thumb/v6-m\libgcc.a(_fixunsdfsi.o)
 .debug_frame   0x000054b0       0x3c c:/program files (x86)/gnu tools arm embedded/7 2018-q2-update/bin/../lib/gcc/arm-none-eabi/7.3.1/thumb/v6-m\libgcc.a(_udivmoddi4.o)
 .debug_frame   0x000054ec       0x3c c:/program files (x86)/gnu tools arm embedded/7 2018-q2-update/bin/../lib/gcc/arm-none-eabi/7.3.1/thumb/v6-m\libgcc.a(divsf3.o)
 .debug_frame   0x00005528       0x2c c:/program files (x86)/gnu tools arm embedded/7 2018-q2-update/bin/../lib/gcc/arm-none-eabi/7.3.1/thumb/v6-m\libgcc.a(eqsf2.o)
 .debug_frame   0x00005554       0x2c c:/program files (x86)/gnu tools arm embedded/7 2018-q2-update/bin/../lib/gcc/arm-none-eabi/7.3.1/thumb/v6-m\libgcc.a(gesf2.o)
 .debug_frame   0x00005580       0x2c c:/program files (x86)/gnu tools arm embedded/7 2018-q2-update/bin/../lib/gcc/arm-none-eabi/7.3.1/thumb/v6-m\libgcc.a(lesf2.o)
 .debug_frame   0x000055ac       0x3c c:/program files (x86)/gnu tools arm embedded/7 2018-q2-update/bin/../lib/gcc/arm-none-eabi/7.3.1/thumb/v6-m\libgcc.a(mulsf3.o)
 .debug_frame   0x000055e8       0x38 c:/program files (x86)/gnu tools arm embedded/7 2018-q2-update/bin/../lib/gcc/arm-none-eabi/7.3.1/thumb/v6-m\libgcc.a(subsf3.o)
 .debug_frame   0x00005620       0x20 c:/program files (x86)/gnu tools arm embedded/7 2018-q2-update/bin/../lib/gcc/arm-none-eabi/7.3.1/thumb/v6-m\libgcc.a(fixsfsi.o)
 .debug_frame   0x00005640       0x2c c:/program files (x86)/gnu tools arm embedded/7 2018-q2-update/bin/../lib/gcc/arm-none-eabi/7.3.1/thumb/v6-m\libgcc.a(floatunsisf.o)
 .debug_frame   0x0000566c       0x38 c:/program files (x86)/gnu tools arm embedded/7 2018-q2-update/bin/../lib/gcc/arm-none-eabi/7.3.1/thumb/v6-m\libgcc.a(adddf3.o)
 .debug_frame   0x000056a4       0x3c c:/program files (x86)/gnu tools arm embedded/7 2018-q2-update/bin/../lib/gcc/arm-none-eabi/7.3.1/thumb/v6-m\libgcc.a(divdf3.o)
 .debug_frame   0x000056e0       0x38 c:/program files (x86)/gnu tools arm embedded/7 2018-q2-update/bin/../lib/gcc/arm-none-eabi/7.3.1/thumb/v6-m\libgcc.a(eqdf2.o)
 .debug_frame   0x00005718       0x38 c:/program files (x86)/gnu tools arm embedded/7 2018-q2-update/bin/../lib/gcc/arm-none-eabi/7.3.1/thumb/v6-m\libgcc.a(gedf2.o)
 .debug_frame   0x00005750       0x38 c:/program files (x86)/gnu tools arm embedded/7 2018-q2-update/bin/../lib/gcc/arm-none-eabi/7.3.1/thumb/v6-m\libgcc.a(ledf2.o)
 .debug_frame   0x00005788       0x3c c:/program files (x86)/gnu tools arm embedded/7 2018-q2-update/bin/../lib/gcc/arm-none-eabi/7.3.1/thumb/v6-m\libgcc.a(muldf3.o)
 .debug_frame   0x000057c4       0x3c c:/program files (x86)/gnu tools arm embedded/7 2018-q2-update/bin/../lib/gcc/arm-none-eabi/7.3.1/thumb/v6-m\libgcc.a(subdf3.o)
 .debug_frame   0x00005800       0x2c c:/program files (x86)/gnu tools arm embedded/7 2018-q2-update/bin/../lib/gcc/arm-none-eabi/7.3.1/thumb/v6-m\libgcc.a(fixdfsi.o)
 .debug_frame   0x0000582c       0x2c c:/program files (x86)/gnu tools arm embedded/7 2018-q2-update/bin/../lib/gcc/arm-none-eabi/7.3.1/thumb/v6-m\libgcc.a(floatsidf.o)
 .debug_frame   0x00005858       0x28 c:/program files (x86)/gnu tools arm embedded/7 2018-q2-update/bin/../lib/gcc/arm-none-eabi/7.3.1/thumb/v6-m\libgcc.a(floatunsidf.o)
 .debug_frame   0x00005880       0x2c c:/program files (x86)/gnu tools arm embedded/7 2018-q2-update/bin/../lib/gcc/arm-none-eabi/7.3.1/thumb/v6-m\libgcc.a(extendsfdf2.o)
 .debug_frame   0x000058ac       0x2c c:/program files (x86)/gnu tools arm embedded/7 2018-q2-update/bin/../lib/gcc/arm-none-eabi/7.3.1/../../../../arm-none-eabi/lib/thumb/v6-m\libc_nano.a(lib_a-init.o)
 .debug_frame   0x000058d8       0x20 c:/program files (x86)/gnu tools arm embedded/7 2018-q2-update/bin/../lib/gcc/arm-none-eabi/7.3.1/../../../../arm-none-eabi/lib/thumb/v6-m\libc_nano.a(lib_a-memset.o)
 .debug_frame   0x000058f8       0x48 c:/program files (x86)/gnu tools arm embedded/7 2018-q2-update/bin/../lib/gcc/arm-none-eabi/7.3.1/../../../../arm-none-eabi/lib/thumb/v6-m\libc_nano.a(lib_a-vsnprintf.o)
 .debug_frame   0x00005940       0x74 c:/program files (x86)/gnu tools arm embedded/7 2018-q2-update/bin/../lib/gcc/arm-none-eabi/7.3.1/../../../../arm-none-eabi/lib/thumb/v6-m\libc_nano.a(lib_a-nano-svfprintf.o)
 .debug_frame   0x000059b4       0x54 c:/program files (x86)/gnu tools arm embedded/7 2018-q2-update/bin/../lib/gcc/arm-none-eabi/7.3.1/../../../../arm-none-eabi/lib/thumb/v6-m\libc_nano.a(lib_a-nano-vfprintf_i.o)
 .debug_frame   0x00005a08       0x20 c:/program files (x86)/gnu tools arm embedded/7 2018-q2-update/bin/../lib/gcc/arm-none-eabi/7.3.1/../../../../arm-none-eabi/lib/thumb/v6-m\libc_nano.a(lib_a-memchr-stub.o)
 .debug_frame   0x00005a28       0x28 c:/program files (x86)/gnu tools arm embedded/7 2018-q2-update/bin/../lib/gcc/arm-none-eabi/7.3.1/../../../../arm-none-eabi/lib/thumb/v6-m\libc_nano.a(lib_a-memcpy-stub.o)
 .debug_frame   0x00005a50       0x28 c:/program files (x86)/gnu tools arm embedded/7 2018-q2-update/bin/../lib/gcc/arm-none-eabi/7.3.1/../../../../arm-none-eabi/lib/thumb/v6-m\libc_nano.a(lib_a-memmove.o)
 .debug_frame   0x00005a78       0x2c c:/program files (x86)/gnu tools arm embedded/7 2018-q2-update/bin/../lib/gcc/arm-none-eabi/7.3.1/../../../../arm-none-eabi/lib/thumb/v6-m\libc_nano.a(lib_a-nano-freer.o)
 .debug_frame   0x00005aa4       0x2c c:/program files (x86)/gnu tools arm embedded/7 2018-q2-update/bin/../lib/gcc/arm-none-eabi/7.3.1/../../../../arm-none-eabi/lib/thumb/v6-m\libc_nano.a(lib_a-nano-mallocr.o)
 .debug_frame   0x00005ad0       0x30 c:/program files (x86)/gnu tools arm embedded/7 2018-q2-update/bin/../lib/gcc/arm-none-eabi/7.3.1/../../../../arm-none-eabi/lib/thumb/v6-m\libc_nano.a(lib_a-nano-reallocr.o)
 .debug_frame   0x00005b00       0x2c c:/program files (x86)/gnu tools arm embedded/7 2018-q2-update/bin/../lib/gcc/arm-none-eabi/7.3.1/../../../../arm-none-eabi/lib/thumb/v6-m\libc_nano.a(lib_a-sbrkr.o)
 .debug_frame   0x00005b2c       0x30 c:/program files (x86)/gnu tools arm embedded/7 2018-q2-update/bin/../lib/gcc/arm-none-eabi/7.3.1/../../../../arm-none-eabi/lib/thumb/v6-m\libc_nano.a(lib_a-mlock.o)
 .debug_frame   0x00005b5c       0x20 c:/program files (x86)/gnu tools arm embedded/7 2018-q2-update/bin/../lib/gcc/arm-none-eabi/7.3.1/../../../../arm-none-eabi/lib/thumb/v6-m\libc_nano.a(lib_a-nano-msizer.o)
 .debug_frame   0x00005b7c       0x48 c:/program files (x86)/gnu tools arm embedded/7 2018-q2-update/bin/../lib/gcc/arm-none-eabi/7.3.1/../../../../arm-none-eabi/lib/thumb/v6-m\libc_nano.a(lib_a-reent.o)
 .debug_frame   0x00005bc4       0x20 c:/program files (x86)/gnu tools arm embedded/7 2018-q2-update/bin/../lib/gcc/arm-none-eabi/7.3.1/../../../../arm-none-eabi/lib/thumb/v6-m\libnosys.a(sbrk.o)
