ARM GAS  C:\Users\EBANO_~1\AppData\Local\Temp\cc6q1viJ.s 			page 1


   1              		.cpu cortex-m0plus
   2              		.eabi_attribute 20, 1
   3              		.eabi_attribute 21, 1
   4              		.eabi_attribute 23, 3
   5              		.eabi_attribute 24, 1
   6              		.eabi_attribute 25, 1
   7              		.eabi_attribute 26, 1
   8              		.eabi_attribute 30, 2
   9              		.eabi_attribute 34, 0
  10              		.eabi_attribute 18, 4
  11              		.file	"LoRaMacFCntHandler.c"
  12              		.text
  13              	.Ltext0:
  14              		.cfi_sections	.debug_frame
  15              		.section	.text.LoRaMacFCntHandlerInit,"ax",%progbits
  16              		.align	1
  17              		.p2align 2,,3
  18              		.global	LoRaMacFCntHandlerInit
  19              		.syntax unified
  20              		.code	16
  21              		.thumb_func
  22              		.fpu softvfp
  23              		.type	LoRaMacFCntHandlerInit, %function
  24              	LoRaMacFCntHandlerInit:
  25              	.LFB40:
  26              		.file 1 "../../../../../../Middlewares/Third_Party/LoRaWAN/Mac/LoRaMacFCntHandler.c"
   1:../../../../../../Middlewares/Third_Party/LoRaWAN/Mac/LoRaMacFCntHandler.c **** /*
   2:../../../../../../Middlewares/Third_Party/LoRaWAN/Mac/LoRaMacFCntHandler.c ****  / _____)             _              | |
   3:../../../../../../Middlewares/Third_Party/LoRaWAN/Mac/LoRaMacFCntHandler.c **** ( (____  _____ ____ _| |_ _____  ____| |__
   4:../../../../../../Middlewares/Third_Party/LoRaWAN/Mac/LoRaMacFCntHandler.c ****  \____ \| ___ |    (_   _) ___ |/ ___)  _ \
   5:../../../../../../Middlewares/Third_Party/LoRaWAN/Mac/LoRaMacFCntHandler.c ****  _____) ) ____| | | || |_| ____( (___| | | |
   6:../../../../../../Middlewares/Third_Party/LoRaWAN/Mac/LoRaMacFCntHandler.c **** (______/|_____)_|_|_| \__)_____)\____)_| |_|
   7:../../../../../../Middlewares/Third_Party/LoRaWAN/Mac/LoRaMacFCntHandler.c ****     (C)2013 Semtech
   8:../../../../../../Middlewares/Third_Party/LoRaWAN/Mac/LoRaMacFCntHandler.c ****  ___ _____ _   ___ _  _____ ___  ___  ___ ___
   9:../../../../../../Middlewares/Third_Party/LoRaWAN/Mac/LoRaMacFCntHandler.c **** / __|_   _/_\ / __| |/ / __/ _ \| _ \/ __| __|
  10:../../../../../../Middlewares/Third_Party/LoRaWAN/Mac/LoRaMacFCntHandler.c **** \__ \ | |/ _ \ (__| ' <| _| (_) |   / (__| _|
  11:../../../../../../Middlewares/Third_Party/LoRaWAN/Mac/LoRaMacFCntHandler.c **** |___/ |_/_/ \_\___|_|\_\_| \___/|_|_\\___|___|
  12:../../../../../../Middlewares/Third_Party/LoRaWAN/Mac/LoRaMacFCntHandler.c **** embedded.connectivity.solutions===============
  13:../../../../../../Middlewares/Third_Party/LoRaWAN/Mac/LoRaMacFCntHandler.c **** 
  14:../../../../../../Middlewares/Third_Party/LoRaWAN/Mac/LoRaMacFCntHandler.c **** Description: LoRa MAC layer frame counter handling implementation
  15:../../../../../../Middlewares/Third_Party/LoRaWAN/Mac/LoRaMacFCntHandler.c **** 
  16:../../../../../../Middlewares/Third_Party/LoRaWAN/Mac/LoRaMacFCntHandler.c **** License: Revised BSD License, see LICENSE.TXT file include in the project
  17:../../../../../../Middlewares/Third_Party/LoRaWAN/Mac/LoRaMacFCntHandler.c **** 
  18:../../../../../../Middlewares/Third_Party/LoRaWAN/Mac/LoRaMacFCntHandler.c **** Maintainer: Miguel Luis ( Semtech ), Daniel Jaeckle ( STACKFORCE ), Johannes Bruder ( STACKFORCE )
  19:../../../../../../Middlewares/Third_Party/LoRaWAN/Mac/LoRaMacFCntHandler.c **** */
  20:../../../../../../Middlewares/Third_Party/LoRaWAN/Mac/LoRaMacFCntHandler.c **** 
  21:../../../../../../Middlewares/Third_Party/LoRaWAN/Mac/LoRaMacFCntHandler.c **** #include <string.h>
  22:../../../../../../Middlewares/Third_Party/LoRaWAN/Mac/LoRaMacFCntHandler.c **** #include "utilities.h"
  23:../../../../../../Middlewares/Third_Party/LoRaWAN/Mac/LoRaMacFCntHandler.c **** #include "LoRaMacFCntHandler.h"
  24:../../../../../../Middlewares/Third_Party/LoRaWAN/Mac/LoRaMacFCntHandler.c **** 
  25:../../../../../../Middlewares/Third_Party/LoRaWAN/Mac/LoRaMacFCntHandler.c **** /*
  26:../../../../../../Middlewares/Third_Party/LoRaWAN/Mac/LoRaMacFCntHandler.c ****  * Initial value of the frame counters
  27:../../../../../../Middlewares/Third_Party/LoRaWAN/Mac/LoRaMacFCntHandler.c ****  */
  28:../../../../../../Middlewares/Third_Party/LoRaWAN/Mac/LoRaMacFCntHandler.c **** #define FCNT_DOWN_INITAL_VALUE          0xFFFFFFFF
  29:../../../../../../Middlewares/Third_Party/LoRaWAN/Mac/LoRaMacFCntHandler.c **** 
  30:../../../../../../Middlewares/Third_Party/LoRaWAN/Mac/LoRaMacFCntHandler.c **** 
  31:../../../../../../Middlewares/Third_Party/LoRaWAN/Mac/LoRaMacFCntHandler.c **** /*!
ARM GAS  C:\Users\EBANO_~1\AppData\Local\Temp\cc6q1viJ.s 			page 2


  32:../../../../../../Middlewares/Third_Party/LoRaWAN/Mac/LoRaMacFCntHandler.c ****  * LoRaWAN Frame counter list.
  33:../../../../../../Middlewares/Third_Party/LoRaWAN/Mac/LoRaMacFCntHandler.c ****  */
  34:../../../../../../Middlewares/Third_Party/LoRaWAN/Mac/LoRaMacFCntHandler.c **** typedef struct sFCntList
  35:../../../../../../Middlewares/Third_Party/LoRaWAN/Mac/LoRaMacFCntHandler.c **** {
  36:../../../../../../Middlewares/Third_Party/LoRaWAN/Mac/LoRaMacFCntHandler.c ****     /*
  37:../../../../../../Middlewares/Third_Party/LoRaWAN/Mac/LoRaMacFCntHandler.c ****      * Uplink frame counter which is incremented with each uplink.
  38:../../../../../../Middlewares/Third_Party/LoRaWAN/Mac/LoRaMacFCntHandler.c ****      */
  39:../../../../../../Middlewares/Third_Party/LoRaWAN/Mac/LoRaMacFCntHandler.c ****     uint32_t FCntUp;
  40:../../../../../../Middlewares/Third_Party/LoRaWAN/Mac/LoRaMacFCntHandler.c ****     /*
  41:../../../../../../Middlewares/Third_Party/LoRaWAN/Mac/LoRaMacFCntHandler.c ****      * Network downlink frame counter which is incremented with each downlink on FPort 0
  42:../../../../../../Middlewares/Third_Party/LoRaWAN/Mac/LoRaMacFCntHandler.c ****      * or when the FPort field is missing.
  43:../../../../../../Middlewares/Third_Party/LoRaWAN/Mac/LoRaMacFCntHandler.c ****      */
  44:../../../../../../Middlewares/Third_Party/LoRaWAN/Mac/LoRaMacFCntHandler.c ****     uint32_t NFCntDown;
  45:../../../../../../Middlewares/Third_Party/LoRaWAN/Mac/LoRaMacFCntHandler.c ****     /*
  46:../../../../../../Middlewares/Third_Party/LoRaWAN/Mac/LoRaMacFCntHandler.c ****      * Application downlink frame counter which is incremented with each downlink
  47:../../../../../../Middlewares/Third_Party/LoRaWAN/Mac/LoRaMacFCntHandler.c ****      * on a port different than 0.
  48:../../../../../../Middlewares/Third_Party/LoRaWAN/Mac/LoRaMacFCntHandler.c ****      */
  49:../../../../../../Middlewares/Third_Party/LoRaWAN/Mac/LoRaMacFCntHandler.c ****     uint32_t AFCntDown;
  50:../../../../../../Middlewares/Third_Party/LoRaWAN/Mac/LoRaMacFCntHandler.c ****     /*
  51:../../../../../../Middlewares/Third_Party/LoRaWAN/Mac/LoRaMacFCntHandler.c ****      * In case if the device is connected to a LoRaWAN 1.0 Server,
  52:../../../../../../Middlewares/Third_Party/LoRaWAN/Mac/LoRaMacFCntHandler.c ****      * this counter is used for every kind of downlink frame.
  53:../../../../../../Middlewares/Third_Party/LoRaWAN/Mac/LoRaMacFCntHandler.c ****      */
  54:../../../../../../Middlewares/Third_Party/LoRaWAN/Mac/LoRaMacFCntHandler.c ****     uint32_t FCntDown;
  55:../../../../../../Middlewares/Third_Party/LoRaWAN/Mac/LoRaMacFCntHandler.c ****     /*!
  56:../../../../../../Middlewares/Third_Party/LoRaWAN/Mac/LoRaMacFCntHandler.c ****      * Multicast downlink counter for index 0
  57:../../../../../../Middlewares/Third_Party/LoRaWAN/Mac/LoRaMacFCntHandler.c ****      */
  58:../../../../../../Middlewares/Third_Party/LoRaWAN/Mac/LoRaMacFCntHandler.c ****     uint32_t McFCntDown0;
  59:../../../../../../Middlewares/Third_Party/LoRaWAN/Mac/LoRaMacFCntHandler.c ****     /*!
  60:../../../../../../Middlewares/Third_Party/LoRaWAN/Mac/LoRaMacFCntHandler.c ****      * Multicast downlink counter for index 1
  61:../../../../../../Middlewares/Third_Party/LoRaWAN/Mac/LoRaMacFCntHandler.c ****      */
  62:../../../../../../Middlewares/Third_Party/LoRaWAN/Mac/LoRaMacFCntHandler.c ****     uint32_t McFCntDown1;
  63:../../../../../../Middlewares/Third_Party/LoRaWAN/Mac/LoRaMacFCntHandler.c ****     /*!
  64:../../../../../../Middlewares/Third_Party/LoRaWAN/Mac/LoRaMacFCntHandler.c ****      * Multicast downlink counter for index 2
  65:../../../../../../Middlewares/Third_Party/LoRaWAN/Mac/LoRaMacFCntHandler.c ****      */
  66:../../../../../../Middlewares/Third_Party/LoRaWAN/Mac/LoRaMacFCntHandler.c ****     uint32_t McFCntDown2;
  67:../../../../../../Middlewares/Third_Party/LoRaWAN/Mac/LoRaMacFCntHandler.c ****     /*!
  68:../../../../../../Middlewares/Third_Party/LoRaWAN/Mac/LoRaMacFCntHandler.c ****      * Multicast downlink counter for index 3
  69:../../../../../../Middlewares/Third_Party/LoRaWAN/Mac/LoRaMacFCntHandler.c ****      */
  70:../../../../../../Middlewares/Third_Party/LoRaWAN/Mac/LoRaMacFCntHandler.c ****     uint32_t McFCntDown3;
  71:../../../../../../Middlewares/Third_Party/LoRaWAN/Mac/LoRaMacFCntHandler.c **** }FCntList_t;
  72:../../../../../../Middlewares/Third_Party/LoRaWAN/Mac/LoRaMacFCntHandler.c **** 
  73:../../../../../../Middlewares/Third_Party/LoRaWAN/Mac/LoRaMacFCntHandler.c **** 
  74:../../../../../../Middlewares/Third_Party/LoRaWAN/Mac/LoRaMacFCntHandler.c **** /*
  75:../../../../../../Middlewares/Third_Party/LoRaWAN/Mac/LoRaMacFCntHandler.c ****  * LoRaMac Commands Context structure
  76:../../../../../../Middlewares/Third_Party/LoRaWAN/Mac/LoRaMacFCntHandler.c ****  */
  77:../../../../../../Middlewares/Third_Party/LoRaWAN/Mac/LoRaMacFCntHandler.c **** typedef struct sLoRaMacFCntHandlerNvmCtx
  78:../../../../../../Middlewares/Third_Party/LoRaWAN/Mac/LoRaMacFCntHandler.c **** {
  79:../../../../../../Middlewares/Third_Party/LoRaWAN/Mac/LoRaMacFCntHandler.c ****     /*
  80:../../../../../../Middlewares/Third_Party/LoRaWAN/Mac/LoRaMacFCntHandler.c ****      * Frame counter list
  81:../../../../../../Middlewares/Third_Party/LoRaWAN/Mac/LoRaMacFCntHandler.c ****      */
  82:../../../../../../Middlewares/Third_Party/LoRaWAN/Mac/LoRaMacFCntHandler.c ****     FCntList_t FCntList;
  83:../../../../../../Middlewares/Third_Party/LoRaWAN/Mac/LoRaMacFCntHandler.c **** } LoRaMacFCntHandlerNvmCtx_t;
  84:../../../../../../Middlewares/Third_Party/LoRaWAN/Mac/LoRaMacFCntHandler.c **** 
  85:../../../../../../Middlewares/Third_Party/LoRaWAN/Mac/LoRaMacFCntHandler.c **** /*
  86:../../../../../../Middlewares/Third_Party/LoRaWAN/Mac/LoRaMacFCntHandler.c ****  * Non-volatile module context.
  87:../../../../../../Middlewares/Third_Party/LoRaWAN/Mac/LoRaMacFCntHandler.c ****  */
  88:../../../../../../Middlewares/Third_Party/LoRaWAN/Mac/LoRaMacFCntHandler.c **** static LoRaMacFCntHandlerNvmCtx_t FCntHandlerNvmCtx;
ARM GAS  C:\Users\EBANO_~1\AppData\Local\Temp\cc6q1viJ.s 			page 3


  89:../../../../../../Middlewares/Third_Party/LoRaWAN/Mac/LoRaMacFCntHandler.c **** 
  90:../../../../../../Middlewares/Third_Party/LoRaWAN/Mac/LoRaMacFCntHandler.c **** /*
  91:../../../../../../Middlewares/Third_Party/LoRaWAN/Mac/LoRaMacFCntHandler.c ****  * Callback function to notify the upper layer about context change
  92:../../../../../../Middlewares/Third_Party/LoRaWAN/Mac/LoRaMacFCntHandler.c ****  */
  93:../../../../../../Middlewares/Third_Party/LoRaWAN/Mac/LoRaMacFCntHandler.c **** static EventNvmCtxChanged FCntHandlerNvmCtxChanged;
  94:../../../../../../Middlewares/Third_Party/LoRaWAN/Mac/LoRaMacFCntHandler.c **** 
  95:../../../../../../Middlewares/Third_Party/LoRaWAN/Mac/LoRaMacFCntHandler.c **** /*
  96:../../../../../../Middlewares/Third_Party/LoRaWAN/Mac/LoRaMacFCntHandler.c ****  * \brief Wrapper function for the NvmCtx
  97:../../../../../../Middlewares/Third_Party/LoRaWAN/Mac/LoRaMacFCntHandler.c ****  */
  98:../../../../../../Middlewares/Third_Party/LoRaWAN/Mac/LoRaMacFCntHandler.c **** static void NvmCtxChanged( void )
  99:../../../../../../Middlewares/Third_Party/LoRaWAN/Mac/LoRaMacFCntHandler.c **** {
 100:../../../../../../Middlewares/Third_Party/LoRaWAN/Mac/LoRaMacFCntHandler.c ****     if( FCntHandlerNvmCtxChanged != NULL )
 101:../../../../../../Middlewares/Third_Party/LoRaWAN/Mac/LoRaMacFCntHandler.c ****     {
 102:../../../../../../Middlewares/Third_Party/LoRaWAN/Mac/LoRaMacFCntHandler.c ****         FCntHandlerNvmCtxChanged( );
 103:../../../../../../Middlewares/Third_Party/LoRaWAN/Mac/LoRaMacFCntHandler.c ****     }
 104:../../../../../../Middlewares/Third_Party/LoRaWAN/Mac/LoRaMacFCntHandler.c **** }
 105:../../../../../../Middlewares/Third_Party/LoRaWAN/Mac/LoRaMacFCntHandler.c **** 
 106:../../../../../../Middlewares/Third_Party/LoRaWAN/Mac/LoRaMacFCntHandler.c **** 
 107:../../../../../../Middlewares/Third_Party/LoRaWAN/Mac/LoRaMacFCntHandler.c **** LoRaMacFCntHandlerStatus_t LoRaMacFCntHandlerInit( EventNvmCtxChanged fCntHandlerNvmCtxChanged )
 108:../../../../../../Middlewares/Third_Party/LoRaWAN/Mac/LoRaMacFCntHandler.c **** {
  27              		.loc 1 108 0
  28              		.cfi_startproc
  29              		@ args = 0, pretend = 0, frame = 0
  30              		@ frame_needed = 0, uses_anonymous_args = 0
  31              	.LVL0:
  32              	.LBB12:
  33              	.LBB13:
 109:../../../../../../Middlewares/Third_Party/LoRaWAN/Mac/LoRaMacFCntHandler.c ****     // Initialize with default
 110:../../../../../../Middlewares/Third_Party/LoRaWAN/Mac/LoRaMacFCntHandler.c ****     LoRaMacResetFCnts( );
 111:../../../../../../Middlewares/Third_Party/LoRaWAN/Mac/LoRaMacFCntHandler.c **** 
 112:../../../../../../Middlewares/Third_Party/LoRaWAN/Mac/LoRaMacFCntHandler.c ****     // Assign callback
 113:../../../../../../Middlewares/Third_Party/LoRaWAN/Mac/LoRaMacFCntHandler.c ****     FCntHandlerNvmCtxChanged = fCntHandlerNvmCtxChanged;
 114:../../../../../../Middlewares/Third_Party/LoRaWAN/Mac/LoRaMacFCntHandler.c **** 
 115:../../../../../../Middlewares/Third_Party/LoRaWAN/Mac/LoRaMacFCntHandler.c ****     return LORAMAC_FCNT_HANDLER_SUCCESS;
 116:../../../../../../Middlewares/Third_Party/LoRaWAN/Mac/LoRaMacFCntHandler.c **** }
 117:../../../../../../Middlewares/Third_Party/LoRaWAN/Mac/LoRaMacFCntHandler.c **** 
 118:../../../../../../Middlewares/Third_Party/LoRaWAN/Mac/LoRaMacFCntHandler.c **** LoRaMacFCntHandlerStatus_t LoRaMacFCntHandlerRestoreNvmCtx( void* fCntHandlerNvmCtx )
 119:../../../../../../Middlewares/Third_Party/LoRaWAN/Mac/LoRaMacFCntHandler.c **** {
 120:../../../../../../Middlewares/Third_Party/LoRaWAN/Mac/LoRaMacFCntHandler.c ****     // Restore module context
 121:../../../../../../Middlewares/Third_Party/LoRaWAN/Mac/LoRaMacFCntHandler.c ****     if( fCntHandlerNvmCtx != NULL )
 122:../../../../../../Middlewares/Third_Party/LoRaWAN/Mac/LoRaMacFCntHandler.c ****     {
 123:../../../../../../Middlewares/Third_Party/LoRaWAN/Mac/LoRaMacFCntHandler.c ****         memcpy1( ( uint8_t* ) &FCntHandlerNvmCtx, ( uint8_t* ) fCntHandlerNvmCtx, sizeof( FCntHandl
 124:../../../../../../Middlewares/Third_Party/LoRaWAN/Mac/LoRaMacFCntHandler.c ****         return LORAMAC_FCNT_HANDLER_SUCCESS;
 125:../../../../../../Middlewares/Third_Party/LoRaWAN/Mac/LoRaMacFCntHandler.c ****     }
 126:../../../../../../Middlewares/Third_Party/LoRaWAN/Mac/LoRaMacFCntHandler.c ****     else
 127:../../../../../../Middlewares/Third_Party/LoRaWAN/Mac/LoRaMacFCntHandler.c ****     {
 128:../../../../../../Middlewares/Third_Party/LoRaWAN/Mac/LoRaMacFCntHandler.c ****         return LORAMAC_FCNT_HANDLER_ERROR_NPE;
 129:../../../../../../Middlewares/Third_Party/LoRaWAN/Mac/LoRaMacFCntHandler.c ****     }
 130:../../../../../../Middlewares/Third_Party/LoRaWAN/Mac/LoRaMacFCntHandler.c **** }
 131:../../../../../../Middlewares/Third_Party/LoRaWAN/Mac/LoRaMacFCntHandler.c **** 
 132:../../../../../../Middlewares/Third_Party/LoRaWAN/Mac/LoRaMacFCntHandler.c **** void* LoRaMacFCntHandlerGetNvmCtx( size_t* fCntHandlerNvmCtxSize )
 133:../../../../../../Middlewares/Third_Party/LoRaWAN/Mac/LoRaMacFCntHandler.c **** {
 134:../../../../../../Middlewares/Third_Party/LoRaWAN/Mac/LoRaMacFCntHandler.c ****     *fCntHandlerNvmCtxSize = sizeof( FCntHandlerNvmCtx );
 135:../../../../../../Middlewares/Third_Party/LoRaWAN/Mac/LoRaMacFCntHandler.c ****     return &FCntHandlerNvmCtx;
 136:../../../../../../Middlewares/Third_Party/LoRaWAN/Mac/LoRaMacFCntHandler.c **** }
 137:../../../../../../Middlewares/Third_Party/LoRaWAN/Mac/LoRaMacFCntHandler.c **** 
 138:../../../../../../Middlewares/Third_Party/LoRaWAN/Mac/LoRaMacFCntHandler.c **** LoRaMacFCntHandlerStatus_t LoRaMacGetFCntDown( AddressIdentifier_t addrID, FType_t fType, LoRaMacMe
ARM GAS  C:\Users\EBANO_~1\AppData\Local\Temp\cc6q1viJ.s 			page 4


 139:../../../../../../Middlewares/Third_Party/LoRaWAN/Mac/LoRaMacFCntHandler.c ****                                                uint16_t maxFCntGap, FCntIdentifier_t* fCntID, uint3
 140:../../../../../../Middlewares/Third_Party/LoRaWAN/Mac/LoRaMacFCntHandler.c **** {
 141:../../../../../../Middlewares/Third_Party/LoRaWAN/Mac/LoRaMacFCntHandler.c ****     uint32_t previousDown = 0;
 142:../../../../../../Middlewares/Third_Party/LoRaWAN/Mac/LoRaMacFCntHandler.c ****     int32_t fCntDiff = 0;
 143:../../../../../../Middlewares/Third_Party/LoRaWAN/Mac/LoRaMacFCntHandler.c **** 
 144:../../../../../../Middlewares/Third_Party/LoRaWAN/Mac/LoRaMacFCntHandler.c ****     if( ( macMsg == NULL ) || ( fCntID == NULL ) ||
 145:../../../../../../Middlewares/Third_Party/LoRaWAN/Mac/LoRaMacFCntHandler.c ****         ( currentDown == NULL ) )
 146:../../../../../../Middlewares/Third_Party/LoRaWAN/Mac/LoRaMacFCntHandler.c ****     {
 147:../../../../../../Middlewares/Third_Party/LoRaWAN/Mac/LoRaMacFCntHandler.c ****         return LORAMAC_FCNT_HANDLER_ERROR_NPE;
 148:../../../../../../Middlewares/Third_Party/LoRaWAN/Mac/LoRaMacFCntHandler.c ****     }
 149:../../../../../../Middlewares/Third_Party/LoRaWAN/Mac/LoRaMacFCntHandler.c **** 
 150:../../../../../../Middlewares/Third_Party/LoRaWAN/Mac/LoRaMacFCntHandler.c ****     // Determine the frame counter identifier and choose counter from FCntList
 151:../../../../../../Middlewares/Third_Party/LoRaWAN/Mac/LoRaMacFCntHandler.c ****     switch( addrID )
 152:../../../../../../Middlewares/Third_Party/LoRaWAN/Mac/LoRaMacFCntHandler.c ****     {
 153:../../../../../../Middlewares/Third_Party/LoRaWAN/Mac/LoRaMacFCntHandler.c ****         case UNICAST_DEV_ADDR:
 154:../../../../../../Middlewares/Third_Party/LoRaWAN/Mac/LoRaMacFCntHandler.c ****             if( lrWanVersion.Fields.Minor == 1 )
 155:../../../../../../Middlewares/Third_Party/LoRaWAN/Mac/LoRaMacFCntHandler.c ****             {
 156:../../../../../../Middlewares/Third_Party/LoRaWAN/Mac/LoRaMacFCntHandler.c ****                 if( ( fType == FRAME_TYPE_A ) || ( fType == FRAME_TYPE_D ) )
 157:../../../../../../Middlewares/Third_Party/LoRaWAN/Mac/LoRaMacFCntHandler.c ****                 {
 158:../../../../../../Middlewares/Third_Party/LoRaWAN/Mac/LoRaMacFCntHandler.c ****                     *fCntID = A_FCNT_DOWN;
 159:../../../../../../Middlewares/Third_Party/LoRaWAN/Mac/LoRaMacFCntHandler.c ****                     previousDown = FCntHandlerNvmCtx.FCntList.AFCntDown;
 160:../../../../../../Middlewares/Third_Party/LoRaWAN/Mac/LoRaMacFCntHandler.c ****                 }
 161:../../../../../../Middlewares/Third_Party/LoRaWAN/Mac/LoRaMacFCntHandler.c ****                 else
 162:../../../../../../Middlewares/Third_Party/LoRaWAN/Mac/LoRaMacFCntHandler.c ****                 {
 163:../../../../../../Middlewares/Third_Party/LoRaWAN/Mac/LoRaMacFCntHandler.c ****                     *fCntID = N_FCNT_DOWN;
 164:../../../../../../Middlewares/Third_Party/LoRaWAN/Mac/LoRaMacFCntHandler.c ****                     previousDown = FCntHandlerNvmCtx.FCntList.NFCntDown;
 165:../../../../../../Middlewares/Third_Party/LoRaWAN/Mac/LoRaMacFCntHandler.c ****                 }
 166:../../../../../../Middlewares/Third_Party/LoRaWAN/Mac/LoRaMacFCntHandler.c ****             }
 167:../../../../../../Middlewares/Third_Party/LoRaWAN/Mac/LoRaMacFCntHandler.c ****             else
 168:../../../../../../Middlewares/Third_Party/LoRaWAN/Mac/LoRaMacFCntHandler.c ****             { // For LoRaWAN 1.0.X
 169:../../../../../../Middlewares/Third_Party/LoRaWAN/Mac/LoRaMacFCntHandler.c ****                 *fCntID = FCNT_DOWN;
 170:../../../../../../Middlewares/Third_Party/LoRaWAN/Mac/LoRaMacFCntHandler.c ****                 previousDown = FCntHandlerNvmCtx.FCntList.FCntDown;
 171:../../../../../../Middlewares/Third_Party/LoRaWAN/Mac/LoRaMacFCntHandler.c ****             }
 172:../../../../../../Middlewares/Third_Party/LoRaWAN/Mac/LoRaMacFCntHandler.c ****             break;
 173:../../../../../../Middlewares/Third_Party/LoRaWAN/Mac/LoRaMacFCntHandler.c ****         case MULTICAST_0_ADDR:
 174:../../../../../../Middlewares/Third_Party/LoRaWAN/Mac/LoRaMacFCntHandler.c ****             *fCntID = MC_FCNT_DOWN_0;
 175:../../../../../../Middlewares/Third_Party/LoRaWAN/Mac/LoRaMacFCntHandler.c ****             previousDown = FCntHandlerNvmCtx.FCntList.McFCntDown0;
 176:../../../../../../Middlewares/Third_Party/LoRaWAN/Mac/LoRaMacFCntHandler.c ****             break;
 177:../../../../../../Middlewares/Third_Party/LoRaWAN/Mac/LoRaMacFCntHandler.c ****         case MULTICAST_1_ADDR:
 178:../../../../../../Middlewares/Third_Party/LoRaWAN/Mac/LoRaMacFCntHandler.c ****             *fCntID = MC_FCNT_DOWN_1;
 179:../../../../../../Middlewares/Third_Party/LoRaWAN/Mac/LoRaMacFCntHandler.c ****             previousDown = FCntHandlerNvmCtx.FCntList.McFCntDown1;
 180:../../../../../../Middlewares/Third_Party/LoRaWAN/Mac/LoRaMacFCntHandler.c ****             break;
 181:../../../../../../Middlewares/Third_Party/LoRaWAN/Mac/LoRaMacFCntHandler.c ****         case MULTICAST_2_ADDR:
 182:../../../../../../Middlewares/Third_Party/LoRaWAN/Mac/LoRaMacFCntHandler.c ****             *fCntID = MC_FCNT_DOWN_2;
 183:../../../../../../Middlewares/Third_Party/LoRaWAN/Mac/LoRaMacFCntHandler.c ****             previousDown = FCntHandlerNvmCtx.FCntList.McFCntDown3;
 184:../../../../../../Middlewares/Third_Party/LoRaWAN/Mac/LoRaMacFCntHandler.c ****             break;
 185:../../../../../../Middlewares/Third_Party/LoRaWAN/Mac/LoRaMacFCntHandler.c ****         case MULTICAST_3_ADDR:
 186:../../../../../../Middlewares/Third_Party/LoRaWAN/Mac/LoRaMacFCntHandler.c ****             *fCntID = MC_FCNT_DOWN_3;
 187:../../../../../../Middlewares/Third_Party/LoRaWAN/Mac/LoRaMacFCntHandler.c ****             previousDown = FCntHandlerNvmCtx.FCntList.McFCntDown3;
 188:../../../../../../Middlewares/Third_Party/LoRaWAN/Mac/LoRaMacFCntHandler.c ****             break;
 189:../../../../../../Middlewares/Third_Party/LoRaWAN/Mac/LoRaMacFCntHandler.c ****         default:
 190:../../../../../../Middlewares/Third_Party/LoRaWAN/Mac/LoRaMacFCntHandler.c ****             return LORAMAC_FCNT_HANDLER_ERROR;
 191:../../../../../../Middlewares/Third_Party/LoRaWAN/Mac/LoRaMacFCntHandler.c ****     }
 192:../../../../../../Middlewares/Third_Party/LoRaWAN/Mac/LoRaMacFCntHandler.c **** 
 193:../../../../../../Middlewares/Third_Party/LoRaWAN/Mac/LoRaMacFCntHandler.c ****     // For LoRaWAN 1.0.X only, allow downlink frames of 0
 194:../../../../../../Middlewares/Third_Party/LoRaWAN/Mac/LoRaMacFCntHandler.c ****     if( previousDown == FCNT_DOWN_INITAL_VALUE )
 195:../../../../../../Middlewares/Third_Party/LoRaWAN/Mac/LoRaMacFCntHandler.c ****     {
ARM GAS  C:\Users\EBANO_~1\AppData\Local\Temp\cc6q1viJ.s 			page 5


 196:../../../../../../Middlewares/Third_Party/LoRaWAN/Mac/LoRaMacFCntHandler.c ****          *currentDown = macMsg->FHDR.FCnt;
 197:../../../../../../Middlewares/Third_Party/LoRaWAN/Mac/LoRaMacFCntHandler.c ****     }
 198:../../../../../../Middlewares/Third_Party/LoRaWAN/Mac/LoRaMacFCntHandler.c ****     else
 199:../../../../../../Middlewares/Third_Party/LoRaWAN/Mac/LoRaMacFCntHandler.c ****     {
 200:../../../../../../Middlewares/Third_Party/LoRaWAN/Mac/LoRaMacFCntHandler.c ****         // Add difference, consider roll-over
 201:../../../../../../Middlewares/Third_Party/LoRaWAN/Mac/LoRaMacFCntHandler.c ****         fCntDiff = ( int32_t )macMsg->FHDR.FCnt - ( int32_t )( previousDown & 0x0000FFFF );
 202:../../../../../../Middlewares/Third_Party/LoRaWAN/Mac/LoRaMacFCntHandler.c **** 
 203:../../../../../../Middlewares/Third_Party/LoRaWAN/Mac/LoRaMacFCntHandler.c ****         if( fCntDiff > 0 )
 204:../../../../../../Middlewares/Third_Party/LoRaWAN/Mac/LoRaMacFCntHandler.c ****         {  // Positive difference
 205:../../../../../../Middlewares/Third_Party/LoRaWAN/Mac/LoRaMacFCntHandler.c ****             *currentDown = previousDown + fCntDiff;
 206:../../../../../../Middlewares/Third_Party/LoRaWAN/Mac/LoRaMacFCntHandler.c ****         }
 207:../../../../../../Middlewares/Third_Party/LoRaWAN/Mac/LoRaMacFCntHandler.c ****         else if( fCntDiff == 0 )
 208:../../../../../../Middlewares/Third_Party/LoRaWAN/Mac/LoRaMacFCntHandler.c ****         {  // Duplicate FCnt value, keep the current value.
 209:../../../../../../Middlewares/Third_Party/LoRaWAN/Mac/LoRaMacFCntHandler.c ****             *currentDown = previousDown;
 210:../../../../../../Middlewares/Third_Party/LoRaWAN/Mac/LoRaMacFCntHandler.c ****             return LORAMAC_FCNT_HANDLER_CHECK_FAIL;
 211:../../../../../../Middlewares/Third_Party/LoRaWAN/Mac/LoRaMacFCntHandler.c ****         }
 212:../../../../../../Middlewares/Third_Party/LoRaWAN/Mac/LoRaMacFCntHandler.c ****         else
 213:../../../../../../Middlewares/Third_Party/LoRaWAN/Mac/LoRaMacFCntHandler.c ****         {  // Negative difference, assume a roll-over of one uint16_t
 214:../../../../../../Middlewares/Third_Party/LoRaWAN/Mac/LoRaMacFCntHandler.c ****             *currentDown = ( previousDown & 0xFFFF0000 ) + 0x10000 + macMsg->FHDR.FCnt;
 215:../../../../../../Middlewares/Third_Party/LoRaWAN/Mac/LoRaMacFCntHandler.c ****         }
 216:../../../../../../Middlewares/Third_Party/LoRaWAN/Mac/LoRaMacFCntHandler.c ****     }
 217:../../../../../../Middlewares/Third_Party/LoRaWAN/Mac/LoRaMacFCntHandler.c **** 
 218:../../../../../../Middlewares/Third_Party/LoRaWAN/Mac/LoRaMacFCntHandler.c **** 
 219:../../../../../../Middlewares/Third_Party/LoRaWAN/Mac/LoRaMacFCntHandler.c ****     // For LoRaWAN 1.0.X only, check maxFCntGap
 220:../../../../../../Middlewares/Third_Party/LoRaWAN/Mac/LoRaMacFCntHandler.c ****     if( lrWanVersion.Fields.Minor == 0 )
 221:../../../../../../Middlewares/Third_Party/LoRaWAN/Mac/LoRaMacFCntHandler.c ****     {
 222:../../../../../../Middlewares/Third_Party/LoRaWAN/Mac/LoRaMacFCntHandler.c ****         if( ( ( int32_t )*currentDown - ( int32_t )previousDown ) >= maxFCntGap )
 223:../../../../../../Middlewares/Third_Party/LoRaWAN/Mac/LoRaMacFCntHandler.c ****         {
 224:../../../../../../Middlewares/Third_Party/LoRaWAN/Mac/LoRaMacFCntHandler.c ****             return LORAMAC_FCNT_HANDLER_MAX_GAP_FAIL;
 225:../../../../../../Middlewares/Third_Party/LoRaWAN/Mac/LoRaMacFCntHandler.c ****         }
 226:../../../../../../Middlewares/Third_Party/LoRaWAN/Mac/LoRaMacFCntHandler.c ****     }
 227:../../../../../../Middlewares/Third_Party/LoRaWAN/Mac/LoRaMacFCntHandler.c **** 
 228:../../../../../../Middlewares/Third_Party/LoRaWAN/Mac/LoRaMacFCntHandler.c ****     return LORAMAC_FCNT_HANDLER_SUCCESS;
 229:../../../../../../Middlewares/Third_Party/LoRaWAN/Mac/LoRaMacFCntHandler.c **** }
 230:../../../../../../Middlewares/Third_Party/LoRaWAN/Mac/LoRaMacFCntHandler.c **** 
 231:../../../../../../Middlewares/Third_Party/LoRaWAN/Mac/LoRaMacFCntHandler.c **** LoRaMacFCntHandlerStatus_t LoRaMacSetFCntDown( FCntIdentifier_t fCntID, uint32_t currentDown )
 232:../../../../../../Middlewares/Third_Party/LoRaWAN/Mac/LoRaMacFCntHandler.c **** {
 233:../../../../../../Middlewares/Third_Party/LoRaWAN/Mac/LoRaMacFCntHandler.c ****     switch( fCntID )
 234:../../../../../../Middlewares/Third_Party/LoRaWAN/Mac/LoRaMacFCntHandler.c ****     {
 235:../../../../../../Middlewares/Third_Party/LoRaWAN/Mac/LoRaMacFCntHandler.c ****         case FCNT_UP:
 236:../../../../../../Middlewares/Third_Party/LoRaWAN/Mac/LoRaMacFCntHandler.c ****             return LORAMAC_FCNT_HANDLER_ERROR_INVALID_FCNT_ID;
 237:../../../../../../Middlewares/Third_Party/LoRaWAN/Mac/LoRaMacFCntHandler.c ****         case N_FCNT_DOWN:
 238:../../../../../../Middlewares/Third_Party/LoRaWAN/Mac/LoRaMacFCntHandler.c ****             FCntHandlerNvmCtx.FCntList.NFCntDown = currentDown;
 239:../../../../../../Middlewares/Third_Party/LoRaWAN/Mac/LoRaMacFCntHandler.c ****             break;
 240:../../../../../../Middlewares/Third_Party/LoRaWAN/Mac/LoRaMacFCntHandler.c ****         case A_FCNT_DOWN:
 241:../../../../../../Middlewares/Third_Party/LoRaWAN/Mac/LoRaMacFCntHandler.c ****             FCntHandlerNvmCtx.FCntList.AFCntDown = currentDown;
 242:../../../../../../Middlewares/Third_Party/LoRaWAN/Mac/LoRaMacFCntHandler.c ****             break;
 243:../../../../../../Middlewares/Third_Party/LoRaWAN/Mac/LoRaMacFCntHandler.c ****         case FCNT_DOWN:
 244:../../../../../../Middlewares/Third_Party/LoRaWAN/Mac/LoRaMacFCntHandler.c ****             FCntHandlerNvmCtx.FCntList.FCntDown = currentDown;
 245:../../../../../../Middlewares/Third_Party/LoRaWAN/Mac/LoRaMacFCntHandler.c ****             break;
 246:../../../../../../Middlewares/Third_Party/LoRaWAN/Mac/LoRaMacFCntHandler.c ****         case MC_FCNT_DOWN_0:
 247:../../../../../../Middlewares/Third_Party/LoRaWAN/Mac/LoRaMacFCntHandler.c ****             FCntHandlerNvmCtx.FCntList.McFCntDown0 = currentDown;
 248:../../../../../../Middlewares/Third_Party/LoRaWAN/Mac/LoRaMacFCntHandler.c ****             break;
 249:../../../../../../Middlewares/Third_Party/LoRaWAN/Mac/LoRaMacFCntHandler.c ****         case MC_FCNT_DOWN_1:
 250:../../../../../../Middlewares/Third_Party/LoRaWAN/Mac/LoRaMacFCntHandler.c ****             FCntHandlerNvmCtx.FCntList.McFCntDown1 = currentDown;
 251:../../../../../../Middlewares/Third_Party/LoRaWAN/Mac/LoRaMacFCntHandler.c ****             break;
 252:../../../../../../Middlewares/Third_Party/LoRaWAN/Mac/LoRaMacFCntHandler.c ****         case MC_FCNT_DOWN_2:
ARM GAS  C:\Users\EBANO_~1\AppData\Local\Temp\cc6q1viJ.s 			page 6


 253:../../../../../../Middlewares/Third_Party/LoRaWAN/Mac/LoRaMacFCntHandler.c ****             FCntHandlerNvmCtx.FCntList.McFCntDown2 = currentDown;
 254:../../../../../../Middlewares/Third_Party/LoRaWAN/Mac/LoRaMacFCntHandler.c ****             break;
 255:../../../../../../Middlewares/Third_Party/LoRaWAN/Mac/LoRaMacFCntHandler.c ****         case MC_FCNT_DOWN_3:
 256:../../../../../../Middlewares/Third_Party/LoRaWAN/Mac/LoRaMacFCntHandler.c ****             FCntHandlerNvmCtx.FCntList.McFCntDown3 = currentDown;
 257:../../../../../../Middlewares/Third_Party/LoRaWAN/Mac/LoRaMacFCntHandler.c ****             break;
 258:../../../../../../Middlewares/Third_Party/LoRaWAN/Mac/LoRaMacFCntHandler.c ****         default:
 259:../../../../../../Middlewares/Third_Party/LoRaWAN/Mac/LoRaMacFCntHandler.c ****             return LORAMAC_FCNT_HANDLER_ERROR;
 260:../../../../../../Middlewares/Third_Party/LoRaWAN/Mac/LoRaMacFCntHandler.c ****     }
 261:../../../../../../Middlewares/Third_Party/LoRaWAN/Mac/LoRaMacFCntHandler.c **** 
 262:../../../../../../Middlewares/Third_Party/LoRaWAN/Mac/LoRaMacFCntHandler.c ****     NvmCtxChanged( );
 263:../../../../../../Middlewares/Third_Party/LoRaWAN/Mac/LoRaMacFCntHandler.c **** 
 264:../../../../../../Middlewares/Third_Party/LoRaWAN/Mac/LoRaMacFCntHandler.c ****     return LORAMAC_FCNT_HANDLER_SUCCESS;
 265:../../../../../../Middlewares/Third_Party/LoRaWAN/Mac/LoRaMacFCntHandler.c **** }
 266:../../../../../../Middlewares/Third_Party/LoRaWAN/Mac/LoRaMacFCntHandler.c **** 
 267:../../../../../../Middlewares/Third_Party/LoRaWAN/Mac/LoRaMacFCntHandler.c **** LoRaMacFCntHandlerStatus_t LoRaMacGetFCntUp( uint32_t* currentUp )
 268:../../../../../../Middlewares/Third_Party/LoRaWAN/Mac/LoRaMacFCntHandler.c **** {
 269:../../../../../../Middlewares/Third_Party/LoRaWAN/Mac/LoRaMacFCntHandler.c ****     if( currentUp == NULL )
 270:../../../../../../Middlewares/Third_Party/LoRaWAN/Mac/LoRaMacFCntHandler.c ****     {
 271:../../../../../../Middlewares/Third_Party/LoRaWAN/Mac/LoRaMacFCntHandler.c ****         return LORAMAC_FCNT_HANDLER_ERROR_NPE;
 272:../../../../../../Middlewares/Third_Party/LoRaWAN/Mac/LoRaMacFCntHandler.c ****     }
 273:../../../../../../Middlewares/Third_Party/LoRaWAN/Mac/LoRaMacFCntHandler.c **** 
 274:../../../../../../Middlewares/Third_Party/LoRaWAN/Mac/LoRaMacFCntHandler.c ****     *currentUp = FCntHandlerNvmCtx.FCntList.FCntUp + 1;
 275:../../../../../../Middlewares/Third_Party/LoRaWAN/Mac/LoRaMacFCntHandler.c **** 
 276:../../../../../../Middlewares/Third_Party/LoRaWAN/Mac/LoRaMacFCntHandler.c ****     return LORAMAC_FCNT_HANDLER_SUCCESS;
 277:../../../../../../Middlewares/Third_Party/LoRaWAN/Mac/LoRaMacFCntHandler.c **** }
 278:../../../../../../Middlewares/Third_Party/LoRaWAN/Mac/LoRaMacFCntHandler.c **** 
 279:../../../../../../Middlewares/Third_Party/LoRaWAN/Mac/LoRaMacFCntHandler.c **** LoRaMacFCntHandlerStatus_t LoRaMacSetFCntUp( uint32_t currentUp )
 280:../../../../../../Middlewares/Third_Party/LoRaWAN/Mac/LoRaMacFCntHandler.c **** {
 281:../../../../../../Middlewares/Third_Party/LoRaWAN/Mac/LoRaMacFCntHandler.c ****     FCntHandlerNvmCtx.FCntList.FCntUp = currentUp;
 282:../../../../../../Middlewares/Third_Party/LoRaWAN/Mac/LoRaMacFCntHandler.c **** 
 283:../../../../../../Middlewares/Third_Party/LoRaWAN/Mac/LoRaMacFCntHandler.c ****     NvmCtxChanged( );
 284:../../../../../../Middlewares/Third_Party/LoRaWAN/Mac/LoRaMacFCntHandler.c **** 
 285:../../../../../../Middlewares/Third_Party/LoRaWAN/Mac/LoRaMacFCntHandler.c ****     return LORAMAC_FCNT_HANDLER_SUCCESS;
 286:../../../../../../Middlewares/Third_Party/LoRaWAN/Mac/LoRaMacFCntHandler.c **** }
 287:../../../../../../Middlewares/Third_Party/LoRaWAN/Mac/LoRaMacFCntHandler.c **** 
 288:../../../../../../Middlewares/Third_Party/LoRaWAN/Mac/LoRaMacFCntHandler.c **** LoRaMacFCntHandlerStatus_t LoRaMacResetFCnts( void )
 289:../../../../../../Middlewares/Third_Party/LoRaWAN/Mac/LoRaMacFCntHandler.c **** {
 290:../../../../../../Middlewares/Third_Party/LoRaWAN/Mac/LoRaMacFCntHandler.c **** 
 291:../../../../../../Middlewares/Third_Party/LoRaWAN/Mac/LoRaMacFCntHandler.c ****     FCntHandlerNvmCtx.FCntList.FCntUp = 0;
  34              		.loc 1 291 0
  35 0000 0023     		movs	r3, #0
  36              	.LBE13:
  37              	.LBE12:
 108:../../../../../../Middlewares/Third_Party/LoRaWAN/Mac/LoRaMacFCntHandler.c ****     // Initialize with default
  38              		.loc 1 108 0
  39 0002 70B5     		push	{r4, r5, r6, lr}
  40              	.LCFI0:
  41              		.cfi_def_cfa_offset 16
  42              		.cfi_offset 4, -16
  43              		.cfi_offset 5, -12
  44              		.cfi_offset 6, -8
  45              		.cfi_offset 14, -4
  46              	.LBB18:
  47              	.LBB16:
  48              		.loc 1 291 0
  49 0004 084C     		ldr	r4, .L7
  50              	.LBE16:
ARM GAS  C:\Users\EBANO_~1\AppData\Local\Temp\cc6q1viJ.s 			page 7


  51              	.LBE18:
 108:../../../../../../Middlewares/Third_Party/LoRaWAN/Mac/LoRaMacFCntHandler.c ****     // Initialize with default
  52              		.loc 1 108 0
  53 0006 0500     		movs	r5, r0
  54              	.LBB19:
  55              	.LBB17:
  56              		.loc 1 291 0
  57 0008 2360     		str	r3, [r4]
 292:../../../../../../Middlewares/Third_Party/LoRaWAN/Mac/LoRaMacFCntHandler.c ****     FCntHandlerNvmCtx.FCntList.NFCntDown = FCNT_DOWN_INITAL_VALUE;
  58              		.loc 1 292 0
  59 000a 013B     		subs	r3, r3, #1
  60 000c 6360     		str	r3, [r4, #4]
 293:../../../../../../Middlewares/Third_Party/LoRaWAN/Mac/LoRaMacFCntHandler.c ****     FCntHandlerNvmCtx.FCntList.AFCntDown = FCNT_DOWN_INITAL_VALUE;
  61              		.loc 1 293 0
  62 000e A360     		str	r3, [r4, #8]
 294:../../../../../../Middlewares/Third_Party/LoRaWAN/Mac/LoRaMacFCntHandler.c ****     FCntHandlerNvmCtx.FCntList.FCntDown = FCNT_DOWN_INITAL_VALUE;
  63              		.loc 1 294 0
  64 0010 E360     		str	r3, [r4, #12]
 295:../../../../../../Middlewares/Third_Party/LoRaWAN/Mac/LoRaMacFCntHandler.c **** 
 296:../../../../../../Middlewares/Third_Party/LoRaWAN/Mac/LoRaMacFCntHandler.c ****     FCntHandlerNvmCtx.FCntList.McFCntDown0 = FCNT_DOWN_INITAL_VALUE;
  65              		.loc 1 296 0
  66 0012 2361     		str	r3, [r4, #16]
 297:../../../../../../Middlewares/Third_Party/LoRaWAN/Mac/LoRaMacFCntHandler.c ****     FCntHandlerNvmCtx.FCntList.McFCntDown1 = FCNT_DOWN_INITAL_VALUE;
  67              		.loc 1 297 0
  68 0014 6361     		str	r3, [r4, #20]
 298:../../../../../../Middlewares/Third_Party/LoRaWAN/Mac/LoRaMacFCntHandler.c ****     FCntHandlerNvmCtx.FCntList.McFCntDown2 = FCNT_DOWN_INITAL_VALUE;
  69              		.loc 1 298 0
  70 0016 A361     		str	r3, [r4, #24]
 299:../../../../../../Middlewares/Third_Party/LoRaWAN/Mac/LoRaMacFCntHandler.c ****     FCntHandlerNvmCtx.FCntList.McFCntDown3 = FCNT_DOWN_INITAL_VALUE;
  71              		.loc 1 299 0
  72 0018 E361     		str	r3, [r4, #28]
  73              	.LBB14:
  74              	.LBB15:
 100:../../../../../../Middlewares/Third_Party/LoRaWAN/Mac/LoRaMacFCntHandler.c ****     {
  75              		.loc 1 100 0
  76 001a 236A     		ldr	r3, [r4, #32]
  77 001c 002B     		cmp	r3, #0
  78 001e 00D0     		beq	.L2
 102:../../../../../../Middlewares/Third_Party/LoRaWAN/Mac/LoRaMacFCntHandler.c ****     }
  79              		.loc 1 102 0
  80 0020 9847     		blx	r3
  81              	.LVL1:
  82              	.L2:
  83              	.LBE15:
  84              	.LBE14:
  85              	.LBE17:
  86              	.LBE19:
 113:../../../../../../Middlewares/Third_Party/LoRaWAN/Mac/LoRaMacFCntHandler.c **** 
  87              		.loc 1 113 0
  88 0022 2562     		str	r5, [r4, #32]
 116:../../../../../../Middlewares/Third_Party/LoRaWAN/Mac/LoRaMacFCntHandler.c **** 
  89              		.loc 1 116 0
  90 0024 0020     		movs	r0, #0
  91              		@ sp needed
  92              	.LVL2:
  93 0026 70BD     		pop	{r4, r5, r6, pc}
  94              	.L8:
ARM GAS  C:\Users\EBANO_~1\AppData\Local\Temp\cc6q1viJ.s 			page 8


  95              		.align	2
  96              	.L7:
  97 0028 00000000 		.word	.LANCHOR0
  98              		.cfi_endproc
  99              	.LFE40:
 100              		.size	LoRaMacFCntHandlerInit, .-LoRaMacFCntHandlerInit
 101              		.section	.text.LoRaMacFCntHandlerRestoreNvmCtx,"ax",%progbits
 102              		.align	1
 103              		.p2align 2,,3
 104              		.global	LoRaMacFCntHandlerRestoreNvmCtx
 105              		.syntax unified
 106              		.code	16
 107              		.thumb_func
 108              		.fpu softvfp
 109              		.type	LoRaMacFCntHandlerRestoreNvmCtx, %function
 110              	LoRaMacFCntHandlerRestoreNvmCtx:
 111              	.LFB41:
 119:../../../../../../Middlewares/Third_Party/LoRaWAN/Mac/LoRaMacFCntHandler.c ****     // Restore module context
 112              		.loc 1 119 0
 113              		.cfi_startproc
 114              		@ args = 0, pretend = 0, frame = 0
 115              		@ frame_needed = 0, uses_anonymous_args = 0
 116              	.LVL3:
 117 0000 10B5     		push	{r4, lr}
 118              	.LCFI1:
 119              		.cfi_def_cfa_offset 8
 120              		.cfi_offset 4, -8
 121              		.cfi_offset 14, -4
 121:../../../../../../Middlewares/Third_Party/LoRaWAN/Mac/LoRaMacFCntHandler.c ****     {
 122              		.loc 1 121 0
 123 0002 0028     		cmp	r0, #0
 124 0004 06D0     		beq	.L11
 123:../../../../../../Middlewares/Third_Party/LoRaWAN/Mac/LoRaMacFCntHandler.c ****         return LORAMAC_FCNT_HANDLER_SUCCESS;
 125              		.loc 1 123 0
 126 0006 0100     		movs	r1, r0
 127 0008 2022     		movs	r2, #32
 128 000a 0348     		ldr	r0, .L12
 129              	.LVL4:
 130 000c FFF7FEFF 		bl	memcpy1
 131              	.LVL5:
 124:../../../../../../Middlewares/Third_Party/LoRaWAN/Mac/LoRaMacFCntHandler.c ****     }
 132              		.loc 1 124 0
 133 0010 0020     		movs	r0, #0
 134              	.L10:
 130:../../../../../../Middlewares/Third_Party/LoRaWAN/Mac/LoRaMacFCntHandler.c **** 
 135              		.loc 1 130 0
 136              		@ sp needed
 137 0012 10BD     		pop	{r4, pc}
 138              	.LVL6:
 139              	.L11:
 128:../../../../../../Middlewares/Third_Party/LoRaWAN/Mac/LoRaMacFCntHandler.c ****     }
 140              		.loc 1 128 0
 141 0014 0420     		movs	r0, #4
 142              	.LVL7:
 143 0016 FCE7     		b	.L10
 144              	.L13:
 145              		.align	2
ARM GAS  C:\Users\EBANO_~1\AppData\Local\Temp\cc6q1viJ.s 			page 9


 146              	.L12:
 147 0018 00000000 		.word	.LANCHOR0
 148              		.cfi_endproc
 149              	.LFE41:
 150              		.size	LoRaMacFCntHandlerRestoreNvmCtx, .-LoRaMacFCntHandlerRestoreNvmCtx
 151              		.section	.text.LoRaMacFCntHandlerGetNvmCtx,"ax",%progbits
 152              		.align	1
 153              		.p2align 2,,3
 154              		.global	LoRaMacFCntHandlerGetNvmCtx
 155              		.syntax unified
 156              		.code	16
 157              		.thumb_func
 158              		.fpu softvfp
 159              		.type	LoRaMacFCntHandlerGetNvmCtx, %function
 160              	LoRaMacFCntHandlerGetNvmCtx:
 161              	.LFB42:
 133:../../../../../../Middlewares/Third_Party/LoRaWAN/Mac/LoRaMacFCntHandler.c ****     *fCntHandlerNvmCtxSize = sizeof( FCntHandlerNvmCtx );
 162              		.loc 1 133 0
 163              		.cfi_startproc
 164              		@ args = 0, pretend = 0, frame = 0
 165              		@ frame_needed = 0, uses_anonymous_args = 0
 166              		@ link register save eliminated.
 167              	.LVL8:
 134:../../../../../../Middlewares/Third_Party/LoRaWAN/Mac/LoRaMacFCntHandler.c ****     return &FCntHandlerNvmCtx;
 168              		.loc 1 134 0
 169 0000 2023     		movs	r3, #32
 136:../../../../../../Middlewares/Third_Party/LoRaWAN/Mac/LoRaMacFCntHandler.c **** 
 170              		.loc 1 136 0
 171              		@ sp needed
 134:../../../../../../Middlewares/Third_Party/LoRaWAN/Mac/LoRaMacFCntHandler.c ****     return &FCntHandlerNvmCtx;
 172              		.loc 1 134 0
 173 0002 0360     		str	r3, [r0]
 136:../../../../../../Middlewares/Third_Party/LoRaWAN/Mac/LoRaMacFCntHandler.c **** 
 174              		.loc 1 136 0
 175 0004 0048     		ldr	r0, .L15
 176              	.LVL9:
 177 0006 7047     		bx	lr
 178              	.L16:
 179              		.align	2
 180              	.L15:
 181 0008 00000000 		.word	.LANCHOR0
 182              		.cfi_endproc
 183              	.LFE42:
 184              		.size	LoRaMacFCntHandlerGetNvmCtx, .-LoRaMacFCntHandlerGetNvmCtx
 185              		.section	.text.LoRaMacGetFCntDown,"ax",%progbits
 186              		.align	1
 187              		.p2align 2,,3
 188              		.global	LoRaMacGetFCntDown
 189              		.syntax unified
 190              		.code	16
 191              		.thumb_func
 192              		.fpu softvfp
 193              		.type	LoRaMacGetFCntDown, %function
 194              	LoRaMacGetFCntDown:
 195              	.LFB43:
 140:../../../../../../Middlewares/Third_Party/LoRaWAN/Mac/LoRaMacFCntHandler.c ****     uint32_t previousDown = 0;
 196              		.loc 1 140 0
ARM GAS  C:\Users\EBANO_~1\AppData\Local\Temp\cc6q1viJ.s 			page 10


 197              		.cfi_startproc
 198              		@ args = 12, pretend = 0, frame = 0
 199              		@ frame_needed = 0, uses_anonymous_args = 0
 200              	.LVL10:
 201 0000 70B5     		push	{r4, r5, r6, lr}
 202              	.LCFI2:
 203              		.cfi_def_cfa_offset 16
 204              		.cfi_offset 4, -16
 205              		.cfi_offset 5, -12
 206              		.cfi_offset 6, -8
 207              		.cfi_offset 14, -4
 140:../../../../../../Middlewares/Third_Party/LoRaWAN/Mac/LoRaMacFCntHandler.c ****     uint32_t previousDown = 0;
 208              		.loc 1 140 0
 209 0002 04AC     		add	r4, sp, #16
 210              	.LVL11:
 211 0004 2488     		ldrh	r4, [r4]
 212              	.LVL12:
 144:../../../../../../Middlewares/Third_Party/LoRaWAN/Mac/LoRaMacFCntHandler.c ****         ( currentDown == NULL ) )
 213              		.loc 1 144 0
 214 0006 002A     		cmp	r2, #0
 215 0008 0ED0     		beq	.L35
 144:../../../../../../Middlewares/Third_Party/LoRaWAN/Mac/LoRaMacFCntHandler.c ****         ( currentDown == NULL ) )
 216              		.loc 1 144 0 is_stmt 0 discriminator 1
 217 000a 059D     		ldr	r5, [sp, #20]
 218 000c 002D     		cmp	r5, #0
 219 000e 0BD0     		beq	.L35
 144:../../../../../../Middlewares/Third_Party/LoRaWAN/Mac/LoRaMacFCntHandler.c ****         ( currentDown == NULL ) )
 220              		.loc 1 144 0 discriminator 2
 221 0010 069D     		ldr	r5, [sp, #24]
 222 0012 002D     		cmp	r5, #0
 223 0014 08D0     		beq	.L35
 224 0016 1B02     		lsls	r3, r3, #8
 225              	.LVL13:
 226 0018 1B0E     		lsrs	r3, r3, #24
 227 001a DDB2     		uxtb	r5, r3
 151:../../../../../../Middlewares/Third_Party/LoRaWAN/Mac/LoRaMacFCntHandler.c ****     {
 228              		.loc 1 151 0 is_stmt 1
 229 001c 0428     		cmp	r0, #4
 230 001e 4CD8     		bhi	.L36
 231 0020 2E4E     		ldr	r6, .L45
 232 0022 8000     		lsls	r0, r0, #2
 233              	.LVL14:
 234 0024 3058     		ldr	r0, [r6, r0]
 235 0026 8746     		mov	pc, r0
 236              		.section	.rodata
 237              		.align	2
 238              	.L20:
 239 0000 78000000 		.word	.L19
 240 0004 6C000000 		.word	.L21
 241 0008 60000000 		.word	.L22
 242 000c 2C000000 		.word	.L23
 243 0010 84000000 		.word	.L24
 244              		.section	.text.LoRaMacGetFCntDown
 245              	.LVL15:
 246              	.L35:
 147:../../../../../../Middlewares/Third_Party/LoRaWAN/Mac/LoRaMacFCntHandler.c ****     }
 247              		.loc 1 147 0
ARM GAS  C:\Users\EBANO_~1\AppData\Local\Temp\cc6q1viJ.s 			page 11


 248 0028 0420     		movs	r0, #4
 249              	.LVL16:
 250              	.L18:
 229:../../../../../../Middlewares/Third_Party/LoRaWAN/Mac/LoRaMacFCntHandler.c **** 
 251              		.loc 1 229 0
 252              		@ sp needed
 253 002a 70BD     		pop	{r4, r5, r6, pc}
 254              	.LVL17:
 255              	.L23:
 186:../../../../../../Middlewares/Third_Party/LoRaWAN/Mac/LoRaMacFCntHandler.c ****             previousDown = FCntHandlerNvmCtx.FCntList.McFCntDown3;
 256              		.loc 1 186 0
 257 002c 0723     		movs	r3, #7
 258 002e 0599     		ldr	r1, [sp, #20]
 259              	.LVL18:
 260 0030 0B70     		strb	r3, [r1]
 187:../../../../../../Middlewares/Third_Party/LoRaWAN/Mac/LoRaMacFCntHandler.c ****             break;
 261              		.loc 1 187 0
 262 0032 2B4B     		ldr	r3, .L45+4
 263 0034 D969     		ldr	r1, [r3, #28]
 264              	.LVL19:
 265              	.L28:
 266 0036 D089     		ldrh	r0, [r2, #14]
 194:../../../../../../Middlewares/Third_Party/LoRaWAN/Mac/LoRaMacFCntHandler.c ****     {
 267              		.loc 1 194 0
 268 0038 4B1C     		adds	r3, r1, #1
 269 003a 2BD0     		beq	.L42
 201:../../../../../../Middlewares/Third_Party/LoRaWAN/Mac/LoRaMacFCntHandler.c **** 
 270              		.loc 1 201 0
 271 003c 0B04     		lsls	r3, r1, #16
 272 003e 1B0C     		lsrs	r3, r3, #16
 273 0040 C31A     		subs	r3, r0, r3
 274              	.LVL20:
 203:../../../../../../Middlewares/Third_Party/LoRaWAN/Mac/LoRaMacFCntHandler.c ****         {  // Positive difference
 275              		.loc 1 203 0
 276 0042 002B     		cmp	r3, #0
 277 0044 2ADD     		ble	.L31
 205:../../../../../../Middlewares/Third_Party/LoRaWAN/Mac/LoRaMacFCntHandler.c ****         }
 278              		.loc 1 205 0
 279 0046 069A     		ldr	r2, [sp, #24]
 280              	.LVL21:
 281 0048 5B18     		adds	r3, r3, r1
 282              	.LVL22:
 283 004a 1360     		str	r3, [r2]
 284              	.LVL23:
 285              	.L30:
 228:../../../../../../Middlewares/Third_Party/LoRaWAN/Mac/LoRaMacFCntHandler.c **** }
 286              		.loc 1 228 0
 287 004c 0020     		movs	r0, #0
 220:../../../../../../Middlewares/Third_Party/LoRaWAN/Mac/LoRaMacFCntHandler.c ****     {
 288              		.loc 1 220 0
 289 004e 002D     		cmp	r5, #0
 290 0050 EBD1     		bne	.L18
 222:../../../../../../Middlewares/Third_Party/LoRaWAN/Mac/LoRaMacFCntHandler.c ****         {
 291              		.loc 1 222 0
 292 0052 5B1A     		subs	r3, r3, r1
 224:../../../../../../Middlewares/Third_Party/LoRaWAN/Mac/LoRaMacFCntHandler.c ****         }
 293              		.loc 1 224 0
ARM GAS  C:\Users\EBANO_~1\AppData\Local\Temp\cc6q1viJ.s 			page 12


 294 0054 D817     		asrs	r0, r3, #31
 295 0056 E20F     		lsrs	r2, r4, #31
 296 0058 A342     		cmp	r3, r4
 297 005a 5041     		adcs	r0, r0, r2
 298 005c 4000     		lsls	r0, r0, #1
 299 005e E4E7     		b	.L18
 300              	.LVL24:
 301              	.L22:
 182:../../../../../../Middlewares/Third_Party/LoRaWAN/Mac/LoRaMacFCntHandler.c ****             previousDown = FCntHandlerNvmCtx.FCntList.McFCntDown3;
 302              		.loc 1 182 0
 303 0060 0623     		movs	r3, #6
 304 0062 0599     		ldr	r1, [sp, #20]
 305              	.LVL25:
 306 0064 0B70     		strb	r3, [r1]
 183:../../../../../../Middlewares/Third_Party/LoRaWAN/Mac/LoRaMacFCntHandler.c ****             break;
 307              		.loc 1 183 0
 308 0066 1E4B     		ldr	r3, .L45+4
 309 0068 D969     		ldr	r1, [r3, #28]
 310              	.LVL26:
 184:../../../../../../Middlewares/Third_Party/LoRaWAN/Mac/LoRaMacFCntHandler.c ****         case MULTICAST_3_ADDR:
 311              		.loc 1 184 0
 312 006a E4E7     		b	.L28
 313              	.LVL27:
 314              	.L21:
 178:../../../../../../Middlewares/Third_Party/LoRaWAN/Mac/LoRaMacFCntHandler.c ****             previousDown = FCntHandlerNvmCtx.FCntList.McFCntDown1;
 315              		.loc 1 178 0
 316 006c 0523     		movs	r3, #5
 317 006e 0599     		ldr	r1, [sp, #20]
 318              	.LVL28:
 319 0070 0B70     		strb	r3, [r1]
 179:../../../../../../Middlewares/Third_Party/LoRaWAN/Mac/LoRaMacFCntHandler.c ****             break;
 320              		.loc 1 179 0
 321 0072 1B4B     		ldr	r3, .L45+4
 322 0074 5969     		ldr	r1, [r3, #20]
 323              	.LVL29:
 180:../../../../../../Middlewares/Third_Party/LoRaWAN/Mac/LoRaMacFCntHandler.c ****         case MULTICAST_2_ADDR:
 324              		.loc 1 180 0
 325 0076 DEE7     		b	.L28
 326              	.LVL30:
 327              	.L19:
 174:../../../../../../Middlewares/Third_Party/LoRaWAN/Mac/LoRaMacFCntHandler.c ****             previousDown = FCntHandlerNvmCtx.FCntList.McFCntDown0;
 328              		.loc 1 174 0
 329 0078 0423     		movs	r3, #4
 330 007a 0599     		ldr	r1, [sp, #20]
 331              	.LVL31:
 332 007c 0B70     		strb	r3, [r1]
 175:../../../../../../Middlewares/Third_Party/LoRaWAN/Mac/LoRaMacFCntHandler.c ****             break;
 333              		.loc 1 175 0
 334 007e 184B     		ldr	r3, .L45+4
 335 0080 1969     		ldr	r1, [r3, #16]
 336              	.LVL32:
 176:../../../../../../Middlewares/Third_Party/LoRaWAN/Mac/LoRaMacFCntHandler.c ****         case MULTICAST_1_ADDR:
 337              		.loc 1 176 0
 338 0082 D8E7     		b	.L28
 339              	.LVL33:
 340              	.L24:
 154:../../../../../../Middlewares/Third_Party/LoRaWAN/Mac/LoRaMacFCntHandler.c ****             {
ARM GAS  C:\Users\EBANO_~1\AppData\Local\Temp\cc6q1viJ.s 			page 13


 341              		.loc 1 154 0
 342 0084 012D     		cmp	r5, #1
 343 0086 1AD0     		beq	.L43
 169:../../../../../../Middlewares/Third_Party/LoRaWAN/Mac/LoRaMacFCntHandler.c ****                 previousDown = FCntHandlerNvmCtx.FCntList.FCntDown;
 344              		.loc 1 169 0
 345 0088 0323     		movs	r3, #3
 346 008a 0599     		ldr	r1, [sp, #20]
 347              	.LVL34:
 348 008c 0B70     		strb	r3, [r1]
 170:../../../../../../Middlewares/Third_Party/LoRaWAN/Mac/LoRaMacFCntHandler.c ****             }
 349              		.loc 1 170 0
 350 008e 144B     		ldr	r3, .L45+4
 351 0090 D968     		ldr	r1, [r3, #12]
 352              	.LVL35:
 353 0092 D0E7     		b	.L28
 354              	.L42:
 196:../../../../../../Middlewares/Third_Party/LoRaWAN/Mac/LoRaMacFCntHandler.c ****     }
 355              		.loc 1 196 0
 356 0094 069A     		ldr	r2, [sp, #24]
 357              	.LVL36:
 358 0096 0300     		movs	r3, r0
 359 0098 1060     		str	r0, [r2]
 360 009a D7E7     		b	.L30
 361              	.LVL37:
 362              	.L31:
 207:../../../../../../Middlewares/Third_Party/LoRaWAN/Mac/LoRaMacFCntHandler.c ****         {  // Duplicate FCnt value, keep the current value.
 363              		.loc 1 207 0
 364 009c 002B     		cmp	r3, #0
 365 009e 08D0     		beq	.L44
 214:../../../../../../Middlewares/Third_Party/LoRaWAN/Mac/LoRaMacFCntHandler.c ****         }
 366              		.loc 1 214 0
 367 00a0 8023     		movs	r3, #128
 368              	.LVL38:
 369 00a2 0A0C     		lsrs	r2, r1, #16
 370              	.LVL39:
 371 00a4 5B02     		lsls	r3, r3, #9
 372 00a6 1204     		lsls	r2, r2, #16
 373 00a8 C318     		adds	r3, r0, r3
 374 00aa D318     		adds	r3, r2, r3
 375 00ac 069A     		ldr	r2, [sp, #24]
 376 00ae 1360     		str	r3, [r2]
 377 00b0 CCE7     		b	.L30
 378              	.LVL40:
 379              	.L44:
 209:../../../../../../Middlewares/Third_Party/LoRaWAN/Mac/LoRaMacFCntHandler.c ****             return LORAMAC_FCNT_HANDLER_CHECK_FAIL;
 380              		.loc 1 209 0
 381 00b2 069B     		ldr	r3, [sp, #24]
 382              	.LVL41:
 210:../../../../../../Middlewares/Third_Party/LoRaWAN/Mac/LoRaMacFCntHandler.c ****         }
 383              		.loc 1 210 0
 384 00b4 0120     		movs	r0, #1
 385              	.LVL42:
 209:../../../../../../Middlewares/Third_Party/LoRaWAN/Mac/LoRaMacFCntHandler.c ****             return LORAMAC_FCNT_HANDLER_CHECK_FAIL;
 386              		.loc 1 209 0
 387 00b6 1960     		str	r1, [r3]
 388              	.LVL43:
 210:../../../../../../Middlewares/Third_Party/LoRaWAN/Mac/LoRaMacFCntHandler.c ****         }
ARM GAS  C:\Users\EBANO_~1\AppData\Local\Temp\cc6q1viJ.s 			page 14


 389              		.loc 1 210 0
 390 00b8 B7E7     		b	.L18
 391              	.LVL44:
 392              	.L36:
 190:../../../../../../Middlewares/Third_Party/LoRaWAN/Mac/LoRaMacFCntHandler.c ****     }
 393              		.loc 1 190 0
 394 00ba 0520     		movs	r0, #5
 395              	.LVL45:
 396 00bc B5E7     		b	.L18
 397              	.L43:
 156:../../../../../../Middlewares/Third_Party/LoRaWAN/Mac/LoRaMacFCntHandler.c ****                 {
 398              		.loc 1 156 0
 399 00be 0029     		cmp	r1, #0
 400 00c0 06D0     		beq	.L26
 156:../../../../../../Middlewares/Third_Party/LoRaWAN/Mac/LoRaMacFCntHandler.c ****                 {
 401              		.loc 1 156 0 is_stmt 0 discriminator 1
 402 00c2 0329     		cmp	r1, #3
 403 00c4 04D0     		beq	.L26
 163:../../../../../../Middlewares/Third_Party/LoRaWAN/Mac/LoRaMacFCntHandler.c ****                     previousDown = FCntHandlerNvmCtx.FCntList.NFCntDown;
 404              		.loc 1 163 0 is_stmt 1
 405 00c6 0599     		ldr	r1, [sp, #20]
 406              	.LVL46:
 407 00c8 0B70     		strb	r3, [r1]
 164:../../../../../../Middlewares/Third_Party/LoRaWAN/Mac/LoRaMacFCntHandler.c ****                 }
 408              		.loc 1 164 0
 409 00ca 054B     		ldr	r3, .L45+4
 410 00cc 5968     		ldr	r1, [r3, #4]
 411              	.LVL47:
 412 00ce B2E7     		b	.L28
 413              	.LVL48:
 414              	.L26:
 158:../../../../../../Middlewares/Third_Party/LoRaWAN/Mac/LoRaMacFCntHandler.c ****                     previousDown = FCntHandlerNvmCtx.FCntList.AFCntDown;
 415              		.loc 1 158 0
 416 00d0 0223     		movs	r3, #2
 417 00d2 0599     		ldr	r1, [sp, #20]
 418              	.LVL49:
 419 00d4 0B70     		strb	r3, [r1]
 159:../../../../../../Middlewares/Third_Party/LoRaWAN/Mac/LoRaMacFCntHandler.c ****                 }
 420              		.loc 1 159 0
 421 00d6 024B     		ldr	r3, .L45+4
 422 00d8 9968     		ldr	r1, [r3, #8]
 423              	.LVL50:
 424 00da ACE7     		b	.L28
 425              	.L46:
 426              		.align	2
 427              	.L45:
 428 00dc 00000000 		.word	.L20
 429 00e0 00000000 		.word	.LANCHOR0
 430              		.cfi_endproc
 431              	.LFE43:
 432              		.size	LoRaMacGetFCntDown, .-LoRaMacGetFCntDown
 433              		.section	.text.LoRaMacSetFCntDown,"ax",%progbits
 434              		.align	1
 435              		.p2align 2,,3
 436              		.global	LoRaMacSetFCntDown
 437              		.syntax unified
 438              		.code	16
ARM GAS  C:\Users\EBANO_~1\AppData\Local\Temp\cc6q1viJ.s 			page 15


 439              		.thumb_func
 440              		.fpu softvfp
 441              		.type	LoRaMacSetFCntDown, %function
 442              	LoRaMacSetFCntDown:
 443              	.LFB44:
 232:../../../../../../Middlewares/Third_Party/LoRaWAN/Mac/LoRaMacFCntHandler.c ****     switch( fCntID )
 444              		.loc 1 232 0
 445              		.cfi_startproc
 446              		@ args = 0, pretend = 0, frame = 0
 447              		@ frame_needed = 0, uses_anonymous_args = 0
 448              	.LVL51:
 449 0000 10B5     		push	{r4, lr}
 450              	.LCFI3:
 451              		.cfi_def_cfa_offset 8
 452              		.cfi_offset 4, -8
 453              		.cfi_offset 14, -4
 233:../../../../../../Middlewares/Third_Party/LoRaWAN/Mac/LoRaMacFCntHandler.c ****     {
 454              		.loc 1 233 0
 455 0002 0728     		cmp	r0, #7
 456 0004 1FD8     		bhi	.L48
 457 0006 124B     		ldr	r3, .L61
 458 0008 8000     		lsls	r0, r0, #2
 459              	.LVL52:
 460 000a 1B58     		ldr	r3, [r3, r0]
 461 000c 9F46     		mov	pc, r3
 462              		.section	.rodata
 463              		.align	2
 464              	.L50:
 465 0014 0E000000 		.word	.L59
 466 0018 12000000 		.word	.L51
 467 001c 22000000 		.word	.L52
 468 0020 28000000 		.word	.L53
 469 0024 2E000000 		.word	.L54
 470 0028 34000000 		.word	.L55
 471 002c 3A000000 		.word	.L56
 472 0030 40000000 		.word	.L57
 473              		.section	.text.LoRaMacSetFCntDown
 474              	.L59:
 236:../../../../../../Middlewares/Third_Party/LoRaWAN/Mac/LoRaMacFCntHandler.c ****         case N_FCNT_DOWN:
 475              		.loc 1 236 0
 476 000e 0320     		movs	r0, #3
 477              	.LVL53:
 478              	.L49:
 265:../../../../../../Middlewares/Third_Party/LoRaWAN/Mac/LoRaMacFCntHandler.c **** 
 479              		.loc 1 265 0
 480              		@ sp needed
 481 0010 10BD     		pop	{r4, pc}
 482              	.LVL54:
 483              	.L51:
 238:../../../../../../Middlewares/Third_Party/LoRaWAN/Mac/LoRaMacFCntHandler.c ****             break;
 484              		.loc 1 238 0
 485 0012 104B     		ldr	r3, .L61+4
 486 0014 5960     		str	r1, [r3, #4]
 487              	.L58:
 488              	.LBB20:
 489              	.LBB21:
 100:../../../../../../Middlewares/Third_Party/LoRaWAN/Mac/LoRaMacFCntHandler.c ****     {
ARM GAS  C:\Users\EBANO_~1\AppData\Local\Temp\cc6q1viJ.s 			page 16


 490              		.loc 1 100 0
 491 0016 1B6A     		ldr	r3, [r3, #32]
 492 0018 002B     		cmp	r3, #0
 493 001a 16D0     		beq	.L60
 102:../../../../../../Middlewares/Third_Party/LoRaWAN/Mac/LoRaMacFCntHandler.c ****     }
 494              		.loc 1 102 0
 495 001c 9847     		blx	r3
 496              	.LVL55:
 497              	.LBE21:
 498              	.LBE20:
 264:../../../../../../Middlewares/Third_Party/LoRaWAN/Mac/LoRaMacFCntHandler.c **** }
 499              		.loc 1 264 0
 500 001e 0020     		movs	r0, #0
 501 0020 F6E7     		b	.L49
 502              	.LVL56:
 503              	.L52:
 241:../../../../../../Middlewares/Third_Party/LoRaWAN/Mac/LoRaMacFCntHandler.c ****             break;
 504              		.loc 1 241 0
 505 0022 0C4B     		ldr	r3, .L61+4
 506 0024 9960     		str	r1, [r3, #8]
 242:../../../../../../Middlewares/Third_Party/LoRaWAN/Mac/LoRaMacFCntHandler.c ****         case FCNT_DOWN:
 507              		.loc 1 242 0
 508 0026 F6E7     		b	.L58
 509              	.L53:
 244:../../../../../../Middlewares/Third_Party/LoRaWAN/Mac/LoRaMacFCntHandler.c ****             break;
 510              		.loc 1 244 0
 511 0028 0A4B     		ldr	r3, .L61+4
 512 002a D960     		str	r1, [r3, #12]
 245:../../../../../../Middlewares/Third_Party/LoRaWAN/Mac/LoRaMacFCntHandler.c ****         case MC_FCNT_DOWN_0:
 513              		.loc 1 245 0
 514 002c F3E7     		b	.L58
 515              	.L54:
 247:../../../../../../Middlewares/Third_Party/LoRaWAN/Mac/LoRaMacFCntHandler.c ****             break;
 516              		.loc 1 247 0
 517 002e 094B     		ldr	r3, .L61+4
 518 0030 1961     		str	r1, [r3, #16]
 248:../../../../../../Middlewares/Third_Party/LoRaWAN/Mac/LoRaMacFCntHandler.c ****         case MC_FCNT_DOWN_1:
 519              		.loc 1 248 0
 520 0032 F0E7     		b	.L58
 521              	.L55:
 250:../../../../../../Middlewares/Third_Party/LoRaWAN/Mac/LoRaMacFCntHandler.c ****             break;
 522              		.loc 1 250 0
 523 0034 074B     		ldr	r3, .L61+4
 524 0036 5961     		str	r1, [r3, #20]
 251:../../../../../../Middlewares/Third_Party/LoRaWAN/Mac/LoRaMacFCntHandler.c ****         case MC_FCNT_DOWN_2:
 525              		.loc 1 251 0
 526 0038 EDE7     		b	.L58
 527              	.L56:
 253:../../../../../../Middlewares/Third_Party/LoRaWAN/Mac/LoRaMacFCntHandler.c ****             break;
 528              		.loc 1 253 0
 529 003a 064B     		ldr	r3, .L61+4
 530 003c 9961     		str	r1, [r3, #24]
 254:../../../../../../Middlewares/Third_Party/LoRaWAN/Mac/LoRaMacFCntHandler.c ****         case MC_FCNT_DOWN_3:
 531              		.loc 1 254 0
 532 003e EAE7     		b	.L58
 533              	.L57:
 256:../../../../../../Middlewares/Third_Party/LoRaWAN/Mac/LoRaMacFCntHandler.c ****             break;
ARM GAS  C:\Users\EBANO_~1\AppData\Local\Temp\cc6q1viJ.s 			page 17


 534              		.loc 1 256 0
 535 0040 044B     		ldr	r3, .L61+4
 536 0042 D961     		str	r1, [r3, #28]
 257:../../../../../../Middlewares/Third_Party/LoRaWAN/Mac/LoRaMacFCntHandler.c ****         default:
 537              		.loc 1 257 0
 538 0044 E7E7     		b	.L58
 539              	.LVL57:
 540              	.L48:
 259:../../../../../../Middlewares/Third_Party/LoRaWAN/Mac/LoRaMacFCntHandler.c ****     }
 541              		.loc 1 259 0
 542 0046 0520     		movs	r0, #5
 543              	.LVL58:
 544 0048 E2E7     		b	.L49
 545              	.L60:
 264:../../../../../../Middlewares/Third_Party/LoRaWAN/Mac/LoRaMacFCntHandler.c **** }
 546              		.loc 1 264 0
 547 004a 0020     		movs	r0, #0
 548 004c E0E7     		b	.L49
 549              	.L62:
 550 004e C046     		.align	2
 551              	.L61:
 552 0050 14000000 		.word	.L50
 553 0054 00000000 		.word	.LANCHOR0
 554              		.cfi_endproc
 555              	.LFE44:
 556              		.size	LoRaMacSetFCntDown, .-LoRaMacSetFCntDown
 557              		.section	.text.LoRaMacGetFCntUp,"ax",%progbits
 558              		.align	1
 559              		.p2align 2,,3
 560              		.global	LoRaMacGetFCntUp
 561              		.syntax unified
 562              		.code	16
 563              		.thumb_func
 564              		.fpu softvfp
 565              		.type	LoRaMacGetFCntUp, %function
 566              	LoRaMacGetFCntUp:
 567              	.LFB45:
 268:../../../../../../Middlewares/Third_Party/LoRaWAN/Mac/LoRaMacFCntHandler.c ****     if( currentUp == NULL )
 568              		.loc 1 268 0
 569              		.cfi_startproc
 570              		@ args = 0, pretend = 0, frame = 0
 571              		@ frame_needed = 0, uses_anonymous_args = 0
 572              		@ link register save eliminated.
 573              	.LVL59:
 269:../../../../../../Middlewares/Third_Party/LoRaWAN/Mac/LoRaMacFCntHandler.c ****     {
 574              		.loc 1 269 0
 575 0000 0028     		cmp	r0, #0
 576 0002 05D0     		beq	.L65
 274:../../../../../../Middlewares/Third_Party/LoRaWAN/Mac/LoRaMacFCntHandler.c **** 
 577              		.loc 1 274 0
 578 0004 034B     		ldr	r3, .L66
 579 0006 1B68     		ldr	r3, [r3]
 580 0008 0133     		adds	r3, r3, #1
 581 000a 0360     		str	r3, [r0]
 276:../../../../../../Middlewares/Third_Party/LoRaWAN/Mac/LoRaMacFCntHandler.c **** }
 582              		.loc 1 276 0
 583 000c 0020     		movs	r0, #0
ARM GAS  C:\Users\EBANO_~1\AppData\Local\Temp\cc6q1viJ.s 			page 18


 584              	.LVL60:
 585              	.L64:
 277:../../../../../../Middlewares/Third_Party/LoRaWAN/Mac/LoRaMacFCntHandler.c **** 
 586              		.loc 1 277 0
 587              		@ sp needed
 588 000e 7047     		bx	lr
 589              	.LVL61:
 590              	.L65:
 271:../../../../../../Middlewares/Third_Party/LoRaWAN/Mac/LoRaMacFCntHandler.c ****     }
 591              		.loc 1 271 0
 592 0010 0420     		movs	r0, #4
 593              	.LVL62:
 594 0012 FCE7     		b	.L64
 595              	.L67:
 596              		.align	2
 597              	.L66:
 598 0014 00000000 		.word	.LANCHOR0
 599              		.cfi_endproc
 600              	.LFE45:
 601              		.size	LoRaMacGetFCntUp, .-LoRaMacGetFCntUp
 602              		.section	.text.LoRaMacSetFCntUp,"ax",%progbits
 603              		.align	1
 604              		.p2align 2,,3
 605              		.global	LoRaMacSetFCntUp
 606              		.syntax unified
 607              		.code	16
 608              		.thumb_func
 609              		.fpu softvfp
 610              		.type	LoRaMacSetFCntUp, %function
 611              	LoRaMacSetFCntUp:
 612              	.LFB46:
 280:../../../../../../Middlewares/Third_Party/LoRaWAN/Mac/LoRaMacFCntHandler.c ****     FCntHandlerNvmCtx.FCntList.FCntUp = currentUp;
 613              		.loc 1 280 0
 614              		.cfi_startproc
 615              		@ args = 0, pretend = 0, frame = 0
 616              		@ frame_needed = 0, uses_anonymous_args = 0
 617              	.LVL63:
 281:../../../../../../Middlewares/Third_Party/LoRaWAN/Mac/LoRaMacFCntHandler.c **** 
 618              		.loc 1 281 0
 619 0000 044B     		ldr	r3, .L73
 280:../../../../../../Middlewares/Third_Party/LoRaWAN/Mac/LoRaMacFCntHandler.c ****     FCntHandlerNvmCtx.FCntList.FCntUp = currentUp;
 620              		.loc 1 280 0
 621 0002 10B5     		push	{r4, lr}
 622              	.LCFI4:
 623              		.cfi_def_cfa_offset 8
 624              		.cfi_offset 4, -8
 625              		.cfi_offset 14, -4
 281:../../../../../../Middlewares/Third_Party/LoRaWAN/Mac/LoRaMacFCntHandler.c **** 
 626              		.loc 1 281 0
 627 0004 1860     		str	r0, [r3]
 628              	.LBB22:
 629              	.LBB23:
 100:../../../../../../Middlewares/Third_Party/LoRaWAN/Mac/LoRaMacFCntHandler.c ****     {
 630              		.loc 1 100 0
 631 0006 1B6A     		ldr	r3, [r3, #32]
 632 0008 002B     		cmp	r3, #0
 633 000a 00D0     		beq	.L69
ARM GAS  C:\Users\EBANO_~1\AppData\Local\Temp\cc6q1viJ.s 			page 19


 102:../../../../../../Middlewares/Third_Party/LoRaWAN/Mac/LoRaMacFCntHandler.c ****     }
 634              		.loc 1 102 0
 635 000c 9847     		blx	r3
 636              	.LVL64:
 637              	.L69:
 638              	.LBE23:
 639              	.LBE22:
 286:../../../../../../Middlewares/Third_Party/LoRaWAN/Mac/LoRaMacFCntHandler.c **** 
 640              		.loc 1 286 0
 641 000e 0020     		movs	r0, #0
 642              		@ sp needed
 643 0010 10BD     		pop	{r4, pc}
 644              	.L74:
 645 0012 C046     		.align	2
 646              	.L73:
 647 0014 00000000 		.word	.LANCHOR0
 648              		.cfi_endproc
 649              	.LFE46:
 650              		.size	LoRaMacSetFCntUp, .-LoRaMacSetFCntUp
 651              		.section	.text.LoRaMacResetFCnts,"ax",%progbits
 652              		.align	1
 653              		.p2align 2,,3
 654              		.global	LoRaMacResetFCnts
 655              		.syntax unified
 656              		.code	16
 657              		.thumb_func
 658              		.fpu softvfp
 659              		.type	LoRaMacResetFCnts, %function
 660              	LoRaMacResetFCnts:
 661              	.LFB47:
 289:../../../../../../Middlewares/Third_Party/LoRaWAN/Mac/LoRaMacFCntHandler.c **** 
 662              		.loc 1 289 0
 663              		.cfi_startproc
 664              		@ args = 0, pretend = 0, frame = 0
 665              		@ frame_needed = 0, uses_anonymous_args = 0
 291:../../../../../../Middlewares/Third_Party/LoRaWAN/Mac/LoRaMacFCntHandler.c ****     FCntHandlerNvmCtx.FCntList.NFCntDown = FCNT_DOWN_INITAL_VALUE;
 666              		.loc 1 291 0
 667 0000 0022     		movs	r2, #0
 668 0002 084B     		ldr	r3, .L80
 289:../../../../../../Middlewares/Third_Party/LoRaWAN/Mac/LoRaMacFCntHandler.c **** 
 669              		.loc 1 289 0
 670 0004 10B5     		push	{r4, lr}
 671              	.LCFI5:
 672              		.cfi_def_cfa_offset 8
 673              		.cfi_offset 4, -8
 674              		.cfi_offset 14, -4
 291:../../../../../../Middlewares/Third_Party/LoRaWAN/Mac/LoRaMacFCntHandler.c ****     FCntHandlerNvmCtx.FCntList.NFCntDown = FCNT_DOWN_INITAL_VALUE;
 675              		.loc 1 291 0
 676 0006 1A60     		str	r2, [r3]
 292:../../../../../../Middlewares/Third_Party/LoRaWAN/Mac/LoRaMacFCntHandler.c ****     FCntHandlerNvmCtx.FCntList.AFCntDown = FCNT_DOWN_INITAL_VALUE;
 677              		.loc 1 292 0
 678 0008 013A     		subs	r2, r2, #1
 679 000a 5A60     		str	r2, [r3, #4]
 293:../../../../../../Middlewares/Third_Party/LoRaWAN/Mac/LoRaMacFCntHandler.c ****     FCntHandlerNvmCtx.FCntList.FCntDown = FCNT_DOWN_INITAL_VALUE;
 680              		.loc 1 293 0
 681 000c 9A60     		str	r2, [r3, #8]
 294:../../../../../../Middlewares/Third_Party/LoRaWAN/Mac/LoRaMacFCntHandler.c **** 
ARM GAS  C:\Users\EBANO_~1\AppData\Local\Temp\cc6q1viJ.s 			page 20


 682              		.loc 1 294 0
 683 000e DA60     		str	r2, [r3, #12]
 296:../../../../../../Middlewares/Third_Party/LoRaWAN/Mac/LoRaMacFCntHandler.c ****     FCntHandlerNvmCtx.FCntList.McFCntDown1 = FCNT_DOWN_INITAL_VALUE;
 684              		.loc 1 296 0
 685 0010 1A61     		str	r2, [r3, #16]
 297:../../../../../../Middlewares/Third_Party/LoRaWAN/Mac/LoRaMacFCntHandler.c ****     FCntHandlerNvmCtx.FCntList.McFCntDown2 = FCNT_DOWN_INITAL_VALUE;
 686              		.loc 1 297 0
 687 0012 5A61     		str	r2, [r3, #20]
 298:../../../../../../Middlewares/Third_Party/LoRaWAN/Mac/LoRaMacFCntHandler.c ****     FCntHandlerNvmCtx.FCntList.McFCntDown3 = FCNT_DOWN_INITAL_VALUE;
 688              		.loc 1 298 0
 689 0014 9A61     		str	r2, [r3, #24]
 690              		.loc 1 299 0
 691 0016 DA61     		str	r2, [r3, #28]
 692              	.LBB24:
 693              	.LBB25:
 100:../../../../../../Middlewares/Third_Party/LoRaWAN/Mac/LoRaMacFCntHandler.c ****     {
 694              		.loc 1 100 0
 695 0018 1B6A     		ldr	r3, [r3, #32]
 696 001a 002B     		cmp	r3, #0
 697 001c 00D0     		beq	.L76
 102:../../../../../../Middlewares/Third_Party/LoRaWAN/Mac/LoRaMacFCntHandler.c ****     }
 698              		.loc 1 102 0
 699 001e 9847     		blx	r3
 700              	.LVL65:
 701              	.L76:
 702              	.LBE25:
 703              	.LBE24:
 300:../../../../../../Middlewares/Third_Party/LoRaWAN/Mac/LoRaMacFCntHandler.c **** 
 301:../../../../../../Middlewares/Third_Party/LoRaWAN/Mac/LoRaMacFCntHandler.c ****     NvmCtxChanged( );
 302:../../../../../../Middlewares/Third_Party/LoRaWAN/Mac/LoRaMacFCntHandler.c **** 
 303:../../../../../../Middlewares/Third_Party/LoRaWAN/Mac/LoRaMacFCntHandler.c ****     return LORAMAC_FCNT_HANDLER_SUCCESS;
 304:../../../../../../Middlewares/Third_Party/LoRaWAN/Mac/LoRaMacFCntHandler.c **** }
 704              		.loc 1 304 0
 705 0020 0020     		movs	r0, #0
 706              		@ sp needed
 707 0022 10BD     		pop	{r4, pc}
 708              	.L81:
 709              		.align	2
 710              	.L80:
 711 0024 00000000 		.word	.LANCHOR0
 712              		.cfi_endproc
 713              	.LFE47:
 714              		.size	LoRaMacResetFCnts, .-LoRaMacResetFCnts
 715              		.section	.text.LoRaMacFCntHandlerSetMulticastReference,"ax",%progbits
 716              		.align	1
 717              		.p2align 2,,3
 718              		.global	LoRaMacFCntHandlerSetMulticastReference
 719              		.syntax unified
 720              		.code	16
 721              		.thumb_func
 722              		.fpu softvfp
 723              		.type	LoRaMacFCntHandlerSetMulticastReference, %function
 724              	LoRaMacFCntHandlerSetMulticastReference:
 725              	.LFB48:
 305:../../../../../../Middlewares/Third_Party/LoRaWAN/Mac/LoRaMacFCntHandler.c **** 
 306:../../../../../../Middlewares/Third_Party/LoRaWAN/Mac/LoRaMacFCntHandler.c **** LoRaMacFCntHandlerStatus_t LoRaMacFCntHandlerSetMulticastReference( MulticastCtx_t* multicastList )
 307:../../../../../../Middlewares/Third_Party/LoRaWAN/Mac/LoRaMacFCntHandler.c **** {
ARM GAS  C:\Users\EBANO_~1\AppData\Local\Temp\cc6q1viJ.s 			page 21


 726              		.loc 1 307 0
 727              		.cfi_startproc
 728              		@ args = 0, pretend = 0, frame = 0
 729              		@ frame_needed = 0, uses_anonymous_args = 0
 730              		@ link register save eliminated.
 731              	.LVL66:
 308:../../../../../../Middlewares/Third_Party/LoRaWAN/Mac/LoRaMacFCntHandler.c ****     if( multicastList == NULL )
 732              		.loc 1 308 0
 733 0000 0028     		cmp	r0, #0
 734 0002 0DD0     		beq	.L84
 309:../../../../../../Middlewares/Third_Party/LoRaWAN/Mac/LoRaMacFCntHandler.c ****     {
 310:../../../../../../Middlewares/Third_Party/LoRaWAN/Mac/LoRaMacFCntHandler.c ****         return LORAMAC_FCNT_HANDLER_ERROR_NPE;
 311:../../../../../../Middlewares/Third_Party/LoRaWAN/Mac/LoRaMacFCntHandler.c ****     }
 312:../../../../../../Middlewares/Third_Party/LoRaWAN/Mac/LoRaMacFCntHandler.c **** 
 313:../../../../../../Middlewares/Third_Party/LoRaWAN/Mac/LoRaMacFCntHandler.c ****     multicastList[0].DownLinkCounter = &FCntHandlerNvmCtx.FCntList.McFCntDown0;
 735              		.loc 1 313 0
 736 0004 074B     		ldr	r3, .L85
 737 0006 1A00     		movs	r2, r3
 738 0008 1032     		adds	r2, r2, #16
 739 000a 8260     		str	r2, [r0, #8]
 314:../../../../../../Middlewares/Third_Party/LoRaWAN/Mac/LoRaMacFCntHandler.c ****     multicastList[1].DownLinkCounter = &FCntHandlerNvmCtx.FCntList.McFCntDown1;
 740              		.loc 1 314 0
 741 000c 1A00     		movs	r2, r3
 742 000e 1432     		adds	r2, r2, #20
 743 0010 8262     		str	r2, [r0, #40]
 315:../../../../../../Middlewares/Third_Party/LoRaWAN/Mac/LoRaMacFCntHandler.c ****     multicastList[2].DownLinkCounter = &FCntHandlerNvmCtx.FCntList.McFCntDown2;
 744              		.loc 1 315 0
 745 0012 1A00     		movs	r2, r3
 316:../../../../../../Middlewares/Third_Party/LoRaWAN/Mac/LoRaMacFCntHandler.c ****     multicastList[3].DownLinkCounter = &FCntHandlerNvmCtx.FCntList.McFCntDown3;
 746              		.loc 1 316 0
 747 0014 1C33     		adds	r3, r3, #28
 315:../../../../../../Middlewares/Third_Party/LoRaWAN/Mac/LoRaMacFCntHandler.c ****     multicastList[2].DownLinkCounter = &FCntHandlerNvmCtx.FCntList.McFCntDown2;
 748              		.loc 1 315 0
 749 0016 1832     		adds	r2, r2, #24
 750 0018 8264     		str	r2, [r0, #72]
 751              		.loc 1 316 0
 752 001a 8366     		str	r3, [r0, #104]
 317:../../../../../../Middlewares/Third_Party/LoRaWAN/Mac/LoRaMacFCntHandler.c **** 
 318:../../../../../../Middlewares/Third_Party/LoRaWAN/Mac/LoRaMacFCntHandler.c ****     return LORAMAC_FCNT_HANDLER_SUCCESS;
 753              		.loc 1 318 0
 754 001c 0020     		movs	r0, #0
 755              	.LVL67:
 756              	.L83:
 319:../../../../../../Middlewares/Third_Party/LoRaWAN/Mac/LoRaMacFCntHandler.c **** }
 757              		.loc 1 319 0
 758              		@ sp needed
 759 001e 7047     		bx	lr
 760              	.LVL68:
 761              	.L84:
 310:../../../../../../Middlewares/Third_Party/LoRaWAN/Mac/LoRaMacFCntHandler.c ****     }
 762              		.loc 1 310 0
 763 0020 0420     		movs	r0, #4
 764              	.LVL69:
 765 0022 FCE7     		b	.L83
 766              	.L86:
 767              		.align	2
 768              	.L85:
ARM GAS  C:\Users\EBANO_~1\AppData\Local\Temp\cc6q1viJ.s 			page 22


 769 0024 00000000 		.word	.LANCHOR0
 770              		.cfi_endproc
 771              	.LFE48:
 772              		.size	LoRaMacFCntHandlerSetMulticastReference, .-LoRaMacFCntHandlerSetMulticastReference
 773              		.bss
 774              		.align	2
 775              		.set	.LANCHOR0,. + 0
 776              		.type	FCntHandlerNvmCtx, %object
 777              		.size	FCntHandlerNvmCtx, 32
 778              	FCntHandlerNvmCtx:
 779 0000 00000000 		.space	32
 779      00000000 
 779      00000000 
 779      00000000 
 779      00000000 
 780              		.type	FCntHandlerNvmCtxChanged, %object
 781              		.size	FCntHandlerNvmCtxChanged, 4
 782              	FCntHandlerNvmCtxChanged:
 783 0020 00000000 		.space	4
 784              		.text
 785              	.Letext0:
 786              		.file 2 "c:\\program files (x86)\\gnu tools arm embedded\\7 2018-q2-update\\lib\\gcc\\arm-none-eab
 787              		.file 3 "c:\\program files (x86)\\gnu tools arm embedded\\7 2018-q2-update\\arm-none-eabi\\include
 788              		.file 4 "c:\\program files (x86)\\gnu tools arm embedded\\7 2018-q2-update\\arm-none-eabi\\include
 789              		.file 5 "c:\\program files (x86)\\gnu tools arm embedded\\7 2018-q2-update\\arm-none-eabi\\include
 790              		.file 6 "c:\\program files (x86)\\gnu tools arm embedded\\7 2018-q2-update\\arm-none-eabi\\include
 791              		.file 7 "c:\\program files (x86)\\gnu tools arm embedded\\7 2018-q2-update\\arm-none-eabi\\include
 792              		.file 8 "../../../../../../Drivers/CMSIS/Device/ST/STM32L0xx/Include/system_stm32l0xx.h"
 793              		.file 9 "c:\\program files (x86)\\gnu tools arm embedded\\7 2018-q2-update\\arm-none-eabi\\include
 794              		.file 10 "../../../../../../Middlewares/Third_Party/LoRaWAN/Utilities/utilities.h"
 795              		.file 11 "../../../../../../Middlewares/Third_Party/LoRaWAN/Mac/LoRaMacTypes.h"
 796              		.file 12 "../../../../../../Middlewares/Third_Party/LoRaWAN/Mac/LoRaMacHeaderTypes.h"
 797              		.file 13 "../../../../../../Middlewares/Third_Party/LoRaWAN/Mac/LoRaMacMessageTypes.h"
 798              		.file 14 "../../../../../../Middlewares/Third_Party/LoRaWAN/Mac/LoRaMacFCntHandler.h"