ARM GAS  C:\Users\EBANO_~1\AppData\Local\Temp\ccRTGXbP.s 			page 1


   1              		.cpu cortex-m0plus
   2              		.eabi_attribute 20, 1
   3              		.eabi_attribute 21, 1
   4              		.eabi_attribute 23, 3
   5              		.eabi_attribute 24, 1
   6              		.eabi_attribute 25, 1
   7              		.eabi_attribute 26, 1
   8              		.eabi_attribute 30, 2
   9              		.eabi_attribute 34, 0
  10              		.eabi_attribute 18, 4
  11              		.file	"lora-test.c"
  12              		.text
  13              	.Ltext0:
  14              		.cfi_sections	.debug_frame
  15              		.section	.text.OnCertifTxNextPacketTimerEvent,"ax",%progbits
  16              		.align	1
  17              		.p2align 2,,3
  18              		.syntax unified
  19              		.code	16
  20              		.thumb_func
  21              		.fpu softvfp
  22              		.type	OnCertifTxNextPacketTimerEvent, %function
  23              	OnCertifTxNextPacketTimerEvent:
  24              	.LFB44:
  25              		.file 1 "../../../../../../Middlewares/Third_Party/LoRaWAN/Core/lora-test.c"
   1:../../../../../../Middlewares/Third_Party/LoRaWAN/Core/lora-test.c ****  /*
   2:../../../../../../Middlewares/Third_Party/LoRaWAN/Core/lora-test.c ****  / _____)             _              | |
   3:../../../../../../Middlewares/Third_Party/LoRaWAN/Core/lora-test.c **** ( (____  _____ ____ _| |_ _____  ____| |__
   4:../../../../../../Middlewares/Third_Party/LoRaWAN/Core/lora-test.c ****  \____ \| ___ |    (_   _) ___ |/ ___)  _ \
   5:../../../../../../Middlewares/Third_Party/LoRaWAN/Core/lora-test.c ****  _____) ) ____| | | || |_| ____( (___| | | |
   6:../../../../../../Middlewares/Third_Party/LoRaWAN/Core/lora-test.c **** (______/|_____)_|_|_| \__)_____)\____)_| |_|
   7:../../../../../../Middlewares/Third_Party/LoRaWAN/Core/lora-test.c ****     (C)2013 Semtech
   8:../../../../../../Middlewares/Third_Party/LoRaWAN/Core/lora-test.c **** 
   9:../../../../../../Middlewares/Third_Party/LoRaWAN/Core/lora-test.c **** Description: LoRaMac classA device implementation
  10:../../../../../../Middlewares/Third_Party/LoRaWAN/Core/lora-test.c **** 
  11:../../../../../../Middlewares/Third_Party/LoRaWAN/Core/lora-test.c **** License: Revised BSD License, see LICENSE.TXT file include in the project
  12:../../../../../../Middlewares/Third_Party/LoRaWAN/Core/lora-test.c **** 
  13:../../../../../../Middlewares/Third_Party/LoRaWAN/Core/lora-test.c **** Maintainer: Miguel Luis, Gregory Cristian and Wael Guibene
  14:../../../../../../Middlewares/Third_Party/LoRaWAN/Core/lora-test.c **** */
  15:../../../../../../Middlewares/Third_Party/LoRaWAN/Core/lora-test.c **** /******************************************************************************
  16:../../../../../../Middlewares/Third_Party/LoRaWAN/Core/lora-test.c ****   * @file    lora-test.c
  17:../../../../../../Middlewares/Third_Party/LoRaWAN/Core/lora-test.c ****   * @author  MCD Application Team
  18:../../../../../../Middlewares/Third_Party/LoRaWAN/Core/lora-test.c ****   * @brief   lora API to drive the lora state Machine
  19:../../../../../../Middlewares/Third_Party/LoRaWAN/Core/lora-test.c ****   ******************************************************************************
  20:../../../../../../Middlewares/Third_Party/LoRaWAN/Core/lora-test.c ****   * @attention
  21:../../../../../../Middlewares/Third_Party/LoRaWAN/Core/lora-test.c ****   *
  22:../../../../../../Middlewares/Third_Party/LoRaWAN/Core/lora-test.c ****   * <h2><center>&copy; Copyright (c) 2018 STMicroelectronics.
  23:../../../../../../Middlewares/Third_Party/LoRaWAN/Core/lora-test.c ****   * All rights reserved.</center></h2>
  24:../../../../../../Middlewares/Third_Party/LoRaWAN/Core/lora-test.c ****   *
  25:../../../../../../Middlewares/Third_Party/LoRaWAN/Core/lora-test.c ****   * This software component is licensed by ST under Ultimate Liberty license
  26:../../../../../../Middlewares/Third_Party/LoRaWAN/Core/lora-test.c ****   * SLA0044, the "License"; You may not use this file except in compliance with
  27:../../../../../../Middlewares/Third_Party/LoRaWAN/Core/lora-test.c ****   * the License. You may obtain a copy of the License at:
  28:../../../../../../Middlewares/Third_Party/LoRaWAN/Core/lora-test.c ****   *                             www.st.com/SLA0044
  29:../../../../../../Middlewares/Third_Party/LoRaWAN/Core/lora-test.c ****   *
  30:../../../../../../Middlewares/Third_Party/LoRaWAN/Core/lora-test.c ****   ******************************************************************************
  31:../../../../../../Middlewares/Third_Party/LoRaWAN/Core/lora-test.c ****   */
  32:../../../../../../Middlewares/Third_Party/LoRaWAN/Core/lora-test.c **** 
ARM GAS  C:\Users\EBANO_~1\AppData\Local\Temp\ccRTGXbP.s 			page 2


  33:../../../../../../Middlewares/Third_Party/LoRaWAN/Core/lora-test.c **** /* Includes ------------------------------------------------------------------*/
  34:../../../../../../Middlewares/Third_Party/LoRaWAN/Core/lora-test.c **** #include "hw.h"
  35:../../../../../../Middlewares/Third_Party/LoRaWAN/Core/lora-test.c **** #include "LoRaMac.h"
  36:../../../../../../Middlewares/Third_Party/LoRaWAN/Core/lora-test.c **** #include "LoRaMacTest.h"
  37:../../../../../../Middlewares/Third_Party/LoRaWAN/Core/lora-test.c **** #include "lora.h"
  38:../../../../../../Middlewares/Third_Party/LoRaWAN/Core/lora-test.c **** #include "lora-test.h"
  39:../../../../../../Middlewares/Third_Party/LoRaWAN/Core/lora-test.c **** #include "timeServer.h"
  40:../../../../../../Middlewares/Third_Party/LoRaWAN/Core/lora-test.c **** 
  41:../../../../../../Middlewares/Third_Party/LoRaWAN/Core/lora-test.c **** /* Private typedef -----------------------------------------------------------*/
  42:../../../../../../Middlewares/Third_Party/LoRaWAN/Core/lora-test.c **** typedef struct ComplianceTest_s
  43:../../../../../../Middlewares/Third_Party/LoRaWAN/Core/lora-test.c **** {
  44:../../../../../../Middlewares/Third_Party/LoRaWAN/Core/lora-test.c ****     bool Running;
  45:../../../../../../Middlewares/Third_Party/LoRaWAN/Core/lora-test.c ****     uint8_t State;
  46:../../../../../../Middlewares/Third_Party/LoRaWAN/Core/lora-test.c ****     LoraConfirm_t IsTxConfirmed;
  47:../../../../../../Middlewares/Third_Party/LoRaWAN/Core/lora-test.c ****     uint8_t DataBufferSize;
  48:../../../../../../Middlewares/Third_Party/LoRaWAN/Core/lora-test.c ****     uint8_t DataBuffer[64];
  49:../../../../../../Middlewares/Third_Party/LoRaWAN/Core/lora-test.c ****     uint16_t DownLinkCounter;
  50:../../../../../../Middlewares/Third_Party/LoRaWAN/Core/lora-test.c ****     bool LinkCheck;
  51:../../../../../../Middlewares/Third_Party/LoRaWAN/Core/lora-test.c ****     uint8_t DemodMargin;
  52:../../../../../../Middlewares/Third_Party/LoRaWAN/Core/lora-test.c ****     uint8_t NbGateways;
  53:../../../../../../Middlewares/Third_Party/LoRaWAN/Core/lora-test.c **** }ComplianceTest_t;
  54:../../../../../../Middlewares/Third_Party/LoRaWAN/Core/lora-test.c **** 
  55:../../../../../../Middlewares/Third_Party/LoRaWAN/Core/lora-test.c **** /* Private define ------------------------------------------------------------*/
  56:../../../../../../Middlewares/Third_Party/LoRaWAN/Core/lora-test.c **** #define TEST_TX_DUTYCYCLE 5000
  57:../../../../../../Middlewares/Third_Party/LoRaWAN/Core/lora-test.c **** /* Private variables ---------------------------------------------------------*/
  58:../../../../../../Middlewares/Third_Party/LoRaWAN/Core/lora-test.c **** 
  59:../../../../../../Middlewares/Third_Party/LoRaWAN/Core/lora-test.c **** /*!
  60:../../../../../../Middlewares/Third_Party/LoRaWAN/Core/lora-test.c ****  * Timer to handle the application data transmission duty cycle
  61:../../../../../../Middlewares/Third_Party/LoRaWAN/Core/lora-test.c ****  */
  62:../../../../../../Middlewares/Third_Party/LoRaWAN/Core/lora-test.c **** static TimerEvent_t CertifTxNextPacketTimer;
  63:../../../../../../Middlewares/Third_Party/LoRaWAN/Core/lora-test.c **** static ComplianceTest_t certifParam;
  64:../../../../../../Middlewares/Third_Party/LoRaWAN/Core/lora-test.c **** static LoraConfirm_t IsTxConfirmed;
  65:../../../../../../Middlewares/Third_Party/LoRaWAN/Core/lora-test.c **** static bool AdrEnableInit;
  66:../../../../../../Middlewares/Third_Party/LoRaWAN/Core/lora-test.c **** 
  67:../../../../../../Middlewares/Third_Party/LoRaWAN/Core/lora-test.c **** /* Private functions ---------------------------------------------------------*/
  68:../../../../../../Middlewares/Third_Party/LoRaWAN/Core/lora-test.c **** 
  69:../../../../../../Middlewares/Third_Party/LoRaWAN/Core/lora-test.c **** static void OnCertifTxNextPacketTimerEvent( void* context );
  70:../../../../../../Middlewares/Third_Party/LoRaWAN/Core/lora-test.c **** static bool certif_tx( void );
  71:../../../../../../Middlewares/Third_Party/LoRaWAN/Core/lora-test.c **** 
  72:../../../../../../Middlewares/Third_Party/LoRaWAN/Core/lora-test.c **** /* Exported functions definition---------------------------------------------------------*/
  73:../../../../../../Middlewares/Third_Party/LoRaWAN/Core/lora-test.c **** bool certif_running(void)
  74:../../../../../../Middlewares/Third_Party/LoRaWAN/Core/lora-test.c **** {
  75:../../../../../../Middlewares/Third_Party/LoRaWAN/Core/lora-test.c ****     return certifParam.Running;
  76:../../../../../../Middlewares/Third_Party/LoRaWAN/Core/lora-test.c **** }
  77:../../../../../../Middlewares/Third_Party/LoRaWAN/Core/lora-test.c **** 
  78:../../../../../../Middlewares/Third_Party/LoRaWAN/Core/lora-test.c **** void certif_DownLinkIncrement( void )
  79:../../../../../../Middlewares/Third_Party/LoRaWAN/Core/lora-test.c **** {
  80:../../../../../../Middlewares/Third_Party/LoRaWAN/Core/lora-test.c ****     certifParam.DownLinkCounter++;
  81:../../../../../../Middlewares/Third_Party/LoRaWAN/Core/lora-test.c **** }
  82:../../../../../../Middlewares/Third_Party/LoRaWAN/Core/lora-test.c **** 
  83:../../../../../../Middlewares/Third_Party/LoRaWAN/Core/lora-test.c **** void certif_linkCheck(MlmeConfirm_t *mlmeConfirm)
  84:../../../../../../Middlewares/Third_Party/LoRaWAN/Core/lora-test.c **** {
  85:../../../../../../Middlewares/Third_Party/LoRaWAN/Core/lora-test.c ****   certifParam.LinkCheck = true;
  86:../../../../../../Middlewares/Third_Party/LoRaWAN/Core/lora-test.c ****   certifParam.DemodMargin = mlmeConfirm->DemodMargin;
  87:../../../../../../Middlewares/Third_Party/LoRaWAN/Core/lora-test.c ****   certifParam.NbGateways = mlmeConfirm->NbGateways;
  88:../../../../../../Middlewares/Third_Party/LoRaWAN/Core/lora-test.c **** }
  89:../../../../../../Middlewares/Third_Party/LoRaWAN/Core/lora-test.c **** 
ARM GAS  C:\Users\EBANO_~1\AppData\Local\Temp\ccRTGXbP.s 			page 3


  90:../../../../../../Middlewares/Third_Party/LoRaWAN/Core/lora-test.c **** static bool certif_tx( void )
  91:../../../../../../Middlewares/Third_Party/LoRaWAN/Core/lora-test.c **** {
  92:../../../../../../Middlewares/Third_Party/LoRaWAN/Core/lora-test.c ****   McpsReq_t mcpsReq;
  93:../../../../../../Middlewares/Third_Party/LoRaWAN/Core/lora-test.c ****   LoRaMacTxInfo_t txInfo;
  94:../../../../../../Middlewares/Third_Party/LoRaWAN/Core/lora-test.c ****   
  95:../../../../../../Middlewares/Third_Party/LoRaWAN/Core/lora-test.c ****   if( certifParam.LinkCheck == true )
  96:../../../../../../Middlewares/Third_Party/LoRaWAN/Core/lora-test.c ****   {
  97:../../../../../../Middlewares/Third_Party/LoRaWAN/Core/lora-test.c ****     certifParam.LinkCheck = false;
  98:../../../../../../Middlewares/Third_Party/LoRaWAN/Core/lora-test.c ****     certifParam.DataBufferSize = 3;
  99:../../../../../../Middlewares/Third_Party/LoRaWAN/Core/lora-test.c ****     certifParam.DataBuffer[0] = 5;
 100:../../../../../../Middlewares/Third_Party/LoRaWAN/Core/lora-test.c ****     certifParam.DataBuffer[1] = certifParam.DemodMargin;
 101:../../../../../../Middlewares/Third_Party/LoRaWAN/Core/lora-test.c ****     certifParam.DataBuffer[2] = certifParam.NbGateways;
 102:../../../../../../Middlewares/Third_Party/LoRaWAN/Core/lora-test.c ****     certifParam.State = 1;
 103:../../../../../../Middlewares/Third_Party/LoRaWAN/Core/lora-test.c ****   }
 104:../../../../../../Middlewares/Third_Party/LoRaWAN/Core/lora-test.c ****   else
 105:../../../../../../Middlewares/Third_Party/LoRaWAN/Core/lora-test.c ****   {
 106:../../../../../../Middlewares/Third_Party/LoRaWAN/Core/lora-test.c ****     switch( certifParam.State )
 107:../../../../../../Middlewares/Third_Party/LoRaWAN/Core/lora-test.c ****     {
 108:../../../../../../Middlewares/Third_Party/LoRaWAN/Core/lora-test.c ****     case 4:
 109:../../../../../../Middlewares/Third_Party/LoRaWAN/Core/lora-test.c ****       certifParam.State = 1;
 110:../../../../../../Middlewares/Third_Party/LoRaWAN/Core/lora-test.c ****       break;
 111:../../../../../../Middlewares/Third_Party/LoRaWAN/Core/lora-test.c ****     case 1:
 112:../../../../../../Middlewares/Third_Party/LoRaWAN/Core/lora-test.c ****       certifParam.DataBufferSize = 2;
 113:../../../../../../Middlewares/Third_Party/LoRaWAN/Core/lora-test.c ****       certifParam.DataBuffer[0] = certifParam.DownLinkCounter >> 8;
 114:../../../../../../Middlewares/Third_Party/LoRaWAN/Core/lora-test.c ****       certifParam.DataBuffer[1] = certifParam.DownLinkCounter;
 115:../../../../../../Middlewares/Third_Party/LoRaWAN/Core/lora-test.c ****       break;
 116:../../../../../../Middlewares/Third_Party/LoRaWAN/Core/lora-test.c ****     }
 117:../../../../../../Middlewares/Third_Party/LoRaWAN/Core/lora-test.c ****   }
 118:../../../../../../Middlewares/Third_Party/LoRaWAN/Core/lora-test.c ****     
 119:../../../../../../Middlewares/Third_Party/LoRaWAN/Core/lora-test.c ****   if( LoRaMacQueryTxPossible( certifParam.DataBufferSize, &txInfo ) != LORAMAC_STATUS_OK )
 120:../../../../../../Middlewares/Third_Party/LoRaWAN/Core/lora-test.c ****   {
 121:../../../../../../Middlewares/Third_Party/LoRaWAN/Core/lora-test.c ****       // Send empty frame in order to flush MAC commands
 122:../../../../../../Middlewares/Third_Party/LoRaWAN/Core/lora-test.c ****       mcpsReq.Type = MCPS_UNCONFIRMED;
 123:../../../../../../Middlewares/Third_Party/LoRaWAN/Core/lora-test.c ****       mcpsReq.Req.Unconfirmed.fBuffer = NULL;
 124:../../../../../../Middlewares/Third_Party/LoRaWAN/Core/lora-test.c ****       mcpsReq.Req.Unconfirmed.fBufferSize = 0;
 125:../../../../../../Middlewares/Third_Party/LoRaWAN/Core/lora-test.c ****       mcpsReq.Req.Unconfirmed.Datarate = DR_0;
 126:../../../../../../Middlewares/Third_Party/LoRaWAN/Core/lora-test.c ****   }
 127:../../../../../../Middlewares/Third_Party/LoRaWAN/Core/lora-test.c ****   else
 128:../../../../../../Middlewares/Third_Party/LoRaWAN/Core/lora-test.c ****   {
 129:../../../../../../Middlewares/Third_Party/LoRaWAN/Core/lora-test.c ****       if( IsTxConfirmed == LORAWAN_UNCONFIRMED_MSG )
 130:../../../../../../Middlewares/Third_Party/LoRaWAN/Core/lora-test.c ****       {
 131:../../../../../../Middlewares/Third_Party/LoRaWAN/Core/lora-test.c ****           mcpsReq.Type = MCPS_UNCONFIRMED;
 132:../../../../../../Middlewares/Third_Party/LoRaWAN/Core/lora-test.c ****           mcpsReq.Req.Unconfirmed.fPort = CERTIF_PORT;
 133:../../../../../../Middlewares/Third_Party/LoRaWAN/Core/lora-test.c ****           mcpsReq.Req.Unconfirmed.fBufferSize = certifParam.DataBufferSize;
 134:../../../../../../Middlewares/Third_Party/LoRaWAN/Core/lora-test.c ****           mcpsReq.Req.Unconfirmed.fBuffer = &(certifParam.DataBuffer);
 135:../../../../../../Middlewares/Third_Party/LoRaWAN/Core/lora-test.c ****           mcpsReq.Req.Unconfirmed.Datarate = DR_0;
 136:../../../../../../Middlewares/Third_Party/LoRaWAN/Core/lora-test.c ****       }
 137:../../../../../../Middlewares/Third_Party/LoRaWAN/Core/lora-test.c ****       else
 138:../../../../../../Middlewares/Third_Party/LoRaWAN/Core/lora-test.c ****       {
 139:../../../../../../Middlewares/Third_Party/LoRaWAN/Core/lora-test.c ****           mcpsReq.Type = MCPS_CONFIRMED;
 140:../../../../../../Middlewares/Third_Party/LoRaWAN/Core/lora-test.c ****           mcpsReq.Req.Confirmed.fPort = CERTIF_PORT;
 141:../../../../../../Middlewares/Third_Party/LoRaWAN/Core/lora-test.c ****           mcpsReq.Req.Confirmed.fBufferSize = certifParam.DataBufferSize;
 142:../../../../../../Middlewares/Third_Party/LoRaWAN/Core/lora-test.c ****           mcpsReq.Req.Confirmed.fBuffer = &(certifParam.DataBuffer);
 143:../../../../../../Middlewares/Third_Party/LoRaWAN/Core/lora-test.c ****           mcpsReq.Req.Confirmed.NbTrials = 8;
 144:../../../../../../Middlewares/Third_Party/LoRaWAN/Core/lora-test.c ****           mcpsReq.Req.Confirmed.Datarate = DR_0;
 145:../../../../../../Middlewares/Third_Party/LoRaWAN/Core/lora-test.c ****       }
 146:../../../../../../Middlewares/Third_Party/LoRaWAN/Core/lora-test.c ****   }
ARM GAS  C:\Users\EBANO_~1\AppData\Local\Temp\ccRTGXbP.s 			page 4


 147:../../../../../../Middlewares/Third_Party/LoRaWAN/Core/lora-test.c **** 
 148:../../../../../../Middlewares/Third_Party/LoRaWAN/Core/lora-test.c ****   /*cerification test on-going*/
 149:../../../../../../Middlewares/Third_Party/LoRaWAN/Core/lora-test.c ****   TimerStart( &CertifTxNextPacketTimer );
 150:../../../../../../Middlewares/Third_Party/LoRaWAN/Core/lora-test.c **** 	
 151:../../../../../../Middlewares/Third_Party/LoRaWAN/Core/lora-test.c ****   if( LoRaMacMcpsRequest( &mcpsReq ) == LORAMAC_STATUS_OK )
 152:../../../../../../Middlewares/Third_Party/LoRaWAN/Core/lora-test.c ****   {
 153:../../../../../../Middlewares/Third_Party/LoRaWAN/Core/lora-test.c ****       return false;
 154:../../../../../../Middlewares/Third_Party/LoRaWAN/Core/lora-test.c ****   }
 155:../../../../../../Middlewares/Third_Party/LoRaWAN/Core/lora-test.c ****     return true;
 156:../../../../../../Middlewares/Third_Party/LoRaWAN/Core/lora-test.c **** }
 157:../../../../../../Middlewares/Third_Party/LoRaWAN/Core/lora-test.c **** 
 158:../../../../../../Middlewares/Third_Party/LoRaWAN/Core/lora-test.c **** void certif_rx( McpsIndication_t *mcpsIndication, MlmeReqJoin_t* JoinParameters)
 159:../../../../../../Middlewares/Third_Party/LoRaWAN/Core/lora-test.c **** {
 160:../../../../../../Middlewares/Third_Party/LoRaWAN/Core/lora-test.c ****   if( certifParam.Running == false )
 161:../../../../../../Middlewares/Third_Party/LoRaWAN/Core/lora-test.c ****   {
 162:../../../../../../Middlewares/Third_Party/LoRaWAN/Core/lora-test.c ****       // Check compliance test enable command (i)
 163:../../../../../../Middlewares/Third_Party/LoRaWAN/Core/lora-test.c ****       if( ( mcpsIndication->BufferSize == 4 ) &&
 164:../../../../../../Middlewares/Third_Party/LoRaWAN/Core/lora-test.c ****           ( mcpsIndication->Buffer[0] == 0x01 ) &&
 165:../../../../../../Middlewares/Third_Party/LoRaWAN/Core/lora-test.c ****           ( mcpsIndication->Buffer[1] == 0x01 ) &&
 166:../../../../../../Middlewares/Third_Party/LoRaWAN/Core/lora-test.c ****           ( mcpsIndication->Buffer[2] == 0x01 ) &&
 167:../../../../../../Middlewares/Third_Party/LoRaWAN/Core/lora-test.c ****           ( mcpsIndication->Buffer[3] == 0x01 ) )
 168:../../../../../../Middlewares/Third_Party/LoRaWAN/Core/lora-test.c ****       {
 169:../../../../../../Middlewares/Third_Party/LoRaWAN/Core/lora-test.c ****           MibRequestConfirm_t mibReq;
 170:../../../../../../Middlewares/Third_Party/LoRaWAN/Core/lora-test.c ****           IsTxConfirmed = LORAWAN_UNCONFIRMED_MSG;
 171:../../../../../../Middlewares/Third_Party/LoRaWAN/Core/lora-test.c ****           certifParam.DataBufferSize = 2;
 172:../../../../../../Middlewares/Third_Party/LoRaWAN/Core/lora-test.c ****           certifParam.DownLinkCounter = 0;
 173:../../../../../../Middlewares/Third_Party/LoRaWAN/Core/lora-test.c ****           certifParam.LinkCheck = false;
 174:../../../../../../Middlewares/Third_Party/LoRaWAN/Core/lora-test.c ****           certifParam.DemodMargin = 0;
 175:../../../../../../Middlewares/Third_Party/LoRaWAN/Core/lora-test.c ****           certifParam.NbGateways = 0;
 176:../../../../../../Middlewares/Third_Party/LoRaWAN/Core/lora-test.c ****           certifParam.Running = true;
 177:../../../../../../Middlewares/Third_Party/LoRaWAN/Core/lora-test.c ****           certifParam.State = 1;
 178:../../../../../../Middlewares/Third_Party/LoRaWAN/Core/lora-test.c **** 
 179:../../../../../../Middlewares/Third_Party/LoRaWAN/Core/lora-test.c ****           mibReq.Type = MIB_ADR;
 180:../../../../../../Middlewares/Third_Party/LoRaWAN/Core/lora-test.c **** 
 181:../../../../../../Middlewares/Third_Party/LoRaWAN/Core/lora-test.c ****           LoRaMacMibGetRequestConfirm( &mibReq );
 182:../../../../../../Middlewares/Third_Party/LoRaWAN/Core/lora-test.c ****           AdrEnableInit=mibReq.Param.AdrEnable;
 183:../../../../../../Middlewares/Third_Party/LoRaWAN/Core/lora-test.c ****           
 184:../../../../../../Middlewares/Third_Party/LoRaWAN/Core/lora-test.c ****           mibReq.Type = MIB_ADR;
 185:../../../../../../Middlewares/Third_Party/LoRaWAN/Core/lora-test.c ****           mibReq.Param.AdrEnable = true;
 186:../../../../../../Middlewares/Third_Party/LoRaWAN/Core/lora-test.c ****           LoRaMacMibSetRequestConfirm( &mibReq );
 187:../../../../../../Middlewares/Third_Party/LoRaWAN/Core/lora-test.c **** 
 188:../../../../../../Middlewares/Third_Party/LoRaWAN/Core/lora-test.c ****   #if defined( REGION_EU868 )
 189:../../../../../../Middlewares/Third_Party/LoRaWAN/Core/lora-test.c ****           LoRaMacTestSetDutyCycleOn( false );
 190:../../../../../../Middlewares/Third_Party/LoRaWAN/Core/lora-test.c ****   #endif
 191:../../../../../../Middlewares/Third_Party/LoRaWAN/Core/lora-test.c **** 
 192:../../../../../../Middlewares/Third_Party/LoRaWAN/Core/lora-test.c ****          
 193:../../../../../../Middlewares/Third_Party/LoRaWAN/Core/lora-test.c ****         TimerInit( &CertifTxNextPacketTimer, OnCertifTxNextPacketTimerEvent );
 194:../../../../../../Middlewares/Third_Party/LoRaWAN/Core/lora-test.c ****         TimerSetValue( &CertifTxNextPacketTimer,  TEST_TX_DUTYCYCLE); 
 195:../../../../../../Middlewares/Third_Party/LoRaWAN/Core/lora-test.c ****         
 196:../../../../../../Middlewares/Third_Party/LoRaWAN/Core/lora-test.c ****         /*confirm test mode activation */
 197:../../../../../../Middlewares/Third_Party/LoRaWAN/Core/lora-test.c ****         certif_tx( );
 198:../../../../../../Middlewares/Third_Party/LoRaWAN/Core/lora-test.c ****       }
 199:../../../../../../Middlewares/Third_Party/LoRaWAN/Core/lora-test.c ****   }
 200:../../../../../../Middlewares/Third_Party/LoRaWAN/Core/lora-test.c **** 
 201:../../../../../../Middlewares/Third_Party/LoRaWAN/Core/lora-test.c ****   else
 202:../../../../../../Middlewares/Third_Party/LoRaWAN/Core/lora-test.c ****   {
 203:../../../../../../Middlewares/Third_Party/LoRaWAN/Core/lora-test.c ****       certifParam.State = mcpsIndication->Buffer[0];
ARM GAS  C:\Users\EBANO_~1\AppData\Local\Temp\ccRTGXbP.s 			page 5


 204:../../../../../../Middlewares/Third_Party/LoRaWAN/Core/lora-test.c ****       switch( certifParam.State )
 205:../../../../../../Middlewares/Third_Party/LoRaWAN/Core/lora-test.c ****       {
 206:../../../../../../Middlewares/Third_Party/LoRaWAN/Core/lora-test.c ****         case 0: // Check compliance test disable command (ii)
 207:../../../../../../Middlewares/Third_Party/LoRaWAN/Core/lora-test.c ****         {
 208:../../../../../../Middlewares/Third_Party/LoRaWAN/Core/lora-test.c ****           
 209:../../../../../../Middlewares/Third_Party/LoRaWAN/Core/lora-test.c ****           certifParam.DownLinkCounter = 0;
 210:../../../../../../Middlewares/Third_Party/LoRaWAN/Core/lora-test.c ****           certifParam.Running = false;
 211:../../../../../../Middlewares/Third_Party/LoRaWAN/Core/lora-test.c ****           
 212:../../../../../../Middlewares/Third_Party/LoRaWAN/Core/lora-test.c ****           MibRequestConfirm_t mibReq;
 213:../../../../../../Middlewares/Third_Party/LoRaWAN/Core/lora-test.c ****           mibReq.Type = MIB_ADR;
 214:../../../../../../Middlewares/Third_Party/LoRaWAN/Core/lora-test.c ****           mibReq.Param.AdrEnable = AdrEnableInit;
 215:../../../../../../Middlewares/Third_Party/LoRaWAN/Core/lora-test.c ****           LoRaMacMibSetRequestConfirm( &mibReq );
 216:../../../../../../Middlewares/Third_Party/LoRaWAN/Core/lora-test.c ****   #if defined( REGION_EU868 )
 217:../../../../../../Middlewares/Third_Party/LoRaWAN/Core/lora-test.c ****           LoRaMacTestSetDutyCycleOn( true );
 218:../../../../../../Middlewares/Third_Party/LoRaWAN/Core/lora-test.c ****   #endif
 219:../../../../../../Middlewares/Third_Party/LoRaWAN/Core/lora-test.c ****           
 220:../../../../../../Middlewares/Third_Party/LoRaWAN/Core/lora-test.c ****           break;
 221:../../../../../../Middlewares/Third_Party/LoRaWAN/Core/lora-test.c ****         }
 222:../../../../../../Middlewares/Third_Party/LoRaWAN/Core/lora-test.c ****         case 1: // (iii, iv)
 223:../../../../../../Middlewares/Third_Party/LoRaWAN/Core/lora-test.c ****           certifParam.DataBufferSize = 2;
 224:../../../../../../Middlewares/Third_Party/LoRaWAN/Core/lora-test.c ****           break;
 225:../../../../../../Middlewares/Third_Party/LoRaWAN/Core/lora-test.c ****         case 2: // Enable confirmed messages (v)
 226:../../../../../../Middlewares/Third_Party/LoRaWAN/Core/lora-test.c ****           IsTxConfirmed = LORAWAN_CONFIRMED_MSG;
 227:../../../../../../Middlewares/Third_Party/LoRaWAN/Core/lora-test.c ****           certifParam.State = 1;
 228:../../../../../../Middlewares/Third_Party/LoRaWAN/Core/lora-test.c ****           break;
 229:../../../../../../Middlewares/Third_Party/LoRaWAN/Core/lora-test.c ****         case 3:  // Disable confirmed messages (vi)
 230:../../../../../../Middlewares/Third_Party/LoRaWAN/Core/lora-test.c ****           IsTxConfirmed = LORAWAN_UNCONFIRMED_MSG;
 231:../../../../../../Middlewares/Third_Party/LoRaWAN/Core/lora-test.c ****           certifParam.State = 1;
 232:../../../../../../Middlewares/Third_Party/LoRaWAN/Core/lora-test.c ****           break;
 233:../../../../../../Middlewares/Third_Party/LoRaWAN/Core/lora-test.c ****         case 4: // (vii)
 234:../../../../../../Middlewares/Third_Party/LoRaWAN/Core/lora-test.c ****           certifParam.DataBufferSize = mcpsIndication->BufferSize;
 235:../../../../../../Middlewares/Third_Party/LoRaWAN/Core/lora-test.c **** 
 236:../../../../../../Middlewares/Third_Party/LoRaWAN/Core/lora-test.c ****           certifParam.DataBuffer[0] = 4;
 237:../../../../../../Middlewares/Third_Party/LoRaWAN/Core/lora-test.c ****           for( uint8_t i = 1; i < certifParam.DataBufferSize; i++ )
 238:../../../../../../Middlewares/Third_Party/LoRaWAN/Core/lora-test.c ****           {
 239:../../../../../../Middlewares/Third_Party/LoRaWAN/Core/lora-test.c ****               certifParam.DataBuffer[i] = mcpsIndication->Buffer[i] + 1;
 240:../../../../../../Middlewares/Third_Party/LoRaWAN/Core/lora-test.c ****           }
 241:../../../../../../Middlewares/Third_Party/LoRaWAN/Core/lora-test.c ****           break;
 242:../../../../../../Middlewares/Third_Party/LoRaWAN/Core/lora-test.c ****         case 5: // (viii)
 243:../../../../../../Middlewares/Third_Party/LoRaWAN/Core/lora-test.c ****         {
 244:../../../../../../Middlewares/Third_Party/LoRaWAN/Core/lora-test.c ****           MlmeReq_t mlmeReq;
 245:../../../../../../Middlewares/Third_Party/LoRaWAN/Core/lora-test.c ****           mlmeReq.Type = MLME_LINK_CHECK;
 246:../../../../../../Middlewares/Third_Party/LoRaWAN/Core/lora-test.c ****           LoRaMacMlmeRequest( &mlmeReq );
 247:../../../../../../Middlewares/Third_Party/LoRaWAN/Core/lora-test.c ****           break;
 248:../../../../../../Middlewares/Third_Party/LoRaWAN/Core/lora-test.c ****         }      
 249:../../../../../../Middlewares/Third_Party/LoRaWAN/Core/lora-test.c ****         case 6: // (ix)
 250:../../../../../../Middlewares/Third_Party/LoRaWAN/Core/lora-test.c ****         {
 251:../../../../../../Middlewares/Third_Party/LoRaWAN/Core/lora-test.c ****             MlmeReq_t mlmeReq;
 252:../../../../../../Middlewares/Third_Party/LoRaWAN/Core/lora-test.c **** 
 253:../../../../../../Middlewares/Third_Party/LoRaWAN/Core/lora-test.c ****             // Disable TestMode and revert back to normal operation
 254:../../../../../../Middlewares/Third_Party/LoRaWAN/Core/lora-test.c **** 
 255:../../../../../../Middlewares/Third_Party/LoRaWAN/Core/lora-test.c ****             certifParam.DownLinkCounter = 0;
 256:../../../../../../Middlewares/Third_Party/LoRaWAN/Core/lora-test.c ****             certifParam.Running = false;
 257:../../../../../../Middlewares/Third_Party/LoRaWAN/Core/lora-test.c **** 
 258:../../../../../../Middlewares/Third_Party/LoRaWAN/Core/lora-test.c ****             MibRequestConfirm_t mibReq;
 259:../../../../../../Middlewares/Third_Party/LoRaWAN/Core/lora-test.c ****             mibReq.Type = MIB_ADR;
 260:../../../../../../Middlewares/Third_Party/LoRaWAN/Core/lora-test.c ****             mibReq.Param.AdrEnable = AdrEnableInit;
ARM GAS  C:\Users\EBANO_~1\AppData\Local\Temp\ccRTGXbP.s 			page 6


 261:../../../../../../Middlewares/Third_Party/LoRaWAN/Core/lora-test.c ****             LoRaMacMibSetRequestConfirm( &mibReq );
 262:../../../../../../Middlewares/Third_Party/LoRaWAN/Core/lora-test.c **** 
 263:../../../../../../Middlewares/Third_Party/LoRaWAN/Core/lora-test.c ****             mlmeReq.Type = MLME_JOIN;
 264:../../../../../../Middlewares/Third_Party/LoRaWAN/Core/lora-test.c ****             mlmeReq.Req.Join = *JoinParameters;
 265:../../../../../../Middlewares/Third_Party/LoRaWAN/Core/lora-test.c **** 
 266:../../../../../../Middlewares/Third_Party/LoRaWAN/Core/lora-test.c ****             LoRaMacMlmeRequest( &mlmeReq );
 267:../../../../../../Middlewares/Third_Party/LoRaWAN/Core/lora-test.c ****             break;
 268:../../../../../../Middlewares/Third_Party/LoRaWAN/Core/lora-test.c ****         }
 269:../../../../../../Middlewares/Third_Party/LoRaWAN/Core/lora-test.c **** 
 270:../../../../../../Middlewares/Third_Party/LoRaWAN/Core/lora-test.c ****         case 7: // (x)
 271:../../../../../../Middlewares/Third_Party/LoRaWAN/Core/lora-test.c ****         {
 272:../../../../../../Middlewares/Third_Party/LoRaWAN/Core/lora-test.c ****           if( mcpsIndication->BufferSize == 3 )
 273:../../../../../../Middlewares/Third_Party/LoRaWAN/Core/lora-test.c ****           {
 274:../../../../../../Middlewares/Third_Party/LoRaWAN/Core/lora-test.c ****               MlmeReq_t mlmeReq;
 275:../../../../../../Middlewares/Third_Party/LoRaWAN/Core/lora-test.c ****               mlmeReq.Type = MLME_TXCW;
 276:../../../../../../Middlewares/Third_Party/LoRaWAN/Core/lora-test.c ****               mlmeReq.Req.TxCw.Timeout = ( uint16_t )( ( mcpsIndication->Buffer[1] << 8 ) | mcpsInd
 277:../../../../../../Middlewares/Third_Party/LoRaWAN/Core/lora-test.c ****               LoRaMacMlmeRequest( &mlmeReq );
 278:../../../../../../Middlewares/Third_Party/LoRaWAN/Core/lora-test.c ****           }
 279:../../../../../../Middlewares/Third_Party/LoRaWAN/Core/lora-test.c ****           else if( mcpsIndication->BufferSize == 7 )
 280:../../../../../../Middlewares/Third_Party/LoRaWAN/Core/lora-test.c ****           {
 281:../../../../../../Middlewares/Third_Party/LoRaWAN/Core/lora-test.c ****               MlmeReq_t mlmeReq;
 282:../../../../../../Middlewares/Third_Party/LoRaWAN/Core/lora-test.c ****               mlmeReq.Type = MLME_TXCW_1;
 283:../../../../../../Middlewares/Third_Party/LoRaWAN/Core/lora-test.c ****               mlmeReq.Req.TxCw.Timeout = ( uint16_t )( ( mcpsIndication->Buffer[1] << 8 ) | mcpsInd
 284:../../../../../../Middlewares/Third_Party/LoRaWAN/Core/lora-test.c ****               mlmeReq.Req.TxCw.Frequency = ( uint32_t )( ( mcpsIndication->Buffer[3] << 16 ) | ( mc
 285:../../../../../../Middlewares/Third_Party/LoRaWAN/Core/lora-test.c ****               mlmeReq.Req.TxCw.Power = mcpsIndication->Buffer[6];
 286:../../../../../../Middlewares/Third_Party/LoRaWAN/Core/lora-test.c ****               LoRaMacMlmeRequest( &mlmeReq );
 287:../../../../../../Middlewares/Third_Party/LoRaWAN/Core/lora-test.c ****           }
 288:../../../../../../Middlewares/Third_Party/LoRaWAN/Core/lora-test.c ****           certifParam.State = 1;
 289:../../../../../../Middlewares/Third_Party/LoRaWAN/Core/lora-test.c ****           break;
 290:../../../../../../Middlewares/Third_Party/LoRaWAN/Core/lora-test.c ****         }
 291:../../../../../../Middlewares/Third_Party/LoRaWAN/Core/lora-test.c **** #ifdef LORAMAC_CLASSB_ENABLED
 292:../../../../../../Middlewares/Third_Party/LoRaWAN/Core/lora-test.c ****         case 8: // Switch end device Class
 293:../../../../../../Middlewares/Third_Party/LoRaWAN/Core/lora-test.c ****         {
 294:../../../../../../Middlewares/Third_Party/LoRaWAN/Core/lora-test.c ****           MibRequestConfirm_t mibReq;
 295:../../../../../../Middlewares/Third_Party/LoRaWAN/Core/lora-test.c **** 
 296:../../../../../../Middlewares/Third_Party/LoRaWAN/Core/lora-test.c ****           mibReq.Type = MIB_DEVICE_CLASS;
 297:../../../../../../Middlewares/Third_Party/LoRaWAN/Core/lora-test.c ****           // CLASS_A = 0, CLASS_B = 1, CLASS_C = 2
 298:../../../../../../Middlewares/Third_Party/LoRaWAN/Core/lora-test.c ****           mibReq.Param.Class = ( DeviceClass_t )mcpsIndication->Buffer[1];
 299:../../../../../../Middlewares/Third_Party/LoRaWAN/Core/lora-test.c ****           LoRaMacMibSetRequestConfirm( &mibReq );
 300:../../../../../../Middlewares/Third_Party/LoRaWAN/Core/lora-test.c ****           break;
 301:../../../../../../Middlewares/Third_Party/LoRaWAN/Core/lora-test.c ****         }
 302:../../../../../../Middlewares/Third_Party/LoRaWAN/Core/lora-test.c ****         case 9: // Send PingSlotInfoReq
 303:../../../../../../Middlewares/Third_Party/LoRaWAN/Core/lora-test.c ****         {
 304:../../../../../../Middlewares/Third_Party/LoRaWAN/Core/lora-test.c ****           MlmeReq_t mlmeReq;
 305:../../../../../../Middlewares/Third_Party/LoRaWAN/Core/lora-test.c **** 
 306:../../../../../../Middlewares/Third_Party/LoRaWAN/Core/lora-test.c ****           mlmeReq.Type = MLME_PING_SLOT_INFO;
 307:../../../../../../Middlewares/Third_Party/LoRaWAN/Core/lora-test.c **** 
 308:../../../../../../Middlewares/Third_Party/LoRaWAN/Core/lora-test.c ****           mlmeReq.Req.PingSlotInfo.PingSlot.Value = mcpsIndication->Buffer[1];
 309:../../../../../../Middlewares/Third_Party/LoRaWAN/Core/lora-test.c **** 
 310:../../../../../../Middlewares/Third_Party/LoRaWAN/Core/lora-test.c ****           LoRaMacMlmeRequest( &mlmeReq );
 311:../../../../../../Middlewares/Third_Party/LoRaWAN/Core/lora-test.c ****           break;
 312:../../../../../../Middlewares/Third_Party/LoRaWAN/Core/lora-test.c ****         }
 313:../../../../../../Middlewares/Third_Party/LoRaWAN/Core/lora-test.c ****         case 11: // Send BeaconTimingReq
 314:../../../../../../Middlewares/Third_Party/LoRaWAN/Core/lora-test.c ****         {
 315:../../../../../../Middlewares/Third_Party/LoRaWAN/Core/lora-test.c ****           MlmeReq_t mlmeReq;
 316:../../../../../../Middlewares/Third_Party/LoRaWAN/Core/lora-test.c ****           
 317:../../../../../../Middlewares/Third_Party/LoRaWAN/Core/lora-test.c ****           mlmeReq.Type = MLME_BEACON_TIMING;
ARM GAS  C:\Users\EBANO_~1\AppData\Local\Temp\ccRTGXbP.s 			page 7


 318:../../../../../../Middlewares/Third_Party/LoRaWAN/Core/lora-test.c ****           
 319:../../../../../../Middlewares/Third_Party/LoRaWAN/Core/lora-test.c ****           LoRaMacMlmeRequest( &mlmeReq );
 320:../../../../../../Middlewares/Third_Party/LoRaWAN/Core/lora-test.c ****           break;
 321:../../../../../../Middlewares/Third_Party/LoRaWAN/Core/lora-test.c ****         }
 322:../../../../../../Middlewares/Third_Party/LoRaWAN/Core/lora-test.c **** #endif /* LORAMAC_CLASSB_ENABLED */
 323:../../../../../../Middlewares/Third_Party/LoRaWAN/Core/lora-test.c ****         default:                  
 324:../../../../../../Middlewares/Third_Party/LoRaWAN/Core/lora-test.c ****           break;
 325:../../../../../../Middlewares/Third_Party/LoRaWAN/Core/lora-test.c ****         }
 326:../../../../../../Middlewares/Third_Party/LoRaWAN/Core/lora-test.c ****     }
 327:../../../../../../Middlewares/Third_Party/LoRaWAN/Core/lora-test.c ****   
 328:../../../../../../Middlewares/Third_Party/LoRaWAN/Core/lora-test.c ****     if ( certifParam.Running == false )
 329:../../../../../../Middlewares/Third_Party/LoRaWAN/Core/lora-test.c ****     {
 330:../../../../../../Middlewares/Third_Party/LoRaWAN/Core/lora-test.c ****       /*cerification test stops*/
 331:../../../../../../Middlewares/Third_Party/LoRaWAN/Core/lora-test.c ****       TimerStop( &CertifTxNextPacketTimer );
 332:../../../../../../Middlewares/Third_Party/LoRaWAN/Core/lora-test.c ****     }
 333:../../../../../../Middlewares/Third_Party/LoRaWAN/Core/lora-test.c **** }
 334:../../../../../../Middlewares/Third_Party/LoRaWAN/Core/lora-test.c **** 
 335:../../../../../../Middlewares/Third_Party/LoRaWAN/Core/lora-test.c **** /*!
 336:../../../../../../Middlewares/Third_Party/LoRaWAN/Core/lora-test.c ****  * \brief Function executed on TxNextPacket Timeout event
 337:../../../../../../Middlewares/Third_Party/LoRaWAN/Core/lora-test.c ****  */
 338:../../../../../../Middlewares/Third_Party/LoRaWAN/Core/lora-test.c **** static void OnCertifTxNextPacketTimerEvent( void* context )
 339:../../../../../../Middlewares/Third_Party/LoRaWAN/Core/lora-test.c **** {
  26              		.loc 1 339 0
  27              		.cfi_startproc
  28              		@ args = 0, pretend = 0, frame = 24
  29              		@ frame_needed = 0, uses_anonymous_args = 0
  30              	.LVL0:
  31              	.LBB4:
  32              	.LBB5:
  95:../../../../../../Middlewares/Third_Party/LoRaWAN/Core/lora-test.c ****   {
  33              		.loc 1 95 0
  34 0000 4623     		movs	r3, #70
  35              	.LBE5:
  36              	.LBE4:
  37              		.loc 1 339 0
  38 0002 30B5     		push	{r4, r5, lr}
  39              	.LCFI0:
  40              		.cfi_def_cfa_offset 12
  41              		.cfi_offset 4, -12
  42              		.cfi_offset 5, -8
  43              		.cfi_offset 14, -4
  44              	.LBB9:
  45              	.LBB6:
  95:../../../../../../Middlewares/Third_Party/LoRaWAN/Core/lora-test.c ****   {
  46              		.loc 1 95 0
  47 0004 2B4C     		ldr	r4, .L13
  48              	.LBE6:
  49              	.LBE9:
  50              		.loc 1 339 0
  51 0006 87B0     		sub	sp, sp, #28
  52              	.LCFI1:
  53              		.cfi_def_cfa_offset 40
  54              	.LBB10:
  55              	.LBB7:
  95:../../../../../../Middlewares/Third_Party/LoRaWAN/Core/lora-test.c ****   {
  56              		.loc 1 95 0
  57 0008 E25C     		ldrb	r2, [r4, r3]
ARM GAS  C:\Users\EBANO_~1\AppData\Local\Temp\ccRTGXbP.s 			page 8


  58 000a 002A     		cmp	r2, #0
  59 000c 22D0     		beq	.L2
  97:../../../../../../Middlewares/Third_Party/LoRaWAN/Core/lora-test.c ****     certifParam.DataBufferSize = 3;
  60              		.loc 1 97 0
  61 000e 0022     		movs	r2, #0
  62 0010 E254     		strb	r2, [r4, r3]
  98:../../../../../../Middlewares/Third_Party/LoRaWAN/Core/lora-test.c ****     certifParam.DataBuffer[0] = 5;
  63              		.loc 1 98 0
  64 0012 433B     		subs	r3, r3, #67
  65 0014 E370     		strb	r3, [r4, #3]
  99:../../../../../../Middlewares/Third_Party/LoRaWAN/Core/lora-test.c ****     certifParam.DataBuffer[1] = certifParam.DemodMargin;
  66              		.loc 1 99 0
  67 0016 0233     		adds	r3, r3, #2
  68 0018 2371     		strb	r3, [r4, #4]
 100:../../../../../../Middlewares/Third_Party/LoRaWAN/Core/lora-test.c ****     certifParam.DataBuffer[2] = certifParam.NbGateways;
  69              		.loc 1 100 0
  70 001a 4233     		adds	r3, r3, #66
  71 001c E35C     		ldrb	r3, [r4, r3]
 102:../../../../../../Middlewares/Third_Party/LoRaWAN/Core/lora-test.c ****   }
  72              		.loc 1 102 0
  73 001e 0320     		movs	r0, #3
  74              	.LVL1:
 100:../../../../../../Middlewares/Third_Party/LoRaWAN/Core/lora-test.c ****     certifParam.DataBuffer[2] = certifParam.NbGateways;
  75              		.loc 1 100 0
  76 0020 6371     		strb	r3, [r4, #5]
 101:../../../../../../Middlewares/Third_Party/LoRaWAN/Core/lora-test.c ****     certifParam.State = 1;
  77              		.loc 1 101 0
  78 0022 4823     		movs	r3, #72
  79 0024 E35C     		ldrb	r3, [r4, r3]
  80 0026 A371     		strb	r3, [r4, #6]
 102:../../../../../../Middlewares/Third_Party/LoRaWAN/Core/lora-test.c ****   }
  81              		.loc 1 102 0
  82 0028 0123     		movs	r3, #1
  83 002a 6370     		strb	r3, [r4, #1]
  84              	.L3:
 119:../../../../../../Middlewares/Third_Party/LoRaWAN/Core/lora-test.c ****   {
  85              		.loc 1 119 0
  86 002c 01A9     		add	r1, sp, #4
  87 002e FFF7FEFF 		bl	LoRaMacQueryTxPossible
  88              	.LVL2:
  89 0032 0028     		cmp	r0, #0
  90 0034 1BD0     		beq	.L7
  91              	.L12:
 122:../../../../../../Middlewares/Third_Party/LoRaWAN/Core/lora-test.c ****       mcpsReq.Req.Unconfirmed.fBuffer = NULL;
  92              		.loc 1 122 0
  93 0036 0023     		movs	r3, #0
  94 0038 02AD     		add	r5, sp, #8
  95 003a 2B70     		strb	r3, [r5]
 123:../../../../../../Middlewares/Third_Party/LoRaWAN/Core/lora-test.c ****       mcpsReq.Req.Unconfirmed.fBufferSize = 0;
  96              		.loc 1 123 0
  97 003c AB60     		str	r3, [r5, #8]
 124:../../../../../../Middlewares/Third_Party/LoRaWAN/Core/lora-test.c ****       mcpsReq.Req.Unconfirmed.Datarate = DR_0;
  98              		.loc 1 124 0
  99 003e AB81     		strh	r3, [r5, #12]
 125:../../../../../../Middlewares/Third_Party/LoRaWAN/Core/lora-test.c ****   }
 100              		.loc 1 125 0
 101 0040 AB73     		strb	r3, [r5, #14]
ARM GAS  C:\Users\EBANO_~1\AppData\Local\Temp\ccRTGXbP.s 			page 9


 102              	.L8:
 149:../../../../../../Middlewares/Third_Party/LoRaWAN/Core/lora-test.c **** 	
 103              		.loc 1 149 0
 104 0042 2000     		movs	r0, r4
 105 0044 4C30     		adds	r0, r0, #76
 106 0046 FFF7FEFF 		bl	TimerStart
 107              	.LVL3:
 151:../../../../../../Middlewares/Third_Party/LoRaWAN/Core/lora-test.c ****   {
 108              		.loc 1 151 0
 109 004a 2800     		movs	r0, r5
 110 004c FFF7FEFF 		bl	LoRaMacMcpsRequest
 111              	.LVL4:
 112              	.LBE7:
 113              	.LBE10:
 340:../../../../../../Middlewares/Third_Party/LoRaWAN/Core/lora-test.c ****     certif_tx( );
 341:../../../../../../Middlewares/Third_Party/LoRaWAN/Core/lora-test.c **** 
 342:../../../../../../Middlewares/Third_Party/LoRaWAN/Core/lora-test.c **** }
 114              		.loc 1 342 0
 115 0050 07B0     		add	sp, sp, #28
 116              		@ sp needed
 117 0052 30BD     		pop	{r4, r5, pc}
 118              	.LVL5:
 119              	.L2:
 120              	.LBB11:
 121              	.LBB8:
 106:../../../../../../Middlewares/Third_Party/LoRaWAN/Core/lora-test.c ****     {
 122              		.loc 1 106 0
 123 0054 6378     		ldrb	r3, [r4, #1]
 124 0056 012B     		cmp	r3, #1
 125 0058 22D0     		beq	.L5
 126 005a 042B     		cmp	r3, #4
 127 005c 01D1     		bne	.L10
 109:../../../../../../Middlewares/Third_Party/LoRaWAN/Core/lora-test.c ****       break;
 128              		.loc 1 109 0
 129 005e 0123     		movs	r3, #1
 130 0060 6370     		strb	r3, [r4, #1]
 131              	.L10:
 132 0062 E078     		ldrb	r0, [r4, #3]
 133              	.LVL6:
 119:../../../../../../Middlewares/Third_Party/LoRaWAN/Core/lora-test.c ****   {
 134              		.loc 1 119 0
 135 0064 01A9     		add	r1, sp, #4
 136 0066 FFF7FEFF 		bl	LoRaMacQueryTxPossible
 137              	.LVL7:
 138 006a 0028     		cmp	r0, #0
 139 006c E3D1     		bne	.L12
 140              	.L7:
 129:../../../../../../Middlewares/Third_Party/LoRaWAN/Core/lora-test.c ****       {
 141              		.loc 1 129 0
 142 006e 4A23     		movs	r3, #74
 143 0070 E35C     		ldrb	r3, [r4, r3]
 144 0072 E278     		ldrb	r2, [r4, #3]
 131:../../../../../../Middlewares/Third_Party/LoRaWAN/Core/lora-test.c ****           mcpsReq.Req.Unconfirmed.fPort = CERTIF_PORT;
 145              		.loc 1 131 0
 146 0074 02AD     		add	r5, sp, #8
 129:../../../../../../Middlewares/Third_Party/LoRaWAN/Core/lora-test.c ****       {
 147              		.loc 1 129 0
ARM GAS  C:\Users\EBANO_~1\AppData\Local\Temp\ccRTGXbP.s 			page 10


 148 0076 002B     		cmp	r3, #0
 149 0078 07D1     		bne	.L9
 132:../../../../../../Middlewares/Third_Party/LoRaWAN/Core/lora-test.c ****           mcpsReq.Req.Unconfirmed.fBufferSize = certifParam.DataBufferSize;
 150              		.loc 1 132 0
 151 007a E021     		movs	r1, #224
 133:../../../../../../Middlewares/Third_Party/LoRaWAN/Core/lora-test.c ****           mcpsReq.Req.Unconfirmed.fBuffer = &(certifParam.DataBuffer);
 152              		.loc 1 133 0
 153 007c AA81     		strh	r2, [r5, #12]
 134:../../../../../../Middlewares/Third_Party/LoRaWAN/Core/lora-test.c ****           mcpsReq.Req.Unconfirmed.Datarate = DR_0;
 154              		.loc 1 134 0
 155 007e 221D     		adds	r2, r4, #4
 131:../../../../../../Middlewares/Third_Party/LoRaWAN/Core/lora-test.c ****           mcpsReq.Req.Unconfirmed.fPort = CERTIF_PORT;
 156              		.loc 1 131 0
 157 0080 2B70     		strb	r3, [r5]
 132:../../../../../../Middlewares/Third_Party/LoRaWAN/Core/lora-test.c ****           mcpsReq.Req.Unconfirmed.fBufferSize = certifParam.DataBufferSize;
 158              		.loc 1 132 0
 159 0082 2971     		strb	r1, [r5, #4]
 134:../../../../../../Middlewares/Third_Party/LoRaWAN/Core/lora-test.c ****           mcpsReq.Req.Unconfirmed.Datarate = DR_0;
 160              		.loc 1 134 0
 161 0084 AA60     		str	r2, [r5, #8]
 135:../../../../../../Middlewares/Third_Party/LoRaWAN/Core/lora-test.c ****       }
 162              		.loc 1 135 0
 163 0086 AB73     		strb	r3, [r5, #14]
 164 0088 DBE7     		b	.L8
 165              	.L9:
 139:../../../../../../Middlewares/Third_Party/LoRaWAN/Core/lora-test.c ****           mcpsReq.Req.Confirmed.fPort = CERTIF_PORT;
 166              		.loc 1 139 0
 167 008a 0123     		movs	r3, #1
 168 008c 2B70     		strb	r3, [r5]
 140:../../../../../../Middlewares/Third_Party/LoRaWAN/Core/lora-test.c ****           mcpsReq.Req.Confirmed.fBufferSize = certifParam.DataBufferSize;
 169              		.loc 1 140 0
 170 008e DF33     		adds	r3, r3, #223
 171 0090 2B71     		strb	r3, [r5, #4]
 142:../../../../../../Middlewares/Third_Party/LoRaWAN/Core/lora-test.c ****           mcpsReq.Req.Confirmed.NbTrials = 8;
 172              		.loc 1 142 0
 173 0092 231D     		adds	r3, r4, #4
 174 0094 0493     		str	r3, [sp, #16]
 144:../../../../../../Middlewares/Third_Party/LoRaWAN/Core/lora-test.c ****       }
 175              		.loc 1 144 0
 176 0096 8023     		movs	r3, #128
 177 0098 1B01     		lsls	r3, r3, #4
 141:../../../../../../Middlewares/Third_Party/LoRaWAN/Core/lora-test.c ****           mcpsReq.Req.Confirmed.fBuffer = &(certifParam.DataBuffer);
 178              		.loc 1 141 0
 179 009a AA81     		strh	r2, [r5, #12]
 144:../../../../../../Middlewares/Third_Party/LoRaWAN/Core/lora-test.c ****       }
 180              		.loc 1 144 0
 181 009c EB81     		strh	r3, [r5, #14]
 182 009e D0E7     		b	.L8
 183              	.LVL8:
 184              	.L5:
 112:../../../../../../Middlewares/Third_Party/LoRaWAN/Core/lora-test.c ****       certifParam.DataBuffer[0] = certifParam.DownLinkCounter >> 8;
 185              		.loc 1 112 0
 186 00a0 0223     		movs	r3, #2
 187 00a2 E370     		strb	r3, [r4, #3]
 113:../../../../../../Middlewares/Third_Party/LoRaWAN/Core/lora-test.c ****       certifParam.DataBuffer[1] = certifParam.DownLinkCounter;
 188              		.loc 1 113 0
 189 00a4 4233     		adds	r3, r3, #66
ARM GAS  C:\Users\EBANO_~1\AppData\Local\Temp\ccRTGXbP.s 			page 11


 190 00a6 E35A     		ldrh	r3, [r4, r3]
 114:../../../../../../Middlewares/Third_Party/LoRaWAN/Core/lora-test.c ****       break;
 191              		.loc 1 114 0
 192 00a8 0220     		movs	r0, #2
 193              	.LVL9:
 113:../../../../../../Middlewares/Third_Party/LoRaWAN/Core/lora-test.c ****       certifParam.DataBuffer[1] = certifParam.DownLinkCounter;
 194              		.loc 1 113 0
 195 00aa 1A0A     		lsrs	r2, r3, #8
 196 00ac 2271     		strb	r2, [r4, #4]
 114:../../../../../../Middlewares/Third_Party/LoRaWAN/Core/lora-test.c ****       break;
 197              		.loc 1 114 0
 198 00ae 6371     		strb	r3, [r4, #5]
 199 00b0 BCE7     		b	.L3
 200              	.L14:
 201 00b2 C046     		.align	2
 202              	.L13:
 203 00b4 00000000 		.word	.LANCHOR0
 204              	.LBE8:
 205              	.LBE11:
 206              		.cfi_endproc
 207              	.LFE44:
 208              		.size	OnCertifTxNextPacketTimerEvent, .-OnCertifTxNextPacketTimerEvent
 209              		.section	.text.certif_running,"ax",%progbits
 210              		.align	1
 211              		.p2align 2,,3
 212              		.global	certif_running
 213              		.syntax unified
 214              		.code	16
 215              		.thumb_func
 216              		.fpu softvfp
 217              		.type	certif_running, %function
 218              	certif_running:
 219              	.LFB39:
  74:../../../../../../Middlewares/Third_Party/LoRaWAN/Core/lora-test.c ****     return certifParam.Running;
 220              		.loc 1 74 0
 221              		.cfi_startproc
 222              		@ args = 0, pretend = 0, frame = 0
 223              		@ frame_needed = 0, uses_anonymous_args = 0
 224              		@ link register save eliminated.
  75:../../../../../../Middlewares/Third_Party/LoRaWAN/Core/lora-test.c **** }
 225              		.loc 1 75 0
 226 0000 014B     		ldr	r3, .L16
  76:../../../../../../Middlewares/Third_Party/LoRaWAN/Core/lora-test.c **** 
 227              		.loc 1 76 0
 228              		@ sp needed
  75:../../../../../../Middlewares/Third_Party/LoRaWAN/Core/lora-test.c **** }
 229              		.loc 1 75 0
 230 0002 1878     		ldrb	r0, [r3]
  76:../../../../../../Middlewares/Third_Party/LoRaWAN/Core/lora-test.c **** 
 231              		.loc 1 76 0
 232 0004 7047     		bx	lr
 233              	.L17:
 234 0006 C046     		.align	2
 235              	.L16:
 236 0008 00000000 		.word	.LANCHOR0
 237              		.cfi_endproc
 238              	.LFE39:
ARM GAS  C:\Users\EBANO_~1\AppData\Local\Temp\ccRTGXbP.s 			page 12


 239              		.size	certif_running, .-certif_running
 240              		.section	.text.certif_DownLinkIncrement,"ax",%progbits
 241              		.align	1
 242              		.p2align 2,,3
 243              		.global	certif_DownLinkIncrement
 244              		.syntax unified
 245              		.code	16
 246              		.thumb_func
 247              		.fpu softvfp
 248              		.type	certif_DownLinkIncrement, %function
 249              	certif_DownLinkIncrement:
 250              	.LFB40:
  79:../../../../../../Middlewares/Third_Party/LoRaWAN/Core/lora-test.c ****     certifParam.DownLinkCounter++;
 251              		.loc 1 79 0
 252              		.cfi_startproc
 253              		@ args = 0, pretend = 0, frame = 0
 254              		@ frame_needed = 0, uses_anonymous_args = 0
 255              		@ link register save eliminated.
  80:../../../../../../Middlewares/Third_Party/LoRaWAN/Core/lora-test.c **** }
 256              		.loc 1 80 0
 257 0000 4422     		movs	r2, #68
 258 0002 0249     		ldr	r1, .L19
  81:../../../../../../Middlewares/Third_Party/LoRaWAN/Core/lora-test.c **** 
 259              		.loc 1 81 0
 260              		@ sp needed
  80:../../../../../../Middlewares/Third_Party/LoRaWAN/Core/lora-test.c **** }
 261              		.loc 1 80 0
 262 0004 8B5A     		ldrh	r3, [r1, r2]
 263 0006 0133     		adds	r3, r3, #1
 264 0008 8B52     		strh	r3, [r1, r2]
  81:../../../../../../Middlewares/Third_Party/LoRaWAN/Core/lora-test.c **** 
 265              		.loc 1 81 0
 266 000a 7047     		bx	lr
 267              	.L20:
 268              		.align	2
 269              	.L19:
 270 000c 00000000 		.word	.LANCHOR0
 271              		.cfi_endproc
 272              	.LFE40:
 273              		.size	certif_DownLinkIncrement, .-certif_DownLinkIncrement
 274              		.section	.text.certif_linkCheck,"ax",%progbits
 275              		.align	1
 276              		.p2align 2,,3
 277              		.global	certif_linkCheck
 278              		.syntax unified
 279              		.code	16
 280              		.thumb_func
 281              		.fpu softvfp
 282              		.type	certif_linkCheck, %function
 283              	certif_linkCheck:
 284              	.LFB41:
  84:../../../../../../Middlewares/Third_Party/LoRaWAN/Core/lora-test.c ****   certifParam.LinkCheck = true;
 285              		.loc 1 84 0
 286              		.cfi_startproc
 287              		@ args = 0, pretend = 0, frame = 0
 288              		@ frame_needed = 0, uses_anonymous_args = 0
 289              		@ link register save eliminated.
ARM GAS  C:\Users\EBANO_~1\AppData\Local\Temp\ccRTGXbP.s 			page 13


 290              	.LVL10:
  85:../../../../../../Middlewares/Third_Party/LoRaWAN/Core/lora-test.c ****   certifParam.DemodMargin = mlmeConfirm->DemodMargin;
 291              		.loc 1 85 0
 292 0000 4622     		movs	r2, #70
 293 0002 0121     		movs	r1, #1
 294 0004 044B     		ldr	r3, .L22
  88:../../../../../../Middlewares/Third_Party/LoRaWAN/Core/lora-test.c **** 
 295              		.loc 1 88 0
 296              		@ sp needed
  85:../../../../../../Middlewares/Third_Party/LoRaWAN/Core/lora-test.c ****   certifParam.DemodMargin = mlmeConfirm->DemodMargin;
 297              		.loc 1 85 0
 298 0006 9954     		strb	r1, [r3, r2]
  86:../../../../../../Middlewares/Third_Party/LoRaWAN/Core/lora-test.c ****   certifParam.NbGateways = mlmeConfirm->NbGateways;
 299              		.loc 1 86 0
 300 0008 017A     		ldrb	r1, [r0, #8]
 301 000a 0132     		adds	r2, r2, #1
 302 000c 9954     		strb	r1, [r3, r2]
  87:../../../../../../Middlewares/Third_Party/LoRaWAN/Core/lora-test.c **** }
 303              		.loc 1 87 0
 304 000e 417A     		ldrb	r1, [r0, #9]
 305 0010 0132     		adds	r2, r2, #1
 306 0012 9954     		strb	r1, [r3, r2]
  88:../../../../../../Middlewares/Third_Party/LoRaWAN/Core/lora-test.c **** 
 307              		.loc 1 88 0
 308 0014 7047     		bx	lr
 309              	.L23:
 310 0016 C046     		.align	2
 311              	.L22:
 312 0018 00000000 		.word	.LANCHOR0
 313              		.cfi_endproc
 314              	.LFE41:
 315              		.size	certif_linkCheck, .-certif_linkCheck
 316              		.section	.text.certif_rx,"ax",%progbits
 317              		.align	1
 318              		.p2align 2,,3
 319              		.global	certif_rx
 320              		.syntax unified
 321              		.code	16
 322              		.thumb_func
 323              		.fpu softvfp
 324              		.type	certif_rx, %function
 325              	certif_rx:
 326              	.LFB43:
 159:../../../../../../Middlewares/Third_Party/LoRaWAN/Core/lora-test.c ****   if( certifParam.Running == false )
 327              		.loc 1 159 0
 328              		.cfi_startproc
 329              		@ args = 0, pretend = 0, frame = 56
 330              		@ frame_needed = 0, uses_anonymous_args = 0
 331              	.LVL11:
 332 0000 F0B5     		push	{r4, r5, r6, r7, lr}
 333              	.LCFI2:
 334              		.cfi_def_cfa_offset 20
 335              		.cfi_offset 4, -20
 336              		.cfi_offset 5, -16
 337              		.cfi_offset 6, -12
 338              		.cfi_offset 7, -8
 339              		.cfi_offset 14, -4
ARM GAS  C:\Users\EBANO_~1\AppData\Local\Temp\ccRTGXbP.s 			page 14


 340 0002 4546     		mov	r5, r8
 341 0004 DE46     		mov	lr, fp
 342 0006 5746     		mov	r7, r10
 343 0008 4E46     		mov	r6, r9
 344 000a E0B5     		push	{r5, r6, r7, lr}
 345              	.LCFI3:
 346              		.cfi_def_cfa_offset 36
 347              		.cfi_offset 8, -36
 348              		.cfi_offset 9, -32
 349              		.cfi_offset 10, -28
 350              		.cfi_offset 11, -24
 160:../../../../../../Middlewares/Third_Party/LoRaWAN/Core/lora-test.c ****   {
 351              		.loc 1 160 0
 352 000c 504C     		ldr	r4, .L82
 159:../../../../../../Middlewares/Third_Party/LoRaWAN/Core/lora-test.c ****   if( certifParam.Running == false )
 353              		.loc 1 159 0
 354 000e 8FB0     		sub	sp, sp, #60
 355              	.LCFI4:
 356              		.cfi_def_cfa_offset 96
 160:../../../../../../Middlewares/Third_Party/LoRaWAN/Core/lora-test.c ****   {
 357              		.loc 1 160 0
 358 0010 2378     		ldrb	r3, [r4]
 159:../../../../../../Middlewares/Third_Party/LoRaWAN/Core/lora-test.c ****   if( certifParam.Running == false )
 359              		.loc 1 159 0
 360 0012 0D00     		movs	r5, r1
 160:../../../../../../Middlewares/Third_Party/LoRaWAN/Core/lora-test.c ****   {
 361              		.loc 1 160 0
 362 0014 002B     		cmp	r3, #0
 363 0016 0DD1     		bne	.L25
 163:../../../../../../Middlewares/Third_Party/LoRaWAN/Core/lora-test.c ****           ( mcpsIndication->Buffer[0] == 0x01 ) &&
 364              		.loc 1 163 0
 365 0018 027B     		ldrb	r2, [r0, #12]
 366 001a 042A     		cmp	r2, #4
 367 001c 13D0     		beq	.L26
 368              	.LVL12:
 369              	.L28:
 331:../../../../../../Middlewares/Third_Party/LoRaWAN/Core/lora-test.c ****     }
 370              		.loc 1 331 0
 371 001e 2000     		movs	r0, r4
 372 0020 4C30     		adds	r0, r0, #76
 373 0022 FFF7FEFF 		bl	TimerStop
 374              	.LVL13:
 375              	.L24:
 333:../../../../../../Middlewares/Third_Party/LoRaWAN/Core/lora-test.c **** 
 376              		.loc 1 333 0
 377 0026 0FB0     		add	sp, sp, #60
 378              		@ sp needed
 379 0028 3CBC     		pop	{r2, r3, r4, r5}
 380 002a 9046     		mov	r8, r2
 381 002c 9946     		mov	r9, r3
 382 002e A246     		mov	r10, r4
 383 0030 AB46     		mov	fp, r5
 384 0032 F0BD     		pop	{r4, r5, r6, r7, pc}
 385              	.LVL14:
 386              	.L25:
 203:../../../../../../Middlewares/Third_Party/LoRaWAN/Core/lora-test.c ****       switch( certifParam.State )
 387              		.loc 1 203 0
ARM GAS  C:\Users\EBANO_~1\AppData\Local\Temp\ccRTGXbP.s 			page 15


 388 0034 8368     		ldr	r3, [r0, #8]
 389 0036 1A78     		ldrb	r2, [r3]
 390 0038 6270     		strb	r2, [r4, #1]
 204:../../../../../../Middlewares/Third_Party/LoRaWAN/Core/lora-test.c ****       {
 391              		.loc 1 204 0
 392 003a 072A     		cmp	r2, #7
 393 003c F3D8     		bhi	.L24
 394 003e 4549     		ldr	r1, .L82+4
 395              	.LVL15:
 396 0040 9200     		lsls	r2, r2, #2
 397 0042 8A58     		ldr	r2, [r1, r2]
 398 0044 9746     		mov	pc, r2
 399              		.section	.rodata
 400              		.align	2
 401              	.L39:
 402 0000 76040000 		.word	.L38
 403 0004 70040000 		.word	.L40
 404 0008 66040000 		.word	.L41
 405 000c 5A040000 		.word	.L42
 406 0010 60010000 		.word	.L43
 407 0014 40010000 		.word	.L44
 408 0018 0E010000 		.word	.L45
 409 001c 9A040000 		.word	.L46
 410              		.section	.text.certif_rx
 411              	.LVL16:
 412              	.L26:
 164:../../../../../../Middlewares/Third_Party/LoRaWAN/Core/lora-test.c ****           ( mcpsIndication->Buffer[1] == 0x01 ) &&
 413              		.loc 1 164 0 discriminator 1
 414 0046 8268     		ldr	r2, [r0, #8]
 163:../../../../../../Middlewares/Third_Party/LoRaWAN/Core/lora-test.c ****           ( mcpsIndication->Buffer[0] == 0x01 ) &&
 415              		.loc 1 163 0 discriminator 1
 416 0048 1178     		ldrb	r1, [r2]
 417              	.LVL17:
 418 004a 0129     		cmp	r1, #1
 419 004c E7D1     		bne	.L28
 164:../../../../../../Middlewares/Third_Party/LoRaWAN/Core/lora-test.c ****           ( mcpsIndication->Buffer[1] == 0x01 ) &&
 420              		.loc 1 164 0
 421 004e 5178     		ldrb	r1, [r2, #1]
 422 0050 0129     		cmp	r1, #1
 423 0052 E4D1     		bne	.L28
 165:../../../../../../Middlewares/Third_Party/LoRaWAN/Core/lora-test.c ****           ( mcpsIndication->Buffer[2] == 0x01 ) &&
 424              		.loc 1 165 0
 425 0054 9178     		ldrb	r1, [r2, #2]
 426 0056 0129     		cmp	r1, #1
 427 0058 E1D1     		bne	.L28
 166:../../../../../../Middlewares/Third_Party/LoRaWAN/Core/lora-test.c ****           ( mcpsIndication->Buffer[3] == 0x01 ) )
 428              		.loc 1 166 0
 429 005a D578     		ldrb	r5, [r2, #3]
 430              	.LVL18:
 431 005c 012D     		cmp	r5, #1
 432 005e DED1     		bne	.L28
 433              	.LBB21:
 170:../../../../../../Middlewares/Third_Party/LoRaWAN/Core/lora-test.c ****           certifParam.DataBufferSize = 2;
 434              		.loc 1 170 0
 435 0060 4A22     		movs	r2, #74
 436 0062 A354     		strb	r3, [r4, r2]
 172:../../../../../../Middlewares/Third_Party/LoRaWAN/Core/lora-test.c ****           certifParam.LinkCheck = false;
ARM GAS  C:\Users\EBANO_~1\AppData\Local\Temp\ccRTGXbP.s 			page 16


 437              		.loc 1 172 0
 438 0064 0022     		movs	r2, #0
 439 0066 9046     		mov	r8, r2
 440 0068 4422     		movs	r2, #68
 441 006a A352     		strh	r3, [r4, r2]
 173:../../../../../../Middlewares/Third_Party/LoRaWAN/Core/lora-test.c ****           certifParam.DemodMargin = 0;
 442              		.loc 1 173 0
 443 006c 4246     		mov	r2, r8
 444 006e 4623     		movs	r3, #70
 171:../../../../../../Middlewares/Third_Party/LoRaWAN/Core/lora-test.c ****           certifParam.DownLinkCounter = 0;
 445              		.loc 1 171 0
 446 0070 0227     		movs	r7, #2
 179:../../../../../../Middlewares/Third_Party/LoRaWAN/Core/lora-test.c **** 
 447              		.loc 1 179 0
 448 0072 08AE     		add	r6, sp, #32
 173:../../../../../../Middlewares/Third_Party/LoRaWAN/Core/lora-test.c ****           certifParam.DemodMargin = 0;
 449              		.loc 1 173 0
 450 0074 E254     		strb	r2, [r4, r3]
 451 0076 9946     		mov	r9, r3
 174:../../../../../../Middlewares/Third_Party/LoRaWAN/Core/lora-test.c ****           certifParam.NbGateways = 0;
 452              		.loc 1 174 0
 453 0078 0133     		adds	r3, r3, #1
 454 007a E254     		strb	r2, [r4, r3]
 181:../../../../../../Middlewares/Third_Party/LoRaWAN/Core/lora-test.c ****           AdrEnableInit=mibReq.Param.AdrEnable;
 455              		.loc 1 181 0
 456 007c 3000     		movs	r0, r6
 457              	.LVL19:
 174:../../../../../../Middlewares/Third_Party/LoRaWAN/Core/lora-test.c ****           certifParam.NbGateways = 0;
 458              		.loc 1 174 0
 459 007e 9B46     		mov	fp, r3
 175:../../../../../../Middlewares/Third_Party/LoRaWAN/Core/lora-test.c ****           certifParam.Running = true;
 460              		.loc 1 175 0
 461 0080 0133     		adds	r3, r3, #1
 462 0082 E254     		strb	r2, [r4, r3]
 463 0084 9A46     		mov	r10, r3
 179:../../../../../../Middlewares/Third_Party/LoRaWAN/Core/lora-test.c **** 
 464              		.loc 1 179 0
 465 0086 3770     		strb	r7, [r6]
 171:../../../../../../Middlewares/Third_Party/LoRaWAN/Core/lora-test.c ****           certifParam.DownLinkCounter = 0;
 466              		.loc 1 171 0
 467 0088 E770     		strb	r7, [r4, #3]
 176:../../../../../../Middlewares/Third_Party/LoRaWAN/Core/lora-test.c ****           certifParam.State = 1;
 468              		.loc 1 176 0
 469 008a 2570     		strb	r5, [r4]
 177:../../../../../../Middlewares/Third_Party/LoRaWAN/Core/lora-test.c **** 
 470              		.loc 1 177 0
 471 008c 6570     		strb	r5, [r4, #1]
 181:../../../../../../Middlewares/Third_Party/LoRaWAN/Core/lora-test.c ****           AdrEnableInit=mibReq.Param.AdrEnable;
 472              		.loc 1 181 0
 473 008e FFF7FEFF 		bl	LoRaMacMibGetRequestConfirm
 474              	.LVL20:
 182:../../../../../../Middlewares/Third_Party/LoRaWAN/Core/lora-test.c ****           
 475              		.loc 1 182 0
 476 0092 3279     		ldrb	r2, [r6, #4]
 477 0094 6423     		movs	r3, #100
 184:../../../../../../Middlewares/Third_Party/LoRaWAN/Core/lora-test.c ****           mibReq.Param.AdrEnable = true;
 478              		.loc 1 184 0
ARM GAS  C:\Users\EBANO_~1\AppData\Local\Temp\ccRTGXbP.s 			page 17


 479 0096 3770     		strb	r7, [r6]
 185:../../../../../../Middlewares/Third_Party/LoRaWAN/Core/lora-test.c ****           LoRaMacMibSetRequestConfirm( &mibReq );
 480              		.loc 1 185 0
 481 0098 3571     		strb	r5, [r6, #4]
 186:../../../../../../Middlewares/Third_Party/LoRaWAN/Core/lora-test.c **** 
 482              		.loc 1 186 0
 483 009a 3000     		movs	r0, r6
 193:../../../../../../Middlewares/Third_Party/LoRaWAN/Core/lora-test.c ****         TimerSetValue( &CertifTxNextPacketTimer,  TEST_TX_DUTYCYCLE); 
 484              		.loc 1 193 0
 485 009c 2600     		movs	r6, r4
 182:../../../../../../Middlewares/Third_Party/LoRaWAN/Core/lora-test.c ****           
 486              		.loc 1 182 0
 487 009e E254     		strb	r2, [r4, r3]
 193:../../../../../../Middlewares/Third_Party/LoRaWAN/Core/lora-test.c ****         TimerSetValue( &CertifTxNextPacketTimer,  TEST_TX_DUTYCYCLE); 
 488              		.loc 1 193 0
 489 00a0 4C36     		adds	r6, r6, #76
 186:../../../../../../Middlewares/Third_Party/LoRaWAN/Core/lora-test.c **** 
 490              		.loc 1 186 0
 491 00a2 FFF7FEFF 		bl	LoRaMacMibSetRequestConfirm
 492              	.LVL21:
 189:../../../../../../Middlewares/Third_Party/LoRaWAN/Core/lora-test.c ****   #endif
 493              		.loc 1 189 0
 494 00a6 0020     		movs	r0, #0
 495 00a8 FFF7FEFF 		bl	LoRaMacTestSetDutyCycleOn
 496              	.LVL22:
 193:../../../../../../Middlewares/Third_Party/LoRaWAN/Core/lora-test.c ****         TimerSetValue( &CertifTxNextPacketTimer,  TEST_TX_DUTYCYCLE); 
 497              		.loc 1 193 0
 498 00ac 2A49     		ldr	r1, .L82+8
 499 00ae 3000     		movs	r0, r6
 500 00b0 FFF7FEFF 		bl	TimerInit
 501              	.LVL23:
 194:../../../../../../Middlewares/Third_Party/LoRaWAN/Core/lora-test.c ****         
 502              		.loc 1 194 0
 503 00b4 2949     		ldr	r1, .L82+12
 504 00b6 3000     		movs	r0, r6
 505 00b8 FFF7FEFF 		bl	TimerSetValue
 506              	.LVL24:
 507              	.LBB22:
 508              	.LBB23:
  95:../../../../../../Middlewares/Third_Party/LoRaWAN/Core/lora-test.c ****   {
 509              		.loc 1 95 0
 510 00bc 4B46     		mov	r3, r9
 511 00be E35C     		ldrb	r3, [r4, r3]
 512 00c0 002B     		cmp	r3, #0
 513 00c2 00D1     		bne	.LCB373
 514 00c4 2FE2     		b	.L29	@long jump
 515              	.LCB373:
  97:../../../../../../Middlewares/Third_Party/LoRaWAN/Core/lora-test.c ****     certifParam.DataBufferSize = 3;
 516              		.loc 1 97 0
 517 00c6 4B46     		mov	r3, r9
 518 00c8 4246     		mov	r2, r8
 519 00ca E254     		strb	r2, [r4, r3]
  98:../../../../../../Middlewares/Third_Party/LoRaWAN/Core/lora-test.c ****     certifParam.DataBuffer[0] = 5;
 520              		.loc 1 98 0
 521 00cc 433B     		subs	r3, r3, #67
 522 00ce E370     		strb	r3, [r4, #3]
  99:../../../../../../Middlewares/Third_Party/LoRaWAN/Core/lora-test.c ****     certifParam.DataBuffer[1] = certifParam.DemodMargin;
ARM GAS  C:\Users\EBANO_~1\AppData\Local\Temp\ccRTGXbP.s 			page 18


 523              		.loc 1 99 0
 524 00d0 DB19     		adds	r3, r3, r7
 525 00d2 2371     		strb	r3, [r4, #4]
 100:../../../../../../Middlewares/Third_Party/LoRaWAN/Core/lora-test.c ****     certifParam.DataBuffer[2] = certifParam.NbGateways;
 526              		.loc 1 100 0
 527 00d4 5B46     		mov	r3, fp
 528 00d6 E35C     		ldrb	r3, [r4, r3]
 529 00d8 6371     		strb	r3, [r4, #5]
 101:../../../../../../Middlewares/Third_Party/LoRaWAN/Core/lora-test.c ****     certifParam.State = 1;
 530              		.loc 1 101 0
 531 00da 5346     		mov	r3, r10
 532 00dc E35C     		ldrb	r3, [r4, r3]
 102:../../../../../../Middlewares/Third_Party/LoRaWAN/Core/lora-test.c ****   }
 533              		.loc 1 102 0
 534 00de 6570     		strb	r5, [r4, #1]
 101:../../../../../../Middlewares/Third_Party/LoRaWAN/Core/lora-test.c ****     certifParam.State = 1;
 535              		.loc 1 101 0
 536 00e0 A371     		strb	r3, [r4, #6]
 537              	.L30:
 119:../../../../../../Middlewares/Third_Party/LoRaWAN/Core/lora-test.c ****   {
 538              		.loc 1 119 0
 539 00e2 E078     		ldrb	r0, [r4, #3]
 540 00e4 03A9     		add	r1, sp, #12
 541 00e6 FFF7FEFF 		bl	LoRaMacQueryTxPossible
 542              	.LVL25:
 543 00ea 0028     		cmp	r0, #0
 544 00ec 00D1     		bne	.LCB395
 545 00ee 0CE2     		b	.L33	@long jump
 546              	.LCB395:
 122:../../../../../../Middlewares/Third_Party/LoRaWAN/Core/lora-test.c ****       mcpsReq.Req.Unconfirmed.fBuffer = NULL;
 547              		.loc 1 122 0
 548 00f0 0023     		movs	r3, #0
 549 00f2 04AD     		add	r5, sp, #16
 550 00f4 2B70     		strb	r3, [r5]
 123:../../../../../../Middlewares/Third_Party/LoRaWAN/Core/lora-test.c ****       mcpsReq.Req.Unconfirmed.fBufferSize = 0;
 551              		.loc 1 123 0
 552 00f6 AB60     		str	r3, [r5, #8]
 124:../../../../../../Middlewares/Third_Party/LoRaWAN/Core/lora-test.c ****       mcpsReq.Req.Unconfirmed.Datarate = DR_0;
 553              		.loc 1 124 0
 554 00f8 AB81     		strh	r3, [r5, #12]
 125:../../../../../../Middlewares/Third_Party/LoRaWAN/Core/lora-test.c ****   }
 555              		.loc 1 125 0
 556 00fa AB73     		strb	r3, [r5, #14]
 557              	.L34:
 149:../../../../../../Middlewares/Third_Party/LoRaWAN/Core/lora-test.c **** 	
 558              		.loc 1 149 0
 559 00fc 2000     		movs	r0, r4
 560 00fe 4C30     		adds	r0, r0, #76
 561 0100 FFF7FEFF 		bl	TimerStart
 562              	.LVL26:
 151:../../../../../../Middlewares/Third_Party/LoRaWAN/Core/lora-test.c ****   {
 563              		.loc 1 151 0
 564 0104 2800     		movs	r0, r5
 565 0106 FFF7FEFF 		bl	LoRaMacMcpsRequest
 566              	.LVL27:
 567 010a 2378     		ldrb	r3, [r4]
 568 010c 14E0     		b	.L36
ARM GAS  C:\Users\EBANO_~1\AppData\Local\Temp\ccRTGXbP.s 			page 19


 569              	.LVL28:
 570              	.L45:
 571              	.LBE23:
 572              	.LBE22:
 573              	.LBE21:
 574              	.LBB26:
 255:../../../../../../Middlewares/Third_Party/LoRaWAN/Core/lora-test.c ****             certifParam.Running = false;
 575              		.loc 1 255 0
 576 010e 0022     		movs	r2, #0
 577 0110 4423     		movs	r3, #68
 578 0112 0026     		movs	r6, #0
 579 0114 E252     		strh	r2, [r4, r3]
 259:../../../../../../Middlewares/Third_Party/LoRaWAN/Core/lora-test.c ****             mibReq.Param.AdrEnable = AdrEnableInit;
 580              		.loc 1 259 0
 581 0116 08A8     		add	r0, sp, #32
 582              	.LVL29:
 583 0118 423B     		subs	r3, r3, #66
 584 011a 0370     		strb	r3, [r0]
 260:../../../../../../Middlewares/Third_Party/LoRaWAN/Core/lora-test.c ****             LoRaMacMibSetRequestConfirm( &mibReq );
 585              		.loc 1 260 0
 586 011c 6233     		adds	r3, r3, #98
 587 011e E35C     		ldrb	r3, [r4, r3]
 256:../../../../../../Middlewares/Third_Party/LoRaWAN/Core/lora-test.c **** 
 588              		.loc 1 256 0
 589 0120 2670     		strb	r6, [r4]
 260:../../../../../../Middlewares/Third_Party/LoRaWAN/Core/lora-test.c ****             LoRaMacMibSetRequestConfirm( &mibReq );
 590              		.loc 1 260 0
 591 0122 0371     		strb	r3, [r0, #4]
 261:../../../../../../Middlewares/Third_Party/LoRaWAN/Core/lora-test.c **** 
 592              		.loc 1 261 0
 593 0124 FFF7FEFF 		bl	LoRaMacMibSetRequestConfirm
 594              	.LVL30:
 263:../../../../../../Middlewares/Third_Party/LoRaWAN/Core/lora-test.c ****             mlmeReq.Req.Join = *JoinParameters;
 595              		.loc 1 263 0
 596 0128 04A8     		add	r0, sp, #16
 597 012a 0670     		strb	r6, [r0]
 264:../../../../../../Middlewares/Third_Party/LoRaWAN/Core/lora-test.c **** 
 598              		.loc 1 264 0
 599 012c 05AB     		add	r3, sp, #20
 600 012e 46CD     		ldmia	r5!, {r1, r2, r6}
 601 0130 46C3     		stmia	r3!, {r1, r2, r6}
 602              	.LVL31:
 266:../../../../../../Middlewares/Third_Party/LoRaWAN/Core/lora-test.c ****             break;
 603              		.loc 1 266 0
 604 0132 FFF7FEFF 		bl	LoRaMacMlmeRequest
 605              	.LVL32:
 606 0136 2378     		ldrb	r3, [r4]
 607              	.LVL33:
 608              	.L36:
 609              	.LBE26:
 328:../../../../../../Middlewares/Third_Party/LoRaWAN/Core/lora-test.c ****     {
 610              		.loc 1 328 0
 611 0138 002B     		cmp	r3, #0
 612 013a 00D0     		beq	.LCB450
 613 013c 73E7     		b	.L24	@long jump
 614              	.LCB450:
 615 013e 6EE7     		b	.L28
ARM GAS  C:\Users\EBANO_~1\AppData\Local\Temp\ccRTGXbP.s 			page 20


 616              	.LVL34:
 617              	.L44:
 618              	.LBB27:
 245:../../../../../../Middlewares/Third_Party/LoRaWAN/Core/lora-test.c ****           LoRaMacMlmeRequest( &mlmeReq );
 619              		.loc 1 245 0
 620 0140 0323     		movs	r3, #3
 621 0142 08A8     		add	r0, sp, #32
 622              	.LVL35:
 623 0144 0370     		strb	r3, [r0]
 246:../../../../../../Middlewares/Third_Party/LoRaWAN/Core/lora-test.c ****           break;
 624              		.loc 1 246 0
 625 0146 FFF7FEFF 		bl	LoRaMacMlmeRequest
 626              	.LVL36:
 627 014a 2378     		ldrb	r3, [r4]
 628 014c F4E7     		b	.L36
 629              	.L83:
 630 014e C046     		.align	2
 631              	.L82:
 632 0150 00000000 		.word	.LANCHOR0
 633 0154 00000000 		.word	.L39
 634 0158 00000000 		.word	OnCertifTxNextPacketTimerEvent
 635 015c 88130000 		.word	5000
 636              	.LVL37:
 637              	.L43:
 638              	.LBE27:
 236:../../../../../../Middlewares/Third_Party/LoRaWAN/Core/lora-test.c ****           for( uint8_t i = 1; i < certifParam.DataBufferSize; i++ )
 639              		.loc 1 236 0
 640 0160 0422     		movs	r2, #4
 234:../../../../../../Middlewares/Third_Party/LoRaWAN/Core/lora-test.c **** 
 641              		.loc 1 234 0
 642 0162 057B     		ldrb	r5, [r0, #12]
 643              	.LVL38:
 236:../../../../../../Middlewares/Third_Party/LoRaWAN/Core/lora-test.c ****           for( uint8_t i = 1; i < certifParam.DataBufferSize; i++ )
 644              		.loc 1 236 0
 645 0164 2271     		strb	r2, [r4, #4]
 646              	.LVL39:
 234:../../../../../../Middlewares/Third_Party/LoRaWAN/Core/lora-test.c **** 
 647              		.loc 1 234 0
 648 0166 E570     		strb	r5, [r4, #3]
 649              	.LBB28:
 237:../../../../../../Middlewares/Third_Party/LoRaWAN/Core/lora-test.c ****           {
 650              		.loc 1 237 0
 651 0168 012D     		cmp	r5, #1
 652 016a 00D8     		bhi	.LCB488
 653 016c 5BE7     		b	.L24	@long jump
 654              	.LCB488:
 655 016e 6A1E     		subs	r2, r5, #1
 656 0170 D2B2     		uxtb	r2, r2
 657 0172 9146     		mov	r9, r2
 658 0174 0922     		movs	r2, #9
 659 0176 9346     		mov	fp, r2
 660 0178 0022     		movs	r2, #0
 661 017a 9B44     		add	fp, fp, r3
 662 017c 5E46     		mov	r6, fp
 663 017e 1100     		movs	r1, r2
 664 0180 671D     		adds	r7, r4, #5
 665 0182 B742     		cmp	r7, r6
ARM GAS  C:\Users\EBANO_~1\AppData\Local\Temp\ccRTGXbP.s 			page 21


 666 0184 5141     		adcs	r1, r1, r2
 667 0186 0196     		str	r6, [sp, #4]
 668 0188 0D26     		movs	r6, #13
 669 018a B246     		mov	r10, r6
 670 018c A244     		add	r10, r10, r4
 671 018e 5646     		mov	r6, r10
 672 0190 581C     		adds	r0, r3, #1
 673              	.LVL40:
 674 0192 B042     		cmp	r0, r6
 675 0194 5241     		adcs	r2, r2, r2
 676 0196 0A43     		orrs	r2, r1
 677 0198 0821     		movs	r1, #8
 678 019a 4945     		cmp	r1, r9
 679 019c 8941     		sbcs	r1, r1, r1
 680 019e 4942     		rsbs	r1, r1, #0
 681 01a0 1142     		tst	r1, r2
 682 01a2 00D1     		bne	.LCB516
 683 01a4 8FE1     		b	.L55	@long jump
 684              	.LCB516:
 685 01a6 0200     		movs	r2, r0
 686 01a8 3A43     		orrs	r2, r7
 687 01aa 5207     		lsls	r2, r2, #29
 688 01ac 00D0     		beq	.LCB524
 689 01ae 8AE1     		b	.L55	@long jump
 690              	.LCB524:
 691              	.LVL41:
 692 01b0 4A46     		mov	r2, r9
 693 01b2 D208     		lsrs	r2, r2, #3
 239:../../../../../../Middlewares/Third_Party/LoRaWAN/Core/lora-test.c ****           }
 694              		.loc 1 239 0
 695 01b4 4168     		ldr	r1, [r0, #4]
 696 01b6 0092     		str	r2, [sp]
 697 01b8 0268     		ldr	r2, [r0]
 698 01ba E848     		ldr	r0, .L84
 699 01bc 8446     		mov	ip, r0
 700 01be 0600     		movs	r6, r0
 701 01c0 E748     		ldr	r0, .L84+4
 702 01c2 1640     		ands	r6, r2
 703 01c4 8046     		mov	r8, r0
 704 01c6 4240     		eors	r2, r0
 705 01c8 E648     		ldr	r0, .L84+8
 706 01ca 4644     		add	r6, r6, r8
 707 01cc 0240     		ands	r2, r0
 708 01ce 5640     		eors	r6, r2
 709 01d0 E34A     		ldr	r2, .L84+4
 710 01d2 8046     		mov	r8, r0
 711 01d4 4A40     		eors	r2, r1
 712 01d6 0240     		ands	r2, r0
 713 01d8 6046     		mov	r0, ip
 714 01da 0140     		ands	r1, r0
 715 01dc E048     		ldr	r0, .L84+4
 716 01de 6671     		strb	r6, [r4, #5]
 717 01e0 8346     		mov	fp, r0
 718 01e2 5944     		add	r1, r1, fp
 719 01e4 4A40     		eors	r2, r1
 720 01e6 310A     		lsrs	r1, r6, #8
 721 01e8 A171     		strb	r1, [r4, #6]
ARM GAS  C:\Users\EBANO_~1\AppData\Local\Temp\ccRTGXbP.s 			page 22


 722 01ea 310C     		lsrs	r1, r6, #16
 723 01ec E171     		strb	r1, [r4, #7]
 724 01ee 110A     		lsrs	r1, r2, #8
 725 01f0 6272     		strb	r2, [r4, #9]
 726 01f2 A172     		strb	r1, [r4, #10]
 727 01f4 110C     		lsrs	r1, r2, #16
 728 01f6 120E     		lsrs	r2, r2, #24
 729 01f8 2273     		strb	r2, [r4, #12]
 730 01fa 009A     		ldr	r2, [sp]
 731 01fc 360E     		lsrs	r6, r6, #24
 732 01fe 2672     		strb	r6, [r4, #8]
 733 0200 E172     		strb	r1, [r4, #11]
 734 0202 012A     		cmp	r2, #1
 735 0204 00D1     		bne	.LCB581
 736 0206 E4E0     		b	.L49	@long jump
 737              	.LCB581:
 738 0208 0600     		movs	r6, r0
 739 020a 4046     		mov	r0, r8
 740 020c 0199     		ldr	r1, [sp, #4]
 741 020e 5F46     		mov	r7, fp
 742 0210 0A68     		ldr	r2, [r1]
 743 0212 4968     		ldr	r1, [r1, #4]
 744 0214 5640     		eors	r6, r2
 745 0216 0640     		ands	r6, r0
 746 0218 6046     		mov	r0, ip
 747 021a 0240     		ands	r2, r0
 748 021c 4046     		mov	r0, r8
 749 021e 5A44     		add	r2, r2, fp
 750 0220 5640     		eors	r6, r2
 751 0222 6246     		mov	r2, ip
 752 0224 4F40     		eors	r7, r1
 753 0226 0740     		ands	r7, r0
 754 0228 5046     		mov	r0, r10
 755 022a 0A40     		ands	r2, r1
 756 022c 5A44     		add	r2, r2, fp
 757 022e 310A     		lsrs	r1, r6, #8
 758 0230 6673     		strb	r6, [r4, #13]
 759 0232 7A40     		eors	r2, r7
 760 0234 4170     		strb	r1, [r0, #1]
 761 0236 310C     		lsrs	r1, r6, #16
 762 0238 8170     		strb	r1, [r0, #2]
 763 023a 110A     		lsrs	r1, r2, #8
 764 023c 0271     		strb	r2, [r0, #4]
 765 023e 4171     		strb	r1, [r0, #5]
 766 0240 110C     		lsrs	r1, r2, #16
 767 0242 120E     		lsrs	r2, r2, #24
 768 0244 C271     		strb	r2, [r0, #7]
 769 0246 009A     		ldr	r2, [sp]
 770 0248 360E     		lsrs	r6, r6, #24
 771 024a C670     		strb	r6, [r0, #3]
 772 024c 8171     		strb	r1, [r0, #6]
 773 024e 022A     		cmp	r2, #2
 774 0250 00D1     		bne	.LCB628
 775 0252 BEE0     		b	.L49	@long jump
 776              	.LCB628:
 777 0254 1900     		movs	r1, r3
 778 0256 1131     		adds	r1, r1, #17
ARM GAS  C:\Users\EBANO_~1\AppData\Local\Temp\ccRTGXbP.s 			page 23


 779 0258 0E68     		ldr	r6, [r1]
 780 025a 4A68     		ldr	r2, [r1, #4]
 781 025c 5946     		mov	r1, fp
 782 025e 4046     		mov	r0, r8
 783 0260 7140     		eors	r1, r6
 784 0262 0140     		ands	r1, r0
 785 0264 6046     		mov	r0, ip
 786 0266 0640     		ands	r6, r0
 787 0268 5E44     		add	r6, r6, fp
 788 026a 7140     		eors	r1, r6
 789 026c 5E46     		mov	r6, fp
 790 026e 4046     		mov	r0, r8
 791 0270 5640     		eors	r6, r2
 792 0272 0640     		ands	r6, r0
 793 0274 6046     		mov	r0, ip
 794 0276 0240     		ands	r2, r0
 795 0278 0F0A     		lsrs	r7, r1, #8
 796 027a 5A44     		add	r2, r2, fp
 797 027c 7240     		eors	r2, r6
 798 027e 6175     		strb	r1, [r4, #21]
 799 0280 A775     		strb	r7, [r4, #22]
 800 0282 0F0C     		lsrs	r7, r1, #16
 801 0284 090E     		lsrs	r1, r1, #24
 802 0286 2176     		strb	r1, [r4, #24]
 803 0288 110A     		lsrs	r1, r2, #8
 804 028a 6276     		strb	r2, [r4, #25]
 805 028c A176     		strb	r1, [r4, #26]
 806 028e 110C     		lsrs	r1, r2, #16
 807 0290 120E     		lsrs	r2, r2, #24
 808 0292 2277     		strb	r2, [r4, #28]
 809 0294 009A     		ldr	r2, [sp]
 810 0296 E775     		strb	r7, [r4, #23]
 811 0298 E176     		strb	r1, [r4, #27]
 812 029a 032A     		cmp	r2, #3
 813 029c 00D1     		bne	.LCB675
 814 029e 98E0     		b	.L49	@long jump
 815              	.LCB675:
 816 02a0 1900     		movs	r1, r3
 817 02a2 1931     		adds	r1, r1, #25
 818 02a4 0E68     		ldr	r6, [r1]
 819 02a6 4A68     		ldr	r2, [r1, #4]
 820 02a8 5946     		mov	r1, fp
 821 02aa 4046     		mov	r0, r8
 822 02ac 7140     		eors	r1, r6
 823 02ae 0140     		ands	r1, r0
 824 02b0 6046     		mov	r0, ip
 825 02b2 0640     		ands	r6, r0
 826 02b4 5E44     		add	r6, r6, fp
 827 02b6 4E40     		eors	r6, r1
 828 02b8 5946     		mov	r1, fp
 829 02ba 4046     		mov	r0, r8
 830 02bc 5140     		eors	r1, r2
 831 02be 0140     		ands	r1, r0
 832 02c0 6046     		mov	r0, ip
 833 02c2 2700     		movs	r7, r4
 834 02c4 0240     		ands	r2, r0
 835 02c6 5A44     		add	r2, r2, fp
ARM GAS  C:\Users\EBANO_~1\AppData\Local\Temp\ccRTGXbP.s 			page 24


 836 02c8 4A40     		eors	r2, r1
 837 02ca 310A     		lsrs	r1, r6, #8
 838 02cc A177     		strb	r1, [r4, #30]
 839 02ce 310C     		lsrs	r1, r6, #16
 840 02d0 E177     		strb	r1, [r4, #31]
 841 02d2 1D37     		adds	r7, r7, #29
 842 02d4 110A     		lsrs	r1, r2, #8
 843 02d6 6677     		strb	r6, [r4, #29]
 844 02d8 3A71     		strb	r2, [r7, #4]
 845 02da 7971     		strb	r1, [r7, #5]
 846 02dc 110C     		lsrs	r1, r2, #16
 847 02de 120E     		lsrs	r2, r2, #24
 848 02e0 FA71     		strb	r2, [r7, #7]
 849 02e2 009A     		ldr	r2, [sp]
 850 02e4 360E     		lsrs	r6, r6, #24
 851 02e6 FE70     		strb	r6, [r7, #3]
 852 02e8 B971     		strb	r1, [r7, #6]
 853 02ea 042A     		cmp	r2, #4
 854 02ec 71D0     		beq	.L49
 855 02ee 1900     		movs	r1, r3
 856 02f0 2131     		adds	r1, r1, #33
 857 02f2 0E68     		ldr	r6, [r1]
 858 02f4 4A68     		ldr	r2, [r1, #4]
 859 02f6 5946     		mov	r1, fp
 860 02f8 4046     		mov	r0, r8
 861 02fa 7140     		eors	r1, r6
 862 02fc 0140     		ands	r1, r0
 863 02fe 6046     		mov	r0, ip
 864 0300 0640     		ands	r6, r0
 865 0302 5E44     		add	r6, r6, fp
 866 0304 4E40     		eors	r6, r1
 867 0306 5946     		mov	r1, fp
 868 0308 4046     		mov	r0, r8
 869 030a 5140     		eors	r1, r2
 870 030c 0140     		ands	r1, r0
 871 030e 6046     		mov	r0, ip
 872 0310 2700     		movs	r7, r4
 873 0312 0240     		ands	r2, r0
 874 0314 5A44     		add	r2, r2, fp
 875 0316 2537     		adds	r7, r7, #37
 876 0318 4A40     		eors	r2, r1
 877 031a 310A     		lsrs	r1, r6, #8
 878 031c 7970     		strb	r1, [r7, #1]
 879 031e 310C     		lsrs	r1, r6, #16
 880 0320 B970     		strb	r1, [r7, #2]
 881 0322 110A     		lsrs	r1, r2, #8
 882 0324 3A71     		strb	r2, [r7, #4]
 883 0326 7971     		strb	r1, [r7, #5]
 884 0328 110C     		lsrs	r1, r2, #16
 885 032a 120E     		lsrs	r2, r2, #24
 886 032c FA71     		strb	r2, [r7, #7]
 887 032e 009A     		ldr	r2, [sp]
 888 0330 3E70     		strb	r6, [r7]
 889 0332 360E     		lsrs	r6, r6, #24
 890 0334 FE70     		strb	r6, [r7, #3]
 891 0336 B971     		strb	r1, [r7, #6]
 892 0338 052A     		cmp	r2, #5
ARM GAS  C:\Users\EBANO_~1\AppData\Local\Temp\ccRTGXbP.s 			page 25


 893 033a 4AD0     		beq	.L49
 894 033c 1900     		movs	r1, r3
 895 033e 2931     		adds	r1, r1, #41
 896 0340 0E68     		ldr	r6, [r1]
 897 0342 4A68     		ldr	r2, [r1, #4]
 898 0344 5946     		mov	r1, fp
 899 0346 4046     		mov	r0, r8
 900 0348 7140     		eors	r1, r6
 901 034a 0140     		ands	r1, r0
 902 034c 6046     		mov	r0, ip
 903 034e 0640     		ands	r6, r0
 904 0350 5E44     		add	r6, r6, fp
 905 0352 4E40     		eors	r6, r1
 906 0354 5946     		mov	r1, fp
 907 0356 4046     		mov	r0, r8
 908 0358 5140     		eors	r1, r2
 909 035a 0140     		ands	r1, r0
 910 035c 6046     		mov	r0, ip
 911 035e 2700     		movs	r7, r4
 912 0360 0240     		ands	r2, r0
 913 0362 5A44     		add	r2, r2, fp
 914 0364 2D37     		adds	r7, r7, #45
 915 0366 4A40     		eors	r2, r1
 916 0368 310A     		lsrs	r1, r6, #8
 917 036a 7970     		strb	r1, [r7, #1]
 918 036c 310C     		lsrs	r1, r6, #16
 919 036e B970     		strb	r1, [r7, #2]
 920 0370 110A     		lsrs	r1, r2, #8
 921 0372 3A71     		strb	r2, [r7, #4]
 922 0374 7971     		strb	r1, [r7, #5]
 923 0376 110C     		lsrs	r1, r2, #16
 924 0378 120E     		lsrs	r2, r2, #24
 925 037a FA71     		strb	r2, [r7, #7]
 926 037c 009A     		ldr	r2, [sp]
 927 037e 3E70     		strb	r6, [r7]
 928 0380 360E     		lsrs	r6, r6, #24
 929 0382 FE70     		strb	r6, [r7, #3]
 930 0384 B971     		strb	r1, [r7, #6]
 931 0386 062A     		cmp	r2, #6
 932 0388 23D0     		beq	.L49
 239:../../../../../../Middlewares/Third_Party/LoRaWAN/Core/lora-test.c ****           }
 933              		.loc 1 239 0 is_stmt 0 discriminator 3
 934 038a 1A00     		movs	r2, r3
 935 038c 5946     		mov	r1, fp
 936 038e 4046     		mov	r0, r8
 937 0390 3132     		adds	r2, r2, #49
 938 0392 1668     		ldr	r6, [r2]
 939 0394 5268     		ldr	r2, [r2, #4]
 940 0396 7140     		eors	r1, r6
 941 0398 0140     		ands	r1, r0
 942 039a 6046     		mov	r0, ip
 943 039c 0640     		ands	r6, r0
 944 039e 5E44     		add	r6, r6, fp
 945 03a0 5846     		mov	r0, fp
 946 03a2 7140     		eors	r1, r6
 947 03a4 4646     		mov	r6, r8
 948 03a6 5040     		eors	r0, r2
ARM GAS  C:\Users\EBANO_~1\AppData\Local\Temp\ccRTGXbP.s 			page 26


 949 03a8 3040     		ands	r0, r6
 950 03aa 6646     		mov	r6, ip
 951 03ac 3240     		ands	r2, r6
 952 03ae 5A44     		add	r2, r2, fp
 953 03b0 5040     		eors	r0, r2
 954 03b2 2200     		movs	r2, r4
 955 03b4 0E0A     		lsrs	r6, r1, #8
 956 03b6 3532     		adds	r2, r2, #53
 957 03b8 1170     		strb	r1, [r2]
 958 03ba 5670     		strb	r6, [r2, #1]
 959 03bc 0E0C     		lsrs	r6, r1, #16
 960 03be 090E     		lsrs	r1, r1, #24
 961 03c0 D170     		strb	r1, [r2, #3]
 962 03c2 010A     		lsrs	r1, r0, #8
 963 03c4 1071     		strb	r0, [r2, #4]
 964 03c6 5171     		strb	r1, [r2, #5]
 965 03c8 010C     		lsrs	r1, r0, #16
 966 03ca 000E     		lsrs	r0, r0, #24
 967 03cc 9670     		strb	r6, [r2, #2]
 968 03ce 9171     		strb	r1, [r2, #6]
 969 03d0 D071     		strb	r0, [r2, #7]
 970              	.L49:
 971 03d2 0722     		movs	r2, #7
 972 03d4 4946     		mov	r1, r9
 973 03d6 9143     		bics	r1, r2
 974 03d8 0A00     		movs	r2, r1
 975 03da 0131     		adds	r1, r1, #1
 976 03dc C9B2     		uxtb	r1, r1
 977 03de 9145     		cmp	r9, r2
 978 03e0 00D1     		bne	.LCB875
 979 03e2 20E6     		b	.L24	@long jump
 980              	.LCB875:
 981              	.LVL42:
 239:../../../../../../Middlewares/Third_Party/LoRaWAN/Core/lora-test.c ****           }
 982              		.loc 1 239 0
 983 03e4 6018     		adds	r0, r4, r1
 984 03e6 595C     		ldrb	r1, [r3, r1]
 985              	.LVL43:
 986 03e8 0131     		adds	r1, r1, #1
 987 03ea 0171     		strb	r1, [r0, #4]
 237:../../../../../../Middlewares/Third_Party/LoRaWAN/Core/lora-test.c ****           {
 988              		.loc 1 237 0 is_stmt 1
 989 03ec 911C     		adds	r1, r2, #2
 990 03ee C9B2     		uxtb	r1, r1
 991              	.LVL44:
 992 03f0 8D42     		cmp	r5, r1
 993 03f2 00D8     		bhi	.LCB886
 994 03f4 17E6     		b	.L24	@long jump
 995              	.LCB886:
 239:../../../../../../Middlewares/Third_Party/LoRaWAN/Core/lora-test.c ****           }
 996              		.loc 1 239 0
 997 03f6 6018     		adds	r0, r4, r1
 998 03f8 595C     		ldrb	r1, [r3, r1]
 999              	.LVL45:
 1000 03fa 0131     		adds	r1, r1, #1
 1001 03fc 0171     		strb	r1, [r0, #4]
 237:../../../../../../Middlewares/Third_Party/LoRaWAN/Core/lora-test.c ****           {
ARM GAS  C:\Users\EBANO_~1\AppData\Local\Temp\ccRTGXbP.s 			page 27


 1002              		.loc 1 237 0
 1003 03fe D11C     		adds	r1, r2, #3
 1004 0400 C9B2     		uxtb	r1, r1
 1005              	.LVL46:
 1006 0402 8D42     		cmp	r5, r1
 1007 0404 00D8     		bhi	.LCB897
 1008 0406 0EE6     		b	.L24	@long jump
 1009              	.LCB897:
 239:../../../../../../Middlewares/Third_Party/LoRaWAN/Core/lora-test.c ****           }
 1010              		.loc 1 239 0
 1011 0408 6018     		adds	r0, r4, r1
 1012 040a 595C     		ldrb	r1, [r3, r1]
 1013              	.LVL47:
 1014 040c 0131     		adds	r1, r1, #1
 1015 040e 0171     		strb	r1, [r0, #4]
 237:../../../../../../Middlewares/Third_Party/LoRaWAN/Core/lora-test.c ****           {
 1016              		.loc 1 237 0
 1017 0410 111D     		adds	r1, r2, #4
 1018 0412 C9B2     		uxtb	r1, r1
 1019              	.LVL48:
 1020 0414 8D42     		cmp	r5, r1
 1021 0416 00D8     		bhi	.LCB908
 1022 0418 05E6     		b	.L24	@long jump
 1023              	.LCB908:
 239:../../../../../../Middlewares/Third_Party/LoRaWAN/Core/lora-test.c ****           }
 1024              		.loc 1 239 0
 1025 041a 6018     		adds	r0, r4, r1
 1026 041c 595C     		ldrb	r1, [r3, r1]
 1027              	.LVL49:
 1028 041e 0131     		adds	r1, r1, #1
 1029 0420 0171     		strb	r1, [r0, #4]
 237:../../../../../../Middlewares/Third_Party/LoRaWAN/Core/lora-test.c ****           {
 1030              		.loc 1 237 0
 1031 0422 511D     		adds	r1, r2, #5
 1032 0424 C9B2     		uxtb	r1, r1
 1033              	.LVL50:
 1034 0426 8D42     		cmp	r5, r1
 1035 0428 00D8     		bhi	.LCB919
 1036 042a FCE5     		b	.L24	@long jump
 1037              	.LCB919:
 239:../../../../../../Middlewares/Third_Party/LoRaWAN/Core/lora-test.c ****           }
 1038              		.loc 1 239 0
 1039 042c 6018     		adds	r0, r4, r1
 1040 042e 595C     		ldrb	r1, [r3, r1]
 1041              	.LVL51:
 1042 0430 0131     		adds	r1, r1, #1
 1043 0432 0171     		strb	r1, [r0, #4]
 237:../../../../../../Middlewares/Third_Party/LoRaWAN/Core/lora-test.c ****           {
 1044              		.loc 1 237 0
 1045 0434 911D     		adds	r1, r2, #6
 1046 0436 C9B2     		uxtb	r1, r1
 1047              	.LVL52:
 1048 0438 8D42     		cmp	r5, r1
 1049 043a 00D8     		bhi	.LCB930
 1050 043c F3E5     		b	.L24	@long jump
 1051              	.LCB930:
 239:../../../../../../Middlewares/Third_Party/LoRaWAN/Core/lora-test.c ****           }
ARM GAS  C:\Users\EBANO_~1\AppData\Local\Temp\ccRTGXbP.s 			page 28


 1052              		.loc 1 239 0
 1053 043e 6018     		adds	r0, r4, r1
 1054 0440 595C     		ldrb	r1, [r3, r1]
 1055              	.LVL53:
 237:../../../../../../Middlewares/Third_Party/LoRaWAN/Core/lora-test.c ****           {
 1056              		.loc 1 237 0
 1057 0442 0732     		adds	r2, r2, #7
 1058              	.LVL54:
 239:../../../../../../Middlewares/Third_Party/LoRaWAN/Core/lora-test.c ****           }
 1059              		.loc 1 239 0
 1060 0444 0131     		adds	r1, r1, #1
 237:../../../../../../Middlewares/Third_Party/LoRaWAN/Core/lora-test.c ****           {
 1061              		.loc 1 237 0
 1062 0446 D2B2     		uxtb	r2, r2
 1063              	.LVL55:
 239:../../../../../../Middlewares/Third_Party/LoRaWAN/Core/lora-test.c ****           }
 1064              		.loc 1 239 0
 1065 0448 0171     		strb	r1, [r0, #4]
 237:../../../../../../Middlewares/Third_Party/LoRaWAN/Core/lora-test.c ****           {
 1066              		.loc 1 237 0
 1067 044a 9542     		cmp	r5, r2
 1068 044c 00D8     		bhi	.LCB943
 1069 044e EAE5     		b	.L24	@long jump
 1070              	.LCB943:
 239:../../../../../../Middlewares/Third_Party/LoRaWAN/Core/lora-test.c ****           }
 1071              		.loc 1 239 0
 1072 0450 9B5C     		ldrb	r3, [r3, r2]
 1073 0452 A418     		adds	r4, r4, r2
 1074 0454 0133     		adds	r3, r3, #1
 1075 0456 2371     		strb	r3, [r4, #4]
 1076              	.LVL56:
 1077 0458 E5E5     		b	.L24
 1078              	.LVL57:
 1079              	.L42:
 1080              	.LBE28:
 230:../../../../../../Middlewares/Third_Party/LoRaWAN/Core/lora-test.c ****           certifParam.State = 1;
 1081              		.loc 1 230 0
 1082 045a 4A23     		movs	r3, #74
 1083 045c 0022     		movs	r2, #0
 1084 045e E254     		strb	r2, [r4, r3]
 231:../../../../../../Middlewares/Third_Party/LoRaWAN/Core/lora-test.c ****           break;
 1085              		.loc 1 231 0
 1086 0460 493B     		subs	r3, r3, #73
 1087 0462 6370     		strb	r3, [r4, #1]
 232:../../../../../../Middlewares/Third_Party/LoRaWAN/Core/lora-test.c ****         case 4: // (vii)
 1088              		.loc 1 232 0
 1089 0464 DFE5     		b	.L24
 1090              	.L41:
 226:../../../../../../Middlewares/Third_Party/LoRaWAN/Core/lora-test.c ****           certifParam.State = 1;
 1091              		.loc 1 226 0
 1092 0466 0123     		movs	r3, #1
 1093 0468 4A22     		movs	r2, #74
 227:../../../../../../Middlewares/Third_Party/LoRaWAN/Core/lora-test.c ****           break;
 1094              		.loc 1 227 0
 1095 046a 6370     		strb	r3, [r4, #1]
 226:../../../../../../Middlewares/Third_Party/LoRaWAN/Core/lora-test.c ****           certifParam.State = 1;
 1096              		.loc 1 226 0
ARM GAS  C:\Users\EBANO_~1\AppData\Local\Temp\ccRTGXbP.s 			page 29


 1097 046c A354     		strb	r3, [r4, r2]
 228:../../../../../../Middlewares/Third_Party/LoRaWAN/Core/lora-test.c ****         case 3:  // Disable confirmed messages (vi)
 1098              		.loc 1 228 0
 1099 046e DAE5     		b	.L24
 1100              	.L40:
 223:../../../../../../Middlewares/Third_Party/LoRaWAN/Core/lora-test.c ****           break;
 1101              		.loc 1 223 0
 1102 0470 0223     		movs	r3, #2
 1103 0472 E370     		strb	r3, [r4, #3]
 224:../../../../../../Middlewares/Third_Party/LoRaWAN/Core/lora-test.c ****         case 2: // Enable confirmed messages (v)
 1104              		.loc 1 224 0
 1105 0474 D7E5     		b	.L24
 1106              	.L38:
 1107              	.LBB29:
 209:../../../../../../Middlewares/Third_Party/LoRaWAN/Core/lora-test.c ****           certifParam.Running = false;
 1108              		.loc 1 209 0
 1109 0476 0022     		movs	r2, #0
 1110 0478 4423     		movs	r3, #68
 1111 047a E252     		strh	r2, [r4, r3]
 210:../../../../../../Middlewares/Third_Party/LoRaWAN/Core/lora-test.c ****           
 1112              		.loc 1 210 0
 1113 047c 0023     		movs	r3, #0
 1114 047e 2370     		strb	r3, [r4]
 213:../../../../../../Middlewares/Third_Party/LoRaWAN/Core/lora-test.c ****           mibReq.Param.AdrEnable = AdrEnableInit;
 1115              		.loc 1 213 0
 1116 0480 0223     		movs	r3, #2
 1117 0482 08A8     		add	r0, sp, #32
 1118              	.LVL58:
 1119 0484 0370     		strb	r3, [r0]
 214:../../../../../../Middlewares/Third_Party/LoRaWAN/Core/lora-test.c ****           LoRaMacMibSetRequestConfirm( &mibReq );
 1120              		.loc 1 214 0
 1121 0486 6233     		adds	r3, r3, #98
 1122 0488 E35C     		ldrb	r3, [r4, r3]
 1123 048a 0371     		strb	r3, [r0, #4]
 215:../../../../../../Middlewares/Third_Party/LoRaWAN/Core/lora-test.c ****   #if defined( REGION_EU868 )
 1124              		.loc 1 215 0
 1125 048c FFF7FEFF 		bl	LoRaMacMibSetRequestConfirm
 1126              	.LVL59:
 217:../../../../../../Middlewares/Third_Party/LoRaWAN/Core/lora-test.c ****   #endif
 1127              		.loc 1 217 0
 1128 0490 0120     		movs	r0, #1
 1129 0492 FFF7FEFF 		bl	LoRaMacTestSetDutyCycleOn
 1130              	.LVL60:
 1131 0496 2378     		ldrb	r3, [r4]
 1132 0498 4EE6     		b	.L36
 1133              	.LVL61:
 1134              	.L46:
 1135              	.LBE29:
 272:../../../../../../Middlewares/Third_Party/LoRaWAN/Core/lora-test.c ****           {
 1136              		.loc 1 272 0
 1137 049a 027B     		ldrb	r2, [r0, #12]
 1138 049c 032A     		cmp	r2, #3
 1139 049e 04D0     		beq	.L81
 279:../../../../../../Middlewares/Third_Party/LoRaWAN/Core/lora-test.c ****           {
 1140              		.loc 1 279 0
 1141 04a0 072A     		cmp	r2, #7
 1142 04a2 1AD0     		beq	.L54
ARM GAS  C:\Users\EBANO_~1\AppData\Local\Temp\ccRTGXbP.s 			page 30


 288:../../../../../../Middlewares/Third_Party/LoRaWAN/Core/lora-test.c ****           break;
 1143              		.loc 1 288 0
 1144 04a4 0123     		movs	r3, #1
 1145 04a6 6370     		strb	r3, [r4, #1]
 1146 04a8 BDE5     		b	.L24
 1147              	.L81:
 1148              	.LBB30:
 275:../../../../../../Middlewares/Third_Party/LoRaWAN/Core/lora-test.c ****               mlmeReq.Req.TxCw.Timeout = ( uint16_t )( ( mcpsIndication->Buffer[1] << 8 ) | mcpsInd
 1149              		.loc 1 275 0
 1150 04aa 08A8     		add	r0, sp, #32
 1151              	.LVL62:
 1152 04ac 0132     		adds	r2, r2, #1
 1153 04ae 0270     		strb	r2, [r0]
 276:../../../../../../Middlewares/Third_Party/LoRaWAN/Core/lora-test.c ****               LoRaMacMlmeRequest( &mlmeReq );
 1154              		.loc 1 276 0
 1155 04b0 5A78     		ldrb	r2, [r3, #1]
 1156 04b2 9B78     		ldrb	r3, [r3, #2]
 1157 04b4 1202     		lsls	r2, r2, #8
 1158 04b6 1343     		orrs	r3, r2
 1159 04b8 8380     		strh	r3, [r0, #4]
 277:../../../../../../Middlewares/Third_Party/LoRaWAN/Core/lora-test.c ****           }
 1160              		.loc 1 277 0
 1161 04ba FFF7FEFF 		bl	LoRaMacMlmeRequest
 1162              	.LVL63:
 1163 04be 2378     		ldrb	r3, [r4]
 1164              	.L53:
 1165              	.LBE30:
 288:../../../../../../Middlewares/Third_Party/LoRaWAN/Core/lora-test.c ****           break;
 1166              		.loc 1 288 0
 1167 04c0 0122     		movs	r2, #1
 1168 04c2 6270     		strb	r2, [r4, #1]
 289:../../../../../../Middlewares/Third_Party/LoRaWAN/Core/lora-test.c ****         }
 1169              		.loc 1 289 0
 1170 04c4 38E6     		b	.L36
 1171              	.LVL64:
 1172              	.L55:
 1173              	.LBB31:
 237:../../../../../../Middlewares/Third_Party/LoRaWAN/Core/lora-test.c ****           {
 1174              		.loc 1 237 0
 1175 04c6 0122     		movs	r2, #1
 1176              	.LVL65:
 1177              	.L48:
 239:../../../../../../Middlewares/Third_Party/LoRaWAN/Core/lora-test.c ****           }
 1178              		.loc 1 239 0
 1179 04c8 995C     		ldrb	r1, [r3, r2]
 1180 04ca A018     		adds	r0, r4, r2
 1181 04cc 0131     		adds	r1, r1, #1
 1182 04ce 0132     		adds	r2, r2, #1
 1183              	.LVL66:
 1184 04d0 0171     		strb	r1, [r0, #4]
 237:../../../../../../Middlewares/Third_Party/LoRaWAN/Core/lora-test.c ****           {
 1185              		.loc 1 237 0
 1186 04d2 D1B2     		uxtb	r1, r2
 1187 04d4 8D42     		cmp	r5, r1
 1188 04d6 F7D8     		bhi	.L48
 1189 04d8 A5E5     		b	.L24
 1190              	.LVL67:
ARM GAS  C:\Users\EBANO_~1\AppData\Local\Temp\ccRTGXbP.s 			page 31


 1191              	.L54:
 1192              	.LBE31:
 1193              	.LBB32:
 282:../../../../../../Middlewares/Third_Party/LoRaWAN/Core/lora-test.c ****               mlmeReq.Req.TxCw.Timeout = ( uint16_t )( ( mcpsIndication->Buffer[1] << 8 ) | mcpsInd
 1194              		.loc 1 282 0
 1195 04da 0522     		movs	r2, #5
 1196 04dc 08A8     		add	r0, sp, #32
 1197              	.LVL68:
 1198 04de 0270     		strb	r2, [r0]
 283:../../../../../../Middlewares/Third_Party/LoRaWAN/Core/lora-test.c ****               mlmeReq.Req.TxCw.Frequency = ( uint32_t )( ( mcpsIndication->Buffer[3] << 16 ) | ( mc
 1199              		.loc 1 283 0
 1200 04e0 5978     		ldrb	r1, [r3, #1]
 1201 04e2 9A78     		ldrb	r2, [r3, #2]
 1202 04e4 0902     		lsls	r1, r1, #8
 1203 04e6 0A43     		orrs	r2, r1
 1204 04e8 8280     		strh	r2, [r0, #4]
 284:../../../../../../Middlewares/Third_Party/LoRaWAN/Core/lora-test.c ****               mlmeReq.Req.TxCw.Power = mcpsIndication->Buffer[6];
 1205              		.loc 1 284 0
 1206 04ea DA78     		ldrb	r2, [r3, #3]
 1207 04ec 1979     		ldrb	r1, [r3, #4]
 1208 04ee 1204     		lsls	r2, r2, #16
 1209 04f0 0902     		lsls	r1, r1, #8
 1210 04f2 0A43     		orrs	r2, r1
 1211 04f4 5979     		ldrb	r1, [r3, #5]
 1212 04f6 0A43     		orrs	r2, r1
 1213 04f8 6421     		movs	r1, #100
 1214 04fa 4A43     		muls	r2, r1
 1215 04fc 8260     		str	r2, [r0, #8]
 285:../../../../../../Middlewares/Third_Party/LoRaWAN/Core/lora-test.c ****               LoRaMacMlmeRequest( &mlmeReq );
 1216              		.loc 1 285 0
 1217 04fe 9B79     		ldrb	r3, [r3, #6]
 1218 0500 0373     		strb	r3, [r0, #12]
 286:../../../../../../Middlewares/Third_Party/LoRaWAN/Core/lora-test.c ****           }
 1219              		.loc 1 286 0
 1220 0502 FFF7FEFF 		bl	LoRaMacMlmeRequest
 1221              	.LVL69:
 1222 0506 2378     		ldrb	r3, [r4]
 1223 0508 DAE7     		b	.L53
 1224              	.LVL70:
 1225              	.L33:
 1226              	.LBE32:
 1227              	.LBB33:
 1228              	.LBB25:
 1229              	.LBB24:
 129:../../../../../../Middlewares/Third_Party/LoRaWAN/Core/lora-test.c ****       {
 1230              		.loc 1 129 0
 1231 050a 4A23     		movs	r3, #74
 1232 050c E35C     		ldrb	r3, [r4, r3]
 1233 050e E278     		ldrb	r2, [r4, #3]
 131:../../../../../../Middlewares/Third_Party/LoRaWAN/Core/lora-test.c ****           mcpsReq.Req.Unconfirmed.fPort = CERTIF_PORT;
 1234              		.loc 1 131 0
 1235 0510 04AD     		add	r5, sp, #16
 129:../../../../../../Middlewares/Third_Party/LoRaWAN/Core/lora-test.c ****       {
 1236              		.loc 1 129 0
 1237 0512 002B     		cmp	r3, #0
 1238 0514 0FD1     		bne	.L35
 132:../../../../../../Middlewares/Third_Party/LoRaWAN/Core/lora-test.c ****           mcpsReq.Req.Unconfirmed.fBufferSize = certifParam.DataBufferSize;
ARM GAS  C:\Users\EBANO_~1\AppData\Local\Temp\ccRTGXbP.s 			page 32


 1239              		.loc 1 132 0
 1240 0516 E021     		movs	r1, #224
 133:../../../../../../Middlewares/Third_Party/LoRaWAN/Core/lora-test.c ****           mcpsReq.Req.Unconfirmed.fBuffer = &(certifParam.DataBuffer);
 1241              		.loc 1 133 0
 1242 0518 AA81     		strh	r2, [r5, #12]
 134:../../../../../../Middlewares/Third_Party/LoRaWAN/Core/lora-test.c ****           mcpsReq.Req.Unconfirmed.Datarate = DR_0;
 1243              		.loc 1 134 0
 1244 051a 221D     		adds	r2, r4, #4
 131:../../../../../../Middlewares/Third_Party/LoRaWAN/Core/lora-test.c ****           mcpsReq.Req.Unconfirmed.fPort = CERTIF_PORT;
 1245              		.loc 1 131 0
 1246 051c 2B70     		strb	r3, [r5]
 132:../../../../../../Middlewares/Third_Party/LoRaWAN/Core/lora-test.c ****           mcpsReq.Req.Unconfirmed.fBufferSize = certifParam.DataBufferSize;
 1247              		.loc 1 132 0
 1248 051e 2971     		strb	r1, [r5, #4]
 134:../../../../../../Middlewares/Third_Party/LoRaWAN/Core/lora-test.c ****           mcpsReq.Req.Unconfirmed.Datarate = DR_0;
 1249              		.loc 1 134 0
 1250 0520 AA60     		str	r2, [r5, #8]
 135:../../../../../../Middlewares/Third_Party/LoRaWAN/Core/lora-test.c ****       }
 1251              		.loc 1 135 0
 1252 0522 AB73     		strb	r3, [r5, #14]
 1253 0524 EAE5     		b	.L34
 1254              	.L29:
 106:../../../../../../Middlewares/Third_Party/LoRaWAN/Core/lora-test.c ****     {
 1255              		.loc 1 106 0
 1256 0526 6378     		ldrb	r3, [r4, #1]
 1257 0528 012B     		cmp	r3, #1
 1258 052a 0FD0     		beq	.L31
 1259 052c 042B     		cmp	r3, #4
 1260 052e 00D0     		beq	.LCB1124
 1261 0530 D7E5     		b	.L30	@long jump
 1262              	.LCB1124:
 109:../../../../../../Middlewares/Third_Party/LoRaWAN/Core/lora-test.c ****       break;
 1263              		.loc 1 109 0
 1264 0532 6570     		strb	r5, [r4, #1]
 1265 0534 D5E5     		b	.L30
 1266              	.L35:
 139:../../../../../../Middlewares/Third_Party/LoRaWAN/Core/lora-test.c ****           mcpsReq.Req.Confirmed.fPort = CERTIF_PORT;
 1267              		.loc 1 139 0
 1268 0536 0123     		movs	r3, #1
 1269 0538 2B70     		strb	r3, [r5]
 140:../../../../../../Middlewares/Third_Party/LoRaWAN/Core/lora-test.c ****           mcpsReq.Req.Confirmed.fBufferSize = certifParam.DataBufferSize;
 1270              		.loc 1 140 0
 1271 053a DF33     		adds	r3, r3, #223
 1272 053c 2B71     		strb	r3, [r5, #4]
 142:../../../../../../Middlewares/Third_Party/LoRaWAN/Core/lora-test.c ****           mcpsReq.Req.Confirmed.NbTrials = 8;
 1273              		.loc 1 142 0
 1274 053e 231D     		adds	r3, r4, #4
 1275 0540 0693     		str	r3, [sp, #24]
 144:../../../../../../Middlewares/Third_Party/LoRaWAN/Core/lora-test.c ****       }
 1276              		.loc 1 144 0
 1277 0542 8023     		movs	r3, #128
 1278 0544 1B01     		lsls	r3, r3, #4
 141:../../../../../../Middlewares/Third_Party/LoRaWAN/Core/lora-test.c ****           mcpsReq.Req.Confirmed.fBuffer = &(certifParam.DataBuffer);
 1279              		.loc 1 141 0
 1280 0546 AA81     		strh	r2, [r5, #12]
 144:../../../../../../Middlewares/Third_Party/LoRaWAN/Core/lora-test.c ****       }
 1281              		.loc 1 144 0
ARM GAS  C:\Users\EBANO_~1\AppData\Local\Temp\ccRTGXbP.s 			page 33


 1282 0548 EB81     		strh	r3, [r5, #14]
 1283 054a D7E5     		b	.L34
 1284              	.L31:
 113:../../../../../../Middlewares/Third_Party/LoRaWAN/Core/lora-test.c ****       certifParam.DataBuffer[1] = certifParam.DownLinkCounter;
 1285              		.loc 1 113 0
 1286 054c 4423     		movs	r3, #68
 112:../../../../../../Middlewares/Third_Party/LoRaWAN/Core/lora-test.c ****       certifParam.DataBuffer[0] = certifParam.DownLinkCounter >> 8;
 1287              		.loc 1 112 0
 1288 054e E770     		strb	r7, [r4, #3]
 113:../../../../../../Middlewares/Third_Party/LoRaWAN/Core/lora-test.c ****       certifParam.DataBuffer[1] = certifParam.DownLinkCounter;
 1289              		.loc 1 113 0
 1290 0550 E35A     		ldrh	r3, [r4, r3]
 1291 0552 1A0A     		lsrs	r2, r3, #8
 1292 0554 2271     		strb	r2, [r4, #4]
 114:../../../../../../Middlewares/Third_Party/LoRaWAN/Core/lora-test.c ****       break;
 1293              		.loc 1 114 0
 1294 0556 6371     		strb	r3, [r4, #5]
 1295 0558 C3E5     		b	.L30
 1296              	.L85:
 1297 055a C046     		.align	2
 1298              	.L84:
 1299 055c 7F7F7F7F 		.word	2139062143
 1300 0560 01010101 		.word	16843009
 1301 0564 80808080 		.word	-2139062144
 1302              	.LBE24:
 1303              	.LBE25:
 1304              	.LBE33:
 1305              		.cfi_endproc
 1306              	.LFE43:
 1307              		.size	certif_rx, .-certif_rx
 1308              		.bss
 1309              		.align	2
 1310              		.set	.LANCHOR0,. + 0
 1311              		.type	certifParam, %object
 1312              		.size	certifParam, 74
 1313              	certifParam:
 1314 0000 00000000 		.space	74
 1314      00000000 
 1314      00000000 
 1314      00000000 
 1314      00000000 
 1315              		.type	IsTxConfirmed, %object
 1316              		.size	IsTxConfirmed, 1
 1317              	IsTxConfirmed:
 1318 004a 00       		.space	1
 1319 004b 00       		.space	1
 1320              		.type	CertifTxNextPacketTimer, %object
 1321              		.size	CertifTxNextPacketTimer, 24
 1322              	CertifTxNextPacketTimer:
 1323 004c 00000000 		.space	24
 1323      00000000 
 1323      00000000 
 1323      00000000 
 1323      00000000 
 1324              		.type	AdrEnableInit, %object
 1325              		.size	AdrEnableInit, 1
 1326              	AdrEnableInit:
ARM GAS  C:\Users\EBANO_~1\AppData\Local\Temp\ccRTGXbP.s 			page 34


 1327 0064 00       		.space	1
 1328              		.text
 1329              	.Letext0:
 1330              		.file 2 "c:\\program files (x86)\\gnu tools arm embedded\\7 2018-q2-update\\lib\\gcc\\arm-none-eab
 1331              		.file 3 "c:\\program files (x86)\\gnu tools arm embedded\\7 2018-q2-update\\arm-none-eabi\\include
 1332              		.file 4 "c:\\program files (x86)\\gnu tools arm embedded\\7 2018-q2-update\\arm-none-eabi\\include
 1333              		.file 5 "c:\\program files (x86)\\gnu tools arm embedded\\7 2018-q2-update\\arm-none-eabi\\include
 1334              		.file 6 "c:\\program files (x86)\\gnu tools arm embedded\\7 2018-q2-update\\arm-none-eabi\\include
 1335              		.file 7 "c:\\program files (x86)\\gnu tools arm embedded\\7 2018-q2-update\\arm-none-eabi\\include
 1336              		.file 8 "c:\\program files (x86)\\gnu tools arm embedded\\7 2018-q2-update\\arm-none-eabi\\include
 1337              		.file 9 "../../../../../../Drivers/CMSIS/Device/ST/STM32L0xx/Include/system_stm32l0xx.h"
 1338              		.file 10 "c:\\program files (x86)\\gnu tools arm embedded\\7 2018-q2-update\\arm-none-eabi\\includ
 1339              		.file 11 "../../../../../../Middlewares/Third_Party/LoRaWAN/Utilities/utilities.h"
 1340              		.file 12 "c:\\program files (x86)\\gnu tools arm embedded\\7 2018-q2-update\\arm-none-eabi\\includ
 1341              		.file 13 "../../../../../../Middlewares/Third_Party/LoRaWAN/Utilities/timeServer.h"
 1342              		.file 14 "../../../../../../Middlewares/Third_Party/LoRaWAN/Phy/radio.h"
 1343              		.file 15 "../../../../../../Middlewares/Third_Party/LoRaWAN/Mac/LoRaMacTypes.h"
 1344              		.file 16 "../../../../../../Middlewares/Third_Party/LoRaWAN/Mac/LoRaMac.h"
 1345              		.file 17 "../../../../../../Middlewares/Third_Party/LoRaWAN/Core/lora.h"
 1346              		.file 18 "../../../../../../Middlewares/Third_Party/LoRaWAN/Mac/LoRaMacTest.h"