ARM GAS  C:\Users\EBANO_~1\AppData\Local\Temp\ccWJ4OLX.s 			page 1


   1              		.cpu cortex-m0plus
   2              		.eabi_attribute 20, 1
   3              		.eabi_attribute 21, 1
   4              		.eabi_attribute 23, 3
   5              		.eabi_attribute 24, 1
   6              		.eabi_attribute 25, 1
   7              		.eabi_attribute 26, 1
   8              		.eabi_attribute 30, 2
   9              		.eabi_attribute 34, 0
  10              		.eabi_attribute 18, 4
  11              		.file	"LoRaMacParser.c"
  12              		.text
  13              	.Ltext0:
  14              		.cfi_sections	.debug_frame
  15              		.section	.text.LoRaMacParserJoinAccept,"ax",%progbits
  16              		.align	1
  17              		.p2align 2,,3
  18              		.global	LoRaMacParserJoinAccept
  19              		.syntax unified
  20              		.code	16
  21              		.thumb_func
  22              		.fpu softvfp
  23              		.type	LoRaMacParserJoinAccept, %function
  24              	LoRaMacParserJoinAccept:
  25              	.LFB39:
  26              		.file 1 "../../../../../../Middlewares/Third_Party/LoRaWAN/Mac/LoRaMacParser.c"
   1:../../../../../../Middlewares/Third_Party/LoRaWAN/Mac/LoRaMacParser.c **** /*
   2:../../../../../../Middlewares/Third_Party/LoRaWAN/Mac/LoRaMacParser.c ****  / _____)             _              | |
   3:../../../../../../Middlewares/Third_Party/LoRaWAN/Mac/LoRaMacParser.c **** ( (____  _____ ____ _| |_ _____  ____| |__
   4:../../../../../../Middlewares/Third_Party/LoRaWAN/Mac/LoRaMacParser.c ****  \____ \| ___ |    (_   _) ___ |/ ___)  _ \
   5:../../../../../../Middlewares/Third_Party/LoRaWAN/Mac/LoRaMacParser.c ****  _____) ) ____| | | || |_| ____( (___| | | |
   6:../../../../../../Middlewares/Third_Party/LoRaWAN/Mac/LoRaMacParser.c **** (______/|_____)_|_|_| \__)_____)\____)_| |_|
   7:../../../../../../Middlewares/Third_Party/LoRaWAN/Mac/LoRaMacParser.c ****     (C)2013 Semtech
   8:../../../../../../Middlewares/Third_Party/LoRaWAN/Mac/LoRaMacParser.c ****  ___ _____ _   ___ _  _____ ___  ___  ___ ___
   9:../../../../../../Middlewares/Third_Party/LoRaWAN/Mac/LoRaMacParser.c **** / __|_   _/_\ / __| |/ / __/ _ \| _ \/ __| __|
  10:../../../../../../Middlewares/Third_Party/LoRaWAN/Mac/LoRaMacParser.c **** \__ \ | |/ _ \ (__| ' <| _| (_) |   / (__| _|
  11:../../../../../../Middlewares/Third_Party/LoRaWAN/Mac/LoRaMacParser.c **** |___/ |_/_/ \_\___|_|\_\_| \___/|_|_\\___|___|
  12:../../../../../../Middlewares/Third_Party/LoRaWAN/Mac/LoRaMacParser.c **** embedded.connectivity.solutions===============
  13:../../../../../../Middlewares/Third_Party/LoRaWAN/Mac/LoRaMacParser.c **** 
  14:../../../../../../Middlewares/Third_Party/LoRaWAN/Mac/LoRaMacParser.c **** Description: LoRa MAC layer message parser functionality implementation
  15:../../../../../../Middlewares/Third_Party/LoRaWAN/Mac/LoRaMacParser.c **** 
  16:../../../../../../Middlewares/Third_Party/LoRaWAN/Mac/LoRaMacParser.c **** License: Revised BSD License, see LICENSE.TXT file include in the project
  17:../../../../../../Middlewares/Third_Party/LoRaWAN/Mac/LoRaMacParser.c **** 
  18:../../../../../../Middlewares/Third_Party/LoRaWAN/Mac/LoRaMacParser.c **** Maintainer: Miguel Luis ( Semtech ), Gregory Cristian ( Semtech ),
  19:../../../../../../Middlewares/Third_Party/LoRaWAN/Mac/LoRaMacParser.c ****             Daniel Jaeckle ( STACKFORCE ),  Johannes Bruder ( STACKFORCE )
  20:../../../../../../Middlewares/Third_Party/LoRaWAN/Mac/LoRaMacParser.c **** */
  21:../../../../../../Middlewares/Third_Party/LoRaWAN/Mac/LoRaMacParser.c **** #include "LoRaMacParser.h"
  22:../../../../../../Middlewares/Third_Party/LoRaWAN/Mac/LoRaMacParser.c **** #include "utilities.h"
  23:../../../../../../Middlewares/Third_Party/LoRaWAN/Mac/LoRaMacParser.c **** 
  24:../../../../../../Middlewares/Third_Party/LoRaWAN/Mac/LoRaMacParser.c **** LoRaMacParserStatus_t LoRaMacParserJoinAccept( LoRaMacMessageJoinAccept_t* macMsg )
  25:../../../../../../Middlewares/Third_Party/LoRaWAN/Mac/LoRaMacParser.c **** {
  27              		.loc 1 25 0
  28              		.cfi_startproc
  29              		@ args = 0, pretend = 0, frame = 0
  30              		@ frame_needed = 0, uses_anonymous_args = 0
  31              	.LVL0:
  32 0000 70B5     		push	{r4, r5, r6, lr}
ARM GAS  C:\Users\EBANO_~1\AppData\Local\Temp\ccWJ4OLX.s 			page 2


  33              	.LCFI0:
  34              		.cfi_def_cfa_offset 16
  35              		.cfi_offset 4, -16
  36              		.cfi_offset 5, -12
  37              		.cfi_offset 6, -8
  38              		.cfi_offset 14, -4
  39              		.loc 1 25 0
  40 0002 041E     		subs	r4, r0, #0
  26:../../../../../../Middlewares/Third_Party/LoRaWAN/Mac/LoRaMacParser.c ****     if( ( macMsg == 0 ) || ( macMsg->Buffer == 0 ) )
  41              		.loc 1 26 0
  42 0004 3DD0     		beq	.L6
  43              		.loc 1 26 0 is_stmt 0 discriminator 1
  44 0006 0168     		ldr	r1, [r0]
  45 0008 0029     		cmp	r1, #0
  46 000a 3AD0     		beq	.L6
  47              	.LVL1:
  27:../../../../../../Middlewares/Third_Party/LoRaWAN/Mac/LoRaMacParser.c ****     {
  28:../../../../../../Middlewares/Third_Party/LoRaWAN/Mac/LoRaMacParser.c ****         return LORAMAC_PARSER_ERROR_NPE;
  29:../../../../../../Middlewares/Third_Party/LoRaWAN/Mac/LoRaMacParser.c ****     }
  30:../../../../../../Middlewares/Third_Party/LoRaWAN/Mac/LoRaMacParser.c **** 
  31:../../../../../../Middlewares/Third_Party/LoRaWAN/Mac/LoRaMacParser.c ****     uint16_t bufItr = 0;
  32:../../../../../../Middlewares/Third_Party/LoRaWAN/Mac/LoRaMacParser.c **** 
  33:../../../../../../Middlewares/Third_Party/LoRaWAN/Mac/LoRaMacParser.c ****     macMsg->MHDR.Value = macMsg->Buffer[bufItr++];
  48              		.loc 1 33 0 is_stmt 1
  49 000c 0B78     		ldrb	r3, [r1]
  34:../../../../../../Middlewares/Third_Party/LoRaWAN/Mac/LoRaMacParser.c **** 
  35:../../../../../../Middlewares/Third_Party/LoRaWAN/Mac/LoRaMacParser.c ****     memcpy1( macMsg->JoinNonce, &macMsg->Buffer[bufItr], 3 );
  50              		.loc 1 35 0
  51 000e 0322     		movs	r2, #3
  33:../../../../../../Middlewares/Third_Party/LoRaWAN/Mac/LoRaMacParser.c **** 
  52              		.loc 1 33 0
  53 0010 4371     		strb	r3, [r0, #5]
  54              		.loc 1 35 0
  55 0012 0131     		adds	r1, r1, #1
  56 0014 0630     		adds	r0, r0, #6
  57              	.LVL2:
  58 0016 FFF7FEFF 		bl	memcpy1
  59              	.LVL3:
  36:../../../../../../Middlewares/Third_Party/LoRaWAN/Mac/LoRaMacParser.c ****     bufItr = bufItr + 3;
  37:../../../../../../Middlewares/Third_Party/LoRaWAN/Mac/LoRaMacParser.c **** 
  38:../../../../../../Middlewares/Third_Party/LoRaWAN/Mac/LoRaMacParser.c ****     memcpy1( macMsg->NetID, &macMsg->Buffer[bufItr], 3 );
  60              		.loc 1 38 0
  61 001a 2000     		movs	r0, r4
  62 001c 2368     		ldr	r3, [r4]
  63 001e 0322     		movs	r2, #3
  64 0020 191D     		adds	r1, r3, #4
  65 0022 0930     		adds	r0, r0, #9
  66 0024 FFF7FEFF 		bl	memcpy1
  67              	.LVL4:
  39:../../../../../../Middlewares/Third_Party/LoRaWAN/Mac/LoRaMacParser.c ****     bufItr = bufItr + 3;
  40:../../../../../../Middlewares/Third_Party/LoRaWAN/Mac/LoRaMacParser.c **** 
  41:../../../../../../Middlewares/Third_Party/LoRaWAN/Mac/LoRaMacParser.c ****     macMsg->DevAddr = ( uint32_t ) macMsg->Buffer[bufItr++];
  68              		.loc 1 41 0
  69 0028 2168     		ldr	r1, [r4]
  70              	.LVL5:
  71 002a CA79     		ldrb	r2, [r1, #7]
  72 002c E260     		str	r2, [r4, #12]
ARM GAS  C:\Users\EBANO_~1\AppData\Local\Temp\ccWJ4OLX.s 			page 3


  73              	.LVL6:
  42:../../../../../../Middlewares/Third_Party/LoRaWAN/Mac/LoRaMacParser.c ****     macMsg->DevAddr |= ( ( uint32_t ) macMsg->Buffer[bufItr++] << 8 );
  74              		.loc 1 42 0
  75 002e 0B7A     		ldrb	r3, [r1, #8]
  76 0030 1B02     		lsls	r3, r3, #8
  77 0032 1A43     		orrs	r2, r3
  78 0034 E260     		str	r2, [r4, #12]
  79              	.LVL7:
  43:../../../../../../Middlewares/Third_Party/LoRaWAN/Mac/LoRaMacParser.c ****     macMsg->DevAddr |= ( ( uint32_t ) macMsg->Buffer[bufItr++] << 16 );
  80              		.loc 1 43 0
  81 0036 4B7A     		ldrb	r3, [r1, #9]
  82 0038 1B04     		lsls	r3, r3, #16
  83 003a 1343     		orrs	r3, r2
  84 003c E360     		str	r3, [r4, #12]
  85              	.LVL8:
  44:../../../../../../Middlewares/Third_Party/LoRaWAN/Mac/LoRaMacParser.c ****     macMsg->DevAddr |= ( ( uint32_t ) macMsg->Buffer[bufItr++] << 24 );
  86              		.loc 1 44 0
  87 003e 8A7A     		ldrb	r2, [r1, #10]
  88 0040 1206     		lsls	r2, r2, #24
  89 0042 1343     		orrs	r3, r2
  90 0044 E360     		str	r3, [r4, #12]
  91              	.LVL9:
  45:../../../../../../Middlewares/Third_Party/LoRaWAN/Mac/LoRaMacParser.c **** 
  46:../../../../../../Middlewares/Third_Party/LoRaWAN/Mac/LoRaMacParser.c ****     macMsg->DLSettings.Value = macMsg->Buffer[bufItr++];
  92              		.loc 1 46 0
  93 0046 CB7A     		ldrb	r3, [r1, #11]
  94 0048 2374     		strb	r3, [r4, #16]
  95              	.LVL10:
  47:../../../../../../Middlewares/Third_Party/LoRaWAN/Mac/LoRaMacParser.c **** 
  48:../../../../../../Middlewares/Third_Party/LoRaWAN/Mac/LoRaMacParser.c ****     macMsg->RxDelay = macMsg->Buffer[bufItr++];
  96              		.loc 1 48 0
  97 004a 0B7B     		ldrb	r3, [r1, #12]
  98 004c 6374     		strb	r3, [r4, #17]
  49:../../../../../../Middlewares/Third_Party/LoRaWAN/Mac/LoRaMacParser.c **** 
  50:../../../../../../Middlewares/Third_Party/LoRaWAN/Mac/LoRaMacParser.c ****     if( ( macMsg->BufSize - LORAMAC_MIC_FIELD_SIZE - bufItr ) == LORAMAC_C_FLIST_FIELD_SIZE )
  99              		.loc 1 50 0
 100 004e 2379     		ldrb	r3, [r4, #4]
 101 0050 212B     		cmp	r3, #33
 102 0052 18D0     		beq	.L9
  51:../../../../../../Middlewares/Third_Party/LoRaWAN/Mac/LoRaMacParser.c ****     {
  52:../../../../../../Middlewares/Third_Party/LoRaWAN/Mac/LoRaMacParser.c ****         memcpy1( macMsg->CFList, &macMsg->Buffer[bufItr], LORAMAC_C_FLIST_FIELD_SIZE );
  53:../../../../../../Middlewares/Third_Party/LoRaWAN/Mac/LoRaMacParser.c ****         bufItr = bufItr + LORAMAC_C_FLIST_FIELD_SIZE;
  54:../../../../../../Middlewares/Third_Party/LoRaWAN/Mac/LoRaMacParser.c ****     }
  55:../../../../../../Middlewares/Third_Party/LoRaWAN/Mac/LoRaMacParser.c ****     else if( ( macMsg->BufSize - LORAMAC_MIC_FIELD_SIZE - bufItr ) > 0 )
  56:../../../../../../Middlewares/Third_Party/LoRaWAN/Mac/LoRaMacParser.c ****     {
  57:../../../../../../Middlewares/Third_Party/LoRaWAN/Mac/LoRaMacParser.c ****         return LORAMAC_PARSER_FAIL;
 103              		.loc 1 57 0
 104 0054 0120     		movs	r0, #1
  55:../../../../../../Middlewares/Third_Party/LoRaWAN/Mac/LoRaMacParser.c ****     {
 105              		.loc 1 55 0
 106 0056 112B     		cmp	r3, #17
 107 0058 12DC     		bgt	.L2
 108 005a 0F25     		movs	r5, #15
 109 005c 0E23     		movs	r3, #14
 110 005e 0D22     		movs	r2, #13
 111 0060 0F30     		adds	r0, r0, #15
 112              	.LVL11:
ARM GAS  C:\Users\EBANO_~1\AppData\Local\Temp\ccWJ4OLX.s 			page 4


 113              	.L4:
  58:../../../../../../Middlewares/Third_Party/LoRaWAN/Mac/LoRaMacParser.c ****     }
  59:../../../../../../Middlewares/Third_Party/LoRaWAN/Mac/LoRaMacParser.c **** 
  60:../../../../../../Middlewares/Third_Party/LoRaWAN/Mac/LoRaMacParser.c ****     macMsg->MIC = ( uint32_t ) macMsg->Buffer[bufItr++];
 114              		.loc 1 60 0
 115 0062 8A5C     		ldrb	r2, [r1, r2]
 116 0064 6262     		str	r2, [r4, #36]
  61:../../../../../../Middlewares/Third_Party/LoRaWAN/Mac/LoRaMacParser.c ****     macMsg->MIC |= ( ( uint32_t ) macMsg->Buffer[bufItr++] << 8 );
 117              		.loc 1 61 0
 118 0066 CB5C     		ldrb	r3, [r1, r3]
 119 0068 1B02     		lsls	r3, r3, #8
 120 006a 1A43     		orrs	r2, r3
 121 006c 6262     		str	r2, [r4, #36]
  62:../../../../../../Middlewares/Third_Party/LoRaWAN/Mac/LoRaMacParser.c ****     macMsg->MIC |= ( ( uint32_t ) macMsg->Buffer[bufItr++] << 16 );
 122              		.loc 1 62 0
 123 006e 4B5D     		ldrb	r3, [r1, r5]
 124 0070 1B04     		lsls	r3, r3, #16
 125 0072 1343     		orrs	r3, r2
 126 0074 6362     		str	r3, [r4, #36]
  63:../../../../../../Middlewares/Third_Party/LoRaWAN/Mac/LoRaMacParser.c ****     macMsg->MIC |= ( ( uint32_t ) macMsg->Buffer[bufItr++] << 24 );
 127              		.loc 1 63 0
 128 0076 0A5C     		ldrb	r2, [r1, r0]
  64:../../../../../../Middlewares/Third_Party/LoRaWAN/Mac/LoRaMacParser.c **** 
  65:../../../../../../Middlewares/Third_Party/LoRaWAN/Mac/LoRaMacParser.c ****     return LORAMAC_PARSER_SUCCESS;
 129              		.loc 1 65 0
 130 0078 0020     		movs	r0, #0
  63:../../../../../../Middlewares/Third_Party/LoRaWAN/Mac/LoRaMacParser.c ****     macMsg->MIC |= ( ( uint32_t ) macMsg->Buffer[bufItr++] << 24 );
 131              		.loc 1 63 0
 132 007a 1206     		lsls	r2, r2, #24
 133 007c 1343     		orrs	r3, r2
 134 007e 6362     		str	r3, [r4, #36]
 135              	.L2:
  66:../../../../../../Middlewares/Third_Party/LoRaWAN/Mac/LoRaMacParser.c **** }
 136              		.loc 1 66 0
 137              		@ sp needed
 138              	.LVL12:
 139 0080 70BD     		pop	{r4, r5, r6, pc}
 140              	.LVL13:
 141              	.L6:
  28:../../../../../../Middlewares/Third_Party/LoRaWAN/Mac/LoRaMacParser.c ****     }
 142              		.loc 1 28 0
 143 0082 0220     		movs	r0, #2
 144              	.LVL14:
 145 0084 FCE7     		b	.L2
 146              	.LVL15:
 147              	.L9:
  52:../../../../../../Middlewares/Third_Party/LoRaWAN/Mac/LoRaMacParser.c ****         bufItr = bufItr + LORAMAC_C_FLIST_FIELD_SIZE;
 148              		.loc 1 52 0
 149 0086 2000     		movs	r0, r4
 150 0088 0D31     		adds	r1, r1, #13
 151 008a 1022     		movs	r2, #16
 152 008c 1230     		adds	r0, r0, #18
 153 008e FFF7FEFF 		bl	memcpy1
 154              	.LVL16:
 155 0092 1F25     		movs	r5, #31
 156 0094 2168     		ldr	r1, [r4]
 157 0096 2020     		movs	r0, #32
ARM GAS  C:\Users\EBANO_~1\AppData\Local\Temp\ccWJ4OLX.s 			page 5


 158 0098 1E23     		movs	r3, #30
 159 009a 1D22     		movs	r2, #29
 160 009c E1E7     		b	.L4
 161              		.cfi_endproc
 162              	.LFE39:
 163              		.size	LoRaMacParserJoinAccept, .-LoRaMacParserJoinAccept
 164 009e C046     		.section	.text.LoRaMacParserData,"ax",%progbits
 165              		.align	1
 166              		.p2align 2,,3
 167              		.global	LoRaMacParserData
 168              		.syntax unified
 169              		.code	16
 170              		.thumb_func
 171              		.fpu softvfp
 172              		.type	LoRaMacParserData, %function
 173              	LoRaMacParserData:
 174              	.LFB40:
  67:../../../../../../Middlewares/Third_Party/LoRaWAN/Mac/LoRaMacParser.c **** 
  68:../../../../../../Middlewares/Third_Party/LoRaWAN/Mac/LoRaMacParser.c **** LoRaMacParserStatus_t LoRaMacParserData( LoRaMacMessageData_t* macMsg )
  69:../../../../../../Middlewares/Third_Party/LoRaWAN/Mac/LoRaMacParser.c **** {
 175              		.loc 1 69 0
 176              		.cfi_startproc
 177              		@ args = 0, pretend = 0, frame = 0
 178              		@ frame_needed = 0, uses_anonymous_args = 0
 179              	.LVL17:
 180 0000 F8B5     		push	{r3, r4, r5, r6, r7, lr}
 181              	.LCFI1:
 182              		.cfi_def_cfa_offset 24
 183              		.cfi_offset 3, -24
 184              		.cfi_offset 4, -20
 185              		.cfi_offset 5, -16
 186              		.cfi_offset 6, -12
 187              		.cfi_offset 7, -8
 188              		.cfi_offset 14, -4
 189              		.loc 1 69 0
 190 0002 041E     		subs	r4, r0, #0
  70:../../../../../../Middlewares/Third_Party/LoRaWAN/Mac/LoRaMacParser.c ****     if( ( macMsg == 0 ) || ( macMsg->Buffer == 0 ) )
 191              		.loc 1 70 0
 192 0004 46D0     		beq	.L14
 193              		.loc 1 70 0 is_stmt 0 discriminator 1
 194 0006 0168     		ldr	r1, [r0]
 195 0008 0029     		cmp	r1, #0
 196 000a 43D0     		beq	.L14
 197              	.LVL18:
  71:../../../../../../Middlewares/Third_Party/LoRaWAN/Mac/LoRaMacParser.c ****     {
  72:../../../../../../Middlewares/Third_Party/LoRaWAN/Mac/LoRaMacParser.c ****         return LORAMAC_PARSER_ERROR_NPE;
  73:../../../../../../Middlewares/Third_Party/LoRaWAN/Mac/LoRaMacParser.c ****     }
  74:../../../../../../Middlewares/Third_Party/LoRaWAN/Mac/LoRaMacParser.c **** 
  75:../../../../../../Middlewares/Third_Party/LoRaWAN/Mac/LoRaMacParser.c ****     uint16_t bufItr = 0;
  76:../../../../../../Middlewares/Third_Party/LoRaWAN/Mac/LoRaMacParser.c **** 
  77:../../../../../../Middlewares/Third_Party/LoRaWAN/Mac/LoRaMacParser.c ****     macMsg->MHDR.Value = macMsg->Buffer[bufItr++];
 198              		.loc 1 77 0 is_stmt 1
 199 000c 0B78     		ldrb	r3, [r1]
  78:../../../../../../Middlewares/Third_Party/LoRaWAN/Mac/LoRaMacParser.c **** 
  79:../../../../../../Middlewares/Third_Party/LoRaWAN/Mac/LoRaMacParser.c ****     macMsg->FHDR.DevAddr = macMsg->Buffer[bufItr++];
  80:../../../../../../Middlewares/Third_Party/LoRaWAN/Mac/LoRaMacParser.c ****     macMsg->FHDR.DevAddr |= ( ( uint32_t ) macMsg->Buffer[bufItr++] << 8 );
  81:../../../../../../Middlewares/Third_Party/LoRaWAN/Mac/LoRaMacParser.c ****     macMsg->FHDR.DevAddr |= ( ( uint32_t ) macMsg->Buffer[bufItr++] << 16 );
ARM GAS  C:\Users\EBANO_~1\AppData\Local\Temp\ccWJ4OLX.s 			page 6


  82:../../../../../../Middlewares/Third_Party/LoRaWAN/Mac/LoRaMacParser.c ****     macMsg->FHDR.DevAddr |= ( ( uint32_t ) macMsg->Buffer[bufItr++] << 24 );
  83:../../../../../../Middlewares/Third_Party/LoRaWAN/Mac/LoRaMacParser.c **** 
  84:../../../../../../Middlewares/Third_Party/LoRaWAN/Mac/LoRaMacParser.c ****     macMsg->FHDR.FCtrl.Value = macMsg->Buffer[bufItr++];
  85:../../../../../../Middlewares/Third_Party/LoRaWAN/Mac/LoRaMacParser.c **** 
  86:../../../../../../Middlewares/Third_Party/LoRaWAN/Mac/LoRaMacParser.c ****     macMsg->FHDR.FCnt = macMsg->Buffer[bufItr++];
  87:../../../../../../Middlewares/Third_Party/LoRaWAN/Mac/LoRaMacParser.c ****     macMsg->FHDR.FCnt |= macMsg->Buffer[bufItr++] << 8;
  88:../../../../../../Middlewares/Third_Party/LoRaWAN/Mac/LoRaMacParser.c **** 
  89:../../../../../../Middlewares/Third_Party/LoRaWAN/Mac/LoRaMacParser.c ****     if( macMsg->FHDR.FCtrl.Bits.FOptsLen <= 15 )
  90:../../../../../../Middlewares/Third_Party/LoRaWAN/Mac/LoRaMacParser.c ****     {
  91:../../../../../../Middlewares/Third_Party/LoRaWAN/Mac/LoRaMacParser.c ****         memcpy1( macMsg->FHDR.FOpts, &macMsg->Buffer[bufItr], macMsg->FHDR.FCtrl.Bits.FOptsLen );
  92:../../../../../../Middlewares/Third_Party/LoRaWAN/Mac/LoRaMacParser.c ****         bufItr = bufItr + macMsg->FHDR.FCtrl.Bits.FOptsLen;
  93:../../../../../../Middlewares/Third_Party/LoRaWAN/Mac/LoRaMacParser.c ****     }
  94:../../../../../../Middlewares/Third_Party/LoRaWAN/Mac/LoRaMacParser.c ****     else
  95:../../../../../../Middlewares/Third_Party/LoRaWAN/Mac/LoRaMacParser.c ****     {
  96:../../../../../../Middlewares/Third_Party/LoRaWAN/Mac/LoRaMacParser.c ****         return LORAMAC_PARSER_FAIL;
  97:../../../../../../Middlewares/Third_Party/LoRaWAN/Mac/LoRaMacParser.c ****     }
  98:../../../../../../Middlewares/Third_Party/LoRaWAN/Mac/LoRaMacParser.c **** 
  99:../../../../../../Middlewares/Third_Party/LoRaWAN/Mac/LoRaMacParser.c ****     // Initialize anyway with zero.
 100:../../../../../../Middlewares/Third_Party/LoRaWAN/Mac/LoRaMacParser.c ****     macMsg->FPort = 0;
 200              		.loc 1 100 0
 201 000e 2026     		movs	r6, #32
  77:../../../../../../Middlewares/Third_Party/LoRaWAN/Mac/LoRaMacParser.c **** 
 202              		.loc 1 77 0
 203 0010 4371     		strb	r3, [r0, #5]
 204              	.LVL19:
  79:../../../../../../Middlewares/Third_Party/LoRaWAN/Mac/LoRaMacParser.c ****     macMsg->FHDR.DevAddr |= ( ( uint32_t ) macMsg->Buffer[bufItr++] << 8 );
 205              		.loc 1 79 0
 206 0012 4A78     		ldrb	r2, [r1, #1]
 101:../../../../../../Middlewares/Third_Party/LoRaWAN/Mac/LoRaMacParser.c ****     macMsg->FRMPayloadSize = 0;
 207              		.loc 1 101 0
 208 0014 2825     		movs	r5, #40
  79:../../../../../../Middlewares/Third_Party/LoRaWAN/Mac/LoRaMacParser.c ****     macMsg->FHDR.DevAddr |= ( ( uint32_t ) macMsg->Buffer[bufItr++] << 8 );
 209              		.loc 1 79 0
 210 0016 8260     		str	r2, [r0, #8]
 211              	.LVL20:
  80:../../../../../../Middlewares/Third_Party/LoRaWAN/Mac/LoRaMacParser.c ****     macMsg->FHDR.DevAddr |= ( ( uint32_t ) macMsg->Buffer[bufItr++] << 16 );
 212              		.loc 1 80 0
 213 0018 8B78     		ldrb	r3, [r1, #2]
 214 001a 1B02     		lsls	r3, r3, #8
 215 001c 1A43     		orrs	r2, r3
 216 001e 8260     		str	r2, [r0, #8]
 217              	.LVL21:
  81:../../../../../../Middlewares/Third_Party/LoRaWAN/Mac/LoRaMacParser.c ****     macMsg->FHDR.DevAddr |= ( ( uint32_t ) macMsg->Buffer[bufItr++] << 24 );
 218              		.loc 1 81 0
 219 0020 CB78     		ldrb	r3, [r1, #3]
 220 0022 1B04     		lsls	r3, r3, #16
 221 0024 1343     		orrs	r3, r2
 222 0026 8360     		str	r3, [r0, #8]
 223              	.LVL22:
  82:../../../../../../Middlewares/Third_Party/LoRaWAN/Mac/LoRaMacParser.c **** 
 224              		.loc 1 82 0
 225 0028 0A79     		ldrb	r2, [r1, #4]
 226 002a 1206     		lsls	r2, r2, #24
 227 002c 1343     		orrs	r3, r2
 228 002e 8360     		str	r3, [r0, #8]
 229              	.LVL23:
  84:../../../../../../Middlewares/Third_Party/LoRaWAN/Mac/LoRaMacParser.c **** 
ARM GAS  C:\Users\EBANO_~1\AppData\Local\Temp\ccWJ4OLX.s 			page 7


 230              		.loc 1 84 0
 231 0030 4B79     		ldrb	r3, [r1, #5]
 232 0032 0373     		strb	r3, [r0, #12]
 233              	.LVL24:
  86:../../../../../../Middlewares/Third_Party/LoRaWAN/Mac/LoRaMacParser.c ****     macMsg->FHDR.FCnt |= macMsg->Buffer[bufItr++] << 8;
 234              		.loc 1 86 0
 235 0034 8B79     		ldrb	r3, [r1, #6]
 236 0036 C381     		strh	r3, [r0, #14]
 237              	.LVL25:
  87:../../../../../../Middlewares/Third_Party/LoRaWAN/Mac/LoRaMacParser.c **** 
 238              		.loc 1 87 0
 239 0038 CA79     		ldrb	r2, [r1, #7]
  91:../../../../../../Middlewares/Third_Party/LoRaWAN/Mac/LoRaMacParser.c ****         bufItr = bufItr + macMsg->FHDR.FCtrl.Bits.FOptsLen;
 240              		.loc 1 91 0
 241 003a 0831     		adds	r1, r1, #8
  87:../../../../../../Middlewares/Third_Party/LoRaWAN/Mac/LoRaMacParser.c **** 
 242              		.loc 1 87 0
 243 003c 1202     		lsls	r2, r2, #8
 244 003e 1343     		orrs	r3, r2
  91:../../../../../../Middlewares/Third_Party/LoRaWAN/Mac/LoRaMacParser.c ****         bufItr = bufItr + macMsg->FHDR.FCtrl.Bits.FOptsLen;
 245              		.loc 1 91 0
 246 0040 027B     		ldrb	r2, [r0, #12]
  87:../../../../../../Middlewares/Third_Party/LoRaWAN/Mac/LoRaMacParser.c **** 
 247              		.loc 1 87 0
 248 0042 C381     		strh	r3, [r0, #14]
  91:../../../../../../Middlewares/Third_Party/LoRaWAN/Mac/LoRaMacParser.c ****         bufItr = bufItr + macMsg->FHDR.FCtrl.Bits.FOptsLen;
 249              		.loc 1 91 0
 250 0044 1207     		lsls	r2, r2, #28
 251 0046 120F     		lsrs	r2, r2, #28
 252 0048 1030     		adds	r0, r0, #16
 253              	.LVL26:
 254 004a FFF7FEFF 		bl	memcpy1
 255              	.LVL27:
  92:../../../../../../Middlewares/Third_Party/LoRaWAN/Mac/LoRaMacParser.c ****     }
 256              		.loc 1 92 0
 257 004e 227B     		ldrb	r2, [r4, #12]
 100:../../../../../../Middlewares/Third_Party/LoRaWAN/Mac/LoRaMacParser.c ****     macMsg->FRMPayloadSize = 0;
 258              		.loc 1 100 0
 259 0050 0023     		movs	r3, #0
  92:../../../../../../Middlewares/Third_Party/LoRaWAN/Mac/LoRaMacParser.c ****     }
 260              		.loc 1 92 0
 261 0052 1207     		lsls	r2, r2, #28
 262 0054 120F     		lsrs	r2, r2, #28
 263 0056 1700     		movs	r7, r2
 100:../../../../../../Middlewares/Third_Party/LoRaWAN/Mac/LoRaMacParser.c ****     macMsg->FRMPayloadSize = 0;
 264              		.loc 1 100 0
 265 0058 A355     		strb	r3, [r4, r6]
 266              		.loc 1 101 0
 267 005a 6355     		strb	r3, [r4, r5]
 102:../../../../../../Middlewares/Third_Party/LoRaWAN/Mac/LoRaMacParser.c **** 
 103:../../../../../../Middlewares/Third_Party/LoRaWAN/Mac/LoRaMacParser.c ****     if( ( macMsg->BufSize - bufItr - LORAMAC_MIC_FIELD_SIZE ) > 0 )
 268              		.loc 1 103 0
 269 005c 2379     		ldrb	r3, [r4, #4]
  92:../../../../../../Middlewares/Third_Party/LoRaWAN/Mac/LoRaMacParser.c ****     }
 270              		.loc 1 92 0
 271 005e 0837     		adds	r7, r7, #8
 272              	.LVL28:
ARM GAS  C:\Users\EBANO_~1\AppData\Local\Temp\ccWJ4OLX.s 			page 8


 273              		.loc 1 103 0
 274 0060 D91B     		subs	r1, r3, r7
 275 0062 0429     		cmp	r1, #4
 276 0064 18DC     		bgt	.L15
 277              	.LVL29:
 278              	.L12:
 104:../../../../../../Middlewares/Third_Party/LoRaWAN/Mac/LoRaMacParser.c ****     {
 105:../../../../../../Middlewares/Third_Party/LoRaWAN/Mac/LoRaMacParser.c ****         macMsg->FPort = macMsg->Buffer[bufItr++];
 106:../../../../../../Middlewares/Third_Party/LoRaWAN/Mac/LoRaMacParser.c **** 
 107:../../../../../../Middlewares/Third_Party/LoRaWAN/Mac/LoRaMacParser.c ****         macMsg->FRMPayloadSize = ( macMsg->BufSize - bufItr - LORAMAC_MIC_FIELD_SIZE );
 108:../../../../../../Middlewares/Third_Party/LoRaWAN/Mac/LoRaMacParser.c ****         memcpy1( macMsg->FRMPayload, &macMsg->Buffer[bufItr], macMsg->FRMPayloadSize );
 109:../../../../../../Middlewares/Third_Party/LoRaWAN/Mac/LoRaMacParser.c ****         bufItr = bufItr + macMsg->FRMPayloadSize;
 110:../../../../../../Middlewares/Third_Party/LoRaWAN/Mac/LoRaMacParser.c ****     }
 111:../../../../../../Middlewares/Third_Party/LoRaWAN/Mac/LoRaMacParser.c **** 
 112:../../../../../../Middlewares/Third_Party/LoRaWAN/Mac/LoRaMacParser.c ****     macMsg->MIC = ( uint32_t ) macMsg->Buffer[( macMsg->BufSize - LORAMAC_MIC_FIELD_SIZE )];
 279              		.loc 1 112 0
 280 0066 2268     		ldr	r2, [r4]
 113:../../../../../../Middlewares/Third_Party/LoRaWAN/Mac/LoRaMacParser.c ****     macMsg->MIC |= ( ( uint32_t ) macMsg->Buffer[( macMsg->BufSize - LORAMAC_MIC_FIELD_SIZE ) + 1] 
 114:../../../../../../Middlewares/Third_Party/LoRaWAN/Mac/LoRaMacParser.c ****     macMsg->MIC |= ( ( uint32_t ) macMsg->Buffer[( macMsg->BufSize - LORAMAC_MIC_FIELD_SIZE ) + 2] 
 115:../../../../../../Middlewares/Third_Party/LoRaWAN/Mac/LoRaMacParser.c ****     macMsg->MIC |= ( ( uint32_t ) macMsg->Buffer[( macMsg->BufSize - LORAMAC_MIC_FIELD_SIZE ) + 3] 
 116:../../../../../../Middlewares/Third_Party/LoRaWAN/Mac/LoRaMacParser.c **** 
 117:../../../../../../Middlewares/Third_Party/LoRaWAN/Mac/LoRaMacParser.c ****     return LORAMAC_PARSER_SUCCESS;
 281              		.loc 1 117 0
 282 0068 0020     		movs	r0, #0
 112:../../../../../../Middlewares/Third_Party/LoRaWAN/Mac/LoRaMacParser.c ****     macMsg->MIC |= ( ( uint32_t ) macMsg->Buffer[( macMsg->BufSize - LORAMAC_MIC_FIELD_SIZE ) + 1] 
 283              		.loc 1 112 0
 284 006a 9446     		mov	ip, r2
 285 006c 6344     		add	r3, r3, ip
 286 006e 1A1F     		subs	r2, r3, #4
 287 0070 1178     		ldrb	r1, [r2]
 113:../../../../../../Middlewares/Third_Party/LoRaWAN/Mac/LoRaMacParser.c ****     macMsg->MIC |= ( ( uint32_t ) macMsg->Buffer[( macMsg->BufSize - LORAMAC_MIC_FIELD_SIZE ) + 1] 
 288              		.loc 1 113 0
 289 0072 DA1E     		subs	r2, r3, #3
 112:../../../../../../Middlewares/Third_Party/LoRaWAN/Mac/LoRaMacParser.c ****     macMsg->MIC |= ( ( uint32_t ) macMsg->Buffer[( macMsg->BufSize - LORAMAC_MIC_FIELD_SIZE ) + 1] 
 290              		.loc 1 112 0
 291 0074 E162     		str	r1, [r4, #44]
 113:../../../../../../Middlewares/Third_Party/LoRaWAN/Mac/LoRaMacParser.c ****     macMsg->MIC |= ( ( uint32_t ) macMsg->Buffer[( macMsg->BufSize - LORAMAC_MIC_FIELD_SIZE ) + 1] 
 292              		.loc 1 113 0
 293 0076 1278     		ldrb	r2, [r2]
 294 0078 1202     		lsls	r2, r2, #8
 295 007a 1143     		orrs	r1, r2
 296 007c E162     		str	r1, [r4, #44]
 114:../../../../../../Middlewares/Third_Party/LoRaWAN/Mac/LoRaMacParser.c ****     macMsg->MIC |= ( ( uint32_t ) macMsg->Buffer[( macMsg->BufSize - LORAMAC_MIC_FIELD_SIZE ) + 3] 
 297              		.loc 1 114 0
 298 007e 9A1E     		subs	r2, r3, #2
 299 0080 1278     		ldrb	r2, [r2]
 115:../../../../../../Middlewares/Third_Party/LoRaWAN/Mac/LoRaMacParser.c **** 
 300              		.loc 1 115 0
 301 0082 013B     		subs	r3, r3, #1
 114:../../../../../../Middlewares/Third_Party/LoRaWAN/Mac/LoRaMacParser.c ****     macMsg->MIC |= ( ( uint32_t ) macMsg->Buffer[( macMsg->BufSize - LORAMAC_MIC_FIELD_SIZE ) + 3] 
 302              		.loc 1 114 0
 303 0084 1204     		lsls	r2, r2, #16
 304 0086 0A43     		orrs	r2, r1
 305 0088 E262     		str	r2, [r4, #44]
 115:../../../../../../Middlewares/Third_Party/LoRaWAN/Mac/LoRaMacParser.c **** 
 306              		.loc 1 115 0
 307 008a 1B78     		ldrb	r3, [r3]
ARM GAS  C:\Users\EBANO_~1\AppData\Local\Temp\ccWJ4OLX.s 			page 9


 308 008c 1B06     		lsls	r3, r3, #24
 309 008e 1A43     		orrs	r2, r3
 310 0090 E262     		str	r2, [r4, #44]
 311              	.L11:
 118:../../../../../../Middlewares/Third_Party/LoRaWAN/Mac/LoRaMacParser.c **** }
 312              		.loc 1 118 0
 313              		@ sp needed
 314              	.LVL30:
 315 0092 F8BD     		pop	{r3, r4, r5, r6, r7, pc}
 316              	.LVL31:
 317              	.L14:
  72:../../../../../../Middlewares/Third_Party/LoRaWAN/Mac/LoRaMacParser.c ****     }
 318              		.loc 1 72 0
 319 0094 0220     		movs	r0, #2
 320              	.LVL32:
 321 0096 FCE7     		b	.L11
 322              	.LVL33:
 323              	.L15:
 105:../../../../../../Middlewares/Third_Party/LoRaWAN/Mac/LoRaMacParser.c **** 
 324              		.loc 1 105 0
 325 0098 0932     		adds	r2, r2, #9
 326 009a 1100     		movs	r1, r2
 327              	.LVL34:
 328 009c 2068     		ldr	r0, [r4]
 107:../../../../../../Middlewares/Third_Party/LoRaWAN/Mac/LoRaMacParser.c ****         memcpy1( macMsg->FRMPayload, &macMsg->Buffer[bufItr], macMsg->FRMPayloadSize );
 329              		.loc 1 107 0
 330 009e 043B     		subs	r3, r3, #4
 105:../../../../../../Middlewares/Third_Party/LoRaWAN/Mac/LoRaMacParser.c **** 
 331              		.loc 1 105 0
 332 00a0 C25D     		ldrb	r2, [r0, r7]
 107:../../../../../../Middlewares/Third_Party/LoRaWAN/Mac/LoRaMacParser.c ****         memcpy1( macMsg->FRMPayload, &macMsg->Buffer[bufItr], macMsg->FRMPayloadSize );
 333              		.loc 1 107 0
 334 00a2 5B1A     		subs	r3, r3, r1
 335 00a4 DBB2     		uxtb	r3, r3
 105:../../../../../../Middlewares/Third_Party/LoRaWAN/Mac/LoRaMacParser.c **** 
 336              		.loc 1 105 0
 337 00a6 A255     		strb	r2, [r4, r6]
 107:../../../../../../Middlewares/Third_Party/LoRaWAN/Mac/LoRaMacParser.c ****         memcpy1( macMsg->FRMPayload, &macMsg->Buffer[bufItr], macMsg->FRMPayloadSize );
 338              		.loc 1 107 0
 339 00a8 6355     		strb	r3, [r4, r5]
 108:../../../../../../Middlewares/Third_Party/LoRaWAN/Mac/LoRaMacParser.c ****         bufItr = bufItr + macMsg->FRMPayloadSize;
 340              		.loc 1 108 0
 341 00aa 9AB2     		uxth	r2, r3
 342 00ac 4118     		adds	r1, r0, r1
 343              	.LVL35:
 344 00ae 606A     		ldr	r0, [r4, #36]
 345 00b0 FFF7FEFF 		bl	memcpy1
 346              	.LVL36:
 347 00b4 2379     		ldrb	r3, [r4, #4]
 348 00b6 D6E7     		b	.L12
 349              		.cfi_endproc
 350              	.LFE40:
 351              		.size	LoRaMacParserData, .-LoRaMacParserData
 352              		.text
 353              	.Letext0:
 354              		.file 2 "c:\\program files (x86)\\gnu tools arm embedded\\7 2018-q2-update\\arm-none-eabi\\include
 355              		.file 3 "c:\\program files (x86)\\gnu tools arm embedded\\7 2018-q2-update\\arm-none-eabi\\include
ARM GAS  C:\Users\EBANO_~1\AppData\Local\Temp\ccWJ4OLX.s 			page 10


 356              		.file 4 "../../../../../../Middlewares/Third_Party/LoRaWAN/Mac/LoRaMacHeaderTypes.h"
 357              		.file 5 "../../../../../../Middlewares/Third_Party/LoRaWAN/Mac/LoRaMacMessageTypes.h"
 358              		.file 6 "../../../../../../Middlewares/Third_Party/LoRaWAN/Mac/LoRaMacParser.h"
 359              		.file 7 "../../../../../../Drivers/CMSIS/Device/ST/STM32L0xx/Include/system_stm32l0xx.h"
 360              		.file 8 "c:\\program files (x86)\\gnu tools arm embedded\\7 2018-q2-update\\arm-none-eabi\\include
 361              		.file 9 "c:\\program files (x86)\\gnu tools arm embedded\\7 2018-q2-update\\arm-none-eabi\\include
 362              		.file 10 "c:\\program files (x86)\\gnu tools arm embedded\\7 2018-q2-update\\lib\\gcc\\arm-none-ea
 363              		.file 11 "c:\\program files (x86)\\gnu tools arm embedded\\7 2018-q2-update\\arm-none-eabi\\includ
 364              		.file 12 "c:\\program files (x86)\\gnu tools arm embedded\\7 2018-q2-update\\arm-none-eabi\\includ
 365              		.file 13 "../../../../../../Middlewares/Third_Party/LoRaWAN/Utilities/utilities.h"
 366              		.section	.debug_info,"",%progbits
 367              	.Ldebug_info0:
 368 0000 8C0E0000 		.4byte	0xe8c
 369 0004 0200     		.2byte	0x2
 370 0006 00000000 		.4byte	.Ldebug_abbrev0
 371 000a 04       		.byte	0x4
 372 000b 01       		.uleb128 0x1
 373 000c AE040000 		.4byte	.LASF182
 374 0010 0C       		.byte	0xc
 375 0011 6F030000 		.4byte	.LASF183
 376 0015 DF070000 		.4byte	.LASF184
 377 0019 00000000 		.4byte	.Ldebug_ranges0+0
 378 001d 00000000 		.4byte	0
 379 0021 00000000 		.4byte	0
 380 0025 00000000 		.4byte	.Ldebug_line0
 381 0029 02       		.uleb128 0x2
 382 002a 01       		.byte	0x1
 383 002b 06       		.byte	0x6
 384 002c 33010000 		.4byte	.LASF0
 385 0030 03       		.uleb128 0x3
 386 0031 4D000000 		.4byte	.LASF3
 387 0035 02       		.byte	0x2
 388 0036 2B       		.byte	0x2b
 389 0037 3B000000 		.4byte	0x3b
 390 003b 02       		.uleb128 0x2
 391 003c 01       		.byte	0x1
 392 003d 08       		.byte	0x8
 393 003e 61050000 		.4byte	.LASF1
 394 0042 02       		.uleb128 0x2
 395 0043 02       		.byte	0x2
 396 0044 05       		.byte	0x5
 397 0045 15000000 		.4byte	.LASF2
 398 0049 03       		.uleb128 0x3
 399 004a AA060000 		.4byte	.LASF4
 400 004e 02       		.byte	0x2
 401 004f 39       		.byte	0x39
 402 0050 54000000 		.4byte	0x54
 403 0054 02       		.uleb128 0x2
 404 0055 02       		.byte	0x2
 405 0056 07       		.byte	0x7
 406 0057 FA060000 		.4byte	.LASF5
 407 005b 02       		.uleb128 0x2
 408 005c 04       		.byte	0x4
 409 005d 05       		.byte	0x5
 410 005e 8C010000 		.4byte	.LASF6
 411 0062 03       		.uleb128 0x3
 412 0063 3A020000 		.4byte	.LASF7
ARM GAS  C:\Users\EBANO_~1\AppData\Local\Temp\ccWJ4OLX.s 			page 11


 413 0067 02       		.byte	0x2
 414 0068 4F       		.byte	0x4f
 415 0069 6D000000 		.4byte	0x6d
 416 006d 02       		.uleb128 0x2
 417 006e 04       		.byte	0x4
 418 006f 07       		.byte	0x7
 419 0070 CB020000 		.4byte	.LASF8
 420 0074 02       		.uleb128 0x2
 421 0075 08       		.byte	0x8
 422 0076 05       		.byte	0x5
 423 0077 B5010000 		.4byte	.LASF9
 424 007b 02       		.uleb128 0x2
 425 007c 08       		.byte	0x8
 426 007d 07       		.byte	0x7
 427 007e AB000000 		.4byte	.LASF10
 428 0082 04       		.uleb128 0x4
 429 0083 04       		.byte	0x4
 430 0084 05       		.byte	0x5
 431 0085 696E7400 		.ascii	"int\000"
 432 0089 02       		.uleb128 0x2
 433 008a 04       		.byte	0x4
 434 008b 07       		.byte	0x7
 435 008c 9D060000 		.4byte	.LASF11
 436 0090 03       		.uleb128 0x3
 437 0091 B1070000 		.4byte	.LASF12
 438 0095 03       		.byte	0x3
 439 0096 18       		.byte	0x18
 440 0097 30000000 		.4byte	0x30
 441 009b 05       		.uleb128 0x5
 442 009c 90000000 		.4byte	0x90
 443 00a0 03       		.uleb128 0x3
 444 00a1 C3010000 		.4byte	.LASF13
 445 00a5 03       		.byte	0x3
 446 00a6 24       		.byte	0x24
 447 00a7 49000000 		.4byte	0x49
 448 00ab 03       		.uleb128 0x3
 449 00ac 5C070000 		.4byte	.LASF14
 450 00b0 03       		.byte	0x3
 451 00b1 30       		.byte	0x30
 452 00b2 62000000 		.4byte	0x62
 453 00b6 06       		.uleb128 0x6
 454 00b7 C2080000 		.4byte	.LASF21
 455 00bb 01       		.byte	0x1
 456 00bc 04       		.byte	0x4
 457 00bd 48       		.byte	0x48
 458 00be F6000000 		.4byte	0xf6
 459 00c2 07       		.uleb128 0x7
 460 00c3 36000000 		.4byte	.LASF15
 461 00c7 04       		.byte	0x4
 462 00c8 4D       		.byte	0x4d
 463 00c9 90000000 		.4byte	0x90
 464 00cd 01       		.byte	0x1
 465 00ce 04       		.byte	0x4
 466 00cf 04       		.byte	0x4
 467 00d0 02       		.byte	0x2
 468 00d1 23       		.byte	0x23
 469 00d2 00       		.uleb128 0
ARM GAS  C:\Users\EBANO_~1\AppData\Local\Temp\ccWJ4OLX.s 			page 12


 470 00d3 07       		.uleb128 0x7
 471 00d4 1F030000 		.4byte	.LASF16
 472 00d8 04       		.byte	0x4
 473 00d9 51       		.byte	0x51
 474 00da 90000000 		.4byte	0x90
 475 00de 01       		.byte	0x1
 476 00df 03       		.byte	0x3
 477 00e0 01       		.byte	0x1
 478 00e1 02       		.byte	0x2
 479 00e2 23       		.byte	0x23
 480 00e3 00       		.uleb128 0
 481 00e4 07       		.uleb128 0x7
 482 00e5 6D020000 		.4byte	.LASF17
 483 00e9 04       		.byte	0x4
 484 00ea 55       		.byte	0x55
 485 00eb 90000000 		.4byte	0x90
 486 00ef 01       		.byte	0x1
 487 00f0 01       		.byte	0x1
 488 00f1 00       		.byte	0
 489 00f2 02       		.byte	0x2
 490 00f3 23       		.byte	0x23
 491 00f4 00       		.uleb128 0
 492 00f5 00       		.byte	0
 493 00f6 08       		.uleb128 0x8
 494 00f7 60080000 		.4byte	.LASF25
 495 00fb 01       		.byte	0x1
 496 00fc 04       		.byte	0x4
 497 00fd 3F       		.byte	0x3f
 498 00fe 19010000 		.4byte	0x119
 499 0102 09       		.uleb128 0x9
 500 0103 AB070000 		.4byte	.LASF18
 501 0107 04       		.byte	0x4
 502 0108 44       		.byte	0x44
 503 0109 90000000 		.4byte	0x90
 504 010d 09       		.uleb128 0x9
 505 010e 12060000 		.4byte	.LASF19
 506 0112 04       		.byte	0x4
 507 0113 56       		.byte	0x56
 508 0114 B6000000 		.4byte	0xb6
 509 0118 00       		.byte	0
 510 0119 03       		.uleb128 0x3
 511 011a 01010000 		.4byte	.LASF20
 512 011e 04       		.byte	0x4
 513 011f 57       		.byte	0x57
 514 0120 F6000000 		.4byte	0xf6
 515 0124 06       		.uleb128 0x6
 516 0125 5E040000 		.4byte	.LASF22
 517 0129 01       		.byte	0x1
 518 012a 04       		.byte	0x4
 519 012b 67       		.byte	0x67
 520 012c 64010000 		.4byte	0x164
 521 0130 07       		.uleb128 0x7
 522 0131 24070000 		.4byte	.LASF23
 523 0135 04       		.byte	0x4
 524 0136 6C       		.byte	0x6c
 525 0137 90000000 		.4byte	0x90
 526 013b 01       		.byte	0x1
ARM GAS  C:\Users\EBANO_~1\AppData\Local\Temp\ccWJ4OLX.s 			page 13


 527 013c 02       		.byte	0x2
 528 013d 06       		.byte	0x6
 529 013e 02       		.byte	0x2
 530 013f 23       		.byte	0x23
 531 0140 00       		.uleb128 0
 532 0141 0A       		.uleb128 0xa
 533 0142 52465500 		.ascii	"RFU\000"
 534 0146 04       		.byte	0x4
 535 0147 70       		.byte	0x70
 536 0148 90000000 		.4byte	0x90
 537 014c 01       		.byte	0x1
 538 014d 03       		.byte	0x3
 539 014e 03       		.byte	0x3
 540 014f 02       		.byte	0x2
 541 0150 23       		.byte	0x23
 542 0151 00       		.uleb128 0
 543 0152 07       		.uleb128 0x7
 544 0153 75050000 		.4byte	.LASF24
 545 0157 04       		.byte	0x4
 546 0158 74       		.byte	0x74
 547 0159 90000000 		.4byte	0x90
 548 015d 01       		.byte	0x1
 549 015e 03       		.byte	0x3
 550 015f 00       		.byte	0
 551 0160 02       		.byte	0x2
 552 0161 23       		.byte	0x23
 553 0162 00       		.uleb128 0
 554 0163 00       		.byte	0
 555 0164 08       		.uleb128 0x8
 556 0165 82020000 		.4byte	.LASF26
 557 0169 01       		.byte	0x1
 558 016a 04       		.byte	0x4
 559 016b 5E       		.byte	0x5e
 560 016c 87010000 		.4byte	0x187
 561 0170 09       		.uleb128 0x9
 562 0171 AB070000 		.4byte	.LASF18
 563 0175 04       		.byte	0x4
 564 0176 63       		.byte	0x63
 565 0177 90000000 		.4byte	0x90
 566 017b 09       		.uleb128 0x9
 567 017c 12060000 		.4byte	.LASF19
 568 0180 04       		.byte	0x4
 569 0181 75       		.byte	0x75
 570 0182 24010000 		.4byte	0x124
 571 0186 00       		.byte	0
 572 0187 03       		.uleb128 0x3
 573 0188 FA050000 		.4byte	.LASF27
 574 018c 04       		.byte	0x4
 575 018d 76       		.byte	0x76
 576 018e 64010000 		.4byte	0x164
 577 0192 06       		.uleb128 0x6
 578 0193 73080000 		.4byte	.LASF28
 579 0197 01       		.byte	0x1
 580 0198 04       		.byte	0x4
 581 0199 86       		.byte	0x86
 582 019a F4010000 		.4byte	0x1f4
 583 019e 07       		.uleb128 0x7
ARM GAS  C:\Users\EBANO_~1\AppData\Local\Temp\ccWJ4OLX.s 			page 14


 584 019f A5040000 		.4byte	.LASF29
 585 01a3 04       		.byte	0x4
 586 01a4 8B       		.byte	0x8b
 587 01a5 90000000 		.4byte	0x90
 588 01a9 01       		.byte	0x1
 589 01aa 04       		.byte	0x4
 590 01ab 04       		.byte	0x4
 591 01ac 02       		.byte	0x2
 592 01ad 23       		.byte	0x23
 593 01ae 00       		.uleb128 0
 594 01af 07       		.uleb128 0x7
 595 01b0 E2060000 		.4byte	.LASF30
 596 01b4 04       		.byte	0x4
 597 01b5 8F       		.byte	0x8f
 598 01b6 90000000 		.4byte	0x90
 599 01ba 01       		.byte	0x1
 600 01bb 01       		.byte	0x1
 601 01bc 03       		.byte	0x3
 602 01bd 02       		.byte	0x2
 603 01be 23       		.byte	0x23
 604 01bf 00       		.uleb128 0
 605 01c0 0A       		.uleb128 0xa
 606 01c1 41636B00 		.ascii	"Ack\000"
 607 01c5 04       		.byte	0x4
 608 01c6 93       		.byte	0x93
 609 01c7 90000000 		.4byte	0x90
 610 01cb 01       		.byte	0x1
 611 01cc 01       		.byte	0x1
 612 01cd 02       		.byte	0x2
 613 01ce 02       		.byte	0x2
 614 01cf 23       		.byte	0x23
 615 01d0 00       		.uleb128 0
 616 01d1 07       		.uleb128 0x7
 617 01d2 BD030000 		.4byte	.LASF31
 618 01d6 04       		.byte	0x4
 619 01d7 97       		.byte	0x97
 620 01d8 90000000 		.4byte	0x90
 621 01dc 01       		.byte	0x1
 622 01dd 01       		.byte	0x1
 623 01de 01       		.byte	0x1
 624 01df 02       		.byte	0x2
 625 01e0 23       		.byte	0x23
 626 01e1 00       		.uleb128 0
 627 01e2 0A       		.uleb128 0xa
 628 01e3 41647200 		.ascii	"Adr\000"
 629 01e7 04       		.byte	0x4
 630 01e8 9B       		.byte	0x9b
 631 01e9 90000000 		.4byte	0x90
 632 01ed 01       		.byte	0x1
 633 01ee 01       		.byte	0x1
 634 01ef 00       		.byte	0
 635 01f0 02       		.byte	0x2
 636 01f1 23       		.byte	0x23
 637 01f2 00       		.uleb128 0
 638 01f3 00       		.byte	0
 639 01f4 08       		.uleb128 0x8
 640 01f5 57000000 		.4byte	.LASF32
ARM GAS  C:\Users\EBANO_~1\AppData\Local\Temp\ccWJ4OLX.s 			page 15


 641 01f9 01       		.byte	0x1
 642 01fa 04       		.byte	0x4
 643 01fb 7D       		.byte	0x7d
 644 01fc 17020000 		.4byte	0x217
 645 0200 09       		.uleb128 0x9
 646 0201 AB070000 		.4byte	.LASF18
 647 0205 04       		.byte	0x4
 648 0206 82       		.byte	0x82
 649 0207 90000000 		.4byte	0x90
 650 020b 09       		.uleb128 0x9
 651 020c 12060000 		.4byte	.LASF19
 652 0210 04       		.byte	0x4
 653 0211 9C       		.byte	0x9c
 654 0212 92010000 		.4byte	0x192
 655 0216 00       		.byte	0
 656 0217 03       		.uleb128 0x3
 657 0218 B5060000 		.4byte	.LASF33
 658 021c 04       		.byte	0x4
 659 021d 9D       		.byte	0x9d
 660 021e F4010000 		.4byte	0x1f4
 661 0222 06       		.uleb128 0x6
 662 0223 65070000 		.4byte	.LASF34
 663 0227 18       		.byte	0x18
 664 0228 04       		.byte	0x4
 665 0229 A4       		.byte	0xa4
 666 022a 67020000 		.4byte	0x267
 667 022e 0B       		.uleb128 0xb
 668 022f 9C020000 		.4byte	.LASF35
 669 0233 04       		.byte	0x4
 670 0234 A9       		.byte	0xa9
 671 0235 AB000000 		.4byte	0xab
 672 0239 02       		.byte	0x2
 673 023a 23       		.byte	0x23
 674 023b 00       		.uleb128 0
 675 023c 0B       		.uleb128 0xb
 676 023d 45020000 		.4byte	.LASF36
 677 0241 04       		.byte	0x4
 678 0242 AD       		.byte	0xad
 679 0243 17020000 		.4byte	0x217
 680 0247 02       		.byte	0x2
 681 0248 23       		.byte	0x23
 682 0249 04       		.uleb128 0x4
 683 024a 0B       		.uleb128 0xb
 684 024b DD020000 		.4byte	.LASF37
 685 024f 04       		.byte	0x4
 686 0250 B1       		.byte	0xb1
 687 0251 A0000000 		.4byte	0xa0
 688 0255 02       		.byte	0x2
 689 0256 23       		.byte	0x23
 690 0257 06       		.uleb128 0x6
 691 0258 0B       		.uleb128 0xb
 692 0259 DB080000 		.4byte	.LASF38
 693 025d 04       		.byte	0x4
 694 025e B5       		.byte	0xb5
 695 025f 67020000 		.4byte	0x267
 696 0263 02       		.byte	0x2
 697 0264 23       		.byte	0x23
ARM GAS  C:\Users\EBANO_~1\AppData\Local\Temp\ccWJ4OLX.s 			page 16


 698 0265 08       		.uleb128 0x8
 699 0266 00       		.byte	0
 700 0267 0C       		.uleb128 0xc
 701 0268 90000000 		.4byte	0x90
 702 026c 77020000 		.4byte	0x277
 703 0270 0D       		.uleb128 0xd
 704 0271 89000000 		.4byte	0x89
 705 0275 0E       		.byte	0xe
 706 0276 00       		.byte	0
 707 0277 03       		.uleb128 0x3
 708 0278 0A030000 		.4byte	.LASF39
 709 027c 04       		.byte	0x4
 710 027d B6       		.byte	0xb6
 711 027e 22020000 		.4byte	0x222
 712 0282 0E       		.uleb128 0xe
 713 0283 04       		.byte	0x4
 714 0284 90000000 		.4byte	0x90
 715 0288 0C       		.uleb128 0xc
 716 0289 90000000 		.4byte	0x90
 717 028d 98020000 		.4byte	0x298
 718 0291 0D       		.uleb128 0xd
 719 0292 89000000 		.4byte	0x89
 720 0296 02       		.byte	0x2
 721 0297 00       		.byte	0
 722 0298 06       		.uleb128 0x6
 723 0299 E0050000 		.4byte	.LASF40
 724 029d 28       		.byte	0x28
 725 029e 05       		.byte	0x5
 726 029f C1       		.byte	0xc1
 727 02a0 31030000 		.4byte	0x331
 728 02a4 0B       		.uleb128 0xb
 729 02a5 8F070000 		.4byte	.LASF41
 730 02a9 05       		.byte	0x5
 731 02aa C6       		.byte	0xc6
 732 02ab 82020000 		.4byte	0x282
 733 02af 02       		.byte	0x2
 734 02b0 23       		.byte	0x23
 735 02b1 00       		.uleb128 0
 736 02b2 0B       		.uleb128 0xb
 737 02b3 C2000000 		.4byte	.LASF42
 738 02b7 05       		.byte	0x5
 739 02b8 CA       		.byte	0xca
 740 02b9 90000000 		.4byte	0x90
 741 02bd 02       		.byte	0x2
 742 02be 23       		.byte	0x23
 743 02bf 04       		.uleb128 0x4
 744 02c0 0B       		.uleb128 0xb
 745 02c1 A6000000 		.4byte	.LASF43
 746 02c5 05       		.byte	0x5
 747 02c6 CE       		.byte	0xce
 748 02c7 87010000 		.4byte	0x187
 749 02cb 02       		.byte	0x2
 750 02cc 23       		.byte	0x23
 751 02cd 05       		.uleb128 0x5
 752 02ce 0B       		.uleb128 0xb
 753 02cf E8020000 		.4byte	.LASF44
 754 02d3 05       		.byte	0x5
ARM GAS  C:\Users\EBANO_~1\AppData\Local\Temp\ccWJ4OLX.s 			page 17


 755 02d4 D2       		.byte	0xd2
 756 02d5 88020000 		.4byte	0x288
 757 02d9 02       		.byte	0x2
 758 02da 23       		.byte	0x23
 759 02db 06       		.uleb128 0x6
 760 02dc 0B       		.uleb128 0xb
 761 02dd EC000000 		.4byte	.LASF45
 762 02e1 05       		.byte	0x5
 763 02e2 D6       		.byte	0xd6
 764 02e3 88020000 		.4byte	0x288
 765 02e7 02       		.byte	0x2
 766 02e8 23       		.byte	0x23
 767 02e9 09       		.uleb128 0x9
 768 02ea 0B       		.uleb128 0xb
 769 02eb 9C020000 		.4byte	.LASF35
 770 02ef 05       		.byte	0x5
 771 02f0 DA       		.byte	0xda
 772 02f1 AB000000 		.4byte	0xab
 773 02f5 02       		.byte	0x2
 774 02f6 23       		.byte	0x23
 775 02f7 0C       		.uleb128 0xc
 776 02f8 0B       		.uleb128 0xb
 777 02f9 20040000 		.4byte	.LASF46
 778 02fd 05       		.byte	0x5
 779 02fe DE       		.byte	0xde
 780 02ff 19010000 		.4byte	0x119
 781 0303 02       		.byte	0x2
 782 0304 23       		.byte	0x23
 783 0305 10       		.uleb128 0x10
 784 0306 0B       		.uleb128 0xb
 785 0307 5C060000 		.4byte	.LASF47
 786 030b 05       		.byte	0x5
 787 030c E2       		.byte	0xe2
 788 030d 90000000 		.4byte	0x90
 789 0311 02       		.byte	0x2
 790 0312 23       		.byte	0x23
 791 0313 11       		.uleb128 0x11
 792 0314 0B       		.uleb128 0xb
 793 0315 90040000 		.4byte	.LASF48
 794 0319 05       		.byte	0x5
 795 031a E6       		.byte	0xe6
 796 031b 31030000 		.4byte	0x331
 797 031f 02       		.byte	0x2
 798 0320 23       		.byte	0x23
 799 0321 12       		.uleb128 0x12
 800 0322 0F       		.uleb128 0xf
 801 0323 4D494300 		.ascii	"MIC\000"
 802 0327 05       		.byte	0x5
 803 0328 EA       		.byte	0xea
 804 0329 AB000000 		.4byte	0xab
 805 032d 02       		.byte	0x2
 806 032e 23       		.byte	0x23
 807 032f 24       		.uleb128 0x24
 808 0330 00       		.byte	0
 809 0331 0C       		.uleb128 0xc
 810 0332 90000000 		.4byte	0x90
 811 0336 41030000 		.4byte	0x341
ARM GAS  C:\Users\EBANO_~1\AppData\Local\Temp\ccWJ4OLX.s 			page 18


 812 033a 0D       		.uleb128 0xd
 813 033b 89000000 		.4byte	0x89
 814 033f 0F       		.byte	0xf
 815 0340 00       		.byte	0
 816 0341 03       		.uleb128 0x3
 817 0342 46050000 		.4byte	.LASF49
 818 0346 05       		.byte	0x5
 819 0347 EB       		.byte	0xeb
 820 0348 98020000 		.4byte	0x298
 821 034c 06       		.uleb128 0x6
 822 034d 45010000 		.4byte	.LASF50
 823 0351 30       		.byte	0x30
 824 0352 05       		.byte	0x5
 825 0353 F2       		.byte	0xf2
 826 0354 CE030000 		.4byte	0x3ce
 827 0358 0B       		.uleb128 0xb
 828 0359 8F070000 		.4byte	.LASF41
 829 035d 05       		.byte	0x5
 830 035e F7       		.byte	0xf7
 831 035f 82020000 		.4byte	0x282
 832 0363 02       		.byte	0x2
 833 0364 23       		.byte	0x23
 834 0365 00       		.uleb128 0
 835 0366 0B       		.uleb128 0xb
 836 0367 C2000000 		.4byte	.LASF42
 837 036b 05       		.byte	0x5
 838 036c FB       		.byte	0xfb
 839 036d 90000000 		.4byte	0x90
 840 0371 02       		.byte	0x2
 841 0372 23       		.byte	0x23
 842 0373 04       		.uleb128 0x4
 843 0374 0B       		.uleb128 0xb
 844 0375 A6000000 		.4byte	.LASF43
 845 0379 05       		.byte	0x5
 846 037a FF       		.byte	0xff
 847 037b 87010000 		.4byte	0x187
 848 037f 02       		.byte	0x2
 849 0380 23       		.byte	0x23
 850 0381 05       		.uleb128 0x5
 851 0382 10       		.uleb128 0x10
 852 0383 44070000 		.4byte	.LASF51
 853 0387 05       		.byte	0x5
 854 0388 0301     		.2byte	0x103
 855 038a 77020000 		.4byte	0x277
 856 038e 02       		.byte	0x2
 857 038f 23       		.byte	0x23
 858 0390 08       		.uleb128 0x8
 859 0391 10       		.uleb128 0x10
 860 0392 C8060000 		.4byte	.LASF52
 861 0396 05       		.byte	0x5
 862 0397 0701     		.2byte	0x107
 863 0399 90000000 		.4byte	0x90
 864 039d 02       		.byte	0x2
 865 039e 23       		.byte	0x23
 866 039f 20       		.uleb128 0x20
 867 03a0 10       		.uleb128 0x10
 868 03a1 0C040000 		.4byte	.LASF53
ARM GAS  C:\Users\EBANO_~1\AppData\Local\Temp\ccWJ4OLX.s 			page 19


 869 03a5 05       		.byte	0x5
 870 03a6 0B01     		.2byte	0x10b
 871 03a8 82020000 		.4byte	0x282
 872 03ac 02       		.byte	0x2
 873 03ad 23       		.byte	0x23
 874 03ae 24       		.uleb128 0x24
 875 03af 10       		.uleb128 0x10
 876 03b0 CA000000 		.4byte	.LASF54
 877 03b4 05       		.byte	0x5
 878 03b5 0F01     		.2byte	0x10f
 879 03b7 90000000 		.4byte	0x90
 880 03bb 02       		.byte	0x2
 881 03bc 23       		.byte	0x23
 882 03bd 28       		.uleb128 0x28
 883 03be 11       		.uleb128 0x11
 884 03bf 4D494300 		.ascii	"MIC\000"
 885 03c3 05       		.byte	0x5
 886 03c4 1301     		.2byte	0x113
 887 03c6 AB000000 		.4byte	0xab
 888 03ca 02       		.byte	0x2
 889 03cb 23       		.byte	0x23
 890 03cc 2C       		.uleb128 0x2c
 891 03cd 00       		.byte	0
 892 03ce 12       		.uleb128 0x12
 893 03cf 00000000 		.4byte	.LASF55
 894 03d3 05       		.byte	0x5
 895 03d4 1401     		.2byte	0x114
 896 03d6 4C030000 		.4byte	0x34c
 897 03da 13       		.uleb128 0x13
 898 03db 9A080000 		.4byte	.LASF185
 899 03df 07       		.byte	0x7
 900 03e0 01       		.byte	0x1
 901 03e1 3B000000 		.4byte	0x3b
 902 03e5 06       		.byte	0x6
 903 03e6 2E       		.byte	0x2e
 904 03e7 04040000 		.4byte	0x404
 905 03eb 14       		.uleb128 0x14
 906 03ec 0D070000 		.4byte	.LASF56
 907 03f0 00       		.byte	0
 908 03f1 14       		.uleb128 0x14
 909 03f2 72000000 		.4byte	.LASF57
 910 03f6 01       		.byte	0x1
 911 03f7 14       		.uleb128 0x14
 912 03f8 77040000 		.4byte	.LASF58
 913 03fc 02       		.byte	0x2
 914 03fd 14       		.uleb128 0x14
 915 03fe F4010000 		.4byte	.LASF59
 916 0402 03       		.byte	0x3
 917 0403 00       		.byte	0
 918 0404 03       		.uleb128 0x3
 919 0405 79070000 		.4byte	.LASF60
 920 0409 06       		.byte	0x6
 921 040a 40       		.byte	0x40
 922 040b DA030000 		.4byte	0x3da
 923 040f 15       		.uleb128 0x15
 924 0410 AB020000 		.4byte	.LASF61
 925 0414 07       		.byte	0x7
ARM GAS  C:\Users\EBANO_~1\AppData\Local\Temp\ccWJ4OLX.s 			page 20


 926 0415 4A       		.byte	0x4a
 927 0416 AB000000 		.4byte	0xab
 928 041a 01       		.byte	0x1
 929 041b 01       		.byte	0x1
 930 041c 0C       		.uleb128 0xc
 931 041d 9B000000 		.4byte	0x9b
 932 0421 2C040000 		.4byte	0x42c
 933 0425 0D       		.uleb128 0xd
 934 0426 89000000 		.4byte	0x89
 935 042a 0F       		.byte	0xf
 936 042b 00       		.byte	0
 937 042c 05       		.uleb128 0x5
 938 042d 1C040000 		.4byte	0x41c
 939 0431 15       		.uleb128 0x15
 940 0432 CE060000 		.4byte	.LASF62
 941 0436 07       		.byte	0x7
 942 0437 4D       		.byte	0x4d
 943 0438 2C040000 		.4byte	0x42c
 944 043c 01       		.byte	0x1
 945 043d 01       		.byte	0x1
 946 043e 0C       		.uleb128 0xc
 947 043f 9B000000 		.4byte	0x9b
 948 0443 4E040000 		.4byte	0x44e
 949 0447 0D       		.uleb128 0xd
 950 0448 89000000 		.4byte	0x89
 951 044c 07       		.byte	0x7
 952 044d 00       		.byte	0
 953 044e 05       		.uleb128 0x5
 954 044f 3E040000 		.4byte	0x43e
 955 0453 15       		.uleb128 0x15
 956 0454 74020000 		.4byte	.LASF63
 957 0458 07       		.byte	0x7
 958 0459 4E       		.byte	0x4e
 959 045a 4E040000 		.4byte	0x44e
 960 045e 01       		.byte	0x1
 961 045f 01       		.byte	0x1
 962 0460 0C       		.uleb128 0xc
 963 0461 9B000000 		.4byte	0x9b
 964 0465 70040000 		.4byte	0x470
 965 0469 0D       		.uleb128 0xd
 966 046a 89000000 		.4byte	0x89
 967 046e 08       		.byte	0x8
 968 046f 00       		.byte	0
 969 0470 05       		.uleb128 0x5
 970 0471 60040000 		.4byte	0x460
 971 0475 15       		.uleb128 0x15
 972 0476 F9030000 		.4byte	.LASF64
 973 047a 07       		.byte	0x7
 974 047b 4F       		.byte	0x4f
 975 047c 70040000 		.4byte	0x470
 976 0480 01       		.byte	0x1
 977 0481 01       		.byte	0x1
 978 0482 02       		.uleb128 0x2
 979 0483 08       		.byte	0x8
 980 0484 04       		.byte	0x4
 981 0485 76060000 		.4byte	.LASF65
 982 0489 16       		.uleb128 0x16
ARM GAS  C:\Users\EBANO_~1\AppData\Local\Temp\ccWJ4OLX.s 			page 21


 983 048a 04       		.byte	0x4
 984 048b 03       		.uleb128 0x3
 985 048c B5030000 		.4byte	.LASF66
 986 0490 08       		.byte	0x8
 987 0491 22       		.byte	0x22
 988 0492 96040000 		.4byte	0x496
 989 0496 0E       		.uleb128 0xe
 990 0497 04       		.byte	0x4
 991 0498 9C040000 		.4byte	0x49c
 992 049c 17       		.uleb128 0x17
 993 049d 4D060000 		.4byte	.LASF173
 994 04a1 01       		.byte	0x1
 995 04a2 03       		.uleb128 0x3
 996 04a3 25010000 		.4byte	.LASF67
 997 04a7 09       		.byte	0x9
 998 04a8 2C       		.byte	0x2c
 999 04a9 5B000000 		.4byte	0x5b
 1000 04ad 03       		.uleb128 0x3
 1001 04ae 6E060000 		.4byte	.LASF68
 1002 04b2 09       		.byte	0x9
 1003 04b3 72       		.byte	0x72
 1004 04b4 5B000000 		.4byte	0x5b
 1005 04b8 12       		.uleb128 0x12
 1006 04b9 57040000 		.4byte	.LASF69
 1007 04bd 0A       		.byte	0xa
 1008 04be 6501     		.2byte	0x165
 1009 04c0 89000000 		.4byte	0x89
 1010 04c4 18       		.uleb128 0x18
 1011 04c5 04       		.byte	0x4
 1012 04c6 09       		.byte	0x9
 1013 04c7 A6       		.byte	0xa6
 1014 04c8 E3040000 		.4byte	0x4e3
 1015 04cc 09       		.uleb128 0x9
 1016 04cd 4C030000 		.4byte	.LASF70
 1017 04d1 09       		.byte	0x9
 1018 04d2 A8       		.byte	0xa8
 1019 04d3 B8040000 		.4byte	0x4b8
 1020 04d7 09       		.uleb128 0x9
 1021 04d8 A4020000 		.4byte	.LASF71
 1022 04dc 09       		.byte	0x9
 1023 04dd A9       		.byte	0xa9
 1024 04de E3040000 		.4byte	0x4e3
 1025 04e2 00       		.byte	0
 1026 04e3 0C       		.uleb128 0xc
 1027 04e4 3B000000 		.4byte	0x3b
 1028 04e8 F3040000 		.4byte	0x4f3
 1029 04ec 0D       		.uleb128 0xd
 1030 04ed 89000000 		.4byte	0x89
 1031 04f1 03       		.byte	0x3
 1032 04f2 00       		.byte	0
 1033 04f3 19       		.uleb128 0x19
 1034 04f4 08       		.byte	0x8
 1035 04f5 09       		.byte	0x9
 1036 04f6 A3       		.byte	0xa3
 1037 04f7 18050000 		.4byte	0x518
 1038 04fb 0B       		.uleb128 0xb
 1039 04fc 45060000 		.4byte	.LASF72
ARM GAS  C:\Users\EBANO_~1\AppData\Local\Temp\ccWJ4OLX.s 			page 22


 1040 0500 09       		.byte	0x9
 1041 0501 A5       		.byte	0xa5
 1042 0502 82000000 		.4byte	0x82
 1043 0506 02       		.byte	0x2
 1044 0507 23       		.byte	0x23
 1045 0508 00       		.uleb128 0
 1046 0509 0B       		.uleb128 0xb
 1047 050a 54060000 		.4byte	.LASF73
 1048 050e 09       		.byte	0x9
 1049 050f AA       		.byte	0xaa
 1050 0510 C4040000 		.4byte	0x4c4
 1051 0514 02       		.byte	0x2
 1052 0515 23       		.byte	0x23
 1053 0516 04       		.uleb128 0x4
 1054 0517 00       		.byte	0
 1055 0518 03       		.uleb128 0x3
 1056 0519 AD050000 		.4byte	.LASF74
 1057 051d 09       		.byte	0x9
 1058 051e AB       		.byte	0xab
 1059 051f F3040000 		.4byte	0x4f3
 1060 0523 03       		.uleb128 0x3
 1061 0524 84050000 		.4byte	.LASF75
 1062 0528 09       		.byte	0x9
 1063 0529 AF       		.byte	0xaf
 1064 052a 8B040000 		.4byte	0x48b
 1065 052e 03       		.uleb128 0x3
 1066 052f 2F070000 		.4byte	.LASF76
 1067 0533 0B       		.byte	0xb
 1068 0534 16       		.byte	0x16
 1069 0535 6D000000 		.4byte	0x6d
 1070 0539 06       		.uleb128 0x6
 1071 053a 65020000 		.4byte	.LASF77
 1072 053e 18       		.byte	0x18
 1073 053f 0B       		.byte	0xb
 1074 0540 2F       		.byte	0x2f
 1075 0541 98050000 		.4byte	0x598
 1076 0545 0B       		.uleb128 0xb
 1077 0546 DC060000 		.4byte	.LASF78
 1078 054a 0B       		.byte	0xb
 1079 054b 31       		.byte	0x31
 1080 054c 98050000 		.4byte	0x598
 1081 0550 02       		.byte	0x2
 1082 0551 23       		.byte	0x23
 1083 0552 00       		.uleb128 0
 1084 0553 0F       		.uleb128 0xf
 1085 0554 5F6B00   		.ascii	"_k\000"
 1086 0557 0B       		.byte	0xb
 1087 0558 32       		.byte	0x32
 1088 0559 82000000 		.4byte	0x82
 1089 055d 02       		.byte	0x2
 1090 055e 23       		.byte	0x23
 1091 055f 04       		.uleb128 0x4
 1092 0560 0B       		.uleb128 0xb
 1093 0561 30060000 		.4byte	.LASF79
 1094 0565 0B       		.byte	0xb
 1095 0566 32       		.byte	0x32
 1096 0567 82000000 		.4byte	0x82
ARM GAS  C:\Users\EBANO_~1\AppData\Local\Temp\ccWJ4OLX.s 			page 23


 1097 056b 02       		.byte	0x2
 1098 056c 23       		.byte	0x23
 1099 056d 08       		.uleb128 0x8
 1100 056e 0B       		.uleb128 0xb
 1101 056f 4B020000 		.4byte	.LASF80
 1102 0573 0B       		.byte	0xb
 1103 0574 32       		.byte	0x32
 1104 0575 82000000 		.4byte	0x82
 1105 0579 02       		.byte	0x2
 1106 057a 23       		.byte	0x23
 1107 057b 0C       		.uleb128 0xc
 1108 057c 0B       		.uleb128 0xb
 1109 057d A0070000 		.4byte	.LASF81
 1110 0581 0B       		.byte	0xb
 1111 0582 32       		.byte	0x32
 1112 0583 82000000 		.4byte	0x82
 1113 0587 02       		.byte	0x2
 1114 0588 23       		.byte	0x23
 1115 0589 10       		.uleb128 0x10
 1116 058a 0F       		.uleb128 0xf
 1117 058b 5F7800   		.ascii	"_x\000"
 1118 058e 0B       		.byte	0xb
 1119 058f 33       		.byte	0x33
 1120 0590 9E050000 		.4byte	0x59e
 1121 0594 02       		.byte	0x2
 1122 0595 23       		.byte	0x23
 1123 0596 14       		.uleb128 0x14
 1124 0597 00       		.byte	0
 1125 0598 0E       		.uleb128 0xe
 1126 0599 04       		.byte	0x4
 1127 059a 39050000 		.4byte	0x539
 1128 059e 0C       		.uleb128 0xc
 1129 059f 2E050000 		.4byte	0x52e
 1130 05a3 AE050000 		.4byte	0x5ae
 1131 05a7 0D       		.uleb128 0xd
 1132 05a8 89000000 		.4byte	0x89
 1133 05ac 00       		.byte	0
 1134 05ad 00       		.byte	0
 1135 05ae 06       		.uleb128 0x6
 1136 05af 97020000 		.4byte	.LASF82
 1137 05b3 24       		.byte	0x24
 1138 05b4 0B       		.byte	0xb
 1139 05b5 37       		.byte	0x37
 1140 05b6 39060000 		.4byte	0x639
 1141 05ba 0B       		.uleb128 0xb
 1142 05bb 15010000 		.4byte	.LASF83
 1143 05bf 0B       		.byte	0xb
 1144 05c0 39       		.byte	0x39
 1145 05c1 82000000 		.4byte	0x82
 1146 05c5 02       		.byte	0x2
 1147 05c6 23       		.byte	0x23
 1148 05c7 00       		.uleb128 0
 1149 05c8 0B       		.uleb128 0xb
 1150 05c9 8C080000 		.4byte	.LASF84
 1151 05cd 0B       		.byte	0xb
 1152 05ce 3A       		.byte	0x3a
 1153 05cf 82000000 		.4byte	0x82
ARM GAS  C:\Users\EBANO_~1\AppData\Local\Temp\ccWJ4OLX.s 			page 24


 1154 05d3 02       		.byte	0x2
 1155 05d4 23       		.byte	0x23
 1156 05d5 04       		.uleb128 0x4
 1157 05d6 0B       		.uleb128 0xb
 1158 05d7 5F010000 		.4byte	.LASF85
 1159 05db 0B       		.byte	0xb
 1160 05dc 3B       		.byte	0x3b
 1161 05dd 82000000 		.4byte	0x82
 1162 05e1 02       		.byte	0x2
 1163 05e2 23       		.byte	0x23
 1164 05e3 08       		.uleb128 0x8
 1165 05e4 0B       		.uleb128 0xb
 1166 05e5 E1080000 		.4byte	.LASF86
 1167 05e9 0B       		.byte	0xb
 1168 05ea 3C       		.byte	0x3c
 1169 05eb 82000000 		.4byte	0x82
 1170 05ef 02       		.byte	0x2
 1171 05f0 23       		.byte	0x23
 1172 05f1 0C       		.uleb128 0xc
 1173 05f2 0B       		.uleb128 0xb
 1174 05f3 17040000 		.4byte	.LASF87
 1175 05f7 0B       		.byte	0xb
 1176 05f8 3D       		.byte	0x3d
 1177 05f9 82000000 		.4byte	0x82
 1178 05fd 02       		.byte	0x2
 1179 05fe 23       		.byte	0x23
 1180 05ff 10       		.uleb128 0x10
 1181 0600 0B       		.uleb128 0xb
 1182 0601 CE030000 		.4byte	.LASF88
 1183 0605 0B       		.byte	0xb
 1184 0606 3E       		.byte	0x3e
 1185 0607 82000000 		.4byte	0x82
 1186 060b 02       		.byte	0x2
 1187 060c 23       		.byte	0x23
 1188 060d 14       		.uleb128 0x14
 1189 060e 0B       		.uleb128 0xb
 1190 060f 64060000 		.4byte	.LASF89
 1191 0613 0B       		.byte	0xb
 1192 0614 3F       		.byte	0x3f
 1193 0615 82000000 		.4byte	0x82
 1194 0619 02       		.byte	0x2
 1195 061a 23       		.byte	0x23
 1196 061b 18       		.uleb128 0x18
 1197 061c 0B       		.uleb128 0xb
 1198 061d 8D050000 		.4byte	.LASF90
 1199 0621 0B       		.byte	0xb
 1200 0622 40       		.byte	0x40
 1201 0623 82000000 		.4byte	0x82
 1202 0627 02       		.byte	0x2
 1203 0628 23       		.byte	0x23
 1204 0629 1C       		.uleb128 0x1c
 1205 062a 0B       		.uleb128 0xb
 1206 062b EE030000 		.4byte	.LASF91
 1207 062f 0B       		.byte	0xb
 1208 0630 41       		.byte	0x41
 1209 0631 82000000 		.4byte	0x82
 1210 0635 02       		.byte	0x2
ARM GAS  C:\Users\EBANO_~1\AppData\Local\Temp\ccWJ4OLX.s 			page 25


 1211 0636 23       		.byte	0x23
 1212 0637 20       		.uleb128 0x20
 1213 0638 00       		.byte	0
 1214 0639 1A       		.uleb128 0x1a
 1215 063a 6E010000 		.4byte	.LASF92
 1216 063e 0801     		.2byte	0x108
 1217 0640 0B       		.byte	0xb
 1218 0641 4A       		.byte	0x4a
 1219 0642 82060000 		.4byte	0x682
 1220 0646 0B       		.uleb128 0xb
 1221 0647 26000000 		.4byte	.LASF93
 1222 064b 0B       		.byte	0xb
 1223 064c 4B       		.byte	0x4b
 1224 064d 82060000 		.4byte	0x682
 1225 0651 02       		.byte	0x2
 1226 0652 23       		.byte	0x23
 1227 0653 00       		.uleb128 0
 1228 0654 0B       		.uleb128 0xb
 1229 0655 52030000 		.4byte	.LASF94
 1230 0659 0B       		.byte	0xb
 1231 065a 4C       		.byte	0x4c
 1232 065b 82060000 		.4byte	0x682
 1233 065f 03       		.byte	0x3
 1234 0660 23       		.byte	0x23
 1235 0661 8001     		.uleb128 0x80
 1236 0663 0B       		.uleb128 0xb
 1237 0664 F1060000 		.4byte	.LASF95
 1238 0668 0B       		.byte	0xb
 1239 0669 4E       		.byte	0x4e
 1240 066a 2E050000 		.4byte	0x52e
 1241 066e 03       		.byte	0x3
 1242 066f 23       		.byte	0x23
 1243 0670 8002     		.uleb128 0x100
 1244 0672 0B       		.uleb128 0xb
 1245 0673 9C010000 		.4byte	.LASF96
 1246 0677 0B       		.byte	0xb
 1247 0678 51       		.byte	0x51
 1248 0679 2E050000 		.4byte	0x52e
 1249 067d 03       		.byte	0x3
 1250 067e 23       		.byte	0x23
 1251 067f 8402     		.uleb128 0x104
 1252 0681 00       		.byte	0
 1253 0682 0C       		.uleb128 0xc
 1254 0683 89040000 		.4byte	0x489
 1255 0687 92060000 		.4byte	0x692
 1256 068b 0D       		.uleb128 0xd
 1257 068c 89000000 		.4byte	0x89
 1258 0690 1F       		.byte	0x1f
 1259 0691 00       		.byte	0
 1260 0692 1A       		.uleb128 0x1a
 1261 0693 2B040000 		.4byte	.LASF97
 1262 0697 9001     		.2byte	0x190
 1263 0699 0B       		.byte	0xb
 1264 069a 5D       		.byte	0x5d
 1265 069b D9060000 		.4byte	0x6d9
 1266 069f 0B       		.uleb128 0xb
 1267 06a0 DC060000 		.4byte	.LASF78
ARM GAS  C:\Users\EBANO_~1\AppData\Local\Temp\ccWJ4OLX.s 			page 26


 1268 06a4 0B       		.byte	0xb
 1269 06a5 5E       		.byte	0x5e
 1270 06a6 D9060000 		.4byte	0x6d9
 1271 06aa 02       		.byte	0x2
 1272 06ab 23       		.byte	0x23
 1273 06ac 00       		.uleb128 0
 1274 06ad 0B       		.uleb128 0xb
 1275 06ae DB050000 		.4byte	.LASF98
 1276 06b2 0B       		.byte	0xb
 1277 06b3 5F       		.byte	0x5f
 1278 06b4 82000000 		.4byte	0x82
 1279 06b8 02       		.byte	0x2
 1280 06b9 23       		.byte	0x23
 1281 06ba 04       		.uleb128 0x4
 1282 06bb 0B       		.uleb128 0xb
 1283 06bc 35020000 		.4byte	.LASF99
 1284 06c0 0B       		.byte	0xb
 1285 06c1 61       		.byte	0x61
 1286 06c2 DF060000 		.4byte	0x6df
 1287 06c6 02       		.byte	0x2
 1288 06c7 23       		.byte	0x23
 1289 06c8 08       		.uleb128 0x8
 1290 06c9 0B       		.uleb128 0xb
 1291 06ca 6E010000 		.4byte	.LASF92
 1292 06ce 0B       		.byte	0xb
 1293 06cf 62       		.byte	0x62
 1294 06d0 39060000 		.4byte	0x639
 1295 06d4 03       		.byte	0x3
 1296 06d5 23       		.byte	0x23
 1297 06d6 8801     		.uleb128 0x88
 1298 06d8 00       		.byte	0
 1299 06d9 0E       		.uleb128 0xe
 1300 06da 04       		.byte	0x4
 1301 06db 92060000 		.4byte	0x692
 1302 06df 0C       		.uleb128 0xc
 1303 06e0 EF060000 		.4byte	0x6ef
 1304 06e4 EF060000 		.4byte	0x6ef
 1305 06e8 0D       		.uleb128 0xd
 1306 06e9 89000000 		.4byte	0x89
 1307 06ed 1F       		.byte	0x1f
 1308 06ee 00       		.byte	0
 1309 06ef 0E       		.uleb128 0xe
 1310 06f0 04       		.byte	0x4
 1311 06f1 F5060000 		.4byte	0x6f5
 1312 06f5 1B       		.uleb128 0x1b
 1313 06f6 01       		.byte	0x1
 1314 06f7 06       		.uleb128 0x6
 1315 06f8 97050000 		.4byte	.LASF100
 1316 06fc 08       		.byte	0x8
 1317 06fd 0B       		.byte	0xb
 1318 06fe 75       		.byte	0x75
 1319 06ff 20070000 		.4byte	0x720
 1320 0703 0B       		.uleb128 0xb
 1321 0704 59010000 		.4byte	.LASF101
 1322 0708 0B       		.byte	0xb
 1323 0709 76       		.byte	0x76
 1324 070a 20070000 		.4byte	0x720
ARM GAS  C:\Users\EBANO_~1\AppData\Local\Temp\ccWJ4OLX.s 			page 27


 1325 070e 02       		.byte	0x2
 1326 070f 23       		.byte	0x23
 1327 0710 00       		.uleb128 0
 1328 0711 0B       		.uleb128 0xb
 1329 0712 97060000 		.4byte	.LASF102
 1330 0716 0B       		.byte	0xb
 1331 0717 77       		.byte	0x77
 1332 0718 82000000 		.4byte	0x82
 1333 071c 02       		.byte	0x2
 1334 071d 23       		.byte	0x23
 1335 071e 04       		.uleb128 0x4
 1336 071f 00       		.byte	0
 1337 0720 0E       		.uleb128 0xe
 1338 0721 04       		.byte	0x4
 1339 0722 3B000000 		.4byte	0x3b
 1340 0726 06       		.uleb128 0x6
 1341 0727 B8050000 		.4byte	.LASF103
 1342 072b 68       		.byte	0x68
 1343 072c 0B       		.byte	0xb
 1344 072d B5       		.byte	0xb5
 1345 072e 80080000 		.4byte	0x880
 1346 0732 0F       		.uleb128 0xf
 1347 0733 5F7000   		.ascii	"_p\000"
 1348 0736 0B       		.byte	0xb
 1349 0737 B6       		.byte	0xb6
 1350 0738 20070000 		.4byte	0x720
 1351 073c 02       		.byte	0x2
 1352 073d 23       		.byte	0x23
 1353 073e 00       		.uleb128 0
 1354 073f 0F       		.uleb128 0xf
 1355 0740 5F7200   		.ascii	"_r\000"
 1356 0743 0B       		.byte	0xb
 1357 0744 B7       		.byte	0xb7
 1358 0745 82000000 		.4byte	0x82
 1359 0749 02       		.byte	0x2
 1360 074a 23       		.byte	0x23
 1361 074b 04       		.uleb128 0x4
 1362 074c 0F       		.uleb128 0xf
 1363 074d 5F7700   		.ascii	"_w\000"
 1364 0750 0B       		.byte	0xb
 1365 0751 B8       		.byte	0xb8
 1366 0752 82000000 		.4byte	0x82
 1367 0756 02       		.byte	0x2
 1368 0757 23       		.byte	0x23
 1369 0758 08       		.uleb128 0x8
 1370 0759 0B       		.uleb128 0xb
 1371 075a 95010000 		.4byte	.LASF104
 1372 075e 0B       		.byte	0xb
 1373 075f B9       		.byte	0xb9
 1374 0760 42000000 		.4byte	0x42
 1375 0764 02       		.byte	0x2
 1376 0765 23       		.byte	0x23
 1377 0766 0C       		.uleb128 0xc
 1378 0767 0B       		.uleb128 0xb
 1379 0768 E2020000 		.4byte	.LASF105
 1380 076c 0B       		.byte	0xb
 1381 076d BA       		.byte	0xba
ARM GAS  C:\Users\EBANO_~1\AppData\Local\Temp\ccWJ4OLX.s 			page 28


 1382 076e 42000000 		.4byte	0x42
 1383 0772 02       		.byte	0x2
 1384 0773 23       		.byte	0x23
 1385 0774 0E       		.uleb128 0xe
 1386 0775 0F       		.uleb128 0xf
 1387 0776 5F626600 		.ascii	"_bf\000"
 1388 077a 0B       		.byte	0xb
 1389 077b BB       		.byte	0xbb
 1390 077c F7060000 		.4byte	0x6f7
 1391 0780 02       		.byte	0x2
 1392 0781 23       		.byte	0x23
 1393 0782 10       		.uleb128 0x10
 1394 0783 0B       		.uleb128 0xb
 1395 0784 D2080000 		.4byte	.LASF106
 1396 0788 0B       		.byte	0xb
 1397 0789 BC       		.byte	0xbc
 1398 078a 82000000 		.4byte	0x82
 1399 078e 02       		.byte	0x2
 1400 078f 23       		.byte	0x23
 1401 0790 18       		.uleb128 0x18
 1402 0791 0B       		.uleb128 0xb
 1403 0792 7C010000 		.4byte	.LASF107
 1404 0796 0B       		.byte	0xb
 1405 0797 C3       		.byte	0xc3
 1406 0798 89040000 		.4byte	0x489
 1407 079c 02       		.byte	0x2
 1408 079d 23       		.byte	0x23
 1409 079e 1C       		.uleb128 0x1c
 1410 079f 0B       		.uleb128 0xb
 1411 07a0 91020000 		.4byte	.LASF108
 1412 07a4 0B       		.byte	0xb
 1413 07a5 C5       		.byte	0xc5
 1414 07a6 1A0A0000 		.4byte	0xa1a
 1415 07aa 02       		.byte	0x2
 1416 07ab 23       		.byte	0x23
 1417 07ac 20       		.uleb128 0x20
 1418 07ad 0B       		.uleb128 0xb
 1419 07ae C7030000 		.4byte	.LASF109
 1420 07b2 0B       		.byte	0xb
 1421 07b3 C7       		.byte	0xc7
 1422 07b4 450A0000 		.4byte	0xa45
 1423 07b8 02       		.byte	0x2
 1424 07b9 23       		.byte	0x23
 1425 07ba 24       		.uleb128 0x24
 1426 07bb 0B       		.uleb128 0xb
 1427 07bc EB060000 		.4byte	.LASF110
 1428 07c0 0B       		.byte	0xb
 1429 07c1 CA       		.byte	0xca
 1430 07c2 6A0A0000 		.4byte	0xa6a
 1431 07c6 02       		.byte	0x2
 1432 07c7 23       		.byte	0x23
 1433 07c8 28       		.uleb128 0x28
 1434 07c9 0B       		.uleb128 0xb
 1435 07ca 2C010000 		.4byte	.LASF111
 1436 07ce 0B       		.byte	0xb
 1437 07cf CB       		.byte	0xcb
 1438 07d0 850A0000 		.4byte	0xa85
ARM GAS  C:\Users\EBANO_~1\AppData\Local\Temp\ccWJ4OLX.s 			page 29


 1439 07d4 02       		.byte	0x2
 1440 07d5 23       		.byte	0x23
 1441 07d6 2C       		.uleb128 0x2c
 1442 07d7 0F       		.uleb128 0xf
 1443 07d8 5F756200 		.ascii	"_ub\000"
 1444 07dc 0B       		.byte	0xb
 1445 07dd CE       		.byte	0xce
 1446 07de F7060000 		.4byte	0x6f7
 1447 07e2 02       		.byte	0x2
 1448 07e3 23       		.byte	0x23
 1449 07e4 30       		.uleb128 0x30
 1450 07e5 0F       		.uleb128 0xf
 1451 07e6 5F757000 		.ascii	"_up\000"
 1452 07ea 0B       		.byte	0xb
 1453 07eb CF       		.byte	0xcf
 1454 07ec 20070000 		.4byte	0x720
 1455 07f0 02       		.byte	0x2
 1456 07f1 23       		.byte	0x23
 1457 07f2 38       		.uleb128 0x38
 1458 07f3 0F       		.uleb128 0xf
 1459 07f4 5F757200 		.ascii	"_ur\000"
 1460 07f8 0B       		.byte	0xb
 1461 07f9 D0       		.byte	0xd0
 1462 07fa 82000000 		.4byte	0x82
 1463 07fe 02       		.byte	0x2
 1464 07ff 23       		.byte	0x23
 1465 0800 3C       		.uleb128 0x3c
 1466 0801 0B       		.uleb128 0xb
 1467 0802 3F010000 		.4byte	.LASF112
 1468 0806 0B       		.byte	0xb
 1469 0807 D3       		.byte	0xd3
 1470 0808 8B0A0000 		.4byte	0xa8b
 1471 080c 02       		.byte	0x2
 1472 080d 23       		.byte	0x23
 1473 080e 40       		.uleb128 0x40
 1474 080f 0B       		.uleb128 0xb
 1475 0810 52080000 		.4byte	.LASF113
 1476 0814 0B       		.byte	0xb
 1477 0815 D4       		.byte	0xd4
 1478 0816 9B0A0000 		.4byte	0xa9b
 1479 081a 02       		.byte	0x2
 1480 081b 23       		.byte	0x23
 1481 081c 43       		.uleb128 0x43
 1482 081d 0F       		.uleb128 0xf
 1483 081e 5F6C6200 		.ascii	"_lb\000"
 1484 0822 0B       		.byte	0xb
 1485 0823 D7       		.byte	0xd7
 1486 0824 F7060000 		.4byte	0x6f7
 1487 0828 02       		.byte	0x2
 1488 0829 23       		.byte	0x23
 1489 082a 44       		.uleb128 0x44
 1490 082b 0B       		.uleb128 0xb
 1491 082c 8E060000 		.4byte	.LASF114
 1492 0830 0B       		.byte	0xb
 1493 0831 DA       		.byte	0xda
 1494 0832 82000000 		.4byte	0x82
 1495 0836 02       		.byte	0x2
ARM GAS  C:\Users\EBANO_~1\AppData\Local\Temp\ccWJ4OLX.s 			page 30


 1496 0837 23       		.byte	0x23
 1497 0838 4C       		.uleb128 0x4c
 1498 0839 0B       		.uleb128 0xb
 1499 083a D4010000 		.4byte	.LASF115
 1500 083e 0B       		.byte	0xb
 1501 083f DB       		.byte	0xdb
 1502 0840 A2040000 		.4byte	0x4a2
 1503 0844 02       		.byte	0x2
 1504 0845 23       		.byte	0x23
 1505 0846 50       		.uleb128 0x50
 1506 0847 0B       		.uleb128 0xb
 1507 0848 F2020000 		.4byte	.LASF116
 1508 084c 0B       		.byte	0xb
 1509 084d DE       		.byte	0xde
 1510 084e 9F080000 		.4byte	0x89f
 1511 0852 02       		.byte	0x2
 1512 0853 23       		.byte	0x23
 1513 0854 54       		.uleb128 0x54
 1514 0855 0B       		.uleb128 0xb
 1515 0856 63030000 		.4byte	.LASF117
 1516 085a 0B       		.byte	0xb
 1517 085b E2       		.byte	0xe2
 1518 085c 23050000 		.4byte	0x523
 1519 0860 02       		.byte	0x2
 1520 0861 23       		.byte	0x23
 1521 0862 58       		.uleb128 0x58
 1522 0863 0B       		.uleb128 0xb
 1523 0864 C0050000 		.4byte	.LASF118
 1524 0868 0B       		.byte	0xb
 1525 0869 E4       		.byte	0xe4
 1526 086a 18050000 		.4byte	0x518
 1527 086e 02       		.byte	0x2
 1528 086f 23       		.byte	0x23
 1529 0870 5C       		.uleb128 0x5c
 1530 0871 0B       		.uleb128 0xb
 1531 0872 9E050000 		.4byte	.LASF119
 1532 0876 0B       		.byte	0xb
 1533 0877 E5       		.byte	0xe5
 1534 0878 82000000 		.4byte	0x82
 1535 087c 02       		.byte	0x2
 1536 087d 23       		.byte	0x23
 1537 087e 64       		.uleb128 0x64
 1538 087f 00       		.byte	0
 1539 0880 1C       		.uleb128 0x1c
 1540 0881 01       		.byte	0x1
 1541 0882 82000000 		.4byte	0x82
 1542 0886 9F080000 		.4byte	0x89f
 1543 088a 1D       		.uleb128 0x1d
 1544 088b 9F080000 		.4byte	0x89f
 1545 088f 1D       		.uleb128 0x1d
 1546 0890 89040000 		.4byte	0x489
 1547 0894 1D       		.uleb128 0x1d
 1548 0895 080A0000 		.4byte	0xa08
 1549 0899 1D       		.uleb128 0x1d
 1550 089a 82000000 		.4byte	0x82
 1551 089e 00       		.byte	0
 1552 089f 0E       		.uleb128 0xe
ARM GAS  C:\Users\EBANO_~1\AppData\Local\Temp\ccWJ4OLX.s 			page 31


 1553 08a0 04       		.byte	0x4
 1554 08a1 AA080000 		.4byte	0x8aa
 1555 08a5 05       		.uleb128 0x5
 1556 08a6 9F080000 		.4byte	0x89f
 1557 08aa 1E       		.uleb128 0x1e
 1558 08ab 38060000 		.4byte	.LASF120
 1559 08af 2804     		.2byte	0x428
 1560 08b1 0B       		.byte	0xb
 1561 08b2 6002     		.2byte	0x260
 1562 08b4 080A0000 		.4byte	0xa08
 1563 08b8 10       		.uleb128 0x10
 1564 08b9 82060000 		.4byte	.LASF121
 1565 08bd 0B       		.byte	0xb
 1566 08be 6202     		.2byte	0x262
 1567 08c0 82000000 		.4byte	0x82
 1568 08c4 02       		.byte	0x2
 1569 08c5 23       		.byte	0x23
 1570 08c6 00       		.uleb128 0
 1571 08c7 10       		.uleb128 0x10
 1572 08c8 A4010000 		.4byte	.LASF122
 1573 08cc 0B       		.byte	0xb
 1574 08cd 6702     		.2byte	0x267
 1575 08cf F80A0000 		.4byte	0xaf8
 1576 08d3 02       		.byte	0x2
 1577 08d4 23       		.byte	0x23
 1578 08d5 04       		.uleb128 0x4
 1579 08d6 10       		.uleb128 0x10
 1580 08d7 BB020000 		.4byte	.LASF123
 1581 08db 0B       		.byte	0xb
 1582 08dc 6702     		.2byte	0x267
 1583 08de F80A0000 		.4byte	0xaf8
 1584 08e2 02       		.byte	0x2
 1585 08e3 23       		.byte	0x23
 1586 08e4 08       		.uleb128 0x8
 1587 08e5 10       		.uleb128 0x10
 1588 08e6 5D020000 		.4byte	.LASF124
 1589 08ea 0B       		.byte	0xb
 1590 08eb 6702     		.2byte	0x267
 1591 08ed F80A0000 		.4byte	0xaf8
 1592 08f1 02       		.byte	0x2
 1593 08f2 23       		.byte	0x23
 1594 08f3 0C       		.uleb128 0xc
 1595 08f4 10       		.uleb128 0x10
 1596 08f5 D6050000 		.4byte	.LASF125
 1597 08f9 0B       		.byte	0xb
 1598 08fa 6902     		.2byte	0x269
 1599 08fc 82000000 		.4byte	0x82
 1600 0900 02       		.byte	0x2
 1601 0901 23       		.byte	0x23
 1602 0902 10       		.uleb128 0x10
 1603 0903 10       		.uleb128 0x10
 1604 0904 42000000 		.4byte	.LASF126
 1605 0908 0B       		.byte	0xb
 1606 0909 6A02     		.2byte	0x26a
 1607 090b 130D0000 		.4byte	0xd13
 1608 090f 02       		.byte	0x2
 1609 0910 23       		.byte	0x23
ARM GAS  C:\Users\EBANO_~1\AppData\Local\Temp\ccWJ4OLX.s 			page 32


 1610 0911 14       		.uleb128 0x14
 1611 0912 10       		.uleb128 0x10
 1612 0913 17060000 		.4byte	.LASF127
 1613 0917 0B       		.byte	0xb
 1614 0918 6D02     		.2byte	0x26d
 1615 091a 82000000 		.4byte	0x82
 1616 091e 02       		.byte	0x2
 1617 091f 23       		.byte	0x23
 1618 0920 30       		.uleb128 0x30
 1619 0921 10       		.uleb128 0x10
 1620 0922 0A060000 		.4byte	.LASF128
 1621 0926 0B       		.byte	0xb
 1622 0927 6E02     		.2byte	0x26e
 1623 0929 290D0000 		.4byte	0xd29
 1624 092d 02       		.byte	0x2
 1625 092e 23       		.byte	0x23
 1626 092f 34       		.uleb128 0x34
 1627 0930 10       		.uleb128 0x10
 1628 0931 3D040000 		.4byte	.LASF129
 1629 0935 0B       		.byte	0xb
 1630 0936 7002     		.2byte	0x270
 1631 0938 82000000 		.4byte	0x82
 1632 093c 02       		.byte	0x2
 1633 093d 23       		.byte	0x23
 1634 093e 38       		.uleb128 0x38
 1635 093f 10       		.uleb128 0x10
 1636 0940 96070000 		.4byte	.LASF130
 1637 0944 0B       		.byte	0xb
 1638 0945 7202     		.2byte	0x272
 1639 0947 3B0D0000 		.4byte	0xd3b
 1640 094b 02       		.byte	0x2
 1641 094c 23       		.byte	0x23
 1642 094d 3C       		.uleb128 0x3c
 1643 094e 10       		.uleb128 0x10
 1644 094f 44030000 		.4byte	.LASF131
 1645 0953 0B       		.byte	0xb
 1646 0954 7502     		.2byte	0x275
 1647 0956 98050000 		.4byte	0x598
 1648 095a 02       		.byte	0x2
 1649 095b 23       		.byte	0x23
 1650 095c 40       		.uleb128 0x40
 1651 095d 10       		.uleb128 0x10
 1652 095e AB010000 		.4byte	.LASF132
 1653 0962 0B       		.byte	0xb
 1654 0963 7602     		.2byte	0x276
 1655 0965 82000000 		.4byte	0x82
 1656 0969 02       		.byte	0x2
 1657 096a 23       		.byte	0x23
 1658 096b 44       		.uleb128 0x44
 1659 096c 10       		.uleb128 0x10
 1660 096d BD080000 		.4byte	.LASF133
 1661 0971 0B       		.byte	0xb
 1662 0972 7702     		.2byte	0x277
 1663 0974 98050000 		.4byte	0x598
 1664 0978 02       		.byte	0x2
 1665 0979 23       		.byte	0x23
 1666 097a 48       		.uleb128 0x48
ARM GAS  C:\Users\EBANO_~1\AppData\Local\Temp\ccWJ4OLX.s 			page 33


 1667 097b 10       		.uleb128 0x10
 1668 097c 6D040000 		.4byte	.LASF134
 1669 0980 0B       		.byte	0xb
 1670 0981 7802     		.2byte	0x278
 1671 0983 410D0000 		.4byte	0xd41
 1672 0987 02       		.byte	0x2
 1673 0988 23       		.byte	0x23
 1674 0989 4C       		.uleb128 0x4c
 1675 098a 10       		.uleb128 0x10
 1676 098b C3020000 		.4byte	.LASF135
 1677 098f 0B       		.byte	0xb
 1678 0990 7B02     		.2byte	0x27b
 1679 0992 82000000 		.4byte	0x82
 1680 0996 02       		.byte	0x2
 1681 0997 23       		.byte	0x23
 1682 0998 50       		.uleb128 0x50
 1683 0999 10       		.uleb128 0x10
 1684 099a CC010000 		.4byte	.LASF136
 1685 099e 0B       		.byte	0xb
 1686 099f 7C02     		.2byte	0x27c
 1687 09a1 080A0000 		.4byte	0xa08
 1688 09a5 02       		.byte	0x2
 1689 09a6 23       		.byte	0x23
 1690 09a7 54       		.uleb128 0x54
 1691 09a8 10       		.uleb128 0x10
 1692 09a9 5E030000 		.4byte	.LASF137
 1693 09ad 0B       		.byte	0xb
 1694 09ae 9F02     		.2byte	0x29f
 1695 09b0 F10C0000 		.4byte	0xcf1
 1696 09b4 02       		.byte	0x2
 1697 09b5 23       		.byte	0x23
 1698 09b6 58       		.uleb128 0x58
 1699 09b7 10       		.uleb128 0x10
 1700 09b8 2B040000 		.4byte	.LASF97
 1701 09bc 0B       		.byte	0xb
 1702 09bd A302     		.2byte	0x2a3
 1703 09bf D9060000 		.4byte	0x6d9
 1704 09c3 03       		.byte	0x3
 1705 09c4 23       		.byte	0x23
 1706 09c5 C802     		.uleb128 0x148
 1707 09c7 10       		.uleb128 0x10
 1708 09c8 69000000 		.4byte	.LASF138
 1709 09cc 0B       		.byte	0xb
 1710 09cd A402     		.2byte	0x2a4
 1711 09cf 92060000 		.4byte	0x692
 1712 09d3 03       		.byte	0x3
 1713 09d4 23       		.byte	0x23
 1714 09d5 CC02     		.uleb128 0x14c
 1715 09d7 10       		.uleb128 0x10
 1716 09d8 D5070000 		.4byte	.LASF139
 1717 09dc 0B       		.byte	0xb
 1718 09dd A802     		.2byte	0x2a8
 1719 09df 530D0000 		.4byte	0xd53
 1720 09e3 03       		.byte	0x3
 1721 09e4 23       		.byte	0x23
 1722 09e5 DC05     		.uleb128 0x2dc
 1723 09e7 10       		.uleb128 0x10
ARM GAS  C:\Users\EBANO_~1\AppData\Local\Temp\ccWJ4OLX.s 			page 34


 1724 09e8 84010000 		.4byte	.LASF140
 1725 09ec 0B       		.byte	0xb
 1726 09ed AD02     		.2byte	0x2ad
 1727 09ef B70A0000 		.4byte	0xab7
 1728 09f3 03       		.byte	0x3
 1729 09f4 23       		.byte	0x23
 1730 09f5 E005     		.uleb128 0x2e0
 1731 09f7 10       		.uleb128 0x10
 1732 09f8 69010000 		.4byte	.LASF141
 1733 09fc 0B       		.byte	0xb
 1734 09fd AF02     		.2byte	0x2af
 1735 09ff 5F0D0000 		.4byte	0xd5f
 1736 0a03 03       		.byte	0x3
 1737 0a04 23       		.byte	0x23
 1738 0a05 EC05     		.uleb128 0x2ec
 1739 0a07 00       		.byte	0
 1740 0a08 0E       		.uleb128 0xe
 1741 0a09 04       		.byte	0x4
 1742 0a0a 0E0A0000 		.4byte	0xa0e
 1743 0a0e 02       		.uleb128 0x2
 1744 0a0f 01       		.byte	0x1
 1745 0a10 08       		.byte	0x8
 1746 0a11 89060000 		.4byte	.LASF142
 1747 0a15 05       		.uleb128 0x5
 1748 0a16 0E0A0000 		.4byte	0xa0e
 1749 0a1a 0E       		.uleb128 0xe
 1750 0a1b 04       		.byte	0x4
 1751 0a1c 80080000 		.4byte	0x880
 1752 0a20 1C       		.uleb128 0x1c
 1753 0a21 01       		.byte	0x1
 1754 0a22 82000000 		.4byte	0x82
 1755 0a26 3F0A0000 		.4byte	0xa3f
 1756 0a2a 1D       		.uleb128 0x1d
 1757 0a2b 9F080000 		.4byte	0x89f
 1758 0a2f 1D       		.uleb128 0x1d
 1759 0a30 89040000 		.4byte	0x489
 1760 0a34 1D       		.uleb128 0x1d
 1761 0a35 3F0A0000 		.4byte	0xa3f
 1762 0a39 1D       		.uleb128 0x1d
 1763 0a3a 82000000 		.4byte	0x82
 1764 0a3e 00       		.byte	0
 1765 0a3f 0E       		.uleb128 0xe
 1766 0a40 04       		.byte	0x4
 1767 0a41 150A0000 		.4byte	0xa15
 1768 0a45 0E       		.uleb128 0xe
 1769 0a46 04       		.byte	0x4
 1770 0a47 200A0000 		.4byte	0xa20
 1771 0a4b 1C       		.uleb128 0x1c
 1772 0a4c 01       		.byte	0x1
 1773 0a4d AD040000 		.4byte	0x4ad
 1774 0a51 6A0A0000 		.4byte	0xa6a
 1775 0a55 1D       		.uleb128 0x1d
 1776 0a56 9F080000 		.4byte	0x89f
 1777 0a5a 1D       		.uleb128 0x1d
 1778 0a5b 89040000 		.4byte	0x489
 1779 0a5f 1D       		.uleb128 0x1d
 1780 0a60 AD040000 		.4byte	0x4ad
ARM GAS  C:\Users\EBANO_~1\AppData\Local\Temp\ccWJ4OLX.s 			page 35


 1781 0a64 1D       		.uleb128 0x1d
 1782 0a65 82000000 		.4byte	0x82
 1783 0a69 00       		.byte	0
 1784 0a6a 0E       		.uleb128 0xe
 1785 0a6b 04       		.byte	0x4
 1786 0a6c 4B0A0000 		.4byte	0xa4b
 1787 0a70 1C       		.uleb128 0x1c
 1788 0a71 01       		.byte	0x1
 1789 0a72 82000000 		.4byte	0x82
 1790 0a76 850A0000 		.4byte	0xa85
 1791 0a7a 1D       		.uleb128 0x1d
 1792 0a7b 9F080000 		.4byte	0x89f
 1793 0a7f 1D       		.uleb128 0x1d
 1794 0a80 89040000 		.4byte	0x489
 1795 0a84 00       		.byte	0
 1796 0a85 0E       		.uleb128 0xe
 1797 0a86 04       		.byte	0x4
 1798 0a87 700A0000 		.4byte	0xa70
 1799 0a8b 0C       		.uleb128 0xc
 1800 0a8c 3B000000 		.4byte	0x3b
 1801 0a90 9B0A0000 		.4byte	0xa9b
 1802 0a94 0D       		.uleb128 0xd
 1803 0a95 89000000 		.4byte	0x89
 1804 0a99 02       		.byte	0x2
 1805 0a9a 00       		.byte	0
 1806 0a9b 0C       		.uleb128 0xc
 1807 0a9c 3B000000 		.4byte	0x3b
 1808 0aa0 AB0A0000 		.4byte	0xaab
 1809 0aa4 0D       		.uleb128 0xd
 1810 0aa5 89000000 		.4byte	0x89
 1811 0aa9 00       		.byte	0
 1812 0aaa 00       		.byte	0
 1813 0aab 12       		.uleb128 0x12
 1814 0aac A6050000 		.4byte	.LASF143
 1815 0ab0 0B       		.byte	0xb
 1816 0ab1 1F01     		.2byte	0x11f
 1817 0ab3 26070000 		.4byte	0x726
 1818 0ab7 1F       		.uleb128 0x1f
 1819 0ab8 A5070000 		.4byte	.LASF144
 1820 0abc 0C       		.byte	0xc
 1821 0abd 0B       		.byte	0xb
 1822 0abe 2301     		.2byte	0x123
 1823 0ac0 F20A0000 		.4byte	0xaf2
 1824 0ac4 10       		.uleb128 0x10
 1825 0ac5 DC060000 		.4byte	.LASF78
 1826 0ac9 0B       		.byte	0xb
 1827 0aca 2501     		.2byte	0x125
 1828 0acc F20A0000 		.4byte	0xaf2
 1829 0ad0 02       		.byte	0x2
 1830 0ad1 23       		.byte	0x23
 1831 0ad2 00       		.uleb128 0
 1832 0ad3 10       		.uleb128 0x10
 1833 0ad4 F8020000 		.4byte	.LASF145
 1834 0ad8 0B       		.byte	0xb
 1835 0ad9 2601     		.2byte	0x126
 1836 0adb 82000000 		.4byte	0x82
 1837 0adf 02       		.byte	0x2
ARM GAS  C:\Users\EBANO_~1\AppData\Local\Temp\ccWJ4OLX.s 			page 36


 1838 0ae0 23       		.byte	0x23
 1839 0ae1 04       		.uleb128 0x4
 1840 0ae2 10       		.uleb128 0x10
 1841 0ae3 6F050000 		.4byte	.LASF146
 1842 0ae7 0B       		.byte	0xb
 1843 0ae8 2701     		.2byte	0x127
 1844 0aea F80A0000 		.4byte	0xaf8
 1845 0aee 02       		.byte	0x2
 1846 0aef 23       		.byte	0x23
 1847 0af0 08       		.uleb128 0x8
 1848 0af1 00       		.byte	0
 1849 0af2 0E       		.uleb128 0xe
 1850 0af3 04       		.byte	0x4
 1851 0af4 B70A0000 		.4byte	0xab7
 1852 0af8 0E       		.uleb128 0xe
 1853 0af9 04       		.byte	0x4
 1854 0afa AB0A0000 		.4byte	0xaab
 1855 0afe 1F       		.uleb128 0x1f
 1856 0aff 2E000000 		.4byte	.LASF147
 1857 0b03 0E       		.byte	0xe
 1858 0b04 0B       		.byte	0xb
 1859 0b05 3F01     		.2byte	0x13f
 1860 0b07 390B0000 		.4byte	0xb39
 1861 0b0b 10       		.uleb128 0x10
 1862 0b0c 3F060000 		.4byte	.LASF148
 1863 0b10 0B       		.byte	0xb
 1864 0b11 4001     		.2byte	0x140
 1865 0b13 390B0000 		.4byte	0xb39
 1866 0b17 02       		.byte	0x2
 1867 0b18 23       		.byte	0x23
 1868 0b19 00       		.uleb128 0
 1869 0b1a 10       		.uleb128 0x10
 1870 0b1b 69030000 		.4byte	.LASF149
 1871 0b1f 0B       		.byte	0xb
 1872 0b20 4101     		.2byte	0x141
 1873 0b22 390B0000 		.4byte	0xb39
 1874 0b26 02       		.byte	0x2
 1875 0b27 23       		.byte	0x23
 1876 0b28 06       		.uleb128 0x6
 1877 0b29 10       		.uleb128 0x10
 1878 0b2a 2A070000 		.4byte	.LASF150
 1879 0b2e 0B       		.byte	0xb
 1880 0b2f 4201     		.2byte	0x142
 1881 0b31 54000000 		.4byte	0x54
 1882 0b35 02       		.byte	0x2
 1883 0b36 23       		.byte	0x23
 1884 0b37 0C       		.uleb128 0xc
 1885 0b38 00       		.byte	0
 1886 0b39 0C       		.uleb128 0xc
 1887 0b3a 54000000 		.4byte	0x54
 1888 0b3e 490B0000 		.4byte	0xb49
 1889 0b42 0D       		.uleb128 0xd
 1890 0b43 89000000 		.4byte	0x89
 1891 0b47 02       		.byte	0x2
 1892 0b48 00       		.byte	0
 1893 0b49 20       		.uleb128 0x20
 1894 0b4a D0       		.byte	0xd0
ARM GAS  C:\Users\EBANO_~1\AppData\Local\Temp\ccWJ4OLX.s 			page 37


 1895 0b4b 0B       		.byte	0xb
 1896 0b4c 8002     		.2byte	0x280
 1897 0b4e 790C0000 		.4byte	0xc79
 1898 0b52 10       		.uleb128 0x10
 1899 0b53 D8030000 		.4byte	.LASF151
 1900 0b57 0B       		.byte	0xb
 1901 0b58 8202     		.2byte	0x282
 1902 0b5a 89000000 		.4byte	0x89
 1903 0b5e 02       		.byte	0x2
 1904 0b5f 23       		.byte	0x23
 1905 0b60 00       		.uleb128 0
 1906 0b61 10       		.uleb128 0x10
 1907 0b62 1A020000 		.4byte	.LASF152
 1908 0b66 0B       		.byte	0xb
 1909 0b67 8302     		.2byte	0x283
 1910 0b69 080A0000 		.4byte	0xa08
 1911 0b6d 02       		.byte	0x2
 1912 0b6e 23       		.byte	0x23
 1913 0b6f 04       		.uleb128 0x4
 1914 0b70 10       		.uleb128 0x10
 1915 0b71 37030000 		.4byte	.LASF153
 1916 0b75 0B       		.byte	0xb
 1917 0b76 8402     		.2byte	0x284
 1918 0b78 790C0000 		.4byte	0xc79
 1919 0b7c 02       		.byte	0x2
 1920 0b7d 23       		.byte	0x23
 1921 0b7e 08       		.uleb128 0x8
 1922 0b7f 10       		.uleb128 0x10
 1923 0b80 7D080000 		.4byte	.LASF154
 1924 0b84 0B       		.byte	0xb
 1925 0b85 8502     		.2byte	0x285
 1926 0b87 AE050000 		.4byte	0x5ae
 1927 0b8b 02       		.byte	0x2
 1928 0b8c 23       		.byte	0x23
 1929 0b8d 24       		.uleb128 0x24
 1930 0b8e 10       		.uleb128 0x10
 1931 0b8f 48040000 		.4byte	.LASF155
 1932 0b93 0B       		.byte	0xb
 1933 0b94 8602     		.2byte	0x286
 1934 0b96 82000000 		.4byte	0x82
 1935 0b9a 02       		.byte	0x2
 1936 0b9b 23       		.byte	0x23
 1937 0b9c 48       		.uleb128 0x48
 1938 0b9d 10       		.uleb128 0x10
 1939 0b9e FF020000 		.4byte	.LASF156
 1940 0ba2 0B       		.byte	0xb
 1941 0ba3 8702     		.2byte	0x287
 1942 0ba5 7B000000 		.4byte	0x7b
 1943 0ba9 02       		.byte	0x2
 1944 0baa 23       		.byte	0x23
 1945 0bab 50       		.uleb128 0x50
 1946 0bac 10       		.uleb128 0x10
 1947 0bad 95080000 		.4byte	.LASF157
 1948 0bb1 0B       		.byte	0xb
 1949 0bb2 8802     		.2byte	0x288
 1950 0bb4 FE0A0000 		.4byte	0xafe
 1951 0bb8 02       		.byte	0x2
ARM GAS  C:\Users\EBANO_~1\AppData\Local\Temp\ccWJ4OLX.s 			page 38


 1952 0bb9 23       		.byte	0x23
 1953 0bba 58       		.uleb128 0x58
 1954 0bbb 10       		.uleb128 0x10
 1955 0bbc C9050000 		.4byte	.LASF158
 1956 0bc0 0B       		.byte	0xb
 1957 0bc1 8902     		.2byte	0x289
 1958 0bc3 18050000 		.4byte	0x518
 1959 0bc7 02       		.byte	0x2
 1960 0bc8 23       		.byte	0x23
 1961 0bc9 68       		.uleb128 0x68
 1962 0bca 10       		.uleb128 0x10
 1963 0bcb AF080000 		.4byte	.LASF159
 1964 0bcf 0B       		.byte	0xb
 1965 0bd0 8A02     		.2byte	0x28a
 1966 0bd2 18050000 		.4byte	0x518
 1967 0bd6 02       		.byte	0x2
 1968 0bd7 23       		.byte	0x23
 1969 0bd8 70       		.uleb128 0x70
 1970 0bd9 10       		.uleb128 0x10
 1971 0bda 97040000 		.4byte	.LASF160
 1972 0bde 0B       		.byte	0xb
 1973 0bdf 8B02     		.2byte	0x28b
 1974 0be1 18050000 		.4byte	0x518
 1975 0be5 02       		.byte	0x2
 1976 0be6 23       		.byte	0x23
 1977 0be7 78       		.uleb128 0x78
 1978 0be8 10       		.uleb128 0x10
 1979 0be9 B9070000 		.4byte	.LASF161
 1980 0bed 0B       		.byte	0xb
 1981 0bee 8C02     		.2byte	0x28c
 1982 0bf0 890C0000 		.4byte	0xc89
 1983 0bf4 03       		.byte	0x3
 1984 0bf5 23       		.byte	0x23
 1985 0bf6 8001     		.uleb128 0x80
 1986 0bf8 10       		.uleb128 0x10
 1987 0bf9 2B030000 		.4byte	.LASF162
 1988 0bfd 0B       		.byte	0xb
 1989 0bfe 8D02     		.2byte	0x28d
 1990 0c00 990C0000 		.4byte	0xc99
 1991 0c04 03       		.byte	0x3
 1992 0c05 23       		.byte	0x23
 1993 0c06 8801     		.uleb128 0x88
 1994 0c08 10       		.uleb128 0x10
 1995 0c09 37070000 		.4byte	.LASF163
 1996 0c0d 0B       		.byte	0xb
 1997 0c0e 8E02     		.2byte	0x28e
 1998 0c10 82000000 		.4byte	0x82
 1999 0c14 03       		.byte	0x3
 2000 0c15 23       		.byte	0x23
 2001 0c16 A001     		.uleb128 0xa0
 2002 0c18 10       		.uleb128 0x10
 2003 0c19 27020000 		.4byte	.LASF164
 2004 0c1d 0B       		.byte	0xb
 2005 0c1e 8F02     		.2byte	0x28f
 2006 0c20 18050000 		.4byte	0x518
 2007 0c24 03       		.byte	0x3
 2008 0c25 23       		.byte	0x23
ARM GAS  C:\Users\EBANO_~1\AppData\Local\Temp\ccWJ4OLX.s 			page 39


 2009 0c26 A401     		.uleb128 0xa4
 2010 0c28 10       		.uleb128 0x10
 2011 0c29 F2000000 		.4byte	.LASF165
 2012 0c2d 0B       		.byte	0xb
 2013 0c2e 9002     		.2byte	0x290
 2014 0c30 18050000 		.4byte	0x518
 2015 0c34 03       		.byte	0x3
 2016 0c35 23       		.byte	0x23
 2017 0c36 AC01     		.uleb128 0xac
 2018 0c38 10       		.uleb128 0x10
 2019 0c39 09020000 		.4byte	.LASF166
 2020 0c3d 0B       		.byte	0xb
 2021 0c3e 9102     		.2byte	0x291
 2022 0c40 18050000 		.4byte	0x518
 2023 0c44 03       		.byte	0x3
 2024 0c45 23       		.byte	0x23
 2025 0c46 B401     		.uleb128 0xb4
 2026 0c48 10       		.uleb128 0x10
 2027 0c49 86000000 		.4byte	.LASF167
 2028 0c4d 0B       		.byte	0xb
 2029 0c4e 9202     		.2byte	0x292
 2030 0c50 18050000 		.4byte	0x518
 2031 0c54 03       		.byte	0x3
 2032 0c55 23       		.byte	0x23
 2033 0c56 BC01     		.uleb128 0xbc
 2034 0c58 10       		.uleb128 0x10
 2035 0c59 95000000 		.4byte	.LASF168
 2036 0c5d 0B       		.byte	0xb
 2037 0c5e 9302     		.2byte	0x293
 2038 0c60 18050000 		.4byte	0x518
 2039 0c64 03       		.byte	0x3
 2040 0c65 23       		.byte	0x23
 2041 0c66 C401     		.uleb128 0xc4
 2042 0c68 10       		.uleb128 0x10
 2043 0c69 7B050000 		.4byte	.LASF169
 2044 0c6d 0B       		.byte	0xb
 2045 0c6e 9402     		.2byte	0x294
 2046 0c70 82000000 		.4byte	0x82
 2047 0c74 03       		.byte	0x3
 2048 0c75 23       		.byte	0x23
 2049 0c76 CC01     		.uleb128 0xcc
 2050 0c78 00       		.byte	0
 2051 0c79 0C       		.uleb128 0xc
 2052 0c7a 0E0A0000 		.4byte	0xa0e
 2053 0c7e 890C0000 		.4byte	0xc89
 2054 0c82 0D       		.uleb128 0xd
 2055 0c83 89000000 		.4byte	0x89
 2056 0c87 19       		.byte	0x19
 2057 0c88 00       		.byte	0
 2058 0c89 0C       		.uleb128 0xc
 2059 0c8a 0E0A0000 		.4byte	0xa0e
 2060 0c8e 990C0000 		.4byte	0xc99
 2061 0c92 0D       		.uleb128 0xd
 2062 0c93 89000000 		.4byte	0x89
 2063 0c97 07       		.byte	0x7
 2064 0c98 00       		.byte	0
 2065 0c99 0C       		.uleb128 0xc
ARM GAS  C:\Users\EBANO_~1\AppData\Local\Temp\ccWJ4OLX.s 			page 40


 2066 0c9a 0E0A0000 		.4byte	0xa0e
 2067 0c9e A90C0000 		.4byte	0xca9
 2068 0ca2 0D       		.uleb128 0xd
 2069 0ca3 89000000 		.4byte	0x89
 2070 0ca7 17       		.byte	0x17
 2071 0ca8 00       		.byte	0
 2072 0ca9 20       		.uleb128 0x20
 2073 0caa F0       		.byte	0xf0
 2074 0cab 0B       		.byte	0xb
 2075 0cac 9902     		.2byte	0x299
 2076 0cae D10C0000 		.4byte	0xcd1
 2077 0cb2 10       		.uleb128 0x10
 2078 0cb3 05040000 		.4byte	.LASF170
 2079 0cb7 0B       		.byte	0xb
 2080 0cb8 9C02     		.2byte	0x29c
 2081 0cba D10C0000 		.4byte	0xcd1
 2082 0cbe 02       		.byte	0x2
 2083 0cbf 23       		.byte	0x23
 2084 0cc0 00       		.uleb128 0
 2085 0cc1 10       		.uleb128 0x10
 2086 0cc2 E5030000 		.4byte	.LASF171
 2087 0cc6 0B       		.byte	0xb
 2088 0cc7 9D02     		.2byte	0x29d
 2089 0cc9 E10C0000 		.4byte	0xce1
 2090 0ccd 02       		.byte	0x2
 2091 0cce 23       		.byte	0x23
 2092 0ccf 78       		.uleb128 0x78
 2093 0cd0 00       		.byte	0
 2094 0cd1 0C       		.uleb128 0xc
 2095 0cd2 20070000 		.4byte	0x720
 2096 0cd6 E10C0000 		.4byte	0xce1
 2097 0cda 0D       		.uleb128 0xd
 2098 0cdb 89000000 		.4byte	0x89
 2099 0cdf 1D       		.byte	0x1d
 2100 0ce0 00       		.byte	0
 2101 0ce1 0C       		.uleb128 0xc
 2102 0ce2 89000000 		.4byte	0x89
 2103 0ce6 F10C0000 		.4byte	0xcf1
 2104 0cea 0D       		.uleb128 0xd
 2105 0ceb 89000000 		.4byte	0x89
 2106 0cef 1D       		.byte	0x1d
 2107 0cf0 00       		.byte	0
 2108 0cf1 21       		.uleb128 0x21
 2109 0cf2 F0       		.byte	0xf0
 2110 0cf3 0B       		.byte	0xb
 2111 0cf4 7E02     		.2byte	0x27e
 2112 0cf6 130D0000 		.4byte	0xd13
 2113 0cfa 22       		.uleb128 0x22
 2114 0cfb 38060000 		.4byte	.LASF120
 2115 0cff 0B       		.byte	0xb
 2116 0d00 9502     		.2byte	0x295
 2117 0d02 490B0000 		.4byte	0xb49
 2118 0d06 22       		.uleb128 0x22
 2119 0d07 58080000 		.4byte	.LASF172
 2120 0d0b 0B       		.byte	0xb
 2121 0d0c 9E02     		.2byte	0x29e
 2122 0d0e A90C0000 		.4byte	0xca9
ARM GAS  C:\Users\EBANO_~1\AppData\Local\Temp\ccWJ4OLX.s 			page 41


 2123 0d12 00       		.byte	0
 2124 0d13 0C       		.uleb128 0xc
 2125 0d14 0E0A0000 		.4byte	0xa0e
 2126 0d18 230D0000 		.4byte	0xd23
 2127 0d1c 0D       		.uleb128 0xd
 2128 0d1d 89000000 		.4byte	0x89
 2129 0d21 18       		.byte	0x18
 2130 0d22 00       		.byte	0
 2131 0d23 17       		.uleb128 0x17
 2132 0d24 E1000000 		.4byte	.LASF174
 2133 0d28 01       		.byte	0x1
 2134 0d29 0E       		.uleb128 0xe
 2135 0d2a 04       		.byte	0x4
 2136 0d2b 230D0000 		.4byte	0xd23
 2137 0d2f 23       		.uleb128 0x23
 2138 0d30 01       		.byte	0x1
 2139 0d31 3B0D0000 		.4byte	0xd3b
 2140 0d35 1D       		.uleb128 0x1d
 2141 0d36 9F080000 		.4byte	0x89f
 2142 0d3a 00       		.byte	0
 2143 0d3b 0E       		.uleb128 0xe
 2144 0d3c 04       		.byte	0x4
 2145 0d3d 2F0D0000 		.4byte	0xd2f
 2146 0d41 0E       		.uleb128 0xe
 2147 0d42 04       		.byte	0x4
 2148 0d43 98050000 		.4byte	0x598
 2149 0d47 23       		.uleb128 0x23
 2150 0d48 01       		.byte	0x1
 2151 0d49 530D0000 		.4byte	0xd53
 2152 0d4d 1D       		.uleb128 0x1d
 2153 0d4e 82000000 		.4byte	0x82
 2154 0d52 00       		.byte	0
 2155 0d53 0E       		.uleb128 0xe
 2156 0d54 04       		.byte	0x4
 2157 0d55 590D0000 		.4byte	0xd59
 2158 0d59 0E       		.uleb128 0xe
 2159 0d5a 04       		.byte	0x4
 2160 0d5b 470D0000 		.4byte	0xd47
 2161 0d5f 0C       		.uleb128 0xc
 2162 0d60 AB0A0000 		.4byte	0xaab
 2163 0d64 6F0D0000 		.4byte	0xd6f
 2164 0d68 0D       		.uleb128 0xd
 2165 0d69 89000000 		.4byte	0x89
 2166 0d6d 02       		.byte	0x2
 2167 0d6e 00       		.byte	0
 2168 0d6f 24       		.uleb128 0x24
 2169 0d70 51020000 		.4byte	.LASF175
 2170 0d74 0B       		.byte	0xb
 2171 0d75 2E03     		.2byte	0x32e
 2172 0d77 9F080000 		.4byte	0x89f
 2173 0d7b 01       		.byte	0x1
 2174 0d7c 01       		.byte	0x1
 2175 0d7d 24       		.uleb128 0x24
 2176 0d7e 49070000 		.4byte	.LASF176
 2177 0d82 0B       		.byte	0xb
 2178 0d83 2F03     		.2byte	0x32f
 2179 0d85 A5080000 		.4byte	0x8a5
ARM GAS  C:\Users\EBANO_~1\AppData\Local\Temp\ccWJ4OLX.s 			page 42


 2180 0d89 01       		.byte	0x1
 2181 0d8a 01       		.byte	0x1
 2182 0d8b 15       		.uleb128 0x15
 2183 0d8c 33040000 		.4byte	.LASF177
 2184 0d90 0C       		.byte	0xc
 2185 0d91 63       		.byte	0x63
 2186 0d92 080A0000 		.4byte	0xa08
 2187 0d96 01       		.byte	0x1
 2188 0d97 01       		.byte	0x1
 2189 0d98 25       		.uleb128 0x25
 2190 0d99 01       		.byte	0x1
 2191 0d9a C3070000 		.4byte	.LASF178
 2192 0d9e 01       		.byte	0x1
 2193 0d9f 44       		.byte	0x44
 2194 0da0 01       		.byte	0x1
 2195 0da1 04040000 		.4byte	0x404
 2196 0da5 00000000 		.4byte	.LFB40
 2197 0da9 B8000000 		.4byte	.LFE40
 2198 0dad 00000000 		.4byte	.LLST3
 2199 0db1 01       		.byte	0x1
 2200 0db2 F20D0000 		.4byte	0xdf2
 2201 0db6 26       		.uleb128 0x26
 2202 0db7 1E010000 		.4byte	.LASF180
 2203 0dbb 01       		.byte	0x1
 2204 0dbc 44       		.byte	0x44
 2205 0dbd F20D0000 		.4byte	0xdf2
 2206 0dc1 20000000 		.4byte	.LLST4
 2207 0dc5 27       		.uleb128 0x27
 2208 0dc6 1F000000 		.4byte	.LASF181
 2209 0dca 01       		.byte	0x1
 2210 0dcb 4B       		.byte	0x4b
 2211 0dcc A0000000 		.4byte	0xa0
 2212 0dd0 62000000 		.4byte	.LLST5
 2213 0dd4 28       		.uleb128 0x28
 2214 0dd5 4E000000 		.4byte	.LVL27
 2215 0dd9 820E0000 		.4byte	0xe82
 2216 0ddd E80D0000 		.4byte	0xde8
 2217 0de1 29       		.uleb128 0x29
 2218 0de2 01       		.byte	0x1
 2219 0de3 50       		.byte	0x50
 2220 0de4 02       		.byte	0x2
 2221 0de5 74       		.byte	0x74
 2222 0de6 10       		.sleb128 16
 2223 0de7 00       		.byte	0
 2224 0de8 2A       		.uleb128 0x2a
 2225 0de9 B4000000 		.4byte	.LVL36
 2226 0ded 820E0000 		.4byte	0xe82
 2227 0df1 00       		.byte	0
 2228 0df2 0E       		.uleb128 0xe
 2229 0df3 04       		.byte	0x4
 2230 0df4 CE030000 		.4byte	0x3ce
 2231 0df8 25       		.uleb128 0x25
 2232 0df9 01       		.byte	0x1
 2233 0dfa DC010000 		.4byte	.LASF179
 2234 0dfe 01       		.byte	0x1
 2235 0dff 18       		.byte	0x18
 2236 0e00 01       		.byte	0x1
ARM GAS  C:\Users\EBANO_~1\AppData\Local\Temp\ccWJ4OLX.s 			page 43


 2237 0e01 04040000 		.4byte	0x404
 2238 0e05 00000000 		.4byte	.LFB39
 2239 0e09 9E000000 		.4byte	.LFE39
 2240 0e0d 0D010000 		.4byte	.LLST0
 2241 0e11 01       		.byte	0x1
 2242 0e12 7C0E0000 		.4byte	0xe7c
 2243 0e16 26       		.uleb128 0x26
 2244 0e17 1E010000 		.4byte	.LASF180
 2245 0e1b 01       		.byte	0x1
 2246 0e1c 18       		.byte	0x18
 2247 0e1d 7C0E0000 		.4byte	0xe7c
 2248 0e21 2D010000 		.4byte	.LLST1
 2249 0e25 27       		.uleb128 0x27
 2250 0e26 1F000000 		.4byte	.LASF181
 2251 0e2a 01       		.byte	0x1
 2252 0e2b 1F       		.byte	0x1f
 2253 0e2c A0000000 		.4byte	0xa0
 2254 0e30 6F010000 		.4byte	.LLST2
 2255 0e34 28       		.uleb128 0x28
 2256 0e35 1A000000 		.4byte	.LVL3
 2257 0e39 820E0000 		.4byte	0xe82
 2258 0e3d 4D0E0000 		.4byte	0xe4d
 2259 0e41 29       		.uleb128 0x29
 2260 0e42 01       		.byte	0x1
 2261 0e43 50       		.byte	0x50
 2262 0e44 02       		.byte	0x2
 2263 0e45 74       		.byte	0x74
 2264 0e46 06       		.sleb128 6
 2265 0e47 29       		.uleb128 0x29
 2266 0e48 01       		.byte	0x1
 2267 0e49 52       		.byte	0x52
 2268 0e4a 01       		.byte	0x1
 2269 0e4b 33       		.byte	0x33
 2270 0e4c 00       		.byte	0
 2271 0e4d 28       		.uleb128 0x28
 2272 0e4e 28000000 		.4byte	.LVL4
 2273 0e52 820E0000 		.4byte	0xe82
 2274 0e56 660E0000 		.4byte	0xe66
 2275 0e5a 29       		.uleb128 0x29
 2276 0e5b 01       		.byte	0x1
 2277 0e5c 50       		.byte	0x50
 2278 0e5d 02       		.byte	0x2
 2279 0e5e 74       		.byte	0x74
 2280 0e5f 09       		.sleb128 9
 2281 0e60 29       		.uleb128 0x29
 2282 0e61 01       		.byte	0x1
 2283 0e62 52       		.byte	0x52
 2284 0e63 01       		.byte	0x1
 2285 0e64 33       		.byte	0x33
 2286 0e65 00       		.byte	0
 2287 0e66 2B       		.uleb128 0x2b
 2288 0e67 92000000 		.4byte	.LVL16
 2289 0e6b 820E0000 		.4byte	0xe82
 2290 0e6f 29       		.uleb128 0x29
 2291 0e70 01       		.byte	0x1
 2292 0e71 50       		.byte	0x50
 2293 0e72 02       		.byte	0x2
ARM GAS  C:\Users\EBANO_~1\AppData\Local\Temp\ccWJ4OLX.s 			page 44


 2294 0e73 74       		.byte	0x74
 2295 0e74 12       		.sleb128 18
 2296 0e75 29       		.uleb128 0x29
 2297 0e76 01       		.byte	0x1
 2298 0e77 52       		.byte	0x52
 2299 0e78 01       		.byte	0x1
 2300 0e79 40       		.byte	0x40
 2301 0e7a 00       		.byte	0
 2302 0e7b 00       		.byte	0
 2303 0e7c 0E       		.uleb128 0xe
 2304 0e7d 04       		.byte	0x4
 2305 0e7e 41030000 		.4byte	0x341
 2306 0e82 2C       		.uleb128 0x2c
 2307 0e83 01       		.byte	0x1
 2308 0e84 01       		.byte	0x1
 2309 0e85 D9000000 		.4byte	.LASF186
 2310 0e89 D9000000 		.4byte	.LASF186
 2311 0e8d 0D       		.byte	0xd
 2312 0e8e 89       		.byte	0x89
 2313 0e8f 00       		.byte	0
 2314              		.section	.debug_abbrev,"",%progbits
 2315              	.Ldebug_abbrev0:
 2316 0000 01       		.uleb128 0x1
 2317 0001 11       		.uleb128 0x11
 2318 0002 01       		.byte	0x1
 2319 0003 25       		.uleb128 0x25
 2320 0004 0E       		.uleb128 0xe
 2321 0005 13       		.uleb128 0x13
 2322 0006 0B       		.uleb128 0xb
 2323 0007 03       		.uleb128 0x3
 2324 0008 0E       		.uleb128 0xe
 2325 0009 1B       		.uleb128 0x1b
 2326 000a 0E       		.uleb128 0xe
 2327 000b 55       		.uleb128 0x55
 2328 000c 06       		.uleb128 0x6
 2329 000d 11       		.uleb128 0x11
 2330 000e 01       		.uleb128 0x1
 2331 000f 52       		.uleb128 0x52
 2332 0010 01       		.uleb128 0x1
 2333 0011 10       		.uleb128 0x10
 2334 0012 06       		.uleb128 0x6
 2335 0013 00       		.byte	0
 2336 0014 00       		.byte	0
 2337 0015 02       		.uleb128 0x2
 2338 0016 24       		.uleb128 0x24
 2339 0017 00       		.byte	0
 2340 0018 0B       		.uleb128 0xb
 2341 0019 0B       		.uleb128 0xb
 2342 001a 3E       		.uleb128 0x3e
 2343 001b 0B       		.uleb128 0xb
 2344 001c 03       		.uleb128 0x3
 2345 001d 0E       		.uleb128 0xe
 2346 001e 00       		.byte	0
 2347 001f 00       		.byte	0
 2348 0020 03       		.uleb128 0x3
 2349 0021 16       		.uleb128 0x16
 2350 0022 00       		.byte	0
ARM GAS  C:\Users\EBANO_~1\AppData\Local\Temp\ccWJ4OLX.s 			page 45


 2351 0023 03       		.uleb128 0x3
 2352 0024 0E       		.uleb128 0xe
 2353 0025 3A       		.uleb128 0x3a
 2354 0026 0B       		.uleb128 0xb
 2355 0027 3B       		.uleb128 0x3b
 2356 0028 0B       		.uleb128 0xb
 2357 0029 49       		.uleb128 0x49
 2358 002a 13       		.uleb128 0x13
 2359 002b 00       		.byte	0
 2360 002c 00       		.byte	0
 2361 002d 04       		.uleb128 0x4
 2362 002e 24       		.uleb128 0x24
 2363 002f 00       		.byte	0
 2364 0030 0B       		.uleb128 0xb
 2365 0031 0B       		.uleb128 0xb
 2366 0032 3E       		.uleb128 0x3e
 2367 0033 0B       		.uleb128 0xb
 2368 0034 03       		.uleb128 0x3
 2369 0035 08       		.uleb128 0x8
 2370 0036 00       		.byte	0
 2371 0037 00       		.byte	0
 2372 0038 05       		.uleb128 0x5
 2373 0039 26       		.uleb128 0x26
 2374 003a 00       		.byte	0
 2375 003b 49       		.uleb128 0x49
 2376 003c 13       		.uleb128 0x13
 2377 003d 00       		.byte	0
 2378 003e 00       		.byte	0
 2379 003f 06       		.uleb128 0x6
 2380 0040 13       		.uleb128 0x13
 2381 0041 01       		.byte	0x1
 2382 0042 03       		.uleb128 0x3
 2383 0043 0E       		.uleb128 0xe
 2384 0044 0B       		.uleb128 0xb
 2385 0045 0B       		.uleb128 0xb
 2386 0046 3A       		.uleb128 0x3a
 2387 0047 0B       		.uleb128 0xb
 2388 0048 3B       		.uleb128 0x3b
 2389 0049 0B       		.uleb128 0xb
 2390 004a 01       		.uleb128 0x1
 2391 004b 13       		.uleb128 0x13
 2392 004c 00       		.byte	0
 2393 004d 00       		.byte	0
 2394 004e 07       		.uleb128 0x7
 2395 004f 0D       		.uleb128 0xd
 2396 0050 00       		.byte	0
 2397 0051 03       		.uleb128 0x3
 2398 0052 0E       		.uleb128 0xe
 2399 0053 3A       		.uleb128 0x3a
 2400 0054 0B       		.uleb128 0xb
 2401 0055 3B       		.uleb128 0x3b
 2402 0056 0B       		.uleb128 0xb
 2403 0057 49       		.uleb128 0x49
 2404 0058 13       		.uleb128 0x13
 2405 0059 0B       		.uleb128 0xb
 2406 005a 0B       		.uleb128 0xb
 2407 005b 0D       		.uleb128 0xd
ARM GAS  C:\Users\EBANO_~1\AppData\Local\Temp\ccWJ4OLX.s 			page 46


 2408 005c 0B       		.uleb128 0xb
 2409 005d 0C       		.uleb128 0xc
 2410 005e 0B       		.uleb128 0xb
 2411 005f 38       		.uleb128 0x38
 2412 0060 0A       		.uleb128 0xa
 2413 0061 00       		.byte	0
 2414 0062 00       		.byte	0
 2415 0063 08       		.uleb128 0x8
 2416 0064 17       		.uleb128 0x17
 2417 0065 01       		.byte	0x1
 2418 0066 03       		.uleb128 0x3
 2419 0067 0E       		.uleb128 0xe
 2420 0068 0B       		.uleb128 0xb
 2421 0069 0B       		.uleb128 0xb
 2422 006a 3A       		.uleb128 0x3a
 2423 006b 0B       		.uleb128 0xb
 2424 006c 3B       		.uleb128 0x3b
 2425 006d 0B       		.uleb128 0xb
 2426 006e 01       		.uleb128 0x1
 2427 006f 13       		.uleb128 0x13
 2428 0070 00       		.byte	0
 2429 0071 00       		.byte	0
 2430 0072 09       		.uleb128 0x9
 2431 0073 0D       		.uleb128 0xd
 2432 0074 00       		.byte	0
 2433 0075 03       		.uleb128 0x3
 2434 0076 0E       		.uleb128 0xe
 2435 0077 3A       		.uleb128 0x3a
 2436 0078 0B       		.uleb128 0xb
 2437 0079 3B       		.uleb128 0x3b
 2438 007a 0B       		.uleb128 0xb
 2439 007b 49       		.uleb128 0x49
 2440 007c 13       		.uleb128 0x13
 2441 007d 00       		.byte	0
 2442 007e 00       		.byte	0
 2443 007f 0A       		.uleb128 0xa
 2444 0080 0D       		.uleb128 0xd
 2445 0081 00       		.byte	0
 2446 0082 03       		.uleb128 0x3
 2447 0083 08       		.uleb128 0x8
 2448 0084 3A       		.uleb128 0x3a
 2449 0085 0B       		.uleb128 0xb
 2450 0086 3B       		.uleb128 0x3b
 2451 0087 0B       		.uleb128 0xb
 2452 0088 49       		.uleb128 0x49
 2453 0089 13       		.uleb128 0x13
 2454 008a 0B       		.uleb128 0xb
 2455 008b 0B       		.uleb128 0xb
 2456 008c 0D       		.uleb128 0xd
 2457 008d 0B       		.uleb128 0xb
 2458 008e 0C       		.uleb128 0xc
 2459 008f 0B       		.uleb128 0xb
 2460 0090 38       		.uleb128 0x38
 2461 0091 0A       		.uleb128 0xa
 2462 0092 00       		.byte	0
 2463 0093 00       		.byte	0
 2464 0094 0B       		.uleb128 0xb
ARM GAS  C:\Users\EBANO_~1\AppData\Local\Temp\ccWJ4OLX.s 			page 47


 2465 0095 0D       		.uleb128 0xd
 2466 0096 00       		.byte	0
 2467 0097 03       		.uleb128 0x3
 2468 0098 0E       		.uleb128 0xe
 2469 0099 3A       		.uleb128 0x3a
 2470 009a 0B       		.uleb128 0xb
 2471 009b 3B       		.uleb128 0x3b
 2472 009c 0B       		.uleb128 0xb
 2473 009d 49       		.uleb128 0x49
 2474 009e 13       		.uleb128 0x13
 2475 009f 38       		.uleb128 0x38
 2476 00a0 0A       		.uleb128 0xa
 2477 00a1 00       		.byte	0
 2478 00a2 00       		.byte	0
 2479 00a3 0C       		.uleb128 0xc
 2480 00a4 01       		.uleb128 0x1
 2481 00a5 01       		.byte	0x1
 2482 00a6 49       		.uleb128 0x49
 2483 00a7 13       		.uleb128 0x13
 2484 00a8 01       		.uleb128 0x1
 2485 00a9 13       		.uleb128 0x13
 2486 00aa 00       		.byte	0
 2487 00ab 00       		.byte	0
 2488 00ac 0D       		.uleb128 0xd
 2489 00ad 21       		.uleb128 0x21
 2490 00ae 00       		.byte	0
 2491 00af 49       		.uleb128 0x49
 2492 00b0 13       		.uleb128 0x13
 2493 00b1 2F       		.uleb128 0x2f
 2494 00b2 0B       		.uleb128 0xb
 2495 00b3 00       		.byte	0
 2496 00b4 00       		.byte	0
 2497 00b5 0E       		.uleb128 0xe
 2498 00b6 0F       		.uleb128 0xf
 2499 00b7 00       		.byte	0
 2500 00b8 0B       		.uleb128 0xb
 2501 00b9 0B       		.uleb128 0xb
 2502 00ba 49       		.uleb128 0x49
 2503 00bb 13       		.uleb128 0x13
 2504 00bc 00       		.byte	0
 2505 00bd 00       		.byte	0
 2506 00be 0F       		.uleb128 0xf
 2507 00bf 0D       		.uleb128 0xd
 2508 00c0 00       		.byte	0
 2509 00c1 03       		.uleb128 0x3
 2510 00c2 08       		.uleb128 0x8
 2511 00c3 3A       		.uleb128 0x3a
 2512 00c4 0B       		.uleb128 0xb
 2513 00c5 3B       		.uleb128 0x3b
 2514 00c6 0B       		.uleb128 0xb
 2515 00c7 49       		.uleb128 0x49
 2516 00c8 13       		.uleb128 0x13
 2517 00c9 38       		.uleb128 0x38
 2518 00ca 0A       		.uleb128 0xa
 2519 00cb 00       		.byte	0
 2520 00cc 00       		.byte	0
 2521 00cd 10       		.uleb128 0x10
ARM GAS  C:\Users\EBANO_~1\AppData\Local\Temp\ccWJ4OLX.s 			page 48


 2522 00ce 0D       		.uleb128 0xd
 2523 00cf 00       		.byte	0
 2524 00d0 03       		.uleb128 0x3
 2525 00d1 0E       		.uleb128 0xe
 2526 00d2 3A       		.uleb128 0x3a
 2527 00d3 0B       		.uleb128 0xb
 2528 00d4 3B       		.uleb128 0x3b
 2529 00d5 05       		.uleb128 0x5
 2530 00d6 49       		.uleb128 0x49
 2531 00d7 13       		.uleb128 0x13
 2532 00d8 38       		.uleb128 0x38
 2533 00d9 0A       		.uleb128 0xa
 2534 00da 00       		.byte	0
 2535 00db 00       		.byte	0
 2536 00dc 11       		.uleb128 0x11
 2537 00dd 0D       		.uleb128 0xd
 2538 00de 00       		.byte	0
 2539 00df 03       		.uleb128 0x3
 2540 00e0 08       		.uleb128 0x8
 2541 00e1 3A       		.uleb128 0x3a
 2542 00e2 0B       		.uleb128 0xb
 2543 00e3 3B       		.uleb128 0x3b
 2544 00e4 05       		.uleb128 0x5
 2545 00e5 49       		.uleb128 0x49
 2546 00e6 13       		.uleb128 0x13
 2547 00e7 38       		.uleb128 0x38
 2548 00e8 0A       		.uleb128 0xa
 2549 00e9 00       		.byte	0
 2550 00ea 00       		.byte	0
 2551 00eb 12       		.uleb128 0x12
 2552 00ec 16       		.uleb128 0x16
 2553 00ed 00       		.byte	0
 2554 00ee 03       		.uleb128 0x3
 2555 00ef 0E       		.uleb128 0xe
 2556 00f0 3A       		.uleb128 0x3a
 2557 00f1 0B       		.uleb128 0xb
 2558 00f2 3B       		.uleb128 0x3b
 2559 00f3 05       		.uleb128 0x5
 2560 00f4 49       		.uleb128 0x49
 2561 00f5 13       		.uleb128 0x13
 2562 00f6 00       		.byte	0
 2563 00f7 00       		.byte	0
 2564 00f8 13       		.uleb128 0x13
 2565 00f9 04       		.uleb128 0x4
 2566 00fa 01       		.byte	0x1
 2567 00fb 03       		.uleb128 0x3
 2568 00fc 0E       		.uleb128 0xe
 2569 00fd 3E       		.uleb128 0x3e
 2570 00fe 0B       		.uleb128 0xb
 2571 00ff 0B       		.uleb128 0xb
 2572 0100 0B       		.uleb128 0xb
 2573 0101 49       		.uleb128 0x49
 2574 0102 13       		.uleb128 0x13
 2575 0103 3A       		.uleb128 0x3a
 2576 0104 0B       		.uleb128 0xb
 2577 0105 3B       		.uleb128 0x3b
 2578 0106 0B       		.uleb128 0xb
ARM GAS  C:\Users\EBANO_~1\AppData\Local\Temp\ccWJ4OLX.s 			page 49


 2579 0107 01       		.uleb128 0x1
 2580 0108 13       		.uleb128 0x13
 2581 0109 00       		.byte	0
 2582 010a 00       		.byte	0
 2583 010b 14       		.uleb128 0x14
 2584 010c 28       		.uleb128 0x28
 2585 010d 00       		.byte	0
 2586 010e 03       		.uleb128 0x3
 2587 010f 0E       		.uleb128 0xe
 2588 0110 1C       		.uleb128 0x1c
 2589 0111 0B       		.uleb128 0xb
 2590 0112 00       		.byte	0
 2591 0113 00       		.byte	0
 2592 0114 15       		.uleb128 0x15
 2593 0115 34       		.uleb128 0x34
 2594 0116 00       		.byte	0
 2595 0117 03       		.uleb128 0x3
 2596 0118 0E       		.uleb128 0xe
 2597 0119 3A       		.uleb128 0x3a
 2598 011a 0B       		.uleb128 0xb
 2599 011b 3B       		.uleb128 0x3b
 2600 011c 0B       		.uleb128 0xb
 2601 011d 49       		.uleb128 0x49
 2602 011e 13       		.uleb128 0x13
 2603 011f 3F       		.uleb128 0x3f
 2604 0120 0C       		.uleb128 0xc
 2605 0121 3C       		.uleb128 0x3c
 2606 0122 0C       		.uleb128 0xc
 2607 0123 00       		.byte	0
 2608 0124 00       		.byte	0
 2609 0125 16       		.uleb128 0x16
 2610 0126 0F       		.uleb128 0xf
 2611 0127 00       		.byte	0
 2612 0128 0B       		.uleb128 0xb
 2613 0129 0B       		.uleb128 0xb
 2614 012a 00       		.byte	0
 2615 012b 00       		.byte	0
 2616 012c 17       		.uleb128 0x17
 2617 012d 13       		.uleb128 0x13
 2618 012e 00       		.byte	0
 2619 012f 03       		.uleb128 0x3
 2620 0130 0E       		.uleb128 0xe
 2621 0131 3C       		.uleb128 0x3c
 2622 0132 0C       		.uleb128 0xc
 2623 0133 00       		.byte	0
 2624 0134 00       		.byte	0
 2625 0135 18       		.uleb128 0x18
 2626 0136 17       		.uleb128 0x17
 2627 0137 01       		.byte	0x1
 2628 0138 0B       		.uleb128 0xb
 2629 0139 0B       		.uleb128 0xb
 2630 013a 3A       		.uleb128 0x3a
 2631 013b 0B       		.uleb128 0xb
 2632 013c 3B       		.uleb128 0x3b
 2633 013d 0B       		.uleb128 0xb
 2634 013e 01       		.uleb128 0x1
 2635 013f 13       		.uleb128 0x13
ARM GAS  C:\Users\EBANO_~1\AppData\Local\Temp\ccWJ4OLX.s 			page 50


 2636 0140 00       		.byte	0
 2637 0141 00       		.byte	0
 2638 0142 19       		.uleb128 0x19
 2639 0143 13       		.uleb128 0x13
 2640 0144 01       		.byte	0x1
 2641 0145 0B       		.uleb128 0xb
 2642 0146 0B       		.uleb128 0xb
 2643 0147 3A       		.uleb128 0x3a
 2644 0148 0B       		.uleb128 0xb
 2645 0149 3B       		.uleb128 0x3b
 2646 014a 0B       		.uleb128 0xb
 2647 014b 01       		.uleb128 0x1
 2648 014c 13       		.uleb128 0x13
 2649 014d 00       		.byte	0
 2650 014e 00       		.byte	0
 2651 014f 1A       		.uleb128 0x1a
 2652 0150 13       		.uleb128 0x13
 2653 0151 01       		.byte	0x1
 2654 0152 03       		.uleb128 0x3
 2655 0153 0E       		.uleb128 0xe
 2656 0154 0B       		.uleb128 0xb
 2657 0155 05       		.uleb128 0x5
 2658 0156 3A       		.uleb128 0x3a
 2659 0157 0B       		.uleb128 0xb
 2660 0158 3B       		.uleb128 0x3b
 2661 0159 0B       		.uleb128 0xb
 2662 015a 01       		.uleb128 0x1
 2663 015b 13       		.uleb128 0x13
 2664 015c 00       		.byte	0
 2665 015d 00       		.byte	0
 2666 015e 1B       		.uleb128 0x1b
 2667 015f 15       		.uleb128 0x15
 2668 0160 00       		.byte	0
 2669 0161 27       		.uleb128 0x27
 2670 0162 0C       		.uleb128 0xc
 2671 0163 00       		.byte	0
 2672 0164 00       		.byte	0
 2673 0165 1C       		.uleb128 0x1c
 2674 0166 15       		.uleb128 0x15
 2675 0167 01       		.byte	0x1
 2676 0168 27       		.uleb128 0x27
 2677 0169 0C       		.uleb128 0xc
 2678 016a 49       		.uleb128 0x49
 2679 016b 13       		.uleb128 0x13
 2680 016c 01       		.uleb128 0x1
 2681 016d 13       		.uleb128 0x13
 2682 016e 00       		.byte	0
 2683 016f 00       		.byte	0
 2684 0170 1D       		.uleb128 0x1d
 2685 0171 05       		.uleb128 0x5
 2686 0172 00       		.byte	0
 2687 0173 49       		.uleb128 0x49
 2688 0174 13       		.uleb128 0x13
 2689 0175 00       		.byte	0
 2690 0176 00       		.byte	0
 2691 0177 1E       		.uleb128 0x1e
 2692 0178 13       		.uleb128 0x13
ARM GAS  C:\Users\EBANO_~1\AppData\Local\Temp\ccWJ4OLX.s 			page 51


 2693 0179 01       		.byte	0x1
 2694 017a 03       		.uleb128 0x3
 2695 017b 0E       		.uleb128 0xe
 2696 017c 0B       		.uleb128 0xb
 2697 017d 05       		.uleb128 0x5
 2698 017e 3A       		.uleb128 0x3a
 2699 017f 0B       		.uleb128 0xb
 2700 0180 3B       		.uleb128 0x3b
 2701 0181 05       		.uleb128 0x5
 2702 0182 01       		.uleb128 0x1
 2703 0183 13       		.uleb128 0x13
 2704 0184 00       		.byte	0
 2705 0185 00       		.byte	0
 2706 0186 1F       		.uleb128 0x1f
 2707 0187 13       		.uleb128 0x13
 2708 0188 01       		.byte	0x1
 2709 0189 03       		.uleb128 0x3
 2710 018a 0E       		.uleb128 0xe
 2711 018b 0B       		.uleb128 0xb
 2712 018c 0B       		.uleb128 0xb
 2713 018d 3A       		.uleb128 0x3a
 2714 018e 0B       		.uleb128 0xb
 2715 018f 3B       		.uleb128 0x3b
 2716 0190 05       		.uleb128 0x5
 2717 0191 01       		.uleb128 0x1
 2718 0192 13       		.uleb128 0x13
 2719 0193 00       		.byte	0
 2720 0194 00       		.byte	0
 2721 0195 20       		.uleb128 0x20
 2722 0196 13       		.uleb128 0x13
 2723 0197 01       		.byte	0x1
 2724 0198 0B       		.uleb128 0xb
 2725 0199 0B       		.uleb128 0xb
 2726 019a 3A       		.uleb128 0x3a
 2727 019b 0B       		.uleb128 0xb
 2728 019c 3B       		.uleb128 0x3b
 2729 019d 05       		.uleb128 0x5
 2730 019e 01       		.uleb128 0x1
 2731 019f 13       		.uleb128 0x13
 2732 01a0 00       		.byte	0
 2733 01a1 00       		.byte	0
 2734 01a2 21       		.uleb128 0x21
 2735 01a3 17       		.uleb128 0x17
 2736 01a4 01       		.byte	0x1
 2737 01a5 0B       		.uleb128 0xb
 2738 01a6 0B       		.uleb128 0xb
 2739 01a7 3A       		.uleb128 0x3a
 2740 01a8 0B       		.uleb128 0xb
 2741 01a9 3B       		.uleb128 0x3b
 2742 01aa 05       		.uleb128 0x5
 2743 01ab 01       		.uleb128 0x1
 2744 01ac 13       		.uleb128 0x13
 2745 01ad 00       		.byte	0
 2746 01ae 00       		.byte	0
 2747 01af 22       		.uleb128 0x22
 2748 01b0 0D       		.uleb128 0xd
 2749 01b1 00       		.byte	0
ARM GAS  C:\Users\EBANO_~1\AppData\Local\Temp\ccWJ4OLX.s 			page 52


 2750 01b2 03       		.uleb128 0x3
 2751 01b3 0E       		.uleb128 0xe
 2752 01b4 3A       		.uleb128 0x3a
 2753 01b5 0B       		.uleb128 0xb
 2754 01b6 3B       		.uleb128 0x3b
 2755 01b7 05       		.uleb128 0x5
 2756 01b8 49       		.uleb128 0x49
 2757 01b9 13       		.uleb128 0x13
 2758 01ba 00       		.byte	0
 2759 01bb 00       		.byte	0
 2760 01bc 23       		.uleb128 0x23
 2761 01bd 15       		.uleb128 0x15
 2762 01be 01       		.byte	0x1
 2763 01bf 27       		.uleb128 0x27
 2764 01c0 0C       		.uleb128 0xc
 2765 01c1 01       		.uleb128 0x1
 2766 01c2 13       		.uleb128 0x13
 2767 01c3 00       		.byte	0
 2768 01c4 00       		.byte	0
 2769 01c5 24       		.uleb128 0x24
 2770 01c6 34       		.uleb128 0x34
 2771 01c7 00       		.byte	0
 2772 01c8 03       		.uleb128 0x3
 2773 01c9 0E       		.uleb128 0xe
 2774 01ca 3A       		.uleb128 0x3a
 2775 01cb 0B       		.uleb128 0xb
 2776 01cc 3B       		.uleb128 0x3b
 2777 01cd 05       		.uleb128 0x5
 2778 01ce 49       		.uleb128 0x49
 2779 01cf 13       		.uleb128 0x13
 2780 01d0 3F       		.uleb128 0x3f
 2781 01d1 0C       		.uleb128 0xc
 2782 01d2 3C       		.uleb128 0x3c
 2783 01d3 0C       		.uleb128 0xc
 2784 01d4 00       		.byte	0
 2785 01d5 00       		.byte	0
 2786 01d6 25       		.uleb128 0x25
 2787 01d7 2E       		.uleb128 0x2e
 2788 01d8 01       		.byte	0x1
 2789 01d9 3F       		.uleb128 0x3f
 2790 01da 0C       		.uleb128 0xc
 2791 01db 03       		.uleb128 0x3
 2792 01dc 0E       		.uleb128 0xe
 2793 01dd 3A       		.uleb128 0x3a
 2794 01de 0B       		.uleb128 0xb
 2795 01df 3B       		.uleb128 0x3b
 2796 01e0 0B       		.uleb128 0xb
 2797 01e1 27       		.uleb128 0x27
 2798 01e2 0C       		.uleb128 0xc
 2799 01e3 49       		.uleb128 0x49
 2800 01e4 13       		.uleb128 0x13
 2801 01e5 11       		.uleb128 0x11
 2802 01e6 01       		.uleb128 0x1
 2803 01e7 12       		.uleb128 0x12
 2804 01e8 01       		.uleb128 0x1
 2805 01e9 40       		.uleb128 0x40
 2806 01ea 06       		.uleb128 0x6
ARM GAS  C:\Users\EBANO_~1\AppData\Local\Temp\ccWJ4OLX.s 			page 53


 2807 01eb 9742     		.uleb128 0x2117
 2808 01ed 0C       		.uleb128 0xc
 2809 01ee 01       		.uleb128 0x1
 2810 01ef 13       		.uleb128 0x13
 2811 01f0 00       		.byte	0
 2812 01f1 00       		.byte	0
 2813 01f2 26       		.uleb128 0x26
 2814 01f3 05       		.uleb128 0x5
 2815 01f4 00       		.byte	0
 2816 01f5 03       		.uleb128 0x3
 2817 01f6 0E       		.uleb128 0xe
 2818 01f7 3A       		.uleb128 0x3a
 2819 01f8 0B       		.uleb128 0xb
 2820 01f9 3B       		.uleb128 0x3b
 2821 01fa 0B       		.uleb128 0xb
 2822 01fb 49       		.uleb128 0x49
 2823 01fc 13       		.uleb128 0x13
 2824 01fd 02       		.uleb128 0x2
 2825 01fe 06       		.uleb128 0x6
 2826 01ff 00       		.byte	0
 2827 0200 00       		.byte	0
 2828 0201 27       		.uleb128 0x27
 2829 0202 34       		.uleb128 0x34
 2830 0203 00       		.byte	0
 2831 0204 03       		.uleb128 0x3
 2832 0205 0E       		.uleb128 0xe
 2833 0206 3A       		.uleb128 0x3a
 2834 0207 0B       		.uleb128 0xb
 2835 0208 3B       		.uleb128 0x3b
 2836 0209 0B       		.uleb128 0xb
 2837 020a 49       		.uleb128 0x49
 2838 020b 13       		.uleb128 0x13
 2839 020c 02       		.uleb128 0x2
 2840 020d 06       		.uleb128 0x6
 2841 020e 00       		.byte	0
 2842 020f 00       		.byte	0
 2843 0210 28       		.uleb128 0x28
 2844 0211 898201   		.uleb128 0x4109
 2845 0214 01       		.byte	0x1
 2846 0215 11       		.uleb128 0x11
 2847 0216 01       		.uleb128 0x1
 2848 0217 31       		.uleb128 0x31
 2849 0218 13       		.uleb128 0x13
 2850 0219 01       		.uleb128 0x1
 2851 021a 13       		.uleb128 0x13
 2852 021b 00       		.byte	0
 2853 021c 00       		.byte	0
 2854 021d 29       		.uleb128 0x29
 2855 021e 8A8201   		.uleb128 0x410a
 2856 0221 00       		.byte	0
 2857 0222 02       		.uleb128 0x2
 2858 0223 0A       		.uleb128 0xa
 2859 0224 9142     		.uleb128 0x2111
 2860 0226 0A       		.uleb128 0xa
 2861 0227 00       		.byte	0
 2862 0228 00       		.byte	0
 2863 0229 2A       		.uleb128 0x2a
ARM GAS  C:\Users\EBANO_~1\AppData\Local\Temp\ccWJ4OLX.s 			page 54


 2864 022a 898201   		.uleb128 0x4109
 2865 022d 00       		.byte	0
 2866 022e 11       		.uleb128 0x11
 2867 022f 01       		.uleb128 0x1
 2868 0230 31       		.uleb128 0x31
 2869 0231 13       		.uleb128 0x13
 2870 0232 00       		.byte	0
 2871 0233 00       		.byte	0
 2872 0234 2B       		.uleb128 0x2b
 2873 0235 898201   		.uleb128 0x4109
 2874 0238 01       		.byte	0x1
 2875 0239 11       		.uleb128 0x11
 2876 023a 01       		.uleb128 0x1
 2877 023b 31       		.uleb128 0x31
 2878 023c 13       		.uleb128 0x13
 2879 023d 00       		.byte	0
 2880 023e 00       		.byte	0
 2881 023f 2C       		.uleb128 0x2c
 2882 0240 2E       		.uleb128 0x2e
 2883 0241 00       		.byte	0
 2884 0242 3F       		.uleb128 0x3f
 2885 0243 0C       		.uleb128 0xc
 2886 0244 3C       		.uleb128 0x3c
 2887 0245 0C       		.uleb128 0xc
 2888 0246 8740     		.uleb128 0x2007
 2889 0248 0E       		.uleb128 0xe
 2890 0249 03       		.uleb128 0x3
 2891 024a 0E       		.uleb128 0xe
 2892 024b 3A       		.uleb128 0x3a
 2893 024c 0B       		.uleb128 0xb
 2894 024d 3B       		.uleb128 0x3b
 2895 024e 0B       		.uleb128 0xb
 2896 024f 00       		.byte	0
 2897 0250 00       		.byte	0
 2898 0251 00       		.byte	0
 2899              		.section	.debug_loc,"",%progbits
 2900              	.Ldebug_loc0:
 2901              	.LLST3:
 2902 0000 00000000 		.4byte	.LFB40
 2903 0004 02000000 		.4byte	.LCFI1
 2904 0008 0200     		.2byte	0x2
 2905 000a 7D       		.byte	0x7d
 2906 000b 00       		.sleb128 0
 2907 000c 02000000 		.4byte	.LCFI1
 2908 0010 B8000000 		.4byte	.LFE40
 2909 0014 0200     		.2byte	0x2
 2910 0016 7D       		.byte	0x7d
 2911 0017 18       		.sleb128 24
 2912 0018 00000000 		.4byte	0
 2913 001c 00000000 		.4byte	0
 2914              	.LLST4:
 2915 0020 00000000 		.4byte	.LVL17
 2916 0024 4A000000 		.4byte	.LVL26
 2917 0028 0100     		.2byte	0x1
 2918 002a 50       		.byte	0x50
 2919 002b 4A000000 		.4byte	.LVL26
 2920 002f 92000000 		.4byte	.LVL30
ARM GAS  C:\Users\EBANO_~1\AppData\Local\Temp\ccWJ4OLX.s 			page 55


 2921 0033 0100     		.2byte	0x1
 2922 0035 54       		.byte	0x54
 2923 0036 92000000 		.4byte	.LVL30
 2924 003a 94000000 		.4byte	.LVL31
 2925 003e 0400     		.2byte	0x4
 2926 0040 F3       		.byte	0xf3
 2927 0041 01       		.uleb128 0x1
 2928 0042 50       		.byte	0x50
 2929 0043 9F       		.byte	0x9f
 2930 0044 94000000 		.4byte	.LVL31
 2931 0048 96000000 		.4byte	.LVL32
 2932 004c 0100     		.2byte	0x1
 2933 004e 50       		.byte	0x50
 2934 004f 96000000 		.4byte	.LVL32
 2935 0053 B8000000 		.4byte	.LFE40
 2936 0057 0100     		.2byte	0x1
 2937 0059 54       		.byte	0x54
 2938 005a 00000000 		.4byte	0
 2939 005e 00000000 		.4byte	0
 2940              	.LLST5:
 2941 0062 0C000000 		.4byte	.LVL18
 2942 0066 12000000 		.4byte	.LVL19
 2943 006a 0200     		.2byte	0x2
 2944 006c 31       		.byte	0x31
 2945 006d 9F       		.byte	0x9f
 2946 006e 12000000 		.4byte	.LVL19
 2947 0072 18000000 		.4byte	.LVL20
 2948 0076 0200     		.2byte	0x2
 2949 0078 32       		.byte	0x32
 2950 0079 9F       		.byte	0x9f
 2951 007a 18000000 		.4byte	.LVL20
 2952 007e 20000000 		.4byte	.LVL21
 2953 0082 0200     		.2byte	0x2
 2954 0084 33       		.byte	0x33
 2955 0085 9F       		.byte	0x9f
 2956 0086 20000000 		.4byte	.LVL21
 2957 008a 28000000 		.4byte	.LVL22
 2958 008e 0200     		.2byte	0x2
 2959 0090 34       		.byte	0x34
 2960 0091 9F       		.byte	0x9f
 2961 0092 28000000 		.4byte	.LVL22
 2962 0096 30000000 		.4byte	.LVL23
 2963 009a 0200     		.2byte	0x2
 2964 009c 35       		.byte	0x35
 2965 009d 9F       		.byte	0x9f
 2966 009e 30000000 		.4byte	.LVL23
 2967 00a2 34000000 		.4byte	.LVL24
 2968 00a6 0200     		.2byte	0x2
 2969 00a8 36       		.byte	0x36
 2970 00a9 9F       		.byte	0x9f
 2971 00aa 34000000 		.4byte	.LVL24
 2972 00ae 38000000 		.4byte	.LVL25
 2973 00b2 0200     		.2byte	0x2
 2974 00b4 37       		.byte	0x37
 2975 00b5 9F       		.byte	0x9f
 2976 00b6 38000000 		.4byte	.LVL25
 2977 00ba 60000000 		.4byte	.LVL28
ARM GAS  C:\Users\EBANO_~1\AppData\Local\Temp\ccWJ4OLX.s 			page 56


 2978 00be 0200     		.2byte	0x2
 2979 00c0 38       		.byte	0x38
 2980 00c1 9F       		.byte	0x9f
 2981 00c2 60000000 		.4byte	.LVL28
 2982 00c6 66000000 		.4byte	.LVL29
 2983 00ca 0100     		.2byte	0x1
 2984 00cc 57       		.byte	0x57
 2985 00cd 98000000 		.4byte	.LVL33
 2986 00d1 9C000000 		.4byte	.LVL34
 2987 00d5 0100     		.2byte	0x1
 2988 00d7 57       		.byte	0x57
 2989 00d8 9C000000 		.4byte	.LVL34
 2990 00dc AE000000 		.4byte	.LVL35
 2991 00e0 0100     		.2byte	0x1
 2992 00e2 51       		.byte	0x51
 2993 00e3 AE000000 		.4byte	.LVL35
 2994 00e7 B4000000 		.4byte	.LVL36
 2995 00eb 0300     		.2byte	0x3
 2996 00ed 77       		.byte	0x77
 2997 00ee 01       		.sleb128 1
 2998 00ef 9F       		.byte	0x9f
 2999 00f0 B4000000 		.4byte	.LVL36
 3000 00f4 B8000000 		.4byte	.LFE40
 3001 00f8 0B00     		.2byte	0xb
 3002 00fa 74       		.byte	0x74
 3003 00fb 28       		.sleb128 40
 3004 00fc 94       		.byte	0x94
 3005 00fd 01       		.byte	0x1
 3006 00fe 08       		.byte	0x8
 3007 00ff FF       		.byte	0xff
 3008 0100 1A       		.byte	0x1a
 3009 0101 77       		.byte	0x77
 3010 0102 01       		.sleb128 1
 3011 0103 22       		.byte	0x22
 3012 0104 9F       		.byte	0x9f
 3013 0105 00000000 		.4byte	0
 3014 0109 00000000 		.4byte	0
 3015              	.LLST0:
 3016 010d 00000000 		.4byte	.LFB39
 3017 0111 02000000 		.4byte	.LCFI0
 3018 0115 0200     		.2byte	0x2
 3019 0117 7D       		.byte	0x7d
 3020 0118 00       		.sleb128 0
 3021 0119 02000000 		.4byte	.LCFI0
 3022 011d 9E000000 		.4byte	.LFE39
 3023 0121 0200     		.2byte	0x2
 3024 0123 7D       		.byte	0x7d
 3025 0124 10       		.sleb128 16
 3026 0125 00000000 		.4byte	0
 3027 0129 00000000 		.4byte	0
 3028              	.LLST1:
 3029 012d 00000000 		.4byte	.LVL0
 3030 0131 16000000 		.4byte	.LVL2
 3031 0135 0100     		.2byte	0x1
 3032 0137 50       		.byte	0x50
 3033 0138 16000000 		.4byte	.LVL2
 3034 013c 80000000 		.4byte	.LVL12
ARM GAS  C:\Users\EBANO_~1\AppData\Local\Temp\ccWJ4OLX.s 			page 57


 3035 0140 0100     		.2byte	0x1
 3036 0142 54       		.byte	0x54
 3037 0143 80000000 		.4byte	.LVL12
 3038 0147 82000000 		.4byte	.LVL13
 3039 014b 0400     		.2byte	0x4
 3040 014d F3       		.byte	0xf3
 3041 014e 01       		.uleb128 0x1
 3042 014f 50       		.byte	0x50
 3043 0150 9F       		.byte	0x9f
 3044 0151 82000000 		.4byte	.LVL13
 3045 0155 84000000 		.4byte	.LVL14
 3046 0159 0100     		.2byte	0x1
 3047 015b 50       		.byte	0x50
 3048 015c 84000000 		.4byte	.LVL14
 3049 0160 9E000000 		.4byte	.LFE39
 3050 0164 0100     		.2byte	0x1
 3051 0166 54       		.byte	0x54
 3052 0167 00000000 		.4byte	0
 3053 016b 00000000 		.4byte	0
 3054              	.LLST2:
 3055 016f 0C000000 		.4byte	.LVL1
 3056 0173 1A000000 		.4byte	.LVL3
 3057 0177 0200     		.2byte	0x2
 3058 0179 31       		.byte	0x31
 3059 017a 9F       		.byte	0x9f
 3060 017b 1A000000 		.4byte	.LVL3
 3061 017f 28000000 		.4byte	.LVL4
 3062 0183 0200     		.2byte	0x2
 3063 0185 34       		.byte	0x34
 3064 0186 9F       		.byte	0x9f
 3065 0187 28000000 		.4byte	.LVL4
 3066 018b 2A000000 		.4byte	.LVL5
 3067 018f 0200     		.2byte	0x2
 3068 0191 37       		.byte	0x37
 3069 0192 9F       		.byte	0x9f
 3070 0193 2A000000 		.4byte	.LVL5
 3071 0197 2E000000 		.4byte	.LVL6
 3072 019b 0200     		.2byte	0x2
 3073 019d 38       		.byte	0x38
 3074 019e 9F       		.byte	0x9f
 3075 019f 2E000000 		.4byte	.LVL6
 3076 01a3 36000000 		.4byte	.LVL7
 3077 01a7 0200     		.2byte	0x2
 3078 01a9 39       		.byte	0x39
 3079 01aa 9F       		.byte	0x9f
 3080 01ab 36000000 		.4byte	.LVL7
 3081 01af 3E000000 		.4byte	.LVL8
 3082 01b3 0200     		.2byte	0x2
 3083 01b5 3A       		.byte	0x3a
 3084 01b6 9F       		.byte	0x9f
 3085 01b7 3E000000 		.4byte	.LVL8
 3086 01bb 46000000 		.4byte	.LVL9
 3087 01bf 0200     		.2byte	0x2
 3088 01c1 3B       		.byte	0x3b
 3089 01c2 9F       		.byte	0x9f
 3090 01c3 46000000 		.4byte	.LVL9
 3091 01c7 4A000000 		.4byte	.LVL10
ARM GAS  C:\Users\EBANO_~1\AppData\Local\Temp\ccWJ4OLX.s 			page 58


 3092 01cb 0200     		.2byte	0x2
 3093 01cd 3C       		.byte	0x3c
 3094 01ce 9F       		.byte	0x9f
 3095 01cf 4A000000 		.4byte	.LVL10
 3096 01d3 62000000 		.4byte	.LVL11
 3097 01d7 0200     		.2byte	0x2
 3098 01d9 3D       		.byte	0x3d
 3099 01da 9F       		.byte	0x9f
 3100 01db 86000000 		.4byte	.LVL15
 3101 01df 92000000 		.4byte	.LVL16
 3102 01e3 0200     		.2byte	0x2
 3103 01e5 3D       		.byte	0x3d
 3104 01e6 9F       		.byte	0x9f
 3105 01e7 92000000 		.4byte	.LVL16
 3106 01eb 9E000000 		.4byte	.LFE39
 3107 01ef 0200     		.2byte	0x2
 3108 01f1 4D       		.byte	0x4d
 3109 01f2 9F       		.byte	0x9f
 3110 01f3 00000000 		.4byte	0
 3111 01f7 00000000 		.4byte	0
 3112              		.section	.debug_aranges,"",%progbits
 3113 0000 24000000 		.4byte	0x24
 3114 0004 0200     		.2byte	0x2
 3115 0006 00000000 		.4byte	.Ldebug_info0
 3116 000a 04       		.byte	0x4
 3117 000b 00       		.byte	0
 3118 000c 0000     		.2byte	0
 3119 000e 0000     		.2byte	0
 3120 0010 00000000 		.4byte	.LFB39
 3121 0014 9E000000 		.4byte	.LFE39-.LFB39
 3122 0018 00000000 		.4byte	.LFB40
 3123 001c B8000000 		.4byte	.LFE40-.LFB40
 3124 0020 00000000 		.4byte	0
 3125 0024 00000000 		.4byte	0
 3126              		.section	.debug_ranges,"",%progbits
 3127              	.Ldebug_ranges0:
 3128 0000 00000000 		.4byte	.LFB39
 3129 0004 9E000000 		.4byte	.LFE39
 3130 0008 00000000 		.4byte	.LFB40
 3131 000c B8000000 		.4byte	.LFE40
 3132 0010 00000000 		.4byte	0
 3133 0014 00000000 		.4byte	0
 3134              		.section	.debug_line,"",%progbits
 3135              	.Ldebug_line0:
 3136 0000 97030000 		.section	.debug_str,"MS",%progbits,1
 3136      02000503 
 3136      00000201 
 3136      FB0E0D00 
 3136      01010101 
 3137              	.LASF55:
 3138 0000 4C6F5261 		.ascii	"LoRaMacMessageData_t\000"
 3138      4D61634D 
 3138      65737361 
 3138      67654461 
 3138      74615F74 
 3139              	.LASF2:
 3140 0015 73686F72 		.ascii	"short int\000"
ARM GAS  C:\Users\EBANO_~1\AppData\Local\Temp\ccWJ4OLX.s 			page 59


 3140      7420696E 
 3140      7400
 3141              	.LASF181:
 3142 001f 62756649 		.ascii	"bufItr\000"
 3142      747200
 3143              	.LASF93:
 3144 0026 5F666E61 		.ascii	"_fnargs\000"
 3144      72677300 
 3145              	.LASF147:
 3146 002e 5F72616E 		.ascii	"_rand48\000"
 3146      64343800 
 3147              	.LASF15:
 3148 0036 52583244 		.ascii	"RX2DataRate\000"
 3148      61746152 
 3148      61746500 
 3149              	.LASF126:
 3150 0042 5F656D65 		.ascii	"_emergency\000"
 3150      7267656E 
 3150      637900
 3151              	.LASF3:
 3152 004d 5F5F7569 		.ascii	"__uint8_t\000"
 3152      6E74385F 
 3152      7400
 3153              	.LASF32:
 3154 0057 754C6F52 		.ascii	"uLoRaMacFrameCtrl\000"
 3154      614D6163 
 3154      4672616D 
 3154      65437472 
 3154      6C00
 3155              	.LASF138:
 3156 0069 5F617465 		.ascii	"_atexit0\000"
 3156      78697430 
 3156      00
 3157              	.LASF57:
 3158 0072 4C4F5241 		.ascii	"LORAMAC_PARSER_FAIL\000"
 3158      4D41435F 
 3158      50415253 
 3158      45525F46 
 3158      41494C00 
 3159              	.LASF167:
 3160 0086 5F776372 		.ascii	"_wcrtomb_state\000"
 3160      746F6D62 
 3160      5F737461 
 3160      746500
 3161              	.LASF168:
 3162 0095 5F776373 		.ascii	"_wcsrtombs_state\000"
 3162      72746F6D 
 3162      62735F73 
 3162      74617465 
 3162      00
 3163              	.LASF43:
 3164 00a6 4D484452 		.ascii	"MHDR\000"
 3164      00
 3165              	.LASF10:
 3166 00ab 6C6F6E67 		.ascii	"long long unsigned int\000"
 3166      206C6F6E 
 3166      6720756E 
ARM GAS  C:\Users\EBANO_~1\AppData\Local\Temp\ccWJ4OLX.s 			page 60


 3166      7369676E 
 3166      65642069 
 3167              	.LASF42:
 3168 00c2 42756653 		.ascii	"BufSize\000"
 3168      697A6500 
 3169              	.LASF54:
 3170 00ca 46524D50 		.ascii	"FRMPayloadSize\000"
 3170      61796C6F 
 3170      61645369 
 3170      7A6500
 3171              	.LASF186:
 3172 00d9 6D656D63 		.ascii	"memcpy1\000"
 3172      70793100 
 3173              	.LASF174:
 3174 00e1 5F5F6C6F 		.ascii	"__locale_t\000"
 3174      63616C65 
 3174      5F7400
 3175              	.LASF45:
 3176 00ec 4E657449 		.ascii	"NetID\000"
 3176      4400
 3177              	.LASF165:
 3178 00f2 5F6D6272 		.ascii	"_mbrtowc_state\000"
 3178      746F7763 
 3178      5F737461 
 3178      746500
 3179              	.LASF20:
 3180 0101 4C6F5261 		.ascii	"LoRaMacDLSettings_t\000"
 3180      4D616344 
 3180      4C536574 
 3180      74696E67 
 3180      735F7400 
 3181              	.LASF83:
 3182 0115 5F5F746D 		.ascii	"__tm_sec\000"
 3182      5F736563 
 3182      00
 3183              	.LASF180:
 3184 011e 6D61634D 		.ascii	"macMsg\000"
 3184      736700
 3185              	.LASF67:
 3186 0125 5F6F6666 		.ascii	"_off_t\000"
 3186      5F7400
 3187              	.LASF111:
 3188 012c 5F636C6F 		.ascii	"_close\000"
 3188      736500
 3189              	.LASF0:
 3190 0133 7369676E 		.ascii	"signed char\000"
 3190      65642063 
 3190      68617200 
 3191              	.LASF112:
 3192 013f 5F756275 		.ascii	"_ubuf\000"
 3192      6600
 3193              	.LASF50:
 3194 0145 734C6F52 		.ascii	"sLoRaMacMessageData\000"
 3194      614D6163 
 3194      4D657373 
 3194      61676544 
 3194      61746100 
ARM GAS  C:\Users\EBANO_~1\AppData\Local\Temp\ccWJ4OLX.s 			page 61


 3195              	.LASF101:
 3196 0159 5F626173 		.ascii	"_base\000"
 3196      6500
 3197              	.LASF85:
 3198 015f 5F5F746D 		.ascii	"__tm_hour\000"
 3198      5F686F75 
 3198      7200
 3199              	.LASF141:
 3200 0169 5F5F7366 		.ascii	"__sf\000"
 3200      00
 3201              	.LASF92:
 3202 016e 5F6F6E5F 		.ascii	"_on_exit_args\000"
 3202      65786974 
 3202      5F617267 
 3202      7300
 3203              	.LASF107:
 3204 017c 5F636F6F 		.ascii	"_cookie\000"
 3204      6B696500 
 3205              	.LASF140:
 3206 0184 5F5F7367 		.ascii	"__sglue\000"
 3206      6C756500 
 3207              	.LASF6:
 3208 018c 6C6F6E67 		.ascii	"long int\000"
 3208      20696E74 
 3208      00
 3209              	.LASF104:
 3210 0195 5F666C61 		.ascii	"_flags\000"
 3210      677300
 3211              	.LASF96:
 3212 019c 5F69735F 		.ascii	"_is_cxa\000"
 3212      63786100 
 3213              	.LASF122:
 3214 01a4 5F737464 		.ascii	"_stdin\000"
 3214      696E00
 3215              	.LASF132:
 3216 01ab 5F726573 		.ascii	"_result_k\000"
 3216      756C745F 
 3216      6B00
 3217              	.LASF9:
 3218 01b5 6C6F6E67 		.ascii	"long long int\000"
 3218      206C6F6E 
 3218      6720696E 
 3218      7400
 3219              	.LASF13:
 3220 01c3 75696E74 		.ascii	"uint16_t\000"
 3220      31365F74 
 3220      00
 3221              	.LASF136:
 3222 01cc 5F637674 		.ascii	"_cvtbuf\000"
 3222      62756600 
 3223              	.LASF115:
 3224 01d4 5F6F6666 		.ascii	"_offset\000"
 3224      73657400 
 3225              	.LASF179:
 3226 01dc 4C6F5261 		.ascii	"LoRaMacParserJoinAccept\000"
 3226      4D616350 
 3226      61727365 
ARM GAS  C:\Users\EBANO_~1\AppData\Local\Temp\ccWJ4OLX.s 			page 62


 3226      724A6F69 
 3226      6E416363 
 3227              	.LASF59:
 3228 01f4 4C4F5241 		.ascii	"LORAMAC_PARSER_ERROR\000"
 3228      4D41435F 
 3228      50415253 
 3228      45525F45 
 3228      52524F52 
 3229              	.LASF166:
 3230 0209 5F6D6273 		.ascii	"_mbsrtowcs_state\000"
 3230      72746F77 
 3230      63735F73 
 3230      74617465 
 3230      00
 3231              	.LASF152:
 3232 021a 5F737472 		.ascii	"_strtok_last\000"
 3232      746F6B5F 
 3232      6C617374 
 3232      00
 3233              	.LASF164:
 3234 0227 5F6D6272 		.ascii	"_mbrlen_state\000"
 3234      6C656E5F 
 3234      73746174 
 3234      6500
 3235              	.LASF99:
 3236 0235 5F666E73 		.ascii	"_fns\000"
 3236      00
 3237              	.LASF7:
 3238 023a 5F5F7569 		.ascii	"__uint32_t\000"
 3238      6E743332 
 3238      5F7400
 3239              	.LASF36:
 3240 0245 46437472 		.ascii	"FCtrl\000"
 3240      6C00
 3241              	.LASF80:
 3242 024b 5F736967 		.ascii	"_sign\000"
 3242      6E00
 3243              	.LASF175:
 3244 0251 5F696D70 		.ascii	"_impure_ptr\000"
 3244      7572655F 
 3244      70747200 
 3245              	.LASF124:
 3246 025d 5F737464 		.ascii	"_stderr\000"
 3246      65727200 
 3247              	.LASF77:
 3248 0265 5F426967 		.ascii	"_Bigint\000"
 3248      696E7400 
 3249              	.LASF17:
 3250 026d 4F70744E 		.ascii	"OptNeg\000"
 3250      656700
 3251              	.LASF63:
 3252 0274 41504250 		.ascii	"APBPrescTable\000"
 3252      72657363 
 3252      5461626C 
 3252      6500
 3253              	.LASF26:
 3254 0282 754C6F52 		.ascii	"uLoRaMacHeader\000"
ARM GAS  C:\Users\EBANO_~1\AppData\Local\Temp\ccWJ4OLX.s 			page 63


 3254      614D6163 
 3254      48656164 
 3254      657200
 3255              	.LASF108:
 3256 0291 5F726561 		.ascii	"_read\000"
 3256      6400
 3257              	.LASF82:
 3258 0297 5F5F746D 		.ascii	"__tm\000"
 3258      00
 3259              	.LASF35:
 3260 029c 44657641 		.ascii	"DevAddr\000"
 3260      64647200 
 3261              	.LASF71:
 3262 02a4 5F5F7763 		.ascii	"__wchb\000"
 3262      686200
 3263              	.LASF61:
 3264 02ab 53797374 		.ascii	"SystemCoreClock\000"
 3264      656D436F 
 3264      7265436C 
 3264      6F636B00 
 3265              	.LASF123:
 3266 02bb 5F737464 		.ascii	"_stdout\000"
 3266      6F757400 
 3267              	.LASF135:
 3268 02c3 5F637674 		.ascii	"_cvtlen\000"
 3268      6C656E00 
 3269              	.LASF8:
 3270 02cb 6C6F6E67 		.ascii	"long unsigned int\000"
 3270      20756E73 
 3270      69676E65 
 3270      6420696E 
 3270      7400
 3271              	.LASF37:
 3272 02dd 46436E74 		.ascii	"FCnt\000"
 3272      00
 3273              	.LASF105:
 3274 02e2 5F66696C 		.ascii	"_file\000"
 3274      6500
 3275              	.LASF44:
 3276 02e8 4A6F696E 		.ascii	"JoinNonce\000"
 3276      4E6F6E63 
 3276      6500
 3277              	.LASF116:
 3278 02f2 5F646174 		.ascii	"_data\000"
 3278      6100
 3279              	.LASF145:
 3280 02f8 5F6E696F 		.ascii	"_niobs\000"
 3280      627300
 3281              	.LASF156:
 3282 02ff 5F72616E 		.ascii	"_rand_next\000"
 3282      645F6E65 
 3282      787400
 3283              	.LASF39:
 3284 030a 4C6F5261 		.ascii	"LoRaMacFrameHeader_t\000"
 3284      4D616346 
 3284      72616D65 
 3284      48656164 
ARM GAS  C:\Users\EBANO_~1\AppData\Local\Temp\ccWJ4OLX.s 			page 64


 3284      65725F74 
 3285              	.LASF16:
 3286 031f 52583144 		.ascii	"RX1DRoffset\000"
 3286      526F6666 
 3286      73657400 
 3287              	.LASF162:
 3288 032b 5F736967 		.ascii	"_signal_buf\000"
 3288      6E616C5F 
 3288      62756600 
 3289              	.LASF153:
 3290 0337 5F617363 		.ascii	"_asctime_buf\000"
 3290      74696D65 
 3290      5F627566 
 3290      00
 3291              	.LASF131:
 3292 0344 5F726573 		.ascii	"_result\000"
 3292      756C7400 
 3293              	.LASF70:
 3294 034c 5F5F7763 		.ascii	"__wch\000"
 3294      6800
 3295              	.LASF94:
 3296 0352 5F64736F 		.ascii	"_dso_handle\000"
 3296      5F68616E 
 3296      646C6500 
 3297              	.LASF137:
 3298 035e 5F6E6577 		.ascii	"_new\000"
 3298      00
 3299              	.LASF117:
 3300 0363 5F6C6F63 		.ascii	"_lock\000"
 3300      6B00
 3301              	.LASF149:
 3302 0369 5F6D756C 		.ascii	"_mult\000"
 3302      7400
 3303              	.LASF183:
 3304 036f 2E2E2F2E 		.ascii	"../../../../../../Middlewares/Third_Party/LoRaWAN/M"
 3304      2E2F2E2E 
 3304      2F2E2E2F 
 3304      2E2E2F2E 
 3304      2E2F4D69 
 3305 03a2 61632F4C 		.ascii	"ac/LoRaMacParser.c\000"
 3305      6F52614D 
 3305      61635061 
 3305      72736572 
 3305      2E6300
 3306              	.LASF66:
 3307 03b5 5F4C4F43 		.ascii	"_LOCK_T\000"
 3307      4B5F5400 
 3308              	.LASF31:
 3309 03bd 41647241 		.ascii	"AdrAckReq\000"
 3309      636B5265 
 3309      7100
 3310              	.LASF109:
 3311 03c7 5F777269 		.ascii	"_write\000"
 3311      746500
 3312              	.LASF88:
 3313 03ce 5F5F746D 		.ascii	"__tm_year\000"
 3313      5F796561 
ARM GAS  C:\Users\EBANO_~1\AppData\Local\Temp\ccWJ4OLX.s 			page 65


 3313      7200
 3314              	.LASF151:
 3315 03d8 5F756E75 		.ascii	"_unused_rand\000"
 3315      7365645F 
 3315      72616E64 
 3315      00
 3316              	.LASF171:
 3317 03e5 5F6E6D61 		.ascii	"_nmalloc\000"
 3317      6C6C6F63 
 3317      00
 3318              	.LASF91:
 3319 03ee 5F5F746D 		.ascii	"__tm_isdst\000"
 3319      5F697364 
 3319      737400
 3320              	.LASF64:
 3321 03f9 504C4C4D 		.ascii	"PLLMulTable\000"
 3321      756C5461 
 3321      626C6500 
 3322              	.LASF170:
 3323 0405 5F6E6578 		.ascii	"_nextf\000"
 3323      746600
 3324              	.LASF53:
 3325 040c 46524D50 		.ascii	"FRMPayload\000"
 3325      61796C6F 
 3325      616400
 3326              	.LASF87:
 3327 0417 5F5F746D 		.ascii	"__tm_mon\000"
 3327      5F6D6F6E 
 3327      00
 3328              	.LASF46:
 3329 0420 444C5365 		.ascii	"DLSettings\000"
 3329      7474696E 
 3329      677300
 3330              	.LASF97:
 3331 042b 5F617465 		.ascii	"_atexit\000"
 3331      78697400 
 3332              	.LASF177:
 3333 0433 7375626F 		.ascii	"suboptarg\000"
 3333      70746172 
 3333      6700
 3334              	.LASF129:
 3335 043d 5F5F7364 		.ascii	"__sdidinit\000"
 3335      6964696E 
 3335      697400
 3336              	.LASF155:
 3337 0448 5F67616D 		.ascii	"_gamma_signgam\000"
 3337      6D615F73 
 3337      69676E67 
 3337      616D00
 3338              	.LASF69:
 3339 0457 77696E74 		.ascii	"wint_t\000"
 3339      5F7400
 3340              	.LASF22:
 3341 045e 734D6163 		.ascii	"sMacHeaderBits\000"
 3341      48656164 
 3341      65724269 
 3341      747300
ARM GAS  C:\Users\EBANO_~1\AppData\Local\Temp\ccWJ4OLX.s 			page 66


 3342              	.LASF134:
 3343 046d 5F667265 		.ascii	"_freelist\000"
 3343      656C6973 
 3343      7400
 3344              	.LASF58:
 3345 0477 4C4F5241 		.ascii	"LORAMAC_PARSER_ERROR_NPE\000"
 3345      4D41435F 
 3345      50415253 
 3345      45525F45 
 3345      52524F52 
 3346              	.LASF48:
 3347 0490 43464C69 		.ascii	"CFList\000"
 3347      737400
 3348              	.LASF160:
 3349 0497 5F776374 		.ascii	"_wctomb_state\000"
 3349      6F6D625F 
 3349      73746174 
 3349      6500
 3350              	.LASF29:
 3351 04a5 464F7074 		.ascii	"FOptsLen\000"
 3351      734C656E 
 3351      00
 3352              	.LASF182:
 3353 04ae 474E5520 		.ascii	"GNU C11 7.3.1 20180622 (release) [ARM/embedded-7-br"
 3353      43313120 
 3353      372E332E 
 3353      31203230 
 3353      31383036 
 3354 04e1 616E6368 		.ascii	"anch revision 261907] -mcpu=cortex-m0plus -mthumb -"
 3354      20726576 
 3354      6973696F 
 3354      6E203236 
 3354      31393037 
 3355 0514 6D666C6F 		.ascii	"mfloat-abi=soft -gdwarf-2 -O3 -ffunction-sections\000"
 3355      61742D61 
 3355      62693D73 
 3355      6F667420 
 3355      2D676477 
 3356              	.LASF49:
 3357 0546 4C6F5261 		.ascii	"LoRaMacMessageJoinAccept_t\000"
 3357      4D61634D 
 3357      65737361 
 3357      67654A6F 
 3357      696E4163 
 3358              	.LASF1:
 3359 0561 756E7369 		.ascii	"unsigned char\000"
 3359      676E6564 
 3359      20636861 
 3359      7200
 3360              	.LASF146:
 3361 056f 5F696F62 		.ascii	"_iobs\000"
 3361      7300
 3362              	.LASF24:
 3363 0575 4D547970 		.ascii	"MType\000"
 3363      6500
 3364              	.LASF169:
 3365 057b 5F685F65 		.ascii	"_h_errno\000"
ARM GAS  C:\Users\EBANO_~1\AppData\Local\Temp\ccWJ4OLX.s 			page 67


 3365      72726E6F 
 3365      00
 3366              	.LASF75:
 3367 0584 5F666C6F 		.ascii	"_flock_t\000"
 3367      636B5F74 
 3367      00
 3368              	.LASF90:
 3369 058d 5F5F746D 		.ascii	"__tm_yday\000"
 3369      5F796461 
 3369      7900
 3370              	.LASF100:
 3371 0597 5F5F7362 		.ascii	"__sbuf\000"
 3371      756600
 3372              	.LASF119:
 3373 059e 5F666C61 		.ascii	"_flags2\000"
 3373      67733200 
 3374              	.LASF143:
 3375 05a6 5F5F4649 		.ascii	"__FILE\000"
 3375      4C4500
 3376              	.LASF74:
 3377 05ad 5F6D6273 		.ascii	"_mbstate_t\000"
 3377      74617465 
 3377      5F7400
 3378              	.LASF103:
 3379 05b8 5F5F7346 		.ascii	"__sFILE\000"
 3379      494C4500 
 3380              	.LASF118:
 3381 05c0 5F6D6273 		.ascii	"_mbstate\000"
 3381      74617465 
 3381      00
 3382              	.LASF158:
 3383 05c9 5F6D626C 		.ascii	"_mblen_state\000"
 3383      656E5F73 
 3383      74617465 
 3383      00
 3384              	.LASF125:
 3385 05d6 5F696E63 		.ascii	"_inc\000"
 3385      00
 3386              	.LASF98:
 3387 05db 5F696E64 		.ascii	"_ind\000"
 3387      00
 3388              	.LASF40:
 3389 05e0 734C6F52 		.ascii	"sLoRaMacMessageJoinAccept\000"
 3389      614D6163 
 3389      4D657373 
 3389      6167654A 
 3389      6F696E41 
 3390              	.LASF27:
 3391 05fa 4C6F5261 		.ascii	"LoRaMacHeader_t\000"
 3391      4D616348 
 3391      65616465 
 3391      725F7400 
 3392              	.LASF128:
 3393 060a 5F6C6F63 		.ascii	"_locale\000"
 3393      616C6500 
 3394              	.LASF19:
 3395 0612 42697473 		.ascii	"Bits\000"
ARM GAS  C:\Users\EBANO_~1\AppData\Local\Temp\ccWJ4OLX.s 			page 68


 3395      00
 3396              	.LASF127:
 3397 0617 5F756E73 		.ascii	"_unspecified_locale_info\000"
 3397      70656369 
 3397      66696564 
 3397      5F6C6F63 
 3397      616C655F 
 3398              	.LASF79:
 3399 0630 5F6D6178 		.ascii	"_maxwds\000"
 3399      77647300 
 3400              	.LASF120:
 3401 0638 5F726565 		.ascii	"_reent\000"
 3401      6E7400
 3402              	.LASF148:
 3403 063f 5F736565 		.ascii	"_seed\000"
 3403      6400
 3404              	.LASF72:
 3405 0645 5F5F636F 		.ascii	"__count\000"
 3405      756E7400 
 3406              	.LASF173:
 3407 064d 5F5F6C6F 		.ascii	"__lock\000"
 3407      636B00
 3408              	.LASF73:
 3409 0654 5F5F7661 		.ascii	"__value\000"
 3409      6C756500 
 3410              	.LASF47:
 3411 065c 52784465 		.ascii	"RxDelay\000"
 3411      6C617900 
 3412              	.LASF89:
 3413 0664 5F5F746D 		.ascii	"__tm_wday\000"
 3413      5F776461 
 3413      7900
 3414              	.LASF68:
 3415 066e 5F66706F 		.ascii	"_fpos_t\000"
 3415      735F7400 
 3416              	.LASF65:
 3417 0676 6C6F6E67 		.ascii	"long double\000"
 3417      20646F75 
 3417      626C6500 
 3418              	.LASF121:
 3419 0682 5F657272 		.ascii	"_errno\000"
 3419      6E6F00
 3420              	.LASF142:
 3421 0689 63686172 		.ascii	"char\000"
 3421      00
 3422              	.LASF114:
 3423 068e 5F626C6B 		.ascii	"_blksize\000"
 3423      73697A65 
 3423      00
 3424              	.LASF102:
 3425 0697 5F73697A 		.ascii	"_size\000"
 3425      6500
 3426              	.LASF11:
 3427 069d 756E7369 		.ascii	"unsigned int\000"
 3427      676E6564 
 3427      20696E74 
 3427      00
ARM GAS  C:\Users\EBANO_~1\AppData\Local\Temp\ccWJ4OLX.s 			page 69


 3428              	.LASF4:
 3429 06aa 5F5F7569 		.ascii	"__uint16_t\000"
 3429      6E743136 
 3429      5F7400
 3430              	.LASF33:
 3431 06b5 4C6F5261 		.ascii	"LoRaMacFrameCtrl_t\000"
 3431      4D616346 
 3431      72616D65 
 3431      4374726C 
 3431      5F7400
 3432              	.LASF52:
 3433 06c8 46506F72 		.ascii	"FPort\000"
 3433      7400
 3434              	.LASF62:
 3435 06ce 41484250 		.ascii	"AHBPrescTable\000"
 3435      72657363 
 3435      5461626C 
 3435      6500
 3436              	.LASF78:
 3437 06dc 5F6E6578 		.ascii	"_next\000"
 3437      7400
 3438              	.LASF30:
 3439 06e2 4650656E 		.ascii	"FPending\000"
 3439      64696E67 
 3439      00
 3440              	.LASF110:
 3441 06eb 5F736565 		.ascii	"_seek\000"
 3441      6B00
 3442              	.LASF95:
 3443 06f1 5F666E74 		.ascii	"_fntypes\000"
 3443      79706573 
 3443      00
 3444              	.LASF5:
 3445 06fa 73686F72 		.ascii	"short unsigned int\000"
 3445      7420756E 
 3445      7369676E 
 3445      65642069 
 3445      6E7400
 3446              	.LASF56:
 3447 070d 4C4F5241 		.ascii	"LORAMAC_PARSER_SUCCESS\000"
 3447      4D41435F 
 3447      50415253 
 3447      45525F53 
 3447      55434345 
 3448              	.LASF23:
 3449 0724 4D616A6F 		.ascii	"Major\000"
 3449      7200
 3450              	.LASF150:
 3451 072a 5F616464 		.ascii	"_add\000"
 3451      00
 3452              	.LASF76:
 3453 072f 5F5F554C 		.ascii	"__ULong\000"
 3453      6F6E6700 
 3454              	.LASF163:
 3455 0737 5F676574 		.ascii	"_getdate_err\000"
 3455      64617465 
 3455      5F657272 
ARM GAS  C:\Users\EBANO_~1\AppData\Local\Temp\ccWJ4OLX.s 			page 70


 3455      00
 3456              	.LASF51:
 3457 0744 46484452 		.ascii	"FHDR\000"
 3457      00
 3458              	.LASF176:
 3459 0749 5F676C6F 		.ascii	"_global_impure_ptr\000"
 3459      62616C5F 
 3459      696D7075 
 3459      72655F70 
 3459      747200
 3460              	.LASF14:
 3461 075c 75696E74 		.ascii	"uint32_t\000"
 3461      33325F74 
 3461      00
 3462              	.LASF34:
 3463 0765 734C6F52 		.ascii	"sLoRaMacFrameHeader\000"
 3463      614D6163 
 3463      4672616D 
 3463      65486561 
 3463      64657200 
 3464              	.LASF60:
 3465 0779 4C6F5261 		.ascii	"LoRaMacParserStatus_t\000"
 3465      4D616350 
 3465      61727365 
 3465      72537461 
 3465      7475735F 
 3466              	.LASF41:
 3467 078f 42756666 		.ascii	"Buffer\000"
 3467      657200
 3468              	.LASF130:
 3469 0796 5F5F636C 		.ascii	"__cleanup\000"
 3469      65616E75 
 3469      7000
 3470              	.LASF81:
 3471 07a0 5F776473 		.ascii	"_wds\000"
 3471      00
 3472              	.LASF144:
 3473 07a5 5F676C75 		.ascii	"_glue\000"
 3473      6500
 3474              	.LASF18:
 3475 07ab 56616C75 		.ascii	"Value\000"
 3475      6500
 3476              	.LASF12:
 3477 07b1 75696E74 		.ascii	"uint8_t\000"
 3477      385F7400 
 3478              	.LASF161:
 3479 07b9 5F6C3634 		.ascii	"_l64a_buf\000"
 3479      615F6275 
 3479      6600
 3480              	.LASF178:
 3481 07c3 4C6F5261 		.ascii	"LoRaMacParserData\000"
 3481      4D616350 
 3481      61727365 
 3481      72446174 
 3481      6100
 3482              	.LASF139:
 3483 07d5 5F736967 		.ascii	"_sig_func\000"
ARM GAS  C:\Users\EBANO_~1\AppData\Local\Temp\ccWJ4OLX.s 			page 71


 3483      5F66756E 
 3483      6300
 3484              	.LASF184:
 3485 07df 443A5C67 		.ascii	"D:\\git_pessoal\\keil_gcc\\STM32CubeExpansion_LRWAN"
 3485      69745F70 
 3485      6573736F 
 3485      616C5C6B 
 3485      65696C5F 
 3486 080f 5F56312E 		.ascii	"_V1.2.1\\Projects\\B-L072Z-LRWAN1\\Applications\\Lo"
 3486      322E315C 
 3486      50726F6A 
 3486      65637473 
 3486      5C422D4C 
 3487 083e 52615C45 		.ascii	"Ra\\End_Node\\MDK-ARM\000"
 3487      6E645F4E 
 3487      6F64655C 
 3487      4D444B2D 
 3487      41524D00 
 3488              	.LASF113:
 3489 0852 5F6E6275 		.ascii	"_nbuf\000"
 3489      6600
 3490              	.LASF172:
 3491 0858 5F756E75 		.ascii	"_unused\000"
 3491      73656400 
 3492              	.LASF25:
 3493 0860 754C6F52 		.ascii	"uLoRaMacDLSettings\000"
 3493      614D6163 
 3493      444C5365 
 3493      7474696E 
 3493      677300
 3494              	.LASF28:
 3495 0873 73437472 		.ascii	"sCtrlBits\000"
 3495      6C426974 
 3495      7300
 3496              	.LASF154:
 3497 087d 5F6C6F63 		.ascii	"_localtime_buf\000"
 3497      616C7469 
 3497      6D655F62 
 3497      756600
 3498              	.LASF84:
 3499 088c 5F5F746D 		.ascii	"__tm_min\000"
 3499      5F6D696E 
 3499      00
 3500              	.LASF157:
 3501 0895 5F723438 		.ascii	"_r48\000"
 3501      00
 3502              	.LASF185:
 3503 089a 654C6F52 		.ascii	"eLoRaMacParserStatus\000"
 3503      614D6163 
 3503      50617273 
 3503      65725374 
 3503      61747573 
 3504              	.LASF159:
 3505 08af 5F6D6274 		.ascii	"_mbtowc_state\000"
 3505      6F77635F 
 3505      73746174 
 3505      6500
ARM GAS  C:\Users\EBANO_~1\AppData\Local\Temp\ccWJ4OLX.s 			page 72


 3506              	.LASF133:
 3507 08bd 5F703573 		.ascii	"_p5s\000"
 3507      00
 3508              	.LASF21:
 3509 08c2 73444C53 		.ascii	"sDLSettingsBits\000"
 3509      65747469 
 3509      6E677342 
 3509      69747300 
 3510              	.LASF106:
 3511 08d2 5F6C6266 		.ascii	"_lbfsize\000"
 3511      73697A65 
 3511      00
 3512              	.LASF38:
 3513 08db 464F7074 		.ascii	"FOpts\000"
 3513      7300
 3514              	.LASF86:
 3515 08e1 5F5F746D 		.ascii	"__tm_mday\000"
 3515      5F6D6461 
 3515      7900
 3516              		.ident	"GCC: (GNU Tools for Arm Embedded Processors 7-2018-q2-update) 7.3.1 20180622 (release) [AR
ARM GAS  C:\Users\EBANO_~1\AppData\Local\Temp\ccWJ4OLX.s 			page 73


DEFINED SYMBOLS
                            *ABS*:00000000 LoRaMacParser.c
C:\Users\EBANO_~1\AppData\Local\Temp\ccWJ4OLX.s:16     .text.LoRaMacParserJoinAccept:00000000 $t
C:\Users\EBANO_~1\AppData\Local\Temp\ccWJ4OLX.s:24     .text.LoRaMacParserJoinAccept:00000000 LoRaMacParserJoinAccept
C:\Users\EBANO_~1\AppData\Local\Temp\ccWJ4OLX.s:165    .text.LoRaMacParserData:00000000 $t
C:\Users\EBANO_~1\AppData\Local\Temp\ccWJ4OLX.s:173    .text.LoRaMacParserData:00000000 LoRaMacParserData

UNDEFINED SYMBOLS
memcpy1
