ARM GAS  C:\Users\EBANO_~1\AppData\Local\Temp\cc3CSO1m.s 			page 1


   1              		.cpu cortex-m0plus
   2              		.eabi_attribute 20, 1
   3              		.eabi_attribute 21, 1
   4              		.eabi_attribute 23, 3
   5              		.eabi_attribute 24, 1
   6              		.eabi_attribute 25, 1
   7              		.eabi_attribute 26, 1
   8              		.eabi_attribute 30, 2
   9              		.eabi_attribute 34, 0
  10              		.eabi_attribute 18, 4
  11              		.file	"LoRaMacSerializer.c"
  12              		.text
  13              	.Ltext0:
  14              		.cfi_sections	.debug_frame
  15              		.section	.text.LoRaMacSerializerJoinRequest,"ax",%progbits
  16              		.align	1
  17              		.p2align 2,,3
  18              		.global	LoRaMacSerializerJoinRequest
  19              		.syntax unified
  20              		.code	16
  21              		.thumb_func
  22              		.fpu softvfp
  23              		.type	LoRaMacSerializerJoinRequest, %function
  24              	LoRaMacSerializerJoinRequest:
  25              	.LFB39:
  26              		.file 1 "../../../../../../Middlewares/Third_Party/LoRaWAN/Mac/LoRaMacSerializer.c"
   1:../../../../../../Middlewares/Third_Party/LoRaWAN/Mac/LoRaMacSerializer.c **** /*
   2:../../../../../../Middlewares/Third_Party/LoRaWAN/Mac/LoRaMacSerializer.c ****  / _____)             _              | |
   3:../../../../../../Middlewares/Third_Party/LoRaWAN/Mac/LoRaMacSerializer.c **** ( (____  _____ ____ _| |_ _____  ____| |__
   4:../../../../../../Middlewares/Third_Party/LoRaWAN/Mac/LoRaMacSerializer.c ****  \____ \| ___ |    (_   _) ___ |/ ___)  _ \
   5:../../../../../../Middlewares/Third_Party/LoRaWAN/Mac/LoRaMacSerializer.c ****  _____) ) ____| | | || |_| ____( (___| | | |
   6:../../../../../../Middlewares/Third_Party/LoRaWAN/Mac/LoRaMacSerializer.c **** (______/|_____)_|_|_| \__)_____)\____)_| |_|
   7:../../../../../../Middlewares/Third_Party/LoRaWAN/Mac/LoRaMacSerializer.c ****     (C)2013 Semtech
   8:../../../../../../Middlewares/Third_Party/LoRaWAN/Mac/LoRaMacSerializer.c ****  ___ _____ _   ___ _  _____ ___  ___  ___ ___
   9:../../../../../../Middlewares/Third_Party/LoRaWAN/Mac/LoRaMacSerializer.c **** / __|_   _/_\ / __| |/ / __/ _ \| _ \/ __| __|
  10:../../../../../../Middlewares/Third_Party/LoRaWAN/Mac/LoRaMacSerializer.c **** \__ \ | |/ _ \ (__| ' <| _| (_) |   / (__| _|
  11:../../../../../../Middlewares/Third_Party/LoRaWAN/Mac/LoRaMacSerializer.c **** |___/ |_/_/ \_\___|_|\_\_| \___/|_|_\\___|___|
  12:../../../../../../Middlewares/Third_Party/LoRaWAN/Mac/LoRaMacSerializer.c **** embedded.connectivity.solutions===============
  13:../../../../../../Middlewares/Third_Party/LoRaWAN/Mac/LoRaMacSerializer.c **** 
  14:../../../../../../Middlewares/Third_Party/LoRaWAN/Mac/LoRaMacSerializer.c **** Description: LoRa MAC layer message serializer functionality implementation
  15:../../../../../../Middlewares/Third_Party/LoRaWAN/Mac/LoRaMacSerializer.c **** 
  16:../../../../../../Middlewares/Third_Party/LoRaWAN/Mac/LoRaMacSerializer.c **** License: Revised BSD License, see LICENSE.TXT file include in the project
  17:../../../../../../Middlewares/Third_Party/LoRaWAN/Mac/LoRaMacSerializer.c **** 
  18:../../../../../../Middlewares/Third_Party/LoRaWAN/Mac/LoRaMacSerializer.c **** Maintainer: Miguel Luis ( Semtech ), Gregory Cristian ( Semtech ),
  19:../../../../../../Middlewares/Third_Party/LoRaWAN/Mac/LoRaMacSerializer.c ****             Daniel Jaeckle ( STACKFORCE ),  Johannes Bruder ( STACKFORCE )
  20:../../../../../../Middlewares/Third_Party/LoRaWAN/Mac/LoRaMacSerializer.c **** */
  21:../../../../../../Middlewares/Third_Party/LoRaWAN/Mac/LoRaMacSerializer.c **** #include "LoRaMacSerializer.h"
  22:../../../../../../Middlewares/Third_Party/LoRaWAN/Mac/LoRaMacSerializer.c **** #include "utilities.h"
  23:../../../../../../Middlewares/Third_Party/LoRaWAN/Mac/LoRaMacSerializer.c **** 
  24:../../../../../../Middlewares/Third_Party/LoRaWAN/Mac/LoRaMacSerializer.c **** LoRaMacSerializerStatus_t LoRaMacSerializerJoinRequest( LoRaMacMessageJoinRequest_t* macMsg )
  25:../../../../../../Middlewares/Third_Party/LoRaWAN/Mac/LoRaMacSerializer.c **** {
  27              		.loc 1 25 0
  28              		.cfi_startproc
  29              		@ args = 0, pretend = 0, frame = 0
  30              		@ frame_needed = 0, uses_anonymous_args = 0
  31              	.LVL0:
  32 0000 10B5     		push	{r4, lr}
ARM GAS  C:\Users\EBANO_~1\AppData\Local\Temp\cc3CSO1m.s 			page 2


  33              	.LCFI0:
  34              		.cfi_def_cfa_offset 8
  35              		.cfi_offset 4, -8
  36              		.cfi_offset 14, -4
  37              		.loc 1 25 0
  38 0002 041E     		subs	r4, r0, #0
  26:../../../../../../Middlewares/Third_Party/LoRaWAN/Mac/LoRaMacSerializer.c ****     if( ( macMsg == 0 ) || ( macMsg->Buffer == 0 ) )
  39              		.loc 1 26 0
  40 0004 2DD0     		beq	.L4
  41              		.loc 1 26 0 is_stmt 0 discriminator 1
  42 0006 0368     		ldr	r3, [r0]
  43 0008 002B     		cmp	r3, #0
  44 000a 2AD0     		beq	.L4
  45              	.LVL1:
  27:../../../../../../Middlewares/Third_Party/LoRaWAN/Mac/LoRaMacSerializer.c ****     {
  28:../../../../../../Middlewares/Third_Party/LoRaWAN/Mac/LoRaMacSerializer.c ****         return LORAMAC_SERIALIZER_ERROR_NPE;
  29:../../../../../../Middlewares/Third_Party/LoRaWAN/Mac/LoRaMacSerializer.c ****     }
  30:../../../../../../Middlewares/Third_Party/LoRaWAN/Mac/LoRaMacSerializer.c **** 
  31:../../../../../../Middlewares/Third_Party/LoRaWAN/Mac/LoRaMacSerializer.c ****     uint16_t bufItr = 0;
  32:../../../../../../Middlewares/Third_Party/LoRaWAN/Mac/LoRaMacSerializer.c **** 
  33:../../../../../../Middlewares/Third_Party/LoRaWAN/Mac/LoRaMacSerializer.c ****     // Check macMsg->BufSize
  34:../../../../../../Middlewares/Third_Party/LoRaWAN/Mac/LoRaMacSerializer.c ****     if( macMsg->BufSize < LORAMAC_JOIN_REQ_MSG_SIZE )
  46              		.loc 1 34 0 is_stmt 1
  47 000c 0279     		ldrb	r2, [r0, #4]
  35:../../../../../../Middlewares/Third_Party/LoRaWAN/Mac/LoRaMacSerializer.c ****     {
  36:../../../../../../Middlewares/Third_Party/LoRaWAN/Mac/LoRaMacSerializer.c ****         return LORAMAC_SERIALIZER_ERROR_BUF_SIZE;
  48              		.loc 1 36 0
  49 000e 0220     		movs	r0, #2
  50              	.LVL2:
  34:../../../../../../Middlewares/Third_Party/LoRaWAN/Mac/LoRaMacSerializer.c ****     {
  51              		.loc 1 34 0
  52 0010 162A     		cmp	r2, #22
  53 0012 25D9     		bls	.L2
  54              	.LVL3:
  37:../../../../../../Middlewares/Third_Party/LoRaWAN/Mac/LoRaMacSerializer.c ****     }
  38:../../../../../../Middlewares/Third_Party/LoRaWAN/Mac/LoRaMacSerializer.c **** 
  39:../../../../../../Middlewares/Third_Party/LoRaWAN/Mac/LoRaMacSerializer.c ****     macMsg->Buffer[bufItr++] = macMsg->MHDR.Value;
  55              		.loc 1 39 0
  56 0014 6279     		ldrb	r2, [r4, #5]
  40:../../../../../../Middlewares/Third_Party/LoRaWAN/Mac/LoRaMacSerializer.c **** 
  41:../../../../../../Middlewares/Third_Party/LoRaWAN/Mac/LoRaMacSerializer.c ****     memcpyr( &macMsg->Buffer[bufItr], macMsg->JoinEUI, LORAMAC_JOIN_EUI_FIELD_SIZE );
  57              		.loc 1 41 0
  58 0016 A11D     		adds	r1, r4, #6
  39:../../../../../../Middlewares/Third_Party/LoRaWAN/Mac/LoRaMacSerializer.c **** 
  59              		.loc 1 39 0
  60 0018 1A70     		strb	r2, [r3]
  61              		.loc 1 41 0
  62 001a 2368     		ldr	r3, [r4]
  63 001c 0822     		movs	r2, #8
  64 001e 581C     		adds	r0, r3, #1
  65 0020 FFF7FEFF 		bl	memcpyr
  66              	.LVL4:
  42:../../../../../../Middlewares/Third_Party/LoRaWAN/Mac/LoRaMacSerializer.c ****     bufItr += LORAMAC_JOIN_EUI_FIELD_SIZE;
  43:../../../../../../Middlewares/Third_Party/LoRaWAN/Mac/LoRaMacSerializer.c **** 
  44:../../../../../../Middlewares/Third_Party/LoRaWAN/Mac/LoRaMacSerializer.c ****     memcpyr( &macMsg->Buffer[bufItr], macMsg->DevEUI, LORAMAC_DEV_EUI_FIELD_SIZE );
  67              		.loc 1 44 0
  68 0024 2100     		movs	r1, r4
ARM GAS  C:\Users\EBANO_~1\AppData\Local\Temp\cc3CSO1m.s 			page 3


  69 0026 2068     		ldr	r0, [r4]
  70 0028 0822     		movs	r2, #8
  71 002a 0930     		adds	r0, r0, #9
  72 002c 0E31     		adds	r1, r1, #14
  73 002e FFF7FEFF 		bl	memcpyr
  74              	.LVL5:
  45:../../../../../../Middlewares/Third_Party/LoRaWAN/Mac/LoRaMacSerializer.c ****     bufItr += LORAMAC_DEV_EUI_FIELD_SIZE;
  46:../../../../../../Middlewares/Third_Party/LoRaWAN/Mac/LoRaMacSerializer.c **** 
  47:../../../../../../Middlewares/Third_Party/LoRaWAN/Mac/LoRaMacSerializer.c ****     macMsg->Buffer[bufItr++] = macMsg->DevNonce & 0xFF;
  75              		.loc 1 47 0
  76 0032 E38A     		ldrh	r3, [r4, #22]
  77 0034 2268     		ldr	r2, [r4]
  48:../../../../../../Middlewares/Third_Party/LoRaWAN/Mac/LoRaMacSerializer.c ****     macMsg->Buffer[bufItr++] = ( macMsg->DevNonce >> 8 ) & 0xFF;
  49:../../../../../../Middlewares/Third_Party/LoRaWAN/Mac/LoRaMacSerializer.c **** 
  50:../../../../../../Middlewares/Third_Party/LoRaWAN/Mac/LoRaMacSerializer.c ****     macMsg->Buffer[bufItr++] = macMsg->MIC & 0xFF;
  51:../../../../../../Middlewares/Third_Party/LoRaWAN/Mac/LoRaMacSerializer.c ****     macMsg->Buffer[bufItr++] = ( macMsg->MIC >> 8 ) & 0xFF;
  52:../../../../../../Middlewares/Third_Party/LoRaWAN/Mac/LoRaMacSerializer.c ****     macMsg->Buffer[bufItr++] = ( macMsg->MIC >> 16 ) & 0xFF;
  53:../../../../../../Middlewares/Third_Party/LoRaWAN/Mac/LoRaMacSerializer.c ****     macMsg->Buffer[bufItr++] = ( macMsg->MIC >> 24 ) & 0xFF;
  54:../../../../../../Middlewares/Third_Party/LoRaWAN/Mac/LoRaMacSerializer.c **** 
  55:../../../../../../Middlewares/Third_Party/LoRaWAN/Mac/LoRaMacSerializer.c ****     macMsg->BufSize = bufItr;
  56:../../../../../../Middlewares/Third_Party/LoRaWAN/Mac/LoRaMacSerializer.c **** 
  57:../../../../../../Middlewares/Third_Party/LoRaWAN/Mac/LoRaMacSerializer.c ****     return LORAMAC_SERIALIZER_SUCCESS;
  78              		.loc 1 57 0
  79 0036 0020     		movs	r0, #0
  47:../../../../../../Middlewares/Third_Party/LoRaWAN/Mac/LoRaMacSerializer.c ****     macMsg->Buffer[bufItr++] = ( macMsg->DevNonce >> 8 ) & 0xFF;
  80              		.loc 1 47 0
  81 0038 5374     		strb	r3, [r2, #17]
  48:../../../../../../Middlewares/Third_Party/LoRaWAN/Mac/LoRaMacSerializer.c ****     macMsg->Buffer[bufItr++] = ( macMsg->DevNonce >> 8 ) & 0xFF;
  82              		.loc 1 48 0
  83 003a E38A     		ldrh	r3, [r4, #22]
  84 003c 2268     		ldr	r2, [r4]
  85 003e 1B0A     		lsrs	r3, r3, #8
  86 0040 9374     		strb	r3, [r2, #18]
  50:../../../../../../Middlewares/Third_Party/LoRaWAN/Mac/LoRaMacSerializer.c ****     macMsg->Buffer[bufItr++] = ( macMsg->MIC >> 8 ) & 0xFF;
  87              		.loc 1 50 0
  88 0042 A369     		ldr	r3, [r4, #24]
  89 0044 2268     		ldr	r2, [r4]
  90 0046 D374     		strb	r3, [r2, #19]
  51:../../../../../../Middlewares/Third_Party/LoRaWAN/Mac/LoRaMacSerializer.c ****     macMsg->Buffer[bufItr++] = ( macMsg->MIC >> 16 ) & 0xFF;
  91              		.loc 1 51 0
  92 0048 A369     		ldr	r3, [r4, #24]
  93 004a 2268     		ldr	r2, [r4]
  94 004c 1B0A     		lsrs	r3, r3, #8
  95 004e 1375     		strb	r3, [r2, #20]
  52:../../../../../../Middlewares/Third_Party/LoRaWAN/Mac/LoRaMacSerializer.c ****     macMsg->Buffer[bufItr++] = ( macMsg->MIC >> 24 ) & 0xFF;
  96              		.loc 1 52 0
  97 0050 638B     		ldrh	r3, [r4, #26]
  98 0052 2268     		ldr	r2, [r4]
  99 0054 5375     		strb	r3, [r2, #21]
  53:../../../../../../Middlewares/Third_Party/LoRaWAN/Mac/LoRaMacSerializer.c **** 
 100              		.loc 1 53 0
 101 0056 E37E     		ldrb	r3, [r4, #27]
 102 0058 2268     		ldr	r2, [r4]
 103 005a 9375     		strb	r3, [r2, #22]
  55:../../../../../../Middlewares/Third_Party/LoRaWAN/Mac/LoRaMacSerializer.c **** 
 104              		.loc 1 55 0
 105 005c 1723     		movs	r3, #23
ARM GAS  C:\Users\EBANO_~1\AppData\Local\Temp\cc3CSO1m.s 			page 4


 106 005e 2371     		strb	r3, [r4, #4]
 107              	.LVL6:
 108              	.L2:
  58:../../../../../../Middlewares/Third_Party/LoRaWAN/Mac/LoRaMacSerializer.c **** }
 109              		.loc 1 58 0
 110              		@ sp needed
 111              	.LVL7:
 112 0060 10BD     		pop	{r4, pc}
 113              	.LVL8:
 114              	.L4:
  28:../../../../../../Middlewares/Third_Party/LoRaWAN/Mac/LoRaMacSerializer.c ****     }
 115              		.loc 1 28 0
 116 0062 0120     		movs	r0, #1
 117              	.LVL9:
 118 0064 FCE7     		b	.L2
 119              		.cfi_endproc
 120              	.LFE39:
 121              		.size	LoRaMacSerializerJoinRequest, .-LoRaMacSerializerJoinRequest
 122 0066 C046     		.section	.text.LoRaMacSerializerReJoinType1,"ax",%progbits
 123              		.align	1
 124              		.p2align 2,,3
 125              		.global	LoRaMacSerializerReJoinType1
 126              		.syntax unified
 127              		.code	16
 128              		.thumb_func
 129              		.fpu softvfp
 130              		.type	LoRaMacSerializerReJoinType1, %function
 131              	LoRaMacSerializerReJoinType1:
 132              	.LFB40:
  59:../../../../../../Middlewares/Third_Party/LoRaWAN/Mac/LoRaMacSerializer.c **** 
  60:../../../../../../Middlewares/Third_Party/LoRaWAN/Mac/LoRaMacSerializer.c **** LoRaMacSerializerStatus_t LoRaMacSerializerReJoinType1( LoRaMacMessageReJoinType1_t* macMsg )
  61:../../../../../../Middlewares/Third_Party/LoRaWAN/Mac/LoRaMacSerializer.c **** {
 133              		.loc 1 61 0
 134              		.cfi_startproc
 135              		@ args = 0, pretend = 0, frame = 0
 136              		@ frame_needed = 0, uses_anonymous_args = 0
 137              	.LVL10:
 138 0000 10B5     		push	{r4, lr}
 139              	.LCFI1:
 140              		.cfi_def_cfa_offset 8
 141              		.cfi_offset 4, -8
 142              		.cfi_offset 14, -4
 143              		.loc 1 61 0
 144 0002 041E     		subs	r4, r0, #0
  62:../../../../../../Middlewares/Third_Party/LoRaWAN/Mac/LoRaMacSerializer.c ****     if( ( macMsg == 0 ) || ( macMsg->Buffer == 0 ) )
 145              		.loc 1 62 0
 146 0004 21D0     		beq	.L10
 147              		.loc 1 62 0 is_stmt 0 discriminator 1
 148 0006 0368     		ldr	r3, [r0]
 149 0008 002B     		cmp	r3, #0
 150 000a 1ED0     		beq	.L10
 151              	.LVL11:
  63:../../../../../../Middlewares/Third_Party/LoRaWAN/Mac/LoRaMacSerializer.c ****     {
  64:../../../../../../Middlewares/Third_Party/LoRaWAN/Mac/LoRaMacSerializer.c ****         return LORAMAC_SERIALIZER_ERROR_NPE;
  65:../../../../../../Middlewares/Third_Party/LoRaWAN/Mac/LoRaMacSerializer.c ****     }
  66:../../../../../../Middlewares/Third_Party/LoRaWAN/Mac/LoRaMacSerializer.c **** 
  67:../../../../../../Middlewares/Third_Party/LoRaWAN/Mac/LoRaMacSerializer.c ****     uint16_t bufItr = 0;
ARM GAS  C:\Users\EBANO_~1\AppData\Local\Temp\cc3CSO1m.s 			page 5


  68:../../../../../../Middlewares/Third_Party/LoRaWAN/Mac/LoRaMacSerializer.c **** 
  69:../../../../../../Middlewares/Third_Party/LoRaWAN/Mac/LoRaMacSerializer.c ****     // Check macMsg->BufSize
  70:../../../../../../Middlewares/Third_Party/LoRaWAN/Mac/LoRaMacSerializer.c ****     if( macMsg->BufSize < LORAMAC_RE_JOIN_1_MSG_SIZE )
 152              		.loc 1 70 0 is_stmt 1
 153 000c 0279     		ldrb	r2, [r0, #4]
  71:../../../../../../Middlewares/Third_Party/LoRaWAN/Mac/LoRaMacSerializer.c ****     {
  72:../../../../../../Middlewares/Third_Party/LoRaWAN/Mac/LoRaMacSerializer.c ****         return LORAMAC_SERIALIZER_ERROR_BUF_SIZE;
 154              		.loc 1 72 0
 155 000e 0220     		movs	r0, #2
 156              	.LVL12:
  70:../../../../../../Middlewares/Third_Party/LoRaWAN/Mac/LoRaMacSerializer.c ****     {
 157              		.loc 1 70 0
 158 0010 172A     		cmp	r2, #23
 159 0012 19D9     		bls	.L8
 160              	.LVL13:
  73:../../../../../../Middlewares/Third_Party/LoRaWAN/Mac/LoRaMacSerializer.c ****     }
  74:../../../../../../Middlewares/Third_Party/LoRaWAN/Mac/LoRaMacSerializer.c **** 
  75:../../../../../../Middlewares/Third_Party/LoRaWAN/Mac/LoRaMacSerializer.c ****     macMsg->Buffer[bufItr++] = macMsg->MHDR.Value;
 161              		.loc 1 75 0
 162 0014 6279     		ldrb	r2, [r4, #5]
  76:../../../../../../Middlewares/Third_Party/LoRaWAN/Mac/LoRaMacSerializer.c **** 
  77:../../../../../../Middlewares/Third_Party/LoRaWAN/Mac/LoRaMacSerializer.c ****     macMsg->Buffer[bufItr++] = macMsg->ReJoinType;
  78:../../../../../../Middlewares/Third_Party/LoRaWAN/Mac/LoRaMacSerializer.c **** 
  79:../../../../../../Middlewares/Third_Party/LoRaWAN/Mac/LoRaMacSerializer.c ****     memcpyr( &macMsg->Buffer[bufItr], macMsg->JoinEUI, LORAMAC_JOIN_EUI_FIELD_SIZE );
 163              		.loc 1 79 0
 164 0016 E11D     		adds	r1, r4, #7
  75:../../../../../../Middlewares/Third_Party/LoRaWAN/Mac/LoRaMacSerializer.c **** 
 165              		.loc 1 75 0
 166 0018 1A70     		strb	r2, [r3]
  77:../../../../../../Middlewares/Third_Party/LoRaWAN/Mac/LoRaMacSerializer.c **** 
 167              		.loc 1 77 0
 168 001a A379     		ldrb	r3, [r4, #6]
 169 001c 2268     		ldr	r2, [r4]
 170 001e 5370     		strb	r3, [r2, #1]
 171              		.loc 1 79 0
 172 0020 2368     		ldr	r3, [r4]
 173 0022 0822     		movs	r2, #8
 174 0024 981C     		adds	r0, r3, #2
 175 0026 FFF7FEFF 		bl	memcpyr
 176              	.LVL14:
  80:../../../../../../Middlewares/Third_Party/LoRaWAN/Mac/LoRaMacSerializer.c ****     bufItr += LORAMAC_JOIN_EUI_FIELD_SIZE;
  81:../../../../../../Middlewares/Third_Party/LoRaWAN/Mac/LoRaMacSerializer.c **** 
  82:../../../../../../Middlewares/Third_Party/LoRaWAN/Mac/LoRaMacSerializer.c ****     memcpyr( &macMsg->Buffer[bufItr], macMsg->DevEUI, LORAMAC_DEV_EUI_FIELD_SIZE );
 177              		.loc 1 82 0
 178 002a 2100     		movs	r1, r4
 179 002c 2068     		ldr	r0, [r4]
 180 002e 0822     		movs	r2, #8
 181 0030 0A30     		adds	r0, r0, #10
 182 0032 0F31     		adds	r1, r1, #15
 183 0034 FFF7FEFF 		bl	memcpyr
 184              	.LVL15:
  83:../../../../../../Middlewares/Third_Party/LoRaWAN/Mac/LoRaMacSerializer.c ****     bufItr += LORAMAC_DEV_EUI_FIELD_SIZE;
  84:../../../../../../Middlewares/Third_Party/LoRaWAN/Mac/LoRaMacSerializer.c **** 
  85:../../../../../../Middlewares/Third_Party/LoRaWAN/Mac/LoRaMacSerializer.c ****     macMsg->Buffer[bufItr++] = macMsg->RJcount1 & 0xFF;
  86:../../../../../../Middlewares/Third_Party/LoRaWAN/Mac/LoRaMacSerializer.c ****     macMsg->Buffer[bufItr++] = ( macMsg->RJcount1 >> 8 ) & 0xFF;
  87:../../../../../../Middlewares/Third_Party/LoRaWAN/Mac/LoRaMacSerializer.c **** 
  88:../../../../../../Middlewares/Third_Party/LoRaWAN/Mac/LoRaMacSerializer.c ****     return LORAMAC_SERIALIZER_SUCCESS;
ARM GAS  C:\Users\EBANO_~1\AppData\Local\Temp\cc3CSO1m.s 			page 6


 185              		.loc 1 88 0
 186 0038 0020     		movs	r0, #0
  85:../../../../../../Middlewares/Third_Party/LoRaWAN/Mac/LoRaMacSerializer.c ****     macMsg->Buffer[bufItr++] = ( macMsg->RJcount1 >> 8 ) & 0xFF;
 187              		.loc 1 85 0
 188 003a 238B     		ldrh	r3, [r4, #24]
 189 003c 2268     		ldr	r2, [r4]
 190 003e 9374     		strb	r3, [r2, #18]
  86:../../../../../../Middlewares/Third_Party/LoRaWAN/Mac/LoRaMacSerializer.c **** 
 191              		.loc 1 86 0
 192 0040 238B     		ldrh	r3, [r4, #24]
 193 0042 2268     		ldr	r2, [r4]
 194              	.LVL16:
 195 0044 1B0A     		lsrs	r3, r3, #8
 196 0046 D374     		strb	r3, [r2, #19]
 197              	.LVL17:
 198              	.L8:
  89:../../../../../../Middlewares/Third_Party/LoRaWAN/Mac/LoRaMacSerializer.c **** }
 199              		.loc 1 89 0
 200              		@ sp needed
 201              	.LVL18:
 202 0048 10BD     		pop	{r4, pc}
 203              	.LVL19:
 204              	.L10:
  64:../../../../../../Middlewares/Third_Party/LoRaWAN/Mac/LoRaMacSerializer.c ****     }
 205              		.loc 1 64 0
 206 004a 0120     		movs	r0, #1
 207              	.LVL20:
 208 004c FCE7     		b	.L8
 209              		.cfi_endproc
 210              	.LFE40:
 211              		.size	LoRaMacSerializerReJoinType1, .-LoRaMacSerializerReJoinType1
 212 004e C046     		.section	.text.LoRaMacSerializerReJoinType0or2,"ax",%progbits
 213              		.align	1
 214              		.p2align 2,,3
 215              		.global	LoRaMacSerializerReJoinType0or2
 216              		.syntax unified
 217              		.code	16
 218              		.thumb_func
 219              		.fpu softvfp
 220              		.type	LoRaMacSerializerReJoinType0or2, %function
 221              	LoRaMacSerializerReJoinType0or2:
 222              	.LFB41:
  90:../../../../../../Middlewares/Third_Party/LoRaWAN/Mac/LoRaMacSerializer.c **** 
  91:../../../../../../Middlewares/Third_Party/LoRaWAN/Mac/LoRaMacSerializer.c **** LoRaMacSerializerStatus_t LoRaMacSerializerReJoinType0or2( LoRaMacMessageReJoinType0or2_t* macMsg )
  92:../../../../../../Middlewares/Third_Party/LoRaWAN/Mac/LoRaMacSerializer.c **** {
 223              		.loc 1 92 0
 224              		.cfi_startproc
 225              		@ args = 0, pretend = 0, frame = 0
 226              		@ frame_needed = 0, uses_anonymous_args = 0
 227              	.LVL21:
 228 0000 10B5     		push	{r4, lr}
 229              	.LCFI2:
 230              		.cfi_def_cfa_offset 8
 231              		.cfi_offset 4, -8
 232              		.cfi_offset 14, -4
 233              		.loc 1 92 0
 234 0002 041E     		subs	r4, r0, #0
ARM GAS  C:\Users\EBANO_~1\AppData\Local\Temp\cc3CSO1m.s 			page 7


  93:../../../../../../Middlewares/Third_Party/LoRaWAN/Mac/LoRaMacSerializer.c ****     if( ( macMsg == 0 ) || ( macMsg->Buffer == 0 ) )
 235              		.loc 1 93 0
 236 0004 21D0     		beq	.L15
 237              		.loc 1 93 0 is_stmt 0 discriminator 1
 238 0006 0368     		ldr	r3, [r0]
 239 0008 002B     		cmp	r3, #0
 240 000a 1ED0     		beq	.L15
 241              	.LVL22:
  94:../../../../../../Middlewares/Third_Party/LoRaWAN/Mac/LoRaMacSerializer.c ****     {
  95:../../../../../../Middlewares/Third_Party/LoRaWAN/Mac/LoRaMacSerializer.c ****         return LORAMAC_SERIALIZER_ERROR_NPE;
  96:../../../../../../Middlewares/Third_Party/LoRaWAN/Mac/LoRaMacSerializer.c ****     }
  97:../../../../../../Middlewares/Third_Party/LoRaWAN/Mac/LoRaMacSerializer.c **** 
  98:../../../../../../Middlewares/Third_Party/LoRaWAN/Mac/LoRaMacSerializer.c ****     uint16_t bufItr = 0;
  99:../../../../../../Middlewares/Third_Party/LoRaWAN/Mac/LoRaMacSerializer.c **** 
 100:../../../../../../Middlewares/Third_Party/LoRaWAN/Mac/LoRaMacSerializer.c ****     // Check macMsg->BufSize
 101:../../../../../../Middlewares/Third_Party/LoRaWAN/Mac/LoRaMacSerializer.c ****     if( macMsg->BufSize < LORAMAC_RE_JOIN_0_2_MSG_SIZE )
 242              		.loc 1 101 0 is_stmt 1
 243 000c 0279     		ldrb	r2, [r0, #4]
 102:../../../../../../Middlewares/Third_Party/LoRaWAN/Mac/LoRaMacSerializer.c ****     {
 103:../../../../../../Middlewares/Third_Party/LoRaWAN/Mac/LoRaMacSerializer.c ****         return LORAMAC_SERIALIZER_ERROR_BUF_SIZE;
 244              		.loc 1 103 0
 245 000e 0220     		movs	r0, #2
 246              	.LVL23:
 101:../../../../../../Middlewares/Third_Party/LoRaWAN/Mac/LoRaMacSerializer.c ****     {
 247              		.loc 1 101 0
 248 0010 122A     		cmp	r2, #18
 249 0012 19D9     		bls	.L13
 250              	.LVL24:
 104:../../../../../../Middlewares/Third_Party/LoRaWAN/Mac/LoRaMacSerializer.c ****     }
 105:../../../../../../Middlewares/Third_Party/LoRaWAN/Mac/LoRaMacSerializer.c **** 
 106:../../../../../../Middlewares/Third_Party/LoRaWAN/Mac/LoRaMacSerializer.c ****     macMsg->Buffer[bufItr++] = macMsg->MHDR.Value;
 251              		.loc 1 106 0
 252 0014 6279     		ldrb	r2, [r4, #5]
 107:../../../../../../Middlewares/Third_Party/LoRaWAN/Mac/LoRaMacSerializer.c **** 
 108:../../../../../../Middlewares/Third_Party/LoRaWAN/Mac/LoRaMacSerializer.c ****     macMsg->Buffer[bufItr++] = macMsg->ReJoinType;
 109:../../../../../../Middlewares/Third_Party/LoRaWAN/Mac/LoRaMacSerializer.c **** 
 110:../../../../../../Middlewares/Third_Party/LoRaWAN/Mac/LoRaMacSerializer.c ****     memcpyr( &macMsg->Buffer[bufItr], macMsg->NetID, LORAMAC_NET_ID_FIELD_SIZE );
 253              		.loc 1 110 0
 254 0016 E11D     		adds	r1, r4, #7
 106:../../../../../../Middlewares/Third_Party/LoRaWAN/Mac/LoRaMacSerializer.c **** 
 255              		.loc 1 106 0
 256 0018 1A70     		strb	r2, [r3]
 108:../../../../../../Middlewares/Third_Party/LoRaWAN/Mac/LoRaMacSerializer.c **** 
 257              		.loc 1 108 0
 258 001a A379     		ldrb	r3, [r4, #6]
 259 001c 2268     		ldr	r2, [r4]
 260 001e 5370     		strb	r3, [r2, #1]
 261              		.loc 1 110 0
 262 0020 2368     		ldr	r3, [r4]
 263 0022 0322     		movs	r2, #3
 264 0024 981C     		adds	r0, r3, #2
 265 0026 FFF7FEFF 		bl	memcpyr
 266              	.LVL25:
 111:../../../../../../Middlewares/Third_Party/LoRaWAN/Mac/LoRaMacSerializer.c ****     bufItr += LORAMAC_NET_ID_FIELD_SIZE;
 112:../../../../../../Middlewares/Third_Party/LoRaWAN/Mac/LoRaMacSerializer.c **** 
 113:../../../../../../Middlewares/Third_Party/LoRaWAN/Mac/LoRaMacSerializer.c ****     memcpyr( &macMsg->Buffer[bufItr], macMsg->DevEUI, LORAMAC_DEV_EUI_FIELD_SIZE );
 267              		.loc 1 113 0
ARM GAS  C:\Users\EBANO_~1\AppData\Local\Temp\cc3CSO1m.s 			page 8


 268 002a 2100     		movs	r1, r4
 269 002c 2368     		ldr	r3, [r4]
 270 002e 0822     		movs	r2, #8
 271 0030 581D     		adds	r0, r3, #5
 272 0032 0A31     		adds	r1, r1, #10
 273 0034 FFF7FEFF 		bl	memcpyr
 274              	.LVL26:
 114:../../../../../../Middlewares/Third_Party/LoRaWAN/Mac/LoRaMacSerializer.c ****     bufItr += LORAMAC_DEV_EUI_FIELD_SIZE;
 115:../../../../../../Middlewares/Third_Party/LoRaWAN/Mac/LoRaMacSerializer.c **** 
 116:../../../../../../Middlewares/Third_Party/LoRaWAN/Mac/LoRaMacSerializer.c ****     macMsg->Buffer[bufItr++] = macMsg->RJcount0 & 0xFF;
 117:../../../../../../Middlewares/Third_Party/LoRaWAN/Mac/LoRaMacSerializer.c ****     macMsg->Buffer[bufItr++] = ( macMsg->RJcount0 >> 8 ) & 0xFF;
 118:../../../../../../Middlewares/Third_Party/LoRaWAN/Mac/LoRaMacSerializer.c **** 
 119:../../../../../../Middlewares/Third_Party/LoRaWAN/Mac/LoRaMacSerializer.c ****     return LORAMAC_SERIALIZER_SUCCESS;
 275              		.loc 1 119 0
 276 0038 0020     		movs	r0, #0
 116:../../../../../../Middlewares/Third_Party/LoRaWAN/Mac/LoRaMacSerializer.c ****     macMsg->Buffer[bufItr++] = ( macMsg->RJcount0 >> 8 ) & 0xFF;
 277              		.loc 1 116 0
 278 003a 638A     		ldrh	r3, [r4, #18]
 279 003c 2268     		ldr	r2, [r4]
 280 003e 5373     		strb	r3, [r2, #13]
 117:../../../../../../Middlewares/Third_Party/LoRaWAN/Mac/LoRaMacSerializer.c **** 
 281              		.loc 1 117 0
 282 0040 638A     		ldrh	r3, [r4, #18]
 283 0042 2268     		ldr	r2, [r4]
 284              	.LVL27:
 285 0044 1B0A     		lsrs	r3, r3, #8
 286 0046 9373     		strb	r3, [r2, #14]
 287              	.LVL28:
 288              	.L13:
 120:../../../../../../Middlewares/Third_Party/LoRaWAN/Mac/LoRaMacSerializer.c **** }
 289              		.loc 1 120 0
 290              		@ sp needed
 291              	.LVL29:
 292 0048 10BD     		pop	{r4, pc}
 293              	.LVL30:
 294              	.L15:
  95:../../../../../../Middlewares/Third_Party/LoRaWAN/Mac/LoRaMacSerializer.c ****     }
 295              		.loc 1 95 0
 296 004a 0120     		movs	r0, #1
 297              	.LVL31:
 298 004c FCE7     		b	.L13
 299              		.cfi_endproc
 300              	.LFE41:
 301              		.size	LoRaMacSerializerReJoinType0or2, .-LoRaMacSerializerReJoinType0or2
 302 004e C046     		.section	.text.LoRaMacSerializerData,"ax",%progbits
 303              		.align	1
 304              		.p2align 2,,3
 305              		.global	LoRaMacSerializerData
 306              		.syntax unified
 307              		.code	16
 308              		.thumb_func
 309              		.fpu softvfp
 310              		.type	LoRaMacSerializerData, %function
 311              	LoRaMacSerializerData:
 312              	.LFB42:
 121:../../../../../../Middlewares/Third_Party/LoRaWAN/Mac/LoRaMacSerializer.c **** 
 122:../../../../../../Middlewares/Third_Party/LoRaWAN/Mac/LoRaMacSerializer.c **** LoRaMacSerializerStatus_t LoRaMacSerializerData( LoRaMacMessageData_t* macMsg )
ARM GAS  C:\Users\EBANO_~1\AppData\Local\Temp\cc3CSO1m.s 			page 9


 123:../../../../../../Middlewares/Third_Party/LoRaWAN/Mac/LoRaMacSerializer.c **** {
 313              		.loc 1 123 0
 314              		.cfi_startproc
 315              		@ args = 0, pretend = 0, frame = 0
 316              		@ frame_needed = 0, uses_anonymous_args = 0
 317              	.LVL32:
 318 0000 70B5     		push	{r4, r5, r6, lr}
 319              	.LCFI3:
 320              		.cfi_def_cfa_offset 16
 321              		.cfi_offset 4, -16
 322              		.cfi_offset 5, -12
 323              		.cfi_offset 6, -8
 324              		.cfi_offset 14, -4
 325              		.loc 1 123 0
 326 0002 041E     		subs	r4, r0, #0
 124:../../../../../../Middlewares/Third_Party/LoRaWAN/Mac/LoRaMacSerializer.c ****     if( ( macMsg == 0 ) || ( macMsg->Buffer == 0 ) )
 327              		.loc 1 124 0
 328 0004 60D0     		beq	.L23
 329              		.loc 1 124 0 is_stmt 0 discriminator 1
 330 0006 0268     		ldr	r2, [r0]
 331 0008 002A     		cmp	r2, #0
 332 000a 5DD0     		beq	.L23
 333              	.LVL33:
 125:../../../../../../Middlewares/Third_Party/LoRaWAN/Mac/LoRaMacSerializer.c ****     {
 126:../../../../../../Middlewares/Third_Party/LoRaWAN/Mac/LoRaMacSerializer.c ****         return LORAMAC_SERIALIZER_ERROR_NPE;
 127:../../../../../../Middlewares/Third_Party/LoRaWAN/Mac/LoRaMacSerializer.c ****     }
 128:../../../../../../Middlewares/Third_Party/LoRaWAN/Mac/LoRaMacSerializer.c **** 
 129:../../../../../../Middlewares/Third_Party/LoRaWAN/Mac/LoRaMacSerializer.c ****     uint16_t bufItr = 0;
 130:../../../../../../Middlewares/Third_Party/LoRaWAN/Mac/LoRaMacSerializer.c **** 
 131:../../../../../../Middlewares/Third_Party/LoRaWAN/Mac/LoRaMacSerializer.c ****     // Check macMsg->BufSize
 132:../../../../../../Middlewares/Third_Party/LoRaWAN/Mac/LoRaMacSerializer.c ****     uint16_t computedBufSize =   LORAMAC_MHDR_FIELD_SIZE
 133:../../../../../../Middlewares/Third_Party/LoRaWAN/Mac/LoRaMacSerializer.c ****                                + LORAMAC_FHDR_DEV_ADD_FIELD_SIZE
 134:../../../../../../Middlewares/Third_Party/LoRaWAN/Mac/LoRaMacSerializer.c ****                                + LORAMAC_FHDR_F_CTRL_FIELD_SIZE
 135:../../../../../../Middlewares/Third_Party/LoRaWAN/Mac/LoRaMacSerializer.c ****                                + LORAMAC_FHDR_F_CNT_FIELD_SIZE;
 136:../../../../../../Middlewares/Third_Party/LoRaWAN/Mac/LoRaMacSerializer.c **** 
 137:../../../../../../Middlewares/Third_Party/LoRaWAN/Mac/LoRaMacSerializer.c ****     if( macMsg->FRMPayloadSize == 0 )
 334              		.loc 1 137 0 is_stmt 1
 335 000c 2823     		movs	r3, #40
 336 000e C15C     		ldrb	r1, [r0, r3]
 337 0010 0079     		ldrb	r0, [r0, #4]
 338              	.LVL34:
 339 0012 0029     		cmp	r1, #0
 340 0014 4FD1     		bne	.L19
 138:../../../../../../Middlewares/Third_Party/LoRaWAN/Mac/LoRaMacSerializer.c ****     {
 139:../../../../../../Middlewares/Third_Party/LoRaWAN/Mac/LoRaMacSerializer.c ****         if( macMsg->BufSize < computedBufSize )
 341              		.loc 1 139 0
 342 0016 0728     		cmp	r0, #7
 343 0018 54D9     		bls	.L25
 344              	.L20:
 345              	.LVL35:
 140:../../../../../../Middlewares/Third_Party/LoRaWAN/Mac/LoRaMacSerializer.c ****         {
 141:../../../../../../Middlewares/Third_Party/LoRaWAN/Mac/LoRaMacSerializer.c ****             return LORAMAC_SERIALIZER_ERROR_BUF_SIZE;
 142:../../../../../../Middlewares/Third_Party/LoRaWAN/Mac/LoRaMacSerializer.c ****         }
 143:../../../../../../Middlewares/Third_Party/LoRaWAN/Mac/LoRaMacSerializer.c ****     }
 144:../../../../../../Middlewares/Third_Party/LoRaWAN/Mac/LoRaMacSerializer.c ****     else
 145:../../../../../../Middlewares/Third_Party/LoRaWAN/Mac/LoRaMacSerializer.c ****     {   //If FRMPayload >0, FPort field is present.
 146:../../../../../../Middlewares/Third_Party/LoRaWAN/Mac/LoRaMacSerializer.c ****         if( macMsg->BufSize < computedBufSize + macMsg->FHDR.FCtrl.Bits.FOptsLen + macMsg->FRMPaylo
ARM GAS  C:\Users\EBANO_~1\AppData\Local\Temp\cc3CSO1m.s 			page 10


 147:../../../../../../Middlewares/Third_Party/LoRaWAN/Mac/LoRaMacSerializer.c ****         {
 148:../../../../../../Middlewares/Third_Party/LoRaWAN/Mac/LoRaMacSerializer.c ****             return LORAMAC_SERIALIZER_ERROR_BUF_SIZE;
 149:../../../../../../Middlewares/Third_Party/LoRaWAN/Mac/LoRaMacSerializer.c ****         }
 150:../../../../../../Middlewares/Third_Party/LoRaWAN/Mac/LoRaMacSerializer.c ****     }
 151:../../../../../../Middlewares/Third_Party/LoRaWAN/Mac/LoRaMacSerializer.c **** 
 152:../../../../../../Middlewares/Third_Party/LoRaWAN/Mac/LoRaMacSerializer.c ****     macMsg->Buffer[bufItr++] = macMsg->MHDR.Value;
 153:../../../../../../Middlewares/Third_Party/LoRaWAN/Mac/LoRaMacSerializer.c **** 
 154:../../../../../../Middlewares/Third_Party/LoRaWAN/Mac/LoRaMacSerializer.c ****     macMsg->Buffer[bufItr++] = ( macMsg->FHDR.DevAddr ) & 0xFF;
 155:../../../../../../Middlewares/Third_Party/LoRaWAN/Mac/LoRaMacSerializer.c ****     macMsg->Buffer[bufItr++] = ( macMsg->FHDR.DevAddr >> 8 ) & 0xFF;
 156:../../../../../../Middlewares/Third_Party/LoRaWAN/Mac/LoRaMacSerializer.c ****     macMsg->Buffer[bufItr++] = ( macMsg->FHDR.DevAddr >> 16 ) & 0xFF;
 157:../../../../../../Middlewares/Third_Party/LoRaWAN/Mac/LoRaMacSerializer.c ****     macMsg->Buffer[bufItr++] = ( macMsg->FHDR.DevAddr >> 24 ) & 0xFF;
 158:../../../../../../Middlewares/Third_Party/LoRaWAN/Mac/LoRaMacSerializer.c **** 
 159:../../../../../../Middlewares/Third_Party/LoRaWAN/Mac/LoRaMacSerializer.c ****     macMsg->Buffer[bufItr++] = macMsg->FHDR.FCtrl.Value;
 160:../../../../../../Middlewares/Third_Party/LoRaWAN/Mac/LoRaMacSerializer.c **** 
 161:../../../../../../Middlewares/Third_Party/LoRaWAN/Mac/LoRaMacSerializer.c ****     macMsg->Buffer[bufItr++] = macMsg->FHDR.FCnt & 0xFF;
 162:../../../../../../Middlewares/Third_Party/LoRaWAN/Mac/LoRaMacSerializer.c ****     macMsg->Buffer[bufItr++] = ( macMsg->FHDR.FCnt >> 8 ) & 0xFF;
 163:../../../../../../Middlewares/Third_Party/LoRaWAN/Mac/LoRaMacSerializer.c **** 
 164:../../../../../../Middlewares/Third_Party/LoRaWAN/Mac/LoRaMacSerializer.c ****     memcpy1( &macMsg->Buffer[bufItr], macMsg->FHDR.FOpts, macMsg->FHDR.FCtrl.Bits.FOptsLen );
 346              		.loc 1 164 0
 347 001a 2100     		movs	r1, r4
 152:../../../../../../Middlewares/Third_Party/LoRaWAN/Mac/LoRaMacSerializer.c **** 
 348              		.loc 1 152 0
 349 001c 6379     		ldrb	r3, [r4, #5]
 350              		.loc 1 164 0
 351 001e 1031     		adds	r1, r1, #16
 152:../../../../../../Middlewares/Third_Party/LoRaWAN/Mac/LoRaMacSerializer.c **** 
 352              		.loc 1 152 0
 353 0020 1370     		strb	r3, [r2]
 154:../../../../../../Middlewares/Third_Party/LoRaWAN/Mac/LoRaMacSerializer.c ****     macMsg->Buffer[bufItr++] = ( macMsg->FHDR.DevAddr >> 8 ) & 0xFF;
 354              		.loc 1 154 0
 355 0022 A368     		ldr	r3, [r4, #8]
 356 0024 2268     		ldr	r2, [r4]
 357 0026 5370     		strb	r3, [r2, #1]
 155:../../../../../../Middlewares/Third_Party/LoRaWAN/Mac/LoRaMacSerializer.c ****     macMsg->Buffer[bufItr++] = ( macMsg->FHDR.DevAddr >> 16 ) & 0xFF;
 358              		.loc 1 155 0
 359 0028 A368     		ldr	r3, [r4, #8]
 360 002a 2268     		ldr	r2, [r4]
 361 002c 1B0A     		lsrs	r3, r3, #8
 362 002e 9370     		strb	r3, [r2, #2]
 156:../../../../../../Middlewares/Third_Party/LoRaWAN/Mac/LoRaMacSerializer.c ****     macMsg->Buffer[bufItr++] = ( macMsg->FHDR.DevAddr >> 24 ) & 0xFF;
 363              		.loc 1 156 0
 364 0030 6389     		ldrh	r3, [r4, #10]
 365 0032 2268     		ldr	r2, [r4]
 366 0034 D370     		strb	r3, [r2, #3]
 157:../../../../../../Middlewares/Third_Party/LoRaWAN/Mac/LoRaMacSerializer.c **** 
 367              		.loc 1 157 0
 368 0036 E37A     		ldrb	r3, [r4, #11]
 369 0038 2268     		ldr	r2, [r4]
 370 003a 1371     		strb	r3, [r2, #4]
 159:../../../../../../Middlewares/Third_Party/LoRaWAN/Mac/LoRaMacSerializer.c **** 
 371              		.loc 1 159 0
 372 003c 237B     		ldrb	r3, [r4, #12]
 373 003e 2268     		ldr	r2, [r4]
 374 0040 5371     		strb	r3, [r2, #5]
 161:../../../../../../Middlewares/Third_Party/LoRaWAN/Mac/LoRaMacSerializer.c ****     macMsg->Buffer[bufItr++] = ( macMsg->FHDR.FCnt >> 8 ) & 0xFF;
 375              		.loc 1 161 0
 376 0042 E389     		ldrh	r3, [r4, #14]
ARM GAS  C:\Users\EBANO_~1\AppData\Local\Temp\cc3CSO1m.s 			page 11


 377 0044 2268     		ldr	r2, [r4]
 378 0046 9371     		strb	r3, [r2, #6]
 162:../../../../../../Middlewares/Third_Party/LoRaWAN/Mac/LoRaMacSerializer.c **** 
 379              		.loc 1 162 0
 380 0048 E389     		ldrh	r3, [r4, #14]
 381 004a 2268     		ldr	r2, [r4]
 382 004c 1B0A     		lsrs	r3, r3, #8
 383 004e D371     		strb	r3, [r2, #7]
 384              		.loc 1 164 0
 385 0050 227B     		ldrb	r2, [r4, #12]
 386 0052 2068     		ldr	r0, [r4]
 387 0054 1207     		lsls	r2, r2, #28
 388 0056 120F     		lsrs	r2, r2, #28
 389 0058 0830     		adds	r0, r0, #8
 390 005a FFF7FEFF 		bl	memcpy1
 391              	.LVL36:
 165:../../../../../../Middlewares/Third_Party/LoRaWAN/Mac/LoRaMacSerializer.c ****     bufItr = bufItr + macMsg->FHDR.FCtrl.Bits.FOptsLen;
 392              		.loc 1 165 0
 393 005e 237B     		ldrb	r3, [r4, #12]
 166:../../../../../../Middlewares/Third_Party/LoRaWAN/Mac/LoRaMacSerializer.c **** 
 167:../../../../../../Middlewares/Third_Party/LoRaWAN/Mac/LoRaMacSerializer.c ****     if( macMsg->FRMPayloadSize > 0 )
 394              		.loc 1 167 0
 395 0060 2821     		movs	r1, #40
 165:../../../../../../Middlewares/Third_Party/LoRaWAN/Mac/LoRaMacSerializer.c ****     bufItr = bufItr + macMsg->FHDR.FCtrl.Bits.FOptsLen;
 396              		.loc 1 165 0
 397 0062 1B07     		lsls	r3, r3, #28
 398 0064 1B0F     		lsrs	r3, r3, #28
 399 0066 1D00     		movs	r5, r3
 400              		.loc 1 167 0
 401 0068 625C     		ldrb	r2, [r4, r1]
 165:../../../../../../Middlewares/Third_Party/LoRaWAN/Mac/LoRaMacSerializer.c ****     bufItr = bufItr + macMsg->FHDR.FCtrl.Bits.FOptsLen;
 402              		.loc 1 165 0
 403 006a 0835     		adds	r5, r5, #8
 404              	.LVL37:
 405 006c 2800     		movs	r0, r5
 406              		.loc 1 167 0
 407 006e 002A     		cmp	r2, #0
 408 0070 2CD1     		bne	.L29
 409              	.L21:
 168:../../../../../../Middlewares/Third_Party/LoRaWAN/Mac/LoRaMacSerializer.c ****     {
 169:../../../../../../Middlewares/Third_Party/LoRaWAN/Mac/LoRaMacSerializer.c ****         macMsg->Buffer[bufItr++] = macMsg->FPort;
 170:../../../../../../Middlewares/Third_Party/LoRaWAN/Mac/LoRaMacSerializer.c ****     }
 171:../../../../../../Middlewares/Third_Party/LoRaWAN/Mac/LoRaMacSerializer.c **** 
 172:../../../../../../Middlewares/Third_Party/LoRaWAN/Mac/LoRaMacSerializer.c ****     memcpy1( &macMsg->Buffer[bufItr], macMsg->FRMPayload, macMsg->FRMPayloadSize );
 410              		.loc 1 172 0
 411 0072 2368     		ldr	r3, [r4]
 412 0074 92B2     		uxth	r2, r2
 413 0076 5819     		adds	r0, r3, r5
 414 0078 616A     		ldr	r1, [r4, #36]
 415 007a FFF7FEFF 		bl	memcpy1
 416              	.LVL38:
 173:../../../../../../Middlewares/Third_Party/LoRaWAN/Mac/LoRaMacSerializer.c ****     bufItr = bufItr + macMsg->FRMPayloadSize;
 417              		.loc 1 173 0
 418 007e 2823     		movs	r3, #40
 419 0080 E35C     		ldrb	r3, [r4, r3]
 174:../../../../../../Middlewares/Third_Party/LoRaWAN/Mac/LoRaMacSerializer.c **** 
 175:../../../../../../Middlewares/Third_Party/LoRaWAN/Mac/LoRaMacSerializer.c ****     macMsg->Buffer[bufItr++] = macMsg->MIC & 0xFF;
ARM GAS  C:\Users\EBANO_~1\AppData\Local\Temp\cc3CSO1m.s 			page 12


 420              		.loc 1 175 0
 421 0082 E26A     		ldr	r2, [r4, #44]
 422 0084 2168     		ldr	r1, [r4]
 173:../../../../../../Middlewares/Third_Party/LoRaWAN/Mac/LoRaMacSerializer.c ****     bufItr = bufItr + macMsg->FRMPayloadSize;
 423              		.loc 1 173 0
 424 0086 EB18     		adds	r3, r5, r3
 425 0088 9BB2     		uxth	r3, r3
 426              	.LVL39:
 427              		.loc 1 175 0
 428 008a CA54     		strb	r2, [r1, r3]
 429              	.LVL40:
 176:../../../../../../Middlewares/Third_Party/LoRaWAN/Mac/LoRaMacSerializer.c ****     macMsg->Buffer[bufItr++] = ( macMsg->MIC >> 8 ) & 0xFF;
 430              		.loc 1 176 0
 431 008c E16A     		ldr	r1, [r4, #44]
 432 008e 2068     		ldr	r0, [r4]
 175:../../../../../../Middlewares/Third_Party/LoRaWAN/Mac/LoRaMacSerializer.c ****     macMsg->Buffer[bufItr++] = ( macMsg->MIC >> 8 ) & 0xFF;
 433              		.loc 1 175 0
 434 0090 5A1C     		adds	r2, r3, #1
 435              		.loc 1 176 0
 436 0092 92B2     		uxth	r2, r2
 437 0094 090A     		lsrs	r1, r1, #8
 438 0096 8154     		strb	r1, [r0, r2]
 439              	.LVL41:
 177:../../../../../../Middlewares/Third_Party/LoRaWAN/Mac/LoRaMacSerializer.c ****     macMsg->Buffer[bufItr++] = ( macMsg->MIC >> 16 ) & 0xFF;
 440              		.loc 1 177 0
 441 0098 E18D     		ldrh	r1, [r4, #46]
 442 009a 2068     		ldr	r0, [r4]
 176:../../../../../../Middlewares/Third_Party/LoRaWAN/Mac/LoRaMacSerializer.c ****     macMsg->Buffer[bufItr++] = ( macMsg->MIC >> 8 ) & 0xFF;
 443              		.loc 1 176 0
 444 009c 9A1C     		adds	r2, r3, #2
 445              		.loc 1 177 0
 446 009e 92B2     		uxth	r2, r2
 447 00a0 8154     		strb	r1, [r0, r2]
 448              	.LVL42:
 178:../../../../../../Middlewares/Third_Party/LoRaWAN/Mac/LoRaMacSerializer.c ****     macMsg->Buffer[bufItr++] = ( macMsg->MIC >> 24 ) & 0xFF;
 449              		.loc 1 178 0
 450 00a2 E16A     		ldr	r1, [r4, #44]
 177:../../../../../../Middlewares/Third_Party/LoRaWAN/Mac/LoRaMacSerializer.c ****     macMsg->Buffer[bufItr++] = ( macMsg->MIC >> 16 ) & 0xFF;
 451              		.loc 1 177 0
 452 00a4 DA1C     		adds	r2, r3, #3
 453              		.loc 1 178 0
 454 00a6 2068     		ldr	r0, [r4]
 455 00a8 92B2     		uxth	r2, r2
 456 00aa 090E     		lsrs	r1, r1, #24
 457 00ac 8154     		strb	r1, [r0, r2]
 179:../../../../../../Middlewares/Third_Party/LoRaWAN/Mac/LoRaMacSerializer.c **** 
 180:../../../../../../Middlewares/Third_Party/LoRaWAN/Mac/LoRaMacSerializer.c ****     macMsg->BufSize = bufItr;
 181:../../../../../../Middlewares/Third_Party/LoRaWAN/Mac/LoRaMacSerializer.c **** 
 182:../../../../../../Middlewares/Third_Party/LoRaWAN/Mac/LoRaMacSerializer.c ****     return LORAMAC_SERIALIZER_SUCCESS;
 458              		.loc 1 182 0
 459 00ae 0020     		movs	r0, #0
 178:../../../../../../Middlewares/Third_Party/LoRaWAN/Mac/LoRaMacSerializer.c ****     macMsg->Buffer[bufItr++] = ( macMsg->MIC >> 24 ) & 0xFF;
 460              		.loc 1 178 0
 461 00b0 0433     		adds	r3, r3, #4
 462              	.LVL43:
 180:../../../../../../Middlewares/Third_Party/LoRaWAN/Mac/LoRaMacSerializer.c **** 
 463              		.loc 1 180 0
ARM GAS  C:\Users\EBANO_~1\AppData\Local\Temp\cc3CSO1m.s 			page 13


 464 00b2 2371     		strb	r3, [r4, #4]
 465              	.LVL44:
 466              	.L18:
 183:../../../../../../Middlewares/Third_Party/LoRaWAN/Mac/LoRaMacSerializer.c **** }
 467              		.loc 1 183 0
 468              		@ sp needed
 469              	.LVL45:
 470 00b4 70BD     		pop	{r4, r5, r6, pc}
 471              	.LVL46:
 472              	.L19:
 146:../../../../../../Middlewares/Third_Party/LoRaWAN/Mac/LoRaMacSerializer.c ****         {
 473              		.loc 1 146 0
 474 00b6 237B     		ldrb	r3, [r4, #12]
 475 00b8 1B07     		lsls	r3, r3, #28
 476 00ba 1B0F     		lsrs	r3, r3, #28
 477 00bc 0833     		adds	r3, r3, #8
 478 00be 5B18     		adds	r3, r3, r1
 479 00c0 8342     		cmp	r3, r0
 480 00c2 AADB     		blt	.L20
 481              	.L25:
 141:../../../../../../Middlewares/Third_Party/LoRaWAN/Mac/LoRaMacSerializer.c ****         }
 482              		.loc 1 141 0
 483 00c4 0220     		movs	r0, #2
 484 00c6 F5E7     		b	.L18
 485              	.LVL47:
 486              	.L23:
 126:../../../../../../Middlewares/Third_Party/LoRaWAN/Mac/LoRaMacSerializer.c ****     }
 487              		.loc 1 126 0
 488 00c8 0120     		movs	r0, #1
 489              	.LVL48:
 490 00ca F3E7     		b	.L18
 491              	.LVL49:
 492              	.L29:
 169:../../../../../../Middlewares/Third_Party/LoRaWAN/Mac/LoRaMacSerializer.c ****     }
 493              		.loc 1 169 0
 494 00cc 0933     		adds	r3, r3, #9
 495 00ce 1D00     		movs	r5, r3
 496              	.LVL50:
 497 00d0 2023     		movs	r3, #32
 498 00d2 2268     		ldr	r2, [r4]
 499 00d4 E35C     		ldrb	r3, [r4, r3]
 500 00d6 1354     		strb	r3, [r2, r0]
 501 00d8 625C     		ldrb	r2, [r4, r1]
 502 00da CAE7     		b	.L21
 503              		.cfi_endproc
 504              	.LFE42:
 505              		.size	LoRaMacSerializerData, .-LoRaMacSerializerData
 506              		.text
 507              	.Letext0:
 508              		.file 2 "c:\\program files (x86)\\gnu tools arm embedded\\7 2018-q2-update\\arm-none-eabi\\include
 509              		.file 3 "c:\\program files (x86)\\gnu tools arm embedded\\7 2018-q2-update\\arm-none-eabi\\include
 510              		.file 4 "../../../../../../Middlewares/Third_Party/LoRaWAN/Mac/LoRaMacHeaderTypes.h"
 511              		.file 5 "../../../../../../Middlewares/Third_Party/LoRaWAN/Mac/LoRaMacMessageTypes.h"
 512              		.file 6 "../../../../../../Middlewares/Third_Party/LoRaWAN/Mac/LoRaMacSerializer.h"
 513              		.file 7 "../../../../../../Drivers/CMSIS/Device/ST/STM32L0xx/Include/system_stm32l0xx.h"
 514              		.file 8 "c:\\program files (x86)\\gnu tools arm embedded\\7 2018-q2-update\\arm-none-eabi\\include
 515              		.file 9 "c:\\program files (x86)\\gnu tools arm embedded\\7 2018-q2-update\\arm-none-eabi\\include
ARM GAS  C:\Users\EBANO_~1\AppData\Local\Temp\cc3CSO1m.s 			page 14


 516              		.file 10 "c:\\program files (x86)\\gnu tools arm embedded\\7 2018-q2-update\\lib\\gcc\\arm-none-ea
 517              		.file 11 "c:\\program files (x86)\\gnu tools arm embedded\\7 2018-q2-update\\arm-none-eabi\\includ
 518              		.file 12 "c:\\program files (x86)\\gnu tools arm embedded\\7 2018-q2-update\\arm-none-eabi\\includ
 519              		.file 13 "../../../../../../Middlewares/Third_Party/LoRaWAN/Utilities/utilities.h"