ARM GAS  C:\Users\EBANO_~1\AppData\Local\Temp\ccTYdeCl.s 			page 1


   1              		.cpu cortex-m0plus
   2              		.eabi_attribute 20, 1
   3              		.eabi_attribute 21, 1
   4              		.eabi_attribute 23, 3
   5              		.eabi_attribute 24, 1
   6              		.eabi_attribute 25, 1
   7              		.eabi_attribute 26, 1
   8              		.eabi_attribute 30, 2
   9              		.eabi_attribute 34, 0
  10              		.eabi_attribute 18, 4
  11              		.file	"LoRaMacCommands.c"
  12              		.text
  13              	.Ltext0:
  14              		.cfi_sections	.debug_frame
  15              		.section	.text.isSlotFree,"ax",%progbits
  16              		.align	1
  17              		.p2align 2,,3
  18              		.global	isSlotFree
  19              		.syntax unified
  20              		.code	16
  21              		.thumb_func
  22              		.fpu softvfp
  23              		.type	isSlotFree, %function
  24              	isSlotFree:
  25              	.LFB39:
  26              		.file 1 "../../../../../../Middlewares/Third_Party/LoRaWAN/Mac/LoRaMacCommands.c"
   1:../../../../../../Middlewares/Third_Party/LoRaWAN/Mac/LoRaMacCommands.c **** /*
   2:../../../../../../Middlewares/Third_Party/LoRaWAN/Mac/LoRaMacCommands.c ****  / _____)             _              | |
   3:../../../../../../Middlewares/Third_Party/LoRaWAN/Mac/LoRaMacCommands.c **** ( (____  _____ ____ _| |_ _____  ____| |__
   4:../../../../../../Middlewares/Third_Party/LoRaWAN/Mac/LoRaMacCommands.c ****  \____ \| ___ |    (_   _) ___ |/ ___)  _ \
   5:../../../../../../Middlewares/Third_Party/LoRaWAN/Mac/LoRaMacCommands.c ****  _____) ) ____| | | || |_| ____( (___| | | |
   6:../../../../../../Middlewares/Third_Party/LoRaWAN/Mac/LoRaMacCommands.c **** (______/|_____)_|_|_| \__)_____)\____)_| |_|
   7:../../../../../../Middlewares/Third_Party/LoRaWAN/Mac/LoRaMacCommands.c ****     (C)2013 Semtech
   8:../../../../../../Middlewares/Third_Party/LoRaWAN/Mac/LoRaMacCommands.c ****  ___ _____ _   ___ _  _____ ___  ___  ___ ___
   9:../../../../../../Middlewares/Third_Party/LoRaWAN/Mac/LoRaMacCommands.c **** / __|_   _/_\ / __| |/ / __/ _ \| _ \/ __| __|
  10:../../../../../../Middlewares/Third_Party/LoRaWAN/Mac/LoRaMacCommands.c **** \__ \ | |/ _ \ (__| ' <| _| (_) |   / (__| _|
  11:../../../../../../Middlewares/Third_Party/LoRaWAN/Mac/LoRaMacCommands.c **** |___/ |_/_/ \_\___|_|\_\_| \___/|_|_\\___|___|
  12:../../../../../../Middlewares/Third_Party/LoRaWAN/Mac/LoRaMacCommands.c **** embedded.connectivity.solutions===============
  13:../../../../../../Middlewares/Third_Party/LoRaWAN/Mac/LoRaMacCommands.c **** 
  14:../../../../../../Middlewares/Third_Party/LoRaWAN/Mac/LoRaMacCommands.c **** Description: LoRa MAC commands
  15:../../../../../../Middlewares/Third_Party/LoRaWAN/Mac/LoRaMacCommands.c **** 
  16:../../../../../../Middlewares/Third_Party/LoRaWAN/Mac/LoRaMacCommands.c **** License: Revised BSD License, see LICENSE.TXT file include in the project
  17:../../../../../../Middlewares/Third_Party/LoRaWAN/Mac/LoRaMacCommands.c **** 
  18:../../../../../../Middlewares/Third_Party/LoRaWAN/Mac/LoRaMacCommands.c **** Maintainer: Miguel Luis ( Semtech ), Daniel Jaeckle ( STACKFORCE ), Johannes Bruder ( STACKFORCE )
  19:../../../../../../Middlewares/Third_Party/LoRaWAN/Mac/LoRaMacCommands.c **** */
  20:../../../../../../Middlewares/Third_Party/LoRaWAN/Mac/LoRaMacCommands.c **** 
  21:../../../../../../Middlewares/Third_Party/LoRaWAN/Mac/LoRaMacCommands.c **** #include "utilities.h"
  22:../../../../../../Middlewares/Third_Party/LoRaWAN/Mac/LoRaMacCommands.c **** #include "LoRaMacCommands.h"
  23:../../../../../../Middlewares/Third_Party/LoRaWAN/Mac/LoRaMacCommands.c **** #include "LoRaMacConfirmQueue.h"
  24:../../../../../../Middlewares/Third_Party/LoRaWAN/Mac/LoRaMacCommands.c **** 
  25:../../../../../../Middlewares/Third_Party/LoRaWAN/Mac/LoRaMacCommands.c **** /*
  26:../../../../../../Middlewares/Third_Party/LoRaWAN/Mac/LoRaMacCommands.c ****  * Number of MAC Command slots
  27:../../../../../../Middlewares/Third_Party/LoRaWAN/Mac/LoRaMacCommands.c ****  */
  28:../../../../../../Middlewares/Third_Party/LoRaWAN/Mac/LoRaMacCommands.c **** #define NUM_OF_MAC_COMMANDS 15
  29:../../../../../../Middlewares/Third_Party/LoRaWAN/Mac/LoRaMacCommands.c **** 
  30:../../../../../../Middlewares/Third_Party/LoRaWAN/Mac/LoRaMacCommands.c **** /*
  31:../../../../../../Middlewares/Third_Party/LoRaWAN/Mac/LoRaMacCommands.c ****  * Size of the CID field of MAC commands
ARM GAS  C:\Users\EBANO_~1\AppData\Local\Temp\ccTYdeCl.s 			page 2


  32:../../../../../../Middlewares/Third_Party/LoRaWAN/Mac/LoRaMacCommands.c ****  */
  33:../../../../../../Middlewares/Third_Party/LoRaWAN/Mac/LoRaMacCommands.c **** #define CID_FIELD_SIZE  1
  34:../../../../../../Middlewares/Third_Party/LoRaWAN/Mac/LoRaMacCommands.c **** 
  35:../../../../../../Middlewares/Third_Party/LoRaWAN/Mac/LoRaMacCommands.c **** /*
  36:../../../../../../Middlewares/Third_Party/LoRaWAN/Mac/LoRaMacCommands.c ****  * List of all stick MAC command answers which will be deleted after a receiving downlink
  37:../../../../../../Middlewares/Third_Party/LoRaWAN/Mac/LoRaMacCommands.c ****  */
  38:../../../../../../Middlewares/Third_Party/LoRaWAN/Mac/LoRaMacCommands.c **** const uint8_t CIDsStickyAnsCmds[] = { MOTE_MAC_DL_CHANNEL_ANS, MOTE_MAC_RX_PARAM_SETUP_ANS, MOTE_MA
  39:../../../../../../Middlewares/Third_Party/LoRaWAN/Mac/LoRaMacCommands.c **** 
  40:../../../../../../Middlewares/Third_Party/LoRaWAN/Mac/LoRaMacCommands.c **** /*
  41:../../../../../../Middlewares/Third_Party/LoRaWAN/Mac/LoRaMacCommands.c ****  *  Mac Commands list structure
  42:../../../../../../Middlewares/Third_Party/LoRaWAN/Mac/LoRaMacCommands.c ****  */
  43:../../../../../../Middlewares/Third_Party/LoRaWAN/Mac/LoRaMacCommands.c **** typedef struct sMacCommandsList
  44:../../../../../../Middlewares/Third_Party/LoRaWAN/Mac/LoRaMacCommands.c **** {
  45:../../../../../../Middlewares/Third_Party/LoRaWAN/Mac/LoRaMacCommands.c ****     /*
  46:../../../../../../Middlewares/Third_Party/LoRaWAN/Mac/LoRaMacCommands.c ****      * First element of MAC command list.
  47:../../../../../../Middlewares/Third_Party/LoRaWAN/Mac/LoRaMacCommands.c ****      */
  48:../../../../../../Middlewares/Third_Party/LoRaWAN/Mac/LoRaMacCommands.c ****     MacCommand_t* First;
  49:../../../../../../Middlewares/Third_Party/LoRaWAN/Mac/LoRaMacCommands.c ****     /*
  50:../../../../../../Middlewares/Third_Party/LoRaWAN/Mac/LoRaMacCommands.c ****      * Last element of MAC command list.
  51:../../../../../../Middlewares/Third_Party/LoRaWAN/Mac/LoRaMacCommands.c ****      */
  52:../../../../../../Middlewares/Third_Party/LoRaWAN/Mac/LoRaMacCommands.c ****     MacCommand_t* Last;
  53:../../../../../../Middlewares/Third_Party/LoRaWAN/Mac/LoRaMacCommands.c **** } MacCommandsList_t;
  54:../../../../../../Middlewares/Third_Party/LoRaWAN/Mac/LoRaMacCommands.c **** 
  55:../../../../../../Middlewares/Third_Party/LoRaWAN/Mac/LoRaMacCommands.c **** /*
  56:../../../../../../Middlewares/Third_Party/LoRaWAN/Mac/LoRaMacCommands.c ****  * LoRaMac Commands Context structure
  57:../../../../../../Middlewares/Third_Party/LoRaWAN/Mac/LoRaMacCommands.c ****  */
  58:../../../../../../Middlewares/Third_Party/LoRaWAN/Mac/LoRaMacCommands.c **** typedef struct sLoRaMacCommandsCtx
  59:../../../../../../Middlewares/Third_Party/LoRaWAN/Mac/LoRaMacCommands.c **** {
  60:../../../../../../Middlewares/Third_Party/LoRaWAN/Mac/LoRaMacCommands.c ****     /*
  61:../../../../../../Middlewares/Third_Party/LoRaWAN/Mac/LoRaMacCommands.c ****      * List of MAC command elements
  62:../../../../../../Middlewares/Third_Party/LoRaWAN/Mac/LoRaMacCommands.c ****      */
  63:../../../../../../Middlewares/Third_Party/LoRaWAN/Mac/LoRaMacCommands.c ****     MacCommandsList_t MacCommandList;
  64:../../../../../../Middlewares/Third_Party/LoRaWAN/Mac/LoRaMacCommands.c ****     /*
  65:../../../../../../Middlewares/Third_Party/LoRaWAN/Mac/LoRaMacCommands.c ****      * Buffer to store MAC command elements
  66:../../../../../../Middlewares/Third_Party/LoRaWAN/Mac/LoRaMacCommands.c ****      */
  67:../../../../../../Middlewares/Third_Party/LoRaWAN/Mac/LoRaMacCommands.c ****     MacCommand_t MacCommandSlots[NUM_OF_MAC_COMMANDS];
  68:../../../../../../Middlewares/Third_Party/LoRaWAN/Mac/LoRaMacCommands.c ****     /*
  69:../../../../../../Middlewares/Third_Party/LoRaWAN/Mac/LoRaMacCommands.c ****      * Size of all MAC commands serialized as buffer
  70:../../../../../../Middlewares/Third_Party/LoRaWAN/Mac/LoRaMacCommands.c ****      */
  71:../../../../../../Middlewares/Third_Party/LoRaWAN/Mac/LoRaMacCommands.c ****     size_t SerializedCmdsSize;
  72:../../../../../../Middlewares/Third_Party/LoRaWAN/Mac/LoRaMacCommands.c **** } LoRaMacCommandsCtx_t;
  73:../../../../../../Middlewares/Third_Party/LoRaWAN/Mac/LoRaMacCommands.c **** 
  74:../../../../../../Middlewares/Third_Party/LoRaWAN/Mac/LoRaMacCommands.c **** /*
  75:../../../../../../Middlewares/Third_Party/LoRaWAN/Mac/LoRaMacCommands.c ****  * Callback function to notify the upper layer about context change
  76:../../../../../../Middlewares/Third_Party/LoRaWAN/Mac/LoRaMacCommands.c ****  */
  77:../../../../../../Middlewares/Third_Party/LoRaWAN/Mac/LoRaMacCommands.c **** static EventNvmCtxChanged CommandsNvmCtxChanged;
  78:../../../../../../Middlewares/Third_Party/LoRaWAN/Mac/LoRaMacCommands.c **** 
  79:../../../../../../Middlewares/Third_Party/LoRaWAN/Mac/LoRaMacCommands.c **** /*
  80:../../../../../../Middlewares/Third_Party/LoRaWAN/Mac/LoRaMacCommands.c ****  * Non-volatile module context.
  81:../../../../../../Middlewares/Third_Party/LoRaWAN/Mac/LoRaMacCommands.c ****  */
  82:../../../../../../Middlewares/Third_Party/LoRaWAN/Mac/LoRaMacCommands.c **** static LoRaMacCommandsCtx_t NvmCtx;
  83:../../../../../../Middlewares/Third_Party/LoRaWAN/Mac/LoRaMacCommands.c **** 
  84:../../../../../../Middlewares/Third_Party/LoRaWAN/Mac/LoRaMacCommands.c **** /* Memory management functions */
  85:../../../../../../Middlewares/Third_Party/LoRaWAN/Mac/LoRaMacCommands.c **** 
  86:../../../../../../Middlewares/Third_Party/LoRaWAN/Mac/LoRaMacCommands.c **** /*
  87:../../../../../../Middlewares/Third_Party/LoRaWAN/Mac/LoRaMacCommands.c ****  * \brief Determines if a MAC command slot is free
  88:../../../../../../Middlewares/Third_Party/LoRaWAN/Mac/LoRaMacCommands.c ****  *
ARM GAS  C:\Users\EBANO_~1\AppData\Local\Temp\ccTYdeCl.s 			page 3


  89:../../../../../../Middlewares/Third_Party/LoRaWAN/Mac/LoRaMacCommands.c ****  * \param[IN]     slot           - Slot to check
  90:../../../../../../Middlewares/Third_Party/LoRaWAN/Mac/LoRaMacCommands.c ****  * \retval                       - Status of the operation
  91:../../../../../../Middlewares/Third_Party/LoRaWAN/Mac/LoRaMacCommands.c ****  */
  92:../../../../../../Middlewares/Third_Party/LoRaWAN/Mac/LoRaMacCommands.c **** bool isSlotFree( const MacCommand_t* slot )
  93:../../../../../../Middlewares/Third_Party/LoRaWAN/Mac/LoRaMacCommands.c **** {
  27              		.loc 1 93 0
  28              		.cfi_startproc
  29              		@ args = 0, pretend = 0, frame = 0
  30              		@ frame_needed = 0, uses_anonymous_args = 0
  31              		@ link register save eliminated.
  32              	.LVL0:
  33              	.LBB41:
  94:../../../../../../Middlewares/Third_Party/LoRaWAN/Mac/LoRaMacCommands.c ****     uint8_t* mem = (uint8_t*) slot;
  95:../../../../../../Middlewares/Third_Party/LoRaWAN/Mac/LoRaMacCommands.c **** 
  96:../../../../../../Middlewares/Third_Party/LoRaWAN/Mac/LoRaMacCommands.c ****     for( uint16_t size = 0; size < sizeof( MacCommand_t ); size++ )
  97:../../../../../../Middlewares/Third_Party/LoRaWAN/Mac/LoRaMacCommands.c ****     {
  98:../../../../../../Middlewares/Third_Party/LoRaWAN/Mac/LoRaMacCommands.c ****         if( mem[size] != 0x00 )
  34              		.loc 1 98 0
  35 0000 0378     		ldrb	r3, [r0]
  36 0002 002B     		cmp	r3, #0
  37 0004 2ED1     		bne	.L17
  38              	.LVL1:
  39 0006 4378     		ldrb	r3, [r0, #1]
  40 0008 002B     		cmp	r3, #0
  41 000a 2BD1     		bne	.L17
  42              	.LVL2:
  43 000c 8378     		ldrb	r3, [r0, #2]
  44 000e 002B     		cmp	r3, #0
  45 0010 28D1     		bne	.L17
  46              	.LVL3:
  47 0012 C378     		ldrb	r3, [r0, #3]
  48 0014 002B     		cmp	r3, #0
  49 0016 25D1     		bne	.L17
  50              	.LVL4:
  51 0018 0379     		ldrb	r3, [r0, #4]
  52 001a 002B     		cmp	r3, #0
  53 001c 22D1     		bne	.L17
  54              	.LVL5:
  55 001e 4379     		ldrb	r3, [r0, #5]
  56 0020 002B     		cmp	r3, #0
  57 0022 1FD1     		bne	.L17
  58              	.LVL6:
  59 0024 8379     		ldrb	r3, [r0, #6]
  60 0026 002B     		cmp	r3, #0
  61 0028 1CD1     		bne	.L17
  62              	.LVL7:
  63 002a C379     		ldrb	r3, [r0, #7]
  64 002c 002B     		cmp	r3, #0
  65 002e 19D1     		bne	.L17
  66              	.LVL8:
  67 0030 037A     		ldrb	r3, [r0, #8]
  68 0032 002B     		cmp	r3, #0
  69 0034 16D1     		bne	.L17
  70              	.LVL9:
  71 0036 437A     		ldrb	r3, [r0, #9]
  72 0038 002B     		cmp	r3, #0
  73 003a 13D1     		bne	.L17
ARM GAS  C:\Users\EBANO_~1\AppData\Local\Temp\ccTYdeCl.s 			page 4


  74              	.LVL10:
  75 003c 837A     		ldrb	r3, [r0, #10]
  76 003e 002B     		cmp	r3, #0
  77 0040 10D1     		bne	.L17
  78              	.LVL11:
  79 0042 C37A     		ldrb	r3, [r0, #11]
  80 0044 002B     		cmp	r3, #0
  81 0046 0DD1     		bne	.L17
  82              	.LVL12:
  83 0048 037B     		ldrb	r3, [r0, #12]
  84 004a 002B     		cmp	r3, #0
  85 004c 0AD1     		bne	.L17
  86              	.LVL13:
  87 004e 437B     		ldrb	r3, [r0, #13]
  88 0050 002B     		cmp	r3, #0
  89 0052 07D1     		bne	.L17
  90              	.LVL14:
  91 0054 837B     		ldrb	r3, [r0, #14]
  92 0056 002B     		cmp	r3, #0
  93 0058 04D1     		bne	.L17
  94              	.LVL15:
  95 005a C07B     		ldrb	r0, [r0, #15]
  96              	.LVL16:
  97 005c 4342     		rsbs	r3, r0, #0
  98 005e 5841     		adcs	r0, r0, r3
  99 0060 C0B2     		uxtb	r0, r0
 100 0062 00E0     		b	.L2
 101              	.LVL17:
 102              	.L17:
  99:../../../../../../Middlewares/Third_Party/LoRaWAN/Mac/LoRaMacCommands.c ****         {
 100:../../../../../../Middlewares/Third_Party/LoRaWAN/Mac/LoRaMacCommands.c ****             return false;
 103              		.loc 1 100 0
 104 0064 0020     		movs	r0, #0
 105              	.LVL18:
 106              	.L2:
 107              	.LBE41:
 101:../../../../../../Middlewares/Third_Party/LoRaWAN/Mac/LoRaMacCommands.c ****         }
 102:../../../../../../Middlewares/Third_Party/LoRaWAN/Mac/LoRaMacCommands.c ****     }
 103:../../../../../../Middlewares/Third_Party/LoRaWAN/Mac/LoRaMacCommands.c ****     return true;
 104:../../../../../../Middlewares/Third_Party/LoRaWAN/Mac/LoRaMacCommands.c **** }
 108              		.loc 1 104 0
 109              		@ sp needed
 110 0066 7047     		bx	lr
 111              		.cfi_endproc
 112              	.LFE39:
 113              		.size	isSlotFree, .-isSlotFree
 114              		.section	.text.mallocNewMacCommandSlot,"ax",%progbits
 115              		.align	1
 116              		.p2align 2,,3
 117              		.global	mallocNewMacCommandSlot
 118              		.syntax unified
 119              		.code	16
 120              		.thumb_func
 121              		.fpu softvfp
 122              		.type	mallocNewMacCommandSlot, %function
 123              	mallocNewMacCommandSlot:
 124              	.LFB40:
ARM GAS  C:\Users\EBANO_~1\AppData\Local\Temp\ccTYdeCl.s 			page 5


 105:../../../../../../Middlewares/Third_Party/LoRaWAN/Mac/LoRaMacCommands.c **** 
 106:../../../../../../Middlewares/Third_Party/LoRaWAN/Mac/LoRaMacCommands.c **** /*
 107:../../../../../../Middlewares/Third_Party/LoRaWAN/Mac/LoRaMacCommands.c ****  * \brief Allocates a new MAC command memory slot
 108:../../../../../../Middlewares/Third_Party/LoRaWAN/Mac/LoRaMacCommands.c ****  *
 109:../../../../../../Middlewares/Third_Party/LoRaWAN/Mac/LoRaMacCommands.c ****  * \retval                       - Pointer to slot
 110:../../../../../../Middlewares/Third_Party/LoRaWAN/Mac/LoRaMacCommands.c ****  */
 111:../../../../../../Middlewares/Third_Party/LoRaWAN/Mac/LoRaMacCommands.c **** MacCommand_t* mallocNewMacCommandSlot( )
 112:../../../../../../Middlewares/Third_Party/LoRaWAN/Mac/LoRaMacCommands.c **** {
 125              		.loc 1 112 0
 126              		.cfi_startproc
 127              		@ args = 0, pretend = 0, frame = 0
 128              		@ frame_needed = 0, uses_anonymous_args = 0
 129              		@ link register save eliminated.
 130              	.LVL19:
 131 0000 1C4B     		ldr	r3, .L24
 132 0002 1900     		movs	r1, r3
 133 0004 F031     		adds	r1, r1, #240
 134              	.LVL20:
 135              	.L20:
 136              	.LBB42:
 137              	.LBB43:
 138              	.LBB44:
  98:../../../../../../Middlewares/Third_Party/LoRaWAN/Mac/LoRaMacCommands.c ****         {
 139              		.loc 1 98 0
 140 0006 1A78     		ldrb	r2, [r3]
 141              	.LBE44:
 142              	.LBE43:
 143              	.LBE42:
 113:../../../../../../Middlewares/Third_Party/LoRaWAN/Mac/LoRaMacCommands.c ****     uint8_t itr = 0;
 114:../../../../../../Middlewares/Third_Party/LoRaWAN/Mac/LoRaMacCommands.c **** 
 115:../../../../../../Middlewares/Third_Party/LoRaWAN/Mac/LoRaMacCommands.c ****     while( isSlotFree( ( const MacCommand_t* ) &NvmCtx.MacCommandSlots[itr]) == false )
 144              		.loc 1 115 0
 145 0008 1800     		movs	r0, r3
 146              	.LVL21:
 147              	.LBB47:
 148              	.LBB46:
 149              	.LBB45:
  98:../../../../../../Middlewares/Third_Party/LoRaWAN/Mac/LoRaMacCommands.c ****         {
 150              		.loc 1 98 0
 151 000a 002A     		cmp	r2, #0
 152 000c 2DD1     		bne	.L22
 153              	.LVL22:
 154 000e 5A78     		ldrb	r2, [r3, #1]
 155 0010 002A     		cmp	r2, #0
 156 0012 2AD1     		bne	.L22
 157              	.LVL23:
 158 0014 9A78     		ldrb	r2, [r3, #2]
 159 0016 002A     		cmp	r2, #0
 160 0018 27D1     		bne	.L22
 161              	.LVL24:
 162 001a DA78     		ldrb	r2, [r3, #3]
 163 001c 002A     		cmp	r2, #0
 164 001e 24D1     		bne	.L22
 165              	.LVL25:
 166 0020 1A79     		ldrb	r2, [r3, #4]
 167 0022 002A     		cmp	r2, #0
 168 0024 21D1     		bne	.L22
ARM GAS  C:\Users\EBANO_~1\AppData\Local\Temp\ccTYdeCl.s 			page 6


 169              	.LVL26:
 170 0026 5A79     		ldrb	r2, [r3, #5]
 171 0028 002A     		cmp	r2, #0
 172 002a 1ED1     		bne	.L22
 173              	.LVL27:
 174 002c 9A79     		ldrb	r2, [r3, #6]
 175 002e 002A     		cmp	r2, #0
 176 0030 1BD1     		bne	.L22
 177              	.LVL28:
 178 0032 DA79     		ldrb	r2, [r3, #7]
 179 0034 002A     		cmp	r2, #0
 180 0036 18D1     		bne	.L22
 181              	.LVL29:
 182 0038 1A7A     		ldrb	r2, [r3, #8]
 183 003a 002A     		cmp	r2, #0
 184 003c 15D1     		bne	.L22
 185              	.LVL30:
 186 003e 5A7A     		ldrb	r2, [r3, #9]
 187 0040 002A     		cmp	r2, #0
 188 0042 12D1     		bne	.L22
 189              	.LVL31:
 190 0044 9A7A     		ldrb	r2, [r3, #10]
 191 0046 002A     		cmp	r2, #0
 192 0048 0FD1     		bne	.L22
 193              	.LVL32:
 194 004a DA7A     		ldrb	r2, [r3, #11]
 195 004c 002A     		cmp	r2, #0
 196 004e 0CD1     		bne	.L22
 197              	.LVL33:
 198 0050 1A7B     		ldrb	r2, [r3, #12]
 199 0052 002A     		cmp	r2, #0
 200 0054 09D1     		bne	.L22
 201              	.LVL34:
 202 0056 5A7B     		ldrb	r2, [r3, #13]
 203 0058 002A     		cmp	r2, #0
 204 005a 06D1     		bne	.L22
 205              	.LVL35:
 206 005c 9A7B     		ldrb	r2, [r3, #14]
 207 005e 002A     		cmp	r2, #0
 208 0060 03D1     		bne	.L22
 209              	.LVL36:
 210 0062 DA7B     		ldrb	r2, [r3, #15]
 211 0064 002A     		cmp	r2, #0
 212 0066 00D1     		bne	.L22
 213              	.LVL37:
 214              	.L19:
 215              	.LBE45:
 216              	.LBE46:
 217              	.LBE47:
 116:../../../../../../Middlewares/Third_Party/LoRaWAN/Mac/LoRaMacCommands.c ****     {
 117:../../../../../../Middlewares/Third_Party/LoRaWAN/Mac/LoRaMacCommands.c ****         itr++;
 118:../../../../../../Middlewares/Third_Party/LoRaWAN/Mac/LoRaMacCommands.c ****         if( itr == NUM_OF_MAC_COMMANDS )
 119:../../../../../../Middlewares/Third_Party/LoRaWAN/Mac/LoRaMacCommands.c ****         {
 120:../../../../../../Middlewares/Third_Party/LoRaWAN/Mac/LoRaMacCommands.c ****             return 0;
 121:../../../../../../Middlewares/Third_Party/LoRaWAN/Mac/LoRaMacCommands.c ****         }
 122:../../../../../../Middlewares/Third_Party/LoRaWAN/Mac/LoRaMacCommands.c ****     }
 123:../../../../../../Middlewares/Third_Party/LoRaWAN/Mac/LoRaMacCommands.c **** 
ARM GAS  C:\Users\EBANO_~1\AppData\Local\Temp\ccTYdeCl.s 			page 7


 124:../../../../../../Middlewares/Third_Party/LoRaWAN/Mac/LoRaMacCommands.c ****     return &NvmCtx.MacCommandSlots[itr];
 125:../../../../../../Middlewares/Third_Party/LoRaWAN/Mac/LoRaMacCommands.c **** }
 218              		.loc 1 125 0
 219              		@ sp needed
 220 0068 7047     		bx	lr
 221              	.LVL38:
 222              	.L22:
 223 006a 1033     		adds	r3, r3, #16
 118:../../../../../../Middlewares/Third_Party/LoRaWAN/Mac/LoRaMacCommands.c ****         {
 224              		.loc 1 118 0
 225 006c 8B42     		cmp	r3, r1
 226 006e CAD1     		bne	.L20
 120:../../../../../../Middlewares/Third_Party/LoRaWAN/Mac/LoRaMacCommands.c ****         }
 227              		.loc 1 120 0
 228 0070 0020     		movs	r0, #0
 229              	.LVL39:
 230 0072 F9E7     		b	.L19
 231              	.L25:
 232              		.align	2
 233              	.L24:
 234 0074 0C000000 		.word	NvmCtx+8
 235              		.cfi_endproc
 236              	.LFE40:
 237              		.size	mallocNewMacCommandSlot, .-mallocNewMacCommandSlot
 238              		.section	.text.freeMacCommandSlot,"ax",%progbits
 239              		.align	1
 240              		.p2align 2,,3
 241              		.global	freeMacCommandSlot
 242              		.syntax unified
 243              		.code	16
 244              		.thumb_func
 245              		.fpu softvfp
 246              		.type	freeMacCommandSlot, %function
 247              	freeMacCommandSlot:
 248              	.LFB41:
 126:../../../../../../Middlewares/Third_Party/LoRaWAN/Mac/LoRaMacCommands.c **** 
 127:../../../../../../Middlewares/Third_Party/LoRaWAN/Mac/LoRaMacCommands.c **** 
 128:../../../../../../Middlewares/Third_Party/LoRaWAN/Mac/LoRaMacCommands.c **** /*
 129:../../../../../../Middlewares/Third_Party/LoRaWAN/Mac/LoRaMacCommands.c ****  * \brief Free memory slot
 130:../../../../../../Middlewares/Third_Party/LoRaWAN/Mac/LoRaMacCommands.c ****  *
 131:../../../../../../Middlewares/Third_Party/LoRaWAN/Mac/LoRaMacCommands.c ****  * \param[IN]     slot           - Slot to free
 132:../../../../../../Middlewares/Third_Party/LoRaWAN/Mac/LoRaMacCommands.c ****  *
 133:../../../../../../Middlewares/Third_Party/LoRaWAN/Mac/LoRaMacCommands.c ****  * \retval                       - Status of the operation
 134:../../../../../../Middlewares/Third_Party/LoRaWAN/Mac/LoRaMacCommands.c ****  */
 135:../../../../../../Middlewares/Third_Party/LoRaWAN/Mac/LoRaMacCommands.c **** bool freeMacCommandSlot( MacCommand_t* slot )
 136:../../../../../../Middlewares/Third_Party/LoRaWAN/Mac/LoRaMacCommands.c **** {
 249              		.loc 1 136 0
 250              		.cfi_startproc
 251              		@ args = 0, pretend = 0, frame = 0
 252              		@ frame_needed = 0, uses_anonymous_args = 0
 253              	.LVL40:
 254 0000 10B5     		push	{r4, lr}
 255              	.LCFI0:
 256              		.cfi_def_cfa_offset 8
 257              		.cfi_offset 4, -8
 258              		.cfi_offset 14, -4
 137:../../../../../../Middlewares/Third_Party/LoRaWAN/Mac/LoRaMacCommands.c ****     if( slot == 0 )
ARM GAS  C:\Users\EBANO_~1\AppData\Local\Temp\ccTYdeCl.s 			page 8


 138:../../../../../../Middlewares/Third_Party/LoRaWAN/Mac/LoRaMacCommands.c ****     {
 139:../../../../../../Middlewares/Third_Party/LoRaWAN/Mac/LoRaMacCommands.c ****         return false;
 259              		.loc 1 139 0
 260 0002 0023     		movs	r3, #0
 137:../../../../../../Middlewares/Third_Party/LoRaWAN/Mac/LoRaMacCommands.c ****     if( slot == 0 )
 261              		.loc 1 137 0
 262 0004 0028     		cmp	r0, #0
 263 0006 04D0     		beq	.L27
 264              	.LVL41:
 265              	.LBB50:
 266              	.LBB51:
 140:../../../../../../Middlewares/Third_Party/LoRaWAN/Mac/LoRaMacCommands.c ****     }
 141:../../../../../../Middlewares/Third_Party/LoRaWAN/Mac/LoRaMacCommands.c **** 
 142:../../../../../../Middlewares/Third_Party/LoRaWAN/Mac/LoRaMacCommands.c ****     memset1( (uint8_t*) slot, 0x00, sizeof( MacCommand_t ));
 267              		.loc 1 142 0
 268 0008 1022     		movs	r2, #16
 269 000a 0021     		movs	r1, #0
 270 000c FFF7FEFF 		bl	memset1
 271              	.LVL42:
 272 0010 0123     		movs	r3, #1
 273              	.L27:
 274              	.LBE51:
 275              	.LBE50:
 143:../../../../../../Middlewares/Third_Party/LoRaWAN/Mac/LoRaMacCommands.c **** 
 144:../../../../../../Middlewares/Third_Party/LoRaWAN/Mac/LoRaMacCommands.c ****     return true;
 145:../../../../../../Middlewares/Third_Party/LoRaWAN/Mac/LoRaMacCommands.c **** }
 276              		.loc 1 145 0
 277 0012 1800     		movs	r0, r3
 278              		@ sp needed
 279 0014 10BD     		pop	{r4, pc}
 280              		.cfi_endproc
 281              	.LFE41:
 282              		.size	freeMacCommandSlot, .-freeMacCommandSlot
 283 0016 C046     		.section	.text.LoRaMacCommandsInit,"ax",%progbits
 284              		.align	1
 285              		.p2align 2,,3
 286              		.global	LoRaMacCommandsInit
 287              		.syntax unified
 288              		.code	16
 289              		.thumb_func
 290              		.fpu softvfp
 291              		.type	LoRaMacCommandsInit, %function
 292              	LoRaMacCommandsInit:
 293              	.LFB48:
 146:../../../../../../Middlewares/Third_Party/LoRaWAN/Mac/LoRaMacCommands.c **** 
 147:../../../../../../Middlewares/Third_Party/LoRaWAN/Mac/LoRaMacCommands.c **** 
 148:../../../../../../Middlewares/Third_Party/LoRaWAN/Mac/LoRaMacCommands.c **** /* Linked list functions */
 149:../../../../../../Middlewares/Third_Party/LoRaWAN/Mac/LoRaMacCommands.c **** 
 150:../../../../../../Middlewares/Third_Party/LoRaWAN/Mac/LoRaMacCommands.c **** /*
 151:../../../../../../Middlewares/Third_Party/LoRaWAN/Mac/LoRaMacCommands.c ****  * \brief Initialize list
 152:../../../../../../Middlewares/Third_Party/LoRaWAN/Mac/LoRaMacCommands.c ****  *
 153:../../../../../../Middlewares/Third_Party/LoRaWAN/Mac/LoRaMacCommands.c ****  * \param[IN]     list           - List that shall be initialized
 154:../../../../../../Middlewares/Third_Party/LoRaWAN/Mac/LoRaMacCommands.c ****  * \retval                       - Status of the operation
 155:../../../../../../Middlewares/Third_Party/LoRaWAN/Mac/LoRaMacCommands.c ****  */
 156:../../../../../../Middlewares/Third_Party/LoRaWAN/Mac/LoRaMacCommands.c **** static bool linkedListInit( MacCommandsList_t* list )
 157:../../../../../../Middlewares/Third_Party/LoRaWAN/Mac/LoRaMacCommands.c **** {
 158:../../../../../../Middlewares/Third_Party/LoRaWAN/Mac/LoRaMacCommands.c ****     if( list == 0 )
ARM GAS  C:\Users\EBANO_~1\AppData\Local\Temp\ccTYdeCl.s 			page 9


 159:../../../../../../Middlewares/Third_Party/LoRaWAN/Mac/LoRaMacCommands.c ****     {
 160:../../../../../../Middlewares/Third_Party/LoRaWAN/Mac/LoRaMacCommands.c ****         return false;
 161:../../../../../../Middlewares/Third_Party/LoRaWAN/Mac/LoRaMacCommands.c ****     }
 162:../../../../../../Middlewares/Third_Party/LoRaWAN/Mac/LoRaMacCommands.c **** 
 163:../../../../../../Middlewares/Third_Party/LoRaWAN/Mac/LoRaMacCommands.c ****     list->First = 0;
 164:../../../../../../Middlewares/Third_Party/LoRaWAN/Mac/LoRaMacCommands.c ****     list->Last = 0;
 165:../../../../../../Middlewares/Third_Party/LoRaWAN/Mac/LoRaMacCommands.c **** 
 166:../../../../../../Middlewares/Third_Party/LoRaWAN/Mac/LoRaMacCommands.c ****     return true;
 167:../../../../../../Middlewares/Third_Party/LoRaWAN/Mac/LoRaMacCommands.c **** }
 168:../../../../../../Middlewares/Third_Party/LoRaWAN/Mac/LoRaMacCommands.c **** 
 169:../../../../../../Middlewares/Third_Party/LoRaWAN/Mac/LoRaMacCommands.c **** /*
 170:../../../../../../Middlewares/Third_Party/LoRaWAN/Mac/LoRaMacCommands.c ****  * \brief Add an element to the list
 171:../../../../../../Middlewares/Third_Party/LoRaWAN/Mac/LoRaMacCommands.c ****  *
 172:../../../../../../Middlewares/Third_Party/LoRaWAN/Mac/LoRaMacCommands.c ****  * \param[IN]     list           - List where the element shall be added.
 173:../../../../../../Middlewares/Third_Party/LoRaWAN/Mac/LoRaMacCommands.c ****  * \param[IN]     element        - Element to add
 174:../../../../../../Middlewares/Third_Party/LoRaWAN/Mac/LoRaMacCommands.c ****  * \retval                       - Status of the operation
 175:../../../../../../Middlewares/Third_Party/LoRaWAN/Mac/LoRaMacCommands.c ****  */
 176:../../../../../../Middlewares/Third_Party/LoRaWAN/Mac/LoRaMacCommands.c **** static bool linkedListAdd( MacCommandsList_t* list, MacCommand_t* element )
 177:../../../../../../Middlewares/Third_Party/LoRaWAN/Mac/LoRaMacCommands.c **** {
 178:../../../../../../Middlewares/Third_Party/LoRaWAN/Mac/LoRaMacCommands.c ****     if( ( list == 0 ) && ( element == 0 ) )
 179:../../../../../../Middlewares/Third_Party/LoRaWAN/Mac/LoRaMacCommands.c ****     {
 180:../../../../../../Middlewares/Third_Party/LoRaWAN/Mac/LoRaMacCommands.c ****         return false;
 181:../../../../../../Middlewares/Third_Party/LoRaWAN/Mac/LoRaMacCommands.c ****     }
 182:../../../../../../Middlewares/Third_Party/LoRaWAN/Mac/LoRaMacCommands.c **** 
 183:../../../../../../Middlewares/Third_Party/LoRaWAN/Mac/LoRaMacCommands.c ****     /* Check if this is the first entry to enter the list. */
 184:../../../../../../Middlewares/Third_Party/LoRaWAN/Mac/LoRaMacCommands.c ****     if( list->First == 0 )
 185:../../../../../../Middlewares/Third_Party/LoRaWAN/Mac/LoRaMacCommands.c ****     {
 186:../../../../../../Middlewares/Third_Party/LoRaWAN/Mac/LoRaMacCommands.c ****         list->First = element;
 187:../../../../../../Middlewares/Third_Party/LoRaWAN/Mac/LoRaMacCommands.c ****     }
 188:../../../../../../Middlewares/Third_Party/LoRaWAN/Mac/LoRaMacCommands.c **** 
 189:../../../../../../Middlewares/Third_Party/LoRaWAN/Mac/LoRaMacCommands.c ****     /* Check if the last entry exists and update its next point. */
 190:../../../../../../Middlewares/Third_Party/LoRaWAN/Mac/LoRaMacCommands.c ****     if( list->Last )
 191:../../../../../../Middlewares/Third_Party/LoRaWAN/Mac/LoRaMacCommands.c ****     {
 192:../../../../../../Middlewares/Third_Party/LoRaWAN/Mac/LoRaMacCommands.c ****         list->Last->Next = element;
 193:../../../../../../Middlewares/Third_Party/LoRaWAN/Mac/LoRaMacCommands.c ****     }
 194:../../../../../../Middlewares/Third_Party/LoRaWAN/Mac/LoRaMacCommands.c **** 
 195:../../../../../../Middlewares/Third_Party/LoRaWAN/Mac/LoRaMacCommands.c ****     /* Update the next point of this entry. */
 196:../../../../../../Middlewares/Third_Party/LoRaWAN/Mac/LoRaMacCommands.c ****     element->Next = 0;
 197:../../../../../../Middlewares/Third_Party/LoRaWAN/Mac/LoRaMacCommands.c **** 
 198:../../../../../../Middlewares/Third_Party/LoRaWAN/Mac/LoRaMacCommands.c ****     /* Update the last entry of the list. */
 199:../../../../../../Middlewares/Third_Party/LoRaWAN/Mac/LoRaMacCommands.c ****     list->Last = element;
 200:../../../../../../Middlewares/Third_Party/LoRaWAN/Mac/LoRaMacCommands.c **** 
 201:../../../../../../Middlewares/Third_Party/LoRaWAN/Mac/LoRaMacCommands.c ****     return true;
 202:../../../../../../Middlewares/Third_Party/LoRaWAN/Mac/LoRaMacCommands.c **** }
 203:../../../../../../Middlewares/Third_Party/LoRaWAN/Mac/LoRaMacCommands.c **** 
 204:../../../../../../Middlewares/Third_Party/LoRaWAN/Mac/LoRaMacCommands.c **** /*
 205:../../../../../../Middlewares/Third_Party/LoRaWAN/Mac/LoRaMacCommands.c ****  * \brief Return the previous element in the list.
 206:../../../../../../Middlewares/Third_Party/LoRaWAN/Mac/LoRaMacCommands.c ****  *
 207:../../../../../../Middlewares/Third_Party/LoRaWAN/Mac/LoRaMacCommands.c ****  * \param[IN]     list           - List
 208:../../../../../../Middlewares/Third_Party/LoRaWAN/Mac/LoRaMacCommands.c ****  * \param[IN]     element        - Element where the previous element shall be searched
 209:../../../../../../Middlewares/Third_Party/LoRaWAN/Mac/LoRaMacCommands.c ****  * \retval                       - Status of the operation
 210:../../../../../../Middlewares/Third_Party/LoRaWAN/Mac/LoRaMacCommands.c ****  */
 211:../../../../../../Middlewares/Third_Party/LoRaWAN/Mac/LoRaMacCommands.c **** static MacCommand_t* linkedListGetPrevious( MacCommandsList_t* list, MacCommand_t* element )
 212:../../../../../../Middlewares/Third_Party/LoRaWAN/Mac/LoRaMacCommands.c **** {
 213:../../../../../../Middlewares/Third_Party/LoRaWAN/Mac/LoRaMacCommands.c ****     if( ( list == 0 ) && ( element == 0 ) )
 214:../../../../../../Middlewares/Third_Party/LoRaWAN/Mac/LoRaMacCommands.c ****     {
 215:../../../../../../Middlewares/Third_Party/LoRaWAN/Mac/LoRaMacCommands.c ****         return NULL;
ARM GAS  C:\Users\EBANO_~1\AppData\Local\Temp\ccTYdeCl.s 			page 10


 216:../../../../../../Middlewares/Third_Party/LoRaWAN/Mac/LoRaMacCommands.c ****     }
 217:../../../../../../Middlewares/Third_Party/LoRaWAN/Mac/LoRaMacCommands.c **** 
 218:../../../../../../Middlewares/Third_Party/LoRaWAN/Mac/LoRaMacCommands.c ****     MacCommand_t* curElement;
 219:../../../../../../Middlewares/Third_Party/LoRaWAN/Mac/LoRaMacCommands.c **** 
 220:../../../../../../Middlewares/Third_Party/LoRaWAN/Mac/LoRaMacCommands.c ****     // Start at the head of the list
 221:../../../../../../Middlewares/Third_Party/LoRaWAN/Mac/LoRaMacCommands.c ****     curElement = list->First;
 222:../../../../../../Middlewares/Third_Party/LoRaWAN/Mac/LoRaMacCommands.c **** 
 223:../../../../../../Middlewares/Third_Party/LoRaWAN/Mac/LoRaMacCommands.c ****     /*
 224:../../../../../../Middlewares/Third_Party/LoRaWAN/Mac/LoRaMacCommands.c ****      * When current element is the first of the list, there's no previous element so we can return 
 225:../../../../../../Middlewares/Third_Party/LoRaWAN/Mac/LoRaMacCommands.c ****      */
 226:../../../../../../Middlewares/Third_Party/LoRaWAN/Mac/LoRaMacCommands.c ****     if( element != curElement)
 227:../../../../../../Middlewares/Third_Party/LoRaWAN/Mac/LoRaMacCommands.c ****     {
 228:../../../../../../Middlewares/Third_Party/LoRaWAN/Mac/LoRaMacCommands.c **** 
 229:../../../../../../Middlewares/Third_Party/LoRaWAN/Mac/LoRaMacCommands.c ****         // Loop through all elements until the end is reached or the next of current is the current
 230:../../../../../../Middlewares/Third_Party/LoRaWAN/Mac/LoRaMacCommands.c ****         while(curElement && (curElement->Next != element))
 231:../../../../../../Middlewares/Third_Party/LoRaWAN/Mac/LoRaMacCommands.c ****         {
 232:../../../../../../Middlewares/Third_Party/LoRaWAN/Mac/LoRaMacCommands.c ****             curElement = curElement->Next;
 233:../../../../../../Middlewares/Third_Party/LoRaWAN/Mac/LoRaMacCommands.c ****         }
 234:../../../../../../Middlewares/Third_Party/LoRaWAN/Mac/LoRaMacCommands.c ****     }
 235:../../../../../../Middlewares/Third_Party/LoRaWAN/Mac/LoRaMacCommands.c ****     else
 236:../../../../../../Middlewares/Third_Party/LoRaWAN/Mac/LoRaMacCommands.c ****     {
 237:../../../../../../Middlewares/Third_Party/LoRaWAN/Mac/LoRaMacCommands.c ****         curElement = NULL;
 238:../../../../../../Middlewares/Third_Party/LoRaWAN/Mac/LoRaMacCommands.c ****     }
 239:../../../../../../Middlewares/Third_Party/LoRaWAN/Mac/LoRaMacCommands.c **** 
 240:../../../../../../Middlewares/Third_Party/LoRaWAN/Mac/LoRaMacCommands.c ****     return curElement;
 241:../../../../../../Middlewares/Third_Party/LoRaWAN/Mac/LoRaMacCommands.c **** }
 242:../../../../../../Middlewares/Third_Party/LoRaWAN/Mac/LoRaMacCommands.c **** 
 243:../../../../../../Middlewares/Third_Party/LoRaWAN/Mac/LoRaMacCommands.c **** /*
 244:../../../../../../Middlewares/Third_Party/LoRaWAN/Mac/LoRaMacCommands.c ****  * \brief Remove an element from the list
 245:../../../../../../Middlewares/Third_Party/LoRaWAN/Mac/LoRaMacCommands.c ****  *
 246:../../../../../../Middlewares/Third_Party/LoRaWAN/Mac/LoRaMacCommands.c ****  * \param[IN]     list           - List where the element shall be removed from.
 247:../../../../../../Middlewares/Third_Party/LoRaWAN/Mac/LoRaMacCommands.c ****  * \param[IN]     element        - Element to remove
 248:../../../../../../Middlewares/Third_Party/LoRaWAN/Mac/LoRaMacCommands.c ****  * \retval                       - Status of the operation
 249:../../../../../../Middlewares/Third_Party/LoRaWAN/Mac/LoRaMacCommands.c ****  */
 250:../../../../../../Middlewares/Third_Party/LoRaWAN/Mac/LoRaMacCommands.c **** static bool linkedListRemove( MacCommandsList_t* list, MacCommand_t* element )
 251:../../../../../../Middlewares/Third_Party/LoRaWAN/Mac/LoRaMacCommands.c **** {
 252:../../../../../../Middlewares/Third_Party/LoRaWAN/Mac/LoRaMacCommands.c ****     if( ( list == 0 ) && ( element == 0 ) )
 253:../../../../../../Middlewares/Third_Party/LoRaWAN/Mac/LoRaMacCommands.c ****     {
 254:../../../../../../Middlewares/Third_Party/LoRaWAN/Mac/LoRaMacCommands.c ****         return false;
 255:../../../../../../Middlewares/Third_Party/LoRaWAN/Mac/LoRaMacCommands.c ****     }
 256:../../../../../../Middlewares/Third_Party/LoRaWAN/Mac/LoRaMacCommands.c **** 
 257:../../../../../../Middlewares/Third_Party/LoRaWAN/Mac/LoRaMacCommands.c ****     MacCommand_t* PrevElement = linkedListGetPrevious( list, element );
 258:../../../../../../Middlewares/Third_Party/LoRaWAN/Mac/LoRaMacCommands.c **** 
 259:../../../../../../Middlewares/Third_Party/LoRaWAN/Mac/LoRaMacCommands.c ****     if( list->First == element )
 260:../../../../../../Middlewares/Third_Party/LoRaWAN/Mac/LoRaMacCommands.c ****     {
 261:../../../../../../Middlewares/Third_Party/LoRaWAN/Mac/LoRaMacCommands.c ****         list->First = element->Next;
 262:../../../../../../Middlewares/Third_Party/LoRaWAN/Mac/LoRaMacCommands.c ****     }
 263:../../../../../../Middlewares/Third_Party/LoRaWAN/Mac/LoRaMacCommands.c **** 
 264:../../../../../../Middlewares/Third_Party/LoRaWAN/Mac/LoRaMacCommands.c ****     if( list->Last == element )
 265:../../../../../../Middlewares/Third_Party/LoRaWAN/Mac/LoRaMacCommands.c ****     {
 266:../../../../../../Middlewares/Third_Party/LoRaWAN/Mac/LoRaMacCommands.c ****         list->Last = PrevElement;
 267:../../../../../../Middlewares/Third_Party/LoRaWAN/Mac/LoRaMacCommands.c ****     }
 268:../../../../../../Middlewares/Third_Party/LoRaWAN/Mac/LoRaMacCommands.c **** 
 269:../../../../../../Middlewares/Third_Party/LoRaWAN/Mac/LoRaMacCommands.c ****     if( PrevElement )
 270:../../../../../../Middlewares/Third_Party/LoRaWAN/Mac/LoRaMacCommands.c ****     {
 271:../../../../../../Middlewares/Third_Party/LoRaWAN/Mac/LoRaMacCommands.c ****         PrevElement->Next = element->Next;
 272:../../../../../../Middlewares/Third_Party/LoRaWAN/Mac/LoRaMacCommands.c ****     }
ARM GAS  C:\Users\EBANO_~1\AppData\Local\Temp\ccTYdeCl.s 			page 11


 273:../../../../../../Middlewares/Third_Party/LoRaWAN/Mac/LoRaMacCommands.c **** 
 274:../../../../../../Middlewares/Third_Party/LoRaWAN/Mac/LoRaMacCommands.c ****     element->Next = 0;
 275:../../../../../../Middlewares/Third_Party/LoRaWAN/Mac/LoRaMacCommands.c **** 
 276:../../../../../../Middlewares/Third_Party/LoRaWAN/Mac/LoRaMacCommands.c ****     return true;
 277:../../../../../../Middlewares/Third_Party/LoRaWAN/Mac/LoRaMacCommands.c **** }
 278:../../../../../../Middlewares/Third_Party/LoRaWAN/Mac/LoRaMacCommands.c **** 
 279:../../../../../../Middlewares/Third_Party/LoRaWAN/Mac/LoRaMacCommands.c **** /*
 280:../../../../../../Middlewares/Third_Party/LoRaWAN/Mac/LoRaMacCommands.c ****  * \brief Determines if a MAC command is sticky or not
 281:../../../../../../Middlewares/Third_Party/LoRaWAN/Mac/LoRaMacCommands.c ****  *
 282:../../../../../../Middlewares/Third_Party/LoRaWAN/Mac/LoRaMacCommands.c ****  * \param[IN]   cid                - MAC command identifier
 283:../../../../../../Middlewares/Third_Party/LoRaWAN/Mac/LoRaMacCommands.c ****  *
 284:../../../../../../Middlewares/Third_Party/LoRaWAN/Mac/LoRaMacCommands.c ****  * \retval                     - Status of the operation
 285:../../../../../../Middlewares/Third_Party/LoRaWAN/Mac/LoRaMacCommands.c ****  */
 286:../../../../../../Middlewares/Third_Party/LoRaWAN/Mac/LoRaMacCommands.c **** static bool IsSticky( uint8_t cid )
 287:../../../../../../Middlewares/Third_Party/LoRaWAN/Mac/LoRaMacCommands.c **** {
 288:../../../../../../Middlewares/Third_Party/LoRaWAN/Mac/LoRaMacCommands.c ****     switch( cid )
 289:../../../../../../Middlewares/Third_Party/LoRaWAN/Mac/LoRaMacCommands.c ****     {
 290:../../../../../../Middlewares/Third_Party/LoRaWAN/Mac/LoRaMacCommands.c ****         case MOTE_MAC_DL_CHANNEL_ANS:
 291:../../../../../../Middlewares/Third_Party/LoRaWAN/Mac/LoRaMacCommands.c ****         case MOTE_MAC_RX_PARAM_SETUP_ANS:
 292:../../../../../../Middlewares/Third_Party/LoRaWAN/Mac/LoRaMacCommands.c ****         case MOTE_MAC_RX_TIMING_SETUP_ANS:
 293:../../../../../../Middlewares/Third_Party/LoRaWAN/Mac/LoRaMacCommands.c ****             return true;
 294:../../../../../../Middlewares/Third_Party/LoRaWAN/Mac/LoRaMacCommands.c ****         default:
 295:../../../../../../Middlewares/Third_Party/LoRaWAN/Mac/LoRaMacCommands.c ****             return false;
 296:../../../../../../Middlewares/Third_Party/LoRaWAN/Mac/LoRaMacCommands.c ****     }
 297:../../../../../../Middlewares/Third_Party/LoRaWAN/Mac/LoRaMacCommands.c **** }
 298:../../../../../../Middlewares/Third_Party/LoRaWAN/Mac/LoRaMacCommands.c **** 
 299:../../../../../../Middlewares/Third_Party/LoRaWAN/Mac/LoRaMacCommands.c **** /*
 300:../../../../../../Middlewares/Third_Party/LoRaWAN/Mac/LoRaMacCommands.c ****  * \brief Wrapper function for the NvmCtx
 301:../../../../../../Middlewares/Third_Party/LoRaWAN/Mac/LoRaMacCommands.c ****  */
 302:../../../../../../Middlewares/Third_Party/LoRaWAN/Mac/LoRaMacCommands.c **** static void NvmCtxCallback( void )
 303:../../../../../../Middlewares/Third_Party/LoRaWAN/Mac/LoRaMacCommands.c **** {
 304:../../../../../../Middlewares/Third_Party/LoRaWAN/Mac/LoRaMacCommands.c ****     if( CommandsNvmCtxChanged != NULL )
 305:../../../../../../Middlewares/Third_Party/LoRaWAN/Mac/LoRaMacCommands.c ****     {
 306:../../../../../../Middlewares/Third_Party/LoRaWAN/Mac/LoRaMacCommands.c ****         CommandsNvmCtxChanged( );
 307:../../../../../../Middlewares/Third_Party/LoRaWAN/Mac/LoRaMacCommands.c ****     }
 308:../../../../../../Middlewares/Third_Party/LoRaWAN/Mac/LoRaMacCommands.c **** }
 309:../../../../../../Middlewares/Third_Party/LoRaWAN/Mac/LoRaMacCommands.c **** 
 310:../../../../../../Middlewares/Third_Party/LoRaWAN/Mac/LoRaMacCommands.c **** LoRaMacCommandStatus_t LoRaMacCommandsInit( EventNvmCtxChanged commandsNvmCtxChanged )
 311:../../../../../../Middlewares/Third_Party/LoRaWAN/Mac/LoRaMacCommands.c **** {
 294              		.loc 1 311 0
 295              		.cfi_startproc
 296              		@ args = 0, pretend = 0, frame = 0
 297              		@ frame_needed = 0, uses_anonymous_args = 0
 298              	.LVL43:
 299 0000 70B5     		push	{r4, r5, r6, lr}
 300              	.LCFI1:
 301              		.cfi_def_cfa_offset 16
 302              		.cfi_offset 4, -16
 303              		.cfi_offset 5, -12
 304              		.cfi_offset 6, -8
 305              		.cfi_offset 14, -4
 312:../../../../../../Middlewares/Third_Party/LoRaWAN/Mac/LoRaMacCommands.c **** 
 313:../../../../../../Middlewares/Third_Party/LoRaWAN/Mac/LoRaMacCommands.c ****     // Initialize with default
 314:../../../../../../Middlewares/Third_Party/LoRaWAN/Mac/LoRaMacCommands.c ****     memset1( (uint8_t*)&NvmCtx, 0, sizeof( NvmCtx ) );
 306              		.loc 1 314 0
 307 0002 074C     		ldr	r4, .L31
 311:../../../../../../Middlewares/Third_Party/LoRaWAN/Mac/LoRaMacCommands.c **** 
ARM GAS  C:\Users\EBANO_~1\AppData\Local\Temp\ccTYdeCl.s 			page 12


 308              		.loc 1 311 0
 309 0004 0500     		movs	r5, r0
 310              		.loc 1 314 0
 311 0006 FC22     		movs	r2, #252
 312 0008 2000     		movs	r0, r4
 313              	.LVL44:
 314 000a 0021     		movs	r1, #0
 315 000c FFF7FEFF 		bl	memset1
 316              	.LVL45:
 317              	.LBB52:
 318              	.LBB53:
 163:../../../../../../Middlewares/Third_Party/LoRaWAN/Mac/LoRaMacCommands.c ****     list->Last = 0;
 319              		.loc 1 163 0
 320 0010 0023     		movs	r3, #0
 321 0012 2360     		str	r3, [r4]
 164:../../../../../../Middlewares/Third_Party/LoRaWAN/Mac/LoRaMacCommands.c **** 
 322              		.loc 1 164 0
 323 0014 6360     		str	r3, [r4, #4]
 324              	.LVL46:
 325              	.LBE53:
 326              	.LBE52:
 315:../../../../../../Middlewares/Third_Party/LoRaWAN/Mac/LoRaMacCommands.c **** 
 316:../../../../../../Middlewares/Third_Party/LoRaWAN/Mac/LoRaMacCommands.c ****     linkedListInit( &NvmCtx.MacCommandList );
 317:../../../../../../Middlewares/Third_Party/LoRaWAN/Mac/LoRaMacCommands.c **** 
 318:../../../../../../Middlewares/Third_Party/LoRaWAN/Mac/LoRaMacCommands.c ****     // Assign callback
 319:../../../../../../Middlewares/Third_Party/LoRaWAN/Mac/LoRaMacCommands.c ****     CommandsNvmCtxChanged = commandsNvmCtxChanged;
 327              		.loc 1 319 0
 328 0016 034B     		ldr	r3, .L31+4
 320:../../../../../../Middlewares/Third_Party/LoRaWAN/Mac/LoRaMacCommands.c **** 
 321:../../../../../../Middlewares/Third_Party/LoRaWAN/Mac/LoRaMacCommands.c ****     return LORAMAC_COMMANDS_SUCCESS;
 322:../../../../../../Middlewares/Third_Party/LoRaWAN/Mac/LoRaMacCommands.c **** }
 329              		.loc 1 322 0
 330 0018 0020     		movs	r0, #0
 319:../../../../../../Middlewares/Third_Party/LoRaWAN/Mac/LoRaMacCommands.c **** 
 331              		.loc 1 319 0
 332 001a 1D60     		str	r5, [r3]
 333              		.loc 1 322 0
 334              		@ sp needed
 335              	.LVL47:
 336 001c 70BD     		pop	{r4, r5, r6, pc}
 337              	.L32:
 338 001e C046     		.align	2
 339              	.L31:
 340 0020 04000000 		.word	NvmCtx
 341 0024 00000000 		.word	.LANCHOR0
 342              		.cfi_endproc
 343              	.LFE48:
 344              		.size	LoRaMacCommandsInit, .-LoRaMacCommandsInit
 345              		.section	.text.LoRaMacCommandsRestoreNvmCtx,"ax",%progbits
 346              		.align	1
 347              		.p2align 2,,3
 348              		.global	LoRaMacCommandsRestoreNvmCtx
 349              		.syntax unified
 350              		.code	16
 351              		.thumb_func
 352              		.fpu softvfp
 353              		.type	LoRaMacCommandsRestoreNvmCtx, %function
ARM GAS  C:\Users\EBANO_~1\AppData\Local\Temp\ccTYdeCl.s 			page 13


 354              	LoRaMacCommandsRestoreNvmCtx:
 355              	.LFB49:
 323:../../../../../../Middlewares/Third_Party/LoRaWAN/Mac/LoRaMacCommands.c **** 
 324:../../../../../../Middlewares/Third_Party/LoRaWAN/Mac/LoRaMacCommands.c **** LoRaMacCommandStatus_t LoRaMacCommandsRestoreNvmCtx( void* commandsNvmCtx )
 325:../../../../../../Middlewares/Third_Party/LoRaWAN/Mac/LoRaMacCommands.c **** {
 356              		.loc 1 325 0
 357              		.cfi_startproc
 358              		@ args = 0, pretend = 0, frame = 0
 359              		@ frame_needed = 0, uses_anonymous_args = 0
 360              	.LVL48:
 361 0000 10B5     		push	{r4, lr}
 362              	.LCFI2:
 363              		.cfi_def_cfa_offset 8
 364              		.cfi_offset 4, -8
 365              		.cfi_offset 14, -4
 326:../../../../../../Middlewares/Third_Party/LoRaWAN/Mac/LoRaMacCommands.c ****     // Restore module context
 327:../../../../../../Middlewares/Third_Party/LoRaWAN/Mac/LoRaMacCommands.c ****     if( commandsNvmCtx != NULL )
 328:../../../../../../Middlewares/Third_Party/LoRaWAN/Mac/LoRaMacCommands.c ****     {
 329:../../../../../../Middlewares/Third_Party/LoRaWAN/Mac/LoRaMacCommands.c ****         memcpy1( ( uint8_t* ) &NvmCtx, ( uint8_t* ) commandsNvmCtx, sizeof( NvmCtx ) );
 330:../../../../../../Middlewares/Third_Party/LoRaWAN/Mac/LoRaMacCommands.c ****         return LORAMAC_COMMANDS_SUCCESS;
 331:../../../../../../Middlewares/Third_Party/LoRaWAN/Mac/LoRaMacCommands.c ****     }
 332:../../../../../../Middlewares/Third_Party/LoRaWAN/Mac/LoRaMacCommands.c ****     else
 333:../../../../../../Middlewares/Third_Party/LoRaWAN/Mac/LoRaMacCommands.c ****     {
 334:../../../../../../Middlewares/Third_Party/LoRaWAN/Mac/LoRaMacCommands.c ****         return LORAMAC_COMMANDS_ERROR_NPE;
 366              		.loc 1 334 0
 367 0002 0123     		movs	r3, #1
 327:../../../../../../Middlewares/Third_Party/LoRaWAN/Mac/LoRaMacCommands.c ****     {
 368              		.loc 1 327 0
 369 0004 0028     		cmp	r0, #0
 370 0006 05D0     		beq	.L34
 329:../../../../../../Middlewares/Third_Party/LoRaWAN/Mac/LoRaMacCommands.c ****         return LORAMAC_COMMANDS_SUCCESS;
 371              		.loc 1 329 0
 372 0008 0100     		movs	r1, r0
 373 000a FC22     		movs	r2, #252
 374 000c 0248     		ldr	r0, .L37
 375              	.LVL49:
 376 000e FFF7FEFF 		bl	memcpy1
 377              	.LVL50:
 330:../../../../../../Middlewares/Third_Party/LoRaWAN/Mac/LoRaMacCommands.c ****     }
 378              		.loc 1 330 0
 379 0012 0023     		movs	r3, #0
 380              	.L34:
 335:../../../../../../Middlewares/Third_Party/LoRaWAN/Mac/LoRaMacCommands.c ****     }
 336:../../../../../../Middlewares/Third_Party/LoRaWAN/Mac/LoRaMacCommands.c **** }
 381              		.loc 1 336 0
 382 0014 1800     		movs	r0, r3
 383              		@ sp needed
 384 0016 10BD     		pop	{r4, pc}
 385              	.L38:
 386              		.align	2
 387              	.L37:
 388 0018 04000000 		.word	NvmCtx
 389              		.cfi_endproc
 390              	.LFE49:
 391              		.size	LoRaMacCommandsRestoreNvmCtx, .-LoRaMacCommandsRestoreNvmCtx
 392              		.section	.text.LoRaMacCommandsGetNvmCtx,"ax",%progbits
 393              		.align	1
ARM GAS  C:\Users\EBANO_~1\AppData\Local\Temp\ccTYdeCl.s 			page 14


 394              		.p2align 2,,3
 395              		.global	LoRaMacCommandsGetNvmCtx
 396              		.syntax unified
 397              		.code	16
 398              		.thumb_func
 399              		.fpu softvfp
 400              		.type	LoRaMacCommandsGetNvmCtx, %function
 401              	LoRaMacCommandsGetNvmCtx:
 402              	.LFB50:
 337:../../../../../../Middlewares/Third_Party/LoRaWAN/Mac/LoRaMacCommands.c **** 
 338:../../../../../../Middlewares/Third_Party/LoRaWAN/Mac/LoRaMacCommands.c **** void* LoRaMacCommandsGetNvmCtx( size_t* commandsNvmCtxSize )
 339:../../../../../../Middlewares/Third_Party/LoRaWAN/Mac/LoRaMacCommands.c **** {
 403              		.loc 1 339 0
 404              		.cfi_startproc
 405              		@ args = 0, pretend = 0, frame = 0
 406              		@ frame_needed = 0, uses_anonymous_args = 0
 407              		@ link register save eliminated.
 408              	.LVL51:
 340:../../../../../../Middlewares/Third_Party/LoRaWAN/Mac/LoRaMacCommands.c ****     *commandsNvmCtxSize = sizeof( NvmCtx );
 409              		.loc 1 340 0
 410 0000 FC23     		movs	r3, #252
 341:../../../../../../Middlewares/Third_Party/LoRaWAN/Mac/LoRaMacCommands.c ****     return &NvmCtx;
 342:../../../../../../Middlewares/Third_Party/LoRaWAN/Mac/LoRaMacCommands.c **** }
 411              		.loc 1 342 0
 412              		@ sp needed
 340:../../../../../../Middlewares/Third_Party/LoRaWAN/Mac/LoRaMacCommands.c ****     *commandsNvmCtxSize = sizeof( NvmCtx );
 413              		.loc 1 340 0
 414 0002 0360     		str	r3, [r0]
 415              		.loc 1 342 0
 416 0004 0048     		ldr	r0, .L40
 417              	.LVL52:
 418 0006 7047     		bx	lr
 419              	.L41:
 420              		.align	2
 421              	.L40:
 422 0008 04000000 		.word	NvmCtx
 423              		.cfi_endproc
 424              	.LFE50:
 425              		.size	LoRaMacCommandsGetNvmCtx, .-LoRaMacCommandsGetNvmCtx
 426              		.section	.text.LoRaMacCommandsAddCmd,"ax",%progbits
 427              		.align	1
 428              		.p2align 2,,3
 429              		.global	LoRaMacCommandsAddCmd
 430              		.syntax unified
 431              		.code	16
 432              		.thumb_func
 433              		.fpu softvfp
 434              		.type	LoRaMacCommandsAddCmd, %function
 435              	LoRaMacCommandsAddCmd:
 436              	.LFB51:
 343:../../../../../../Middlewares/Third_Party/LoRaWAN/Mac/LoRaMacCommands.c **** 
 344:../../../../../../Middlewares/Third_Party/LoRaWAN/Mac/LoRaMacCommands.c **** LoRaMacCommandStatus_t LoRaMacCommandsAddCmd( uint8_t cid,  uint8_t* payload, size_t payloadSize )
 345:../../../../../../Middlewares/Third_Party/LoRaWAN/Mac/LoRaMacCommands.c **** {
 437              		.loc 1 345 0
 438              		.cfi_startproc
 439              		@ args = 0, pretend = 0, frame = 0
 440              		@ frame_needed = 0, uses_anonymous_args = 0
ARM GAS  C:\Users\EBANO_~1\AppData\Local\Temp\ccTYdeCl.s 			page 15


 441              	.LVL53:
 442 0000 F0B5     		push	{r4, r5, r6, r7, lr}
 443              	.LCFI3:
 444              		.cfi_def_cfa_offset 20
 445              		.cfi_offset 4, -20
 446              		.cfi_offset 5, -16
 447              		.cfi_offset 6, -12
 448              		.cfi_offset 7, -8
 449              		.cfi_offset 14, -4
 450 0002 C646     		mov	lr, r8
 451 0004 1500     		movs	r5, r2
 452 0006 00B5     		push	{lr}
 453              	.LCFI4:
 454              		.cfi_def_cfa_offset 24
 455              		.cfi_offset 8, -24
 456              		.loc 1 345 0
 457 0008 8046     		mov	r8, r0
 346:../../../../../../Middlewares/Third_Party/LoRaWAN/Mac/LoRaMacCommands.c ****     if( payload == 0 )
 458              		.loc 1 346 0
 459 000a 0029     		cmp	r1, #0
 460 000c 00D1     		bne	.LCB376
 461 000e 6DE0     		b	.L49	@long jump
 462              	.LCB376:
 463 0010 0022     		movs	r2, #0
 464              	.LVL54:
 465 0012 394B     		ldr	r3, .L58
 466              	.LVL55:
 467              	.L44:
 468              	.LBB54:
 469              	.LBB55:
 470              	.LBB56:
 471              	.LBB57:
 472              	.LBB58:
  98:../../../../../../Middlewares/Third_Party/LoRaWAN/Mac/LoRaMacCommands.c ****         {
 473              		.loc 1 98 0
 474 0014 1878     		ldrb	r0, [r3]
 475 0016 1701     		lsls	r7, r2, #4
 476              	.LVL56:
 477 0018 0028     		cmp	r0, #0
 478 001a 58D1     		bne	.L45
 479              	.LVL57:
 480 001c 5878     		ldrb	r0, [r3, #1]
 481 001e 0028     		cmp	r0, #0
 482 0020 55D1     		bne	.L45
 483              	.LVL58:
 484 0022 9878     		ldrb	r0, [r3, #2]
 485 0024 0028     		cmp	r0, #0
 486 0026 52D1     		bne	.L45
 487              	.LVL59:
 488 0028 D878     		ldrb	r0, [r3, #3]
 489 002a 0028     		cmp	r0, #0
 490 002c 4FD1     		bne	.L45
 491              	.LVL60:
 492 002e 1879     		ldrb	r0, [r3, #4]
 493 0030 0028     		cmp	r0, #0
 494 0032 4CD1     		bne	.L45
 495              	.LVL61:
ARM GAS  C:\Users\EBANO_~1\AppData\Local\Temp\ccTYdeCl.s 			page 16


 496 0034 5879     		ldrb	r0, [r3, #5]
 497 0036 0028     		cmp	r0, #0
 498 0038 49D1     		bne	.L45
 499              	.LVL62:
 500 003a 9879     		ldrb	r0, [r3, #6]
 501 003c 0028     		cmp	r0, #0
 502 003e 46D1     		bne	.L45
 503              	.LVL63:
 504 0040 D879     		ldrb	r0, [r3, #7]
 505 0042 0028     		cmp	r0, #0
 506 0044 43D1     		bne	.L45
 507              	.LVL64:
 508 0046 187A     		ldrb	r0, [r3, #8]
 509 0048 0028     		cmp	r0, #0
 510 004a 40D1     		bne	.L45
 511              	.LVL65:
 512 004c 587A     		ldrb	r0, [r3, #9]
 513 004e 0028     		cmp	r0, #0
 514 0050 3DD1     		bne	.L45
 515              	.LVL66:
 516 0052 987A     		ldrb	r0, [r3, #10]
 517 0054 0028     		cmp	r0, #0
 518 0056 3AD1     		bne	.L45
 519              	.LVL67:
 520 0058 D87A     		ldrb	r0, [r3, #11]
 521 005a 0028     		cmp	r0, #0
 522 005c 37D1     		bne	.L45
 523              	.LVL68:
 524 005e 187B     		ldrb	r0, [r3, #12]
 525 0060 0028     		cmp	r0, #0
 526 0062 34D1     		bne	.L45
 527              	.LVL69:
 528 0064 587B     		ldrb	r0, [r3, #13]
 529 0066 0028     		cmp	r0, #0
 530 0068 31D1     		bne	.L45
 531              	.LVL70:
 532 006a 987B     		ldrb	r0, [r3, #14]
 533 006c 0028     		cmp	r0, #0
 534 006e 2ED1     		bne	.L45
 535              	.LVL71:
 536 0070 D87B     		ldrb	r0, [r3, #15]
 537 0072 0028     		cmp	r0, #0
 538 0074 2BD1     		bne	.L45
 539              	.LVL72:
 540              	.LBE58:
 541              	.LBE57:
 542              	.LBE56:
 543              	.LBE55:
 544              	.LBE54:
 545              	.LBB60:
 546              	.LBB61:
 184:../../../../../../Middlewares/Third_Party/LoRaWAN/Mac/LoRaMacCommands.c ****     {
 547              		.loc 1 184 0
 548 0076 214E     		ldr	r6, .L58+4
 549 0078 3068     		ldr	r0, [r6]
 550 007a 0028     		cmp	r0, #0
 551 007c 38D0     		beq	.L56
ARM GAS  C:\Users\EBANO_~1\AppData\Local\Temp\ccTYdeCl.s 			page 17


 552              	.L46:
 190:../../../../../../Middlewares/Third_Party/LoRaWAN/Mac/LoRaMacCommands.c ****     {
 553              		.loc 1 190 0
 554 007e 7068     		ldr	r0, [r6, #4]
 555 0080 0028     		cmp	r0, #0
 556 0082 00D0     		beq	.L47
 192:../../../../../../Middlewares/Third_Party/LoRaWAN/Mac/LoRaMacCommands.c ****     }
 557              		.loc 1 192 0
 558 0084 0360     		str	r3, [r0]
 559              	.L47:
 196:../../../../../../Middlewares/Third_Party/LoRaWAN/Mac/LoRaMacCommands.c **** 
 560              		.loc 1 196 0
 561 0086 0024     		movs	r4, #0
 199:../../../../../../Middlewares/Third_Party/LoRaWAN/Mac/LoRaMacCommands.c **** 
 562              		.loc 1 199 0
 563 0088 7360     		str	r3, [r6, #4]
 564              	.LVL73:
 565              	.LBE61:
 566              	.LBE60:
 347:../../../../../../Middlewares/Third_Party/LoRaWAN/Mac/LoRaMacCommands.c ****     {
 348:../../../../../../Middlewares/Third_Party/LoRaWAN/Mac/LoRaMacCommands.c ****         return LORAMAC_COMMANDS_ERROR_NPE;
 349:../../../../../../Middlewares/Third_Party/LoRaWAN/Mac/LoRaMacCommands.c ****     }
 350:../../../../../../Middlewares/Third_Party/LoRaWAN/Mac/LoRaMacCommands.c ****     MacCommand_t* newCmd;
 351:../../../../../../Middlewares/Third_Party/LoRaWAN/Mac/LoRaMacCommands.c **** 
 352:../../../../../../Middlewares/Third_Party/LoRaWAN/Mac/LoRaMacCommands.c ****     // Allocate a memory slot
 353:../../../../../../Middlewares/Third_Party/LoRaWAN/Mac/LoRaMacCommands.c ****     newCmd = mallocNewMacCommandSlot( );
 354:../../../../../../Middlewares/Third_Party/LoRaWAN/Mac/LoRaMacCommands.c **** 
 355:../../../../../../Middlewares/Third_Party/LoRaWAN/Mac/LoRaMacCommands.c ****     if( newCmd == 0 )
 356:../../../../../../Middlewares/Third_Party/LoRaWAN/Mac/LoRaMacCommands.c ****     {
 357:../../../../../../Middlewares/Third_Party/LoRaWAN/Mac/LoRaMacCommands.c ****         return LORAMAC_COMMANDS_ERROR_MEMORY;
 358:../../../../../../Middlewares/Third_Party/LoRaWAN/Mac/LoRaMacCommands.c ****     }
 359:../../../../../../Middlewares/Third_Party/LoRaWAN/Mac/LoRaMacCommands.c **** 
 360:../../../../../../Middlewares/Third_Party/LoRaWAN/Mac/LoRaMacCommands.c ****     // Add it to the list of Mac commands
 361:../../../../../../Middlewares/Third_Party/LoRaWAN/Mac/LoRaMacCommands.c ****     if( linkedListAdd( &NvmCtx.MacCommandList, newCmd ) == false )
 362:../../../../../../Middlewares/Third_Party/LoRaWAN/Mac/LoRaMacCommands.c ****     {
 363:../../../../../../Middlewares/Third_Party/LoRaWAN/Mac/LoRaMacCommands.c ****         return LORAMAC_COMMANDS_ERROR;
 364:../../../../../../Middlewares/Third_Party/LoRaWAN/Mac/LoRaMacCommands.c ****     }
 365:../../../../../../Middlewares/Third_Party/LoRaWAN/Mac/LoRaMacCommands.c **** 
 366:../../../../../../Middlewares/Third_Party/LoRaWAN/Mac/LoRaMacCommands.c ****     // Set Values
 367:../../../../../../Middlewares/Third_Party/LoRaWAN/Mac/LoRaMacCommands.c ****     newCmd->CID = cid;
 567              		.loc 1 367 0
 568 008a 4346     		mov	r3, r8
 569              	.LVL74:
 570              	.LBB64:
 571              	.LBB62:
 196:../../../../../../Middlewares/Third_Party/LoRaWAN/Mac/LoRaMacCommands.c **** 
 572              		.loc 1 196 0
 573 008c F019     		adds	r0, r6, r7
 574 008e 8460     		str	r4, [r0, #8]
 575              	.LBE62:
 576              	.LBE64:
 577              		.loc 1 367 0
 578 0090 0373     		strb	r3, [r0, #12]
 368:../../../../../../Middlewares/Third_Party/LoRaWAN/Mac/LoRaMacCommands.c ****     newCmd->PayloadSize = payloadSize;
 369:../../../../../../Middlewares/Third_Party/LoRaWAN/Mac/LoRaMacCommands.c ****     memcpy1( ( uint8_t* ) newCmd->Payload, payload, payloadSize );
 579              		.loc 1 369 0
 580 0092 3800     		movs	r0, r7
ARM GAS  C:\Users\EBANO_~1\AppData\Local\Temp\ccTYdeCl.s 			page 18


 368:../../../../../../Middlewares/Third_Party/LoRaWAN/Mac/LoRaMacCommands.c ****     newCmd->PayloadSize = payloadSize;
 581              		.loc 1 368 0
 582 0094 541C     		adds	r4, r2, #1
 583 0096 2301     		lsls	r3, r4, #4
 584              		.loc 1 369 0
 585 0098 0D30     		adds	r0, r0, #13
 368:../../../../../../Middlewares/Third_Party/LoRaWAN/Mac/LoRaMacCommands.c ****     newCmd->PayloadSize = payloadSize;
 586              		.loc 1 368 0
 587 009a F550     		str	r5, [r6, r3]
 588              		.loc 1 369 0
 589 009c AAB2     		uxth	r2, r5
 590 009e 3018     		adds	r0, r6, r0
 591 00a0 FFF7FEFF 		bl	memcpy1
 592              	.LVL75:
 593 00a4 4246     		mov	r2, r8
 594              	.LBB65:
 595              	.LBB66:
 295:../../../../../../Middlewares/Third_Party/LoRaWAN/Mac/LoRaMacCommands.c ****     }
 596              		.loc 1 295 0
 597 00a6 0023     		movs	r3, #0
 598 00a8 0A2A     		cmp	r2, #10
 599 00aa 16D9     		bls	.L57
 600              	.L48:
 601              	.LVL76:
 602              	.LBE66:
 603              	.LBE65:
 370:../../../../../../Middlewares/Third_Party/LoRaWAN/Mac/LoRaMacCommands.c ****     newCmd->IsSticky = IsSticky( cid );
 604              		.loc 1 370 0
 605 00ac 2201     		lsls	r2, r4, #4
 606 00ae B218     		adds	r2, r6, r2
 607 00b0 1371     		strb	r3, [r2, #4]
 371:../../../../../../Middlewares/Third_Party/LoRaWAN/Mac/LoRaMacCommands.c **** 
 372:../../../../../../Middlewares/Third_Party/LoRaWAN/Mac/LoRaMacCommands.c ****     NvmCtx.SerializedCmdsSize += ( CID_FIELD_SIZE + payloadSize );
 608              		.loc 1 372 0
 609 00b2 F822     		movs	r2, #248
 610 00b4 B358     		ldr	r3, [r6, r2]
 611 00b6 0133     		adds	r3, r3, #1
 612 00b8 5D19     		adds	r5, r3, r5
 613              	.LVL77:
 614              	.LBB67:
 615              	.LBB68:
 304:../../../../../../Middlewares/Third_Party/LoRaWAN/Mac/LoRaMacCommands.c ****     {
 616              		.loc 1 304 0
 617 00ba 114B     		ldr	r3, .L58+8
 618              	.LBE68:
 619              	.LBE67:
 620              		.loc 1 372 0
 621 00bc B550     		str	r5, [r6, r2]
 622              	.LBB70:
 623              	.LBB69:
 304:../../../../../../Middlewares/Third_Party/LoRaWAN/Mac/LoRaMacCommands.c ****     {
 624              		.loc 1 304 0
 625 00be 1B68     		ldr	r3, [r3]
 626 00c0 002B     		cmp	r3, #0
 627 00c2 17D0     		beq	.L52
 306:../../../../../../Middlewares/Third_Party/LoRaWAN/Mac/LoRaMacCommands.c ****     }
 628              		.loc 1 306 0
ARM GAS  C:\Users\EBANO_~1\AppData\Local\Temp\ccTYdeCl.s 			page 19


 629 00c4 9847     		blx	r3
 630              	.LVL78:
 631              	.LBE69:
 632              	.LBE70:
 373:../../../../../../Middlewares/Third_Party/LoRaWAN/Mac/LoRaMacCommands.c **** 
 374:../../../../../../Middlewares/Third_Party/LoRaWAN/Mac/LoRaMacCommands.c ****     NvmCtxCallback( );
 375:../../../../../../Middlewares/Third_Party/LoRaWAN/Mac/LoRaMacCommands.c **** 
 376:../../../../../../Middlewares/Third_Party/LoRaWAN/Mac/LoRaMacCommands.c ****     return LORAMAC_COMMANDS_SUCCESS;
 633              		.loc 1 376 0
 634 00c6 0020     		movs	r0, #0
 635              	.L43:
 377:../../../../../../Middlewares/Third_Party/LoRaWAN/Mac/LoRaMacCommands.c **** }
 636              		.loc 1 377 0
 637              		@ sp needed
 638 00c8 04BC     		pop	{r2}
 639 00ca 9046     		mov	r8, r2
 640 00cc F0BD     		pop	{r4, r5, r6, r7, pc}
 641              	.LVL79:
 642              	.L45:
 643 00ce 0132     		adds	r2, r2, #1
 644              	.LVL80:
 645 00d0 1033     		adds	r3, r3, #16
 646              	.LVL81:
 647              	.LBB71:
 648              	.LBB59:
 118:../../../../../../Middlewares/Third_Party/LoRaWAN/Mac/LoRaMacCommands.c ****         {
 649              		.loc 1 118 0
 650 00d2 0F2A     		cmp	r2, #15
 651 00d4 9ED1     		bne	.L44
 652              	.LBE59:
 653              	.LBE71:
 357:../../../../../../Middlewares/Third_Party/LoRaWAN/Mac/LoRaMacCommands.c ****     }
 654              		.loc 1 357 0
 655 00d6 0220     		movs	r0, #2
 656 00d8 F6E7     		b	.L43
 657              	.LVL82:
 658              	.L57:
 659 00da 0133     		adds	r3, r3, #1
 660 00dc 9340     		lsls	r3, r3, r2
 661 00de A422     		movs	r2, #164
 662 00e0 D200     		lsls	r2, r2, #3
 663 00e2 1340     		ands	r3, r2
 664 00e4 5A1E     		subs	r2, r3, #1
 665 00e6 9341     		sbcs	r3, r3, r2
 666 00e8 DBB2     		uxtb	r3, r3
 667 00ea DFE7     		b	.L48
 668              	.LVL83:
 669              	.L49:
 348:../../../../../../Middlewares/Third_Party/LoRaWAN/Mac/LoRaMacCommands.c ****     }
 670              		.loc 1 348 0
 671 00ec 0120     		movs	r0, #1
 672              	.LVL84:
 673 00ee EBE7     		b	.L43
 674              	.LVL85:
 675              	.L56:
 676              	.LBB72:
 677              	.LBB63:
ARM GAS  C:\Users\EBANO_~1\AppData\Local\Temp\ccTYdeCl.s 			page 20


 186:../../../../../../Middlewares/Third_Party/LoRaWAN/Mac/LoRaMacCommands.c ****     }
 678              		.loc 1 186 0
 679 00f0 3360     		str	r3, [r6]
 680 00f2 C4E7     		b	.L46
 681              	.LVL86:
 682              	.L52:
 683              	.LBE63:
 684              	.LBE72:
 376:../../../../../../Middlewares/Third_Party/LoRaWAN/Mac/LoRaMacCommands.c **** }
 685              		.loc 1 376 0
 686 00f4 0020     		movs	r0, #0
 687 00f6 E7E7     		b	.L43
 688              	.L59:
 689              		.align	2
 690              	.L58:
 691 00f8 0C000000 		.word	NvmCtx+8
 692 00fc 04000000 		.word	NvmCtx
 693 0100 00000000 		.word	.LANCHOR0
 694              		.cfi_endproc
 695              	.LFE51:
 696              		.size	LoRaMacCommandsAddCmd, .-LoRaMacCommandsAddCmd
 697              		.section	.text.LoRaMacCommandsRemoveCmd,"ax",%progbits
 698              		.align	1
 699              		.p2align 2,,3
 700              		.global	LoRaMacCommandsRemoveCmd
 701              		.syntax unified
 702              		.code	16
 703              		.thumb_func
 704              		.fpu softvfp
 705              		.type	LoRaMacCommandsRemoveCmd, %function
 706              	LoRaMacCommandsRemoveCmd:
 707              	.LFB52:
 378:../../../../../../Middlewares/Third_Party/LoRaWAN/Mac/LoRaMacCommands.c **** 
 379:../../../../../../Middlewares/Third_Party/LoRaWAN/Mac/LoRaMacCommands.c **** LoRaMacCommandStatus_t LoRaMacCommandsRemoveCmd( MacCommand_t* macCmd )
 380:../../../../../../Middlewares/Third_Party/LoRaWAN/Mac/LoRaMacCommands.c **** {
 708              		.loc 1 380 0
 709              		.cfi_startproc
 710              		@ args = 0, pretend = 0, frame = 0
 711              		@ frame_needed = 0, uses_anonymous_args = 0
 712              	.LVL87:
 713 0000 10B5     		push	{r4, lr}
 714              	.LCFI5:
 715              		.cfi_def_cfa_offset 8
 716              		.cfi_offset 4, -8
 717              		.cfi_offset 14, -4
 381:../../../../../../Middlewares/Third_Party/LoRaWAN/Mac/LoRaMacCommands.c ****     if( macCmd == NULL )
 718              		.loc 1 381 0
 719 0002 0028     		cmp	r0, #0
 720 0004 27D0     		beq	.L72
 721              	.LVL88:
 722              	.LBB97:
 723              	.LBB98:
 724              	.LBB99:
 725              	.LBB100:
 221:../../../../../../Middlewares/Third_Party/LoRaWAN/Mac/LoRaMacCommands.c **** 
 726              		.loc 1 221 0
 727 0006 1C49     		ldr	r1, .L81
ARM GAS  C:\Users\EBANO_~1\AppData\Local\Temp\ccTYdeCl.s 			page 21


 728 0008 0A68     		ldr	r2, [r1]
 729              	.LVL89:
 226:../../../../../../Middlewares/Third_Party/LoRaWAN/Mac/LoRaMacCommands.c ****     {
 730              		.loc 1 226 0
 731 000a 9042     		cmp	r0, r2
 732 000c 2CD0     		beq	.L62
 230:../../../../../../Middlewares/Third_Party/LoRaWAN/Mac/LoRaMacCommands.c ****         {
 733              		.loc 1 230 0
 734 000e 002A     		cmp	r2, #0
 735 0010 09D0     		beq	.L63
 736 0012 1368     		ldr	r3, [r2]
 737 0014 9842     		cmp	r0, r3
 738 0016 04D1     		bne	.L64
 739 0018 1FE0     		b	.L79
 740              	.LVL90:
 741              	.L66:
 742 001a 1A68     		ldr	r2, [r3]
 743 001c 9042     		cmp	r0, r2
 744 001e 1DD0     		beq	.L65
 745 0020 1300     		movs	r3, r2
 746              	.LVL91:
 747              	.L64:
 748 0022 002B     		cmp	r3, #0
 749 0024 F9D1     		bne	.L66
 750              	.LVL92:
 751              	.L63:
 752              	.LBE100:
 753              	.LBE99:
 264:../../../../../../Middlewares/Third_Party/LoRaWAN/Mac/LoRaMacCommands.c ****     {
 754              		.loc 1 264 0
 755 0026 4B68     		ldr	r3, [r1, #4]
 756 0028 9842     		cmp	r0, r3
 757 002a 01D1     		bne	.L69
 266:../../../../../../Middlewares/Third_Party/LoRaWAN/Mac/LoRaMacCommands.c ****     }
 758              		.loc 1 266 0
 759 002c 0023     		movs	r3, #0
 760 002e 4B60     		str	r3, [r1, #4]
 761              	.L69:
 762              	.LBE98:
 763              	.LBE97:
 382:../../../../../../Middlewares/Third_Party/LoRaWAN/Mac/LoRaMacCommands.c ****     {
 383:../../../../../../Middlewares/Third_Party/LoRaWAN/Mac/LoRaMacCommands.c ****         return LORAMAC_COMMANDS_ERROR_NPE;
 384:../../../../../../Middlewares/Third_Party/LoRaWAN/Mac/LoRaMacCommands.c ****     }
 385:../../../../../../Middlewares/Third_Party/LoRaWAN/Mac/LoRaMacCommands.c **** 
 386:../../../../../../Middlewares/Third_Party/LoRaWAN/Mac/LoRaMacCommands.c ****     // Remove the Mac command element from MacCommandList
 387:../../../../../../Middlewares/Third_Party/LoRaWAN/Mac/LoRaMacCommands.c ****     if( linkedListRemove( &NvmCtx.MacCommandList, macCmd ) == false )
 388:../../../../../../Middlewares/Third_Party/LoRaWAN/Mac/LoRaMacCommands.c ****     {
 389:../../../../../../Middlewares/Third_Party/LoRaWAN/Mac/LoRaMacCommands.c ****         return LORAMAC_COMMANDS_ERROR_CMD_NOT_FOUND;
 390:../../../../../../Middlewares/Third_Party/LoRaWAN/Mac/LoRaMacCommands.c ****     }
 391:../../../../../../Middlewares/Third_Party/LoRaWAN/Mac/LoRaMacCommands.c **** 
 392:../../../../../../Middlewares/Third_Party/LoRaWAN/Mac/LoRaMacCommands.c ****     NvmCtx.SerializedCmdsSize -= ( CID_FIELD_SIZE + macCmd->PayloadSize );
 764              		.loc 1 392 0
 765 0030 F822     		movs	r2, #248
 766              	.LBB106:
 767              	.LBB103:
 274:../../../../../../Middlewares/Third_Party/LoRaWAN/Mac/LoRaMacCommands.c **** 
 768              		.loc 1 274 0
ARM GAS  C:\Users\EBANO_~1\AppData\Local\Temp\ccTYdeCl.s 			page 22


 769 0032 0023     		movs	r3, #0
 770 0034 0360     		str	r3, [r0]
 771              	.LVL93:
 772              	.LBE103:
 773              	.LBE106:
 774              		.loc 1 392 0
 775 0036 8B58     		ldr	r3, [r1, r2]
 776 0038 8468     		ldr	r4, [r0, #8]
 777 003a 013B     		subs	r3, r3, #1
 778 003c 1B1B     		subs	r3, r3, r4
 779 003e 8B50     		str	r3, [r1, r2]
 780              	.LVL94:
 781              	.LBB107:
 782              	.LBB108:
 783              	.LBB109:
 142:../../../../../../Middlewares/Third_Party/LoRaWAN/Mac/LoRaMacCommands.c **** 
 784              		.loc 1 142 0
 785 0040 E83A     		subs	r2, r2, #232
 786 0042 0021     		movs	r1, #0
 787 0044 FFF7FEFF 		bl	memset1
 788              	.LVL95:
 789              	.LBE109:
 790              	.LBE108:
 791              	.LBE107:
 792              	.LBB110:
 793              	.LBB111:
 794              	.LBB112:
 304:../../../../../../Middlewares/Third_Party/LoRaWAN/Mac/LoRaMacCommands.c ****     {
 795              		.loc 1 304 0
 796 0048 0C4B     		ldr	r3, .L81+4
 797 004a 1B68     		ldr	r3, [r3]
 798 004c 002B     		cmp	r3, #0
 799 004e 0ED0     		beq	.L73
 306:../../../../../../Middlewares/Third_Party/LoRaWAN/Mac/LoRaMacCommands.c ****     }
 800              		.loc 1 306 0
 801 0050 9847     		blx	r3
 802              	.LVL96:
 803 0052 0020     		movs	r0, #0
 804              	.LVL97:
 805              	.L78:
 806              	.LBE112:
 807              	.LBE111:
 808              	.LBE110:
 393:../../../../../../Middlewares/Third_Party/LoRaWAN/Mac/LoRaMacCommands.c **** 
 394:../../../../../../Middlewares/Third_Party/LoRaWAN/Mac/LoRaMacCommands.c ****     // Free the MacCommand Slot
 395:../../../../../../Middlewares/Third_Party/LoRaWAN/Mac/LoRaMacCommands.c ****     if( freeMacCommandSlot( macCmd ) == false )
 396:../../../../../../Middlewares/Third_Party/LoRaWAN/Mac/LoRaMacCommands.c ****     {
 397:../../../../../../Middlewares/Third_Party/LoRaWAN/Mac/LoRaMacCommands.c ****         return LORAMAC_COMMANDS_ERROR;
 398:../../../../../../Middlewares/Third_Party/LoRaWAN/Mac/LoRaMacCommands.c ****     }
 399:../../../../../../Middlewares/Third_Party/LoRaWAN/Mac/LoRaMacCommands.c **** 
 400:../../../../../../Middlewares/Third_Party/LoRaWAN/Mac/LoRaMacCommands.c ****     NvmCtxCallback( );
 401:../../../../../../Middlewares/Third_Party/LoRaWAN/Mac/LoRaMacCommands.c **** 
 402:../../../../../../Middlewares/Third_Party/LoRaWAN/Mac/LoRaMacCommands.c ****     return LORAMAC_COMMANDS_SUCCESS;
 403:../../../../../../Middlewares/Third_Party/LoRaWAN/Mac/LoRaMacCommands.c **** }
 809              		.loc 1 403 0
 810              		@ sp needed
 811 0054 10BD     		pop	{r4, pc}
ARM GAS  C:\Users\EBANO_~1\AppData\Local\Temp\ccTYdeCl.s 			page 23


 812              	.LVL98:
 813              	.L72:
 383:../../../../../../Middlewares/Third_Party/LoRaWAN/Mac/LoRaMacCommands.c ****     }
 814              		.loc 1 383 0
 815 0056 0120     		movs	r0, #1
 816              	.LVL99:
 817 0058 FCE7     		b	.L78
 818              	.LVL100:
 819              	.L79:
 820              	.LBB115:
 821              	.LBB104:
 822              	.LBB102:
 823              	.LBB101:
 230:../../../../../../Middlewares/Third_Party/LoRaWAN/Mac/LoRaMacCommands.c ****         {
 824              		.loc 1 230 0
 825 005a 1300     		movs	r3, r2
 826              	.LVL101:
 827              	.L65:
 828              	.LBE101:
 829              	.LBE102:
 264:../../../../../../Middlewares/Third_Party/LoRaWAN/Mac/LoRaMacCommands.c ****     {
 830              		.loc 1 264 0
 831 005c 4A68     		ldr	r2, [r1, #4]
 832 005e 9042     		cmp	r0, r2
 833 0060 07D0     		beq	.L80
 834              	.L68:
 271:../../../../../../Middlewares/Third_Party/LoRaWAN/Mac/LoRaMacCommands.c ****     }
 835              		.loc 1 271 0
 836 0062 0268     		ldr	r2, [r0]
 837 0064 1A60     		str	r2, [r3]
 838 0066 E3E7     		b	.L69
 839              	.LVL102:
 840              	.L62:
 261:../../../../../../Middlewares/Third_Party/LoRaWAN/Mac/LoRaMacCommands.c ****     }
 841              		.loc 1 261 0
 842 0068 0368     		ldr	r3, [r0]
 843 006a 0B60     		str	r3, [r1]
 844 006c DBE7     		b	.L63
 845              	.LVL103:
 846              	.L73:
 847              	.LBE104:
 848              	.LBE115:
 849              	.LBB116:
 850              	.LBB114:
 851              	.LBB113:
 304:../../../../../../Middlewares/Third_Party/LoRaWAN/Mac/LoRaMacCommands.c ****     {
 852              		.loc 1 304 0
 853 006e 0020     		movs	r0, #0
 854 0070 F0E7     		b	.L78
 855              	.LVL104:
 856              	.L80:
 857              	.LBE113:
 858              	.LBE114:
 859              	.LBE116:
 860              	.LBB117:
 861              	.LBB105:
 266:../../../../../../Middlewares/Third_Party/LoRaWAN/Mac/LoRaMacCommands.c ****     }
ARM GAS  C:\Users\EBANO_~1\AppData\Local\Temp\ccTYdeCl.s 			page 24


 862              		.loc 1 266 0
 863 0072 4B60     		str	r3, [r1, #4]
 864 0074 F5E7     		b	.L68
 865              	.L82:
 866 0076 C046     		.align	2
 867              	.L81:
 868 0078 04000000 		.word	NvmCtx
 869 007c 00000000 		.word	.LANCHOR0
 870              	.LBE105:
 871              	.LBE117:
 872              		.cfi_endproc
 873              	.LFE52:
 874              		.size	LoRaMacCommandsRemoveCmd, .-LoRaMacCommandsRemoveCmd
 875              		.section	.text.LoRaMacCommandsGetCmd,"ax",%progbits
 876              		.align	1
 877              		.p2align 2,,3
 878              		.global	LoRaMacCommandsGetCmd
 879              		.syntax unified
 880              		.code	16
 881              		.thumb_func
 882              		.fpu softvfp
 883              		.type	LoRaMacCommandsGetCmd, %function
 884              	LoRaMacCommandsGetCmd:
 885              	.LFB53:
 404:../../../../../../Middlewares/Third_Party/LoRaWAN/Mac/LoRaMacCommands.c **** 
 405:../../../../../../Middlewares/Third_Party/LoRaWAN/Mac/LoRaMacCommands.c **** LoRaMacCommandStatus_t LoRaMacCommandsGetCmd( uint8_t cid, MacCommand_t** macCmd )
 406:../../../../../../Middlewares/Third_Party/LoRaWAN/Mac/LoRaMacCommands.c **** {
 886              		.loc 1 406 0
 887              		.cfi_startproc
 888              		@ args = 0, pretend = 0, frame = 0
 889              		@ frame_needed = 0, uses_anonymous_args = 0
 890              		@ link register save eliminated.
 891              	.LVL105:
 407:../../../../../../Middlewares/Third_Party/LoRaWAN/Mac/LoRaMacCommands.c ****     MacCommand_t* curElement;
 408:../../../../../../Middlewares/Third_Party/LoRaWAN/Mac/LoRaMacCommands.c **** 
 409:../../../../../../Middlewares/Third_Party/LoRaWAN/Mac/LoRaMacCommands.c ****     // Start at the head of the list
 410:../../../../../../Middlewares/Third_Party/LoRaWAN/Mac/LoRaMacCommands.c ****     curElement = NvmCtx.MacCommandList.First;
 892              		.loc 1 410 0
 893 0000 064B     		ldr	r3, .L95
 894 0002 02E0     		b	.L93
 895              	.LVL106:
 896              	.L94:
 411:../../../../../../Middlewares/Third_Party/LoRaWAN/Mac/LoRaMacCommands.c **** 
 412:../../../../../../Middlewares/Third_Party/LoRaWAN/Mac/LoRaMacCommands.c ****     // Loop through all elements until we find the element with the given CID
 413:../../../../../../Middlewares/Third_Party/LoRaWAN/Mac/LoRaMacCommands.c ****     while(curElement && ( curElement->CID != cid ) )
 897              		.loc 1 413 0
 898 0004 1A79     		ldrb	r2, [r3, #4]
 899 0006 8242     		cmp	r2, r0
 900 0008 04D0     		beq	.L85
 901              	.LVL107:
 902              	.L93:
 410:../../../../../../Middlewares/Third_Party/LoRaWAN/Mac/LoRaMacCommands.c **** 
 903              		.loc 1 410 0
 904 000a 1B68     		ldr	r3, [r3]
 905              	.LVL108:
 906              		.loc 1 413 0
 907 000c 002B     		cmp	r3, #0
ARM GAS  C:\Users\EBANO_~1\AppData\Local\Temp\ccTYdeCl.s 			page 25


 908 000e F9D1     		bne	.L94
 414:../../../../../../Middlewares/Third_Party/LoRaWAN/Mac/LoRaMacCommands.c ****     {
 415:../../../../../../Middlewares/Third_Party/LoRaWAN/Mac/LoRaMacCommands.c ****         curElement = curElement->Next;
 416:../../../../../../Middlewares/Third_Party/LoRaWAN/Mac/LoRaMacCommands.c ****     }
 417:../../../../../../Middlewares/Third_Party/LoRaWAN/Mac/LoRaMacCommands.c **** 
 418:../../../../../../Middlewares/Third_Party/LoRaWAN/Mac/LoRaMacCommands.c ****     // Handle error in case if we reached the end without finding it.
 419:../../../../../../Middlewares/Third_Party/LoRaWAN/Mac/LoRaMacCommands.c ****     if( curElement == NULL )
 420:../../../../../../Middlewares/Third_Party/LoRaWAN/Mac/LoRaMacCommands.c ****     {
 421:../../../../../../Middlewares/Third_Party/LoRaWAN/Mac/LoRaMacCommands.c ****         return LORAMAC_COMMANDS_ERROR_CMD_NOT_FOUND;
 909              		.loc 1 421 0
 910 0010 0320     		movs	r0, #3
 911              	.LVL109:
 912              	.L90:
 422:../../../../../../Middlewares/Third_Party/LoRaWAN/Mac/LoRaMacCommands.c ****     }
 423:../../../../../../Middlewares/Third_Party/LoRaWAN/Mac/LoRaMacCommands.c **** 
 424:../../../../../../Middlewares/Third_Party/LoRaWAN/Mac/LoRaMacCommands.c ****     *macCmd = curElement;
 425:../../../../../../Middlewares/Third_Party/LoRaWAN/Mac/LoRaMacCommands.c **** 
 426:../../../../../../Middlewares/Third_Party/LoRaWAN/Mac/LoRaMacCommands.c ****     return LORAMAC_COMMANDS_SUCCESS;
 427:../../../../../../Middlewares/Third_Party/LoRaWAN/Mac/LoRaMacCommands.c **** }
 913              		.loc 1 427 0
 914              		@ sp needed
 915 0012 7047     		bx	lr
 916              	.LVL110:
 917              	.L85:
 424:../../../../../../Middlewares/Third_Party/LoRaWAN/Mac/LoRaMacCommands.c **** 
 918              		.loc 1 424 0
 919 0014 0B60     		str	r3, [r1]
 426:../../../../../../Middlewares/Third_Party/LoRaWAN/Mac/LoRaMacCommands.c **** }
 920              		.loc 1 426 0
 921 0016 0020     		movs	r0, #0
 922              	.LVL111:
 923 0018 FBE7     		b	.L90
 924              	.L96:
 925 001a C046     		.align	2
 926              	.L95:
 927 001c 04000000 		.word	NvmCtx
 928              		.cfi_endproc
 929              	.LFE53:
 930              		.size	LoRaMacCommandsGetCmd, .-LoRaMacCommandsGetCmd
 931              		.section	.text.LoRaMacCommandsRemoveNoneStickyCmds,"ax",%progbits
 932              		.align	1
 933              		.p2align 2,,3
 934              		.global	LoRaMacCommandsRemoveNoneStickyCmds
 935              		.syntax unified
 936              		.code	16
 937              		.thumb_func
 938              		.fpu softvfp
 939              		.type	LoRaMacCommandsRemoveNoneStickyCmds, %function
 940              	LoRaMacCommandsRemoveNoneStickyCmds:
 941              	.LFB54:
 428:../../../../../../Middlewares/Third_Party/LoRaWAN/Mac/LoRaMacCommands.c **** 
 429:../../../../../../Middlewares/Third_Party/LoRaWAN/Mac/LoRaMacCommands.c **** LoRaMacCommandStatus_t LoRaMacCommandsRemoveNoneStickyCmds( void )
 430:../../../../../../Middlewares/Third_Party/LoRaWAN/Mac/LoRaMacCommands.c **** {
 942              		.loc 1 430 0
 943              		.cfi_startproc
 944              		@ args = 0, pretend = 0, frame = 0
 945              		@ frame_needed = 0, uses_anonymous_args = 0
ARM GAS  C:\Users\EBANO_~1\AppData\Local\Temp\ccTYdeCl.s 			page 26


 946 0000 F0B5     		push	{r4, r5, r6, r7, lr}
 947              	.LCFI6:
 948              		.cfi_def_cfa_offset 20
 949              		.cfi_offset 4, -20
 950              		.cfi_offset 5, -16
 951              		.cfi_offset 6, -12
 952              		.cfi_offset 7, -8
 953              		.cfi_offset 14, -4
 954 0002 C646     		mov	lr, r8
 431:../../../../../../Middlewares/Third_Party/LoRaWAN/Mac/LoRaMacCommands.c ****     MacCommand_t* curElement;
 432:../../../../../../Middlewares/Third_Party/LoRaWAN/Mac/LoRaMacCommands.c ****     MacCommand_t* nexElement;
 433:../../../../../../Middlewares/Third_Party/LoRaWAN/Mac/LoRaMacCommands.c **** 
 434:../../../../../../Middlewares/Third_Party/LoRaWAN/Mac/LoRaMacCommands.c ****     // Start at the head of the list
 435:../../../../../../Middlewares/Third_Party/LoRaWAN/Mac/LoRaMacCommands.c ****     curElement = NvmCtx.MacCommandList.First;
 955              		.loc 1 435 0
 956 0004 234D     		ldr	r5, .L130
 430:../../../../../../Middlewares/Third_Party/LoRaWAN/Mac/LoRaMacCommands.c ****     MacCommand_t* curElement;
 957              		.loc 1 430 0
 958 0006 00B5     		push	{lr}
 959              	.LCFI7:
 960              		.cfi_def_cfa_offset 24
 961              		.cfi_offset 8, -24
 962              		.loc 1 435 0
 963 0008 2868     		ldr	r0, [r5]
 964              	.LVL112:
 965 000a 234F     		ldr	r7, .L130+4
 436:../../../../../../Middlewares/Third_Party/LoRaWAN/Mac/LoRaMacCommands.c **** 
 437:../../../../../../Middlewares/Third_Party/LoRaWAN/Mac/LoRaMacCommands.c ****     // Loop through all elements
 438:../../../../../../Middlewares/Third_Party/LoRaWAN/Mac/LoRaMacCommands.c ****     while( curElement )
 966              		.loc 1 438 0
 967 000c 0028     		cmp	r0, #0
 968 000e 2ED0     		beq	.L98
 969              	.LBB140:
 970              	.LBB141:
 971              	.LBB142:
 972              	.LBB143:
 266:../../../../../../Middlewares/Third_Party/LoRaWAN/Mac/LoRaMacCommands.c ****     }
 973              		.loc 1 266 0
 974 0010 0023     		movs	r3, #0
 975              	.LBE143:
 976              	.LBE142:
 392:../../../../../../Middlewares/Third_Party/LoRaWAN/Mac/LoRaMacCommands.c **** 
 977              		.loc 1 392 0
 978 0012 F826     		movs	r6, #248
 979              	.LBB151:
 980              	.LBB148:
 266:../../../../../../Middlewares/Third_Party/LoRaWAN/Mac/LoRaMacCommands.c ****     }
 981              		.loc 1 266 0
 982 0014 9846     		mov	r8, r3
 983 0016 01E0     		b	.L109
 984              	.LVL113:
 985              	.L108:
 986 0018 201E     		subs	r0, r4, #0
 987              	.LBE148:
 988              	.LBE151:
 989              	.LBE141:
 990              	.LBE140:
ARM GAS  C:\Users\EBANO_~1\AppData\Local\Temp\ccTYdeCl.s 			page 27


 991              		.loc 1 438 0
 992 001a 28D0     		beq	.L98
 993              	.LVL114:
 994              	.L109:
 439:../../../../../../Middlewares/Third_Party/LoRaWAN/Mac/LoRaMacCommands.c ****     {
 440:../../../../../../Middlewares/Third_Party/LoRaWAN/Mac/LoRaMacCommands.c ****         if( curElement->IsSticky == false )
 995              		.loc 1 440 0
 996 001c 037B     		ldrb	r3, [r0, #12]
 997 001e 0468     		ldr	r4, [r0]
 998 0020 002B     		cmp	r3, #0
 999 0022 F9D1     		bne	.L108
 1000              	.LVL115:
 1001              	.LBB165:
 1002              	.LBB163:
 1003              	.LBB152:
 1004              	.LBB149:
 1005              	.LBB144:
 1006              	.LBB145:
 221:../../../../../../Middlewares/Third_Party/LoRaWAN/Mac/LoRaMacCommands.c **** 
 1007              		.loc 1 221 0
 1008 0024 2A68     		ldr	r2, [r5]
 1009              	.LVL116:
 226:../../../../../../Middlewares/Third_Party/LoRaWAN/Mac/LoRaMacCommands.c ****     {
 1010              		.loc 1 226 0
 1011 0026 8242     		cmp	r2, r0
 1012 0028 29D0     		beq	.L100
 230:../../../../../../Middlewares/Third_Party/LoRaWAN/Mac/LoRaMacCommands.c ****         {
 1013              		.loc 1 230 0
 1014 002a 002A     		cmp	r2, #0
 1015 002c 09D0     		beq	.L101
 1016 002e 1368     		ldr	r3, [r2]
 1017 0030 8342     		cmp	r3, r0
 1018 0032 04D1     		bne	.L102
 1019 0034 25E0     		b	.L128
 1020              	.LVL117:
 1021              	.L104:
 1022 0036 1A68     		ldr	r2, [r3]
 1023 0038 8242     		cmp	r2, r0
 1024 003a 23D0     		beq	.L103
 1025 003c 1300     		movs	r3, r2
 1026              	.LVL118:
 1027              	.L102:
 1028 003e 002B     		cmp	r3, #0
 1029 0040 F9D1     		bne	.L104
 1030              	.LVL119:
 1031              	.L101:
 1032              	.LBE145:
 1033              	.LBE144:
 264:../../../../../../Middlewares/Third_Party/LoRaWAN/Mac/LoRaMacCommands.c ****     {
 1034              		.loc 1 264 0
 1035 0042 6B68     		ldr	r3, [r5, #4]
 1036 0044 8342     		cmp	r3, r0
 1037 0046 01D1     		bne	.L107
 266:../../../../../../Middlewares/Third_Party/LoRaWAN/Mac/LoRaMacCommands.c ****     }
 1038              		.loc 1 266 0
 1039 0048 4346     		mov	r3, r8
 1040 004a 6B60     		str	r3, [r5, #4]
ARM GAS  C:\Users\EBANO_~1\AppData\Local\Temp\ccTYdeCl.s 			page 28


 1041              	.LVL120:
 1042              	.L107:
 274:../../../../../../Middlewares/Third_Party/LoRaWAN/Mac/LoRaMacCommands.c **** 
 1043              		.loc 1 274 0
 1044 004c 4346     		mov	r3, r8
 1045 004e 0360     		str	r3, [r0]
 1046              	.LVL121:
 1047              	.LBE149:
 1048              	.LBE152:
 392:../../../../../../Middlewares/Third_Party/LoRaWAN/Mac/LoRaMacCommands.c **** 
 1049              		.loc 1 392 0
 1050 0050 AB59     		ldr	r3, [r5, r6]
 1051 0052 8268     		ldr	r2, [r0, #8]
 1052 0054 013B     		subs	r3, r3, #1
 1053 0056 9B1A     		subs	r3, r3, r2
 1054              	.LBB153:
 1055              	.LBB154:
 1056              	.LBB155:
 142:../../../../../../Middlewares/Third_Party/LoRaWAN/Mac/LoRaMacCommands.c **** 
 1057              		.loc 1 142 0
 1058 0058 0021     		movs	r1, #0
 1059 005a 1022     		movs	r2, #16
 1060              	.LBE155:
 1061              	.LBE154:
 1062              	.LBE153:
 392:../../../../../../Middlewares/Third_Party/LoRaWAN/Mac/LoRaMacCommands.c **** 
 1063              		.loc 1 392 0
 1064 005c AB51     		str	r3, [r5, r6]
 1065              	.LVL122:
 1066              	.LBB158:
 1067              	.LBB157:
 1068              	.LBB156:
 142:../../../../../../Middlewares/Third_Party/LoRaWAN/Mac/LoRaMacCommands.c **** 
 1069              		.loc 1 142 0
 1070 005e FFF7FEFF 		bl	memset1
 1071              	.LVL123:
 1072              	.LBE156:
 1073              	.LBE157:
 1074              	.LBE158:
 1075              	.LBB159:
 1076              	.LBB160:
 1077              	.LBB161:
 304:../../../../../../Middlewares/Third_Party/LoRaWAN/Mac/LoRaMacCommands.c ****     {
 1078              		.loc 1 304 0
 1079 0062 3B68     		ldr	r3, [r7]
 1080 0064 002B     		cmp	r3, #0
 1081 0066 D7D0     		beq	.L108
 306:../../../../../../Middlewares/Third_Party/LoRaWAN/Mac/LoRaMacCommands.c ****     }
 1082              		.loc 1 306 0
 1083 0068 9847     		blx	r3
 1084              	.LVL124:
 1085 006a 201E     		subs	r0, r4, #0
 1086              	.LBE161:
 1087              	.LBE160:
 1088              	.LBE159:
 1089              	.LBE163:
 1090              	.LBE165:
ARM GAS  C:\Users\EBANO_~1\AppData\Local\Temp\ccTYdeCl.s 			page 29


 438:../../../../../../Middlewares/Third_Party/LoRaWAN/Mac/LoRaMacCommands.c ****     {
 1091              		.loc 1 438 0
 1092 006c D6D1     		bne	.L109
 1093              	.LVL125:
 1094              	.L98:
 1095              	.LBB166:
 1096              	.LBB167:
 304:../../../../../../Middlewares/Third_Party/LoRaWAN/Mac/LoRaMacCommands.c ****     {
 1097              		.loc 1 304 0
 1098 006e 3B68     		ldr	r3, [r7]
 1099 0070 002B     		cmp	r3, #0
 1100 0072 00D0     		beq	.L117
 306:../../../../../../Middlewares/Third_Party/LoRaWAN/Mac/LoRaMacCommands.c ****     }
 1101              		.loc 1 306 0
 1102 0074 9847     		blx	r3
 1103              	.LVL126:
 1104              	.L117:
 1105              	.LBE167:
 1106              	.LBE166:
 441:../../../../../../Middlewares/Third_Party/LoRaWAN/Mac/LoRaMacCommands.c ****         {
 442:../../../../../../Middlewares/Third_Party/LoRaWAN/Mac/LoRaMacCommands.c ****             nexElement = curElement->Next;
 443:../../../../../../Middlewares/Third_Party/LoRaWAN/Mac/LoRaMacCommands.c ****             LoRaMacCommandsRemoveCmd( curElement );
 444:../../../../../../Middlewares/Third_Party/LoRaWAN/Mac/LoRaMacCommands.c ****             curElement = nexElement;
 445:../../../../../../Middlewares/Third_Party/LoRaWAN/Mac/LoRaMacCommands.c ****         }
 446:../../../../../../Middlewares/Third_Party/LoRaWAN/Mac/LoRaMacCommands.c ****         else
 447:../../../../../../Middlewares/Third_Party/LoRaWAN/Mac/LoRaMacCommands.c ****         {
 448:../../../../../../Middlewares/Third_Party/LoRaWAN/Mac/LoRaMacCommands.c ****             curElement = curElement->Next;
 449:../../../../../../Middlewares/Third_Party/LoRaWAN/Mac/LoRaMacCommands.c ****         }
 450:../../../../../../Middlewares/Third_Party/LoRaWAN/Mac/LoRaMacCommands.c ****     }
 451:../../../../../../Middlewares/Third_Party/LoRaWAN/Mac/LoRaMacCommands.c **** 
 452:../../../../../../Middlewares/Third_Party/LoRaWAN/Mac/LoRaMacCommands.c ****     NvmCtxCallback( );
 453:../../../../../../Middlewares/Third_Party/LoRaWAN/Mac/LoRaMacCommands.c **** 
 454:../../../../../../Middlewares/Third_Party/LoRaWAN/Mac/LoRaMacCommands.c ****     return LORAMAC_COMMANDS_SUCCESS;
 455:../../../../../../Middlewares/Third_Party/LoRaWAN/Mac/LoRaMacCommands.c **** }
 1107              		.loc 1 455 0
 1108 0076 0020     		movs	r0, #0
 1109              		@ sp needed
 1110 0078 04BC     		pop	{r2}
 1111 007a 9046     		mov	r8, r2
 1112 007c F0BD     		pop	{r4, r5, r6, r7, pc}
 1113              	.LVL127:
 1114              	.L100:
 1115              	.LBB168:
 1116              	.LBB164:
 1117              	.LBB162:
 1118              	.LBB150:
 261:../../../../../../Middlewares/Third_Party/LoRaWAN/Mac/LoRaMacCommands.c ****     }
 1119              		.loc 1 261 0
 1120 007e 2C60     		str	r4, [r5]
 1121 0080 DFE7     		b	.L101
 1122              	.LVL128:
 1123              	.L128:
 1124              	.LBB147:
 1125              	.LBB146:
 230:../../../../../../Middlewares/Third_Party/LoRaWAN/Mac/LoRaMacCommands.c ****         {
 1126              		.loc 1 230 0
 1127 0082 1300     		movs	r3, r2
ARM GAS  C:\Users\EBANO_~1\AppData\Local\Temp\ccTYdeCl.s 			page 30


 1128              	.LVL129:
 1129              	.L103:
 1130              	.LBE146:
 1131              	.LBE147:
 264:../../../../../../Middlewares/Third_Party/LoRaWAN/Mac/LoRaMacCommands.c ****     {
 1132              		.loc 1 264 0
 1133 0084 6A68     		ldr	r2, [r5, #4]
 1134 0086 9042     		cmp	r0, r2
 1135 0088 01D0     		beq	.L129
 271:../../../../../../Middlewares/Third_Party/LoRaWAN/Mac/LoRaMacCommands.c ****     }
 1136              		.loc 1 271 0
 1137 008a 1C60     		str	r4, [r3]
 1138              	.LVL130:
 1139 008c DEE7     		b	.L107
 1140              	.LVL131:
 1141              	.L129:
 266:../../../../../../Middlewares/Third_Party/LoRaWAN/Mac/LoRaMacCommands.c ****     }
 1142              		.loc 1 266 0
 1143 008e 6B60     		str	r3, [r5, #4]
 271:../../../../../../Middlewares/Third_Party/LoRaWAN/Mac/LoRaMacCommands.c ****     }
 1144              		.loc 1 271 0
 1145 0090 1C60     		str	r4, [r3]
 1146              	.LVL132:
 1147 0092 DBE7     		b	.L107
 1148              	.L131:
 1149              		.align	2
 1150              	.L130:
 1151 0094 04000000 		.word	NvmCtx
 1152 0098 00000000 		.word	.LANCHOR0
 1153              	.LBE150:
 1154              	.LBE162:
 1155              	.LBE164:
 1156              	.LBE168:
 1157              		.cfi_endproc
 1158              	.LFE54:
 1159              		.size	LoRaMacCommandsRemoveNoneStickyCmds, .-LoRaMacCommandsRemoveNoneStickyCmds
 1160              		.section	.text.LoRaMacCommandsRemoveStickyAnsCmds,"ax",%progbits
 1161              		.align	1
 1162              		.p2align 2,,3
 1163              		.global	LoRaMacCommandsRemoveStickyAnsCmds
 1164              		.syntax unified
 1165              		.code	16
 1166              		.thumb_func
 1167              		.fpu softvfp
 1168              		.type	LoRaMacCommandsRemoveStickyAnsCmds, %function
 1169              	LoRaMacCommandsRemoveStickyAnsCmds:
 1170              	.LFB55:
 456:../../../../../../Middlewares/Third_Party/LoRaWAN/Mac/LoRaMacCommands.c **** 
 457:../../../../../../Middlewares/Third_Party/LoRaWAN/Mac/LoRaMacCommands.c **** LoRaMacCommandStatus_t LoRaMacCommandsRemoveStickyAnsCmds( void )
 458:../../../../../../Middlewares/Third_Party/LoRaWAN/Mac/LoRaMacCommands.c **** {
 1171              		.loc 1 458 0
 1172              		.cfi_startproc
 1173              		@ args = 0, pretend = 0, frame = 0
 1174              		@ frame_needed = 0, uses_anonymous_args = 0
 1175 0000 F8B5     		push	{r3, r4, r5, r6, r7, lr}
 1176              	.LCFI8:
 1177              		.cfi_def_cfa_offset 24
ARM GAS  C:\Users\EBANO_~1\AppData\Local\Temp\ccTYdeCl.s 			page 31


 1178              		.cfi_offset 3, -24
 1179              		.cfi_offset 4, -20
 1180              		.cfi_offset 5, -16
 1181              		.cfi_offset 6, -12
 1182              		.cfi_offset 7, -8
 1183              		.cfi_offset 14, -4
 1184 0002 4746     		mov	r7, r8
 1185 0004 CE46     		mov	lr, r9
 459:../../../../../../Middlewares/Third_Party/LoRaWAN/Mac/LoRaMacCommands.c ****     MacCommand_t* curElement;
 460:../../../../../../Middlewares/Third_Party/LoRaWAN/Mac/LoRaMacCommands.c ****     MacCommand_t* nexElement;
 461:../../../../../../Middlewares/Third_Party/LoRaWAN/Mac/LoRaMacCommands.c **** 
 462:../../../../../../Middlewares/Third_Party/LoRaWAN/Mac/LoRaMacCommands.c ****     // Start at the head of the list
 463:../../../../../../Middlewares/Third_Party/LoRaWAN/Mac/LoRaMacCommands.c ****     curElement = NvmCtx.MacCommandList.First;
 1186              		.loc 1 463 0
 1187 0006 294D     		ldr	r5, .L170
 458:../../../../../../Middlewares/Third_Party/LoRaWAN/Mac/LoRaMacCommands.c ****     MacCommand_t* curElement;
 1188              		.loc 1 458 0
 1189 0008 80B5     		push	{r7, lr}
 1190              	.LCFI9:
 1191              		.cfi_def_cfa_offset 32
 1192              		.cfi_offset 8, -32
 1193              		.cfi_offset 9, -28
 1194              		.loc 1 463 0
 1195 000a 2868     		ldr	r0, [r5]
 1196              	.LVL133:
 1197 000c 284F     		ldr	r7, .L170+4
 464:../../../../../../Middlewares/Third_Party/LoRaWAN/Mac/LoRaMacCommands.c **** 
 465:../../../../../../Middlewares/Third_Party/LoRaWAN/Mac/LoRaMacCommands.c ****     // Loop through all elements
 466:../../../../../../Middlewares/Third_Party/LoRaWAN/Mac/LoRaMacCommands.c ****     while( curElement != NULL )
 1198              		.loc 1 466 0
 1199 000e 0028     		cmp	r0, #0
 1200 0010 38D0     		beq	.L133
 1201              	.LBB192:
 1202              	.LBB193:
 1203              	.LBB194:
 1204              	.LBB195:
 1205              	.LBB196:
 266:../../../../../../Middlewares/Third_Party/LoRaWAN/Mac/LoRaMacCommands.c ****     }
 1206              		.loc 1 266 0
 1207 0012 0023     		movs	r3, #0
 1208 0014 9946     		mov	r9, r3
 1209              	.LBE196:
 1210              	.LBE195:
 392:../../../../../../Middlewares/Third_Party/LoRaWAN/Mac/LoRaMacCommands.c **** 
 1211              		.loc 1 392 0
 1212 0016 F833     		adds	r3, r3, #248
 1213 0018 9846     		mov	r8, r3
 1214              	.LBE194:
 1215              	.LBE193:
 467:../../../../../../Middlewares/Third_Party/LoRaWAN/Mac/LoRaMacCommands.c ****     {
 468:../../../../../../Middlewares/Third_Party/LoRaWAN/Mac/LoRaMacCommands.c ****         nexElement = curElement->Next;
 469:../../../../../../Middlewares/Third_Party/LoRaWAN/Mac/LoRaMacCommands.c ****         if( curElement->IsSticky == true )
 470:../../../../../../Middlewares/Third_Party/LoRaWAN/Mac/LoRaMacCommands.c ****         {
 471:../../../../../../Middlewares/Third_Party/LoRaWAN/Mac/LoRaMacCommands.c ****             for( uint8_t i = 0; i < sizeof( CIDsStickyAnsCmds ); i++)
 472:../../../../../../Middlewares/Third_Party/LoRaWAN/Mac/LoRaMacCommands.c ****             {
 473:../../../../../../Middlewares/Third_Party/LoRaWAN/Mac/LoRaMacCommands.c ****                 if( curElement->CID == CIDsStickyAnsCmds[i] )
 1216              		.loc 1 473 0
ARM GAS  C:\Users\EBANO_~1\AppData\Local\Temp\ccTYdeCl.s 			page 32


 1217 001a 0226     		movs	r6, #2
 1218 001c 01E0     		b	.L146
 1219              	.LVL134:
 1220              	.L135:
 1221 001e 201E     		subs	r0, r4, #0
 1222              	.LBE192:
 466:../../../../../../Middlewares/Third_Party/LoRaWAN/Mac/LoRaMacCommands.c ****     {
 1223              		.loc 1 466 0
 1224 0020 30D0     		beq	.L133
 1225              	.LVL135:
 1226              	.L146:
 469:../../../../../../Middlewares/Third_Party/LoRaWAN/Mac/LoRaMacCommands.c ****         {
 1227              		.loc 1 469 0
 1228 0022 037B     		ldrb	r3, [r0, #12]
 468:../../../../../../Middlewares/Third_Party/LoRaWAN/Mac/LoRaMacCommands.c ****         if( curElement->IsSticky == true )
 1229              		.loc 1 468 0
 1230 0024 0468     		ldr	r4, [r0]
 1231              	.LVL136:
 469:../../../../../../Middlewares/Third_Party/LoRaWAN/Mac/LoRaMacCommands.c ****         {
 1232              		.loc 1 469 0
 1233 0026 002B     		cmp	r3, #0
 1234 0028 F9D0     		beq	.L135
 1235              	.LVL137:
 1236              	.LBB218:
 1237              		.loc 1 473 0
 1238 002a 0379     		ldrb	r3, [r0, #4]
 1239              	.LVL138:
 1240 002c 052B     		cmp	r3, #5
 1241 002e 02D0     		beq	.L136
 1242              	.LVL139:
 1243 0030 B343     		bics	r3, r6
 1244 0032 082B     		cmp	r3, #8
 1245 0034 F3D1     		bne	.L135
 1246              	.LVL140:
 1247              	.L136:
 1248              	.LBB216:
 1249              	.LBB214:
 1250              	.LBB203:
 1251              	.LBB201:
 1252              	.LBB197:
 1253              	.LBB198:
 221:../../../../../../Middlewares/Third_Party/LoRaWAN/Mac/LoRaMacCommands.c **** 
 1254              		.loc 1 221 0
 1255 0036 2A68     		ldr	r2, [r5]
 1256              	.LVL141:
 226:../../../../../../Middlewares/Third_Party/LoRaWAN/Mac/LoRaMacCommands.c ****     {
 1257              		.loc 1 226 0
 1258 0038 8242     		cmp	r2, r0
 1259 003a 2CD0     		beq	.L138
 230:../../../../../../Middlewares/Third_Party/LoRaWAN/Mac/LoRaMacCommands.c ****         {
 1260              		.loc 1 230 0
 1261 003c 002A     		cmp	r2, #0
 1262 003e 09D0     		beq	.L139
 1263 0040 1368     		ldr	r3, [r2]
 1264 0042 8342     		cmp	r3, r0
 1265 0044 04D1     		bne	.L140
 1266 0046 28E0     		b	.L168
ARM GAS  C:\Users\EBANO_~1\AppData\Local\Temp\ccTYdeCl.s 			page 33


 1267              	.LVL142:
 1268              	.L142:
 1269 0048 1A68     		ldr	r2, [r3]
 1270 004a 8242     		cmp	r2, r0
 1271 004c 26D0     		beq	.L141
 1272 004e 1300     		movs	r3, r2
 1273              	.LVL143:
 1274              	.L140:
 1275 0050 002B     		cmp	r3, #0
 1276 0052 F9D1     		bne	.L142
 1277              	.LVL144:
 1278              	.L139:
 1279              	.LBE198:
 1280              	.LBE197:
 264:../../../../../../Middlewares/Third_Party/LoRaWAN/Mac/LoRaMacCommands.c ****     {
 1281              		.loc 1 264 0
 1282 0054 6B68     		ldr	r3, [r5, #4]
 1283 0056 8342     		cmp	r3, r0
 1284 0058 01D1     		bne	.L145
 266:../../../../../../Middlewares/Third_Party/LoRaWAN/Mac/LoRaMacCommands.c ****     }
 1285              		.loc 1 266 0
 1286 005a 4B46     		mov	r3, r9
 1287 005c 6B60     		str	r3, [r5, #4]
 1288              	.L145:
 274:../../../../../../Middlewares/Third_Party/LoRaWAN/Mac/LoRaMacCommands.c **** 
 1289              		.loc 1 274 0
 1290 005e 4B46     		mov	r3, r9
 1291 0060 0360     		str	r3, [r0]
 1292              	.LVL145:
 1293              	.LBE201:
 1294              	.LBE203:
 392:../../../../../../Middlewares/Third_Party/LoRaWAN/Mac/LoRaMacCommands.c **** 
 1295              		.loc 1 392 0
 1296 0062 4346     		mov	r3, r8
 1297 0064 EB58     		ldr	r3, [r5, r3]
 1298 0066 8268     		ldr	r2, [r0, #8]
 1299 0068 013B     		subs	r3, r3, #1
 1300 006a 9B1A     		subs	r3, r3, r2
 1301 006c 4246     		mov	r2, r8
 1302              	.LBB204:
 1303              	.LBB205:
 1304              	.LBB206:
 142:../../../../../../Middlewares/Third_Party/LoRaWAN/Mac/LoRaMacCommands.c **** 
 1305              		.loc 1 142 0
 1306 006e 0021     		movs	r1, #0
 1307              	.LBE206:
 1308              	.LBE205:
 1309              	.LBE204:
 392:../../../../../../Middlewares/Third_Party/LoRaWAN/Mac/LoRaMacCommands.c **** 
 1310              		.loc 1 392 0
 1311 0070 AB50     		str	r3, [r5, r2]
 1312              	.LVL146:
 1313              	.LBB209:
 1314              	.LBB208:
 1315              	.LBB207:
 142:../../../../../../Middlewares/Third_Party/LoRaWAN/Mac/LoRaMacCommands.c **** 
 1316              		.loc 1 142 0
ARM GAS  C:\Users\EBANO_~1\AppData\Local\Temp\ccTYdeCl.s 			page 34


 1317 0072 1022     		movs	r2, #16
 1318 0074 FFF7FEFF 		bl	memset1
 1319              	.LVL147:
 1320              	.LBE207:
 1321              	.LBE208:
 1322              	.LBE209:
 1323              	.LBB210:
 1324              	.LBB211:
 1325              	.LBB212:
 304:../../../../../../Middlewares/Third_Party/LoRaWAN/Mac/LoRaMacCommands.c ****     {
 1326              		.loc 1 304 0
 1327 0078 3B68     		ldr	r3, [r7]
 1328 007a 002B     		cmp	r3, #0
 1329 007c CFD0     		beq	.L135
 306:../../../../../../Middlewares/Third_Party/LoRaWAN/Mac/LoRaMacCommands.c ****     }
 1330              		.loc 1 306 0
 1331 007e 9847     		blx	r3
 1332              	.LVL148:
 1333 0080 201E     		subs	r0, r4, #0
 1334              	.LBE212:
 1335              	.LBE211:
 1336              	.LBE210:
 1337              	.LBE214:
 1338              	.LBE216:
 1339              	.LBE218:
 466:../../../../../../Middlewares/Third_Party/LoRaWAN/Mac/LoRaMacCommands.c ****     {
 1340              		.loc 1 466 0
 1341 0082 CED1     		bne	.L146
 1342              	.LVL149:
 1343              	.L133:
 1344              	.LBB219:
 1345              	.LBB220:
 304:../../../../../../Middlewares/Third_Party/LoRaWAN/Mac/LoRaMacCommands.c ****     {
 1346              		.loc 1 304 0
 1347 0084 3B68     		ldr	r3, [r7]
 1348 0086 002B     		cmp	r3, #0
 1349 0088 00D0     		beq	.L155
 306:../../../../../../Middlewares/Third_Party/LoRaWAN/Mac/LoRaMacCommands.c ****     }
 1350              		.loc 1 306 0
 1351 008a 9847     		blx	r3
 1352              	.LVL150:
 1353              	.L155:
 1354              	.LBE220:
 1355              	.LBE219:
 474:../../../../../../Middlewares/Third_Party/LoRaWAN/Mac/LoRaMacCommands.c ****                 {
 475:../../../../../../Middlewares/Third_Party/LoRaWAN/Mac/LoRaMacCommands.c ****                     LoRaMacCommandsRemoveCmd( curElement );
 476:../../../../../../Middlewares/Third_Party/LoRaWAN/Mac/LoRaMacCommands.c ****                     break;
 477:../../../../../../Middlewares/Third_Party/LoRaWAN/Mac/LoRaMacCommands.c ****                 }
 478:../../../../../../Middlewares/Third_Party/LoRaWAN/Mac/LoRaMacCommands.c ****             }
 479:../../../../../../Middlewares/Third_Party/LoRaWAN/Mac/LoRaMacCommands.c ****         }
 480:../../../../../../Middlewares/Third_Party/LoRaWAN/Mac/LoRaMacCommands.c ****         curElement = nexElement;
 481:../../../../../../Middlewares/Third_Party/LoRaWAN/Mac/LoRaMacCommands.c ****     }
 482:../../../../../../Middlewares/Third_Party/LoRaWAN/Mac/LoRaMacCommands.c **** 
 483:../../../../../../Middlewares/Third_Party/LoRaWAN/Mac/LoRaMacCommands.c ****     NvmCtxCallback( );
 484:../../../../../../Middlewares/Third_Party/LoRaWAN/Mac/LoRaMacCommands.c **** 
 485:../../../../../../Middlewares/Third_Party/LoRaWAN/Mac/LoRaMacCommands.c ****     return LORAMAC_COMMANDS_SUCCESS;
 486:../../../../../../Middlewares/Third_Party/LoRaWAN/Mac/LoRaMacCommands.c **** }
ARM GAS  C:\Users\EBANO_~1\AppData\Local\Temp\ccTYdeCl.s 			page 35


 1356              		.loc 1 486 0
 1357 008c 0020     		movs	r0, #0
 1358              		@ sp needed
 1359 008e 0CBC     		pop	{r2, r3}
 1360 0090 9046     		mov	r8, r2
 1361 0092 9946     		mov	r9, r3
 1362 0094 F8BD     		pop	{r3, r4, r5, r6, r7, pc}
 1363              	.LVL151:
 1364              	.L138:
 1365              	.LBB221:
 1366              	.LBB217:
 1367              	.LBB215:
 1368              	.LBB213:
 1369              	.LBB202:
 261:../../../../../../Middlewares/Third_Party/LoRaWAN/Mac/LoRaMacCommands.c ****     }
 1370              		.loc 1 261 0
 1371 0096 2C60     		str	r4, [r5]
 1372 0098 DCE7     		b	.L139
 1373              	.LVL152:
 1374              	.L168:
 1375              	.LBB200:
 1376              	.LBB199:
 230:../../../../../../Middlewares/Third_Party/LoRaWAN/Mac/LoRaMacCommands.c ****         {
 1377              		.loc 1 230 0
 1378 009a 1300     		movs	r3, r2
 1379              	.LVL153:
 1380              	.L141:
 1381              	.LBE199:
 1382              	.LBE200:
 264:../../../../../../Middlewares/Third_Party/LoRaWAN/Mac/LoRaMacCommands.c ****     {
 1383              		.loc 1 264 0
 1384 009c 6A68     		ldr	r2, [r5, #4]
 1385 009e 8242     		cmp	r2, r0
 1386 00a0 01D0     		beq	.L169
 271:../../../../../../Middlewares/Third_Party/LoRaWAN/Mac/LoRaMacCommands.c ****     }
 1387              		.loc 1 271 0
 1388 00a2 1C60     		str	r4, [r3]
 1389 00a4 DBE7     		b	.L145
 1390              	.L169:
 266:../../../../../../Middlewares/Third_Party/LoRaWAN/Mac/LoRaMacCommands.c ****     }
 1391              		.loc 1 266 0
 1392 00a6 6B60     		str	r3, [r5, #4]
 271:../../../../../../Middlewares/Third_Party/LoRaWAN/Mac/LoRaMacCommands.c ****     }
 1393              		.loc 1 271 0
 1394 00a8 1C60     		str	r4, [r3]
 1395 00aa D8E7     		b	.L145
 1396              	.L171:
 1397              		.align	2
 1398              	.L170:
 1399 00ac 04000000 		.word	NvmCtx
 1400 00b0 00000000 		.word	.LANCHOR0
 1401              	.LBE202:
 1402              	.LBE213:
 1403              	.LBE215:
 1404              	.LBE217:
 1405              	.LBE221:
 1406              		.cfi_endproc
ARM GAS  C:\Users\EBANO_~1\AppData\Local\Temp\ccTYdeCl.s 			page 36


 1407              	.LFE55:
 1408              		.size	LoRaMacCommandsRemoveStickyAnsCmds, .-LoRaMacCommandsRemoveStickyAnsCmds
 1409              		.section	.text.LoRaMacCommandsGetSizeSerializedCmds,"ax",%progbits
 1410              		.align	1
 1411              		.p2align 2,,3
 1412              		.global	LoRaMacCommandsGetSizeSerializedCmds
 1413              		.syntax unified
 1414              		.code	16
 1415              		.thumb_func
 1416              		.fpu softvfp
 1417              		.type	LoRaMacCommandsGetSizeSerializedCmds, %function
 1418              	LoRaMacCommandsGetSizeSerializedCmds:
 1419              	.LFB56:
 487:../../../../../../Middlewares/Third_Party/LoRaWAN/Mac/LoRaMacCommands.c **** 
 488:../../../../../../Middlewares/Third_Party/LoRaWAN/Mac/LoRaMacCommands.c **** LoRaMacCommandStatus_t LoRaMacCommandsGetSizeSerializedCmds( size_t* size )
 489:../../../../../../Middlewares/Third_Party/LoRaWAN/Mac/LoRaMacCommands.c **** {
 1420              		.loc 1 489 0
 1421              		.cfi_startproc
 1422              		@ args = 0, pretend = 0, frame = 0
 1423              		@ frame_needed = 0, uses_anonymous_args = 0
 1424              		@ link register save eliminated.
 1425              	.LVL154:
 490:../../../../../../Middlewares/Third_Party/LoRaWAN/Mac/LoRaMacCommands.c ****     if( size == NULL )
 1426              		.loc 1 490 0
 1427 0000 0028     		cmp	r0, #0
 1428 0002 05D0     		beq	.L174
 491:../../../../../../Middlewares/Third_Party/LoRaWAN/Mac/LoRaMacCommands.c ****     {
 492:../../../../../../Middlewares/Third_Party/LoRaWAN/Mac/LoRaMacCommands.c ****         return LORAMAC_COMMANDS_ERROR_NPE;
 493:../../../../../../Middlewares/Third_Party/LoRaWAN/Mac/LoRaMacCommands.c ****     }
 494:../../../../../../Middlewares/Third_Party/LoRaWAN/Mac/LoRaMacCommands.c ****     *size = NvmCtx.SerializedCmdsSize;
 1429              		.loc 1 494 0
 1430 0004 F823     		movs	r3, #248
 1431 0006 034A     		ldr	r2, .L175
 1432 0008 D358     		ldr	r3, [r2, r3]
 1433 000a 0360     		str	r3, [r0]
 495:../../../../../../Middlewares/Third_Party/LoRaWAN/Mac/LoRaMacCommands.c ****     return LORAMAC_COMMANDS_SUCCESS;
 1434              		.loc 1 495 0
 1435 000c 0020     		movs	r0, #0
 1436              	.LVL155:
 1437              	.L173:
 496:../../../../../../Middlewares/Third_Party/LoRaWAN/Mac/LoRaMacCommands.c **** 
 497:../../../../../../Middlewares/Third_Party/LoRaWAN/Mac/LoRaMacCommands.c **** }
 1438              		.loc 1 497 0
 1439              		@ sp needed
 1440 000e 7047     		bx	lr
 1441              	.LVL156:
 1442              	.L174:
 492:../../../../../../Middlewares/Third_Party/LoRaWAN/Mac/LoRaMacCommands.c ****     }
 1443              		.loc 1 492 0
 1444 0010 0120     		movs	r0, #1
 1445              	.LVL157:
 1446 0012 FCE7     		b	.L173
 1447              	.L176:
 1448              		.align	2
 1449              	.L175:
 1450 0014 04000000 		.word	NvmCtx
 1451              		.cfi_endproc
ARM GAS  C:\Users\EBANO_~1\AppData\Local\Temp\ccTYdeCl.s 			page 37


 1452              	.LFE56:
 1453              		.size	LoRaMacCommandsGetSizeSerializedCmds, .-LoRaMacCommandsGetSizeSerializedCmds
 1454              		.section	.text.LoRaMacCommandsSerializeCmds,"ax",%progbits
 1455              		.align	1
 1456              		.p2align 2,,3
 1457              		.global	LoRaMacCommandsSerializeCmds
 1458              		.syntax unified
 1459              		.code	16
 1460              		.thumb_func
 1461              		.fpu softvfp
 1462              		.type	LoRaMacCommandsSerializeCmds, %function
 1463              	LoRaMacCommandsSerializeCmds:
 1464              	.LFB57:
 498:../../../../../../Middlewares/Third_Party/LoRaWAN/Mac/LoRaMacCommands.c **** 
 499:../../../../../../Middlewares/Third_Party/LoRaWAN/Mac/LoRaMacCommands.c **** LoRaMacCommandStatus_t LoRaMacCommandsSerializeCmds( size_t availableSize, size_t* effectiveSize,  
 500:../../../../../../Middlewares/Third_Party/LoRaWAN/Mac/LoRaMacCommands.c **** {
 1465              		.loc 1 500 0
 1466              		.cfi_startproc
 1467              		@ args = 0, pretend = 0, frame = 0
 1468              		@ frame_needed = 0, uses_anonymous_args = 0
 1469              	.LVL158:
 1470 0000 F8B5     		push	{r3, r4, r5, r6, r7, lr}
 1471              	.LCFI10:
 1472              		.cfi_def_cfa_offset 24
 1473              		.cfi_offset 3, -24
 1474              		.cfi_offset 4, -20
 1475              		.cfi_offset 5, -16
 1476              		.cfi_offset 6, -12
 1477              		.cfi_offset 7, -8
 1478              		.cfi_offset 14, -4
 1479              		.loc 1 500 0
 1480 0002 0700     		movs	r7, r0
 1481 0004 161E     		subs	r6, r2, #0
 501:../../../../../../Middlewares/Third_Party/LoRaWAN/Mac/LoRaMacCommands.c ****     if( ( buffer == NULL ) || ( effectiveSize == NULL ) )
 1482              		.loc 1 501 0
 1483 0006 24D0     		beq	.L184
 1484              		.loc 1 501 0 is_stmt 0 discriminator 1
 1485 0008 0029     		cmp	r1, #0
 1486 000a 22D0     		beq	.L184
 502:../../../../../../Middlewares/Third_Party/LoRaWAN/Mac/LoRaMacCommands.c ****     {
 503:../../../../../../Middlewares/Third_Party/LoRaWAN/Mac/LoRaMacCommands.c ****         return LORAMAC_COMMANDS_ERROR_NPE;
 504:../../../../../../Middlewares/Third_Party/LoRaWAN/Mac/LoRaMacCommands.c ****     }
 505:../../../../../../Middlewares/Third_Party/LoRaWAN/Mac/LoRaMacCommands.c ****     MacCommand_t* curElement;
 506:../../../../../../Middlewares/Third_Party/LoRaWAN/Mac/LoRaMacCommands.c ****     curElement = NvmCtx.MacCommandList.First;
 1487              		.loc 1 506 0 is_stmt 1
 1488 000c 124B     		ldr	r3, .L187
 1489 000e 1D68     		ldr	r5, [r3]
 1490              	.LVL159:
 507:../../../../../../Middlewares/Third_Party/LoRaWAN/Mac/LoRaMacCommands.c ****     uint8_t itr = 0;
 508:../../../../../../Middlewares/Third_Party/LoRaWAN/Mac/LoRaMacCommands.c **** 
 509:../../../../../../Middlewares/Third_Party/LoRaWAN/Mac/LoRaMacCommands.c ****     // Loop through all elements
 510:../../../../../../Middlewares/Third_Party/LoRaWAN/Mac/LoRaMacCommands.c ****     while( curElement )
 1491              		.loc 1 510 0
 1492 0010 002D     		cmp	r5, #0
 1493 0012 1CD0     		beq	.L181
 511:../../../../../../Middlewares/Third_Party/LoRaWAN/Mac/LoRaMacCommands.c ****     {
 512:../../../../../../Middlewares/Third_Party/LoRaWAN/Mac/LoRaMacCommands.c ****         // If the next MAC command still fits into the buffer, add it.
ARM GAS  C:\Users\EBANO_~1\AppData\Local\Temp\ccTYdeCl.s 			page 38


 513:../../../../../../Middlewares/Third_Party/LoRaWAN/Mac/LoRaMacCommands.c ****         if( ( availableSize - itr ) >= ( CID_FIELD_SIZE + curElement->PayloadSize ) )
 1494              		.loc 1 513 0
 1495 0014 AB68     		ldr	r3, [r5, #8]
 1496 0016 0020     		movs	r0, #0
 1497              	.LVL160:
 1498 0018 5A1C     		adds	r2, r3, #1
 1499              	.LVL161:
 507:../../../../../../Middlewares/Third_Party/LoRaWAN/Mac/LoRaMacCommands.c ****     uint8_t itr = 0;
 1500              		.loc 1 507 0
 1501 001a 0023     		movs	r3, #0
 1502              		.loc 1 513 0
 1503 001c 9742     		cmp	r7, r2
 1504 001e 06D2     		bcs	.L180
 1505 0020 15E0     		b	.L181
 1506              	.LVL162:
 1507              	.L182:
 1508 0022 AA68     		ldr	r2, [r5, #8]
 1509 0024 1800     		movs	r0, r3
 1510 0026 0132     		adds	r2, r2, #1
 1511 0028 F91A     		subs	r1, r7, r3
 1512 002a 9142     		cmp	r1, r2
 1513 002c 0FD3     		bcc	.L181
 1514              	.LVL163:
 1515              	.L180:
 514:../../../../../../Middlewares/Third_Party/LoRaWAN/Mac/LoRaMacCommands.c ****         {
 515:../../../../../../Middlewares/Third_Party/LoRaWAN/Mac/LoRaMacCommands.c ****             buffer[itr++] = curElement->CID;
 1516              		.loc 1 515 0
 1517 002e 0133     		adds	r3, r3, #1
 1518              	.LVL164:
 1519 0030 DCB2     		uxtb	r4, r3
 1520              	.LVL165:
 1521 0032 2B79     		ldrb	r3, [r5, #4]
 516:../../../../../../Middlewares/Third_Party/LoRaWAN/Mac/LoRaMacCommands.c ****             memcpy1( &buffer[itr], curElement->Payload, curElement->PayloadSize );
 1522              		.loc 1 516 0
 1523 0034 691D     		adds	r1, r5, #5
 515:../../../../../../Middlewares/Third_Party/LoRaWAN/Mac/LoRaMacCommands.c ****             memcpy1( &buffer[itr], curElement->Payload, curElement->PayloadSize );
 1524              		.loc 1 515 0
 1525 0036 3354     		strb	r3, [r6, r0]
 1526              		.loc 1 516 0
 1527 0038 2A89     		ldrh	r2, [r5, #8]
 1528 003a 3019     		adds	r0, r6, r4
 1529 003c FFF7FEFF 		bl	memcpy1
 1530              	.LVL166:
 517:../../../../../../Middlewares/Third_Party/LoRaWAN/Mac/LoRaMacCommands.c ****             itr = itr + curElement->PayloadSize;
 1531              		.loc 1 517 0
 1532 0040 AB68     		ldr	r3, [r5, #8]
 518:../../../../../../Middlewares/Third_Party/LoRaWAN/Mac/LoRaMacCommands.c ****         }
 519:../../../../../../Middlewares/Third_Party/LoRaWAN/Mac/LoRaMacCommands.c ****         else
 520:../../../../../../Middlewares/Third_Party/LoRaWAN/Mac/LoRaMacCommands.c ****         {
 521:../../../../../../Middlewares/Third_Party/LoRaWAN/Mac/LoRaMacCommands.c ****             break;
 522:../../../../../../Middlewares/Third_Party/LoRaWAN/Mac/LoRaMacCommands.c ****         }
 523:../../../../../../Middlewares/Third_Party/LoRaWAN/Mac/LoRaMacCommands.c ****         curElement = curElement->Next;
 1533              		.loc 1 523 0
 1534 0042 2D68     		ldr	r5, [r5]
 1535              	.LVL167:
 517:../../../../../../Middlewares/Third_Party/LoRaWAN/Mac/LoRaMacCommands.c ****             itr = itr + curElement->PayloadSize;
 1536              		.loc 1 517 0
ARM GAS  C:\Users\EBANO_~1\AppData\Local\Temp\ccTYdeCl.s 			page 39


 1537 0044 9C46     		mov	ip, r3
 1538 0046 6444     		add	r4, r4, ip
 1539              	.LVL168:
 1540 0048 E3B2     		uxtb	r3, r4
 1541              	.LVL169:
 510:../../../../../../Middlewares/Third_Party/LoRaWAN/Mac/LoRaMacCommands.c ****     {
 1542              		.loc 1 510 0
 1543 004a 002D     		cmp	r5, #0
 1544 004c E9D1     		bne	.L182
 1545              	.LVL170:
 1546              	.L181:
 524:../../../../../../Middlewares/Third_Party/LoRaWAN/Mac/LoRaMacCommands.c ****     }
 525:../../../../../../Middlewares/Third_Party/LoRaWAN/Mac/LoRaMacCommands.c **** 
 526:../../../../../../Middlewares/Third_Party/LoRaWAN/Mac/LoRaMacCommands.c ****     return LORAMAC_COMMANDS_SUCCESS;
 1547              		.loc 1 526 0
 1548 004e 0020     		movs	r0, #0
 1549              	.LVL171:
 1550              	.L178:
 527:../../../../../../Middlewares/Third_Party/LoRaWAN/Mac/LoRaMacCommands.c **** }
 1551              		.loc 1 527 0
 1552              		@ sp needed
 1553              	.LVL172:
 1554              	.LVL173:
 1555 0050 F8BD     		pop	{r3, r4, r5, r6, r7, pc}
 1556              	.LVL174:
 1557              	.L184:
 503:../../../../../../Middlewares/Third_Party/LoRaWAN/Mac/LoRaMacCommands.c ****     }
 1558              		.loc 1 503 0
 1559 0052 0120     		movs	r0, #1
 1560              	.LVL175:
 1561 0054 FCE7     		b	.L178
 1562              	.L188:
 1563 0056 C046     		.align	2
 1564              	.L187:
 1565 0058 04000000 		.word	NvmCtx
 1566              		.cfi_endproc
 1567              	.LFE57:
 1568              		.size	LoRaMacCommandsSerializeCmds, .-LoRaMacCommandsSerializeCmds
 1569              		.section	.text.LoRaMacCommandsStickyCmdsPending,"ax",%progbits
 1570              		.align	1
 1571              		.p2align 2,,3
 1572              		.global	LoRaMacCommandsStickyCmdsPending
 1573              		.syntax unified
 1574              		.code	16
 1575              		.thumb_func
 1576              		.fpu softvfp
 1577              		.type	LoRaMacCommandsStickyCmdsPending, %function
 1578              	LoRaMacCommandsStickyCmdsPending:
 1579              	.LFB58:
 528:../../../../../../Middlewares/Third_Party/LoRaWAN/Mac/LoRaMacCommands.c **** 
 529:../../../../../../Middlewares/Third_Party/LoRaWAN/Mac/LoRaMacCommands.c **** LoRaMacCommandStatus_t LoRaMacCommandsStickyCmdsPending( bool* cmdsPending )
 530:../../../../../../Middlewares/Third_Party/LoRaWAN/Mac/LoRaMacCommands.c **** {
 1580              		.loc 1 530 0
 1581              		.cfi_startproc
 1582              		@ args = 0, pretend = 0, frame = 0
 1583              		@ frame_needed = 0, uses_anonymous_args = 0
 1584              		@ link register save eliminated.
ARM GAS  C:\Users\EBANO_~1\AppData\Local\Temp\ccTYdeCl.s 			page 40


 1585              	.LVL176:
 531:../../../../../../Middlewares/Third_Party/LoRaWAN/Mac/LoRaMacCommands.c ****     if( cmdsPending == NULL )
 1586              		.loc 1 531 0
 1587 0000 0028     		cmp	r0, #0
 1588 0002 12D0     		beq	.L194
 532:../../../../../../Middlewares/Third_Party/LoRaWAN/Mac/LoRaMacCommands.c ****     {
 533:../../../../../../Middlewares/Third_Party/LoRaWAN/Mac/LoRaMacCommands.c ****         return LORAMAC_COMMANDS_ERROR_NPE;
 534:../../../../../../Middlewares/Third_Party/LoRaWAN/Mac/LoRaMacCommands.c ****     }
 535:../../../../../../Middlewares/Third_Party/LoRaWAN/Mac/LoRaMacCommands.c ****     MacCommand_t* curElement;
 536:../../../../../../Middlewares/Third_Party/LoRaWAN/Mac/LoRaMacCommands.c ****     curElement = NvmCtx.MacCommandList.First;
 537:../../../../../../Middlewares/Third_Party/LoRaWAN/Mac/LoRaMacCommands.c **** 
 538:../../../../../../Middlewares/Third_Party/LoRaWAN/Mac/LoRaMacCommands.c ****     *cmdsPending = false;
 1589              		.loc 1 538 0
 1590 0004 0022     		movs	r2, #0
 536:../../../../../../Middlewares/Third_Party/LoRaWAN/Mac/LoRaMacCommands.c **** 
 1591              		.loc 1 536 0
 1592 0006 0A4B     		ldr	r3, .L199
 1593 0008 1B68     		ldr	r3, [r3]
 1594              	.LVL177:
 1595              		.loc 1 538 0
 1596 000a 0270     		strb	r2, [r0]
 539:../../../../../../Middlewares/Third_Party/LoRaWAN/Mac/LoRaMacCommands.c **** 
 540:../../../../../../Middlewares/Third_Party/LoRaWAN/Mac/LoRaMacCommands.c ****     // Loop through all elements
 541:../../../../../../Middlewares/Third_Party/LoRaWAN/Mac/LoRaMacCommands.c ****     while( curElement )
 1597              		.loc 1 541 0
 1598 000c 002B     		cmp	r3, #0
 1599 000e 03D1     		bne	.L193
 1600 0010 09E0     		b	.L195
 1601              	.L192:
 542:../../../../../../Middlewares/Third_Party/LoRaWAN/Mac/LoRaMacCommands.c ****     {
 543:../../../../../../Middlewares/Third_Party/LoRaWAN/Mac/LoRaMacCommands.c ****         if( curElement->IsSticky == true )
 544:../../../../../../Middlewares/Third_Party/LoRaWAN/Mac/LoRaMacCommands.c ****         {
 545:../../../../../../Middlewares/Third_Party/LoRaWAN/Mac/LoRaMacCommands.c ****             // Found one sticky MAC command
 546:../../../../../../Middlewares/Third_Party/LoRaWAN/Mac/LoRaMacCommands.c ****             *cmdsPending = true;
 547:../../../../../../Middlewares/Third_Party/LoRaWAN/Mac/LoRaMacCommands.c ****             return LORAMAC_COMMANDS_SUCCESS;
 548:../../../../../../Middlewares/Third_Party/LoRaWAN/Mac/LoRaMacCommands.c ****         }
 549:../../../../../../Middlewares/Third_Party/LoRaWAN/Mac/LoRaMacCommands.c ****         curElement = curElement->Next;
 1602              		.loc 1 549 0
 1603 0012 1B68     		ldr	r3, [r3]
 1604              	.LVL178:
 541:../../../../../../Middlewares/Third_Party/LoRaWAN/Mac/LoRaMacCommands.c ****     {
 1605              		.loc 1 541 0
 1606 0014 002B     		cmp	r3, #0
 1607 0016 06D0     		beq	.L195
 1608              	.L193:
 543:../../../../../../Middlewares/Third_Party/LoRaWAN/Mac/LoRaMacCommands.c ****         {
 1609              		.loc 1 543 0
 1610 0018 1A7B     		ldrb	r2, [r3, #12]
 1611 001a 002A     		cmp	r2, #0
 1612 001c F9D0     		beq	.L192
 546:../../../../../../Middlewares/Third_Party/LoRaWAN/Mac/LoRaMacCommands.c ****             return LORAMAC_COMMANDS_SUCCESS;
 1613              		.loc 1 546 0
 1614 001e 0123     		movs	r3, #1
 1615              	.LVL179:
 1616 0020 0370     		strb	r3, [r0]
 547:../../../../../../Middlewares/Third_Party/LoRaWAN/Mac/LoRaMacCommands.c ****         }
 1617              		.loc 1 547 0
ARM GAS  C:\Users\EBANO_~1\AppData\Local\Temp\ccTYdeCl.s 			page 41


 1618 0022 0020     		movs	r0, #0
 1619              	.LVL180:
 1620              	.L190:
 550:../../../../../../Middlewares/Third_Party/LoRaWAN/Mac/LoRaMacCommands.c ****     }
 551:../../../../../../Middlewares/Third_Party/LoRaWAN/Mac/LoRaMacCommands.c **** 
 552:../../../../../../Middlewares/Third_Party/LoRaWAN/Mac/LoRaMacCommands.c ****     return LORAMAC_COMMANDS_SUCCESS;
 553:../../../../../../Middlewares/Third_Party/LoRaWAN/Mac/LoRaMacCommands.c **** }
 1621              		.loc 1 553 0
 1622              		@ sp needed
 1623 0024 7047     		bx	lr
 1624              	.LVL181:
 1625              	.L195:
 552:../../../../../../Middlewares/Third_Party/LoRaWAN/Mac/LoRaMacCommands.c **** }
 1626              		.loc 1 552 0
 1627 0026 0020     		movs	r0, #0
 1628              	.LVL182:
 1629 0028 FCE7     		b	.L190
 1630              	.LVL183:
 1631              	.L194:
 533:../../../../../../Middlewares/Third_Party/LoRaWAN/Mac/LoRaMacCommands.c ****     }
 1632              		.loc 1 533 0
 1633 002a 0120     		movs	r0, #1
 1634              	.LVL184:
 1635 002c FAE7     		b	.L190
 1636              	.L200:
 1637 002e C046     		.align	2
 1638              	.L199:
 1639 0030 04000000 		.word	NvmCtx
 1640              		.cfi_endproc
 1641              	.LFE58:
 1642              		.size	LoRaMacCommandsStickyCmdsPending, .-LoRaMacCommandsStickyCmdsPending
 1643              		.global	CIDsStickyAnsCmds
 1644              		.section	.rodata
 1645              		.align	2
 1646              		.type	CIDsStickyAnsCmds, %object
 1647              		.size	CIDsStickyAnsCmds, 3
 1648              	CIDsStickyAnsCmds:
 1649 0000 0A       		.byte	10
 1650 0001 05       		.byte	5
 1651 0002 08       		.byte	8
 1652              		.bss
 1653              		.align	2
 1654              		.set	.LANCHOR0,. + 0
 1655              		.type	CommandsNvmCtxChanged, %object
 1656              		.size	CommandsNvmCtxChanged, 4
 1657              	CommandsNvmCtxChanged:
 1658 0000 00000000 		.space	4
 1659              		.type	NvmCtx, %object
 1660              		.size	NvmCtx, 252
 1661              	NvmCtx:
 1662 0004 00000000 		.space	252
 1662      00000000 
 1662      00000000 
 1662      00000000 
 1662      00000000 
 1663              		.text
 1664              	.Letext0:
ARM GAS  C:\Users\EBANO_~1\AppData\Local\Temp\ccTYdeCl.s 			page 42


 1665              		.file 2 "c:\\program files (x86)\\gnu tools arm embedded\\7 2018-q2-update\\arm-none-eabi\\include
 1666              		.file 3 "c:\\program files (x86)\\gnu tools arm embedded\\7 2018-q2-update\\arm-none-eabi\\include
 1667              		.file 4 "../../../../../../Drivers/CMSIS/Device/ST/STM32L0xx/Include/system_stm32l0xx.h"
 1668              		.file 5 "c:\\program files (x86)\\gnu tools arm embedded\\7 2018-q2-update\\lib\\gcc\\arm-none-eab
 1669              		.file 6 "c:\\program files (x86)\\gnu tools arm embedded\\7 2018-q2-update\\arm-none-eabi\\include
 1670              		.file 7 "c:\\program files (x86)\\gnu tools arm embedded\\7 2018-q2-update\\arm-none-eabi\\include
 1671              		.file 8 "c:\\program files (x86)\\gnu tools arm embedded\\7 2018-q2-update\\arm-none-eabi\\include
 1672              		.file 9 "c:\\program files (x86)\\gnu tools arm embedded\\7 2018-q2-update\\arm-none-eabi\\include
 1673              		.file 10 "../../../../../../Middlewares/Third_Party/LoRaWAN/Mac/LoRaMacTypes.h"
 1674              		.file 11 "../../../../../../Middlewares/Third_Party/LoRaWAN/Mac/LoRaMacCommands.h"
 1675              		.file 12 "c:\\program files (x86)\\gnu tools arm embedded\\7 2018-q2-update\\arm-none-eabi\\includ
 1676              		.file 13 "../../../../../../Middlewares/Third_Party/LoRaWAN/Phy/radio.h"
 1677              		.file 14 "../../../../../../Middlewares/Third_Party/LoRaWAN/Mac/LoRaMac.h"
 1678              		.file 15 "../../../../../../Middlewares/Third_Party/LoRaWAN/Utilities/utilities.h"