ARM GAS  C:\Users\EBANO_~1\AppData\Local\Temp\ccis3phW.s 			page 1


   1              		.cpu cortex-m0plus
   2              		.eabi_attribute 20, 1
   3              		.eabi_attribute 21, 1
   4              		.eabi_attribute 23, 3
   5              		.eabi_attribute 24, 1
   6              		.eabi_attribute 25, 1
   7              		.eabi_attribute 26, 1
   8              		.eabi_attribute 30, 2
   9              		.eabi_attribute 34, 0
  10              		.eabi_attribute 18, 4
  11              		.file	"LoRaMacClassB.c"
  12              		.text
  13              	.Ltext0:
  14              		.cfi_sections	.debug_frame
  15              		.section	.text.LoRaMacClassBInit,"ax",%progbits
  16              		.align	1
  17              		.p2align 2,,3
  18              		.global	LoRaMacClassBInit
  19              		.syntax unified
  20              		.code	16
  21              		.thumb_func
  22              		.fpu softvfp
  23              		.type	LoRaMacClassBInit, %function
  24              	LoRaMacClassBInit:
  25              	.LFB39:
  26              		.file 1 "../../../../../../Middlewares/Third_Party/LoRaWAN/Mac/LoRaMacClassB.c"
   1:../../../../../../Middlewares/Third_Party/LoRaWAN/Mac/LoRaMacClassB.c **** /*
   2:../../../../../../Middlewares/Third_Party/LoRaWAN/Mac/LoRaMacClassB.c ****  / _____)             _              | |
   3:../../../../../../Middlewares/Third_Party/LoRaWAN/Mac/LoRaMacClassB.c **** ( (____  _____ ____ _| |_ _____  ____| |__
   4:../../../../../../Middlewares/Third_Party/LoRaWAN/Mac/LoRaMacClassB.c ****  \____ \| ___ |    (_   _) ___ |/ ___)  _ \
   5:../../../../../../Middlewares/Third_Party/LoRaWAN/Mac/LoRaMacClassB.c ****  _____) ) ____| | | || |_| ____( (___| | | |
   6:../../../../../../Middlewares/Third_Party/LoRaWAN/Mac/LoRaMacClassB.c **** (______/|_____)_|_|_| \__)_____)\____)_| |_|
   7:../../../../../../Middlewares/Third_Party/LoRaWAN/Mac/LoRaMacClassB.c ****     (C)2013 Semtech
   8:../../../../../../Middlewares/Third_Party/LoRaWAN/Mac/LoRaMacClassB.c ****  ___ _____ _   ___ _  _____ ___  ___  ___ ___
   9:../../../../../../Middlewares/Third_Party/LoRaWAN/Mac/LoRaMacClassB.c **** / __|_   _/_\ / __| |/ / __/ _ \| _ \/ __| __|
  10:../../../../../../Middlewares/Third_Party/LoRaWAN/Mac/LoRaMacClassB.c **** \__ \ | |/ _ \ (__| ' <| _| (_) |   / (__| _|
  11:../../../../../../Middlewares/Third_Party/LoRaWAN/Mac/LoRaMacClassB.c **** |___/ |_/_/ \_\___|_|\_\_| \___/|_|_\\___|___|
  12:../../../../../../Middlewares/Third_Party/LoRaWAN/Mac/LoRaMacClassB.c **** embedded.connectivity.solutions===============
  13:../../../../../../Middlewares/Third_Party/LoRaWAN/Mac/LoRaMacClassB.c **** 
  14:../../../../../../Middlewares/Third_Party/LoRaWAN/Mac/LoRaMacClassB.c **** Description: LoRa MAC Class B layer implementation
  15:../../../../../../Middlewares/Third_Party/LoRaWAN/Mac/LoRaMacClassB.c **** 
  16:../../../../../../Middlewares/Third_Party/LoRaWAN/Mac/LoRaMacClassB.c **** License: Revised BSD License, see LICENSE.TXT file include in the project
  17:../../../../../../Middlewares/Third_Party/LoRaWAN/Mac/LoRaMacClassB.c **** 
  18:../../../../../../Middlewares/Third_Party/LoRaWAN/Mac/LoRaMacClassB.c **** Maintainer: Miguel Luis ( Semtech ), Gregory Cristian ( Semtech ) and Daniel Jaeckle ( STACKFORCE )
  19:../../../../../../Middlewares/Third_Party/LoRaWAN/Mac/LoRaMacClassB.c **** */
  20:../../../../../../Middlewares/Third_Party/LoRaWAN/Mac/LoRaMacClassB.c **** #include <math.h>
  21:../../../../../../Middlewares/Third_Party/LoRaWAN/Mac/LoRaMacClassB.c **** #include "utilities.h"
  22:../../../../../../Middlewares/Third_Party/LoRaWAN/Mac/LoRaMacClassB.c **** #include "secure-element.h"
  23:../../../../../../Middlewares/Third_Party/LoRaWAN/Mac/LoRaMacClassB.c **** #include "LoRaMac.h"
  24:../../../../../../Middlewares/Third_Party/LoRaWAN/Mac/LoRaMacClassB.c **** #include "LoRaMacClassB.h"
  25:../../../../../../Middlewares/Third_Party/LoRaWAN/Mac/LoRaMacClassB.c **** #include "LoRaMacClassBConfig.h"
  26:../../../../../../Middlewares/Third_Party/LoRaWAN/Mac/LoRaMacClassB.c **** #include "LoRaMacCrypto.h"
  27:../../../../../../Middlewares/Third_Party/LoRaWAN/Mac/LoRaMacClassB.c **** #include "LoRaMacConfirmQueue.h"
  28:../../../../../../Middlewares/Third_Party/LoRaWAN/Mac/LoRaMacClassB.c **** 
  29:../../../../../../Middlewares/Third_Party/LoRaWAN/Mac/LoRaMacClassB.c **** #ifdef LORAMAC_CLASSB_ENABLED
  30:../../../../../../Middlewares/Third_Party/LoRaWAN/Mac/LoRaMacClassB.c **** 
  31:../../../../../../Middlewares/Third_Party/LoRaWAN/Mac/LoRaMacClassB.c **** /*
ARM GAS  C:\Users\EBANO_~1\AppData\Local\Temp\ccis3phW.s 			page 2


  32:../../../../../../Middlewares/Third_Party/LoRaWAN/Mac/LoRaMacClassB.c ****  * LoRaMac Class B Context structure
  33:../../../../../../Middlewares/Third_Party/LoRaWAN/Mac/LoRaMacClassB.c ****  */
  34:../../../../../../Middlewares/Third_Party/LoRaWAN/Mac/LoRaMacClassB.c **** typedef struct sLoRaMacClassBNvmCtx
  35:../../../../../../Middlewares/Third_Party/LoRaWAN/Mac/LoRaMacClassB.c **** {
  36:../../../../../../Middlewares/Third_Party/LoRaWAN/Mac/LoRaMacClassB.c ****     /*!
  37:../../../../../../Middlewares/Third_Party/LoRaWAN/Mac/LoRaMacClassB.c ****     * State of the beaconing mechanism
  38:../../../../../../Middlewares/Third_Party/LoRaWAN/Mac/LoRaMacClassB.c ****     */
  39:../../../../../../Middlewares/Third_Party/LoRaWAN/Mac/LoRaMacClassB.c ****     BeaconState_t BeaconState;
  40:../../../../../../Middlewares/Third_Party/LoRaWAN/Mac/LoRaMacClassB.c ****     /*!
  41:../../../../../../Middlewares/Third_Party/LoRaWAN/Mac/LoRaMacClassB.c ****     * State of the ping slot mechanism
  42:../../../../../../Middlewares/Third_Party/LoRaWAN/Mac/LoRaMacClassB.c ****     */
  43:../../../../../../Middlewares/Third_Party/LoRaWAN/Mac/LoRaMacClassB.c ****     PingSlotState_t PingSlotState;
  44:../../../../../../Middlewares/Third_Party/LoRaWAN/Mac/LoRaMacClassB.c ****     /*!
  45:../../../../../../Middlewares/Third_Party/LoRaWAN/Mac/LoRaMacClassB.c ****     * State of the multicast slot mechanism
  46:../../../../../../Middlewares/Third_Party/LoRaWAN/Mac/LoRaMacClassB.c ****     */
  47:../../../../../../Middlewares/Third_Party/LoRaWAN/Mac/LoRaMacClassB.c ****     PingSlotState_t MulticastSlotState;
  48:../../../../../../Middlewares/Third_Party/LoRaWAN/Mac/LoRaMacClassB.c ****     /*!
  49:../../../../../../Middlewares/Third_Party/LoRaWAN/Mac/LoRaMacClassB.c ****     * Class B ping slot context
  50:../../../../../../Middlewares/Third_Party/LoRaWAN/Mac/LoRaMacClassB.c ****     */
  51:../../../../../../Middlewares/Third_Party/LoRaWAN/Mac/LoRaMacClassB.c ****     PingSlotContext_t PingSlotCtx;
  52:../../../../../../Middlewares/Third_Party/LoRaWAN/Mac/LoRaMacClassB.c ****     /*!
  53:../../../../../../Middlewares/Third_Party/LoRaWAN/Mac/LoRaMacClassB.c ****     * Class B beacon context
  54:../../../../../../Middlewares/Third_Party/LoRaWAN/Mac/LoRaMacClassB.c ****     */
  55:../../../../../../Middlewares/Third_Party/LoRaWAN/Mac/LoRaMacClassB.c ****     BeaconContext_t BeaconCtx;
  56:../../../../../../Middlewares/Third_Party/LoRaWAN/Mac/LoRaMacClassB.c **** } LoRaMacClassBNvmCtx_t;
  57:../../../../../../Middlewares/Third_Party/LoRaWAN/Mac/LoRaMacClassB.c **** 
  58:../../../../../../Middlewares/Third_Party/LoRaWAN/Mac/LoRaMacClassB.c **** /*
  59:../../../../../../Middlewares/Third_Party/LoRaWAN/Mac/LoRaMacClassB.c ****  * LoRaMac Class B Context structure
  60:../../../../../../Middlewares/Third_Party/LoRaWAN/Mac/LoRaMacClassB.c ****  */
  61:../../../../../../Middlewares/Third_Party/LoRaWAN/Mac/LoRaMacClassB.c **** typedef struct sLoRaMacClassBCtx
  62:../../../../../../Middlewares/Third_Party/LoRaWAN/Mac/LoRaMacClassB.c **** {
  63:../../../../../../Middlewares/Third_Party/LoRaWAN/Mac/LoRaMacClassB.c ****     /*!
  64:../../../../../../Middlewares/Third_Party/LoRaWAN/Mac/LoRaMacClassB.c ****     * Timer for CLASS B beacon acquisition and tracking.
  65:../../../../../../Middlewares/Third_Party/LoRaWAN/Mac/LoRaMacClassB.c ****     */
  66:../../../../../../Middlewares/Third_Party/LoRaWAN/Mac/LoRaMacClassB.c ****     TimerEvent_t BeaconTimer;
  67:../../../../../../Middlewares/Third_Party/LoRaWAN/Mac/LoRaMacClassB.c ****     /*!
  68:../../../../../../Middlewares/Third_Party/LoRaWAN/Mac/LoRaMacClassB.c ****     * Timer for CLASS B ping slot timer.
  69:../../../../../../Middlewares/Third_Party/LoRaWAN/Mac/LoRaMacClassB.c ****     */
  70:../../../../../../Middlewares/Third_Party/LoRaWAN/Mac/LoRaMacClassB.c ****     TimerEvent_t PingSlotTimer;
  71:../../../../../../Middlewares/Third_Party/LoRaWAN/Mac/LoRaMacClassB.c ****     /*!
  72:../../../../../../Middlewares/Third_Party/LoRaWAN/Mac/LoRaMacClassB.c ****     * Timer for CLASS B multicast ping slot timer.
  73:../../../../../../Middlewares/Third_Party/LoRaWAN/Mac/LoRaMacClassB.c ****     */
  74:../../../../../../Middlewares/Third_Party/LoRaWAN/Mac/LoRaMacClassB.c ****     TimerEvent_t MulticastSlotTimer;
  75:../../../../../../Middlewares/Third_Party/LoRaWAN/Mac/LoRaMacClassB.c ****     /*!
  76:../../../../../../Middlewares/Third_Party/LoRaWAN/Mac/LoRaMacClassB.c ****     * Container for the callbacks related to class b.
  77:../../../../../../Middlewares/Third_Party/LoRaWAN/Mac/LoRaMacClassB.c ****     */
  78:../../../../../../Middlewares/Third_Party/LoRaWAN/Mac/LoRaMacClassB.c ****     LoRaMacClassBCallback_t LoRaMacClassBCallbacks;
  79:../../../../../../Middlewares/Third_Party/LoRaWAN/Mac/LoRaMacClassB.c ****     /*!
  80:../../../../../../Middlewares/Third_Party/LoRaWAN/Mac/LoRaMacClassB.c ****     * Data structure which holds the parameters which needs to be set
  81:../../../../../../Middlewares/Third_Party/LoRaWAN/Mac/LoRaMacClassB.c ****     * in class b operation.
  82:../../../../../../Middlewares/Third_Party/LoRaWAN/Mac/LoRaMacClassB.c ****     */
  83:../../../../../../Middlewares/Third_Party/LoRaWAN/Mac/LoRaMacClassB.c ****     LoRaMacClassBParams_t LoRaMacClassBParams;
  84:../../../../../../Middlewares/Third_Party/LoRaWAN/Mac/LoRaMacClassB.c ****     /*
  85:../../../../../../Middlewares/Third_Party/LoRaWAN/Mac/LoRaMacClassB.c ****      * Callback function to notify the upper layer about context change
  86:../../../../../../Middlewares/Third_Party/LoRaWAN/Mac/LoRaMacClassB.c ****      */
  87:../../../../../../Middlewares/Third_Party/LoRaWAN/Mac/LoRaMacClassB.c ****     EventNvmCtxChanged EventNvmCtxChanged;
  88:../../../../../../Middlewares/Third_Party/LoRaWAN/Mac/LoRaMacClassB.c ****     /*!
ARM GAS  C:\Users\EBANO_~1\AppData\Local\Temp\ccis3phW.s 			page 3


  89:../../../../../../Middlewares/Third_Party/LoRaWAN/Mac/LoRaMacClassB.c ****     * Non-volatile module context.
  90:../../../../../../Middlewares/Third_Party/LoRaWAN/Mac/LoRaMacClassB.c ****     */
  91:../../../../../../Middlewares/Third_Party/LoRaWAN/Mac/LoRaMacClassB.c ****     LoRaMacClassBNvmCtx_t* NvmCtx;
  92:../../../../../../Middlewares/Third_Party/LoRaWAN/Mac/LoRaMacClassB.c **** } LoRaMacClassBCtx_t;
  93:../../../../../../Middlewares/Third_Party/LoRaWAN/Mac/LoRaMacClassB.c **** 
  94:../../../../../../Middlewares/Third_Party/LoRaWAN/Mac/LoRaMacClassB.c **** /*!
  95:../../../../../../Middlewares/Third_Party/LoRaWAN/Mac/LoRaMacClassB.c ****  * Defines the LoRaMac radio events status
  96:../../../../../../Middlewares/Third_Party/LoRaWAN/Mac/LoRaMacClassB.c ****  */
  97:../../../../../../Middlewares/Third_Party/LoRaWAN/Mac/LoRaMacClassB.c **** typedef union uLoRaMacClassBEvents
  98:../../../../../../Middlewares/Third_Party/LoRaWAN/Mac/LoRaMacClassB.c **** {
  99:../../../../../../Middlewares/Third_Party/LoRaWAN/Mac/LoRaMacClassB.c ****     uint32_t Value;
 100:../../../../../../Middlewares/Third_Party/LoRaWAN/Mac/LoRaMacClassB.c ****     struct sEvents
 101:../../../../../../Middlewares/Third_Party/LoRaWAN/Mac/LoRaMacClassB.c ****     {
 102:../../../../../../Middlewares/Third_Party/LoRaWAN/Mac/LoRaMacClassB.c ****         uint32_t Beacon        : 1;
 103:../../../../../../Middlewares/Third_Party/LoRaWAN/Mac/LoRaMacClassB.c ****         uint32_t PingSlot      : 1;
 104:../../../../../../Middlewares/Third_Party/LoRaWAN/Mac/LoRaMacClassB.c ****         uint32_t MulticastSlot : 1;
 105:../../../../../../Middlewares/Third_Party/LoRaWAN/Mac/LoRaMacClassB.c ****     }Events;
 106:../../../../../../Middlewares/Third_Party/LoRaWAN/Mac/LoRaMacClassB.c **** }LoRaMacClassBEvents_t;
 107:../../../../../../Middlewares/Third_Party/LoRaWAN/Mac/LoRaMacClassB.c **** 
 108:../../../../../../Middlewares/Third_Party/LoRaWAN/Mac/LoRaMacClassB.c **** LoRaMacClassBEvents_t LoRaMacClassBEvents = { .Value = 0 };
 109:../../../../../../Middlewares/Third_Party/LoRaWAN/Mac/LoRaMacClassB.c **** 
 110:../../../../../../Middlewares/Third_Party/LoRaWAN/Mac/LoRaMacClassB.c **** /*
 111:../../../../../../Middlewares/Third_Party/LoRaWAN/Mac/LoRaMacClassB.c ****  * Non-volatile module context.
 112:../../../../../../Middlewares/Third_Party/LoRaWAN/Mac/LoRaMacClassB.c ****  */
 113:../../../../../../Middlewares/Third_Party/LoRaWAN/Mac/LoRaMacClassB.c **** static LoRaMacClassBNvmCtx_t NvmCtx;
 114:../../../../../../Middlewares/Third_Party/LoRaWAN/Mac/LoRaMacClassB.c **** 
 115:../../../../../../Middlewares/Third_Party/LoRaWAN/Mac/LoRaMacClassB.c **** /*
 116:../../../../../../Middlewares/Third_Party/LoRaWAN/Mac/LoRaMacClassB.c ****  * Module context.
 117:../../../../../../Middlewares/Third_Party/LoRaWAN/Mac/LoRaMacClassB.c ****  */
 118:../../../../../../Middlewares/Third_Party/LoRaWAN/Mac/LoRaMacClassB.c **** /*static*/ LoRaMacClassBCtx_t Ctx;
 119:../../../../../../Middlewares/Third_Party/LoRaWAN/Mac/LoRaMacClassB.c **** 
 120:../../../../../../Middlewares/Third_Party/LoRaWAN/Mac/LoRaMacClassB.c **** /*!
 121:../../../../../../Middlewares/Third_Party/LoRaWAN/Mac/LoRaMacClassB.c ****  * Computes the Ping Offset
 122:../../../../../../Middlewares/Third_Party/LoRaWAN/Mac/LoRaMacClassB.c ****  *
 123:../../../../../../Middlewares/Third_Party/LoRaWAN/Mac/LoRaMacClassB.c ****  * \param [IN]  beaconTime      - Time of the recent received beacon
 124:../../../../../../Middlewares/Third_Party/LoRaWAN/Mac/LoRaMacClassB.c ****  * \param [IN]  address         - Frame address
 125:../../../../../../Middlewares/Third_Party/LoRaWAN/Mac/LoRaMacClassB.c ****  * \param [IN]  pingPeriod      - Ping period of the node
 126:../../../../../../Middlewares/Third_Party/LoRaWAN/Mac/LoRaMacClassB.c ****  * \param [OUT] pingOffset      - Pseudo random ping offset
 127:../../../../../../Middlewares/Third_Party/LoRaWAN/Mac/LoRaMacClassB.c ****  */
 128:../../../../../../Middlewares/Third_Party/LoRaWAN/Mac/LoRaMacClassB.c **** static void ComputePingOffset( uint64_t beaconTime, uint32_t address, uint16_t pingPeriod, uint16_t
 129:../../../../../../Middlewares/Third_Party/LoRaWAN/Mac/LoRaMacClassB.c **** {
 130:../../../../../../Middlewares/Third_Party/LoRaWAN/Mac/LoRaMacClassB.c ****     uint8_t zeroKey[16];
 131:../../../../../../Middlewares/Third_Party/LoRaWAN/Mac/LoRaMacClassB.c ****     uint8_t buffer[16];
 132:../../../../../../Middlewares/Third_Party/LoRaWAN/Mac/LoRaMacClassB.c ****     uint8_t cipher[16];
 133:../../../../../../Middlewares/Third_Party/LoRaWAN/Mac/LoRaMacClassB.c ****     uint32_t result = 0;
 134:../../../../../../Middlewares/Third_Party/LoRaWAN/Mac/LoRaMacClassB.c ****     /* Refer to chapter 15.2 of the LoRaWAN specification v1.1. The beacon time
 135:../../../../../../Middlewares/Third_Party/LoRaWAN/Mac/LoRaMacClassB.c ****      * GPS time in seconds modulo 2^32
 136:../../../../../../Middlewares/Third_Party/LoRaWAN/Mac/LoRaMacClassB.c ****      */
 137:../../../../../../Middlewares/Third_Party/LoRaWAN/Mac/LoRaMacClassB.c ****     uint32_t time = ( beaconTime % ( ( ( uint64_t ) 1 ) << 32 ) );
 138:../../../../../../Middlewares/Third_Party/LoRaWAN/Mac/LoRaMacClassB.c **** 
 139:../../../../../../Middlewares/Third_Party/LoRaWAN/Mac/LoRaMacClassB.c ****     memset1( zeroKey, 0, 16 );
 140:../../../../../../Middlewares/Third_Party/LoRaWAN/Mac/LoRaMacClassB.c ****     memset1( buffer, 0, 16 );
 141:../../../../../../Middlewares/Third_Party/LoRaWAN/Mac/LoRaMacClassB.c ****     memset1( cipher, 0, 16 );
 142:../../../../../../Middlewares/Third_Party/LoRaWAN/Mac/LoRaMacClassB.c **** 
 143:../../../../../../Middlewares/Third_Party/LoRaWAN/Mac/LoRaMacClassB.c ****     buffer[0] = ( time ) & 0xFF;
 144:../../../../../../Middlewares/Third_Party/LoRaWAN/Mac/LoRaMacClassB.c ****     buffer[1] = ( time >> 8 ) & 0xFF;
 145:../../../../../../Middlewares/Third_Party/LoRaWAN/Mac/LoRaMacClassB.c ****     buffer[2] = ( time >> 16 ) & 0xFF;
ARM GAS  C:\Users\EBANO_~1\AppData\Local\Temp\ccis3phW.s 			page 4


 146:../../../../../../Middlewares/Third_Party/LoRaWAN/Mac/LoRaMacClassB.c ****     buffer[3] = ( time >> 24 ) & 0xFF;
 147:../../../../../../Middlewares/Third_Party/LoRaWAN/Mac/LoRaMacClassB.c **** 
 148:../../../../../../Middlewares/Third_Party/LoRaWAN/Mac/LoRaMacClassB.c ****     buffer[4] = ( address ) & 0xFF;
 149:../../../../../../Middlewares/Third_Party/LoRaWAN/Mac/LoRaMacClassB.c ****     buffer[5] = ( address >> 8 ) & 0xFF;
 150:../../../../../../Middlewares/Third_Party/LoRaWAN/Mac/LoRaMacClassB.c ****     buffer[6] = ( address >> 16 ) & 0xFF;
 151:../../../../../../Middlewares/Third_Party/LoRaWAN/Mac/LoRaMacClassB.c ****     buffer[7] = ( address >> 24 ) & 0xFF;
 152:../../../../../../Middlewares/Third_Party/LoRaWAN/Mac/LoRaMacClassB.c **** 
 153:../../../../../../Middlewares/Third_Party/LoRaWAN/Mac/LoRaMacClassB.c ****     SecureElementSetKey( SLOT_RAND_ZERO_KEY, zeroKey );
 154:../../../../../../Middlewares/Third_Party/LoRaWAN/Mac/LoRaMacClassB.c **** 
 155:../../../../../../Middlewares/Third_Party/LoRaWAN/Mac/LoRaMacClassB.c ****     SecureElementAesEncrypt( buffer, 16, SLOT_RAND_ZERO_KEY, cipher );
 156:../../../../../../Middlewares/Third_Party/LoRaWAN/Mac/LoRaMacClassB.c **** 
 157:../../../../../../Middlewares/Third_Party/LoRaWAN/Mac/LoRaMacClassB.c ****     result = ( ( ( uint32_t ) cipher[0] ) + ( ( ( uint32_t ) cipher[1] ) * 256 ) );
 158:../../../../../../Middlewares/Third_Party/LoRaWAN/Mac/LoRaMacClassB.c **** 
 159:../../../../../../Middlewares/Third_Party/LoRaWAN/Mac/LoRaMacClassB.c ****     *pingOffset = ( uint16_t )( result % pingPeriod );
 160:../../../../../../Middlewares/Third_Party/LoRaWAN/Mac/LoRaMacClassB.c **** }
 161:../../../../../../Middlewares/Third_Party/LoRaWAN/Mac/LoRaMacClassB.c **** 
 162:../../../../../../Middlewares/Third_Party/LoRaWAN/Mac/LoRaMacClassB.c **** /*!
 163:../../../../../../Middlewares/Third_Party/LoRaWAN/Mac/LoRaMacClassB.c ****  * \brief Calculates the downlink frequency for a given channel.
 164:../../../../../../Middlewares/Third_Party/LoRaWAN/Mac/LoRaMacClassB.c ****  *
 165:../../../../../../Middlewares/Third_Party/LoRaWAN/Mac/LoRaMacClassB.c ****  * \param [IN] channel The channel according to the channel plan.
 166:../../../../../../Middlewares/Third_Party/LoRaWAN/Mac/LoRaMacClassB.c ****  *
 167:../../../../../../Middlewares/Third_Party/LoRaWAN/Mac/LoRaMacClassB.c ****  * \retval The downlink frequency
 168:../../../../../../Middlewares/Third_Party/LoRaWAN/Mac/LoRaMacClassB.c ****  */
 169:../../../../../../Middlewares/Third_Party/LoRaWAN/Mac/LoRaMacClassB.c **** static uint32_t CalcDownlinkFrequency( uint8_t channel )
 170:../../../../../../Middlewares/Third_Party/LoRaWAN/Mac/LoRaMacClassB.c **** {
 171:../../../../../../Middlewares/Third_Party/LoRaWAN/Mac/LoRaMacClassB.c ****     GetPhyParams_t getPhy;
 172:../../../../../../Middlewares/Third_Party/LoRaWAN/Mac/LoRaMacClassB.c ****     PhyParam_t phyParam;
 173:../../../../../../Middlewares/Third_Party/LoRaWAN/Mac/LoRaMacClassB.c ****     uint32_t frequency = 0;
 174:../../../../../../Middlewares/Third_Party/LoRaWAN/Mac/LoRaMacClassB.c ****     uint32_t stepwidth = 0;
 175:../../../../../../Middlewares/Third_Party/LoRaWAN/Mac/LoRaMacClassB.c **** 
 176:../../../../../../Middlewares/Third_Party/LoRaWAN/Mac/LoRaMacClassB.c ****     getPhy.Attribute = PHY_BEACON_CHANNEL_FREQ;
 177:../../../../../../Middlewares/Third_Party/LoRaWAN/Mac/LoRaMacClassB.c ****     phyParam = RegionGetPhyParam( *Ctx.LoRaMacClassBParams.LoRaMacRegion, &getPhy );
 178:../../../../../../Middlewares/Third_Party/LoRaWAN/Mac/LoRaMacClassB.c ****     frequency = phyParam.Value;
 179:../../../../../../Middlewares/Third_Party/LoRaWAN/Mac/LoRaMacClassB.c **** 
 180:../../../../../../Middlewares/Third_Party/LoRaWAN/Mac/LoRaMacClassB.c ****     getPhy.Attribute = PHY_BEACON_CHANNEL_STEPWIDTH;
 181:../../../../../../Middlewares/Third_Party/LoRaWAN/Mac/LoRaMacClassB.c ****     phyParam = RegionGetPhyParam( *Ctx.LoRaMacClassBParams.LoRaMacRegion, &getPhy );
 182:../../../../../../Middlewares/Third_Party/LoRaWAN/Mac/LoRaMacClassB.c ****     stepwidth = phyParam.Value;
 183:../../../../../../Middlewares/Third_Party/LoRaWAN/Mac/LoRaMacClassB.c **** 
 184:../../../../../../Middlewares/Third_Party/LoRaWAN/Mac/LoRaMacClassB.c ****     // Calculate the frequency
 185:../../../../../../Middlewares/Third_Party/LoRaWAN/Mac/LoRaMacClassB.c ****     return frequency + ( channel * stepwidth );
 186:../../../../../../Middlewares/Third_Party/LoRaWAN/Mac/LoRaMacClassB.c **** }
 187:../../../../../../Middlewares/Third_Party/LoRaWAN/Mac/LoRaMacClassB.c **** 
 188:../../../../../../Middlewares/Third_Party/LoRaWAN/Mac/LoRaMacClassB.c **** /*!
 189:../../../../../../Middlewares/Third_Party/LoRaWAN/Mac/LoRaMacClassB.c ****  * \brief Calculates the downlink channel for the beacon and for
 190:../../../../../../Middlewares/Third_Party/LoRaWAN/Mac/LoRaMacClassB.c ****  *        ping slot downlinks.
 191:../../../../../../Middlewares/Third_Party/LoRaWAN/Mac/LoRaMacClassB.c ****  *
 192:../../../../../../Middlewares/Third_Party/LoRaWAN/Mac/LoRaMacClassB.c ****  * \param [IN] devAddr The address of the device
 193:../../../../../../Middlewares/Third_Party/LoRaWAN/Mac/LoRaMacClassB.c ****  *
 194:../../../../../../Middlewares/Third_Party/LoRaWAN/Mac/LoRaMacClassB.c ****  * \param [IN] beaconTime The beacon time of the beacon.
 195:../../../../../../Middlewares/Third_Party/LoRaWAN/Mac/LoRaMacClassB.c ****  *
 196:../../../../../../Middlewares/Third_Party/LoRaWAN/Mac/LoRaMacClassB.c ****  * \param [IN] beaconInterval The beacon interval
 197:../../../../../../Middlewares/Third_Party/LoRaWAN/Mac/LoRaMacClassB.c ****  *
 198:../../../../../../Middlewares/Third_Party/LoRaWAN/Mac/LoRaMacClassB.c ****  * \retval The downlink channel
 199:../../../../../../Middlewares/Third_Party/LoRaWAN/Mac/LoRaMacClassB.c ****  */
 200:../../../../../../Middlewares/Third_Party/LoRaWAN/Mac/LoRaMacClassB.c **** static uint32_t CalcDownlinkChannelAndFrequency( uint32_t devAddr, TimerTime_t beaconTime, TimerTim
 201:../../../../../../Middlewares/Third_Party/LoRaWAN/Mac/LoRaMacClassB.c **** {
 202:../../../../../../Middlewares/Third_Party/LoRaWAN/Mac/LoRaMacClassB.c ****     GetPhyParams_t getPhy;
ARM GAS  C:\Users\EBANO_~1\AppData\Local\Temp\ccis3phW.s 			page 5


 203:../../../../../../Middlewares/Third_Party/LoRaWAN/Mac/LoRaMacClassB.c ****     PhyParam_t phyParam;
 204:../../../../../../Middlewares/Third_Party/LoRaWAN/Mac/LoRaMacClassB.c ****     uint32_t channel = 0;
 205:../../../../../../Middlewares/Third_Party/LoRaWAN/Mac/LoRaMacClassB.c ****     uint8_t nbChannels = 0;
 206:../../../../../../Middlewares/Third_Party/LoRaWAN/Mac/LoRaMacClassB.c ****     uint32_t frequency = 0;
 207:../../../../../../Middlewares/Third_Party/LoRaWAN/Mac/LoRaMacClassB.c **** 
 208:../../../../../../Middlewares/Third_Party/LoRaWAN/Mac/LoRaMacClassB.c ****     getPhy.Attribute = PHY_BEACON_NB_CHANNELS;
 209:../../../../../../Middlewares/Third_Party/LoRaWAN/Mac/LoRaMacClassB.c ****     phyParam = RegionGetPhyParam( *Ctx.LoRaMacClassBParams.LoRaMacRegion, &getPhy );
 210:../../../../../../Middlewares/Third_Party/LoRaWAN/Mac/LoRaMacClassB.c ****     nbChannels = (uint8_t) phyParam.Value;
 211:../../../../../../Middlewares/Third_Party/LoRaWAN/Mac/LoRaMacClassB.c **** 
 212:../../../../../../Middlewares/Third_Party/LoRaWAN/Mac/LoRaMacClassB.c ****     if( nbChannels > 1 )
 213:../../../../../../Middlewares/Third_Party/LoRaWAN/Mac/LoRaMacClassB.c ****     {
 214:../../../../../../Middlewares/Third_Party/LoRaWAN/Mac/LoRaMacClassB.c ****         // Calculate the channel for the next downlink
 215:../../../../../../Middlewares/Third_Party/LoRaWAN/Mac/LoRaMacClassB.c ****         channel = devAddr + ( beaconTime / ( beaconInterval / 1000 ) );
 216:../../../../../../Middlewares/Third_Party/LoRaWAN/Mac/LoRaMacClassB.c ****         channel = channel % nbChannels;
 217:../../../../../../Middlewares/Third_Party/LoRaWAN/Mac/LoRaMacClassB.c ****     }
 218:../../../../../../Middlewares/Third_Party/LoRaWAN/Mac/LoRaMacClassB.c **** 
 219:../../../../../../Middlewares/Third_Party/LoRaWAN/Mac/LoRaMacClassB.c ****     // Calculate the frequency for the next downlink
 220:../../../../../../Middlewares/Third_Party/LoRaWAN/Mac/LoRaMacClassB.c ****     frequency = CalcDownlinkFrequency( channel );
 221:../../../../../../Middlewares/Third_Party/LoRaWAN/Mac/LoRaMacClassB.c **** 
 222:../../../../../../Middlewares/Third_Party/LoRaWAN/Mac/LoRaMacClassB.c ****     // Calculate the frequency for the next downlink
 223:../../../../../../Middlewares/Third_Party/LoRaWAN/Mac/LoRaMacClassB.c ****     return frequency;
 224:../../../../../../Middlewares/Third_Party/LoRaWAN/Mac/LoRaMacClassB.c **** }
 225:../../../../../../Middlewares/Third_Party/LoRaWAN/Mac/LoRaMacClassB.c **** 
 226:../../../../../../Middlewares/Third_Party/LoRaWAN/Mac/LoRaMacClassB.c **** /*!
 227:../../../../../../Middlewares/Third_Party/LoRaWAN/Mac/LoRaMacClassB.c ****  * \brief Calculates the correct frequency and opens up the beacon reception window.
 228:../../../../../../Middlewares/Third_Party/LoRaWAN/Mac/LoRaMacClassB.c ****  *
 229:../../../../../../Middlewares/Third_Party/LoRaWAN/Mac/LoRaMacClassB.c ****  * \param [IN] rxTime The reception time which should be setup
 230:../../../../../../Middlewares/Third_Party/LoRaWAN/Mac/LoRaMacClassB.c ****  *
 231:../../../../../../Middlewares/Third_Party/LoRaWAN/Mac/LoRaMacClassB.c ****  * \param [IN] activateDefaultChannel Set to true, if the function shall setup the default channel
 232:../../../../../../Middlewares/Third_Party/LoRaWAN/Mac/LoRaMacClassB.c ****  */
 233:../../../../../../Middlewares/Third_Party/LoRaWAN/Mac/LoRaMacClassB.c **** static void RxBeaconSetup( TimerTime_t rxTime, bool activateDefaultChannel )
 234:../../../../../../Middlewares/Third_Party/LoRaWAN/Mac/LoRaMacClassB.c **** {
 235:../../../../../../Middlewares/Third_Party/LoRaWAN/Mac/LoRaMacClassB.c ****     RxBeaconSetup_t rxBeaconSetup;
 236:../../../../../../Middlewares/Third_Party/LoRaWAN/Mac/LoRaMacClassB.c ****     uint32_t frequency = 0;
 237:../../../../../../Middlewares/Third_Party/LoRaWAN/Mac/LoRaMacClassB.c ****     RxConfigParams_t beaconRxConfig;
 238:../../../../../../Middlewares/Third_Party/LoRaWAN/Mac/LoRaMacClassB.c ****     GetPhyParams_t getPhy;
 239:../../../../../../Middlewares/Third_Party/LoRaWAN/Mac/LoRaMacClassB.c ****     PhyParam_t phyParam;
 240:../../../../../../Middlewares/Third_Party/LoRaWAN/Mac/LoRaMacClassB.c ****     uint16_t windowTimeout = Ctx.NvmCtx->BeaconCtx.SymbolTimeout;
 241:../../../../../../Middlewares/Third_Party/LoRaWAN/Mac/LoRaMacClassB.c **** 
 242:../../../../../../Middlewares/Third_Party/LoRaWAN/Mac/LoRaMacClassB.c ****     if( activateDefaultChannel == true )
 243:../../../../../../Middlewares/Third_Party/LoRaWAN/Mac/LoRaMacClassB.c ****     {
 244:../../../../../../Middlewares/Third_Party/LoRaWAN/Mac/LoRaMacClassB.c ****         // This is the default frequency in case we don't know when the next
 245:../../../../../../Middlewares/Third_Party/LoRaWAN/Mac/LoRaMacClassB.c ****         // beacon will be transmitted. We select channel 0 as default.
 246:../../../../../../Middlewares/Third_Party/LoRaWAN/Mac/LoRaMacClassB.c ****         frequency = CalcDownlinkFrequency( 0 );
 247:../../../../../../Middlewares/Third_Party/LoRaWAN/Mac/LoRaMacClassB.c ****     }
 248:../../../../../../Middlewares/Third_Party/LoRaWAN/Mac/LoRaMacClassB.c ****     else
 249:../../../../../../Middlewares/Third_Party/LoRaWAN/Mac/LoRaMacClassB.c ****     {
 250:../../../../../../Middlewares/Third_Party/LoRaWAN/Mac/LoRaMacClassB.c ****         // This is the frequency according to the channel plan
 251:../../../../../../Middlewares/Third_Party/LoRaWAN/Mac/LoRaMacClassB.c ****         frequency = CalcDownlinkChannelAndFrequency( 0, Ctx.NvmCtx->BeaconCtx.BeaconTime + ( CLASSB
 252:../../../../../../Middlewares/Third_Party/LoRaWAN/Mac/LoRaMacClassB.c ****                                                      CLASSB_BEACON_INTERVAL );
 253:../../../../../../Middlewares/Third_Party/LoRaWAN/Mac/LoRaMacClassB.c ****     }
 254:../../../../../../Middlewares/Third_Party/LoRaWAN/Mac/LoRaMacClassB.c **** 
 255:../../../../../../Middlewares/Third_Party/LoRaWAN/Mac/LoRaMacClassB.c ****     if( Ctx.NvmCtx->BeaconCtx.Ctrl.CustomFreq == 1 )
 256:../../../../../../Middlewares/Third_Party/LoRaWAN/Mac/LoRaMacClassB.c ****     {
 257:../../../../../../Middlewares/Third_Party/LoRaWAN/Mac/LoRaMacClassB.c ****         // Set the frequency from the BeaconFreqReq
 258:../../../../../../Middlewares/Third_Party/LoRaWAN/Mac/LoRaMacClassB.c ****         frequency = Ctx.NvmCtx->BeaconCtx.Frequency;
 259:../../../../../../Middlewares/Third_Party/LoRaWAN/Mac/LoRaMacClassB.c ****     }
ARM GAS  C:\Users\EBANO_~1\AppData\Local\Temp\ccis3phW.s 			page 6


 260:../../../../../../Middlewares/Third_Party/LoRaWAN/Mac/LoRaMacClassB.c **** 
 261:../../../../../../Middlewares/Third_Party/LoRaWAN/Mac/LoRaMacClassB.c ****     if( Ctx.NvmCtx->BeaconCtx.Ctrl.BeaconChannelSet == 1 )
 262:../../../../../../Middlewares/Third_Party/LoRaWAN/Mac/LoRaMacClassB.c ****     {
 263:../../../../../../Middlewares/Third_Party/LoRaWAN/Mac/LoRaMacClassB.c ****         // Set the frequency which was provided by BeaconTimingAns MAC command
 264:../../../../../../Middlewares/Third_Party/LoRaWAN/Mac/LoRaMacClassB.c ****         Ctx.NvmCtx->BeaconCtx.Ctrl.BeaconChannelSet = 0;
 265:../../../../../../Middlewares/Third_Party/LoRaWAN/Mac/LoRaMacClassB.c ****         frequency = CalcDownlinkFrequency( Ctx.NvmCtx->BeaconCtx.BeaconTimingChannel );
 266:../../../../../../Middlewares/Third_Party/LoRaWAN/Mac/LoRaMacClassB.c ****     }
 267:../../../../../../Middlewares/Third_Party/LoRaWAN/Mac/LoRaMacClassB.c **** 
 268:../../../../../../Middlewares/Third_Party/LoRaWAN/Mac/LoRaMacClassB.c ****     if( ( Ctx.NvmCtx->BeaconCtx.Ctrl.BeaconAcquired == 1 ) || ( Ctx.NvmCtx->BeaconCtx.Ctrl.Acquisit
 269:../../../../../../Middlewares/Third_Party/LoRaWAN/Mac/LoRaMacClassB.c ****     {
 270:../../../../../../Middlewares/Third_Party/LoRaWAN/Mac/LoRaMacClassB.c ****         // Apply the symbol timeout only if we have acquired the beacon
 271:../../../../../../Middlewares/Third_Party/LoRaWAN/Mac/LoRaMacClassB.c ****         // Otherwise, take the window enlargement into account
 272:../../../../../../Middlewares/Third_Party/LoRaWAN/Mac/LoRaMacClassB.c ****         // Read beacon datarate
 273:../../../../../../Middlewares/Third_Party/LoRaWAN/Mac/LoRaMacClassB.c ****         getPhy.Attribute = PHY_BEACON_CHANNEL_DR;
 274:../../../../../../Middlewares/Third_Party/LoRaWAN/Mac/LoRaMacClassB.c ****         phyParam = RegionGetPhyParam( *Ctx.LoRaMacClassBParams.LoRaMacRegion, &getPhy );
 275:../../../../../../Middlewares/Third_Party/LoRaWAN/Mac/LoRaMacClassB.c **** 
 276:../../../../../../Middlewares/Third_Party/LoRaWAN/Mac/LoRaMacClassB.c ****         // Calculate downlink symbols
 277:../../../../../../Middlewares/Third_Party/LoRaWAN/Mac/LoRaMacClassB.c ****         RegionComputeRxWindowParameters( *Ctx.LoRaMacClassBParams.LoRaMacRegion,
 278:../../../../../../Middlewares/Third_Party/LoRaWAN/Mac/LoRaMacClassB.c ****                                         ( int8_t )phyParam.Value, // datarate
 279:../../../../../../Middlewares/Third_Party/LoRaWAN/Mac/LoRaMacClassB.c ****                                         Ctx.LoRaMacClassBParams.LoRaMacParams->MinRxSymbols,
 280:../../../../../../Middlewares/Third_Party/LoRaWAN/Mac/LoRaMacClassB.c ****                                         Ctx.LoRaMacClassBParams.LoRaMacParams->SystemMaxRxError,
 281:../../../../../../Middlewares/Third_Party/LoRaWAN/Mac/LoRaMacClassB.c ****                                         &beaconRxConfig );
 282:../../../../../../Middlewares/Third_Party/LoRaWAN/Mac/LoRaMacClassB.c ****         windowTimeout = beaconRxConfig.WindowTimeout;
 283:../../../../../../Middlewares/Third_Party/LoRaWAN/Mac/LoRaMacClassB.c ****     }
 284:../../../../../../Middlewares/Third_Party/LoRaWAN/Mac/LoRaMacClassB.c **** 
 285:../../../../../../Middlewares/Third_Party/LoRaWAN/Mac/LoRaMacClassB.c ****     rxBeaconSetup.SymbolTimeout = windowTimeout;
 286:../../../../../../Middlewares/Third_Party/LoRaWAN/Mac/LoRaMacClassB.c ****     rxBeaconSetup.RxTime = rxTime;
 287:../../../../../../Middlewares/Third_Party/LoRaWAN/Mac/LoRaMacClassB.c ****     rxBeaconSetup.Frequency = frequency;
 288:../../../../../../Middlewares/Third_Party/LoRaWAN/Mac/LoRaMacClassB.c **** 
 289:../../../../../../Middlewares/Third_Party/LoRaWAN/Mac/LoRaMacClassB.c ****     RegionRxBeaconSetup( *Ctx.LoRaMacClassBParams.LoRaMacRegion, &rxBeaconSetup, &Ctx.LoRaMacClassB
 290:../../../../../../Middlewares/Third_Party/LoRaWAN/Mac/LoRaMacClassB.c **** 
 291:../../../../../../Middlewares/Third_Party/LoRaWAN/Mac/LoRaMacClassB.c ****     Ctx.LoRaMacClassBParams.MlmeIndication->BeaconInfo.Frequency = frequency;
 292:../../../../../../Middlewares/Third_Party/LoRaWAN/Mac/LoRaMacClassB.c ****     Ctx.LoRaMacClassBParams.MlmeIndication->BeaconInfo.Datarate = Ctx.LoRaMacClassBParams.McpsIndic
 293:../../../../../../Middlewares/Third_Party/LoRaWAN/Mac/LoRaMacClassB.c **** }
 294:../../../../../../Middlewares/Third_Party/LoRaWAN/Mac/LoRaMacClassB.c **** 
 295:../../../../../../Middlewares/Third_Party/LoRaWAN/Mac/LoRaMacClassB.c **** /*!
 296:../../../../../../Middlewares/Third_Party/LoRaWAN/Mac/LoRaMacClassB.c ****  * \brief Calculates the next ping slot time.
 297:../../../../../../Middlewares/Third_Party/LoRaWAN/Mac/LoRaMacClassB.c ****  *
 298:../../../../../../Middlewares/Third_Party/LoRaWAN/Mac/LoRaMacClassB.c ****  * \param [IN] slotOffset The ping slot offset
 299:../../../../../../Middlewares/Third_Party/LoRaWAN/Mac/LoRaMacClassB.c ****  * \param [IN] pingPeriod The ping period
 300:../../../../../../Middlewares/Third_Party/LoRaWAN/Mac/LoRaMacClassB.c ****  * \param [OUT] timeOffset Time offset of the next slot, based on current time
 301:../../../../../../Middlewares/Third_Party/LoRaWAN/Mac/LoRaMacClassB.c ****  *
 302:../../../../../../Middlewares/Third_Party/LoRaWAN/Mac/LoRaMacClassB.c ****  * \retval [true: ping slot found, false: no ping slot found]
 303:../../../../../../Middlewares/Third_Party/LoRaWAN/Mac/LoRaMacClassB.c ****  */
 304:../../../../../../Middlewares/Third_Party/LoRaWAN/Mac/LoRaMacClassB.c **** static bool CalcNextSlotTime( uint16_t slotOffset, uint16_t pingPeriod, uint16_t pingNb, TimerTime_
 305:../../../../../../Middlewares/Third_Party/LoRaWAN/Mac/LoRaMacClassB.c **** {
 306:../../../../../../Middlewares/Third_Party/LoRaWAN/Mac/LoRaMacClassB.c ****     uint8_t currentPingSlot = 0;
 307:../../../../../../Middlewares/Third_Party/LoRaWAN/Mac/LoRaMacClassB.c ****     TimerTime_t slotTime = 0;
 308:../../../../../../Middlewares/Third_Party/LoRaWAN/Mac/LoRaMacClassB.c ****     TimerTime_t currentTime = TimerGetCurrentTime( );
 309:../../../../../../Middlewares/Third_Party/LoRaWAN/Mac/LoRaMacClassB.c **** 
 310:../../../../../../Middlewares/Third_Party/LoRaWAN/Mac/LoRaMacClassB.c ****     // Calculate the point in time of the last beacon even if we missed it
 311:../../../../../../Middlewares/Third_Party/LoRaWAN/Mac/LoRaMacClassB.c ****     slotTime = ( ( currentTime - Ctx.NvmCtx->BeaconCtx.LastBeaconRx ) % CLASSB_BEACON_INTERVAL );
 312:../../../../../../Middlewares/Third_Party/LoRaWAN/Mac/LoRaMacClassB.c ****     slotTime = currentTime - slotTime;
 313:../../../../../../Middlewares/Third_Party/LoRaWAN/Mac/LoRaMacClassB.c **** 
 314:../../../../../../Middlewares/Third_Party/LoRaWAN/Mac/LoRaMacClassB.c ****     // Add the reserved time and the ping offset
 315:../../../../../../Middlewares/Third_Party/LoRaWAN/Mac/LoRaMacClassB.c ****     slotTime += CLASSB_BEACON_RESERVED;
 316:../../../../../../Middlewares/Third_Party/LoRaWAN/Mac/LoRaMacClassB.c ****     slotTime += slotOffset * CLASSB_PING_SLOT_WINDOW;
ARM GAS  C:\Users\EBANO_~1\AppData\Local\Temp\ccis3phW.s 			page 7


 317:../../../../../../Middlewares/Third_Party/LoRaWAN/Mac/LoRaMacClassB.c **** 
 318:../../../../../../Middlewares/Third_Party/LoRaWAN/Mac/LoRaMacClassB.c ****     if( slotTime < currentTime )
 319:../../../../../../Middlewares/Third_Party/LoRaWAN/Mac/LoRaMacClassB.c ****     {
 320:../../../../../../Middlewares/Third_Party/LoRaWAN/Mac/LoRaMacClassB.c ****         currentPingSlot = ( ( currentTime - slotTime ) /
 321:../../../../../../Middlewares/Third_Party/LoRaWAN/Mac/LoRaMacClassB.c ****                           ( pingPeriod * CLASSB_PING_SLOT_WINDOW ) ) + 1;
 322:../../../../../../Middlewares/Third_Party/LoRaWAN/Mac/LoRaMacClassB.c ****         slotTime += ( ( TimerTime_t )( currentPingSlot * pingPeriod ) *
 323:../../../../../../Middlewares/Third_Party/LoRaWAN/Mac/LoRaMacClassB.c ****                     CLASSB_PING_SLOT_WINDOW );
 324:../../../../../../Middlewares/Third_Party/LoRaWAN/Mac/LoRaMacClassB.c ****     }
 325:../../../../../../Middlewares/Third_Party/LoRaWAN/Mac/LoRaMacClassB.c **** 
 326:../../../../../../Middlewares/Third_Party/LoRaWAN/Mac/LoRaMacClassB.c ****     if( currentPingSlot < pingNb )
 327:../../../../../../Middlewares/Third_Party/LoRaWAN/Mac/LoRaMacClassB.c ****     {
 328:../../../../../../Middlewares/Third_Party/LoRaWAN/Mac/LoRaMacClassB.c ****         if( slotTime <= ( Ctx.NvmCtx->BeaconCtx.NextBeaconRx - CLASSB_BEACON_GUARD - CLASSB_PING_SL
 329:../../../../../../Middlewares/Third_Party/LoRaWAN/Mac/LoRaMacClassB.c ****         {
 330:../../../../../../Middlewares/Third_Party/LoRaWAN/Mac/LoRaMacClassB.c ****             // Calculate the relative ping slot time
 331:../../../../../../Middlewares/Third_Party/LoRaWAN/Mac/LoRaMacClassB.c ****             slotTime -= currentTime;
 332:../../../../../../Middlewares/Third_Party/LoRaWAN/Mac/LoRaMacClassB.c ****             slotTime -= Radio.GetWakeupTime( );
 333:../../../../../../Middlewares/Third_Party/LoRaWAN/Mac/LoRaMacClassB.c ****             slotTime = TimerTempCompensation( slotTime, Ctx.NvmCtx->BeaconCtx.Temperature );
 334:../../../../../../Middlewares/Third_Party/LoRaWAN/Mac/LoRaMacClassB.c ****             *timeOffset = slotTime;
 335:../../../../../../Middlewares/Third_Party/LoRaWAN/Mac/LoRaMacClassB.c ****             return true;
 336:../../../../../../Middlewares/Third_Party/LoRaWAN/Mac/LoRaMacClassB.c ****         }
 337:../../../../../../Middlewares/Third_Party/LoRaWAN/Mac/LoRaMacClassB.c ****     }
 338:../../../../../../Middlewares/Third_Party/LoRaWAN/Mac/LoRaMacClassB.c ****     return false;
 339:../../../../../../Middlewares/Third_Party/LoRaWAN/Mac/LoRaMacClassB.c **** }
 340:../../../../../../Middlewares/Third_Party/LoRaWAN/Mac/LoRaMacClassB.c **** 
 341:../../../../../../Middlewares/Third_Party/LoRaWAN/Mac/LoRaMacClassB.c **** /*!
 342:../../../../../../Middlewares/Third_Party/LoRaWAN/Mac/LoRaMacClassB.c ****  * \brief Calculates CRC's of the beacon frame
 343:../../../../../../Middlewares/Third_Party/LoRaWAN/Mac/LoRaMacClassB.c ****  *
 344:../../../../../../Middlewares/Third_Party/LoRaWAN/Mac/LoRaMacClassB.c ****  * \param [IN] buffer Pointer to the data
 345:../../../../../../Middlewares/Third_Party/LoRaWAN/Mac/LoRaMacClassB.c ****  * \param [IN] length Length of the data
 346:../../../../../../Middlewares/Third_Party/LoRaWAN/Mac/LoRaMacClassB.c ****  *
 347:../../../../../../Middlewares/Third_Party/LoRaWAN/Mac/LoRaMacClassB.c ****  * \retval CRC
 348:../../../../../../Middlewares/Third_Party/LoRaWAN/Mac/LoRaMacClassB.c ****  */
 349:../../../../../../Middlewares/Third_Party/LoRaWAN/Mac/LoRaMacClassB.c **** static uint16_t BeaconCrc( uint8_t *buffer, uint16_t length )
 350:../../../../../../Middlewares/Third_Party/LoRaWAN/Mac/LoRaMacClassB.c **** {
 351:../../../../../../Middlewares/Third_Party/LoRaWAN/Mac/LoRaMacClassB.c ****     // The CRC calculation follows CCITT
 352:../../../../../../Middlewares/Third_Party/LoRaWAN/Mac/LoRaMacClassB.c ****     const uint16_t polynom = 0x1021;
 353:../../../../../../Middlewares/Third_Party/LoRaWAN/Mac/LoRaMacClassB.c ****     // CRC initial value
 354:../../../../../../Middlewares/Third_Party/LoRaWAN/Mac/LoRaMacClassB.c ****     uint16_t crc = 0x0000;
 355:../../../../../../Middlewares/Third_Party/LoRaWAN/Mac/LoRaMacClassB.c **** 
 356:../../../../../../Middlewares/Third_Party/LoRaWAN/Mac/LoRaMacClassB.c ****     if( buffer == NULL )
 357:../../../../../../Middlewares/Third_Party/LoRaWAN/Mac/LoRaMacClassB.c ****     {
 358:../../../../../../Middlewares/Third_Party/LoRaWAN/Mac/LoRaMacClassB.c ****         return 0;
 359:../../../../../../Middlewares/Third_Party/LoRaWAN/Mac/LoRaMacClassB.c ****     }
 360:../../../../../../Middlewares/Third_Party/LoRaWAN/Mac/LoRaMacClassB.c **** 
 361:../../../../../../Middlewares/Third_Party/LoRaWAN/Mac/LoRaMacClassB.c ****     for( uint16_t i = 0; i < length; ++i )
 362:../../../../../../Middlewares/Third_Party/LoRaWAN/Mac/LoRaMacClassB.c ****     {
 363:../../../../../../Middlewares/Third_Party/LoRaWAN/Mac/LoRaMacClassB.c ****         crc ^= ( uint16_t ) buffer[i] << 8;
 364:../../../../../../Middlewares/Third_Party/LoRaWAN/Mac/LoRaMacClassB.c ****         for( uint16_t j = 0; j < 8; ++j )
 365:../../../../../../Middlewares/Third_Party/LoRaWAN/Mac/LoRaMacClassB.c ****         {
 366:../../../../../../Middlewares/Third_Party/LoRaWAN/Mac/LoRaMacClassB.c ****             crc = ( crc & 0x8000 ) ? ( crc << 1 ) ^ polynom : ( crc << 1 );
 367:../../../../../../Middlewares/Third_Party/LoRaWAN/Mac/LoRaMacClassB.c ****         }
 368:../../../../../../Middlewares/Third_Party/LoRaWAN/Mac/LoRaMacClassB.c ****     }
 369:../../../../../../Middlewares/Third_Party/LoRaWAN/Mac/LoRaMacClassB.c **** 
 370:../../../../../../Middlewares/Third_Party/LoRaWAN/Mac/LoRaMacClassB.c ****     return crc;
 371:../../../../../../Middlewares/Third_Party/LoRaWAN/Mac/LoRaMacClassB.c **** }
 372:../../../../../../Middlewares/Third_Party/LoRaWAN/Mac/LoRaMacClassB.c **** 
 373:../../../../../../Middlewares/Third_Party/LoRaWAN/Mac/LoRaMacClassB.c **** static void GetTemperatureLevel( LoRaMacClassBCallback_t *callbacks, BeaconContext_t *beaconCtx )
ARM GAS  C:\Users\EBANO_~1\AppData\Local\Temp\ccis3phW.s 			page 8


 374:../../../../../../Middlewares/Third_Party/LoRaWAN/Mac/LoRaMacClassB.c **** {
 375:../../../../../../Middlewares/Third_Party/LoRaWAN/Mac/LoRaMacClassB.c ****     // Measure temperature, if available
 376:../../../../../../Middlewares/Third_Party/LoRaWAN/Mac/LoRaMacClassB.c ****     if( ( callbacks != NULL ) && ( callbacks->GetTemperatureLevel != NULL ) )
 377:../../../../../../Middlewares/Third_Party/LoRaWAN/Mac/LoRaMacClassB.c ****     {
 378:../../../../../../Middlewares/Third_Party/LoRaWAN/Mac/LoRaMacClassB.c ****         beaconCtx->Temperature = (float) callbacks->GetTemperatureLevel( );
 379:../../../../../../Middlewares/Third_Party/LoRaWAN/Mac/LoRaMacClassB.c ****     }
 380:../../../../../../Middlewares/Third_Party/LoRaWAN/Mac/LoRaMacClassB.c **** }
 381:../../../../../../Middlewares/Third_Party/LoRaWAN/Mac/LoRaMacClassB.c **** 
 382:../../../../../../Middlewares/Third_Party/LoRaWAN/Mac/LoRaMacClassB.c **** static void InitClassBDefaults( void )
 383:../../../../../../Middlewares/Third_Party/LoRaWAN/Mac/LoRaMacClassB.c **** {
 384:../../../../../../Middlewares/Third_Party/LoRaWAN/Mac/LoRaMacClassB.c ****     GetPhyParams_t getPhy;
 385:../../../../../../Middlewares/Third_Party/LoRaWAN/Mac/LoRaMacClassB.c ****     PhyParam_t phyParam;
 386:../../../../../../Middlewares/Third_Party/LoRaWAN/Mac/LoRaMacClassB.c **** 
 387:../../../../../../Middlewares/Third_Party/LoRaWAN/Mac/LoRaMacClassB.c ****     // Init events
 388:../../../../../../Middlewares/Third_Party/LoRaWAN/Mac/LoRaMacClassB.c ****     LoRaMacClassBEvents.Value = 0;
 389:../../../../../../Middlewares/Third_Party/LoRaWAN/Mac/LoRaMacClassB.c **** 
 390:../../../../../../Middlewares/Third_Party/LoRaWAN/Mac/LoRaMacClassB.c ****     // Init variables to default
 391:../../../../../../Middlewares/Third_Party/LoRaWAN/Mac/LoRaMacClassB.c ****     memset1( ( uint8_t* ) &Ctx.NvmCtx->BeaconCtx, 0, sizeof( BeaconContext_t ) );
 392:../../../../../../Middlewares/Third_Party/LoRaWAN/Mac/LoRaMacClassB.c ****     memset1( ( uint8_t* ) &Ctx.NvmCtx->PingSlotCtx, 0, sizeof( PingSlotContext_t ) );
 393:../../../../../../Middlewares/Third_Party/LoRaWAN/Mac/LoRaMacClassB.c **** 
 394:../../../../../../Middlewares/Third_Party/LoRaWAN/Mac/LoRaMacClassB.c ****     // Setup default temperature
 395:../../../../../../Middlewares/Third_Party/LoRaWAN/Mac/LoRaMacClassB.c ****     Ctx.NvmCtx->BeaconCtx.Temperature = 25.0;
 396:../../../../../../Middlewares/Third_Party/LoRaWAN/Mac/LoRaMacClassB.c ****     GetTemperatureLevel( &Ctx.LoRaMacClassBCallbacks, &Ctx.NvmCtx->BeaconCtx );
 397:../../../../../../Middlewares/Third_Party/LoRaWAN/Mac/LoRaMacClassB.c **** 
 398:../../../../../../Middlewares/Third_Party/LoRaWAN/Mac/LoRaMacClassB.c ****     // Setup default ping slot datarate
 399:../../../../../../Middlewares/Third_Party/LoRaWAN/Mac/LoRaMacClassB.c ****     getPhy.Attribute = PHY_PING_SLOT_CHANNEL_DR;
 400:../../../../../../Middlewares/Third_Party/LoRaWAN/Mac/LoRaMacClassB.c ****     phyParam = RegionGetPhyParam( *Ctx.LoRaMacClassBParams.LoRaMacRegion, &getPhy );
 401:../../../../../../Middlewares/Third_Party/LoRaWAN/Mac/LoRaMacClassB.c ****     Ctx.NvmCtx->PingSlotCtx.Datarate = (int8_t)( phyParam.Value );
 402:../../../../../../Middlewares/Third_Party/LoRaWAN/Mac/LoRaMacClassB.c **** 
 403:../../../../../../Middlewares/Third_Party/LoRaWAN/Mac/LoRaMacClassB.c ****     // Setup default states
 404:../../../../../../Middlewares/Third_Party/LoRaWAN/Mac/LoRaMacClassB.c ****     Ctx.NvmCtx->BeaconState = BEACON_STATE_ACQUISITION;
 405:../../../../../../Middlewares/Third_Party/LoRaWAN/Mac/LoRaMacClassB.c ****     Ctx.NvmCtx->PingSlotState = PINGSLOT_STATE_CALC_PING_OFFSET;
 406:../../../../../../Middlewares/Third_Party/LoRaWAN/Mac/LoRaMacClassB.c ****     Ctx.NvmCtx->MulticastSlotState = PINGSLOT_STATE_CALC_PING_OFFSET;
 407:../../../../../../Middlewares/Third_Party/LoRaWAN/Mac/LoRaMacClassB.c **** }
 408:../../../../../../Middlewares/Third_Party/LoRaWAN/Mac/LoRaMacClassB.c **** 
 409:../../../../../../Middlewares/Third_Party/LoRaWAN/Mac/LoRaMacClassB.c **** static void EnlargeWindowTimeout( void )
 410:../../../../../../Middlewares/Third_Party/LoRaWAN/Mac/LoRaMacClassB.c **** {
 411:../../../../../../Middlewares/Third_Party/LoRaWAN/Mac/LoRaMacClassB.c ****     // Update beacon movement
 412:../../../../../../Middlewares/Third_Party/LoRaWAN/Mac/LoRaMacClassB.c ****     Ctx.NvmCtx->BeaconCtx.BeaconWindowMovement *= CLASSB_WINDOW_MOVE_EXPANSION_FACTOR;
 413:../../../../../../Middlewares/Third_Party/LoRaWAN/Mac/LoRaMacClassB.c ****     if( Ctx.NvmCtx->BeaconCtx.BeaconWindowMovement > CLASSB_WINDOW_MOVE_EXPANSION_MAX )
 414:../../../../../../Middlewares/Third_Party/LoRaWAN/Mac/LoRaMacClassB.c ****     {
 415:../../../../../../Middlewares/Third_Party/LoRaWAN/Mac/LoRaMacClassB.c ****         Ctx.NvmCtx->BeaconCtx.BeaconWindowMovement = CLASSB_WINDOW_MOVE_EXPANSION_MAX;
 416:../../../../../../Middlewares/Third_Party/LoRaWAN/Mac/LoRaMacClassB.c ****     }
 417:../../../../../../Middlewares/Third_Party/LoRaWAN/Mac/LoRaMacClassB.c ****     // Update symbol timeout
 418:../../../../../../Middlewares/Third_Party/LoRaWAN/Mac/LoRaMacClassB.c ****     Ctx.NvmCtx->BeaconCtx.SymbolTimeout *= CLASSB_BEACON_SYMBOL_TO_EXPANSION_FACTOR;
 419:../../../../../../Middlewares/Third_Party/LoRaWAN/Mac/LoRaMacClassB.c ****     if( Ctx.NvmCtx->BeaconCtx.SymbolTimeout > CLASSB_BEACON_SYMBOL_TO_EXPANSION_MAX )
 420:../../../../../../Middlewares/Third_Party/LoRaWAN/Mac/LoRaMacClassB.c ****     {
 421:../../../../../../Middlewares/Third_Party/LoRaWAN/Mac/LoRaMacClassB.c ****         Ctx.NvmCtx->BeaconCtx.SymbolTimeout = CLASSB_BEACON_SYMBOL_TO_EXPANSION_MAX;
 422:../../../../../../Middlewares/Third_Party/LoRaWAN/Mac/LoRaMacClassB.c ****     }
 423:../../../../../../Middlewares/Third_Party/LoRaWAN/Mac/LoRaMacClassB.c ****     Ctx.NvmCtx->PingSlotCtx.SymbolTimeout *= CLASSB_BEACON_SYMBOL_TO_EXPANSION_FACTOR;
 424:../../../../../../Middlewares/Third_Party/LoRaWAN/Mac/LoRaMacClassB.c ****     if( Ctx.NvmCtx->PingSlotCtx.SymbolTimeout > CLASSB_PING_SLOT_SYMBOL_TO_EXPANSION_MAX )
 425:../../../../../../Middlewares/Third_Party/LoRaWAN/Mac/LoRaMacClassB.c ****     {
 426:../../../../../../Middlewares/Third_Party/LoRaWAN/Mac/LoRaMacClassB.c ****         Ctx.NvmCtx->PingSlotCtx.SymbolTimeout = CLASSB_PING_SLOT_SYMBOL_TO_EXPANSION_MAX;
 427:../../../../../../Middlewares/Third_Party/LoRaWAN/Mac/LoRaMacClassB.c ****     }
 428:../../../../../../Middlewares/Third_Party/LoRaWAN/Mac/LoRaMacClassB.c **** }
 429:../../../../../../Middlewares/Third_Party/LoRaWAN/Mac/LoRaMacClassB.c **** 
 430:../../../../../../Middlewares/Third_Party/LoRaWAN/Mac/LoRaMacClassB.c **** static void ResetWindowTimeout( void )
ARM GAS  C:\Users\EBANO_~1\AppData\Local\Temp\ccis3phW.s 			page 9


 431:../../../../../../Middlewares/Third_Party/LoRaWAN/Mac/LoRaMacClassB.c **** {
 432:../../../../../../Middlewares/Third_Party/LoRaWAN/Mac/LoRaMacClassB.c ****     Ctx.NvmCtx->BeaconCtx.SymbolTimeout = CLASSB_BEACON_SYMBOL_TO_DEFAULT;
 433:../../../../../../Middlewares/Third_Party/LoRaWAN/Mac/LoRaMacClassB.c ****     Ctx.NvmCtx->PingSlotCtx.SymbolTimeout = CLASSB_BEACON_SYMBOL_TO_DEFAULT;
 434:../../../../../../Middlewares/Third_Party/LoRaWAN/Mac/LoRaMacClassB.c ****     Ctx.NvmCtx->BeaconCtx.BeaconWindowMovement  = CLASSB_WINDOW_MOVE_DEFAULT;
 435:../../../../../../Middlewares/Third_Party/LoRaWAN/Mac/LoRaMacClassB.c **** }
 436:../../../../../../Middlewares/Third_Party/LoRaWAN/Mac/LoRaMacClassB.c **** 
 437:../../../../../../Middlewares/Third_Party/LoRaWAN/Mac/LoRaMacClassB.c **** static TimerTime_t CalcDelayForNextBeacon( TimerTime_t currentTime, TimerTime_t lastBeaconRx )
 438:../../../../../../Middlewares/Third_Party/LoRaWAN/Mac/LoRaMacClassB.c **** {
 439:../../../../../../Middlewares/Third_Party/LoRaWAN/Mac/LoRaMacClassB.c ****     TimerTime_t nextBeaconRxTime = 0;
 440:../../../../../../Middlewares/Third_Party/LoRaWAN/Mac/LoRaMacClassB.c **** 
 441:../../../../../../Middlewares/Third_Party/LoRaWAN/Mac/LoRaMacClassB.c ****     // Calculate the point in time of the next beacon
 442:../../../../../../Middlewares/Third_Party/LoRaWAN/Mac/LoRaMacClassB.c ****     nextBeaconRxTime = ( ( currentTime - lastBeaconRx ) % CLASSB_BEACON_INTERVAL );
 443:../../../../../../Middlewares/Third_Party/LoRaWAN/Mac/LoRaMacClassB.c ****     return ( CLASSB_BEACON_INTERVAL - nextBeaconRxTime );
 444:../../../../../../Middlewares/Third_Party/LoRaWAN/Mac/LoRaMacClassB.c **** }
 445:../../../../../../Middlewares/Third_Party/LoRaWAN/Mac/LoRaMacClassB.c **** 
 446:../../../../../../Middlewares/Third_Party/LoRaWAN/Mac/LoRaMacClassB.c **** static void IndicateBeaconStatus( LoRaMacEventInfoStatus_t status )
 447:../../../../../../Middlewares/Third_Party/LoRaWAN/Mac/LoRaMacClassB.c **** {
 448:../../../../../../Middlewares/Third_Party/LoRaWAN/Mac/LoRaMacClassB.c ****     if( Ctx.NvmCtx->BeaconCtx.Ctrl.ResumeBeaconing == 0 )
 449:../../../../../../Middlewares/Third_Party/LoRaWAN/Mac/LoRaMacClassB.c ****     {
 450:../../../../../../Middlewares/Third_Party/LoRaWAN/Mac/LoRaMacClassB.c ****         Ctx.LoRaMacClassBParams.MlmeIndication->MlmeIndication = MLME_BEACON;
 451:../../../../../../Middlewares/Third_Party/LoRaWAN/Mac/LoRaMacClassB.c ****         Ctx.LoRaMacClassBParams.MlmeIndication->Status = status;
 452:../../../../../../Middlewares/Third_Party/LoRaWAN/Mac/LoRaMacClassB.c ****         Ctx.LoRaMacClassBParams.LoRaMacFlags->Bits.MlmeInd = 1;
 453:../../../../../../Middlewares/Third_Party/LoRaWAN/Mac/LoRaMacClassB.c **** 
 454:../../../../../../Middlewares/Third_Party/LoRaWAN/Mac/LoRaMacClassB.c ****         Ctx.LoRaMacClassBParams.LoRaMacFlags->Bits.MacDone = 1;
 455:../../../../../../Middlewares/Third_Party/LoRaWAN/Mac/LoRaMacClassB.c ****     }
 456:../../../../../../Middlewares/Third_Party/LoRaWAN/Mac/LoRaMacClassB.c ****     Ctx.NvmCtx->BeaconCtx.Ctrl.ResumeBeaconing = 0;
 457:../../../../../../Middlewares/Third_Party/LoRaWAN/Mac/LoRaMacClassB.c **** }
 458:../../../../../../Middlewares/Third_Party/LoRaWAN/Mac/LoRaMacClassB.c **** 
 459:../../../../../../Middlewares/Third_Party/LoRaWAN/Mac/LoRaMacClassB.c **** static TimerTime_t ApplyGuardTime( TimerTime_t beaconEventTime )
 460:../../../../../../Middlewares/Third_Party/LoRaWAN/Mac/LoRaMacClassB.c **** {
 461:../../../../../../Middlewares/Third_Party/LoRaWAN/Mac/LoRaMacClassB.c ****     TimerTime_t timeGuard = beaconEventTime;
 462:../../../../../../Middlewares/Third_Party/LoRaWAN/Mac/LoRaMacClassB.c **** 
 463:../../../../../../Middlewares/Third_Party/LoRaWAN/Mac/LoRaMacClassB.c ****     if( timeGuard > CLASSB_BEACON_GUARD )
 464:../../../../../../Middlewares/Third_Party/LoRaWAN/Mac/LoRaMacClassB.c ****     {
 465:../../../../../../Middlewares/Third_Party/LoRaWAN/Mac/LoRaMacClassB.c ****         timeGuard -= CLASSB_BEACON_GUARD;
 466:../../../../../../Middlewares/Third_Party/LoRaWAN/Mac/LoRaMacClassB.c ****     }
 467:../../../../../../Middlewares/Third_Party/LoRaWAN/Mac/LoRaMacClassB.c ****     return timeGuard;
 468:../../../../../../Middlewares/Third_Party/LoRaWAN/Mac/LoRaMacClassB.c **** }
 469:../../../../../../Middlewares/Third_Party/LoRaWAN/Mac/LoRaMacClassB.c **** 
 470:../../../../../../Middlewares/Third_Party/LoRaWAN/Mac/LoRaMacClassB.c **** static TimerTime_t UpdateBeaconState( LoRaMacEventInfoStatus_t status,
 471:../../../../../../Middlewares/Third_Party/LoRaWAN/Mac/LoRaMacClassB.c ****                                       TimerTime_t windowMovement, TimerTime_t currentTime )
 472:../../../../../../Middlewares/Third_Party/LoRaWAN/Mac/LoRaMacClassB.c **** 
 473:../../../../../../Middlewares/Third_Party/LoRaWAN/Mac/LoRaMacClassB.c **** {
 474:../../../../../../Middlewares/Third_Party/LoRaWAN/Mac/LoRaMacClassB.c ****     TimerTime_t beaconEventTime = 0;
 475:../../../../../../Middlewares/Third_Party/LoRaWAN/Mac/LoRaMacClassB.c **** 
 476:../../../../../../Middlewares/Third_Party/LoRaWAN/Mac/LoRaMacClassB.c ****     // Calculate the next beacon RX time
 477:../../../../../../Middlewares/Third_Party/LoRaWAN/Mac/LoRaMacClassB.c ****     beaconEventTime = CalcDelayForNextBeacon( currentTime, Ctx.NvmCtx->BeaconCtx.LastBeaconRx );
 478:../../../../../../Middlewares/Third_Party/LoRaWAN/Mac/LoRaMacClassB.c ****     Ctx.NvmCtx->BeaconCtx.NextBeaconRx = currentTime + beaconEventTime;
 479:../../../../../../Middlewares/Third_Party/LoRaWAN/Mac/LoRaMacClassB.c **** 
 480:../../../../../../Middlewares/Third_Party/LoRaWAN/Mac/LoRaMacClassB.c ****     // Take temperature compensation into account
 481:../../../../../../Middlewares/Third_Party/LoRaWAN/Mac/LoRaMacClassB.c ****     beaconEventTime = TimerTempCompensation( beaconEventTime, Ctx.NvmCtx->BeaconCtx.Temperature );
 482:../../../../../../Middlewares/Third_Party/LoRaWAN/Mac/LoRaMacClassB.c **** 
 483:../../../../../../Middlewares/Third_Party/LoRaWAN/Mac/LoRaMacClassB.c ****     // Move the window
 484:../../../../../../Middlewares/Third_Party/LoRaWAN/Mac/LoRaMacClassB.c ****     if( beaconEventTime > windowMovement )
 485:../../../../../../Middlewares/Third_Party/LoRaWAN/Mac/LoRaMacClassB.c ****     {
 486:../../../../../../Middlewares/Third_Party/LoRaWAN/Mac/LoRaMacClassB.c ****         beaconEventTime -= windowMovement;
 487:../../../../../../Middlewares/Third_Party/LoRaWAN/Mac/LoRaMacClassB.c ****     }
ARM GAS  C:\Users\EBANO_~1\AppData\Local\Temp\ccis3phW.s 			page 10


 488:../../../../../../Middlewares/Third_Party/LoRaWAN/Mac/LoRaMacClassB.c ****     Ctx.NvmCtx->BeaconCtx.NextBeaconRxAdjusted = currentTime + beaconEventTime;
 489:../../../../../../Middlewares/Third_Party/LoRaWAN/Mac/LoRaMacClassB.c **** 
 490:../../../../../../Middlewares/Third_Party/LoRaWAN/Mac/LoRaMacClassB.c ****     // Start the RX slot state machine for ping and multicast slots
 491:../../../../../../Middlewares/Third_Party/LoRaWAN/Mac/LoRaMacClassB.c ****     LoRaMacClassBStartRxSlots( );
 492:../../../../../../Middlewares/Third_Party/LoRaWAN/Mac/LoRaMacClassB.c **** 
 493:../../../../../../Middlewares/Third_Party/LoRaWAN/Mac/LoRaMacClassB.c ****     // Setup an MLME_BEACON indication to inform the upper layer
 494:../../../../../../Middlewares/Third_Party/LoRaWAN/Mac/LoRaMacClassB.c ****     IndicateBeaconStatus( status );
 495:../../../../../../Middlewares/Third_Party/LoRaWAN/Mac/LoRaMacClassB.c **** 
 496:../../../../../../Middlewares/Third_Party/LoRaWAN/Mac/LoRaMacClassB.c ****     // Apply guard time
 497:../../../../../../Middlewares/Third_Party/LoRaWAN/Mac/LoRaMacClassB.c ****     return ApplyGuardTime( beaconEventTime );
 498:../../../../../../Middlewares/Third_Party/LoRaWAN/Mac/LoRaMacClassB.c **** }
 499:../../../../../../Middlewares/Third_Party/LoRaWAN/Mac/LoRaMacClassB.c **** 
 500:../../../../../../Middlewares/Third_Party/LoRaWAN/Mac/LoRaMacClassB.c **** static uint8_t CalcPingNb( uint16_t periodicity )
 501:../../../../../../Middlewares/Third_Party/LoRaWAN/Mac/LoRaMacClassB.c **** {
 502:../../../../../../Middlewares/Third_Party/LoRaWAN/Mac/LoRaMacClassB.c ****     return 128 / ( 1 << periodicity );
 503:../../../../../../Middlewares/Third_Party/LoRaWAN/Mac/LoRaMacClassB.c **** }
 504:../../../../../../Middlewares/Third_Party/LoRaWAN/Mac/LoRaMacClassB.c **** 
 505:../../../../../../Middlewares/Third_Party/LoRaWAN/Mac/LoRaMacClassB.c **** static uint16_t CalcPingPeriod( uint8_t pingNb )
 506:../../../../../../Middlewares/Third_Party/LoRaWAN/Mac/LoRaMacClassB.c **** {
 507:../../../../../../Middlewares/Third_Party/LoRaWAN/Mac/LoRaMacClassB.c ****     return CLASSB_BEACON_WINDOW_SLOTS / pingNb;
 508:../../../../../../Middlewares/Third_Party/LoRaWAN/Mac/LoRaMacClassB.c **** }
 509:../../../../../../Middlewares/Third_Party/LoRaWAN/Mac/LoRaMacClassB.c **** 
 510:../../../../../../Middlewares/Third_Party/LoRaWAN/Mac/LoRaMacClassB.c **** /*
 511:../../../../../../Middlewares/Third_Party/LoRaWAN/Mac/LoRaMacClassB.c ****  * Dummy callback in case if the user provides NULL function pointer
 512:../../../../../../Middlewares/Third_Party/LoRaWAN/Mac/LoRaMacClassB.c ****  */
 513:../../../../../../Middlewares/Third_Party/LoRaWAN/Mac/LoRaMacClassB.c **** static void NvmContextChange( void )
 514:../../../../../../Middlewares/Third_Party/LoRaWAN/Mac/LoRaMacClassB.c **** {
 515:../../../../../../Middlewares/Third_Party/LoRaWAN/Mac/LoRaMacClassB.c ****     if( Ctx.EventNvmCtxChanged != NULL )
 516:../../../../../../Middlewares/Third_Party/LoRaWAN/Mac/LoRaMacClassB.c ****     {
 517:../../../../../../Middlewares/Third_Party/LoRaWAN/Mac/LoRaMacClassB.c ****         Ctx.EventNvmCtxChanged( );
 518:../../../../../../Middlewares/Third_Party/LoRaWAN/Mac/LoRaMacClassB.c ****     }
 519:../../../../../../Middlewares/Third_Party/LoRaWAN/Mac/LoRaMacClassB.c **** }
 520:../../../../../../Middlewares/Third_Party/LoRaWAN/Mac/LoRaMacClassB.c **** 
 521:../../../../../../Middlewares/Third_Party/LoRaWAN/Mac/LoRaMacClassB.c **** #endif // LORAMAC_CLASSB_ENABLED
 522:../../../../../../Middlewares/Third_Party/LoRaWAN/Mac/LoRaMacClassB.c **** 
 523:../../../../../../Middlewares/Third_Party/LoRaWAN/Mac/LoRaMacClassB.c **** void LoRaMacClassBInit( LoRaMacClassBParams_t *classBParams, LoRaMacClassBCallback_t *callbacks, Ev
 524:../../../../../../Middlewares/Third_Party/LoRaWAN/Mac/LoRaMacClassB.c **** {
  27              		.loc 1 524 0
  28              		.cfi_startproc
  29              		@ args = 0, pretend = 0, frame = 0
  30              		@ frame_needed = 0, uses_anonymous_args = 0
  31              		@ link register save eliminated.
  32              	.LVL0:
 525:../../../../../../Middlewares/Third_Party/LoRaWAN/Mac/LoRaMacClassB.c **** #ifdef LORAMAC_CLASSB_ENABLED
 526:../../../../../../Middlewares/Third_Party/LoRaWAN/Mac/LoRaMacClassB.c ****     // Store callbacks
 527:../../../../../../Middlewares/Third_Party/LoRaWAN/Mac/LoRaMacClassB.c ****     Ctx.LoRaMacClassBCallbacks = *callbacks;
 528:../../../../../../Middlewares/Third_Party/LoRaWAN/Mac/LoRaMacClassB.c **** 
 529:../../../../../../Middlewares/Third_Party/LoRaWAN/Mac/LoRaMacClassB.c ****     // Store parameter pointers
 530:../../../../../../Middlewares/Third_Party/LoRaWAN/Mac/LoRaMacClassB.c ****     Ctx.LoRaMacClassBParams = *classBParams;
 531:../../../../../../Middlewares/Third_Party/LoRaWAN/Mac/LoRaMacClassB.c **** 
 532:../../../../../../Middlewares/Third_Party/LoRaWAN/Mac/LoRaMacClassB.c ****     // Assign non-volatile context
 533:../../../../../../Middlewares/Third_Party/LoRaWAN/Mac/LoRaMacClassB.c ****     Ctx.NvmCtx = &NvmCtx;
 534:../../../../../../Middlewares/Third_Party/LoRaWAN/Mac/LoRaMacClassB.c **** 
 535:../../../../../../Middlewares/Third_Party/LoRaWAN/Mac/LoRaMacClassB.c ****     // Assign callback
 536:../../../../../../Middlewares/Third_Party/LoRaWAN/Mac/LoRaMacClassB.c ****     Ctx.EventNvmCtxChanged = classBNvmCtxChanged;
 537:../../../../../../Middlewares/Third_Party/LoRaWAN/Mac/LoRaMacClassB.c **** 
 538:../../../../../../Middlewares/Third_Party/LoRaWAN/Mac/LoRaMacClassB.c ****     // Initialize timers
ARM GAS  C:\Users\EBANO_~1\AppData\Local\Temp\ccis3phW.s 			page 11


 539:../../../../../../Middlewares/Third_Party/LoRaWAN/Mac/LoRaMacClassB.c ****     TimerInit( &Ctx.BeaconTimer, LoRaMacClassBBeaconTimerEvent );
 540:../../../../../../Middlewares/Third_Party/LoRaWAN/Mac/LoRaMacClassB.c ****     TimerInit( &Ctx.PingSlotTimer, LoRaMacClassBPingSlotTimerEvent );
 541:../../../../../../Middlewares/Third_Party/LoRaWAN/Mac/LoRaMacClassB.c ****     TimerInit( &Ctx.MulticastSlotTimer, LoRaMacClassBMulticastSlotTimerEvent );
 542:../../../../../../Middlewares/Third_Party/LoRaWAN/Mac/LoRaMacClassB.c **** 
 543:../../../../../../Middlewares/Third_Party/LoRaWAN/Mac/LoRaMacClassB.c ****     InitClassBDefaults( );
 544:../../../../../../Middlewares/Third_Party/LoRaWAN/Mac/LoRaMacClassB.c **** #endif // LORAMAC_CLASSB_ENABLED
 545:../../../../../../Middlewares/Third_Party/LoRaWAN/Mac/LoRaMacClassB.c **** }
  33              		.loc 1 545 0
  34              		@ sp needed
  35 0000 7047     		bx	lr
  36              		.cfi_endproc
  37              	.LFE39:
  38              		.size	LoRaMacClassBInit, .-LoRaMacClassBInit
  39 0002 C046     		.section	.text.LoRaMacClassBRestoreNvmCtx,"ax",%progbits
  40              		.align	1
  41              		.p2align 2,,3
  42              		.global	LoRaMacClassBRestoreNvmCtx
  43              		.syntax unified
  44              		.code	16
  45              		.thumb_func
  46              		.fpu softvfp
  47              		.type	LoRaMacClassBRestoreNvmCtx, %function
  48              	LoRaMacClassBRestoreNvmCtx:
  49              	.LFB40:
 546:../../../../../../Middlewares/Third_Party/LoRaWAN/Mac/LoRaMacClassB.c **** 
 547:../../../../../../Middlewares/Third_Party/LoRaWAN/Mac/LoRaMacClassB.c **** bool LoRaMacClassBRestoreNvmCtx( void* classBNvmCtx )
 548:../../../../../../Middlewares/Third_Party/LoRaWAN/Mac/LoRaMacClassB.c **** {
  50              		.loc 1 548 0
  51              		.cfi_startproc
  52              		@ args = 0, pretend = 0, frame = 0
  53              		@ frame_needed = 0, uses_anonymous_args = 0
  54              		@ link register save eliminated.
  55              	.LVL1:
 549:../../../../../../Middlewares/Third_Party/LoRaWAN/Mac/LoRaMacClassB.c **** #ifdef LORAMAC_CLASSB_ENABLED
 550:../../../../../../Middlewares/Third_Party/LoRaWAN/Mac/LoRaMacClassB.c ****     // Restore module context
 551:../../../../../../Middlewares/Third_Party/LoRaWAN/Mac/LoRaMacClassB.c ****     if( classBNvmCtx != NULL )
 552:../../../../../../Middlewares/Third_Party/LoRaWAN/Mac/LoRaMacClassB.c ****     {
 553:../../../../../../Middlewares/Third_Party/LoRaWAN/Mac/LoRaMacClassB.c ****         memcpy1( ( uint8_t* ) &NvmCtx, ( uint8_t* ) classBNvmCtx, sizeof( NvmCtx ) );
 554:../../../../../../Middlewares/Third_Party/LoRaWAN/Mac/LoRaMacClassB.c ****         return true;
 555:../../../../../../Middlewares/Third_Party/LoRaWAN/Mac/LoRaMacClassB.c ****     }
 556:../../../../../../Middlewares/Third_Party/LoRaWAN/Mac/LoRaMacClassB.c ****     else
 557:../../../../../../Middlewares/Third_Party/LoRaWAN/Mac/LoRaMacClassB.c ****     {
 558:../../../../../../Middlewares/Third_Party/LoRaWAN/Mac/LoRaMacClassB.c ****         return false;
 559:../../../../../../Middlewares/Third_Party/LoRaWAN/Mac/LoRaMacClassB.c ****     }
 560:../../../../../../Middlewares/Third_Party/LoRaWAN/Mac/LoRaMacClassB.c **** #else
 561:../../../../../../Middlewares/Third_Party/LoRaWAN/Mac/LoRaMacClassB.c ****     return true;
 562:../../../../../../Middlewares/Third_Party/LoRaWAN/Mac/LoRaMacClassB.c **** #endif // LORAMAC_CLASSB_ENABLED
 563:../../../../../../Middlewares/Third_Party/LoRaWAN/Mac/LoRaMacClassB.c **** }
  56              		.loc 1 563 0
  57 0000 0120     		movs	r0, #1
  58              	.LVL2:
  59              		@ sp needed
  60 0002 7047     		bx	lr
  61              		.cfi_endproc
  62              	.LFE40:
  63              		.size	LoRaMacClassBRestoreNvmCtx, .-LoRaMacClassBRestoreNvmCtx
  64              		.section	.text.LoRaMacClassBGetNvmCtx,"ax",%progbits
ARM GAS  C:\Users\EBANO_~1\AppData\Local\Temp\ccis3phW.s 			page 12


  65              		.align	1
  66              		.p2align 2,,3
  67              		.global	LoRaMacClassBGetNvmCtx
  68              		.syntax unified
  69              		.code	16
  70              		.thumb_func
  71              		.fpu softvfp
  72              		.type	LoRaMacClassBGetNvmCtx, %function
  73              	LoRaMacClassBGetNvmCtx:
  74              	.LFB41:
 564:../../../../../../Middlewares/Third_Party/LoRaWAN/Mac/LoRaMacClassB.c **** 
 565:../../../../../../Middlewares/Third_Party/LoRaWAN/Mac/LoRaMacClassB.c **** void* LoRaMacClassBGetNvmCtx( size_t* classBNvmCtxSize )
 566:../../../../../../Middlewares/Third_Party/LoRaWAN/Mac/LoRaMacClassB.c **** {
  75              		.loc 1 566 0
  76              		.cfi_startproc
  77              		@ args = 0, pretend = 0, frame = 0
  78              		@ frame_needed = 0, uses_anonymous_args = 0
  79              		@ link register save eliminated.
  80              	.LVL3:
 567:../../../../../../Middlewares/Third_Party/LoRaWAN/Mac/LoRaMacClassB.c **** #ifdef LORAMAC_CLASSB_ENABLED
 568:../../../../../../Middlewares/Third_Party/LoRaWAN/Mac/LoRaMacClassB.c ****     *classBNvmCtxSize = sizeof( NvmCtx );
 569:../../../../../../Middlewares/Third_Party/LoRaWAN/Mac/LoRaMacClassB.c ****     return &NvmCtx;
 570:../../../../../../Middlewares/Third_Party/LoRaWAN/Mac/LoRaMacClassB.c **** #else
 571:../../../../../../Middlewares/Third_Party/LoRaWAN/Mac/LoRaMacClassB.c ****     *classBNvmCtxSize = 0;
  81              		.loc 1 571 0
  82 0000 0023     		movs	r3, #0
 572:../../../../../../Middlewares/Third_Party/LoRaWAN/Mac/LoRaMacClassB.c ****     return NULL;
 573:../../../../../../Middlewares/Third_Party/LoRaWAN/Mac/LoRaMacClassB.c **** #endif // LORAMAC_CLASSB_ENABLED
 574:../../../../../../Middlewares/Third_Party/LoRaWAN/Mac/LoRaMacClassB.c **** }
  83              		.loc 1 574 0
  84              		@ sp needed
 571:../../../../../../Middlewares/Third_Party/LoRaWAN/Mac/LoRaMacClassB.c ****     return NULL;
  85              		.loc 1 571 0
  86 0002 0360     		str	r3, [r0]
  87              		.loc 1 574 0
  88 0004 0020     		movs	r0, #0
  89              	.LVL4:
  90 0006 7047     		bx	lr
  91              		.cfi_endproc
  92              	.LFE41:
  93              		.size	LoRaMacClassBGetNvmCtx, .-LoRaMacClassBGetNvmCtx
  94              		.section	.text.LoRaMacClassBSetBeaconState,"ax",%progbits
  95              		.align	1
  96              		.p2align 2,,3
  97              		.global	LoRaMacClassBSetBeaconState
  98              		.syntax unified
  99              		.code	16
 100              		.thumb_func
 101              		.fpu softvfp
 102              		.type	LoRaMacClassBSetBeaconState, %function
 103              	LoRaMacClassBSetBeaconState:
 104              	.LFB42:
 575:../../../../../../Middlewares/Third_Party/LoRaWAN/Mac/LoRaMacClassB.c **** 
 576:../../../../../../Middlewares/Third_Party/LoRaWAN/Mac/LoRaMacClassB.c **** void LoRaMacClassBSetBeaconState( BeaconState_t beaconState )
 577:../../../../../../Middlewares/Third_Party/LoRaWAN/Mac/LoRaMacClassB.c **** {
 105              		.loc 1 577 0
 106              		.cfi_startproc
ARM GAS  C:\Users\EBANO_~1\AppData\Local\Temp\ccis3phW.s 			page 13


 107              		@ args = 0, pretend = 0, frame = 0
 108              		@ frame_needed = 0, uses_anonymous_args = 0
 109              		@ link register save eliminated.
 110              	.LVL5:
 578:../../../../../../Middlewares/Third_Party/LoRaWAN/Mac/LoRaMacClassB.c **** #ifdef LORAMAC_CLASSB_ENABLED
 579:../../../../../../Middlewares/Third_Party/LoRaWAN/Mac/LoRaMacClassB.c ****     if( beaconState == BEACON_STATE_ACQUISITION )
 580:../../../../../../Middlewares/Third_Party/LoRaWAN/Mac/LoRaMacClassB.c ****     {
 581:../../../../../../Middlewares/Third_Party/LoRaWAN/Mac/LoRaMacClassB.c ****         // If the MAC has received a time reference for the beacon,
 582:../../../../../../Middlewares/Third_Party/LoRaWAN/Mac/LoRaMacClassB.c ****         // apply the state BEACON_STATE_ACQUISITION_BY_TIME.
 583:../../../../../../Middlewares/Third_Party/LoRaWAN/Mac/LoRaMacClassB.c ****         if( ( Ctx.NvmCtx->BeaconCtx.Ctrl.BeaconDelaySet == 1 ) &&
 584:../../../../../../Middlewares/Third_Party/LoRaWAN/Mac/LoRaMacClassB.c ****             ( LoRaMacClassBIsAcquisitionPending( ) == false ) )
 585:../../../../../../Middlewares/Third_Party/LoRaWAN/Mac/LoRaMacClassB.c ****         {
 586:../../../../../../Middlewares/Third_Party/LoRaWAN/Mac/LoRaMacClassB.c ****             Ctx.NvmCtx->BeaconState = BEACON_STATE_ACQUISITION_BY_TIME;
 587:../../../../../../Middlewares/Third_Party/LoRaWAN/Mac/LoRaMacClassB.c ****         }
 588:../../../../../../Middlewares/Third_Party/LoRaWAN/Mac/LoRaMacClassB.c ****         else
 589:../../../../../../Middlewares/Third_Party/LoRaWAN/Mac/LoRaMacClassB.c ****         {
 590:../../../../../../Middlewares/Third_Party/LoRaWAN/Mac/LoRaMacClassB.c ****            Ctx.NvmCtx->BeaconState = beaconState;
 591:../../../../../../Middlewares/Third_Party/LoRaWAN/Mac/LoRaMacClassB.c ****         }
 592:../../../../../../Middlewares/Third_Party/LoRaWAN/Mac/LoRaMacClassB.c ****     }
 593:../../../../../../Middlewares/Third_Party/LoRaWAN/Mac/LoRaMacClassB.c ****     else
 594:../../../../../../Middlewares/Third_Party/LoRaWAN/Mac/LoRaMacClassB.c ****     {
 595:../../../../../../Middlewares/Third_Party/LoRaWAN/Mac/LoRaMacClassB.c ****         if( ( Ctx.NvmCtx->BeaconState != BEACON_STATE_ACQUISITION ) &&
 596:../../../../../../Middlewares/Third_Party/LoRaWAN/Mac/LoRaMacClassB.c ****             ( Ctx.NvmCtx->BeaconState != BEACON_STATE_ACQUISITION_BY_TIME ) )
 597:../../../../../../Middlewares/Third_Party/LoRaWAN/Mac/LoRaMacClassB.c ****         {
 598:../../../../../../Middlewares/Third_Party/LoRaWAN/Mac/LoRaMacClassB.c ****             Ctx.NvmCtx->BeaconState = beaconState;
 599:../../../../../../Middlewares/Third_Party/LoRaWAN/Mac/LoRaMacClassB.c ****         }
 600:../../../../../../Middlewares/Third_Party/LoRaWAN/Mac/LoRaMacClassB.c ****     }
 601:../../../../../../Middlewares/Third_Party/LoRaWAN/Mac/LoRaMacClassB.c **** 
 602:../../../../../../Middlewares/Third_Party/LoRaWAN/Mac/LoRaMacClassB.c ****     NvmContextChange( );
 603:../../../../../../Middlewares/Third_Party/LoRaWAN/Mac/LoRaMacClassB.c **** 
 604:../../../../../../Middlewares/Third_Party/LoRaWAN/Mac/LoRaMacClassB.c **** #endif // LORAMAC_CLASSB_ENABLED
 605:../../../../../../Middlewares/Third_Party/LoRaWAN/Mac/LoRaMacClassB.c **** }
 111              		.loc 1 605 0
 112              		@ sp needed
 113 0000 7047     		bx	lr
 114              		.cfi_endproc
 115              	.LFE42:
 116              		.size	LoRaMacClassBSetBeaconState, .-LoRaMacClassBSetBeaconState
 117 0002 C046     		.section	.text.LoRaMacClassBSetPingSlotState,"ax",%progbits
 118              		.align	1
 119              		.p2align 2,,3
 120              		.global	LoRaMacClassBSetPingSlotState
 121              		.syntax unified
 122              		.code	16
 123              		.thumb_func
 124              		.fpu softvfp
 125              		.type	LoRaMacClassBSetPingSlotState, %function
 126              	LoRaMacClassBSetPingSlotState:
 127              	.LFB72:
 128              		.cfi_startproc
 129              		@ args = 0, pretend = 0, frame = 0
 130              		@ frame_needed = 0, uses_anonymous_args = 0
 131              		@ link register save eliminated.
 132              		@ sp needed
 133 0000 7047     		bx	lr
 134              		.cfi_endproc
 135              	.LFE72:
ARM GAS  C:\Users\EBANO_~1\AppData\Local\Temp\ccis3phW.s 			page 14


 136              		.size	LoRaMacClassBSetPingSlotState, .-LoRaMacClassBSetPingSlotState
 137 0002 C046     		.section	.text.LoRaMacClassBSetMulticastSlotState,"ax",%progbits
 138              		.align	1
 139              		.p2align 2,,3
 140              		.global	LoRaMacClassBSetMulticastSlotState
 141              		.syntax unified
 142              		.code	16
 143              		.thumb_func
 144              		.fpu softvfp
 145              		.type	LoRaMacClassBSetMulticastSlotState, %function
 146              	LoRaMacClassBSetMulticastSlotState:
 147              	.LFB74:
 148              		.cfi_startproc
 149              		@ args = 0, pretend = 0, frame = 0
 150              		@ frame_needed = 0, uses_anonymous_args = 0
 151              		@ link register save eliminated.
 152              		@ sp needed
 153 0000 7047     		bx	lr
 154              		.cfi_endproc
 155              	.LFE74:
 156              		.size	LoRaMacClassBSetMulticastSlotState, .-LoRaMacClassBSetMulticastSlotState
 157 0002 C046     		.section	.text.LoRaMacClassBIsAcquisitionInProgress,"ax",%progbits
 158              		.align	1
 159              		.p2align 2,,3
 160              		.global	LoRaMacClassBIsAcquisitionInProgress
 161              		.syntax unified
 162              		.code	16
 163              		.thumb_func
 164              		.fpu softvfp
 165              		.type	LoRaMacClassBIsAcquisitionInProgress, %function
 166              	LoRaMacClassBIsAcquisitionInProgress:
 167              	.LFB45:
 606:../../../../../../Middlewares/Third_Party/LoRaWAN/Mac/LoRaMacClassB.c **** 
 607:../../../../../../Middlewares/Third_Party/LoRaWAN/Mac/LoRaMacClassB.c **** void LoRaMacClassBSetPingSlotState( PingSlotState_t pingSlotState )
 608:../../../../../../Middlewares/Third_Party/LoRaWAN/Mac/LoRaMacClassB.c **** {
 609:../../../../../../Middlewares/Third_Party/LoRaWAN/Mac/LoRaMacClassB.c **** #ifdef LORAMAC_CLASSB_ENABLED
 610:../../../../../../Middlewares/Third_Party/LoRaWAN/Mac/LoRaMacClassB.c ****     Ctx.NvmCtx->PingSlotState = pingSlotState;
 611:../../../../../../Middlewares/Third_Party/LoRaWAN/Mac/LoRaMacClassB.c ****     NvmContextChange( );
 612:../../../../../../Middlewares/Third_Party/LoRaWAN/Mac/LoRaMacClassB.c **** #endif // LORAMAC_CLASSB_ENABLED
 613:../../../../../../Middlewares/Third_Party/LoRaWAN/Mac/LoRaMacClassB.c **** }
 614:../../../../../../Middlewares/Third_Party/LoRaWAN/Mac/LoRaMacClassB.c **** 
 615:../../../../../../Middlewares/Third_Party/LoRaWAN/Mac/LoRaMacClassB.c **** void LoRaMacClassBSetMulticastSlotState( PingSlotState_t multicastSlotState )
 616:../../../../../../Middlewares/Third_Party/LoRaWAN/Mac/LoRaMacClassB.c **** {
 617:../../../../../../Middlewares/Third_Party/LoRaWAN/Mac/LoRaMacClassB.c **** #ifdef LORAMAC_CLASSB_ENABLED
 618:../../../../../../Middlewares/Third_Party/LoRaWAN/Mac/LoRaMacClassB.c ****     Ctx.NvmCtx->MulticastSlotState = multicastSlotState;
 619:../../../../../../Middlewares/Third_Party/LoRaWAN/Mac/LoRaMacClassB.c ****     NvmContextChange( );
 620:../../../../../../Middlewares/Third_Party/LoRaWAN/Mac/LoRaMacClassB.c **** #endif // LORAMAC_CLASSB_ENABLED
 621:../../../../../../Middlewares/Third_Party/LoRaWAN/Mac/LoRaMacClassB.c **** }
 622:../../../../../../Middlewares/Third_Party/LoRaWAN/Mac/LoRaMacClassB.c **** 
 623:../../../../../../Middlewares/Third_Party/LoRaWAN/Mac/LoRaMacClassB.c **** bool LoRaMacClassBIsAcquisitionInProgress( void )
 624:../../../../../../Middlewares/Third_Party/LoRaWAN/Mac/LoRaMacClassB.c **** {
 168              		.loc 1 624 0
 169              		.cfi_startproc
 170              		@ args = 0, pretend = 0, frame = 0
 171              		@ frame_needed = 0, uses_anonymous_args = 0
 172              		@ link register save eliminated.
 625:../../../../../../Middlewares/Third_Party/LoRaWAN/Mac/LoRaMacClassB.c **** #ifdef LORAMAC_CLASSB_ENABLED
ARM GAS  C:\Users\EBANO_~1\AppData\Local\Temp\ccis3phW.s 			page 15


 626:../../../../../../Middlewares/Third_Party/LoRaWAN/Mac/LoRaMacClassB.c ****     if( Ctx.NvmCtx->BeaconState == BEACON_STATE_ACQUISITION_BY_TIME )
 627:../../../../../../Middlewares/Third_Party/LoRaWAN/Mac/LoRaMacClassB.c ****     {
 628:../../../../../../Middlewares/Third_Party/LoRaWAN/Mac/LoRaMacClassB.c ****         // In this case the acquisition is in progress, as the MAC has
 629:../../../../../../Middlewares/Third_Party/LoRaWAN/Mac/LoRaMacClassB.c ****         // a time reference for the next beacon RX.
 630:../../../../../../Middlewares/Third_Party/LoRaWAN/Mac/LoRaMacClassB.c ****         return true;
 631:../../../../../../Middlewares/Third_Party/LoRaWAN/Mac/LoRaMacClassB.c ****     }
 632:../../../../../../Middlewares/Third_Party/LoRaWAN/Mac/LoRaMacClassB.c ****     if( LoRaMacClassBIsAcquisitionPending( ) == true )
 633:../../../../../../Middlewares/Third_Party/LoRaWAN/Mac/LoRaMacClassB.c ****     {
 634:../../../../../../Middlewares/Third_Party/LoRaWAN/Mac/LoRaMacClassB.c ****         // In this case the acquisition is in progress, as the MAC
 635:../../../../../../Middlewares/Third_Party/LoRaWAN/Mac/LoRaMacClassB.c ****         // searches for a beacon.
 636:../../../../../../Middlewares/Third_Party/LoRaWAN/Mac/LoRaMacClassB.c ****         return true;
 637:../../../../../../Middlewares/Third_Party/LoRaWAN/Mac/LoRaMacClassB.c ****     }
 638:../../../../../../Middlewares/Third_Party/LoRaWAN/Mac/LoRaMacClassB.c ****     return false;
 639:../../../../../../Middlewares/Third_Party/LoRaWAN/Mac/LoRaMacClassB.c **** #else
 640:../../../../../../Middlewares/Third_Party/LoRaWAN/Mac/LoRaMacClassB.c ****     return false;
 641:../../../../../../Middlewares/Third_Party/LoRaWAN/Mac/LoRaMacClassB.c **** #endif // LORAMAC_CLASSB_ENABLED
 642:../../../../../../Middlewares/Third_Party/LoRaWAN/Mac/LoRaMacClassB.c **** }
 173              		.loc 1 642 0
 174 0000 0020     		movs	r0, #0
 175              		@ sp needed
 176 0002 7047     		bx	lr
 177              		.cfi_endproc
 178              	.LFE45:
 179              		.size	LoRaMacClassBIsAcquisitionInProgress, .-LoRaMacClassBIsAcquisitionInProgress
 180              		.section	.text.LoRaMacClassBBeaconTimerEvent,"ax",%progbits
 181              		.align	1
 182              		.p2align 2,,3
 183              		.global	LoRaMacClassBBeaconTimerEvent
 184              		.syntax unified
 185              		.code	16
 186              		.thumb_func
 187              		.fpu softvfp
 188              		.type	LoRaMacClassBBeaconTimerEvent, %function
 189              	LoRaMacClassBBeaconTimerEvent:
 190              	.LFB46:
 643:../../../../../../Middlewares/Third_Party/LoRaWAN/Mac/LoRaMacClassB.c **** 
 644:../../../../../../Middlewares/Third_Party/LoRaWAN/Mac/LoRaMacClassB.c **** void LoRaMacClassBBeaconTimerEvent( void* context )
 645:../../../../../../Middlewares/Third_Party/LoRaWAN/Mac/LoRaMacClassB.c **** {
 191              		.loc 1 645 0
 192              		.cfi_startproc
 193              		@ args = 0, pretend = 0, frame = 0
 194              		@ frame_needed = 0, uses_anonymous_args = 0
 195              		@ link register save eliminated.
 196              	.LVL6:
 646:../../../../../../Middlewares/Third_Party/LoRaWAN/Mac/LoRaMacClassB.c **** #ifdef LORAMAC_CLASSB_ENABLED
 647:../../../../../../Middlewares/Third_Party/LoRaWAN/Mac/LoRaMacClassB.c ****     Ctx.NvmCtx->BeaconCtx.TimeStamp = TimerGetCurrentTime( );
 648:../../../../../../Middlewares/Third_Party/LoRaWAN/Mac/LoRaMacClassB.c ****     TimerStop( &Ctx.BeaconTimer );
 649:../../../../../../Middlewares/Third_Party/LoRaWAN/Mac/LoRaMacClassB.c ****     LoRaMacClassBEvents.Events.Beacon = 1;
 650:../../../../../../Middlewares/Third_Party/LoRaWAN/Mac/LoRaMacClassB.c **** 
 651:../../../../../../Middlewares/Third_Party/LoRaWAN/Mac/LoRaMacClassB.c ****     if( Ctx.LoRaMacClassBCallbacks.MacProcessNotify != NULL )
 652:../../../../../../Middlewares/Third_Party/LoRaWAN/Mac/LoRaMacClassB.c ****     {
 653:../../../../../../Middlewares/Third_Party/LoRaWAN/Mac/LoRaMacClassB.c ****         Ctx.LoRaMacClassBCallbacks.MacProcessNotify( );
 654:../../../../../../Middlewares/Third_Party/LoRaWAN/Mac/LoRaMacClassB.c ****     }
 655:../../../../../../Middlewares/Third_Party/LoRaWAN/Mac/LoRaMacClassB.c **** #endif // LORAMAC_CLASSB_ENABLED
 656:../../../../../../Middlewares/Third_Party/LoRaWAN/Mac/LoRaMacClassB.c **** }
 197              		.loc 1 656 0
 198              		@ sp needed
ARM GAS  C:\Users\EBANO_~1\AppData\Local\Temp\ccis3phW.s 			page 16


 199 0000 7047     		bx	lr
 200              		.cfi_endproc
 201              	.LFE46:
 202              		.size	LoRaMacClassBBeaconTimerEvent, .-LoRaMacClassBBeaconTimerEvent
 203 0002 C046     		.section	.text.LoRaMacClassBPingSlotTimerEvent,"ax",%progbits
 204              		.align	1
 205              		.p2align 2,,3
 206              		.global	LoRaMacClassBPingSlotTimerEvent
 207              		.syntax unified
 208              		.code	16
 209              		.thumb_func
 210              		.fpu softvfp
 211              		.type	LoRaMacClassBPingSlotTimerEvent, %function
 212              	LoRaMacClassBPingSlotTimerEvent:
 213              	.LFB78:
 214              		.cfi_startproc
 215              		@ args = 0, pretend = 0, frame = 0
 216              		@ frame_needed = 0, uses_anonymous_args = 0
 217              		@ link register save eliminated.
 218              		@ sp needed
 219 0000 7047     		bx	lr
 220              		.cfi_endproc
 221              	.LFE78:
 222              		.size	LoRaMacClassBPingSlotTimerEvent, .-LoRaMacClassBPingSlotTimerEvent
 223 0002 C046     		.section	.text.LoRaMacClassBMulticastSlotTimerEvent,"ax",%progbits
 224              		.align	1
 225              		.p2align 2,,3
 226              		.global	LoRaMacClassBMulticastSlotTimerEvent
 227              		.syntax unified
 228              		.code	16
 229              		.thumb_func
 230              		.fpu softvfp
 231              		.type	LoRaMacClassBMulticastSlotTimerEvent, %function
 232              	LoRaMacClassBMulticastSlotTimerEvent:
 233              	.LFB80:
 234              		.cfi_startproc
 235              		@ args = 0, pretend = 0, frame = 0
 236              		@ frame_needed = 0, uses_anonymous_args = 0
 237              		@ link register save eliminated.
 238              		@ sp needed
 239 0000 7047     		bx	lr
 240              		.cfi_endproc
 241              	.LFE80:
 242              		.size	LoRaMacClassBMulticastSlotTimerEvent, .-LoRaMacClassBMulticastSlotTimerEvent
 243 0002 C046     		.section	.text.LoRaMacClassBRxBeacon,"ax",%progbits
 244              		.align	1
 245              		.p2align 2,,3
 246              		.global	LoRaMacClassBRxBeacon
 247              		.syntax unified
 248              		.code	16
 249              		.thumb_func
 250              		.fpu softvfp
 251              		.type	LoRaMacClassBRxBeacon, %function
 252              	LoRaMacClassBRxBeacon:
 253              	.LFB49:
 657:../../../../../../Middlewares/Third_Party/LoRaWAN/Mac/LoRaMacClassB.c **** 
 658:../../../../../../Middlewares/Third_Party/LoRaWAN/Mac/LoRaMacClassB.c **** #ifdef LORAMAC_CLASSB_ENABLED
ARM GAS  C:\Users\EBANO_~1\AppData\Local\Temp\ccis3phW.s 			page 17


 659:../../../../../../Middlewares/Third_Party/LoRaWAN/Mac/LoRaMacClassB.c **** static void LoRaMacClassBProcessBeacon( void )
 660:../../../../../../Middlewares/Third_Party/LoRaWAN/Mac/LoRaMacClassB.c **** {
 661:../../../../../../Middlewares/Third_Party/LoRaWAN/Mac/LoRaMacClassB.c ****     bool activateTimer = false;
 662:../../../../../../Middlewares/Third_Party/LoRaWAN/Mac/LoRaMacClassB.c ****     TimerTime_t beaconEventTime = 1;
 663:../../../../../../Middlewares/Third_Party/LoRaWAN/Mac/LoRaMacClassB.c ****     TimerTime_t currentTime = Ctx.NvmCtx->BeaconCtx.TimeStamp;
 664:../../../../../../Middlewares/Third_Party/LoRaWAN/Mac/LoRaMacClassB.c **** 
 665:../../../../../../Middlewares/Third_Party/LoRaWAN/Mac/LoRaMacClassB.c ****     // Beacon state machine
 666:../../../../../../Middlewares/Third_Party/LoRaWAN/Mac/LoRaMacClassB.c ****     switch( Ctx.NvmCtx->BeaconState )
 667:../../../../../../Middlewares/Third_Party/LoRaWAN/Mac/LoRaMacClassB.c ****     {
 668:../../../../../../Middlewares/Third_Party/LoRaWAN/Mac/LoRaMacClassB.c ****         case BEACON_STATE_ACQUISITION_BY_TIME:
 669:../../../../../../Middlewares/Third_Party/LoRaWAN/Mac/LoRaMacClassB.c ****         {
 670:../../../../../../Middlewares/Third_Party/LoRaWAN/Mac/LoRaMacClassB.c ****             activateTimer = true;
 671:../../../../../../Middlewares/Third_Party/LoRaWAN/Mac/LoRaMacClassB.c **** 
 672:../../../../../../Middlewares/Third_Party/LoRaWAN/Mac/LoRaMacClassB.c ****             if( Ctx.NvmCtx->BeaconCtx.Ctrl.AcquisitionPending == 1 )
 673:../../../../../../Middlewares/Third_Party/LoRaWAN/Mac/LoRaMacClassB.c ****             {
 674:../../../../../../Middlewares/Third_Party/LoRaWAN/Mac/LoRaMacClassB.c ****                 Radio.Sleep();
 675:../../../../../../Middlewares/Third_Party/LoRaWAN/Mac/LoRaMacClassB.c ****                 Ctx.NvmCtx->BeaconState = BEACON_STATE_LOST;
 676:../../../../../../Middlewares/Third_Party/LoRaWAN/Mac/LoRaMacClassB.c ****             }
 677:../../../../../../Middlewares/Third_Party/LoRaWAN/Mac/LoRaMacClassB.c ****             else
 678:../../../../../../Middlewares/Third_Party/LoRaWAN/Mac/LoRaMacClassB.c ****             {
 679:../../../../../../Middlewares/Third_Party/LoRaWAN/Mac/LoRaMacClassB.c ****                 // Default symbol timeouts
 680:../../../../../../Middlewares/Third_Party/LoRaWAN/Mac/LoRaMacClassB.c ****                 ResetWindowTimeout( );
 681:../../../../../../Middlewares/Third_Party/LoRaWAN/Mac/LoRaMacClassB.c **** 
 682:../../../../../../Middlewares/Third_Party/LoRaWAN/Mac/LoRaMacClassB.c ****                 if( Ctx.NvmCtx->BeaconCtx.Ctrl.BeaconDelaySet == 1 )
 683:../../../../../../Middlewares/Third_Party/LoRaWAN/Mac/LoRaMacClassB.c ****                 {
 684:../../../../../../Middlewares/Third_Party/LoRaWAN/Mac/LoRaMacClassB.c ****                     if( Ctx.NvmCtx->BeaconCtx.BeaconTimingDelay > 0 )
 685:../../../../../../Middlewares/Third_Party/LoRaWAN/Mac/LoRaMacClassB.c ****                     {
 686:../../../../../../Middlewares/Third_Party/LoRaWAN/Mac/LoRaMacClassB.c ****                         if( Ctx.NvmCtx->BeaconCtx.NextBeaconRx > currentTime )
 687:../../../../../../Middlewares/Third_Party/LoRaWAN/Mac/LoRaMacClassB.c ****                         {
 688:../../../../../../Middlewares/Third_Party/LoRaWAN/Mac/LoRaMacClassB.c ****                             beaconEventTime = TimerTempCompensation( Ctx.NvmCtx->BeaconCtx.NextBeac
 689:../../../../../../Middlewares/Third_Party/LoRaWAN/Mac/LoRaMacClassB.c ****                         }
 690:../../../../../../Middlewares/Third_Party/LoRaWAN/Mac/LoRaMacClassB.c ****                         else
 691:../../../../../../Middlewares/Third_Party/LoRaWAN/Mac/LoRaMacClassB.c ****                         {
 692:../../../../../../Middlewares/Third_Party/LoRaWAN/Mac/LoRaMacClassB.c ****                             // Reset status provides by BeaconTimingAns
 693:../../../../../../Middlewares/Third_Party/LoRaWAN/Mac/LoRaMacClassB.c ****                             Ctx.NvmCtx->BeaconCtx.Ctrl.BeaconDelaySet = 0;
 694:../../../../../../Middlewares/Third_Party/LoRaWAN/Mac/LoRaMacClassB.c ****                             Ctx.NvmCtx->BeaconCtx.Ctrl.BeaconChannelSet = 0;
 695:../../../../../../Middlewares/Third_Party/LoRaWAN/Mac/LoRaMacClassB.c ****                             Ctx.NvmCtx->BeaconState = BEACON_STATE_ACQUISITION;
 696:../../../../../../Middlewares/Third_Party/LoRaWAN/Mac/LoRaMacClassB.c ****                         }
 697:../../../../../../Middlewares/Third_Party/LoRaWAN/Mac/LoRaMacClassB.c ****                         Ctx.NvmCtx->BeaconCtx.BeaconTimingDelay = 0;
 698:../../../../../../Middlewares/Third_Party/LoRaWAN/Mac/LoRaMacClassB.c ****                     }
 699:../../../../../../Middlewares/Third_Party/LoRaWAN/Mac/LoRaMacClassB.c ****                     else
 700:../../../../../../Middlewares/Third_Party/LoRaWAN/Mac/LoRaMacClassB.c ****                     {
 701:../../../../../../Middlewares/Third_Party/LoRaWAN/Mac/LoRaMacClassB.c ****                         activateTimer = false;
 702:../../../../../../Middlewares/Third_Party/LoRaWAN/Mac/LoRaMacClassB.c **** 
 703:../../../../../../Middlewares/Third_Party/LoRaWAN/Mac/LoRaMacClassB.c ****                         // Reset status provides by BeaconTimingAns
 704:../../../../../../Middlewares/Third_Party/LoRaWAN/Mac/LoRaMacClassB.c ****                         Ctx.NvmCtx->BeaconCtx.Ctrl.BeaconDelaySet = 0;
 705:../../../../../../Middlewares/Third_Party/LoRaWAN/Mac/LoRaMacClassB.c ****                         // Set the node into acquisition mode
 706:../../../../../../Middlewares/Third_Party/LoRaWAN/Mac/LoRaMacClassB.c ****                         Ctx.NvmCtx->BeaconCtx.Ctrl.AcquisitionPending = 1;
 707:../../../../../../Middlewares/Third_Party/LoRaWAN/Mac/LoRaMacClassB.c **** 
 708:../../../../../../Middlewares/Third_Party/LoRaWAN/Mac/LoRaMacClassB.c ****                         // Don't use the default channel. We know on which
 709:../../../../../../Middlewares/Third_Party/LoRaWAN/Mac/LoRaMacClassB.c ****                         // channel the next beacon will be transmitted
 710:../../../../../../Middlewares/Third_Party/LoRaWAN/Mac/LoRaMacClassB.c ****                         RxBeaconSetup( CLASSB_BEACON_RESERVED, false );
 711:../../../../../../Middlewares/Third_Party/LoRaWAN/Mac/LoRaMacClassB.c ****                     }
 712:../../../../../../Middlewares/Third_Party/LoRaWAN/Mac/LoRaMacClassB.c ****                 }
 713:../../../../../../Middlewares/Third_Party/LoRaWAN/Mac/LoRaMacClassB.c ****                 else
 714:../../../../../../Middlewares/Third_Party/LoRaWAN/Mac/LoRaMacClassB.c ****                 {
 715:../../../../../../Middlewares/Third_Party/LoRaWAN/Mac/LoRaMacClassB.c ****                     Ctx.NvmCtx->BeaconCtx.NextBeaconRx = 0;
ARM GAS  C:\Users\EBANO_~1\AppData\Local\Temp\ccis3phW.s 			page 18


 716:../../../../../../Middlewares/Third_Party/LoRaWAN/Mac/LoRaMacClassB.c ****                     Ctx.NvmCtx->BeaconCtx.BeaconTimingDelay = 0;
 717:../../../../../../Middlewares/Third_Party/LoRaWAN/Mac/LoRaMacClassB.c **** 
 718:../../../../../../Middlewares/Third_Party/LoRaWAN/Mac/LoRaMacClassB.c ****                     Ctx.NvmCtx->BeaconState = BEACON_STATE_ACQUISITION;
 719:../../../../../../Middlewares/Third_Party/LoRaWAN/Mac/LoRaMacClassB.c ****                 }
 720:../../../../../../Middlewares/Third_Party/LoRaWAN/Mac/LoRaMacClassB.c ****             }
 721:../../../../../../Middlewares/Third_Party/LoRaWAN/Mac/LoRaMacClassB.c ****             break;
 722:../../../../../../Middlewares/Third_Party/LoRaWAN/Mac/LoRaMacClassB.c ****         }
 723:../../../../../../Middlewares/Third_Party/LoRaWAN/Mac/LoRaMacClassB.c ****         case BEACON_STATE_ACQUISITION:
 724:../../../../../../Middlewares/Third_Party/LoRaWAN/Mac/LoRaMacClassB.c ****         {
 725:../../../../../../Middlewares/Third_Party/LoRaWAN/Mac/LoRaMacClassB.c ****             activateTimer = true;
 726:../../../../../../Middlewares/Third_Party/LoRaWAN/Mac/LoRaMacClassB.c **** 
 727:../../../../../../Middlewares/Third_Party/LoRaWAN/Mac/LoRaMacClassB.c ****             if( Ctx.NvmCtx->BeaconCtx.Ctrl.AcquisitionPending == 1 )
 728:../../../../../../Middlewares/Third_Party/LoRaWAN/Mac/LoRaMacClassB.c ****             {
 729:../../../../../../Middlewares/Third_Party/LoRaWAN/Mac/LoRaMacClassB.c ****                 Radio.Sleep();
 730:../../../../../../Middlewares/Third_Party/LoRaWAN/Mac/LoRaMacClassB.c ****                 Ctx.NvmCtx->BeaconState = BEACON_STATE_LOST;
 731:../../../../../../Middlewares/Third_Party/LoRaWAN/Mac/LoRaMacClassB.c ****             }
 732:../../../../../../Middlewares/Third_Party/LoRaWAN/Mac/LoRaMacClassB.c ****             else
 733:../../../../../../Middlewares/Third_Party/LoRaWAN/Mac/LoRaMacClassB.c ****             {
 734:../../../../../../Middlewares/Third_Party/LoRaWAN/Mac/LoRaMacClassB.c ****                 // Default symbol timeouts
 735:../../../../../../Middlewares/Third_Party/LoRaWAN/Mac/LoRaMacClassB.c ****                 ResetWindowTimeout( );
 736:../../../../../../Middlewares/Third_Party/LoRaWAN/Mac/LoRaMacClassB.c **** 
 737:../../../../../../Middlewares/Third_Party/LoRaWAN/Mac/LoRaMacClassB.c ****                 Ctx.NvmCtx->BeaconCtx.Ctrl.AcquisitionPending = 1;
 738:../../../../../../Middlewares/Third_Party/LoRaWAN/Mac/LoRaMacClassB.c ****                 beaconEventTime = CLASSB_BEACON_INTERVAL;
 739:../../../../../../Middlewares/Third_Party/LoRaWAN/Mac/LoRaMacClassB.c **** 
 740:../../../../../../Middlewares/Third_Party/LoRaWAN/Mac/LoRaMacClassB.c ****                 // Start the beacon acquisition. When the MAC has received a beacon in function
 741:../../../../../../Middlewares/Third_Party/LoRaWAN/Mac/LoRaMacClassB.c ****                 // RxBeacon successfully, the next state is BEACON_STATE_LOCKED. If the MAC does no
 742:../../../../../../Middlewares/Third_Party/LoRaWAN/Mac/LoRaMacClassB.c ****                 // find a beacon, the state machine will stay in state BEACON_STATE_ACQUISITION.
 743:../../../../../../Middlewares/Third_Party/LoRaWAN/Mac/LoRaMacClassB.c ****                 // This state detects that a acquisition was pending previously and will change the
 744:../../../../../../Middlewares/Third_Party/LoRaWAN/Mac/LoRaMacClassB.c ****                 // state to BEACON_STATE_LOST.
 745:../../../../../../Middlewares/Third_Party/LoRaWAN/Mac/LoRaMacClassB.c ****                 RxBeaconSetup( 0, true );
 746:../../../../../../Middlewares/Third_Party/LoRaWAN/Mac/LoRaMacClassB.c ****             }
 747:../../../../../../Middlewares/Third_Party/LoRaWAN/Mac/LoRaMacClassB.c ****             break;
 748:../../../../../../Middlewares/Third_Party/LoRaWAN/Mac/LoRaMacClassB.c ****         }
 749:../../../../../../Middlewares/Third_Party/LoRaWAN/Mac/LoRaMacClassB.c ****         case BEACON_STATE_TIMEOUT:
 750:../../../../../../Middlewares/Third_Party/LoRaWAN/Mac/LoRaMacClassB.c ****         {
 751:../../../../../../Middlewares/Third_Party/LoRaWAN/Mac/LoRaMacClassB.c ****             // We have to update the beacon time, since we missed a beacon
 752:../../../../../../Middlewares/Third_Party/LoRaWAN/Mac/LoRaMacClassB.c ****             Ctx.NvmCtx->BeaconCtx.BeaconTime += ( CLASSB_BEACON_INTERVAL / 1000 );
 753:../../../../../../Middlewares/Third_Party/LoRaWAN/Mac/LoRaMacClassB.c **** 
 754:../../../../../../Middlewares/Third_Party/LoRaWAN/Mac/LoRaMacClassB.c ****             // Enlarge window timeouts to increase the chance to receive the next beacon
 755:../../../../../../Middlewares/Third_Party/LoRaWAN/Mac/LoRaMacClassB.c ****             EnlargeWindowTimeout( );
 756:../../../../../../Middlewares/Third_Party/LoRaWAN/Mac/LoRaMacClassB.c **** 
 757:../../../../../../Middlewares/Third_Party/LoRaWAN/Mac/LoRaMacClassB.c ****             // Setup next state
 758:../../../../../../Middlewares/Third_Party/LoRaWAN/Mac/LoRaMacClassB.c ****             Ctx.NvmCtx->BeaconState = BEACON_STATE_REACQUISITION;
 759:../../../../../../Middlewares/Third_Party/LoRaWAN/Mac/LoRaMacClassB.c ****         }
 760:../../../../../../Middlewares/Third_Party/LoRaWAN/Mac/LoRaMacClassB.c ****             // Intentional fall through
 761:../../../../../../Middlewares/Third_Party/LoRaWAN/Mac/LoRaMacClassB.c ****         case BEACON_STATE_REACQUISITION:
 762:../../../../../../Middlewares/Third_Party/LoRaWAN/Mac/LoRaMacClassB.c ****         {
 763:../../../../../../Middlewares/Third_Party/LoRaWAN/Mac/LoRaMacClassB.c ****             activateTimer = true;
 764:../../../../../../Middlewares/Third_Party/LoRaWAN/Mac/LoRaMacClassB.c **** 
 765:../../../../../../Middlewares/Third_Party/LoRaWAN/Mac/LoRaMacClassB.c ****             // The beacon is no longer acquired
 766:../../../../../../Middlewares/Third_Party/LoRaWAN/Mac/LoRaMacClassB.c ****             Ctx.NvmCtx->BeaconCtx.Ctrl.BeaconAcquired = 0;
 767:../../../../../../Middlewares/Third_Party/LoRaWAN/Mac/LoRaMacClassB.c **** 
 768:../../../../../../Middlewares/Third_Party/LoRaWAN/Mac/LoRaMacClassB.c ****             // Verify if the maximum beacon less period has been elapsed
 769:../../../../../../Middlewares/Third_Party/LoRaWAN/Mac/LoRaMacClassB.c ****             if( ( currentTime - Ctx.NvmCtx->BeaconCtx.LastBeaconRx ) > CLASSB_MAX_BEACON_LESS_PERIO
 770:../../../../../../Middlewares/Third_Party/LoRaWAN/Mac/LoRaMacClassB.c ****             {
 771:../../../../../../Middlewares/Third_Party/LoRaWAN/Mac/LoRaMacClassB.c ****                 Ctx.NvmCtx->BeaconState = BEACON_STATE_LOST;
 772:../../../../../../Middlewares/Third_Party/LoRaWAN/Mac/LoRaMacClassB.c ****             }
ARM GAS  C:\Users\EBANO_~1\AppData\Local\Temp\ccis3phW.s 			page 19


 773:../../../../../../Middlewares/Third_Party/LoRaWAN/Mac/LoRaMacClassB.c ****             else
 774:../../../../../../Middlewares/Third_Party/LoRaWAN/Mac/LoRaMacClassB.c ****             {
 775:../../../../../../Middlewares/Third_Party/LoRaWAN/Mac/LoRaMacClassB.c ****                 // Handle beacon miss
 776:../../../../../../Middlewares/Third_Party/LoRaWAN/Mac/LoRaMacClassB.c ****                 beaconEventTime = UpdateBeaconState( LORAMAC_EVENT_INFO_STATUS_BEACON_LOST,
 777:../../../../../../Middlewares/Third_Party/LoRaWAN/Mac/LoRaMacClassB.c ****                                                      Ctx.NvmCtx->BeaconCtx.BeaconWindowMovement, cu
 778:../../../../../../Middlewares/Third_Party/LoRaWAN/Mac/LoRaMacClassB.c **** 
 779:../../../../../../Middlewares/Third_Party/LoRaWAN/Mac/LoRaMacClassB.c ****                 // Setup next state
 780:../../../../../../Middlewares/Third_Party/LoRaWAN/Mac/LoRaMacClassB.c ****                 Ctx.NvmCtx->BeaconState = BEACON_STATE_IDLE;
 781:../../../../../../Middlewares/Third_Party/LoRaWAN/Mac/LoRaMacClassB.c ****             }
 782:../../../../../../Middlewares/Third_Party/LoRaWAN/Mac/LoRaMacClassB.c ****             break;
 783:../../../../../../Middlewares/Third_Party/LoRaWAN/Mac/LoRaMacClassB.c ****         }
 784:../../../../../../Middlewares/Third_Party/LoRaWAN/Mac/LoRaMacClassB.c ****         case BEACON_STATE_LOCKED:
 785:../../../../../../Middlewares/Third_Party/LoRaWAN/Mac/LoRaMacClassB.c ****         {
 786:../../../../../../Middlewares/Third_Party/LoRaWAN/Mac/LoRaMacClassB.c ****             activateTimer = true;
 787:../../../../../../Middlewares/Third_Party/LoRaWAN/Mac/LoRaMacClassB.c **** 
 788:../../../../../../Middlewares/Third_Party/LoRaWAN/Mac/LoRaMacClassB.c ****             // We have received a beacon. Acquisition is no longer pending.
 789:../../../../../../Middlewares/Third_Party/LoRaWAN/Mac/LoRaMacClassB.c ****             Ctx.NvmCtx->BeaconCtx.Ctrl.AcquisitionPending = 0;
 790:../../../../../../Middlewares/Third_Party/LoRaWAN/Mac/LoRaMacClassB.c **** 
 791:../../../../../../Middlewares/Third_Party/LoRaWAN/Mac/LoRaMacClassB.c ****             // Handle beacon reception
 792:../../../../../../Middlewares/Third_Party/LoRaWAN/Mac/LoRaMacClassB.c ****             beaconEventTime = UpdateBeaconState( LORAMAC_EVENT_INFO_STATUS_BEACON_LOCKED,
 793:../../../../../../Middlewares/Third_Party/LoRaWAN/Mac/LoRaMacClassB.c ****                                                  0, currentTime );
 794:../../../../../../Middlewares/Third_Party/LoRaWAN/Mac/LoRaMacClassB.c **** 
 795:../../../../../../Middlewares/Third_Party/LoRaWAN/Mac/LoRaMacClassB.c ****             // Setup the MLME confirm for the MLME_BEACON_ACQUISITION
 796:../../../../../../Middlewares/Third_Party/LoRaWAN/Mac/LoRaMacClassB.c ****             if( Ctx.LoRaMacClassBParams.LoRaMacFlags->Bits.MlmeReq == 1 )
 797:../../../../../../Middlewares/Third_Party/LoRaWAN/Mac/LoRaMacClassB.c ****             {
 798:../../../../../../Middlewares/Third_Party/LoRaWAN/Mac/LoRaMacClassB.c ****                 if( LoRaMacConfirmQueueIsCmdActive( MLME_BEACON_ACQUISITION ) == true )
 799:../../../../../../Middlewares/Third_Party/LoRaWAN/Mac/LoRaMacClassB.c ****                 {
 800:../../../../../../Middlewares/Third_Party/LoRaWAN/Mac/LoRaMacClassB.c ****                     LoRaMacConfirmQueueSetStatus( LORAMAC_EVENT_INFO_STATUS_OK, MLME_BEACON_ACQUISI
 801:../../../../../../Middlewares/Third_Party/LoRaWAN/Mac/LoRaMacClassB.c ****                     Ctx.LoRaMacClassBParams.MlmeConfirm->TxTimeOnAir = 0;
 802:../../../../../../Middlewares/Third_Party/LoRaWAN/Mac/LoRaMacClassB.c ****                 }
 803:../../../../../../Middlewares/Third_Party/LoRaWAN/Mac/LoRaMacClassB.c ****             }
 804:../../../../../../Middlewares/Third_Party/LoRaWAN/Mac/LoRaMacClassB.c **** 
 805:../../../../../../Middlewares/Third_Party/LoRaWAN/Mac/LoRaMacClassB.c ****             // Setup next state
 806:../../../../../../Middlewares/Third_Party/LoRaWAN/Mac/LoRaMacClassB.c ****             Ctx.NvmCtx->BeaconState = BEACON_STATE_IDLE;
 807:../../../../../../Middlewares/Third_Party/LoRaWAN/Mac/LoRaMacClassB.c ****             break;
 808:../../../../../../Middlewares/Third_Party/LoRaWAN/Mac/LoRaMacClassB.c ****         }
 809:../../../../../../Middlewares/Third_Party/LoRaWAN/Mac/LoRaMacClassB.c ****         case BEACON_STATE_IDLE:
 810:../../../../../../Middlewares/Third_Party/LoRaWAN/Mac/LoRaMacClassB.c ****         {
 811:../../../../../../Middlewares/Third_Party/LoRaWAN/Mac/LoRaMacClassB.c ****             activateTimer = true;
 812:../../../../../../Middlewares/Third_Party/LoRaWAN/Mac/LoRaMacClassB.c ****             GetTemperatureLevel( &Ctx.LoRaMacClassBCallbacks, &Ctx.NvmCtx->BeaconCtx );
 813:../../../../../../Middlewares/Third_Party/LoRaWAN/Mac/LoRaMacClassB.c ****             beaconEventTime = Ctx.NvmCtx->BeaconCtx.NextBeaconRxAdjusted - Radio.GetWakeupTime( );
 814:../../../../../../Middlewares/Third_Party/LoRaWAN/Mac/LoRaMacClassB.c ****             currentTime = TimerGetCurrentTime( );
 815:../../../../../../Middlewares/Third_Party/LoRaWAN/Mac/LoRaMacClassB.c **** 
 816:../../../../../../Middlewares/Third_Party/LoRaWAN/Mac/LoRaMacClassB.c ****             if( beaconEventTime > currentTime )
 817:../../../../../../Middlewares/Third_Party/LoRaWAN/Mac/LoRaMacClassB.c ****             {
 818:../../../../../../Middlewares/Third_Party/LoRaWAN/Mac/LoRaMacClassB.c ****                 Ctx.NvmCtx->BeaconState = BEACON_STATE_GUARD;
 819:../../../../../../Middlewares/Third_Party/LoRaWAN/Mac/LoRaMacClassB.c ****                 beaconEventTime -= currentTime;
 820:../../../../../../Middlewares/Third_Party/LoRaWAN/Mac/LoRaMacClassB.c ****                 beaconEventTime = TimerTempCompensation( beaconEventTime, Ctx.NvmCtx->BeaconCtx.Tem
 821:../../../../../../Middlewares/Third_Party/LoRaWAN/Mac/LoRaMacClassB.c ****             }
 822:../../../../../../Middlewares/Third_Party/LoRaWAN/Mac/LoRaMacClassB.c ****             else
 823:../../../../../../Middlewares/Third_Party/LoRaWAN/Mac/LoRaMacClassB.c ****             {
 824:../../../../../../Middlewares/Third_Party/LoRaWAN/Mac/LoRaMacClassB.c ****                 Ctx.NvmCtx->BeaconState = BEACON_STATE_REACQUISITION;
 825:../../../../../../Middlewares/Third_Party/LoRaWAN/Mac/LoRaMacClassB.c ****                 beaconEventTime = 1;
 826:../../../../../../Middlewares/Third_Party/LoRaWAN/Mac/LoRaMacClassB.c ****             }
 827:../../../../../../Middlewares/Third_Party/LoRaWAN/Mac/LoRaMacClassB.c ****             break;
 828:../../../../../../Middlewares/Third_Party/LoRaWAN/Mac/LoRaMacClassB.c ****         }
 829:../../../../../../Middlewares/Third_Party/LoRaWAN/Mac/LoRaMacClassB.c ****         case BEACON_STATE_GUARD:
ARM GAS  C:\Users\EBANO_~1\AppData\Local\Temp\ccis3phW.s 			page 20


 830:../../../../../../Middlewares/Third_Party/LoRaWAN/Mac/LoRaMacClassB.c ****         {
 831:../../../../../../Middlewares/Third_Party/LoRaWAN/Mac/LoRaMacClassB.c ****             Ctx.NvmCtx->BeaconState = BEACON_STATE_RX;
 832:../../../../../../Middlewares/Third_Party/LoRaWAN/Mac/LoRaMacClassB.c **** 
 833:../../../../../../Middlewares/Third_Party/LoRaWAN/Mac/LoRaMacClassB.c ****             // Stop slot timers
 834:../../../../../../Middlewares/Third_Party/LoRaWAN/Mac/LoRaMacClassB.c ****             LoRaMacClassBStopRxSlots( );
 835:../../../../../../Middlewares/Third_Party/LoRaWAN/Mac/LoRaMacClassB.c **** 
 836:../../../../../../Middlewares/Third_Party/LoRaWAN/Mac/LoRaMacClassB.c ****             // Don't use the default channel. We know on which
 837:../../../../../../Middlewares/Third_Party/LoRaWAN/Mac/LoRaMacClassB.c ****             // channel the next beacon will be transmitted
 838:../../../../../../Middlewares/Third_Party/LoRaWAN/Mac/LoRaMacClassB.c ****             RxBeaconSetup( CLASSB_BEACON_RESERVED, false );
 839:../../../../../../Middlewares/Third_Party/LoRaWAN/Mac/LoRaMacClassB.c ****             break;
 840:../../../../../../Middlewares/Third_Party/LoRaWAN/Mac/LoRaMacClassB.c ****         }
 841:../../../../../../Middlewares/Third_Party/LoRaWAN/Mac/LoRaMacClassB.c ****         case BEACON_STATE_LOST:
 842:../../../../../../Middlewares/Third_Party/LoRaWAN/Mac/LoRaMacClassB.c ****         {
 843:../../../../../../Middlewares/Third_Party/LoRaWAN/Mac/LoRaMacClassB.c ****             // Handle events
 844:../../../../../../Middlewares/Third_Party/LoRaWAN/Mac/LoRaMacClassB.c ****             if( Ctx.LoRaMacClassBParams.LoRaMacFlags->Bits.MlmeReq == 1 )
 845:../../../../../../Middlewares/Third_Party/LoRaWAN/Mac/LoRaMacClassB.c ****             {
 846:../../../../../../Middlewares/Third_Party/LoRaWAN/Mac/LoRaMacClassB.c ****                 if( LoRaMacConfirmQueueIsCmdActive( MLME_BEACON_ACQUISITION ) == true )
 847:../../../../../../Middlewares/Third_Party/LoRaWAN/Mac/LoRaMacClassB.c ****                 {
 848:../../../../../../Middlewares/Third_Party/LoRaWAN/Mac/LoRaMacClassB.c ****                     LoRaMacConfirmQueueSetStatus( LORAMAC_EVENT_INFO_STATUS_BEACON_NOT_FOUND, MLME_
 849:../../../../../../Middlewares/Third_Party/LoRaWAN/Mac/LoRaMacClassB.c ****                 }
 850:../../../../../../Middlewares/Third_Party/LoRaWAN/Mac/LoRaMacClassB.c ****             }
 851:../../../../../../Middlewares/Third_Party/LoRaWAN/Mac/LoRaMacClassB.c ****             else
 852:../../../../../../Middlewares/Third_Party/LoRaWAN/Mac/LoRaMacClassB.c ****             {
 853:../../../../../../Middlewares/Third_Party/LoRaWAN/Mac/LoRaMacClassB.c ****                 Ctx.LoRaMacClassBParams.MlmeIndication->MlmeIndication = MLME_BEACON_LOST;
 854:../../../../../../Middlewares/Third_Party/LoRaWAN/Mac/LoRaMacClassB.c ****                 Ctx.LoRaMacClassBParams.MlmeIndication->Status = LORAMAC_EVENT_INFO_STATUS_OK;
 855:../../../../../../Middlewares/Third_Party/LoRaWAN/Mac/LoRaMacClassB.c ****                 Ctx.LoRaMacClassBParams.LoRaMacFlags->Bits.MlmeInd = 1;
 856:../../../../../../Middlewares/Third_Party/LoRaWAN/Mac/LoRaMacClassB.c ****             }
 857:../../../../../../Middlewares/Third_Party/LoRaWAN/Mac/LoRaMacClassB.c **** 
 858:../../../../../../Middlewares/Third_Party/LoRaWAN/Mac/LoRaMacClassB.c ****             // Stop slot timers
 859:../../../../../../Middlewares/Third_Party/LoRaWAN/Mac/LoRaMacClassB.c ****             LoRaMacClassBStopRxSlots( );
 860:../../../../../../Middlewares/Third_Party/LoRaWAN/Mac/LoRaMacClassB.c **** 
 861:../../../../../../Middlewares/Third_Party/LoRaWAN/Mac/LoRaMacClassB.c ****             // Initialize default state for class b
 862:../../../../../../Middlewares/Third_Party/LoRaWAN/Mac/LoRaMacClassB.c ****             InitClassBDefaults( );
 863:../../../../../../Middlewares/Third_Party/LoRaWAN/Mac/LoRaMacClassB.c **** 
 864:../../../../../../Middlewares/Third_Party/LoRaWAN/Mac/LoRaMacClassB.c ****             Ctx.LoRaMacClassBParams.LoRaMacFlags->Bits.MacDone = 1;
 865:../../../../../../Middlewares/Third_Party/LoRaWAN/Mac/LoRaMacClassB.c **** 
 866:../../../../../../Middlewares/Third_Party/LoRaWAN/Mac/LoRaMacClassB.c ****             break;
 867:../../../../../../Middlewares/Third_Party/LoRaWAN/Mac/LoRaMacClassB.c ****         }
 868:../../../../../../Middlewares/Third_Party/LoRaWAN/Mac/LoRaMacClassB.c ****         default:
 869:../../../../../../Middlewares/Third_Party/LoRaWAN/Mac/LoRaMacClassB.c ****         {
 870:../../../../../../Middlewares/Third_Party/LoRaWAN/Mac/LoRaMacClassB.c ****             Ctx.NvmCtx->BeaconState = BEACON_STATE_ACQUISITION;
 871:../../../../../../Middlewares/Third_Party/LoRaWAN/Mac/LoRaMacClassB.c ****             break;
 872:../../../../../../Middlewares/Third_Party/LoRaWAN/Mac/LoRaMacClassB.c ****         }
 873:../../../../../../Middlewares/Third_Party/LoRaWAN/Mac/LoRaMacClassB.c ****     }
 874:../../../../../../Middlewares/Third_Party/LoRaWAN/Mac/LoRaMacClassB.c **** 
 875:../../../../../../Middlewares/Third_Party/LoRaWAN/Mac/LoRaMacClassB.c ****     if( activateTimer == true )
 876:../../../../../../Middlewares/Third_Party/LoRaWAN/Mac/LoRaMacClassB.c ****     {
 877:../../../../../../Middlewares/Third_Party/LoRaWAN/Mac/LoRaMacClassB.c ****         TimerSetValue( &Ctx.BeaconTimer, beaconEventTime );
 878:../../../../../../Middlewares/Third_Party/LoRaWAN/Mac/LoRaMacClassB.c ****         TimerStart( &Ctx.BeaconTimer );
 879:../../../../../../Middlewares/Third_Party/LoRaWAN/Mac/LoRaMacClassB.c ****     }
 880:../../../../../../Middlewares/Third_Party/LoRaWAN/Mac/LoRaMacClassB.c **** 
 881:../../../../../../Middlewares/Third_Party/LoRaWAN/Mac/LoRaMacClassB.c ****     NvmContextChange( );
 882:../../../../../../Middlewares/Third_Party/LoRaWAN/Mac/LoRaMacClassB.c **** }
 883:../../../../../../Middlewares/Third_Party/LoRaWAN/Mac/LoRaMacClassB.c **** #endif // LORAMAC_CLASSB_ENABLED
 884:../../../../../../Middlewares/Third_Party/LoRaWAN/Mac/LoRaMacClassB.c **** 
 885:../../../../../../Middlewares/Third_Party/LoRaWAN/Mac/LoRaMacClassB.c **** void LoRaMacClassBPingSlotTimerEvent( void* context )
 886:../../../../../../Middlewares/Third_Party/LoRaWAN/Mac/LoRaMacClassB.c **** {
ARM GAS  C:\Users\EBANO_~1\AppData\Local\Temp\ccis3phW.s 			page 21


 887:../../../../../../Middlewares/Third_Party/LoRaWAN/Mac/LoRaMacClassB.c **** #ifdef LORAMAC_CLASSB_ENABLED
 888:../../../../../../Middlewares/Third_Party/LoRaWAN/Mac/LoRaMacClassB.c ****     LoRaMacClassBEvents.Events.PingSlot = 1;
 889:../../../../../../Middlewares/Third_Party/LoRaWAN/Mac/LoRaMacClassB.c **** 
 890:../../../../../../Middlewares/Third_Party/LoRaWAN/Mac/LoRaMacClassB.c ****     if( Ctx.LoRaMacClassBCallbacks.MacProcessNotify != NULL )
 891:../../../../../../Middlewares/Third_Party/LoRaWAN/Mac/LoRaMacClassB.c ****     {
 892:../../../../../../Middlewares/Third_Party/LoRaWAN/Mac/LoRaMacClassB.c ****         Ctx.LoRaMacClassBCallbacks.MacProcessNotify( );
 893:../../../../../../Middlewares/Third_Party/LoRaWAN/Mac/LoRaMacClassB.c ****     }
 894:../../../../../../Middlewares/Third_Party/LoRaWAN/Mac/LoRaMacClassB.c **** #endif // LORAMAC_CLASSB_ENABLED
 895:../../../../../../Middlewares/Third_Party/LoRaWAN/Mac/LoRaMacClassB.c **** }
 896:../../../../../../Middlewares/Third_Party/LoRaWAN/Mac/LoRaMacClassB.c **** 
 897:../../../../../../Middlewares/Third_Party/LoRaWAN/Mac/LoRaMacClassB.c **** #ifdef LORAMAC_CLASSB_ENABLED
 898:../../../../../../Middlewares/Third_Party/LoRaWAN/Mac/LoRaMacClassB.c **** static void LoRaMacClassBProcessPingSlot( void )
 899:../../../../../../Middlewares/Third_Party/LoRaWAN/Mac/LoRaMacClassB.c **** {
 900:../../../../../../Middlewares/Third_Party/LoRaWAN/Mac/LoRaMacClassB.c ****     static RxConfigParams_t pingSlotRxConfig;
 901:../../../../../../Middlewares/Third_Party/LoRaWAN/Mac/LoRaMacClassB.c ****     TimerTime_t pingSlotTime = 0;
 902:../../../../../../Middlewares/Third_Party/LoRaWAN/Mac/LoRaMacClassB.c **** 
 903:../../../../../../Middlewares/Third_Party/LoRaWAN/Mac/LoRaMacClassB.c ****     switch( Ctx.NvmCtx->PingSlotState )
 904:../../../../../../Middlewares/Third_Party/LoRaWAN/Mac/LoRaMacClassB.c ****     {
 905:../../../../../../Middlewares/Third_Party/LoRaWAN/Mac/LoRaMacClassB.c ****         case PINGSLOT_STATE_CALC_PING_OFFSET:
 906:../../../../../../Middlewares/Third_Party/LoRaWAN/Mac/LoRaMacClassB.c ****         {
 907:../../../../../../Middlewares/Third_Party/LoRaWAN/Mac/LoRaMacClassB.c ****             ComputePingOffset( Ctx.NvmCtx->BeaconCtx.BeaconTime,
 908:../../../../../../Middlewares/Third_Party/LoRaWAN/Mac/LoRaMacClassB.c ****                                             *Ctx.LoRaMacClassBParams.LoRaMacDevAddr,
 909:../../../../../../Middlewares/Third_Party/LoRaWAN/Mac/LoRaMacClassB.c ****                                             Ctx.NvmCtx->PingSlotCtx.PingPeriod,
 910:../../../../../../Middlewares/Third_Party/LoRaWAN/Mac/LoRaMacClassB.c ****                                             &( Ctx.NvmCtx->PingSlotCtx.PingOffset ) );
 911:../../../../../../Middlewares/Third_Party/LoRaWAN/Mac/LoRaMacClassB.c ****             Ctx.NvmCtx->PingSlotState = PINGSLOT_STATE_SET_TIMER;
 912:../../../../../../Middlewares/Third_Party/LoRaWAN/Mac/LoRaMacClassB.c ****         }
 913:../../../../../../Middlewares/Third_Party/LoRaWAN/Mac/LoRaMacClassB.c ****             // Intentional fall through
 914:../../../../../../Middlewares/Third_Party/LoRaWAN/Mac/LoRaMacClassB.c ****         case PINGSLOT_STATE_SET_TIMER:
 915:../../../../../../Middlewares/Third_Party/LoRaWAN/Mac/LoRaMacClassB.c ****         {
 916:../../../../../../Middlewares/Third_Party/LoRaWAN/Mac/LoRaMacClassB.c ****             if( CalcNextSlotTime( Ctx.NvmCtx->PingSlotCtx.PingOffset, Ctx.NvmCtx->PingSlotCtx.PingP
 917:../../../../../../Middlewares/Third_Party/LoRaWAN/Mac/LoRaMacClassB.c ****             {
 918:../../../../../../Middlewares/Third_Party/LoRaWAN/Mac/LoRaMacClassB.c ****                 if( Ctx.NvmCtx->BeaconCtx.Ctrl.BeaconAcquired == 1 )
 919:../../../../../../Middlewares/Third_Party/LoRaWAN/Mac/LoRaMacClassB.c ****                 {
 920:../../../../../../Middlewares/Third_Party/LoRaWAN/Mac/LoRaMacClassB.c ****                     // Compute the symbol timeout. Apply it only, if the beacon is acquired
 921:../../../../../../Middlewares/Third_Party/LoRaWAN/Mac/LoRaMacClassB.c ****                     // Otherwise, take the enlargement of the symbols into account.
 922:../../../../../../Middlewares/Third_Party/LoRaWAN/Mac/LoRaMacClassB.c ****                     RegionComputeRxWindowParameters( *Ctx.LoRaMacClassBParams.LoRaMacRegion,
 923:../../../../../../Middlewares/Third_Party/LoRaWAN/Mac/LoRaMacClassB.c ****                                                      Ctx.NvmCtx->PingSlotCtx.Datarate,
 924:../../../../../../Middlewares/Third_Party/LoRaWAN/Mac/LoRaMacClassB.c ****                                                      Ctx.LoRaMacClassBParams.LoRaMacParams->MinRxSy
 925:../../../../../../Middlewares/Third_Party/LoRaWAN/Mac/LoRaMacClassB.c ****                                                      Ctx.LoRaMacClassBParams.LoRaMacParams->SystemM
 926:../../../../../../Middlewares/Third_Party/LoRaWAN/Mac/LoRaMacClassB.c ****                                                      &pingSlotRxConfig );
 927:../../../../../../Middlewares/Third_Party/LoRaWAN/Mac/LoRaMacClassB.c ****                     Ctx.NvmCtx->PingSlotCtx.SymbolTimeout = pingSlotRxConfig.WindowTimeout;
 928:../../../../../../Middlewares/Third_Party/LoRaWAN/Mac/LoRaMacClassB.c **** 
 929:../../../../../../Middlewares/Third_Party/LoRaWAN/Mac/LoRaMacClassB.c ****                     if( ( int32_t )pingSlotTime > pingSlotRxConfig.WindowOffset )
 930:../../../../../../Middlewares/Third_Party/LoRaWAN/Mac/LoRaMacClassB.c ****                     {// Apply the window offset
 931:../../../../../../Middlewares/Third_Party/LoRaWAN/Mac/LoRaMacClassB.c ****                         pingSlotTime += pingSlotRxConfig.WindowOffset;
 932:../../../../../../Middlewares/Third_Party/LoRaWAN/Mac/LoRaMacClassB.c ****                     }
 933:../../../../../../Middlewares/Third_Party/LoRaWAN/Mac/LoRaMacClassB.c ****                 }
 934:../../../../../../Middlewares/Third_Party/LoRaWAN/Mac/LoRaMacClassB.c **** 
 935:../../../../../../Middlewares/Third_Party/LoRaWAN/Mac/LoRaMacClassB.c ****                 // Start the timer if the ping slot time is in range
 936:../../../../../../Middlewares/Third_Party/LoRaWAN/Mac/LoRaMacClassB.c ****                 Ctx.NvmCtx->PingSlotState = PINGSLOT_STATE_IDLE;
 937:../../../../../../Middlewares/Third_Party/LoRaWAN/Mac/LoRaMacClassB.c ****                 TimerSetValue( &Ctx.PingSlotTimer, pingSlotTime );
 938:../../../../../../Middlewares/Third_Party/LoRaWAN/Mac/LoRaMacClassB.c ****                 TimerStart( &Ctx.PingSlotTimer );
 939:../../../../../../Middlewares/Third_Party/LoRaWAN/Mac/LoRaMacClassB.c ****             }
 940:../../../../../../Middlewares/Third_Party/LoRaWAN/Mac/LoRaMacClassB.c ****             break;
 941:../../../../../../Middlewares/Third_Party/LoRaWAN/Mac/LoRaMacClassB.c ****         }
 942:../../../../../../Middlewares/Third_Party/LoRaWAN/Mac/LoRaMacClassB.c ****         case PINGSLOT_STATE_IDLE:
 943:../../../../../../Middlewares/Third_Party/LoRaWAN/Mac/LoRaMacClassB.c ****         {
ARM GAS  C:\Users\EBANO_~1\AppData\Local\Temp\ccis3phW.s 			page 22


 944:../../../../../../Middlewares/Third_Party/LoRaWAN/Mac/LoRaMacClassB.c ****             uint32_t frequency = Ctx.NvmCtx->PingSlotCtx.Frequency;
 945:../../../../../../Middlewares/Third_Party/LoRaWAN/Mac/LoRaMacClassB.c **** 
 946:../../../../../../Middlewares/Third_Party/LoRaWAN/Mac/LoRaMacClassB.c ****             // Apply a custom frequency if the following bit is set
 947:../../../../../../Middlewares/Third_Party/LoRaWAN/Mac/LoRaMacClassB.c ****             if( Ctx.NvmCtx->PingSlotCtx.Ctrl.CustomFreq == 0 )
 948:../../../../../../Middlewares/Third_Party/LoRaWAN/Mac/LoRaMacClassB.c ****             {
 949:../../../../../../Middlewares/Third_Party/LoRaWAN/Mac/LoRaMacClassB.c ****                 // Restore floor plan
 950:../../../../../../Middlewares/Third_Party/LoRaWAN/Mac/LoRaMacClassB.c ****                 frequency = CalcDownlinkChannelAndFrequency( *Ctx.LoRaMacClassBParams.LoRaMacDevAdd
 951:../../../../../../Middlewares/Third_Party/LoRaWAN/Mac/LoRaMacClassB.c ****             }
 952:../../../../../../Middlewares/Third_Party/LoRaWAN/Mac/LoRaMacClassB.c **** 
 953:../../../../../../Middlewares/Third_Party/LoRaWAN/Mac/LoRaMacClassB.c ****             // Open the ping slot window only, if there is no multicast ping slot
 954:../../../../../../Middlewares/Third_Party/LoRaWAN/Mac/LoRaMacClassB.c ****             // open. Multicast ping slots have always priority
 955:../../../../../../Middlewares/Third_Party/LoRaWAN/Mac/LoRaMacClassB.c ****             if( Ctx.NvmCtx->MulticastSlotState != PINGSLOT_STATE_RX )
 956:../../../../../../Middlewares/Third_Party/LoRaWAN/Mac/LoRaMacClassB.c ****             {
 957:../../../../../../Middlewares/Third_Party/LoRaWAN/Mac/LoRaMacClassB.c ****                 Ctx.NvmCtx->PingSlotState = PINGSLOT_STATE_RX;
 958:../../../../../../Middlewares/Third_Party/LoRaWAN/Mac/LoRaMacClassB.c **** 
 959:../../../../../../Middlewares/Third_Party/LoRaWAN/Mac/LoRaMacClassB.c ****                 pingSlotRxConfig.Datarate = Ctx.NvmCtx->PingSlotCtx.Datarate;
 960:../../../../../../Middlewares/Third_Party/LoRaWAN/Mac/LoRaMacClassB.c ****                 pingSlotRxConfig.DownlinkDwellTime = Ctx.LoRaMacClassBParams.LoRaMacParams->Downlin
 961:../../../../../../Middlewares/Third_Party/LoRaWAN/Mac/LoRaMacClassB.c ****                 pingSlotRxConfig.RepeaterSupport = Ctx.LoRaMacClassBParams.LoRaMacParams->RepeaterS
 962:../../../../../../Middlewares/Third_Party/LoRaWAN/Mac/LoRaMacClassB.c ****                 pingSlotRxConfig.Frequency = frequency;
 963:../../../../../../Middlewares/Third_Party/LoRaWAN/Mac/LoRaMacClassB.c ****                 pingSlotRxConfig.RxContinuous = false;
 964:../../../../../../Middlewares/Third_Party/LoRaWAN/Mac/LoRaMacClassB.c ****                 pingSlotRxConfig.RxSlot = RX_SLOT_WIN_PING_SLOT;
 965:../../../../../../Middlewares/Third_Party/LoRaWAN/Mac/LoRaMacClassB.c **** 
 966:../../../../../../Middlewares/Third_Party/LoRaWAN/Mac/LoRaMacClassB.c ****                 RegionRxConfig( *Ctx.LoRaMacClassBParams.LoRaMacRegion, &pingSlotRxConfig, ( int8_t
 967:../../../../../../Middlewares/Third_Party/LoRaWAN/Mac/LoRaMacClassB.c **** 
 968:../../../../../../Middlewares/Third_Party/LoRaWAN/Mac/LoRaMacClassB.c ****                 if( pingSlotRxConfig.RxContinuous == false )
 969:../../../../../../Middlewares/Third_Party/LoRaWAN/Mac/LoRaMacClassB.c ****                 {
 970:../../../../../../Middlewares/Third_Party/LoRaWAN/Mac/LoRaMacClassB.c ****                     Radio.Rx( Ctx.LoRaMacClassBParams.LoRaMacParams->MaxRxWindow );
 971:../../../../../../Middlewares/Third_Party/LoRaWAN/Mac/LoRaMacClassB.c ****                 }
 972:../../../../../../Middlewares/Third_Party/LoRaWAN/Mac/LoRaMacClassB.c ****                 else
 973:../../../../../../Middlewares/Third_Party/LoRaWAN/Mac/LoRaMacClassB.c ****                 {
 974:../../../../../../Middlewares/Third_Party/LoRaWAN/Mac/LoRaMacClassB.c ****                     Radio.Rx( 0 ); // Continuous mode
 975:../../../../../../Middlewares/Third_Party/LoRaWAN/Mac/LoRaMacClassB.c ****                 }
 976:../../../../../../Middlewares/Third_Party/LoRaWAN/Mac/LoRaMacClassB.c ****             }
 977:../../../../../../Middlewares/Third_Party/LoRaWAN/Mac/LoRaMacClassB.c ****             else
 978:../../../../../../Middlewares/Third_Party/LoRaWAN/Mac/LoRaMacClassB.c ****             {
 979:../../../../../../Middlewares/Third_Party/LoRaWAN/Mac/LoRaMacClassB.c ****                 // Multicast slots have priority. Skip Rx
 980:../../../../../../Middlewares/Third_Party/LoRaWAN/Mac/LoRaMacClassB.c ****                 Ctx.NvmCtx->PingSlotState = PINGSLOT_STATE_CALC_PING_OFFSET;
 981:../../../../../../Middlewares/Third_Party/LoRaWAN/Mac/LoRaMacClassB.c ****                 TimerSetValue( &Ctx.PingSlotTimer, CLASSB_PING_SLOT_WINDOW );
 982:../../../../../../Middlewares/Third_Party/LoRaWAN/Mac/LoRaMacClassB.c ****                 TimerStart( &Ctx.PingSlotTimer );
 983:../../../../../../Middlewares/Third_Party/LoRaWAN/Mac/LoRaMacClassB.c ****             }
 984:../../../../../../Middlewares/Third_Party/LoRaWAN/Mac/LoRaMacClassB.c ****             break;
 985:../../../../../../Middlewares/Third_Party/LoRaWAN/Mac/LoRaMacClassB.c ****         }
 986:../../../../../../Middlewares/Third_Party/LoRaWAN/Mac/LoRaMacClassB.c ****         default:
 987:../../../../../../Middlewares/Third_Party/LoRaWAN/Mac/LoRaMacClassB.c ****         {
 988:../../../../../../Middlewares/Third_Party/LoRaWAN/Mac/LoRaMacClassB.c ****             Ctx.NvmCtx->PingSlotState = PINGSLOT_STATE_CALC_PING_OFFSET;
 989:../../../../../../Middlewares/Third_Party/LoRaWAN/Mac/LoRaMacClassB.c ****             break;
 990:../../../../../../Middlewares/Third_Party/LoRaWAN/Mac/LoRaMacClassB.c ****         }
 991:../../../../../../Middlewares/Third_Party/LoRaWAN/Mac/LoRaMacClassB.c ****     }
 992:../../../../../../Middlewares/Third_Party/LoRaWAN/Mac/LoRaMacClassB.c **** 
 993:../../../../../../Middlewares/Third_Party/LoRaWAN/Mac/LoRaMacClassB.c ****     NvmContextChange( );
 994:../../../../../../Middlewares/Third_Party/LoRaWAN/Mac/LoRaMacClassB.c **** }
 995:../../../../../../Middlewares/Third_Party/LoRaWAN/Mac/LoRaMacClassB.c **** #endif // LORAMAC_CLASSB_ENABLED
 996:../../../../../../Middlewares/Third_Party/LoRaWAN/Mac/LoRaMacClassB.c **** 
 997:../../../../../../Middlewares/Third_Party/LoRaWAN/Mac/LoRaMacClassB.c **** void LoRaMacClassBMulticastSlotTimerEvent( void* context )
 998:../../../../../../Middlewares/Third_Party/LoRaWAN/Mac/LoRaMacClassB.c **** {
 999:../../../../../../Middlewares/Third_Party/LoRaWAN/Mac/LoRaMacClassB.c **** #ifdef LORAMAC_CLASSB_ENABLED
1000:../../../../../../Middlewares/Third_Party/LoRaWAN/Mac/LoRaMacClassB.c ****     LoRaMacClassBEvents.Events.MulticastSlot = 1;
ARM GAS  C:\Users\EBANO_~1\AppData\Local\Temp\ccis3phW.s 			page 23


1001:../../../../../../Middlewares/Third_Party/LoRaWAN/Mac/LoRaMacClassB.c **** 
1002:../../../../../../Middlewares/Third_Party/LoRaWAN/Mac/LoRaMacClassB.c ****     if( Ctx.LoRaMacClassBCallbacks.MacProcessNotify != NULL )
1003:../../../../../../Middlewares/Third_Party/LoRaWAN/Mac/LoRaMacClassB.c ****     {
1004:../../../../../../Middlewares/Third_Party/LoRaWAN/Mac/LoRaMacClassB.c ****         Ctx.LoRaMacClassBCallbacks.MacProcessNotify( );
1005:../../../../../../Middlewares/Third_Party/LoRaWAN/Mac/LoRaMacClassB.c ****     }
1006:../../../../../../Middlewares/Third_Party/LoRaWAN/Mac/LoRaMacClassB.c **** #endif // LORAMAC_CLASSB_ENABLED
1007:../../../../../../Middlewares/Third_Party/LoRaWAN/Mac/LoRaMacClassB.c **** }
1008:../../../../../../Middlewares/Third_Party/LoRaWAN/Mac/LoRaMacClassB.c **** 
1009:../../../../../../Middlewares/Third_Party/LoRaWAN/Mac/LoRaMacClassB.c **** #ifdef LORAMAC_CLASSB_ENABLED
1010:../../../../../../Middlewares/Third_Party/LoRaWAN/Mac/LoRaMacClassB.c **** static void LoRaMacClassBProcessMulticastSlot( void )
1011:../../../../../../Middlewares/Third_Party/LoRaWAN/Mac/LoRaMacClassB.c **** {
1012:../../../../../../Middlewares/Third_Party/LoRaWAN/Mac/LoRaMacClassB.c ****     static RxConfigParams_t multicastSlotRxConfig;
1013:../../../../../../Middlewares/Third_Party/LoRaWAN/Mac/LoRaMacClassB.c ****     TimerTime_t multicastSlotTime = 0;
1014:../../../../../../Middlewares/Third_Party/LoRaWAN/Mac/LoRaMacClassB.c ****     TimerTime_t slotTime = 0;
1015:../../../../../../Middlewares/Third_Party/LoRaWAN/Mac/LoRaMacClassB.c ****     MulticastCtx_t *cur = Ctx.LoRaMacClassBParams.MulticastChannels;
1016:../../../../../../Middlewares/Third_Party/LoRaWAN/Mac/LoRaMacClassB.c **** 
1017:../../../../../../Middlewares/Third_Party/LoRaWAN/Mac/LoRaMacClassB.c **** 
1018:../../../../../../Middlewares/Third_Party/LoRaWAN/Mac/LoRaMacClassB.c ****     if( cur == NULL )
1019:../../../../../../Middlewares/Third_Party/LoRaWAN/Mac/LoRaMacClassB.c ****     {
1020:../../../../../../Middlewares/Third_Party/LoRaWAN/Mac/LoRaMacClassB.c ****         return;
1021:../../../../../../Middlewares/Third_Party/LoRaWAN/Mac/LoRaMacClassB.c ****     }
1022:../../../../../../Middlewares/Third_Party/LoRaWAN/Mac/LoRaMacClassB.c **** 
1023:../../../../../../Middlewares/Third_Party/LoRaWAN/Mac/LoRaMacClassB.c ****     if( Ctx.NvmCtx->MulticastSlotState == PINGSLOT_STATE_RX )
1024:../../../../../../Middlewares/Third_Party/LoRaWAN/Mac/LoRaMacClassB.c ****     {
1025:../../../../../../Middlewares/Third_Party/LoRaWAN/Mac/LoRaMacClassB.c ****         // A multicast slot is already open
1026:../../../../../../Middlewares/Third_Party/LoRaWAN/Mac/LoRaMacClassB.c ****         return;
1027:../../../../../../Middlewares/Third_Party/LoRaWAN/Mac/LoRaMacClassB.c ****     }
1028:../../../../../../Middlewares/Third_Party/LoRaWAN/Mac/LoRaMacClassB.c **** 
1029:../../../../../../Middlewares/Third_Party/LoRaWAN/Mac/LoRaMacClassB.c ****     switch( Ctx.NvmCtx->MulticastSlotState )
1030:../../../../../../Middlewares/Third_Party/LoRaWAN/Mac/LoRaMacClassB.c ****     {
1031:../../../../../../Middlewares/Third_Party/LoRaWAN/Mac/LoRaMacClassB.c ****         case PINGSLOT_STATE_CALC_PING_OFFSET:
1032:../../../../../../Middlewares/Third_Party/LoRaWAN/Mac/LoRaMacClassB.c ****         {
1033:../../../../../../Middlewares/Third_Party/LoRaWAN/Mac/LoRaMacClassB.c ****             // Compute all offsets for every multicast slots
1034:../../../../../../Middlewares/Third_Party/LoRaWAN/Mac/LoRaMacClassB.c ****             for( uint8_t i = 0; i < 4; i++ )
1035:../../../../../../Middlewares/Third_Party/LoRaWAN/Mac/LoRaMacClassB.c ****             {
1036:../../../../../../Middlewares/Third_Party/LoRaWAN/Mac/LoRaMacClassB.c ****                 ComputePingOffset( Ctx.NvmCtx->BeaconCtx.BeaconTime,
1037:../../../../../../Middlewares/Third_Party/LoRaWAN/Mac/LoRaMacClassB.c ****                                                 cur->Address,
1038:../../../../../../Middlewares/Third_Party/LoRaWAN/Mac/LoRaMacClassB.c ****                                                 cur->PingPeriod,
1039:../../../../../../Middlewares/Third_Party/LoRaWAN/Mac/LoRaMacClassB.c ****                                                 &( cur->PingOffset ) );
1040:../../../../../../Middlewares/Third_Party/LoRaWAN/Mac/LoRaMacClassB.c ****                 cur++;
1041:../../../../../../Middlewares/Third_Party/LoRaWAN/Mac/LoRaMacClassB.c ****             }
1042:../../../../../../Middlewares/Third_Party/LoRaWAN/Mac/LoRaMacClassB.c ****             Ctx.NvmCtx->MulticastSlotState = PINGSLOT_STATE_SET_TIMER;
1043:../../../../../../Middlewares/Third_Party/LoRaWAN/Mac/LoRaMacClassB.c ****         }
1044:../../../../../../Middlewares/Third_Party/LoRaWAN/Mac/LoRaMacClassB.c ****             // Intentional fall through
1045:../../../../../../Middlewares/Third_Party/LoRaWAN/Mac/LoRaMacClassB.c ****         case PINGSLOT_STATE_SET_TIMER:
1046:../../../../../../Middlewares/Third_Party/LoRaWAN/Mac/LoRaMacClassB.c ****         {
1047:../../../../../../Middlewares/Third_Party/LoRaWAN/Mac/LoRaMacClassB.c ****             cur = Ctx.LoRaMacClassBParams.MulticastChannels;
1048:../../../../../../Middlewares/Third_Party/LoRaWAN/Mac/LoRaMacClassB.c ****             Ctx.NvmCtx->PingSlotCtx.NextMulticastChannel = NULL;
1049:../../../../../../Middlewares/Third_Party/LoRaWAN/Mac/LoRaMacClassB.c **** 
1050:../../../../../../Middlewares/Third_Party/LoRaWAN/Mac/LoRaMacClassB.c ****             for( uint8_t i = 0; i < 4; i++ )
1051:../../../../../../Middlewares/Third_Party/LoRaWAN/Mac/LoRaMacClassB.c ****             {
1052:../../../../../../Middlewares/Third_Party/LoRaWAN/Mac/LoRaMacClassB.c ****                 // Calculate the next slot time for every multicast slot
1053:../../../../../../Middlewares/Third_Party/LoRaWAN/Mac/LoRaMacClassB.c ****                 if( CalcNextSlotTime( cur->PingOffset, cur->PingPeriod, cur->PingNb, &slotTime ) ==
1054:../../../../../../Middlewares/Third_Party/LoRaWAN/Mac/LoRaMacClassB.c ****                 {
1055:../../../../../../Middlewares/Third_Party/LoRaWAN/Mac/LoRaMacClassB.c ****                     if( ( multicastSlotTime == 0 ) || ( multicastSlotTime > slotTime ) )
1056:../../../../../../Middlewares/Third_Party/LoRaWAN/Mac/LoRaMacClassB.c ****                     {
1057:../../../../../../Middlewares/Third_Party/LoRaWAN/Mac/LoRaMacClassB.c ****                         // Update the slot time and the next multicast channel
ARM GAS  C:\Users\EBANO_~1\AppData\Local\Temp\ccis3phW.s 			page 24


1058:../../../../../../Middlewares/Third_Party/LoRaWAN/Mac/LoRaMacClassB.c ****                         multicastSlotTime = slotTime;
1059:../../../../../../Middlewares/Third_Party/LoRaWAN/Mac/LoRaMacClassB.c ****                         Ctx.NvmCtx->PingSlotCtx.NextMulticastChannel = cur;
1060:../../../../../../Middlewares/Third_Party/LoRaWAN/Mac/LoRaMacClassB.c ****                     }
1061:../../../../../../Middlewares/Third_Party/LoRaWAN/Mac/LoRaMacClassB.c ****                 }
1062:../../../../../../Middlewares/Third_Party/LoRaWAN/Mac/LoRaMacClassB.c ****                 cur++;
1063:../../../../../../Middlewares/Third_Party/LoRaWAN/Mac/LoRaMacClassB.c ****             }
1064:../../../../../../Middlewares/Third_Party/LoRaWAN/Mac/LoRaMacClassB.c **** 
1065:../../../../../../Middlewares/Third_Party/LoRaWAN/Mac/LoRaMacClassB.c ****             // Schedule the next multicast slot
1066:../../../../../../Middlewares/Third_Party/LoRaWAN/Mac/LoRaMacClassB.c ****             if( Ctx.NvmCtx->PingSlotCtx.NextMulticastChannel != NULL )
1067:../../../../../../Middlewares/Third_Party/LoRaWAN/Mac/LoRaMacClassB.c ****             {
1068:../../../../../../Middlewares/Third_Party/LoRaWAN/Mac/LoRaMacClassB.c ****                 if( Ctx.NvmCtx->BeaconCtx.Ctrl.BeaconAcquired == 1 )
1069:../../../../../../Middlewares/Third_Party/LoRaWAN/Mac/LoRaMacClassB.c ****                 {
1070:../../../../../../Middlewares/Third_Party/LoRaWAN/Mac/LoRaMacClassB.c ****                     RegionComputeRxWindowParameters( *Ctx.LoRaMacClassBParams.LoRaMacRegion,
1071:../../../../../../Middlewares/Third_Party/LoRaWAN/Mac/LoRaMacClassB.c ****                                                     Ctx.NvmCtx->PingSlotCtx.Datarate,
1072:../../../../../../Middlewares/Third_Party/LoRaWAN/Mac/LoRaMacClassB.c ****                                                     Ctx.LoRaMacClassBParams.LoRaMacParams->MinRxSym
1073:../../../../../../Middlewares/Third_Party/LoRaWAN/Mac/LoRaMacClassB.c ****                                                     Ctx.LoRaMacClassBParams.LoRaMacParams->SystemMa
1074:../../../../../../Middlewares/Third_Party/LoRaWAN/Mac/LoRaMacClassB.c ****                                                     &multicastSlotRxConfig );
1075:../../../../../../Middlewares/Third_Party/LoRaWAN/Mac/LoRaMacClassB.c ****                     Ctx.NvmCtx->PingSlotCtx.SymbolTimeout = multicastSlotRxConfig.WindowTimeout;
1076:../../../../../../Middlewares/Third_Party/LoRaWAN/Mac/LoRaMacClassB.c ****                 }
1077:../../../../../../Middlewares/Third_Party/LoRaWAN/Mac/LoRaMacClassB.c **** 
1078:../../../../../../Middlewares/Third_Party/LoRaWAN/Mac/LoRaMacClassB.c ****                 if( ( int32_t )multicastSlotTime > multicastSlotRxConfig.WindowOffset )
1079:../../../../../../Middlewares/Third_Party/LoRaWAN/Mac/LoRaMacClassB.c ****                 {// Apply the window offset
1080:../../../../../../Middlewares/Third_Party/LoRaWAN/Mac/LoRaMacClassB.c ****                     multicastSlotTime += multicastSlotRxConfig.WindowOffset;
1081:../../../../../../Middlewares/Third_Party/LoRaWAN/Mac/LoRaMacClassB.c ****                 }
1082:../../../../../../Middlewares/Third_Party/LoRaWAN/Mac/LoRaMacClassB.c **** 
1083:../../../../../../Middlewares/Third_Party/LoRaWAN/Mac/LoRaMacClassB.c ****                 // Start the timer if the ping slot time is in range
1084:../../../../../../Middlewares/Third_Party/LoRaWAN/Mac/LoRaMacClassB.c ****                 Ctx.NvmCtx->MulticastSlotState = PINGSLOT_STATE_IDLE;
1085:../../../../../../Middlewares/Third_Party/LoRaWAN/Mac/LoRaMacClassB.c ****                 TimerSetValue( &Ctx.MulticastSlotTimer, multicastSlotTime );
1086:../../../../../../Middlewares/Third_Party/LoRaWAN/Mac/LoRaMacClassB.c ****                 TimerStart( &Ctx.MulticastSlotTimer );
1087:../../../../../../Middlewares/Third_Party/LoRaWAN/Mac/LoRaMacClassB.c ****             }
1088:../../../../../../Middlewares/Third_Party/LoRaWAN/Mac/LoRaMacClassB.c ****             break;
1089:../../../../../../Middlewares/Third_Party/LoRaWAN/Mac/LoRaMacClassB.c ****         }
1090:../../../../../../Middlewares/Third_Party/LoRaWAN/Mac/LoRaMacClassB.c ****         case PINGSLOT_STATE_IDLE:
1091:../../../../../../Middlewares/Third_Party/LoRaWAN/Mac/LoRaMacClassB.c ****         {
1092:../../../../../../Middlewares/Third_Party/LoRaWAN/Mac/LoRaMacClassB.c ****             uint32_t frequency = 0;
1093:../../../../../../Middlewares/Third_Party/LoRaWAN/Mac/LoRaMacClassB.c **** 
1094:../../../../../../Middlewares/Third_Party/LoRaWAN/Mac/LoRaMacClassB.c ****             // Verify if the multicast channel is valid
1095:../../../../../../Middlewares/Third_Party/LoRaWAN/Mac/LoRaMacClassB.c ****             if( Ctx.NvmCtx->PingSlotCtx.NextMulticastChannel == NULL )
1096:../../../../../../Middlewares/Third_Party/LoRaWAN/Mac/LoRaMacClassB.c ****             {
1097:../../../../../../Middlewares/Third_Party/LoRaWAN/Mac/LoRaMacClassB.c ****                 Ctx.NvmCtx->MulticastSlotState = PINGSLOT_STATE_CALC_PING_OFFSET;
1098:../../../../../../Middlewares/Third_Party/LoRaWAN/Mac/LoRaMacClassB.c ****                 TimerSetValue( &Ctx.MulticastSlotTimer, 1 );
1099:../../../../../../Middlewares/Third_Party/LoRaWAN/Mac/LoRaMacClassB.c ****                 TimerStart( &Ctx.MulticastSlotTimer );
1100:../../../../../../Middlewares/Third_Party/LoRaWAN/Mac/LoRaMacClassB.c ****                 break;
1101:../../../../../../Middlewares/Third_Party/LoRaWAN/Mac/LoRaMacClassB.c ****             }
1102:../../../../../../Middlewares/Third_Party/LoRaWAN/Mac/LoRaMacClassB.c **** 
1103:../../../../../../Middlewares/Third_Party/LoRaWAN/Mac/LoRaMacClassB.c ****             // Apply frequency
1104:../../../../../../Middlewares/Third_Party/LoRaWAN/Mac/LoRaMacClassB.c ****             frequency = Ctx.NvmCtx->PingSlotCtx.NextMulticastChannel->Frequency;
1105:../../../../../../Middlewares/Third_Party/LoRaWAN/Mac/LoRaMacClassB.c **** 
1106:../../../../../../Middlewares/Third_Party/LoRaWAN/Mac/LoRaMacClassB.c ****             // Restore the floor plan frequency if there is no individual frequency assigned
1107:../../../../../../Middlewares/Third_Party/LoRaWAN/Mac/LoRaMacClassB.c ****             if( frequency == 0 )
1108:../../../../../../Middlewares/Third_Party/LoRaWAN/Mac/LoRaMacClassB.c ****             {
1109:../../../../../../Middlewares/Third_Party/LoRaWAN/Mac/LoRaMacClassB.c ****                 // Restore floor plan
1110:../../../../../../Middlewares/Third_Party/LoRaWAN/Mac/LoRaMacClassB.c ****                 frequency = CalcDownlinkChannelAndFrequency( Ctx.NvmCtx->PingSlotCtx.NextMulticastC
1111:../../../../../../Middlewares/Third_Party/LoRaWAN/Mac/LoRaMacClassB.c ****             }
1112:../../../../../../Middlewares/Third_Party/LoRaWAN/Mac/LoRaMacClassB.c **** 
1113:../../../../../../Middlewares/Third_Party/LoRaWAN/Mac/LoRaMacClassB.c ****             Ctx.NvmCtx->MulticastSlotState = PINGSLOT_STATE_RX;
1114:../../../../../../Middlewares/Third_Party/LoRaWAN/Mac/LoRaMacClassB.c **** 
ARM GAS  C:\Users\EBANO_~1\AppData\Local\Temp\ccis3phW.s 			page 25


1115:../../../../../../Middlewares/Third_Party/LoRaWAN/Mac/LoRaMacClassB.c ****             multicastSlotRxConfig.Datarate = Ctx.NvmCtx->PingSlotCtx.NextMulticastChannel->Datarate
1116:../../../../../../Middlewares/Third_Party/LoRaWAN/Mac/LoRaMacClassB.c ****             multicastSlotRxConfig.DownlinkDwellTime = Ctx.LoRaMacClassBParams.LoRaMacParams->Downli
1117:../../../../../../Middlewares/Third_Party/LoRaWAN/Mac/LoRaMacClassB.c ****             multicastSlotRxConfig.RepeaterSupport = Ctx.LoRaMacClassBParams.LoRaMacParams->Repeater
1118:../../../../../../Middlewares/Third_Party/LoRaWAN/Mac/LoRaMacClassB.c ****             multicastSlotRxConfig.Frequency = frequency;
1119:../../../../../../Middlewares/Third_Party/LoRaWAN/Mac/LoRaMacClassB.c ****             multicastSlotRxConfig.RxContinuous = false;
1120:../../../../../../Middlewares/Third_Party/LoRaWAN/Mac/LoRaMacClassB.c ****             multicastSlotRxConfig.RxSlot = RX_SLOT_WIN_MULTICAST_SLOT;
1121:../../../../../../Middlewares/Third_Party/LoRaWAN/Mac/LoRaMacClassB.c **** 
1122:../../../../../../Middlewares/Third_Party/LoRaWAN/Mac/LoRaMacClassB.c ****             RegionRxConfig( *Ctx.LoRaMacClassBParams.LoRaMacRegion, &multicastSlotRxConfig, ( int8_
1123:../../../../../../Middlewares/Third_Party/LoRaWAN/Mac/LoRaMacClassB.c **** 
1124:../../../../../../Middlewares/Third_Party/LoRaWAN/Mac/LoRaMacClassB.c ****             if( Ctx.NvmCtx->PingSlotState == PINGSLOT_STATE_RX )
1125:../../../../../../Middlewares/Third_Party/LoRaWAN/Mac/LoRaMacClassB.c ****             {
1126:../../../../../../Middlewares/Third_Party/LoRaWAN/Mac/LoRaMacClassB.c ****                 // Close ping slot window, if necessary. Multicast slots have priority
1127:../../../../../../Middlewares/Third_Party/LoRaWAN/Mac/LoRaMacClassB.c ****                 Radio.Standby( );
1128:../../../../../../Middlewares/Third_Party/LoRaWAN/Mac/LoRaMacClassB.c ****                 Ctx.NvmCtx->PingSlotState = PINGSLOT_STATE_CALC_PING_OFFSET;
1129:../../../../../../Middlewares/Third_Party/LoRaWAN/Mac/LoRaMacClassB.c ****                 TimerSetValue( &Ctx.PingSlotTimer, CLASSB_PING_SLOT_WINDOW );
1130:../../../../../../Middlewares/Third_Party/LoRaWAN/Mac/LoRaMacClassB.c ****                 TimerStart( &Ctx.PingSlotTimer );
1131:../../../../../../Middlewares/Third_Party/LoRaWAN/Mac/LoRaMacClassB.c ****             }
1132:../../../../../../Middlewares/Third_Party/LoRaWAN/Mac/LoRaMacClassB.c **** 
1133:../../../../../../Middlewares/Third_Party/LoRaWAN/Mac/LoRaMacClassB.c ****             if( multicastSlotRxConfig.RxContinuous == false )
1134:../../../../../../Middlewares/Third_Party/LoRaWAN/Mac/LoRaMacClassB.c ****             {
1135:../../../../../../Middlewares/Third_Party/LoRaWAN/Mac/LoRaMacClassB.c ****                 Radio.Rx( Ctx.LoRaMacClassBParams.LoRaMacParams->MaxRxWindow );
1136:../../../../../../Middlewares/Third_Party/LoRaWAN/Mac/LoRaMacClassB.c ****             }
1137:../../../../../../Middlewares/Third_Party/LoRaWAN/Mac/LoRaMacClassB.c ****             else
1138:../../../../../../Middlewares/Third_Party/LoRaWAN/Mac/LoRaMacClassB.c ****             {
1139:../../../../../../Middlewares/Third_Party/LoRaWAN/Mac/LoRaMacClassB.c ****                 Radio.Rx( 0 ); // Continuous mode
1140:../../../../../../Middlewares/Third_Party/LoRaWAN/Mac/LoRaMacClassB.c ****             }
1141:../../../../../../Middlewares/Third_Party/LoRaWAN/Mac/LoRaMacClassB.c ****             break;
1142:../../../../../../Middlewares/Third_Party/LoRaWAN/Mac/LoRaMacClassB.c ****         }
1143:../../../../../../Middlewares/Third_Party/LoRaWAN/Mac/LoRaMacClassB.c ****         default:
1144:../../../../../../Middlewares/Third_Party/LoRaWAN/Mac/LoRaMacClassB.c ****         {
1145:../../../../../../Middlewares/Third_Party/LoRaWAN/Mac/LoRaMacClassB.c ****             Ctx.NvmCtx->MulticastSlotState = PINGSLOT_STATE_CALC_PING_OFFSET;
1146:../../../../../../Middlewares/Third_Party/LoRaWAN/Mac/LoRaMacClassB.c ****             break;
1147:../../../../../../Middlewares/Third_Party/LoRaWAN/Mac/LoRaMacClassB.c ****         }
1148:../../../../../../Middlewares/Third_Party/LoRaWAN/Mac/LoRaMacClassB.c ****     }
1149:../../../../../../Middlewares/Third_Party/LoRaWAN/Mac/LoRaMacClassB.c **** 
1150:../../../../../../Middlewares/Third_Party/LoRaWAN/Mac/LoRaMacClassB.c ****     NvmContextChange( );
1151:../../../../../../Middlewares/Third_Party/LoRaWAN/Mac/LoRaMacClassB.c **** }
1152:../../../../../../Middlewares/Third_Party/LoRaWAN/Mac/LoRaMacClassB.c **** #endif // LORAMAC_CLASSB_ENABLED
1153:../../../../../../Middlewares/Third_Party/LoRaWAN/Mac/LoRaMacClassB.c **** 
1154:../../../../../../Middlewares/Third_Party/LoRaWAN/Mac/LoRaMacClassB.c **** bool LoRaMacClassBRxBeacon( uint8_t *payload, uint16_t size )
1155:../../../../../../Middlewares/Third_Party/LoRaWAN/Mac/LoRaMacClassB.c **** {
 254              		.loc 1 1155 0
 255              		.cfi_startproc
 256              		@ args = 0, pretend = 0, frame = 0
 257              		@ frame_needed = 0, uses_anonymous_args = 0
 258              		@ link register save eliminated.
 259              	.LVL7:
1156:../../../../../../Middlewares/Third_Party/LoRaWAN/Mac/LoRaMacClassB.c **** #ifdef LORAMAC_CLASSB_ENABLED
1157:../../../../../../Middlewares/Third_Party/LoRaWAN/Mac/LoRaMacClassB.c ****     GetPhyParams_t getPhy;
1158:../../../../../../Middlewares/Third_Party/LoRaWAN/Mac/LoRaMacClassB.c ****     PhyParam_t phyParam;
1159:../../../../../../Middlewares/Third_Party/LoRaWAN/Mac/LoRaMacClassB.c ****     bool beaconProcessed = false;
1160:../../../../../../Middlewares/Third_Party/LoRaWAN/Mac/LoRaMacClassB.c ****     uint16_t crc0 = 0;
1161:../../../../../../Middlewares/Third_Party/LoRaWAN/Mac/LoRaMacClassB.c ****     uint16_t crc1 = 0;
1162:../../../../../../Middlewares/Third_Party/LoRaWAN/Mac/LoRaMacClassB.c ****     uint16_t beaconCrc0 = 0;
1163:../../../../../../Middlewares/Third_Party/LoRaWAN/Mac/LoRaMacClassB.c ****     uint16_t beaconCrc1 = 0;
1164:../../../../../../Middlewares/Third_Party/LoRaWAN/Mac/LoRaMacClassB.c **** 
1165:../../../../../../Middlewares/Third_Party/LoRaWAN/Mac/LoRaMacClassB.c ****     getPhy.Attribute = PHY_BEACON_FORMAT;
ARM GAS  C:\Users\EBANO_~1\AppData\Local\Temp\ccis3phW.s 			page 26


1166:../../../../../../Middlewares/Third_Party/LoRaWAN/Mac/LoRaMacClassB.c ****     phyParam = RegionGetPhyParam( *Ctx.LoRaMacClassBParams.LoRaMacRegion, &getPhy );
1167:../../../../../../Middlewares/Third_Party/LoRaWAN/Mac/LoRaMacClassB.c **** 
1168:../../../../../../Middlewares/Third_Party/LoRaWAN/Mac/LoRaMacClassB.c ****     // Verify if we are in the state where we expect a beacon
1169:../../../../../../Middlewares/Third_Party/LoRaWAN/Mac/LoRaMacClassB.c ****     if( ( Ctx.NvmCtx->BeaconState == BEACON_STATE_RX ) || ( Ctx.NvmCtx->BeaconCtx.Ctrl.AcquisitionP
1170:../../../../../../Middlewares/Third_Party/LoRaWAN/Mac/LoRaMacClassB.c ****     {
1171:../../../../../../Middlewares/Third_Party/LoRaWAN/Mac/LoRaMacClassB.c ****         if( size == phyParam.BeaconFormat.BeaconSize )
1172:../../../../../../Middlewares/Third_Party/LoRaWAN/Mac/LoRaMacClassB.c ****         {
1173:../../../../../../Middlewares/Third_Party/LoRaWAN/Mac/LoRaMacClassB.c ****             // A beacon frame is defined as:
1174:../../../../../../Middlewares/Third_Party/LoRaWAN/Mac/LoRaMacClassB.c ****             // Bytes: |  x   |  4   |  2   |     7      |  y   |  2   |
1175:../../../../../../Middlewares/Third_Party/LoRaWAN/Mac/LoRaMacClassB.c ****             //        |------|------|------|------------|------|------|
1176:../../../../../../Middlewares/Third_Party/LoRaWAN/Mac/LoRaMacClassB.c ****             // Field: | RFU1 | Time | CRC1 | GwSpecific | RFU2 | CRC2 |
1177:../../../../../../Middlewares/Third_Party/LoRaWAN/Mac/LoRaMacClassB.c ****             //
1178:../../../../../../Middlewares/Third_Party/LoRaWAN/Mac/LoRaMacClassB.c ****             // Field RFU1 and RFU2 have variable sizes. It depends on the region specific implement
1179:../../../../../../Middlewares/Third_Party/LoRaWAN/Mac/LoRaMacClassB.c **** 
1180:../../../../../../Middlewares/Third_Party/LoRaWAN/Mac/LoRaMacClassB.c ****             // Read CRC1 field from the frame
1181:../../../../../../Middlewares/Third_Party/LoRaWAN/Mac/LoRaMacClassB.c ****             beaconCrc0 = ( ( uint16_t )payload[phyParam.BeaconFormat.Rfu1Size + 4] ) & 0x00FF;
1182:../../../../../../Middlewares/Third_Party/LoRaWAN/Mac/LoRaMacClassB.c ****             beaconCrc0 |= ( ( uint16_t )payload[phyParam.BeaconFormat.Rfu1Size + 4 + 1] << 8 ) & 0x
1183:../../../../../../Middlewares/Third_Party/LoRaWAN/Mac/LoRaMacClassB.c ****             crc0 = BeaconCrc( payload, phyParam.BeaconFormat.Rfu1Size + 4 );
1184:../../../../../../Middlewares/Third_Party/LoRaWAN/Mac/LoRaMacClassB.c **** 
1185:../../../../../../Middlewares/Third_Party/LoRaWAN/Mac/LoRaMacClassB.c ****             // Validate the first crc of the beacon frame
1186:../../../../../../Middlewares/Third_Party/LoRaWAN/Mac/LoRaMacClassB.c ****             if( crc0 == beaconCrc0 )
1187:../../../../../../Middlewares/Third_Party/LoRaWAN/Mac/LoRaMacClassB.c ****             {
1188:../../../../../../Middlewares/Third_Party/LoRaWAN/Mac/LoRaMacClassB.c ****                 // Read Time field from the frame
1189:../../../../../../Middlewares/Third_Party/LoRaWAN/Mac/LoRaMacClassB.c ****                 Ctx.NvmCtx->BeaconCtx.BeaconTime  = ( ( uint32_t )payload[phyParam.BeaconFormat.Rfu
1190:../../../../../../Middlewares/Third_Party/LoRaWAN/Mac/LoRaMacClassB.c ****                 Ctx.NvmCtx->BeaconCtx.BeaconTime |= ( ( uint32_t )( payload[phyParam.BeaconFormat.R
1191:../../../../../../Middlewares/Third_Party/LoRaWAN/Mac/LoRaMacClassB.c ****                 Ctx.NvmCtx->BeaconCtx.BeaconTime |= ( ( uint32_t )( payload[phyParam.BeaconFormat.R
1192:../../../../../../Middlewares/Third_Party/LoRaWAN/Mac/LoRaMacClassB.c ****                 Ctx.NvmCtx->BeaconCtx.BeaconTime |= ( ( uint32_t )( payload[phyParam.BeaconFormat.R
1193:../../../../../../Middlewares/Third_Party/LoRaWAN/Mac/LoRaMacClassB.c ****                 Ctx.LoRaMacClassBParams.MlmeIndication->BeaconInfo.Time = Ctx.NvmCtx->BeaconCtx.Bea
1194:../../../../../../Middlewares/Third_Party/LoRaWAN/Mac/LoRaMacClassB.c ****                 beaconProcessed = true;
1195:../../../../../../Middlewares/Third_Party/LoRaWAN/Mac/LoRaMacClassB.c ****             }
1196:../../../../../../Middlewares/Third_Party/LoRaWAN/Mac/LoRaMacClassB.c **** 
1197:../../../../../../Middlewares/Third_Party/LoRaWAN/Mac/LoRaMacClassB.c ****             // Read CRC2 field from the frame
1198:../../../../../../Middlewares/Third_Party/LoRaWAN/Mac/LoRaMacClassB.c ****             beaconCrc1 = ( ( uint16_t )payload[phyParam.BeaconFormat.Rfu1Size + 4 + 2 + 7 + phyPara
1199:../../../../../../Middlewares/Third_Party/LoRaWAN/Mac/LoRaMacClassB.c ****             beaconCrc1 |= ( ( uint16_t )payload[phyParam.BeaconFormat.Rfu1Size + 4 + 2 + 7 + phyPar
1200:../../../../../../Middlewares/Third_Party/LoRaWAN/Mac/LoRaMacClassB.c ****             crc1 = BeaconCrc( &payload[phyParam.BeaconFormat.Rfu1Size + 4 + 2], 7 + phyParam.Beacon
1201:../../../../../../Middlewares/Third_Party/LoRaWAN/Mac/LoRaMacClassB.c **** 
1202:../../../../../../Middlewares/Third_Party/LoRaWAN/Mac/LoRaMacClassB.c ****             // Validate the second crc of the beacon frame
1203:../../../../../../Middlewares/Third_Party/LoRaWAN/Mac/LoRaMacClassB.c ****             if( crc1 == beaconCrc1 )
1204:../../../../../../Middlewares/Third_Party/LoRaWAN/Mac/LoRaMacClassB.c ****             {
1205:../../../../../../Middlewares/Third_Party/LoRaWAN/Mac/LoRaMacClassB.c ****                 // Read GwSpecific field from the frame
1206:../../../../../../Middlewares/Third_Party/LoRaWAN/Mac/LoRaMacClassB.c ****                 // The GwSpecific field contains 1 byte InfoDesc and 6 bytes Info
1207:../../../../../../Middlewares/Third_Party/LoRaWAN/Mac/LoRaMacClassB.c ****                 Ctx.LoRaMacClassBParams.MlmeIndication->BeaconInfo.GwSpecific.InfoDesc = payload[ph
1208:../../../../../../Middlewares/Third_Party/LoRaWAN/Mac/LoRaMacClassB.c ****                 memcpy1( Ctx.LoRaMacClassBParams.MlmeIndication->BeaconInfo.GwSpecific.Info, &paylo
1209:../../../../../../Middlewares/Third_Party/LoRaWAN/Mac/LoRaMacClassB.c ****             }
1210:../../../../../../Middlewares/Third_Party/LoRaWAN/Mac/LoRaMacClassB.c **** 
1211:../../../../../../Middlewares/Third_Party/LoRaWAN/Mac/LoRaMacClassB.c ****             // Reset beacon variables, if one of the crc is valid
1212:../../../../../../Middlewares/Third_Party/LoRaWAN/Mac/LoRaMacClassB.c ****             if( beaconProcessed == true )
1213:../../../../../../Middlewares/Third_Party/LoRaWAN/Mac/LoRaMacClassB.c ****             {
1214:../../../../../../Middlewares/Third_Party/LoRaWAN/Mac/LoRaMacClassB.c ****                 Ctx.NvmCtx->BeaconCtx.LastBeaconRx = TimerGetCurrentTime( ) - Radio.TimeOnAir( MODE
1215:../../../../../../Middlewares/Third_Party/LoRaWAN/Mac/LoRaMacClassB.c ****                 Ctx.NvmCtx->BeaconCtx.Ctrl.BeaconAcquired = 1;
1216:../../../../../../Middlewares/Third_Party/LoRaWAN/Mac/LoRaMacClassB.c ****                 Ctx.NvmCtx->BeaconCtx.Ctrl.BeaconMode = 1;
1217:../../../../../../Middlewares/Third_Party/LoRaWAN/Mac/LoRaMacClassB.c ****                 ResetWindowTimeout( );
1218:../../../../../../Middlewares/Third_Party/LoRaWAN/Mac/LoRaMacClassB.c ****                 Ctx.NvmCtx->BeaconState = BEACON_STATE_LOCKED;
1219:../../../../../../Middlewares/Third_Party/LoRaWAN/Mac/LoRaMacClassB.c **** 
1220:../../../../../../Middlewares/Third_Party/LoRaWAN/Mac/LoRaMacClassB.c ****                 LoRaMacClassBBeaconTimerEvent( NULL );
1221:../../../../../../Middlewares/Third_Party/LoRaWAN/Mac/LoRaMacClassB.c ****             }
1222:../../../../../../Middlewares/Third_Party/LoRaWAN/Mac/LoRaMacClassB.c ****         }
ARM GAS  C:\Users\EBANO_~1\AppData\Local\Temp\ccis3phW.s 			page 27


1223:../../../../../../Middlewares/Third_Party/LoRaWAN/Mac/LoRaMacClassB.c **** 
1224:../../../../../../Middlewares/Third_Party/LoRaWAN/Mac/LoRaMacClassB.c ****         if( Ctx.NvmCtx->BeaconState == BEACON_STATE_RX )
1225:../../../../../../Middlewares/Third_Party/LoRaWAN/Mac/LoRaMacClassB.c ****         {
1226:../../../../../../Middlewares/Third_Party/LoRaWAN/Mac/LoRaMacClassB.c ****             Ctx.NvmCtx->BeaconState = BEACON_STATE_TIMEOUT;
1227:../../../../../../Middlewares/Third_Party/LoRaWAN/Mac/LoRaMacClassB.c ****             LoRaMacClassBBeaconTimerEvent( NULL );
1228:../../../../../../Middlewares/Third_Party/LoRaWAN/Mac/LoRaMacClassB.c ****         }
1229:../../../../../../Middlewares/Third_Party/LoRaWAN/Mac/LoRaMacClassB.c ****         // When the MAC listens for a beacon, it is not allowed to process any other
1230:../../../../../../Middlewares/Third_Party/LoRaWAN/Mac/LoRaMacClassB.c ****         // downlink except the beacon frame itself. The reason for this is that no valid downlink w
1231:../../../../../../Middlewares/Third_Party/LoRaWAN/Mac/LoRaMacClassB.c ****         // If it receives a frame which is
1232:../../../../../../Middlewares/Third_Party/LoRaWAN/Mac/LoRaMacClassB.c ****         // 1. not a beacon or
1233:../../../../../../Middlewares/Third_Party/LoRaWAN/Mac/LoRaMacClassB.c ****         // 2. a beacon with a crc fail
1234:../../../../../../Middlewares/Third_Party/LoRaWAN/Mac/LoRaMacClassB.c ****         // the MAC shall ignore the frame completely. Thus, the function must always return true, e
1235:../../../../../../Middlewares/Third_Party/LoRaWAN/Mac/LoRaMacClassB.c ****         // valid beacon has been received.
1236:../../../../../../Middlewares/Third_Party/LoRaWAN/Mac/LoRaMacClassB.c ****         beaconProcessed = true;
1237:../../../../../../Middlewares/Third_Party/LoRaWAN/Mac/LoRaMacClassB.c ****     }
1238:../../../../../../Middlewares/Third_Party/LoRaWAN/Mac/LoRaMacClassB.c **** 
1239:../../../../../../Middlewares/Third_Party/LoRaWAN/Mac/LoRaMacClassB.c ****     NvmContextChange( );
1240:../../../../../../Middlewares/Third_Party/LoRaWAN/Mac/LoRaMacClassB.c **** 
1241:../../../../../../Middlewares/Third_Party/LoRaWAN/Mac/LoRaMacClassB.c ****     return beaconProcessed;
1242:../../../../../../Middlewares/Third_Party/LoRaWAN/Mac/LoRaMacClassB.c **** #else
1243:../../../../../../Middlewares/Third_Party/LoRaWAN/Mac/LoRaMacClassB.c ****     return false;
1244:../../../../../../Middlewares/Third_Party/LoRaWAN/Mac/LoRaMacClassB.c **** #endif // LORAMAC_CLASSB_ENABLED
1245:../../../../../../Middlewares/Third_Party/LoRaWAN/Mac/LoRaMacClassB.c **** }
 260              		.loc 1 1245 0
 261 0000 0020     		movs	r0, #0
 262              	.LVL8:
 263              		@ sp needed
 264 0002 7047     		bx	lr
 265              		.cfi_endproc
 266              	.LFE49:
 267              		.size	LoRaMacClassBRxBeacon, .-LoRaMacClassBRxBeacon
 268              		.section	.text.LoRaMacClassBIsBeaconExpected,"ax",%progbits
 269              		.align	1
 270              		.p2align 2,,3
 271              		.global	LoRaMacClassBIsBeaconExpected
 272              		.syntax unified
 273              		.code	16
 274              		.thumb_func
 275              		.fpu softvfp
 276              		.type	LoRaMacClassBIsBeaconExpected, %function
 277              	LoRaMacClassBIsBeaconExpected:
 278              	.LFB84:
 279              		.cfi_startproc
 280              		@ args = 0, pretend = 0, frame = 0
 281              		@ frame_needed = 0, uses_anonymous_args = 0
 282              		@ link register save eliminated.
 283 0000 0020     		movs	r0, #0
 284              		@ sp needed
 285 0002 7047     		bx	lr
 286              		.cfi_endproc
 287              	.LFE84:
 288              		.size	LoRaMacClassBIsBeaconExpected, .-LoRaMacClassBIsBeaconExpected
 289              		.section	.text.LoRaMacClassBIsPingExpected,"ax",%progbits
 290              		.align	1
 291              		.p2align 2,,3
 292              		.global	LoRaMacClassBIsPingExpected
 293              		.syntax unified
ARM GAS  C:\Users\EBANO_~1\AppData\Local\Temp\ccis3phW.s 			page 28


 294              		.code	16
 295              		.thumb_func
 296              		.fpu softvfp
 297              		.type	LoRaMacClassBIsPingExpected, %function
 298              	LoRaMacClassBIsPingExpected:
 299              	.LFB86:
 300              		.cfi_startproc
 301              		@ args = 0, pretend = 0, frame = 0
 302              		@ frame_needed = 0, uses_anonymous_args = 0
 303              		@ link register save eliminated.
 304 0000 0020     		movs	r0, #0
 305              		@ sp needed
 306 0002 7047     		bx	lr
 307              		.cfi_endproc
 308              	.LFE86:
 309              		.size	LoRaMacClassBIsPingExpected, .-LoRaMacClassBIsPingExpected
 310              		.section	.text.LoRaMacClassBIsMulticastExpected,"ax",%progbits
 311              		.align	1
 312              		.p2align 2,,3
 313              		.global	LoRaMacClassBIsMulticastExpected
 314              		.syntax unified
 315              		.code	16
 316              		.thumb_func
 317              		.fpu softvfp
 318              		.type	LoRaMacClassBIsMulticastExpected, %function
 319              	LoRaMacClassBIsMulticastExpected:
 320              	.LFB88:
 321              		.cfi_startproc
 322              		@ args = 0, pretend = 0, frame = 0
 323              		@ frame_needed = 0, uses_anonymous_args = 0
 324              		@ link register save eliminated.
 325 0000 0020     		movs	r0, #0
 326              		@ sp needed
 327 0002 7047     		bx	lr
 328              		.cfi_endproc
 329              	.LFE88:
 330              		.size	LoRaMacClassBIsMulticastExpected, .-LoRaMacClassBIsMulticastExpected
 331              		.section	.text.LoRaMacClassBIsAcquisitionPending,"ax",%progbits
 332              		.align	1
 333              		.p2align 2,,3
 334              		.global	LoRaMacClassBIsAcquisitionPending
 335              		.syntax unified
 336              		.code	16
 337              		.thumb_func
 338              		.fpu softvfp
 339              		.type	LoRaMacClassBIsAcquisitionPending, %function
 340              	LoRaMacClassBIsAcquisitionPending:
 341              	.LFB90:
 342              		.cfi_startproc
 343              		@ args = 0, pretend = 0, frame = 0
 344              		@ frame_needed = 0, uses_anonymous_args = 0
 345              		@ link register save eliminated.
 346 0000 0020     		movs	r0, #0
 347              		@ sp needed
 348 0002 7047     		bx	lr
 349              		.cfi_endproc
 350              	.LFE90:
ARM GAS  C:\Users\EBANO_~1\AppData\Local\Temp\ccis3phW.s 			page 29


 351              		.size	LoRaMacClassBIsAcquisitionPending, .-LoRaMacClassBIsAcquisitionPending
 352              		.section	.text.LoRaMacClassBIsBeaconModeActive,"ax",%progbits
 353              		.align	1
 354              		.p2align 2,,3
 355              		.global	LoRaMacClassBIsBeaconModeActive
 356              		.syntax unified
 357              		.code	16
 358              		.thumb_func
 359              		.fpu softvfp
 360              		.type	LoRaMacClassBIsBeaconModeActive, %function
 361              	LoRaMacClassBIsBeaconModeActive:
 362              	.LFB92:
 363              		.cfi_startproc
 364              		@ args = 0, pretend = 0, frame = 0
 365              		@ frame_needed = 0, uses_anonymous_args = 0
 366              		@ link register save eliminated.
 367 0000 0020     		movs	r0, #0
 368              		@ sp needed
 369 0002 7047     		bx	lr
 370              		.cfi_endproc
 371              	.LFE92:
 372              		.size	LoRaMacClassBIsBeaconModeActive, .-LoRaMacClassBIsBeaconModeActive
 373              		.section	.text.LoRaMacClassBSetPingSlotInfo,"ax",%progbits
 374              		.align	1
 375              		.p2align 2,,3
 376              		.global	LoRaMacClassBSetPingSlotInfo
 377              		.syntax unified
 378              		.code	16
 379              		.thumb_func
 380              		.fpu softvfp
 381              		.type	LoRaMacClassBSetPingSlotInfo, %function
 382              	LoRaMacClassBSetPingSlotInfo:
 383              	.LFB76:
 384              		.cfi_startproc
 385              		@ args = 0, pretend = 0, frame = 0
 386              		@ frame_needed = 0, uses_anonymous_args = 0
 387              		@ link register save eliminated.
 388              		@ sp needed
 389 0000 7047     		bx	lr
 390              		.cfi_endproc
 391              	.LFE76:
 392              		.size	LoRaMacClassBSetPingSlotInfo, .-LoRaMacClassBSetPingSlotInfo
 393 0002 C046     		.section	.text.LoRaMacClassBHaltBeaconing,"ax",%progbits
 394              		.align	1
 395              		.p2align 2,,3
 396              		.global	LoRaMacClassBHaltBeaconing
 397              		.syntax unified
 398              		.code	16
 399              		.thumb_func
 400              		.fpu softvfp
 401              		.type	LoRaMacClassBHaltBeaconing, %function
 402              	LoRaMacClassBHaltBeaconing:
 403              	.LFB56:
1246:../../../../../../Middlewares/Third_Party/LoRaWAN/Mac/LoRaMacClassB.c **** 
1247:../../../../../../Middlewares/Third_Party/LoRaWAN/Mac/LoRaMacClassB.c **** bool LoRaMacClassBIsBeaconExpected( void )
1248:../../../../../../Middlewares/Third_Party/LoRaWAN/Mac/LoRaMacClassB.c **** {
1249:../../../../../../Middlewares/Third_Party/LoRaWAN/Mac/LoRaMacClassB.c **** #ifdef LORAMAC_CLASSB_ENABLED
ARM GAS  C:\Users\EBANO_~1\AppData\Local\Temp\ccis3phW.s 			page 30


1250:../../../../../../Middlewares/Third_Party/LoRaWAN/Mac/LoRaMacClassB.c ****     if( ( Ctx.NvmCtx->BeaconCtx.Ctrl.AcquisitionPending == 1 ) ||
1251:../../../../../../Middlewares/Third_Party/LoRaWAN/Mac/LoRaMacClassB.c ****         ( Ctx.NvmCtx->BeaconState == BEACON_STATE_RX ) )
1252:../../../../../../Middlewares/Third_Party/LoRaWAN/Mac/LoRaMacClassB.c ****     {
1253:../../../../../../Middlewares/Third_Party/LoRaWAN/Mac/LoRaMacClassB.c ****         return true;
1254:../../../../../../Middlewares/Third_Party/LoRaWAN/Mac/LoRaMacClassB.c ****     }
1255:../../../../../../Middlewares/Third_Party/LoRaWAN/Mac/LoRaMacClassB.c ****     return false;
1256:../../../../../../Middlewares/Third_Party/LoRaWAN/Mac/LoRaMacClassB.c **** #else
1257:../../../../../../Middlewares/Third_Party/LoRaWAN/Mac/LoRaMacClassB.c ****     return false;
1258:../../../../../../Middlewares/Third_Party/LoRaWAN/Mac/LoRaMacClassB.c **** #endif // LORAMAC_CLASSB_ENABLED
1259:../../../../../../Middlewares/Third_Party/LoRaWAN/Mac/LoRaMacClassB.c **** }
1260:../../../../../../Middlewares/Third_Party/LoRaWAN/Mac/LoRaMacClassB.c **** 
1261:../../../../../../Middlewares/Third_Party/LoRaWAN/Mac/LoRaMacClassB.c **** bool LoRaMacClassBIsPingExpected( void )
1262:../../../../../../Middlewares/Third_Party/LoRaWAN/Mac/LoRaMacClassB.c **** {
1263:../../../../../../Middlewares/Third_Party/LoRaWAN/Mac/LoRaMacClassB.c **** #ifdef LORAMAC_CLASSB_ENABLED
1264:../../../../../../Middlewares/Third_Party/LoRaWAN/Mac/LoRaMacClassB.c ****     if( Ctx.NvmCtx->PingSlotState == PINGSLOT_STATE_RX )
1265:../../../../../../Middlewares/Third_Party/LoRaWAN/Mac/LoRaMacClassB.c ****     {
1266:../../../../../../Middlewares/Third_Party/LoRaWAN/Mac/LoRaMacClassB.c ****         return true;
1267:../../../../../../Middlewares/Third_Party/LoRaWAN/Mac/LoRaMacClassB.c ****     }
1268:../../../../../../Middlewares/Third_Party/LoRaWAN/Mac/LoRaMacClassB.c ****     return false;
1269:../../../../../../Middlewares/Third_Party/LoRaWAN/Mac/LoRaMacClassB.c **** #else
1270:../../../../../../Middlewares/Third_Party/LoRaWAN/Mac/LoRaMacClassB.c ****     return false;
1271:../../../../../../Middlewares/Third_Party/LoRaWAN/Mac/LoRaMacClassB.c **** #endif // LORAMAC_CLASSB_ENABLED
1272:../../../../../../Middlewares/Third_Party/LoRaWAN/Mac/LoRaMacClassB.c **** }
1273:../../../../../../Middlewares/Third_Party/LoRaWAN/Mac/LoRaMacClassB.c **** 
1274:../../../../../../Middlewares/Third_Party/LoRaWAN/Mac/LoRaMacClassB.c **** bool LoRaMacClassBIsMulticastExpected( void )
1275:../../../../../../Middlewares/Third_Party/LoRaWAN/Mac/LoRaMacClassB.c **** {
1276:../../../../../../Middlewares/Third_Party/LoRaWAN/Mac/LoRaMacClassB.c **** #ifdef LORAMAC_CLASSB_ENABLED
1277:../../../../../../Middlewares/Third_Party/LoRaWAN/Mac/LoRaMacClassB.c ****     if( Ctx.NvmCtx->MulticastSlotState == PINGSLOT_STATE_RX )
1278:../../../../../../Middlewares/Third_Party/LoRaWAN/Mac/LoRaMacClassB.c ****     {
1279:../../../../../../Middlewares/Third_Party/LoRaWAN/Mac/LoRaMacClassB.c ****         return true;
1280:../../../../../../Middlewares/Third_Party/LoRaWAN/Mac/LoRaMacClassB.c ****     }
1281:../../../../../../Middlewares/Third_Party/LoRaWAN/Mac/LoRaMacClassB.c ****     return false;
1282:../../../../../../Middlewares/Third_Party/LoRaWAN/Mac/LoRaMacClassB.c **** #else
1283:../../../../../../Middlewares/Third_Party/LoRaWAN/Mac/LoRaMacClassB.c ****     return false;
1284:../../../../../../Middlewares/Third_Party/LoRaWAN/Mac/LoRaMacClassB.c **** #endif // LORAMAC_CLASSB_ENABLED
1285:../../../../../../Middlewares/Third_Party/LoRaWAN/Mac/LoRaMacClassB.c **** }
1286:../../../../../../Middlewares/Third_Party/LoRaWAN/Mac/LoRaMacClassB.c **** 
1287:../../../../../../Middlewares/Third_Party/LoRaWAN/Mac/LoRaMacClassB.c **** bool LoRaMacClassBIsAcquisitionPending( void )
1288:../../../../../../Middlewares/Third_Party/LoRaWAN/Mac/LoRaMacClassB.c **** {
1289:../../../../../../Middlewares/Third_Party/LoRaWAN/Mac/LoRaMacClassB.c **** #ifdef LORAMAC_CLASSB_ENABLED
1290:../../../../../../Middlewares/Third_Party/LoRaWAN/Mac/LoRaMacClassB.c ****     if( Ctx.NvmCtx->BeaconCtx.Ctrl.AcquisitionPending == 1 )
1291:../../../../../../Middlewares/Third_Party/LoRaWAN/Mac/LoRaMacClassB.c ****     {
1292:../../../../../../Middlewares/Third_Party/LoRaWAN/Mac/LoRaMacClassB.c ****         return true;
1293:../../../../../../Middlewares/Third_Party/LoRaWAN/Mac/LoRaMacClassB.c ****     }
1294:../../../../../../Middlewares/Third_Party/LoRaWAN/Mac/LoRaMacClassB.c ****     return false;
1295:../../../../../../Middlewares/Third_Party/LoRaWAN/Mac/LoRaMacClassB.c **** #else
1296:../../../../../../Middlewares/Third_Party/LoRaWAN/Mac/LoRaMacClassB.c ****     return false;
1297:../../../../../../Middlewares/Third_Party/LoRaWAN/Mac/LoRaMacClassB.c **** #endif // LORAMAC_CLASSB_ENABLED
1298:../../../../../../Middlewares/Third_Party/LoRaWAN/Mac/LoRaMacClassB.c **** }
1299:../../../../../../Middlewares/Third_Party/LoRaWAN/Mac/LoRaMacClassB.c **** 
1300:../../../../../../Middlewares/Third_Party/LoRaWAN/Mac/LoRaMacClassB.c **** bool LoRaMacClassBIsBeaconModeActive( void )
1301:../../../../../../Middlewares/Third_Party/LoRaWAN/Mac/LoRaMacClassB.c **** {
1302:../../../../../../Middlewares/Third_Party/LoRaWAN/Mac/LoRaMacClassB.c **** #ifdef LORAMAC_CLASSB_ENABLED
1303:../../../../../../Middlewares/Third_Party/LoRaWAN/Mac/LoRaMacClassB.c ****     if( ( Ctx.NvmCtx->BeaconCtx.Ctrl.BeaconMode == 1 ) ||
1304:../../../../../../Middlewares/Third_Party/LoRaWAN/Mac/LoRaMacClassB.c ****         ( Ctx.NvmCtx->BeaconState == BEACON_STATE_ACQUISITION_BY_TIME ) )
1305:../../../../../../Middlewares/Third_Party/LoRaWAN/Mac/LoRaMacClassB.c ****     {
1306:../../../../../../Middlewares/Third_Party/LoRaWAN/Mac/LoRaMacClassB.c ****         return true;
ARM GAS  C:\Users\EBANO_~1\AppData\Local\Temp\ccis3phW.s 			page 31


1307:../../../../../../Middlewares/Third_Party/LoRaWAN/Mac/LoRaMacClassB.c ****     }
1308:../../../../../../Middlewares/Third_Party/LoRaWAN/Mac/LoRaMacClassB.c ****     return false;
1309:../../../../../../Middlewares/Third_Party/LoRaWAN/Mac/LoRaMacClassB.c **** #else
1310:../../../../../../Middlewares/Third_Party/LoRaWAN/Mac/LoRaMacClassB.c ****     return false;
1311:../../../../../../Middlewares/Third_Party/LoRaWAN/Mac/LoRaMacClassB.c **** #endif // LORAMAC_CLASSB_ENABLED
1312:../../../../../../Middlewares/Third_Party/LoRaWAN/Mac/LoRaMacClassB.c **** }
1313:../../../../../../Middlewares/Third_Party/LoRaWAN/Mac/LoRaMacClassB.c **** 
1314:../../../../../../Middlewares/Third_Party/LoRaWAN/Mac/LoRaMacClassB.c **** void LoRaMacClassBSetPingSlotInfo( uint8_t periodicity )
1315:../../../../../../Middlewares/Third_Party/LoRaWAN/Mac/LoRaMacClassB.c **** {
1316:../../../../../../Middlewares/Third_Party/LoRaWAN/Mac/LoRaMacClassB.c **** #ifdef LORAMAC_CLASSB_ENABLED
1317:../../../../../../Middlewares/Third_Party/LoRaWAN/Mac/LoRaMacClassB.c ****     Ctx.NvmCtx->PingSlotCtx.PingNb = CalcPingNb( periodicity );
1318:../../../../../../Middlewares/Third_Party/LoRaWAN/Mac/LoRaMacClassB.c ****     Ctx.NvmCtx->PingSlotCtx.PingPeriod = CalcPingPeriod( Ctx.NvmCtx->PingSlotCtx.PingNb );
1319:../../../../../../Middlewares/Third_Party/LoRaWAN/Mac/LoRaMacClassB.c ****     NvmContextChange( );
1320:../../../../../../Middlewares/Third_Party/LoRaWAN/Mac/LoRaMacClassB.c **** #endif // LORAMAC_CLASSB_ENABLED
1321:../../../../../../Middlewares/Third_Party/LoRaWAN/Mac/LoRaMacClassB.c **** }
1322:../../../../../../Middlewares/Third_Party/LoRaWAN/Mac/LoRaMacClassB.c **** 
1323:../../../../../../Middlewares/Third_Party/LoRaWAN/Mac/LoRaMacClassB.c **** void LoRaMacClassBHaltBeaconing( void )
1324:../../../../../../Middlewares/Third_Party/LoRaWAN/Mac/LoRaMacClassB.c **** {
 404              		.loc 1 1324 0
 405              		.cfi_startproc
 406              		@ args = 0, pretend = 0, frame = 0
 407              		@ frame_needed = 0, uses_anonymous_args = 0
 408              		@ link register save eliminated.
1325:../../../../../../Middlewares/Third_Party/LoRaWAN/Mac/LoRaMacClassB.c **** #ifdef LORAMAC_CLASSB_ENABLED
1326:../../../../../../Middlewares/Third_Party/LoRaWAN/Mac/LoRaMacClassB.c ****     if( Ctx.NvmCtx->BeaconCtx.Ctrl.BeaconMode == 1 )
1327:../../../../../../Middlewares/Third_Party/LoRaWAN/Mac/LoRaMacClassB.c ****     {
1328:../../../../../../Middlewares/Third_Party/LoRaWAN/Mac/LoRaMacClassB.c ****         if( ( Ctx.NvmCtx->BeaconState == BEACON_STATE_TIMEOUT ) ||
1329:../../../../../../Middlewares/Third_Party/LoRaWAN/Mac/LoRaMacClassB.c ****             ( Ctx.NvmCtx->BeaconState == BEACON_STATE_LOST ) )
1330:../../../../../../Middlewares/Third_Party/LoRaWAN/Mac/LoRaMacClassB.c ****         {
1331:../../../../../../Middlewares/Third_Party/LoRaWAN/Mac/LoRaMacClassB.c ****             // Update the state machine before halt
1332:../../../../../../Middlewares/Third_Party/LoRaWAN/Mac/LoRaMacClassB.c ****             LoRaMacClassBBeaconTimerEvent( NULL );
1333:../../../../../../Middlewares/Third_Party/LoRaWAN/Mac/LoRaMacClassB.c ****         }
1334:../../../../../../Middlewares/Third_Party/LoRaWAN/Mac/LoRaMacClassB.c **** 
1335:../../../../../../Middlewares/Third_Party/LoRaWAN/Mac/LoRaMacClassB.c ****         CRITICAL_SECTION_BEGIN( );
1336:../../../../../../Middlewares/Third_Party/LoRaWAN/Mac/LoRaMacClassB.c ****         LoRaMacClassBEvents.Events.Beacon = 0;
1337:../../../../../../Middlewares/Third_Party/LoRaWAN/Mac/LoRaMacClassB.c ****         CRITICAL_SECTION_END( );
1338:../../../../../../Middlewares/Third_Party/LoRaWAN/Mac/LoRaMacClassB.c **** 
1339:../../../../../../Middlewares/Third_Party/LoRaWAN/Mac/LoRaMacClassB.c ****         // Halt ping slot state machine
1340:../../../../../../Middlewares/Third_Party/LoRaWAN/Mac/LoRaMacClassB.c ****         TimerStop( &Ctx.BeaconTimer );
1341:../../../../../../Middlewares/Third_Party/LoRaWAN/Mac/LoRaMacClassB.c **** 
1342:../../../../../../Middlewares/Third_Party/LoRaWAN/Mac/LoRaMacClassB.c ****         // Halt beacon state machine
1343:../../../../../../Middlewares/Third_Party/LoRaWAN/Mac/LoRaMacClassB.c ****         Ctx.NvmCtx->BeaconState = BEACON_STATE_HALT;
1344:../../../../../../Middlewares/Third_Party/LoRaWAN/Mac/LoRaMacClassB.c **** 
1345:../../../../../../Middlewares/Third_Party/LoRaWAN/Mac/LoRaMacClassB.c ****         // Halt ping and multicast slot state machines
1346:../../../../../../Middlewares/Third_Party/LoRaWAN/Mac/LoRaMacClassB.c ****         LoRaMacClassBStopRxSlots( );
1347:../../../../../../Middlewares/Third_Party/LoRaWAN/Mac/LoRaMacClassB.c **** 
1348:../../../../../../Middlewares/Third_Party/LoRaWAN/Mac/LoRaMacClassB.c ****         NvmContextChange( );
1349:../../../../../../Middlewares/Third_Party/LoRaWAN/Mac/LoRaMacClassB.c ****     }
1350:../../../../../../Middlewares/Third_Party/LoRaWAN/Mac/LoRaMacClassB.c **** #endif // LORAMAC_CLASSB_ENABLED
1351:../../../../../../Middlewares/Third_Party/LoRaWAN/Mac/LoRaMacClassB.c **** }
 409              		.loc 1 1351 0
 410              		@ sp needed
 411 0000 7047     		bx	lr
 412              		.cfi_endproc
 413              	.LFE56:
 414              		.size	LoRaMacClassBHaltBeaconing, .-LoRaMacClassBHaltBeaconing
 415 0002 C046     		.section	.text.LoRaMacClassBResumeBeaconing,"ax",%progbits
ARM GAS  C:\Users\EBANO_~1\AppData\Local\Temp\ccis3phW.s 			page 32


 416              		.align	1
 417              		.p2align 2,,3
 418              		.global	LoRaMacClassBResumeBeaconing
 419              		.syntax unified
 420              		.code	16
 421              		.thumb_func
 422              		.fpu softvfp
 423              		.type	LoRaMacClassBResumeBeaconing, %function
 424              	LoRaMacClassBResumeBeaconing:
 425              	.LFB94:
 426              		.cfi_startproc
 427              		@ args = 0, pretend = 0, frame = 0
 428              		@ frame_needed = 0, uses_anonymous_args = 0
 429              		@ link register save eliminated.
 430              		@ sp needed
 431 0000 7047     		bx	lr
 432              		.cfi_endproc
 433              	.LFE94:
 434              		.size	LoRaMacClassBResumeBeaconing, .-LoRaMacClassBResumeBeaconing
 435 0002 C046     		.section	.text.LoRaMacClassBSwitchClass,"ax",%progbits
 436              		.align	1
 437              		.p2align 2,,3
 438              		.global	LoRaMacClassBSwitchClass
 439              		.syntax unified
 440              		.code	16
 441              		.thumb_func
 442              		.fpu softvfp
 443              		.type	LoRaMacClassBSwitchClass, %function
 444              	LoRaMacClassBSwitchClass:
 445              	.LFB58:
1352:../../../../../../Middlewares/Third_Party/LoRaWAN/Mac/LoRaMacClassB.c **** 
1353:../../../../../../Middlewares/Third_Party/LoRaWAN/Mac/LoRaMacClassB.c **** void LoRaMacClassBResumeBeaconing( void )
1354:../../../../../../Middlewares/Third_Party/LoRaWAN/Mac/LoRaMacClassB.c **** {
1355:../../../../../../Middlewares/Third_Party/LoRaWAN/Mac/LoRaMacClassB.c **** #ifdef LORAMAC_CLASSB_ENABLED
1356:../../../../../../Middlewares/Third_Party/LoRaWAN/Mac/LoRaMacClassB.c ****     if( Ctx.NvmCtx->BeaconState == BEACON_STATE_HALT )
1357:../../../../../../Middlewares/Third_Party/LoRaWAN/Mac/LoRaMacClassB.c ****     {
1358:../../../../../../Middlewares/Third_Party/LoRaWAN/Mac/LoRaMacClassB.c ****         Ctx.NvmCtx->BeaconCtx.Ctrl.ResumeBeaconing = 1;
1359:../../../../../../Middlewares/Third_Party/LoRaWAN/Mac/LoRaMacClassB.c **** 
1360:../../../../../../Middlewares/Third_Party/LoRaWAN/Mac/LoRaMacClassB.c ****         // Set default state
1361:../../../../../../Middlewares/Third_Party/LoRaWAN/Mac/LoRaMacClassB.c ****         Ctx.NvmCtx->BeaconState = BEACON_STATE_LOCKED;
1362:../../../../../../Middlewares/Third_Party/LoRaWAN/Mac/LoRaMacClassB.c **** 
1363:../../../../../../Middlewares/Third_Party/LoRaWAN/Mac/LoRaMacClassB.c ****         if( Ctx.NvmCtx->BeaconCtx.Ctrl.BeaconAcquired == 0 )
1364:../../../../../../Middlewares/Third_Party/LoRaWAN/Mac/LoRaMacClassB.c ****         {
1365:../../../../../../Middlewares/Third_Party/LoRaWAN/Mac/LoRaMacClassB.c ****             // Set the default state for beacon less operation
1366:../../../../../../Middlewares/Third_Party/LoRaWAN/Mac/LoRaMacClassB.c ****             Ctx.NvmCtx->BeaconState = BEACON_STATE_REACQUISITION;
1367:../../../../../../Middlewares/Third_Party/LoRaWAN/Mac/LoRaMacClassB.c ****         }
1368:../../../../../../Middlewares/Third_Party/LoRaWAN/Mac/LoRaMacClassB.c **** 
1369:../../../../../../Middlewares/Third_Party/LoRaWAN/Mac/LoRaMacClassB.c ****         LoRaMacClassBBeaconTimerEvent( NULL );
1370:../../../../../../Middlewares/Third_Party/LoRaWAN/Mac/LoRaMacClassB.c ****         NvmContextChange( );
1371:../../../../../../Middlewares/Third_Party/LoRaWAN/Mac/LoRaMacClassB.c ****     }
1372:../../../../../../Middlewares/Third_Party/LoRaWAN/Mac/LoRaMacClassB.c **** #endif // LORAMAC_CLASSB_ENABLED
1373:../../../../../../Middlewares/Third_Party/LoRaWAN/Mac/LoRaMacClassB.c **** }
1374:../../../../../../Middlewares/Third_Party/LoRaWAN/Mac/LoRaMacClassB.c **** 
1375:../../../../../../Middlewares/Third_Party/LoRaWAN/Mac/LoRaMacClassB.c **** LoRaMacStatus_t LoRaMacClassBSwitchClass( DeviceClass_t nextClass )
1376:../../../../../../Middlewares/Third_Party/LoRaWAN/Mac/LoRaMacClassB.c **** {
 446              		.loc 1 1376 0
 447              		.cfi_startproc
ARM GAS  C:\Users\EBANO_~1\AppData\Local\Temp\ccis3phW.s 			page 33


 448              		@ args = 0, pretend = 0, frame = 0
 449              		@ frame_needed = 0, uses_anonymous_args = 0
 450              		@ link register save eliminated.
 451              	.LVL9:
1377:../../../../../../Middlewares/Third_Party/LoRaWAN/Mac/LoRaMacClassB.c **** #ifdef LORAMAC_CLASSB_ENABLED
1378:../../../../../../Middlewares/Third_Party/LoRaWAN/Mac/LoRaMacClassB.c ****     if( nextClass == CLASS_B )
1379:../../../../../../Middlewares/Third_Party/LoRaWAN/Mac/LoRaMacClassB.c ****     {// Switch to from class a to class b
1380:../../../../../../Middlewares/Third_Party/LoRaWAN/Mac/LoRaMacClassB.c ****         if( ( Ctx.NvmCtx->BeaconCtx.Ctrl.BeaconMode == 1 ) && ( Ctx.NvmCtx->PingSlotCtx.Ctrl.Assign
1381:../../../../../../Middlewares/Third_Party/LoRaWAN/Mac/LoRaMacClassB.c ****         {
1382:../../../../../../Middlewares/Third_Party/LoRaWAN/Mac/LoRaMacClassB.c ****             return LORAMAC_STATUS_OK;
1383:../../../../../../Middlewares/Third_Party/LoRaWAN/Mac/LoRaMacClassB.c ****         }
1384:../../../../../../Middlewares/Third_Party/LoRaWAN/Mac/LoRaMacClassB.c ****     }
1385:../../../../../../Middlewares/Third_Party/LoRaWAN/Mac/LoRaMacClassB.c ****     if( nextClass == CLASS_A )
1386:../../../../../../Middlewares/Third_Party/LoRaWAN/Mac/LoRaMacClassB.c ****     {// Switch from class b to class a
1387:../../../../../../Middlewares/Third_Party/LoRaWAN/Mac/LoRaMacClassB.c ****         LoRaMacClassBHaltBeaconing( );
1388:../../../../../../Middlewares/Third_Party/LoRaWAN/Mac/LoRaMacClassB.c **** 
1389:../../../../../../Middlewares/Third_Party/LoRaWAN/Mac/LoRaMacClassB.c ****         // Initialize default state for class b
1390:../../../../../../Middlewares/Third_Party/LoRaWAN/Mac/LoRaMacClassB.c ****         InitClassBDefaults( );
1391:../../../../../../Middlewares/Third_Party/LoRaWAN/Mac/LoRaMacClassB.c **** 
1392:../../../../../../Middlewares/Third_Party/LoRaWAN/Mac/LoRaMacClassB.c ****         return LORAMAC_STATUS_OK;
1393:../../../../../../Middlewares/Third_Party/LoRaWAN/Mac/LoRaMacClassB.c ****     }
1394:../../../../../../Middlewares/Third_Party/LoRaWAN/Mac/LoRaMacClassB.c ****     return LORAMAC_STATUS_SERVICE_UNKNOWN;
1395:../../../../../../Middlewares/Third_Party/LoRaWAN/Mac/LoRaMacClassB.c **** #else
1396:../../../../../../Middlewares/Third_Party/LoRaWAN/Mac/LoRaMacClassB.c ****     return LORAMAC_STATUS_SERVICE_UNKNOWN;
1397:../../../../../../Middlewares/Third_Party/LoRaWAN/Mac/LoRaMacClassB.c **** #endif // LORAMAC_CLASSB_ENABLED
1398:../../../../../../Middlewares/Third_Party/LoRaWAN/Mac/LoRaMacClassB.c **** }
 452              		.loc 1 1398 0
 453 0000 0220     		movs	r0, #2
 454              	.LVL10:
 455              		@ sp needed
 456 0002 7047     		bx	lr
 457              		.cfi_endproc
 458              	.LFE58:
 459              		.size	LoRaMacClassBSwitchClass, .-LoRaMacClassBSwitchClass
 460              		.section	.text.LoRaMacClassBMibGetRequestConfirm,"ax",%progbits
 461              		.align	1
 462              		.p2align 2,,3
 463              		.global	LoRaMacClassBMibGetRequestConfirm
 464              		.syntax unified
 465              		.code	16
 466              		.thumb_func
 467              		.fpu softvfp
 468              		.type	LoRaMacClassBMibGetRequestConfirm, %function
 469              	LoRaMacClassBMibGetRequestConfirm:
 470              	.LFB59:
1399:../../../../../../Middlewares/Third_Party/LoRaWAN/Mac/LoRaMacClassB.c **** 
1400:../../../../../../Middlewares/Third_Party/LoRaWAN/Mac/LoRaMacClassB.c **** LoRaMacStatus_t LoRaMacClassBMibGetRequestConfirm( MibRequestConfirm_t *mibGet )
1401:../../../../../../Middlewares/Third_Party/LoRaWAN/Mac/LoRaMacClassB.c **** {
 471              		.loc 1 1401 0
 472              		.cfi_startproc
 473              		@ args = 0, pretend = 0, frame = 0
 474              		@ frame_needed = 0, uses_anonymous_args = 0
 475              		@ link register save eliminated.
 476              	.LVL11:
1402:../../../../../../Middlewares/Third_Party/LoRaWAN/Mac/LoRaMacClassB.c **** #ifdef LORAMAC_CLASSB_ENABLED
1403:../../../../../../Middlewares/Third_Party/LoRaWAN/Mac/LoRaMacClassB.c ****     LoRaMacStatus_t status;
1404:../../../../../../Middlewares/Third_Party/LoRaWAN/Mac/LoRaMacClassB.c **** 
ARM GAS  C:\Users\EBANO_~1\AppData\Local\Temp\ccis3phW.s 			page 34


1405:../../../../../../Middlewares/Third_Party/LoRaWAN/Mac/LoRaMacClassB.c ****     switch( mibGet->Type )
1406:../../../../../../Middlewares/Third_Party/LoRaWAN/Mac/LoRaMacClassB.c ****     {
1407:../../../../../../Middlewares/Third_Party/LoRaWAN/Mac/LoRaMacClassB.c ****         case MIB_PING_SLOT_DATARATE:
1408:../../../../../../Middlewares/Third_Party/LoRaWAN/Mac/LoRaMacClassB.c ****         {
1409:../../../../../../Middlewares/Third_Party/LoRaWAN/Mac/LoRaMacClassB.c ****             mibGet->Param.PingSlotDatarate = Ctx.NvmCtx->PingSlotCtx.Datarate;
1410:../../../../../../Middlewares/Third_Party/LoRaWAN/Mac/LoRaMacClassB.c ****             break;
1411:../../../../../../Middlewares/Third_Party/LoRaWAN/Mac/LoRaMacClassB.c ****         }
1412:../../../../../../Middlewares/Third_Party/LoRaWAN/Mac/LoRaMacClassB.c ****         default:
1413:../../../../../../Middlewares/Third_Party/LoRaWAN/Mac/LoRaMacClassB.c ****         {
1414:../../../../../../Middlewares/Third_Party/LoRaWAN/Mac/LoRaMacClassB.c ****             status = LORAMAC_STATUS_SERVICE_UNKNOWN;
1415:../../../../../../Middlewares/Third_Party/LoRaWAN/Mac/LoRaMacClassB.c ****             break;
1416:../../../../../../Middlewares/Third_Party/LoRaWAN/Mac/LoRaMacClassB.c ****         }
1417:../../../../../../Middlewares/Third_Party/LoRaWAN/Mac/LoRaMacClassB.c ****     }
1418:../../../../../../Middlewares/Third_Party/LoRaWAN/Mac/LoRaMacClassB.c ****     return status;
1419:../../../../../../Middlewares/Third_Party/LoRaWAN/Mac/LoRaMacClassB.c **** #else
1420:../../../../../../Middlewares/Third_Party/LoRaWAN/Mac/LoRaMacClassB.c ****     return LORAMAC_STATUS_SERVICE_UNKNOWN;
1421:../../../../../../Middlewares/Third_Party/LoRaWAN/Mac/LoRaMacClassB.c **** #endif // LORAMAC_CLASSB_ENABLED
1422:../../../../../../Middlewares/Third_Party/LoRaWAN/Mac/LoRaMacClassB.c **** }
 477              		.loc 1 1422 0
 478 0000 0220     		movs	r0, #2
 479              	.LVL12:
 480              		@ sp needed
 481 0002 7047     		bx	lr
 482              		.cfi_endproc
 483              	.LFE59:
 484              		.size	LoRaMacClassBMibGetRequestConfirm, .-LoRaMacClassBMibGetRequestConfirm
 485              		.section	.text.LoRaMacMibClassBSetRequestConfirm,"ax",%progbits
 486              		.align	1
 487              		.p2align 2,,3
 488              		.global	LoRaMacMibClassBSetRequestConfirm
 489              		.syntax unified
 490              		.code	16
 491              		.thumb_func
 492              		.fpu softvfp
 493              		.type	LoRaMacMibClassBSetRequestConfirm, %function
 494              	LoRaMacMibClassBSetRequestConfirm:
 495              	.LFB106:
 496              		.cfi_startproc
 497              		@ args = 0, pretend = 0, frame = 0
 498              		@ frame_needed = 0, uses_anonymous_args = 0
 499              		@ link register save eliminated.
 500 0000 0220     		movs	r0, #2
 501              		@ sp needed
 502 0002 7047     		bx	lr
 503              		.cfi_endproc
 504              	.LFE106:
 505              		.size	LoRaMacMibClassBSetRequestConfirm, .-LoRaMacMibClassBSetRequestConfirm
 506              		.section	.text.LoRaMacClassBPingSlotInfoAns,"ax",%progbits
 507              		.align	1
 508              		.p2align 2,,3
 509              		.global	LoRaMacClassBPingSlotInfoAns
 510              		.syntax unified
 511              		.code	16
 512              		.thumb_func
 513              		.fpu softvfp
 514              		.type	LoRaMacClassBPingSlotInfoAns, %function
 515              	LoRaMacClassBPingSlotInfoAns:
ARM GAS  C:\Users\EBANO_~1\AppData\Local\Temp\ccis3phW.s 			page 35


 516              	.LFB96:
 517              		.cfi_startproc
 518              		@ args = 0, pretend = 0, frame = 0
 519              		@ frame_needed = 0, uses_anonymous_args = 0
 520              		@ link register save eliminated.
 521              		@ sp needed
 522 0000 7047     		bx	lr
 523              		.cfi_endproc
 524              	.LFE96:
 525              		.size	LoRaMacClassBPingSlotInfoAns, .-LoRaMacClassBPingSlotInfoAns
 526 0002 C046     		.section	.text.LoRaMacClassBPingSlotChannelReq,"ax",%progbits
 527              		.align	1
 528              		.p2align 2,,3
 529              		.global	LoRaMacClassBPingSlotChannelReq
 530              		.syntax unified
 531              		.code	16
 532              		.thumb_func
 533              		.fpu softvfp
 534              		.type	LoRaMacClassBPingSlotChannelReq, %function
 535              	LoRaMacClassBPingSlotChannelReq:
 536              	.LFB62:
1423:../../../../../../Middlewares/Third_Party/LoRaWAN/Mac/LoRaMacClassB.c **** 
1424:../../../../../../Middlewares/Third_Party/LoRaWAN/Mac/LoRaMacClassB.c **** LoRaMacStatus_t LoRaMacMibClassBSetRequestConfirm( MibRequestConfirm_t *mibSet )
1425:../../../../../../Middlewares/Third_Party/LoRaWAN/Mac/LoRaMacClassB.c **** {
1426:../../../../../../Middlewares/Third_Party/LoRaWAN/Mac/LoRaMacClassB.c **** #ifdef LORAMAC_CLASSB_ENABLED
1427:../../../../../../Middlewares/Third_Party/LoRaWAN/Mac/LoRaMacClassB.c ****     LoRaMacStatus_t status;
1428:../../../../../../Middlewares/Third_Party/LoRaWAN/Mac/LoRaMacClassB.c **** 
1429:../../../../../../Middlewares/Third_Party/LoRaWAN/Mac/LoRaMacClassB.c ****     switch( mibSet->Type )
1430:../../../../../../Middlewares/Third_Party/LoRaWAN/Mac/LoRaMacClassB.c ****     {
1431:../../../../../../Middlewares/Third_Party/LoRaWAN/Mac/LoRaMacClassB.c ****         case MIB_PING_SLOT_DATARATE:
1432:../../../../../../Middlewares/Third_Party/LoRaWAN/Mac/LoRaMacClassB.c ****         {
1433:../../../../../../Middlewares/Third_Party/LoRaWAN/Mac/LoRaMacClassB.c ****             Ctx.NvmCtx->PingSlotCtx.Datarate = mibSet->Param.PingSlotDatarate;
1434:../../../../../../Middlewares/Third_Party/LoRaWAN/Mac/LoRaMacClassB.c ****             break;
1435:../../../../../../Middlewares/Third_Party/LoRaWAN/Mac/LoRaMacClassB.c ****         }
1436:../../../../../../Middlewares/Third_Party/LoRaWAN/Mac/LoRaMacClassB.c ****         default:
1437:../../../../../../Middlewares/Third_Party/LoRaWAN/Mac/LoRaMacClassB.c ****         {
1438:../../../../../../Middlewares/Third_Party/LoRaWAN/Mac/LoRaMacClassB.c ****             status = LORAMAC_STATUS_SERVICE_UNKNOWN;
1439:../../../../../../Middlewares/Third_Party/LoRaWAN/Mac/LoRaMacClassB.c ****             break;
1440:../../../../../../Middlewares/Third_Party/LoRaWAN/Mac/LoRaMacClassB.c ****         }
1441:../../../../../../Middlewares/Third_Party/LoRaWAN/Mac/LoRaMacClassB.c ****     }
1442:../../../../../../Middlewares/Third_Party/LoRaWAN/Mac/LoRaMacClassB.c ****     NvmContextChange( );
1443:../../../../../../Middlewares/Third_Party/LoRaWAN/Mac/LoRaMacClassB.c ****     return status;
1444:../../../../../../Middlewares/Third_Party/LoRaWAN/Mac/LoRaMacClassB.c **** #else
1445:../../../../../../Middlewares/Third_Party/LoRaWAN/Mac/LoRaMacClassB.c ****     return LORAMAC_STATUS_SERVICE_UNKNOWN;
1446:../../../../../../Middlewares/Third_Party/LoRaWAN/Mac/LoRaMacClassB.c **** #endif // LORAMAC_CLASSB_ENABLED
1447:../../../../../../Middlewares/Third_Party/LoRaWAN/Mac/LoRaMacClassB.c **** }
1448:../../../../../../Middlewares/Third_Party/LoRaWAN/Mac/LoRaMacClassB.c **** 
1449:../../../../../../Middlewares/Third_Party/LoRaWAN/Mac/LoRaMacClassB.c **** void LoRaMacClassBPingSlotInfoAns( void )
1450:../../../../../../Middlewares/Third_Party/LoRaWAN/Mac/LoRaMacClassB.c **** {
1451:../../../../../../Middlewares/Third_Party/LoRaWAN/Mac/LoRaMacClassB.c **** #ifdef LORAMAC_CLASSB_ENABLED
1452:../../../../../../Middlewares/Third_Party/LoRaWAN/Mac/LoRaMacClassB.c ****     if( LoRaMacConfirmQueueIsCmdActive( MLME_PING_SLOT_INFO ) == true )
1453:../../../../../../Middlewares/Third_Party/LoRaWAN/Mac/LoRaMacClassB.c ****     {
1454:../../../../../../Middlewares/Third_Party/LoRaWAN/Mac/LoRaMacClassB.c ****         LoRaMacConfirmQueueSetStatus( LORAMAC_EVENT_INFO_STATUS_OK, MLME_PING_SLOT_INFO );
1455:../../../../../../Middlewares/Third_Party/LoRaWAN/Mac/LoRaMacClassB.c ****         Ctx.NvmCtx->PingSlotCtx.Ctrl.Assigned = 1;
1456:../../../../../../Middlewares/Third_Party/LoRaWAN/Mac/LoRaMacClassB.c ****     }
1457:../../../../../../Middlewares/Third_Party/LoRaWAN/Mac/LoRaMacClassB.c **** #endif // LORAMAC_CLASSB_ENABLED
1458:../../../../../../Middlewares/Third_Party/LoRaWAN/Mac/LoRaMacClassB.c **** }
ARM GAS  C:\Users\EBANO_~1\AppData\Local\Temp\ccis3phW.s 			page 36


1459:../../../../../../Middlewares/Third_Party/LoRaWAN/Mac/LoRaMacClassB.c **** 
1460:../../../../../../Middlewares/Third_Party/LoRaWAN/Mac/LoRaMacClassB.c **** uint8_t LoRaMacClassBPingSlotChannelReq( uint8_t datarate, uint32_t frequency )
1461:../../../../../../Middlewares/Third_Party/LoRaWAN/Mac/LoRaMacClassB.c **** {
 537              		.loc 1 1461 0
 538              		.cfi_startproc
 539              		@ args = 0, pretend = 0, frame = 0
 540              		@ frame_needed = 0, uses_anonymous_args = 0
 541              		@ link register save eliminated.
 542              	.LVL13:
1462:../../../../../../Middlewares/Third_Party/LoRaWAN/Mac/LoRaMacClassB.c **** #ifdef LORAMAC_CLASSB_ENABLED
1463:../../../../../../Middlewares/Third_Party/LoRaWAN/Mac/LoRaMacClassB.c ****     uint8_t status = 0x03;
1464:../../../../../../Middlewares/Third_Party/LoRaWAN/Mac/LoRaMacClassB.c ****     VerifyParams_t verify;
1465:../../../../../../Middlewares/Third_Party/LoRaWAN/Mac/LoRaMacClassB.c ****     bool isCustomFreq = false;
1466:../../../../../../Middlewares/Third_Party/LoRaWAN/Mac/LoRaMacClassB.c **** 
1467:../../../../../../Middlewares/Third_Party/LoRaWAN/Mac/LoRaMacClassB.c ****     if( frequency != 0 )
1468:../../../../../../Middlewares/Third_Party/LoRaWAN/Mac/LoRaMacClassB.c ****     {
1469:../../../../../../Middlewares/Third_Party/LoRaWAN/Mac/LoRaMacClassB.c ****         isCustomFreq = true;
1470:../../../../../../Middlewares/Third_Party/LoRaWAN/Mac/LoRaMacClassB.c ****         if( Radio.CheckRfFrequency( frequency ) == false )
1471:../../../../../../Middlewares/Third_Party/LoRaWAN/Mac/LoRaMacClassB.c ****         {
1472:../../../../../../Middlewares/Third_Party/LoRaWAN/Mac/LoRaMacClassB.c ****             status &= 0xFE; // Channel frequency KO
1473:../../../../../../Middlewares/Third_Party/LoRaWAN/Mac/LoRaMacClassB.c ****         }
1474:../../../../../../Middlewares/Third_Party/LoRaWAN/Mac/LoRaMacClassB.c ****     }
1475:../../../../../../Middlewares/Third_Party/LoRaWAN/Mac/LoRaMacClassB.c **** 
1476:../../../../../../Middlewares/Third_Party/LoRaWAN/Mac/LoRaMacClassB.c ****     verify.DatarateParams.Datarate = datarate;
1477:../../../../../../Middlewares/Third_Party/LoRaWAN/Mac/LoRaMacClassB.c ****     verify.DatarateParams.DownlinkDwellTime = Ctx.LoRaMacClassBParams.LoRaMacParams->DownlinkDwellT
1478:../../../../../../Middlewares/Third_Party/LoRaWAN/Mac/LoRaMacClassB.c **** 
1479:../../../../../../Middlewares/Third_Party/LoRaWAN/Mac/LoRaMacClassB.c ****     if( RegionVerify( *Ctx.LoRaMacClassBParams.LoRaMacRegion, &verify, PHY_RX_DR ) == false )
1480:../../../../../../Middlewares/Third_Party/LoRaWAN/Mac/LoRaMacClassB.c ****     {
1481:../../../../../../Middlewares/Third_Party/LoRaWAN/Mac/LoRaMacClassB.c ****         status &= 0xFD; // Datarate range KO
1482:../../../../../../Middlewares/Third_Party/LoRaWAN/Mac/LoRaMacClassB.c ****     }
1483:../../../../../../Middlewares/Third_Party/LoRaWAN/Mac/LoRaMacClassB.c **** 
1484:../../../../../../Middlewares/Third_Party/LoRaWAN/Mac/LoRaMacClassB.c ****     if( status == 0x03 )
1485:../../../../../../Middlewares/Third_Party/LoRaWAN/Mac/LoRaMacClassB.c ****     {
1486:../../../../../../Middlewares/Third_Party/LoRaWAN/Mac/LoRaMacClassB.c ****         if( isCustomFreq == true )
1487:../../../../../../Middlewares/Third_Party/LoRaWAN/Mac/LoRaMacClassB.c ****         {
1488:../../../../../../Middlewares/Third_Party/LoRaWAN/Mac/LoRaMacClassB.c ****             Ctx.NvmCtx->PingSlotCtx.Ctrl.CustomFreq = 1;
1489:../../../../../../Middlewares/Third_Party/LoRaWAN/Mac/LoRaMacClassB.c ****             Ctx.NvmCtx->PingSlotCtx.Frequency = frequency;
1490:../../../../../../Middlewares/Third_Party/LoRaWAN/Mac/LoRaMacClassB.c ****         }
1491:../../../../../../Middlewares/Third_Party/LoRaWAN/Mac/LoRaMacClassB.c ****         else
1492:../../../../../../Middlewares/Third_Party/LoRaWAN/Mac/LoRaMacClassB.c ****         {
1493:../../../../../../Middlewares/Third_Party/LoRaWAN/Mac/LoRaMacClassB.c ****             Ctx.NvmCtx->PingSlotCtx.Ctrl.CustomFreq = 0;
1494:../../../../../../Middlewares/Third_Party/LoRaWAN/Mac/LoRaMacClassB.c ****             Ctx.NvmCtx->PingSlotCtx.Frequency = 0;
1495:../../../../../../Middlewares/Third_Party/LoRaWAN/Mac/LoRaMacClassB.c ****         }
1496:../../../../../../Middlewares/Third_Party/LoRaWAN/Mac/LoRaMacClassB.c ****         Ctx.NvmCtx->PingSlotCtx.Datarate = datarate;
1497:../../../../../../Middlewares/Third_Party/LoRaWAN/Mac/LoRaMacClassB.c ****         NvmContextChange( );
1498:../../../../../../Middlewares/Third_Party/LoRaWAN/Mac/LoRaMacClassB.c ****     }
1499:../../../../../../Middlewares/Third_Party/LoRaWAN/Mac/LoRaMacClassB.c **** 
1500:../../../../../../Middlewares/Third_Party/LoRaWAN/Mac/LoRaMacClassB.c ****     return status;
1501:../../../../../../Middlewares/Third_Party/LoRaWAN/Mac/LoRaMacClassB.c **** #else
1502:../../../../../../Middlewares/Third_Party/LoRaWAN/Mac/LoRaMacClassB.c ****     return 0;
1503:../../../../../../Middlewares/Third_Party/LoRaWAN/Mac/LoRaMacClassB.c **** #endif // LORAMAC_CLASSB_ENABLED
1504:../../../../../../Middlewares/Third_Party/LoRaWAN/Mac/LoRaMacClassB.c **** }
 543              		.loc 1 1504 0
 544 0000 0020     		movs	r0, #0
 545              	.LVL14:
 546              		@ sp needed
 547 0002 7047     		bx	lr
ARM GAS  C:\Users\EBANO_~1\AppData\Local\Temp\ccis3phW.s 			page 37


 548              		.cfi_endproc
 549              	.LFE62:
 550              		.size	LoRaMacClassBPingSlotChannelReq, .-LoRaMacClassBPingSlotChannelReq
 551              		.section	.text.LoRaMacClassBBeaconTimingAns,"ax",%progbits
 552              		.align	1
 553              		.p2align 2,,3
 554              		.global	LoRaMacClassBBeaconTimingAns
 555              		.syntax unified
 556              		.code	16
 557              		.thumb_func
 558              		.fpu softvfp
 559              		.type	LoRaMacClassBBeaconTimingAns, %function
 560              	LoRaMacClassBBeaconTimingAns:
 561              	.LFB63:
1505:../../../../../../Middlewares/Third_Party/LoRaWAN/Mac/LoRaMacClassB.c **** 
1506:../../../../../../Middlewares/Third_Party/LoRaWAN/Mac/LoRaMacClassB.c **** void LoRaMacClassBBeaconTimingAns( uint16_t beaconTimingDelay, uint8_t beaconTimingChannel, TimerTi
1507:../../../../../../Middlewares/Third_Party/LoRaWAN/Mac/LoRaMacClassB.c **** {
 562              		.loc 1 1507 0
 563              		.cfi_startproc
 564              		@ args = 0, pretend = 0, frame = 0
 565              		@ frame_needed = 0, uses_anonymous_args = 0
 566              		@ link register save eliminated.
 567              	.LVL15:
1508:../../../../../../Middlewares/Third_Party/LoRaWAN/Mac/LoRaMacClassB.c **** #ifdef LORAMAC_CLASSB_ENABLED
1509:../../../../../../Middlewares/Third_Party/LoRaWAN/Mac/LoRaMacClassB.c ****     Ctx.NvmCtx->BeaconCtx.BeaconTimingDelay = ( CLASSB_BEACON_DELAY_BEACON_TIMING_ANS * beaconTimin
1510:../../../../../../Middlewares/Third_Party/LoRaWAN/Mac/LoRaMacClassB.c ****     Ctx.NvmCtx->BeaconCtx.BeaconTimingChannel = beaconTimingChannel;
1511:../../../../../../Middlewares/Third_Party/LoRaWAN/Mac/LoRaMacClassB.c **** 
1512:../../../../../../Middlewares/Third_Party/LoRaWAN/Mac/LoRaMacClassB.c ****     if( LoRaMacConfirmQueueIsCmdActive( MLME_BEACON_TIMING ) == true )
1513:../../../../../../Middlewares/Third_Party/LoRaWAN/Mac/LoRaMacClassB.c ****     {
1514:../../../../../../Middlewares/Third_Party/LoRaWAN/Mac/LoRaMacClassB.c ****         if( Ctx.NvmCtx->BeaconCtx.BeaconTimingDelay > CLASSB_BEACON_INTERVAL )
1515:../../../../../../Middlewares/Third_Party/LoRaWAN/Mac/LoRaMacClassB.c ****         {
1516:../../../../../../Middlewares/Third_Party/LoRaWAN/Mac/LoRaMacClassB.c ****             // We missed the beacon already
1517:../../../../../../Middlewares/Third_Party/LoRaWAN/Mac/LoRaMacClassB.c ****             Ctx.NvmCtx->BeaconCtx.BeaconTimingDelay = 0;
1518:../../../../../../Middlewares/Third_Party/LoRaWAN/Mac/LoRaMacClassB.c ****             Ctx.NvmCtx->BeaconCtx.BeaconTimingChannel = 0;
1519:../../../../../../Middlewares/Third_Party/LoRaWAN/Mac/LoRaMacClassB.c ****             LoRaMacConfirmQueueSetStatus( LORAMAC_EVENT_INFO_STATUS_BEACON_NOT_FOUND, MLME_BEACON_T
1520:../../../../../../Middlewares/Third_Party/LoRaWAN/Mac/LoRaMacClassB.c ****         }
1521:../../../../../../Middlewares/Third_Party/LoRaWAN/Mac/LoRaMacClassB.c ****         else
1522:../../../../../../Middlewares/Third_Party/LoRaWAN/Mac/LoRaMacClassB.c ****         {
1523:../../../../../../Middlewares/Third_Party/LoRaWAN/Mac/LoRaMacClassB.c ****             Ctx.NvmCtx->BeaconCtx.Ctrl.BeaconDelaySet = 1;
1524:../../../../../../Middlewares/Third_Party/LoRaWAN/Mac/LoRaMacClassB.c ****             Ctx.NvmCtx->BeaconCtx.Ctrl.BeaconChannelSet = 1;
1525:../../../../../../Middlewares/Third_Party/LoRaWAN/Mac/LoRaMacClassB.c ****             Ctx.NvmCtx->BeaconCtx.NextBeaconRx = lastRxDone + Ctx.NvmCtx->BeaconCtx.BeaconTimingDel
1526:../../../../../../Middlewares/Third_Party/LoRaWAN/Mac/LoRaMacClassB.c ****             LoRaMacConfirmQueueSetStatus( LORAMAC_EVENT_INFO_STATUS_OK, MLME_BEACON_TIMING );
1527:../../../../../../Middlewares/Third_Party/LoRaWAN/Mac/LoRaMacClassB.c ****         }
1528:../../../../../../Middlewares/Third_Party/LoRaWAN/Mac/LoRaMacClassB.c **** 
1529:../../../../../../Middlewares/Third_Party/LoRaWAN/Mac/LoRaMacClassB.c ****         Ctx.LoRaMacClassBParams.MlmeConfirm->BeaconTimingDelay = Ctx.NvmCtx->BeaconCtx.BeaconTiming
1530:../../../../../../Middlewares/Third_Party/LoRaWAN/Mac/LoRaMacClassB.c ****         Ctx.LoRaMacClassBParams.MlmeConfirm->BeaconTimingChannel = Ctx.NvmCtx->BeaconCtx.BeaconTimi
1531:../../../../../../Middlewares/Third_Party/LoRaWAN/Mac/LoRaMacClassB.c ****     }
1532:../../../../../../Middlewares/Third_Party/LoRaWAN/Mac/LoRaMacClassB.c ****     NvmContextChange( );
1533:../../../../../../Middlewares/Third_Party/LoRaWAN/Mac/LoRaMacClassB.c **** #endif // LORAMAC_CLASSB_ENABLED
1534:../../../../../../Middlewares/Third_Party/LoRaWAN/Mac/LoRaMacClassB.c **** }
 568              		.loc 1 1534 0
 569              		@ sp needed
 570 0000 7047     		bx	lr
 571              		.cfi_endproc
 572              	.LFE63:
 573              		.size	LoRaMacClassBBeaconTimingAns, .-LoRaMacClassBBeaconTimingAns
 574 0002 C046     		.section	.text.LoRaMacClassBDeviceTimeAns,"ax",%progbits
ARM GAS  C:\Users\EBANO_~1\AppData\Local\Temp\ccis3phW.s 			page 38


 575              		.align	1
 576              		.p2align 2,,3
 577              		.global	LoRaMacClassBDeviceTimeAns
 578              		.syntax unified
 579              		.code	16
 580              		.thumb_func
 581              		.fpu softvfp
 582              		.type	LoRaMacClassBDeviceTimeAns, %function
 583              	LoRaMacClassBDeviceTimeAns:
 584              	.LFB98:
 585              		.cfi_startproc
 586              		@ args = 0, pretend = 0, frame = 0
 587              		@ frame_needed = 0, uses_anonymous_args = 0
 588              		@ link register save eliminated.
 589              		@ sp needed
 590 0000 7047     		bx	lr
 591              		.cfi_endproc
 592              	.LFE98:
 593              		.size	LoRaMacClassBDeviceTimeAns, .-LoRaMacClassBDeviceTimeAns
 594 0002 C046     		.section	.text.LoRaMacClassBBeaconFreqReq,"ax",%progbits
 595              		.align	1
 596              		.p2align 2,,3
 597              		.global	LoRaMacClassBBeaconFreqReq
 598              		.syntax unified
 599              		.code	16
 600              		.thumb_func
 601              		.fpu softvfp
 602              		.type	LoRaMacClassBBeaconFreqReq, %function
 603              	LoRaMacClassBBeaconFreqReq:
 604              	.LFB65:
1535:../../../../../../Middlewares/Third_Party/LoRaWAN/Mac/LoRaMacClassB.c **** 
1536:../../../../../../Middlewares/Third_Party/LoRaWAN/Mac/LoRaMacClassB.c **** void LoRaMacClassBDeviceTimeAns( void )
1537:../../../../../../Middlewares/Third_Party/LoRaWAN/Mac/LoRaMacClassB.c **** {
1538:../../../../../../Middlewares/Third_Party/LoRaWAN/Mac/LoRaMacClassB.c **** #ifdef LORAMAC_CLASSB_ENABLED
1539:../../../../../../Middlewares/Third_Party/LoRaWAN/Mac/LoRaMacClassB.c **** 
1540:../../../../../../Middlewares/Third_Party/LoRaWAN/Mac/LoRaMacClassB.c ****     SysTime_t nextBeacon = SysTimeGet( );
1541:../../../../../../Middlewares/Third_Party/LoRaWAN/Mac/LoRaMacClassB.c ****     uint32_t currentTimeMs = SysTime2Ms( nextBeacon );
1542:../../../../../../Middlewares/Third_Party/LoRaWAN/Mac/LoRaMacClassB.c **** 
1543:../../../../../../Middlewares/Third_Party/LoRaWAN/Mac/LoRaMacClassB.c ****     nextBeacon.Seconds = nextBeacon.Seconds + ( 128 - ( nextBeacon.Seconds % 128 ) );
1544:../../../../../../Middlewares/Third_Party/LoRaWAN/Mac/LoRaMacClassB.c **** 
1545:../../../../../../Middlewares/Third_Party/LoRaWAN/Mac/LoRaMacClassB.c ****     Ctx.NvmCtx->BeaconCtx.NextBeaconRx = SysTime2Ms( nextBeacon );
1546:../../../../../../Middlewares/Third_Party/LoRaWAN/Mac/LoRaMacClassB.c ****     if( Ctx.NvmCtx->BeaconCtx.NextBeaconRx > CLASSB_BEACON_INTERVAL )
1547:../../../../../../Middlewares/Third_Party/LoRaWAN/Mac/LoRaMacClassB.c ****     {
1548:../../../../../../Middlewares/Third_Party/LoRaWAN/Mac/LoRaMacClassB.c ****         Ctx.NvmCtx->BeaconCtx.LastBeaconRx = Ctx.NvmCtx->BeaconCtx.NextBeaconRx - CLASSB_BEACON_INT
1549:../../../../../../Middlewares/Third_Party/LoRaWAN/Mac/LoRaMacClassB.c ****     }
1550:../../../../../../Middlewares/Third_Party/LoRaWAN/Mac/LoRaMacClassB.c ****     else
1551:../../../../../../Middlewares/Third_Party/LoRaWAN/Mac/LoRaMacClassB.c ****     {
1552:../../../../../../Middlewares/Third_Party/LoRaWAN/Mac/LoRaMacClassB.c ****         Ctx.NvmCtx->BeaconCtx.LastBeaconRx = 0;
1553:../../../../../../Middlewares/Third_Party/LoRaWAN/Mac/LoRaMacClassB.c ****     }
1554:../../../../../../Middlewares/Third_Party/LoRaWAN/Mac/LoRaMacClassB.c **** 
1555:../../../../../../Middlewares/Third_Party/LoRaWAN/Mac/LoRaMacClassB.c ****     if( LoRaMacConfirmQueueIsCmdActive( MLME_DEVICE_TIME ) == true )
1556:../../../../../../Middlewares/Third_Party/LoRaWAN/Mac/LoRaMacClassB.c ****     {
1557:../../../../../../Middlewares/Third_Party/LoRaWAN/Mac/LoRaMacClassB.c ****         if( currentTimeMs > Ctx.NvmCtx->BeaconCtx.NextBeaconRx )
1558:../../../../../../Middlewares/Third_Party/LoRaWAN/Mac/LoRaMacClassB.c ****         {
1559:../../../../../../Middlewares/Third_Party/LoRaWAN/Mac/LoRaMacClassB.c ****             // We missed the beacon already
1560:../../../../../../Middlewares/Third_Party/LoRaWAN/Mac/LoRaMacClassB.c ****             Ctx.NvmCtx->BeaconCtx.LastBeaconRx = 0;
1561:../../../../../../Middlewares/Third_Party/LoRaWAN/Mac/LoRaMacClassB.c ****             Ctx.NvmCtx->BeaconCtx.NextBeaconRx = 0;
ARM GAS  C:\Users\EBANO_~1\AppData\Local\Temp\ccis3phW.s 			page 39


1562:../../../../../../Middlewares/Third_Party/LoRaWAN/Mac/LoRaMacClassB.c ****             LoRaMacConfirmQueueSetStatus( LORAMAC_EVENT_INFO_STATUS_BEACON_NOT_FOUND, MLME_DEVICE_T
1563:../../../../../../Middlewares/Third_Party/LoRaWAN/Mac/LoRaMacClassB.c ****         }
1564:../../../../../../Middlewares/Third_Party/LoRaWAN/Mac/LoRaMacClassB.c ****         else
1565:../../../../../../Middlewares/Third_Party/LoRaWAN/Mac/LoRaMacClassB.c ****         {
1566:../../../../../../Middlewares/Third_Party/LoRaWAN/Mac/LoRaMacClassB.c ****             Ctx.NvmCtx->BeaconCtx.Ctrl.BeaconDelaySet = 1;
1567:../../../../../../Middlewares/Third_Party/LoRaWAN/Mac/LoRaMacClassB.c ****             Ctx.NvmCtx->BeaconCtx.BeaconTimingDelay = Ctx.NvmCtx->BeaconCtx.NextBeaconRx - currentT
1568:../../../../../../Middlewares/Third_Party/LoRaWAN/Mac/LoRaMacClassB.c ****             Ctx.NvmCtx->BeaconCtx.BeaconTime = nextBeacon.Seconds - UNIX_GPS_EPOCH_OFFSET - 128;
1569:../../../../../../Middlewares/Third_Party/LoRaWAN/Mac/LoRaMacClassB.c ****             LoRaMacConfirmQueueSetStatus( LORAMAC_EVENT_INFO_STATUS_OK, MLME_DEVICE_TIME );
1570:../../../../../../Middlewares/Third_Party/LoRaWAN/Mac/LoRaMacClassB.c ****         }
1571:../../../../../../Middlewares/Third_Party/LoRaWAN/Mac/LoRaMacClassB.c ****     }
1572:../../../../../../Middlewares/Third_Party/LoRaWAN/Mac/LoRaMacClassB.c **** 
1573:../../../../../../Middlewares/Third_Party/LoRaWAN/Mac/LoRaMacClassB.c ****     NvmContextChange( );
1574:../../../../../../Middlewares/Third_Party/LoRaWAN/Mac/LoRaMacClassB.c **** #endif // LORAMAC_CLASSB_ENABLED
1575:../../../../../../Middlewares/Third_Party/LoRaWAN/Mac/LoRaMacClassB.c **** }
1576:../../../../../../Middlewares/Third_Party/LoRaWAN/Mac/LoRaMacClassB.c **** 
1577:../../../../../../Middlewares/Third_Party/LoRaWAN/Mac/LoRaMacClassB.c **** bool LoRaMacClassBBeaconFreqReq( uint32_t frequency )
1578:../../../../../../Middlewares/Third_Party/LoRaWAN/Mac/LoRaMacClassB.c **** {
 605              		.loc 1 1578 0
 606              		.cfi_startproc
 607              		@ args = 0, pretend = 0, frame = 0
 608              		@ frame_needed = 0, uses_anonymous_args = 0
 609              		@ link register save eliminated.
 610              	.LVL16:
1579:../../../../../../Middlewares/Third_Party/LoRaWAN/Mac/LoRaMacClassB.c **** #ifdef LORAMAC_CLASSB_ENABLED
1580:../../../../../../Middlewares/Third_Party/LoRaWAN/Mac/LoRaMacClassB.c ****     if( frequency != 0 )
1581:../../../../../../Middlewares/Third_Party/LoRaWAN/Mac/LoRaMacClassB.c ****     {
1582:../../../../../../Middlewares/Third_Party/LoRaWAN/Mac/LoRaMacClassB.c ****         if( Radio.CheckRfFrequency( frequency ) == true )
1583:../../../../../../Middlewares/Third_Party/LoRaWAN/Mac/LoRaMacClassB.c ****         {
1584:../../../../../../Middlewares/Third_Party/LoRaWAN/Mac/LoRaMacClassB.c ****             Ctx.NvmCtx->BeaconCtx.Ctrl.CustomFreq = 1;
1585:../../../../../../Middlewares/Third_Party/LoRaWAN/Mac/LoRaMacClassB.c ****             Ctx.NvmCtx->BeaconCtx.Frequency = frequency;
1586:../../../../../../Middlewares/Third_Party/LoRaWAN/Mac/LoRaMacClassB.c ****             return true;
1587:../../../../../../Middlewares/Third_Party/LoRaWAN/Mac/LoRaMacClassB.c ****         }
1588:../../../../../../Middlewares/Third_Party/LoRaWAN/Mac/LoRaMacClassB.c ****     }
1589:../../../../../../Middlewares/Third_Party/LoRaWAN/Mac/LoRaMacClassB.c ****     else
1590:../../../../../../Middlewares/Third_Party/LoRaWAN/Mac/LoRaMacClassB.c ****     {
1591:../../../../../../Middlewares/Third_Party/LoRaWAN/Mac/LoRaMacClassB.c ****         Ctx.NvmCtx->BeaconCtx.Ctrl.CustomFreq = 0;
1592:../../../../../../Middlewares/Third_Party/LoRaWAN/Mac/LoRaMacClassB.c ****         return true;
1593:../../../../../../Middlewares/Third_Party/LoRaWAN/Mac/LoRaMacClassB.c ****     }
1594:../../../../../../Middlewares/Third_Party/LoRaWAN/Mac/LoRaMacClassB.c ****     NvmContextChange( );
1595:../../../../../../Middlewares/Third_Party/LoRaWAN/Mac/LoRaMacClassB.c ****     return false;
1596:../../../../../../Middlewares/Third_Party/LoRaWAN/Mac/LoRaMacClassB.c **** #else
1597:../../../../../../Middlewares/Third_Party/LoRaWAN/Mac/LoRaMacClassB.c ****     return false;
1598:../../../../../../Middlewares/Third_Party/LoRaWAN/Mac/LoRaMacClassB.c **** #endif // LORAMAC_CLASSB_ENABLED
1599:../../../../../../Middlewares/Third_Party/LoRaWAN/Mac/LoRaMacClassB.c **** }
 611              		.loc 1 1599 0
 612 0000 0020     		movs	r0, #0
 613              	.LVL17:
 614              		@ sp needed
 615 0002 7047     		bx	lr
 616              		.cfi_endproc
 617              	.LFE65:
 618              		.size	LoRaMacClassBBeaconFreqReq, .-LoRaMacClassBBeaconFreqReq
 619              		.section	.text.LoRaMacClassBIsUplinkCollision,"ax",%progbits
 620              		.align	1
 621              		.p2align 2,,3
 622              		.global	LoRaMacClassBIsUplinkCollision
 623              		.syntax unified
ARM GAS  C:\Users\EBANO_~1\AppData\Local\Temp\ccis3phW.s 			page 40


 624              		.code	16
 625              		.thumb_func
 626              		.fpu softvfp
 627              		.type	LoRaMacClassBIsUplinkCollision, %function
 628              	LoRaMacClassBIsUplinkCollision:
 629              	.LFB66:
1600:../../../../../../Middlewares/Third_Party/LoRaWAN/Mac/LoRaMacClassB.c **** 
1601:../../../../../../Middlewares/Third_Party/LoRaWAN/Mac/LoRaMacClassB.c **** TimerTime_t LoRaMacClassBIsUplinkCollision( TimerTime_t txTimeOnAir )
1602:../../../../../../Middlewares/Third_Party/LoRaWAN/Mac/LoRaMacClassB.c **** {
 630              		.loc 1 1602 0
 631              		.cfi_startproc
 632              		@ args = 0, pretend = 0, frame = 0
 633              		@ frame_needed = 0, uses_anonymous_args = 0
 634              		@ link register save eliminated.
 635              	.LVL18:
1603:../../../../../../Middlewares/Third_Party/LoRaWAN/Mac/LoRaMacClassB.c **** #ifdef LORAMAC_CLASSB_ENABLED
1604:../../../../../../Middlewares/Third_Party/LoRaWAN/Mac/LoRaMacClassB.c ****     TimerTime_t currentTime = TimerGetCurrentTime( );
1605:../../../../../../Middlewares/Third_Party/LoRaWAN/Mac/LoRaMacClassB.c ****     TimerTime_t beaconReserved = 0;
1606:../../../../../../Middlewares/Third_Party/LoRaWAN/Mac/LoRaMacClassB.c **** 
1607:../../../../../../Middlewares/Third_Party/LoRaWAN/Mac/LoRaMacClassB.c ****     beaconReserved = Ctx.NvmCtx->BeaconCtx.NextBeaconRx -
1608:../../../../../../Middlewares/Third_Party/LoRaWAN/Mac/LoRaMacClassB.c ****                      CLASSB_BEACON_GUARD -
1609:../../../../../../Middlewares/Third_Party/LoRaWAN/Mac/LoRaMacClassB.c ****                      Ctx.LoRaMacClassBParams.LoRaMacParams->ReceiveDelay1 -
1610:../../../../../../Middlewares/Third_Party/LoRaWAN/Mac/LoRaMacClassB.c ****                      Ctx.LoRaMacClassBParams.LoRaMacParams->ReceiveDelay2 -
1611:../../../../../../Middlewares/Third_Party/LoRaWAN/Mac/LoRaMacClassB.c ****                      txTimeOnAir;
1612:../../../../../../Middlewares/Third_Party/LoRaWAN/Mac/LoRaMacClassB.c **** 
1613:../../../../../../Middlewares/Third_Party/LoRaWAN/Mac/LoRaMacClassB.c ****     // Check if the next beacon will be received during the next uplink.
1614:../../../../../../Middlewares/Third_Party/LoRaWAN/Mac/LoRaMacClassB.c ****     if( ( currentTime >= beaconReserved ) && ( currentTime < ( Ctx.NvmCtx->BeaconCtx.NextBeaconRx +
1615:../../../../../../Middlewares/Third_Party/LoRaWAN/Mac/LoRaMacClassB.c ****     {// Next beacon will be sent during the next uplink.
1616:../../../../../../Middlewares/Third_Party/LoRaWAN/Mac/LoRaMacClassB.c ****         return CLASSB_BEACON_RESERVED;
1617:../../../../../../Middlewares/Third_Party/LoRaWAN/Mac/LoRaMacClassB.c ****     }
1618:../../../../../../Middlewares/Third_Party/LoRaWAN/Mac/LoRaMacClassB.c ****     return 0;
1619:../../../../../../Middlewares/Third_Party/LoRaWAN/Mac/LoRaMacClassB.c **** #else
1620:../../../../../../Middlewares/Third_Party/LoRaWAN/Mac/LoRaMacClassB.c ****     return 0;
1621:../../../../../../Middlewares/Third_Party/LoRaWAN/Mac/LoRaMacClassB.c **** #endif // LORAMAC_CLASSB_ENABLED
1622:../../../../../../Middlewares/Third_Party/LoRaWAN/Mac/LoRaMacClassB.c **** }
 636              		.loc 1 1622 0
 637 0000 0020     		movs	r0, #0
 638              	.LVL19:
 639              		@ sp needed
 640 0002 7047     		bx	lr
 641              		.cfi_endproc
 642              	.LFE66:
 643              		.size	LoRaMacClassBIsUplinkCollision, .-LoRaMacClassBIsUplinkCollision
 644              		.section	.text.LoRaMacClassBStopRxSlots,"ax",%progbits
 645              		.align	1
 646              		.p2align 2,,3
 647              		.global	LoRaMacClassBStopRxSlots
 648              		.syntax unified
 649              		.code	16
 650              		.thumb_func
 651              		.fpu softvfp
 652              		.type	LoRaMacClassBStopRxSlots, %function
 653              	LoRaMacClassBStopRxSlots:
 654              	.LFB100:
 655              		.cfi_startproc
 656              		@ args = 0, pretend = 0, frame = 0
 657              		@ frame_needed = 0, uses_anonymous_args = 0
ARM GAS  C:\Users\EBANO_~1\AppData\Local\Temp\ccis3phW.s 			page 41


 658              		@ link register save eliminated.
 659              		@ sp needed
 660 0000 7047     		bx	lr
 661              		.cfi_endproc
 662              	.LFE100:
 663              		.size	LoRaMacClassBStopRxSlots, .-LoRaMacClassBStopRxSlots
 664 0002 C046     		.section	.text.LoRaMacClassBStartRxSlots,"ax",%progbits
 665              		.align	1
 666              		.p2align 2,,3
 667              		.global	LoRaMacClassBStartRxSlots
 668              		.syntax unified
 669              		.code	16
 670              		.thumb_func
 671              		.fpu softvfp
 672              		.type	LoRaMacClassBStartRxSlots, %function
 673              	LoRaMacClassBStartRxSlots:
 674              	.LFB102:
 675              		.cfi_startproc
 676              		@ args = 0, pretend = 0, frame = 0
 677              		@ frame_needed = 0, uses_anonymous_args = 0
 678              		@ link register save eliminated.
 679              		@ sp needed
 680 0000 7047     		bx	lr
 681              		.cfi_endproc
 682              	.LFE102:
 683              		.size	LoRaMacClassBStartRxSlots, .-LoRaMacClassBStartRxSlots
 684 0002 C046     		.section	.text.LoRaMacClassBSetMulticastPeriodicity,"ax",%progbits
 685              		.align	1
 686              		.p2align 2,,3
 687              		.global	LoRaMacClassBSetMulticastPeriodicity
 688              		.syntax unified
 689              		.code	16
 690              		.thumb_func
 691              		.fpu softvfp
 692              		.type	LoRaMacClassBSetMulticastPeriodicity, %function
 693              	LoRaMacClassBSetMulticastPeriodicity:
 694              	.LFB82:
 695              		.cfi_startproc
 696              		@ args = 0, pretend = 0, frame = 0
 697              		@ frame_needed = 0, uses_anonymous_args = 0
 698              		@ link register save eliminated.
 699              		@ sp needed
 700 0000 7047     		bx	lr
 701              		.cfi_endproc
 702              	.LFE82:
 703              		.size	LoRaMacClassBSetMulticastPeriodicity, .-LoRaMacClassBSetMulticastPeriodicity
 704 0002 C046     		.section	.text.LoRaMacClassBProcess,"ax",%progbits
 705              		.align	1
 706              		.p2align 2,,3
 707              		.global	LoRaMacClassBProcess
 708              		.syntax unified
 709              		.code	16
 710              		.thumb_func
 711              		.fpu softvfp
 712              		.type	LoRaMacClassBProcess, %function
 713              	LoRaMacClassBProcess:
 714              	.LFB104:
ARM GAS  C:\Users\EBANO_~1\AppData\Local\Temp\ccis3phW.s 			page 42


 715              		.cfi_startproc
 716              		@ args = 0, pretend = 0, frame = 0
 717              		@ frame_needed = 0, uses_anonymous_args = 0
 718              		@ link register save eliminated.
 719              		@ sp needed
 720 0000 7047     		bx	lr
 721              		.cfi_endproc
 722              	.LFE104:
 723              		.size	LoRaMacClassBProcess, .-LoRaMacClassBProcess
 724 0002 C046     		.text
 725              	.Letext0:
 726              		.file 2 "c:\\program files (x86)\\gnu tools arm embedded\\7 2018-q2-update\\lib\\gcc\\arm-none-eab
 727              		.file 3 "c:\\program files (x86)\\gnu tools arm embedded\\7 2018-q2-update\\arm-none-eabi\\include
 728              		.file 4 "c:\\program files (x86)\\gnu tools arm embedded\\7 2018-q2-update\\arm-none-eabi\\include
 729              		.file 5 "c:\\program files (x86)\\gnu tools arm embedded\\7 2018-q2-update\\arm-none-eabi\\include
 730              		.file 6 "c:\\program files (x86)\\gnu tools arm embedded\\7 2018-q2-update\\arm-none-eabi\\include
 731              		.file 7 "c:\\program files (x86)\\gnu tools arm embedded\\7 2018-q2-update\\arm-none-eabi\\include
 732              		.file 8 "c:\\program files (x86)\\gnu tools arm embedded\\7 2018-q2-update\\arm-none-eabi\\include
 733              		.file 9 "../../../../../../Drivers/CMSIS/Device/ST/STM32L0xx/Include/system_stm32l0xx.h"
 734              		.file 10 "c:\\program files (x86)\\gnu tools arm embedded\\7 2018-q2-update\\arm-none-eabi\\includ
 735              		.file 11 "../../../../../../Middlewares/Third_Party/LoRaWAN/Utilities/utilities.h"
 736              		.file 12 "../../../../../../Middlewares/Third_Party/LoRaWAN/Mac/LoRaMacTypes.h"
 737              		.file 13 "c:\\program files (x86)\\gnu tools arm embedded\\7 2018-q2-update\\arm-none-eabi\\includ
 738              		.file 14 "../../../../../../Middlewares/Third_Party/LoRaWAN/Phy/radio.h"
 739              		.file 15 "../../../../../../Middlewares/Third_Party/LoRaWAN/Mac/LoRaMac.h"
 740              		.file 16 "../../../../../../Middlewares/Third_Party/LoRaWAN/Mac/LoRaMacClassB.h"
 741              		.section	.debug_info,"",%progbits
 742              	.Ldebug_info0:
 743 0000 98250000 		.4byte	0x2598
 744 0004 0200     		.2byte	0x2
 745 0006 00000000 		.4byte	.Ldebug_abbrev0
 746 000a 04       		.byte	0x4
 747 000b 01       		.uleb128 0x1
 748 000c BA0B0000 		.4byte	.LASF616
 749 0010 0C       		.byte	0xc
 750 0011 3D050000 		.4byte	.LASF617
 751 0015 7F090000 		.4byte	.LASF618
 752 0019 00000000 		.4byte	.Ldebug_ranges0+0
 753 001d 00000000 		.4byte	0
 754 0021 00000000 		.4byte	0
 755 0025 00000000 		.4byte	.Ldebug_line0
 756 0029 02       		.uleb128 0x2
 757 002a 04       		.byte	0x4
 758 002b 05       		.byte	0x5
 759 002c 696E7400 		.ascii	"int\000"
 760 0030 03       		.uleb128 0x3
 761 0031 F30D0000 		.4byte	.LASF3
 762 0035 02       		.byte	0x2
 763 0036 D8       		.byte	0xd8
 764 0037 3B000000 		.4byte	0x3b
 765 003b 04       		.uleb128 0x4
 766 003c 04       		.byte	0x4
 767 003d 07       		.byte	0x7
 768 003e 21260000 		.4byte	.LASF0
 769 0042 04       		.uleb128 0x4
 770 0043 08       		.byte	0x8
 771 0044 05       		.byte	0x5
ARM GAS  C:\Users\EBANO_~1\AppData\Local\Temp\ccis3phW.s 			page 43


 772 0045 32230000 		.4byte	.LASF1
 773 0049 04       		.uleb128 0x4
 774 004a 08       		.byte	0x8
 775 004b 04       		.byte	0x4
 776 004c 99190000 		.4byte	.LASF2
 777 0050 03       		.uleb128 0x3
 778 0051 51250000 		.4byte	.LASF4
 779 0055 03       		.byte	0x3
 780 0056 29       		.byte	0x29
 781 0057 5B000000 		.4byte	0x5b
 782 005b 04       		.uleb128 0x4
 783 005c 01       		.byte	0x1
 784 005d 06       		.byte	0x6
 785 005e 3A150000 		.4byte	.LASF5
 786 0062 03       		.uleb128 0x3
 787 0063 C0000000 		.4byte	.LASF6
 788 0067 03       		.byte	0x3
 789 0068 2B       		.byte	0x2b
 790 0069 6D000000 		.4byte	0x6d
 791 006d 04       		.uleb128 0x4
 792 006e 01       		.byte	0x1
 793 006f 08       		.byte	0x8
 794 0070 05090000 		.4byte	.LASF7
 795 0074 03       		.uleb128 0x3
 796 0075 9A070000 		.4byte	.LASF8
 797 0079 03       		.byte	0x3
 798 007a 37       		.byte	0x37
 799 007b 7F000000 		.4byte	0x7f
 800 007f 04       		.uleb128 0x4
 801 0080 02       		.byte	0x2
 802 0081 05       		.byte	0x5
 803 0082 A9260000 		.4byte	.LASF9
 804 0086 03       		.uleb128 0x3
 805 0087 C6070000 		.4byte	.LASF10
 806 008b 03       		.byte	0x3
 807 008c 39       		.byte	0x39
 808 008d 91000000 		.4byte	0x91
 809 0091 04       		.uleb128 0x4
 810 0092 02       		.byte	0x2
 811 0093 07       		.byte	0x7
 812 0094 27150000 		.4byte	.LASF11
 813 0098 04       		.uleb128 0x4
 814 0099 04       		.byte	0x4
 815 009a 05       		.byte	0x5
 816 009b 7D170000 		.4byte	.LASF12
 817 009f 03       		.uleb128 0x3
 818 00a0 561E0000 		.4byte	.LASF13
 819 00a4 03       		.byte	0x3
 820 00a5 4F       		.byte	0x4f
 821 00a6 AA000000 		.4byte	0xaa
 822 00aa 04       		.uleb128 0x4
 823 00ab 04       		.byte	0x4
 824 00ac 07       		.byte	0x7
 825 00ad D0190000 		.4byte	.LASF14
 826 00b1 04       		.uleb128 0x4
 827 00b2 08       		.byte	0x8
 828 00b3 07       		.byte	0x7
ARM GAS  C:\Users\EBANO_~1\AppData\Local\Temp\ccis3phW.s 			page 44


 829 00b4 0B200000 		.4byte	.LASF15
 830 00b8 03       		.uleb128 0x3
 831 00b9 80070000 		.4byte	.LASF16
 832 00bd 04       		.byte	0x4
 833 00be 22       		.byte	0x22
 834 00bf C3000000 		.4byte	0xc3
 835 00c3 05       		.uleb128 0x5
 836 00c4 04       		.byte	0x4
 837 00c5 C9000000 		.4byte	0xc9
 838 00c9 06       		.uleb128 0x6
 839 00ca B5050000 		.4byte	.LASF123
 840 00ce 01       		.byte	0x1
 841 00cf 03       		.uleb128 0x3
 842 00d0 CE0D0000 		.4byte	.LASF17
 843 00d4 05       		.byte	0x5
 844 00d5 2C       		.byte	0x2c
 845 00d6 98000000 		.4byte	0x98
 846 00da 03       		.uleb128 0x3
 847 00db 751D0000 		.4byte	.LASF18
 848 00df 05       		.byte	0x5
 849 00e0 72       		.byte	0x72
 850 00e1 98000000 		.4byte	0x98
 851 00e5 07       		.uleb128 0x7
 852 00e6 700F0000 		.4byte	.LASF19
 853 00ea 02       		.byte	0x2
 854 00eb 6501     		.2byte	0x165
 855 00ed 3B000000 		.4byte	0x3b
 856 00f1 08       		.uleb128 0x8
 857 00f2 04       		.byte	0x4
 858 00f3 05       		.byte	0x5
 859 00f4 A6       		.byte	0xa6
 860 00f5 10010000 		.4byte	0x110
 861 00f9 09       		.uleb128 0x9
 862 00fa D3160000 		.4byte	.LASF20
 863 00fe 05       		.byte	0x5
 864 00ff A8       		.byte	0xa8
 865 0100 E5000000 		.4byte	0xe5
 866 0104 09       		.uleb128 0x9
 867 0105 160F0000 		.4byte	.LASF21
 868 0109 05       		.byte	0x5
 869 010a A9       		.byte	0xa9
 870 010b 10010000 		.4byte	0x110
 871 010f 00       		.byte	0
 872 0110 0A       		.uleb128 0xa
 873 0111 6D000000 		.4byte	0x6d
 874 0115 20010000 		.4byte	0x120
 875 0119 0B       		.uleb128 0xb
 876 011a 3B000000 		.4byte	0x3b
 877 011e 03       		.byte	0x3
 878 011f 00       		.byte	0
 879 0120 0C       		.uleb128 0xc
 880 0121 08       		.byte	0x8
 881 0122 05       		.byte	0x5
 882 0123 A3       		.byte	0xa3
 883 0124 45010000 		.4byte	0x145
 884 0128 0D       		.uleb128 0xd
 885 0129 090E0000 		.4byte	.LASF22
ARM GAS  C:\Users\EBANO_~1\AppData\Local\Temp\ccis3phW.s 			page 45


 886 012d 05       		.byte	0x5
 887 012e A5       		.byte	0xa5
 888 012f 29000000 		.4byte	0x29
 889 0133 02       		.byte	0x2
 890 0134 23       		.byte	0x23
 891 0135 00       		.uleb128 0
 892 0136 0D       		.uleb128 0xd
 893 0137 961E0000 		.4byte	.LASF23
 894 013b 05       		.byte	0x5
 895 013c AA       		.byte	0xaa
 896 013d F1000000 		.4byte	0xf1
 897 0141 02       		.byte	0x2
 898 0142 23       		.byte	0x23
 899 0143 04       		.uleb128 0x4
 900 0144 00       		.byte	0
 901 0145 03       		.uleb128 0x3
 902 0146 FB1D0000 		.4byte	.LASF24
 903 014a 05       		.byte	0x5
 904 014b AB       		.byte	0xab
 905 014c 20010000 		.4byte	0x120
 906 0150 03       		.uleb128 0x3
 907 0151 8E220000 		.4byte	.LASF25
 908 0155 05       		.byte	0x5
 909 0156 AF       		.byte	0xaf
 910 0157 B8000000 		.4byte	0xb8
 911 015b 0E       		.uleb128 0xe
 912 015c 04       		.byte	0x4
 913 015d 05       		.uleb128 0x5
 914 015e 04       		.byte	0x4
 915 015f 63010000 		.4byte	0x163
 916 0163 04       		.uleb128 0x4
 917 0164 01       		.byte	0x1
 918 0165 08       		.byte	0x8
 919 0166 841A0000 		.4byte	.LASF26
 920 016a 0F       		.uleb128 0xf
 921 016b 63010000 		.4byte	0x163
 922 016f 03       		.uleb128 0x3
 923 0170 DF130000 		.4byte	.LASF27
 924 0174 06       		.byte	0x6
 925 0175 16       		.byte	0x16
 926 0176 AA000000 		.4byte	0xaa
 927 017a 10       		.uleb128 0x10
 928 017b 831B0000 		.4byte	.LASF32
 929 017f 18       		.byte	0x18
 930 0180 06       		.byte	0x6
 931 0181 2F       		.byte	0x2f
 932 0182 D9010000 		.4byte	0x1d9
 933 0186 0D       		.uleb128 0xd
 934 0187 9E100000 		.4byte	.LASF28
 935 018b 06       		.byte	0x6
 936 018c 31       		.byte	0x31
 937 018d D9010000 		.4byte	0x1d9
 938 0191 02       		.byte	0x2
 939 0192 23       		.byte	0x23
 940 0193 00       		.uleb128 0
 941 0194 11       		.uleb128 0x11
 942 0195 5F6B00   		.ascii	"_k\000"
ARM GAS  C:\Users\EBANO_~1\AppData\Local\Temp\ccis3phW.s 			page 46


 943 0198 06       		.byte	0x6
 944 0199 32       		.byte	0x32
 945 019a 29000000 		.4byte	0x29
 946 019e 02       		.byte	0x2
 947 019f 23       		.byte	0x23
 948 01a0 04       		.uleb128 0x4
 949 01a1 0D       		.uleb128 0xd
 950 01a2 FD180000 		.4byte	.LASF29
 951 01a6 06       		.byte	0x6
 952 01a7 32       		.byte	0x32
 953 01a8 29000000 		.4byte	0x29
 954 01ac 02       		.byte	0x2
 955 01ad 23       		.byte	0x23
 956 01ae 08       		.uleb128 0x8
 957 01af 0D       		.uleb128 0xd
 958 01b0 4B250000 		.4byte	.LASF30
 959 01b4 06       		.byte	0x6
 960 01b5 32       		.byte	0x32
 961 01b6 29000000 		.4byte	0x29
 962 01ba 02       		.byte	0x2
 963 01bb 23       		.byte	0x23
 964 01bc 0C       		.uleb128 0xc
 965 01bd 0D       		.uleb128 0xd
 966 01be 63090000 		.4byte	.LASF31
 967 01c2 06       		.byte	0x6
 968 01c3 32       		.byte	0x32
 969 01c4 29000000 		.4byte	0x29
 970 01c8 02       		.byte	0x2
 971 01c9 23       		.byte	0x23
 972 01ca 10       		.uleb128 0x10
 973 01cb 11       		.uleb128 0x11
 974 01cc 5F7800   		.ascii	"_x\000"
 975 01cf 06       		.byte	0x6
 976 01d0 33       		.byte	0x33
 977 01d1 DF010000 		.4byte	0x1df
 978 01d5 02       		.byte	0x2
 979 01d6 23       		.byte	0x23
 980 01d7 14       		.uleb128 0x14
 981 01d8 00       		.byte	0
 982 01d9 05       		.uleb128 0x5
 983 01da 04       		.byte	0x4
 984 01db 7A010000 		.4byte	0x17a
 985 01df 0A       		.uleb128 0xa
 986 01e0 6F010000 		.4byte	0x16f
 987 01e4 EF010000 		.4byte	0x1ef
 988 01e8 0B       		.uleb128 0xb
 989 01e9 3B000000 		.4byte	0x3b
 990 01ed 00       		.byte	0
 991 01ee 00       		.byte	0
 992 01ef 10       		.uleb128 0x10
 993 01f0 FA060000 		.4byte	.LASF33
 994 01f4 24       		.byte	0x24
 995 01f5 06       		.byte	0x6
 996 01f6 37       		.byte	0x37
 997 01f7 7A020000 		.4byte	0x27a
 998 01fb 0D       		.uleb128 0xd
 999 01fc 71120000 		.4byte	.LASF34
ARM GAS  C:\Users\EBANO_~1\AppData\Local\Temp\ccis3phW.s 			page 47


 1000 0200 06       		.byte	0x6
 1001 0201 39       		.byte	0x39
 1002 0202 29000000 		.4byte	0x29
 1003 0206 02       		.byte	0x2
 1004 0207 23       		.byte	0x23
 1005 0208 00       		.uleb128 0
 1006 0209 0D       		.uleb128 0xd
 1007 020a 68250000 		.4byte	.LASF35
 1008 020e 06       		.byte	0x6
 1009 020f 3A       		.byte	0x3a
 1010 0210 29000000 		.4byte	0x29
 1011 0214 02       		.byte	0x2
 1012 0215 23       		.byte	0x23
 1013 0216 04       		.uleb128 0x4
 1014 0217 0D       		.uleb128 0xd
 1015 0218 490F0000 		.4byte	.LASF36
 1016 021c 06       		.byte	0x6
 1017 021d 3B       		.byte	0x3b
 1018 021e 29000000 		.4byte	0x29
 1019 0222 02       		.byte	0x2
 1020 0223 23       		.byte	0x23
 1021 0224 08       		.uleb128 0x8
 1022 0225 0D       		.uleb128 0xd
 1023 0226 DC0F0000 		.4byte	.LASF37
 1024 022a 06       		.byte	0x6
 1025 022b 3C       		.byte	0x3c
 1026 022c 29000000 		.4byte	0x29
 1027 0230 02       		.byte	0x2
 1028 0231 23       		.byte	0x23
 1029 0232 0C       		.uleb128 0xc
 1030 0233 0D       		.uleb128 0xd
 1031 0234 2B010000 		.4byte	.LASF38
 1032 0238 06       		.byte	0x6
 1033 0239 3D       		.byte	0x3d
 1034 023a 29000000 		.4byte	0x29
 1035 023e 02       		.byte	0x2
 1036 023f 23       		.byte	0x23
 1037 0240 10       		.uleb128 0x10
 1038 0241 0D       		.uleb128 0xd
 1039 0242 6D0B0000 		.4byte	.LASF39
 1040 0246 06       		.byte	0x6
 1041 0247 3E       		.byte	0x3e
 1042 0248 29000000 		.4byte	0x29
 1043 024c 02       		.byte	0x2
 1044 024d 23       		.byte	0x23
 1045 024e 14       		.uleb128 0x14
 1046 024f 0D       		.uleb128 0xd
 1047 0250 BA080000 		.4byte	.LASF40
 1048 0254 06       		.byte	0x6
 1049 0255 3F       		.byte	0x3f
 1050 0256 29000000 		.4byte	0x29
 1051 025a 02       		.byte	0x2
 1052 025b 23       		.byte	0x23
 1053 025c 18       		.uleb128 0x18
 1054 025d 0D       		.uleb128 0xd
 1055 025e 4A070000 		.4byte	.LASF41
 1056 0262 06       		.byte	0x6
ARM GAS  C:\Users\EBANO_~1\AppData\Local\Temp\ccis3phW.s 			page 48


 1057 0263 40       		.byte	0x40
 1058 0264 29000000 		.4byte	0x29
 1059 0268 02       		.byte	0x2
 1060 0269 23       		.byte	0x23
 1061 026a 1C       		.uleb128 0x1c
 1062 026b 0D       		.uleb128 0xd
 1063 026c C4080000 		.4byte	.LASF42
 1064 0270 06       		.byte	0x6
 1065 0271 41       		.byte	0x41
 1066 0272 29000000 		.4byte	0x29
 1067 0276 02       		.byte	0x2
 1068 0277 23       		.byte	0x23
 1069 0278 20       		.uleb128 0x20
 1070 0279 00       		.byte	0
 1071 027a 12       		.uleb128 0x12
 1072 027b 7A120000 		.4byte	.LASF43
 1073 027f 0801     		.2byte	0x108
 1074 0281 06       		.byte	0x6
 1075 0282 4A       		.byte	0x4a
 1076 0283 C3020000 		.4byte	0x2c3
 1077 0287 0D       		.uleb128 0xd
 1078 0288 F50F0000 		.4byte	.LASF44
 1079 028c 06       		.byte	0x6
 1080 028d 4B       		.byte	0x4b
 1081 028e C3020000 		.4byte	0x2c3
 1082 0292 02       		.byte	0x2
 1083 0293 23       		.byte	0x23
 1084 0294 00       		.uleb128 0
 1085 0295 0D       		.uleb128 0xd
 1086 0296 77080000 		.4byte	.LASF45
 1087 029a 06       		.byte	0x6
 1088 029b 4C       		.byte	0x4c
 1089 029c C3020000 		.4byte	0x2c3
 1090 02a0 03       		.byte	0x3
 1091 02a1 23       		.byte	0x23
 1092 02a2 8001     		.uleb128 0x80
 1093 02a4 0D       		.uleb128 0xd
 1094 02a5 34010000 		.4byte	.LASF46
 1095 02a9 06       		.byte	0x6
 1096 02aa 4E       		.byte	0x4e
 1097 02ab 6F010000 		.4byte	0x16f
 1098 02af 03       		.byte	0x3
 1099 02b0 23       		.byte	0x23
 1100 02b1 8002     		.uleb128 0x100
 1101 02b3 0D       		.uleb128 0xd
 1102 02b4 B91E0000 		.4byte	.LASF47
 1103 02b8 06       		.byte	0x6
 1104 02b9 51       		.byte	0x51
 1105 02ba 6F010000 		.4byte	0x16f
 1106 02be 03       		.byte	0x3
 1107 02bf 23       		.byte	0x23
 1108 02c0 8402     		.uleb128 0x104
 1109 02c2 00       		.byte	0
 1110 02c3 0A       		.uleb128 0xa
 1111 02c4 5B010000 		.4byte	0x15b
 1112 02c8 D3020000 		.4byte	0x2d3
 1113 02cc 0B       		.uleb128 0xb
ARM GAS  C:\Users\EBANO_~1\AppData\Local\Temp\ccis3phW.s 			page 49


 1114 02cd 3B000000 		.4byte	0x3b
 1115 02d1 1F       		.byte	0x1f
 1116 02d2 00       		.byte	0
 1117 02d3 12       		.uleb128 0x12
 1118 02d4 F5000000 		.4byte	.LASF48
 1119 02d8 9001     		.2byte	0x190
 1120 02da 06       		.byte	0x6
 1121 02db 5D       		.byte	0x5d
 1122 02dc 1A030000 		.4byte	0x31a
 1123 02e0 0D       		.uleb128 0xd
 1124 02e1 9E100000 		.4byte	.LASF28
 1125 02e5 06       		.byte	0x6
 1126 02e6 5E       		.byte	0x5e
 1127 02e7 1A030000 		.4byte	0x31a
 1128 02eb 02       		.byte	0x2
 1129 02ec 23       		.byte	0x23
 1130 02ed 00       		.uleb128 0
 1131 02ee 0D       		.uleb128 0xd
 1132 02ef 4C010000 		.4byte	.LASF49
 1133 02f3 06       		.byte	0x6
 1134 02f4 5F       		.byte	0x5f
 1135 02f5 29000000 		.4byte	0x29
 1136 02f9 02       		.byte	0x2
 1137 02fa 23       		.byte	0x23
 1138 02fb 04       		.uleb128 0x4
 1139 02fc 0D       		.uleb128 0xd
 1140 02fd A11D0000 		.4byte	.LASF50
 1141 0301 06       		.byte	0x6
 1142 0302 61       		.byte	0x61
 1143 0303 20030000 		.4byte	0x320
 1144 0307 02       		.byte	0x2
 1145 0308 23       		.byte	0x23
 1146 0309 08       		.uleb128 0x8
 1147 030a 0D       		.uleb128 0xd
 1148 030b 7A120000 		.4byte	.LASF43
 1149 030f 06       		.byte	0x6
 1150 0310 62       		.byte	0x62
 1151 0311 7A020000 		.4byte	0x27a
 1152 0315 03       		.byte	0x3
 1153 0316 23       		.byte	0x23
 1154 0317 8801     		.uleb128 0x88
 1155 0319 00       		.byte	0
 1156 031a 05       		.uleb128 0x5
 1157 031b 04       		.byte	0x4
 1158 031c D3020000 		.4byte	0x2d3
 1159 0320 0A       		.uleb128 0xa
 1160 0321 30030000 		.4byte	0x330
 1161 0325 30030000 		.4byte	0x330
 1162 0329 0B       		.uleb128 0xb
 1163 032a 3B000000 		.4byte	0x3b
 1164 032e 1F       		.byte	0x1f
 1165 032f 00       		.byte	0
 1166 0330 05       		.uleb128 0x5
 1167 0331 04       		.byte	0x4
 1168 0332 36030000 		.4byte	0x336
 1169 0336 13       		.uleb128 0x13
 1170 0337 01       		.byte	0x1
ARM GAS  C:\Users\EBANO_~1\AppData\Local\Temp\ccis3phW.s 			page 50


 1171 0338 10       		.uleb128 0x10
 1172 0339 62160000 		.4byte	.LASF51
 1173 033d 08       		.byte	0x8
 1174 033e 06       		.byte	0x6
 1175 033f 75       		.byte	0x75
 1176 0340 61030000 		.4byte	0x361
 1177 0344 0D       		.uleb128 0xd
 1178 0345 34060000 		.4byte	.LASF52
 1179 0349 06       		.byte	0x6
 1180 034a 76       		.byte	0x76
 1181 034b 61030000 		.4byte	0x361
 1182 034f 02       		.byte	0x2
 1183 0350 23       		.byte	0x23
 1184 0351 00       		.uleb128 0
 1185 0352 0D       		.uleb128 0xd
 1186 0353 0A0A0000 		.4byte	.LASF53
 1187 0357 06       		.byte	0x6
 1188 0358 77       		.byte	0x77
 1189 0359 29000000 		.4byte	0x29
 1190 035d 02       		.byte	0x2
 1191 035e 23       		.byte	0x23
 1192 035f 04       		.uleb128 0x4
 1193 0360 00       		.byte	0
 1194 0361 05       		.uleb128 0x5
 1195 0362 04       		.byte	0x4
 1196 0363 6D000000 		.4byte	0x6d
 1197 0367 10       		.uleb128 0x10
 1198 0368 921D0000 		.4byte	.LASF54
 1199 036c 68       		.byte	0x68
 1200 036d 06       		.byte	0x6
 1201 036e B5       		.byte	0xb5
 1202 036f C1040000 		.4byte	0x4c1
 1203 0373 11       		.uleb128 0x11
 1204 0374 5F7000   		.ascii	"_p\000"
 1205 0377 06       		.byte	0x6
 1206 0378 B6       		.byte	0xb6
 1207 0379 61030000 		.4byte	0x361
 1208 037d 02       		.byte	0x2
 1209 037e 23       		.byte	0x23
 1210 037f 00       		.uleb128 0
 1211 0380 11       		.uleb128 0x11
 1212 0381 5F7200   		.ascii	"_r\000"
 1213 0384 06       		.byte	0x6
 1214 0385 B7       		.byte	0xb7
 1215 0386 29000000 		.4byte	0x29
 1216 038a 02       		.byte	0x2
 1217 038b 23       		.byte	0x23
 1218 038c 04       		.uleb128 0x4
 1219 038d 11       		.uleb128 0x11
 1220 038e 5F7700   		.ascii	"_w\000"
 1221 0391 06       		.byte	0x6
 1222 0392 B8       		.byte	0xb8
 1223 0393 29000000 		.4byte	0x29
 1224 0397 02       		.byte	0x2
 1225 0398 23       		.byte	0x23
 1226 0399 08       		.uleb128 0x8
 1227 039a 0D       		.uleb128 0xd
ARM GAS  C:\Users\EBANO_~1\AppData\Local\Temp\ccis3phW.s 			page 51


 1228 039b 3F020000 		.4byte	.LASF55
 1229 039f 06       		.byte	0x6
 1230 03a0 B9       		.byte	0xb9
 1231 03a1 7F000000 		.4byte	0x7f
 1232 03a5 02       		.byte	0x2
 1233 03a6 23       		.byte	0x23
 1234 03a7 0C       		.uleb128 0xc
 1235 03a8 0D       		.uleb128 0xd
 1236 03a9 7D1D0000 		.4byte	.LASF56
 1237 03ad 06       		.byte	0x6
 1238 03ae BA       		.byte	0xba
 1239 03af 7F000000 		.4byte	0x7f
 1240 03b3 02       		.byte	0x2
 1241 03b4 23       		.byte	0x23
 1242 03b5 0E       		.uleb128 0xe
 1243 03b6 11       		.uleb128 0x11
 1244 03b7 5F626600 		.ascii	"_bf\000"
 1245 03bb 06       		.byte	0x6
 1246 03bc BB       		.byte	0xbb
 1247 03bd 38030000 		.4byte	0x338
 1248 03c1 02       		.byte	0x2
 1249 03c2 23       		.byte	0x23
 1250 03c3 10       		.uleb128 0x10
 1251 03c4 0D       		.uleb128 0xd
 1252 03c5 5E040000 		.4byte	.LASF57
 1253 03c9 06       		.byte	0x6
 1254 03ca BC       		.byte	0xbc
 1255 03cb 29000000 		.4byte	0x29
 1256 03cf 02       		.byte	0x2
 1257 03d0 23       		.byte	0x23
 1258 03d1 18       		.uleb128 0x18
 1259 03d2 0D       		.uleb128 0xd
 1260 03d3 F9100000 		.4byte	.LASF58
 1261 03d7 06       		.byte	0x6
 1262 03d8 C3       		.byte	0xc3
 1263 03d9 5B010000 		.4byte	0x15b
 1264 03dd 02       		.byte	0x2
 1265 03de 23       		.byte	0x23
 1266 03df 1C       		.uleb128 0x1c
 1267 03e0 0D       		.uleb128 0xd
 1268 03e1 F1260000 		.4byte	.LASF59
 1269 03e5 06       		.byte	0x6
 1270 03e6 C5       		.byte	0xc5
 1271 03e7 49060000 		.4byte	0x649
 1272 03eb 02       		.byte	0x2
 1273 03ec 23       		.byte	0x23
 1274 03ed 20       		.uleb128 0x20
 1275 03ee 0D       		.uleb128 0xd
 1276 03ef 9A0A0000 		.4byte	.LASF60
 1277 03f3 06       		.byte	0x6
 1278 03f4 C7       		.byte	0xc7
 1279 03f5 74060000 		.4byte	0x674
 1280 03f9 02       		.byte	0x2
 1281 03fa 23       		.byte	0x23
 1282 03fb 24       		.uleb128 0x24
 1283 03fc 0D       		.uleb128 0xd
 1284 03fd CA140000 		.4byte	.LASF61
ARM GAS  C:\Users\EBANO_~1\AppData\Local\Temp\ccis3phW.s 			page 52


 1285 0401 06       		.byte	0x6
 1286 0402 CA       		.byte	0xca
 1287 0403 99060000 		.4byte	0x699
 1288 0407 02       		.byte	0x2
 1289 0408 23       		.byte	0x23
 1290 0409 28       		.uleb128 0x28
 1291 040a 0D       		.uleb128 0xd
 1292 040b 6C1A0000 		.4byte	.LASF62
 1293 040f 06       		.byte	0x6
 1294 0410 CB       		.byte	0xcb
 1295 0411 B4060000 		.4byte	0x6b4
 1296 0415 02       		.byte	0x2
 1297 0416 23       		.byte	0x23
 1298 0417 2C       		.uleb128 0x2c
 1299 0418 11       		.uleb128 0x11
 1300 0419 5F756200 		.ascii	"_ub\000"
 1301 041d 06       		.byte	0x6
 1302 041e CE       		.byte	0xce
 1303 041f 38030000 		.4byte	0x338
 1304 0423 02       		.byte	0x2
 1305 0424 23       		.byte	0x23
 1306 0425 30       		.uleb128 0x30
 1307 0426 11       		.uleb128 0x11
 1308 0427 5F757000 		.ascii	"_up\000"
 1309 042b 06       		.byte	0x6
 1310 042c CF       		.byte	0xcf
 1311 042d 61030000 		.4byte	0x361
 1312 0431 02       		.byte	0x2
 1313 0432 23       		.byte	0x23
 1314 0433 38       		.uleb128 0x38
 1315 0434 11       		.uleb128 0x11
 1316 0435 5F757200 		.ascii	"_ur\000"
 1317 0439 06       		.byte	0x6
 1318 043a D0       		.byte	0xd0
 1319 043b 29000000 		.4byte	0x29
 1320 043f 02       		.byte	0x2
 1321 0440 23       		.byte	0x23
 1322 0441 3C       		.uleb128 0x3c
 1323 0442 0D       		.uleb128 0xd
 1324 0443 D31C0000 		.4byte	.LASF63
 1325 0447 06       		.byte	0x6
 1326 0448 D3       		.byte	0xd3
 1327 0449 BA060000 		.4byte	0x6ba
 1328 044d 02       		.byte	0x2
 1329 044e 23       		.byte	0x23
 1330 044f 40       		.uleb128 0x40
 1331 0450 0D       		.uleb128 0xd
 1332 0451 FE020000 		.4byte	.LASF64
 1333 0455 06       		.byte	0x6
 1334 0456 D4       		.byte	0xd4
 1335 0457 CA060000 		.4byte	0x6ca
 1336 045b 02       		.byte	0x2
 1337 045c 23       		.byte	0x23
 1338 045d 43       		.uleb128 0x43
 1339 045e 11       		.uleb128 0x11
 1340 045f 5F6C6200 		.ascii	"_lb\000"
 1341 0463 06       		.byte	0x6
ARM GAS  C:\Users\EBANO_~1\AppData\Local\Temp\ccis3phW.s 			page 53


 1342 0464 D7       		.byte	0xd7
 1343 0465 38030000 		.4byte	0x338
 1344 0469 02       		.byte	0x2
 1345 046a 23       		.byte	0x23
 1346 046b 44       		.uleb128 0x44
 1347 046c 0D       		.uleb128 0xd
 1348 046d B91C0000 		.4byte	.LASF65
 1349 0471 06       		.byte	0x6
 1350 0472 DA       		.byte	0xda
 1351 0473 29000000 		.4byte	0x29
 1352 0477 02       		.byte	0x2
 1353 0478 23       		.byte	0x23
 1354 0479 4C       		.uleb128 0x4c
 1355 047a 0D       		.uleb128 0xd
 1356 047b 1C160000 		.4byte	.LASF66
 1357 047f 06       		.byte	0x6
 1358 0480 DB       		.byte	0xdb
 1359 0481 CF000000 		.4byte	0xcf
 1360 0485 02       		.byte	0x2
 1361 0486 23       		.byte	0x23
 1362 0487 50       		.uleb128 0x50
 1363 0488 0D       		.uleb128 0xd
 1364 0489 37050000 		.4byte	.LASF67
 1365 048d 06       		.byte	0x6
 1366 048e DE       		.byte	0xde
 1367 048f E0040000 		.4byte	0x4e0
 1368 0493 02       		.byte	0x2
 1369 0494 23       		.byte	0x23
 1370 0495 54       		.uleb128 0x54
 1371 0496 0D       		.uleb128 0xd
 1372 0497 F8020000 		.4byte	.LASF68
 1373 049b 06       		.byte	0x6
 1374 049c E2       		.byte	0xe2
 1375 049d 50010000 		.4byte	0x150
 1376 04a1 02       		.byte	0x2
 1377 04a2 23       		.byte	0x23
 1378 04a3 58       		.uleb128 0x58
 1379 04a4 0D       		.uleb128 0xd
 1380 04a5 DF000000 		.4byte	.LASF69
 1381 04a9 06       		.byte	0x6
 1382 04aa E4       		.byte	0xe4
 1383 04ab 45010000 		.4byte	0x145
 1384 04af 02       		.byte	0x2
 1385 04b0 23       		.byte	0x23
 1386 04b1 5C       		.uleb128 0x5c
 1387 04b2 0D       		.uleb128 0xd
 1388 04b3 80230000 		.4byte	.LASF70
 1389 04b7 06       		.byte	0x6
 1390 04b8 E5       		.byte	0xe5
 1391 04b9 29000000 		.4byte	0x29
 1392 04bd 02       		.byte	0x2
 1393 04be 23       		.byte	0x23
 1394 04bf 64       		.uleb128 0x64
 1395 04c0 00       		.byte	0
 1396 04c1 14       		.uleb128 0x14
 1397 04c2 01       		.byte	0x1
 1398 04c3 29000000 		.4byte	0x29
ARM GAS  C:\Users\EBANO_~1\AppData\Local\Temp\ccis3phW.s 			page 54


 1399 04c7 E0040000 		.4byte	0x4e0
 1400 04cb 15       		.uleb128 0x15
 1401 04cc E0040000 		.4byte	0x4e0
 1402 04d0 15       		.uleb128 0x15
 1403 04d1 5B010000 		.4byte	0x15b
 1404 04d5 15       		.uleb128 0x15
 1405 04d6 5D010000 		.4byte	0x15d
 1406 04da 15       		.uleb128 0x15
 1407 04db 29000000 		.4byte	0x29
 1408 04df 00       		.byte	0
 1409 04e0 05       		.uleb128 0x5
 1410 04e1 04       		.byte	0x4
 1411 04e2 EB040000 		.4byte	0x4eb
 1412 04e6 0F       		.uleb128 0xf
 1413 04e7 E0040000 		.4byte	0x4e0
 1414 04eb 16       		.uleb128 0x16
 1415 04ec BC050000 		.4byte	.LASF71
 1416 04f0 2804     		.2byte	0x428
 1417 04f2 06       		.byte	0x6
 1418 04f3 6002     		.2byte	0x260
 1419 04f5 49060000 		.4byte	0x649
 1420 04f9 17       		.uleb128 0x17
 1421 04fa D50F0000 		.4byte	.LASF72
 1422 04fe 06       		.byte	0x6
 1423 04ff 6202     		.2byte	0x262
 1424 0501 29000000 		.4byte	0x29
 1425 0505 02       		.byte	0x2
 1426 0506 23       		.byte	0x23
 1427 0507 00       		.uleb128 0
 1428 0508 17       		.uleb128 0x17
 1429 0509 170D0000 		.4byte	.LASF73
 1430 050d 06       		.byte	0x6
 1431 050e 6702     		.2byte	0x267
 1432 0510 27070000 		.4byte	0x727
 1433 0514 02       		.byte	0x2
 1434 0515 23       		.byte	0x23
 1435 0516 04       		.uleb128 0x4
 1436 0517 17       		.uleb128 0x17
 1437 0518 13090000 		.4byte	.LASF74
 1438 051c 06       		.byte	0x6
 1439 051d 6702     		.2byte	0x267
 1440 051f 27070000 		.4byte	0x727
 1441 0523 02       		.byte	0x2
 1442 0524 23       		.byte	0x23
 1443 0525 08       		.uleb128 0x8
 1444 0526 17       		.uleb128 0x17
 1445 0527 67080000 		.4byte	.LASF75
 1446 052b 06       		.byte	0x6
 1447 052c 6702     		.2byte	0x267
 1448 052e 27070000 		.4byte	0x727
 1449 0532 02       		.byte	0x2
 1450 0533 23       		.byte	0x23
 1451 0534 0C       		.uleb128 0xc
 1452 0535 17       		.uleb128 0x17
 1453 0536 47010000 		.4byte	.LASF76
 1454 053a 06       		.byte	0x6
 1455 053b 6902     		.2byte	0x269
ARM GAS  C:\Users\EBANO_~1\AppData\Local\Temp\ccis3phW.s 			page 55


 1456 053d 29000000 		.4byte	0x29
 1457 0541 02       		.byte	0x2
 1458 0542 23       		.byte	0x23
 1459 0543 10       		.uleb128 0x10
 1460 0544 17       		.uleb128 0x17
 1461 0545 1F180000 		.4byte	.LASF77
 1462 0549 06       		.byte	0x6
 1463 054a 6A02     		.2byte	0x26a
 1464 054c 42090000 		.4byte	0x942
 1465 0550 02       		.byte	0x2
 1466 0551 23       		.byte	0x23
 1467 0552 14       		.uleb128 0x14
 1468 0553 17       		.uleb128 0x17
 1469 0554 B3210000 		.4byte	.LASF78
 1470 0558 06       		.byte	0x6
 1471 0559 6D02     		.2byte	0x26d
 1472 055b 29000000 		.4byte	0x29
 1473 055f 02       		.byte	0x2
 1474 0560 23       		.byte	0x23
 1475 0561 30       		.uleb128 0x30
 1476 0562 17       		.uleb128 0x17
 1477 0563 C4230000 		.4byte	.LASF79
 1478 0567 06       		.byte	0x6
 1479 0568 6E02     		.2byte	0x26e
 1480 056a 58090000 		.4byte	0x958
 1481 056e 02       		.byte	0x2
 1482 056f 23       		.byte	0x23
 1483 0570 34       		.uleb128 0x34
 1484 0571 17       		.uleb128 0x17
 1485 0572 2D220000 		.4byte	.LASF80
 1486 0576 06       		.byte	0x6
 1487 0577 7002     		.2byte	0x270
 1488 0579 29000000 		.4byte	0x29
 1489 057d 02       		.byte	0x2
 1490 057e 23       		.byte	0x23
 1491 057f 38       		.uleb128 0x38
 1492 0580 17       		.uleb128 0x17
 1493 0581 061D0000 		.4byte	.LASF81
 1494 0585 06       		.byte	0x6
 1495 0586 7202     		.2byte	0x272
 1496 0588 6A090000 		.4byte	0x96a
 1497 058c 02       		.byte	0x2
 1498 058d 23       		.byte	0x23
 1499 058e 3C       		.uleb128 0x3c
 1500 058f 17       		.uleb128 0x17
 1501 0590 6F080000 		.4byte	.LASF82
 1502 0594 06       		.byte	0x6
 1503 0595 7502     		.2byte	0x275
 1504 0597 D9010000 		.4byte	0x1d9
 1505 059b 02       		.byte	0x2
 1506 059c 23       		.byte	0x23
 1507 059d 40       		.uleb128 0x40
 1508 059e 17       		.uleb128 0x17
 1509 059f 50080000 		.4byte	.LASF83
 1510 05a3 06       		.byte	0x6
 1511 05a4 7602     		.2byte	0x276
 1512 05a6 29000000 		.4byte	0x29
ARM GAS  C:\Users\EBANO_~1\AppData\Local\Temp\ccis3phW.s 			page 56


 1513 05aa 02       		.byte	0x2
 1514 05ab 23       		.byte	0x23
 1515 05ac 44       		.uleb128 0x44
 1516 05ad 17       		.uleb128 0x17
 1517 05ae 4F1F0000 		.4byte	.LASF84
 1518 05b2 06       		.byte	0x6
 1519 05b3 7702     		.2byte	0x277
 1520 05b5 D9010000 		.4byte	0x1d9
 1521 05b9 02       		.byte	0x2
 1522 05ba 23       		.byte	0x23
 1523 05bb 48       		.uleb128 0x48
 1524 05bc 17       		.uleb128 0x17
 1525 05bd F4150000 		.4byte	.LASF85
 1526 05c1 06       		.byte	0x6
 1527 05c2 7802     		.2byte	0x278
 1528 05c4 70090000 		.4byte	0x970
 1529 05c8 02       		.byte	0x2
 1530 05c9 23       		.byte	0x23
 1531 05ca 4C       		.uleb128 0x4c
 1532 05cb 17       		.uleb128 0x17
 1533 05cc 7B020000 		.4byte	.LASF86
 1534 05d0 06       		.byte	0x6
 1535 05d1 7B02     		.2byte	0x27b
 1536 05d3 29000000 		.4byte	0x29
 1537 05d7 02       		.byte	0x2
 1538 05d8 23       		.byte	0x23
 1539 05d9 50       		.uleb128 0x50
 1540 05da 17       		.uleb128 0x17
 1541 05db 4F0E0000 		.4byte	.LASF87
 1542 05df 06       		.byte	0x6
 1543 05e0 7C02     		.2byte	0x27c
 1544 05e2 5D010000 		.4byte	0x15d
 1545 05e6 02       		.byte	0x2
 1546 05e7 23       		.byte	0x23
 1547 05e8 54       		.uleb128 0x54
 1548 05e9 17       		.uleb128 0x17
 1549 05ea 770F0000 		.4byte	.LASF88
 1550 05ee 06       		.byte	0x6
 1551 05ef 9F02     		.2byte	0x29f
 1552 05f1 20090000 		.4byte	0x920
 1553 05f5 02       		.byte	0x2
 1554 05f6 23       		.byte	0x23
 1555 05f7 58       		.uleb128 0x58
 1556 05f8 17       		.uleb128 0x17
 1557 05f9 F5000000 		.4byte	.LASF48
 1558 05fd 06       		.byte	0x6
 1559 05fe A302     		.2byte	0x2a3
 1560 0600 1A030000 		.4byte	0x31a
 1561 0604 03       		.byte	0x3
 1562 0605 23       		.byte	0x23
 1563 0606 C802     		.uleb128 0x148
 1564 0608 17       		.uleb128 0x17
 1565 0609 071C0000 		.4byte	.LASF89
 1566 060d 06       		.byte	0x6
 1567 060e A402     		.2byte	0x2a4
 1568 0610 D3020000 		.4byte	0x2d3
 1569 0614 03       		.byte	0x3
ARM GAS  C:\Users\EBANO_~1\AppData\Local\Temp\ccis3phW.s 			page 57


 1570 0615 23       		.byte	0x23
 1571 0616 CC02     		.uleb128 0x14c
 1572 0618 17       		.uleb128 0x17
 1573 0619 B2020000 		.4byte	.LASF90
 1574 061d 06       		.byte	0x6
 1575 061e A802     		.2byte	0x2a8
 1576 0620 82090000 		.4byte	0x982
 1577 0624 03       		.byte	0x3
 1578 0625 23       		.byte	0x23
 1579 0626 DC05     		.uleb128 0x2dc
 1580 0628 17       		.uleb128 0x17
 1581 0629 E61C0000 		.4byte	.LASF91
 1582 062d 06       		.byte	0x6
 1583 062e AD02     		.2byte	0x2ad
 1584 0630 E6060000 		.4byte	0x6e6
 1585 0634 03       		.byte	0x3
 1586 0635 23       		.byte	0x23
 1587 0636 E005     		.uleb128 0x2e0
 1588 0638 17       		.uleb128 0x17
 1589 0639 00060000 		.4byte	.LASF92
 1590 063d 06       		.byte	0x6
 1591 063e AF02     		.2byte	0x2af
 1592 0640 8E090000 		.4byte	0x98e
 1593 0644 03       		.byte	0x3
 1594 0645 23       		.byte	0x23
 1595 0646 EC05     		.uleb128 0x2ec
 1596 0648 00       		.byte	0
 1597 0649 05       		.uleb128 0x5
 1598 064a 04       		.byte	0x4
 1599 064b C1040000 		.4byte	0x4c1
 1600 064f 14       		.uleb128 0x14
 1601 0650 01       		.byte	0x1
 1602 0651 29000000 		.4byte	0x29
 1603 0655 6E060000 		.4byte	0x66e
 1604 0659 15       		.uleb128 0x15
 1605 065a E0040000 		.4byte	0x4e0
 1606 065e 15       		.uleb128 0x15
 1607 065f 5B010000 		.4byte	0x15b
 1608 0663 15       		.uleb128 0x15
 1609 0664 6E060000 		.4byte	0x66e
 1610 0668 15       		.uleb128 0x15
 1611 0669 29000000 		.4byte	0x29
 1612 066d 00       		.byte	0
 1613 066e 05       		.uleb128 0x5
 1614 066f 04       		.byte	0x4
 1615 0670 6A010000 		.4byte	0x16a
 1616 0674 05       		.uleb128 0x5
 1617 0675 04       		.byte	0x4
 1618 0676 4F060000 		.4byte	0x64f
 1619 067a 14       		.uleb128 0x14
 1620 067b 01       		.byte	0x1
 1621 067c DA000000 		.4byte	0xda
 1622 0680 99060000 		.4byte	0x699
 1623 0684 15       		.uleb128 0x15
 1624 0685 E0040000 		.4byte	0x4e0
 1625 0689 15       		.uleb128 0x15
 1626 068a 5B010000 		.4byte	0x15b
ARM GAS  C:\Users\EBANO_~1\AppData\Local\Temp\ccis3phW.s 			page 58


 1627 068e 15       		.uleb128 0x15
 1628 068f DA000000 		.4byte	0xda
 1629 0693 15       		.uleb128 0x15
 1630 0694 29000000 		.4byte	0x29
 1631 0698 00       		.byte	0
 1632 0699 05       		.uleb128 0x5
 1633 069a 04       		.byte	0x4
 1634 069b 7A060000 		.4byte	0x67a
 1635 069f 14       		.uleb128 0x14
 1636 06a0 01       		.byte	0x1
 1637 06a1 29000000 		.4byte	0x29
 1638 06a5 B4060000 		.4byte	0x6b4
 1639 06a9 15       		.uleb128 0x15
 1640 06aa E0040000 		.4byte	0x4e0
 1641 06ae 15       		.uleb128 0x15
 1642 06af 5B010000 		.4byte	0x15b
 1643 06b3 00       		.byte	0
 1644 06b4 05       		.uleb128 0x5
 1645 06b5 04       		.byte	0x4
 1646 06b6 9F060000 		.4byte	0x69f
 1647 06ba 0A       		.uleb128 0xa
 1648 06bb 6D000000 		.4byte	0x6d
 1649 06bf CA060000 		.4byte	0x6ca
 1650 06c3 0B       		.uleb128 0xb
 1651 06c4 3B000000 		.4byte	0x3b
 1652 06c8 02       		.byte	0x2
 1653 06c9 00       		.byte	0
 1654 06ca 0A       		.uleb128 0xa
 1655 06cb 6D000000 		.4byte	0x6d
 1656 06cf DA060000 		.4byte	0x6da
 1657 06d3 0B       		.uleb128 0xb
 1658 06d4 3B000000 		.4byte	0x3b
 1659 06d8 00       		.byte	0
 1660 06d9 00       		.byte	0
 1661 06da 07       		.uleb128 0x7
 1662 06db FA240000 		.4byte	.LASF93
 1663 06df 06       		.byte	0x6
 1664 06e0 1F01     		.2byte	0x11f
 1665 06e2 67030000 		.4byte	0x367
 1666 06e6 18       		.uleb128 0x18
 1667 06e7 901A0000 		.4byte	.LASF94
 1668 06eb 0C       		.byte	0xc
 1669 06ec 06       		.byte	0x6
 1670 06ed 2301     		.2byte	0x123
 1671 06ef 21070000 		.4byte	0x721
 1672 06f3 17       		.uleb128 0x17
 1673 06f4 9E100000 		.4byte	.LASF28
 1674 06f8 06       		.byte	0x6
 1675 06f9 2501     		.2byte	0x125
 1676 06fb 21070000 		.4byte	0x721
 1677 06ff 02       		.byte	0x2
 1678 0700 23       		.byte	0x23
 1679 0701 00       		.uleb128 0
 1680 0702 17       		.uleb128 0x17
 1681 0703 900F0000 		.4byte	.LASF95
 1682 0707 06       		.byte	0x6
 1683 0708 2601     		.2byte	0x126
ARM GAS  C:\Users\EBANO_~1\AppData\Local\Temp\ccis3phW.s 			page 59


 1684 070a 29000000 		.4byte	0x29
 1685 070e 02       		.byte	0x2
 1686 070f 23       		.byte	0x23
 1687 0710 04       		.uleb128 0x4
 1688 0711 17       		.uleb128 0x17
 1689 0712 02180000 		.4byte	.LASF96
 1690 0716 06       		.byte	0x6
 1691 0717 2701     		.2byte	0x127
 1692 0719 27070000 		.4byte	0x727
 1693 071d 02       		.byte	0x2
 1694 071e 23       		.byte	0x23
 1695 071f 08       		.uleb128 0x8
 1696 0720 00       		.byte	0
 1697 0721 05       		.uleb128 0x5
 1698 0722 04       		.byte	0x4
 1699 0723 E6060000 		.4byte	0x6e6
 1700 0727 05       		.uleb128 0x5
 1701 0728 04       		.byte	0x4
 1702 0729 DA060000 		.4byte	0x6da
 1703 072d 18       		.uleb128 0x18
 1704 072e F7260000 		.4byte	.LASF97
 1705 0732 0E       		.byte	0xe
 1706 0733 06       		.byte	0x6
 1707 0734 3F01     		.2byte	0x13f
 1708 0736 68070000 		.4byte	0x768
 1709 073a 17       		.uleb128 0x17
 1710 073b B2140000 		.4byte	.LASF98
 1711 073f 06       		.byte	0x6
 1712 0740 4001     		.2byte	0x140
 1713 0742 68070000 		.4byte	0x768
 1714 0746 02       		.byte	0x2
 1715 0747 23       		.byte	0x23
 1716 0748 00       		.uleb128 0
 1717 0749 17       		.uleb128 0x17
 1718 074a 520C0000 		.4byte	.LASF99
 1719 074e 06       		.byte	0x6
 1720 074f 4101     		.2byte	0x141
 1721 0751 68070000 		.4byte	0x768
 1722 0755 02       		.byte	0x2
 1723 0756 23       		.byte	0x23
 1724 0757 06       		.uleb128 0x6
 1725 0758 17       		.uleb128 0x17
 1726 0759 F6030000 		.4byte	.LASF100
 1727 075d 06       		.byte	0x6
 1728 075e 4201     		.2byte	0x142
 1729 0760 91000000 		.4byte	0x91
 1730 0764 02       		.byte	0x2
 1731 0765 23       		.byte	0x23
 1732 0766 0C       		.uleb128 0xc
 1733 0767 00       		.byte	0
 1734 0768 0A       		.uleb128 0xa
 1735 0769 91000000 		.4byte	0x91
 1736 076d 78070000 		.4byte	0x778
 1737 0771 0B       		.uleb128 0xb
 1738 0772 3B000000 		.4byte	0x3b
 1739 0776 02       		.byte	0x2
 1740 0777 00       		.byte	0
ARM GAS  C:\Users\EBANO_~1\AppData\Local\Temp\ccis3phW.s 			page 60


 1741 0778 19       		.uleb128 0x19
 1742 0779 D0       		.byte	0xd0
 1743 077a 06       		.byte	0x6
 1744 077b 8002     		.2byte	0x280
 1745 077d A8080000 		.4byte	0x8a8
 1746 0781 17       		.uleb128 0x17
 1747 0782 DF070000 		.4byte	.LASF101
 1748 0786 06       		.byte	0x6
 1749 0787 8202     		.2byte	0x282
 1750 0789 3B000000 		.4byte	0x3b
 1751 078d 02       		.byte	0x2
 1752 078e 23       		.byte	0x23
 1753 078f 00       		.uleb128 0
 1754 0790 17       		.uleb128 0x17
 1755 0791 83140000 		.4byte	.LASF102
 1756 0795 06       		.byte	0x6
 1757 0796 8302     		.2byte	0x283
 1758 0798 5D010000 		.4byte	0x15d
 1759 079c 02       		.byte	0x2
 1760 079d 23       		.byte	0x23
 1761 079e 04       		.uleb128 0x4
 1762 079f 17       		.uleb128 0x17
 1763 07a0 BA160000 		.4byte	.LASF103
 1764 07a4 06       		.byte	0x6
 1765 07a5 8402     		.2byte	0x284
 1766 07a7 A8080000 		.4byte	0x8a8
 1767 07ab 02       		.byte	0x2
 1768 07ac 23       		.byte	0x23
 1769 07ad 08       		.uleb128 0x8
 1770 07ae 17       		.uleb128 0x17
 1771 07af FA0D0000 		.4byte	.LASF104
 1772 07b3 06       		.byte	0x6
 1773 07b4 8502     		.2byte	0x285
 1774 07b6 EF010000 		.4byte	0x1ef
 1775 07ba 02       		.byte	0x2
 1776 07bb 23       		.byte	0x23
 1777 07bc 24       		.uleb128 0x24
 1778 07bd 17       		.uleb128 0x17
 1779 07be 79200000 		.4byte	.LASF105
 1780 07c2 06       		.byte	0x6
 1781 07c3 8602     		.2byte	0x286
 1782 07c5 29000000 		.4byte	0x29
 1783 07c9 02       		.byte	0x2
 1784 07ca 23       		.byte	0x23
 1785 07cb 48       		.uleb128 0x48
 1786 07cc 17       		.uleb128 0x17
 1787 07cd 65180000 		.4byte	.LASF106
 1788 07d1 06       		.byte	0x6
 1789 07d2 8702     		.2byte	0x287
 1790 07d4 B1000000 		.4byte	0xb1
 1791 07d8 02       		.byte	0x2
 1792 07d9 23       		.byte	0x23
 1793 07da 50       		.uleb128 0x50
 1794 07db 17       		.uleb128 0x17
 1795 07dc 2E260000 		.4byte	.LASF107
 1796 07e0 06       		.byte	0x6
 1797 07e1 8802     		.2byte	0x288
ARM GAS  C:\Users\EBANO_~1\AppData\Local\Temp\ccis3phW.s 			page 61


 1798 07e3 2D070000 		.4byte	0x72d
 1799 07e7 02       		.byte	0x2
 1800 07e8 23       		.byte	0x23
 1801 07e9 58       		.uleb128 0x58
 1802 07ea 17       		.uleb128 0x17
 1803 07eb D91C0000 		.4byte	.LASF108
 1804 07ef 06       		.byte	0x6
 1805 07f0 8902     		.2byte	0x289
 1806 07f2 45010000 		.4byte	0x145
 1807 07f6 02       		.byte	0x2
 1808 07f7 23       		.byte	0x23
 1809 07f8 68       		.uleb128 0x68
 1810 07f9 17       		.uleb128 0x17
 1811 07fa 40060000 		.4byte	.LASF109
 1812 07fe 06       		.byte	0x6
 1813 07ff 8A02     		.2byte	0x28a
 1814 0801 45010000 		.4byte	0x145
 1815 0805 02       		.byte	0x2
 1816 0806 23       		.byte	0x23
 1817 0807 70       		.uleb128 0x70
 1818 0808 17       		.uleb128 0x17
 1819 0809 97170000 		.4byte	.LASF110
 1820 080d 06       		.byte	0x6
 1821 080e 8B02     		.2byte	0x28b
 1822 0810 45010000 		.4byte	0x145
 1823 0814 02       		.byte	0x2
 1824 0815 23       		.byte	0x23
 1825 0816 78       		.uleb128 0x78
 1826 0817 17       		.uleb128 0x17
 1827 0818 69160000 		.4byte	.LASF111
 1828 081c 06       		.byte	0x6
 1829 081d 8C02     		.2byte	0x28c
 1830 081f B8080000 		.4byte	0x8b8
 1831 0823 03       		.byte	0x3
 1832 0824 23       		.byte	0x23
 1833 0825 8001     		.uleb128 0x80
 1834 0827 17       		.uleb128 0x17
 1835 0828 C6100000 		.4byte	.LASF112
 1836 082c 06       		.byte	0x6
 1837 082d 8D02     		.2byte	0x28d
 1838 082f C8080000 		.4byte	0x8c8
 1839 0833 03       		.byte	0x3
 1840 0834 23       		.byte	0x23
 1841 0835 8801     		.uleb128 0x88
 1842 0837 17       		.uleb128 0x17
 1843 0838 371C0000 		.4byte	.LASF113
 1844 083c 06       		.byte	0x6
 1845 083d 8E02     		.2byte	0x28e
 1846 083f 29000000 		.4byte	0x29
 1847 0843 03       		.byte	0x3
 1848 0844 23       		.byte	0x23
 1849 0845 A001     		.uleb128 0xa0
 1850 0847 17       		.uleb128 0x17
 1851 0848 7A0C0000 		.4byte	.LASF114
 1852 084c 06       		.byte	0x6
 1853 084d 8F02     		.2byte	0x28f
 1854 084f 45010000 		.4byte	0x145
ARM GAS  C:\Users\EBANO_~1\AppData\Local\Temp\ccis3phW.s 			page 62


 1855 0853 03       		.byte	0x3
 1856 0854 23       		.byte	0x23
 1857 0855 A401     		.uleb128 0xa4
 1858 0857 17       		.uleb128 0x17
 1859 0858 3A0F0000 		.4byte	.LASF115
 1860 085c 06       		.byte	0x6
 1861 085d 9002     		.2byte	0x290
 1862 085f 45010000 		.4byte	0x145
 1863 0863 03       		.byte	0x3
 1864 0864 23       		.byte	0x23
 1865 0865 AC01     		.uleb128 0xac
 1866 0867 17       		.uleb128 0x17
 1867 0868 52090000 		.4byte	.LASF116
 1868 086c 06       		.byte	0x6
 1869 086d 9102     		.2byte	0x291
 1870 086f 45010000 		.4byte	0x145
 1871 0873 03       		.byte	0x3
 1872 0874 23       		.byte	0x23
 1873 0875 B401     		.uleb128 0xb4
 1874 0877 17       		.uleb128 0x17
 1875 0878 55130000 		.4byte	.LASF117
 1876 087c 06       		.byte	0x6
 1877 087d 9202     		.2byte	0x292
 1878 087f 45010000 		.4byte	0x145
 1879 0883 03       		.byte	0x3
 1880 0884 23       		.byte	0x23
 1881 0885 BC01     		.uleb128 0xbc
 1882 0887 17       		.uleb128 0x17
 1883 0888 EA160000 		.4byte	.LASF118
 1884 088c 06       		.byte	0x6
 1885 088d 9302     		.2byte	0x293
 1886 088f 45010000 		.4byte	0x145
 1887 0893 03       		.byte	0x3
 1888 0894 23       		.byte	0x23
 1889 0895 C401     		.uleb128 0xc4
 1890 0897 17       		.uleb128 0x17
 1891 0898 061E0000 		.4byte	.LASF119
 1892 089c 06       		.byte	0x6
 1893 089d 9402     		.2byte	0x294
 1894 089f 29000000 		.4byte	0x29
 1895 08a3 03       		.byte	0x3
 1896 08a4 23       		.byte	0x23
 1897 08a5 CC01     		.uleb128 0xcc
 1898 08a7 00       		.byte	0
 1899 08a8 0A       		.uleb128 0xa
 1900 08a9 63010000 		.4byte	0x163
 1901 08ad B8080000 		.4byte	0x8b8
 1902 08b1 0B       		.uleb128 0xb
 1903 08b2 3B000000 		.4byte	0x3b
 1904 08b6 19       		.byte	0x19
 1905 08b7 00       		.byte	0
 1906 08b8 0A       		.uleb128 0xa
 1907 08b9 63010000 		.4byte	0x163
 1908 08bd C8080000 		.4byte	0x8c8
 1909 08c1 0B       		.uleb128 0xb
 1910 08c2 3B000000 		.4byte	0x3b
 1911 08c6 07       		.byte	0x7
ARM GAS  C:\Users\EBANO_~1\AppData\Local\Temp\ccis3phW.s 			page 63


 1912 08c7 00       		.byte	0
 1913 08c8 0A       		.uleb128 0xa
 1914 08c9 63010000 		.4byte	0x163
 1915 08cd D8080000 		.4byte	0x8d8
 1916 08d1 0B       		.uleb128 0xb
 1917 08d2 3B000000 		.4byte	0x3b
 1918 08d6 17       		.byte	0x17
 1919 08d7 00       		.byte	0
 1920 08d8 19       		.uleb128 0x19
 1921 08d9 F0       		.byte	0xf0
 1922 08da 06       		.byte	0x6
 1923 08db 9902     		.2byte	0x299
 1924 08dd 00090000 		.4byte	0x900
 1925 08e1 17       		.uleb128 0x17
 1926 08e2 5E180000 		.4byte	.LASF120
 1927 08e6 06       		.byte	0x6
 1928 08e7 9C02     		.2byte	0x29c
 1929 08e9 00090000 		.4byte	0x900
 1930 08ed 02       		.byte	0x2
 1931 08ee 23       		.byte	0x23
 1932 08ef 00       		.uleb128 0
 1933 08f0 17       		.uleb128 0x17
 1934 08f1 2D0D0000 		.4byte	.LASF121
 1935 08f5 06       		.byte	0x6
 1936 08f6 9D02     		.2byte	0x29d
 1937 08f8 10090000 		.4byte	0x910
 1938 08fc 02       		.byte	0x2
 1939 08fd 23       		.byte	0x23
 1940 08fe 78       		.uleb128 0x78
 1941 08ff 00       		.byte	0
 1942 0900 0A       		.uleb128 0xa
 1943 0901 61030000 		.4byte	0x361
 1944 0905 10090000 		.4byte	0x910
 1945 0909 0B       		.uleb128 0xb
 1946 090a 3B000000 		.4byte	0x3b
 1947 090e 1D       		.byte	0x1d
 1948 090f 00       		.byte	0
 1949 0910 0A       		.uleb128 0xa
 1950 0911 3B000000 		.4byte	0x3b
 1951 0915 20090000 		.4byte	0x920
 1952 0919 0B       		.uleb128 0xb
 1953 091a 3B000000 		.4byte	0x3b
 1954 091e 1D       		.byte	0x1d
 1955 091f 00       		.byte	0
 1956 0920 1A       		.uleb128 0x1a
 1957 0921 F0       		.byte	0xf0
 1958 0922 06       		.byte	0x6
 1959 0923 7E02     		.2byte	0x27e
 1960 0925 42090000 		.4byte	0x942
 1961 0929 1B       		.uleb128 0x1b
 1962 092a BC050000 		.4byte	.LASF71
 1963 092e 06       		.byte	0x6
 1964 092f 9502     		.2byte	0x295
 1965 0931 78070000 		.4byte	0x778
 1966 0935 1B       		.uleb128 0x1b
 1967 0936 19030000 		.4byte	.LASF122
 1968 093a 06       		.byte	0x6
ARM GAS  C:\Users\EBANO_~1\AppData\Local\Temp\ccis3phW.s 			page 64


 1969 093b 9E02     		.2byte	0x29e
 1970 093d D8080000 		.4byte	0x8d8
 1971 0941 00       		.byte	0
 1972 0942 0A       		.uleb128 0xa
 1973 0943 63010000 		.4byte	0x163
 1974 0947 52090000 		.4byte	0x952
 1975 094b 0B       		.uleb128 0xb
 1976 094c 3B000000 		.4byte	0x3b
 1977 0950 18       		.byte	0x18
 1978 0951 00       		.byte	0
 1979 0952 06       		.uleb128 0x6
 1980 0953 EE1C0000 		.4byte	.LASF124
 1981 0957 01       		.byte	0x1
 1982 0958 05       		.uleb128 0x5
 1983 0959 04       		.byte	0x4
 1984 095a 52090000 		.4byte	0x952
 1985 095e 1C       		.uleb128 0x1c
 1986 095f 01       		.byte	0x1
 1987 0960 6A090000 		.4byte	0x96a
 1988 0964 15       		.uleb128 0x15
 1989 0965 E0040000 		.4byte	0x4e0
 1990 0969 00       		.byte	0
 1991 096a 05       		.uleb128 0x5
 1992 096b 04       		.byte	0x4
 1993 096c 5E090000 		.4byte	0x95e
 1994 0970 05       		.uleb128 0x5
 1995 0971 04       		.byte	0x4
 1996 0972 D9010000 		.4byte	0x1d9
 1997 0976 1C       		.uleb128 0x1c
 1998 0977 01       		.byte	0x1
 1999 0978 82090000 		.4byte	0x982
 2000 097c 15       		.uleb128 0x15
 2001 097d 29000000 		.4byte	0x29
 2002 0981 00       		.byte	0
 2003 0982 05       		.uleb128 0x5
 2004 0983 04       		.byte	0x4
 2005 0984 88090000 		.4byte	0x988
 2006 0988 05       		.uleb128 0x5
 2007 0989 04       		.byte	0x4
 2008 098a 76090000 		.4byte	0x976
 2009 098e 0A       		.uleb128 0xa
 2010 098f DA060000 		.4byte	0x6da
 2011 0993 9E090000 		.4byte	0x99e
 2012 0997 0B       		.uleb128 0xb
 2013 0998 3B000000 		.4byte	0x3b
 2014 099c 02       		.byte	0x2
 2015 099d 00       		.byte	0
 2016 099e 1D       		.uleb128 0x1d
 2017 099f AD1C0000 		.4byte	.LASF125
 2018 09a3 06       		.byte	0x6
 2019 09a4 2E03     		.2byte	0x32e
 2020 09a6 E0040000 		.4byte	0x4e0
 2021 09aa 01       		.byte	0x1
 2022 09ab 01       		.byte	0x1
 2023 09ac 1D       		.uleb128 0x1d
 2024 09ad A0210000 		.4byte	.LASF126
 2025 09b1 06       		.byte	0x6
ARM GAS  C:\Users\EBANO_~1\AppData\Local\Temp\ccis3phW.s 			page 65


 2026 09b2 2F03     		.2byte	0x32f
 2027 09b4 E6040000 		.4byte	0x4e6
 2028 09b8 01       		.byte	0x1
 2029 09b9 01       		.byte	0x1
 2030 09ba 04       		.uleb128 0x4
 2031 09bb 04       		.byte	0x4
 2032 09bc 04       		.byte	0x4
 2033 09bd 72090000 		.4byte	.LASF127
 2034 09c1 04       		.uleb128 0x4
 2035 09c2 08       		.byte	0x8
 2036 09c3 04       		.byte	0x4
 2037 09c4 9A1D0000 		.4byte	.LASF128
 2038 09c8 1E       		.uleb128 0x1e
 2039 09c9 31170000 		.4byte	.LASF153
 2040 09cd 05       		.byte	0x5
 2041 09ce 01       		.byte	0x1
 2042 09cf 5B000000 		.4byte	0x5b
 2043 09d3 07       		.byte	0x7
 2044 09d4 8202     		.2byte	0x282
 2045 09d6 F3090000 		.4byte	0x9f3
 2046 09da 1F       		.uleb128 0x1f
 2047 09db 86150000 		.4byte	.LASF129
 2048 09df 7F       		.sleb128 -1
 2049 09e0 20       		.uleb128 0x20
 2050 09e1 A4020000 		.4byte	.LASF130
 2051 09e5 00       		.byte	0
 2052 09e6 20       		.uleb128 0x20
 2053 09e7 9F000000 		.4byte	.LASF131
 2054 09eb 01       		.byte	0x1
 2055 09ec 20       		.uleb128 0x20
 2056 09ed 38220000 		.4byte	.LASF132
 2057 09f1 02       		.byte	0x2
 2058 09f2 00       		.byte	0
 2059 09f3 1D       		.uleb128 0x1d
 2060 09f4 CF080000 		.4byte	.LASF133
 2061 09f8 07       		.byte	0x7
 2062 09f9 8D02     		.2byte	0x28d
 2063 09fb C8090000 		.4byte	0x9c8
 2064 09ff 01       		.byte	0x1
 2065 0a00 01       		.byte	0x1
 2066 0a01 03       		.uleb128 0x3
 2067 0a02 B3130000 		.4byte	.LASF134
 2068 0a06 08       		.byte	0x8
 2069 0a07 14       		.byte	0x14
 2070 0a08 50000000 		.4byte	0x50
 2071 0a0c 03       		.uleb128 0x3
 2072 0a0d 110E0000 		.4byte	.LASF135
 2073 0a11 08       		.byte	0x8
 2074 0a12 18       		.byte	0x18
 2075 0a13 62000000 		.4byte	0x62
 2076 0a17 0F       		.uleb128 0xf
 2077 0a18 0C0A0000 		.4byte	0xa0c
 2078 0a1c 03       		.uleb128 0x3
 2079 0a1d 1F150000 		.4byte	.LASF136
 2080 0a21 08       		.byte	0x8
 2081 0a22 20       		.byte	0x20
 2082 0a23 74000000 		.4byte	0x74
ARM GAS  C:\Users\EBANO_~1\AppData\Local\Temp\ccis3phW.s 			page 66


 2083 0a27 03       		.uleb128 0x3
 2084 0a28 A3010000 		.4byte	.LASF137
 2085 0a2c 08       		.byte	0x8
 2086 0a2d 24       		.byte	0x24
 2087 0a2e 86000000 		.4byte	0x86
 2088 0a32 03       		.uleb128 0x3
 2089 0a33 AD180000 		.4byte	.LASF138
 2090 0a37 08       		.byte	0x8
 2091 0a38 30       		.byte	0x30
 2092 0a39 9F000000 		.4byte	0x9f
 2093 0a3d 21       		.uleb128 0x21
 2094 0a3e 24160000 		.4byte	.LASF139
 2095 0a42 09       		.byte	0x9
 2096 0a43 4A       		.byte	0x4a
 2097 0a44 320A0000 		.4byte	0xa32
 2098 0a48 01       		.byte	0x1
 2099 0a49 01       		.byte	0x1
 2100 0a4a 0A       		.uleb128 0xa
 2101 0a4b 170A0000 		.4byte	0xa17
 2102 0a4f 5A0A0000 		.4byte	0xa5a
 2103 0a53 0B       		.uleb128 0xb
 2104 0a54 3B000000 		.4byte	0x3b
 2105 0a58 0F       		.byte	0xf
 2106 0a59 00       		.byte	0
 2107 0a5a 0F       		.uleb128 0xf
 2108 0a5b 4A0A0000 		.4byte	0xa4a
 2109 0a5f 21       		.uleb128 0x21
 2110 0a60 1F240000 		.4byte	.LASF140
 2111 0a64 09       		.byte	0x9
 2112 0a65 4D       		.byte	0x4d
 2113 0a66 5A0A0000 		.4byte	0xa5a
 2114 0a6a 01       		.byte	0x1
 2115 0a6b 01       		.byte	0x1
 2116 0a6c 0A       		.uleb128 0xa
 2117 0a6d 170A0000 		.4byte	0xa17
 2118 0a71 7C0A0000 		.4byte	0xa7c
 2119 0a75 0B       		.uleb128 0xb
 2120 0a76 3B000000 		.4byte	0x3b
 2121 0a7a 07       		.byte	0x7
 2122 0a7b 00       		.byte	0
 2123 0a7c 0F       		.uleb128 0xf
 2124 0a7d 6C0A0000 		.4byte	0xa6c
 2125 0a81 21       		.uleb128 0x21
 2126 0a82 BC1A0000 		.4byte	.LASF141
 2127 0a86 09       		.byte	0x9
 2128 0a87 4E       		.byte	0x4e
 2129 0a88 7C0A0000 		.4byte	0xa7c
 2130 0a8c 01       		.byte	0x1
 2131 0a8d 01       		.byte	0x1
 2132 0a8e 0A       		.uleb128 0xa
 2133 0a8f 170A0000 		.4byte	0xa17
 2134 0a93 9E0A0000 		.4byte	0xa9e
 2135 0a97 0B       		.uleb128 0xb
 2136 0a98 3B000000 		.4byte	0x3b
 2137 0a9c 08       		.byte	0x8
 2138 0a9d 00       		.byte	0
 2139 0a9e 0F       		.uleb128 0xf
ARM GAS  C:\Users\EBANO_~1\AppData\Local\Temp\ccis3phW.s 			page 67


 2140 0a9f 8E0A0000 		.4byte	0xa8e
 2141 0aa3 21       		.uleb128 0x21
 2142 0aa4 691D0000 		.4byte	.LASF142
 2143 0aa8 09       		.byte	0x9
 2144 0aa9 4F       		.byte	0x4f
 2145 0aaa 9E0A0000 		.4byte	0xa9e
 2146 0aae 01       		.byte	0x1
 2147 0aaf 01       		.byte	0x1
 2148 0ab0 05       		.uleb128 0x5
 2149 0ab1 04       		.byte	0x4
 2150 0ab2 0C0A0000 		.4byte	0xa0c
 2151 0ab6 21       		.uleb128 0x21
 2152 0ab7 B5190000 		.4byte	.LASF143
 2153 0abb 0A       		.byte	0xa
 2154 0abc 63       		.byte	0x63
 2155 0abd 5D010000 		.4byte	0x15d
 2156 0ac1 01       		.byte	0x1
 2157 0ac2 01       		.byte	0x1
 2158 0ac3 03       		.uleb128 0x3
 2159 0ac4 881F0000 		.4byte	.LASF144
 2160 0ac8 0B       		.byte	0xb
 2161 0ac9 3D       		.byte	0x3d
 2162 0aca 320A0000 		.4byte	0xa32
 2163 0ace 10       		.uleb128 0x10
 2164 0acf D50D0000 		.4byte	.LASF145
 2165 0ad3 04       		.byte	0x4
 2166 0ad4 0B       		.byte	0xb
 2167 0ad5 5F       		.byte	0x5f
 2168 0ad6 130B0000 		.4byte	0xb13
 2169 0ada 11       		.uleb128 0x11
 2170 0adb 52667500 		.ascii	"Rfu\000"
 2171 0adf 0B       		.byte	0xb
 2172 0ae0 61       		.byte	0x61
 2173 0ae1 0C0A0000 		.4byte	0xa0c
 2174 0ae5 02       		.byte	0x2
 2175 0ae6 23       		.byte	0x23
 2176 0ae7 00       		.uleb128 0
 2177 0ae8 0D       		.uleb128 0xd
 2178 0ae9 35000000 		.4byte	.LASF146
 2179 0aed 0B       		.byte	0xb
 2180 0aee 62       		.byte	0x62
 2181 0aef 0C0A0000 		.4byte	0xa0c
 2182 0af3 02       		.byte	0x2
 2183 0af4 23       		.byte	0x23
 2184 0af5 01       		.uleb128 0x1
 2185 0af6 0D       		.uleb128 0xd
 2186 0af7 AE030000 		.4byte	.LASF147
 2187 0afb 0B       		.byte	0xb
 2188 0afc 63       		.byte	0x63
 2189 0afd 0C0A0000 		.4byte	0xa0c
 2190 0b01 02       		.byte	0x2
 2191 0b02 23       		.byte	0x23
 2192 0b03 02       		.uleb128 0x2
 2193 0b04 0D       		.uleb128 0xd
 2194 0b05 3B210000 		.4byte	.LASF148
 2195 0b09 0B       		.byte	0xb
 2196 0b0a 64       		.byte	0x64
ARM GAS  C:\Users\EBANO_~1\AppData\Local\Temp\ccis3phW.s 			page 68


 2197 0b0b 0C0A0000 		.4byte	0xa0c
 2198 0b0f 02       		.byte	0x2
 2199 0b10 23       		.byte	0x23
 2200 0b11 03       		.uleb128 0x3
 2201 0b12 00       		.byte	0
 2202 0b13 22       		.uleb128 0x22
 2203 0b14 E90D0000 		.4byte	.LASF234
 2204 0b18 04       		.byte	0x4
 2205 0b19 0B       		.byte	0xb
 2206 0b1a 5D       		.byte	0x5d
 2207 0b1b 360B0000 		.4byte	0xb36
 2208 0b1f 09       		.uleb128 0x9
 2209 0b20 30140000 		.4byte	.LASF149
 2210 0b24 0B       		.byte	0xb
 2211 0b25 65       		.byte	0x65
 2212 0b26 CE0A0000 		.4byte	0xace
 2213 0b2a 09       		.uleb128 0x9
 2214 0b2b 33260000 		.4byte	.LASF150
 2215 0b2f 0B       		.byte	0xb
 2216 0b30 66       		.byte	0x66
 2217 0b31 320A0000 		.4byte	0xa32
 2218 0b35 00       		.byte	0
 2219 0b36 03       		.uleb128 0x3
 2220 0b37 DF0D0000 		.4byte	.LASF151
 2221 0b3b 0B       		.byte	0xb
 2222 0b3c 67       		.byte	0x67
 2223 0b3d 130B0000 		.4byte	0xb13
 2224 0b41 04       		.uleb128 0x4
 2225 0b42 01       		.byte	0x1
 2226 0b43 02       		.byte	0x2
 2227 0b44 CA000000 		.4byte	.LASF152
 2228 0b48 23       		.uleb128 0x23
 2229 0b49 D1060000 		.4byte	.LASF154
 2230 0b4d 07       		.byte	0x7
 2231 0b4e 01       		.byte	0x1
 2232 0b4f 6D000000 		.4byte	0x6d
 2233 0b53 0C       		.byte	0xc
 2234 0b54 E6       		.byte	0xe6
 2235 0b55 780B0000 		.4byte	0xb78
 2236 0b59 20       		.uleb128 0x20
 2237 0b5a AD200000 		.4byte	.LASF155
 2238 0b5e 00       		.byte	0
 2239 0b5f 20       		.uleb128 0x20
 2240 0b60 EA1F0000 		.4byte	.LASF156
 2241 0b64 01       		.byte	0x1
 2242 0b65 20       		.uleb128 0x20
 2243 0b66 941F0000 		.4byte	.LASF157
 2244 0b6a 02       		.byte	0x2
 2245 0b6b 20       		.uleb128 0x20
 2246 0b6c 1B090000 		.4byte	.LASF158
 2247 0b70 03       		.byte	0x3
 2248 0b71 20       		.uleb128 0x20
 2249 0b72 3F030000 		.4byte	.LASF159
 2250 0b76 04       		.byte	0x4
 2251 0b77 00       		.byte	0
 2252 0b78 03       		.uleb128 0x3
 2253 0b79 20060000 		.4byte	.LASF160
ARM GAS  C:\Users\EBANO_~1\AppData\Local\Temp\ccis3phW.s 			page 69


 2254 0b7d 0C       		.byte	0xc
 2255 0b7e FC       		.byte	0xfc
 2256 0b7f 480B0000 		.4byte	0xb48
 2257 0b83 18       		.uleb128 0x18
 2258 0b84 5E060000 		.4byte	.LASF161
 2259 0b88 20       		.byte	0x20
 2260 0b89 0C       		.byte	0xc
 2261 0b8a 0101     		.2byte	0x101
 2262 0b8c 270C0000 		.4byte	0xc27
 2263 0b90 17       		.uleb128 0x17
 2264 0b91 78090000 		.4byte	.LASF162
 2265 0b95 0C       		.byte	0xc
 2266 0b96 0601     		.2byte	0x106
 2267 0b98 780B0000 		.4byte	0xb78
 2268 0b9c 02       		.byte	0x2
 2269 0b9d 23       		.byte	0x23
 2270 0b9e 00       		.uleb128 0
 2271 0b9f 17       		.uleb128 0x17
 2272 0ba0 98210000 		.4byte	.LASF163
 2273 0ba4 0C       		.byte	0xc
 2274 0ba5 0A01     		.2byte	0x10a
 2275 0ba7 320A0000 		.4byte	0xa32
 2276 0bab 02       		.byte	0x2
 2277 0bac 23       		.byte	0x23
 2278 0bad 04       		.uleb128 0x4
 2279 0bae 17       		.uleb128 0x17
 2280 0baf 59220000 		.4byte	.LASF164
 2281 0bb3 0C       		.byte	0xc
 2282 0bb4 0E01     		.2byte	0x10e
 2283 0bb6 270C0000 		.4byte	0xc27
 2284 0bba 02       		.byte	0x2
 2285 0bbb 23       		.byte	0x23
 2286 0bbc 08       		.uleb128 0x8
 2287 0bbd 17       		.uleb128 0x17
 2288 0bbe 65240000 		.4byte	.LASF165
 2289 0bc2 0C       		.byte	0xc
 2290 0bc3 1201     		.2byte	0x112
 2291 0bc5 410B0000 		.4byte	0xb41
 2292 0bc9 02       		.byte	0x2
 2293 0bca 23       		.byte	0x23
 2294 0bcb 0C       		.uleb128 0xc
 2295 0bcc 17       		.uleb128 0x17
 2296 0bcd 41210000 		.4byte	.LASF166
 2297 0bd1 0C       		.byte	0xc
 2298 0bd2 1601     		.2byte	0x116
 2299 0bd4 320A0000 		.4byte	0xa32
 2300 0bd8 02       		.byte	0x2
 2301 0bd9 23       		.byte	0x23
 2302 0bda 10       		.uleb128 0x10
 2303 0bdb 17       		.uleb128 0x17
 2304 0bdc 74220000 		.4byte	.LASF167
 2305 0be0 0C       		.byte	0xc
 2306 0be1 1A01     		.2byte	0x11a
 2307 0be3 010A0000 		.4byte	0xa01
 2308 0be7 02       		.byte	0x2
 2309 0be8 23       		.byte	0x23
 2310 0be9 14       		.uleb128 0x14
ARM GAS  C:\Users\EBANO_~1\AppData\Local\Temp\ccis3phW.s 			page 70


 2311 0bea 17       		.uleb128 0x17
 2312 0beb 880C0000 		.4byte	.LASF168
 2313 0bef 0C       		.byte	0xc
 2314 0bf0 1F01     		.2byte	0x11f
 2315 0bf2 270A0000 		.4byte	0xa27
 2316 0bf6 02       		.byte	0x2
 2317 0bf7 23       		.byte	0x23
 2318 0bf8 16       		.uleb128 0x16
 2319 0bf9 17       		.uleb128 0x17
 2320 0bfa 05060000 		.4byte	.LASF169
 2321 0bfe 0C       		.byte	0xc
 2322 0bff 2601     		.2byte	0x126
 2323 0c01 0C0A0000 		.4byte	0xa0c
 2324 0c05 02       		.byte	0x2
 2325 0c06 23       		.byte	0x23
 2326 0c07 18       		.uleb128 0x18
 2327 0c08 17       		.uleb128 0x17
 2328 0c09 800B0000 		.4byte	.LASF170
 2329 0c0d 0C       		.byte	0xc
 2330 0c0e 2C01     		.2byte	0x12c
 2331 0c10 270A0000 		.4byte	0xa27
 2332 0c14 02       		.byte	0x2
 2333 0c15 23       		.byte	0x23
 2334 0c16 1A       		.uleb128 0x1a
 2335 0c17 17       		.uleb128 0x17
 2336 0c18 CC180000 		.4byte	.LASF171
 2337 0c1c 0C       		.byte	0xc
 2338 0c1d 3001     		.2byte	0x130
 2339 0c1f 270A0000 		.4byte	0xa27
 2340 0c23 02       		.byte	0x2
 2341 0c24 23       		.byte	0x23
 2342 0c25 1C       		.uleb128 0x1c
 2343 0c26 00       		.byte	0
 2344 0c27 05       		.uleb128 0x5
 2345 0c28 04       		.byte	0x4
 2346 0c29 320A0000 		.4byte	0xa32
 2347 0c2d 07       		.uleb128 0x7
 2348 0c2e 41080000 		.4byte	.LASF172
 2349 0c32 0C       		.byte	0xc
 2350 0c33 3101     		.2byte	0x131
 2351 0c35 830B0000 		.4byte	0xb83
 2352 0c39 07       		.uleb128 0x7
 2353 0c3a A0130000 		.4byte	.LASF173
 2354 0c3e 0C       		.byte	0xc
 2355 0c3f 2C02     		.2byte	0x22c
 2356 0c41 30030000 		.4byte	0x330
 2357 0c45 21       		.uleb128 0x21
 2358 0c46 E01F0000 		.4byte	.LASF174
 2359 0c4a 0D       		.byte	0xd
 2360 0c4b 9A       		.byte	0x9a
 2361 0c4c 98000000 		.4byte	0x98
 2362 0c50 01       		.byte	0x1
 2363 0c51 01       		.byte	0x1
 2364 0c52 21       		.uleb128 0x21
 2365 0c53 9C050000 		.4byte	.LASF175
 2366 0c57 0D       		.byte	0xd
 2367 0c58 9B       		.byte	0x9b
ARM GAS  C:\Users\EBANO_~1\AppData\Local\Temp\ccis3phW.s 			page 71


 2368 0c59 29000000 		.4byte	0x29
 2369 0c5d 01       		.byte	0x1
 2370 0c5e 01       		.byte	0x1
 2371 0c5f 0A       		.uleb128 0xa
 2372 0c60 5D010000 		.4byte	0x15d
 2373 0c64 6F0C0000 		.4byte	0xc6f
 2374 0c68 0B       		.uleb128 0xb
 2375 0c69 3B000000 		.4byte	0x3b
 2376 0c6d 01       		.byte	0x1
 2377 0c6e 00       		.byte	0
 2378 0c6f 21       		.uleb128 0x21
 2379 0c70 01110000 		.4byte	.LASF176
 2380 0c74 0D       		.byte	0xd
 2381 0c75 9E       		.byte	0x9e
 2382 0c76 5F0C0000 		.4byte	0xc5f
 2383 0c7a 01       		.byte	0x1
 2384 0c7b 01       		.byte	0x1
 2385 0c7c 24       		.uleb128 0x24
 2386 0c7d 07       		.byte	0x7
 2387 0c7e 01       		.byte	0x1
 2388 0c7f 6D000000 		.4byte	0x6d
 2389 0c83 0E       		.byte	0xe
 2390 0c84 21       		.byte	0x21
 2391 0c85 960C0000 		.4byte	0xc96
 2392 0c89 20       		.uleb128 0x20
 2393 0c8a 530F0000 		.4byte	.LASF177
 2394 0c8e 00       		.byte	0
 2395 0c8f 20       		.uleb128 0x20
 2396 0c90 00200000 		.4byte	.LASF178
 2397 0c94 01       		.byte	0x1
 2398 0c95 00       		.byte	0
 2399 0c96 03       		.uleb128 0x3
 2400 0c97 C70F0000 		.4byte	.LASF179
 2401 0c9b 0E       		.byte	0xe
 2402 0c9c 24       		.byte	0x24
 2403 0c9d 7C0C0000 		.4byte	0xc7c
 2404 0ca1 24       		.uleb128 0x24
 2405 0ca2 07       		.byte	0x7
 2406 0ca3 01       		.byte	0x1
 2407 0ca4 6D000000 		.4byte	0x6d
 2408 0ca8 0E       		.byte	0xe
 2409 0ca9 2A       		.byte	0x2a
 2410 0caa C70C0000 		.4byte	0xcc7
 2411 0cae 20       		.uleb128 0x20
 2412 0caf FB030000 		.4byte	.LASF180
 2413 0cb3 00       		.byte	0
 2414 0cb4 20       		.uleb128 0x20
 2415 0cb5 3D110000 		.4byte	.LASF181
 2416 0cb9 01       		.byte	0x1
 2417 0cba 20       		.uleb128 0x20
 2418 0cbb 541F0000 		.4byte	.LASF182
 2419 0cbf 02       		.byte	0x2
 2420 0cc0 20       		.uleb128 0x20
 2421 0cc1 891A0000 		.4byte	.LASF183
 2422 0cc5 03       		.byte	0x3
 2423 0cc6 00       		.byte	0
 2424 0cc7 03       		.uleb128 0x3
ARM GAS  C:\Users\EBANO_~1\AppData\Local\Temp\ccis3phW.s 			page 72


 2425 0cc8 88130000 		.4byte	.LASF184
 2426 0ccc 0E       		.byte	0xe
 2427 0ccd 2F       		.byte	0x2f
 2428 0cce A10C0000 		.4byte	0xca1
 2429 0cd2 0C       		.uleb128 0xc
 2430 0cd3 1C       		.byte	0x1c
 2431 0cd4 0E       		.byte	0xe
 2432 0cd5 34       		.byte	0x34
 2433 0cd6 3D0D0000 		.4byte	0xd3d
 2434 0cda 0D       		.uleb128 0xd
 2435 0cdb 5B0B0000 		.4byte	.LASF185
 2436 0cdf 0E       		.byte	0xe
 2437 0ce0 39       		.byte	0x39
 2438 0ce1 30030000 		.4byte	0x330
 2439 0ce5 02       		.byte	0x2
 2440 0ce6 23       		.byte	0x23
 2441 0ce7 00       		.uleb128 0
 2442 0ce8 0D       		.uleb128 0xd
 2443 0ce9 35030000 		.4byte	.LASF186
 2444 0ced 0E       		.byte	0xe
 2445 0cee 3D       		.byte	0x3d
 2446 0cef 30030000 		.4byte	0x330
 2447 0cf3 02       		.byte	0x2
 2448 0cf4 23       		.byte	0x23
 2449 0cf5 04       		.uleb128 0x4
 2450 0cf6 0D       		.uleb128 0xd
 2451 0cf7 100D0000 		.4byte	.LASF187
 2452 0cfb 0E       		.byte	0xe
 2453 0cfc 48       		.byte	0x48
 2454 0cfd 580D0000 		.4byte	0xd58
 2455 0d01 02       		.byte	0x2
 2456 0d02 23       		.byte	0x23
 2457 0d03 08       		.uleb128 0x8
 2458 0d04 0D       		.uleb128 0xd
 2459 0d05 2B030000 		.4byte	.LASF188
 2460 0d09 0E       		.byte	0xe
 2461 0d0a 4C       		.byte	0x4c
 2462 0d0b 30030000 		.4byte	0x330
 2463 0d0f 02       		.byte	0x2
 2464 0d10 23       		.byte	0x23
 2465 0d11 0C       		.uleb128 0xc
 2466 0d12 0D       		.uleb128 0xd
 2467 0d13 75010000 		.4byte	.LASF189
 2468 0d17 0E       		.byte	0xe
 2469 0d18 50       		.byte	0x50
 2470 0d19 30030000 		.4byte	0x330
 2471 0d1d 02       		.byte	0x2
 2472 0d1e 23       		.byte	0x23
 2473 0d1f 10       		.uleb128 0x10
 2474 0d20 0D       		.uleb128 0xd
 2475 0d21 A4100000 		.4byte	.LASF190
 2476 0d25 0E       		.byte	0xe
 2477 0d26 56       		.byte	0x56
 2478 0d27 6A0D0000 		.4byte	0xd6a
 2479 0d2b 02       		.byte	0x2
 2480 0d2c 23       		.byte	0x23
 2481 0d2d 14       		.uleb128 0x14
ARM GAS  C:\Users\EBANO_~1\AppData\Local\Temp\ccis3phW.s 			page 73


 2482 0d2e 0D       		.uleb128 0xd
 2483 0d2f BC230000 		.4byte	.LASF191
 2484 0d33 0E       		.byte	0xe
 2485 0d34 5D       		.byte	0x5d
 2486 0d35 7C0D0000 		.4byte	0xd7c
 2487 0d39 02       		.byte	0x2
 2488 0d3a 23       		.byte	0x23
 2489 0d3b 18       		.uleb128 0x18
 2490 0d3c 00       		.byte	0
 2491 0d3d 1C       		.uleb128 0x1c
 2492 0d3e 01       		.byte	0x1
 2493 0d3f 580D0000 		.4byte	0xd58
 2494 0d43 15       		.uleb128 0x15
 2495 0d44 B00A0000 		.4byte	0xab0
 2496 0d48 15       		.uleb128 0x15
 2497 0d49 270A0000 		.4byte	0xa27
 2498 0d4d 15       		.uleb128 0x15
 2499 0d4e 1C0A0000 		.4byte	0xa1c
 2500 0d52 15       		.uleb128 0x15
 2501 0d53 010A0000 		.4byte	0xa01
 2502 0d57 00       		.byte	0
 2503 0d58 05       		.uleb128 0x5
 2504 0d59 04       		.byte	0x4
 2505 0d5a 3D0D0000 		.4byte	0xd3d
 2506 0d5e 1C       		.uleb128 0x1c
 2507 0d5f 01       		.byte	0x1
 2508 0d60 6A0D0000 		.4byte	0xd6a
 2509 0d64 15       		.uleb128 0x15
 2510 0d65 0C0A0000 		.4byte	0xa0c
 2511 0d69 00       		.byte	0
 2512 0d6a 05       		.uleb128 0x5
 2513 0d6b 04       		.byte	0x4
 2514 0d6c 5E0D0000 		.4byte	0xd5e
 2515 0d70 1C       		.uleb128 0x1c
 2516 0d71 01       		.byte	0x1
 2517 0d72 7C0D0000 		.4byte	0xd7c
 2518 0d76 15       		.uleb128 0x15
 2519 0d77 410B0000 		.4byte	0xb41
 2520 0d7b 00       		.byte	0
 2521 0d7c 05       		.uleb128 0x5
 2522 0d7d 04       		.byte	0x4
 2523 0d7e 700D0000 		.4byte	0xd70
 2524 0d82 03       		.uleb128 0x3
 2525 0d83 14230000 		.4byte	.LASF192
 2526 0d87 0E       		.byte	0xe
 2527 0d88 5E       		.byte	0x5e
 2528 0d89 D20C0000 		.4byte	0xcd2
 2529 0d8d 10       		.uleb128 0x10
 2530 0d8e DC040000 		.4byte	.LASF193
 2531 0d92 74       		.byte	0x74
 2532 0d93 0E       		.byte	0xe
 2533 0d94 63       		.byte	0x63
 2534 0d95 410F0000 		.4byte	0xf41
 2535 0d99 0D       		.uleb128 0xd
 2536 0d9a ED150000 		.4byte	.LASF194
 2537 0d9e 0E       		.byte	0xe
 2538 0d9f 68       		.byte	0x68
ARM GAS  C:\Users\EBANO_~1\AppData\Local\Temp\ccis3phW.s 			page 74


 2539 0da0 30030000 		.4byte	0x330
 2540 0da4 02       		.byte	0x2
 2541 0da5 23       		.byte	0x23
 2542 0da6 00       		.uleb128 0
 2543 0da7 0D       		.uleb128 0xd
 2544 0da8 C2030000 		.4byte	.LASF195
 2545 0dac 0E       		.byte	0xe
 2546 0dad 6C       		.byte	0x6c
 2547 0dae 30030000 		.4byte	0x330
 2548 0db2 02       		.byte	0x2
 2549 0db3 23       		.byte	0x23
 2550 0db4 04       		.uleb128 0x4
 2551 0db5 0D       		.uleb128 0xd
 2552 0db6 BE200000 		.4byte	.LASF196
 2553 0dba 0E       		.byte	0xe
 2554 0dbb 73       		.byte	0x73
 2555 0dbc 5C0F0000 		.4byte	0xf5c
 2556 0dc0 02       		.byte	0x2
 2557 0dc1 23       		.byte	0x23
 2558 0dc2 08       		.uleb128 0x8
 2559 0dc3 0D       		.uleb128 0xd
 2560 0dc4 1A120000 		.4byte	.LASF197
 2561 0dc8 0E       		.byte	0xe
 2562 0dc9 79       		.byte	0x79
 2563 0dca 680F0000 		.4byte	0xf68
 2564 0dce 02       		.byte	0x2
 2565 0dcf 23       		.byte	0x23
 2566 0dd0 0C       		.uleb128 0xc
 2567 0dd1 0D       		.uleb128 0xd
 2568 0dd2 E20A0000 		.4byte	.LASF198
 2569 0dd6 0E       		.byte	0xe
 2570 0dd7 7F       		.byte	0x7f
 2571 0dd8 7A0F0000 		.4byte	0xf7a
 2572 0ddc 02       		.byte	0x2
 2573 0ddd 23       		.byte	0x23
 2574 0dde 10       		.uleb128 0x10
 2575 0ddf 0D       		.uleb128 0xd
 2576 0de0 EA1B0000 		.4byte	.LASF199
 2577 0de4 0E       		.byte	0xe
 2578 0de5 85       		.byte	0x85
 2579 0de6 8C0F0000 		.4byte	0xf8c
 2580 0dea 02       		.byte	0x2
 2581 0deb 23       		.byte	0x23
 2582 0dec 14       		.uleb128 0x14
 2583 0ded 0D       		.uleb128 0xd
 2584 0dee 221A0000 		.4byte	.LASF200
 2585 0df2 0E       		.byte	0xe
 2586 0df3 90       		.byte	0x90
 2587 0df4 B10F0000 		.4byte	0xfb1
 2588 0df8 02       		.byte	0x2
 2589 0df9 23       		.byte	0x23
 2590 0dfa 18       		.uleb128 0x18
 2591 0dfb 0D       		.uleb128 0xd
 2592 0dfc 750D0000 		.4byte	.LASF201
 2593 0e00 0E       		.byte	0xe
 2594 0e01 9B       		.byte	0x9b
 2595 0e02 BD0F0000 		.4byte	0xfbd
ARM GAS  C:\Users\EBANO_~1\AppData\Local\Temp\ccis3phW.s 			page 75


 2596 0e06 02       		.byte	0x2
 2597 0e07 23       		.byte	0x23
 2598 0e08 1C       		.uleb128 0x1c
 2599 0e09 0D       		.uleb128 0xd
 2600 0e0a E5260000 		.4byte	.LASF202
 2601 0e0e 0E       		.byte	0xe
 2602 0e0f C3       		.byte	0xc3
 2603 0e10 10100000 		.4byte	0x1010
 2604 0e14 02       		.byte	0x2
 2605 0e15 23       		.byte	0x23
 2606 0e16 20       		.uleb128 0x20
 2607 0e17 0D       		.uleb128 0xd
 2608 0e18 24120000 		.4byte	.LASF203
 2609 0e1c 0E       		.byte	0xe
 2610 0e1d ED       		.byte	0xed
 2611 0e1e 5E100000 		.4byte	0x105e
 2612 0e22 02       		.byte	0x2
 2613 0e23 23       		.byte	0x23
 2614 0e24 24       		.uleb128 0x24
 2615 0e25 0D       		.uleb128 0xd
 2616 0e26 A1140000 		.4byte	.LASF204
 2617 0e2a 0E       		.byte	0xe
 2618 0e2b F8       		.byte	0xf8
 2619 0e2c 74100000 		.4byte	0x1074
 2620 0e30 02       		.byte	0x2
 2621 0e31 23       		.byte	0x23
 2622 0e32 28       		.uleb128 0x28
 2623 0e33 17       		.uleb128 0x17
 2624 0e34 46160000 		.4byte	.LASF205
 2625 0e38 0E       		.byte	0xe
 2626 0e39 0301     		.2byte	0x103
 2627 0e3b 8F100000 		.4byte	0x108f
 2628 0e3f 02       		.byte	0x2
 2629 0e40 23       		.byte	0x23
 2630 0e41 2C       		.uleb128 0x2c
 2631 0e42 17       		.uleb128 0x17
 2632 0e43 54220000 		.4byte	.LASF206
 2633 0e47 0E       		.byte	0xe
 2634 0e48 0B01     		.2byte	0x10b
 2635 0e4a A6100000 		.4byte	0x10a6
 2636 0e4e 02       		.byte	0x2
 2637 0e4f 23       		.byte	0x23
 2638 0e50 30       		.uleb128 0x30
 2639 0e51 17       		.uleb128 0x17
 2640 0e52 7C0F0000 		.4byte	.LASF207
 2641 0e56 0E       		.byte	0xe
 2642 0e57 0F01     		.2byte	0x10f
 2643 0e59 30030000 		.4byte	0x330
 2644 0e5d 02       		.byte	0x2
 2645 0e5e 23       		.byte	0x23
 2646 0e5f 34       		.uleb128 0x34
 2647 0e60 17       		.uleb128 0x17
 2648 0e61 E7050000 		.4byte	.LASF208
 2649 0e65 0E       		.byte	0xe
 2650 0e66 1301     		.2byte	0x113
 2651 0e68 30030000 		.4byte	0x330
 2652 0e6c 02       		.byte	0x2
ARM GAS  C:\Users\EBANO_~1\AppData\Local\Temp\ccis3phW.s 			page 76


 2653 0e6d 23       		.byte	0x23
 2654 0e6e 38       		.uleb128 0x38
 2655 0e6f 25       		.uleb128 0x25
 2656 0e70 527800   		.ascii	"Rx\000"
 2657 0e73 0E       		.byte	0xe
 2658 0e74 1901     		.2byte	0x119
 2659 0e76 8C0F0000 		.4byte	0xf8c
 2660 0e7a 02       		.byte	0x2
 2661 0e7b 23       		.byte	0x23
 2662 0e7c 3C       		.uleb128 0x3c
 2663 0e7d 17       		.uleb128 0x17
 2664 0e7e 710C0000 		.4byte	.LASF209
 2665 0e82 0E       		.byte	0xe
 2666 0e83 1D01     		.2byte	0x11d
 2667 0e85 30030000 		.4byte	0x330
 2668 0e89 02       		.byte	0x2
 2669 0e8a 23       		.byte	0x23
 2670 0e8b 40       		.uleb128 0x40
 2671 0e8c 17       		.uleb128 0x17
 2672 0e8d 15190000 		.4byte	.LASF210
 2673 0e91 0E       		.byte	0xe
 2674 0e92 2501     		.2byte	0x125
 2675 0e94 C2100000 		.4byte	0x10c2
 2676 0e98 02       		.byte	0x2
 2677 0e99 23       		.byte	0x23
 2678 0e9a 44       		.uleb128 0x44
 2679 0e9b 17       		.uleb128 0x17
 2680 0e9c FB1F0000 		.4byte	.LASF211
 2681 0ea0 0E       		.byte	0xe
 2682 0ea1 2B01     		.2byte	0x12b
 2683 0ea3 D8100000 		.4byte	0x10d8
 2684 0ea7 02       		.byte	0x2
 2685 0ea8 23       		.byte	0x23
 2686 0ea9 48       		.uleb128 0x48
 2687 0eaa 17       		.uleb128 0x17
 2688 0eab 3A060000 		.4byte	.LASF212
 2689 0eaf 0E       		.byte	0xe
 2690 0eb0 3201     		.2byte	0x132
 2691 0eb2 EF100000 		.4byte	0x10ef
 2692 0eb6 02       		.byte	0x2
 2693 0eb7 23       		.byte	0x23
 2694 0eb8 4C       		.uleb128 0x4c
 2695 0eb9 17       		.uleb128 0x17
 2696 0eba F5060000 		.4byte	.LASF213
 2697 0ebe 0E       		.byte	0xe
 2698 0ebf 3901     		.2byte	0x139
 2699 0ec1 05110000 		.4byte	0x1105
 2700 0ec5 02       		.byte	0x2
 2701 0ec6 23       		.byte	0x23
 2702 0ec7 50       		.uleb128 0x50
 2703 0ec8 17       		.uleb128 0x17
 2704 0ec9 69010000 		.4byte	.LASF214
 2705 0ecd 0E       		.byte	0xe
 2706 0ece 4101     		.2byte	0x141
 2707 0ed0 21110000 		.4byte	0x1121
 2708 0ed4 02       		.byte	0x2
 2709 0ed5 23       		.byte	0x23
ARM GAS  C:\Users\EBANO_~1\AppData\Local\Temp\ccis3phW.s 			page 77


 2710 0ed6 54       		.uleb128 0x54
 2711 0ed7 17       		.uleb128 0x17
 2712 0ed8 D2010000 		.4byte	.LASF215
 2713 0edc 0E       		.byte	0xe
 2714 0edd 4901     		.2byte	0x149
 2715 0edf 21110000 		.4byte	0x1121
 2716 0ee3 02       		.byte	0x2
 2717 0ee4 23       		.byte	0x23
 2718 0ee5 58       		.uleb128 0x58
 2719 0ee6 17       		.uleb128 0x17
 2720 0ee7 83050000 		.4byte	.LASF216
 2721 0eeb 0E       		.byte	0xe
 2722 0eec 5001     		.2byte	0x150
 2723 0eee 38110000 		.4byte	0x1138
 2724 0ef2 02       		.byte	0x2
 2725 0ef3 23       		.byte	0x23
 2726 0ef4 5C       		.uleb128 0x5c
 2727 0ef5 17       		.uleb128 0x17
 2728 0ef6 731A0000 		.4byte	.LASF217
 2729 0efa 0E       		.byte	0xe
 2730 0efb 5801     		.2byte	0x158
 2731 0efd 7C0D0000 		.4byte	0xd7c
 2732 0f01 02       		.byte	0x2
 2733 0f02 23       		.byte	0x23
 2734 0f03 60       		.uleb128 0x60
 2735 0f04 17       		.uleb128 0x17
 2736 0f05 A7240000 		.4byte	.LASF218
 2737 0f09 0E       		.byte	0xe
 2738 0f0a 5E01     		.2byte	0x15e
 2739 0f0c BD0F0000 		.4byte	0xfbd
 2740 0f10 02       		.byte	0x2
 2741 0f11 23       		.byte	0x23
 2742 0f12 64       		.uleb128 0x64
 2743 0f13 17       		.uleb128 0x17
 2744 0f14 F61A0000 		.4byte	.LASF219
 2745 0f18 0E       		.byte	0xe
 2746 0f19 6201     		.2byte	0x162
 2747 0f1b 30030000 		.4byte	0x330
 2748 0f1f 02       		.byte	0x2
 2749 0f20 23       		.byte	0x23
 2750 0f21 68       		.uleb128 0x68
 2751 0f22 17       		.uleb128 0x17
 2752 0f23 90070000 		.4byte	.LASF220
 2753 0f27 0E       		.byte	0xe
 2754 0f28 6E01     		.2byte	0x16e
 2755 0f2a 8C0F0000 		.4byte	0xf8c
 2756 0f2e 02       		.byte	0x2
 2757 0f2f 23       		.byte	0x23
 2758 0f30 6C       		.uleb128 0x6c
 2759 0f31 17       		.uleb128 0x17
 2760 0f32 C30E0000 		.4byte	.LASF221
 2761 0f36 0E       		.byte	0xe
 2762 0f37 7701     		.2byte	0x177
 2763 0f39 4F110000 		.4byte	0x114f
 2764 0f3d 02       		.byte	0x2
 2765 0f3e 23       		.byte	0x23
 2766 0f3f 70       		.uleb128 0x70
ARM GAS  C:\Users\EBANO_~1\AppData\Local\Temp\ccis3phW.s 			page 78


 2767 0f40 00       		.byte	0
 2768 0f41 0F       		.uleb128 0xf
 2769 0f42 8D0D0000 		.4byte	0xd8d
 2770 0f46 14       		.uleb128 0x14
 2771 0f47 01       		.byte	0x1
 2772 0f48 320A0000 		.4byte	0xa32
 2773 0f4c 560F0000 		.4byte	0xf56
 2774 0f50 15       		.uleb128 0x15
 2775 0f51 560F0000 		.4byte	0xf56
 2776 0f55 00       		.byte	0
 2777 0f56 05       		.uleb128 0x5
 2778 0f57 04       		.byte	0x4
 2779 0f58 820D0000 		.4byte	0xd82
 2780 0f5c 05       		.uleb128 0x5
 2781 0f5d 04       		.byte	0x4
 2782 0f5e 460F0000 		.4byte	0xf46
 2783 0f62 26       		.uleb128 0x26
 2784 0f63 01       		.byte	0x1
 2785 0f64 C70C0000 		.4byte	0xcc7
 2786 0f68 05       		.uleb128 0x5
 2787 0f69 04       		.byte	0x4
 2788 0f6a 620F0000 		.4byte	0xf62
 2789 0f6e 1C       		.uleb128 0x1c
 2790 0f6f 01       		.byte	0x1
 2791 0f70 7A0F0000 		.4byte	0xf7a
 2792 0f74 15       		.uleb128 0x15
 2793 0f75 960C0000 		.4byte	0xc96
 2794 0f79 00       		.byte	0
 2795 0f7a 05       		.uleb128 0x5
 2796 0f7b 04       		.byte	0x4
 2797 0f7c 6E0F0000 		.4byte	0xf6e
 2798 0f80 1C       		.uleb128 0x1c
 2799 0f81 01       		.byte	0x1
 2800 0f82 8C0F0000 		.4byte	0xf8c
 2801 0f86 15       		.uleb128 0x15
 2802 0f87 320A0000 		.4byte	0xa32
 2803 0f8b 00       		.byte	0
 2804 0f8c 05       		.uleb128 0x5
 2805 0f8d 04       		.byte	0x4
 2806 0f8e 800F0000 		.4byte	0xf80
 2807 0f92 14       		.uleb128 0x14
 2808 0f93 01       		.byte	0x1
 2809 0f94 410B0000 		.4byte	0xb41
 2810 0f98 B10F0000 		.4byte	0xfb1
 2811 0f9c 15       		.uleb128 0x15
 2812 0f9d 960C0000 		.4byte	0xc96
 2813 0fa1 15       		.uleb128 0x15
 2814 0fa2 320A0000 		.4byte	0xa32
 2815 0fa6 15       		.uleb128 0x15
 2816 0fa7 1C0A0000 		.4byte	0xa1c
 2817 0fab 15       		.uleb128 0x15
 2818 0fac 320A0000 		.4byte	0xa32
 2819 0fb0 00       		.byte	0
 2820 0fb1 05       		.uleb128 0x5
 2821 0fb2 04       		.byte	0x4
 2822 0fb3 920F0000 		.4byte	0xf92
 2823 0fb7 26       		.uleb128 0x26
ARM GAS  C:\Users\EBANO_~1\AppData\Local\Temp\ccis3phW.s 			page 79


 2824 0fb8 01       		.byte	0x1
 2825 0fb9 320A0000 		.4byte	0xa32
 2826 0fbd 05       		.uleb128 0x5
 2827 0fbe 04       		.byte	0x4
 2828 0fbf B70F0000 		.4byte	0xfb7
 2829 0fc3 1C       		.uleb128 0x1c
 2830 0fc4 01       		.byte	0x1
 2831 0fc5 10100000 		.4byte	0x1010
 2832 0fc9 15       		.uleb128 0x15
 2833 0fca 960C0000 		.4byte	0xc96
 2834 0fce 15       		.uleb128 0x15
 2835 0fcf 320A0000 		.4byte	0xa32
 2836 0fd3 15       		.uleb128 0x15
 2837 0fd4 320A0000 		.4byte	0xa32
 2838 0fd8 15       		.uleb128 0x15
 2839 0fd9 0C0A0000 		.4byte	0xa0c
 2840 0fdd 15       		.uleb128 0x15
 2841 0fde 320A0000 		.4byte	0xa32
 2842 0fe2 15       		.uleb128 0x15
 2843 0fe3 270A0000 		.4byte	0xa27
 2844 0fe7 15       		.uleb128 0x15
 2845 0fe8 270A0000 		.4byte	0xa27
 2846 0fec 15       		.uleb128 0x15
 2847 0fed 410B0000 		.4byte	0xb41
 2848 0ff1 15       		.uleb128 0x15
 2849 0ff2 0C0A0000 		.4byte	0xa0c
 2850 0ff6 15       		.uleb128 0x15
 2851 0ff7 410B0000 		.4byte	0xb41
 2852 0ffb 15       		.uleb128 0x15
 2853 0ffc 410B0000 		.4byte	0xb41
 2854 1000 15       		.uleb128 0x15
 2855 1001 0C0A0000 		.4byte	0xa0c
 2856 1005 15       		.uleb128 0x15
 2857 1006 410B0000 		.4byte	0xb41
 2858 100a 15       		.uleb128 0x15
 2859 100b 410B0000 		.4byte	0xb41
 2860 100f 00       		.byte	0
 2861 1010 05       		.uleb128 0x5
 2862 1011 04       		.byte	0x4
 2863 1012 C30F0000 		.4byte	0xfc3
 2864 1016 1C       		.uleb128 0x1c
 2865 1017 01       		.byte	0x1
 2866 1018 5E100000 		.4byte	0x105e
 2867 101c 15       		.uleb128 0x15
 2868 101d 960C0000 		.4byte	0xc96
 2869 1021 15       		.uleb128 0x15
 2870 1022 010A0000 		.4byte	0xa01
 2871 1026 15       		.uleb128 0x15
 2872 1027 320A0000 		.4byte	0xa32
 2873 102b 15       		.uleb128 0x15
 2874 102c 320A0000 		.4byte	0xa32
 2875 1030 15       		.uleb128 0x15
 2876 1031 320A0000 		.4byte	0xa32
 2877 1035 15       		.uleb128 0x15
 2878 1036 0C0A0000 		.4byte	0xa0c
 2879 103a 15       		.uleb128 0x15
 2880 103b 270A0000 		.4byte	0xa27
ARM GAS  C:\Users\EBANO_~1\AppData\Local\Temp\ccis3phW.s 			page 80


 2881 103f 15       		.uleb128 0x15
 2882 1040 410B0000 		.4byte	0xb41
 2883 1044 15       		.uleb128 0x15
 2884 1045 410B0000 		.4byte	0xb41
 2885 1049 15       		.uleb128 0x15
 2886 104a 410B0000 		.4byte	0xb41
 2887 104e 15       		.uleb128 0x15
 2888 104f 0C0A0000 		.4byte	0xa0c
 2889 1053 15       		.uleb128 0x15
 2890 1054 410B0000 		.4byte	0xb41
 2891 1058 15       		.uleb128 0x15
 2892 1059 320A0000 		.4byte	0xa32
 2893 105d 00       		.byte	0
 2894 105e 05       		.uleb128 0x5
 2895 105f 04       		.byte	0x4
 2896 1060 16100000 		.4byte	0x1016
 2897 1064 14       		.uleb128 0x14
 2898 1065 01       		.byte	0x1
 2899 1066 410B0000 		.4byte	0xb41
 2900 106a 74100000 		.4byte	0x1074
 2901 106e 15       		.uleb128 0x15
 2902 106f 320A0000 		.4byte	0xa32
 2903 1073 00       		.byte	0
 2904 1074 05       		.uleb128 0x5
 2905 1075 04       		.byte	0x4
 2906 1076 64100000 		.4byte	0x1064
 2907 107a 14       		.uleb128 0x14
 2908 107b 01       		.byte	0x1
 2909 107c 320A0000 		.4byte	0xa32
 2910 1080 8F100000 		.4byte	0x108f
 2911 1084 15       		.uleb128 0x15
 2912 1085 960C0000 		.4byte	0xc96
 2913 1089 15       		.uleb128 0x15
 2914 108a 0C0A0000 		.4byte	0xa0c
 2915 108e 00       		.byte	0
 2916 108f 05       		.uleb128 0x5
 2917 1090 04       		.byte	0x4
 2918 1091 7A100000 		.4byte	0x107a
 2919 1095 1C       		.uleb128 0x1c
 2920 1096 01       		.byte	0x1
 2921 1097 A6100000 		.4byte	0x10a6
 2922 109b 15       		.uleb128 0x15
 2923 109c B00A0000 		.4byte	0xab0
 2924 10a0 15       		.uleb128 0x15
 2925 10a1 0C0A0000 		.4byte	0xa0c
 2926 10a5 00       		.byte	0
 2927 10a6 05       		.uleb128 0x5
 2928 10a7 04       		.byte	0x4
 2929 10a8 95100000 		.4byte	0x1095
 2930 10ac 1C       		.uleb128 0x1c
 2931 10ad 01       		.byte	0x1
 2932 10ae C2100000 		.4byte	0x10c2
 2933 10b2 15       		.uleb128 0x15
 2934 10b3 320A0000 		.4byte	0xa32
 2935 10b7 15       		.uleb128 0x15
 2936 10b8 010A0000 		.4byte	0xa01
 2937 10bc 15       		.uleb128 0x15
ARM GAS  C:\Users\EBANO_~1\AppData\Local\Temp\ccis3phW.s 			page 81


 2938 10bd 270A0000 		.4byte	0xa27
 2939 10c1 00       		.byte	0
 2940 10c2 05       		.uleb128 0x5
 2941 10c3 04       		.byte	0x4
 2942 10c4 AC100000 		.4byte	0x10ac
 2943 10c8 14       		.uleb128 0x14
 2944 10c9 01       		.byte	0x1
 2945 10ca 1C0A0000 		.4byte	0xa1c
 2946 10ce D8100000 		.4byte	0x10d8
 2947 10d2 15       		.uleb128 0x15
 2948 10d3 960C0000 		.4byte	0xc96
 2949 10d7 00       		.byte	0
 2950 10d8 05       		.uleb128 0x5
 2951 10d9 04       		.byte	0x4
 2952 10da C8100000 		.4byte	0x10c8
 2953 10de 1C       		.uleb128 0x1c
 2954 10df 01       		.byte	0x1
 2955 10e0 EF100000 		.4byte	0x10ef
 2956 10e4 15       		.uleb128 0x15
 2957 10e5 270A0000 		.4byte	0xa27
 2958 10e9 15       		.uleb128 0x15
 2959 10ea 0C0A0000 		.4byte	0xa0c
 2960 10ee 00       		.byte	0
 2961 10ef 05       		.uleb128 0x5
 2962 10f0 04       		.byte	0x4
 2963 10f1 DE100000 		.4byte	0x10de
 2964 10f5 14       		.uleb128 0x14
 2965 10f6 01       		.byte	0x1
 2966 10f7 0C0A0000 		.4byte	0xa0c
 2967 10fb 05110000 		.4byte	0x1105
 2968 10ff 15       		.uleb128 0x15
 2969 1100 270A0000 		.4byte	0xa27
 2970 1104 00       		.byte	0
 2971 1105 05       		.uleb128 0x5
 2972 1106 04       		.byte	0x4
 2973 1107 F5100000 		.4byte	0x10f5
 2974 110b 1C       		.uleb128 0x1c
 2975 110c 01       		.byte	0x1
 2976 110d 21110000 		.4byte	0x1121
 2977 1111 15       		.uleb128 0x15
 2978 1112 270A0000 		.4byte	0xa27
 2979 1116 15       		.uleb128 0x15
 2980 1117 B00A0000 		.4byte	0xab0
 2981 111b 15       		.uleb128 0x15
 2982 111c 0C0A0000 		.4byte	0xa0c
 2983 1120 00       		.byte	0
 2984 1121 05       		.uleb128 0x5
 2985 1122 04       		.byte	0x4
 2986 1123 0B110000 		.4byte	0x110b
 2987 1127 1C       		.uleb128 0x1c
 2988 1128 01       		.byte	0x1
 2989 1129 38110000 		.4byte	0x1138
 2990 112d 15       		.uleb128 0x15
 2991 112e 960C0000 		.4byte	0xc96
 2992 1132 15       		.uleb128 0x15
 2993 1133 0C0A0000 		.4byte	0xa0c
 2994 1137 00       		.byte	0
ARM GAS  C:\Users\EBANO_~1\AppData\Local\Temp\ccis3phW.s 			page 82


 2995 1138 05       		.uleb128 0x5
 2996 1139 04       		.byte	0x4
 2997 113a 27110000 		.4byte	0x1127
 2998 113e 1C       		.uleb128 0x1c
 2999 113f 01       		.byte	0x1
 3000 1140 4F110000 		.4byte	0x114f
 3001 1144 15       		.uleb128 0x15
 3002 1145 320A0000 		.4byte	0xa32
 3003 1149 15       		.uleb128 0x15
 3004 114a 320A0000 		.4byte	0xa32
 3005 114e 00       		.byte	0
 3006 114f 05       		.uleb128 0x5
 3007 1150 04       		.byte	0x4
 3008 1151 3E110000 		.4byte	0x113e
 3009 1155 1D       		.uleb128 0x1d
 3010 1156 B40B0000 		.4byte	.LASF222
 3011 115a 0E       		.byte	0xe
 3012 115b 8001     		.2byte	0x180
 3013 115d 410F0000 		.4byte	0xf41
 3014 1161 01       		.byte	0x1
 3015 1162 01       		.byte	0x1
 3016 1163 23       		.uleb128 0x23
 3017 1164 2D240000 		.4byte	.LASF223
 3018 1168 07       		.byte	0x7
 3019 1169 01       		.byte	0x1
 3020 116a 6D000000 		.4byte	0x6d
 3021 116e 0F       		.byte	0xf
 3022 116f 7E       		.byte	0x7e
 3023 1170 87110000 		.4byte	0x1187
 3024 1174 20       		.uleb128 0x20
 3025 1175 59120000 		.4byte	.LASF224
 3026 1179 00       		.byte	0
 3027 117a 20       		.uleb128 0x20
 3028 117b 61120000 		.4byte	.LASF225
 3029 117f 01       		.byte	0x1
 3030 1180 20       		.uleb128 0x20
 3031 1181 69120000 		.4byte	.LASF226
 3032 1185 02       		.byte	0x2
 3033 1186 00       		.byte	0
 3034 1187 03       		.uleb128 0x3
 3035 1188 5A250000 		.4byte	.LASF227
 3036 118c 0F       		.byte	0xf
 3037 118d 92       		.byte	0x92
 3038 118e 63110000 		.4byte	0x1163
 3039 1192 23       		.uleb128 0x23
 3040 1193 970D0000 		.4byte	.LASF228
 3041 1197 07       		.byte	0x7
 3042 1198 01       		.byte	0x1
 3043 1199 6D000000 		.4byte	0x6d
 3044 119d 0F       		.byte	0xf
 3045 119e 97       		.byte	0x97
 3046 119f B6110000 		.4byte	0x11b6
 3047 11a3 20       		.uleb128 0x20
 3048 11a4 04030000 		.4byte	.LASF229
 3049 11a8 00       		.byte	0
 3050 11a9 20       		.uleb128 0x20
 3051 11aa 6F140000 		.4byte	.LASF230
ARM GAS  C:\Users\EBANO_~1\AppData\Local\Temp\ccis3phW.s 			page 83


 3052 11ae 01       		.byte	0x1
 3053 11af 20       		.uleb128 0x20
 3054 11b0 33200000 		.4byte	.LASF231
 3055 11b4 02       		.byte	0x2
 3056 11b5 00       		.byte	0
 3057 11b6 03       		.uleb128 0x3
 3058 11b7 7D220000 		.4byte	.LASF232
 3059 11bb 0F       		.byte	0xf
 3060 11bc A5       		.byte	0xa5
 3061 11bd 92110000 		.4byte	0x1192
 3062 11c1 10       		.uleb128 0x10
 3063 11c2 9F240000 		.4byte	.LASF233
 3064 11c6 01       		.byte	0x1
 3065 11c7 0F       		.byte	0xf
 3066 11c8 B4       		.byte	0xb4
 3067 11c9 F0110000 		.4byte	0x11f0
 3068 11cd 27       		.uleb128 0x27
 3069 11ce 4D696E00 		.ascii	"Min\000"
 3070 11d2 0F       		.byte	0xf
 3071 11d3 BD       		.byte	0xbd
 3072 11d4 010A0000 		.4byte	0xa01
 3073 11d8 01       		.byte	0x1
 3074 11d9 04       		.byte	0x4
 3075 11da 04       		.byte	0x4
 3076 11db 02       		.byte	0x2
 3077 11dc 23       		.byte	0x23
 3078 11dd 00       		.uleb128 0
 3079 11de 27       		.uleb128 0x27
 3080 11df 4D617800 		.ascii	"Max\000"
 3081 11e3 0F       		.byte	0xf
 3082 11e4 C5       		.byte	0xc5
 3083 11e5 010A0000 		.4byte	0xa01
 3084 11e9 01       		.byte	0x1
 3085 11ea 04       		.byte	0x4
 3086 11eb 00       		.byte	0
 3087 11ec 02       		.byte	0x2
 3088 11ed 23       		.byte	0x23
 3089 11ee 00       		.uleb128 0
 3090 11ef 00       		.byte	0
 3091 11f0 22       		.uleb128 0x22
 3092 11f1 770B0000 		.4byte	.LASF235
 3093 11f5 01       		.byte	0x1
 3094 11f6 0F       		.byte	0xf
 3095 11f7 AB       		.byte	0xab
 3096 11f8 13120000 		.4byte	0x1213
 3097 11fc 09       		.uleb128 0x9
 3098 11fd 33260000 		.4byte	.LASF150
 3099 1201 0F       		.byte	0xf
 3100 1202 B0       		.byte	0xb0
 3101 1203 010A0000 		.4byte	0xa01
 3102 1207 09       		.uleb128 0x9
 3103 1208 30140000 		.4byte	.LASF149
 3104 120c 0F       		.byte	0xf
 3105 120d C6       		.byte	0xc6
 3106 120e C1110000 		.4byte	0x11c1
 3107 1212 00       		.byte	0
 3108 1213 03       		.uleb128 0x3
ARM GAS  C:\Users\EBANO_~1\AppData\Local\Temp\ccis3phW.s 			page 84


 3109 1214 68090000 		.4byte	.LASF236
 3110 1218 0F       		.byte	0xf
 3111 1219 C7       		.byte	0xc7
 3112 121a F0110000 		.4byte	0x11f0
 3113 121e 10       		.uleb128 0x10
 3114 121f 831D0000 		.4byte	.LASF237
 3115 1223 0C       		.byte	0xc
 3116 1224 0F       		.byte	0xf
 3117 1225 CC       		.byte	0xcc
 3118 1226 63120000 		.4byte	0x1263
 3119 122a 0D       		.uleb128 0xd
 3120 122b 41210000 		.4byte	.LASF166
 3121 122f 0F       		.byte	0xf
 3122 1230 D1       		.byte	0xd1
 3123 1231 320A0000 		.4byte	0xa32
 3124 1235 02       		.byte	0x2
 3125 1236 23       		.byte	0x23
 3126 1237 00       		.uleb128 0
 3127 1238 0D       		.uleb128 0xd
 3128 1239 D0140000 		.4byte	.LASF238
 3129 123d 0F       		.byte	0xf
 3130 123e D5       		.byte	0xd5
 3131 123f 320A0000 		.4byte	0xa32
 3132 1243 02       		.byte	0x2
 3133 1244 23       		.byte	0x23
 3134 1245 04       		.uleb128 0x4
 3135 1246 0D       		.uleb128 0xd
 3136 1247 88070000 		.4byte	.LASF239
 3137 124b 0F       		.byte	0xf
 3138 124c D9       		.byte	0xd9
 3139 124d 13120000 		.4byte	0x1213
 3140 1251 02       		.byte	0x2
 3141 1252 23       		.byte	0x23
 3142 1253 08       		.uleb128 0x8
 3143 1254 0D       		.uleb128 0xd
 3144 1255 8B0B0000 		.4byte	.LASF240
 3145 1259 0F       		.byte	0xf
 3146 125a DD       		.byte	0xdd
 3147 125b 0C0A0000 		.4byte	0xa0c
 3148 125f 02       		.byte	0x2
 3149 1260 23       		.byte	0x23
 3150 1261 09       		.uleb128 0x9
 3151 1262 00       		.byte	0
 3152 1263 03       		.uleb128 0x3
 3153 1264 3D120000 		.4byte	.LASF241
 3154 1268 0F       		.byte	0xf
 3155 1269 DE       		.byte	0xde
 3156 126a 1E120000 		.4byte	0x121e
 3157 126e 10       		.uleb128 0x10
 3158 126f 2C090000 		.4byte	.LASF242
 3159 1273 08       		.byte	0x8
 3160 1274 0F       		.byte	0xf
 3161 1275 E3       		.byte	0xe3
 3162 1276 97120000 		.4byte	0x1297
 3163 127a 0D       		.uleb128 0xd
 3164 127b 41210000 		.4byte	.LASF166
 3165 127f 0F       		.byte	0xf
ARM GAS  C:\Users\EBANO_~1\AppData\Local\Temp\ccis3phW.s 			page 85


 3166 1280 E8       		.byte	0xe8
 3167 1281 320A0000 		.4byte	0xa32
 3168 1285 02       		.byte	0x2
 3169 1286 23       		.byte	0x23
 3170 1287 00       		.uleb128 0
 3171 1288 0D       		.uleb128 0xd
 3172 1289 74220000 		.4byte	.LASF167
 3173 128d 0F       		.byte	0xf
 3174 128e F0       		.byte	0xf0
 3175 128f 0C0A0000 		.4byte	0xa0c
 3176 1293 02       		.byte	0x2
 3177 1294 23       		.byte	0x23
 3178 1295 04       		.uleb128 0x4
 3179 1296 00       		.byte	0
 3180 1297 03       		.uleb128 0x3
 3181 1298 5D0F0000 		.4byte	.LASF243
 3182 129c 0F       		.byte	0xf
 3183 129d F1       		.byte	0xf1
 3184 129e 6E120000 		.4byte	0x126e
 3185 12a2 23       		.uleb128 0x23
 3186 12a3 400E0000 		.4byte	.LASF244
 3187 12a7 07       		.byte	0x7
 3188 12a8 01       		.byte	0x1
 3189 12a9 6D000000 		.4byte	0x6d
 3190 12ad 0F       		.byte	0xf
 3191 12ae F6       		.byte	0xf6
 3192 12af D2120000 		.4byte	0x12d2
 3193 12b3 20       		.uleb128 0x20
 3194 12b4 371D0000 		.4byte	.LASF245
 3195 12b8 00       		.byte	0
 3196 12b9 20       		.uleb128 0x20
 3197 12ba 451D0000 		.4byte	.LASF246
 3198 12be 01       		.byte	0x1
 3199 12bf 20       		.uleb128 0x20
 3200 12c0 09000000 		.4byte	.LASF247
 3201 12c4 02       		.byte	0x2
 3202 12c5 20       		.uleb128 0x20
 3203 12c6 01250000 		.4byte	.LASF248
 3204 12ca 03       		.byte	0x3
 3205 12cb 20       		.uleb128 0x20
 3206 12cc A80E0000 		.4byte	.LASF249
 3207 12d0 04       		.byte	0x4
 3208 12d1 00       		.byte	0
 3209 12d2 07       		.uleb128 0x7
 3210 12d3 2D110000 		.4byte	.LASF250
 3211 12d7 0F       		.byte	0xf
 3212 12d8 0C01     		.2byte	0x10c
 3213 12da A2120000 		.4byte	0x12a2
 3214 12de 18       		.uleb128 0x18
 3215 12df A5170000 		.4byte	.LASF251
 3216 12e3 40       		.byte	0x40
 3217 12e4 0F       		.byte	0xf
 3218 12e5 1101     		.2byte	0x111
 3219 12e7 DC130000 		.4byte	0x13dc
 3220 12eb 17       		.uleb128 0x17
 3221 12ec E4060000 		.4byte	.LASF252
 3222 12f0 0F       		.byte	0xf
ARM GAS  C:\Users\EBANO_~1\AppData\Local\Temp\ccis3phW.s 			page 86


 3223 12f1 1601     		.2byte	0x116
 3224 12f3 5B010000 		.4byte	0x15b
 3225 12f7 02       		.byte	0x2
 3226 12f8 23       		.byte	0x23
 3227 12f9 00       		.uleb128 0
 3228 12fa 17       		.uleb128 0x17
 3229 12fb F11E0000 		.4byte	.LASF253
 3230 12ff 0F       		.byte	0xf
 3231 1300 1A01     		.2byte	0x11a
 3232 1302 30000000 		.4byte	0x30
 3233 1306 02       		.byte	0x2
 3234 1307 23       		.byte	0x23
 3235 1308 04       		.uleb128 0x4
 3236 1309 17       		.uleb128 0x17
 3237 130a 37100000 		.4byte	.LASF254
 3238 130e 0F       		.byte	0xf
 3239 130f 1E01     		.2byte	0x11e
 3240 1311 5B010000 		.4byte	0x15b
 3241 1315 02       		.byte	0x2
 3242 1316 23       		.byte	0x23
 3243 1317 08       		.uleb128 0x8
 3244 1318 17       		.uleb128 0x17
 3245 1319 9C180000 		.4byte	.LASF255
 3246 131d 0F       		.byte	0xf
 3247 131e 2201     		.2byte	0x122
 3248 1320 30000000 		.4byte	0x30
 3249 1324 02       		.byte	0x2
 3250 1325 23       		.byte	0x23
 3251 1326 0C       		.uleb128 0xc
 3252 1327 17       		.uleb128 0x17
 3253 1328 F91C0000 		.4byte	.LASF256
 3254 132c 0F       		.byte	0xf
 3255 132d 2601     		.2byte	0x126
 3256 132f 5B010000 		.4byte	0x15b
 3257 1333 02       		.byte	0x2
 3258 1334 23       		.byte	0x23
 3259 1335 10       		.uleb128 0x10
 3260 1336 17       		.uleb128 0x17
 3261 1337 BF190000 		.4byte	.LASF257
 3262 133b 0F       		.byte	0xf
 3263 133c 2A01     		.2byte	0x12a
 3264 133e 30000000 		.4byte	0x30
 3265 1342 02       		.byte	0x2
 3266 1343 23       		.byte	0x23
 3267 1344 14       		.uleb128 0x14
 3268 1345 17       		.uleb128 0x17
 3269 1346 60110000 		.4byte	.LASF258
 3270 134a 0F       		.byte	0xf
 3271 134b 2E01     		.2byte	0x12e
 3272 134d 5B010000 		.4byte	0x15b
 3273 1351 02       		.byte	0x2
 3274 1352 23       		.byte	0x23
 3275 1353 18       		.uleb128 0x18
 3276 1354 17       		.uleb128 0x17
 3277 1355 441C0000 		.4byte	.LASF259
 3278 1359 0F       		.byte	0xf
 3279 135a 3201     		.2byte	0x132
ARM GAS  C:\Users\EBANO_~1\AppData\Local\Temp\ccis3phW.s 			page 87


 3280 135c 30000000 		.4byte	0x30
 3281 1360 02       		.byte	0x2
 3282 1361 23       		.byte	0x23
 3283 1362 1C       		.uleb128 0x1c
 3284 1363 17       		.uleb128 0x17
 3285 1364 F5140000 		.4byte	.LASF260
 3286 1368 0F       		.byte	0xf
 3287 1369 3601     		.2byte	0x136
 3288 136b 5B010000 		.4byte	0x15b
 3289 136f 02       		.byte	0x2
 3290 1370 23       		.byte	0x23
 3291 1371 20       		.uleb128 0x20
 3292 1372 17       		.uleb128 0x17
 3293 1373 FB250000 		.4byte	.LASF261
 3294 1377 0F       		.byte	0xf
 3295 1378 3A01     		.2byte	0x13a
 3296 137a 30000000 		.4byte	0x30
 3297 137e 02       		.byte	0x2
 3298 137f 23       		.byte	0x23
 3299 1380 24       		.uleb128 0x24
 3300 1381 17       		.uleb128 0x17
 3301 1382 8B210000 		.4byte	.LASF262
 3302 1386 0F       		.byte	0xf
 3303 1387 3E01     		.2byte	0x13e
 3304 1389 5B010000 		.4byte	0x15b
 3305 138d 02       		.byte	0x2
 3306 138e 23       		.byte	0x23
 3307 138f 28       		.uleb128 0x28
 3308 1390 17       		.uleb128 0x17
 3309 1391 22200000 		.4byte	.LASF263
 3310 1395 0F       		.byte	0xf
 3311 1396 4201     		.2byte	0x142
 3312 1398 30000000 		.4byte	0x30
 3313 139c 02       		.byte	0x2
 3314 139d 23       		.byte	0x23
 3315 139e 2C       		.uleb128 0x2c
 3316 139f 17       		.uleb128 0x17
 3317 13a0 66190000 		.4byte	.LASF264
 3318 13a4 0F       		.byte	0xf
 3319 13a5 4601     		.2byte	0x146
 3320 13a7 5B010000 		.4byte	0x15b
 3321 13ab 02       		.byte	0x2
 3322 13ac 23       		.byte	0x23
 3323 13ad 30       		.uleb128 0x30
 3324 13ae 17       		.uleb128 0x17
 3325 13af 88240000 		.4byte	.LASF265
 3326 13b3 0F       		.byte	0xf
 3327 13b4 4A01     		.2byte	0x14a
 3328 13b6 30000000 		.4byte	0x30
 3329 13ba 02       		.byte	0x2
 3330 13bb 23       		.byte	0x23
 3331 13bc 34       		.uleb128 0x34
 3332 13bd 17       		.uleb128 0x17
 3333 13be 321E0000 		.4byte	.LASF266
 3334 13c2 0F       		.byte	0xf
 3335 13c3 4E01     		.2byte	0x14e
 3336 13c5 5B010000 		.4byte	0x15b
ARM GAS  C:\Users\EBANO_~1\AppData\Local\Temp\ccis3phW.s 			page 88


 3337 13c9 02       		.byte	0x2
 3338 13ca 23       		.byte	0x23
 3339 13cb 38       		.uleb128 0x38
 3340 13cc 17       		.uleb128 0x17
 3341 13cd FE220000 		.4byte	.LASF267
 3342 13d1 0F       		.byte	0xf
 3343 13d2 5201     		.2byte	0x152
 3344 13d4 30000000 		.4byte	0x30
 3345 13d8 02       		.byte	0x2
 3346 13d9 23       		.byte	0x23
 3347 13da 3C       		.uleb128 0x3c
 3348 13db 00       		.byte	0
 3349 13dc 07       		.uleb128 0x7
 3350 13dd B4030000 		.4byte	.LASF268
 3351 13e1 0F       		.byte	0xf
 3352 13e2 5301     		.2byte	0x153
 3353 13e4 DE120000 		.4byte	0x12de
 3354 13e8 18       		.uleb128 0x18
 3355 13e9 AB160000 		.4byte	.LASF269
 3356 13ed 3C       		.byte	0x3c
 3357 13ee 0F       		.byte	0xf
 3358 13ef 5801     		.2byte	0x158
 3359 13f1 F5140000 		.4byte	0x14f5
 3360 13f5 17       		.uleb128 0x17
 3361 13f6 DA1B0000 		.4byte	.LASF270
 3362 13fa 0F       		.byte	0xf
 3363 13fb 5D01     		.2byte	0x15d
 3364 13fd 010A0000 		.4byte	0xa01
 3365 1401 02       		.byte	0x2
 3366 1402 23       		.byte	0x23
 3367 1403 00       		.uleb128 0
 3368 1404 17       		.uleb128 0x17
 3369 1405 39070000 		.4byte	.LASF271
 3370 1409 0F       		.byte	0xf
 3371 140a 6101     		.2byte	0x161
 3372 140c 010A0000 		.4byte	0xa01
 3373 1410 02       		.byte	0x2
 3374 1411 23       		.byte	0x23
 3375 1412 01       		.uleb128 0x1
 3376 1413 17       		.uleb128 0x17
 3377 1414 90140000 		.4byte	.LASF272
 3378 1418 0F       		.byte	0xf
 3379 1419 6701     		.2byte	0x167
 3380 141b 320A0000 		.4byte	0xa32
 3381 141f 02       		.byte	0x2
 3382 1420 23       		.byte	0x23
 3383 1421 04       		.uleb128 0x4
 3384 1422 17       		.uleb128 0x17
 3385 1423 30120000 		.4byte	.LASF273
 3386 1427 0F       		.byte	0xf
 3387 1428 6C01     		.2byte	0x16c
 3388 142a 0C0A0000 		.4byte	0xa0c
 3389 142e 02       		.byte	0x2
 3390 142f 23       		.byte	0x23
 3391 1430 08       		.uleb128 0x8
 3392 1431 17       		.uleb128 0x17
 3393 1432 94150000 		.4byte	.LASF274
ARM GAS  C:\Users\EBANO_~1\AppData\Local\Temp\ccis3phW.s 			page 89


 3394 1436 0F       		.byte	0xf
 3395 1437 7001     		.2byte	0x170
 3396 1439 320A0000 		.4byte	0xa32
 3397 143d 02       		.byte	0x2
 3398 143e 23       		.byte	0x23
 3399 143f 0C       		.uleb128 0xc
 3400 1440 17       		.uleb128 0x17
 3401 1441 BE1B0000 		.4byte	.LASF275
 3402 1445 0F       		.byte	0xf
 3403 1446 7401     		.2byte	0x174
 3404 1448 320A0000 		.4byte	0xa32
 3405 144c 02       		.byte	0x2
 3406 144d 23       		.byte	0x23
 3407 144e 10       		.uleb128 0x10
 3408 144f 17       		.uleb128 0x17
 3409 1450 CC1B0000 		.4byte	.LASF276
 3410 1454 0F       		.byte	0xf
 3411 1455 7801     		.2byte	0x178
 3412 1457 320A0000 		.4byte	0xa32
 3413 145b 02       		.byte	0x2
 3414 145c 23       		.byte	0x23
 3415 145d 14       		.uleb128 0x14
 3416 145e 17       		.uleb128 0x17
 3417 145f E0170000 		.4byte	.LASF277
 3418 1463 0F       		.byte	0xf
 3419 1464 7C01     		.2byte	0x17c
 3420 1466 320A0000 		.4byte	0xa32
 3421 146a 02       		.byte	0x2
 3422 146b 23       		.byte	0x23
 3423 146c 18       		.uleb128 0x18
 3424 146d 17       		.uleb128 0x17
 3425 146e F1170000 		.4byte	.LASF278
 3426 1472 0F       		.byte	0xf
 3427 1473 8001     		.2byte	0x180
 3428 1475 320A0000 		.4byte	0xa32
 3429 1479 02       		.byte	0x2
 3430 147a 23       		.byte	0x23
 3431 147b 1C       		.uleb128 0x1c
 3432 147c 17       		.uleb128 0x17
 3433 147d B70F0000 		.4byte	.LASF279
 3434 1481 0F       		.byte	0xf
 3435 1482 8401     		.2byte	0x184
 3436 1484 0C0A0000 		.4byte	0xa0c
 3437 1488 02       		.byte	0x2
 3438 1489 23       		.byte	0x23
 3439 148a 20       		.uleb128 0x20
 3440 148b 17       		.uleb128 0x17
 3441 148c DD140000 		.4byte	.LASF280
 3442 1490 0F       		.byte	0xf
 3443 1491 8801     		.2byte	0x188
 3444 1493 0C0A0000 		.4byte	0xa0c
 3445 1497 02       		.byte	0x2
 3446 1498 23       		.byte	0x23
 3447 1499 21       		.uleb128 0x21
 3448 149a 17       		.uleb128 0x17
 3449 149b 69220000 		.4byte	.LASF281
 3450 149f 0F       		.byte	0xf
ARM GAS  C:\Users\EBANO_~1\AppData\Local\Temp\ccis3phW.s 			page 90


 3451 14a0 8C01     		.2byte	0x18c
 3452 14a2 97120000 		.4byte	0x1297
 3453 14a6 02       		.byte	0x2
 3454 14a7 23       		.byte	0x23
 3455 14a8 24       		.uleb128 0x24
 3456 14a9 17       		.uleb128 0x17
 3457 14aa 711E0000 		.4byte	.LASF282
 3458 14ae 0F       		.byte	0xf
 3459 14af 9001     		.2byte	0x190
 3460 14b1 0C0A0000 		.4byte	0xa0c
 3461 14b5 02       		.byte	0x2
 3462 14b6 23       		.byte	0x23
 3463 14b7 2C       		.uleb128 0x2c
 3464 14b8 17       		.uleb128 0x17
 3465 14b9 34160000 		.4byte	.LASF283
 3466 14bd 0F       		.byte	0xf
 3467 14be 9401     		.2byte	0x194
 3468 14c0 0C0A0000 		.4byte	0xa0c
 3469 14c4 02       		.byte	0x2
 3470 14c5 23       		.byte	0x23
 3471 14c6 2D       		.uleb128 0x2d
 3472 14c7 17       		.uleb128 0x17
 3473 14c8 DA0A0000 		.4byte	.LASF284
 3474 14cc 0F       		.byte	0xf
 3475 14cd 9801     		.2byte	0x198
 3476 14cf BA090000 		.4byte	0x9ba
 3477 14d3 02       		.byte	0x2
 3478 14d4 23       		.byte	0x23
 3479 14d5 30       		.uleb128 0x30
 3480 14d6 17       		.uleb128 0x17
 3481 14d7 84160000 		.4byte	.LASF285
 3482 14db 0F       		.byte	0xf
 3483 14dc 9C01     		.2byte	0x19c
 3484 14de BA090000 		.4byte	0x9ba
 3485 14e2 02       		.byte	0x2
 3486 14e3 23       		.byte	0x23
 3487 14e4 34       		.uleb128 0x34
 3488 14e5 17       		.uleb128 0x17
 3489 14e6 6C0E0000 		.4byte	.LASF286
 3490 14ea 0F       		.byte	0xf
 3491 14eb A001     		.2byte	0x1a0
 3492 14ed 410B0000 		.4byte	0xb41
 3493 14f1 02       		.byte	0x2
 3494 14f2 23       		.byte	0x23
 3495 14f3 38       		.uleb128 0x38
 3496 14f4 00       		.byte	0
 3497 14f5 07       		.uleb128 0x7
 3498 14f6 1F130000 		.4byte	.LASF287
 3499 14fa 0F       		.byte	0xf
 3500 14fb A101     		.2byte	0x1a1
 3501 14fd E8130000 		.4byte	0x13e8
 3502 1501 18       		.uleb128 0x18
 3503 1502 AE000000 		.4byte	.LASF288
 3504 1506 14       		.byte	0x14
 3505 1507 0F       		.byte	0xf
 3506 1508 A601     		.2byte	0x1a6
 3507 150a 69150000 		.4byte	0x1569
ARM GAS  C:\Users\EBANO_~1\AppData\Local\Temp\ccis3phW.s 			page 91


 3508 150e 17       		.uleb128 0x17
 3509 150f 78090000 		.4byte	.LASF162
 3510 1513 0F       		.byte	0xf
 3511 1514 AB01     		.2byte	0x1ab
 3512 1516 780B0000 		.4byte	0xb78
 3513 151a 02       		.byte	0x2
 3514 151b 23       		.byte	0x23
 3515 151c 00       		.uleb128 0
 3516 151d 17       		.uleb128 0x17
 3517 151e 98210000 		.4byte	.LASF163
 3518 1522 0F       		.byte	0xf
 3519 1523 AF01     		.2byte	0x1af
 3520 1525 320A0000 		.4byte	0xa32
 3521 1529 02       		.byte	0x2
 3522 152a 23       		.byte	0x23
 3523 152b 04       		.uleb128 0x4
 3524 152c 17       		.uleb128 0x17
 3525 152d 65240000 		.4byte	.LASF165
 3526 1531 0F       		.byte	0xf
 3527 1532 B301     		.2byte	0x1b3
 3528 1534 410B0000 		.4byte	0xb41
 3529 1538 02       		.byte	0x2
 3530 1539 23       		.byte	0x23
 3531 153a 08       		.uleb128 0x8
 3532 153b 17       		.uleb128 0x17
 3533 153c 41210000 		.4byte	.LASF166
 3534 1540 0F       		.byte	0xf
 3535 1541 B701     		.2byte	0x1b7
 3536 1543 320A0000 		.4byte	0xa32
 3537 1547 02       		.byte	0x2
 3538 1548 23       		.byte	0x23
 3539 1549 0C       		.uleb128 0xc
 3540 154a 17       		.uleb128 0x17
 3541 154b 74220000 		.4byte	.LASF167
 3542 154f 0F       		.byte	0xf
 3543 1550 BB01     		.2byte	0x1bb
 3544 1552 010A0000 		.4byte	0xa01
 3545 1556 02       		.byte	0x2
 3546 1557 23       		.byte	0x23
 3547 1558 10       		.uleb128 0x10
 3548 1559 17       		.uleb128 0x17
 3549 155a 880C0000 		.4byte	.LASF168
 3550 155e 0F       		.byte	0xf
 3551 155f C001     		.2byte	0x1c0
 3552 1561 270A0000 		.4byte	0xa27
 3553 1565 02       		.byte	0x2
 3554 1566 23       		.byte	0x23
 3555 1567 12       		.uleb128 0x12
 3556 1568 00       		.byte	0
 3557 1569 07       		.uleb128 0x7
 3558 156a 70100000 		.4byte	.LASF289
 3559 156e 0F       		.byte	0xf
 3560 156f C101     		.2byte	0x1c1
 3561 1571 01150000 		.4byte	0x1501
 3562 1575 18       		.uleb128 0x18
 3563 1576 92100000 		.4byte	.LASF290
 3564 157a 07       		.byte	0x7
ARM GAS  C:\Users\EBANO_~1\AppData\Local\Temp\ccis3phW.s 			page 92


 3565 157b 0F       		.byte	0xf
 3566 157c FF01     		.2byte	0x1ff
 3567 157e A1150000 		.4byte	0x15a1
 3568 1582 17       		.uleb128 0x17
 3569 1583 2E1D0000 		.4byte	.LASF291
 3570 1587 0F       		.byte	0xf
 3571 1588 0402     		.2byte	0x204
 3572 158a 0C0A0000 		.4byte	0xa0c
 3573 158e 02       		.byte	0x2
 3574 158f 23       		.byte	0x23
 3575 1590 00       		.uleb128 0
 3576 1591 17       		.uleb128 0x17
 3577 1592 1F1F0000 		.4byte	.LASF292
 3578 1596 0F       		.byte	0xf
 3579 1597 0802     		.2byte	0x208
 3580 1599 A1150000 		.4byte	0x15a1
 3581 159d 02       		.byte	0x2
 3582 159e 23       		.byte	0x23
 3583 159f 01       		.uleb128 0x1
 3584 15a0 00       		.byte	0
 3585 15a1 0A       		.uleb128 0xa
 3586 15a2 0C0A0000 		.4byte	0xa0c
 3587 15a6 B1150000 		.4byte	0x15b1
 3588 15aa 0B       		.uleb128 0xb
 3589 15ab 3B000000 		.4byte	0x3b
 3590 15af 05       		.byte	0x5
 3591 15b0 00       		.byte	0
 3592 15b1 18       		.uleb128 0x18
 3593 15b2 691F0000 		.4byte	.LASF293
 3594 15b6 14       		.byte	0x14
 3595 15b7 0F       		.byte	0xf
 3596 15b8 E401     		.2byte	0x1e4
 3597 15ba 19160000 		.4byte	0x1619
 3598 15be 17       		.uleb128 0x17
 3599 15bf 951C0000 		.4byte	.LASF294
 3600 15c3 0F       		.byte	0xf
 3601 15c4 EA01     		.2byte	0x1ea
 3602 15c6 320A0000 		.4byte	0xa32
 3603 15ca 02       		.byte	0x2
 3604 15cb 23       		.byte	0x23
 3605 15cc 00       		.uleb128 0
 3606 15cd 17       		.uleb128 0x17
 3607 15ce 41210000 		.4byte	.LASF166
 3608 15d2 0F       		.byte	0xf
 3609 15d3 EE01     		.2byte	0x1ee
 3610 15d5 320A0000 		.4byte	0xa32
 3611 15d9 02       		.byte	0x2
 3612 15da 23       		.byte	0x23
 3613 15db 04       		.uleb128 0x4
 3614 15dc 17       		.uleb128 0x17
 3615 15dd 74220000 		.4byte	.LASF167
 3616 15e1 0F       		.byte	0xf
 3617 15e2 F201     		.2byte	0x1f2
 3618 15e4 0C0A0000 		.4byte	0xa0c
 3619 15e8 02       		.byte	0x2
 3620 15e9 23       		.byte	0x23
 3621 15ea 08       		.uleb128 0x8
ARM GAS  C:\Users\EBANO_~1\AppData\Local\Temp\ccis3phW.s 			page 93


 3622 15eb 17       		.uleb128 0x17
 3623 15ec FB1F0000 		.4byte	.LASF211
 3624 15f0 0F       		.byte	0xf
 3625 15f1 F601     		.2byte	0x1f6
 3626 15f3 1C0A0000 		.4byte	0xa1c
 3627 15f7 02       		.byte	0x2
 3628 15f8 23       		.byte	0x23
 3629 15f9 0A       		.uleb128 0xa
 3630 15fa 25       		.uleb128 0x25
 3631 15fb 536E7200 		.ascii	"Snr\000"
 3632 15ff 0F       		.byte	0xf
 3633 1600 FA01     		.2byte	0x1fa
 3634 1602 010A0000 		.4byte	0xa01
 3635 1606 02       		.byte	0x2
 3636 1607 23       		.byte	0x23
 3637 1608 0C       		.uleb128 0xc
 3638 1609 17       		.uleb128 0x17
 3639 160a BD150000 		.4byte	.LASF295
 3640 160e 0F       		.byte	0xf
 3641 160f 0902     		.2byte	0x209
 3642 1611 75150000 		.4byte	0x1575
 3643 1615 02       		.byte	0x2
 3644 1616 23       		.byte	0x23
 3645 1617 0D       		.uleb128 0xd
 3646 1618 00       		.byte	0
 3647 1619 07       		.uleb128 0x7
 3648 161a 88230000 		.4byte	.LASF296
 3649 161e 0F       		.byte	0xf
 3650 161f 0A02     		.2byte	0x20a
 3651 1621 B1150000 		.4byte	0x15b1
 3652 1625 1E       		.uleb128 0x1e
 3653 1626 51010000 		.4byte	.LASF297
 3654 162a 07       		.byte	0x7
 3655 162b 01       		.byte	0x1
 3656 162c 6D000000 		.4byte	0x6d
 3657 1630 0F       		.byte	0xf
 3658 1631 0F02     		.2byte	0x20f
 3659 1633 9E160000 		.4byte	0x169e
 3660 1637 20       		.uleb128 0x20
 3661 1638 241F0000 		.4byte	.LASF298
 3662 163c 00       		.byte	0
 3663 163d 20       		.uleb128 0x20
 3664 163e 961A0000 		.4byte	.LASF299
 3665 1642 01       		.byte	0x1
 3666 1643 20       		.uleb128 0x20
 3667 1644 88120000 		.4byte	.LASF300
 3668 1648 02       		.byte	0x2
 3669 1649 20       		.uleb128 0x20
 3670 164a 7D010000 		.4byte	.LASF301
 3671 164e 03       		.byte	0x3
 3672 164f 20       		.uleb128 0x20
 3673 1650 AC010000 		.4byte	.LASF302
 3674 1654 04       		.byte	0x4
 3675 1655 20       		.uleb128 0x20
 3676 1656 C8020000 		.4byte	.LASF303
 3677 165a 05       		.byte	0x5
 3678 165b 20       		.uleb128 0x20
ARM GAS  C:\Users\EBANO_~1\AppData\Local\Temp\ccis3phW.s 			page 94


 3679 165c 900B0000 		.4byte	.LASF304
 3680 1660 06       		.byte	0x6
 3681 1661 20       		.uleb128 0x20
 3682 1662 29190000 		.4byte	.LASF305
 3683 1666 07       		.byte	0x7
 3684 1667 20       		.uleb128 0x20
 3685 1668 A4110000 		.4byte	.LASF306
 3686 166c 08       		.byte	0x8
 3687 166d 20       		.uleb128 0x20
 3688 166e 8B1B0000 		.4byte	.LASF307
 3689 1672 09       		.byte	0x9
 3690 1673 20       		.uleb128 0x20
 3691 1674 3D0D0000 		.4byte	.LASF308
 3692 1678 0A       		.byte	0xa
 3693 1679 20       		.uleb128 0x20
 3694 167a 42170000 		.4byte	.LASF309
 3695 167e 0B       		.byte	0xb
 3696 167f 20       		.uleb128 0x20
 3697 1680 39260000 		.4byte	.LASF310
 3698 1684 0C       		.byte	0xc
 3699 1685 20       		.uleb128 0x20
 3700 1686 710A0000 		.4byte	.LASF311
 3701 168a 0D       		.byte	0xd
 3702 168b 20       		.uleb128 0x20
 3703 168c BB250000 		.4byte	.LASF312
 3704 1690 0E       		.byte	0xe
 3705 1691 20       		.uleb128 0x20
 3706 1692 D7180000 		.4byte	.LASF313
 3707 1696 0F       		.byte	0xf
 3708 1697 20       		.uleb128 0x20
 3709 1698 BF1D0000 		.4byte	.LASF314
 3710 169c 10       		.byte	0x10
 3711 169d 00       		.byte	0
 3712 169e 07       		.uleb128 0x7
 3713 169f 72210000 		.4byte	.LASF315
 3714 16a3 0F       		.byte	0xf
 3715 16a4 5802     		.2byte	0x258
 3716 16a6 25160000 		.4byte	0x1625
 3717 16aa 18       		.uleb128 0x18
 3718 16ab 5A080000 		.4byte	.LASF316
 3719 16af 01       		.byte	0x1
 3720 16b0 0F       		.byte	0xf
 3721 16b1 6602     		.2byte	0x266
 3722 16b3 12170000 		.4byte	0x1712
 3723 16b7 28       		.uleb128 0x28
 3724 16b8 5D240000 		.4byte	.LASF317
 3725 16bc 0F       		.byte	0xf
 3726 16bd 6B02     		.2byte	0x26b
 3727 16bf 0C0A0000 		.4byte	0xa0c
 3728 16c3 01       		.byte	0x1
 3729 16c4 01       		.byte	0x1
 3730 16c5 07       		.byte	0x7
 3731 16c6 02       		.byte	0x2
 3732 16c7 23       		.byte	0x23
 3733 16c8 00       		.uleb128 0
 3734 16c9 28       		.uleb128 0x28
 3735 16ca 6F070000 		.4byte	.LASF318
ARM GAS  C:\Users\EBANO_~1\AppData\Local\Temp\ccis3phW.s 			page 95


 3736 16ce 0F       		.byte	0xf
 3737 16cf 6F02     		.2byte	0x26f
 3738 16d1 0C0A0000 		.4byte	0xa0c
 3739 16d5 01       		.byte	0x1
 3740 16d6 01       		.byte	0x1
 3741 16d7 06       		.byte	0x6
 3742 16d8 02       		.byte	0x2
 3743 16d9 23       		.byte	0x23
 3744 16da 00       		.uleb128 0
 3745 16db 28       		.uleb128 0x28
 3746 16dc 12100000 		.4byte	.LASF319
 3747 16e0 0F       		.byte	0xf
 3748 16e1 7302     		.2byte	0x273
 3749 16e3 0C0A0000 		.4byte	0xa0c
 3750 16e7 01       		.byte	0x1
 3751 16e8 01       		.byte	0x1
 3752 16e9 05       		.byte	0x5
 3753 16ea 02       		.byte	0x2
 3754 16eb 23       		.byte	0x23
 3755 16ec 00       		.uleb128 0
 3756 16ed 28       		.uleb128 0x28
 3757 16ee 0D1B0000 		.4byte	.LASF320
 3758 16f2 0F       		.byte	0xf
 3759 16f3 7702     		.2byte	0x277
 3760 16f5 0C0A0000 		.4byte	0xa0c
 3761 16f9 01       		.byte	0x1
 3762 16fa 01       		.byte	0x1
 3763 16fb 04       		.byte	0x4
 3764 16fc 02       		.byte	0x2
 3765 16fd 23       		.byte	0x23
 3766 16fe 00       		.uleb128 0
 3767 16ff 28       		.uleb128 0x28
 3768 1700 8D1C0000 		.4byte	.LASF321
 3769 1704 0F       		.byte	0xf
 3770 1705 7B02     		.2byte	0x27b
 3771 1707 0C0A0000 		.4byte	0xa0c
 3772 170b 01       		.byte	0x1
 3773 170c 01       		.byte	0x1
 3774 170d 03       		.byte	0x3
 3775 170e 02       		.byte	0x2
 3776 170f 23       		.byte	0x23
 3777 1710 00       		.uleb128 0
 3778 1711 00       		.byte	0
 3779 1712 29       		.uleb128 0x29
 3780 1713 B6100000 		.4byte	.LASF322
 3781 1717 01       		.byte	0x1
 3782 1718 0F       		.byte	0xf
 3783 1719 5D02     		.2byte	0x25d
 3784 171b 38170000 		.4byte	0x1738
 3785 171f 1B       		.uleb128 0x1b
 3786 1720 33260000 		.4byte	.LASF150
 3787 1724 0F       		.byte	0xf
 3788 1725 6202     		.2byte	0x262
 3789 1727 0C0A0000 		.4byte	0xa0c
 3790 172b 1B       		.uleb128 0x1b
 3791 172c A5190000 		.4byte	.LASF323
 3792 1730 0F       		.byte	0xf
ARM GAS  C:\Users\EBANO_~1\AppData\Local\Temp\ccis3phW.s 			page 96


 3793 1731 7C02     		.2byte	0x27c
 3794 1733 AA160000 		.4byte	0x16aa
 3795 1737 00       		.byte	0
 3796 1738 07       		.uleb128 0x7
 3797 1739 BD180000 		.4byte	.LASF324
 3798 173d 0F       		.byte	0xf
 3799 173e 7D02     		.2byte	0x27d
 3800 1740 12170000 		.4byte	0x1712
 3801 1744 1E       		.uleb128 0x1e
 3802 1745 46020000 		.4byte	.LASF325
 3803 1749 07       		.byte	0x7
 3804 174a 01       		.byte	0x1
 3805 174b 6D000000 		.4byte	0x6d
 3806 174f 0F       		.byte	0xf
 3807 1750 9602     		.2byte	0x296
 3808 1752 6F170000 		.4byte	0x176f
 3809 1756 20       		.uleb128 0x20
 3810 1757 95230000 		.4byte	.LASF326
 3811 175b 00       		.byte	0
 3812 175c 20       		.uleb128 0x20
 3813 175d 83100000 		.4byte	.LASF327
 3814 1761 01       		.byte	0x1
 3815 1762 20       		.uleb128 0x20
 3816 1763 FF260000 		.4byte	.LASF328
 3817 1767 02       		.byte	0x2
 3818 1768 20       		.uleb128 0x20
 3819 1769 1A010000 		.4byte	.LASF329
 3820 176d 03       		.byte	0x3
 3821 176e 00       		.byte	0
 3822 176f 07       		.uleb128 0x7
 3823 1770 F9110000 		.4byte	.LASF330
 3824 1774 0F       		.byte	0xf
 3825 1775 A802     		.2byte	0x2a8
 3826 1777 44170000 		.4byte	0x1744
 3827 177b 18       		.uleb128 0x18
 3828 177c 05190000 		.4byte	.LASF331
 3829 1780 1C       		.byte	0x1c
 3830 1781 0F       		.byte	0xf
 3831 1782 5203     		.2byte	0x352
 3832 1784 6A180000 		.4byte	0x186a
 3833 1788 17       		.uleb128 0x17
 3834 1789 7C260000 		.4byte	.LASF332
 3835 178d 0F       		.byte	0xf
 3836 178e 5703     		.2byte	0x357
 3837 1790 6F170000 		.4byte	0x176f
 3838 1794 02       		.byte	0x2
 3839 1795 23       		.byte	0x23
 3840 1796 00       		.uleb128 0
 3841 1797 17       		.uleb128 0x17
 3842 1798 B6180000 		.4byte	.LASF333
 3843 179c 0F       		.byte	0xf
 3844 179d 5B03     		.2byte	0x35b
 3845 179f 9E160000 		.4byte	0x169e
 3846 17a3 02       		.byte	0x2
 3847 17a4 23       		.byte	0x23
 3848 17a5 01       		.uleb128 0x1
 3849 17a6 17       		.uleb128 0x17
ARM GAS  C:\Users\EBANO_~1\AppData\Local\Temp\ccis3phW.s 			page 97


 3850 17a7 C8150000 		.4byte	.LASF334
 3851 17ab 0F       		.byte	0xf
 3852 17ac 5F03     		.2byte	0x35f
 3853 17ae 0C0A0000 		.4byte	0xa0c
 3854 17b2 02       		.byte	0x2
 3855 17b3 23       		.byte	0x23
 3856 17b4 02       		.uleb128 0x2
 3857 17b5 17       		.uleb128 0x17
 3858 17b6 F6120000 		.4byte	.LASF335
 3859 17ba 0F       		.byte	0xf
 3860 17bb 6303     		.2byte	0x363
 3861 17bd 0C0A0000 		.4byte	0xa0c
 3862 17c1 02       		.byte	0x2
 3863 17c2 23       		.byte	0x23
 3864 17c3 03       		.uleb128 0x3
 3865 17c4 17       		.uleb128 0x17
 3866 17c5 3F180000 		.4byte	.LASF336
 3867 17c9 0F       		.byte	0xf
 3868 17ca 6703     		.2byte	0x367
 3869 17cc 0C0A0000 		.4byte	0xa0c
 3870 17d0 02       		.byte	0x2
 3871 17d1 23       		.byte	0x23
 3872 17d2 04       		.uleb128 0x4
 3873 17d3 17       		.uleb128 0x17
 3874 17d4 E60E0000 		.4byte	.LASF337
 3875 17d8 0F       		.byte	0xf
 3876 17d9 6B03     		.2byte	0x36b
 3877 17db 0C0A0000 		.4byte	0xa0c
 3878 17df 02       		.byte	0x2
 3879 17e0 23       		.byte	0x23
 3880 17e1 05       		.uleb128 0x5
 3881 17e2 17       		.uleb128 0x17
 3882 17e3 621F0000 		.4byte	.LASF338
 3883 17e7 0F       		.byte	0xf
 3884 17e8 6F03     		.2byte	0x36f
 3885 17ea B00A0000 		.4byte	0xab0
 3886 17ee 02       		.byte	0x2
 3887 17ef 23       		.byte	0x23
 3888 17f0 08       		.uleb128 0x8
 3889 17f1 17       		.uleb128 0x17
 3890 17f2 EB120000 		.4byte	.LASF339
 3891 17f6 0F       		.byte	0xf
 3892 17f7 7303     		.2byte	0x373
 3893 17f9 0C0A0000 		.4byte	0xa0c
 3894 17fd 02       		.byte	0x2
 3895 17fe 23       		.byte	0x23
 3896 17ff 0C       		.uleb128 0xc
 3897 1800 17       		.uleb128 0x17
 3898 1801 B3080000 		.4byte	.LASF340
 3899 1805 0F       		.byte	0xf
 3900 1806 7703     		.2byte	0x377
 3901 1808 410B0000 		.4byte	0xb41
 3902 180c 02       		.byte	0x2
 3903 180d 23       		.byte	0x23
 3904 180e 0D       		.uleb128 0xd
 3905 180f 17       		.uleb128 0x17
 3906 1810 FB1F0000 		.4byte	.LASF211
ARM GAS  C:\Users\EBANO_~1\AppData\Local\Temp\ccis3phW.s 			page 98


 3907 1814 0F       		.byte	0xf
 3908 1815 7B03     		.2byte	0x37b
 3909 1817 1C0A0000 		.4byte	0xa1c
 3910 181b 02       		.byte	0x2
 3911 181c 23       		.byte	0x23
 3912 181d 0E       		.uleb128 0xe
 3913 181e 25       		.uleb128 0x25
 3914 181f 536E7200 		.ascii	"Snr\000"
 3915 1823 0F       		.byte	0xf
 3916 1824 7F03     		.2byte	0x37f
 3917 1826 010A0000 		.4byte	0xa01
 3918 182a 02       		.byte	0x2
 3919 182b 23       		.byte	0x23
 3920 182c 10       		.uleb128 0x10
 3921 182d 17       		.uleb128 0x17
 3922 182e 020B0000 		.4byte	.LASF341
 3923 1832 0F       		.byte	0xf
 3924 1833 8303     		.2byte	0x383
 3925 1835 D2120000 		.4byte	0x12d2
 3926 1839 02       		.byte	0x2
 3927 183a 23       		.byte	0x23
 3928 183b 11       		.uleb128 0x11
 3929 183c 17       		.uleb128 0x17
 3930 183d A51F0000 		.4byte	.LASF342
 3931 1841 0F       		.byte	0xf
 3932 1842 8703     		.2byte	0x387
 3933 1844 410B0000 		.4byte	0xb41
 3934 1848 02       		.byte	0x2
 3935 1849 23       		.byte	0x23
 3936 184a 12       		.uleb128 0x12
 3937 184b 17       		.uleb128 0x17
 3938 184c 59220000 		.4byte	.LASF164
 3939 1850 0F       		.byte	0xf
 3940 1851 8B03     		.2byte	0x38b
 3941 1853 320A0000 		.4byte	0xa32
 3942 1857 02       		.byte	0x2
 3943 1858 23       		.byte	0x23
 3944 1859 14       		.uleb128 0x14
 3945 185a 17       		.uleb128 0x17
 3946 185b B1230000 		.4byte	.LASF343
 3947 185f 0F       		.byte	0xf
 3948 1860 8F03     		.2byte	0x38f
 3949 1862 320A0000 		.4byte	0xa32
 3950 1866 02       		.byte	0x2
 3951 1867 23       		.byte	0x23
 3952 1868 18       		.uleb128 0x18
 3953 1869 00       		.byte	0
 3954 186a 07       		.uleb128 0x7
 3955 186b 4A0B0000 		.4byte	.LASF344
 3956 186f 0F       		.byte	0xf
 3957 1870 9003     		.2byte	0x390
 3958 1872 7B170000 		.4byte	0x177b
 3959 1876 1E       		.uleb128 0x1e
 3960 1877 F8220000 		.4byte	.LASF345
 3961 187b 07       		.byte	0x7
 3962 187c 01       		.byte	0x1
 3963 187d 6D000000 		.4byte	0x6d
ARM GAS  C:\Users\EBANO_~1\AppData\Local\Temp\ccis3phW.s 			page 99


 3964 1881 0F       		.byte	0xf
 3965 1882 AA03     		.2byte	0x3aa
 3966 1884 E3180000 		.4byte	0x18e3
 3967 1888 20       		.uleb128 0x20
 3968 1889 00120000 		.4byte	.LASF346
 3969 188d 00       		.byte	0
 3970 188e 20       		.uleb128 0x20
 3971 188f 71250000 		.4byte	.LASF347
 3972 1893 01       		.byte	0x1
 3973 1894 20       		.uleb128 0x20
 3974 1895 7F250000 		.4byte	.LASF348
 3975 1899 02       		.byte	0x2
 3976 189a 20       		.uleb128 0x20
 3977 189b 76150000 		.4byte	.LASF349
 3978 189f 03       		.byte	0x3
 3979 18a0 20       		.uleb128 0x20
 3980 18a1 3D010000 		.4byte	.LASF350
 3981 18a5 04       		.byte	0x4
 3982 18a6 20       		.uleb128 0x20
 3983 18a7 25170000 		.4byte	.LASF351
 3984 18ab 05       		.byte	0x5
 3985 18ac 20       		.uleb128 0x20
 3986 18ad 570E0000 		.4byte	.LASF352
 3987 18b1 06       		.byte	0x6
 3988 18b2 20       		.uleb128 0x20
 3989 18b3 AA220000 		.4byte	.LASF353
 3990 18b7 07       		.byte	0x7
 3991 18b8 20       		.uleb128 0x20
 3992 18b9 E3250000 		.4byte	.LASF354
 3993 18bd 08       		.byte	0x8
 3994 18be 20       		.uleb128 0x20
 3995 18bf FD000000 		.4byte	.LASF355
 3996 18c3 09       		.byte	0x9
 3997 18c4 20       		.uleb128 0x20
 3998 18c5 52040000 		.4byte	.LASF356
 3999 18c9 0A       		.byte	0xa
 4000 18ca 20       		.uleb128 0x20
 4001 18cb 1D000000 		.4byte	.LASF357
 4002 18cf 0B       		.byte	0xb
 4003 18d0 20       		.uleb128 0x20
 4004 18d1 EC230000 		.4byte	.LASF358
 4005 18d5 0C       		.byte	0xc
 4006 18d6 20       		.uleb128 0x20
 4007 18d7 C70A0000 		.4byte	.LASF359
 4008 18db 0D       		.byte	0xd
 4009 18dc 20       		.uleb128 0x20
 4010 18dd D4260000 		.4byte	.LASF360
 4011 18e1 0E       		.byte	0xe
 4012 18e2 00       		.byte	0
 4013 18e3 07       		.uleb128 0x7
 4014 18e4 360D0000 		.4byte	.LASF361
 4015 18e8 0F       		.byte	0xf
 4016 18e9 0504     		.2byte	0x405
 4017 18eb 76180000 		.4byte	0x1876
 4018 18ef 18       		.uleb128 0x18
 4019 18f0 100A0000 		.4byte	.LASF362
 4020 18f4 14       		.byte	0x14
ARM GAS  C:\Users\EBANO_~1\AppData\Local\Temp\ccis3phW.s 			page 100


 4021 18f5 0F       		.byte	0xf
 4022 18f6 8004     		.2byte	0x480
 4023 18f8 75190000 		.4byte	0x1975
 4024 18fc 17       		.uleb128 0x17
 4025 18fd 1A100000 		.4byte	.LASF363
 4026 1901 0F       		.byte	0xf
 4027 1902 8504     		.2byte	0x485
 4028 1904 E3180000 		.4byte	0x18e3
 4029 1908 02       		.byte	0x2
 4030 1909 23       		.byte	0x23
 4031 190a 00       		.uleb128 0
 4032 190b 17       		.uleb128 0x17
 4033 190c B6180000 		.4byte	.LASF333
 4034 1910 0F       		.byte	0xf
 4035 1911 8904     		.2byte	0x489
 4036 1913 9E160000 		.4byte	0x169e
 4037 1917 02       		.byte	0x2
 4038 1918 23       		.byte	0x23
 4039 1919 01       		.uleb128 0x1
 4040 191a 17       		.uleb128 0x17
 4041 191b EC020000 		.4byte	.LASF364
 4042 191f 0F       		.byte	0xf
 4043 1920 8D04     		.2byte	0x48d
 4044 1922 C30A0000 		.4byte	0xac3
 4045 1926 02       		.byte	0x2
 4046 1927 23       		.byte	0x23
 4047 1928 04       		.uleb128 0x4
 4048 1929 17       		.uleb128 0x17
 4049 192a F6190000 		.4byte	.LASF365
 4050 192e 0F       		.byte	0xf
 4051 192f 9204     		.2byte	0x492
 4052 1931 0C0A0000 		.4byte	0xa0c
 4053 1935 02       		.byte	0x2
 4054 1936 23       		.byte	0x23
 4055 1937 08       		.uleb128 0x8
 4056 1938 17       		.uleb128 0x17
 4057 1939 171A0000 		.4byte	.LASF366
 4058 193d 0F       		.byte	0xf
 4059 193e 9604     		.2byte	0x496
 4060 1940 0C0A0000 		.4byte	0xa0c
 4061 1944 02       		.byte	0x2
 4062 1945 23       		.byte	0x23
 4063 1946 09       		.uleb128 0x9
 4064 1947 17       		.uleb128 0x17
 4065 1948 21030000 		.4byte	.LASF367
 4066 194c 0F       		.byte	0xf
 4067 194d 9A04     		.2byte	0x49a
 4068 194f 0C0A0000 		.4byte	0xa0c
 4069 1953 02       		.byte	0x2
 4070 1954 23       		.byte	0x23
 4071 1955 0A       		.uleb128 0xa
 4072 1956 17       		.uleb128 0x17
 4073 1957 4B210000 		.4byte	.LASF368
 4074 195b 0F       		.byte	0xf
 4075 195c 9F04     		.2byte	0x49f
 4076 195e C30A0000 		.4byte	0xac3
 4077 1962 02       		.byte	0x2
ARM GAS  C:\Users\EBANO_~1\AppData\Local\Temp\ccis3phW.s 			page 101


 4078 1963 23       		.byte	0x23
 4079 1964 0C       		.uleb128 0xc
 4080 1965 17       		.uleb128 0x17
 4081 1966 F6040000 		.4byte	.LASF369
 4082 196a 0F       		.byte	0xf
 4083 196b A304     		.2byte	0x4a3
 4084 196d 0C0A0000 		.4byte	0xa0c
 4085 1971 02       		.byte	0x2
 4086 1972 23       		.byte	0x23
 4087 1973 10       		.uleb128 0x10
 4088 1974 00       		.byte	0
 4089 1975 07       		.uleb128 0x7
 4090 1976 11130000 		.4byte	.LASF370
 4091 197a 0F       		.byte	0xf
 4092 197b A404     		.2byte	0x4a4
 4093 197d EF180000 		.4byte	0x18ef
 4094 1981 18       		.uleb128 0x18
 4095 1982 83080000 		.4byte	.LASF371
 4096 1986 18       		.byte	0x18
 4097 1987 0F       		.byte	0xf
 4098 1988 A904     		.2byte	0x4a9
 4099 198a BC190000 		.4byte	0x19bc
 4100 198e 17       		.uleb128 0x17
 4101 198f 0B040000 		.4byte	.LASF372
 4102 1993 0F       		.byte	0xf
 4103 1994 AE04     		.2byte	0x4ae
 4104 1996 E3180000 		.4byte	0x18e3
 4105 199a 02       		.byte	0x2
 4106 199b 23       		.byte	0x23
 4107 199c 00       		.uleb128 0
 4108 199d 17       		.uleb128 0x17
 4109 199e B6180000 		.4byte	.LASF333
 4110 19a2 0F       		.byte	0xf
 4111 19a3 B204     		.2byte	0x4b2
 4112 19a5 9E160000 		.4byte	0x169e
 4113 19a9 02       		.byte	0x2
 4114 19aa 23       		.byte	0x23
 4115 19ab 01       		.uleb128 0x1
 4116 19ac 17       		.uleb128 0x17
 4117 19ad 7D130000 		.4byte	.LASF373
 4118 19b1 0F       		.byte	0xf
 4119 19b2 B704     		.2byte	0x4b7
 4120 19b4 19160000 		.4byte	0x1619
 4121 19b8 02       		.byte	0x2
 4122 19b9 23       		.byte	0x23
 4123 19ba 04       		.uleb128 0x4
 4124 19bb 00       		.byte	0
 4125 19bc 07       		.uleb128 0x7
 4126 19bd 86170000 		.4byte	.LASF374
 4127 19c1 0F       		.byte	0xf
 4128 19c2 B804     		.2byte	0x4b8
 4129 19c4 81190000 		.4byte	0x1981
 4130 19c8 1E       		.uleb128 0x1e
 4131 19c9 97050000 		.4byte	.LASF375
 4132 19cd 07       		.byte	0x7
 4133 19ce 01       		.byte	0x1
 4134 19cf 6D000000 		.4byte	0x6d
ARM GAS  C:\Users\EBANO_~1\AppData\Local\Temp\ccis3phW.s 			page 102


 4135 19d3 0F       		.byte	0xf
 4136 19d4 0605     		.2byte	0x506
 4137 19d6 4F1B0000 		.4byte	0x1b4f
 4138 19da 20       		.uleb128 0x20
 4139 19db 26100000 		.4byte	.LASF376
 4140 19df 00       		.byte	0
 4141 19e0 20       		.uleb128 0x20
 4142 19e1 97030000 		.4byte	.LASF377
 4143 19e5 01       		.byte	0x1
 4144 19e6 20       		.uleb128 0x20
 4145 19e7 03040000 		.4byte	.LASF378
 4146 19eb 02       		.byte	0x2
 4147 19ec 20       		.uleb128 0x20
 4148 19ed 620B0000 		.4byte	.LASF379
 4149 19f1 03       		.byte	0x3
 4150 19f2 20       		.uleb128 0x20
 4151 19f3 A2060000 		.4byte	.LASF380
 4152 19f7 04       		.byte	0x4
 4153 19f8 20       		.uleb128 0x20
 4154 19f9 BC020000 		.4byte	.LASF381
 4155 19fd 05       		.byte	0x5
 4156 19fe 20       		.uleb128 0x20
 4157 19ff EA030000 		.4byte	.LASF382
 4158 1a03 06       		.byte	0x6
 4159 1a04 20       		.uleb128 0x20
 4160 1a05 611E0000 		.4byte	.LASF383
 4161 1a09 07       		.byte	0x7
 4162 1a0a 20       		.uleb128 0x20
 4163 1a0b 4E060000 		.4byte	.LASF384
 4164 1a0f 08       		.byte	0x8
 4165 1a10 20       		.uleb128 0x20
 4166 1a11 0C060000 		.4byte	.LASF385
 4167 1a15 09       		.byte	0x9
 4168 1a16 20       		.uleb128 0x20
 4169 1a17 581A0000 		.4byte	.LASF386
 4170 1a1b 0A       		.byte	0xa
 4171 1a1c 20       		.uleb128 0x20
 4172 1a1d 74110000 		.4byte	.LASF387
 4173 1a21 0B       		.byte	0xb
 4174 1a22 20       		.uleb128 0x20
 4175 1a23 820F0000 		.4byte	.LASF388
 4176 1a27 0C       		.byte	0xc
 4177 1a28 20       		.uleb128 0x20
 4178 1a29 94060000 		.4byte	.LASF389
 4179 1a2d 0D       		.byte	0xd
 4180 1a2e 20       		.uleb128 0x20
 4181 1a2f 4A0A0000 		.4byte	.LASF390
 4182 1a33 0E       		.byte	0xe
 4183 1a34 20       		.uleb128 0x20
 4184 1a35 3E000000 		.4byte	.LASF391
 4185 1a39 0F       		.byte	0xf
 4186 1a3a 20       		.uleb128 0x20
 4187 1a3b C40C0000 		.4byte	.LASF392
 4188 1a3f 10       		.byte	0x10
 4189 1a40 20       		.uleb128 0x20
 4190 1a41 570A0000 		.4byte	.LASF393
 4191 1a45 11       		.byte	0x11
ARM GAS  C:\Users\EBANO_~1\AppData\Local\Temp\ccis3phW.s 			page 103


 4192 1a46 20       		.uleb128 0x20
 4193 1a47 51000000 		.4byte	.LASF394
 4194 1a4b 12       		.byte	0x12
 4195 1a4c 20       		.uleb128 0x20
 4196 1a4d D70C0000 		.4byte	.LASF395
 4197 1a51 13       		.byte	0x13
 4198 1a52 20       		.uleb128 0x20
 4199 1a53 640A0000 		.4byte	.LASF396
 4200 1a57 14       		.byte	0x14
 4201 1a58 20       		.uleb128 0x20
 4202 1a59 64000000 		.4byte	.LASF397
 4203 1a5d 15       		.byte	0x15
 4204 1a5e 20       		.uleb128 0x20
 4205 1a5f EA0C0000 		.4byte	.LASF398
 4206 1a63 16       		.byte	0x16
 4207 1a64 20       		.uleb128 0x20
 4208 1a65 CB030000 		.4byte	.LASF399
 4209 1a69 17       		.byte	0x17
 4210 1a6a 20       		.uleb128 0x20
 4211 1a6b 77000000 		.4byte	.LASF400
 4212 1a6f 18       		.byte	0x18
 4213 1a70 20       		.uleb128 0x20
 4214 1a71 FD0C0000 		.4byte	.LASF401
 4215 1a75 19       		.byte	0x19
 4216 1a76 20       		.uleb128 0x20
 4217 1a77 C0220000 		.4byte	.LASF402
 4218 1a7b 1A       		.byte	0x1a
 4219 1a7c 20       		.uleb128 0x20
 4220 1a7d 22050000 		.4byte	.LASF403
 4221 1a81 1B       		.byte	0x1b
 4222 1a82 20       		.uleb128 0x20
 4223 1a83 CC240000 		.4byte	.LASF404
 4224 1a87 1C       		.byte	0x1c
 4225 1a88 20       		.uleb128 0x20
 4226 1a89 00240000 		.4byte	.LASF405
 4227 1a8d 1D       		.byte	0x1d
 4228 1a8e 20       		.uleb128 0x20
 4229 1a8f F2090000 		.4byte	.LASF406
 4230 1a93 1E       		.byte	0x1e
 4231 1a94 20       		.uleb128 0x20
 4232 1a95 64030000 		.4byte	.LASF407
 4233 1a99 1F       		.byte	0x1f
 4234 1a9a 20       		.uleb128 0x20
 4235 1a9b CC210000 		.4byte	.LASF408
 4236 1a9f 20       		.byte	0x20
 4237 1aa0 20       		.uleb128 0x20
 4238 1aa1 0F1E0000 		.4byte	.LASF409
 4239 1aa5 21       		.byte	0x21
 4240 1aa6 20       		.uleb128 0x20
 4241 1aa7 7C0E0000 		.4byte	.LASF410
 4242 1aab 22       		.byte	0x22
 4243 1aac 20       		.uleb128 0x20
 4244 1aad 301A0000 		.4byte	.LASF411
 4245 1ab1 23       		.byte	0x23
 4246 1ab2 20       		.uleb128 0x20
 4247 1ab3 441A0000 		.4byte	.LASF412
 4248 1ab7 24       		.byte	0x24
ARM GAS  C:\Users\EBANO_~1\AppData\Local\Temp\ccis3phW.s 			page 104


 4249 1ab8 20       		.uleb128 0x20
 4250 1ab9 C11E0000 		.4byte	.LASF413
 4251 1abd 25       		.byte	0x25
 4252 1abe 20       		.uleb128 0x20
 4253 1abf D91E0000 		.4byte	.LASF414
 4254 1ac3 26       		.byte	0x26
 4255 1ac4 20       		.uleb128 0x20
 4256 1ac5 86110000 		.4byte	.LASF415
 4257 1ac9 27       		.byte	0x27
 4258 1aca 20       		.uleb128 0x20
 4259 1acb D0110000 		.4byte	.LASF416
 4260 1acf 28       		.byte	0x28
 4261 1ad0 20       		.uleb128 0x20
 4262 1ad1 531D0000 		.4byte	.LASF417
 4263 1ad5 29       		.byte	0x29
 4264 1ad6 20       		.uleb128 0x20
 4265 1ad7 101D0000 		.4byte	.LASF418
 4266 1adb 2A       		.byte	0x2a
 4267 1adc 20       		.uleb128 0x20
 4268 1add 70180000 		.4byte	.LASF419
 4269 1ae1 2B       		.byte	0x2b
 4270 1ae2 20       		.uleb128 0x20
 4271 1ae3 97220000 		.4byte	.LASF420
 4272 1ae7 2C       		.byte	0x2c
 4273 1ae8 20       		.uleb128 0x20
 4274 1ae9 C21C0000 		.4byte	.LASF421
 4275 1aed 2D       		.byte	0x2d
 4276 1aee 20       		.uleb128 0x20
 4277 1aef 4D190000 		.4byte	.LASF422
 4278 1af3 2E       		.byte	0x2e
 4279 1af4 20       		.uleb128 0x20
 4280 1af5 FE150000 		.4byte	.LASF423
 4281 1af9 2F       		.byte	0x2f
 4282 1afa 20       		.uleb128 0x20
 4283 1afb 44100000 		.4byte	.LASF424
 4284 1aff 30       		.byte	0x30
 4285 1b00 20       		.uleb128 0x20
 4286 1b01 3E090000 		.4byte	.LASF425
 4287 1b05 31       		.byte	0x31
 4288 1b06 20       		.uleb128 0x20
 4289 1b07 69170000 		.4byte	.LASF426
 4290 1b0b 32       		.byte	0x32
 4291 1b0c 20       		.uleb128 0x20
 4292 1b0d 73160000 		.4byte	.LASF427
 4293 1b11 33       		.byte	0x33
 4294 1b12 20       		.uleb128 0x20
 4295 1b13 B4070000 		.4byte	.LASF428
 4296 1b17 34       		.byte	0x34
 4297 1b18 20       		.uleb128 0x20
 4298 1b19 FB160000 		.4byte	.LASF429
 4299 1b1d 35       		.byte	0x35
 4300 1b1e 20       		.uleb128 0x20
 4301 1b1f 64200000 		.4byte	.LASF430
 4302 1b23 36       		.byte	0x36
 4303 1b24 20       		.uleb128 0x20
 4304 1b25 4C270000 		.4byte	.LASF431
 4305 1b29 37       		.byte	0x37
ARM GAS  C:\Users\EBANO_~1\AppData\Local\Temp\ccis3phW.s 			page 105


 4306 1b2a 20       		.uleb128 0x20
 4307 1b2b 1C020000 		.4byte	.LASF432
 4308 1b2f 38       		.byte	0x38
 4309 1b30 20       		.uleb128 0x20
 4310 1b31 EC070000 		.4byte	.LASF433
 4311 1b35 39       		.byte	0x39
 4312 1b36 20       		.uleb128 0x20
 4313 1b37 A10A0000 		.4byte	.LASF434
 4314 1b3b 3A       		.byte	0x3a
 4315 1b3c 20       		.uleb128 0x20
 4316 1b3d F0130000 		.4byte	.LASF435
 4317 1b41 3B       		.byte	0x3b
 4318 1b42 20       		.uleb128 0x20
 4319 1b43 54070000 		.4byte	.LASF436
 4320 1b47 3C       		.byte	0x3c
 4321 1b48 20       		.uleb128 0x20
 4322 1b49 19140000 		.4byte	.LASF437
 4323 1b4d 3D       		.byte	0x3d
 4324 1b4e 00       		.byte	0
 4325 1b4f 07       		.uleb128 0x7
 4326 1b50 B61A0000 		.4byte	.LASF438
 4327 1b54 0F       		.byte	0xf
 4328 1b55 7D06     		.2byte	0x67d
 4329 1b57 C8190000 		.4byte	0x19c8
 4330 1b5b 29       		.uleb128 0x29
 4331 1b5c 1A040000 		.4byte	.LASF439
 4332 1b60 14       		.byte	0x14
 4333 1b61 0F       		.byte	0xf
 4334 1b62 8206     		.2byte	0x682
 4335 1b64 5D1E0000 		.4byte	0x1e5d
 4336 1b68 1B       		.uleb128 0x1b
 4337 1b69 D2150000 		.4byte	.LASF440
 4338 1b6d 0F       		.byte	0xf
 4339 1b6e 8906     		.2byte	0x689
 4340 1b70 87110000 		.4byte	0x1187
 4341 1b74 1B       		.uleb128 0x1b
 4342 1b75 F51B0000 		.4byte	.LASF441
 4343 1b79 0F       		.byte	0xf
 4344 1b7a 8F06     		.2byte	0x68f
 4345 1b7c B6110000 		.4byte	0x11b6
 4346 1b80 1B       		.uleb128 0x1b
 4347 1b81 FB080000 		.4byte	.LASF442
 4348 1b85 0F       		.byte	0xf
 4349 1b86 9506     		.2byte	0x695
 4350 1b88 410B0000 		.4byte	0xb41
 4351 1b8c 1B       		.uleb128 0x1b
 4352 1b8d D2100000 		.4byte	.LASF443
 4353 1b91 0F       		.byte	0xf
 4354 1b92 9B06     		.2byte	0x69b
 4355 1b94 320A0000 		.4byte	0xa32
 4356 1b98 1B       		.uleb128 0x1b
 4357 1b99 09130000 		.4byte	.LASF444
 4358 1b9d 0F       		.byte	0xf
 4359 1b9e A106     		.2byte	0x6a1
 4360 1ba0 320A0000 		.4byte	0xa32
 4361 1ba4 1B       		.uleb128 0x1b
 4362 1ba5 D8000000 		.4byte	.LASF445
ARM GAS  C:\Users\EBANO_~1\AppData\Local\Temp\ccis3phW.s 			page 106


 4363 1ba9 0F       		.byte	0xf
 4364 1baa A706     		.2byte	0x6a7
 4365 1bac B00A0000 		.4byte	0xab0
 4366 1bb0 1B       		.uleb128 0x1b
 4367 1bb1 751F0000 		.4byte	.LASF446
 4368 1bb5 0F       		.byte	0xf
 4369 1bb6 AD06     		.2byte	0x6ad
 4370 1bb8 B00A0000 		.4byte	0xab0
 4371 1bbc 1B       		.uleb128 0x1b
 4372 1bbd 77070000 		.4byte	.LASF447
 4373 1bc1 0F       		.byte	0xf
 4374 1bc2 B306     		.2byte	0x6b3
 4375 1bc4 B00A0000 		.4byte	0xab0
 4376 1bc8 1B       		.uleb128 0x1b
 4377 1bc9 CA170000 		.4byte	.LASF448
 4378 1bcd 0F       		.byte	0xf
 4379 1bce B906     		.2byte	0x6b9
 4380 1bd0 B00A0000 		.4byte	0xab0
 4381 1bd4 1B       		.uleb128 0x1b
 4382 1bd5 0E010000 		.4byte	.LASF449
 4383 1bd9 0F       		.byte	0xf
 4384 1bda BF06     		.2byte	0x6bf
 4385 1bdc B00A0000 		.4byte	0xab0
 4386 1be0 1B       		.uleb128 0x1b
 4387 1be1 E9140000 		.4byte	.LASF450
 4388 1be5 0F       		.byte	0xf
 4389 1be6 C506     		.2byte	0x6c5
 4390 1be8 B00A0000 		.4byte	0xab0
 4391 1bec 1B       		.uleb128 0x1b
 4392 1bed 67040000 		.4byte	.LASF451
 4393 1bf1 0F       		.byte	0xf
 4394 1bf2 CB06     		.2byte	0x6cb
 4395 1bf4 B00A0000 		.4byte	0xab0
 4396 1bf8 1B       		.uleb128 0x1b
 4397 1bf9 0E0F0000 		.4byte	.LASF452
 4398 1bfd 0F       		.byte	0xf
 4399 1bfe D106     		.2byte	0x6d1
 4400 1c00 B00A0000 		.4byte	0xab0
 4401 1c04 1B       		.uleb128 0x1b
 4402 1c05 2F130000 		.4byte	.LASF453
 4403 1c09 0F       		.byte	0xf
 4404 1c0a D706     		.2byte	0x6d7
 4405 1c0c B00A0000 		.4byte	0xab0
 4406 1c10 1B       		.uleb128 0x1b
 4407 1c11 53140000 		.4byte	.LASF454
 4408 1c15 0F       		.byte	0xf
 4409 1c16 DD06     		.2byte	0x6dd
 4410 1c18 B00A0000 		.4byte	0xab0
 4411 1c1c 1B       		.uleb128 0x1b
 4412 1c1d CA1A0000 		.4byte	.LASF455
 4413 1c21 0F       		.byte	0xf
 4414 1c22 E306     		.2byte	0x6e3
 4415 1c24 B00A0000 		.4byte	0xab0
 4416 1c28 1B       		.uleb128 0x1b
 4417 1c29 A6230000 		.4byte	.LASF456
 4418 1c2d 0F       		.byte	0xf
 4419 1c2e E906     		.2byte	0x6e9
ARM GAS  C:\Users\EBANO_~1\AppData\Local\Temp\ccis3phW.s 			page 107


 4420 1c30 B00A0000 		.4byte	0xab0
 4421 1c34 1B       		.uleb128 0x1b
 4422 1c35 5A140000 		.4byte	.LASF457
 4423 1c39 0F       		.byte	0xf
 4424 1c3a EF06     		.2byte	0x6ef
 4425 1c3c B00A0000 		.4byte	0xab0
 4426 1c40 1B       		.uleb128 0x1b
 4427 1c41 D51A0000 		.4byte	.LASF458
 4428 1c45 0F       		.byte	0xf
 4429 1c46 F506     		.2byte	0x6f5
 4430 1c48 B00A0000 		.4byte	0xab0
 4431 1c4c 1B       		.uleb128 0x1b
 4432 1c4d B3260000 		.4byte	.LASF459
 4433 1c51 0F       		.byte	0xf
 4434 1c52 FB06     		.2byte	0x6fb
 4435 1c54 B00A0000 		.4byte	0xab0
 4436 1c58 1B       		.uleb128 0x1b
 4437 1c59 61140000 		.4byte	.LASF460
 4438 1c5d 0F       		.byte	0xf
 4439 1c5e 0107     		.2byte	0x701
 4440 1c60 B00A0000 		.4byte	0xab0
 4441 1c64 1B       		.uleb128 0x1b
 4442 1c65 E01A0000 		.4byte	.LASF461
 4443 1c69 0F       		.byte	0xf
 4444 1c6a 0707     		.2byte	0x707
 4445 1c6c B00A0000 		.4byte	0xab0
 4446 1c70 1B       		.uleb128 0x1b
 4447 1c71 BE260000 		.4byte	.LASF462
 4448 1c75 0F       		.byte	0xf
 4449 1c76 0D07     		.2byte	0x70d
 4450 1c78 B00A0000 		.4byte	0xab0
 4451 1c7c 1B       		.uleb128 0x1b
 4452 1c7d 68140000 		.4byte	.LASF463
 4453 1c81 0F       		.byte	0xf
 4454 1c82 1307     		.2byte	0x713
 4455 1c84 B00A0000 		.4byte	0xab0
 4456 1c88 1B       		.uleb128 0x1b
 4457 1c89 EB1A0000 		.4byte	.LASF464
 4458 1c8d 0F       		.byte	0xf
 4459 1c8e 1907     		.2byte	0x719
 4460 1c90 B00A0000 		.4byte	0xab0
 4461 1c94 1B       		.uleb128 0x1b
 4462 1c95 C9260000 		.4byte	.LASF465
 4463 1c99 0F       		.byte	0xf
 4464 1c9a 1F07     		.2byte	0x71f
 4465 1c9c B00A0000 		.4byte	0xab0
 4466 1ca0 1B       		.uleb128 0x1b
 4467 1ca1 6C060000 		.4byte	.LASF466
 4468 1ca5 0F       		.byte	0xf
 4469 1ca6 2507     		.2byte	0x725
 4470 1ca8 410B0000 		.4byte	0xb41
 4471 1cac 1B       		.uleb128 0x1b
 4472 1cad 7C0D0000 		.4byte	.LASF467
 4473 1cb1 0F       		.byte	0xf
 4474 1cb2 2B07     		.2byte	0x72b
 4475 1cb4 410B0000 		.4byte	0xb41
 4476 1cb8 1B       		.uleb128 0x1b
ARM GAS  C:\Users\EBANO_~1\AppData\Local\Temp\ccis3phW.s 			page 108


 4477 1cb9 4D120000 		.4byte	.LASF468
 4478 1cbd 0F       		.byte	0xf
 4479 1cbe 3107     		.2byte	0x731
 4480 1cc0 5D1E0000 		.4byte	0x1e5d
 4481 1cc4 1B       		.uleb128 0x1b
 4482 1cc5 69220000 		.4byte	.LASF281
 4483 1cc9 0F       		.byte	0xf
 4484 1cca 3707     		.2byte	0x737
 4485 1ccc 97120000 		.4byte	0x1297
 4486 1cd0 1B       		.uleb128 0x1b
 4487 1cd1 B11F0000 		.4byte	.LASF469
 4488 1cd5 0F       		.byte	0xf
 4489 1cd6 3D07     		.2byte	0x73d
 4490 1cd8 97120000 		.4byte	0x1297
 4491 1cdc 1B       		.uleb128 0x1b
 4492 1cdd 47220000 		.4byte	.LASF470
 4493 1ce1 0F       		.byte	0xf
 4494 1ce2 4307     		.2byte	0x743
 4495 1ce4 631E0000 		.4byte	0x1e63
 4496 1ce8 1B       		.uleb128 0x1b
 4497 1ce9 E2190000 		.4byte	.LASF471
 4498 1ced 0F       		.byte	0xf
 4499 1cee 4907     		.2byte	0x749
 4500 1cf0 631E0000 		.4byte	0x1e63
 4501 1cf4 1B       		.uleb128 0x1b
 4502 1cf5 B70F0000 		.4byte	.LASF279
 4503 1cf9 0F       		.byte	0xf
 4504 1cfa 4F07     		.2byte	0x74f
 4505 1cfc 0C0A0000 		.4byte	0xa0c
 4506 1d00 1B       		.uleb128 0x1b
 4507 1d01 94150000 		.4byte	.LASF274
 4508 1d05 0F       		.byte	0xf
 4509 1d06 5507     		.2byte	0x755
 4510 1d08 320A0000 		.4byte	0xa32
 4511 1d0c 1B       		.uleb128 0x1b
 4512 1d0d BE1B0000 		.4byte	.LASF275
 4513 1d11 0F       		.byte	0xf
 4514 1d12 5B07     		.2byte	0x75b
 4515 1d14 320A0000 		.4byte	0xa32
 4516 1d18 1B       		.uleb128 0x1b
 4517 1d19 CC1B0000 		.4byte	.LASF276
 4518 1d1d 0F       		.byte	0xf
 4519 1d1e 6107     		.2byte	0x761
 4520 1d20 320A0000 		.4byte	0xa32
 4521 1d24 1B       		.uleb128 0x1b
 4522 1d25 E0170000 		.4byte	.LASF277
 4523 1d29 0F       		.byte	0xf
 4524 1d2a 6707     		.2byte	0x767
 4525 1d2c 320A0000 		.4byte	0xa32
 4526 1d30 1B       		.uleb128 0x1b
 4527 1d31 F1170000 		.4byte	.LASF278
 4528 1d35 0F       		.byte	0xf
 4529 1d36 6D07     		.2byte	0x76d
 4530 1d38 320A0000 		.4byte	0xa32
 4531 1d3c 1B       		.uleb128 0x1b
 4532 1d3d 0A050000 		.4byte	.LASF472
 4533 1d41 0F       		.byte	0xf
ARM GAS  C:\Users\EBANO_~1\AppData\Local\Temp\ccis3phW.s 			page 109


 4534 1d42 7307     		.2byte	0x773
 4535 1d44 010A0000 		.4byte	0xa01
 4536 1d48 1B       		.uleb128 0x1b
 4537 1d49 39070000 		.4byte	.LASF271
 4538 1d4d 0F       		.byte	0xf
 4539 1d4e 7907     		.2byte	0x779
 4540 1d50 010A0000 		.4byte	0xa01
 4541 1d54 1B       		.uleb128 0x1b
 4542 1d55 08180000 		.4byte	.LASF473
 4543 1d59 0F       		.byte	0xf
 4544 1d5a 7F07     		.2byte	0x77f
 4545 1d5c 010A0000 		.4byte	0xa01
 4546 1d60 1B       		.uleb128 0x1b
 4547 1d61 DA1B0000 		.4byte	.LASF270
 4548 1d65 0F       		.byte	0xf
 4549 1d66 8507     		.2byte	0x785
 4550 1d68 010A0000 		.4byte	0xa01
 4551 1d6c 1B       		.uleb128 0x1b
 4552 1d6d D9160000 		.4byte	.LASF474
 4553 1d71 0F       		.byte	0xf
 4554 1d72 8B07     		.2byte	0x78b
 4555 1d74 69150000 		.4byte	0x1569
 4556 1d78 1B       		.uleb128 0x1b
 4557 1d79 90140000 		.4byte	.LASF272
 4558 1d7d 0F       		.byte	0xf
 4559 1d7e 9107     		.2byte	0x791
 4560 1d80 320A0000 		.4byte	0xa32
 4561 1d84 1B       		.uleb128 0x1b
 4562 1d85 30120000 		.4byte	.LASF273
 4563 1d89 0F       		.byte	0xf
 4564 1d8a 9707     		.2byte	0x797
 4565 1d8c 0C0A0000 		.4byte	0xa0c
 4566 1d90 1B       		.uleb128 0x1b
 4567 1d91 84160000 		.4byte	.LASF285
 4568 1d95 0F       		.byte	0xf
 4569 1d96 9D07     		.2byte	0x79d
 4570 1d98 BA090000 		.4byte	0x9ba
 4571 1d9c 1B       		.uleb128 0x1b
 4572 1d9d 8D250000 		.4byte	.LASF475
 4573 1da1 0F       		.byte	0xf
 4574 1da2 A307     		.2byte	0x7a3
 4575 1da4 BA090000 		.4byte	0x9ba
 4576 1da8 1B       		.uleb128 0x1b
 4577 1da9 E7130000 		.4byte	.LASF476
 4578 1dad 0F       		.byte	0xf
 4579 1dae A907     		.2byte	0x7a9
 4580 1db0 691E0000 		.4byte	0x1e69
 4581 1db4 1B       		.uleb128 0x1b
 4582 1db5 F3200000 		.4byte	.LASF477
 4583 1db9 0F       		.byte	0xf
 4584 1dba AF07     		.2byte	0x7af
 4585 1dbc 360B0000 		.4byte	0xb36
 4586 1dc0 1B       		.uleb128 0x1b
 4587 1dc1 A0250000 		.4byte	.LASF478
 4588 1dc5 0F       		.byte	0xf
 4589 1dc6 B507     		.2byte	0x7b5
 4590 1dc8 320A0000 		.4byte	0xa32
ARM GAS  C:\Users\EBANO_~1\AppData\Local\Temp\ccis3phW.s 			page 110


 4591 1dcc 1B       		.uleb128 0x1b
 4592 1dcd 1E0D0000 		.4byte	.LASF479
 4593 1dd1 0F       		.byte	0xf
 4594 1dd2 BB07     		.2byte	0x7bb
 4595 1dd4 320A0000 		.4byte	0xa32
 4596 1dd8 1B       		.uleb128 0x1b
 4597 1dd9 91040000 		.4byte	.LASF480
 4598 1ddd 0F       		.byte	0xf
 4599 1dde C107     		.2byte	0x7c1
 4600 1de0 320A0000 		.4byte	0xa32
 4601 1de4 1B       		.uleb128 0x1b
 4602 1de5 D9240000 		.4byte	.LASF481
 4603 1de9 0F       		.byte	0xf
 4604 1dea C707     		.2byte	0x7c7
 4605 1dec 320A0000 		.4byte	0xa32
 4606 1df0 1B       		.uleb128 0x1b
 4607 1df1 2E0E0000 		.4byte	.LASF482
 4608 1df5 0F       		.byte	0xf
 4609 1df6 CD07     		.2byte	0x7cd
 4610 1df8 320A0000 		.4byte	0xa32
 4611 1dfc 1B       		.uleb128 0x1b
 4612 1dfd 10240000 		.4byte	.LASF483
 4613 1e01 0F       		.byte	0xf
 4614 1e02 D307     		.2byte	0x7d3
 4615 1e04 320A0000 		.4byte	0xa32
 4616 1e08 1B       		.uleb128 0x1b
 4617 1e09 5C1C0000 		.4byte	.LASF484
 4618 1e0d 0F       		.byte	0xf
 4619 1e0e D907     		.2byte	0x7d9
 4620 1e10 320A0000 		.4byte	0xa32
 4621 1e14 1B       		.uleb128 0x1b
 4622 1e15 90160000 		.4byte	.LASF485
 4623 1e19 0F       		.byte	0xf
 4624 1e1a DF07     		.2byte	0x7df
 4625 1e1c 320A0000 		.4byte	0xa32
 4626 1e20 1B       		.uleb128 0x1b
 4627 1e21 A0150000 		.4byte	.LASF486
 4628 1e25 0F       		.byte	0xf
 4629 1e26 E507     		.2byte	0x7e5
 4630 1e28 320A0000 		.4byte	0xa32
 4631 1e2c 1B       		.uleb128 0x1b
 4632 1e2d 8B260000 		.4byte	.LASF487
 4633 1e31 0F       		.byte	0xf
 4634 1e32 EC07     		.2byte	0x7ec
 4635 1e34 320A0000 		.4byte	0xa32
 4636 1e38 1B       		.uleb128 0x1b
 4637 1e39 93080000 		.4byte	.LASF488
 4638 1e3d 0F       		.byte	0xf
 4639 1e3e F307     		.2byte	0x7f3
 4640 1e40 320A0000 		.4byte	0xa32
 4641 1e44 1B       		.uleb128 0x1b
 4642 1e45 67020000 		.4byte	.LASF489
 4643 1e49 0F       		.byte	0xf
 4644 1e4a F907     		.2byte	0x7f9
 4645 1e4c 320A0000 		.4byte	0xa32
 4646 1e50 1B       		.uleb128 0x1b
 4647 1e51 970E0000 		.4byte	.LASF490
ARM GAS  C:\Users\EBANO_~1\AppData\Local\Temp\ccis3phW.s 			page 111


 4648 1e55 0F       		.byte	0xf
 4649 1e56 FF07     		.2byte	0x7ff
 4650 1e58 010A0000 		.4byte	0xa01
 4651 1e5c 00       		.byte	0
 4652 1e5d 05       		.uleb128 0x5
 4653 1e5e 04       		.byte	0x4
 4654 1e5f 63120000 		.4byte	0x1263
 4655 1e63 05       		.uleb128 0x5
 4656 1e64 04       		.byte	0x4
 4657 1e65 270A0000 		.4byte	0xa27
 4658 1e69 05       		.uleb128 0x5
 4659 1e6a 04       		.byte	0x4
 4660 1e6b DC130000 		.4byte	0x13dc
 4661 1e6f 07       		.uleb128 0x7
 4662 1e70 AA190000 		.4byte	.LASF491
 4663 1e74 0F       		.byte	0xf
 4664 1e75 0008     		.2byte	0x800
 4665 1e77 5B1B0000 		.4byte	0x1b5b
 4666 1e7b 18       		.uleb128 0x18
 4667 1e7c 0E260000 		.4byte	.LASF492
 4668 1e80 18       		.byte	0x18
 4669 1e81 0F       		.byte	0xf
 4670 1e82 0508     		.2byte	0x805
 4671 1e84 A71E0000 		.4byte	0x1ea7
 4672 1e88 17       		.uleb128 0x17
 4673 1e89 920D0000 		.4byte	.LASF493
 4674 1e8d 0F       		.byte	0xf
 4675 1e8e 0A08     		.2byte	0x80a
 4676 1e90 4F1B0000 		.4byte	0x1b4f
 4677 1e94 02       		.byte	0x2
 4678 1e95 23       		.byte	0x23
 4679 1e96 00       		.uleb128 0
 4680 1e97 17       		.uleb128 0x17
 4681 1e98 C10D0000 		.4byte	.LASF494
 4682 1e9c 0F       		.byte	0xf
 4683 1e9d 0F08     		.2byte	0x80f
 4684 1e9f 6F1E0000 		.4byte	0x1e6f
 4685 1ea3 02       		.byte	0x2
 4686 1ea4 23       		.byte	0x23
 4687 1ea5 04       		.uleb128 0x4
 4688 1ea6 00       		.byte	0
 4689 1ea7 07       		.uleb128 0x7
 4690 1ea8 360A0000 		.4byte	.LASF495
 4691 1eac 0F       		.byte	0xf
 4692 1ead 1008     		.2byte	0x810
 4693 1eaf 7B1E0000 		.4byte	0x1e7b
 4694 1eb3 1E       		.uleb128 0x1e
 4695 1eb4 A6050000 		.4byte	.LASF496
 4696 1eb8 07       		.byte	0x7
 4697 1eb9 01       		.byte	0x1
 4698 1eba 6D000000 		.4byte	0x6d
 4699 1ebe 0F       		.byte	0xf
 4700 1ebf 2508     		.2byte	0x825
 4701 1ec1 501F0000 		.4byte	0x1f50
 4702 1ec5 20       		.uleb128 0x20
 4703 1ec6 251C0000 		.4byte	.LASF497
 4704 1eca 00       		.byte	0
ARM GAS  C:\Users\EBANO_~1\AppData\Local\Temp\ccis3phW.s 			page 112


 4705 1ecb 20       		.uleb128 0x20
 4706 1ecc 50030000 		.4byte	.LASF498
 4707 1ed0 01       		.byte	0x1
 4708 1ed1 20       		.uleb128 0x20
 4709 1ed2 72040000 		.4byte	.LASF499
 4710 1ed6 02       		.byte	0x2
 4711 1ed7 20       		.uleb128 0x20
 4712 1ed8 290B0000 		.4byte	.LASF500
 4713 1edc 03       		.byte	0x3
 4714 1edd 20       		.uleb128 0x20
 4715 1ede 451B0000 		.4byte	.LASF501
 4716 1ee2 04       		.byte	0x4
 4717 1ee3 20       		.uleb128 0x20
 4718 1ee4 CC230000 		.4byte	.LASF502
 4719 1ee8 05       		.byte	0x5
 4720 1ee9 20       		.uleb128 0x20
 4721 1eea 40230000 		.4byte	.LASF503
 4722 1eee 06       		.byte	0x6
 4723 1eef 20       		.uleb128 0x20
 4724 1ef0 83020000 		.4byte	.LASF504
 4725 1ef4 07       		.byte	0x7
 4726 1ef5 20       		.uleb128 0x20
 4727 1ef6 DF080000 		.4byte	.LASF505
 4728 1efa 08       		.byte	0x8
 4729 1efb 20       		.uleb128 0x20
 4730 1efc 09110000 		.4byte	.LASF506
 4731 1f00 09       		.byte	0x9
 4732 1f01 20       		.uleb128 0x20
 4733 1f02 5C260000 		.4byte	.LASF507
 4734 1f06 0A       		.byte	0xa
 4735 1f07 20       		.uleb128 0x20
 4736 1f08 C3050000 		.4byte	.LASF508
 4737 1f0c 0B       		.byte	0xb
 4738 1f0d 20       		.uleb128 0x20
 4739 1f0e FF1E0000 		.4byte	.LASF509
 4740 1f12 0C       		.byte	0xc
 4741 1f13 20       		.uleb128 0x20
 4742 1f14 BA130000 		.4byte	.LASF510
 4743 1f18 0D       		.byte	0xd
 4744 1f19 20       		.uleb128 0x20
 4745 1f1a AD120000 		.4byte	.LASF511
 4746 1f1e 0E       		.byte	0xe
 4747 1f1f 20       		.uleb128 0x20
 4748 1f20 21250000 		.4byte	.LASF512
 4749 1f24 0F       		.byte	0xf
 4750 1f25 20       		.uleb128 0x20
 4751 1f26 D3220000 		.4byte	.LASF513
 4752 1f2a 10       		.byte	0x10
 4753 1f2b 20       		.uleb128 0x20
 4754 1f2c 36040000 		.4byte	.LASF514
 4755 1f30 11       		.byte	0x11
 4756 1f31 20       		.uleb128 0x20
 4757 1f32 A20C0000 		.4byte	.LASF515
 4758 1f36 12       		.byte	0x12
 4759 1f37 20       		.uleb128 0x20
 4760 1f38 970F0000 		.4byte	.LASF516
 4761 1f3c 13       		.byte	0x13
ARM GAS  C:\Users\EBANO_~1\AppData\Local\Temp\ccis3phW.s 			page 113


 4762 1f3d 20       		.uleb128 0x20
 4763 1f3e 63230000 		.4byte	.LASF517
 4764 1f42 14       		.byte	0x14
 4765 1f43 20       		.uleb128 0x20
 4766 1f44 03210000 		.4byte	.LASF518
 4767 1f48 15       		.byte	0x15
 4768 1f49 20       		.uleb128 0x20
 4769 1f4a 4B110000 		.4byte	.LASF519
 4770 1f4e 16       		.byte	0x16
 4771 1f4f 00       		.byte	0
 4772 1f50 07       		.uleb128 0x7
 4773 1f51 22230000 		.4byte	.LASF520
 4774 1f55 0F       		.byte	0xf
 4775 1f56 8508     		.2byte	0x885
 4776 1f58 B31E0000 		.4byte	0x1eb3
 4777 1f5c 1E       		.uleb128 0x1e
 4778 1f5d 0B160000 		.4byte	.LASF521
 4779 1f61 07       		.byte	0x7
 4780 1f62 01       		.byte	0x1
 4781 1f63 6D000000 		.4byte	0x6d
 4782 1f67 0F       		.byte	0xf
 4783 1f68 8A08     		.2byte	0x88a
 4784 1f6a AB1F0000 		.4byte	0x1fab
 4785 1f6e 20       		.uleb128 0x20
 4786 1f6f 26210000 		.4byte	.LASF522
 4787 1f73 00       		.byte	0
 4788 1f74 20       		.uleb128 0x20
 4789 1f75 D8150000 		.4byte	.LASF523
 4790 1f79 01       		.byte	0x1
 4791 1f7a 20       		.uleb128 0x20
 4792 1f7b FD0F0000 		.4byte	.LASF524
 4793 1f7f 02       		.byte	0x2
 4794 1f80 20       		.uleb128 0x20
 4795 1f81 101C0000 		.4byte	.LASF525
 4796 1f85 03       		.byte	0x3
 4797 1f86 20       		.uleb128 0x20
 4798 1f87 190E0000 		.4byte	.LASF526
 4799 1f8b 04       		.byte	0x4
 4800 1f8c 20       		.uleb128 0x20
 4801 1f8d 811E0000 		.4byte	.LASF527
 4802 1f91 05       		.byte	0x5
 4803 1f92 20       		.uleb128 0x20
 4804 1f93 FF060000 		.4byte	.LASF528
 4805 1f97 06       		.byte	0x6
 4806 1f98 20       		.uleb128 0x20
 4807 1f99 021A0000 		.4byte	.LASF529
 4808 1f9d 07       		.byte	0x7
 4809 1f9e 20       		.uleb128 0x20
 4810 1f9f DE200000 		.4byte	.LASF530
 4811 1fa3 08       		.byte	0x8
 4812 1fa4 20       		.uleb128 0x20
 4813 1fa5 5D210000 		.4byte	.LASF531
 4814 1fa9 09       		.byte	0x9
 4815 1faa 00       		.byte	0
 4816 1fab 07       		.uleb128 0x7
 4817 1fac A4070000 		.4byte	.LASF532
 4818 1fb0 0F       		.byte	0xf
ARM GAS  C:\Users\EBANO_~1\AppData\Local\Temp\ccis3phW.s 			page 114


 4819 1fb1 B408     		.2byte	0x8b4
 4820 1fb3 5C1F0000 		.4byte	0x1f5c
 4821 1fb7 05       		.uleb128 0x5
 4822 1fb8 04       		.byte	0x4
 4823 1fb9 6A180000 		.4byte	0x186a
 4824 1fbd 05       		.uleb128 0x5
 4825 1fbe 04       		.byte	0x4
 4826 1fbf 75190000 		.4byte	0x1975
 4827 1fc3 05       		.uleb128 0x5
 4828 1fc4 04       		.byte	0x4
 4829 1fc5 BC190000 		.4byte	0x19bc
 4830 1fc9 26       		.uleb128 0x26
 4831 1fca 01       		.byte	0x1
 4832 1fcb 270A0000 		.4byte	0xa27
 4833 1fcf 05       		.uleb128 0x5
 4834 1fd0 04       		.byte	0x4
 4835 1fd1 C91F0000 		.4byte	0x1fc9
 4836 1fd5 2A       		.uleb128 0x2a
 4837 1fd6 E6240000 		.4byte	.LASF619
 4838 1fda 0F       		.byte	0xf
 4839 1fdb 2509     		.2byte	0x925
 4840 1fdd 5A0A0000 		.4byte	0xa5a
 4841 1fe1 10       		.byte	0x10
 4842 1fe2 08       		.byte	0x8
 4843 1fe3 0A       		.byte	0xa
 4844 1fe4 0C       		.byte	0xc
 4845 1fe5 0D       		.byte	0xd
 4846 1fe6 0E       		.byte	0xe
 4847 1fe7 10       		.byte	0x10
 4848 1fe8 12       		.byte	0x12
 4849 1fe9 14       		.byte	0x14
 4850 1fea 15       		.byte	0x15
 4851 1feb 18       		.byte	0x18
 4852 1fec 1A       		.byte	0x1a
 4853 1fed 1B       		.byte	0x1b
 4854 1fee 1D       		.byte	0x1d
 4855 1fef 1E       		.byte	0x1e
 4856 1ff0 21       		.byte	0x21
 4857 1ff1 24       		.byte	0x24
 4858 1ff2 23       		.uleb128 0x23
 4859 1ff3 DE120000 		.4byte	.LASF533
 4860 1ff7 07       		.byte	0x7
 4861 1ff8 01       		.byte	0x1
 4862 1ff9 6D000000 		.4byte	0x6d
 4863 1ffd 10       		.byte	0x10
 4864 1ffe 2E       		.byte	0x2e
 4865 1fff 46200000 		.4byte	0x2046
 4866 2003 20       		.uleb128 0x20
 4867 2004 A61D0000 		.4byte	.LASF534
 4868 2008 00       		.byte	0
 4869 2009 20       		.uleb128 0x20
 4870 200a D8100000 		.4byte	.LASF535
 4871 200e 01       		.byte	0x1
 4872 200f 20       		.uleb128 0x20
 4873 2010 2A180000 		.4byte	.LASF536
 4874 2014 02       		.byte	0x2
 4875 2015 20       		.uleb128 0x20
ARM GAS  C:\Users\EBANO_~1\AppData\Local\Temp\ccis3phW.s 			page 115


 4876 2016 9E1E0000 		.4byte	.LASF537
 4877 201a 03       		.byte	0x3
 4878 201b 20       		.uleb128 0x20
 4879 201c 04150000 		.4byte	.LASF538
 4880 2020 04       		.byte	0x4
 4881 2021 20       		.uleb128 0x20
 4882 2022 4A180000 		.4byte	.LASF539
 4883 2026 05       		.byte	0x5
 4884 2027 20       		.uleb128 0x20
 4885 2028 50160000 		.4byte	.LASF540
 4886 202c 06       		.byte	0x6
 4887 202d 20       		.uleb128 0x20
 4888 202e E4040000 		.4byte	.LASF541
 4889 2032 07       		.byte	0x7
 4890 2033 20       		.uleb128 0x20
 4891 2034 E6110000 		.4byte	.LASF542
 4892 2038 08       		.byte	0x8
 4893 2039 20       		.uleb128 0x20
 4894 203a 66150000 		.4byte	.LASF543
 4895 203e 09       		.byte	0x9
 4896 203f 20       		.uleb128 0x20
 4897 2040 13170000 		.4byte	.LASF544
 4898 2044 0A       		.byte	0xa
 4899 2045 00       		.byte	0
 4900 2046 03       		.uleb128 0x3
 4901 2047 411F0000 		.4byte	.LASF545
 4902 204b 10       		.byte	0x10
 4903 204c 5E       		.byte	0x5e
 4904 204d F21F0000 		.4byte	0x1ff2
 4905 2051 23       		.uleb128 0x23
 4906 2052 64130000 		.4byte	.LASF546
 4907 2056 07       		.byte	0x7
 4908 2057 01       		.byte	0x1
 4909 2058 6D000000 		.4byte	0x6d
 4910 205c 10       		.byte	0x10
 4911 205d 63       		.byte	0x63
 4912 205e 7B200000 		.4byte	0x207b
 4913 2062 20       		.uleb128 0x20
 4914 2063 46150000 		.4byte	.LASF547
 4915 2067 00       		.byte	0
 4916 2068 20       		.uleb128 0x20
 4917 2069 6F240000 		.4byte	.LASF548
 4918 206d 01       		.byte	0x1
 4919 206e 20       		.uleb128 0x20
 4920 206f 88180000 		.4byte	.LASF549
 4921 2073 02       		.byte	0x2
 4922 2074 20       		.uleb128 0x20
 4923 2075 441E0000 		.4byte	.LASF550
 4924 2079 03       		.byte	0x3
 4925 207a 00       		.byte	0
 4926 207b 03       		.uleb128 0x3
 4927 207c 0A120000 		.4byte	.LASF551
 4928 2080 10       		.byte	0x10
 4929 2081 75       		.byte	0x75
 4930 2082 51200000 		.4byte	0x2051
 4931 2086 05       		.uleb128 0x5
 4932 2087 04       		.byte	0x4
ARM GAS  C:\Users\EBANO_~1\AppData\Local\Temp\ccis3phW.s 			page 116


 4933 2088 2D0C0000 		.4byte	0xc2d
 4934 208c 18       		.uleb128 0x18
 4935 208d B5240000 		.4byte	.LASF552
 4936 2091 08       		.byte	0x8
 4937 2092 10       		.byte	0x10
 4938 2093 0101     		.2byte	0x101
 4939 2095 B8200000 		.4byte	0x20b8
 4940 2099 17       		.uleb128 0x17
 4941 209a D20E0000 		.4byte	.LASF553
 4942 209e 10       		.byte	0x10
 4943 209f 0801     		.2byte	0x108
 4944 20a1 CF1F0000 		.4byte	0x1fcf
 4945 20a5 02       		.byte	0x2
 4946 20a6 23       		.byte	0x23
 4947 20a7 00       		.uleb128 0
 4948 20a8 17       		.uleb128 0x17
 4949 20a9 EA1D0000 		.4byte	.LASF554
 4950 20ad 10       		.byte	0x10
 4951 20ae 0F01     		.2byte	0x10f
 4952 20b0 30030000 		.4byte	0x330
 4953 20b4 02       		.byte	0x2
 4954 20b5 23       		.byte	0x23
 4955 20b6 04       		.uleb128 0x4
 4956 20b7 00       		.byte	0
 4957 20b8 07       		.uleb128 0x7
 4958 20b9 B2170000 		.4byte	.LASF555
 4959 20bd 10       		.byte	0x10
 4960 20be 1001     		.2byte	0x110
 4961 20c0 8C200000 		.4byte	0x208c
 4962 20c4 18       		.uleb128 0x18
 4963 20c5 8A000000 		.4byte	.LASF556
 4964 20c9 20       		.byte	0x20
 4965 20ca 10       		.byte	0x10
 4966 20cb 1501     		.2byte	0x115
 4967 20cd 4A210000 		.4byte	0x214a
 4968 20d1 17       		.uleb128 0x17
 4969 20d2 0B040000 		.4byte	.LASF372
 4970 20d6 10       		.byte	0x10
 4971 20d7 1A01     		.2byte	0x11a
 4972 20d9 C31F0000 		.4byte	0x1fc3
 4973 20dd 02       		.byte	0x2
 4974 20de 23       		.byte	0x23
 4975 20df 00       		.uleb128 0
 4976 20e0 17       		.uleb128 0x17
 4977 20e1 7C260000 		.4byte	.LASF332
 4978 20e5 10       		.byte	0x10
 4979 20e6 1E01     		.2byte	0x11e
 4980 20e8 B71F0000 		.4byte	0x1fb7
 4981 20ec 02       		.byte	0x2
 4982 20ed 23       		.byte	0x23
 4983 20ee 04       		.uleb128 0x4
 4984 20ef 17       		.uleb128 0x17
 4985 20f0 011B0000 		.4byte	.LASF557
 4986 20f4 10       		.byte	0x10
 4987 20f5 2201     		.2byte	0x122
 4988 20f7 BD1F0000 		.4byte	0x1fbd
 4989 20fb 02       		.byte	0x2
ARM GAS  C:\Users\EBANO_~1\AppData\Local\Temp\ccis3phW.s 			page 117


 4990 20fc 23       		.byte	0x23
 4991 20fd 08       		.uleb128 0x8
 4992 20fe 17       		.uleb128 0x17
 4993 20ff 251E0000 		.4byte	.LASF558
 4994 2103 10       		.byte	0x10
 4995 2104 2601     		.2byte	0x126
 4996 2106 4A210000 		.4byte	0x214a
 4997 210a 02       		.byte	0x2
 4998 210b 23       		.byte	0x23
 4999 210c 0C       		.uleb128 0xc
 5000 210d 17       		.uleb128 0x17
 5001 210e E60F0000 		.4byte	.LASF559
 5002 2112 10       		.byte	0x10
 5003 2113 2A01     		.2byte	0x12a
 5004 2115 270C0000 		.4byte	0xc27
 5005 2119 02       		.byte	0x2
 5006 211a 23       		.byte	0x23
 5007 211b 10       		.uleb128 0x10
 5008 211c 17       		.uleb128 0x17
 5009 211d FB120000 		.4byte	.LASF560
 5010 2121 10       		.byte	0x10
 5011 2122 2E01     		.2byte	0x12e
 5012 2124 50210000 		.4byte	0x2150
 5013 2128 02       		.byte	0x2
 5014 2129 23       		.byte	0x23
 5015 212a 14       		.uleb128 0x14
 5016 212b 17       		.uleb128 0x17
 5017 212c 940C0000 		.4byte	.LASF561
 5018 2130 10       		.byte	0x10
 5019 2131 3201     		.2byte	0x132
 5020 2133 56210000 		.4byte	0x2156
 5021 2137 02       		.byte	0x2
 5022 2138 23       		.byte	0x23
 5023 2139 18       		.uleb128 0x18
 5024 213a 17       		.uleb128 0x17
 5025 213b 24040000 		.4byte	.LASF562
 5026 213f 10       		.byte	0x10
 5027 2140 3601     		.2byte	0x136
 5028 2142 86200000 		.4byte	0x2086
 5029 2146 02       		.byte	0x2
 5030 2147 23       		.byte	0x23
 5031 2148 1C       		.uleb128 0x1c
 5032 2149 00       		.byte	0
 5033 214a 05       		.uleb128 0x5
 5034 214b 04       		.byte	0x4
 5035 214c 38170000 		.4byte	0x1738
 5036 2150 05       		.uleb128 0x5
 5037 2151 04       		.byte	0x4
 5038 2152 AB1F0000 		.4byte	0x1fab
 5039 2156 05       		.uleb128 0x5
 5040 2157 04       		.byte	0x4
 5041 2158 F5140000 		.4byte	0x14f5
 5042 215c 07       		.uleb128 0x7
 5043 215d 36270000 		.4byte	.LASF563
 5044 2161 10       		.byte	0x10
 5045 2162 3701     		.2byte	0x137
 5046 2164 C4200000 		.4byte	0x20c4
ARM GAS  C:\Users\EBANO_~1\AppData\Local\Temp\ccis3phW.s 			page 118


 5047 2168 2B       		.uleb128 0x2b
 5048 2169 01       		.byte	0x1
 5049 216a AC0D0000 		.4byte	.LASF564
 5050 216e 01       		.byte	0x1
 5051 216f 8206     		.2byte	0x682
 5052 2171 01       		.byte	0x1
 5053 2172 2C       		.uleb128 0x2c
 5054 2173 01       		.byte	0x1
 5055 2174 14070000 		.4byte	.LASF584
 5056 2178 01       		.byte	0x1
 5057 2179 7706     		.2byte	0x677
 5058 217b 01       		.byte	0x1
 5059 217c 8D210000 		.4byte	0x218d
 5060 2180 2D       		.uleb128 0x2d
 5061 2181 12080000 		.4byte	.LASF578
 5062 2185 01       		.byte	0x1
 5063 2186 7706     		.2byte	0x677
 5064 2188 86200000 		.4byte	0x2086
 5065 218c 00       		.byte	0
 5066 218d 2B       		.uleb128 0x2b
 5067 218e 01       		.byte	0x1
 5068 218f 2B1B0000 		.4byte	.LASF565
 5069 2193 01       		.byte	0x1
 5070 2194 6506     		.2byte	0x665
 5071 2196 01       		.byte	0x1
 5072 2197 2B       		.uleb128 0x2b
 5073 2198 01       		.byte	0x1
 5074 2199 580C0000 		.4byte	.LASF566
 5075 219d 01       		.byte	0x1
 5076 219e 5806     		.2byte	0x658
 5077 21a0 01       		.byte	0x1
 5078 21a1 2E       		.uleb128 0x2e
 5079 21a2 01       		.byte	0x1
 5080 21a3 DD010000 		.4byte	.LASF567
 5081 21a7 01       		.byte	0x1
 5082 21a8 4106     		.2byte	0x641
 5083 21aa 01       		.byte	0x1
 5084 21ab C30A0000 		.4byte	0xac3
 5085 21af 00000000 		.4byte	.LFB66
 5086 21b3 04000000 		.4byte	.LFE66
 5087 21b7 02       		.byte	0x2
 5088 21b8 7D       		.byte	0x7d
 5089 21b9 00       		.sleb128 0
 5090 21ba 01       		.byte	0x1
 5091 21bb D0210000 		.4byte	0x21d0
 5092 21bf 2F       		.uleb128 0x2f
 5093 21c0 C7160000 		.4byte	.LASF569
 5094 21c4 01       		.byte	0x1
 5095 21c5 4106     		.2byte	0x641
 5096 21c7 C30A0000 		.4byte	0xac3
 5097 21cb 00000000 		.4byte	.LLST7
 5098 21cf 00       		.byte	0
 5099 21d0 2E       		.uleb128 0x2e
 5100 21d1 01       		.byte	0x1
 5101 21d2 F30E0000 		.4byte	.LASF568
 5102 21d6 01       		.byte	0x1
 5103 21d7 2906     		.2byte	0x629
ARM GAS  C:\Users\EBANO_~1\AppData\Local\Temp\ccis3phW.s 			page 119


 5104 21d9 01       		.byte	0x1
 5105 21da 410B0000 		.4byte	0xb41
 5106 21de 00000000 		.4byte	.LFB65
 5107 21e2 04000000 		.4byte	.LFE65
 5108 21e6 02       		.byte	0x2
 5109 21e7 7D       		.byte	0x7d
 5110 21e8 00       		.sleb128 0
 5111 21e9 01       		.byte	0x1
 5112 21ea FF210000 		.4byte	0x21ff
 5113 21ee 2F       		.uleb128 0x2f
 5114 21ef 17250000 		.4byte	.LASF570
 5115 21f3 01       		.byte	0x1
 5116 21f4 2906     		.2byte	0x629
 5117 21f6 320A0000 		.4byte	0xa32
 5118 21fa 21000000 		.4byte	.LLST6
 5119 21fe 00       		.byte	0
 5120 21ff 2B       		.uleb128 0x2b
 5121 2200 01       		.byte	0x1
 5122 2201 721C0000 		.4byte	.LASF571
 5123 2205 01       		.byte	0x1
 5124 2206 0006     		.2byte	0x600
 5125 2208 01       		.byte	0x1
 5126 2209 30       		.uleb128 0x30
 5127 220a 01       		.byte	0x1
 5128 220b C31F0000 		.4byte	.LASF611
 5129 220f 01       		.byte	0x1
 5130 2210 E205     		.2byte	0x5e2
 5131 2212 01       		.byte	0x1
 5132 2213 00000000 		.4byte	.LFB63
 5133 2217 02000000 		.4byte	.LFE63
 5134 221b 02       		.byte	0x2
 5135 221c 7D       		.byte	0x7d
 5136 221d 00       		.sleb128 0
 5137 221e 01       		.byte	0x1
 5138 221f 4E220000 		.4byte	0x224e
 5139 2223 31       		.uleb128 0x31
 5140 2224 B8140000 		.4byte	.LASF572
 5141 2228 01       		.byte	0x1
 5142 2229 E205     		.2byte	0x5e2
 5143 222b 270A0000 		.4byte	0xa27
 5144 222f 01       		.byte	0x1
 5145 2230 50       		.byte	0x50
 5146 2231 31       		.uleb128 0x31
 5147 2232 5C100000 		.4byte	.LASF573
 5148 2236 01       		.byte	0x1
 5149 2237 E205     		.2byte	0x5e2
 5150 2239 0C0A0000 		.4byte	0xa0c
 5151 223d 01       		.byte	0x1
 5152 223e 51       		.byte	0x51
 5153 223f 31       		.uleb128 0x31
 5154 2240 95130000 		.4byte	.LASF574
 5155 2244 01       		.byte	0x1
 5156 2245 E205     		.2byte	0x5e2
 5157 2247 C30A0000 		.4byte	0xac3
 5158 224b 01       		.byte	0x1
 5159 224c 52       		.byte	0x52
 5160 224d 00       		.byte	0
ARM GAS  C:\Users\EBANO_~1\AppData\Local\Temp\ccis3phW.s 			page 120


 5161 224e 2E       		.uleb128 0x2e
 5162 224f 01       		.byte	0x1
 5163 2250 FC010000 		.4byte	.LASF575
 5164 2254 01       		.byte	0x1
 5165 2255 B405     		.2byte	0x5b4
 5166 2257 01       		.byte	0x1
 5167 2258 0C0A0000 		.4byte	0xa0c
 5168 225c 00000000 		.4byte	.LFB62
 5169 2260 04000000 		.4byte	.LFE62
 5170 2264 02       		.byte	0x2
 5171 2265 7D       		.byte	0x7d
 5172 2266 00       		.sleb128 0
 5173 2267 01       		.byte	0x1
 5174 2268 8B220000 		.4byte	0x228b
 5175 226c 2F       		.uleb128 0x2f
 5176 226d 00000000 		.4byte	.LASF576
 5177 2271 01       		.byte	0x1
 5178 2272 B405     		.2byte	0x5b4
 5179 2274 0C0A0000 		.4byte	0xa0c
 5180 2278 42000000 		.4byte	.LLST5
 5181 227c 31       		.uleb128 0x31
 5182 227d 17250000 		.4byte	.LASF570
 5183 2281 01       		.byte	0x1
 5184 2282 B405     		.2byte	0x5b4
 5185 2284 320A0000 		.4byte	0xa32
 5186 2288 01       		.byte	0x1
 5187 2289 51       		.byte	0x51
 5188 228a 00       		.byte	0
 5189 228b 2B       		.uleb128 0x2b
 5190 228c 01       		.byte	0x1
 5191 228d 661B0000 		.4byte	.LASF577
 5192 2291 01       		.byte	0x1
 5193 2292 A905     		.2byte	0x5a9
 5194 2294 01       		.byte	0x1
 5195 2295 32       		.uleb128 0x32
 5196 2296 01       		.byte	0x1
 5197 2297 9D040000 		.4byte	.LASF599
 5198 229b 01       		.byte	0x1
 5199 229c 9005     		.2byte	0x590
 5200 229e 01       		.byte	0x1
 5201 229f 501F0000 		.4byte	0x1f50
 5202 22a3 B4220000 		.4byte	0x22b4
 5203 22a7 2D       		.uleb128 0x2d
 5204 22a8 C70D0000 		.4byte	.LASF579
 5205 22ac 01       		.byte	0x1
 5206 22ad 9005     		.2byte	0x590
 5207 22af B4220000 		.4byte	0x22b4
 5208 22b3 00       		.byte	0
 5209 22b4 05       		.uleb128 0x5
 5210 22b5 04       		.byte	0x4
 5211 22b6 A71E0000 		.4byte	0x1ea7
 5212 22ba 33       		.uleb128 0x33
 5213 22bb 01       		.byte	0x1
 5214 22bc E6210000 		.4byte	.LASF620
 5215 22c0 01       		.byte	0x1
 5216 22c1 7805     		.2byte	0x578
 5217 22c3 01       		.byte	0x1
ARM GAS  C:\Users\EBANO_~1\AppData\Local\Temp\ccis3phW.s 			page 121


 5218 22c4 501F0000 		.4byte	0x1f50
 5219 22c8 01       		.byte	0x1
 5220 22c9 DA220000 		.4byte	0x22da
 5221 22cd 2D       		.uleb128 0x2d
 5222 22ce EE060000 		.4byte	.LASF580
 5223 22d2 01       		.byte	0x1
 5224 22d3 7805     		.2byte	0x578
 5225 22d5 B4220000 		.4byte	0x22b4
 5226 22d9 00       		.byte	0
 5227 22da 2E       		.uleb128 0x2e
 5228 22db 01       		.byte	0x1
 5229 22dc 1D0A0000 		.4byte	.LASF581
 5230 22e0 01       		.byte	0x1
 5231 22e1 5F05     		.2byte	0x55f
 5232 22e3 01       		.byte	0x1
 5233 22e4 501F0000 		.4byte	0x1f50
 5234 22e8 00000000 		.4byte	.LFB58
 5235 22ec 04000000 		.4byte	.LFE58
 5236 22f0 02       		.byte	0x2
 5237 22f1 7D       		.byte	0x7d
 5238 22f2 00       		.sleb128 0
 5239 22f3 01       		.byte	0x1
 5240 22f4 09230000 		.4byte	0x2309
 5241 22f8 2F       		.uleb128 0x2f
 5242 22f9 73130000 		.4byte	.LASF582
 5243 22fd 01       		.byte	0x1
 5244 22fe 5F05     		.2byte	0x55f
 5245 2300 87110000 		.4byte	0x1187
 5246 2304 63000000 		.4byte	.LLST3
 5247 2308 00       		.byte	0
 5248 2309 2B       		.uleb128 0x2b
 5249 230a 01       		.byte	0x1
 5250 230b 1D0F0000 		.4byte	.LASF583
 5251 230f 01       		.byte	0x1
 5252 2310 4905     		.2byte	0x549
 5253 2312 01       		.byte	0x1
 5254 2313 34       		.uleb128 0x34
 5255 2314 01       		.byte	0x1
 5256 2315 4C020000 		.4byte	.LASF587
 5257 2319 01       		.byte	0x1
 5258 231a 2B05     		.2byte	0x52b
 5259 231c 01       		.byte	0x1
 5260 231d 01       		.byte	0x1
 5261 231e 2C       		.uleb128 0x2c
 5262 231f 01       		.byte	0x1
 5263 2320 BF040000 		.4byte	.LASF585
 5264 2324 01       		.byte	0x1
 5265 2325 2205     		.2byte	0x522
 5266 2327 01       		.byte	0x1
 5267 2328 39230000 		.4byte	0x2339
 5268 232c 2D       		.uleb128 0x2d
 5269 232d 7C1F0000 		.4byte	.LASF586
 5270 2331 01       		.byte	0x1
 5271 2332 2205     		.2byte	0x522
 5272 2334 0C0A0000 		.4byte	0xa0c
 5273 2338 00       		.byte	0
 5274 2339 35       		.uleb128 0x35
ARM GAS  C:\Users\EBANO_~1\AppData\Local\Temp\ccis3phW.s 			page 122


 5275 233a 01       		.byte	0x1
 5276 233b 090B0000 		.4byte	.LASF588
 5277 233f 01       		.byte	0x1
 5278 2340 1405     		.2byte	0x514
 5279 2342 01       		.byte	0x1
 5280 2343 410B0000 		.4byte	0xb41
 5281 2347 35       		.uleb128 0x35
 5282 2348 01       		.byte	0x1
 5283 2349 AF060000 		.4byte	.LASF589
 5284 234d 01       		.byte	0x1
 5285 234e 0705     		.2byte	0x507
 5286 2350 01       		.byte	0x1
 5287 2351 410B0000 		.4byte	0xb41
 5288 2355 35       		.uleb128 0x35
 5289 2356 01       		.byte	0x1
 5290 2357 76030000 		.4byte	.LASF590
 5291 235b 01       		.byte	0x1
 5292 235c FA04     		.2byte	0x4fa
 5293 235e 01       		.byte	0x1
 5294 235f 410B0000 		.4byte	0xb41
 5295 2363 35       		.uleb128 0x35
 5296 2364 01       		.byte	0x1
 5297 2365 48200000 		.4byte	.LASF591
 5298 2369 01       		.byte	0x1
 5299 236a ED04     		.2byte	0x4ed
 5300 236c 01       		.byte	0x1
 5301 236d 410B0000 		.4byte	0xb41
 5302 2371 35       		.uleb128 0x35
 5303 2372 01       		.byte	0x1
 5304 2373 23080000 		.4byte	.LASF592
 5305 2377 01       		.byte	0x1
 5306 2378 DF04     		.2byte	0x4df
 5307 237a 01       		.byte	0x1
 5308 237b 410B0000 		.4byte	0xb41
 5309 237f 2E       		.uleb128 0x2e
 5310 2380 01       		.byte	0x1
 5311 2381 151B0000 		.4byte	.LASF593
 5312 2385 01       		.byte	0x1
 5313 2386 8204     		.2byte	0x482
 5314 2388 01       		.byte	0x1
 5315 2389 410B0000 		.4byte	0xb41
 5316 238d 00000000 		.4byte	.LFB49
 5317 2391 04000000 		.4byte	.LFE49
 5318 2395 02       		.byte	0x2
 5319 2396 7D       		.byte	0x7d
 5320 2397 00       		.sleb128 0
 5321 2398 01       		.byte	0x1
 5322 2399 BC230000 		.4byte	0x23bc
 5323 239d 2F       		.uleb128 0x2f
 5324 239e D0000000 		.4byte	.LASF594
 5325 23a2 01       		.byte	0x1
 5326 23a3 8204     		.2byte	0x482
 5327 23a5 B00A0000 		.4byte	0xab0
 5328 23a9 84000000 		.4byte	.LLST2
 5329 23ad 31       		.uleb128 0x31
 5330 23ae A70D0000 		.4byte	.LASF595
 5331 23b2 01       		.byte	0x1
ARM GAS  C:\Users\EBANO_~1\AppData\Local\Temp\ccis3phW.s 			page 123


 5332 23b3 8204     		.2byte	0x482
 5333 23b5 270A0000 		.4byte	0xa27
 5334 23b9 01       		.byte	0x1
 5335 23ba 51       		.byte	0x51
 5336 23bb 00       		.byte	0
 5337 23bc 2C       		.uleb128 0x2c
 5338 23bd 01       		.byte	0x1
 5339 23be 88200000 		.4byte	.LASF596
 5340 23c2 01       		.byte	0x1
 5341 23c3 E503     		.2byte	0x3e5
 5342 23c5 01       		.byte	0x1
 5343 23c6 D7230000 		.4byte	0x23d7
 5344 23ca 2D       		.uleb128 0x2d
 5345 23cb D6120000 		.4byte	.LASF597
 5346 23cf 01       		.byte	0x1
 5347 23d0 E503     		.2byte	0x3e5
 5348 23d2 5B010000 		.4byte	0x15b
 5349 23d6 00       		.byte	0
 5350 23d7 2C       		.uleb128 0x2c
 5351 23d8 01       		.byte	0x1
 5352 23d9 79190000 		.4byte	.LASF598
 5353 23dd 01       		.byte	0x1
 5354 23de 7503     		.2byte	0x375
 5355 23e0 01       		.byte	0x1
 5356 23e1 F2230000 		.4byte	0x23f2
 5357 23e5 2D       		.uleb128 0x2d
 5358 23e6 D6120000 		.4byte	.LASF597
 5359 23ea 01       		.byte	0x1
 5360 23eb 7503     		.2byte	0x375
 5361 23ed 5B010000 		.4byte	0x15b
 5362 23f1 00       		.byte	0
 5363 23f2 36       		.uleb128 0x36
 5364 23f3 01       		.byte	0x1
 5365 23f4 37130000 		.4byte	.LASF600
 5366 23f8 01       		.byte	0x1
 5367 23f9 8402     		.2byte	0x284
 5368 23fb 01       		.byte	0x1
 5369 23fc 01       		.byte	0x1
 5370 23fd 0E240000 		.4byte	0x240e
 5371 2401 2D       		.uleb128 0x2d
 5372 2402 D6120000 		.4byte	.LASF597
 5373 2406 01       		.byte	0x1
 5374 2407 8402     		.2byte	0x284
 5375 2409 5B010000 		.4byte	0x15b
 5376 240d 00       		.byte	0
 5377 240e 37       		.uleb128 0x37
 5378 240f 01       		.byte	0x1
 5379 2410 08220000 		.4byte	.LASF621
 5380 2414 01       		.byte	0x1
 5381 2415 6F02     		.2byte	0x26f
 5382 2417 01       		.byte	0x1
 5383 2418 410B0000 		.4byte	0xb41
 5384 241c 01       		.byte	0x1
 5385 241d 2C       		.uleb128 0x2c
 5386 241e 01       		.byte	0x1
 5387 241f 3A240000 		.4byte	.LASF601
 5388 2423 01       		.byte	0x1
ARM GAS  C:\Users\EBANO_~1\AppData\Local\Temp\ccis3phW.s 			page 124


 5389 2424 6702     		.2byte	0x267
 5390 2426 01       		.byte	0x1
 5391 2427 38240000 		.4byte	0x2438
 5392 242b 2D       		.uleb128 0x2d
 5393 242c 9A1C0000 		.4byte	.LASF602
 5394 2430 01       		.byte	0x1
 5395 2431 6702     		.2byte	0x267
 5396 2433 7B200000 		.4byte	0x207b
 5397 2437 00       		.byte	0
 5398 2438 2C       		.uleb128 0x2c
 5399 2439 01       		.byte	0x1
 5400 243a 18270000 		.4byte	.LASF603
 5401 243e 01       		.byte	0x1
 5402 243f 5F02     		.2byte	0x25f
 5403 2441 01       		.byte	0x1
 5404 2442 53240000 		.4byte	0x2453
 5405 2446 2D       		.uleb128 0x2d
 5406 2447 D1070000 		.4byte	.LASF604
 5407 244b 01       		.byte	0x1
 5408 244c 5F02     		.2byte	0x25f
 5409 244e 7B200000 		.4byte	0x207b
 5410 2452 00       		.byte	0
 5411 2453 36       		.uleb128 0x36
 5412 2454 01       		.byte	0x1
 5413 2455 37140000 		.4byte	.LASF605
 5414 2459 01       		.byte	0x1
 5415 245a 4002     		.2byte	0x240
 5416 245c 01       		.byte	0x1
 5417 245d 01       		.byte	0x1
 5418 245e 6F240000 		.4byte	0x246f
 5419 2462 2D       		.uleb128 0x2d
 5420 2463 AF250000 		.4byte	.LASF606
 5421 2467 01       		.byte	0x1
 5422 2468 4002     		.2byte	0x240
 5423 246a 46200000 		.4byte	0x2046
 5424 246e 00       		.byte	0
 5425 246f 2E       		.uleb128 0x2e
 5426 2470 01       		.byte	0x1
 5427 2471 EB0A0000 		.4byte	.LASF607
 5428 2475 01       		.byte	0x1
 5429 2476 3502     		.2byte	0x235
 5430 2478 01       		.byte	0x1
 5431 2479 5B010000 		.4byte	0x15b
 5432 247d 00000000 		.4byte	.LFB41
 5433 2481 08000000 		.4byte	.LFE41
 5434 2485 02       		.byte	0x2
 5435 2486 7D       		.byte	0x7d
 5436 2487 00       		.sleb128 0
 5437 2488 01       		.byte	0x1
 5438 2489 9E240000 		.4byte	0x249e
 5439 248d 2F       		.uleb128 0x2f
 5440 248e EF050000 		.4byte	.LASF608
 5441 2492 01       		.byte	0x1
 5442 2493 3502     		.2byte	0x235
 5443 2495 9E240000 		.4byte	0x249e
 5444 2499 A5000000 		.4byte	.LLST1
 5445 249d 00       		.byte	0
ARM GAS  C:\Users\EBANO_~1\AppData\Local\Temp\ccis3phW.s 			page 125


 5446 249e 05       		.uleb128 0x5
 5447 249f 04       		.byte	0x4
 5448 24a0 30000000 		.4byte	0x30
 5449 24a4 2E       		.uleb128 0x2e
 5450 24a5 01       		.byte	0x1
 5451 24a6 C3200000 		.4byte	.LASF609
 5452 24aa 01       		.byte	0x1
 5453 24ab 2302     		.2byte	0x223
 5454 24ad 01       		.byte	0x1
 5455 24ae 410B0000 		.4byte	0xb41
 5456 24b2 00000000 		.4byte	.LFB40
 5457 24b6 04000000 		.4byte	.LFE40
 5458 24ba 02       		.byte	0x2
 5459 24bb 7D       		.byte	0x7d
 5460 24bc 00       		.sleb128 0
 5461 24bd 01       		.byte	0x1
 5462 24be D3240000 		.4byte	0x24d3
 5463 24c2 2F       		.uleb128 0x2f
 5464 24c3 E8000000 		.4byte	.LASF610
 5465 24c7 01       		.byte	0x1
 5466 24c8 2302     		.2byte	0x223
 5467 24ca 5B010000 		.4byte	0x15b
 5468 24ce C6000000 		.4byte	.LLST0
 5469 24d2 00       		.byte	0
 5470 24d3 30       		.uleb128 0x30
 5471 24d4 01       		.byte	0x1
 5472 24d5 D8030000 		.4byte	.LASF612
 5473 24d9 01       		.byte	0x1
 5474 24da 0B02     		.2byte	0x20b
 5475 24dc 01       		.byte	0x1
 5476 24dd 00000000 		.4byte	.LFB39
 5477 24e1 02000000 		.4byte	.LFE39
 5478 24e5 02       		.byte	0x2
 5479 24e6 7D       		.byte	0x7d
 5480 24e7 00       		.sleb128 0
 5481 24e8 01       		.byte	0x1
 5482 24e9 18250000 		.4byte	0x2518
 5483 24ed 31       		.uleb128 0x31
 5484 24ee D3170000 		.4byte	.LASF613
 5485 24f2 01       		.byte	0x1
 5486 24f3 0B02     		.2byte	0x20b
 5487 24f5 18250000 		.4byte	0x2518
 5488 24f9 01       		.byte	0x1
 5489 24fa 50       		.byte	0x50
 5490 24fb 31       		.uleb128 0x31
 5491 24fc 0E270000 		.4byte	.LASF614
 5492 2500 01       		.byte	0x1
 5493 2501 0B02     		.2byte	0x20b
 5494 2503 1E250000 		.4byte	0x251e
 5495 2507 01       		.byte	0x1
 5496 2508 51       		.byte	0x51
 5497 2509 31       		.uleb128 0x31
 5498 250a 80060000 		.4byte	.LASF615
 5499 250e 01       		.byte	0x1
 5500 250f 0B02     		.2byte	0x20b
 5501 2511 390C0000 		.4byte	0xc39
 5502 2515 01       		.byte	0x1
ARM GAS  C:\Users\EBANO_~1\AppData\Local\Temp\ccis3phW.s 			page 126


 5503 2516 52       		.byte	0x52
 5504 2517 00       		.byte	0
 5505 2518 05       		.uleb128 0x5
 5506 2519 04       		.byte	0x4
 5507 251a 5C210000 		.4byte	0x215c
 5508 251e 05       		.uleb128 0x5
 5509 251f 04       		.byte	0x4
 5510 2520 B8200000 		.4byte	0x20b8
 5511 2524 38       		.uleb128 0x38
 5512 2525 53240000 		.4byte	0x2453
 5513 2529 00000000 		.4byte	.LFB42
 5514 252d 02000000 		.4byte	.LFE42
 5515 2531 02       		.byte	0x2
 5516 2532 7D       		.byte	0x7d
 5517 2533 00       		.sleb128 0
 5518 2534 01       		.byte	0x1
 5519 2535 41250000 		.4byte	0x2541
 5520 2539 39       		.uleb128 0x39
 5521 253a 62240000 		.4byte	0x2462
 5522 253e 01       		.byte	0x1
 5523 253f 50       		.byte	0x50
 5524 2540 00       		.byte	0
 5525 2541 3A       		.uleb128 0x3a
 5526 2542 0E240000 		.4byte	0x240e
 5527 2546 00000000 		.4byte	.LFB45
 5528 254a 04000000 		.4byte	.LFE45
 5529 254e 02       		.byte	0x2
 5530 254f 7D       		.byte	0x7d
 5531 2550 00       		.sleb128 0
 5532 2551 01       		.byte	0x1
 5533 2552 38       		.uleb128 0x38
 5534 2553 F2230000 		.4byte	0x23f2
 5535 2557 00000000 		.4byte	.LFB46
 5536 255b 02000000 		.4byte	.LFE46
 5537 255f 02       		.byte	0x2
 5538 2560 7D       		.byte	0x7d
 5539 2561 00       		.sleb128 0
 5540 2562 01       		.byte	0x1
 5541 2563 6F250000 		.4byte	0x256f
 5542 2567 39       		.uleb128 0x39
 5543 2568 01240000 		.4byte	0x2401
 5544 256c 01       		.byte	0x1
 5545 256d 50       		.byte	0x50
 5546 256e 00       		.byte	0
 5547 256f 3A       		.uleb128 0x3a
 5548 2570 13230000 		.4byte	0x2313
 5549 2574 00000000 		.4byte	.LFB56
 5550 2578 02000000 		.4byte	.LFE56
 5551 257c 02       		.byte	0x2
 5552 257d 7D       		.byte	0x7d
 5553 257e 00       		.sleb128 0
 5554 257f 01       		.byte	0x1
 5555 2580 3B       		.uleb128 0x3b
 5556 2581 BA220000 		.4byte	0x22ba
 5557 2585 00000000 		.4byte	.LFB59
 5558 2589 04000000 		.4byte	.LFE59
 5559 258d 02       		.byte	0x2
ARM GAS  C:\Users\EBANO_~1\AppData\Local\Temp\ccis3phW.s 			page 127


 5560 258e 7D       		.byte	0x7d
 5561 258f 00       		.sleb128 0
 5562 2590 01       		.byte	0x1
 5563 2591 3C       		.uleb128 0x3c
 5564 2592 CD220000 		.4byte	0x22cd
 5565 2596 E7000000 		.4byte	.LLST4
 5566 259a 00       		.byte	0
 5567 259b 00       		.byte	0
 5568              		.section	.debug_abbrev,"",%progbits
 5569              	.Ldebug_abbrev0:
 5570 0000 01       		.uleb128 0x1
 5571 0001 11       		.uleb128 0x11
 5572 0002 01       		.byte	0x1
 5573 0003 25       		.uleb128 0x25
 5574 0004 0E       		.uleb128 0xe
 5575 0005 13       		.uleb128 0x13
 5576 0006 0B       		.uleb128 0xb
 5577 0007 03       		.uleb128 0x3
 5578 0008 0E       		.uleb128 0xe
 5579 0009 1B       		.uleb128 0x1b
 5580 000a 0E       		.uleb128 0xe
 5581 000b 55       		.uleb128 0x55
 5582 000c 06       		.uleb128 0x6
 5583 000d 11       		.uleb128 0x11
 5584 000e 01       		.uleb128 0x1
 5585 000f 52       		.uleb128 0x52
 5586 0010 01       		.uleb128 0x1
 5587 0011 10       		.uleb128 0x10
 5588 0012 06       		.uleb128 0x6
 5589 0013 00       		.byte	0
 5590 0014 00       		.byte	0
 5591 0015 02       		.uleb128 0x2
 5592 0016 24       		.uleb128 0x24
 5593 0017 00       		.byte	0
 5594 0018 0B       		.uleb128 0xb
 5595 0019 0B       		.uleb128 0xb
 5596 001a 3E       		.uleb128 0x3e
 5597 001b 0B       		.uleb128 0xb
 5598 001c 03       		.uleb128 0x3
 5599 001d 08       		.uleb128 0x8
 5600 001e 00       		.byte	0
 5601 001f 00       		.byte	0
 5602 0020 03       		.uleb128 0x3
 5603 0021 16       		.uleb128 0x16
 5604 0022 00       		.byte	0
 5605 0023 03       		.uleb128 0x3
 5606 0024 0E       		.uleb128 0xe
 5607 0025 3A       		.uleb128 0x3a
 5608 0026 0B       		.uleb128 0xb
 5609 0027 3B       		.uleb128 0x3b
 5610 0028 0B       		.uleb128 0xb
 5611 0029 49       		.uleb128 0x49
 5612 002a 13       		.uleb128 0x13
 5613 002b 00       		.byte	0
 5614 002c 00       		.byte	0
 5615 002d 04       		.uleb128 0x4
 5616 002e 24       		.uleb128 0x24
ARM GAS  C:\Users\EBANO_~1\AppData\Local\Temp\ccis3phW.s 			page 128


 5617 002f 00       		.byte	0
 5618 0030 0B       		.uleb128 0xb
 5619 0031 0B       		.uleb128 0xb
 5620 0032 3E       		.uleb128 0x3e
 5621 0033 0B       		.uleb128 0xb
 5622 0034 03       		.uleb128 0x3
 5623 0035 0E       		.uleb128 0xe
 5624 0036 00       		.byte	0
 5625 0037 00       		.byte	0
 5626 0038 05       		.uleb128 0x5
 5627 0039 0F       		.uleb128 0xf
 5628 003a 00       		.byte	0
 5629 003b 0B       		.uleb128 0xb
 5630 003c 0B       		.uleb128 0xb
 5631 003d 49       		.uleb128 0x49
 5632 003e 13       		.uleb128 0x13
 5633 003f 00       		.byte	0
 5634 0040 00       		.byte	0
 5635 0041 06       		.uleb128 0x6
 5636 0042 13       		.uleb128 0x13
 5637 0043 00       		.byte	0
 5638 0044 03       		.uleb128 0x3
 5639 0045 0E       		.uleb128 0xe
 5640 0046 3C       		.uleb128 0x3c
 5641 0047 0C       		.uleb128 0xc
 5642 0048 00       		.byte	0
 5643 0049 00       		.byte	0
 5644 004a 07       		.uleb128 0x7
 5645 004b 16       		.uleb128 0x16
 5646 004c 00       		.byte	0
 5647 004d 03       		.uleb128 0x3
 5648 004e 0E       		.uleb128 0xe
 5649 004f 3A       		.uleb128 0x3a
 5650 0050 0B       		.uleb128 0xb
 5651 0051 3B       		.uleb128 0x3b
 5652 0052 05       		.uleb128 0x5
 5653 0053 49       		.uleb128 0x49
 5654 0054 13       		.uleb128 0x13
 5655 0055 00       		.byte	0
 5656 0056 00       		.byte	0
 5657 0057 08       		.uleb128 0x8
 5658 0058 17       		.uleb128 0x17
 5659 0059 01       		.byte	0x1
 5660 005a 0B       		.uleb128 0xb
 5661 005b 0B       		.uleb128 0xb
 5662 005c 3A       		.uleb128 0x3a
 5663 005d 0B       		.uleb128 0xb
 5664 005e 3B       		.uleb128 0x3b
 5665 005f 0B       		.uleb128 0xb
 5666 0060 01       		.uleb128 0x1
 5667 0061 13       		.uleb128 0x13
 5668 0062 00       		.byte	0
 5669 0063 00       		.byte	0
 5670 0064 09       		.uleb128 0x9
 5671 0065 0D       		.uleb128 0xd
 5672 0066 00       		.byte	0
 5673 0067 03       		.uleb128 0x3
ARM GAS  C:\Users\EBANO_~1\AppData\Local\Temp\ccis3phW.s 			page 129


 5674 0068 0E       		.uleb128 0xe
 5675 0069 3A       		.uleb128 0x3a
 5676 006a 0B       		.uleb128 0xb
 5677 006b 3B       		.uleb128 0x3b
 5678 006c 0B       		.uleb128 0xb
 5679 006d 49       		.uleb128 0x49
 5680 006e 13       		.uleb128 0x13
 5681 006f 00       		.byte	0
 5682 0070 00       		.byte	0
 5683 0071 0A       		.uleb128 0xa
 5684 0072 01       		.uleb128 0x1
 5685 0073 01       		.byte	0x1
 5686 0074 49       		.uleb128 0x49
 5687 0075 13       		.uleb128 0x13
 5688 0076 01       		.uleb128 0x1
 5689 0077 13       		.uleb128 0x13
 5690 0078 00       		.byte	0
 5691 0079 00       		.byte	0
 5692 007a 0B       		.uleb128 0xb
 5693 007b 21       		.uleb128 0x21
 5694 007c 00       		.byte	0
 5695 007d 49       		.uleb128 0x49
 5696 007e 13       		.uleb128 0x13
 5697 007f 2F       		.uleb128 0x2f
 5698 0080 0B       		.uleb128 0xb
 5699 0081 00       		.byte	0
 5700 0082 00       		.byte	0
 5701 0083 0C       		.uleb128 0xc
 5702 0084 13       		.uleb128 0x13
 5703 0085 01       		.byte	0x1
 5704 0086 0B       		.uleb128 0xb
 5705 0087 0B       		.uleb128 0xb
 5706 0088 3A       		.uleb128 0x3a
 5707 0089 0B       		.uleb128 0xb
 5708 008a 3B       		.uleb128 0x3b
 5709 008b 0B       		.uleb128 0xb
 5710 008c 01       		.uleb128 0x1
 5711 008d 13       		.uleb128 0x13
 5712 008e 00       		.byte	0
 5713 008f 00       		.byte	0
 5714 0090 0D       		.uleb128 0xd
 5715 0091 0D       		.uleb128 0xd
 5716 0092 00       		.byte	0
 5717 0093 03       		.uleb128 0x3
 5718 0094 0E       		.uleb128 0xe
 5719 0095 3A       		.uleb128 0x3a
 5720 0096 0B       		.uleb128 0xb
 5721 0097 3B       		.uleb128 0x3b
 5722 0098 0B       		.uleb128 0xb
 5723 0099 49       		.uleb128 0x49
 5724 009a 13       		.uleb128 0x13
 5725 009b 38       		.uleb128 0x38
 5726 009c 0A       		.uleb128 0xa
 5727 009d 00       		.byte	0
 5728 009e 00       		.byte	0
 5729 009f 0E       		.uleb128 0xe
 5730 00a0 0F       		.uleb128 0xf
ARM GAS  C:\Users\EBANO_~1\AppData\Local\Temp\ccis3phW.s 			page 130


 5731 00a1 00       		.byte	0
 5732 00a2 0B       		.uleb128 0xb
 5733 00a3 0B       		.uleb128 0xb
 5734 00a4 00       		.byte	0
 5735 00a5 00       		.byte	0
 5736 00a6 0F       		.uleb128 0xf
 5737 00a7 26       		.uleb128 0x26
 5738 00a8 00       		.byte	0
 5739 00a9 49       		.uleb128 0x49
 5740 00aa 13       		.uleb128 0x13
 5741 00ab 00       		.byte	0
 5742 00ac 00       		.byte	0
 5743 00ad 10       		.uleb128 0x10
 5744 00ae 13       		.uleb128 0x13
 5745 00af 01       		.byte	0x1
 5746 00b0 03       		.uleb128 0x3
 5747 00b1 0E       		.uleb128 0xe
 5748 00b2 0B       		.uleb128 0xb
 5749 00b3 0B       		.uleb128 0xb
 5750 00b4 3A       		.uleb128 0x3a
 5751 00b5 0B       		.uleb128 0xb
 5752 00b6 3B       		.uleb128 0x3b
 5753 00b7 0B       		.uleb128 0xb
 5754 00b8 01       		.uleb128 0x1
 5755 00b9 13       		.uleb128 0x13
 5756 00ba 00       		.byte	0
 5757 00bb 00       		.byte	0
 5758 00bc 11       		.uleb128 0x11
 5759 00bd 0D       		.uleb128 0xd
 5760 00be 00       		.byte	0
 5761 00bf 03       		.uleb128 0x3
 5762 00c0 08       		.uleb128 0x8
 5763 00c1 3A       		.uleb128 0x3a
 5764 00c2 0B       		.uleb128 0xb
 5765 00c3 3B       		.uleb128 0x3b
 5766 00c4 0B       		.uleb128 0xb
 5767 00c5 49       		.uleb128 0x49
 5768 00c6 13       		.uleb128 0x13
 5769 00c7 38       		.uleb128 0x38
 5770 00c8 0A       		.uleb128 0xa
 5771 00c9 00       		.byte	0
 5772 00ca 00       		.byte	0
 5773 00cb 12       		.uleb128 0x12
 5774 00cc 13       		.uleb128 0x13
 5775 00cd 01       		.byte	0x1
 5776 00ce 03       		.uleb128 0x3
 5777 00cf 0E       		.uleb128 0xe
 5778 00d0 0B       		.uleb128 0xb
 5779 00d1 05       		.uleb128 0x5
 5780 00d2 3A       		.uleb128 0x3a
 5781 00d3 0B       		.uleb128 0xb
 5782 00d4 3B       		.uleb128 0x3b
 5783 00d5 0B       		.uleb128 0xb
 5784 00d6 01       		.uleb128 0x1
 5785 00d7 13       		.uleb128 0x13
 5786 00d8 00       		.byte	0
 5787 00d9 00       		.byte	0
ARM GAS  C:\Users\EBANO_~1\AppData\Local\Temp\ccis3phW.s 			page 131


 5788 00da 13       		.uleb128 0x13
 5789 00db 15       		.uleb128 0x15
 5790 00dc 00       		.byte	0
 5791 00dd 27       		.uleb128 0x27
 5792 00de 0C       		.uleb128 0xc
 5793 00df 00       		.byte	0
 5794 00e0 00       		.byte	0
 5795 00e1 14       		.uleb128 0x14
 5796 00e2 15       		.uleb128 0x15
 5797 00e3 01       		.byte	0x1
 5798 00e4 27       		.uleb128 0x27
 5799 00e5 0C       		.uleb128 0xc
 5800 00e6 49       		.uleb128 0x49
 5801 00e7 13       		.uleb128 0x13
 5802 00e8 01       		.uleb128 0x1
 5803 00e9 13       		.uleb128 0x13
 5804 00ea 00       		.byte	0
 5805 00eb 00       		.byte	0
 5806 00ec 15       		.uleb128 0x15
 5807 00ed 05       		.uleb128 0x5
 5808 00ee 00       		.byte	0
 5809 00ef 49       		.uleb128 0x49
 5810 00f0 13       		.uleb128 0x13
 5811 00f1 00       		.byte	0
 5812 00f2 00       		.byte	0
 5813 00f3 16       		.uleb128 0x16
 5814 00f4 13       		.uleb128 0x13
 5815 00f5 01       		.byte	0x1
 5816 00f6 03       		.uleb128 0x3
 5817 00f7 0E       		.uleb128 0xe
 5818 00f8 0B       		.uleb128 0xb
 5819 00f9 05       		.uleb128 0x5
 5820 00fa 3A       		.uleb128 0x3a
 5821 00fb 0B       		.uleb128 0xb
 5822 00fc 3B       		.uleb128 0x3b
 5823 00fd 05       		.uleb128 0x5
 5824 00fe 01       		.uleb128 0x1
 5825 00ff 13       		.uleb128 0x13
 5826 0100 00       		.byte	0
 5827 0101 00       		.byte	0
 5828 0102 17       		.uleb128 0x17
 5829 0103 0D       		.uleb128 0xd
 5830 0104 00       		.byte	0
 5831 0105 03       		.uleb128 0x3
 5832 0106 0E       		.uleb128 0xe
 5833 0107 3A       		.uleb128 0x3a
 5834 0108 0B       		.uleb128 0xb
 5835 0109 3B       		.uleb128 0x3b
 5836 010a 05       		.uleb128 0x5
 5837 010b 49       		.uleb128 0x49
 5838 010c 13       		.uleb128 0x13
 5839 010d 38       		.uleb128 0x38
 5840 010e 0A       		.uleb128 0xa
 5841 010f 00       		.byte	0
 5842 0110 00       		.byte	0
 5843 0111 18       		.uleb128 0x18
 5844 0112 13       		.uleb128 0x13
ARM GAS  C:\Users\EBANO_~1\AppData\Local\Temp\ccis3phW.s 			page 132


 5845 0113 01       		.byte	0x1
 5846 0114 03       		.uleb128 0x3
 5847 0115 0E       		.uleb128 0xe
 5848 0116 0B       		.uleb128 0xb
 5849 0117 0B       		.uleb128 0xb
 5850 0118 3A       		.uleb128 0x3a
 5851 0119 0B       		.uleb128 0xb
 5852 011a 3B       		.uleb128 0x3b
 5853 011b 05       		.uleb128 0x5
 5854 011c 01       		.uleb128 0x1
 5855 011d 13       		.uleb128 0x13
 5856 011e 00       		.byte	0
 5857 011f 00       		.byte	0
 5858 0120 19       		.uleb128 0x19
 5859 0121 13       		.uleb128 0x13
 5860 0122 01       		.byte	0x1
 5861 0123 0B       		.uleb128 0xb
 5862 0124 0B       		.uleb128 0xb
 5863 0125 3A       		.uleb128 0x3a
 5864 0126 0B       		.uleb128 0xb
 5865 0127 3B       		.uleb128 0x3b
 5866 0128 05       		.uleb128 0x5
 5867 0129 01       		.uleb128 0x1
 5868 012a 13       		.uleb128 0x13
 5869 012b 00       		.byte	0
 5870 012c 00       		.byte	0
 5871 012d 1A       		.uleb128 0x1a
 5872 012e 17       		.uleb128 0x17
 5873 012f 01       		.byte	0x1
 5874 0130 0B       		.uleb128 0xb
 5875 0131 0B       		.uleb128 0xb
 5876 0132 3A       		.uleb128 0x3a
 5877 0133 0B       		.uleb128 0xb
 5878 0134 3B       		.uleb128 0x3b
 5879 0135 05       		.uleb128 0x5
 5880 0136 01       		.uleb128 0x1
 5881 0137 13       		.uleb128 0x13
 5882 0138 00       		.byte	0
 5883 0139 00       		.byte	0
 5884 013a 1B       		.uleb128 0x1b
 5885 013b 0D       		.uleb128 0xd
 5886 013c 00       		.byte	0
 5887 013d 03       		.uleb128 0x3
 5888 013e 0E       		.uleb128 0xe
 5889 013f 3A       		.uleb128 0x3a
 5890 0140 0B       		.uleb128 0xb
 5891 0141 3B       		.uleb128 0x3b
 5892 0142 05       		.uleb128 0x5
 5893 0143 49       		.uleb128 0x49
 5894 0144 13       		.uleb128 0x13
 5895 0145 00       		.byte	0
 5896 0146 00       		.byte	0
 5897 0147 1C       		.uleb128 0x1c
 5898 0148 15       		.uleb128 0x15
 5899 0149 01       		.byte	0x1
 5900 014a 27       		.uleb128 0x27
 5901 014b 0C       		.uleb128 0xc
ARM GAS  C:\Users\EBANO_~1\AppData\Local\Temp\ccis3phW.s 			page 133


 5902 014c 01       		.uleb128 0x1
 5903 014d 13       		.uleb128 0x13
 5904 014e 00       		.byte	0
 5905 014f 00       		.byte	0
 5906 0150 1D       		.uleb128 0x1d
 5907 0151 34       		.uleb128 0x34
 5908 0152 00       		.byte	0
 5909 0153 03       		.uleb128 0x3
 5910 0154 0E       		.uleb128 0xe
 5911 0155 3A       		.uleb128 0x3a
 5912 0156 0B       		.uleb128 0xb
 5913 0157 3B       		.uleb128 0x3b
 5914 0158 05       		.uleb128 0x5
 5915 0159 49       		.uleb128 0x49
 5916 015a 13       		.uleb128 0x13
 5917 015b 3F       		.uleb128 0x3f
 5918 015c 0C       		.uleb128 0xc
 5919 015d 3C       		.uleb128 0x3c
 5920 015e 0C       		.uleb128 0xc
 5921 015f 00       		.byte	0
 5922 0160 00       		.byte	0
 5923 0161 1E       		.uleb128 0x1e
 5924 0162 04       		.uleb128 0x4
 5925 0163 01       		.byte	0x1
 5926 0164 03       		.uleb128 0x3
 5927 0165 0E       		.uleb128 0xe
 5928 0166 3E       		.uleb128 0x3e
 5929 0167 0B       		.uleb128 0xb
 5930 0168 0B       		.uleb128 0xb
 5931 0169 0B       		.uleb128 0xb
 5932 016a 49       		.uleb128 0x49
 5933 016b 13       		.uleb128 0x13
 5934 016c 3A       		.uleb128 0x3a
 5935 016d 0B       		.uleb128 0xb
 5936 016e 3B       		.uleb128 0x3b
 5937 016f 05       		.uleb128 0x5
 5938 0170 01       		.uleb128 0x1
 5939 0171 13       		.uleb128 0x13
 5940 0172 00       		.byte	0
 5941 0173 00       		.byte	0
 5942 0174 1F       		.uleb128 0x1f
 5943 0175 28       		.uleb128 0x28
 5944 0176 00       		.byte	0
 5945 0177 03       		.uleb128 0x3
 5946 0178 0E       		.uleb128 0xe
 5947 0179 1C       		.uleb128 0x1c
 5948 017a 0D       		.uleb128 0xd
 5949 017b 00       		.byte	0
 5950 017c 00       		.byte	0
 5951 017d 20       		.uleb128 0x20
 5952 017e 28       		.uleb128 0x28
 5953 017f 00       		.byte	0
 5954 0180 03       		.uleb128 0x3
 5955 0181 0E       		.uleb128 0xe
 5956 0182 1C       		.uleb128 0x1c
 5957 0183 0B       		.uleb128 0xb
 5958 0184 00       		.byte	0
ARM GAS  C:\Users\EBANO_~1\AppData\Local\Temp\ccis3phW.s 			page 134


 5959 0185 00       		.byte	0
 5960 0186 21       		.uleb128 0x21
 5961 0187 34       		.uleb128 0x34
 5962 0188 00       		.byte	0
 5963 0189 03       		.uleb128 0x3
 5964 018a 0E       		.uleb128 0xe
 5965 018b 3A       		.uleb128 0x3a
 5966 018c 0B       		.uleb128 0xb
 5967 018d 3B       		.uleb128 0x3b
 5968 018e 0B       		.uleb128 0xb
 5969 018f 49       		.uleb128 0x49
 5970 0190 13       		.uleb128 0x13
 5971 0191 3F       		.uleb128 0x3f
 5972 0192 0C       		.uleb128 0xc
 5973 0193 3C       		.uleb128 0x3c
 5974 0194 0C       		.uleb128 0xc
 5975 0195 00       		.byte	0
 5976 0196 00       		.byte	0
 5977 0197 22       		.uleb128 0x22
 5978 0198 17       		.uleb128 0x17
 5979 0199 01       		.byte	0x1
 5980 019a 03       		.uleb128 0x3
 5981 019b 0E       		.uleb128 0xe
 5982 019c 0B       		.uleb128 0xb
 5983 019d 0B       		.uleb128 0xb
 5984 019e 3A       		.uleb128 0x3a
 5985 019f 0B       		.uleb128 0xb
 5986 01a0 3B       		.uleb128 0x3b
 5987 01a1 0B       		.uleb128 0xb
 5988 01a2 01       		.uleb128 0x1
 5989 01a3 13       		.uleb128 0x13
 5990 01a4 00       		.byte	0
 5991 01a5 00       		.byte	0
 5992 01a6 23       		.uleb128 0x23
 5993 01a7 04       		.uleb128 0x4
 5994 01a8 01       		.byte	0x1
 5995 01a9 03       		.uleb128 0x3
 5996 01aa 0E       		.uleb128 0xe
 5997 01ab 3E       		.uleb128 0x3e
 5998 01ac 0B       		.uleb128 0xb
 5999 01ad 0B       		.uleb128 0xb
 6000 01ae 0B       		.uleb128 0xb
 6001 01af 49       		.uleb128 0x49
 6002 01b0 13       		.uleb128 0x13
 6003 01b1 3A       		.uleb128 0x3a
 6004 01b2 0B       		.uleb128 0xb
 6005 01b3 3B       		.uleb128 0x3b
 6006 01b4 0B       		.uleb128 0xb
 6007 01b5 01       		.uleb128 0x1
 6008 01b6 13       		.uleb128 0x13
 6009 01b7 00       		.byte	0
 6010 01b8 00       		.byte	0
 6011 01b9 24       		.uleb128 0x24
 6012 01ba 04       		.uleb128 0x4
 6013 01bb 01       		.byte	0x1
 6014 01bc 3E       		.uleb128 0x3e
 6015 01bd 0B       		.uleb128 0xb
ARM GAS  C:\Users\EBANO_~1\AppData\Local\Temp\ccis3phW.s 			page 135


 6016 01be 0B       		.uleb128 0xb
 6017 01bf 0B       		.uleb128 0xb
 6018 01c0 49       		.uleb128 0x49
 6019 01c1 13       		.uleb128 0x13
 6020 01c2 3A       		.uleb128 0x3a
 6021 01c3 0B       		.uleb128 0xb
 6022 01c4 3B       		.uleb128 0x3b
 6023 01c5 0B       		.uleb128 0xb
 6024 01c6 01       		.uleb128 0x1
 6025 01c7 13       		.uleb128 0x13
 6026 01c8 00       		.byte	0
 6027 01c9 00       		.byte	0
 6028 01ca 25       		.uleb128 0x25
 6029 01cb 0D       		.uleb128 0xd
 6030 01cc 00       		.byte	0
 6031 01cd 03       		.uleb128 0x3
 6032 01ce 08       		.uleb128 0x8
 6033 01cf 3A       		.uleb128 0x3a
 6034 01d0 0B       		.uleb128 0xb
 6035 01d1 3B       		.uleb128 0x3b
 6036 01d2 05       		.uleb128 0x5
 6037 01d3 49       		.uleb128 0x49
 6038 01d4 13       		.uleb128 0x13
 6039 01d5 38       		.uleb128 0x38
 6040 01d6 0A       		.uleb128 0xa
 6041 01d7 00       		.byte	0
 6042 01d8 00       		.byte	0
 6043 01d9 26       		.uleb128 0x26
 6044 01da 15       		.uleb128 0x15
 6045 01db 00       		.byte	0
 6046 01dc 27       		.uleb128 0x27
 6047 01dd 0C       		.uleb128 0xc
 6048 01de 49       		.uleb128 0x49
 6049 01df 13       		.uleb128 0x13
 6050 01e0 00       		.byte	0
 6051 01e1 00       		.byte	0
 6052 01e2 27       		.uleb128 0x27
 6053 01e3 0D       		.uleb128 0xd
 6054 01e4 00       		.byte	0
 6055 01e5 03       		.uleb128 0x3
 6056 01e6 08       		.uleb128 0x8
 6057 01e7 3A       		.uleb128 0x3a
 6058 01e8 0B       		.uleb128 0xb
 6059 01e9 3B       		.uleb128 0x3b
 6060 01ea 0B       		.uleb128 0xb
 6061 01eb 49       		.uleb128 0x49
 6062 01ec 13       		.uleb128 0x13
 6063 01ed 0B       		.uleb128 0xb
 6064 01ee 0B       		.uleb128 0xb
 6065 01ef 0D       		.uleb128 0xd
 6066 01f0 0B       		.uleb128 0xb
 6067 01f1 0C       		.uleb128 0xc
 6068 01f2 0B       		.uleb128 0xb
 6069 01f3 38       		.uleb128 0x38
 6070 01f4 0A       		.uleb128 0xa
 6071 01f5 00       		.byte	0
 6072 01f6 00       		.byte	0
ARM GAS  C:\Users\EBANO_~1\AppData\Local\Temp\ccis3phW.s 			page 136


 6073 01f7 28       		.uleb128 0x28
 6074 01f8 0D       		.uleb128 0xd
 6075 01f9 00       		.byte	0
 6076 01fa 03       		.uleb128 0x3
 6077 01fb 0E       		.uleb128 0xe
 6078 01fc 3A       		.uleb128 0x3a
 6079 01fd 0B       		.uleb128 0xb
 6080 01fe 3B       		.uleb128 0x3b
 6081 01ff 05       		.uleb128 0x5
 6082 0200 49       		.uleb128 0x49
 6083 0201 13       		.uleb128 0x13
 6084 0202 0B       		.uleb128 0xb
 6085 0203 0B       		.uleb128 0xb
 6086 0204 0D       		.uleb128 0xd
 6087 0205 0B       		.uleb128 0xb
 6088 0206 0C       		.uleb128 0xc
 6089 0207 0B       		.uleb128 0xb
 6090 0208 38       		.uleb128 0x38
 6091 0209 0A       		.uleb128 0xa
 6092 020a 00       		.byte	0
 6093 020b 00       		.byte	0
 6094 020c 29       		.uleb128 0x29
 6095 020d 17       		.uleb128 0x17
 6096 020e 01       		.byte	0x1
 6097 020f 03       		.uleb128 0x3
 6098 0210 0E       		.uleb128 0xe
 6099 0211 0B       		.uleb128 0xb
 6100 0212 0B       		.uleb128 0xb
 6101 0213 3A       		.uleb128 0x3a
 6102 0214 0B       		.uleb128 0xb
 6103 0215 3B       		.uleb128 0x3b
 6104 0216 05       		.uleb128 0x5
 6105 0217 01       		.uleb128 0x1
 6106 0218 13       		.uleb128 0x13
 6107 0219 00       		.byte	0
 6108 021a 00       		.byte	0
 6109 021b 2A       		.uleb128 0x2a
 6110 021c 34       		.uleb128 0x34
 6111 021d 00       		.byte	0
 6112 021e 03       		.uleb128 0x3
 6113 021f 0E       		.uleb128 0xe
 6114 0220 3A       		.uleb128 0x3a
 6115 0221 0B       		.uleb128 0xb
 6116 0222 3B       		.uleb128 0x3b
 6117 0223 05       		.uleb128 0x5
 6118 0224 49       		.uleb128 0x49
 6119 0225 13       		.uleb128 0x13
 6120 0226 1C       		.uleb128 0x1c
 6121 0227 0A       		.uleb128 0xa
 6122 0228 00       		.byte	0
 6123 0229 00       		.byte	0
 6124 022a 2B       		.uleb128 0x2b
 6125 022b 2E       		.uleb128 0x2e
 6126 022c 00       		.byte	0
 6127 022d 3F       		.uleb128 0x3f
 6128 022e 0C       		.uleb128 0xc
 6129 022f 03       		.uleb128 0x3
ARM GAS  C:\Users\EBANO_~1\AppData\Local\Temp\ccis3phW.s 			page 137


 6130 0230 0E       		.uleb128 0xe
 6131 0231 3A       		.uleb128 0x3a
 6132 0232 0B       		.uleb128 0xb
 6133 0233 3B       		.uleb128 0x3b
 6134 0234 05       		.uleb128 0x5
 6135 0235 27       		.uleb128 0x27
 6136 0236 0C       		.uleb128 0xc
 6137 0237 00       		.byte	0
 6138 0238 00       		.byte	0
 6139 0239 2C       		.uleb128 0x2c
 6140 023a 2E       		.uleb128 0x2e
 6141 023b 01       		.byte	0x1
 6142 023c 3F       		.uleb128 0x3f
 6143 023d 0C       		.uleb128 0xc
 6144 023e 03       		.uleb128 0x3
 6145 023f 0E       		.uleb128 0xe
 6146 0240 3A       		.uleb128 0x3a
 6147 0241 0B       		.uleb128 0xb
 6148 0242 3B       		.uleb128 0x3b
 6149 0243 05       		.uleb128 0x5
 6150 0244 27       		.uleb128 0x27
 6151 0245 0C       		.uleb128 0xc
 6152 0246 01       		.uleb128 0x1
 6153 0247 13       		.uleb128 0x13
 6154 0248 00       		.byte	0
 6155 0249 00       		.byte	0
 6156 024a 2D       		.uleb128 0x2d
 6157 024b 05       		.uleb128 0x5
 6158 024c 00       		.byte	0
 6159 024d 03       		.uleb128 0x3
 6160 024e 0E       		.uleb128 0xe
 6161 024f 3A       		.uleb128 0x3a
 6162 0250 0B       		.uleb128 0xb
 6163 0251 3B       		.uleb128 0x3b
 6164 0252 05       		.uleb128 0x5
 6165 0253 49       		.uleb128 0x49
 6166 0254 13       		.uleb128 0x13
 6167 0255 00       		.byte	0
 6168 0256 00       		.byte	0
 6169 0257 2E       		.uleb128 0x2e
 6170 0258 2E       		.uleb128 0x2e
 6171 0259 01       		.byte	0x1
 6172 025a 3F       		.uleb128 0x3f
 6173 025b 0C       		.uleb128 0xc
 6174 025c 03       		.uleb128 0x3
 6175 025d 0E       		.uleb128 0xe
 6176 025e 3A       		.uleb128 0x3a
 6177 025f 0B       		.uleb128 0xb
 6178 0260 3B       		.uleb128 0x3b
 6179 0261 05       		.uleb128 0x5
 6180 0262 27       		.uleb128 0x27
 6181 0263 0C       		.uleb128 0xc
 6182 0264 49       		.uleb128 0x49
 6183 0265 13       		.uleb128 0x13
 6184 0266 11       		.uleb128 0x11
 6185 0267 01       		.uleb128 0x1
 6186 0268 12       		.uleb128 0x12
ARM GAS  C:\Users\EBANO_~1\AppData\Local\Temp\ccis3phW.s 			page 138


 6187 0269 01       		.uleb128 0x1
 6188 026a 40       		.uleb128 0x40
 6189 026b 0A       		.uleb128 0xa
 6190 026c 9742     		.uleb128 0x2117
 6191 026e 0C       		.uleb128 0xc
 6192 026f 01       		.uleb128 0x1
 6193 0270 13       		.uleb128 0x13
 6194 0271 00       		.byte	0
 6195 0272 00       		.byte	0
 6196 0273 2F       		.uleb128 0x2f
 6197 0274 05       		.uleb128 0x5
 6198 0275 00       		.byte	0
 6199 0276 03       		.uleb128 0x3
 6200 0277 0E       		.uleb128 0xe
 6201 0278 3A       		.uleb128 0x3a
 6202 0279 0B       		.uleb128 0xb
 6203 027a 3B       		.uleb128 0x3b
 6204 027b 05       		.uleb128 0x5
 6205 027c 49       		.uleb128 0x49
 6206 027d 13       		.uleb128 0x13
 6207 027e 02       		.uleb128 0x2
 6208 027f 06       		.uleb128 0x6
 6209 0280 00       		.byte	0
 6210 0281 00       		.byte	0
 6211 0282 30       		.uleb128 0x30
 6212 0283 2E       		.uleb128 0x2e
 6213 0284 01       		.byte	0x1
 6214 0285 3F       		.uleb128 0x3f
 6215 0286 0C       		.uleb128 0xc
 6216 0287 03       		.uleb128 0x3
 6217 0288 0E       		.uleb128 0xe
 6218 0289 3A       		.uleb128 0x3a
 6219 028a 0B       		.uleb128 0xb
 6220 028b 3B       		.uleb128 0x3b
 6221 028c 05       		.uleb128 0x5
 6222 028d 27       		.uleb128 0x27
 6223 028e 0C       		.uleb128 0xc
 6224 028f 11       		.uleb128 0x11
 6225 0290 01       		.uleb128 0x1
 6226 0291 12       		.uleb128 0x12
 6227 0292 01       		.uleb128 0x1
 6228 0293 40       		.uleb128 0x40
 6229 0294 0A       		.uleb128 0xa
 6230 0295 9742     		.uleb128 0x2117
 6231 0297 0C       		.uleb128 0xc
 6232 0298 01       		.uleb128 0x1
 6233 0299 13       		.uleb128 0x13
 6234 029a 00       		.byte	0
 6235 029b 00       		.byte	0
 6236 029c 31       		.uleb128 0x31
 6237 029d 05       		.uleb128 0x5
 6238 029e 00       		.byte	0
 6239 029f 03       		.uleb128 0x3
 6240 02a0 0E       		.uleb128 0xe
 6241 02a1 3A       		.uleb128 0x3a
 6242 02a2 0B       		.uleb128 0xb
 6243 02a3 3B       		.uleb128 0x3b
ARM GAS  C:\Users\EBANO_~1\AppData\Local\Temp\ccis3phW.s 			page 139


 6244 02a4 05       		.uleb128 0x5
 6245 02a5 49       		.uleb128 0x49
 6246 02a6 13       		.uleb128 0x13
 6247 02a7 02       		.uleb128 0x2
 6248 02a8 0A       		.uleb128 0xa
 6249 02a9 00       		.byte	0
 6250 02aa 00       		.byte	0
 6251 02ab 32       		.uleb128 0x32
 6252 02ac 2E       		.uleb128 0x2e
 6253 02ad 01       		.byte	0x1
 6254 02ae 3F       		.uleb128 0x3f
 6255 02af 0C       		.uleb128 0xc
 6256 02b0 03       		.uleb128 0x3
 6257 02b1 0E       		.uleb128 0xe
 6258 02b2 3A       		.uleb128 0x3a
 6259 02b3 0B       		.uleb128 0xb
 6260 02b4 3B       		.uleb128 0x3b
 6261 02b5 05       		.uleb128 0x5
 6262 02b6 27       		.uleb128 0x27
 6263 02b7 0C       		.uleb128 0xc
 6264 02b8 49       		.uleb128 0x49
 6265 02b9 13       		.uleb128 0x13
 6266 02ba 01       		.uleb128 0x1
 6267 02bb 13       		.uleb128 0x13
 6268 02bc 00       		.byte	0
 6269 02bd 00       		.byte	0
 6270 02be 33       		.uleb128 0x33
 6271 02bf 2E       		.uleb128 0x2e
 6272 02c0 01       		.byte	0x1
 6273 02c1 3F       		.uleb128 0x3f
 6274 02c2 0C       		.uleb128 0xc
 6275 02c3 03       		.uleb128 0x3
 6276 02c4 0E       		.uleb128 0xe
 6277 02c5 3A       		.uleb128 0x3a
 6278 02c6 0B       		.uleb128 0xb
 6279 02c7 3B       		.uleb128 0x3b
 6280 02c8 05       		.uleb128 0x5
 6281 02c9 27       		.uleb128 0x27
 6282 02ca 0C       		.uleb128 0xc
 6283 02cb 49       		.uleb128 0x49
 6284 02cc 13       		.uleb128 0x13
 6285 02cd 20       		.uleb128 0x20
 6286 02ce 0B       		.uleb128 0xb
 6287 02cf 01       		.uleb128 0x1
 6288 02d0 13       		.uleb128 0x13
 6289 02d1 00       		.byte	0
 6290 02d2 00       		.byte	0
 6291 02d3 34       		.uleb128 0x34
 6292 02d4 2E       		.uleb128 0x2e
 6293 02d5 00       		.byte	0
 6294 02d6 3F       		.uleb128 0x3f
 6295 02d7 0C       		.uleb128 0xc
 6296 02d8 03       		.uleb128 0x3
 6297 02d9 0E       		.uleb128 0xe
 6298 02da 3A       		.uleb128 0x3a
 6299 02db 0B       		.uleb128 0xb
 6300 02dc 3B       		.uleb128 0x3b
ARM GAS  C:\Users\EBANO_~1\AppData\Local\Temp\ccis3phW.s 			page 140


 6301 02dd 05       		.uleb128 0x5
 6302 02de 27       		.uleb128 0x27
 6303 02df 0C       		.uleb128 0xc
 6304 02e0 20       		.uleb128 0x20
 6305 02e1 0B       		.uleb128 0xb
 6306 02e2 00       		.byte	0
 6307 02e3 00       		.byte	0
 6308 02e4 35       		.uleb128 0x35
 6309 02e5 2E       		.uleb128 0x2e
 6310 02e6 00       		.byte	0
 6311 02e7 3F       		.uleb128 0x3f
 6312 02e8 0C       		.uleb128 0xc
 6313 02e9 03       		.uleb128 0x3
 6314 02ea 0E       		.uleb128 0xe
 6315 02eb 3A       		.uleb128 0x3a
 6316 02ec 0B       		.uleb128 0xb
 6317 02ed 3B       		.uleb128 0x3b
 6318 02ee 05       		.uleb128 0x5
 6319 02ef 27       		.uleb128 0x27
 6320 02f0 0C       		.uleb128 0xc
 6321 02f1 49       		.uleb128 0x49
 6322 02f2 13       		.uleb128 0x13
 6323 02f3 00       		.byte	0
 6324 02f4 00       		.byte	0
 6325 02f5 36       		.uleb128 0x36
 6326 02f6 2E       		.uleb128 0x2e
 6327 02f7 01       		.byte	0x1
 6328 02f8 3F       		.uleb128 0x3f
 6329 02f9 0C       		.uleb128 0xc
 6330 02fa 03       		.uleb128 0x3
 6331 02fb 0E       		.uleb128 0xe
 6332 02fc 3A       		.uleb128 0x3a
 6333 02fd 0B       		.uleb128 0xb
 6334 02fe 3B       		.uleb128 0x3b
 6335 02ff 05       		.uleb128 0x5
 6336 0300 27       		.uleb128 0x27
 6337 0301 0C       		.uleb128 0xc
 6338 0302 20       		.uleb128 0x20
 6339 0303 0B       		.uleb128 0xb
 6340 0304 01       		.uleb128 0x1
 6341 0305 13       		.uleb128 0x13
 6342 0306 00       		.byte	0
 6343 0307 00       		.byte	0
 6344 0308 37       		.uleb128 0x37
 6345 0309 2E       		.uleb128 0x2e
 6346 030a 00       		.byte	0
 6347 030b 3F       		.uleb128 0x3f
 6348 030c 0C       		.uleb128 0xc
 6349 030d 03       		.uleb128 0x3
 6350 030e 0E       		.uleb128 0xe
 6351 030f 3A       		.uleb128 0x3a
 6352 0310 0B       		.uleb128 0xb
 6353 0311 3B       		.uleb128 0x3b
 6354 0312 05       		.uleb128 0x5
 6355 0313 27       		.uleb128 0x27
 6356 0314 0C       		.uleb128 0xc
 6357 0315 49       		.uleb128 0x49
ARM GAS  C:\Users\EBANO_~1\AppData\Local\Temp\ccis3phW.s 			page 141


 6358 0316 13       		.uleb128 0x13
 6359 0317 20       		.uleb128 0x20
 6360 0318 0B       		.uleb128 0xb
 6361 0319 00       		.byte	0
 6362 031a 00       		.byte	0
 6363 031b 38       		.uleb128 0x38
 6364 031c 2E       		.uleb128 0x2e
 6365 031d 01       		.byte	0x1
 6366 031e 31       		.uleb128 0x31
 6367 031f 13       		.uleb128 0x13
 6368 0320 11       		.uleb128 0x11
 6369 0321 01       		.uleb128 0x1
 6370 0322 12       		.uleb128 0x12
 6371 0323 01       		.uleb128 0x1
 6372 0324 40       		.uleb128 0x40
 6373 0325 0A       		.uleb128 0xa
 6374 0326 9742     		.uleb128 0x2117
 6375 0328 0C       		.uleb128 0xc
 6376 0329 01       		.uleb128 0x1
 6377 032a 13       		.uleb128 0x13
 6378 032b 00       		.byte	0
 6379 032c 00       		.byte	0
 6380 032d 39       		.uleb128 0x39
 6381 032e 05       		.uleb128 0x5
 6382 032f 00       		.byte	0
 6383 0330 31       		.uleb128 0x31
 6384 0331 13       		.uleb128 0x13
 6385 0332 02       		.uleb128 0x2
 6386 0333 0A       		.uleb128 0xa
 6387 0334 00       		.byte	0
 6388 0335 00       		.byte	0
 6389 0336 3A       		.uleb128 0x3a
 6390 0337 2E       		.uleb128 0x2e
 6391 0338 00       		.byte	0
 6392 0339 31       		.uleb128 0x31
 6393 033a 13       		.uleb128 0x13
 6394 033b 11       		.uleb128 0x11
 6395 033c 01       		.uleb128 0x1
 6396 033d 12       		.uleb128 0x12
 6397 033e 01       		.uleb128 0x1
 6398 033f 40       		.uleb128 0x40
 6399 0340 0A       		.uleb128 0xa
 6400 0341 9742     		.uleb128 0x2117
 6401 0343 0C       		.uleb128 0xc
 6402 0344 00       		.byte	0
 6403 0345 00       		.byte	0
 6404 0346 3B       		.uleb128 0x3b
 6405 0347 2E       		.uleb128 0x2e
 6406 0348 01       		.byte	0x1
 6407 0349 31       		.uleb128 0x31
 6408 034a 13       		.uleb128 0x13
 6409 034b 11       		.uleb128 0x11
 6410 034c 01       		.uleb128 0x1
 6411 034d 12       		.uleb128 0x12
 6412 034e 01       		.uleb128 0x1
 6413 034f 40       		.uleb128 0x40
 6414 0350 0A       		.uleb128 0xa
ARM GAS  C:\Users\EBANO_~1\AppData\Local\Temp\ccis3phW.s 			page 142


 6415 0351 9742     		.uleb128 0x2117
 6416 0353 0C       		.uleb128 0xc
 6417 0354 00       		.byte	0
 6418 0355 00       		.byte	0
 6419 0356 3C       		.uleb128 0x3c
 6420 0357 05       		.uleb128 0x5
 6421 0358 00       		.byte	0
 6422 0359 31       		.uleb128 0x31
 6423 035a 13       		.uleb128 0x13
 6424 035b 02       		.uleb128 0x2
 6425 035c 06       		.uleb128 0x6
 6426 035d 00       		.byte	0
 6427 035e 00       		.byte	0
 6428 035f 00       		.byte	0
 6429              		.section	.debug_loc,"",%progbits
 6430              	.Ldebug_loc0:
 6431              	.LLST7:
 6432 0000 00000000 		.4byte	.LVL18
 6433 0004 02000000 		.4byte	.LVL19
 6434 0008 0100     		.2byte	0x1
 6435 000a 50       		.byte	0x50
 6436 000b 02000000 		.4byte	.LVL19
 6437 000f 04000000 		.4byte	.LFE66
 6438 0013 0400     		.2byte	0x4
 6439 0015 F3       		.byte	0xf3
 6440 0016 01       		.uleb128 0x1
 6441 0017 50       		.byte	0x50
 6442 0018 9F       		.byte	0x9f
 6443 0019 00000000 		.4byte	0
 6444 001d 00000000 		.4byte	0
 6445              	.LLST6:
 6446 0021 00000000 		.4byte	.LVL16
 6447 0025 02000000 		.4byte	.LVL17
 6448 0029 0100     		.2byte	0x1
 6449 002b 50       		.byte	0x50
 6450 002c 02000000 		.4byte	.LVL17
 6451 0030 04000000 		.4byte	.LFE65
 6452 0034 0400     		.2byte	0x4
 6453 0036 F3       		.byte	0xf3
 6454 0037 01       		.uleb128 0x1
 6455 0038 50       		.byte	0x50
 6456 0039 9F       		.byte	0x9f
 6457 003a 00000000 		.4byte	0
 6458 003e 00000000 		.4byte	0
 6459              	.LLST5:
 6460 0042 00000000 		.4byte	.LVL13
 6461 0046 02000000 		.4byte	.LVL14
 6462 004a 0100     		.2byte	0x1
 6463 004c 50       		.byte	0x50
 6464 004d 02000000 		.4byte	.LVL14
 6465 0051 04000000 		.4byte	.LFE62
 6466 0055 0400     		.2byte	0x4
 6467 0057 F3       		.byte	0xf3
 6468 0058 01       		.uleb128 0x1
 6469 0059 50       		.byte	0x50
 6470 005a 9F       		.byte	0x9f
 6471 005b 00000000 		.4byte	0
ARM GAS  C:\Users\EBANO_~1\AppData\Local\Temp\ccis3phW.s 			page 143


 6472 005f 00000000 		.4byte	0
 6473              	.LLST3:
 6474 0063 00000000 		.4byte	.LVL9
 6475 0067 02000000 		.4byte	.LVL10
 6476 006b 0100     		.2byte	0x1
 6477 006d 50       		.byte	0x50
 6478 006e 02000000 		.4byte	.LVL10
 6479 0072 04000000 		.4byte	.LFE58
 6480 0076 0400     		.2byte	0x4
 6481 0078 F3       		.byte	0xf3
 6482 0079 01       		.uleb128 0x1
 6483 007a 50       		.byte	0x50
 6484 007b 9F       		.byte	0x9f
 6485 007c 00000000 		.4byte	0
 6486 0080 00000000 		.4byte	0
 6487              	.LLST2:
 6488 0084 00000000 		.4byte	.LVL7
 6489 0088 02000000 		.4byte	.LVL8
 6490 008c 0100     		.2byte	0x1
 6491 008e 50       		.byte	0x50
 6492 008f 02000000 		.4byte	.LVL8
 6493 0093 04000000 		.4byte	.LFE49
 6494 0097 0400     		.2byte	0x4
 6495 0099 F3       		.byte	0xf3
 6496 009a 01       		.uleb128 0x1
 6497 009b 50       		.byte	0x50
 6498 009c 9F       		.byte	0x9f
 6499 009d 00000000 		.4byte	0
 6500 00a1 00000000 		.4byte	0
 6501              	.LLST1:
 6502 00a5 00000000 		.4byte	.LVL3
 6503 00a9 06000000 		.4byte	.LVL4
 6504 00ad 0100     		.2byte	0x1
 6505 00af 50       		.byte	0x50
 6506 00b0 06000000 		.4byte	.LVL4
 6507 00b4 08000000 		.4byte	.LFE41
 6508 00b8 0400     		.2byte	0x4
 6509 00ba F3       		.byte	0xf3
 6510 00bb 01       		.uleb128 0x1
 6511 00bc 50       		.byte	0x50
 6512 00bd 9F       		.byte	0x9f
 6513 00be 00000000 		.4byte	0
 6514 00c2 00000000 		.4byte	0
 6515              	.LLST0:
 6516 00c6 00000000 		.4byte	.LVL1
 6517 00ca 02000000 		.4byte	.LVL2
 6518 00ce 0100     		.2byte	0x1
 6519 00d0 50       		.byte	0x50
 6520 00d1 02000000 		.4byte	.LVL2
 6521 00d5 04000000 		.4byte	.LFE40
 6522 00d9 0400     		.2byte	0x4
 6523 00db F3       		.byte	0xf3
 6524 00dc 01       		.uleb128 0x1
 6525 00dd 50       		.byte	0x50
 6526 00de 9F       		.byte	0x9f
 6527 00df 00000000 		.4byte	0
 6528 00e3 00000000 		.4byte	0
ARM GAS  C:\Users\EBANO_~1\AppData\Local\Temp\ccis3phW.s 			page 144


 6529              	.LLST4:
 6530 00e7 00000000 		.4byte	.LVL11
 6531 00eb 02000000 		.4byte	.LVL12
 6532 00ef 0100     		.2byte	0x1
 6533 00f1 50       		.byte	0x50
 6534 00f2 02000000 		.4byte	.LVL12
 6535 00f6 04000000 		.4byte	.LFE59
 6536 00fa 0400     		.2byte	0x4
 6537 00fc F3       		.byte	0xf3
 6538 00fd 01       		.uleb128 0x1
 6539 00fe 50       		.byte	0x50
 6540 00ff 9F       		.byte	0x9f
 6541 0100 00000000 		.4byte	0
 6542 0104 00000000 		.4byte	0
 6543              		.section	.debug_aranges,"",%progbits
 6544 0000 84000000 		.4byte	0x84
 6545 0004 0200     		.2byte	0x2
 6546 0006 00000000 		.4byte	.Ldebug_info0
 6547 000a 04       		.byte	0x4
 6548 000b 00       		.byte	0
 6549 000c 0000     		.2byte	0
 6550 000e 0000     		.2byte	0
 6551 0010 00000000 		.4byte	.LFB39
 6552 0014 02000000 		.4byte	.LFE39-.LFB39
 6553 0018 00000000 		.4byte	.LFB40
 6554 001c 04000000 		.4byte	.LFE40-.LFB40
 6555 0020 00000000 		.4byte	.LFB41
 6556 0024 08000000 		.4byte	.LFE41-.LFB41
 6557 0028 00000000 		.4byte	.LFB42
 6558 002c 02000000 		.4byte	.LFE42-.LFB42
 6559 0030 00000000 		.4byte	.LFB45
 6560 0034 04000000 		.4byte	.LFE45-.LFB45
 6561 0038 00000000 		.4byte	.LFB46
 6562 003c 02000000 		.4byte	.LFE46-.LFB46
 6563 0040 00000000 		.4byte	.LFB49
 6564 0044 04000000 		.4byte	.LFE49-.LFB49
 6565 0048 00000000 		.4byte	.LFB56
 6566 004c 02000000 		.4byte	.LFE56-.LFB56
 6567 0050 00000000 		.4byte	.LFB58
 6568 0054 04000000 		.4byte	.LFE58-.LFB58
 6569 0058 00000000 		.4byte	.LFB59
 6570 005c 04000000 		.4byte	.LFE59-.LFB59
 6571 0060 00000000 		.4byte	.LFB62
 6572 0064 04000000 		.4byte	.LFE62-.LFB62
 6573 0068 00000000 		.4byte	.LFB63
 6574 006c 02000000 		.4byte	.LFE63-.LFB63
 6575 0070 00000000 		.4byte	.LFB65
 6576 0074 04000000 		.4byte	.LFE65-.LFB65
 6577 0078 00000000 		.4byte	.LFB66
 6578 007c 04000000 		.4byte	.LFE66-.LFB66
 6579 0080 00000000 		.4byte	0
 6580 0084 00000000 		.4byte	0
 6581              		.section	.debug_ranges,"",%progbits
 6582              	.Ldebug_ranges0:
 6583 0000 00000000 		.4byte	.LFB39
 6584 0004 02000000 		.4byte	.LFE39
 6585 0008 00000000 		.4byte	.LFB40
ARM GAS  C:\Users\EBANO_~1\AppData\Local\Temp\ccis3phW.s 			page 145


 6586 000c 04000000 		.4byte	.LFE40
 6587 0010 00000000 		.4byte	.LFB41
 6588 0014 08000000 		.4byte	.LFE41
 6589 0018 00000000 		.4byte	.LFB42
 6590 001c 02000000 		.4byte	.LFE42
 6591 0020 00000000 		.4byte	.LFB45
 6592 0024 04000000 		.4byte	.LFE45
 6593 0028 00000000 		.4byte	.LFB46
 6594 002c 02000000 		.4byte	.LFE46
 6595 0030 00000000 		.4byte	.LFB49
 6596 0034 04000000 		.4byte	.LFE49
 6597 0038 00000000 		.4byte	.LFB56
 6598 003c 02000000 		.4byte	.LFE56
 6599 0040 00000000 		.4byte	.LFB58
 6600 0044 04000000 		.4byte	.LFE58
 6601 0048 00000000 		.4byte	.LFB59
 6602 004c 04000000 		.4byte	.LFE59
 6603 0050 00000000 		.4byte	.LFB62
 6604 0054 04000000 		.4byte	.LFE62
 6605 0058 00000000 		.4byte	.LFB63
 6606 005c 02000000 		.4byte	.LFE63
 6607 0060 00000000 		.4byte	.LFB65
 6608 0064 04000000 		.4byte	.LFE65
 6609 0068 00000000 		.4byte	.LFB66
 6610 006c 04000000 		.4byte	.LFE66
 6611 0070 00000000 		.4byte	0
 6612 0074 00000000 		.4byte	0
 6613              		.section	.debug_line,"",%progbits
 6614              	.Ldebug_line0:
 6615 0000 5A040000 		.section	.debug_str,"MS",%progbits,1
 6615      02004803 
 6615      00000201 
 6615      FB0E0D00 
 6615      01010101 
 6616              	.LASF576:
 6617 0000 64617461 		.ascii	"datarate\000"
 6617      72617465 
 6617      00
 6618              	.LASF247:
 6619 0009 52585F53 		.ascii	"RX_SLOT_WIN_CLASS_C\000"
 6619      4C4F545F 
 6619      57494E5F 
 6619      434C4153 
 6619      535F4300 
 6620              	.LASF357:
 6621 001d 4D4C4D45 		.ascii	"MLME_BEACON_ACQUISITION\000"
 6621      5F424541 
 6621      434F4E5F 
 6621      41435155 
 6621      49534954 
 6622              	.LASF146:
 6623 0035 52657669 		.ascii	"Revision\000"
 6623      73696F6E 
 6623      00
 6624              	.LASF391:
 6625 003e 4D49425F 		.ascii	"MIB_MC_APP_S_KEY_0\000"
 6625      4D435F41 
ARM GAS  C:\Users\EBANO_~1\AppData\Local\Temp\ccis3phW.s 			page 146


 6625      50505F53 
 6625      5F4B4559 
 6625      5F3000
 6626              	.LASF394:
 6627 0051 4D49425F 		.ascii	"MIB_MC_APP_S_KEY_1\000"
 6627      4D435F41 
 6627      50505F53 
 6627      5F4B4559 
 6627      5F3100
 6628              	.LASF397:
 6629 0064 4D49425F 		.ascii	"MIB_MC_APP_S_KEY_2\000"
 6629      4D435F41 
 6629      50505F53 
 6629      5F4B4559 
 6629      5F3200
 6630              	.LASF400:
 6631 0077 4D49425F 		.ascii	"MIB_MC_APP_S_KEY_3\000"
 6631      4D435F41 
 6631      50505F53 
 6631      5F4B4559 
 6631      5F3300
 6632              	.LASF556:
 6633 008a 734C6F52 		.ascii	"sLoRaMacClassBParams\000"
 6633      614D6163 
 6633      436C6173 
 6633      73425061 
 6633      72616D73 
 6634              	.LASF131:
 6635 009f 5F5F6664 		.ascii	"__fdlibm_xopen\000"
 6635      6C69626D 
 6635      5F786F70 
 6635      656E00
 6636              	.LASF288:
 6637 00ae 734D756C 		.ascii	"sMulticastChannel\000"
 6637      74696361 
 6637      73744368 
 6637      616E6E65 
 6637      6C00
 6638              	.LASF6:
 6639 00c0 5F5F7569 		.ascii	"__uint8_t\000"
 6639      6E74385F 
 6639      7400
 6640              	.LASF152:
 6641 00ca 5F426F6F 		.ascii	"_Bool\000"
 6641      6C00
 6642              	.LASF594:
 6643 00d0 7061796C 		.ascii	"payload\000"
 6643      6F616400 
 6644              	.LASF445:
 6645 00d8 4170704B 		.ascii	"AppKey\000"
 6645      657900
 6646              	.LASF69:
 6647 00df 5F6D6273 		.ascii	"_mbstate\000"
 6647      74617465 
 6647      00
 6648              	.LASF610:
 6649 00e8 636C6173 		.ascii	"classBNvmCtx\000"
ARM GAS  C:\Users\EBANO_~1\AppData\Local\Temp\ccis3phW.s 			page 147


 6649      73424E76 
 6649      6D437478 
 6649      00
 6650              	.LASF48:
 6651 00f5 5F617465 		.ascii	"_atexit\000"
 6651      78697400 
 6652              	.LASF355:
 6653 00fd 4D4C4D45 		.ascii	"MLME_DEVICE_TIME\000"
 6653      5F444556 
 6653      4943455F 
 6653      54494D45 
 6653      00
 6654              	.LASF449:
 6655 010e 464E776B 		.ascii	"FNwkSIntKey\000"
 6655      53496E74 
 6655      4B657900 
 6656              	.LASF329:
 6657 011a 4D435053 		.ascii	"MCPS_PROPRIETARY\000"
 6657      5F50524F 
 6657      50524945 
 6657      54415259 
 6657      00
 6658              	.LASF38:
 6659 012b 5F5F746D 		.ascii	"__tm_mon\000"
 6659      5F6D6F6E 
 6659      00
 6660              	.LASF46:
 6661 0134 5F666E74 		.ascii	"_fntypes\000"
 6661      79706573 
 6661      00
 6662              	.LASF350:
 6663 013d 4D4C4D45 		.ascii	"MLME_TXCW\000"
 6663      5F545843 
 6663      5700
 6664              	.LASF76:
 6665 0147 5F696E63 		.ascii	"_inc\000"
 6665      00
 6666              	.LASF49:
 6667 014c 5F696E64 		.ascii	"_ind\000"
 6667      00
 6668              	.LASF297:
 6669 0151 654C6F52 		.ascii	"eLoRaMacEventInfoStatus\000"
 6669      614D6163 
 6669      4576656E 
 6669      74496E66 
 6669      6F537461 
 6670              	.LASF214:
 6671 0169 57726974 		.ascii	"WriteBuffer\000"
 6671      65427566 
 6671      66657200 
 6672              	.LASF189:
 6673 0175 52784572 		.ascii	"RxError\000"
 6673      726F7200 
 6674              	.LASF301:
 6675 017d 4C4F5241 		.ascii	"LORAMAC_EVENT_INFO_STATUS_RX1_TIMEOUT\000"
 6675      4D41435F 
 6675      4556454E 
ARM GAS  C:\Users\EBANO_~1\AppData\Local\Temp\ccis3phW.s 			page 148


 6675      545F494E 
 6675      464F5F53 
 6676              	.LASF137:
 6677 01a3 75696E74 		.ascii	"uint16_t\000"
 6677      31365F74 
 6677      00
 6678              	.LASF302:
 6679 01ac 4C4F5241 		.ascii	"LORAMAC_EVENT_INFO_STATUS_RX2_TIMEOUT\000"
 6679      4D41435F 
 6679      4556454E 
 6679      545F494E 
 6679      464F5F53 
 6680              	.LASF215:
 6681 01d2 52656164 		.ascii	"ReadBuffer\000"
 6681      42756666 
 6681      657200
 6682              	.LASF567:
 6683 01dd 4C6F5261 		.ascii	"LoRaMacClassBIsUplinkCollision\000"
 6683      4D616343 
 6683      6C617373 
 6683      42497355 
 6683      706C696E 
 6684              	.LASF575:
 6685 01fc 4C6F5261 		.ascii	"LoRaMacClassBPingSlotChannelReq\000"
 6685      4D616343 
 6685      6C617373 
 6685      4250696E 
 6685      67536C6F 
 6686              	.LASF432:
 6687 021c 4D49425F 		.ascii	"MIB_BEACON_SYMBOL_TO_EXPANSION_MAX\000"
 6687      42454143 
 6687      4F4E5F53 
 6687      594D424F 
 6687      4C5F544F 
 6688              	.LASF55:
 6689 023f 5F666C61 		.ascii	"_flags\000"
 6689      677300
 6690              	.LASF325:
 6691 0246 654D6370 		.ascii	"eMcps\000"
 6691      7300
 6692              	.LASF587:
 6693 024c 4C6F5261 		.ascii	"LoRaMacClassBHaltBeaconing\000"
 6693      4D616343 
 6693      6C617373 
 6693      4248616C 
 6693      74426561 
 6694              	.LASF489:
 6695 0267 4D617842 		.ascii	"MaxBeaconLessPeriod\000"
 6695      6561636F 
 6695      6E4C6573 
 6695      73506572 
 6695      696F6400 
 6696              	.LASF86:
 6697 027b 5F637674 		.ascii	"_cvtlen\000"
 6697      6C656E00 
 6698              	.LASF504:
 6699 0283 4C4F5241 		.ascii	"LORAMAC_STATUS_NO_NETWORK_JOINED\000"
ARM GAS  C:\Users\EBANO_~1\AppData\Local\Temp\ccis3phW.s 			page 149


 6699      4D41435F 
 6699      53544154 
 6699      55535F4E 
 6699      4F5F4E45 
 6700              	.LASF130:
 6701 02a4 5F5F6664 		.ascii	"__fdlibm_svid\000"
 6701      6C69626D 
 6701      5F737669 
 6701      6400
 6702              	.LASF90:
 6703 02b2 5F736967 		.ascii	"_sig_func\000"
 6703      5F66756E 
 6703      6300
 6704              	.LASF381:
 6705 02bc 4D49425F 		.ascii	"MIB_APP_KEY\000"
 6705      4150505F 
 6705      4B455900 
 6706              	.LASF303:
 6707 02c8 4C4F5241 		.ascii	"LORAMAC_EVENT_INFO_STATUS_RX1_ERROR\000"
 6707      4D41435F 
 6707      4556454E 
 6707      545F494E 
 6707      464F5F53 
 6708              	.LASF364:
 6709 02ec 54785469 		.ascii	"TxTimeOnAir\000"
 6709      6D654F6E 
 6709      41697200 
 6710              	.LASF68:
 6711 02f8 5F6C6F63 		.ascii	"_lock\000"
 6711      6B00
 6712              	.LASF64:
 6713 02fe 5F6E6275 		.ascii	"_nbuf\000"
 6713      6600
 6714              	.LASF229:
 6715 0304 41435449 		.ascii	"ACTIVATION_TYPE_NONE\000"
 6715      56415449 
 6715      4F4E5F54 
 6715      5950455F 
 6715      4E4F4E45 
 6716              	.LASF122:
 6717 0319 5F756E75 		.ascii	"_unused\000"
 6717      73656400 
 6718              	.LASF367:
 6719 0321 4E625265 		.ascii	"NbRetries\000"
 6719      74726965 
 6719      7300
 6720              	.LASF188:
 6721 032b 52785469 		.ascii	"RxTimeout\000"
 6721      6D656F75 
 6721      7400
 6722              	.LASF186:
 6723 0335 54785469 		.ascii	"TxTimeout\000"
 6723      6D656F75 
 6723      7400
 6724              	.LASF159:
 6725 033f 554E4943 		.ascii	"UNICAST_DEV_ADDR\000"
 6725      4153545F 
ARM GAS  C:\Users\EBANO_~1\AppData\Local\Temp\ccis3phW.s 			page 150


 6725      4445565F 
 6725      41444452 
 6725      00
 6726              	.LASF498:
 6727 0350 4C4F5241 		.ascii	"LORAMAC_STATUS_BUSY\000"
 6727      4D41435F 
 6727      53544154 
 6727      55535F42 
 6727      55535900 
 6728              	.LASF407:
 6729 0364 4D49425F 		.ascii	"MIB_CHANNELS_MASK\000"
 6729      4348414E 
 6729      4E454C53 
 6729      5F4D4153 
 6729      4B00
 6730              	.LASF590:
 6731 0376 4C6F5261 		.ascii	"LoRaMacClassBIsMulticastExpected\000"
 6731      4D616343 
 6731      6C617373 
 6731      4249734D 
 6731      756C7469 
 6732              	.LASF377:
 6733 0397 4D49425F 		.ascii	"MIB_NETWORK_ACTIVATION\000"
 6733      4E455457 
 6733      4F524B5F 
 6733      41435449 
 6733      56415449 
 6734              	.LASF147:
 6735 03ae 4D696E6F 		.ascii	"Minor\000"
 6735      7200
 6736              	.LASF268:
 6737 03b4 4C6F5261 		.ascii	"LoRaMacCtxs_t\000"
 6737      4D616343 
 6737      7478735F 
 6737      7400
 6738              	.LASF195:
 6739 03c2 496F4465 		.ascii	"IoDeInit\000"
 6739      496E6974 
 6739      00
 6740              	.LASF399:
 6741 03cb 4D49425F 		.ascii	"MIB_MC_KEY_3\000"
 6741      4D435F4B 
 6741      45595F33 
 6741      00
 6742              	.LASF612:
 6743 03d8 4C6F5261 		.ascii	"LoRaMacClassBInit\000"
 6743      4D616343 
 6743      6C617373 
 6743      42496E69 
 6743      7400
 6744              	.LASF382:
 6745 03ea 4D49425F 		.ascii	"MIB_NWK_KEY\000"
 6745      4E574B5F 
 6745      4B455900 
 6746              	.LASF100:
 6747 03f6 5F616464 		.ascii	"_add\000"
 6747      00
ARM GAS  C:\Users\EBANO_~1\AppData\Local\Temp\ccis3phW.s 			page 151


 6748              	.LASF180:
 6749 03fb 52465F49 		.ascii	"RF_IDLE\000"
 6749      444C4500 
 6750              	.LASF378:
 6751 0403 4D49425F 		.ascii	"MIB_ADR\000"
 6751      41445200 
 6752              	.LASF372:
 6753 040b 4D6C6D65 		.ascii	"MlmeIndication\000"
 6753      496E6469 
 6753      63617469 
 6753      6F6E00
 6754              	.LASF439:
 6755 041a 754D6962 		.ascii	"uMibParam\000"
 6755      50617261 
 6755      6D00
 6756              	.LASF562:
 6757 0424 4D756C74 		.ascii	"MulticastChannels\000"
 6757      69636173 
 6757      74436861 
 6757      6E6E656C 
 6757      7300
 6758              	.LASF514:
 6759 0436 4C4F5241 		.ascii	"LORAMAC_STATUS_CRYPTO_ERROR\000"
 6759      4D41435F 
 6759      53544154 
 6759      55535F43 
 6759      52595054 
 6760              	.LASF356:
 6761 0452 4D4C4D45 		.ascii	"MLME_BEACON\000"
 6761      5F424541 
 6761      434F4E00 
 6762              	.LASF57:
 6763 045e 5F6C6266 		.ascii	"_lbfsize\000"
 6763      73697A65 
 6763      00
 6764              	.LASF451:
 6765 0467 4E776B53 		.ascii	"NwkSEncKey\000"
 6765      456E634B 
 6765      657900
 6766              	.LASF499:
 6767 0472 4C4F5241 		.ascii	"LORAMAC_STATUS_SERVICE_UNKNOWN\000"
 6767      4D41435F 
 6767      53544154 
 6767      55535F53 
 6767      45525649 
 6768              	.LASF480:
 6769 0491 42656163 		.ascii	"BeaconGuard\000"
 6769      6F6E4775 
 6769      61726400 
 6770              	.LASF599:
 6771 049d 4C6F5261 		.ascii	"LoRaMacMibClassBSetRequestConfirm\000"
 6771      4D61634D 
 6771      6962436C 
 6771      61737342 
 6771      53657452 
 6772              	.LASF585:
 6773 04bf 4C6F5261 		.ascii	"LoRaMacClassBSetPingSlotInfo\000"
ARM GAS  C:\Users\EBANO_~1\AppData\Local\Temp\ccis3phW.s 			page 152


 6773      4D616343 
 6773      6C617373 
 6773      42536574 
 6773      50696E67 
 6774              	.LASF193:
 6775 04dc 52616469 		.ascii	"Radio_s\000"
 6775      6F5F7300 
 6776              	.LASF541:
 6777 04e4 42454143 		.ascii	"BEACON_STATE_IDLE\000"
 6777      4F4E5F53 
 6777      54415445 
 6777      5F49444C 
 6777      4500
 6778              	.LASF369:
 6779 04f6 42656163 		.ascii	"BeaconTimingChannel\000"
 6779      6F6E5469 
 6779      6D696E67 
 6779      4368616E 
 6779      6E656C00 
 6780              	.LASF472:
 6781 050a 4368616E 		.ascii	"ChannelsDefaultDatarate\000"
 6781      6E656C73 
 6781      44656661 
 6781      756C7444 
 6781      61746172 
 6782              	.LASF403:
 6783 0522 4D49425F 		.ascii	"MIB_REPEATER_SUPPORT\000"
 6783      52455045 
 6783      41544552 
 6783      5F535550 
 6783      504F5254 
 6784              	.LASF67:
 6785 0537 5F646174 		.ascii	"_data\000"
 6785      6100
 6786              	.LASF617:
 6787 053d 2E2E2F2E 		.ascii	"../../../../../../Middlewares/Third_Party/LoRaWAN/M"
 6787      2E2F2E2E 
 6787      2F2E2E2F 
 6787      2E2E2F2E 
 6787      2E2F4D69 
 6788 0570 61632F4C 		.ascii	"ac/LoRaMacClassB.c\000"
 6788      6F52614D 
 6788      6163436C 
 6788      61737342 
 6788      2E6300
 6789              	.LASF216:
 6790 0583 5365744D 		.ascii	"SetMaxPayloadLength\000"
 6790      61785061 
 6790      796C6F61 
 6790      644C656E 
 6790      67746800 
 6791              	.LASF375:
 6792 0597 654D6962 		.ascii	"eMib\000"
 6792      00
 6793              	.LASF175:
 6794 059c 5F646179 		.ascii	"_daylight\000"
 6794      6C696768 
ARM GAS  C:\Users\EBANO_~1\AppData\Local\Temp\ccis3phW.s 			page 153


 6794      7400
 6795              	.LASF496:
 6796 05a6 654C6F52 		.ascii	"eLoRaMacStatus\000"
 6796      614D6163 
 6796      53746174 
 6796      757300
 6797              	.LASF123:
 6798 05b5 5F5F6C6F 		.ascii	"__lock\000"
 6798      636B00
 6799              	.LASF71:
 6800 05bc 5F726565 		.ascii	"_reent\000"
 6800      6E7400
 6801              	.LASF508:
 6802 05c3 4C4F5241 		.ascii	"LORAMAC_STATUS_DUTYCYCLE_RESTRICTED\000"
 6802      4D41435F 
 6802      53544154 
 6802      55535F44 
 6802      55545943 
 6803              	.LASF208:
 6804 05e7 5374616E 		.ascii	"Standby\000"
 6804      64627900 
 6805              	.LASF608:
 6806 05ef 636C6173 		.ascii	"classBNvmCtxSize\000"
 6806      73424E76 
 6806      6D437478 
 6806      53697A65 
 6806      00
 6807              	.LASF92:
 6808 0600 5F5F7366 		.ascii	"__sf\000"
 6808      00
 6809              	.LASF169:
 6810 0605 50696E67 		.ascii	"PingNb\000"
 6810      4E6200
 6811              	.LASF385:
 6812 060c 4D49425F 		.ascii	"MIB_F_NWK_S_INT_KEY\000"
 6812      465F4E57 
 6812      4B5F535F 
 6812      494E545F 
 6812      4B455900 
 6813              	.LASF160:
 6814 0620 41646472 		.ascii	"AddressIdentifier_t\000"
 6814      65737349 
 6814      64656E74 
 6814      69666965 
 6814      725F7400 
 6815              	.LASF52:
 6816 0634 5F626173 		.ascii	"_base\000"
 6816      6500
 6817              	.LASF212:
 6818 063a 57726974 		.ascii	"Write\000"
 6818      6500
 6819              	.LASF109:
 6820 0640 5F6D6274 		.ascii	"_mbtowc_state\000"
 6820      6F77635F 
 6820      73746174 
 6820      6500
 6821              	.LASF384:
ARM GAS  C:\Users\EBANO_~1\AppData\Local\Temp\ccis3phW.s 			page 154


 6822 064e 4D49425F 		.ascii	"MIB_J_S_ENC_KEY\000"
 6822      4A5F535F 
 6822      454E435F 
 6822      4B455900 
 6823              	.LASF161:
 6824 065e 734D756C 		.ascii	"sMulticastCtx\000"
 6824      74696361 
 6824      73744374 
 6824      7800
 6825              	.LASF466:
 6826 066c 456E6162 		.ascii	"EnablePublicNetwork\000"
 6826      6C655075 
 6826      626C6963 
 6826      4E657477 
 6826      6F726B00 
 6827              	.LASF615:
 6828 0680 636C6173 		.ascii	"classBNvmCtxChanged\000"
 6828      73424E76 
 6828      6D437478 
 6828      4368616E 
 6828      67656400 
 6829              	.LASF389:
 6830 0694 4D49425F 		.ascii	"MIB_MC_KE_KEY\000"
 6830      4D435F4B 
 6830      455F4B45 
 6830      5900
 6831              	.LASF380:
 6832 06a2 4D49425F 		.ascii	"MIB_DEV_ADDR\000"
 6832      4445565F 
 6832      41444452 
 6832      00
 6833              	.LASF589:
 6834 06af 4C6F5261 		.ascii	"LoRaMacClassBIsAcquisitionPending\000"
 6834      4D616343 
 6834      6C617373 
 6834      42497341 
 6834      63717569 
 6835              	.LASF154:
 6836 06d1 65416464 		.ascii	"eAddressIdentifier\000"
 6836      72657373 
 6836      4964656E 
 6836      74696669 
 6836      657200
 6837              	.LASF252:
 6838 06e4 4D61634E 		.ascii	"MacNvmCtx\000"
 6838      766D4374 
 6838      7800
 6839              	.LASF580:
 6840 06ee 6D696247 		.ascii	"mibGet\000"
 6840      657400
 6841              	.LASF213:
 6842 06f5 52656164 		.ascii	"Read\000"
 6842      00
 6843              	.LASF33:
 6844 06fa 5F5F746D 		.ascii	"__tm\000"
 6844      00
 6845              	.LASF528:
ARM GAS  C:\Users\EBANO_~1\AppData\Local\Temp\ccis3phW.s 			page 155


 6846 06ff 4C4F5241 		.ascii	"LORAMAC_REGION_KR920\000"
 6846      4D41435F 
 6846      52454749 
 6846      4F4E5F4B 
 6846      52393230 
 6847              	.LASF584:
 6848 0714 4C6F5261 		.ascii	"LoRaMacClassBSetMulticastPeriodicity\000"
 6848      4D616343 
 6848      6C617373 
 6848      42536574 
 6848      4D756C74 
 6849              	.LASF271:
 6850 0739 4368616E 		.ascii	"ChannelsDatarate\000"
 6850      6E656C73 
 6850      44617461 
 6850      72617465 
 6850      00
 6851              	.LASF41:
 6852 074a 5F5F746D 		.ascii	"__tm_yday\000"
 6852      5F796461 
 6852      7900
 6853              	.LASF436:
 6854 0754 4D49425F 		.ascii	"MIB_MAX_BEACON_LESS_PERIOD\000"
 6854      4D41585F 
 6854      42454143 
 6854      4F4E5F4C 
 6854      4553535F 
 6855              	.LASF318:
 6856 076f 4D637073 		.ascii	"McpsInd\000"
 6856      496E6400 
 6857              	.LASF447:
 6858 0777 4A53496E 		.ascii	"JSIntKey\000"
 6858      744B6579 
 6858      00
 6859              	.LASF16:
 6860 0780 5F4C4F43 		.ascii	"_LOCK_T\000"
 6860      4B5F5400 
 6861              	.LASF239:
 6862 0788 44725261 		.ascii	"DrRange\000"
 6862      6E676500 
 6863              	.LASF220:
 6864 0790 5278426F 		.ascii	"RxBoosted\000"
 6864      6F737465 
 6864      6400
 6865              	.LASF8:
 6866 079a 5F5F696E 		.ascii	"__int16_t\000"
 6866      7431365F 
 6866      7400
 6867              	.LASF532:
 6868 07a4 4C6F5261 		.ascii	"LoRaMacRegion_t\000"
 6868      4D616352 
 6868      6567696F 
 6868      6E5F7400 
 6869              	.LASF428:
 6870 07b4 4D49425F 		.ascii	"MIB_BEACON_WINDOW\000"
 6870      42454143 
 6870      4F4E5F57 
ARM GAS  C:\Users\EBANO_~1\AppData\Local\Temp\ccis3phW.s 			page 156


 6870      494E444F 
 6870      5700
 6871              	.LASF10:
 6872 07c6 5F5F7569 		.ascii	"__uint16_t\000"
 6872      6E743136 
 6872      5F7400
 6873              	.LASF604:
 6874 07d1 70696E67 		.ascii	"pingSlotState\000"
 6874      536C6F74 
 6874      53746174 
 6874      6500
 6875              	.LASF101:
 6876 07df 5F756E75 		.ascii	"_unused_rand\000"
 6876      7365645F 
 6876      72616E64 
 6876      00
 6877              	.LASF433:
 6878 07ec 4D49425F 		.ascii	"MIB_PING_SLOT_SYMBOL_TO_EXPANSION_MAX\000"
 6878      50494E47 
 6878      5F534C4F 
 6878      545F5359 
 6878      4D424F4C 
 6879              	.LASF578:
 6880 0812 6D756C74 		.ascii	"multicastChannel\000"
 6880      69636173 
 6880      74436861 
 6880      6E6E656C 
 6880      00
 6881              	.LASF592:
 6882 0823 4C6F5261 		.ascii	"LoRaMacClassBIsBeaconExpected\000"
 6882      4D616343 
 6882      6C617373 
 6882      42497342 
 6882      6561636F 
 6883              	.LASF172:
 6884 0841 4D756C74 		.ascii	"MulticastCtx_t\000"
 6884      69636173 
 6884      74437478 
 6884      5F7400
 6885              	.LASF83:
 6886 0850 5F726573 		.ascii	"_result_k\000"
 6886      756C745F 
 6886      6B00
 6887              	.LASF316:
 6888 085a 734D6163 		.ascii	"sMacFlagBits\000"
 6888      466C6167 
 6888      42697473 
 6888      00
 6889              	.LASF75:
 6890 0867 5F737464 		.ascii	"_stderr\000"
 6890      65727200 
 6891              	.LASF82:
 6892 086f 5F726573 		.ascii	"_result\000"
 6892      756C7400 
 6893              	.LASF45:
 6894 0877 5F64736F 		.ascii	"_dso_handle\000"
 6894      5F68616E 
ARM GAS  C:\Users\EBANO_~1\AppData\Local\Temp\ccis3phW.s 			page 157


 6894      646C6500 
 6895              	.LASF371:
 6896 0883 734D6C6D 		.ascii	"sMlmeIndication\000"
 6896      65496E64 
 6896      69636174 
 6896      696F6E00 
 6897              	.LASF488:
 6898 0893 50696E67 		.ascii	"PingSlotSymbolToExpansionFactor\000"
 6898      536C6F74 
 6898      53796D62 
 6898      6F6C546F 
 6898      45787061 
 6899              	.LASF340:
 6900 08b3 52784461 		.ascii	"RxData\000"
 6900      746100
 6901              	.LASF40:
 6902 08ba 5F5F746D 		.ascii	"__tm_wday\000"
 6902      5F776461 
 6902      7900
 6903              	.LASF42:
 6904 08c4 5F5F746D 		.ascii	"__tm_isdst\000"
 6904      5F697364 
 6904      737400
 6905              	.LASF133:
 6906 08cf 5F5F6664 		.ascii	"__fdlib_version\000"
 6906      6C69625F 
 6906      76657273 
 6906      696F6E00 
 6907              	.LASF505:
 6908 08df 4C4F5241 		.ascii	"LORAMAC_STATUS_LENGTH_ERROR\000"
 6908      4D41435F 
 6908      53544154 
 6908      55535F4C 
 6908      454E4754 
 6909              	.LASF442:
 6910 08fb 41647245 		.ascii	"AdrEnable\000"
 6910      6E61626C 
 6910      6500
 6911              	.LASF7:
 6912 0905 756E7369 		.ascii	"unsigned char\000"
 6912      676E6564 
 6912      20636861 
 6912      7200
 6913              	.LASF74:
 6914 0913 5F737464 		.ascii	"_stdout\000"
 6914      6F757400 
 6915              	.LASF158:
 6916 091b 4D554C54 		.ascii	"MULTICAST_3_ADDR\000"
 6916      49434153 
 6916      545F335F 
 6916      41444452 
 6916      00
 6917              	.LASF242:
 6918 092c 73527832 		.ascii	"sRx2ChannelParams\000"
 6918      4368616E 
 6918      6E656C50 
 6918      6172616D 
ARM GAS  C:\Users\EBANO_~1\AppData\Local\Temp\ccis3phW.s 			page 158


 6918      7300
 6919              	.LASF425:
 6920 093e 4D49425F 		.ascii	"MIB_BEACON_INTERVAL\000"
 6920      42454143 
 6920      4F4E5F49 
 6920      4E544552 
 6920      56414C00 
 6921              	.LASF116:
 6922 0952 5F6D6273 		.ascii	"_mbsrtowcs_state\000"
 6922      72746F77 
 6922      63735F73 
 6922      74617465 
 6922      00
 6923              	.LASF31:
 6924 0963 5F776473 		.ascii	"_wds\000"
 6924      00
 6925              	.LASF236:
 6926 0968 44725261 		.ascii	"DrRange_t\000"
 6926      6E67655F 
 6926      7400
 6927              	.LASF127:
 6928 0972 666C6F61 		.ascii	"float\000"
 6928      7400
 6929              	.LASF162:
 6930 0978 41646472 		.ascii	"AddrID\000"
 6930      494400
 6931              	.LASF618:
 6932 097f 443A5C67 		.ascii	"D:\\git_pessoal\\keil_gcc\\STM32CubeExpansion_LRWAN"
 6932      69745F70 
 6932      6573736F 
 6932      616C5C6B 
 6932      65696C5F 
 6933 09af 5F56312E 		.ascii	"_V1.2.1\\Projects\\B-L072Z-LRWAN1\\Applications\\Lo"
 6933      322E315C 
 6933      50726F6A 
 6933      65637473 
 6933      5C422D4C 
 6934 09de 52615C45 		.ascii	"Ra\\End_Node\\MDK-ARM\000"
 6934      6E645F4E 
 6934      6F64655C 
 6934      4D444B2D 
 6934      41524D00 
 6935              	.LASF406:
 6936 09f2 4D49425F 		.ascii	"MIB_RX2_DEFAULT_CHANNEL\000"
 6936      5258325F 
 6936      44454641 
 6936      554C545F 
 6936      4348414E 
 6937              	.LASF53:
 6938 0a0a 5F73697A 		.ascii	"_size\000"
 6938      6500
 6939              	.LASF362:
 6940 0a10 734D6C6D 		.ascii	"sMlmeConfirm\000"
 6940      65436F6E 
 6940      6669726D 
 6940      00
 6941              	.LASF581:
ARM GAS  C:\Users\EBANO_~1\AppData\Local\Temp\ccis3phW.s 			page 159


 6942 0a1d 4C6F5261 		.ascii	"LoRaMacClassBSwitchClass\000"
 6942      4D616343 
 6942      6C617373 
 6942      42537769 
 6942      74636843 
 6943              	.LASF495:
 6944 0a36 4D696252 		.ascii	"MibRequestConfirm_t\000"
 6944      65717565 
 6944      7374436F 
 6944      6E666972 
 6944      6D5F7400 
 6945              	.LASF390:
 6946 0a4a 4D49425F 		.ascii	"MIB_MC_KEY_0\000"
 6946      4D435F4B 
 6946      45595F30 
 6946      00
 6947              	.LASF393:
 6948 0a57 4D49425F 		.ascii	"MIB_MC_KEY_1\000"
 6948      4D435F4B 
 6948      45595F31 
 6948      00
 6949              	.LASF396:
 6950 0a64 4D49425F 		.ascii	"MIB_MC_KEY_2\000"
 6950      4D435F4B 
 6950      45595F32 
 6950      00
 6951              	.LASF311:
 6952 0a71 4C4F5241 		.ascii	"LORAMAC_EVENT_INFO_STATUS_MULTICAST_FAIL\000"
 6952      4D41435F 
 6952      4556454E 
 6952      545F494E 
 6952      464F5F53 
 6953              	.LASF60:
 6954 0a9a 5F777269 		.ascii	"_write\000"
 6954      746500
 6955              	.LASF434:
 6956 0aa1 4D49425F 		.ascii	"MIB_BEACON_SYMBOL_TO_EXPANSION_FACTOR\000"
 6956      42454143 
 6956      4F4E5F53 
 6956      594D424F 
 6956      4C5F544F 
 6957              	.LASF359:
 6958 0ac7 4D4C4D45 		.ascii	"MLME_BEACON_TIMING\000"
 6958      5F424541 
 6958      434F4E5F 
 6958      54494D49 
 6958      4E4700
 6959              	.LASF284:
 6960 0ada 4D617845 		.ascii	"MaxEirp\000"
 6960      69727000 
 6961              	.LASF198:
 6962 0ae2 5365744D 		.ascii	"SetModem\000"
 6962      6F64656D 
 6962      00
 6963              	.LASF607:
 6964 0aeb 4C6F5261 		.ascii	"LoRaMacClassBGetNvmCtx\000"
 6964      4D616343 
ARM GAS  C:\Users\EBANO_~1\AppData\Local\Temp\ccis3phW.s 			page 160


 6964      6C617373 
 6964      42476574 
 6964      4E766D43 
 6965              	.LASF341:
 6966 0b02 5278536C 		.ascii	"RxSlot\000"
 6966      6F7400
 6967              	.LASF588:
 6968 0b09 4C6F5261 		.ascii	"LoRaMacClassBIsBeaconModeActive\000"
 6968      4D616343 
 6968      6C617373 
 6968      42497342 
 6968      6561636F 
 6969              	.LASF500:
 6970 0b29 4C4F5241 		.ascii	"LORAMAC_STATUS_PARAMETER_INVALID\000"
 6970      4D41435F 
 6970      53544154 
 6970      55535F50 
 6970      4152414D 
 6971              	.LASF344:
 6972 0b4a 4D637073 		.ascii	"McpsIndication_t\000"
 6972      496E6469 
 6972      63617469 
 6972      6F6E5F74 
 6972      00
 6973              	.LASF185:
 6974 0b5b 5478446F 		.ascii	"TxDone\000"
 6974      6E6500
 6975              	.LASF379:
 6976 0b62 4D49425F 		.ascii	"MIB_NET_ID\000"
 6976      4E45545F 
 6976      494400
 6977              	.LASF39:
 6978 0b6d 5F5F746D 		.ascii	"__tm_year\000"
 6978      5F796561 
 6978      7200
 6979              	.LASF235:
 6980 0b77 75447252 		.ascii	"uDrRange\000"
 6980      616E6765 
 6980      00
 6981              	.LASF170:
 6982 0b80 50696E67 		.ascii	"PingPeriod\000"
 6982      50657269 
 6982      6F6400
 6983              	.LASF240:
 6984 0b8b 42616E64 		.ascii	"Band\000"
 6984      00
 6985              	.LASF304:
 6986 0b90 4C4F5241 		.ascii	"LORAMAC_EVENT_INFO_STATUS_RX2_ERROR\000"
 6986      4D41435F 
 6986      4556454E 
 6986      545F494E 
 6986      464F5F53 
 6987              	.LASF222:
 6988 0bb4 52616469 		.ascii	"Radio\000"
 6988      6F00
 6989              	.LASF616:
 6990 0bba 474E5520 		.ascii	"GNU C11 7.3.1 20180622 (release) [ARM/embedded-7-br"
ARM GAS  C:\Users\EBANO_~1\AppData\Local\Temp\ccis3phW.s 			page 161


 6990      43313120 
 6990      372E332E 
 6990      31203230 
 6990      31383036 
 6991 0bed 616E6368 		.ascii	"anch revision 261907] -mcpu=cortex-m0plus -mthumb -"
 6991      20726576 
 6991      6973696F 
 6991      6E203236 
 6991      31393037 
 6992 0c20 6D666C6F 		.ascii	"mfloat-abi=soft -gdwarf-2 -O3 -ffunction-sections\000"
 6992      61742D61 
 6992      62693D73 
 6992      6F667420 
 6992      2D676477 
 6993              	.LASF99:
 6994 0c52 5F6D756C 		.ascii	"_mult\000"
 6994      7400
 6995              	.LASF566:
 6996 0c58 4C6F5261 		.ascii	"LoRaMacClassBStopRxSlots\000"
 6996      4D616343 
 6996      6C617373 
 6996      4253746F 
 6996      70527853 
 6997              	.LASF209:
 6998 0c71 53746172 		.ascii	"StartCad\000"
 6998      74436164 
 6998      00
 6999              	.LASF114:
 7000 0c7a 5F6D6272 		.ascii	"_mbrlen_state\000"
 7000      6C656E5F 
 7000      73746174 
 7000      6500
 7001              	.LASF168:
 7002 0c88 50657269 		.ascii	"Periodicity\000"
 7002      6F646963 
 7002      69747900 
 7003              	.LASF561:
 7004 0c94 4C6F5261 		.ascii	"LoRaMacParams\000"
 7004      4D616350 
 7004      6172616D 
 7004      7300
 7005              	.LASF515:
 7006 0ca2 4C4F5241 		.ascii	"LORAMAC_STATUS_FCNT_HANDLER_ERROR\000"
 7006      4D41435F 
 7006      53544154 
 7006      55535F46 
 7006      434E545F 
 7007              	.LASF392:
 7008 0cc4 4D49425F 		.ascii	"MIB_MC_NWK_S_KEY_0\000"
 7008      4D435F4E 
 7008      574B5F53 
 7008      5F4B4559 
 7008      5F3000
 7009              	.LASF395:
 7010 0cd7 4D49425F 		.ascii	"MIB_MC_NWK_S_KEY_1\000"
 7010      4D435F4E 
 7010      574B5F53 
ARM GAS  C:\Users\EBANO_~1\AppData\Local\Temp\ccis3phW.s 			page 162


 7010      5F4B4559 
 7010      5F3100
 7011              	.LASF398:
 7012 0cea 4D49425F 		.ascii	"MIB_MC_NWK_S_KEY_2\000"
 7012      4D435F4E 
 7012      574B5F53 
 7012      5F4B4559 
 7012      5F3200
 7013              	.LASF401:
 7014 0cfd 4D49425F 		.ascii	"MIB_MC_NWK_S_KEY_3\000"
 7014      4D435F4E 
 7014      574B5F53 
 7014      5F4B4559 
 7014      5F3300
 7015              	.LASF187:
 7016 0d10 5278446F 		.ascii	"RxDone\000"
 7016      6E6500
 7017              	.LASF73:
 7018 0d17 5F737464 		.ascii	"_stdin\000"
 7018      696E00
 7019              	.LASF479:
 7020 0d1e 42656163 		.ascii	"BeaconReserved\000"
 7020      6F6E5265 
 7020      73657276 
 7020      656400
 7021              	.LASF121:
 7022 0d2d 5F6E6D61 		.ascii	"_nmalloc\000"
 7022      6C6C6F63 
 7022      00
 7023              	.LASF361:
 7024 0d36 4D6C6D65 		.ascii	"Mlme_t\000"
 7024      5F7400
 7025              	.LASF308:
 7026 0d3d 4C4F5241 		.ascii	"LORAMAC_EVENT_INFO_STATUS_DOWNLINK_TOO_MANY_FRAMES_"
 7026      4D41435F 
 7026      4556454E 
 7026      545F494E 
 7026      464F5F53 
 7027 0d70 4C4F5353 		.ascii	"LOSS\000"
 7027      00
 7028              	.LASF201:
 7029 0d75 52616E64 		.ascii	"Random\000"
 7029      6F6D00
 7030              	.LASF467:
 7031 0d7c 456E6162 		.ascii	"EnableRepeaterSupport\000"
 7031      6C655265 
 7031      70656174 
 7031      65725375 
 7031      70706F72 
 7032              	.LASF493:
 7033 0d92 54797065 		.ascii	"Type\000"
 7033      00
 7034              	.LASF228:
 7035 0d97 65416374 		.ascii	"eActivationType\000"
 7035      69766174 
 7035      696F6E54 
 7035      79706500 
ARM GAS  C:\Users\EBANO_~1\AppData\Local\Temp\ccis3phW.s 			page 163


 7036              	.LASF595:
 7037 0da7 73697A65 		.ascii	"size\000"
 7037      00
 7038              	.LASF564:
 7039 0dac 4C6F5261 		.ascii	"LoRaMacClassBProcess\000"
 7039      4D616343 
 7039      6C617373 
 7039      4250726F 
 7039      63657373 
 7040              	.LASF494:
 7041 0dc1 50617261 		.ascii	"Param\000"
 7041      6D00
 7042              	.LASF579:
 7043 0dc7 6D696253 		.ascii	"mibSet\000"
 7043      657400
 7044              	.LASF17:
 7045 0dce 5F6F6666 		.ascii	"_off_t\000"
 7045      5F7400
 7046              	.LASF145:
 7047 0dd5 56657273 		.ascii	"Version_s\000"
 7047      696F6E5F 
 7047      7300
 7048              	.LASF151:
 7049 0ddf 56657273 		.ascii	"Version_t\000"
 7049      696F6E5F 
 7049      7400
 7050              	.LASF234:
 7051 0de9 56657273 		.ascii	"Version_u\000"
 7051      696F6E5F 
 7051      7500
 7052              	.LASF3:
 7053 0df3 73697A65 		.ascii	"size_t\000"
 7053      5F7400
 7054              	.LASF104:
 7055 0dfa 5F6C6F63 		.ascii	"_localtime_buf\000"
 7055      616C7469 
 7055      6D655F62 
 7055      756600
 7056              	.LASF22:
 7057 0e09 5F5F636F 		.ascii	"__count\000"
 7057      756E7400 
 7058              	.LASF135:
 7059 0e11 75696E74 		.ascii	"uint8_t\000"
 7059      385F7400 
 7060              	.LASF526:
 7061 0e19 4C4F5241 		.ascii	"LORAMAC_REGION_EU433\000"
 7061      4D41435F 
 7061      52454749 
 7061      4F4E5F45 
 7061      55343333 
 7062              	.LASF482:
 7063 0e2e 42656163 		.ascii	"BeaconWindowSlots\000"
 7063      6F6E5769 
 7063      6E646F77 
 7063      536C6F74 
 7063      7300
 7064              	.LASF244:
ARM GAS  C:\Users\EBANO_~1\AppData\Local\Temp\ccis3phW.s 			page 164


 7065 0e40 654C6F52 		.ascii	"eLoRaMacRxSlot\000"
 7065      614D6163 
 7065      5278536C 
 7065      6F7400
 7066              	.LASF87:
 7067 0e4f 5F637674 		.ascii	"_cvtbuf\000"
 7067      62756600 
 7068              	.LASF352:
 7069 0e57 4D4C4D45 		.ascii	"MLME_SCHEDULE_UPLINK\000"
 7069      5F534348 
 7069      4544554C 
 7069      455F5550 
 7069      4C494E4B 
 7070              	.LASF286:
 7071 0e6c 52657065 		.ascii	"RepeaterSupport\000"
 7071      61746572 
 7071      53757070 
 7071      6F727400 
 7072              	.LASF410:
 7073 0e7c 4D49425F 		.ascii	"MIB_MAX_RX_WINDOW_DURATION\000"
 7073      4D41585F 
 7073      52585F57 
 7073      494E444F 
 7073      575F4455 
 7074              	.LASF490:
 7075 0e97 50696E67 		.ascii	"PingSlotDatarate\000"
 7075      536C6F74 
 7075      44617461 
 7075      72617465 
 7075      00
 7076              	.LASF249:
 7077 0ea8 52585F53 		.ascii	"RX_SLOT_WIN_MULTICAST_SLOT\000"
 7077      4C4F545F 
 7077      57494E5F 
 7077      4D554C54 
 7077      49434153 
 7078              	.LASF221:
 7079 0ec3 53657452 		.ascii	"SetRxDutyCycle\000"
 7079      78447574 
 7079      79437963 
 7079      6C6500
 7080              	.LASF553:
 7081 0ed2 47657454 		.ascii	"GetTemperatureLevel\000"
 7081      656D7065 
 7081      72617475 
 7081      72654C65 
 7081      76656C00 
 7082              	.LASF337:
 7083 0ee6 4672616D 		.ascii	"FramePending\000"
 7083      6550656E 
 7083      64696E67 
 7083      00
 7084              	.LASF568:
 7085 0ef3 4C6F5261 		.ascii	"LoRaMacClassBBeaconFreqReq\000"
 7085      4D616343 
 7085      6C617373 
 7085      42426561 
ARM GAS  C:\Users\EBANO_~1\AppData\Local\Temp\ccis3phW.s 			page 165


 7085      636F6E46 
 7086              	.LASF452:
 7087 0f0e 41707053 		.ascii	"AppSKey\000"
 7087      4B657900 
 7088              	.LASF21:
 7089 0f16 5F5F7763 		.ascii	"__wchb\000"
 7089      686200
 7090              	.LASF583:
 7091 0f1d 4C6F5261 		.ascii	"LoRaMacClassBResumeBeaconing\000"
 7091      4D616343 
 7091      6C617373 
 7091      42526573 
 7091      756D6542 
 7092              	.LASF115:
 7093 0f3a 5F6D6272 		.ascii	"_mbrtowc_state\000"
 7093      746F7763 
 7093      5F737461 
 7093      746500
 7094              	.LASF36:
 7095 0f49 5F5F746D 		.ascii	"__tm_hour\000"
 7095      5F686F75 
 7095      7200
 7096              	.LASF177:
 7097 0f53 4D4F4445 		.ascii	"MODEM_FSK\000"
 7097      4D5F4653 
 7097      4B00
 7098              	.LASF243:
 7099 0f5d 52783243 		.ascii	"Rx2ChannelParams_t\000"
 7099      68616E6E 
 7099      656C5061 
 7099      72616D73 
 7099      5F7400
 7100              	.LASF19:
 7101 0f70 77696E74 		.ascii	"wint_t\000"
 7101      5F7400
 7102              	.LASF88:
 7103 0f77 5F6E6577 		.ascii	"_new\000"
 7103      00
 7104              	.LASF207:
 7105 0f7c 536C6565 		.ascii	"Sleep\000"
 7105      7000
 7106              	.LASF388:
 7107 0f82 4D49425F 		.ascii	"MIB_APP_S_KEY\000"
 7107      4150505F 
 7107      535F4B45 
 7107      5900
 7108              	.LASF95:
 7109 0f90 5F6E696F 		.ascii	"_niobs\000"
 7109      627300
 7110              	.LASF516:
 7111 0f97 4C4F5241 		.ascii	"LORAMAC_STATUS_MAC_COMMAD_ERROR\000"
 7111      4D41435F 
 7111      53544154 
 7111      55535F4D 
 7111      41435F43 
 7112              	.LASF279:
 7113 0fb7 4368616E 		.ascii	"ChannelsNbTrans\000"
ARM GAS  C:\Users\EBANO_~1\AppData\Local\Temp\ccis3phW.s 			page 166


 7113      6E656C73 
 7113      4E625472 
 7113      616E7300 
 7114              	.LASF179:
 7115 0fc7 52616469 		.ascii	"RadioModems_t\000"
 7115      6F4D6F64 
 7115      656D735F 
 7115      7400
 7116              	.LASF72:
 7117 0fd5 5F657272 		.ascii	"_errno\000"
 7117      6E6F00
 7118              	.LASF37:
 7119 0fdc 5F5F746D 		.ascii	"__tm_mday\000"
 7119      5F6D6461 
 7119      7900
 7120              	.LASF559:
 7121 0fe6 4C6F5261 		.ascii	"LoRaMacDevAddr\000"
 7121      4D616344 
 7121      65764164 
 7121      647200
 7122              	.LASF44:
 7123 0ff5 5F666E61 		.ascii	"_fnargs\000"
 7123      72677300 
 7124              	.LASF524:
 7125 0ffd 4C4F5241 		.ascii	"LORAMAC_REGION_CN470\000"
 7125      4D41435F 
 7125      52454749 
 7125      4F4E5F43 
 7125      4E343730 
 7126              	.LASF319:
 7127 1012 4D6C6D65 		.ascii	"MlmeReq\000"
 7127      52657100 
 7128              	.LASF363:
 7129 101a 4D6C6D65 		.ascii	"MlmeRequest\000"
 7129      52657175 
 7129      65737400 
 7130              	.LASF376:
 7131 1026 4D49425F 		.ascii	"MIB_DEVICE_CLASS\000"
 7131      44455649 
 7131      43455F43 
 7131      4C415353 
 7131      00
 7132              	.LASF254:
 7133 1037 52656769 		.ascii	"RegionNvmCtx\000"
 7133      6F6E4E76 
 7133      6D437478 
 7133      00
 7134              	.LASF424:
 7135 1044 4D49425F 		.ascii	"MIB_ABP_LORAWAN_VERSION\000"
 7135      4142505F 
 7135      4C4F5241 
 7135      57414E5F 
 7135      56455253 
 7136              	.LASF573:
 7137 105c 62656163 		.ascii	"beaconTimingChannel\000"
 7137      6F6E5469 
 7137      6D696E67 
ARM GAS  C:\Users\EBANO_~1\AppData\Local\Temp\ccis3phW.s 			page 167


 7137      4368616E 
 7137      6E656C00 
 7138              	.LASF289:
 7139 1070 4D756C74 		.ascii	"MulticastChannel_t\000"
 7139      69636173 
 7139      74436861 
 7139      6E6E656C 
 7139      5F7400
 7140              	.LASF327:
 7141 1083 4D435053 		.ascii	"MCPS_CONFIRMED\000"
 7141      5F434F4E 
 7141      4649524D 
 7141      454400
 7142              	.LASF290:
 7143 1092 73477753 		.ascii	"sGwSpecific\000"
 7143      70656369 
 7143      66696300 
 7144              	.LASF28:
 7145 109e 5F6E6578 		.ascii	"_next\000"
 7145      7400
 7146              	.LASF190:
 7147 10a4 46687373 		.ascii	"FhssChangeChannel\000"
 7147      4368616E 
 7147      67654368 
 7147      616E6E65 
 7147      6C00
 7148              	.LASF322:
 7149 10b6 654C6F52 		.ascii	"eLoRaMacFlags_t\000"
 7149      614D6163 
 7149      466C6167 
 7149      735F7400 
 7150              	.LASF112:
 7151 10c6 5F736967 		.ascii	"_signal_buf\000"
 7151      6E616C5F 
 7151      62756600 
 7152              	.LASF443:
 7153 10d2 4E657449 		.ascii	"NetID\000"
 7153      4400
 7154              	.LASF535:
 7155 10d8 42454143 		.ascii	"BEACON_STATE_ACQUISITION_BY_TIME\000"
 7155      4F4E5F53 
 7155      54415445 
 7155      5F414351 
 7155      55495349 
 7156              	.LASF58:
 7157 10f9 5F636F6F 		.ascii	"_cookie\000"
 7157      6B696500 
 7158              	.LASF176:
 7159 1101 5F747A6E 		.ascii	"_tzname\000"
 7159      616D6500 
 7160              	.LASF506:
 7161 1109 4C4F5241 		.ascii	"LORAMAC_STATUS_REGION_NOT_SUPPORTED\000"
 7161      4D41435F 
 7161      53544154 
 7161      55535F52 
 7161      4547494F 
 7162              	.LASF250:
ARM GAS  C:\Users\EBANO_~1\AppData\Local\Temp\ccis3phW.s 			page 168


 7163 112d 4C6F5261 		.ascii	"LoRaMacRxSlot_t\000"
 7163      4D616352 
 7163      78536C6F 
 7163      745F7400 
 7164              	.LASF181:
 7165 113d 52465F52 		.ascii	"RF_RX_RUNNING\000"
 7165      585F5255 
 7165      4E4E494E 
 7165      4700
 7166              	.LASF519:
 7167 114b 4C4F5241 		.ascii	"LORAMAC_STATUS_ERROR\000"
 7167      4D41435F 
 7167      53544154 
 7167      55535F45 
 7167      52524F52 
 7168              	.LASF258:
 7169 1160 53656375 		.ascii	"SecureElementNvmCtx\000"
 7169      7265456C 
 7169      656D656E 
 7169      744E766D 
 7169      43747800 
 7170              	.LASF387:
 7171 1174 4D49425F 		.ascii	"MIB_NWK_S_ENC_KEY\000"
 7171      4E574B5F 
 7171      535F454E 
 7171      435F4B45 
 7171      5900
 7172              	.LASF415:
 7173 1186 4D49425F 		.ascii	"MIB_CHANNELS_DEFAULT_DATARATE\000"
 7173      4348414E 
 7173      4E454C53 
 7173      5F444546 
 7173      41554C54 
 7174              	.LASF306:
 7175 11a4 4C4F5241 		.ascii	"LORAMAC_EVENT_INFO_STATUS_DOWNLINK_REPEATED\000"
 7175      4D41435F 
 7175      4556454E 
 7175      545F494E 
 7175      464F5F53 
 7176              	.LASF416:
 7177 11d0 4D49425F 		.ascii	"MIB_CHANNELS_DATARATE\000"
 7177      4348414E 
 7177      4E454C53 
 7177      5F444154 
 7177      41524154 
 7178              	.LASF542:
 7179 11e6 42454143 		.ascii	"BEACON_STATE_GUARD\000"
 7179      4F4E5F53 
 7179      54415445 
 7179      5F475541 
 7179      524400
 7180              	.LASF330:
 7181 11f9 4D637073 		.ascii	"Mcps_t\000"
 7181      5F7400
 7182              	.LASF346:
 7183 1200 4D4C4D45 		.ascii	"MLME_JOIN\000"
 7183      5F4A4F49 
ARM GAS  C:\Users\EBANO_~1\AppData\Local\Temp\ccis3phW.s 			page 169


 7183      4E00
 7184              	.LASF551:
 7185 120a 50696E67 		.ascii	"PingSlotState_t\000"
 7185      536C6F74 
 7185      53746174 
 7185      655F7400 
 7186              	.LASF197:
 7187 121a 47657453 		.ascii	"GetStatus\000"
 7187      74617475 
 7187      7300
 7188              	.LASF203:
 7189 1224 53657454 		.ascii	"SetTxConfig\000"
 7189      78436F6E 
 7189      66696700 
 7190              	.LASF273:
 7191 1230 4D696E52 		.ascii	"MinRxSymbols\000"
 7191      7853796D 
 7191      626F6C73 
 7191      00
 7192              	.LASF241:
 7193 123d 4368616E 		.ascii	"ChannelParams_t\000"
 7193      6E656C50 
 7193      6172616D 
 7193      735F7400 
 7194              	.LASF468:
 7195 124d 4368616E 		.ascii	"ChannelList\000"
 7195      6E656C4C 
 7195      69737400 
 7196              	.LASF224:
 7197 1259 434C4153 		.ascii	"CLASS_A\000"
 7197      535F4100 
 7198              	.LASF225:
 7199 1261 434C4153 		.ascii	"CLASS_B\000"
 7199      535F4200 
 7200              	.LASF226:
 7201 1269 434C4153 		.ascii	"CLASS_C\000"
 7201      535F4300 
 7202              	.LASF34:
 7203 1271 5F5F746D 		.ascii	"__tm_sec\000"
 7203      5F736563 
 7203      00
 7204              	.LASF43:
 7205 127a 5F6F6E5F 		.ascii	"_on_exit_args\000"
 7205      65786974 
 7205      5F617267 
 7205      7300
 7206              	.LASF300:
 7207 1288 4C4F5241 		.ascii	"LORAMAC_EVENT_INFO_STATUS_TX_TIMEOUT\000"
 7207      4D41435F 
 7207      4556454E 
 7207      545F494E 
 7207      464F5F53 
 7208              	.LASF511:
 7209 12ad 4C4F5241 		.ascii	"LORAMAC_STATUS_BUSY_BEACON_RESERVED_TIME\000"
 7209      4D41435F 
 7209      53544154 
 7209      55535F42 
ARM GAS  C:\Users\EBANO_~1\AppData\Local\Temp\ccis3phW.s 			page 170


 7209      5553595F 
 7210              	.LASF597:
 7211 12d6 636F6E74 		.ascii	"context\000"
 7211      65787400 
 7212              	.LASF533:
 7213 12de 65426561 		.ascii	"eBeaconState\000"
 7213      636F6E53 
 7213      74617465 
 7213      00
 7214              	.LASF339:
 7215 12eb 42756666 		.ascii	"BufferSize\000"
 7215      65725369 
 7215      7A6500
 7216              	.LASF335:
 7217 12f6 506F7274 		.ascii	"Port\000"
 7217      00
 7218              	.LASF560:
 7219 12fb 4C6F5261 		.ascii	"LoRaMacRegion\000"
 7219      4D616352 
 7219      6567696F 
 7219      6E00
 7220              	.LASF444:
 7221 1309 44657641 		.ascii	"DevAddr\000"
 7221      64647200 
 7222              	.LASF370:
 7223 1311 4D6C6D65 		.ascii	"MlmeConfirm_t\000"
 7223      436F6E66 
 7223      69726D5F 
 7223      7400
 7224              	.LASF287:
 7225 131f 4C6F5261 		.ascii	"LoRaMacParams_t\000"
 7225      4D616350 
 7225      6172616D 
 7225      735F7400 
 7226              	.LASF453:
 7227 132f 4D634B45 		.ascii	"McKEKey\000"
 7227      4B657900 
 7228              	.LASF600:
 7229 1337 4C6F5261 		.ascii	"LoRaMacClassBBeaconTimerEvent\000"
 7229      4D616343 
 7229      6C617373 
 7229      42426561 
 7229      636F6E54 
 7230              	.LASF117:
 7231 1355 5F776372 		.ascii	"_wcrtomb_state\000"
 7231      746F6D62 
 7231      5F737461 
 7231      746500
 7232              	.LASF546:
 7233 1364 6550696E 		.ascii	"ePingSlotState\000"
 7233      67536C6F 
 7233      74537461 
 7233      746500
 7234              	.LASF582:
 7235 1373 6E657874 		.ascii	"nextClass\000"
 7235      436C6173 
 7235      7300
ARM GAS  C:\Users\EBANO_~1\AppData\Local\Temp\ccis3phW.s 			page 171


 7236              	.LASF373:
 7237 137d 42656163 		.ascii	"BeaconInfo\000"
 7237      6F6E496E 
 7237      666F00
 7238              	.LASF184:
 7239 1388 52616469 		.ascii	"RadioState_t\000"
 7239      6F537461 
 7239      74655F74 
 7239      00
 7240              	.LASF574:
 7241 1395 6C617374 		.ascii	"lastRxDone\000"
 7241      5278446F 
 7241      6E6500
 7242              	.LASF173:
 7243 13a0 4576656E 		.ascii	"EventNvmCtxChanged\000"
 7243      744E766D 
 7243      43747843 
 7243      68616E67 
 7243      656400
 7244              	.LASF134:
 7245 13b3 696E7438 		.ascii	"int8_t\000"
 7245      5F7400
 7246              	.LASF510:
 7247 13ba 4C4F5241 		.ascii	"LORAMAC_STATUS_NO_FREE_CHANNEL_FOUND\000"
 7247      4D41435F 
 7247      53544154 
 7247      55535F4E 
 7247      4F5F4652 
 7248              	.LASF27:
 7249 13df 5F5F554C 		.ascii	"__ULong\000"
 7249      6F6E6700 
 7250              	.LASF476:
 7251 13e7 436F6E74 		.ascii	"Contexts\000"
 7251      65787473 
 7251      00
 7252              	.LASF435:
 7253 13f0 4D49425F 		.ascii	"MIB_PING_SLOT_SYMBOL_TO_EXPANSION_FACTOR\000"
 7253      50494E47 
 7253      5F534C4F 
 7253      545F5359 
 7253      4D424F4C 
 7254              	.LASF437:
 7255 1419 4D49425F 		.ascii	"MIB_PING_SLOT_DATARATE\000"
 7255      50494E47 
 7255      5F534C4F 
 7255      545F4441 
 7255      54415241 
 7256              	.LASF149:
 7257 1430 4669656C 		.ascii	"Fields\000"
 7257      647300
 7258              	.LASF605:
 7259 1437 4C6F5261 		.ascii	"LoRaMacClassBSetBeaconState\000"
 7259      4D616343 
 7259      6C617373 
 7259      42536574 
 7259      42656163 
 7260              	.LASF454:
ARM GAS  C:\Users\EBANO_~1\AppData\Local\Temp\ccis3phW.s 			page 172


 7261 1453 4D634B65 		.ascii	"McKey0\000"
 7261      793000
 7262              	.LASF457:
 7263 145a 4D634B65 		.ascii	"McKey1\000"
 7263      793100
 7264              	.LASF460:
 7265 1461 4D634B65 		.ascii	"McKey2\000"
 7265      793200
 7266              	.LASF463:
 7267 1468 4D634B65 		.ascii	"McKey3\000"
 7267      793300
 7268              	.LASF230:
 7269 146f 41435449 		.ascii	"ACTIVATION_TYPE_ABP\000"
 7269      56415449 
 7269      4F4E5F54 
 7269      5950455F 
 7269      41425000 
 7270              	.LASF102:
 7271 1483 5F737472 		.ascii	"_strtok_last\000"
 7271      746F6B5F 
 7271      6C617374 
 7271      00
 7272              	.LASF272:
 7273 1490 53797374 		.ascii	"SystemMaxRxError\000"
 7273      656D4D61 
 7273      78527845 
 7273      72726F72 
 7273      00
 7274              	.LASF204:
 7275 14a1 43686563 		.ascii	"CheckRfFrequency\000"
 7275      6B526646 
 7275      72657175 
 7275      656E6379 
 7275      00
 7276              	.LASF98:
 7277 14b2 5F736565 		.ascii	"_seed\000"
 7277      6400
 7278              	.LASF572:
 7279 14b8 62656163 		.ascii	"beaconTimingDelay\000"
 7279      6F6E5469 
 7279      6D696E67 
 7279      44656C61 
 7279      7900
 7280              	.LASF61:
 7281 14ca 5F736565 		.ascii	"_seek\000"
 7281      6B00
 7282              	.LASF238:
 7283 14d0 52783146 		.ascii	"Rx1Frequency\000"
 7283      72657175 
 7283      656E6379 
 7283      00
 7284              	.LASF280:
 7285 14dd 52783144 		.ascii	"Rx1DrOffset\000"
 7285      724F6666 
 7285      73657400 
 7286              	.LASF450:
 7287 14e9 534E776B 		.ascii	"SNwkSIntKey\000"
ARM GAS  C:\Users\EBANO_~1\AppData\Local\Temp\ccis3phW.s 			page 173


 7287      53496E74 
 7287      4B657900 
 7288              	.LASF260:
 7289 14f5 436F6D6D 		.ascii	"CommandsNvmCtx\000"
 7289      616E6473 
 7289      4E766D43 
 7289      747800
 7290              	.LASF538:
 7291 1504 42454143 		.ascii	"BEACON_STATE_REACQUISITION\000"
 7291      4F4E5F53 
 7291      54415445 
 7291      5F524541 
 7291      43515549 
 7292              	.LASF136:
 7293 151f 696E7431 		.ascii	"int16_t\000"
 7293      365F7400 
 7294              	.LASF11:
 7295 1527 73686F72 		.ascii	"short unsigned int\000"
 7295      7420756E 
 7295      7369676E 
 7295      65642069 
 7295      6E7400
 7296              	.LASF5:
 7297 153a 7369676E 		.ascii	"signed char\000"
 7297      65642063 
 7297      68617200 
 7298              	.LASF547:
 7299 1546 50494E47 		.ascii	"PINGSLOT_STATE_CALC_PING_OFFSET\000"
 7299      534C4F54 
 7299      5F535441 
 7299      54455F43 
 7299      414C435F 
 7300              	.LASF543:
 7301 1566 42454143 		.ascii	"BEACON_STATE_RX\000"
 7301      4F4E5F53 
 7301      54415445 
 7301      5F525800 
 7302              	.LASF349:
 7303 1576 4D4C4D45 		.ascii	"MLME_LINK_CHECK\000"
 7303      5F4C494E 
 7303      4B5F4348 
 7303      45434B00 
 7304              	.LASF129:
 7305 1586 5F5F6664 		.ascii	"__fdlibm_ieee\000"
 7305      6C69626D 
 7305      5F696565 
 7305      6500
 7306              	.LASF274:
 7307 1594 4D617852 		.ascii	"MaxRxWindow\000"
 7307      7857696E 
 7307      646F7700 
 7308              	.LASF486:
 7309 15a0 50696E67 		.ascii	"PingSlotSymbolToExpansionMax\000"
 7309      536C6F74 
 7309      53796D62 
 7309      6F6C546F 
 7309      45787061 
ARM GAS  C:\Users\EBANO_~1\AppData\Local\Temp\ccis3phW.s 			page 174


 7310              	.LASF295:
 7311 15bd 47775370 		.ascii	"GwSpecific\000"
 7311      65636966 
 7311      696300
 7312              	.LASF334:
 7313 15c8 4D756C74 		.ascii	"Multicast\000"
 7313      69636173 
 7313      7400
 7314              	.LASF440:
 7315 15d2 436C6173 		.ascii	"Class\000"
 7315      7300
 7316              	.LASF523:
 7317 15d8 4C4F5241 		.ascii	"LORAMAC_REGION_AU915\000"
 7317      4D41435F 
 7317      52454749 
 7317      4F4E5F41 
 7317      55393135 
 7318              	.LASF194:
 7319 15ed 496F496E 		.ascii	"IoInit\000"
 7319      697400
 7320              	.LASF85:
 7321 15f4 5F667265 		.ascii	"_freelist\000"
 7321      656C6973 
 7321      7400
 7322              	.LASF423:
 7323 15fe 4D49425F 		.ascii	"MIB_NVM_CTXS\000"
 7323      4E564D5F 
 7323      43545853 
 7323      00
 7324              	.LASF521:
 7325 160b 654C6F52 		.ascii	"eLoRaMacRegion_t\000"
 7325      614D6163 
 7325      52656769 
 7325      6F6E5F74 
 7325      00
 7326              	.LASF66:
 7327 161c 5F6F6666 		.ascii	"_offset\000"
 7327      73657400 
 7328              	.LASF139:
 7329 1624 53797374 		.ascii	"SystemCoreClock\000"
 7329      656D436F 
 7329      7265436C 
 7329      6F636B00 
 7330              	.LASF283:
 7331 1634 446F776E 		.ascii	"DownlinkDwellTime\000"
 7331      6C696E6B 
 7331      4477656C 
 7331      6C54696D 
 7331      6500
 7332              	.LASF205:
 7333 1646 54696D65 		.ascii	"TimeOnAir\000"
 7333      4F6E4169 
 7333      7200
 7334              	.LASF540:
 7335 1650 42454143 		.ascii	"BEACON_STATE_HALT\000"
 7335      4F4E5F53 
 7335      54415445 
ARM GAS  C:\Users\EBANO_~1\AppData\Local\Temp\ccis3phW.s 			page 175


 7335      5F48414C 
 7335      5400
 7336              	.LASF51:
 7337 1662 5F5F7362 		.ascii	"__sbuf\000"
 7337      756600
 7338              	.LASF111:
 7339 1669 5F6C3634 		.ascii	"_l64a_buf\000"
 7339      615F6275 
 7339      6600
 7340              	.LASF427:
 7341 1673 4D49425F 		.ascii	"MIB_BEACON_GUARD\000"
 7341      42454143 
 7341      4F4E5F47 
 7341      55415244 
 7341      00
 7342              	.LASF285:
 7343 1684 416E7465 		.ascii	"AntennaGain\000"
 7343      6E6E6147 
 7343      61696E00 
 7344              	.LASF485:
 7345 1690 42656163 		.ascii	"BeaconSymbolToExpansionMax\000"
 7345      6F6E5379 
 7345      6D626F6C 
 7345      546F4578 
 7345      70616E73 
 7346              	.LASF269:
 7347 16ab 734C6F52 		.ascii	"sLoRaMacParams\000"
 7347      614D6163 
 7347      50617261 
 7347      6D7300
 7348              	.LASF103:
 7349 16ba 5F617363 		.ascii	"_asctime_buf\000"
 7349      74696D65 
 7349      5F627566 
 7349      00
 7350              	.LASF569:
 7351 16c7 74785469 		.ascii	"txTimeOnAir\000"
 7351      6D654F6E 
 7351      41697200 
 7352              	.LASF20:
 7353 16d3 5F5F7763 		.ascii	"__wch\000"
 7353      6800
 7354              	.LASF474:
 7355 16d9 4D756C74 		.ascii	"MulticastChannel\000"
 7355      69636173 
 7355      74436861 
 7355      6E6E656C 
 7355      00
 7356              	.LASF118:
 7357 16ea 5F776373 		.ascii	"_wcsrtombs_state\000"
 7357      72746F6D 
 7357      62735F73 
 7357      74617465 
 7357      00
 7358              	.LASF429:
 7359 16fb 4D49425F 		.ascii	"MIB_BEACON_WINDOW_SLOTS\000"
 7359      42454143 
ARM GAS  C:\Users\EBANO_~1\AppData\Local\Temp\ccis3phW.s 			page 176


 7359      4F4E5F57 
 7359      494E444F 
 7359      575F534C 
 7360              	.LASF544:
 7361 1713 42454143 		.ascii	"BEACON_STATE_LOST\000"
 7361      4F4E5F53 
 7361      54415445 
 7361      5F4C4F53 
 7361      5400
 7362              	.LASF351:
 7363 1725 4D4C4D45 		.ascii	"MLME_TXCW_1\000"
 7363      5F545843 
 7363      575F3100 
 7364              	.LASF153:
 7365 1731 5F5F6664 		.ascii	"__fdlibm_version\000"
 7365      6C69626D 
 7365      5F766572 
 7365      73696F6E 
 7365      00
 7366              	.LASF309:
 7367 1742 4C4F5241 		.ascii	"LORAMAC_EVENT_INFO_STATUS_ADDRESS_FAIL\000"
 7367      4D41435F 
 7367      4556454E 
 7367      545F494E 
 7367      464F5F53 
 7368              	.LASF426:
 7369 1769 4D49425F 		.ascii	"MIB_BEACON_RESERVED\000"
 7369      42454143 
 7369      4F4E5F52 
 7369      45534552 
 7369      56454400 
 7370              	.LASF12:
 7371 177d 6C6F6E67 		.ascii	"long int\000"
 7371      20696E74 
 7371      00
 7372              	.LASF374:
 7373 1786 4D6C6D65 		.ascii	"MlmeIndication_t\000"
 7373      496E6469 
 7373      63617469 
 7373      6F6E5F74 
 7373      00
 7374              	.LASF110:
 7375 1797 5F776374 		.ascii	"_wctomb_state\000"
 7375      6F6D625F 
 7375      73746174 
 7375      6500
 7376              	.LASF251:
 7377 17a5 734C6F52 		.ascii	"sLoRaMacCtxs\000"
 7377      614D6163 
 7377      43747873 
 7377      00
 7378              	.LASF555:
 7379 17b2 4C6F5261 		.ascii	"LoRaMacClassBCallback_t\000"
 7379      4D616343 
 7379      6C617373 
 7379      4243616C 
 7379      6C626163 
ARM GAS  C:\Users\EBANO_~1\AppData\Local\Temp\ccis3phW.s 			page 177


 7380              	.LASF448:
 7381 17ca 4A53456E 		.ascii	"JSEncKey\000"
 7381      634B6579 
 7381      00
 7382              	.LASF613:
 7383 17d3 636C6173 		.ascii	"classBParams\000"
 7383      73425061 
 7383      72616D73 
 7383      00
 7384              	.LASF277:
 7385 17e0 4A6F696E 		.ascii	"JoinAcceptDelay1\000"
 7385      41636365 
 7385      70744465 
 7385      6C617931 
 7385      00
 7386              	.LASF278:
 7387 17f1 4A6F696E 		.ascii	"JoinAcceptDelay2\000"
 7387      41636365 
 7387      70744465 
 7387      6C617932 
 7387      00
 7388              	.LASF96:
 7389 1802 5F696F62 		.ascii	"_iobs\000"
 7389      7300
 7390              	.LASF473:
 7391 1808 4368616E 		.ascii	"ChannelsDefaultTxPower\000"
 7391      6E656C73 
 7391      44656661 
 7391      756C7454 
 7391      78506F77 
 7392              	.LASF77:
 7393 181f 5F656D65 		.ascii	"_emergency\000"
 7393      7267656E 
 7393      637900
 7394              	.LASF536:
 7395 182a 42454143 		.ascii	"BEACON_STATE_TIMEOUT\000"
 7395      4F4E5F53 
 7395      54415445 
 7395      5F54494D 
 7395      454F5554 
 7396              	.LASF336:
 7397 183f 52784461 		.ascii	"RxDatarate\000"
 7397      74617261 
 7397      746500
 7398              	.LASF539:
 7399 184a 42454143 		.ascii	"BEACON_STATE_LOCKED\000"
 7399      4F4E5F53 
 7399      54415445 
 7399      5F4C4F43 
 7399      4B454400 
 7400              	.LASF120:
 7401 185e 5F6E6578 		.ascii	"_nextf\000"
 7401      746600
 7402              	.LASF106:
 7403 1865 5F72616E 		.ascii	"_rand_next\000"
 7403      645F6E65 
 7403      787400
ARM GAS  C:\Users\EBANO_~1\AppData\Local\Temp\ccis3phW.s 			page 178


 7404              	.LASF419:
 7405 1870 4D49425F 		.ascii	"MIB_SYSTEM_MAX_RX_ERROR\000"
 7405      53595354 
 7405      454D5F4D 
 7405      41585F52 
 7405      585F4552 
 7406              	.LASF549:
 7407 1888 50494E47 		.ascii	"PINGSLOT_STATE_IDLE\000"
 7407      534C4F54 
 7407      5F535441 
 7407      54455F49 
 7407      444C4500 
 7408              	.LASF255:
 7409 189c 52656769 		.ascii	"RegionNvmCtxSize\000"
 7409      6F6E4E76 
 7409      6D437478 
 7409      53697A65 
 7409      00
 7410              	.LASF138:
 7411 18ad 75696E74 		.ascii	"uint32_t\000"
 7411      33325F74 
 7411      00
 7412              	.LASF333:
 7413 18b6 53746174 		.ascii	"Status\000"
 7413      757300
 7414              	.LASF324:
 7415 18bd 4C6F5261 		.ascii	"LoRaMacFlags_t\000"
 7415      4D616346 
 7415      6C616773 
 7415      5F7400
 7416              	.LASF171:
 7417 18cc 50696E67 		.ascii	"PingOffset\000"
 7417      4F666673 
 7417      657400
 7418              	.LASF313:
 7419 18d7 4C4F5241 		.ascii	"LORAMAC_EVENT_INFO_STATUS_BEACON_LOST\000"
 7419      4D41435F 
 7419      4556454E 
 7419      545F494E 
 7419      464F5F53 
 7420              	.LASF29:
 7421 18fd 5F6D6178 		.ascii	"_maxwds\000"
 7421      77647300 
 7422              	.LASF331:
 7423 1905 734D6370 		.ascii	"sMcpsIndication\000"
 7423      73496E64 
 7423      69636174 
 7423      696F6E00 
 7424              	.LASF210:
 7425 1915 53657454 		.ascii	"SetTxContinuousWave\000"
 7425      78436F6E 
 7425      74696E75 
 7425      6F757357 
 7425      61766500 
 7426              	.LASF305:
 7427 1929 4C4F5241 		.ascii	"LORAMAC_EVENT_INFO_STATUS_JOIN_FAIL\000"
 7427      4D41435F 
ARM GAS  C:\Users\EBANO_~1\AppData\Local\Temp\ccis3phW.s 			page 179


 7427      4556454E 
 7427      545F494E 
 7427      464F5F53 
 7428              	.LASF422:
 7429 194d 4D49425F 		.ascii	"MIB_DEFAULT_ANTENNA_GAIN\000"
 7429      44454641 
 7429      554C545F 
 7429      414E5445 
 7429      4E4E415F 
 7430              	.LASF264:
 7431 1966 436F6E66 		.ascii	"ConfirmQueueNvmCtx\000"
 7431      69726D51 
 7431      75657565 
 7431      4E766D43 
 7431      747800
 7432              	.LASF598:
 7433 1979 4C6F5261 		.ascii	"LoRaMacClassBPingSlotTimerEvent\000"
 7433      4D616343 
 7433      6C617373 
 7433      4250696E 
 7433      67536C6F 
 7434              	.LASF2:
 7435 1999 6C6F6E67 		.ascii	"long double\000"
 7435      20646F75 
 7435      626C6500 
 7436              	.LASF323:
 7437 19a5 42697473 		.ascii	"Bits\000"
 7437      00
 7438              	.LASF491:
 7439 19aa 4D696250 		.ascii	"MibParam_t\000"
 7439      6172616D 
 7439      5F7400
 7440              	.LASF143:
 7441 19b5 7375626F 		.ascii	"suboptarg\000"
 7441      70746172 
 7441      6700
 7442              	.LASF257:
 7443 19bf 43727970 		.ascii	"CryptoNvmCtxSize\000"
 7443      746F4E76 
 7443      6D437478 
 7443      53697A65 
 7443      00
 7444              	.LASF14:
 7445 19d0 6C6F6E67 		.ascii	"long unsigned int\000"
 7445      20756E73 
 7445      69676E65 
 7445      6420696E 
 7445      7400
 7446              	.LASF471:
 7447 19e2 4368616E 		.ascii	"ChannelsDefaultMask\000"
 7447      6E656C73 
 7447      44656661 
 7447      756C744D 
 7447      61736B00 
 7448              	.LASF365:
 7449 19f6 44656D6F 		.ascii	"DemodMargin\000"
 7449      644D6172 
ARM GAS  C:\Users\EBANO_~1\AppData\Local\Temp\ccis3phW.s 			page 180


 7449      67696E00 
 7450              	.LASF529:
 7451 1a02 4C4F5241 		.ascii	"LORAMAC_REGION_IN865\000"
 7451      4D41435F 
 7451      52454749 
 7451      4F4E5F49 
 7451      4E383635 
 7452              	.LASF366:
 7453 1a17 4E624761 		.ascii	"NbGateways\000"
 7453      74657761 
 7453      797300
 7454              	.LASF200:
 7455 1a22 49734368 		.ascii	"IsChannelFree\000"
 7455      616E6E65 
 7455      6C467265 
 7455      6500
 7456              	.LASF411:
 7457 1a30 4D49425F 		.ascii	"MIB_RECEIVE_DELAY_1\000"
 7457      52454345 
 7457      4956455F 
 7457      44454C41 
 7457      595F3100 
 7458              	.LASF412:
 7459 1a44 4D49425F 		.ascii	"MIB_RECEIVE_DELAY_2\000"
 7459      52454345 
 7459      4956455F 
 7459      44454C41 
 7459      595F3200 
 7460              	.LASF386:
 7461 1a58 4D49425F 		.ascii	"MIB_S_NWK_S_INT_KEY\000"
 7461      535F4E57 
 7461      4B5F535F 
 7461      494E545F 
 7461      4B455900 
 7462              	.LASF62:
 7463 1a6c 5F636C6F 		.ascii	"_close\000"
 7463      736500
 7464              	.LASF217:
 7465 1a73 53657450 		.ascii	"SetPublicNetwork\000"
 7465      75626C69 
 7465      634E6574 
 7465      776F726B 
 7465      00
 7466              	.LASF26:
 7467 1a84 63686172 		.ascii	"char\000"
 7467      00
 7468              	.LASF183:
 7469 1a89 52465F43 		.ascii	"RF_CAD\000"
 7469      414400
 7470              	.LASF94:
 7471 1a90 5F676C75 		.ascii	"_glue\000"
 7471      6500
 7472              	.LASF299:
 7473 1a96 4C4F5241 		.ascii	"LORAMAC_EVENT_INFO_STATUS_ERROR\000"
 7473      4D41435F 
 7473      4556454E 
 7473      545F494E 
ARM GAS  C:\Users\EBANO_~1\AppData\Local\Temp\ccis3phW.s 			page 181


 7473      464F5F53 
 7474              	.LASF438:
 7475 1ab6 4D69625F 		.ascii	"Mib_t\000"
 7475      7400
 7476              	.LASF141:
 7477 1abc 41504250 		.ascii	"APBPrescTable\000"
 7477      72657363 
 7477      5461626C 
 7477      6500
 7478              	.LASF455:
 7479 1aca 4D634170 		.ascii	"McAppSKey0\000"
 7479      70534B65 
 7479      793000
 7480              	.LASF458:
 7481 1ad5 4D634170 		.ascii	"McAppSKey1\000"
 7481      70534B65 
 7481      793100
 7482              	.LASF461:
 7483 1ae0 4D634170 		.ascii	"McAppSKey2\000"
 7483      70534B65 
 7483      793200
 7484              	.LASF464:
 7485 1aeb 4D634170 		.ascii	"McAppSKey3\000"
 7485      70534B65 
 7485      793300
 7486              	.LASF219:
 7487 1af6 49727150 		.ascii	"IrqProcess\000"
 7487      726F6365 
 7487      737300
 7488              	.LASF557:
 7489 1b01 4D6C6D65 		.ascii	"MlmeConfirm\000"
 7489      436F6E66 
 7489      69726D00 
 7490              	.LASF320:
 7491 1b0d 4D6C6D65 		.ascii	"MlmeInd\000"
 7491      496E6400 
 7492              	.LASF593:
 7493 1b15 4C6F5261 		.ascii	"LoRaMacClassBRxBeacon\000"
 7493      4D616343 
 7493      6C617373 
 7493      42527842 
 7493      6561636F 
 7494              	.LASF565:
 7495 1b2b 4C6F5261 		.ascii	"LoRaMacClassBStartRxSlots\000"
 7495      4D616343 
 7495      6C617373 
 7495      42537461 
 7495      72745278 
 7496              	.LASF501:
 7497 1b45 4C4F5241 		.ascii	"LORAMAC_STATUS_FREQUENCY_INVALID\000"
 7497      4D41435F 
 7497      53544154 
 7497      55535F46 
 7497      52455155 
 7498              	.LASF577:
 7499 1b66 4C6F5261 		.ascii	"LoRaMacClassBPingSlotInfoAns\000"
 7499      4D616343 
ARM GAS  C:\Users\EBANO_~1\AppData\Local\Temp\ccis3phW.s 			page 182


 7499      6C617373 
 7499      4250696E 
 7499      67536C6F 
 7500              	.LASF32:
 7501 1b83 5F426967 		.ascii	"_Bigint\000"
 7501      696E7400 
 7502              	.LASF307:
 7503 1b8b 4C4F5241 		.ascii	"LORAMAC_EVENT_INFO_STATUS_TX_DR_PAYLOAD_SIZE_ERROR\000"
 7503      4D41435F 
 7503      4556454E 
 7503      545F494E 
 7503      464F5F53 
 7504              	.LASF275:
 7505 1bbe 52656365 		.ascii	"ReceiveDelay1\000"
 7505      69766544 
 7505      656C6179 
 7505      3100
 7506              	.LASF276:
 7507 1bcc 52656365 		.ascii	"ReceiveDelay2\000"
 7507      69766544 
 7507      656C6179 
 7507      3200
 7508              	.LASF270:
 7509 1bda 4368616E 		.ascii	"ChannelsTxPower\000"
 7509      6E656C73 
 7509      5478506F 
 7509      77657200 
 7510              	.LASF199:
 7511 1bea 53657443 		.ascii	"SetChannel\000"
 7511      68616E6E 
 7511      656C00
 7512              	.LASF441:
 7513 1bf5 4E657477 		.ascii	"NetworkActivation\000"
 7513      6F726B41 
 7513      63746976 
 7513      6174696F 
 7513      6E00
 7514              	.LASF89:
 7515 1c07 5F617465 		.ascii	"_atexit0\000"
 7515      78697430 
 7515      00
 7516              	.LASF525:
 7517 1c10 4C4F5241 		.ascii	"LORAMAC_REGION_CN779\000"
 7517      4D41435F 
 7517      52454749 
 7517      4F4E5F43 
 7517      4E373739 
 7518              	.LASF497:
 7519 1c25 4C4F5241 		.ascii	"LORAMAC_STATUS_OK\000"
 7519      4D41435F 
 7519      53544154 
 7519      55535F4F 
 7519      4B00
 7520              	.LASF113:
 7521 1c37 5F676574 		.ascii	"_getdate_err\000"
 7521      64617465 
 7521      5F657272 
ARM GAS  C:\Users\EBANO_~1\AppData\Local\Temp\ccis3phW.s 			page 183


 7521      00
 7522              	.LASF259:
 7523 1c44 53656375 		.ascii	"SecureElementNvmCtxSize\000"
 7523      7265456C 
 7523      656D656E 
 7523      744E766D 
 7523      43747853 
 7524              	.LASF484:
 7525 1c5c 42656163 		.ascii	"BeaconSymbolToDefault\000"
 7525      6F6E5379 
 7525      6D626F6C 
 7525      546F4465 
 7525      6661756C 
 7526              	.LASF571:
 7527 1c72 4C6F5261 		.ascii	"LoRaMacClassBDeviceTimeAns\000"
 7527      4D616343 
 7527      6C617373 
 7527      42446576 
 7527      69636554 
 7528              	.LASF321:
 7529 1c8d 4D616344 		.ascii	"MacDone\000"
 7529      6F6E6500 
 7530              	.LASF294:
 7531 1c95 54696D65 		.ascii	"Time\000"
 7531      00
 7532              	.LASF602:
 7533 1c9a 6D756C74 		.ascii	"multicastSlotState\000"
 7533      69636173 
 7533      74536C6F 
 7533      74537461 
 7533      746500
 7534              	.LASF125:
 7535 1cad 5F696D70 		.ascii	"_impure_ptr\000"
 7535      7572655F 
 7535      70747200 
 7536              	.LASF65:
 7537 1cb9 5F626C6B 		.ascii	"_blksize\000"
 7537      73697A65 
 7537      00
 7538              	.LASF421:
 7539 1cc2 4D49425F 		.ascii	"MIB_ANTENNA_GAIN\000"
 7539      414E5445 
 7539      4E4E415F 
 7539      4741494E 
 7539      00
 7540              	.LASF63:
 7541 1cd3 5F756275 		.ascii	"_ubuf\000"
 7541      6600
 7542              	.LASF108:
 7543 1cd9 5F6D626C 		.ascii	"_mblen_state\000"
 7543      656E5F73 
 7543      74617465 
 7543      00
 7544              	.LASF91:
 7545 1ce6 5F5F7367 		.ascii	"__sglue\000"
 7545      6C756500 
 7546              	.LASF124:
ARM GAS  C:\Users\EBANO_~1\AppData\Local\Temp\ccis3phW.s 			page 184


 7547 1cee 5F5F6C6F 		.ascii	"__locale_t\000"
 7547      63616C65 
 7547      5F7400
 7548              	.LASF256:
 7549 1cf9 43727970 		.ascii	"CryptoNvmCtx\000"
 7549      746F4E76 
 7549      6D437478 
 7549      00
 7550              	.LASF81:
 7551 1d06 5F5F636C 		.ascii	"__cleanup\000"
 7551      65616E75 
 7551      7000
 7552              	.LASF418:
 7553 1d10 4D49425F 		.ascii	"MIB_CHANNELS_DEFAULT_TX_POWER\000"
 7553      4348414E 
 7553      4E454C53 
 7553      5F444546 
 7553      41554C54 
 7554              	.LASF291:
 7555 1d2e 496E666F 		.ascii	"InfoDesc\000"
 7555      44657363 
 7555      00
 7556              	.LASF245:
 7557 1d37 52585F53 		.ascii	"RX_SLOT_WIN_1\000"
 7557      4C4F545F 
 7557      57494E5F 
 7557      3100
 7558              	.LASF246:
 7559 1d45 52585F53 		.ascii	"RX_SLOT_WIN_2\000"
 7559      4C4F545F 
 7559      57494E5F 
 7559      3200
 7560              	.LASF417:
 7561 1d53 4D49425F 		.ascii	"MIB_CHANNELS_TX_POWER\000"
 7561      4348414E 
 7561      4E454C53 
 7561      5F54585F 
 7561      504F5745 
 7562              	.LASF142:
 7563 1d69 504C4C4D 		.ascii	"PLLMulTable\000"
 7563      756C5461 
 7563      626C6500 
 7564              	.LASF18:
 7565 1d75 5F66706F 		.ascii	"_fpos_t\000"
 7565      735F7400 
 7566              	.LASF56:
 7567 1d7d 5F66696C 		.ascii	"_file\000"
 7567      6500
 7568              	.LASF237:
 7569 1d83 73436861 		.ascii	"sChannelParams\000"
 7569      6E6E656C 
 7569      50617261 
 7569      6D7300
 7570              	.LASF54:
 7571 1d92 5F5F7346 		.ascii	"__sFILE\000"
 7571      494C4500 
 7572              	.LASF128:
ARM GAS  C:\Users\EBANO_~1\AppData\Local\Temp\ccis3phW.s 			page 185


 7573 1d9a 646F7562 		.ascii	"double\000"
 7573      6C6500
 7574              	.LASF50:
 7575 1da1 5F666E73 		.ascii	"_fns\000"
 7575      00
 7576              	.LASF534:
 7577 1da6 42454143 		.ascii	"BEACON_STATE_ACQUISITION\000"
 7577      4F4E5F53 
 7577      54415445 
 7577      5F414351 
 7577      55495349 
 7578              	.LASF314:
 7579 1dbf 4C4F5241 		.ascii	"LORAMAC_EVENT_INFO_STATUS_BEACON_NOT_FOUND\000"
 7579      4D41435F 
 7579      4556454E 
 7579      545F494E 
 7579      464F5F53 
 7580              	.LASF554:
 7581 1dea 4D616350 		.ascii	"MacProcessNotify\000"
 7581      726F6365 
 7581      73734E6F 
 7581      74696679 
 7581      00
 7582              	.LASF24:
 7583 1dfb 5F6D6273 		.ascii	"_mbstate_t\000"
 7583      74617465 
 7583      5F7400
 7584              	.LASF119:
 7585 1e06 5F685F65 		.ascii	"_h_errno\000"
 7585      72726E6F 
 7585      00
 7586              	.LASF409:
 7587 1e0f 4D49425F 		.ascii	"MIB_CHANNELS_NB_TRANS\000"
 7587      4348414E 
 7587      4E454C53 
 7587      5F4E425F 
 7587      5452414E 
 7588              	.LASF558:
 7589 1e25 4C6F5261 		.ascii	"LoRaMacFlags\000"
 7589      4D616346 
 7589      6C616773 
 7589      00
 7590              	.LASF266:
 7591 1e32 46436E74 		.ascii	"FCntHandlerNvmCtx\000"
 7591      48616E64 
 7591      6C65724E 
 7591      766D4374 
 7591      7800
 7592              	.LASF550:
 7593 1e44 50494E47 		.ascii	"PINGSLOT_STATE_RX\000"
 7593      534C4F54 
 7593      5F535441 
 7593      54455F52 
 7593      5800
 7594              	.LASF13:
 7595 1e56 5F5F7569 		.ascii	"__uint32_t\000"
 7595      6E743332 
ARM GAS  C:\Users\EBANO_~1\AppData\Local\Temp\ccis3phW.s 			page 186


 7595      5F7400
 7596              	.LASF383:
 7597 1e61 4D49425F 		.ascii	"MIB_J_S_INT_KEY\000"
 7597      4A5F535F 
 7597      494E545F 
 7597      4B455900 
 7598              	.LASF282:
 7599 1e71 55706C69 		.ascii	"UplinkDwellTime\000"
 7599      6E6B4477 
 7599      656C6C54 
 7599      696D6500 
 7600              	.LASF527:
 7601 1e81 4C4F5241 		.ascii	"LORAMAC_REGION_EU868\000"
 7601      4D41435F 
 7601      52454749 
 7601      4F4E5F45 
 7601      55383638 
 7602              	.LASF23:
 7603 1e96 5F5F7661 		.ascii	"__value\000"
 7603      6C756500 
 7604              	.LASF537:
 7605 1e9e 42454143 		.ascii	"BEACON_STATE_BEACON_MISSED\000"
 7605      4F4E5F53 
 7605      54415445 
 7605      5F424541 
 7605      434F4E5F 
 7606              	.LASF47:
 7607 1eb9 5F69735F 		.ascii	"_is_cxa\000"
 7607      63786100 
 7608              	.LASF413:
 7609 1ec1 4D49425F 		.ascii	"MIB_JOIN_ACCEPT_DELAY_1\000"
 7609      4A4F494E 
 7609      5F414343 
 7609      4550545F 
 7609      44454C41 
 7610              	.LASF414:
 7611 1ed9 4D49425F 		.ascii	"MIB_JOIN_ACCEPT_DELAY_2\000"
 7611      4A4F494E 
 7611      5F414343 
 7611      4550545F 
 7611      44454C41 
 7612              	.LASF253:
 7613 1ef1 4D61634E 		.ascii	"MacNvmCtxSize\000"
 7613      766D4374 
 7613      7853697A 
 7613      6500
 7614              	.LASF509:
 7615 1eff 4C4F5241 		.ascii	"LORAMAC_STATUS_NO_CHANNEL_FOUND\000"
 7615      4D41435F 
 7615      53544154 
 7615      55535F4E 
 7615      4F5F4348 
 7616              	.LASF292:
 7617 1f1f 496E666F 		.ascii	"Info\000"
 7617      00
 7618              	.LASF298:
 7619 1f24 4C4F5241 		.ascii	"LORAMAC_EVENT_INFO_STATUS_OK\000"
ARM GAS  C:\Users\EBANO_~1\AppData\Local\Temp\ccis3phW.s 			page 187


 7619      4D41435F 
 7619      4556454E 
 7619      545F494E 
 7619      464F5F53 
 7620              	.LASF545:
 7621 1f41 42656163 		.ascii	"BeaconState_t\000"
 7621      6F6E5374 
 7621      6174655F 
 7621      7400
 7622              	.LASF84:
 7623 1f4f 5F703573 		.ascii	"_p5s\000"
 7623      00
 7624              	.LASF182:
 7625 1f54 52465F54 		.ascii	"RF_TX_RUNNING\000"
 7625      585F5255 
 7625      4E4E494E 
 7625      4700
 7626              	.LASF338:
 7627 1f62 42756666 		.ascii	"Buffer\000"
 7627      657200
 7628              	.LASF293:
 7629 1f69 73426561 		.ascii	"sBeaconInfo\000"
 7629      636F6E49 
 7629      6E666F00 
 7630              	.LASF446:
 7631 1f75 4E776B4B 		.ascii	"NwkKey\000"
 7631      657900
 7632              	.LASF586:
 7633 1f7c 70657269 		.ascii	"periodicity\000"
 7633      6F646963 
 7633      69747900 
 7634              	.LASF144:
 7635 1f88 54696D65 		.ascii	"TimerTime_t\000"
 7635      7254696D 
 7635      655F7400 
 7636              	.LASF157:
 7637 1f94 4D554C54 		.ascii	"MULTICAST_2_ADDR\000"
 7637      49434153 
 7637      545F325F 
 7637      41444452 
 7637      00
 7638              	.LASF342:
 7639 1fa5 41636B52 		.ascii	"AckReceived\000"
 7639      65636569 
 7639      76656400 
 7640              	.LASF469:
 7641 1fb1 52783244 		.ascii	"Rx2DefaultChannel\000"
 7641      65666175 
 7641      6C744368 
 7641      616E6E65 
 7641      6C00
 7642              	.LASF611:
 7643 1fc3 4C6F5261 		.ascii	"LoRaMacClassBBeaconTimingAns\000"
 7643      4D616343 
 7643      6C617373 
 7643      42426561 
 7643      636F6E54 
ARM GAS  C:\Users\EBANO_~1\AppData\Local\Temp\ccis3phW.s 			page 188


 7644              	.LASF174:
 7645 1fe0 5F74696D 		.ascii	"_timezone\000"
 7645      657A6F6E 
 7645      6500
 7646              	.LASF156:
 7647 1fea 4D554C54 		.ascii	"MULTICAST_1_ADDR\000"
 7647      49434153 
 7647      545F315F 
 7647      41444452 
 7647      00
 7648              	.LASF211:
 7649 1ffb 52737369 		.ascii	"Rssi\000"
 7649      00
 7650              	.LASF178:
 7651 2000 4D4F4445 		.ascii	"MODEM_LORA\000"
 7651      4D5F4C4F 
 7651      524100
 7652              	.LASF15:
 7653 200b 6C6F6E67 		.ascii	"long long unsigned int\000"
 7653      206C6F6E 
 7653      6720756E 
 7653      7369676E 
 7653      65642069 
 7654              	.LASF263:
 7655 2022 436C6173 		.ascii	"ClassBNvmCtxSize\000"
 7655      73424E76 
 7655      6D437478 
 7655      53697A65 
 7655      00
 7656              	.LASF231:
 7657 2033 41435449 		.ascii	"ACTIVATION_TYPE_OTAA\000"
 7657      56415449 
 7657      4F4E5F54 
 7657      5950455F 
 7657      4F544141 
 7658              	.LASF591:
 7659 2048 4C6F5261 		.ascii	"LoRaMacClassBIsPingExpected\000"
 7659      4D616343 
 7659      6C617373 
 7659      42497350 
 7659      696E6745 
 7660              	.LASF430:
 7661 2064 4D49425F 		.ascii	"MIB_PING_SLOT_WINDOW\000"
 7661      50494E47 
 7661      5F534C4F 
 7661      545F5749 
 7661      4E444F57 
 7662              	.LASF105:
 7663 2079 5F67616D 		.ascii	"_gamma_signgam\000"
 7663      6D615F73 
 7663      69676E67 
 7663      616D00
 7664              	.LASF596:
 7665 2088 4C6F5261 		.ascii	"LoRaMacClassBMulticastSlotTimerEvent\000"
 7665      4D616343 
 7665      6C617373 
 7665      424D756C 
ARM GAS  C:\Users\EBANO_~1\AppData\Local\Temp\ccis3phW.s 			page 189


 7665      74696361 
 7666              	.LASF155:
 7667 20ad 4D554C54 		.ascii	"MULTICAST_0_ADDR\000"
 7667      49434153 
 7667      545F305F 
 7667      41444452 
 7667      00
 7668              	.LASF196:
 7669 20be 496E6974 		.ascii	"Init\000"
 7669      00
 7670              	.LASF609:
 7671 20c3 4C6F5261 		.ascii	"LoRaMacClassBRestoreNvmCtx\000"
 7671      4D616343 
 7671      6C617373 
 7671      42526573 
 7671      746F7265 
 7672              	.LASF530:
 7673 20de 4C4F5241 		.ascii	"LORAMAC_REGION_US915\000"
 7673      4D41435F 
 7673      52454749 
 7673      4F4E5F55 
 7673      53393135 
 7674              	.LASF477:
 7675 20f3 4162704C 		.ascii	"AbpLrWanVersion\000"
 7675      7257616E 
 7675      56657273 
 7675      696F6E00 
 7676              	.LASF518:
 7677 2103 4C4F5241 		.ascii	"LORAMAC_STATUS_CONFIRM_QUEUE_ERROR\000"
 7677      4D41435F 
 7677      53544154 
 7677      55535F43 
 7677      4F4E4649 
 7678              	.LASF522:
 7679 2126 4C4F5241 		.ascii	"LORAMAC_REGION_AS923\000"
 7679      4D41435F 
 7679      52454749 
 7679      4F4E5F41 
 7679      53393233 
 7680              	.LASF148:
 7681 213b 4D616A6F 		.ascii	"Major\000"
 7681      7200
 7682              	.LASF166:
 7683 2141 46726571 		.ascii	"Frequency\000"
 7683      75656E63 
 7683      7900
 7684              	.LASF368:
 7685 214b 42656163 		.ascii	"BeaconTimingDelay\000"
 7685      6F6E5469 
 7685      6D696E67 
 7685      44656C61 
 7685      7900
 7686              	.LASF531:
 7687 215d 4C4F5241 		.ascii	"LORAMAC_REGION_RU864\000"
 7687      4D41435F 
 7687      52454749 
 7687      4F4E5F52 
ARM GAS  C:\Users\EBANO_~1\AppData\Local\Temp\ccis3phW.s 			page 190


 7687      55383634 
 7688              	.LASF315:
 7689 2172 4C6F5261 		.ascii	"LoRaMacEventInfoStatus_t\000"
 7689      4D616345 
 7689      76656E74 
 7689      496E666F 
 7689      53746174 
 7690              	.LASF262:
 7691 218b 436C6173 		.ascii	"ClassBNvmCtx\000"
 7691      73424E76 
 7691      6D437478 
 7691      00
 7692              	.LASF163:
 7693 2198 41646472 		.ascii	"Address\000"
 7693      65737300 
 7694              	.LASF126:
 7695 21a0 5F676C6F 		.ascii	"_global_impure_ptr\000"
 7695      62616C5F 
 7695      696D7075 
 7695      72655F70 
 7695      747200
 7696              	.LASF78:
 7697 21b3 5F756E73 		.ascii	"_unspecified_locale_info\000"
 7697      70656369 
 7697      66696564 
 7697      5F6C6F63 
 7697      616C655F 
 7698              	.LASF408:
 7699 21cc 4D49425F 		.ascii	"MIB_CHANNELS_DEFAULT_MASK\000"
 7699      4348414E 
 7699      4E454C53 
 7699      5F444546 
 7699      41554C54 
 7700              	.LASF620:
 7701 21e6 4C6F5261 		.ascii	"LoRaMacClassBMibGetRequestConfirm\000"
 7701      4D616343 
 7701      6C617373 
 7701      424D6962 
 7701      47657452 
 7702              	.LASF621:
 7703 2208 4C6F5261 		.ascii	"LoRaMacClassBIsAcquisitionInProgress\000"
 7703      4D616343 
 7703      6C617373 
 7703      42497341 
 7703      63717569 
 7704              	.LASF80:
 7705 222d 5F5F7364 		.ascii	"__sdidinit\000"
 7705      6964696E 
 7705      697400
 7706              	.LASF132:
 7707 2238 5F5F6664 		.ascii	"__fdlibm_posix\000"
 7707      6C69626D 
 7707      5F706F73 
 7707      697800
 7708              	.LASF470:
 7709 2247 4368616E 		.ascii	"ChannelsMask\000"
 7709      6E656C73 
ARM GAS  C:\Users\EBANO_~1\AppData\Local\Temp\ccis3phW.s 			page 191


 7709      4D61736B 
 7709      00
 7710              	.LASF206:
 7711 2254 53656E64 		.ascii	"Send\000"
 7711      00
 7712              	.LASF164:
 7713 2259 446F776E 		.ascii	"DownLinkCounter\000"
 7713      4C696E6B 
 7713      436F756E 
 7713      74657200 
 7714              	.LASF281:
 7715 2269 52783243 		.ascii	"Rx2Channel\000"
 7715      68616E6E 
 7715      656C00
 7716              	.LASF167:
 7717 2274 44617461 		.ascii	"Datarate\000"
 7717      72617465 
 7717      00
 7718              	.LASF232:
 7719 227d 41637469 		.ascii	"ActivationType_t\000"
 7719      76617469 
 7719      6F6E5479 
 7719      70655F74 
 7719      00
 7720              	.LASF25:
 7721 228e 5F666C6F 		.ascii	"_flock_t\000"
 7721      636B5F74 
 7721      00
 7722              	.LASF420:
 7723 2297 4D49425F 		.ascii	"MIB_MIN_RX_SYMBOLS\000"
 7723      4D494E5F 
 7723      52585F53 
 7723      594D424F 
 7723      4C5300
 7724              	.LASF353:
 7725 22aa 4D4C4D45 		.ascii	"MLME_DERIVE_MC_KE_KEY\000"
 7725      5F444552 
 7725      4956455F 
 7725      4D435F4B 
 7725      455F4B45 
 7726              	.LASF402:
 7727 22c0 4D49425F 		.ascii	"MIB_PUBLIC_NETWORK\000"
 7727      5055424C 
 7727      49435F4E 
 7727      4554574F 
 7727      524B00
 7728              	.LASF513:
 7729 22d3 4C4F5241 		.ascii	"LORAMAC_STATUS_BUSY_UPLINK_COLLISION\000"
 7729      4D41435F 
 7729      53544154 
 7729      55535F42 
 7729      5553595F 
 7730              	.LASF345:
 7731 22f8 654D6C6D 		.ascii	"eMlme\000"
 7731      6500
 7732              	.LASF267:
 7733 22fe 46436E74 		.ascii	"FCntHandlerNvmCtxSize\000"
ARM GAS  C:\Users\EBANO_~1\AppData\Local\Temp\ccis3phW.s 			page 192


 7733      48616E64 
 7733      6C65724E 
 7733      766D4374 
 7733      7853697A 
 7734              	.LASF192:
 7735 2314 52616469 		.ascii	"RadioEvents_t\000"
 7735      6F457665 
 7735      6E74735F 
 7735      7400
 7736              	.LASF520:
 7737 2322 4C6F5261 		.ascii	"LoRaMacStatus_t\000"
 7737      4D616353 
 7737      74617475 
 7737      735F7400 
 7738              	.LASF1:
 7739 2332 6C6F6E67 		.ascii	"long long int\000"
 7739      206C6F6E 
 7739      6720696E 
 7739      7400
 7740              	.LASF503:
 7741 2340 4C4F5241 		.ascii	"LORAMAC_STATUS_FREQ_AND_DR_INVALID\000"
 7741      4D41435F 
 7741      53544154 
 7741      55535F46 
 7741      5245515F 
 7742              	.LASF517:
 7743 2363 4C4F5241 		.ascii	"LORAMAC_STATUS_CLASS_B_ERROR\000"
 7743      4D41435F 
 7743      53544154 
 7743      55535F43 
 7743      4C415353 
 7744              	.LASF70:
 7745 2380 5F666C61 		.ascii	"_flags2\000"
 7745      67733200 
 7746              	.LASF296:
 7747 2388 42656163 		.ascii	"BeaconInfo_t\000"
 7747      6F6E496E 
 7747      666F5F74 
 7747      00
 7748              	.LASF326:
 7749 2395 4D435053 		.ascii	"MCPS_UNCONFIRMED\000"
 7749      5F554E43 
 7749      4F4E4649 
 7749      524D4544 
 7749      00
 7750              	.LASF456:
 7751 23a6 4D634E77 		.ascii	"McNwkSKey0\000"
 7751      6B534B65 
 7751      793000
 7752              	.LASF343:
 7753 23b1 44657641 		.ascii	"DevAddress\000"
 7753      64647265 
 7753      737300
 7754              	.LASF191:
 7755 23bc 43616444 		.ascii	"CadDone\000"
 7755      6F6E6500 
 7756              	.LASF79:
ARM GAS  C:\Users\EBANO_~1\AppData\Local\Temp\ccis3phW.s 			page 193


 7757 23c4 5F6C6F63 		.ascii	"_locale\000"
 7757      616C6500 
 7758              	.LASF502:
 7759 23cc 4C4F5241 		.ascii	"LORAMAC_STATUS_DATARATE_INVALID\000"
 7759      4D41435F 
 7759      53544154 
 7759      55535F44 
 7759      41544152 
 7760              	.LASF358:
 7761 23ec 4D4C4D45 		.ascii	"MLME_PING_SLOT_INFO\000"
 7761      5F50494E 
 7761      475F534C 
 7761      4F545F49 
 7761      4E464F00 
 7762              	.LASF405:
 7763 2400 4D49425F 		.ascii	"MIB_RX2_CHANNEL\000"
 7763      5258325F 
 7763      4348414E 
 7763      4E454C00 
 7764              	.LASF483:
 7765 2410 50696E67 		.ascii	"PingSlotWindow\000"
 7765      536C6F74 
 7765      57696E64 
 7765      6F7700
 7766              	.LASF140:
 7767 241f 41484250 		.ascii	"AHBPrescTable\000"
 7767      72657363 
 7767      5461626C 
 7767      6500
 7768              	.LASF223:
 7769 242d 65446576 		.ascii	"eDeviceClass\000"
 7769      69636543 
 7769      6C617373 
 7769      00
 7770              	.LASF601:
 7771 243a 4C6F5261 		.ascii	"LoRaMacClassBSetMulticastSlotState\000"
 7771      4D616343 
 7771      6C617373 
 7771      42536574 
 7771      4D756C74 
 7772              	.LASF317:
 7773 245d 4D637073 		.ascii	"McpsReq\000"
 7773      52657100 
 7774              	.LASF165:
 7775 2465 4973456E 		.ascii	"IsEnabled\000"
 7775      61626C65 
 7775      6400
 7776              	.LASF548:
 7777 246f 50494E47 		.ascii	"PINGSLOT_STATE_SET_TIMER\000"
 7777      534C4F54 
 7777      5F535441 
 7777      54455F53 
 7777      45545F54 
 7778              	.LASF265:
 7779 2488 436F6E66 		.ascii	"ConfirmQueueNvmCtxSize\000"
 7779      69726D51 
 7779      75657565 
ARM GAS  C:\Users\EBANO_~1\AppData\Local\Temp\ccis3phW.s 			page 194


 7779      4E766D43 
 7779      74785369 
 7780              	.LASF233:
 7781 249f 73466965 		.ascii	"sFields\000"
 7781      6C647300 
 7782              	.LASF218:
 7783 24a7 47657457 		.ascii	"GetWakeupTime\000"
 7783      616B6575 
 7783      7054696D 
 7783      6500
 7784              	.LASF552:
 7785 24b5 734C6F52 		.ascii	"sLoRaMacClassBCallback\000"
 7785      614D6163 
 7785      436C6173 
 7785      73424361 
 7785      6C6C6261 
 7786              	.LASF404:
 7787 24cc 4D49425F 		.ascii	"MIB_CHANNELS\000"
 7787      4348414E 
 7787      4E454C53 
 7787      00
 7788              	.LASF481:
 7789 24d9 42656163 		.ascii	"BeaconWindow\000"
 7789      6F6E5769 
 7789      6E646F77 
 7789      00
 7790              	.LASF619:
 7791 24e6 4C6F5261 		.ascii	"LoRaMacMaxEirpTable\000"
 7791      4D61634D 
 7791      61784569 
 7791      72705461 
 7791      626C6500 
 7792              	.LASF93:
 7793 24fa 5F5F4649 		.ascii	"__FILE\000"
 7793      4C4500
 7794              	.LASF248:
 7795 2501 52585F53 		.ascii	"RX_SLOT_WIN_PING_SLOT\000"
 7795      4C4F545F 
 7795      57494E5F 
 7795      50494E47 
 7795      5F534C4F 
 7796              	.LASF570:
 7797 2517 66726571 		.ascii	"frequency\000"
 7797      75656E63 
 7797      7900
 7798              	.LASF512:
 7799 2521 4C4F5241 		.ascii	"LORAMAC_STATUS_BUSY_PING_SLOT_WINDOW_TIME\000"
 7799      4D41435F 
 7799      53544154 
 7799      55535F42 
 7799      5553595F 
 7800              	.LASF30:
 7801 254b 5F736967 		.ascii	"_sign\000"
 7801      6E00
 7802              	.LASF4:
 7803 2551 5F5F696E 		.ascii	"__int8_t\000"
 7803      74385F74 
ARM GAS  C:\Users\EBANO_~1\AppData\Local\Temp\ccis3phW.s 			page 195


 7803      00
 7804              	.LASF227:
 7805 255a 44657669 		.ascii	"DeviceClass_t\000"
 7805      6365436C 
 7805      6173735F 
 7805      7400
 7806              	.LASF35:
 7807 2568 5F5F746D 		.ascii	"__tm_min\000"
 7807      5F6D696E 
 7807      00
 7808              	.LASF347:
 7809 2571 4D4C4D45 		.ascii	"MLME_REJOIN_0\000"
 7809      5F52454A 
 7809      4F494E5F 
 7809      3000
 7810              	.LASF348:
 7811 257f 4D4C4D45 		.ascii	"MLME_REJOIN_1\000"
 7811      5F52454A 
 7811      4F494E5F 
 7811      3100
 7812              	.LASF475:
 7813 258d 44656661 		.ascii	"DefaultAntennaGain\000"
 7813      756C7441 
 7813      6E74656E 
 7813      6E614761 
 7813      696E00
 7814              	.LASF478:
 7815 25a0 42656163 		.ascii	"BeaconInterval\000"
 7815      6F6E496E 
 7815      74657276 
 7815      616C00
 7816              	.LASF606:
 7817 25af 62656163 		.ascii	"beaconState\000"
 7817      6F6E5374 
 7817      61746500 
 7818              	.LASF312:
 7819 25bb 4C4F5241 		.ascii	"LORAMAC_EVENT_INFO_STATUS_BEACON_LOCKED\000"
 7819      4D41435F 
 7819      4556454E 
 7819      545F494E 
 7819      464F5F53 
 7820              	.LASF354:
 7821 25e3 4D4C4D45 		.ascii	"MLME_DERIVE_MC_KEY_PAIR\000"
 7821      5F444552 
 7821      4956455F 
 7821      4D435F4B 
 7821      45595F50 
 7822              	.LASF261:
 7823 25fb 436F6D6D 		.ascii	"CommandsNvmCtxSize\000"
 7823      616E6473 
 7823      4E766D43 
 7823      74785369 
 7823      7A6500
 7824              	.LASF492:
 7825 260e 654D6962 		.ascii	"eMibRequestConfirm\000"
 7825      52657175 
 7825      65737443 
ARM GAS  C:\Users\EBANO_~1\AppData\Local\Temp\ccis3phW.s 			page 196


 7825      6F6E6669 
 7825      726D00
 7826              	.LASF0:
 7827 2621 756E7369 		.ascii	"unsigned int\000"
 7827      676E6564 
 7827      20696E74 
 7827      00
 7828              	.LASF107:
 7829 262e 5F723438 		.ascii	"_r48\000"
 7829      00
 7830              	.LASF150:
 7831 2633 56616C75 		.ascii	"Value\000"
 7831      6500
 7832              	.LASF310:
 7833 2639 4C4F5241 		.ascii	"LORAMAC_EVENT_INFO_STATUS_MIC_FAIL\000"
 7833      4D41435F 
 7833      4556454E 
 7833      545F494E 
 7833      464F5F53 
 7834              	.LASF507:
 7835 265c 4C4F5241 		.ascii	"LORAMAC_STATUS_SKIPPED_APP_DATA\000"
 7835      4D41435F 
 7835      53544154 
 7835      55535F53 
 7835      4B495050 
 7836              	.LASF332:
 7837 267c 4D637073 		.ascii	"McpsIndication\000"
 7837      496E6469 
 7837      63617469 
 7837      6F6E00
 7838              	.LASF487:
 7839 268b 42656163 		.ascii	"BeaconSymbolToExpansionFactor\000"
 7839      6F6E5379 
 7839      6D626F6C 
 7839      546F4578 
 7839      70616E73 
 7840              	.LASF9:
 7841 26a9 73686F72 		.ascii	"short int\000"
 7841      7420696E 
 7841      7400
 7842              	.LASF459:
 7843 26b3 4D634E77 		.ascii	"McNwkSKey1\000"
 7843      6B534B65 
 7843      793100
 7844              	.LASF462:
 7845 26be 4D634E77 		.ascii	"McNwkSKey2\000"
 7845      6B534B65 
 7845      793200
 7846              	.LASF465:
 7847 26c9 4D634E77 		.ascii	"McNwkSKey3\000"
 7847      6B534B65 
 7847      793300
 7848              	.LASF360:
 7849 26d4 4D4C4D45 		.ascii	"MLME_BEACON_LOST\000"
 7849      5F424541 
 7849      434F4E5F 
 7849      4C4F5354 
ARM GAS  C:\Users\EBANO_~1\AppData\Local\Temp\ccis3phW.s 			page 197


 7849      00
 7850              	.LASF202:
 7851 26e5 53657452 		.ascii	"SetRxConfig\000"
 7851      78436F6E 
 7851      66696700 
 7852              	.LASF59:
 7853 26f1 5F726561 		.ascii	"_read\000"
 7853      6400
 7854              	.LASF97:
 7855 26f7 5F72616E 		.ascii	"_rand48\000"
 7855      64343800 
 7856              	.LASF328:
 7857 26ff 4D435053 		.ascii	"MCPS_MULTICAST\000"
 7857      5F4D554C 
 7857      54494341 
 7857      535400
 7858              	.LASF614:
 7859 270e 63616C6C 		.ascii	"callbacks\000"
 7859      6261636B 
 7859      7300
 7860              	.LASF603:
 7861 2718 4C6F5261 		.ascii	"LoRaMacClassBSetPingSlotState\000"
 7861      4D616343 
 7861      6C617373 
 7861      42536574 
 7861      50696E67 
 7862              	.LASF563:
 7863 2736 4C6F5261 		.ascii	"LoRaMacClassBParams_t\000"
 7863      4D616343 
 7863      6C617373 
 7863      42506172 
 7863      616D735F 
 7864              	.LASF431:
 7865 274c 4D49425F 		.ascii	"MIB_BEACON_SYMBOL_TO_DEFAULT\000"
 7865      42454143 
 7865      4F4E5F53 
 7865      594D424F 
 7865      4C5F544F 
 7866              		.ident	"GCC: (GNU Tools for Arm Embedded Processors 7-2018-q2-update) 7.3.1 20180622 (release) [AR
ARM GAS  C:\Users\EBANO_~1\AppData\Local\Temp\ccis3phW.s 			page 198


DEFINED SYMBOLS
                            *ABS*:00000000 LoRaMacClassB.c
C:\Users\EBANO_~1\AppData\Local\Temp\ccis3phW.s:16     .text.LoRaMacClassBInit:00000000 $t
C:\Users\EBANO_~1\AppData\Local\Temp\ccis3phW.s:24     .text.LoRaMacClassBInit:00000000 LoRaMacClassBInit
C:\Users\EBANO_~1\AppData\Local\Temp\ccis3phW.s:40     .text.LoRaMacClassBRestoreNvmCtx:00000000 $t
C:\Users\EBANO_~1\AppData\Local\Temp\ccis3phW.s:48     .text.LoRaMacClassBRestoreNvmCtx:00000000 LoRaMacClassBRestoreNvmCtx
C:\Users\EBANO_~1\AppData\Local\Temp\ccis3phW.s:65     .text.LoRaMacClassBGetNvmCtx:00000000 $t
C:\Users\EBANO_~1\AppData\Local\Temp\ccis3phW.s:73     .text.LoRaMacClassBGetNvmCtx:00000000 LoRaMacClassBGetNvmCtx
C:\Users\EBANO_~1\AppData\Local\Temp\ccis3phW.s:95     .text.LoRaMacClassBSetBeaconState:00000000 $t
C:\Users\EBANO_~1\AppData\Local\Temp\ccis3phW.s:103    .text.LoRaMacClassBSetBeaconState:00000000 LoRaMacClassBSetBeaconState
C:\Users\EBANO_~1\AppData\Local\Temp\ccis3phW.s:118    .text.LoRaMacClassBSetPingSlotState:00000000 $t
C:\Users\EBANO_~1\AppData\Local\Temp\ccis3phW.s:126    .text.LoRaMacClassBSetPingSlotState:00000000 LoRaMacClassBSetPingSlotState
C:\Users\EBANO_~1\AppData\Local\Temp\ccis3phW.s:138    .text.LoRaMacClassBSetMulticastSlotState:00000000 $t
C:\Users\EBANO_~1\AppData\Local\Temp\ccis3phW.s:146    .text.LoRaMacClassBSetMulticastSlotState:00000000 LoRaMacClassBSetMulticastSlotState
C:\Users\EBANO_~1\AppData\Local\Temp\ccis3phW.s:158    .text.LoRaMacClassBIsAcquisitionInProgress:00000000 $t
C:\Users\EBANO_~1\AppData\Local\Temp\ccis3phW.s:166    .text.LoRaMacClassBIsAcquisitionInProgress:00000000 LoRaMacClassBIsAcquisitionInProgress
C:\Users\EBANO_~1\AppData\Local\Temp\ccis3phW.s:181    .text.LoRaMacClassBBeaconTimerEvent:00000000 $t
C:\Users\EBANO_~1\AppData\Local\Temp\ccis3phW.s:189    .text.LoRaMacClassBBeaconTimerEvent:00000000 LoRaMacClassBBeaconTimerEvent
C:\Users\EBANO_~1\AppData\Local\Temp\ccis3phW.s:204    .text.LoRaMacClassBPingSlotTimerEvent:00000000 $t
C:\Users\EBANO_~1\AppData\Local\Temp\ccis3phW.s:212    .text.LoRaMacClassBPingSlotTimerEvent:00000000 LoRaMacClassBPingSlotTimerEvent
C:\Users\EBANO_~1\AppData\Local\Temp\ccis3phW.s:224    .text.LoRaMacClassBMulticastSlotTimerEvent:00000000 $t
C:\Users\EBANO_~1\AppData\Local\Temp\ccis3phW.s:232    .text.LoRaMacClassBMulticastSlotTimerEvent:00000000 LoRaMacClassBMulticastSlotTimerEvent
C:\Users\EBANO_~1\AppData\Local\Temp\ccis3phW.s:244    .text.LoRaMacClassBRxBeacon:00000000 $t
C:\Users\EBANO_~1\AppData\Local\Temp\ccis3phW.s:252    .text.LoRaMacClassBRxBeacon:00000000 LoRaMacClassBRxBeacon
C:\Users\EBANO_~1\AppData\Local\Temp\ccis3phW.s:269    .text.LoRaMacClassBIsBeaconExpected:00000000 $t
C:\Users\EBANO_~1\AppData\Local\Temp\ccis3phW.s:277    .text.LoRaMacClassBIsBeaconExpected:00000000 LoRaMacClassBIsBeaconExpected
C:\Users\EBANO_~1\AppData\Local\Temp\ccis3phW.s:290    .text.LoRaMacClassBIsPingExpected:00000000 $t
C:\Users\EBANO_~1\AppData\Local\Temp\ccis3phW.s:298    .text.LoRaMacClassBIsPingExpected:00000000 LoRaMacClassBIsPingExpected
C:\Users\EBANO_~1\AppData\Local\Temp\ccis3phW.s:311    .text.LoRaMacClassBIsMulticastExpected:00000000 $t
C:\Users\EBANO_~1\AppData\Local\Temp\ccis3phW.s:319    .text.LoRaMacClassBIsMulticastExpected:00000000 LoRaMacClassBIsMulticastExpected
C:\Users\EBANO_~1\AppData\Local\Temp\ccis3phW.s:332    .text.LoRaMacClassBIsAcquisitionPending:00000000 $t
C:\Users\EBANO_~1\AppData\Local\Temp\ccis3phW.s:340    .text.LoRaMacClassBIsAcquisitionPending:00000000 LoRaMacClassBIsAcquisitionPending
C:\Users\EBANO_~1\AppData\Local\Temp\ccis3phW.s:353    .text.LoRaMacClassBIsBeaconModeActive:00000000 $t
C:\Users\EBANO_~1\AppData\Local\Temp\ccis3phW.s:361    .text.LoRaMacClassBIsBeaconModeActive:00000000 LoRaMacClassBIsBeaconModeActive
C:\Users\EBANO_~1\AppData\Local\Temp\ccis3phW.s:374    .text.LoRaMacClassBSetPingSlotInfo:00000000 $t
C:\Users\EBANO_~1\AppData\Local\Temp\ccis3phW.s:382    .text.LoRaMacClassBSetPingSlotInfo:00000000 LoRaMacClassBSetPingSlotInfo
C:\Users\EBANO_~1\AppData\Local\Temp\ccis3phW.s:394    .text.LoRaMacClassBHaltBeaconing:00000000 $t
C:\Users\EBANO_~1\AppData\Local\Temp\ccis3phW.s:402    .text.LoRaMacClassBHaltBeaconing:00000000 LoRaMacClassBHaltBeaconing
C:\Users\EBANO_~1\AppData\Local\Temp\ccis3phW.s:416    .text.LoRaMacClassBResumeBeaconing:00000000 $t
C:\Users\EBANO_~1\AppData\Local\Temp\ccis3phW.s:424    .text.LoRaMacClassBResumeBeaconing:00000000 LoRaMacClassBResumeBeaconing
C:\Users\EBANO_~1\AppData\Local\Temp\ccis3phW.s:436    .text.LoRaMacClassBSwitchClass:00000000 $t
C:\Users\EBANO_~1\AppData\Local\Temp\ccis3phW.s:444    .text.LoRaMacClassBSwitchClass:00000000 LoRaMacClassBSwitchClass
C:\Users\EBANO_~1\AppData\Local\Temp\ccis3phW.s:461    .text.LoRaMacClassBMibGetRequestConfirm:00000000 $t
C:\Users\EBANO_~1\AppData\Local\Temp\ccis3phW.s:469    .text.LoRaMacClassBMibGetRequestConfirm:00000000 LoRaMacClassBMibGetRequestConfirm
C:\Users\EBANO_~1\AppData\Local\Temp\ccis3phW.s:486    .text.LoRaMacMibClassBSetRequestConfirm:00000000 $t
C:\Users\EBANO_~1\AppData\Local\Temp\ccis3phW.s:494    .text.LoRaMacMibClassBSetRequestConfirm:00000000 LoRaMacMibClassBSetRequestConfirm
C:\Users\EBANO_~1\AppData\Local\Temp\ccis3phW.s:507    .text.LoRaMacClassBPingSlotInfoAns:00000000 $t
C:\Users\EBANO_~1\AppData\Local\Temp\ccis3phW.s:515    .text.LoRaMacClassBPingSlotInfoAns:00000000 LoRaMacClassBPingSlotInfoAns
C:\Users\EBANO_~1\AppData\Local\Temp\ccis3phW.s:527    .text.LoRaMacClassBPingSlotChannelReq:00000000 $t
C:\Users\EBANO_~1\AppData\Local\Temp\ccis3phW.s:535    .text.LoRaMacClassBPingSlotChannelReq:00000000 LoRaMacClassBPingSlotChannelReq
C:\Users\EBANO_~1\AppData\Local\Temp\ccis3phW.s:552    .text.LoRaMacClassBBeaconTimingAns:00000000 $t
C:\Users\EBANO_~1\AppData\Local\Temp\ccis3phW.s:560    .text.LoRaMacClassBBeaconTimingAns:00000000 LoRaMacClassBBeaconTimingAns
C:\Users\EBANO_~1\AppData\Local\Temp\ccis3phW.s:575    .text.LoRaMacClassBDeviceTimeAns:00000000 $t
C:\Users\EBANO_~1\AppData\Local\Temp\ccis3phW.s:583    .text.LoRaMacClassBDeviceTimeAns:00000000 LoRaMacClassBDeviceTimeAns
C:\Users\EBANO_~1\AppData\Local\Temp\ccis3phW.s:595    .text.LoRaMacClassBBeaconFreqReq:00000000 $t
C:\Users\EBANO_~1\AppData\Local\Temp\ccis3phW.s:603    .text.LoRaMacClassBBeaconFreqReq:00000000 LoRaMacClassBBeaconFreqReq
C:\Users\EBANO_~1\AppData\Local\Temp\ccis3phW.s:620    .text.LoRaMacClassBIsUplinkCollision:00000000 $t
ARM GAS  C:\Users\EBANO_~1\AppData\Local\Temp\ccis3phW.s 			page 199


C:\Users\EBANO_~1\AppData\Local\Temp\ccis3phW.s:628    .text.LoRaMacClassBIsUplinkCollision:00000000 LoRaMacClassBIsUplinkCollision
C:\Users\EBANO_~1\AppData\Local\Temp\ccis3phW.s:645    .text.LoRaMacClassBStopRxSlots:00000000 $t
C:\Users\EBANO_~1\AppData\Local\Temp\ccis3phW.s:653    .text.LoRaMacClassBStopRxSlots:00000000 LoRaMacClassBStopRxSlots
C:\Users\EBANO_~1\AppData\Local\Temp\ccis3phW.s:665    .text.LoRaMacClassBStartRxSlots:00000000 $t
C:\Users\EBANO_~1\AppData\Local\Temp\ccis3phW.s:673    .text.LoRaMacClassBStartRxSlots:00000000 LoRaMacClassBStartRxSlots
C:\Users\EBANO_~1\AppData\Local\Temp\ccis3phW.s:685    .text.LoRaMacClassBSetMulticastPeriodicity:00000000 $t
C:\Users\EBANO_~1\AppData\Local\Temp\ccis3phW.s:693    .text.LoRaMacClassBSetMulticastPeriodicity:00000000 LoRaMacClassBSetMulticastPeriodicity
C:\Users\EBANO_~1\AppData\Local\Temp\ccis3phW.s:705    .text.LoRaMacClassBProcess:00000000 $t
C:\Users\EBANO_~1\AppData\Local\Temp\ccis3phW.s:713    .text.LoRaMacClassBProcess:00000000 LoRaMacClassBProcess

NO UNDEFINED SYMBOLS
