ARM GAS  C:\Users\EBANO_~1\AppData\Local\Temp\ccD2gIpL.s 			page 1


   1              		.cpu cortex-m0plus
   2              		.eabi_attribute 20, 1
   3              		.eabi_attribute 21, 1
   4              		.eabi_attribute 23, 3
   5              		.eabi_attribute 24, 1
   6              		.eabi_attribute 25, 1
   7              		.eabi_attribute 26, 1
   8              		.eabi_attribute 30, 2
   9              		.eabi_attribute 34, 0
  10              		.eabi_attribute 18, 4
  11              		.file	"lora.c"
  12              		.text
  13              	.Ltext0:
  14              		.cfi_sections	.debug_frame
  15              		.section	.text.MlmeIndication,"ax",%progbits
  16              		.align	1
  17              		.p2align 2,,3
  18              		.syntax unified
  19              		.code	16
  20              		.thumb_func
  21              		.fpu softvfp
  22              		.type	MlmeIndication, %function
  23              	MlmeIndication:
  24              	.LFB42:
  25              		.file 1 "../../../../../../Middlewares/Third_Party/LoRaWAN/Core/lora.c"
   1:../../../../../../Middlewares/Third_Party/LoRaWAN/Core/lora.c **** /******************************************************************************
   2:../../../../../../Middlewares/Third_Party/LoRaWAN/Core/lora.c ****   * @file    lora.c
   3:../../../../../../Middlewares/Third_Party/LoRaWAN/Core/lora.c ****   * @author  MCD Application Team
   4:../../../../../../Middlewares/Third_Party/LoRaWAN/Core/lora.c ****   * @brief   lora API to drive the lora state Machine
   5:../../../../../../Middlewares/Third_Party/LoRaWAN/Core/lora.c ****   ******************************************************************************
   6:../../../../../../Middlewares/Third_Party/LoRaWAN/Core/lora.c ****   * @attention
   7:../../../../../../Middlewares/Third_Party/LoRaWAN/Core/lora.c ****   *
   8:../../../../../../Middlewares/Third_Party/LoRaWAN/Core/lora.c ****   * <h2><center>&copy; Copyright (c) 2018 STMicroelectronics.
   9:../../../../../../Middlewares/Third_Party/LoRaWAN/Core/lora.c ****   * All rights reserved.</center></h2>
  10:../../../../../../Middlewares/Third_Party/LoRaWAN/Core/lora.c ****   *
  11:../../../../../../Middlewares/Third_Party/LoRaWAN/Core/lora.c ****   * This software component is licensed by ST under Ultimate Liberty license
  12:../../../../../../Middlewares/Third_Party/LoRaWAN/Core/lora.c ****   * SLA0044, the "License"; You may not use this file except in compliance with
  13:../../../../../../Middlewares/Third_Party/LoRaWAN/Core/lora.c ****   * the License. You may obtain a copy of the License at:
  14:../../../../../../Middlewares/Third_Party/LoRaWAN/Core/lora.c ****   *                             www.st.com/SLA0044
  15:../../../../../../Middlewares/Third_Party/LoRaWAN/Core/lora.c ****   *
  16:../../../../../../Middlewares/Third_Party/LoRaWAN/Core/lora.c ****   ******************************************************************************
  17:../../../../../../Middlewares/Third_Party/LoRaWAN/Core/lora.c ****   */
  18:../../../../../../Middlewares/Third_Party/LoRaWAN/Core/lora.c **** 
  19:../../../../../../Middlewares/Third_Party/LoRaWAN/Core/lora.c **** /* Includes ------------------------------------------------------------------*/
  20:../../../../../../Middlewares/Third_Party/LoRaWAN/Core/lora.c **** #include "hw.h"
  21:../../../../../../Middlewares/Third_Party/LoRaWAN/Core/lora.c **** #include "timeServer.h"
  22:../../../../../../Middlewares/Third_Party/LoRaWAN/Core/lora.c **** #include "LoRaMac.h"
  23:../../../../../../Middlewares/Third_Party/LoRaWAN/Core/lora.c **** #include "lora.h"
  24:../../../../../../Middlewares/Third_Party/LoRaWAN/Core/lora.c **** #include "lora-test.h"
  25:../../../../../../Middlewares/Third_Party/LoRaWAN/Core/lora.c **** 
  26:../../../../../../Middlewares/Third_Party/LoRaWAN/Core/lora.c **** /*!
  27:../../../../../../Middlewares/Third_Party/LoRaWAN/Core/lora.c ****  *  Select either Device_Time_req or Beacon_Time_Req following LoRaWAN version 
  28:../../../../../../Middlewares/Third_Party/LoRaWAN/Core/lora.c ****  *  - Device_Time_req   Available for V1.0.3 or later                          
  29:../../../../../../Middlewares/Third_Party/LoRaWAN/Core/lora.c ****  *  - Beacon_time_Req   Available for V1.0.2 and before                        
  30:../../../../../../Middlewares/Third_Party/LoRaWAN/Core/lora.c ****  */
  31:../../../../../../Middlewares/Third_Party/LoRaWAN/Core/lora.c **** #define USE_DEVICE_TIMING
  32:../../../../../../Middlewares/Third_Party/LoRaWAN/Core/lora.c **** 
ARM GAS  C:\Users\EBANO_~1\AppData\Local\Temp\ccD2gIpL.s 			page 2


  33:../../../../../../Middlewares/Third_Party/LoRaWAN/Core/lora.c **** /*!
  34:../../../../../../Middlewares/Third_Party/LoRaWAN/Core/lora.c ****  * Join requests trials duty cycle.
  35:../../../../../../Middlewares/Third_Party/LoRaWAN/Core/lora.c ****  */
  36:../../../../../../Middlewares/Third_Party/LoRaWAN/Core/lora.c **** #define OVER_THE_AIR_ACTIVATION_DUTYCYCLE           10000  // 10 [s] value in ms
  37:../../../../../../Middlewares/Third_Party/LoRaWAN/Core/lora.c **** 
  38:../../../../../../Middlewares/Third_Party/LoRaWAN/Core/lora.c **** #if defined( REGION_EU868 )
  39:../../../../../../Middlewares/Third_Party/LoRaWAN/Core/lora.c **** 
  40:../../../../../../Middlewares/Third_Party/LoRaWAN/Core/lora.c **** #include "LoRaMacTest.h"
  41:../../../../../../Middlewares/Third_Party/LoRaWAN/Core/lora.c **** 
  42:../../../../../../Middlewares/Third_Party/LoRaWAN/Core/lora.c **** /*!
  43:../../../../../../Middlewares/Third_Party/LoRaWAN/Core/lora.c ****  * LoRaWAN ETSI duty cycle control enable/disable
  44:../../../../../../Middlewares/Third_Party/LoRaWAN/Core/lora.c ****  *
  45:../../../../../../Middlewares/Third_Party/LoRaWAN/Core/lora.c ****  * \remark Please note that ETSI mandates duty cycled transmissions. Use only for test purposes
  46:../../../../../../Middlewares/Third_Party/LoRaWAN/Core/lora.c ****  */
  47:../../../../../../Middlewares/Third_Party/LoRaWAN/Core/lora.c **** #define LORAWAN_DUTYCYCLE_ON                        true
  48:../../../../../../Middlewares/Third_Party/LoRaWAN/Core/lora.c **** #endif
  49:../../../../../../Middlewares/Third_Party/LoRaWAN/Core/lora.c **** /*!
  50:../../../../../../Middlewares/Third_Party/LoRaWAN/Core/lora.c ****  * Default ping slots periodicity
  51:../../../../../../Middlewares/Third_Party/LoRaWAN/Core/lora.c ****  *
  52:../../../../../../Middlewares/Third_Party/LoRaWAN/Core/lora.c ****  * \remark periodicity is equal to 2^LORAWAN_DEFAULT_PING_SLOT_PERIODICITY seconds
  53:../../../../../../Middlewares/Third_Party/LoRaWAN/Core/lora.c ****  *         example: 2^3 = 8 seconds. The end-device will open an Rx slot every 8 seconds.
  54:../../../../../../Middlewares/Third_Party/LoRaWAN/Core/lora.c ****  */
  55:../../../../../../Middlewares/Third_Party/LoRaWAN/Core/lora.c **** #define LORAWAN_DEFAULT_PING_SLOT_PERIODICITY       0   
  56:../../../../../../Middlewares/Third_Party/LoRaWAN/Core/lora.c **** 
  57:../../../../../../Middlewares/Third_Party/LoRaWAN/Core/lora.c **** #define HEX16(X)  X[0],X[1], X[2],X[3], X[4],X[5], X[6],X[7],X[8],X[9], X[10],X[11], X[12],X[13], X
  58:../../../../../../Middlewares/Third_Party/LoRaWAN/Core/lora.c **** #define HEX8(X)   X[0],X[1], X[2],X[3], X[4],X[5], X[6],X[7]
  59:../../../../../../Middlewares/Third_Party/LoRaWAN/Core/lora.c **** static uint8_t DevEui[] = LORAWAN_DEVICE_EUI;
  60:../../../../../../Middlewares/Third_Party/LoRaWAN/Core/lora.c **** static uint8_t JoinEui[] = LORAWAN_JOIN_EUI;
  61:../../../../../../Middlewares/Third_Party/LoRaWAN/Core/lora.c **** static uint8_t AppKey[] = LORAWAN_APP_KEY;
  62:../../../../../../Middlewares/Third_Party/LoRaWAN/Core/lora.c **** static uint8_t NwkKey[] = LORAWAN_NWK_KEY;
  63:../../../../../../Middlewares/Third_Party/LoRaWAN/Core/lora.c **** 
  64:../../../../../../Middlewares/Third_Party/LoRaWAN/Core/lora.c **** static MlmeReqJoin_t JoinParameters;
  65:../../../../../../Middlewares/Third_Party/LoRaWAN/Core/lora.c **** 
  66:../../../../../../Middlewares/Third_Party/LoRaWAN/Core/lora.c **** #if( OVER_THE_AIR_ACTIVATION == 0 )
  67:../../../../../../Middlewares/Third_Party/LoRaWAN/Core/lora.c **** 
  68:../../../../../../Middlewares/Third_Party/LoRaWAN/Core/lora.c **** static uint8_t FNwkSIntKey[] = LORAWAN_F_NWK_S_INT_KEY;
  69:../../../../../../Middlewares/Third_Party/LoRaWAN/Core/lora.c **** static uint8_t SNwkSIntKey[] = LORAWAN_S_NWK_S_INT_KEY;
  70:../../../../../../Middlewares/Third_Party/LoRaWAN/Core/lora.c **** static uint8_t NwkSEncKey[] = LORAWAN_NWK_S_ENC_KEY;
  71:../../../../../../Middlewares/Third_Party/LoRaWAN/Core/lora.c **** static uint8_t AppSKey[] = LORAWAN_APP_S_KEY;
  72:../../../../../../Middlewares/Third_Party/LoRaWAN/Core/lora.c **** static uint32_t DevAddr = LORAWAN_DEVICE_ADDRESS;
  73:../../../../../../Middlewares/Third_Party/LoRaWAN/Core/lora.c **** #endif
  74:../../../../../../Middlewares/Third_Party/LoRaWAN/Core/lora.c **** 
  75:../../../../../../Middlewares/Third_Party/LoRaWAN/Core/lora.c **** #ifdef LORAMAC_CLASSB_ENABLED
  76:../../../../../../Middlewares/Third_Party/LoRaWAN/Core/lora.c **** static LoraErrorStatus LORA_BeaconReq( void);
  77:../../../../../../Middlewares/Third_Party/LoRaWAN/Core/lora.c **** static LoraErrorStatus LORA_PingSlotReq( void);
  78:../../../../../../Middlewares/Third_Party/LoRaWAN/Core/lora.c **** 
  79:../../../../../../Middlewares/Third_Party/LoRaWAN/Core/lora.c **** #if defined( USE_DEVICE_TIMING )
  80:../../../../../../Middlewares/Third_Party/LoRaWAN/Core/lora.c **** static LoraErrorStatus LORA_DeviceTimeReq(void);
  81:../../../../../../Middlewares/Third_Party/LoRaWAN/Core/lora.c **** #else
  82:../../../../../../Middlewares/Third_Party/LoRaWAN/Core/lora.c **** static LoraErrorStatus LORA_BeaconTimeReq(void);
  83:../../../../../../Middlewares/Third_Party/LoRaWAN/Core/lora.c **** #endif /* USE_DEVICE_TIMING */
  84:../../../../../../Middlewares/Third_Party/LoRaWAN/Core/lora.c **** #endif /* LORAMAC_CLASSB_ENABLED */
  85:../../../../../../Middlewares/Third_Party/LoRaWAN/Core/lora.c **** 
  86:../../../../../../Middlewares/Third_Party/LoRaWAN/Core/lora.c **** /*!
  87:../../../../../../Middlewares/Third_Party/LoRaWAN/Core/lora.c ****  * Defines the LoRa parameters at Init
  88:../../../../../../Middlewares/Third_Party/LoRaWAN/Core/lora.c ****  */
  89:../../../../../../Middlewares/Third_Party/LoRaWAN/Core/lora.c **** static LoRaParam_t* LoRaParamInit;
ARM GAS  C:\Users\EBANO_~1\AppData\Local\Temp\ccD2gIpL.s 			page 3


  90:../../../../../../Middlewares/Third_Party/LoRaWAN/Core/lora.c **** static LoRaMacPrimitives_t LoRaMacPrimitives;
  91:../../../../../../Middlewares/Third_Party/LoRaWAN/Core/lora.c **** static LoRaMacCallback_t LoRaMacCallbacks;
  92:../../../../../../Middlewares/Third_Party/LoRaWAN/Core/lora.c **** static MibRequestConfirm_t mibReq;
  93:../../../../../../Middlewares/Third_Party/LoRaWAN/Core/lora.c **** 
  94:../../../../../../Middlewares/Third_Party/LoRaWAN/Core/lora.c **** static LoRaMainCallback_t *LoRaMainCallbacks;
  95:../../../../../../Middlewares/Third_Party/LoRaWAN/Core/lora.c **** 
  96:../../../../../../Middlewares/Third_Party/LoRaWAN/Core/lora.c **** extern lora_AppData_t AppData;
  97:../../../../../../Middlewares/Third_Party/LoRaWAN/Core/lora.c **** 
  98:../../../../../../Middlewares/Third_Party/LoRaWAN/Core/lora.c **** 
  99:../../../../../../Middlewares/Third_Party/LoRaWAN/Core/lora.c **** 
 100:../../../../../../Middlewares/Third_Party/LoRaWAN/Core/lora.c **** 
 101:../../../../../../Middlewares/Third_Party/LoRaWAN/Core/lora.c **** 
 102:../../../../../../Middlewares/Third_Party/LoRaWAN/Core/lora.c **** /*!
 103:../../../../../../Middlewares/Third_Party/LoRaWAN/Core/lora.c ****  * MAC event info status strings.
 104:../../../../../../Middlewares/Third_Party/LoRaWAN/Core/lora.c ****  */
 105:../../../../../../Middlewares/Third_Party/LoRaWAN/Core/lora.c **** const char* EventInfoStatusStrings[] =
 106:../../../../../../Middlewares/Third_Party/LoRaWAN/Core/lora.c **** { 
 107:../../../../../../Middlewares/Third_Party/LoRaWAN/Core/lora.c ****     "OK", "Error", "Tx timeout", "Rx 1 timeout",
 108:../../../../../../Middlewares/Third_Party/LoRaWAN/Core/lora.c ****     "Rx 2 timeout", "Rx1 error", "Rx2 error",
 109:../../../../../../Middlewares/Third_Party/LoRaWAN/Core/lora.c ****     "Join failed", "Downlink repeated", "Tx DR payload size error",
 110:../../../../../../Middlewares/Third_Party/LoRaWAN/Core/lora.c ****     "Downlink too many frames loss", "Address fail", "MIC fail",
 111:../../../../../../Middlewares/Third_Party/LoRaWAN/Core/lora.c ****     "Multicast faile", "Beacon locked", "Beacon lost", "Beacon not found"
 112:../../../../../../Middlewares/Third_Party/LoRaWAN/Core/lora.c **** };
 113:../../../../../../Middlewares/Third_Party/LoRaWAN/Core/lora.c **** 
 114:../../../../../../Middlewares/Third_Party/LoRaWAN/Core/lora.c **** /*!
 115:../../../../../../Middlewares/Third_Party/LoRaWAN/Core/lora.c ****  * MAC status strings
 116:../../../../../../Middlewares/Third_Party/LoRaWAN/Core/lora.c ****  */
 117:../../../../../../Middlewares/Third_Party/LoRaWAN/Core/lora.c **** const char* MacStatusStrings[] =
 118:../../../../../../Middlewares/Third_Party/LoRaWAN/Core/lora.c **** {
 119:../../../../../../Middlewares/Third_Party/LoRaWAN/Core/lora.c ****     "OK", "Busy", "Service unknown", "Parameter invalid", "Frequency invalid",
 120:../../../../../../Middlewares/Third_Party/LoRaWAN/Core/lora.c ****     "Datarate invalid", "Freuqency or datarate invalid", "No network joined",
 121:../../../../../../Middlewares/Third_Party/LoRaWAN/Core/lora.c ****     "Length error", "Device OFF", "Region not supported", "Skipped APP data",
 122:../../../../../../Middlewares/Third_Party/LoRaWAN/Core/lora.c ****     "DutyC restricted", "No channel found", "No free channel found",
 123:../../../../../../Middlewares/Third_Party/LoRaWAN/Core/lora.c ****     "Busy beacon reserved time", "Busy ping-slot window time",
 124:../../../../../../Middlewares/Third_Party/LoRaWAN/Core/lora.c ****     "Busy uplink collision", "Crypto error", "FCnt handler error",
 125:../../../../../../Middlewares/Third_Party/LoRaWAN/Core/lora.c ****     "MAC command error", "ERROR"
 126:../../../../../../Middlewares/Third_Party/LoRaWAN/Core/lora.c **** };
 127:../../../../../../Middlewares/Third_Party/LoRaWAN/Core/lora.c **** 
 128:../../../../../../Middlewares/Third_Party/LoRaWAN/Core/lora.c **** const char* MlmeReqStrings[] =
 129:../../../../../../Middlewares/Third_Party/LoRaWAN/Core/lora.c **** {
 130:../../../../../../Middlewares/Third_Party/LoRaWAN/Core/lora.c ****     "MLME_JOIN",
 131:../../../../../../Middlewares/Third_Party/LoRaWAN/Core/lora.c ****     "MLME_REJOIN_0",
 132:../../../../../../Middlewares/Third_Party/LoRaWAN/Core/lora.c ****     "MLME_REJOIN_1",
 133:../../../../../../Middlewares/Third_Party/LoRaWAN/Core/lora.c ****     "MLME_LINK_CHECK",
 134:../../../../../../Middlewares/Third_Party/LoRaWAN/Core/lora.c ****     "MLME_TXCW",
 135:../../../../../../Middlewares/Third_Party/LoRaWAN/Core/lora.c ****     "MLME_TXCW_1",
 136:../../../../../../Middlewares/Third_Party/LoRaWAN/Core/lora.c ****     "MLME_SCHEDULE_UPLINK",
 137:../../../../../../Middlewares/Third_Party/LoRaWAN/Core/lora.c ****     "MLME_NVM_CTXS_UPDATE",
 138:../../../../../../Middlewares/Third_Party/LoRaWAN/Core/lora.c ****     "MLME_DERIVE_MC_KE_KEY",
 139:../../../../../../Middlewares/Third_Party/LoRaWAN/Core/lora.c ****     "MLME_DERIVE_MC_KEY_PAIR",
 140:../../../../../../Middlewares/Third_Party/LoRaWAN/Core/lora.c ****     "MLME_DEVICE_TIME",
 141:../../../../../../Middlewares/Third_Party/LoRaWAN/Core/lora.c ****     "MLME_BEACON",
 142:../../../../../../Middlewares/Third_Party/LoRaWAN/Core/lora.c ****     "MLME_BEACON_ACQUISITION",
 143:../../../../../../Middlewares/Third_Party/LoRaWAN/Core/lora.c ****     "MLME_PING_SLOT_INFO",
 144:../../../../../../Middlewares/Third_Party/LoRaWAN/Core/lora.c ****     "MLME_BEACON_TIMING,MLME_BEACON_LOST"
 145:../../../../../../Middlewares/Third_Party/LoRaWAN/Core/lora.c **** };
 146:../../../../../../Middlewares/Third_Party/LoRaWAN/Core/lora.c **** 
ARM GAS  C:\Users\EBANO_~1\AppData\Local\Temp\ccD2gIpL.s 			page 4


 147:../../../../../../Middlewares/Third_Party/LoRaWAN/Core/lora.c **** static void TraceUpLinkFrame(McpsConfirm_t *mcpsConfirm);
 148:../../../../../../Middlewares/Third_Party/LoRaWAN/Core/lora.c **** static void TraceDownLinkFrame(McpsIndication_t *mcpsIndication);
 149:../../../../../../Middlewares/Third_Party/LoRaWAN/Core/lora.c **** #ifdef LORAMAC_CLASSB_ENABLED
 150:../../../../../../Middlewares/Third_Party/LoRaWAN/Core/lora.c **** static void TraceBeaconInfo(MlmeIndication_t *mlmeIndication);
 151:../../../../../../Middlewares/Third_Party/LoRaWAN/Core/lora.c **** #endif /* LORAMAC_CLASSB_ENABLED */
 152:../../../../../../Middlewares/Third_Party/LoRaWAN/Core/lora.c **** 
 153:../../../../../../Middlewares/Third_Party/LoRaWAN/Core/lora.c **** /*!
 154:../../../../../../Middlewares/Third_Party/LoRaWAN/Core/lora.c ****  * \brief   MCPS-Confirm event function
 155:../../../../../../Middlewares/Third_Party/LoRaWAN/Core/lora.c ****  *
 156:../../../../../../Middlewares/Third_Party/LoRaWAN/Core/lora.c ****  * \param   [IN] McpsConfirm - Pointer to the confirm structure,
 157:../../../../../../Middlewares/Third_Party/LoRaWAN/Core/lora.c ****  *               containing confirm attributes.
 158:../../../../../../Middlewares/Third_Party/LoRaWAN/Core/lora.c ****  */
 159:../../../../../../Middlewares/Third_Party/LoRaWAN/Core/lora.c **** static void McpsConfirm( McpsConfirm_t *mcpsConfirm )
 160:../../../../../../Middlewares/Third_Party/LoRaWAN/Core/lora.c **** {
 161:../../../../../../Middlewares/Third_Party/LoRaWAN/Core/lora.c ****     TVL2( PRINTNOW(); PRINTF("APP> McpsConfirm STATUS: %s\r\n", EventInfoStatusStrings[mcpsConfirm-
 162:../../../../../../Middlewares/Third_Party/LoRaWAN/Core/lora.c ****   
 163:../../../../../../Middlewares/Third_Party/LoRaWAN/Core/lora.c ****     if( mcpsConfirm->Status == LORAMAC_EVENT_INFO_STATUS_OK )
 164:../../../../../../Middlewares/Third_Party/LoRaWAN/Core/lora.c ****     {
 165:../../../../../../Middlewares/Third_Party/LoRaWAN/Core/lora.c ****         switch( mcpsConfirm->McpsRequest )
 166:../../../../../../Middlewares/Third_Party/LoRaWAN/Core/lora.c ****         {
 167:../../../../../../Middlewares/Third_Party/LoRaWAN/Core/lora.c ****             case MCPS_UNCONFIRMED:
 168:../../../../../../Middlewares/Third_Party/LoRaWAN/Core/lora.c ****             {
 169:../../../../../../Middlewares/Third_Party/LoRaWAN/Core/lora.c ****                 // Check Datarate
 170:../../../../../../Middlewares/Third_Party/LoRaWAN/Core/lora.c ****                 // Check TxPower
 171:../../../../../../Middlewares/Third_Party/LoRaWAN/Core/lora.c ****                 break;
 172:../../../../../../Middlewares/Third_Party/LoRaWAN/Core/lora.c ****             }
 173:../../../../../../Middlewares/Third_Party/LoRaWAN/Core/lora.c ****             case MCPS_CONFIRMED:
 174:../../../../../../Middlewares/Third_Party/LoRaWAN/Core/lora.c ****             {
 175:../../../../../../Middlewares/Third_Party/LoRaWAN/Core/lora.c ****                 // Check Datarate
 176:../../../../../../Middlewares/Third_Party/LoRaWAN/Core/lora.c ****                 // Check TxPower
 177:../../../../../../Middlewares/Third_Party/LoRaWAN/Core/lora.c ****                 // Check AckReceived
 178:../../../../../../Middlewares/Third_Party/LoRaWAN/Core/lora.c ****                 // Check NbTrials
 179:../../../../../../Middlewares/Third_Party/LoRaWAN/Core/lora.c ****                 break;
 180:../../../../../../Middlewares/Third_Party/LoRaWAN/Core/lora.c ****             }
 181:../../../../../../Middlewares/Third_Party/LoRaWAN/Core/lora.c ****             case MCPS_PROPRIETARY:
 182:../../../../../../Middlewares/Third_Party/LoRaWAN/Core/lora.c ****             {
 183:../../../../../../Middlewares/Third_Party/LoRaWAN/Core/lora.c ****                 break;
 184:../../../../../../Middlewares/Third_Party/LoRaWAN/Core/lora.c ****             }
 185:../../../../../../Middlewares/Third_Party/LoRaWAN/Core/lora.c ****             default:
 186:../../../../../../Middlewares/Third_Party/LoRaWAN/Core/lora.c ****                 break;
 187:../../../../../../Middlewares/Third_Party/LoRaWAN/Core/lora.c ****         }
 188:../../../../../../Middlewares/Third_Party/LoRaWAN/Core/lora.c ****     }
 189:../../../../../../Middlewares/Third_Party/LoRaWAN/Core/lora.c ****     
 190:../../../../../../Middlewares/Third_Party/LoRaWAN/Core/lora.c ****     /*implicitely desactivated when VERBOSE_LEVEL < 2*/
 191:../../../../../../Middlewares/Third_Party/LoRaWAN/Core/lora.c ****     TraceUpLinkFrame(mcpsConfirm);
 192:../../../../../../Middlewares/Third_Party/LoRaWAN/Core/lora.c **** }
 193:../../../../../../Middlewares/Third_Party/LoRaWAN/Core/lora.c **** 
 194:../../../../../../Middlewares/Third_Party/LoRaWAN/Core/lora.c **** /*!
 195:../../../../../../Middlewares/Third_Party/LoRaWAN/Core/lora.c ****  * \brief   MCPS-Indication event function
 196:../../../../../../Middlewares/Third_Party/LoRaWAN/Core/lora.c ****  *
 197:../../../../../../Middlewares/Third_Party/LoRaWAN/Core/lora.c ****  * \param   [IN] mcpsIndication - Pointer to the indication structure,
 198:../../../../../../Middlewares/Third_Party/LoRaWAN/Core/lora.c ****  *               containing indication attributes.
 199:../../../../../../Middlewares/Third_Party/LoRaWAN/Core/lora.c ****  */
 200:../../../../../../Middlewares/Third_Party/LoRaWAN/Core/lora.c **** static void McpsIndication( McpsIndication_t *mcpsIndication )
 201:../../../../../../Middlewares/Third_Party/LoRaWAN/Core/lora.c **** {
 202:../../../../../../Middlewares/Third_Party/LoRaWAN/Core/lora.c ****     TVL2( PRINTNOW(); PRINTF("APP> McpsInd STATUS: %s\r\n", EventInfoStatusStrings[mcpsIndication->
 203:../../../../../../Middlewares/Third_Party/LoRaWAN/Core/lora.c ****     
ARM GAS  C:\Users\EBANO_~1\AppData\Local\Temp\ccD2gIpL.s 			page 5


 204:../../../../../../Middlewares/Third_Party/LoRaWAN/Core/lora.c ****     lora_AppData_t AppData;
 205:../../../../../../Middlewares/Third_Party/LoRaWAN/Core/lora.c ****     if( mcpsIndication->Status != LORAMAC_EVENT_INFO_STATUS_OK )
 206:../../../../../../Middlewares/Third_Party/LoRaWAN/Core/lora.c ****     {
 207:../../../../../../Middlewares/Third_Party/LoRaWAN/Core/lora.c ****         return;
 208:../../../../../../Middlewares/Third_Party/LoRaWAN/Core/lora.c ****     }
 209:../../../../../../Middlewares/Third_Party/LoRaWAN/Core/lora.c **** 
 210:../../../../../../Middlewares/Third_Party/LoRaWAN/Core/lora.c ****     switch( mcpsIndication->McpsIndication )
 211:../../../../../../Middlewares/Third_Party/LoRaWAN/Core/lora.c ****     {
 212:../../../../../../Middlewares/Third_Party/LoRaWAN/Core/lora.c ****         case MCPS_UNCONFIRMED:
 213:../../../../../../Middlewares/Third_Party/LoRaWAN/Core/lora.c ****         {
 214:../../../../../../Middlewares/Third_Party/LoRaWAN/Core/lora.c ****             break;
 215:../../../../../../Middlewares/Third_Party/LoRaWAN/Core/lora.c ****         }
 216:../../../../../../Middlewares/Third_Party/LoRaWAN/Core/lora.c ****         case MCPS_CONFIRMED:
 217:../../../../../../Middlewares/Third_Party/LoRaWAN/Core/lora.c ****         {
 218:../../../../../../Middlewares/Third_Party/LoRaWAN/Core/lora.c ****             break;
 219:../../../../../../Middlewares/Third_Party/LoRaWAN/Core/lora.c ****         }
 220:../../../../../../Middlewares/Third_Party/LoRaWAN/Core/lora.c ****         case MCPS_PROPRIETARY:
 221:../../../../../../Middlewares/Third_Party/LoRaWAN/Core/lora.c ****         {
 222:../../../../../../Middlewares/Third_Party/LoRaWAN/Core/lora.c ****             break;
 223:../../../../../../Middlewares/Third_Party/LoRaWAN/Core/lora.c ****         }
 224:../../../../../../Middlewares/Third_Party/LoRaWAN/Core/lora.c ****         case MCPS_MULTICAST:
 225:../../../../../../Middlewares/Third_Party/LoRaWAN/Core/lora.c ****         {
 226:../../../../../../Middlewares/Third_Party/LoRaWAN/Core/lora.c ****             break;
 227:../../../../../../Middlewares/Third_Party/LoRaWAN/Core/lora.c ****         }
 228:../../../../../../Middlewares/Third_Party/LoRaWAN/Core/lora.c ****         default:
 229:../../../../../../Middlewares/Third_Party/LoRaWAN/Core/lora.c ****             break;
 230:../../../../../../Middlewares/Third_Party/LoRaWAN/Core/lora.c ****     }
 231:../../../../../../Middlewares/Third_Party/LoRaWAN/Core/lora.c **** 
 232:../../../../../../Middlewares/Third_Party/LoRaWAN/Core/lora.c ****     // Check Multicast
 233:../../../../../../Middlewares/Third_Party/LoRaWAN/Core/lora.c ****     // Check Port
 234:../../../../../../Middlewares/Third_Party/LoRaWAN/Core/lora.c ****     // Check Datarate
 235:../../../../../../Middlewares/Third_Party/LoRaWAN/Core/lora.c ****     // Check FramePending
 236:../../../../../../Middlewares/Third_Party/LoRaWAN/Core/lora.c ****     if( mcpsIndication->FramePending == true )
 237:../../../../../../Middlewares/Third_Party/LoRaWAN/Core/lora.c ****     {
 238:../../../../../../Middlewares/Third_Party/LoRaWAN/Core/lora.c ****         // The server signals that it has pending data to be sent.
 239:../../../../../../Middlewares/Third_Party/LoRaWAN/Core/lora.c ****         // We schedule an uplink as soon as possible to flush the server.
 240:../../../../../../Middlewares/Third_Party/LoRaWAN/Core/lora.c ****         LoRaMainCallbacks->LORA_TxNeeded( );
 241:../../../../../../Middlewares/Third_Party/LoRaWAN/Core/lora.c ****     }
 242:../../../../../../Middlewares/Third_Party/LoRaWAN/Core/lora.c ****     // Check Buffer
 243:../../../../../../Middlewares/Third_Party/LoRaWAN/Core/lora.c ****     // Check BufferSize
 244:../../../../../../Middlewares/Third_Party/LoRaWAN/Core/lora.c ****     // Check Rssi
 245:../../../../../../Middlewares/Third_Party/LoRaWAN/Core/lora.c ****     // Check Snr
 246:../../../../../../Middlewares/Third_Party/LoRaWAN/Core/lora.c ****     // Check RxSlot
 247:../../../../../../Middlewares/Third_Party/LoRaWAN/Core/lora.c ****     if (certif_running() == true )
 248:../../../../../../Middlewares/Third_Party/LoRaWAN/Core/lora.c ****     {
 249:../../../../../../Middlewares/Third_Party/LoRaWAN/Core/lora.c ****       certif_DownLinkIncrement( );
 250:../../../../../../Middlewares/Third_Party/LoRaWAN/Core/lora.c ****     }
 251:../../../../../../Middlewares/Third_Party/LoRaWAN/Core/lora.c **** 
 252:../../../../../../Middlewares/Third_Party/LoRaWAN/Core/lora.c ****     if( mcpsIndication->RxData == true )
 253:../../../../../../Middlewares/Third_Party/LoRaWAN/Core/lora.c ****     {
 254:../../../../../../Middlewares/Third_Party/LoRaWAN/Core/lora.c ****       switch( mcpsIndication->Port )
 255:../../../../../../Middlewares/Third_Party/LoRaWAN/Core/lora.c ****       {
 256:../../../../../../Middlewares/Third_Party/LoRaWAN/Core/lora.c ****         case CERTIF_PORT:
 257:../../../../../../Middlewares/Third_Party/LoRaWAN/Core/lora.c ****           certif_rx( mcpsIndication, &JoinParameters );
 258:../../../../../../Middlewares/Third_Party/LoRaWAN/Core/lora.c ****           break;
 259:../../../../../../Middlewares/Third_Party/LoRaWAN/Core/lora.c ****         default:
 260:../../../../../../Middlewares/Third_Party/LoRaWAN/Core/lora.c ****           
ARM GAS  C:\Users\EBANO_~1\AppData\Local\Temp\ccD2gIpL.s 			page 6


 261:../../../../../../Middlewares/Third_Party/LoRaWAN/Core/lora.c ****           AppData.Port = mcpsIndication->Port;
 262:../../../../../../Middlewares/Third_Party/LoRaWAN/Core/lora.c ****           AppData.BuffSize = mcpsIndication->BufferSize;
 263:../../../../../../Middlewares/Third_Party/LoRaWAN/Core/lora.c ****           AppData.Buff = mcpsIndication->Buffer;
 264:../../../../../../Middlewares/Third_Party/LoRaWAN/Core/lora.c ****         
 265:../../../../../../Middlewares/Third_Party/LoRaWAN/Core/lora.c ****           LoRaMainCallbacks->LORA_RxData( &AppData );
 266:../../../../../../Middlewares/Third_Party/LoRaWAN/Core/lora.c ****           break;
 267:../../../../../../Middlewares/Third_Party/LoRaWAN/Core/lora.c ****       }
 268:../../../../../../Middlewares/Third_Party/LoRaWAN/Core/lora.c ****     }
 269:../../../../../../Middlewares/Third_Party/LoRaWAN/Core/lora.c ****     
 270:../../../../../../Middlewares/Third_Party/LoRaWAN/Core/lora.c ****     /*implicitely desactivated when VERBOSE_LEVEL < 2*/
 271:../../../../../../Middlewares/Third_Party/LoRaWAN/Core/lora.c ****     TraceDownLinkFrame(mcpsIndication);
 272:../../../../../../Middlewares/Third_Party/LoRaWAN/Core/lora.c **** }
 273:../../../../../../Middlewares/Third_Party/LoRaWAN/Core/lora.c **** 
 274:../../../../../../Middlewares/Third_Party/LoRaWAN/Core/lora.c **** /*!
 275:../../../../../../Middlewares/Third_Party/LoRaWAN/Core/lora.c ****  * \brief   MLME-Confirm event function
 276:../../../../../../Middlewares/Third_Party/LoRaWAN/Core/lora.c ****  *
 277:../../../../../../Middlewares/Third_Party/LoRaWAN/Core/lora.c ****  * \param   [IN] MlmeConfirm - Pointer to the confirm structure,
 278:../../../../../../Middlewares/Third_Party/LoRaWAN/Core/lora.c ****  *               containing confirm attributes.
 279:../../../../../../Middlewares/Third_Party/LoRaWAN/Core/lora.c ****  */
 280:../../../../../../Middlewares/Third_Party/LoRaWAN/Core/lora.c **** static void MlmeConfirm( MlmeConfirm_t *mlmeConfirm )
 281:../../../../../../Middlewares/Third_Party/LoRaWAN/Core/lora.c **** {
 282:../../../../../../Middlewares/Third_Party/LoRaWAN/Core/lora.c **** #ifdef LORAMAC_CLASSB_ENABLED
 283:../../../../../../Middlewares/Third_Party/LoRaWAN/Core/lora.c ****     MibRequestConfirm_t mibReq;
 284:../../../../../../Middlewares/Third_Party/LoRaWAN/Core/lora.c **** #endif /* LORAMAC_CLASSB_ENABLED */
 285:../../../../../../Middlewares/Third_Party/LoRaWAN/Core/lora.c **** 
 286:../../../../../../Middlewares/Third_Party/LoRaWAN/Core/lora.c ****     TVL2( PRINTNOW(); PRINTF("APP> MlmeConfirm STATUS: %s\r\n", EventInfoStatusStrings[mlmeConfirm-
 287:../../../../../../Middlewares/Third_Party/LoRaWAN/Core/lora.c ****     
 288:../../../../../../Middlewares/Third_Party/LoRaWAN/Core/lora.c ****     switch( mlmeConfirm->MlmeRequest )
 289:../../../../../../Middlewares/Third_Party/LoRaWAN/Core/lora.c ****     {
 290:../../../../../../Middlewares/Third_Party/LoRaWAN/Core/lora.c ****         case MLME_JOIN:
 291:../../../../../../Middlewares/Third_Party/LoRaWAN/Core/lora.c ****         {
 292:../../../../../../Middlewares/Third_Party/LoRaWAN/Core/lora.c ****             if( mlmeConfirm->Status == LORAMAC_EVENT_INFO_STATUS_OK )
 293:../../../../../../Middlewares/Third_Party/LoRaWAN/Core/lora.c ****             {
 294:../../../../../../Middlewares/Third_Party/LoRaWAN/Core/lora.c ****               // Status is OK, node has joined the network
 295:../../../../../../Middlewares/Third_Party/LoRaWAN/Core/lora.c ****               LoRaMainCallbacks->LORA_HasJoined();
 296:../../../../../../Middlewares/Third_Party/LoRaWAN/Core/lora.c **** #ifdef LORAMAC_CLASSB_ENABLED
 297:../../../../../../Middlewares/Third_Party/LoRaWAN/Core/lora.c **** #if defined( USE_DEVICE_TIMING )              
 298:../../../../../../Middlewares/Third_Party/LoRaWAN/Core/lora.c ****               LORA_DeviceTimeReq();
 299:../../../../../../Middlewares/Third_Party/LoRaWAN/Core/lora.c **** #else              
 300:../../../../../../Middlewares/Third_Party/LoRaWAN/Core/lora.c ****               LORA_BeaconTimeReq();
 301:../../../../../../Middlewares/Third_Party/LoRaWAN/Core/lora.c **** #endif /* USE_DEVICE_TIMING */
 302:../../../../../../Middlewares/Third_Party/LoRaWAN/Core/lora.c **** #endif /* LORAMAC_CLASSB_ENABLED */
 303:../../../../../../Middlewares/Third_Party/LoRaWAN/Core/lora.c ****             }
 304:../../../../../../Middlewares/Third_Party/LoRaWAN/Core/lora.c ****             else
 305:../../../../../../Middlewares/Third_Party/LoRaWAN/Core/lora.c ****             {
 306:../../../../../../Middlewares/Third_Party/LoRaWAN/Core/lora.c ****                 // Join was not successful. Try to join again
 307:../../../../../../Middlewares/Third_Party/LoRaWAN/Core/lora.c ****                 LORA_Join();
 308:../../../../../../Middlewares/Third_Party/LoRaWAN/Core/lora.c ****             }
 309:../../../../../../Middlewares/Third_Party/LoRaWAN/Core/lora.c ****             break;
 310:../../../../../../Middlewares/Third_Party/LoRaWAN/Core/lora.c ****         }
 311:../../../../../../Middlewares/Third_Party/LoRaWAN/Core/lora.c ****         case MLME_LINK_CHECK:
 312:../../../../../../Middlewares/Third_Party/LoRaWAN/Core/lora.c ****         {
 313:../../../../../../Middlewares/Third_Party/LoRaWAN/Core/lora.c ****             if( mlmeConfirm->Status == LORAMAC_EVENT_INFO_STATUS_OK )
 314:../../../../../../Middlewares/Third_Party/LoRaWAN/Core/lora.c ****             {
 315:../../../../../../Middlewares/Third_Party/LoRaWAN/Core/lora.c ****                 // Check DemodMargin
 316:../../../../../../Middlewares/Third_Party/LoRaWAN/Core/lora.c ****                 // Check NbGateways
 317:../../../../../../Middlewares/Third_Party/LoRaWAN/Core/lora.c ****                 if (certif_running() == true )
ARM GAS  C:\Users\EBANO_~1\AppData\Local\Temp\ccD2gIpL.s 			page 7


 318:../../../../../../Middlewares/Third_Party/LoRaWAN/Core/lora.c ****                 {
 319:../../../../../../Middlewares/Third_Party/LoRaWAN/Core/lora.c ****                      certif_linkCheck( mlmeConfirm);
 320:../../../../../../Middlewares/Third_Party/LoRaWAN/Core/lora.c ****                 }
 321:../../../../../../Middlewares/Third_Party/LoRaWAN/Core/lora.c ****             }
 322:../../../../../../Middlewares/Third_Party/LoRaWAN/Core/lora.c ****             break;
 323:../../../../../../Middlewares/Third_Party/LoRaWAN/Core/lora.c ****         }
 324:../../../../../../Middlewares/Third_Party/LoRaWAN/Core/lora.c **** #ifdef LORAMAC_CLASSB_ENABLED
 325:../../../../../../Middlewares/Third_Party/LoRaWAN/Core/lora.c ****         case MLME_BEACON_ACQUISITION:
 326:../../../../../../Middlewares/Third_Party/LoRaWAN/Core/lora.c ****         {
 327:../../../../../../Middlewares/Third_Party/LoRaWAN/Core/lora.c ****             if( mlmeConfirm->Status == LORAMAC_EVENT_INFO_STATUS_OK )
 328:../../../../../../Middlewares/Third_Party/LoRaWAN/Core/lora.c ****             {
 329:../../../../../../Middlewares/Third_Party/LoRaWAN/Core/lora.c ****                 /* Beacon has been acquired */
 330:../../../../../../Middlewares/Third_Party/LoRaWAN/Core/lora.c ****                 /* REquest Server for Ping Slot */
 331:../../../../../../Middlewares/Third_Party/LoRaWAN/Core/lora.c ****                 LORA_PingSlotReq( );
 332:../../../../../../Middlewares/Third_Party/LoRaWAN/Core/lora.c ****             }
 333:../../../../../../Middlewares/Third_Party/LoRaWAN/Core/lora.c ****             else
 334:../../../../../../Middlewares/Third_Party/LoRaWAN/Core/lora.c ****             {
 335:../../../../../../Middlewares/Third_Party/LoRaWAN/Core/lora.c ****                 /* Beacon not acquired */
 336:../../../../../../Middlewares/Third_Party/LoRaWAN/Core/lora.c ****                 /* Search again */
 337:../../../../../../Middlewares/Third_Party/LoRaWAN/Core/lora.c ****                 /* we can check if the MAC has received a time reference for the beacon*/
 338:../../../../../../Middlewares/Third_Party/LoRaWAN/Core/lora.c ****                 /* in this case do either a Device_Time_Req  or a Beacon_Timing_req*/
 339:../../../../../../Middlewares/Third_Party/LoRaWAN/Core/lora.c ****                 LORA_BeaconReq( );
 340:../../../../../../Middlewares/Third_Party/LoRaWAN/Core/lora.c ****             }
 341:../../../../../../Middlewares/Third_Party/LoRaWAN/Core/lora.c ****             break;
 342:../../../../../../Middlewares/Third_Party/LoRaWAN/Core/lora.c ****         }
 343:../../../../../../Middlewares/Third_Party/LoRaWAN/Core/lora.c ****         case MLME_PING_SLOT_INFO:
 344:../../../../../../Middlewares/Third_Party/LoRaWAN/Core/lora.c ****         {
 345:../../../../../../Middlewares/Third_Party/LoRaWAN/Core/lora.c ****             if( mlmeConfirm->Status == LORAMAC_EVENT_INFO_STATUS_OK )
 346:../../../../../../Middlewares/Third_Party/LoRaWAN/Core/lora.c ****             {
 347:../../../../../../Middlewares/Third_Party/LoRaWAN/Core/lora.c ****                /* class B is now ativated*/
 348:../../../../../../Middlewares/Third_Party/LoRaWAN/Core/lora.c ****                 mibReq.Type = MIB_DEVICE_CLASS;
 349:../../../../../../Middlewares/Third_Party/LoRaWAN/Core/lora.c ****                 mibReq.Param.Class = CLASS_B;
 350:../../../../../../Middlewares/Third_Party/LoRaWAN/Core/lora.c ****                 LoRaMacMibSetRequestConfirm( &mibReq );
 351:../../../../../../Middlewares/Third_Party/LoRaWAN/Core/lora.c ****                 
 352:../../../../../../Middlewares/Third_Party/LoRaWAN/Core/lora.c **** #if defined( REGION_AU915 ) || defined( REGION_US915 )
 353:../../../../../../Middlewares/Third_Party/LoRaWAN/Core/lora.c ****                 mibReq.Type = MIB_PING_SLOT_DATARATE;
 354:../../../../../../Middlewares/Third_Party/LoRaWAN/Core/lora.c ****                 mibReq.Param.PingSlotDatarate = DR_8;
 355:../../../../../../Middlewares/Third_Party/LoRaWAN/Core/lora.c ****                 LoRaMacMibSetRequestConfirm( &mibReq );
 356:../../../../../../Middlewares/Third_Party/LoRaWAN/Core/lora.c **** #endif
 357:../../../../../../Middlewares/Third_Party/LoRaWAN/Core/lora.c ****                 TVL2( PRINTF("\r\n#= Switch to Class B done. =#r\n" );)
 358:../../../../../../Middlewares/Third_Party/LoRaWAN/Core/lora.c ****                 
 359:../../../../../../Middlewares/Third_Party/LoRaWAN/Core/lora.c ****                 /*notify upper layer*/
 360:../../../../../../Middlewares/Third_Party/LoRaWAN/Core/lora.c ****                 LoRaMainCallbacks->LORA_ConfirmClass(CLASS_B);
 361:../../../../../../Middlewares/Third_Party/LoRaWAN/Core/lora.c ****             }
 362:../../../../../../Middlewares/Third_Party/LoRaWAN/Core/lora.c ****             else
 363:../../../../../../Middlewares/Third_Party/LoRaWAN/Core/lora.c ****             {
 364:../../../../../../Middlewares/Third_Party/LoRaWAN/Core/lora.c ****                 LORA_PingSlotReq( );
 365:../../../../../../Middlewares/Third_Party/LoRaWAN/Core/lora.c ****             }
 366:../../../../../../Middlewares/Third_Party/LoRaWAN/Core/lora.c ****             break;
 367:../../../../../../Middlewares/Third_Party/LoRaWAN/Core/lora.c ****         }
 368:../../../../../../Middlewares/Third_Party/LoRaWAN/Core/lora.c **** #if defined( USE_DEVICE_TIMING )        
 369:../../../../../../Middlewares/Third_Party/LoRaWAN/Core/lora.c ****         case MLME_DEVICE_TIME:
 370:../../../../../../Middlewares/Third_Party/LoRaWAN/Core/lora.c ****         {        
 371:../../../../../../Middlewares/Third_Party/LoRaWAN/Core/lora.c ****             if( mlmeConfirm->Status != LORAMAC_EVENT_INFO_STATUS_OK )
 372:../../../../../../Middlewares/Third_Party/LoRaWAN/Core/lora.c ****             {
 373:../../../../../../Middlewares/Third_Party/LoRaWAN/Core/lora.c ****               LORA_DeviceTimeReq();
 374:../../../../../../Middlewares/Third_Party/LoRaWAN/Core/lora.c ****             }  
ARM GAS  C:\Users\EBANO_~1\AppData\Local\Temp\ccD2gIpL.s 			page 8


 375:../../../../../../Middlewares/Third_Party/LoRaWAN/Core/lora.c ****         }              
 376:../../../../../../Middlewares/Third_Party/LoRaWAN/Core/lora.c **** #endif /* USE_DEVICE_TIMING */
 377:../../../../../../Middlewares/Third_Party/LoRaWAN/Core/lora.c **** #endif /* LORAMAC_CLASSB_ENABLED */
 378:../../../../../../Middlewares/Third_Party/LoRaWAN/Core/lora.c ****         default:
 379:../../../../../../Middlewares/Third_Party/LoRaWAN/Core/lora.c ****             break;
 380:../../../../../../Middlewares/Third_Party/LoRaWAN/Core/lora.c ****     }
 381:../../../../../../Middlewares/Third_Party/LoRaWAN/Core/lora.c **** }
 382:../../../../../../Middlewares/Third_Party/LoRaWAN/Core/lora.c **** 
 383:../../../../../../Middlewares/Third_Party/LoRaWAN/Core/lora.c **** /*!
 384:../../../../../../Middlewares/Third_Party/LoRaWAN/Core/lora.c ****  * \brief   MLME-Indication event function
 385:../../../../../../Middlewares/Third_Party/LoRaWAN/Core/lora.c ****  *
 386:../../../../../../Middlewares/Third_Party/LoRaWAN/Core/lora.c ****  * \param   [IN] MlmeIndication - Pointer to the indication structure.
 387:../../../../../../Middlewares/Third_Party/LoRaWAN/Core/lora.c ****  */
 388:../../../../../../Middlewares/Third_Party/LoRaWAN/Core/lora.c **** static void MlmeIndication( MlmeIndication_t *MlmeIndication )
 389:../../../../../../Middlewares/Third_Party/LoRaWAN/Core/lora.c **** {
  26              		.loc 1 389 0
  27              		.cfi_startproc
  28              		@ args = 0, pretend = 0, frame = 0
  29              		@ frame_needed = 0, uses_anonymous_args = 0
  30              	.LVL0:
 390:../../../../../../Middlewares/Third_Party/LoRaWAN/Core/lora.c **** #ifdef LORAMAC_CLASSB_ENABLED
 391:../../../../../../Middlewares/Third_Party/LoRaWAN/Core/lora.c ****     MibRequestConfirm_t mibReq;
 392:../../../../../../Middlewares/Third_Party/LoRaWAN/Core/lora.c **** #endif /* LORAMAC_CLASSB_ENABLED */
 393:../../../../../../Middlewares/Third_Party/LoRaWAN/Core/lora.c **** 
 394:../../../../../../Middlewares/Third_Party/LoRaWAN/Core/lora.c ****     TVL2( PRINTNOW(); PRINTF("APP> MLMEInd STATUS: %s\r\n", EventInfoStatusStrings[MlmeIndication->
 395:../../../../../../Middlewares/Third_Party/LoRaWAN/Core/lora.c **** 
 396:../../../../../../Middlewares/Third_Party/LoRaWAN/Core/lora.c ****     switch( MlmeIndication->MlmeIndication )
  31              		.loc 1 396 0
  32 0000 0378     		ldrb	r3, [r0]
 389:../../../../../../Middlewares/Third_Party/LoRaWAN/Core/lora.c **** #ifdef LORAMAC_CLASSB_ENABLED
  33              		.loc 1 389 0
  34 0002 10B5     		push	{r4, lr}
  35              	.LCFI0:
  36              		.cfi_def_cfa_offset 8
  37              		.cfi_offset 4, -8
  38              		.cfi_offset 14, -4
  39              		.loc 1 396 0
  40 0004 062B     		cmp	r3, #6
  41 0006 03D1     		bne	.L1
 397:../../../../../../Middlewares/Third_Party/LoRaWAN/Core/lora.c ****     {
 398:../../../../../../Middlewares/Third_Party/LoRaWAN/Core/lora.c ****         case MLME_SCHEDULE_UPLINK:
 399:../../../../../../Middlewares/Third_Party/LoRaWAN/Core/lora.c ****         {
 400:../../../../../../Middlewares/Third_Party/LoRaWAN/Core/lora.c ****             // The MAC signals that we shall provide an uplink as soon as possible
 401:../../../../../../Middlewares/Third_Party/LoRaWAN/Core/lora.c ****             LoRaMainCallbacks->LORA_TxNeeded( );			
  42              		.loc 1 401 0
  43 0008 024B     		ldr	r3, .L5
  44 000a 1B68     		ldr	r3, [r3]
  45 000c DB69     		ldr	r3, [r3, #28]
  46 000e 9847     		blx	r3
  47              	.LVL1:
  48              	.L1:
 402:../../../../../../Middlewares/Third_Party/LoRaWAN/Core/lora.c ****             break;
 403:../../../../../../Middlewares/Third_Party/LoRaWAN/Core/lora.c ****         }
 404:../../../../../../Middlewares/Third_Party/LoRaWAN/Core/lora.c **** #ifdef LORAMAC_CLASSB_ENABLED
 405:../../../../../../Middlewares/Third_Party/LoRaWAN/Core/lora.c ****         case MLME_BEACON_LOST:
 406:../../../../../../Middlewares/Third_Party/LoRaWAN/Core/lora.c ****         {
 407:../../../../../../Middlewares/Third_Party/LoRaWAN/Core/lora.c ****             // Switch to class A again
ARM GAS  C:\Users\EBANO_~1\AppData\Local\Temp\ccD2gIpL.s 			page 9


 408:../../../../../../Middlewares/Third_Party/LoRaWAN/Core/lora.c ****             mibReq.Type = MIB_DEVICE_CLASS;
 409:../../../../../../Middlewares/Third_Party/LoRaWAN/Core/lora.c ****             mibReq.Param.Class = CLASS_A;
 410:../../../../../../Middlewares/Third_Party/LoRaWAN/Core/lora.c ****             LoRaMacMibSetRequestConfirm( &mibReq );
 411:../../../../../../Middlewares/Third_Party/LoRaWAN/Core/lora.c ****             
 412:../../../../../../Middlewares/Third_Party/LoRaWAN/Core/lora.c ****             TVL2( PRINTF("\r\n#= Switch to Class A done. =# BEACON LOST\r\n" ); )
 413:../../../../../../Middlewares/Third_Party/LoRaWAN/Core/lora.c **** 
 414:../../../../../../Middlewares/Third_Party/LoRaWAN/Core/lora.c ****             LORA_BeaconReq();
 415:../../../../../../Middlewares/Third_Party/LoRaWAN/Core/lora.c ****             break;
 416:../../../../../../Middlewares/Third_Party/LoRaWAN/Core/lora.c ****         }
 417:../../../../../../Middlewares/Third_Party/LoRaWAN/Core/lora.c ****         case MLME_BEACON:
 418:../../../../../../Middlewares/Third_Party/LoRaWAN/Core/lora.c ****         {
 419:../../../../../../Middlewares/Third_Party/LoRaWAN/Core/lora.c ****             if( MlmeIndication->Status == LORAMAC_EVENT_INFO_STATUS_BEACON_LOCKED )
 420:../../../../../../Middlewares/Third_Party/LoRaWAN/Core/lora.c ****             {
 421:../../../../../../Middlewares/Third_Party/LoRaWAN/Core/lora.c ****               TraceBeaconInfo(MlmeIndication);
 422:../../../../../../Middlewares/Third_Party/LoRaWAN/Core/lora.c ****             }
 423:../../../../../../Middlewares/Third_Party/LoRaWAN/Core/lora.c ****             else
 424:../../../../../../Middlewares/Third_Party/LoRaWAN/Core/lora.c ****             {
 425:../../../../../../Middlewares/Third_Party/LoRaWAN/Core/lora.c ****               TVL2( PRINTF( "BEACON NOT RECEIVED\n\r");)
 426:../../../../../../Middlewares/Third_Party/LoRaWAN/Core/lora.c ****             }
 427:../../../../../../Middlewares/Third_Party/LoRaWAN/Core/lora.c ****             break;
 428:../../../../../../Middlewares/Third_Party/LoRaWAN/Core/lora.c **** 
 429:../../../../../../Middlewares/Third_Party/LoRaWAN/Core/lora.c ****         }
 430:../../../../../../Middlewares/Third_Party/LoRaWAN/Core/lora.c **** #endif /* LORAMAC_CLASSB_ENABLED */
 431:../../../../../../Middlewares/Third_Party/LoRaWAN/Core/lora.c ****         default:
 432:../../../../../../Middlewares/Third_Party/LoRaWAN/Core/lora.c ****             break;
 433:../../../../../../Middlewares/Third_Party/LoRaWAN/Core/lora.c ****     }
 434:../../../../../../Middlewares/Third_Party/LoRaWAN/Core/lora.c **** }
  49              		.loc 1 434 0
  50              		@ sp needed
  51 0010 10BD     		pop	{r4, pc}
  52              	.L6:
  53 0012 C046     		.align	2
  54              	.L5:
  55 0014 00000000 		.word	.LANCHOR0
  56              		.cfi_endproc
  57              	.LFE42:
  58              		.size	MlmeIndication, .-MlmeIndication
  59              		.section	.text.McpsIndication,"ax",%progbits
  60              		.align	1
  61              		.p2align 2,,3
  62              		.syntax unified
  63              		.code	16
  64              		.thumb_func
  65              		.fpu softvfp
  66              		.type	McpsIndication, %function
  67              	McpsIndication:
  68              	.LFB40:
 201:../../../../../../Middlewares/Third_Party/LoRaWAN/Core/lora.c ****     TVL2( PRINTNOW(); PRINTF("APP> McpsInd STATUS: %s\r\n", EventInfoStatusStrings[mcpsIndication->
  69              		.loc 1 201 0
  70              		.cfi_startproc
  71              		@ args = 0, pretend = 0, frame = 8
  72              		@ frame_needed = 0, uses_anonymous_args = 0
  73              	.LVL2:
  74 0000 10B5     		push	{r4, lr}
  75              	.LCFI1:
  76              		.cfi_def_cfa_offset 8
  77              		.cfi_offset 4, -8
ARM GAS  C:\Users\EBANO_~1\AppData\Local\Temp\ccD2gIpL.s 			page 10


  78              		.cfi_offset 14, -4
 205:../../../../../../Middlewares/Third_Party/LoRaWAN/Core/lora.c ****     {
  79              		.loc 1 205 0
  80 0002 4378     		ldrb	r3, [r0, #1]
 201:../../../../../../Middlewares/Third_Party/LoRaWAN/Core/lora.c ****     TVL2( PRINTNOW(); PRINTF("APP> McpsInd STATUS: %s\r\n", EventInfoStatusStrings[mcpsIndication->
  81              		.loc 1 201 0
  82 0004 82B0     		sub	sp, sp, #8
  83              	.LCFI2:
  84              		.cfi_def_cfa_offset 16
 201:../../../../../../Middlewares/Third_Party/LoRaWAN/Core/lora.c ****     TVL2( PRINTNOW(); PRINTF("APP> McpsInd STATUS: %s\r\n", EventInfoStatusStrings[mcpsIndication->
  85              		.loc 1 201 0
  86 0006 0400     		movs	r4, r0
 205:../../../../../../Middlewares/Third_Party/LoRaWAN/Core/lora.c ****     {
  87              		.loc 1 205 0
  88 0008 002B     		cmp	r3, #0
  89 000a 1BD1     		bne	.L7
  90              	.LVL3:
  91              	.LBB7:
  92              	.LBB8:
 236:../../../../../../Middlewares/Third_Party/LoRaWAN/Core/lora.c ****     {
  93              		.loc 1 236 0
  94 000c 4379     		ldrb	r3, [r0, #5]
  95 000e 012B     		cmp	r3, #1
  96 0010 03D1     		bne	.L9
 240:../../../../../../Middlewares/Third_Party/LoRaWAN/Core/lora.c ****     }
  97              		.loc 1 240 0
  98 0012 134B     		ldr	r3, .L24
  99 0014 1B68     		ldr	r3, [r3]
 100 0016 DB69     		ldr	r3, [r3, #28]
 101 0018 9847     		blx	r3
 102              	.LVL4:
 103              	.L9:
 247:../../../../../../Middlewares/Third_Party/LoRaWAN/Core/lora.c ****     {
 104              		.loc 1 247 0
 105 001a FFF7FEFF 		bl	certif_running
 106              	.LVL5:
 107 001e 0028     		cmp	r0, #0
 108 0020 12D1     		bne	.L21
 252:../../../../../../Middlewares/Third_Party/LoRaWAN/Core/lora.c ****     {
 109              		.loc 1 252 0
 110 0022 637B     		ldrb	r3, [r4, #13]
 111 0024 002B     		cmp	r3, #0
 112 0026 0DD0     		beq	.L7
 113              	.L23:
 254:../../../../../../Middlewares/Third_Party/LoRaWAN/Core/lora.c ****       {
 114              		.loc 1 254 0
 115 0028 E378     		ldrb	r3, [r4, #3]
 116 002a E02B     		cmp	r3, #224
 117 002c 12D0     		beq	.L22
 261:../../../../../../Middlewares/Third_Party/LoRaWAN/Core/lora.c ****           AppData.BuffSize = mcpsIndication->BufferSize;
 118              		.loc 1 261 0
 119 002e 6A46     		mov	r2, sp
 120 0030 5371     		strb	r3, [r2, #5]
 262:../../../../../../Middlewares/Third_Party/LoRaWAN/Core/lora.c ****           AppData.Buff = mcpsIndication->Buffer;
 121              		.loc 1 262 0
 122 0032 237B     		ldrb	r3, [r4, #12]
 265:../../../../../../Middlewares/Third_Party/LoRaWAN/Core/lora.c ****           break;
ARM GAS  C:\Users\EBANO_~1\AppData\Local\Temp\ccD2gIpL.s 			page 11


 123              		.loc 1 265 0
 124 0034 6846     		mov	r0, sp
 262:../../../../../../Middlewares/Third_Party/LoRaWAN/Core/lora.c ****           AppData.Buff = mcpsIndication->Buffer;
 125              		.loc 1 262 0
 126 0036 1371     		strb	r3, [r2, #4]
 263:../../../../../../Middlewares/Third_Party/LoRaWAN/Core/lora.c ****         
 127              		.loc 1 263 0
 128 0038 A368     		ldr	r3, [r4, #8]
 129 003a 0093     		str	r3, [sp]
 265:../../../../../../Middlewares/Third_Party/LoRaWAN/Core/lora.c ****           break;
 130              		.loc 1 265 0
 131 003c 084B     		ldr	r3, .L24
 132 003e 1B68     		ldr	r3, [r3]
 133 0040 1B69     		ldr	r3, [r3, #16]
 134 0042 9847     		blx	r3
 135              	.LVL6:
 136              	.L7:
 137              	.LBE8:
 138              	.LBE7:
 272:../../../../../../Middlewares/Third_Party/LoRaWAN/Core/lora.c **** 
 139              		.loc 1 272 0
 140 0044 02B0     		add	sp, sp, #8
 141              		@ sp needed
 142              	.LVL7:
 143 0046 10BD     		pop	{r4, pc}
 144              	.LVL8:
 145              	.L21:
 146              	.LBB10:
 147              	.LBB9:
 249:../../../../../../Middlewares/Third_Party/LoRaWAN/Core/lora.c ****     }
 148              		.loc 1 249 0
 149 0048 FFF7FEFF 		bl	certif_DownLinkIncrement
 150              	.LVL9:
 252:../../../../../../Middlewares/Third_Party/LoRaWAN/Core/lora.c ****     {
 151              		.loc 1 252 0
 152 004c 637B     		ldrb	r3, [r4, #13]
 153 004e 002B     		cmp	r3, #0
 154 0050 EAD1     		bne	.L23
 155 0052 F7E7     		b	.L7
 156              	.L22:
 257:../../../../../../Middlewares/Third_Party/LoRaWAN/Core/lora.c ****           break;
 157              		.loc 1 257 0
 158 0054 0249     		ldr	r1, .L24
 159 0056 2000     		movs	r0, r4
 160 0058 0431     		adds	r1, r1, #4
 161 005a FFF7FEFF 		bl	certif_rx
 162              	.LVL10:
 163 005e F1E7     		b	.L7
 164              	.L25:
 165              		.align	2
 166              	.L24:
 167 0060 00000000 		.word	.LANCHOR0
 168              	.LBE9:
 169              	.LBE10:
 170              		.cfi_endproc
 171              	.LFE40:
 172              		.size	McpsIndication, .-McpsIndication
ARM GAS  C:\Users\EBANO_~1\AppData\Local\Temp\ccD2gIpL.s 			page 12


 173              		.section	.text.McpsConfirm,"ax",%progbits
 174              		.align	1
 175              		.p2align 2,,3
 176              		.syntax unified
 177              		.code	16
 178              		.thumb_func
 179              		.fpu softvfp
 180              		.type	McpsConfirm, %function
 181              	McpsConfirm:
 182              	.LFB39:
 160:../../../../../../Middlewares/Third_Party/LoRaWAN/Core/lora.c ****     TVL2( PRINTNOW(); PRINTF("APP> McpsConfirm STATUS: %s\r\n", EventInfoStatusStrings[mcpsConfirm-
 183              		.loc 1 160 0
 184              		.cfi_startproc
 185              		@ args = 0, pretend = 0, frame = 48
 186              		@ frame_needed = 0, uses_anonymous_args = 0
 187              	.LVL11:
 188              	.LBB14:
 189              	.LBB15:
 435:../../../../../../Middlewares/Third_Party/LoRaWAN/Core/lora.c **** /**
 436:../../../../../../Middlewares/Third_Party/LoRaWAN/Core/lora.c ****  *  lora Init
 437:../../../../../../Middlewares/Third_Party/LoRaWAN/Core/lora.c ****  */
 438:../../../../../../Middlewares/Third_Party/LoRaWAN/Core/lora.c **** void LORA_Init (LoRaMainCallback_t *callbacks, LoRaParam_t* LoRaParam )
 439:../../../../../../Middlewares/Third_Party/LoRaWAN/Core/lora.c **** {
 440:../../../../../../Middlewares/Third_Party/LoRaWAN/Core/lora.c ****   /* init the Tx Duty Cycle*/
 441:../../../../../../Middlewares/Third_Party/LoRaWAN/Core/lora.c ****   LoRaParamInit = LoRaParam;
 442:../../../../../../Middlewares/Third_Party/LoRaWAN/Core/lora.c ****   
 443:../../../../../../Middlewares/Third_Party/LoRaWAN/Core/lora.c ****   /* init the main call backs*/
 444:../../../../../../Middlewares/Third_Party/LoRaWAN/Core/lora.c ****   LoRaMainCallbacks = callbacks;
 445:../../../../../../Middlewares/Third_Party/LoRaWAN/Core/lora.c ****   
 446:../../../../../../Middlewares/Third_Party/LoRaWAN/Core/lora.c **** #if (STATIC_DEVICE_EUI != 1)
 447:../../../../../../Middlewares/Third_Party/LoRaWAN/Core/lora.c ****   LoRaMainCallbacks->BoardGetUniqueId( DevEui );  
 448:../../../../../../Middlewares/Third_Party/LoRaWAN/Core/lora.c **** #endif
 449:../../../../../../Middlewares/Third_Party/LoRaWAN/Core/lora.c ****   
 450:../../../../../../Middlewares/Third_Party/LoRaWAN/Core/lora.c **** #if( OVER_THE_AIR_ACTIVATION != 0 )
 451:../../../../../../Middlewares/Third_Party/LoRaWAN/Core/lora.c **** 
 452:../../../../../../Middlewares/Third_Party/LoRaWAN/Core/lora.c ****   PPRINTF( "OTAA\n\r"); 
 453:../../../../../../Middlewares/Third_Party/LoRaWAN/Core/lora.c ****   PPRINTF( "DevEui= %02X-%02X-%02X-%02X-%02X-%02X-%02X-%02X\n\r", HEX8(DevEui));
 454:../../../../../../Middlewares/Third_Party/LoRaWAN/Core/lora.c ****   PPRINTF( "AppEui= %02X-%02X-%02X-%02X-%02X-%02X-%02X-%02X\n\r", HEX8(JoinEui));
 455:../../../../../../Middlewares/Third_Party/LoRaWAN/Core/lora.c ****   PPRINTF( "AppKey= %02X %02X %02X %02X %02X %02X %02X %02X %02X %02X %02X %02X %02X %02X %02X %02X
 456:../../../../../../Middlewares/Third_Party/LoRaWAN/Core/lora.c **** #else
 457:../../../../../../Middlewares/Third_Party/LoRaWAN/Core/lora.c **** 
 458:../../../../../../Middlewares/Third_Party/LoRaWAN/Core/lora.c **** #if (STATIC_DEVICE_ADDRESS != 1)
 459:../../../../../../Middlewares/Third_Party/LoRaWAN/Core/lora.c ****   // Random seed initialization
 460:../../../../../../Middlewares/Third_Party/LoRaWAN/Core/lora.c ****   srand1( LoRaMainCallbacks->BoardGetRandomSeed( ) );
 461:../../../../../../Middlewares/Third_Party/LoRaWAN/Core/lora.c ****   // Choose a random device address
 462:../../../../../../Middlewares/Third_Party/LoRaWAN/Core/lora.c ****   DevAddr = randr( 0, 0x01FFFFFF );
 463:../../../../../../Middlewares/Third_Party/LoRaWAN/Core/lora.c **** #endif
 464:../../../../../../Middlewares/Third_Party/LoRaWAN/Core/lora.c ****   PPRINTF( "ABP\n\r"); 
 465:../../../../../../Middlewares/Third_Party/LoRaWAN/Core/lora.c ****   PPRINTF( "DevEui= %02X-%02X-%02X-%02X-%02X-%02X-%02X-%02X\n\r", HEX8(DevEui));
 466:../../../../../../Middlewares/Third_Party/LoRaWAN/Core/lora.c ****   PPRINTF( "DevAdd=  %08X\n\r", DevAddr) ;
 467:../../../../../../Middlewares/Third_Party/LoRaWAN/Core/lora.c ****   PPRINTF( "NwkSKey= %02X %02X %02X %02X %02X %02X %02X %02X %02X %02X %02X %02X %02X %02X %02X %02
 468:../../../../../../Middlewares/Third_Party/LoRaWAN/Core/lora.c ****   PPRINTF( "AppSKey= %02X %02X %02X %02X %02X %02X %02X %02X %02X %02X %02X %02X %02X %02X %02X %02
 469:../../../../../../Middlewares/Third_Party/LoRaWAN/Core/lora.c **** #endif
 470:../../../../../../Middlewares/Third_Party/LoRaWAN/Core/lora.c ****         LoRaMacPrimitives.MacMcpsConfirm = McpsConfirm;
 471:../../../../../../Middlewares/Third_Party/LoRaWAN/Core/lora.c ****         LoRaMacPrimitives.MacMcpsIndication = McpsIndication;
 472:../../../../../../Middlewares/Third_Party/LoRaWAN/Core/lora.c ****         LoRaMacPrimitives.MacMlmeConfirm = MlmeConfirm;
 473:../../../../../../Middlewares/Third_Party/LoRaWAN/Core/lora.c ****         LoRaMacPrimitives.MacMlmeIndication = MlmeIndication;
ARM GAS  C:\Users\EBANO_~1\AppData\Local\Temp\ccD2gIpL.s 			page 13


 474:../../../../../../Middlewares/Third_Party/LoRaWAN/Core/lora.c ****         LoRaMacCallbacks.GetBatteryLevel = LoRaMainCallbacks->BoardGetBatteryLevel;
 475:../../../../../../Middlewares/Third_Party/LoRaWAN/Core/lora.c ****         LoRaMacCallbacks.GetTemperatureLevel = LoRaMainCallbacks->BoardGetTemperatureLevel;
 476:../../../../../../Middlewares/Third_Party/LoRaWAN/Core/lora.c ****         LoRaMacCallbacks.MacProcessNotify = LoRaMainCallbacks->MacProcessNotify;
 477:../../../../../../Middlewares/Third_Party/LoRaWAN/Core/lora.c **** #if defined( REGION_AS923 )
 478:../../../../../../Middlewares/Third_Party/LoRaWAN/Core/lora.c ****         LoRaMacInitialization( &LoRaMacPrimitives, &LoRaMacCallbacks, LORAMAC_REGION_AS923 );
 479:../../../../../../Middlewares/Third_Party/LoRaWAN/Core/lora.c **** #elif defined( REGION_AU915 )
 480:../../../../../../Middlewares/Third_Party/LoRaWAN/Core/lora.c ****         LoRaMacInitialization( &LoRaMacPrimitives, &LoRaMacCallbacks, LORAMAC_REGION_AU915 );
 481:../../../../../../Middlewares/Third_Party/LoRaWAN/Core/lora.c **** #elif defined( REGION_CN470 )
 482:../../../../../../Middlewares/Third_Party/LoRaWAN/Core/lora.c ****         LoRaMacInitialization( &LoRaMacPrimitives, &LoRaMacCallbacks, LORAMAC_REGION_CN470 );
 483:../../../../../../Middlewares/Third_Party/LoRaWAN/Core/lora.c **** #elif defined( REGION_CN779 )
 484:../../../../../../Middlewares/Third_Party/LoRaWAN/Core/lora.c ****         LoRaMacInitialization( &LoRaMacPrimitives, &LoRaMacCallbacks, LORAMAC_REGION_CN779 );
 485:../../../../../../Middlewares/Third_Party/LoRaWAN/Core/lora.c **** #elif defined( REGION_EU433 )
 486:../../../../../../Middlewares/Third_Party/LoRaWAN/Core/lora.c ****         LoRaMacInitialization( &LoRaMacPrimitives, &LoRaMacCallbacks, LORAMAC_REGION_EU433 );
 487:../../../../../../Middlewares/Third_Party/LoRaWAN/Core/lora.c ****  #elif defined( REGION_IN865 )
 488:../../../../../../Middlewares/Third_Party/LoRaWAN/Core/lora.c ****         LoRaMacInitialization( &LoRaMacPrimitives, &LoRaMacCallbacks, LORAMAC_REGION_IN865 );
 489:../../../../../../Middlewares/Third_Party/LoRaWAN/Core/lora.c **** #elif defined( REGION_EU868 )
 490:../../../../../../Middlewares/Third_Party/LoRaWAN/Core/lora.c ****         LoRaMacInitialization( &LoRaMacPrimitives, &LoRaMacCallbacks, LORAMAC_REGION_EU868 );
 491:../../../../../../Middlewares/Third_Party/LoRaWAN/Core/lora.c **** #elif defined( REGION_KR920 )
 492:../../../../../../Middlewares/Third_Party/LoRaWAN/Core/lora.c ****         LoRaMacInitialization( &LoRaMacPrimitives, &LoRaMacCallbacks, LORAMAC_REGION_KR920 );
 493:../../../../../../Middlewares/Third_Party/LoRaWAN/Core/lora.c **** #elif defined( REGION_US915 )
 494:../../../../../../Middlewares/Third_Party/LoRaWAN/Core/lora.c ****         LoRaMacInitialization( &LoRaMacPrimitives, &LoRaMacCallbacks, LORAMAC_REGION_US915 );
 495:../../../../../../Middlewares/Third_Party/LoRaWAN/Core/lora.c **** 
 496:../../../../../../Middlewares/Third_Party/LoRaWAN/Core/lora.c **** #if defined( HYBRID )
 497:../../../../../../Middlewares/Third_Party/LoRaWAN/Core/lora.c ****                 uint16_t channelMask[] = { 0x00FF, 0x0000, 0x0000, 0x0000, 0x0001, 0x0000};
 498:../../../../../../Middlewares/Third_Party/LoRaWAN/Core/lora.c ****                 mibReq.Type = MIB_CHANNELS_MASK;
 499:../../../../../../Middlewares/Third_Party/LoRaWAN/Core/lora.c ****                 mibReq.Param.ChannelsMask = channelMask;
 500:../../../../../../Middlewares/Third_Party/LoRaWAN/Core/lora.c ****                 LoRaMacMibSetRequestConfirm( &mibReq );
 501:../../../../../../Middlewares/Third_Party/LoRaWAN/Core/lora.c ****                 mibReq.Type = MIB_CHANNELS_DEFAULT_MASK;
 502:../../../../../../Middlewares/Third_Party/LoRaWAN/Core/lora.c ****                 mibReq.Param.ChannelsDefaultMask = channelMask;
 503:../../../../../../Middlewares/Third_Party/LoRaWAN/Core/lora.c ****                 LoRaMacMibSetRequestConfirm( &mibReq );
 504:../../../../../../Middlewares/Third_Party/LoRaWAN/Core/lora.c **** #endif
 505:../../../../../../Middlewares/Third_Party/LoRaWAN/Core/lora.c **** #elif defined( REGION_RU864 )
 506:../../../../../../Middlewares/Third_Party/LoRaWAN/Core/lora.c ****         LoRaMacInitialization( &LoRaMacPrimitives, &LoRaMacCallbacks, LORAMAC_REGION_RU864 );
 507:../../../../../../Middlewares/Third_Party/LoRaWAN/Core/lora.c **** #else
 508:../../../../../../Middlewares/Third_Party/LoRaWAN/Core/lora.c ****     #error "Please define a region in the compiler options."
 509:../../../../../../Middlewares/Third_Party/LoRaWAN/Core/lora.c **** #endif
 510:../../../../../../Middlewares/Third_Party/LoRaWAN/Core/lora.c ****       
 511:../../../../../../Middlewares/Third_Party/LoRaWAN/Core/lora.c ****       mibReq.Type = MIB_ADR;
 512:../../../../../../Middlewares/Third_Party/LoRaWAN/Core/lora.c ****       mibReq.Param.AdrEnable = LoRaParamInit->AdrEnable;
 513:../../../../../../Middlewares/Third_Party/LoRaWAN/Core/lora.c ****       LoRaMacMibSetRequestConfirm( &mibReq );
 514:../../../../../../Middlewares/Third_Party/LoRaWAN/Core/lora.c **** 
 515:../../../../../../Middlewares/Third_Party/LoRaWAN/Core/lora.c ****       mibReq.Type = MIB_PUBLIC_NETWORK;
 516:../../../../../../Middlewares/Third_Party/LoRaWAN/Core/lora.c ****       mibReq.Param.EnablePublicNetwork = LoRaParamInit->EnablePublicNetwork;
 517:../../../../../../Middlewares/Third_Party/LoRaWAN/Core/lora.c ****       LoRaMacMibSetRequestConfirm( &mibReq );
 518:../../../../../../Middlewares/Third_Party/LoRaWAN/Core/lora.c ****       
 519:../../../../../../Middlewares/Third_Party/LoRaWAN/Core/lora.c ****       mibReq.Type = MIB_APP_KEY;
 520:../../../../../../Middlewares/Third_Party/LoRaWAN/Core/lora.c ****       mibReq.Param.AppKey = AppKey;
 521:../../../../../../Middlewares/Third_Party/LoRaWAN/Core/lora.c ****       LoRaMacMibSetRequestConfirm( &mibReq );
 522:../../../../../../Middlewares/Third_Party/LoRaWAN/Core/lora.c **** 
 523:../../../../../../Middlewares/Third_Party/LoRaWAN/Core/lora.c ****       mibReq.Type = MIB_NWK_KEY;
 524:../../../../../../Middlewares/Third_Party/LoRaWAN/Core/lora.c ****       mibReq.Param.NwkKey = NwkKey;
 525:../../../../../../Middlewares/Third_Party/LoRaWAN/Core/lora.c ****       LoRaMacMibSetRequestConfirm( &mibReq );      
 526:../../../../../../Middlewares/Third_Party/LoRaWAN/Core/lora.c ****                       
 527:../../../../../../Middlewares/Third_Party/LoRaWAN/Core/lora.c ****       mibReq.Type = MIB_DEVICE_CLASS;
 528:../../../../../../Middlewares/Third_Party/LoRaWAN/Core/lora.c ****       mibReq.Param.Class= CLASS_A;
 529:../../../../../../Middlewares/Third_Party/LoRaWAN/Core/lora.c ****       LoRaMacMibSetRequestConfirm( &mibReq );
 530:../../../../../../Middlewares/Third_Party/LoRaWAN/Core/lora.c **** 
ARM GAS  C:\Users\EBANO_~1\AppData\Local\Temp\ccD2gIpL.s 			page 14


 531:../../../../../../Middlewares/Third_Party/LoRaWAN/Core/lora.c **** #if defined( REGION_EU868 )
 532:../../../../../../Middlewares/Third_Party/LoRaWAN/Core/lora.c ****       LoRaMacTestSetDutyCycleOn( LORAWAN_DUTYCYCLE_ON );
 533:../../../../../../Middlewares/Third_Party/LoRaWAN/Core/lora.c **** #endif
 534:../../../../../../Middlewares/Third_Party/LoRaWAN/Core/lora.c ****       
 535:../../../../../../Middlewares/Third_Party/LoRaWAN/Core/lora.c ****       mibReq.Type = MIB_SYSTEM_MAX_RX_ERROR;
 536:../../../../../../Middlewares/Third_Party/LoRaWAN/Core/lora.c ****       mibReq.Param.SystemMaxRxError = 20;
 537:../../../../../../Middlewares/Third_Party/LoRaWAN/Core/lora.c ****       LoRaMacMibSetRequestConfirm( &mibReq );
 538:../../../../../../Middlewares/Third_Party/LoRaWAN/Core/lora.c **** 
 539:../../../../../../Middlewares/Third_Party/LoRaWAN/Core/lora.c ****       /*set Mac statein Idle*/
 540:../../../../../../Middlewares/Third_Party/LoRaWAN/Core/lora.c ****       LoRaMacStart( );
 541:../../../../../../Middlewares/Third_Party/LoRaWAN/Core/lora.c **** }
 542:../../../../../../Middlewares/Third_Party/LoRaWAN/Core/lora.c **** 
 543:../../../../../../Middlewares/Third_Party/LoRaWAN/Core/lora.c **** 
 544:../../../../../../Middlewares/Third_Party/LoRaWAN/Core/lora.c **** void LORA_Join( void)
 545:../../../../../../Middlewares/Third_Party/LoRaWAN/Core/lora.c **** {
 546:../../../../../../Middlewares/Third_Party/LoRaWAN/Core/lora.c ****     MlmeReq_t mlmeReq;
 547:../../../../../../Middlewares/Third_Party/LoRaWAN/Core/lora.c ****   
 548:../../../../../../Middlewares/Third_Party/LoRaWAN/Core/lora.c ****     mlmeReq.Type = MLME_JOIN;
 549:../../../../../../Middlewares/Third_Party/LoRaWAN/Core/lora.c ****     mlmeReq.Req.Join.DevEui = DevEui;
 550:../../../../../../Middlewares/Third_Party/LoRaWAN/Core/lora.c ****     mlmeReq.Req.Join.JoinEui = JoinEui;
 551:../../../../../../Middlewares/Third_Party/LoRaWAN/Core/lora.c ****     mlmeReq.Req.Join.Datarate = LoRaParamInit->TxDatarate;
 552:../../../../../../Middlewares/Third_Party/LoRaWAN/Core/lora.c ****   
 553:../../../../../../Middlewares/Third_Party/LoRaWAN/Core/lora.c ****     JoinParameters = mlmeReq.Req.Join;
 554:../../../../../../Middlewares/Third_Party/LoRaWAN/Core/lora.c **** 
 555:../../../../../../Middlewares/Third_Party/LoRaWAN/Core/lora.c **** #if( OVER_THE_AIR_ACTIVATION != 0 )
 556:../../../../../../Middlewares/Third_Party/LoRaWAN/Core/lora.c ****     LoRaMacMlmeRequest( &mlmeReq );
 557:../../../../../../Middlewares/Third_Party/LoRaWAN/Core/lora.c **** #else
 558:../../../../../../Middlewares/Third_Party/LoRaWAN/Core/lora.c ****     mibReq.Type = MIB_NET_ID;
 559:../../../../../../Middlewares/Third_Party/LoRaWAN/Core/lora.c ****     mibReq.Param.NetID = LORAWAN_NETWORK_ID;
 560:../../../../../../Middlewares/Third_Party/LoRaWAN/Core/lora.c ****     LoRaMacMibSetRequestConfirm( &mibReq );
 561:../../../../../../Middlewares/Third_Party/LoRaWAN/Core/lora.c **** 
 562:../../../../../../Middlewares/Third_Party/LoRaWAN/Core/lora.c ****     mibReq.Type = MIB_DEV_ADDR;
 563:../../../../../../Middlewares/Third_Party/LoRaWAN/Core/lora.c ****     mibReq.Param.DevAddr = DevAddr;
 564:../../../../../../Middlewares/Third_Party/LoRaWAN/Core/lora.c ****     LoRaMacMibSetRequestConfirm( &mibReq );
 565:../../../../../../Middlewares/Third_Party/LoRaWAN/Core/lora.c **** 
 566:../../../../../../Middlewares/Third_Party/LoRaWAN/Core/lora.c ****     mibReq.Type = MIB_F_NWK_S_INT_KEY;
 567:../../../../../../Middlewares/Third_Party/LoRaWAN/Core/lora.c ****     mibReq.Param.FNwkSIntKey = FNwkSIntKey;
 568:../../../../../../Middlewares/Third_Party/LoRaWAN/Core/lora.c ****     LoRaMacMibSetRequestConfirm( &mibReq );
 569:../../../../../../Middlewares/Third_Party/LoRaWAN/Core/lora.c **** 
 570:../../../../../../Middlewares/Third_Party/LoRaWAN/Core/lora.c ****     mibReq.Type = MIB_S_NWK_S_INT_KEY;
 571:../../../../../../Middlewares/Third_Party/LoRaWAN/Core/lora.c ****     mibReq.Param.SNwkSIntKey = SNwkSIntKey;
 572:../../../../../../Middlewares/Third_Party/LoRaWAN/Core/lora.c ****     LoRaMacMibSetRequestConfirm( &mibReq );
 573:../../../../../../Middlewares/Third_Party/LoRaWAN/Core/lora.c **** 
 574:../../../../../../Middlewares/Third_Party/LoRaWAN/Core/lora.c ****     mibReq.Type = MIB_NWK_S_ENC_KEY;
 575:../../../../../../Middlewares/Third_Party/LoRaWAN/Core/lora.c ****     mibReq.Param.NwkSEncKey = NwkSEncKey;
 576:../../../../../../Middlewares/Third_Party/LoRaWAN/Core/lora.c ****     LoRaMacMibSetRequestConfirm( &mibReq );
 577:../../../../../../Middlewares/Third_Party/LoRaWAN/Core/lora.c **** 
 578:../../../../../../Middlewares/Third_Party/LoRaWAN/Core/lora.c ****     mibReq.Type = MIB_APP_S_KEY;
 579:../../../../../../Middlewares/Third_Party/LoRaWAN/Core/lora.c ****     mibReq.Param.AppSKey = AppSKey;
 580:../../../../../../Middlewares/Third_Party/LoRaWAN/Core/lora.c ****     LoRaMacMibSetRequestConfirm( &mibReq );
 581:../../../../../../Middlewares/Third_Party/LoRaWAN/Core/lora.c **** 
 582:../../../../../../Middlewares/Third_Party/LoRaWAN/Core/lora.c ****     mibReq.Type = MIB_NETWORK_ACTIVATION;
 583:../../../../../../Middlewares/Third_Party/LoRaWAN/Core/lora.c ****     mibReq.Param.NetworkActivation = ACTIVATION_TYPE_ABP;
 584:../../../../../../Middlewares/Third_Party/LoRaWAN/Core/lora.c ****     LoRaMacMibSetRequestConfirm( &mibReq );
 585:../../../../../../Middlewares/Third_Party/LoRaWAN/Core/lora.c ****     
 586:../../../../../../Middlewares/Third_Party/LoRaWAN/Core/lora.c ****     // Enable legacy mode to operate according to LoRaWAN Spec. 1.0.3
 587:../../../../../../Middlewares/Third_Party/LoRaWAN/Core/lora.c ****     Version_t abpLrWanVersion;
ARM GAS  C:\Users\EBANO_~1\AppData\Local\Temp\ccD2gIpL.s 			page 15


 588:../../../../../../Middlewares/Third_Party/LoRaWAN/Core/lora.c **** 
 589:../../../../../../Middlewares/Third_Party/LoRaWAN/Core/lora.c ****     abpLrWanVersion.Fields.Major    = 1;
 590:../../../../../../Middlewares/Third_Party/LoRaWAN/Core/lora.c ****     abpLrWanVersion.Fields.Minor    = 0;
 591:../../../../../../Middlewares/Third_Party/LoRaWAN/Core/lora.c ****     abpLrWanVersion.Fields.Revision = 3;
 592:../../../../../../Middlewares/Third_Party/LoRaWAN/Core/lora.c ****     abpLrWanVersion.Fields.Rfu      = 0;
 593:../../../../../../Middlewares/Third_Party/LoRaWAN/Core/lora.c **** 
 594:../../../../../../Middlewares/Third_Party/LoRaWAN/Core/lora.c ****     mibReq.Type = MIB_ABP_LORAWAN_VERSION;
 595:../../../../../../Middlewares/Third_Party/LoRaWAN/Core/lora.c ****     mibReq.Param.AbpLrWanVersion = abpLrWanVersion;
 596:../../../../../../Middlewares/Third_Party/LoRaWAN/Core/lora.c ****     LoRaMacMibSetRequestConfirm( &mibReq );
 597:../../../../../../Middlewares/Third_Party/LoRaWAN/Core/lora.c **** 
 598:../../../../../../Middlewares/Third_Party/LoRaWAN/Core/lora.c ****     LoRaMainCallbacks->LORA_HasJoined();
 599:../../../../../../Middlewares/Third_Party/LoRaWAN/Core/lora.c **** #endif
 600:../../../../../../Middlewares/Third_Party/LoRaWAN/Core/lora.c **** }
 601:../../../../../../Middlewares/Third_Party/LoRaWAN/Core/lora.c **** 
 602:../../../../../../Middlewares/Third_Party/LoRaWAN/Core/lora.c **** LoraFlagStatus LORA_JoinStatus( void)
 603:../../../../../../Middlewares/Third_Party/LoRaWAN/Core/lora.c **** {
 604:../../../../../../Middlewares/Third_Party/LoRaWAN/Core/lora.c ****   MibRequestConfirm_t mibReq;
 605:../../../../../../Middlewares/Third_Party/LoRaWAN/Core/lora.c **** 
 606:../../../../../../Middlewares/Third_Party/LoRaWAN/Core/lora.c ****   mibReq.Type = MIB_NETWORK_ACTIVATION;
 607:../../../../../../Middlewares/Third_Party/LoRaWAN/Core/lora.c ****   
 608:../../../../../../Middlewares/Third_Party/LoRaWAN/Core/lora.c ****   LoRaMacMibGetRequestConfirm( &mibReq );
 609:../../../../../../Middlewares/Third_Party/LoRaWAN/Core/lora.c **** 
 610:../../../../../../Middlewares/Third_Party/LoRaWAN/Core/lora.c ****   if( mibReq.Param.NetworkActivation == ACTIVATION_TYPE_NONE )
 611:../../../../../../Middlewares/Third_Party/LoRaWAN/Core/lora.c ****   {
 612:../../../../../../Middlewares/Third_Party/LoRaWAN/Core/lora.c ****     return LORA_RESET;
 613:../../../../../../Middlewares/Third_Party/LoRaWAN/Core/lora.c ****   }
 614:../../../../../../Middlewares/Third_Party/LoRaWAN/Core/lora.c ****   else
 615:../../../../../../Middlewares/Third_Party/LoRaWAN/Core/lora.c ****   {
 616:../../../../../../Middlewares/Third_Party/LoRaWAN/Core/lora.c ****     return LORA_SET;
 617:../../../../../../Middlewares/Third_Party/LoRaWAN/Core/lora.c ****   }
 618:../../../../../../Middlewares/Third_Party/LoRaWAN/Core/lora.c **** }
 619:../../../../../../Middlewares/Third_Party/LoRaWAN/Core/lora.c **** 
 620:../../../../../../Middlewares/Third_Party/LoRaWAN/Core/lora.c **** 
 621:../../../../../../Middlewares/Third_Party/LoRaWAN/Core/lora.c **** 
 622:../../../../../../Middlewares/Third_Party/LoRaWAN/Core/lora.c **** bool LORA_send(lora_AppData_t* AppData, LoraConfirm_t IsTxConfirmed)
 623:../../../../../../Middlewares/Third_Party/LoRaWAN/Core/lora.c **** {
 624:../../../../../../Middlewares/Third_Party/LoRaWAN/Core/lora.c ****     McpsReq_t mcpsReq;
 625:../../../../../../Middlewares/Third_Party/LoRaWAN/Core/lora.c ****     LoRaMacTxInfo_t txInfo;
 626:../../../../../../Middlewares/Third_Party/LoRaWAN/Core/lora.c ****   
 627:../../../../../../Middlewares/Third_Party/LoRaWAN/Core/lora.c ****     /*if certification test are on going, application data is not sent*/
 628:../../../../../../Middlewares/Third_Party/LoRaWAN/Core/lora.c ****     if (certif_running() == true)
 629:../../../../../../Middlewares/Third_Party/LoRaWAN/Core/lora.c ****     {
 630:../../../../../../Middlewares/Third_Party/LoRaWAN/Core/lora.c ****       return false;
 631:../../../../../../Middlewares/Third_Party/LoRaWAN/Core/lora.c ****     }
 632:../../../../../../Middlewares/Third_Party/LoRaWAN/Core/lora.c ****     
 633:../../../../../../Middlewares/Third_Party/LoRaWAN/Core/lora.c ****     if( LoRaMacQueryTxPossible( AppData->BuffSize, &txInfo ) != LORAMAC_STATUS_OK )
 634:../../../../../../Middlewares/Third_Party/LoRaWAN/Core/lora.c ****     {
 635:../../../../../../Middlewares/Third_Party/LoRaWAN/Core/lora.c ****         // Send empty frame in order to flush MAC commands
 636:../../../../../../Middlewares/Third_Party/LoRaWAN/Core/lora.c ****         mcpsReq.Type = MCPS_UNCONFIRMED;
 637:../../../../../../Middlewares/Third_Party/LoRaWAN/Core/lora.c ****         mcpsReq.Req.Unconfirmed.fBuffer = NULL;
 638:../../../../../../Middlewares/Third_Party/LoRaWAN/Core/lora.c ****         mcpsReq.Req.Unconfirmed.fBufferSize = 0;
 639:../../../../../../Middlewares/Third_Party/LoRaWAN/Core/lora.c ****         mcpsReq.Req.Unconfirmed.Datarate = LoRaParamInit->TxDatarate;
 640:../../../../../../Middlewares/Third_Party/LoRaWAN/Core/lora.c ****     }
 641:../../../../../../Middlewares/Third_Party/LoRaWAN/Core/lora.c ****     else
 642:../../../../../../Middlewares/Third_Party/LoRaWAN/Core/lora.c ****     {
 643:../../../../../../Middlewares/Third_Party/LoRaWAN/Core/lora.c ****         if( IsTxConfirmed == LORAWAN_UNCONFIRMED_MSG )
 644:../../../../../../Middlewares/Third_Party/LoRaWAN/Core/lora.c ****         {
ARM GAS  C:\Users\EBANO_~1\AppData\Local\Temp\ccD2gIpL.s 			page 16


 645:../../../../../../Middlewares/Third_Party/LoRaWAN/Core/lora.c ****             mcpsReq.Type = MCPS_UNCONFIRMED;
 646:../../../../../../Middlewares/Third_Party/LoRaWAN/Core/lora.c ****             mcpsReq.Req.Unconfirmed.fPort = AppData->Port;
 647:../../../../../../Middlewares/Third_Party/LoRaWAN/Core/lora.c ****             mcpsReq.Req.Unconfirmed.fBufferSize = AppData->BuffSize;
 648:../../../../../../Middlewares/Third_Party/LoRaWAN/Core/lora.c ****             mcpsReq.Req.Unconfirmed.fBuffer = AppData->Buff;
 649:../../../../../../Middlewares/Third_Party/LoRaWAN/Core/lora.c ****             mcpsReq.Req.Unconfirmed.Datarate = LoRaParamInit->TxDatarate;
 650:../../../../../../Middlewares/Third_Party/LoRaWAN/Core/lora.c ****         }
 651:../../../../../../Middlewares/Third_Party/LoRaWAN/Core/lora.c ****         else
 652:../../../../../../Middlewares/Third_Party/LoRaWAN/Core/lora.c ****         {
 653:../../../../../../Middlewares/Third_Party/LoRaWAN/Core/lora.c ****             mcpsReq.Type = MCPS_CONFIRMED;
 654:../../../../../../Middlewares/Third_Party/LoRaWAN/Core/lora.c ****             mcpsReq.Req.Confirmed.fPort = AppData->Port;
 655:../../../../../../Middlewares/Third_Party/LoRaWAN/Core/lora.c ****             mcpsReq.Req.Confirmed.fBufferSize = AppData->BuffSize;
 656:../../../../../../Middlewares/Third_Party/LoRaWAN/Core/lora.c ****             mcpsReq.Req.Confirmed.fBuffer = AppData->Buff;
 657:../../../../../../Middlewares/Third_Party/LoRaWAN/Core/lora.c ****             mcpsReq.Req.Confirmed.NbTrials = 8;
 658:../../../../../../Middlewares/Third_Party/LoRaWAN/Core/lora.c ****             mcpsReq.Req.Confirmed.Datarate = LoRaParamInit->TxDatarate;
 659:../../../../../../Middlewares/Third_Party/LoRaWAN/Core/lora.c ****         }
 660:../../../../../../Middlewares/Third_Party/LoRaWAN/Core/lora.c ****     }
 661:../../../../../../Middlewares/Third_Party/LoRaWAN/Core/lora.c ****     if( LoRaMacMcpsRequest( &mcpsReq ) == LORAMAC_STATUS_OK )
 662:../../../../../../Middlewares/Third_Party/LoRaWAN/Core/lora.c ****     {
 663:../../../../../../Middlewares/Third_Party/LoRaWAN/Core/lora.c ****         return false;
 664:../../../../../../Middlewares/Third_Party/LoRaWAN/Core/lora.c ****     }
 665:../../../../../../Middlewares/Third_Party/LoRaWAN/Core/lora.c ****     return true;
 666:../../../../../../Middlewares/Third_Party/LoRaWAN/Core/lora.c **** }  
 667:../../../../../../Middlewares/Third_Party/LoRaWAN/Core/lora.c **** 
 668:../../../../../../Middlewares/Third_Party/LoRaWAN/Core/lora.c **** #ifdef LORAMAC_CLASSB_ENABLED
 669:../../../../../../Middlewares/Third_Party/LoRaWAN/Core/lora.c **** #if defined( USE_DEVICE_TIMING )
 670:../../../../../../Middlewares/Third_Party/LoRaWAN/Core/lora.c **** static LoraErrorStatus LORA_DeviceTimeReq( void)
 671:../../../../../../Middlewares/Third_Party/LoRaWAN/Core/lora.c **** {
 672:../../../../../../Middlewares/Third_Party/LoRaWAN/Core/lora.c ****   MlmeReq_t mlmeReq;
 673:../../../../../../Middlewares/Third_Party/LoRaWAN/Core/lora.c **** 
 674:../../../../../../Middlewares/Third_Party/LoRaWAN/Core/lora.c ****   mlmeReq.Type = MLME_DEVICE_TIME;
 675:../../../../../../Middlewares/Third_Party/LoRaWAN/Core/lora.c **** 
 676:../../../../../../Middlewares/Third_Party/LoRaWAN/Core/lora.c ****   if( LoRaMacMlmeRequest( &mlmeReq ) == LORAMAC_STATUS_OK )
 677:../../../../../../Middlewares/Third_Party/LoRaWAN/Core/lora.c ****   {
 678:../../../../../../Middlewares/Third_Party/LoRaWAN/Core/lora.c ****     return LORA_SUCCESS;
 679:../../../../../../Middlewares/Third_Party/LoRaWAN/Core/lora.c ****   }
 680:../../../../../../Middlewares/Third_Party/LoRaWAN/Core/lora.c ****   else
 681:../../../../../../Middlewares/Third_Party/LoRaWAN/Core/lora.c ****   {
 682:../../../../../../Middlewares/Third_Party/LoRaWAN/Core/lora.c ****     return LORA_ERROR;
 683:../../../../../../Middlewares/Third_Party/LoRaWAN/Core/lora.c ****   }
 684:../../../../../../Middlewares/Third_Party/LoRaWAN/Core/lora.c **** }
 685:../../../../../../Middlewares/Third_Party/LoRaWAN/Core/lora.c **** #else
 686:../../../../../../Middlewares/Third_Party/LoRaWAN/Core/lora.c **** static LoraErrorStatus LORA_BeaconTimeReq( void)
 687:../../../../../../Middlewares/Third_Party/LoRaWAN/Core/lora.c **** {
 688:../../../../../../Middlewares/Third_Party/LoRaWAN/Core/lora.c ****   MlmeReq_t mlmeReq;
 689:../../../../../../Middlewares/Third_Party/LoRaWAN/Core/lora.c **** 
 690:../../../../../../Middlewares/Third_Party/LoRaWAN/Core/lora.c ****   mlmeReq.Type = MLME_BEACON_TIMING;
 691:../../../../../../Middlewares/Third_Party/LoRaWAN/Core/lora.c **** 
 692:../../../../../../Middlewares/Third_Party/LoRaWAN/Core/lora.c ****   if( LoRaMacMlmeRequest( &mlmeReq ) == LORAMAC_STATUS_OK )
 693:../../../../../../Middlewares/Third_Party/LoRaWAN/Core/lora.c ****   {
 694:../../../../../../Middlewares/Third_Party/LoRaWAN/Core/lora.c ****     return LORA_SUCCESS;
 695:../../../../../../Middlewares/Third_Party/LoRaWAN/Core/lora.c ****   }
 696:../../../../../../Middlewares/Third_Party/LoRaWAN/Core/lora.c ****   else
 697:../../../../../../Middlewares/Third_Party/LoRaWAN/Core/lora.c ****   {
 698:../../../../../../Middlewares/Third_Party/LoRaWAN/Core/lora.c ****     return LORA_ERROR;
 699:../../../../../../Middlewares/Third_Party/LoRaWAN/Core/lora.c ****   }
 700:../../../../../../Middlewares/Third_Party/LoRaWAN/Core/lora.c **** }
 701:../../../../../../Middlewares/Third_Party/LoRaWAN/Core/lora.c **** #endif
ARM GAS  C:\Users\EBANO_~1\AppData\Local\Temp\ccD2gIpL.s 			page 17


 702:../../../../../../Middlewares/Third_Party/LoRaWAN/Core/lora.c **** 
 703:../../../../../../Middlewares/Third_Party/LoRaWAN/Core/lora.c **** static LoraErrorStatus LORA_BeaconReq( void)
 704:../../../../../../Middlewares/Third_Party/LoRaWAN/Core/lora.c **** {
 705:../../../../../../Middlewares/Third_Party/LoRaWAN/Core/lora.c ****   MlmeReq_t mlmeReq;
 706:../../../../../../Middlewares/Third_Party/LoRaWAN/Core/lora.c **** 
 707:../../../../../../Middlewares/Third_Party/LoRaWAN/Core/lora.c ****   mlmeReq.Type = MLME_BEACON_ACQUISITION;
 708:../../../../../../Middlewares/Third_Party/LoRaWAN/Core/lora.c **** 
 709:../../../../../../Middlewares/Third_Party/LoRaWAN/Core/lora.c ****   if( LoRaMacMlmeRequest( &mlmeReq ) == LORAMAC_STATUS_OK )
 710:../../../../../../Middlewares/Third_Party/LoRaWAN/Core/lora.c ****   {
 711:../../../../../../Middlewares/Third_Party/LoRaWAN/Core/lora.c ****     return LORA_SUCCESS;
 712:../../../../../../Middlewares/Third_Party/LoRaWAN/Core/lora.c ****   }
 713:../../../../../../Middlewares/Third_Party/LoRaWAN/Core/lora.c ****   else
 714:../../../../../../Middlewares/Third_Party/LoRaWAN/Core/lora.c ****   {
 715:../../../../../../Middlewares/Third_Party/LoRaWAN/Core/lora.c ****     return LORA_ERROR;
 716:../../../../../../Middlewares/Third_Party/LoRaWAN/Core/lora.c ****   }
 717:../../../../../../Middlewares/Third_Party/LoRaWAN/Core/lora.c **** }
 718:../../../../../../Middlewares/Third_Party/LoRaWAN/Core/lora.c **** 
 719:../../../../../../Middlewares/Third_Party/LoRaWAN/Core/lora.c **** static LoraErrorStatus LORA_PingSlotReq( void)
 720:../../../../../../Middlewares/Third_Party/LoRaWAN/Core/lora.c **** {
 721:../../../../../../Middlewares/Third_Party/LoRaWAN/Core/lora.c **** 
 722:../../../../../../Middlewares/Third_Party/LoRaWAN/Core/lora.c ****   MlmeReq_t mlmeReq;
 723:../../../../../../Middlewares/Third_Party/LoRaWAN/Core/lora.c **** 
 724:../../../../../../Middlewares/Third_Party/LoRaWAN/Core/lora.c ****   mlmeReq.Type = MLME_LINK_CHECK;
 725:../../../../../../Middlewares/Third_Party/LoRaWAN/Core/lora.c ****   LoRaMacMlmeRequest( &mlmeReq );
 726:../../../../../../Middlewares/Third_Party/LoRaWAN/Core/lora.c **** 
 727:../../../../../../Middlewares/Third_Party/LoRaWAN/Core/lora.c ****   mlmeReq.Type = MLME_PING_SLOT_INFO;
 728:../../../../../../Middlewares/Third_Party/LoRaWAN/Core/lora.c ****   mlmeReq.Req.PingSlotInfo.PingSlot.Fields.Periodicity = LORAWAN_DEFAULT_PING_SLOT_PERIODICITY;
 729:../../../../../../Middlewares/Third_Party/LoRaWAN/Core/lora.c ****   mlmeReq.Req.PingSlotInfo.PingSlot.Fields.RFU = 0;
 730:../../../../../../Middlewares/Third_Party/LoRaWAN/Core/lora.c **** 
 731:../../../../../../Middlewares/Third_Party/LoRaWAN/Core/lora.c ****   if( LoRaMacMlmeRequest( &mlmeReq ) == LORAMAC_STATUS_OK )
 732:../../../../../../Middlewares/Third_Party/LoRaWAN/Core/lora.c ****   {
 733:../../../../../../Middlewares/Third_Party/LoRaWAN/Core/lora.c ****       return LORA_SUCCESS;
 734:../../../../../../Middlewares/Third_Party/LoRaWAN/Core/lora.c ****   }
 735:../../../../../../Middlewares/Third_Party/LoRaWAN/Core/lora.c ****   else
 736:../../../../../../Middlewares/Third_Party/LoRaWAN/Core/lora.c ****   {
 737:../../../../../../Middlewares/Third_Party/LoRaWAN/Core/lora.c ****      return LORA_ERROR;
 738:../../../../../../Middlewares/Third_Party/LoRaWAN/Core/lora.c ****   }
 739:../../../../../../Middlewares/Third_Party/LoRaWAN/Core/lora.c **** }
 740:../../../../../../Middlewares/Third_Party/LoRaWAN/Core/lora.c **** #endif /* LORAMAC_CLASSB_ENABLED */
 741:../../../../../../Middlewares/Third_Party/LoRaWAN/Core/lora.c **** 
 742:../../../../../../Middlewares/Third_Party/LoRaWAN/Core/lora.c **** LoraErrorStatus LORA_RequestClass( DeviceClass_t newClass )
 743:../../../../../../Middlewares/Third_Party/LoRaWAN/Core/lora.c **** {
 744:../../../../../../Middlewares/Third_Party/LoRaWAN/Core/lora.c ****   LoraErrorStatus Errorstatus = LORA_SUCCESS;
 745:../../../../../../Middlewares/Third_Party/LoRaWAN/Core/lora.c ****   MibRequestConfirm_t mibReq;
 746:../../../../../../Middlewares/Third_Party/LoRaWAN/Core/lora.c ****   DeviceClass_t currentClass;
 747:../../../../../../Middlewares/Third_Party/LoRaWAN/Core/lora.c ****   
 748:../../../../../../Middlewares/Third_Party/LoRaWAN/Core/lora.c ****   mibReq.Type = MIB_DEVICE_CLASS;
 749:../../../../../../Middlewares/Third_Party/LoRaWAN/Core/lora.c ****   LoRaMacMibGetRequestConfirm( &mibReq );
 750:../../../../../../Middlewares/Third_Party/LoRaWAN/Core/lora.c ****   
 751:../../../../../../Middlewares/Third_Party/LoRaWAN/Core/lora.c ****   currentClass = mibReq.Param.Class;
 752:../../../../../../Middlewares/Third_Party/LoRaWAN/Core/lora.c ****   /*attempt to swicth only if class update*/
 753:../../../../../../Middlewares/Third_Party/LoRaWAN/Core/lora.c ****   if (currentClass != newClass)
 754:../../../../../../Middlewares/Third_Party/LoRaWAN/Core/lora.c ****   {
 755:../../../../../../Middlewares/Third_Party/LoRaWAN/Core/lora.c ****     switch (newClass)
 756:../../../../../../Middlewares/Third_Party/LoRaWAN/Core/lora.c ****     {
 757:../../../../../../Middlewares/Third_Party/LoRaWAN/Core/lora.c ****       case CLASS_A:
 758:../../../../../../Middlewares/Third_Party/LoRaWAN/Core/lora.c ****       {
ARM GAS  C:\Users\EBANO_~1\AppData\Local\Temp\ccD2gIpL.s 			page 18


 759:../../../../../../Middlewares/Third_Party/LoRaWAN/Core/lora.c ****         mibReq.Param.Class = CLASS_A;
 760:../../../../../../Middlewares/Third_Party/LoRaWAN/Core/lora.c ****         if( LoRaMacMibSetRequestConfirm( &mibReq ) == LORAMAC_STATUS_OK )
 761:../../../../../../Middlewares/Third_Party/LoRaWAN/Core/lora.c ****         {
 762:../../../../../../Middlewares/Third_Party/LoRaWAN/Core/lora.c ****         /*switch is instantanuous*/
 763:../../../../../../Middlewares/Third_Party/LoRaWAN/Core/lora.c ****           LoRaMainCallbacks->LORA_ConfirmClass(CLASS_A);
 764:../../../../../../Middlewares/Third_Party/LoRaWAN/Core/lora.c ****         }
 765:../../../../../../Middlewares/Third_Party/LoRaWAN/Core/lora.c ****         else
 766:../../../../../../Middlewares/Third_Party/LoRaWAN/Core/lora.c ****         {
 767:../../../../../../Middlewares/Third_Party/LoRaWAN/Core/lora.c ****           Errorstatus = LORA_ERROR;
 768:../../../../../../Middlewares/Third_Party/LoRaWAN/Core/lora.c ****         }
 769:../../../../../../Middlewares/Third_Party/LoRaWAN/Core/lora.c ****         break;
 770:../../../../../../Middlewares/Third_Party/LoRaWAN/Core/lora.c ****       }
 771:../../../../../../Middlewares/Third_Party/LoRaWAN/Core/lora.c ****       case CLASS_B:
 772:../../../../../../Middlewares/Third_Party/LoRaWAN/Core/lora.c ****       {
 773:../../../../../../Middlewares/Third_Party/LoRaWAN/Core/lora.c **** #ifdef LORAMAC_CLASSB_ENABLED
 774:../../../../../../Middlewares/Third_Party/LoRaWAN/Core/lora.c ****         if (currentClass != CLASS_A)
 775:../../../../../../Middlewares/Third_Party/LoRaWAN/Core/lora.c ****         {
 776:../../../../../../Middlewares/Third_Party/LoRaWAN/Core/lora.c ****           Errorstatus = LORA_ERROR;
 777:../../../../../../Middlewares/Third_Party/LoRaWAN/Core/lora.c ****         }
 778:../../../../../../Middlewares/Third_Party/LoRaWAN/Core/lora.c ****         /*switch is not instantanuous*/
 779:../../../../../../Middlewares/Third_Party/LoRaWAN/Core/lora.c ****         Errorstatus = LORA_BeaconReq( );
 780:../../../../../../Middlewares/Third_Party/LoRaWAN/Core/lora.c **** #else
 781:../../../../../../Middlewares/Third_Party/LoRaWAN/Core/lora.c ****         PRINTF( "warning: LORAMAC_CLASSB_ENABLED has not been defined at compilation\n\r");
 782:../../../../../../Middlewares/Third_Party/LoRaWAN/Core/lora.c **** #endif /* LORAMAC_CLASSB_ENABLED */
 783:../../../../../../Middlewares/Third_Party/LoRaWAN/Core/lora.c ****         break;
 784:../../../../../../Middlewares/Third_Party/LoRaWAN/Core/lora.c ****       }
 785:../../../../../../Middlewares/Third_Party/LoRaWAN/Core/lora.c ****       case CLASS_C:
 786:../../../../../../Middlewares/Third_Party/LoRaWAN/Core/lora.c ****       {
 787:../../../../../../Middlewares/Third_Party/LoRaWAN/Core/lora.c ****         if (currentClass != CLASS_A)
 788:../../../../../../Middlewares/Third_Party/LoRaWAN/Core/lora.c ****         {
 789:../../../../../../Middlewares/Third_Party/LoRaWAN/Core/lora.c ****           Errorstatus = LORA_ERROR;
 790:../../../../../../Middlewares/Third_Party/LoRaWAN/Core/lora.c ****         }
 791:../../../../../../Middlewares/Third_Party/LoRaWAN/Core/lora.c ****         /*switch is instantanuous*/
 792:../../../../../../Middlewares/Third_Party/LoRaWAN/Core/lora.c ****         mibReq.Param.Class = CLASS_C;
 793:../../../../../../Middlewares/Third_Party/LoRaWAN/Core/lora.c ****         if( LoRaMacMibSetRequestConfirm( &mibReq ) == LORAMAC_STATUS_OK )
 794:../../../../../../Middlewares/Third_Party/LoRaWAN/Core/lora.c ****         {
 795:../../../../../../Middlewares/Third_Party/LoRaWAN/Core/lora.c ****           LoRaMainCallbacks->LORA_ConfirmClass(CLASS_C);
 796:../../../../../../Middlewares/Third_Party/LoRaWAN/Core/lora.c ****         }
 797:../../../../../../Middlewares/Third_Party/LoRaWAN/Core/lora.c ****         else
 798:../../../../../../Middlewares/Third_Party/LoRaWAN/Core/lora.c ****         {
 799:../../../../../../Middlewares/Third_Party/LoRaWAN/Core/lora.c ****             Errorstatus = LORA_ERROR;
 800:../../../../../../Middlewares/Third_Party/LoRaWAN/Core/lora.c ****         }
 801:../../../../../../Middlewares/Third_Party/LoRaWAN/Core/lora.c ****         break;
 802:../../../../../../Middlewares/Third_Party/LoRaWAN/Core/lora.c ****       }
 803:../../../../../../Middlewares/Third_Party/LoRaWAN/Core/lora.c ****       default:
 804:../../../../../../Middlewares/Third_Party/LoRaWAN/Core/lora.c ****         break;
 805:../../../../../../Middlewares/Third_Party/LoRaWAN/Core/lora.c ****     } 
 806:../../../../../../Middlewares/Third_Party/LoRaWAN/Core/lora.c ****   }
 807:../../../../../../Middlewares/Third_Party/LoRaWAN/Core/lora.c ****   return Errorstatus;
 808:../../../../../../Middlewares/Third_Party/LoRaWAN/Core/lora.c **** }
 809:../../../../../../Middlewares/Third_Party/LoRaWAN/Core/lora.c **** 
 810:../../../../../../Middlewares/Third_Party/LoRaWAN/Core/lora.c **** void LORA_GetCurrentClass( DeviceClass_t *currentClass )
 811:../../../../../../Middlewares/Third_Party/LoRaWAN/Core/lora.c **** {
 812:../../../../../../Middlewares/Third_Party/LoRaWAN/Core/lora.c ****   MibRequestConfirm_t mibReq;
 813:../../../../../../Middlewares/Third_Party/LoRaWAN/Core/lora.c ****   
 814:../../../../../../Middlewares/Third_Party/LoRaWAN/Core/lora.c ****   mibReq.Type = MIB_DEVICE_CLASS;
 815:../../../../../../Middlewares/Third_Party/LoRaWAN/Core/lora.c ****   LoRaMacMibGetRequestConfirm( &mibReq );
ARM GAS  C:\Users\EBANO_~1\AppData\Local\Temp\ccD2gIpL.s 			page 19


 816:../../../../../../Middlewares/Third_Party/LoRaWAN/Core/lora.c ****   
 817:../../../../../../Middlewares/Third_Party/LoRaWAN/Core/lora.c ****   *currentClass = mibReq.Param.Class;
 818:../../../../../../Middlewares/Third_Party/LoRaWAN/Core/lora.c **** }
 819:../../../../../../Middlewares/Third_Party/LoRaWAN/Core/lora.c **** 
 820:../../../../../../Middlewares/Third_Party/LoRaWAN/Core/lora.c **** 
 821:../../../../../../Middlewares/Third_Party/LoRaWAN/Core/lora.c **** static void TraceUpLinkFrame(McpsConfirm_t *mcpsConfirm)
 822:../../../../../../Middlewares/Third_Party/LoRaWAN/Core/lora.c **** {
 823:../../../../../../Middlewares/Third_Party/LoRaWAN/Core/lora.c **** 
 824:../../../../../../Middlewares/Third_Party/LoRaWAN/Core/lora.c ****     MibRequestConfirm_t mibGet;
 825:../../../../../../Middlewares/Third_Party/LoRaWAN/Core/lora.c ****     MibRequestConfirm_t mibReq;
 826:../../../../../../Middlewares/Third_Party/LoRaWAN/Core/lora.c **** 
 827:../../../../../../Middlewares/Third_Party/LoRaWAN/Core/lora.c ****     mibReq.Type = MIB_DEVICE_CLASS;
 190              		.loc 1 827 0
 191 0000 0023     		movs	r3, #0
 192              	.LBE15:
 193              	.LBE14:
 160:../../../../../../Middlewares/Third_Party/LoRaWAN/Core/lora.c ****     TVL2( PRINTNOW(); PRINTF("APP> McpsConfirm STATUS: %s\r\n", EventInfoStatusStrings[mcpsConfirm-
 194              		.loc 1 160 0
 195 0002 00B5     		push	{lr}
 196              	.LCFI3:
 197              		.cfi_def_cfa_offset 4
 198              		.cfi_offset 14, -4
 199 0004 8DB0     		sub	sp, sp, #52
 200              	.LCFI4:
 201              		.cfi_def_cfa_offset 56
 202              	.LBB17:
 203              	.LBB16:
 204              		.loc 1 827 0
 205 0006 06A8     		add	r0, sp, #24
 206              	.LVL12:
 207 0008 0370     		strb	r3, [r0]
 828:../../../../../../Middlewares/Third_Party/LoRaWAN/Core/lora.c ****     LoRaMacMibGetRequestConfirm( &mibReq );
 208              		.loc 1 828 0
 209 000a FFF7FEFF 		bl	LoRaMacMibGetRequestConfirm
 210              	.LVL13:
 829:../../../../../../Middlewares/Third_Party/LoRaWAN/Core/lora.c ****   
 830:../../../../../../Middlewares/Third_Party/LoRaWAN/Core/lora.c ****     TVL2( PRINTF("\r\n" );)
 831:../../../../../../Middlewares/Third_Party/LoRaWAN/Core/lora.c ****     TVL2( PRINTNOW(); PRINTF("#= U/L FRAME %lu =# Class %c, Port %d, data size %d, pwr %d, ", \
 832:../../../../../../Middlewares/Third_Party/LoRaWAN/Core/lora.c ****                              mcpsConfirm->UpLinkCounter, \
 833:../../../../../../Middlewares/Third_Party/LoRaWAN/Core/lora.c ****                              "ABC"[mibReq.Param.Class], \
 834:../../../../../../Middlewares/Third_Party/LoRaWAN/Core/lora.c ****                              AppData.Port, \
 835:../../../../../../Middlewares/Third_Party/LoRaWAN/Core/lora.c ****                              AppData.BuffSize, \
 836:../../../../../../Middlewares/Third_Party/LoRaWAN/Core/lora.c ****                              mcpsConfirm->TxPower );)
 837:../../../../../../Middlewares/Third_Party/LoRaWAN/Core/lora.c **** 
 838:../../../../../../Middlewares/Third_Party/LoRaWAN/Core/lora.c ****     mibGet.Type  = MIB_CHANNELS_MASK;
 211              		.loc 1 838 0
 212 000e 1F23     		movs	r3, #31
 213 0010 6A46     		mov	r2, sp
 839:../../../../../../Middlewares/Third_Party/LoRaWAN/Core/lora.c ****     if( LoRaMacMibGetRequestConfirm( &mibGet ) == LORAMAC_STATUS_OK )
 214              		.loc 1 839 0
 215 0012 6846     		mov	r0, sp
 838:../../../../../../Middlewares/Third_Party/LoRaWAN/Core/lora.c ****     if( LoRaMacMibGetRequestConfirm( &mibGet ) == LORAMAC_STATUS_OK )
 216              		.loc 1 838 0
 217 0014 1370     		strb	r3, [r2]
 218              		.loc 1 839 0
 219 0016 FFF7FEFF 		bl	LoRaMacMibGetRequestConfirm
 220              	.LVL14:
ARM GAS  C:\Users\EBANO_~1\AppData\Local\Temp\ccD2gIpL.s 			page 20


 221              	.LBE16:
 222              	.LBE17:
 192:../../../../../../Middlewares/Third_Party/LoRaWAN/Core/lora.c **** 
 223              		.loc 1 192 0
 224 001a 0DB0     		add	sp, sp, #52
 225              		@ sp needed
 226 001c 00BD     		pop	{pc}
 227              		.cfi_endproc
 228              	.LFE39:
 229              		.size	McpsConfirm, .-McpsConfirm
 230 001e C046     		.section	.text.MlmeConfirm,"ax",%progbits
 231              		.align	1
 232              		.p2align 2,,3
 233              		.syntax unified
 234              		.code	16
 235              		.thumb_func
 236              		.fpu softvfp
 237              		.type	MlmeConfirm, %function
 238              	MlmeConfirm:
 239              	.LFB41:
 281:../../../../../../Middlewares/Third_Party/LoRaWAN/Core/lora.c **** #ifdef LORAMAC_CLASSB_ENABLED
 240              		.loc 1 281 0
 241              		.cfi_startproc
 242              		@ args = 0, pretend = 0, frame = 16
 243              		@ frame_needed = 0, uses_anonymous_args = 0
 244              	.LVL15:
 245 0000 10B5     		push	{r4, lr}
 246              	.LCFI5:
 247              		.cfi_def_cfa_offset 8
 248              		.cfi_offset 4, -8
 249              		.cfi_offset 14, -4
 288:../../../../../../Middlewares/Third_Party/LoRaWAN/Core/lora.c ****     {
 250              		.loc 1 288 0
 251 0002 0378     		ldrb	r3, [r0]
 281:../../../../../../Middlewares/Third_Party/LoRaWAN/Core/lora.c **** #ifdef LORAMAC_CLASSB_ENABLED
 252              		.loc 1 281 0
 253 0004 84B0     		sub	sp, sp, #16
 254              	.LCFI6:
 255              		.cfi_def_cfa_offset 24
 281:../../../../../../Middlewares/Third_Party/LoRaWAN/Core/lora.c **** #ifdef LORAMAC_CLASSB_ENABLED
 256              		.loc 1 281 0
 257 0006 0400     		movs	r4, r0
 288:../../../../../../Middlewares/Third_Party/LoRaWAN/Core/lora.c ****     {
 258              		.loc 1 288 0
 259 0008 002B     		cmp	r3, #0
 260 000a 06D0     		beq	.L29
 261 000c 032B     		cmp	r3, #3
 262 000e 02D1     		bne	.L27
 313:../../../../../../Middlewares/Third_Party/LoRaWAN/Core/lora.c ****             {
 263              		.loc 1 313 0
 264 0010 4378     		ldrb	r3, [r0, #1]
 265 0012 002B     		cmp	r3, #0
 266 0014 09D0     		beq	.L37
 267              	.LVL16:
 268              	.L27:
 381:../../../../../../Middlewares/Third_Party/LoRaWAN/Core/lora.c **** 
 269              		.loc 1 381 0
ARM GAS  C:\Users\EBANO_~1\AppData\Local\Temp\ccD2gIpL.s 			page 21


 270 0016 04B0     		add	sp, sp, #16
 271              		@ sp needed
 272 0018 10BD     		pop	{r4, pc}
 273              	.LVL17:
 274              	.L29:
 292:../../../../../../Middlewares/Third_Party/LoRaWAN/Core/lora.c ****             {
 275              		.loc 1 292 0
 276 001a 4278     		ldrb	r2, [r0, #1]
 277 001c 002A     		cmp	r2, #0
 278 001e 0CD1     		bne	.L31
 295:../../../../../../Middlewares/Third_Party/LoRaWAN/Core/lora.c **** #ifdef LORAMAC_CLASSB_ENABLED
 279              		.loc 1 295 0
 280 0020 0F4B     		ldr	r3, .L38
 281 0022 1B68     		ldr	r3, [r3]
 282 0024 5B69     		ldr	r3, [r3, #20]
 283 0026 9847     		blx	r3
 284              	.LVL18:
 285 0028 F5E7     		b	.L27
 286              	.LVL19:
 287              	.L37:
 288              	.LBB22:
 289              	.LBB23:
 317:../../../../../../Middlewares/Third_Party/LoRaWAN/Core/lora.c ****                 {
 290              		.loc 1 317 0
 291 002a FFF7FEFF 		bl	certif_running
 292              	.LVL20:
 293 002e 0028     		cmp	r0, #0
 294 0030 F1D0     		beq	.L27
 319:../../../../../../Middlewares/Third_Party/LoRaWAN/Core/lora.c ****                 }
 295              		.loc 1 319 0
 296 0032 2000     		movs	r0, r4
 297 0034 FFF7FEFF 		bl	certif_linkCheck
 298              	.LVL21:
 299              	.LBE23:
 300              	.LBE22:
 381:../../../../../../Middlewares/Third_Party/LoRaWAN/Core/lora.c **** 
 301              		.loc 1 381 0
 302 0038 EDE7     		b	.L27
 303              	.LVL22:
 304              	.L31:
 305              	.LBB24:
 306              	.LBB25:
 548:../../../../../../Middlewares/Third_Party/LoRaWAN/Core/lora.c ****     mlmeReq.Req.Join.DevEui = DevEui;
 307              		.loc 1 548 0
 308 003a 6A46     		mov	r2, sp
 551:../../../../../../Middlewares/Third_Party/LoRaWAN/Core/lora.c ****   
 309              		.loc 1 551 0
 310 003c 6946     		mov	r1, sp
 548:../../../../../../Middlewares/Third_Party/LoRaWAN/Core/lora.c ****     mlmeReq.Req.Join.DevEui = DevEui;
 311              		.loc 1 548 0
 312 003e 1370     		strb	r3, [r2]
 549:../../../../../../Middlewares/Third_Party/LoRaWAN/Core/lora.c ****     mlmeReq.Req.Join.JoinEui = JoinEui;
 313              		.loc 1 549 0
 314 0040 084B     		ldr	r3, .L38+4
 315 0042 0193     		str	r3, [sp, #4]
 550:../../../../../../Middlewares/Third_Party/LoRaWAN/Core/lora.c ****     mlmeReq.Req.Join.Datarate = LoRaParamInit->TxDatarate;
 316              		.loc 1 550 0
ARM GAS  C:\Users\EBANO_~1\AppData\Local\Temp\ccD2gIpL.s 			page 22


 317 0044 0833     		adds	r3, r3, #8
 318 0046 0293     		str	r3, [sp, #8]
 551:../../../../../../Middlewares/Third_Party/LoRaWAN/Core/lora.c ****   
 319              		.loc 1 551 0
 320 0048 054B     		ldr	r3, .L38
 321 004a 1A69     		ldr	r2, [r3, #16]
 553:../../../../../../Middlewares/Third_Party/LoRaWAN/Core/lora.c **** 
 322              		.loc 1 553 0
 323 004c 0433     		adds	r3, r3, #4
 551:../../../../../../Middlewares/Third_Party/LoRaWAN/Core/lora.c ****   
 324              		.loc 1 551 0
 325 004e 5278     		ldrb	r2, [r2, #1]
 326 0050 0A73     		strb	r2, [r1, #12]
 553:../../../../../../Middlewares/Third_Party/LoRaWAN/Core/lora.c **** 
 327              		.loc 1 553 0
 328 0052 01AA     		add	r2, sp, #4
 329 0054 13CA     		ldmia	r2!, {r0, r1, r4}
 330 0056 13C3     		stmia	r3!, {r0, r1, r4}
 331              	.LVL23:
 556:../../../../../../Middlewares/Third_Party/LoRaWAN/Core/lora.c **** #else
 332              		.loc 1 556 0
 333 0058 6846     		mov	r0, sp
 334 005a FFF7FEFF 		bl	LoRaMacMlmeRequest
 335              	.LVL24:
 336 005e DAE7     		b	.L27
 337              	.L39:
 338              		.align	2
 339              	.L38:
 340 0060 00000000 		.word	.LANCHOR0
 341 0064 00000000 		.word	.LANCHOR1
 342              	.LBE25:
 343              	.LBE24:
 344              		.cfi_endproc
 345              	.LFE41:
 346              		.size	MlmeConfirm, .-MlmeConfirm
 347              		.section	.text.LORA_Init,"ax",%progbits
 348              		.align	1
 349              		.p2align 2,,3
 350              		.global	LORA_Init
 351              		.syntax unified
 352              		.code	16
 353              		.thumb_func
 354              		.fpu softvfp
 355              		.type	LORA_Init, %function
 356              	LORA_Init:
 357              	.LFB43:
 439:../../../../../../Middlewares/Third_Party/LoRaWAN/Core/lora.c ****   /* init the Tx Duty Cycle*/
 358              		.loc 1 439 0
 359              		.cfi_startproc
 360              		@ args = 0, pretend = 0, frame = 0
 361              		@ frame_needed = 0, uses_anonymous_args = 0
 362              	.LVL25:
 363 0000 F0B5     		push	{r4, r5, r6, r7, lr}
 364              	.LCFI7:
 365              		.cfi_def_cfa_offset 20
 366              		.cfi_offset 4, -20
 367              		.cfi_offset 5, -16
ARM GAS  C:\Users\EBANO_~1\AppData\Local\Temp\ccD2gIpL.s 			page 23


 368              		.cfi_offset 6, -12
 369              		.cfi_offset 7, -8
 370              		.cfi_offset 14, -4
 371 0002 C646     		mov	lr, r8
 372 0004 00B5     		push	{lr}
 373              	.LCFI8:
 374              		.cfi_def_cfa_offset 24
 375              		.cfi_offset 8, -24
 441:../../../../../../Middlewares/Third_Party/LoRaWAN/Core/lora.c ****   
 376              		.loc 1 441 0
 377 0006 554D     		ldr	r5, .L49
 447:../../../../../../Middlewares/Third_Party/LoRaWAN/Core/lora.c **** #endif
 378              		.loc 1 447 0
 379 0008 554C     		ldr	r4, .L49+4
 444:../../../../../../Middlewares/Third_Party/LoRaWAN/Core/lora.c ****   
 380              		.loc 1 444 0
 381 000a 2860     		str	r0, [r5]
 447:../../../../../../Middlewares/Third_Party/LoRaWAN/Core/lora.c **** #endif
 382              		.loc 1 447 0
 383 000c 8368     		ldr	r3, [r0, #8]
 439:../../../../../../Middlewares/Third_Party/LoRaWAN/Core/lora.c ****   /* init the Tx Duty Cycle*/
 384              		.loc 1 439 0
 385 000e 8EB0     		sub	sp, sp, #56
 386              	.LCFI9:
 387              		.cfi_def_cfa_offset 80
 447:../../../../../../Middlewares/Third_Party/LoRaWAN/Core/lora.c **** #endif
 388              		.loc 1 447 0
 389 0010 2000     		movs	r0, r4
 390              	.LVL26:
 441:../../../../../../Middlewares/Third_Party/LoRaWAN/Core/lora.c ****   
 391              		.loc 1 441 0
 392 0012 2961     		str	r1, [r5, #16]
 447:../../../../../../Middlewares/Third_Party/LoRaWAN/Core/lora.c **** #endif
 393              		.loc 1 447 0
 394 0014 9847     		blx	r3
 395              	.LVL27:
 396 0016 534E     		ldr	r6, .L49+8
 397              	.L41:
 452:../../../../../../Middlewares/Third_Party/LoRaWAN/Core/lora.c ****   PPRINTF( "DevEui= %02X-%02X-%02X-%02X-%02X-%02X-%02X-%02X\n\r", HEX8(DevEui));
 398              		.loc 1 452 0 discriminator 1
 399 0018 3000     		movs	r0, r6
 400 001a FFF7FEFF 		bl	TraceSend
 401              	.LVL28:
 402 001e 0028     		cmp	r0, #0
 403 0020 FAD1     		bne	.L41
 404 0022 514E     		ldr	r6, .L49+12
 405              	.L42:
 453:../../../../../../Middlewares/Third_Party/LoRaWAN/Core/lora.c ****   PPRINTF( "AppEui= %02X-%02X-%02X-%02X-%02X-%02X-%02X-%02X\n\r", HEX8(JoinEui));
 406              		.loc 1 453 0 discriminator 1
 407 0024 E079     		ldrb	r0, [r4, #7]
 408 0026 A378     		ldrb	r3, [r4, #2]
 409 0028 6278     		ldrb	r2, [r4, #1]
 410 002a 2178     		ldrb	r1, [r4]
 411 002c 0490     		str	r0, [sp, #16]
 412 002e A079     		ldrb	r0, [r4, #6]
 413 0030 0390     		str	r0, [sp, #12]
 414 0032 6079     		ldrb	r0, [r4, #5]
ARM GAS  C:\Users\EBANO_~1\AppData\Local\Temp\ccD2gIpL.s 			page 24


 415 0034 0290     		str	r0, [sp, #8]
 416 0036 2079     		ldrb	r0, [r4, #4]
 417 0038 0190     		str	r0, [sp, #4]
 418 003a E078     		ldrb	r0, [r4, #3]
 419 003c 0090     		str	r0, [sp]
 420 003e 3000     		movs	r0, r6
 421 0040 FFF7FEFF 		bl	TraceSend
 422              	.LVL29:
 423 0044 0028     		cmp	r0, #0
 424 0046 EDD1     		bne	.L42
 425 0048 484E     		ldr	r6, .L49+16
 426              	.L43:
 454:../../../../../../Middlewares/Third_Party/LoRaWAN/Core/lora.c ****   PPRINTF( "AppKey= %02X %02X %02X %02X %02X %02X %02X %02X %02X %02X %02X %02X %02X %02X %02X %02X
 427              		.loc 1 454 0 discriminator 1
 428 004a E07B     		ldrb	r0, [r4, #15]
 429 004c A37A     		ldrb	r3, [r4, #10]
 430 004e 627A     		ldrb	r2, [r4, #9]
 431 0050 217A     		ldrb	r1, [r4, #8]
 432 0052 0490     		str	r0, [sp, #16]
 433 0054 A07B     		ldrb	r0, [r4, #14]
 434 0056 0390     		str	r0, [sp, #12]
 435 0058 607B     		ldrb	r0, [r4, #13]
 436 005a 0290     		str	r0, [sp, #8]
 437 005c 207B     		ldrb	r0, [r4, #12]
 438 005e 0190     		str	r0, [sp, #4]
 439 0060 E07A     		ldrb	r0, [r4, #11]
 440 0062 0090     		str	r0, [sp]
 441 0064 3000     		movs	r0, r6
 442 0066 FFF7FEFF 		bl	TraceSend
 443              	.LVL30:
 444 006a 0028     		cmp	r0, #0
 445 006c EDD1     		bne	.L43
 446 006e 404F     		ldr	r7, .L49+20
 447              	.L44:
 455:../../../../../../Middlewares/Third_Party/LoRaWAN/Core/lora.c **** #else
 448              		.loc 1 455 0 discriminator 1
 449 0070 E07F     		ldrb	r0, [r4, #31]
 450 0072 A37C     		ldrb	r3, [r4, #18]
 451 0074 627C     		ldrb	r2, [r4, #17]
 452 0076 217C     		ldrb	r1, [r4, #16]
 453 0078 0C90     		str	r0, [sp, #48]
 454 007a A07F     		ldrb	r0, [r4, #30]
 455 007c 0B90     		str	r0, [sp, #44]
 456 007e 607F     		ldrb	r0, [r4, #29]
 457 0080 0A90     		str	r0, [sp, #40]
 458 0082 207F     		ldrb	r0, [r4, #28]
 459 0084 0990     		str	r0, [sp, #36]
 460 0086 E07E     		ldrb	r0, [r4, #27]
 461 0088 0890     		str	r0, [sp, #32]
 462 008a A07E     		ldrb	r0, [r4, #26]
 463 008c 0790     		str	r0, [sp, #28]
 464 008e 607E     		ldrb	r0, [r4, #25]
 465 0090 0690     		str	r0, [sp, #24]
 466 0092 207E     		ldrb	r0, [r4, #24]
 467 0094 0590     		str	r0, [sp, #20]
 468 0096 E07D     		ldrb	r0, [r4, #23]
 469 0098 0490     		str	r0, [sp, #16]
ARM GAS  C:\Users\EBANO_~1\AppData\Local\Temp\ccD2gIpL.s 			page 25


 470 009a A07D     		ldrb	r0, [r4, #22]
 471 009c 0390     		str	r0, [sp, #12]
 472 009e 607D     		ldrb	r0, [r4, #21]
 473 00a0 0290     		str	r0, [sp, #8]
 474 00a2 207D     		ldrb	r0, [r4, #20]
 475 00a4 0190     		str	r0, [sp, #4]
 476 00a6 E07C     		ldrb	r0, [r4, #19]
 477 00a8 0090     		str	r0, [sp]
 478 00aa 3800     		movs	r0, r7
 479 00ac FFF7FEFF 		bl	TraceSend
 480              	.LVL31:
 481 00b0 061E     		subs	r6, r0, #0
 482 00b2 DDD1     		bne	.L44
 490:../../../../../../Middlewares/Third_Party/LoRaWAN/Core/lora.c **** #elif defined( REGION_KR920 )
 483              		.loc 1 490 0
 484 00b4 2900     		movs	r1, r5
 485 00b6 2431     		adds	r1, r1, #36
 486 00b8 0800     		movs	r0, r1
 470:../../../../../../Middlewares/Third_Party/LoRaWAN/Core/lora.c ****         LoRaMacPrimitives.MacMcpsIndication = McpsIndication;
 487              		.loc 1 470 0
 488 00ba 2E4B     		ldr	r3, .L49+24
 490:../../../../../../Middlewares/Third_Party/LoRaWAN/Core/lora.c **** #elif defined( REGION_KR920 )
 489              		.loc 1 490 0
 490 00bc 1038     		subs	r0, r0, #16
 470:../../../../../../Middlewares/Third_Party/LoRaWAN/Core/lora.c ****         LoRaMacPrimitives.MacMcpsIndication = McpsIndication;
 491              		.loc 1 470 0
 492 00be 6B61     		str	r3, [r5, #20]
 471:../../../../../../Middlewares/Third_Party/LoRaWAN/Core/lora.c ****         LoRaMacPrimitives.MacMlmeConfirm = MlmeConfirm;
 493              		.loc 1 471 0
 494 00c0 2D4B     		ldr	r3, .L49+28
 512:../../../../../../Middlewares/Third_Party/LoRaWAN/Core/lora.c ****       LoRaMacMibSetRequestConfirm( &mibReq );
 495              		.loc 1 512 0
 496 00c2 2F00     		movs	r7, r5
 471:../../../../../../Middlewares/Third_Party/LoRaWAN/Core/lora.c ****         LoRaMacPrimitives.MacMlmeConfirm = MlmeConfirm;
 497              		.loc 1 471 0
 498 00c4 AB61     		str	r3, [r5, #24]
 472:../../../../../../Middlewares/Third_Party/LoRaWAN/Core/lora.c ****         LoRaMacPrimitives.MacMlmeIndication = MlmeIndication;
 499              		.loc 1 472 0
 500 00c6 2D4B     		ldr	r3, .L49+32
 512:../../../../../../Middlewares/Third_Party/LoRaWAN/Core/lora.c ****       LoRaMacMibSetRequestConfirm( &mibReq );
 501              		.loc 1 512 0
 502 00c8 3437     		adds	r7, r7, #52
 472:../../../../../../Middlewares/Third_Party/LoRaWAN/Core/lora.c ****         LoRaMacPrimitives.MacMlmeIndication = MlmeIndication;
 503              		.loc 1 472 0
 504 00ca EB61     		str	r3, [r5, #28]
 473:../../../../../../Middlewares/Third_Party/LoRaWAN/Core/lora.c ****         LoRaMacCallbacks.GetBatteryLevel = LoRaMainCallbacks->BoardGetBatteryLevel;
 505              		.loc 1 473 0
 506 00cc 2C4B     		ldr	r3, .L49+36
 507 00ce 2B62     		str	r3, [r5, #32]
 474:../../../../../../Middlewares/Third_Party/LoRaWAN/Core/lora.c ****         LoRaMacCallbacks.GetTemperatureLevel = LoRaMainCallbacks->BoardGetTemperatureLevel;
 508              		.loc 1 474 0
 509 00d0 2B68     		ldr	r3, [r5]
 510 00d2 1A68     		ldr	r2, [r3]
 511 00d4 6A62     		str	r2, [r5, #36]
 475:../../../../../../Middlewares/Third_Party/LoRaWAN/Core/lora.c ****         LoRaMacCallbacks.MacProcessNotify = LoRaMainCallbacks->MacProcessNotify;
 512              		.loc 1 475 0
 513 00d6 5A68     		ldr	r2, [r3, #4]
ARM GAS  C:\Users\EBANO_~1\AppData\Local\Temp\ccD2gIpL.s 			page 26


 476:../../../../../../Middlewares/Third_Party/LoRaWAN/Core/lora.c **** #if defined( REGION_AS923 )
 514              		.loc 1 476 0
 515 00d8 1B6A     		ldr	r3, [r3, #32]
 475:../../../../../../Middlewares/Third_Party/LoRaWAN/Core/lora.c ****         LoRaMacCallbacks.MacProcessNotify = LoRaMainCallbacks->MacProcessNotify;
 516              		.loc 1 475 0
 517 00da AA62     		str	r2, [r5, #40]
 490:../../../../../../Middlewares/Third_Party/LoRaWAN/Core/lora.c **** #elif defined( REGION_KR920 )
 518              		.loc 1 490 0
 519 00dc 0522     		movs	r2, #5
 476:../../../../../../Middlewares/Third_Party/LoRaWAN/Core/lora.c **** #if defined( REGION_AS923 )
 520              		.loc 1 476 0
 521 00de 2B63     		str	r3, [r5, #48]
 490:../../../../../../Middlewares/Third_Party/LoRaWAN/Core/lora.c **** #elif defined( REGION_KR920 )
 522              		.loc 1 490 0
 523 00e0 FFF7FEFF 		bl	LoRaMacInitialization
 524              	.LVL32:
 511:../../../../../../Middlewares/Third_Party/LoRaWAN/Core/lora.c ****       mibReq.Param.AdrEnable = LoRaParamInit->AdrEnable;
 525              		.loc 1 511 0
 526 00e4 3423     		movs	r3, #52
 527 00e6 9846     		mov	r8, r3
 528 00e8 4246     		mov	r2, r8
 529 00ea 323B     		subs	r3, r3, #50
 530 00ec AB54     		strb	r3, [r5, r2]
 512:../../../../../../Middlewares/Third_Party/LoRaWAN/Core/lora.c ****       LoRaMacMibSetRequestConfirm( &mibReq );
 531              		.loc 1 512 0
 532 00ee 2B69     		ldr	r3, [r5, #16]
 513:../../../../../../Middlewares/Third_Party/LoRaWAN/Core/lora.c **** 
 533              		.loc 1 513 0
 534 00f0 3800     		movs	r0, r7
 512:../../../../../../Middlewares/Third_Party/LoRaWAN/Core/lora.c ****       LoRaMacMibSetRequestConfirm( &mibReq );
 535              		.loc 1 512 0
 536 00f2 1B78     		ldrb	r3, [r3]
 537 00f4 3B71     		strb	r3, [r7, #4]
 513:../../../../../../Middlewares/Third_Party/LoRaWAN/Core/lora.c **** 
 538              		.loc 1 513 0
 539 00f6 FFF7FEFF 		bl	LoRaMacMibSetRequestConfirm
 540              	.LVL33:
 515:../../../../../../Middlewares/Third_Party/LoRaWAN/Core/lora.c ****       mibReq.Param.EnablePublicNetwork = LoRaParamInit->EnablePublicNetwork;
 541              		.loc 1 515 0
 542 00fa 4246     		mov	r2, r8
 543 00fc 1A23     		movs	r3, #26
 544 00fe AB54     		strb	r3, [r5, r2]
 516:../../../../../../Middlewares/Third_Party/LoRaWAN/Core/lora.c ****       LoRaMacMibSetRequestConfirm( &mibReq );
 545              		.loc 1 516 0
 546 0100 2B69     		ldr	r3, [r5, #16]
 517:../../../../../../Middlewares/Third_Party/LoRaWAN/Core/lora.c ****       
 547              		.loc 1 517 0
 548 0102 3800     		movs	r0, r7
 516:../../../../../../Middlewares/Third_Party/LoRaWAN/Core/lora.c ****       LoRaMacMibSetRequestConfirm( &mibReq );
 549              		.loc 1 516 0
 550 0104 9B78     		ldrb	r3, [r3, #2]
 551 0106 3B71     		strb	r3, [r7, #4]
 517:../../../../../../Middlewares/Third_Party/LoRaWAN/Core/lora.c ****       
 552              		.loc 1 517 0
 553 0108 FFF7FEFF 		bl	LoRaMacMibSetRequestConfirm
 554              	.LVL34:
 519:../../../../../../Middlewares/Third_Party/LoRaWAN/Core/lora.c ****       mibReq.Param.AppKey = AppKey;
ARM GAS  C:\Users\EBANO_~1\AppData\Local\Temp\ccD2gIpL.s 			page 27


 555              		.loc 1 519 0
 556 010c 4246     		mov	r2, r8
 557 010e 0523     		movs	r3, #5
 558 0110 AB54     		strb	r3, [r5, r2]
 520:../../../../../../Middlewares/Third_Party/LoRaWAN/Core/lora.c ****       LoRaMacMibSetRequestConfirm( &mibReq );
 559              		.loc 1 520 0
 560 0112 2300     		movs	r3, r4
 521:../../../../../../Middlewares/Third_Party/LoRaWAN/Core/lora.c **** 
 561              		.loc 1 521 0
 562 0114 3800     		movs	r0, r7
 520:../../../../../../Middlewares/Third_Party/LoRaWAN/Core/lora.c ****       LoRaMacMibSetRequestConfirm( &mibReq );
 563              		.loc 1 520 0
 564 0116 1033     		adds	r3, r3, #16
 565 0118 AB63     		str	r3, [r5, #56]
 521:../../../../../../Middlewares/Third_Party/LoRaWAN/Core/lora.c **** 
 566              		.loc 1 521 0
 567 011a FFF7FEFF 		bl	LoRaMacMibSetRequestConfirm
 568              	.LVL35:
 523:../../../../../../Middlewares/Third_Party/LoRaWAN/Core/lora.c ****       mibReq.Param.NwkKey = NwkKey;
 569              		.loc 1 523 0
 570 011e 4246     		mov	r2, r8
 571 0120 0623     		movs	r3, #6
 524:../../../../../../Middlewares/Third_Party/LoRaWAN/Core/lora.c ****       LoRaMacMibSetRequestConfirm( &mibReq );      
 572              		.loc 1 524 0
 573 0122 2034     		adds	r4, r4, #32
 525:../../../../../../Middlewares/Third_Party/LoRaWAN/Core/lora.c ****                       
 574              		.loc 1 525 0
 575 0124 3800     		movs	r0, r7
 523:../../../../../../Middlewares/Third_Party/LoRaWAN/Core/lora.c ****       mibReq.Param.NwkKey = NwkKey;
 576              		.loc 1 523 0
 577 0126 AB54     		strb	r3, [r5, r2]
 524:../../../../../../Middlewares/Third_Party/LoRaWAN/Core/lora.c ****       LoRaMacMibSetRequestConfirm( &mibReq );      
 578              		.loc 1 524 0
 579 0128 AC63     		str	r4, [r5, #56]
 525:../../../../../../Middlewares/Third_Party/LoRaWAN/Core/lora.c ****                       
 580              		.loc 1 525 0
 581 012a FFF7FEFF 		bl	LoRaMacMibSetRequestConfirm
 582              	.LVL36:
 527:../../../../../../Middlewares/Third_Party/LoRaWAN/Core/lora.c ****       mibReq.Param.Class= CLASS_A;
 583              		.loc 1 527 0
 584 012e 4346     		mov	r3, r8
 529:../../../../../../Middlewares/Third_Party/LoRaWAN/Core/lora.c **** 
 585              		.loc 1 529 0
 586 0130 3800     		movs	r0, r7
 527:../../../../../../Middlewares/Third_Party/LoRaWAN/Core/lora.c ****       mibReq.Param.Class= CLASS_A;
 587              		.loc 1 527 0
 588 0132 EE54     		strb	r6, [r5, r3]
 528:../../../../../../Middlewares/Third_Party/LoRaWAN/Core/lora.c ****       LoRaMacMibSetRequestConfirm( &mibReq );
 589              		.loc 1 528 0
 590 0134 3E71     		strb	r6, [r7, #4]
 529:../../../../../../Middlewares/Third_Party/LoRaWAN/Core/lora.c **** 
 591              		.loc 1 529 0
 592 0136 FFF7FEFF 		bl	LoRaMacMibSetRequestConfirm
 593              	.LVL37:
 532:../../../../../../Middlewares/Third_Party/LoRaWAN/Core/lora.c **** #endif
 594              		.loc 1 532 0
 595 013a 0120     		movs	r0, #1
ARM GAS  C:\Users\EBANO_~1\AppData\Local\Temp\ccD2gIpL.s 			page 28


 596 013c FFF7FEFF 		bl	LoRaMacTestSetDutyCycleOn
 597              	.LVL38:
 535:../../../../../../Middlewares/Third_Party/LoRaWAN/Core/lora.c ****       mibReq.Param.SystemMaxRxError = 20;
 598              		.loc 1 535 0
 599 0140 4246     		mov	r2, r8
 600 0142 2B23     		movs	r3, #43
 537:../../../../../../Middlewares/Third_Party/LoRaWAN/Core/lora.c **** 
 601              		.loc 1 537 0
 602 0144 3800     		movs	r0, r7
 535:../../../../../../Middlewares/Third_Party/LoRaWAN/Core/lora.c ****       mibReq.Param.SystemMaxRxError = 20;
 603              		.loc 1 535 0
 604 0146 AB54     		strb	r3, [r5, r2]
 536:../../../../../../Middlewares/Third_Party/LoRaWAN/Core/lora.c ****       LoRaMacMibSetRequestConfirm( &mibReq );
 605              		.loc 1 536 0
 606 0148 173B     		subs	r3, r3, #23
 607 014a AB63     		str	r3, [r5, #56]
 537:../../../../../../Middlewares/Third_Party/LoRaWAN/Core/lora.c **** 
 608              		.loc 1 537 0
 609 014c FFF7FEFF 		bl	LoRaMacMibSetRequestConfirm
 610              	.LVL39:
 540:../../../../../../Middlewares/Third_Party/LoRaWAN/Core/lora.c **** }
 611              		.loc 1 540 0
 612 0150 FFF7FEFF 		bl	LoRaMacStart
 613              	.LVL40:
 541:../../../../../../Middlewares/Third_Party/LoRaWAN/Core/lora.c **** 
 614              		.loc 1 541 0
 615 0154 0EB0     		add	sp, sp, #56
 616              		@ sp needed
 617 0156 04BC     		pop	{r2}
 618 0158 9046     		mov	r8, r2
 619 015a F0BD     		pop	{r4, r5, r6, r7, pc}
 620              	.L50:
 621              		.align	2
 622              	.L49:
 623 015c 00000000 		.word	.LANCHOR0
 624 0160 00000000 		.word	.LANCHOR1
 625 0164 00000000 		.word	.LC13
 626 0168 08000000 		.word	.LC15
 627 016c 3C000000 		.word	.LC17
 628 0170 70000000 		.word	.LC19
 629 0174 00000000 		.word	McpsConfirm
 630 0178 00000000 		.word	McpsIndication
 631 017c 00000000 		.word	MlmeConfirm
 632 0180 00000000 		.word	MlmeIndication
 633              		.cfi_endproc
 634              	.LFE43:
 635              		.size	LORA_Init, .-LORA_Init
 636              		.section	.text.LORA_Join,"ax",%progbits
 637              		.align	1
 638              		.p2align 2,,3
 639              		.global	LORA_Join
 640              		.syntax unified
 641              		.code	16
 642              		.thumb_func
 643              		.fpu softvfp
 644              		.type	LORA_Join, %function
 645              	LORA_Join:
ARM GAS  C:\Users\EBANO_~1\AppData\Local\Temp\ccD2gIpL.s 			page 29


 646              	.LFB44:
 545:../../../../../../Middlewares/Third_Party/LoRaWAN/Core/lora.c ****     MlmeReq_t mlmeReq;
 647              		.loc 1 545 0
 648              		.cfi_startproc
 649              		@ args = 0, pretend = 0, frame = 16
 650              		@ frame_needed = 0, uses_anonymous_args = 0
 651 0000 10B5     		push	{r4, lr}
 652              	.LCFI10:
 653              		.cfi_def_cfa_offset 8
 654              		.cfi_offset 4, -8
 655              		.cfi_offset 14, -4
 656 0002 84B0     		sub	sp, sp, #16
 657              	.LCFI11:
 658              		.cfi_def_cfa_offset 24
 548:../../../../../../Middlewares/Third_Party/LoRaWAN/Core/lora.c ****     mlmeReq.Req.Join.DevEui = DevEui;
 659              		.loc 1 548 0
 660 0004 6A46     		mov	r2, sp
 661 0006 0023     		movs	r3, #0
 551:../../../../../../Middlewares/Third_Party/LoRaWAN/Core/lora.c ****   
 662              		.loc 1 551 0
 663 0008 6946     		mov	r1, sp
 548:../../../../../../Middlewares/Third_Party/LoRaWAN/Core/lora.c ****     mlmeReq.Req.Join.DevEui = DevEui;
 664              		.loc 1 548 0
 665 000a 1370     		strb	r3, [r2]
 549:../../../../../../Middlewares/Third_Party/LoRaWAN/Core/lora.c ****     mlmeReq.Req.Join.JoinEui = JoinEui;
 666              		.loc 1 549 0
 667 000c 084B     		ldr	r3, .L52
 668 000e 0193     		str	r3, [sp, #4]
 550:../../../../../../Middlewares/Third_Party/LoRaWAN/Core/lora.c ****     mlmeReq.Req.Join.Datarate = LoRaParamInit->TxDatarate;
 669              		.loc 1 550 0
 670 0010 0833     		adds	r3, r3, #8
 671 0012 0293     		str	r3, [sp, #8]
 551:../../../../../../Middlewares/Third_Party/LoRaWAN/Core/lora.c ****   
 672              		.loc 1 551 0
 673 0014 074B     		ldr	r3, .L52+4
 674 0016 1A69     		ldr	r2, [r3, #16]
 553:../../../../../../Middlewares/Third_Party/LoRaWAN/Core/lora.c **** 
 675              		.loc 1 553 0
 676 0018 0433     		adds	r3, r3, #4
 551:../../../../../../Middlewares/Third_Party/LoRaWAN/Core/lora.c ****   
 677              		.loc 1 551 0
 678 001a 5278     		ldrb	r2, [r2, #1]
 679 001c 0A73     		strb	r2, [r1, #12]
 553:../../../../../../Middlewares/Third_Party/LoRaWAN/Core/lora.c **** 
 680              		.loc 1 553 0
 681 001e 01AA     		add	r2, sp, #4
 682 0020 13CA     		ldmia	r2!, {r0, r1, r4}
 683 0022 13C3     		stmia	r3!, {r0, r1, r4}
 556:../../../../../../Middlewares/Third_Party/LoRaWAN/Core/lora.c **** #else
 684              		.loc 1 556 0
 685 0024 6846     		mov	r0, sp
 686 0026 FFF7FEFF 		bl	LoRaMacMlmeRequest
 687              	.LVL41:
 600:../../../../../../Middlewares/Third_Party/LoRaWAN/Core/lora.c **** 
 688              		.loc 1 600 0
 689 002a 04B0     		add	sp, sp, #16
 690              		@ sp needed
ARM GAS  C:\Users\EBANO_~1\AppData\Local\Temp\ccD2gIpL.s 			page 30


 691 002c 10BD     		pop	{r4, pc}
 692              	.L53:
 693 002e C046     		.align	2
 694              	.L52:
 695 0030 00000000 		.word	.LANCHOR1
 696 0034 00000000 		.word	.LANCHOR0
 697              		.cfi_endproc
 698              	.LFE44:
 699              		.size	LORA_Join, .-LORA_Join
 700              		.section	.text.LORA_JoinStatus,"ax",%progbits
 701              		.align	1
 702              		.p2align 2,,3
 703              		.global	LORA_JoinStatus
 704              		.syntax unified
 705              		.code	16
 706              		.thumb_func
 707              		.fpu softvfp
 708              		.type	LORA_JoinStatus, %function
 709              	LORA_JoinStatus:
 710              	.LFB45:
 603:../../../../../../Middlewares/Third_Party/LoRaWAN/Core/lora.c ****   MibRequestConfirm_t mibReq;
 711              		.loc 1 603 0
 712              		.cfi_startproc
 713              		@ args = 0, pretend = 0, frame = 24
 714              		@ frame_needed = 0, uses_anonymous_args = 0
 715 0000 00B5     		push	{lr}
 716              	.LCFI12:
 717              		.cfi_def_cfa_offset 4
 718              		.cfi_offset 14, -4
 719 0002 87B0     		sub	sp, sp, #28
 720              	.LCFI13:
 721              		.cfi_def_cfa_offset 32
 606:../../../../../../Middlewares/Third_Party/LoRaWAN/Core/lora.c ****   
 722              		.loc 1 606 0
 723 0004 0123     		movs	r3, #1
 724 0006 6A46     		mov	r2, sp
 608:../../../../../../Middlewares/Third_Party/LoRaWAN/Core/lora.c **** 
 725              		.loc 1 608 0
 726 0008 6846     		mov	r0, sp
 606:../../../../../../Middlewares/Third_Party/LoRaWAN/Core/lora.c ****   
 727              		.loc 1 606 0
 728 000a 1370     		strb	r3, [r2]
 608:../../../../../../Middlewares/Third_Party/LoRaWAN/Core/lora.c **** 
 729              		.loc 1 608 0
 730 000c FFF7FEFF 		bl	LoRaMacMibGetRequestConfirm
 731              	.LVL42:
 610:../../../../../../Middlewares/Third_Party/LoRaWAN/Core/lora.c ****   {
 732              		.loc 1 610 0
 733 0010 6B46     		mov	r3, sp
 734 0012 1879     		ldrb	r0, [r3, #4]
 735 0014 431E     		subs	r3, r0, #1
 736 0016 9841     		sbcs	r0, r0, r3
 612:../../../../../../Middlewares/Third_Party/LoRaWAN/Core/lora.c ****   }
 737              		.loc 1 612 0
 738 0018 C0B2     		uxtb	r0, r0
 618:../../../../../../Middlewares/Third_Party/LoRaWAN/Core/lora.c **** 
 739              		.loc 1 618 0
ARM GAS  C:\Users\EBANO_~1\AppData\Local\Temp\ccD2gIpL.s 			page 31


 740 001a 07B0     		add	sp, sp, #28
 741              		@ sp needed
 742 001c 00BD     		pop	{pc}
 743              		.cfi_endproc
 744              	.LFE45:
 745              		.size	LORA_JoinStatus, .-LORA_JoinStatus
 746 001e C046     		.section	.text.LORA_send,"ax",%progbits
 747              		.align	1
 748              		.p2align 2,,3
 749              		.global	LORA_send
 750              		.syntax unified
 751              		.code	16
 752              		.thumb_func
 753              		.fpu softvfp
 754              		.type	LORA_send, %function
 755              	LORA_send:
 756              	.LFB46:
 623:../../../../../../Middlewares/Third_Party/LoRaWAN/Core/lora.c ****     McpsReq_t mcpsReq;
 757              		.loc 1 623 0
 758              		.cfi_startproc
 759              		@ args = 0, pretend = 0, frame = 24
 760              		@ frame_needed = 0, uses_anonymous_args = 0
 761              	.LVL43:
 762 0000 70B5     		push	{r4, r5, r6, lr}
 763              	.LCFI14:
 764              		.cfi_def_cfa_offset 16
 765              		.cfi_offset 4, -16
 766              		.cfi_offset 5, -12
 767              		.cfi_offset 6, -8
 768              		.cfi_offset 14, -4
 769 0002 86B0     		sub	sp, sp, #24
 770              	.LCFI15:
 771              		.cfi_def_cfa_offset 40
 623:../../../../../../Middlewares/Third_Party/LoRaWAN/Core/lora.c ****     McpsReq_t mcpsReq;
 772              		.loc 1 623 0
 773 0004 0500     		movs	r5, r0
 774 0006 0E00     		movs	r6, r1
 628:../../../../../../Middlewares/Third_Party/LoRaWAN/Core/lora.c ****     {
 775              		.loc 1 628 0
 776 0008 FFF7FEFF 		bl	certif_running
 777              	.LVL44:
 778 000c 0400     		movs	r4, r0
 630:../../../../../../Middlewares/Third_Party/LoRaWAN/Core/lora.c ****     }
 779              		.loc 1 630 0
 780 000e 0020     		movs	r0, #0
 628:../../../../../../Middlewares/Third_Party/LoRaWAN/Core/lora.c ****     {
 781              		.loc 1 628 0
 782 0010 002C     		cmp	r4, #0
 783 0012 01D0     		beq	.L61
 784              	.LVL45:
 785              	.L56:
 666:../../../../../../Middlewares/Third_Party/LoRaWAN/Core/lora.c **** 
 786              		.loc 1 666 0
 787 0014 06B0     		add	sp, sp, #24
 788              		@ sp needed
 789 0016 70BD     		pop	{r4, r5, r6, pc}
 790              	.LVL46:
ARM GAS  C:\Users\EBANO_~1\AppData\Local\Temp\ccD2gIpL.s 			page 32


 791              	.L61:
 633:../../../../../../Middlewares/Third_Party/LoRaWAN/Core/lora.c ****     {
 792              		.loc 1 633 0
 793 0018 2879     		ldrb	r0, [r5, #4]
 794 001a 01A9     		add	r1, sp, #4
 795 001c FFF7FEFF 		bl	LoRaMacQueryTxPossible
 796              	.LVL47:
 797 0020 0028     		cmp	r0, #0
 798 0022 14D1     		bne	.L62
 799 0024 134B     		ldr	r3, .L63
 800 0026 6C79     		ldrb	r4, [r5, #5]
 801 0028 1B69     		ldr	r3, [r3, #16]
 802 002a 2979     		ldrb	r1, [r5, #4]
 803 002c 5B78     		ldrb	r3, [r3, #1]
 804 002e 2A68     		ldr	r2, [r5]
 805 0030 5BB2     		sxtb	r3, r3
 645:../../../../../../Middlewares/Third_Party/LoRaWAN/Core/lora.c ****             mcpsReq.Req.Unconfirmed.fPort = AppData->Port;
 806              		.loc 1 645 0
 807 0032 02A8     		add	r0, sp, #8
 643:../../../../../../Middlewares/Third_Party/LoRaWAN/Core/lora.c ****         {
 808              		.loc 1 643 0
 809 0034 002E     		cmp	r6, #0
 810 0036 13D1     		bne	.L59
 645:../../../../../../Middlewares/Third_Party/LoRaWAN/Core/lora.c ****             mcpsReq.Req.Unconfirmed.fPort = AppData->Port;
 811              		.loc 1 645 0
 812 0038 0670     		strb	r6, [r0]
 646:../../../../../../Middlewares/Third_Party/LoRaWAN/Core/lora.c ****             mcpsReq.Req.Unconfirmed.fBufferSize = AppData->BuffSize;
 813              		.loc 1 646 0
 814 003a 0471     		strb	r4, [r0, #4]
 647:../../../../../../Middlewares/Third_Party/LoRaWAN/Core/lora.c ****             mcpsReq.Req.Unconfirmed.fBuffer = AppData->Buff;
 815              		.loc 1 647 0
 816 003c 8181     		strh	r1, [r0, #12]
 648:../../../../../../Middlewares/Third_Party/LoRaWAN/Core/lora.c ****             mcpsReq.Req.Unconfirmed.Datarate = LoRaParamInit->TxDatarate;
 817              		.loc 1 648 0
 818 003e 8260     		str	r2, [r0, #8]
 649:../../../../../../Middlewares/Third_Party/LoRaWAN/Core/lora.c ****         }
 819              		.loc 1 649 0
 820 0040 8373     		strb	r3, [r0, #14]
 821              	.LVL48:
 822              	.L58:
 661:../../../../../../Middlewares/Third_Party/LoRaWAN/Core/lora.c ****     {
 823              		.loc 1 661 0
 824 0042 FFF7FEFF 		bl	LoRaMacMcpsRequest
 825              	.LVL49:
 826 0046 431E     		subs	r3, r0, #1
 827 0048 9841     		sbcs	r0, r0, r3
 828 004a C0B2     		uxtb	r0, r0
 829 004c E2E7     		b	.L56
 830              	.LVL50:
 831              	.L62:
 639:../../../../../../Middlewares/Third_Party/LoRaWAN/Core/lora.c ****     }
 832              		.loc 1 639 0
 833 004e 094B     		ldr	r3, .L63
 636:../../../../../../Middlewares/Third_Party/LoRaWAN/Core/lora.c ****         mcpsReq.Req.Unconfirmed.fBuffer = NULL;
 834              		.loc 1 636 0
 835 0050 02A8     		add	r0, sp, #8
 639:../../../../../../Middlewares/Third_Party/LoRaWAN/Core/lora.c ****     }
ARM GAS  C:\Users\EBANO_~1\AppData\Local\Temp\ccD2gIpL.s 			page 33


 836              		.loc 1 639 0
 837 0052 1B69     		ldr	r3, [r3, #16]
 636:../../../../../../Middlewares/Third_Party/LoRaWAN/Core/lora.c ****         mcpsReq.Req.Unconfirmed.fBuffer = NULL;
 838              		.loc 1 636 0
 839 0054 0470     		strb	r4, [r0]
 637:../../../../../../Middlewares/Third_Party/LoRaWAN/Core/lora.c ****         mcpsReq.Req.Unconfirmed.fBufferSize = 0;
 840              		.loc 1 637 0
 841 0056 8460     		str	r4, [r0, #8]
 638:../../../../../../Middlewares/Third_Party/LoRaWAN/Core/lora.c ****         mcpsReq.Req.Unconfirmed.Datarate = LoRaParamInit->TxDatarate;
 842              		.loc 1 638 0
 843 0058 8481     		strh	r4, [r0, #12]
 639:../../../../../../Middlewares/Third_Party/LoRaWAN/Core/lora.c ****     }
 844              		.loc 1 639 0
 845 005a 5B78     		ldrb	r3, [r3, #1]
 846 005c 8373     		strb	r3, [r0, #14]
 847 005e F0E7     		b	.L58
 848              	.L59:
 653:../../../../../../Middlewares/Third_Party/LoRaWAN/Core/lora.c ****             mcpsReq.Req.Confirmed.fPort = AppData->Port;
 849              		.loc 1 653 0
 850 0060 0125     		movs	r5, #1
 851              	.LVL51:
 656:../../../../../../Middlewares/Third_Party/LoRaWAN/Core/lora.c ****             mcpsReq.Req.Confirmed.NbTrials = 8;
 852              		.loc 1 656 0
 853 0062 8260     		str	r2, [r0, #8]
 657:../../../../../../Middlewares/Third_Party/LoRaWAN/Core/lora.c ****             mcpsReq.Req.Confirmed.Datarate = LoRaParamInit->TxDatarate;
 854              		.loc 1 657 0
 855 0064 0822     		movs	r2, #8
 653:../../../../../../Middlewares/Third_Party/LoRaWAN/Core/lora.c ****             mcpsReq.Req.Confirmed.fPort = AppData->Port;
 856              		.loc 1 653 0
 857 0066 0570     		strb	r5, [r0]
 654:../../../../../../Middlewares/Third_Party/LoRaWAN/Core/lora.c ****             mcpsReq.Req.Confirmed.fBufferSize = AppData->BuffSize;
 858              		.loc 1 654 0
 859 0068 0471     		strb	r4, [r0, #4]
 655:../../../../../../Middlewares/Third_Party/LoRaWAN/Core/lora.c ****             mcpsReq.Req.Confirmed.fBuffer = AppData->Buff;
 860              		.loc 1 655 0
 861 006a 8181     		strh	r1, [r0, #12]
 657:../../../../../../Middlewares/Third_Party/LoRaWAN/Core/lora.c ****             mcpsReq.Req.Confirmed.Datarate = LoRaParamInit->TxDatarate;
 862              		.loc 1 657 0
 863 006c C273     		strb	r2, [r0, #15]
 658:../../../../../../Middlewares/Third_Party/LoRaWAN/Core/lora.c ****         }
 864              		.loc 1 658 0
 865 006e 8373     		strb	r3, [r0, #14]
 866 0070 E7E7     		b	.L58
 867              	.L64:
 868 0072 C046     		.align	2
 869              	.L63:
 870 0074 00000000 		.word	.LANCHOR0
 871              		.cfi_endproc
 872              	.LFE46:
 873              		.size	LORA_send, .-LORA_send
 874              		.section	.text.LORA_RequestClass,"ax",%progbits
 875              		.align	1
 876              		.p2align 2,,3
 877              		.global	LORA_RequestClass
 878              		.syntax unified
 879              		.code	16
 880              		.thumb_func
ARM GAS  C:\Users\EBANO_~1\AppData\Local\Temp\ccD2gIpL.s 			page 34


 881              		.fpu softvfp
 882              		.type	LORA_RequestClass, %function
 883              	LORA_RequestClass:
 884              	.LFB47:
 743:../../../../../../Middlewares/Third_Party/LoRaWAN/Core/lora.c ****   LoraErrorStatus Errorstatus = LORA_SUCCESS;
 885              		.loc 1 743 0
 886              		.cfi_startproc
 887              		@ args = 0, pretend = 0, frame = 24
 888              		@ frame_needed = 0, uses_anonymous_args = 0
 889              	.LVL52:
 890 0000 30B5     		push	{r4, r5, lr}
 891              	.LCFI16:
 892              		.cfi_def_cfa_offset 12
 893              		.cfi_offset 4, -12
 894              		.cfi_offset 5, -8
 895              		.cfi_offset 14, -4
 896 0002 87B0     		sub	sp, sp, #28
 897              	.LCFI17:
 898              		.cfi_def_cfa_offset 40
 748:../../../../../../Middlewares/Third_Party/LoRaWAN/Core/lora.c ****   LoRaMacMibGetRequestConfirm( &mibReq );
 899              		.loc 1 748 0
 900 0004 0023     		movs	r3, #0
 901 0006 6A46     		mov	r2, sp
 743:../../../../../../Middlewares/Third_Party/LoRaWAN/Core/lora.c ****   LoraErrorStatus Errorstatus = LORA_SUCCESS;
 902              		.loc 1 743 0
 903 0008 0500     		movs	r5, r0
 749:../../../../../../Middlewares/Third_Party/LoRaWAN/Core/lora.c ****   
 904              		.loc 1 749 0
 905 000a 6846     		mov	r0, sp
 906              	.LVL53:
 748:../../../../../../Middlewares/Third_Party/LoRaWAN/Core/lora.c ****   LoRaMacMibGetRequestConfirm( &mibReq );
 907              		.loc 1 748 0
 908 000c 1370     		strb	r3, [r2]
 749:../../../../../../Middlewares/Third_Party/LoRaWAN/Core/lora.c ****   
 909              		.loc 1 749 0
 910 000e FFF7FEFF 		bl	LoRaMacMibGetRequestConfirm
 911              	.LVL54:
 751:../../../../../../Middlewares/Third_Party/LoRaWAN/Core/lora.c ****   /*attempt to swicth only if class update*/
 912              		.loc 1 751 0
 913 0012 6B46     		mov	r3, sp
 914 0014 1879     		ldrb	r0, [r3, #4]
 915              	.LVL55:
 753:../../../../../../Middlewares/Third_Party/LoRaWAN/Core/lora.c ****   {
 916              		.loc 1 753 0
 917 0016 A842     		cmp	r0, r5
 918 0018 15D0     		beq	.L74
 755:../../../../../../Middlewares/Third_Party/LoRaWAN/Core/lora.c ****     {
 919              		.loc 1 755 0
 920 001a 012D     		cmp	r5, #1
 921 001c 25D0     		beq	.L67
 922 001e 002D     		cmp	r5, #0
 923 0020 15D0     		beq	.L68
 924 0022 022D     		cmp	r5, #2
 925 0024 0FD1     		bne	.L74
 787:../../../../../../Middlewares/Third_Party/LoRaWAN/Core/lora.c ****         {
 926              		.loc 1 787 0
 927 0026 431E     		subs	r3, r0, #1
ARM GAS  C:\Users\EBANO_~1\AppData\Local\Temp\ccD2gIpL.s 			page 35


 928 0028 9841     		sbcs	r0, r0, r3
 929              	.LVL56:
 792:../../../../../../Middlewares/Third_Party/LoRaWAN/Core/lora.c ****         if( LoRaMacMibSetRequestConfirm( &mibReq ) == LORAMAC_STATUS_OK )
 930              		.loc 1 792 0
 931 002a 6B46     		mov	r3, sp
 787:../../../../../../Middlewares/Third_Party/LoRaWAN/Core/lora.c ****         {
 932              		.loc 1 787 0
 933 002c 4442     		rsbs	r4, r0, #0
 934              	.LVL57:
 793:../../../../../../Middlewares/Third_Party/LoRaWAN/Core/lora.c ****         {
 935              		.loc 1 793 0
 936 002e 6846     		mov	r0, sp
 792:../../../../../../Middlewares/Third_Party/LoRaWAN/Core/lora.c ****         if( LoRaMacMibSetRequestConfirm( &mibReq ) == LORAMAC_STATUS_OK )
 937              		.loc 1 792 0
 938 0030 1D71     		strb	r5, [r3, #4]
 939              	.LVL58:
 793:../../../../../../Middlewares/Third_Party/LoRaWAN/Core/lora.c ****         {
 940              		.loc 1 793 0
 941 0032 FFF7FEFF 		bl	LoRaMacMibSetRequestConfirm
 942              	.LVL59:
 943 0036 0028     		cmp	r0, #0
 944 0038 1CD1     		bne	.L71
 795:../../../../../../Middlewares/Third_Party/LoRaWAN/Core/lora.c ****         }
 945              		.loc 1 795 0
 946 003a 104B     		ldr	r3, .L75
 947 003c 0230     		adds	r0, r0, #2
 948 003e 1B68     		ldr	r3, [r3]
 949 0040 9B69     		ldr	r3, [r3, #24]
 950 0042 9847     		blx	r3
 951              	.LVL60:
 952 0044 00E0     		b	.L66
 953              	.LVL61:
 954              	.L74:
 744:../../../../../../Middlewares/Third_Party/LoRaWAN/Core/lora.c ****   MibRequestConfirm_t mibReq;
 955              		.loc 1 744 0
 956 0046 0024     		movs	r4, #0
 957              	.LVL62:
 958              	.L66:
 808:../../../../../../Middlewares/Third_Party/LoRaWAN/Core/lora.c **** 
 959              		.loc 1 808 0
 960 0048 2000     		movs	r0, r4
 961 004a 07B0     		add	sp, sp, #28
 962              		@ sp needed
 963              	.LVL63:
 964 004c 30BD     		pop	{r4, r5, pc}
 965              	.LVL64:
 966              	.L68:
 759:../../../../../../Middlewares/Third_Party/LoRaWAN/Core/lora.c ****         if( LoRaMacMibSetRequestConfirm( &mibReq ) == LORAMAC_STATUS_OK )
 967              		.loc 1 759 0
 968 004e 6B46     		mov	r3, sp
 760:../../../../../../Middlewares/Third_Party/LoRaWAN/Core/lora.c ****         {
 969              		.loc 1 760 0
 970 0050 6846     		mov	r0, sp
 971              	.LVL65:
 759:../../../../../../Middlewares/Third_Party/LoRaWAN/Core/lora.c ****         if( LoRaMacMibSetRequestConfirm( &mibReq ) == LORAMAC_STATUS_OK )
 972              		.loc 1 759 0
 973 0052 1D71     		strb	r5, [r3, #4]
ARM GAS  C:\Users\EBANO_~1\AppData\Local\Temp\ccD2gIpL.s 			page 36


 974              	.LVL66:
 760:../../../../../../Middlewares/Third_Party/LoRaWAN/Core/lora.c ****         {
 975              		.loc 1 760 0
 976 0054 FFF7FEFF 		bl	LoRaMacMibSetRequestConfirm
 977              	.LVL67:
 978 0058 0028     		cmp	r0, #0
 979 005a 0BD1     		bne	.L71
 763:../../../../../../Middlewares/Third_Party/LoRaWAN/Core/lora.c ****         }
 980              		.loc 1 763 0
 981 005c 074B     		ldr	r3, .L75
 982 005e 0020     		movs	r0, #0
 983 0060 1B68     		ldr	r3, [r3]
 744:../../../../../../Middlewares/Third_Party/LoRaWAN/Core/lora.c ****   MibRequestConfirm_t mibReq;
 984              		.loc 1 744 0
 985 0062 0024     		movs	r4, #0
 763:../../../../../../Middlewares/Third_Party/LoRaWAN/Core/lora.c ****         }
 986              		.loc 1 763 0
 987 0064 9B69     		ldr	r3, [r3, #24]
 988 0066 9847     		blx	r3
 989              	.LVL68:
 990 0068 EEE7     		b	.L66
 991              	.LVL69:
 992              	.L67:
 781:../../../../../../Middlewares/Third_Party/LoRaWAN/Core/lora.c **** #endif /* LORAMAC_CLASSB_ENABLED */
 993              		.loc 1 781 0
 994 006a 0548     		ldr	r0, .L75+4
 995              	.LVL70:
 996 006c FFF7FEFF 		bl	TraceSend
 997              	.LVL71:
 744:../../../../../../Middlewares/Third_Party/LoRaWAN/Core/lora.c ****   MibRequestConfirm_t mibReq;
 998              		.loc 1 744 0
 999 0070 0024     		movs	r4, #0
 783:../../../../../../Middlewares/Third_Party/LoRaWAN/Core/lora.c ****       }
 1000              		.loc 1 783 0
 1001 0072 E9E7     		b	.L66
 1002              	.LVL72:
 1003              	.L71:
 767:../../../../../../Middlewares/Third_Party/LoRaWAN/Core/lora.c ****         }
 1004              		.loc 1 767 0
 1005 0074 0124     		movs	r4, #1
 1006 0076 6442     		rsbs	r4, r4, #0
 1007 0078 E6E7     		b	.L66
 1008              	.L76:
 1009 007a C046     		.align	2
 1010              	.L75:
 1011 007c 00000000 		.word	.LANCHOR0
 1012 0080 CC000000 		.word	.LC35
 1013              		.cfi_endproc
 1014              	.LFE47:
 1015              		.size	LORA_RequestClass, .-LORA_RequestClass
 1016              		.section	.text.LORA_GetCurrentClass,"ax",%progbits
 1017              		.align	1
 1018              		.p2align 2,,3
 1019              		.global	LORA_GetCurrentClass
 1020              		.syntax unified
 1021              		.code	16
 1022              		.thumb_func
ARM GAS  C:\Users\EBANO_~1\AppData\Local\Temp\ccD2gIpL.s 			page 37


 1023              		.fpu softvfp
 1024              		.type	LORA_GetCurrentClass, %function
 1025              	LORA_GetCurrentClass:
 1026              	.LFB48:
 811:../../../../../../Middlewares/Third_Party/LoRaWAN/Core/lora.c ****   MibRequestConfirm_t mibReq;
 1027              		.loc 1 811 0
 1028              		.cfi_startproc
 1029              		@ args = 0, pretend = 0, frame = 24
 1030              		@ frame_needed = 0, uses_anonymous_args = 0
 1031              	.LVL73:
 1032 0000 10B5     		push	{r4, lr}
 1033              	.LCFI18:
 1034              		.cfi_def_cfa_offset 8
 1035              		.cfi_offset 4, -8
 1036              		.cfi_offset 14, -4
 1037 0002 86B0     		sub	sp, sp, #24
 1038              	.LCFI19:
 1039              		.cfi_def_cfa_offset 32
 814:../../../../../../Middlewares/Third_Party/LoRaWAN/Core/lora.c ****   LoRaMacMibGetRequestConfirm( &mibReq );
 1040              		.loc 1 814 0
 1041 0004 0023     		movs	r3, #0
 1042 0006 6A46     		mov	r2, sp
 811:../../../../../../Middlewares/Third_Party/LoRaWAN/Core/lora.c ****   MibRequestConfirm_t mibReq;
 1043              		.loc 1 811 0
 1044 0008 0400     		movs	r4, r0
 815:../../../../../../Middlewares/Third_Party/LoRaWAN/Core/lora.c ****   
 1045              		.loc 1 815 0
 1046 000a 6846     		mov	r0, sp
 1047              	.LVL74:
 814:../../../../../../Middlewares/Third_Party/LoRaWAN/Core/lora.c ****   LoRaMacMibGetRequestConfirm( &mibReq );
 1048              		.loc 1 814 0
 1049 000c 1370     		strb	r3, [r2]
 815:../../../../../../Middlewares/Third_Party/LoRaWAN/Core/lora.c ****   
 1050              		.loc 1 815 0
 1051 000e FFF7FEFF 		bl	LoRaMacMibGetRequestConfirm
 1052              	.LVL75:
 817:../../../../../../Middlewares/Third_Party/LoRaWAN/Core/lora.c **** }
 1053              		.loc 1 817 0
 1054 0012 6B46     		mov	r3, sp
 1055 0014 1B79     		ldrb	r3, [r3, #4]
 1056 0016 2370     		strb	r3, [r4]
 818:../../../../../../Middlewares/Third_Party/LoRaWAN/Core/lora.c **** 
 1057              		.loc 1 818 0
 1058 0018 06B0     		add	sp, sp, #24
 1059              		@ sp needed
 1060              	.LVL76:
 1061 001a 10BD     		pop	{r4, pc}
 1062              		.cfi_endproc
 1063              	.LFE48:
 1064              		.size	LORA_GetCurrentClass, .-LORA_GetCurrentClass
 1065              		.global	MlmeReqStrings
 1066              		.global	MacStatusStrings
 1067              		.global	EventInfoStatusStrings
 1068              		.data
 1069              		.align	2
 1070              		.set	.LANCHOR1,. + 0
 1071              		.type	DevEui, %object
ARM GAS  C:\Users\EBANO_~1\AppData\Local\Temp\ccD2gIpL.s 			page 38


 1072              		.size	DevEui, 8
 1073              	DevEui:
 1074 0000 01       		.byte	1
 1075 0001 01       		.byte	1
 1076 0002 01       		.byte	1
 1077 0003 01       		.byte	1
 1078 0004 01       		.byte	1
 1079 0005 01       		.byte	1
 1080 0006 01       		.byte	1
 1081 0007 01       		.byte	1
 1082              		.type	JoinEui, %object
 1083              		.size	JoinEui, 8
 1084              	JoinEui:
 1085 0008 01       		.byte	1
 1086 0009 01       		.byte	1
 1087 000a 01       		.byte	1
 1088 000b 01       		.byte	1
 1089 000c 01       		.byte	1
 1090 000d 01       		.byte	1
 1091 000e 01       		.byte	1
 1092 000f 01       		.byte	1
 1093              		.type	AppKey, %object
 1094              		.size	AppKey, 16
 1095              	AppKey:
 1096 0010 2B       		.byte	43
 1097 0011 7E       		.byte	126
 1098 0012 15       		.byte	21
 1099 0013 16       		.byte	22
 1100 0014 28       		.byte	40
 1101 0015 AE       		.byte	-82
 1102 0016 D2       		.byte	-46
 1103 0017 A6       		.byte	-90
 1104 0018 AB       		.byte	-85
 1105 0019 F7       		.byte	-9
 1106 001a 15       		.byte	21
 1107 001b 88       		.byte	-120
 1108 001c 09       		.byte	9
 1109 001d CF       		.byte	-49
 1110 001e 4F       		.byte	79
 1111 001f 3C       		.byte	60
 1112              		.type	NwkKey, %object
 1113              		.size	NwkKey, 16
 1114              	NwkKey:
 1115 0020 2B       		.byte	43
 1116 0021 7E       		.byte	126
 1117 0022 15       		.byte	21
 1118 0023 16       		.byte	22
 1119 0024 28       		.byte	40
 1120 0025 AE       		.byte	-82
 1121 0026 D2       		.byte	-46
 1122 0027 A6       		.byte	-90
 1123 0028 AB       		.byte	-85
 1124 0029 F7       		.byte	-9
 1125 002a 15       		.byte	21
 1126 002b 88       		.byte	-120
 1127 002c 09       		.byte	9
 1128 002d CF       		.byte	-49
ARM GAS  C:\Users\EBANO_~1\AppData\Local\Temp\ccD2gIpL.s 			page 39


 1129 002e 4F       		.byte	79
 1130 002f 3C       		.byte	60
 1131              		.type	MlmeReqStrings, %object
 1132              		.size	MlmeReqStrings, 60
 1133              	MlmeReqStrings:
 1134 0030 14010000 		.word	.LC37
 1135 0034 20010000 		.word	.LC38
 1136 0038 30010000 		.word	.LC39
 1137 003c 40010000 		.word	.LC40
 1138 0040 50010000 		.word	.LC41
 1139 0044 5C010000 		.word	.LC42
 1140 0048 68010000 		.word	.LC43
 1141 004c 80010000 		.word	.LC44
 1142 0050 98010000 		.word	.LC45
 1143 0054 B0010000 		.word	.LC46
 1144 0058 C8010000 		.word	.LC47
 1145 005c DC010000 		.word	.LC48
 1146 0060 E8010000 		.word	.LC49
 1147 0064 00020000 		.word	.LC50
 1148 0068 14020000 		.word	.LC51
 1149              		.type	MacStatusStrings, %object
 1150              		.size	MacStatusStrings, 88
 1151              	MacStatusStrings:
 1152 006c 38020000 		.word	.LC52
 1153 0070 3C020000 		.word	.LC53
 1154 0074 44020000 		.word	.LC54
 1155 0078 54020000 		.word	.LC55
 1156 007c 68020000 		.word	.LC56
 1157 0080 7C020000 		.word	.LC57
 1158 0084 90020000 		.word	.LC58
 1159 0088 B0020000 		.word	.LC59
 1160 008c C4020000 		.word	.LC60
 1161 0090 D4020000 		.word	.LC61
 1162 0094 E0020000 		.word	.LC62
 1163 0098 F8020000 		.word	.LC63
 1164 009c 0C030000 		.word	.LC64
 1165 00a0 20030000 		.word	.LC65
 1166 00a4 34030000 		.word	.LC66
 1167 00a8 4C030000 		.word	.LC67
 1168 00ac 68030000 		.word	.LC68
 1169 00b0 84030000 		.word	.LC69
 1170 00b4 9C030000 		.word	.LC70
 1171 00b8 AC030000 		.word	.LC71
 1172 00bc C0030000 		.word	.LC72
 1173 00c0 D4030000 		.word	.LC73
 1174              		.type	EventInfoStatusStrings, %object
 1175              		.size	EventInfoStatusStrings, 68
 1176              	EventInfoStatusStrings:
 1177 00c4 38020000 		.word	.LC52
 1178 00c8 DC030000 		.word	.LC74
 1179 00cc E4030000 		.word	.LC75
 1180 00d0 F0030000 		.word	.LC76
 1181 00d4 00040000 		.word	.LC77
 1182 00d8 10040000 		.word	.LC78
 1183 00dc 1C040000 		.word	.LC79
 1184 00e0 28040000 		.word	.LC80
 1185 00e4 34040000 		.word	.LC81
ARM GAS  C:\Users\EBANO_~1\AppData\Local\Temp\ccD2gIpL.s 			page 40


 1186 00e8 48040000 		.word	.LC82
 1187 00ec 64040000 		.word	.LC83
 1188 00f0 84040000 		.word	.LC84
 1189 00f4 94040000 		.word	.LC85
 1190 00f8 A0040000 		.word	.LC86
 1191 00fc B0040000 		.word	.LC87
 1192 0100 C0040000 		.word	.LC88
 1193 0104 CC040000 		.word	.LC89
 1194              		.bss
 1195              		.align	2
 1196              		.set	.LANCHOR0,. + 0
 1197              		.type	LoRaMainCallbacks, %object
 1198              		.size	LoRaMainCallbacks, 4
 1199              	LoRaMainCallbacks:
 1200 0000 00000000 		.space	4
 1201              		.type	JoinParameters, %object
 1202              		.size	JoinParameters, 12
 1203              	JoinParameters:
 1204 0004 00000000 		.space	12
 1204      00000000 
 1204      00000000 
 1205              		.type	LoRaParamInit, %object
 1206              		.size	LoRaParamInit, 4
 1207              	LoRaParamInit:
 1208 0010 00000000 		.space	4
 1209              		.type	LoRaMacPrimitives, %object
 1210              		.size	LoRaMacPrimitives, 16
 1211              	LoRaMacPrimitives:
 1212 0014 00000000 		.space	16
 1212      00000000 
 1212      00000000 
 1212      00000000 
 1213              		.type	LoRaMacCallbacks, %object
 1214              		.size	LoRaMacCallbacks, 16
 1215              	LoRaMacCallbacks:
 1216 0024 00000000 		.space	16
 1216      00000000 
 1216      00000000 
 1216      00000000 
 1217              		.type	mibReq, %object
 1218              		.size	mibReq, 24
 1219              	mibReq:
 1220 0034 00000000 		.space	24
 1220      00000000 
 1220      00000000 
 1220      00000000 
 1220      00000000 
 1221              		.section	.rodata.str1.4,"aMS",%progbits,1
 1222              		.align	2
 1223              	.LC13:
 1224 0000 4F544141 		.ascii	"OTAA\012\015\000"
 1224      0A0D00
 1225 0007 00       		.space	1
 1226              	.LC15:
 1227 0008 44657645 		.ascii	"DevEui= %02X-%02X-%02X-%02X-%02X-%02X-%02X-%02X\012"
 1227      75693D20 
 1227      25303258 
ARM GAS  C:\Users\EBANO_~1\AppData\Local\Temp\ccD2gIpL.s 			page 41


 1227      2D253032 
 1227      582D2530 
 1228 0038 0D00     		.ascii	"\015\000"
 1229 003a 0000     		.space	2
 1230              	.LC17:
 1231 003c 41707045 		.ascii	"AppEui= %02X-%02X-%02X-%02X-%02X-%02X-%02X-%02X\012"
 1231      75693D20 
 1231      25303258 
 1231      2D253032 
 1231      582D2530 
 1232 006c 0D00     		.ascii	"\015\000"
 1233 006e 0000     		.space	2
 1234              	.LC19:
 1235 0070 4170704B 		.ascii	"AppKey= %02X %02X %02X %02X %02X %02X %02X %02X %02"
 1235      65793D20 
 1235      25303258 
 1235      20253032 
 1235      58202530 
 1236 00a3 58202530 		.ascii	"X %02X %02X %02X %02X %02X %02X %02X\012\015\000"
 1236      32582025 
 1236      30325820 
 1236      25303258 
 1236      20253032 
 1237 00ca 0000     		.space	2
 1238              	.LC35:
 1239 00cc 7761726E 		.ascii	"warning: LORAMAC_CLASSB_ENABLED has not been define"
 1239      696E673A 
 1239      204C4F52 
 1239      414D4143 
 1239      5F434C41 
 1240 00ff 64206174 		.ascii	"d at compilation\012\015\000"
 1240      20636F6D 
 1240      70696C61 
 1240      74696F6E 
 1240      0A0D00
 1241 0112 0000     		.space	2
 1242              	.LC37:
 1243 0114 4D4C4D45 		.ascii	"MLME_JOIN\000"
 1243      5F4A4F49 
 1243      4E00
 1244 011e 0000     		.space	2
 1245              	.LC38:
 1246 0120 4D4C4D45 		.ascii	"MLME_REJOIN_0\000"
 1246      5F52454A 
 1246      4F494E5F 
 1246      3000
 1247 012e 0000     		.space	2
 1248              	.LC39:
 1249 0130 4D4C4D45 		.ascii	"MLME_REJOIN_1\000"
 1249      5F52454A 
 1249      4F494E5F 
 1249      3100
 1250 013e 0000     		.space	2
 1251              	.LC40:
 1252 0140 4D4C4D45 		.ascii	"MLME_LINK_CHECK\000"
 1252      5F4C494E 
 1252      4B5F4348 
ARM GAS  C:\Users\EBANO_~1\AppData\Local\Temp\ccD2gIpL.s 			page 42


 1252      45434B00 
 1253              	.LC41:
 1254 0150 4D4C4D45 		.ascii	"MLME_TXCW\000"
 1254      5F545843 
 1254      5700
 1255 015a 0000     		.space	2
 1256              	.LC42:
 1257 015c 4D4C4D45 		.ascii	"MLME_TXCW_1\000"
 1257      5F545843 
 1257      575F3100 
 1258              	.LC43:
 1259 0168 4D4C4D45 		.ascii	"MLME_SCHEDULE_UPLINK\000"
 1259      5F534348 
 1259      4544554C 
 1259      455F5550 
 1259      4C494E4B 
 1260 017d 000000   		.space	3
 1261              	.LC44:
 1262 0180 4D4C4D45 		.ascii	"MLME_NVM_CTXS_UPDATE\000"
 1262      5F4E564D 
 1262      5F435458 
 1262      535F5550 
 1262      44415445 
 1263 0195 000000   		.space	3
 1264              	.LC45:
 1265 0198 4D4C4D45 		.ascii	"MLME_DERIVE_MC_KE_KEY\000"
 1265      5F444552 
 1265      4956455F 
 1265      4D435F4B 
 1265      455F4B45 
 1266 01ae 0000     		.space	2
 1267              	.LC46:
 1268 01b0 4D4C4D45 		.ascii	"MLME_DERIVE_MC_KEY_PAIR\000"
 1268      5F444552 
 1268      4956455F 
 1268      4D435F4B 
 1268      45595F50 
 1269              	.LC47:
 1270 01c8 4D4C4D45 		.ascii	"MLME_DEVICE_TIME\000"
 1270      5F444556 
 1270      4943455F 
 1270      54494D45 
 1270      00
 1271 01d9 000000   		.space	3
 1272              	.LC48:
 1273 01dc 4D4C4D45 		.ascii	"MLME_BEACON\000"
 1273      5F424541 
 1273      434F4E00 
 1274              	.LC49:
 1275 01e8 4D4C4D45 		.ascii	"MLME_BEACON_ACQUISITION\000"
 1275      5F424541 
 1275      434F4E5F 
 1275      41435155 
 1275      49534954 
 1276              	.LC50:
 1277 0200 4D4C4D45 		.ascii	"MLME_PING_SLOT_INFO\000"
 1277      5F50494E 
ARM GAS  C:\Users\EBANO_~1\AppData\Local\Temp\ccD2gIpL.s 			page 43


 1277      475F534C 
 1277      4F545F49 
 1277      4E464F00 
 1278              	.LC51:
 1279 0214 4D4C4D45 		.ascii	"MLME_BEACON_TIMING,MLME_BEACON_LOST\000"
 1279      5F424541 
 1279      434F4E5F 
 1279      54494D49 
 1279      4E472C4D 
 1280              	.LC52:
 1281 0238 4F4B00   		.ascii	"OK\000"
 1282 023b 00       		.space	1
 1283              	.LC53:
 1284 023c 42757379 		.ascii	"Busy\000"
 1284      00
 1285 0241 000000   		.space	3
 1286              	.LC54:
 1287 0244 53657276 		.ascii	"Service unknown\000"
 1287      69636520 
 1287      756E6B6E 
 1287      6F776E00 
 1288              	.LC55:
 1289 0254 50617261 		.ascii	"Parameter invalid\000"
 1289      6D657465 
 1289      7220696E 
 1289      76616C69 
 1289      6400
 1290 0266 0000     		.space	2
 1291              	.LC56:
 1292 0268 46726571 		.ascii	"Frequency invalid\000"
 1292      75656E63 
 1292      7920696E 
 1292      76616C69 
 1292      6400
 1293 027a 0000     		.space	2
 1294              	.LC57:
 1295 027c 44617461 		.ascii	"Datarate invalid\000"
 1295      72617465 
 1295      20696E76 
 1295      616C6964 
 1295      00
 1296 028d 000000   		.space	3
 1297              	.LC58:
 1298 0290 46726575 		.ascii	"Freuqency or datarate invalid\000"
 1298      71656E63 
 1298      79206F72 
 1298      20646174 
 1298      61726174 
 1299 02ae 0000     		.space	2
 1300              	.LC59:
 1301 02b0 4E6F206E 		.ascii	"No network joined\000"
 1301      6574776F 
 1301      726B206A 
 1301      6F696E65 
 1301      6400
 1302 02c2 0000     		.space	2
 1303              	.LC60:
ARM GAS  C:\Users\EBANO_~1\AppData\Local\Temp\ccD2gIpL.s 			page 44


 1304 02c4 4C656E67 		.ascii	"Length error\000"
 1304      74682065 
 1304      72726F72 
 1304      00
 1305 02d1 000000   		.space	3
 1306              	.LC61:
 1307 02d4 44657669 		.ascii	"Device OFF\000"
 1307      6365204F 
 1307      464600
 1308 02df 00       		.space	1
 1309              	.LC62:
 1310 02e0 52656769 		.ascii	"Region not supported\000"
 1310      6F6E206E 
 1310      6F742073 
 1310      7570706F 
 1310      72746564 
 1311 02f5 000000   		.space	3
 1312              	.LC63:
 1313 02f8 536B6970 		.ascii	"Skipped APP data\000"
 1313      70656420 
 1313      41505020 
 1313      64617461 
 1313      00
 1314 0309 000000   		.space	3
 1315              	.LC64:
 1316 030c 44757479 		.ascii	"DutyC restricted\000"
 1316      43207265 
 1316      73747269 
 1316      63746564 
 1316      00
 1317 031d 000000   		.space	3
 1318              	.LC65:
 1319 0320 4E6F2063 		.ascii	"No channel found\000"
 1319      68616E6E 
 1319      656C2066 
 1319      6F756E64 
 1319      00
 1320 0331 000000   		.space	3
 1321              	.LC66:
 1322 0334 4E6F2066 		.ascii	"No free channel found\000"
 1322      72656520 
 1322      6368616E 
 1322      6E656C20 
 1322      666F756E 
 1323 034a 0000     		.space	2
 1324              	.LC67:
 1325 034c 42757379 		.ascii	"Busy beacon reserved time\000"
 1325      20626561 
 1325      636F6E20 
 1325      72657365 
 1325      72766564 
 1326 0366 0000     		.space	2
 1327              	.LC68:
 1328 0368 42757379 		.ascii	"Busy ping-slot window time\000"
 1328      2070696E 
 1328      672D736C 
 1328      6F742077 
ARM GAS  C:\Users\EBANO_~1\AppData\Local\Temp\ccD2gIpL.s 			page 45


 1328      696E646F 
 1329 0383 00       		.space	1
 1330              	.LC69:
 1331 0384 42757379 		.ascii	"Busy uplink collision\000"
 1331      2075706C 
 1331      696E6B20 
 1331      636F6C6C 
 1331      6973696F 
 1332 039a 0000     		.space	2
 1333              	.LC70:
 1334 039c 43727970 		.ascii	"Crypto error\000"
 1334      746F2065 
 1334      72726F72 
 1334      00
 1335 03a9 000000   		.space	3
 1336              	.LC71:
 1337 03ac 46436E74 		.ascii	"FCnt handler error\000"
 1337      2068616E 
 1337      646C6572 
 1337      20657272 
 1337      6F7200
 1338 03bf 00       		.space	1
 1339              	.LC72:
 1340 03c0 4D414320 		.ascii	"MAC command error\000"
 1340      636F6D6D 
 1340      616E6420 
 1340      6572726F 
 1340      7200
 1341 03d2 0000     		.space	2
 1342              	.LC73:
 1343 03d4 4552524F 		.ascii	"ERROR\000"
 1343      5200
 1344 03da 0000     		.space	2
 1345              	.LC74:
 1346 03dc 4572726F 		.ascii	"Error\000"
 1346      7200
 1347 03e2 0000     		.space	2
 1348              	.LC75:
 1349 03e4 54782074 		.ascii	"Tx timeout\000"
 1349      696D656F 
 1349      757400
 1350 03ef 00       		.space	1
 1351              	.LC76:
 1352 03f0 52782031 		.ascii	"Rx 1 timeout\000"
 1352      2074696D 
 1352      656F7574 
 1352      00
 1353 03fd 000000   		.space	3
 1354              	.LC77:
 1355 0400 52782032 		.ascii	"Rx 2 timeout\000"
 1355      2074696D 
 1355      656F7574 
 1355      00
 1356 040d 000000   		.space	3
 1357              	.LC78:
 1358 0410 52783120 		.ascii	"Rx1 error\000"
 1358      6572726F 
ARM GAS  C:\Users\EBANO_~1\AppData\Local\Temp\ccD2gIpL.s 			page 46


 1358      7200
 1359 041a 0000     		.space	2
 1360              	.LC79:
 1361 041c 52783220 		.ascii	"Rx2 error\000"
 1361      6572726F 
 1361      7200
 1362 0426 0000     		.space	2
 1363              	.LC80:
 1364 0428 4A6F696E 		.ascii	"Join failed\000"
 1364      20666169 
 1364      6C656400 
 1365              	.LC81:
 1366 0434 446F776E 		.ascii	"Downlink repeated\000"
 1366      6C696E6B 
 1366      20726570 
 1366      65617465 
 1366      6400
 1367 0446 0000     		.space	2
 1368              	.LC82:
 1369 0448 54782044 		.ascii	"Tx DR payload size error\000"
 1369      52207061 
 1369      796C6F61 
 1369      64207369 
 1369      7A652065 
 1370 0461 000000   		.space	3
 1371              	.LC83:
 1372 0464 446F776E 		.ascii	"Downlink too many frames loss\000"
 1372      6C696E6B 
 1372      20746F6F 
 1372      206D616E 
 1372      79206672 
 1373 0482 0000     		.space	2
 1374              	.LC84:
 1375 0484 41646472 		.ascii	"Address fail\000"
 1375      65737320 
 1375      6661696C 
 1375      00
 1376 0491 000000   		.space	3
 1377              	.LC85:
 1378 0494 4D494320 		.ascii	"MIC fail\000"
 1378      6661696C 
 1378      00
 1379 049d 000000   		.space	3
 1380              	.LC86:
 1381 04a0 4D756C74 		.ascii	"Multicast faile\000"
 1381      69636173 
 1381      74206661 
 1381      696C6500 
 1382              	.LC87:
 1383 04b0 42656163 		.ascii	"Beacon locked\000"
 1383      6F6E206C 
 1383      6F636B65 
 1383      6400
 1384 04be 0000     		.space	2
 1385              	.LC88:
 1386 04c0 42656163 		.ascii	"Beacon lost\000"
 1386      6F6E206C 
ARM GAS  C:\Users\EBANO_~1\AppData\Local\Temp\ccD2gIpL.s 			page 47


 1386      6F737400 
 1387              	.LC89:
 1388 04cc 42656163 		.ascii	"Beacon not found\000"
 1388      6F6E206E 
 1388      6F742066 
 1388      6F756E64 
 1388      00
 1389              		.text
 1390              	.Letext0:
 1391              		.file 2 "c:\\program files (x86)\\gnu tools arm embedded\\7 2018-q2-update\\lib\\gcc\\arm-none-eab
 1392              		.file 3 "c:\\program files (x86)\\gnu tools arm embedded\\7 2018-q2-update\\arm-none-eabi\\include
 1393              		.file 4 "c:\\program files (x86)\\gnu tools arm embedded\\7 2018-q2-update\\arm-none-eabi\\include
 1394              		.file 5 "c:\\program files (x86)\\gnu tools arm embedded\\7 2018-q2-update\\arm-none-eabi\\include
 1395              		.file 6 "c:\\program files (x86)\\gnu tools arm embedded\\7 2018-q2-update\\arm-none-eabi\\include
 1396              		.file 7 "c:\\program files (x86)\\gnu tools arm embedded\\7 2018-q2-update\\arm-none-eabi\\include
 1397              		.file 8 "c:\\program files (x86)\\gnu tools arm embedded\\7 2018-q2-update\\arm-none-eabi\\include
 1398              		.file 9 "../../../../../../Drivers/CMSIS/Device/ST/STM32L0xx/Include/system_stm32l0xx.h"
 1399              		.file 10 "c:\\program files (x86)\\gnu tools arm embedded\\7 2018-q2-update\\arm-none-eabi\\includ
 1400              		.file 11 "../../../../../../Middlewares/Third_Party/LoRaWAN/Utilities/utilities.h"
 1401              		.file 12 "c:\\program files (x86)\\gnu tools arm embedded\\7 2018-q2-update\\arm-none-eabi\\includ
 1402              		.file 13 "../../../../../../Middlewares/Third_Party/LoRaWAN/Utilities/systime.h"
 1403              		.file 14 "../../../../../../Middlewares/Third_Party/LoRaWAN/Phy/radio.h"
 1404              		.file 15 "../../../../../../Middlewares/Third_Party/LoRaWAN/Mac/LoRaMacTypes.h"
 1405              		.file 16 "../../../../../../Middlewares/Third_Party/LoRaWAN/Mac/LoRaMac.h"
 1406              		.file 17 "../../../../../../Middlewares/Third_Party/LoRaWAN/Core/lora.h"
 1407              		.file 18 "../../../../../../Middlewares/Third_Party/LoRaWAN/Utilities/trace.h"
 1408              		.file 19 "../../../../../../Middlewares/Third_Party/LoRaWAN/Core/lora-test.h"
 1409              		.file 20 "../../../../../../Middlewares/Third_Party/LoRaWAN/Mac/LoRaMacTest.h"