ARM GAS  C:\Users\EBANO_~1\AppData\Local\Temp\cc3CSO1m.s 			page 1


   1              		.cpu cortex-m0plus
   2              		.eabi_attribute 20, 1
   3              		.eabi_attribute 21, 1
   4              		.eabi_attribute 23, 3
   5              		.eabi_attribute 24, 1
   6              		.eabi_attribute 25, 1
   7              		.eabi_attribute 26, 1
   8              		.eabi_attribute 30, 2
   9              		.eabi_attribute 34, 0
  10              		.eabi_attribute 18, 4
  11              		.file	"LoRaMacSerializer.c"
  12              		.text
  13              	.Ltext0:
  14              		.cfi_sections	.debug_frame
  15              		.section	.text.LoRaMacSerializerJoinRequest,"ax",%progbits
  16              		.align	1
  17              		.p2align 2,,3
  18              		.global	LoRaMacSerializerJoinRequest
  19              		.syntax unified
  20              		.code	16
  21              		.thumb_func
  22              		.fpu softvfp
  23              		.type	LoRaMacSerializerJoinRequest, %function
  24              	LoRaMacSerializerJoinRequest:
  25              	.LFB39:
  26              		.file 1 "../../../../../../Middlewares/Third_Party/LoRaWAN/Mac/LoRaMacSerializer.c"
   1:../../../../../../Middlewares/Third_Party/LoRaWAN/Mac/LoRaMacSerializer.c **** /*
   2:../../../../../../Middlewares/Third_Party/LoRaWAN/Mac/LoRaMacSerializer.c ****  / _____)             _              | |
   3:../../../../../../Middlewares/Third_Party/LoRaWAN/Mac/LoRaMacSerializer.c **** ( (____  _____ ____ _| |_ _____  ____| |__
   4:../../../../../../Middlewares/Third_Party/LoRaWAN/Mac/LoRaMacSerializer.c ****  \____ \| ___ |    (_   _) ___ |/ ___)  _ \
   5:../../../../../../Middlewares/Third_Party/LoRaWAN/Mac/LoRaMacSerializer.c ****  _____) ) ____| | | || |_| ____( (___| | | |
   6:../../../../../../Middlewares/Third_Party/LoRaWAN/Mac/LoRaMacSerializer.c **** (______/|_____)_|_|_| \__)_____)\____)_| |_|
   7:../../../../../../Middlewares/Third_Party/LoRaWAN/Mac/LoRaMacSerializer.c ****     (C)2013 Semtech
   8:../../../../../../Middlewares/Third_Party/LoRaWAN/Mac/LoRaMacSerializer.c ****  ___ _____ _   ___ _  _____ ___  ___  ___ ___
   9:../../../../../../Middlewares/Third_Party/LoRaWAN/Mac/LoRaMacSerializer.c **** / __|_   _/_\ / __| |/ / __/ _ \| _ \/ __| __|
  10:../../../../../../Middlewares/Third_Party/LoRaWAN/Mac/LoRaMacSerializer.c **** \__ \ | |/ _ \ (__| ' <| _| (_) |   / (__| _|
  11:../../../../../../Middlewares/Third_Party/LoRaWAN/Mac/LoRaMacSerializer.c **** |___/ |_/_/ \_\___|_|\_\_| \___/|_|_\\___|___|
  12:../../../../../../Middlewares/Third_Party/LoRaWAN/Mac/LoRaMacSerializer.c **** embedded.connectivity.solutions===============
  13:../../../../../../Middlewares/Third_Party/LoRaWAN/Mac/LoRaMacSerializer.c **** 
  14:../../../../../../Middlewares/Third_Party/LoRaWAN/Mac/LoRaMacSerializer.c **** Description: LoRa MAC layer message serializer functionality implementation
  15:../../../../../../Middlewares/Third_Party/LoRaWAN/Mac/LoRaMacSerializer.c **** 
  16:../../../../../../Middlewares/Third_Party/LoRaWAN/Mac/LoRaMacSerializer.c **** License: Revised BSD License, see LICENSE.TXT file include in the project
  17:../../../../../../Middlewares/Third_Party/LoRaWAN/Mac/LoRaMacSerializer.c **** 
  18:../../../../../../Middlewares/Third_Party/LoRaWAN/Mac/LoRaMacSerializer.c **** Maintainer: Miguel Luis ( Semtech ), Gregory Cristian ( Semtech ),
  19:../../../../../../Middlewares/Third_Party/LoRaWAN/Mac/LoRaMacSerializer.c ****             Daniel Jaeckle ( STACKFORCE ),  Johannes Bruder ( STACKFORCE )
  20:../../../../../../Middlewares/Third_Party/LoRaWAN/Mac/LoRaMacSerializer.c **** */
  21:../../../../../../Middlewares/Third_Party/LoRaWAN/Mac/LoRaMacSerializer.c **** #include "LoRaMacSerializer.h"
  22:../../../../../../Middlewares/Third_Party/LoRaWAN/Mac/LoRaMacSerializer.c **** #include "utilities.h"
  23:../../../../../../Middlewares/Third_Party/LoRaWAN/Mac/LoRaMacSerializer.c **** 
  24:../../../../../../Middlewares/Third_Party/LoRaWAN/Mac/LoRaMacSerializer.c **** LoRaMacSerializerStatus_t LoRaMacSerializerJoinRequest( LoRaMacMessageJoinRequest_t* macMsg )
  25:../../../../../../Middlewares/Third_Party/LoRaWAN/Mac/LoRaMacSerializer.c **** {
  27              		.loc 1 25 0
  28              		.cfi_startproc
  29              		@ args = 0, pretend = 0, frame = 0
  30              		@ frame_needed = 0, uses_anonymous_args = 0
  31              	.LVL0:
  32 0000 10B5     		push	{r4, lr}
ARM GAS  C:\Users\EBANO_~1\AppData\Local\Temp\cc3CSO1m.s 			page 2


  33              	.LCFI0:
  34              		.cfi_def_cfa_offset 8
  35              		.cfi_offset 4, -8
  36              		.cfi_offset 14, -4
  37              		.loc 1 25 0
  38 0002 041E     		subs	r4, r0, #0
  26:../../../../../../Middlewares/Third_Party/LoRaWAN/Mac/LoRaMacSerializer.c ****     if( ( macMsg == 0 ) || ( macMsg->Buffer == 0 ) )
  39              		.loc 1 26 0
  40 0004 2DD0     		beq	.L4
  41              		.loc 1 26 0 is_stmt 0 discriminator 1
  42 0006 0368     		ldr	r3, [r0]
  43 0008 002B     		cmp	r3, #0
  44 000a 2AD0     		beq	.L4
  45              	.LVL1:
  27:../../../../../../Middlewares/Third_Party/LoRaWAN/Mac/LoRaMacSerializer.c ****     {
  28:../../../../../../Middlewares/Third_Party/LoRaWAN/Mac/LoRaMacSerializer.c ****         return LORAMAC_SERIALIZER_ERROR_NPE;
  29:../../../../../../Middlewares/Third_Party/LoRaWAN/Mac/LoRaMacSerializer.c ****     }
  30:../../../../../../Middlewares/Third_Party/LoRaWAN/Mac/LoRaMacSerializer.c **** 
  31:../../../../../../Middlewares/Third_Party/LoRaWAN/Mac/LoRaMacSerializer.c ****     uint16_t bufItr = 0;
  32:../../../../../../Middlewares/Third_Party/LoRaWAN/Mac/LoRaMacSerializer.c **** 
  33:../../../../../../Middlewares/Third_Party/LoRaWAN/Mac/LoRaMacSerializer.c ****     // Check macMsg->BufSize
  34:../../../../../../Middlewares/Third_Party/LoRaWAN/Mac/LoRaMacSerializer.c ****     if( macMsg->BufSize < LORAMAC_JOIN_REQ_MSG_SIZE )
  46              		.loc 1 34 0 is_stmt 1
  47 000c 0279     		ldrb	r2, [r0, #4]
  35:../../../../../../Middlewares/Third_Party/LoRaWAN/Mac/LoRaMacSerializer.c ****     {
  36:../../../../../../Middlewares/Third_Party/LoRaWAN/Mac/LoRaMacSerializer.c ****         return LORAMAC_SERIALIZER_ERROR_BUF_SIZE;
  48              		.loc 1 36 0
  49 000e 0220     		movs	r0, #2
  50              	.LVL2:
  34:../../../../../../Middlewares/Third_Party/LoRaWAN/Mac/LoRaMacSerializer.c ****     {
  51              		.loc 1 34 0
  52 0010 162A     		cmp	r2, #22
  53 0012 25D9     		bls	.L2
  54              	.LVL3:
  37:../../../../../../Middlewares/Third_Party/LoRaWAN/Mac/LoRaMacSerializer.c ****     }
  38:../../../../../../Middlewares/Third_Party/LoRaWAN/Mac/LoRaMacSerializer.c **** 
  39:../../../../../../Middlewares/Third_Party/LoRaWAN/Mac/LoRaMacSerializer.c ****     macMsg->Buffer[bufItr++] = macMsg->MHDR.Value;
  55              		.loc 1 39 0
  56 0014 6279     		ldrb	r2, [r4, #5]
  40:../../../../../../Middlewares/Third_Party/LoRaWAN/Mac/LoRaMacSerializer.c **** 
  41:../../../../../../Middlewares/Third_Party/LoRaWAN/Mac/LoRaMacSerializer.c ****     memcpyr( &macMsg->Buffer[bufItr], macMsg->JoinEUI, LORAMAC_JOIN_EUI_FIELD_SIZE );
  57              		.loc 1 41 0
  58 0016 A11D     		adds	r1, r4, #6
  39:../../../../../../Middlewares/Third_Party/LoRaWAN/Mac/LoRaMacSerializer.c **** 
  59              		.loc 1 39 0
  60 0018 1A70     		strb	r2, [r3]
  61              		.loc 1 41 0
  62 001a 2368     		ldr	r3, [r4]
  63 001c 0822     		movs	r2, #8
  64 001e 581C     		adds	r0, r3, #1
  65 0020 FFF7FEFF 		bl	memcpyr
  66              	.LVL4:
  42:../../../../../../Middlewares/Third_Party/LoRaWAN/Mac/LoRaMacSerializer.c ****     bufItr += LORAMAC_JOIN_EUI_FIELD_SIZE;
  43:../../../../../../Middlewares/Third_Party/LoRaWAN/Mac/LoRaMacSerializer.c **** 
  44:../../../../../../Middlewares/Third_Party/LoRaWAN/Mac/LoRaMacSerializer.c ****     memcpyr( &macMsg->Buffer[bufItr], macMsg->DevEUI, LORAMAC_DEV_EUI_FIELD_SIZE );
  67              		.loc 1 44 0
  68 0024 2100     		movs	r1, r4
ARM GAS  C:\Users\EBANO_~1\AppData\Local\Temp\cc3CSO1m.s 			page 3


  69 0026 2068     		ldr	r0, [r4]
  70 0028 0822     		movs	r2, #8
  71 002a 0930     		adds	r0, r0, #9
  72 002c 0E31     		adds	r1, r1, #14
  73 002e FFF7FEFF 		bl	memcpyr
  74              	.LVL5:
  45:../../../../../../Middlewares/Third_Party/LoRaWAN/Mac/LoRaMacSerializer.c ****     bufItr += LORAMAC_DEV_EUI_FIELD_SIZE;
  46:../../../../../../Middlewares/Third_Party/LoRaWAN/Mac/LoRaMacSerializer.c **** 
  47:../../../../../../Middlewares/Third_Party/LoRaWAN/Mac/LoRaMacSerializer.c ****     macMsg->Buffer[bufItr++] = macMsg->DevNonce & 0xFF;
  75              		.loc 1 47 0
  76 0032 E38A     		ldrh	r3, [r4, #22]
  77 0034 2268     		ldr	r2, [r4]
  48:../../../../../../Middlewares/Third_Party/LoRaWAN/Mac/LoRaMacSerializer.c ****     macMsg->Buffer[bufItr++] = ( macMsg->DevNonce >> 8 ) & 0xFF;
  49:../../../../../../Middlewares/Third_Party/LoRaWAN/Mac/LoRaMacSerializer.c **** 
  50:../../../../../../Middlewares/Third_Party/LoRaWAN/Mac/LoRaMacSerializer.c ****     macMsg->Buffer[bufItr++] = macMsg->MIC & 0xFF;
  51:../../../../../../Middlewares/Third_Party/LoRaWAN/Mac/LoRaMacSerializer.c ****     macMsg->Buffer[bufItr++] = ( macMsg->MIC >> 8 ) & 0xFF;
  52:../../../../../../Middlewares/Third_Party/LoRaWAN/Mac/LoRaMacSerializer.c ****     macMsg->Buffer[bufItr++] = ( macMsg->MIC >> 16 ) & 0xFF;
  53:../../../../../../Middlewares/Third_Party/LoRaWAN/Mac/LoRaMacSerializer.c ****     macMsg->Buffer[bufItr++] = ( macMsg->MIC >> 24 ) & 0xFF;
  54:../../../../../../Middlewares/Third_Party/LoRaWAN/Mac/LoRaMacSerializer.c **** 
  55:../../../../../../Middlewares/Third_Party/LoRaWAN/Mac/LoRaMacSerializer.c ****     macMsg->BufSize = bufItr;
  56:../../../../../../Middlewares/Third_Party/LoRaWAN/Mac/LoRaMacSerializer.c **** 
  57:../../../../../../Middlewares/Third_Party/LoRaWAN/Mac/LoRaMacSerializer.c ****     return LORAMAC_SERIALIZER_SUCCESS;
  78              		.loc 1 57 0
  79 0036 0020     		movs	r0, #0
  47:../../../../../../Middlewares/Third_Party/LoRaWAN/Mac/LoRaMacSerializer.c ****     macMsg->Buffer[bufItr++] = ( macMsg->DevNonce >> 8 ) & 0xFF;
  80              		.loc 1 47 0
  81 0038 5374     		strb	r3, [r2, #17]
  48:../../../../../../Middlewares/Third_Party/LoRaWAN/Mac/LoRaMacSerializer.c ****     macMsg->Buffer[bufItr++] = ( macMsg->DevNonce >> 8 ) & 0xFF;
  82              		.loc 1 48 0
  83 003a E38A     		ldrh	r3, [r4, #22]
  84 003c 2268     		ldr	r2, [r4]
  85 003e 1B0A     		lsrs	r3, r3, #8
  86 0040 9374     		strb	r3, [r2, #18]
  50:../../../../../../Middlewares/Third_Party/LoRaWAN/Mac/LoRaMacSerializer.c ****     macMsg->Buffer[bufItr++] = ( macMsg->MIC >> 8 ) & 0xFF;
  87              		.loc 1 50 0
  88 0042 A369     		ldr	r3, [r4, #24]
  89 0044 2268     		ldr	r2, [r4]
  90 0046 D374     		strb	r3, [r2, #19]
  51:../../../../../../Middlewares/Third_Party/LoRaWAN/Mac/LoRaMacSerializer.c ****     macMsg->Buffer[bufItr++] = ( macMsg->MIC >> 16 ) & 0xFF;
  91              		.loc 1 51 0
  92 0048 A369     		ldr	r3, [r4, #24]
  93 004a 2268     		ldr	r2, [r4]
  94 004c 1B0A     		lsrs	r3, r3, #8
  95 004e 1375     		strb	r3, [r2, #20]
  52:../../../../../../Middlewares/Third_Party/LoRaWAN/Mac/LoRaMacSerializer.c ****     macMsg->Buffer[bufItr++] = ( macMsg->MIC >> 24 ) & 0xFF;
  96              		.loc 1 52 0
  97 0050 638B     		ldrh	r3, [r4, #26]
  98 0052 2268     		ldr	r2, [r4]
  99 0054 5375     		strb	r3, [r2, #21]
  53:../../../../../../Middlewares/Third_Party/LoRaWAN/Mac/LoRaMacSerializer.c **** 
 100              		.loc 1 53 0
 101 0056 E37E     		ldrb	r3, [r4, #27]
 102 0058 2268     		ldr	r2, [r4]
 103 005a 9375     		strb	r3, [r2, #22]
  55:../../../../../../Middlewares/Third_Party/LoRaWAN/Mac/LoRaMacSerializer.c **** 
 104              		.loc 1 55 0
 105 005c 1723     		movs	r3, #23
ARM GAS  C:\Users\EBANO_~1\AppData\Local\Temp\cc3CSO1m.s 			page 4


 106 005e 2371     		strb	r3, [r4, #4]
 107              	.LVL6:
 108              	.L2:
  58:../../../../../../Middlewares/Third_Party/LoRaWAN/Mac/LoRaMacSerializer.c **** }
 109              		.loc 1 58 0
 110              		@ sp needed
 111              	.LVL7:
 112 0060 10BD     		pop	{r4, pc}
 113              	.LVL8:
 114              	.L4:
  28:../../../../../../Middlewares/Third_Party/LoRaWAN/Mac/LoRaMacSerializer.c ****     }
 115              		.loc 1 28 0
 116 0062 0120     		movs	r0, #1
 117              	.LVL9:
 118 0064 FCE7     		b	.L2
 119              		.cfi_endproc
 120              	.LFE39:
 121              		.size	LoRaMacSerializerJoinRequest, .-LoRaMacSerializerJoinRequest
 122 0066 C046     		.section	.text.LoRaMacSerializerReJoinType1,"ax",%progbits
 123              		.align	1
 124              		.p2align 2,,3
 125              		.global	LoRaMacSerializerReJoinType1
 126              		.syntax unified
 127              		.code	16
 128              		.thumb_func
 129              		.fpu softvfp
 130              		.type	LoRaMacSerializerReJoinType1, %function
 131              	LoRaMacSerializerReJoinType1:
 132              	.LFB40:
  59:../../../../../../Middlewares/Third_Party/LoRaWAN/Mac/LoRaMacSerializer.c **** 
  60:../../../../../../Middlewares/Third_Party/LoRaWAN/Mac/LoRaMacSerializer.c **** LoRaMacSerializerStatus_t LoRaMacSerializerReJoinType1( LoRaMacMessageReJoinType1_t* macMsg )
  61:../../../../../../Middlewares/Third_Party/LoRaWAN/Mac/LoRaMacSerializer.c **** {
 133              		.loc 1 61 0
 134              		.cfi_startproc
 135              		@ args = 0, pretend = 0, frame = 0
 136              		@ frame_needed = 0, uses_anonymous_args = 0
 137              	.LVL10:
 138 0000 10B5     		push	{r4, lr}
 139              	.LCFI1:
 140              		.cfi_def_cfa_offset 8
 141              		.cfi_offset 4, -8
 142              		.cfi_offset 14, -4
 143              		.loc 1 61 0
 144 0002 041E     		subs	r4, r0, #0
  62:../../../../../../Middlewares/Third_Party/LoRaWAN/Mac/LoRaMacSerializer.c ****     if( ( macMsg == 0 ) || ( macMsg->Buffer == 0 ) )
 145              		.loc 1 62 0
 146 0004 21D0     		beq	.L10
 147              		.loc 1 62 0 is_stmt 0 discriminator 1
 148 0006 0368     		ldr	r3, [r0]
 149 0008 002B     		cmp	r3, #0
 150 000a 1ED0     		beq	.L10
 151              	.LVL11:
  63:../../../../../../Middlewares/Third_Party/LoRaWAN/Mac/LoRaMacSerializer.c ****     {
  64:../../../../../../Middlewares/Third_Party/LoRaWAN/Mac/LoRaMacSerializer.c ****         return LORAMAC_SERIALIZER_ERROR_NPE;
  65:../../../../../../Middlewares/Third_Party/LoRaWAN/Mac/LoRaMacSerializer.c ****     }
  66:../../../../../../Middlewares/Third_Party/LoRaWAN/Mac/LoRaMacSerializer.c **** 
  67:../../../../../../Middlewares/Third_Party/LoRaWAN/Mac/LoRaMacSerializer.c ****     uint16_t bufItr = 0;
ARM GAS  C:\Users\EBANO_~1\AppData\Local\Temp\cc3CSO1m.s 			page 5


  68:../../../../../../Middlewares/Third_Party/LoRaWAN/Mac/LoRaMacSerializer.c **** 
  69:../../../../../../Middlewares/Third_Party/LoRaWAN/Mac/LoRaMacSerializer.c ****     // Check macMsg->BufSize
  70:../../../../../../Middlewares/Third_Party/LoRaWAN/Mac/LoRaMacSerializer.c ****     if( macMsg->BufSize < LORAMAC_RE_JOIN_1_MSG_SIZE )
 152              		.loc 1 70 0 is_stmt 1
 153 000c 0279     		ldrb	r2, [r0, #4]
  71:../../../../../../Middlewares/Third_Party/LoRaWAN/Mac/LoRaMacSerializer.c ****     {
  72:../../../../../../Middlewares/Third_Party/LoRaWAN/Mac/LoRaMacSerializer.c ****         return LORAMAC_SERIALIZER_ERROR_BUF_SIZE;
 154              		.loc 1 72 0
 155 000e 0220     		movs	r0, #2
 156              	.LVL12:
  70:../../../../../../Middlewares/Third_Party/LoRaWAN/Mac/LoRaMacSerializer.c ****     {
 157              		.loc 1 70 0
 158 0010 172A     		cmp	r2, #23
 159 0012 19D9     		bls	.L8
 160              	.LVL13:
  73:../../../../../../Middlewares/Third_Party/LoRaWAN/Mac/LoRaMacSerializer.c ****     }
  74:../../../../../../Middlewares/Third_Party/LoRaWAN/Mac/LoRaMacSerializer.c **** 
  75:../../../../../../Middlewares/Third_Party/LoRaWAN/Mac/LoRaMacSerializer.c ****     macMsg->Buffer[bufItr++] = macMsg->MHDR.Value;
 161              		.loc 1 75 0
 162 0014 6279     		ldrb	r2, [r4, #5]
  76:../../../../../../Middlewares/Third_Party/LoRaWAN/Mac/LoRaMacSerializer.c **** 
  77:../../../../../../Middlewares/Third_Party/LoRaWAN/Mac/LoRaMacSerializer.c ****     macMsg->Buffer[bufItr++] = macMsg->ReJoinType;
  78:../../../../../../Middlewares/Third_Party/LoRaWAN/Mac/LoRaMacSerializer.c **** 
  79:../../../../../../Middlewares/Third_Party/LoRaWAN/Mac/LoRaMacSerializer.c ****     memcpyr( &macMsg->Buffer[bufItr], macMsg->JoinEUI, LORAMAC_JOIN_EUI_FIELD_SIZE );
 163              		.loc 1 79 0
 164 0016 E11D     		adds	r1, r4, #7
  75:../../../../../../Middlewares/Third_Party/LoRaWAN/Mac/LoRaMacSerializer.c **** 
 165              		.loc 1 75 0
 166 0018 1A70     		strb	r2, [r3]
  77:../../../../../../Middlewares/Third_Party/LoRaWAN/Mac/LoRaMacSerializer.c **** 
 167              		.loc 1 77 0
 168 001a A379     		ldrb	r3, [r4, #6]
 169 001c 2268     		ldr	r2, [r4]
 170 001e 5370     		strb	r3, [r2, #1]
 171              		.loc 1 79 0
 172 0020 2368     		ldr	r3, [r4]
 173 0022 0822     		movs	r2, #8
 174 0024 981C     		adds	r0, r3, #2
 175 0026 FFF7FEFF 		bl	memcpyr
 176              	.LVL14:
  80:../../../../../../Middlewares/Third_Party/LoRaWAN/Mac/LoRaMacSerializer.c ****     bufItr += LORAMAC_JOIN_EUI_FIELD_SIZE;
  81:../../../../../../Middlewares/Third_Party/LoRaWAN/Mac/LoRaMacSerializer.c **** 
  82:../../../../../../Middlewares/Third_Party/LoRaWAN/Mac/LoRaMacSerializer.c ****     memcpyr( &macMsg->Buffer[bufItr], macMsg->DevEUI, LORAMAC_DEV_EUI_FIELD_SIZE );
 177              		.loc 1 82 0
 178 002a 2100     		movs	r1, r4
 179 002c 2068     		ldr	r0, [r4]
 180 002e 0822     		movs	r2, #8
 181 0030 0A30     		adds	r0, r0, #10
 182 0032 0F31     		adds	r1, r1, #15
 183 0034 FFF7FEFF 		bl	memcpyr
 184              	.LVL15:
  83:../../../../../../Middlewares/Third_Party/LoRaWAN/Mac/LoRaMacSerializer.c ****     bufItr += LORAMAC_DEV_EUI_FIELD_SIZE;
  84:../../../../../../Middlewares/Third_Party/LoRaWAN/Mac/LoRaMacSerializer.c **** 
  85:../../../../../../Middlewares/Third_Party/LoRaWAN/Mac/LoRaMacSerializer.c ****     macMsg->Buffer[bufItr++] = macMsg->RJcount1 & 0xFF;
  86:../../../../../../Middlewares/Third_Party/LoRaWAN/Mac/LoRaMacSerializer.c ****     macMsg->Buffer[bufItr++] = ( macMsg->RJcount1 >> 8 ) & 0xFF;
  87:../../../../../../Middlewares/Third_Party/LoRaWAN/Mac/LoRaMacSerializer.c **** 
  88:../../../../../../Middlewares/Third_Party/LoRaWAN/Mac/LoRaMacSerializer.c ****     return LORAMAC_SERIALIZER_SUCCESS;
ARM GAS  C:\Users\EBANO_~1\AppData\Local\Temp\cc3CSO1m.s 			page 6


 185              		.loc 1 88 0
 186 0038 0020     		movs	r0, #0
  85:../../../../../../Middlewares/Third_Party/LoRaWAN/Mac/LoRaMacSerializer.c ****     macMsg->Buffer[bufItr++] = ( macMsg->RJcount1 >> 8 ) & 0xFF;
 187              		.loc 1 85 0
 188 003a 238B     		ldrh	r3, [r4, #24]
 189 003c 2268     		ldr	r2, [r4]
 190 003e 9374     		strb	r3, [r2, #18]
  86:../../../../../../Middlewares/Third_Party/LoRaWAN/Mac/LoRaMacSerializer.c **** 
 191              		.loc 1 86 0
 192 0040 238B     		ldrh	r3, [r4, #24]
 193 0042 2268     		ldr	r2, [r4]
 194              	.LVL16:
 195 0044 1B0A     		lsrs	r3, r3, #8
 196 0046 D374     		strb	r3, [r2, #19]
 197              	.LVL17:
 198              	.L8:
  89:../../../../../../Middlewares/Third_Party/LoRaWAN/Mac/LoRaMacSerializer.c **** }
 199              		.loc 1 89 0
 200              		@ sp needed
 201              	.LVL18:
 202 0048 10BD     		pop	{r4, pc}
 203              	.LVL19:
 204              	.L10:
  64:../../../../../../Middlewares/Third_Party/LoRaWAN/Mac/LoRaMacSerializer.c ****     }
 205              		.loc 1 64 0
 206 004a 0120     		movs	r0, #1
 207              	.LVL20:
 208 004c FCE7     		b	.L8
 209              		.cfi_endproc
 210              	.LFE40:
 211              		.size	LoRaMacSerializerReJoinType1, .-LoRaMacSerializerReJoinType1
 212 004e C046     		.section	.text.LoRaMacSerializerReJoinType0or2,"ax",%progbits
 213              		.align	1
 214              		.p2align 2,,3
 215              		.global	LoRaMacSerializerReJoinType0or2
 216              		.syntax unified
 217              		.code	16
 218              		.thumb_func
 219              		.fpu softvfp
 220              		.type	LoRaMacSerializerReJoinType0or2, %function
 221              	LoRaMacSerializerReJoinType0or2:
 222              	.LFB41:
  90:../../../../../../Middlewares/Third_Party/LoRaWAN/Mac/LoRaMacSerializer.c **** 
  91:../../../../../../Middlewares/Third_Party/LoRaWAN/Mac/LoRaMacSerializer.c **** LoRaMacSerializerStatus_t LoRaMacSerializerReJoinType0or2( LoRaMacMessageReJoinType0or2_t* macMsg )
  92:../../../../../../Middlewares/Third_Party/LoRaWAN/Mac/LoRaMacSerializer.c **** {
 223              		.loc 1 92 0
 224              		.cfi_startproc
 225              		@ args = 0, pretend = 0, frame = 0
 226              		@ frame_needed = 0, uses_anonymous_args = 0
 227              	.LVL21:
 228 0000 10B5     		push	{r4, lr}
 229              	.LCFI2:
 230              		.cfi_def_cfa_offset 8
 231              		.cfi_offset 4, -8
 232              		.cfi_offset 14, -4
 233              		.loc 1 92 0
 234 0002 041E     		subs	r4, r0, #0
ARM GAS  C:\Users\EBANO_~1\AppData\Local\Temp\cc3CSO1m.s 			page 7


  93:../../../../../../Middlewares/Third_Party/LoRaWAN/Mac/LoRaMacSerializer.c ****     if( ( macMsg == 0 ) || ( macMsg->Buffer == 0 ) )
 235              		.loc 1 93 0
 236 0004 21D0     		beq	.L15
 237              		.loc 1 93 0 is_stmt 0 discriminator 1
 238 0006 0368     		ldr	r3, [r0]
 239 0008 002B     		cmp	r3, #0
 240 000a 1ED0     		beq	.L15
 241              	.LVL22:
  94:../../../../../../Middlewares/Third_Party/LoRaWAN/Mac/LoRaMacSerializer.c ****     {
  95:../../../../../../Middlewares/Third_Party/LoRaWAN/Mac/LoRaMacSerializer.c ****         return LORAMAC_SERIALIZER_ERROR_NPE;
  96:../../../../../../Middlewares/Third_Party/LoRaWAN/Mac/LoRaMacSerializer.c ****     }
  97:../../../../../../Middlewares/Third_Party/LoRaWAN/Mac/LoRaMacSerializer.c **** 
  98:../../../../../../Middlewares/Third_Party/LoRaWAN/Mac/LoRaMacSerializer.c ****     uint16_t bufItr = 0;
  99:../../../../../../Middlewares/Third_Party/LoRaWAN/Mac/LoRaMacSerializer.c **** 
 100:../../../../../../Middlewares/Third_Party/LoRaWAN/Mac/LoRaMacSerializer.c ****     // Check macMsg->BufSize
 101:../../../../../../Middlewares/Third_Party/LoRaWAN/Mac/LoRaMacSerializer.c ****     if( macMsg->BufSize < LORAMAC_RE_JOIN_0_2_MSG_SIZE )
 242              		.loc 1 101 0 is_stmt 1
 243 000c 0279     		ldrb	r2, [r0, #4]
 102:../../../../../../Middlewares/Third_Party/LoRaWAN/Mac/LoRaMacSerializer.c ****     {
 103:../../../../../../Middlewares/Third_Party/LoRaWAN/Mac/LoRaMacSerializer.c ****         return LORAMAC_SERIALIZER_ERROR_BUF_SIZE;
 244              		.loc 1 103 0
 245 000e 0220     		movs	r0, #2
 246              	.LVL23:
 101:../../../../../../Middlewares/Third_Party/LoRaWAN/Mac/LoRaMacSerializer.c ****     {
 247              		.loc 1 101 0
 248 0010 122A     		cmp	r2, #18
 249 0012 19D9     		bls	.L13
 250              	.LVL24:
 104:../../../../../../Middlewares/Third_Party/LoRaWAN/Mac/LoRaMacSerializer.c ****     }
 105:../../../../../../Middlewares/Third_Party/LoRaWAN/Mac/LoRaMacSerializer.c **** 
 106:../../../../../../Middlewares/Third_Party/LoRaWAN/Mac/LoRaMacSerializer.c ****     macMsg->Buffer[bufItr++] = macMsg->MHDR.Value;
 251              		.loc 1 106 0
 252 0014 6279     		ldrb	r2, [r4, #5]
 107:../../../../../../Middlewares/Third_Party/LoRaWAN/Mac/LoRaMacSerializer.c **** 
 108:../../../../../../Middlewares/Third_Party/LoRaWAN/Mac/LoRaMacSerializer.c ****     macMsg->Buffer[bufItr++] = macMsg->ReJoinType;
 109:../../../../../../Middlewares/Third_Party/LoRaWAN/Mac/LoRaMacSerializer.c **** 
 110:../../../../../../Middlewares/Third_Party/LoRaWAN/Mac/LoRaMacSerializer.c ****     memcpyr( &macMsg->Buffer[bufItr], macMsg->NetID, LORAMAC_NET_ID_FIELD_SIZE );
 253              		.loc 1 110 0
 254 0016 E11D     		adds	r1, r4, #7
 106:../../../../../../Middlewares/Third_Party/LoRaWAN/Mac/LoRaMacSerializer.c **** 
 255              		.loc 1 106 0
 256 0018 1A70     		strb	r2, [r3]
 108:../../../../../../Middlewares/Third_Party/LoRaWAN/Mac/LoRaMacSerializer.c **** 
 257              		.loc 1 108 0
 258 001a A379     		ldrb	r3, [r4, #6]
 259 001c 2268     		ldr	r2, [r4]
 260 001e 5370     		strb	r3, [r2, #1]
 261              		.loc 1 110 0
 262 0020 2368     		ldr	r3, [r4]
 263 0022 0322     		movs	r2, #3
 264 0024 981C     		adds	r0, r3, #2
 265 0026 FFF7FEFF 		bl	memcpyr
 266              	.LVL25:
 111:../../../../../../Middlewares/Third_Party/LoRaWAN/Mac/LoRaMacSerializer.c ****     bufItr += LORAMAC_NET_ID_FIELD_SIZE;
 112:../../../../../../Middlewares/Third_Party/LoRaWAN/Mac/LoRaMacSerializer.c **** 
 113:../../../../../../Middlewares/Third_Party/LoRaWAN/Mac/LoRaMacSerializer.c ****     memcpyr( &macMsg->Buffer[bufItr], macMsg->DevEUI, LORAMAC_DEV_EUI_FIELD_SIZE );
 267              		.loc 1 113 0
ARM GAS  C:\Users\EBANO_~1\AppData\Local\Temp\cc3CSO1m.s 			page 8


 268 002a 2100     		movs	r1, r4
 269 002c 2368     		ldr	r3, [r4]
 270 002e 0822     		movs	r2, #8
 271 0030 581D     		adds	r0, r3, #5
 272 0032 0A31     		adds	r1, r1, #10
 273 0034 FFF7FEFF 		bl	memcpyr
 274              	.LVL26:
 114:../../../../../../Middlewares/Third_Party/LoRaWAN/Mac/LoRaMacSerializer.c ****     bufItr += LORAMAC_DEV_EUI_FIELD_SIZE;
 115:../../../../../../Middlewares/Third_Party/LoRaWAN/Mac/LoRaMacSerializer.c **** 
 116:../../../../../../Middlewares/Third_Party/LoRaWAN/Mac/LoRaMacSerializer.c ****     macMsg->Buffer[bufItr++] = macMsg->RJcount0 & 0xFF;
 117:../../../../../../Middlewares/Third_Party/LoRaWAN/Mac/LoRaMacSerializer.c ****     macMsg->Buffer[bufItr++] = ( macMsg->RJcount0 >> 8 ) & 0xFF;
 118:../../../../../../Middlewares/Third_Party/LoRaWAN/Mac/LoRaMacSerializer.c **** 
 119:../../../../../../Middlewares/Third_Party/LoRaWAN/Mac/LoRaMacSerializer.c ****     return LORAMAC_SERIALIZER_SUCCESS;
 275              		.loc 1 119 0
 276 0038 0020     		movs	r0, #0
 116:../../../../../../Middlewares/Third_Party/LoRaWAN/Mac/LoRaMacSerializer.c ****     macMsg->Buffer[bufItr++] = ( macMsg->RJcount0 >> 8 ) & 0xFF;
 277              		.loc 1 116 0
 278 003a 638A     		ldrh	r3, [r4, #18]
 279 003c 2268     		ldr	r2, [r4]
 280 003e 5373     		strb	r3, [r2, #13]
 117:../../../../../../Middlewares/Third_Party/LoRaWAN/Mac/LoRaMacSerializer.c **** 
 281              		.loc 1 117 0
 282 0040 638A     		ldrh	r3, [r4, #18]
 283 0042 2268     		ldr	r2, [r4]
 284              	.LVL27:
 285 0044 1B0A     		lsrs	r3, r3, #8
 286 0046 9373     		strb	r3, [r2, #14]
 287              	.LVL28:
 288              	.L13:
 120:../../../../../../Middlewares/Third_Party/LoRaWAN/Mac/LoRaMacSerializer.c **** }
 289              		.loc 1 120 0
 290              		@ sp needed
 291              	.LVL29:
 292 0048 10BD     		pop	{r4, pc}
 293              	.LVL30:
 294              	.L15:
  95:../../../../../../Middlewares/Third_Party/LoRaWAN/Mac/LoRaMacSerializer.c ****     }
 295              		.loc 1 95 0
 296 004a 0120     		movs	r0, #1
 297              	.LVL31:
 298 004c FCE7     		b	.L13
 299              		.cfi_endproc
 300              	.LFE41:
 301              		.size	LoRaMacSerializerReJoinType0or2, .-LoRaMacSerializerReJoinType0or2
 302 004e C046     		.section	.text.LoRaMacSerializerData,"ax",%progbits
 303              		.align	1
 304              		.p2align 2,,3
 305              		.global	LoRaMacSerializerData
 306              		.syntax unified
 307              		.code	16
 308              		.thumb_func
 309              		.fpu softvfp
 310              		.type	LoRaMacSerializerData, %function
 311              	LoRaMacSerializerData:
 312              	.LFB42:
 121:../../../../../../Middlewares/Third_Party/LoRaWAN/Mac/LoRaMacSerializer.c **** 
 122:../../../../../../Middlewares/Third_Party/LoRaWAN/Mac/LoRaMacSerializer.c **** LoRaMacSerializerStatus_t LoRaMacSerializerData( LoRaMacMessageData_t* macMsg )
ARM GAS  C:\Users\EBANO_~1\AppData\Local\Temp\cc3CSO1m.s 			page 9


 123:../../../../../../Middlewares/Third_Party/LoRaWAN/Mac/LoRaMacSerializer.c **** {
 313              		.loc 1 123 0
 314              		.cfi_startproc
 315              		@ args = 0, pretend = 0, frame = 0
 316              		@ frame_needed = 0, uses_anonymous_args = 0
 317              	.LVL32:
 318 0000 70B5     		push	{r4, r5, r6, lr}
 319              	.LCFI3:
 320              		.cfi_def_cfa_offset 16
 321              		.cfi_offset 4, -16
 322              		.cfi_offset 5, -12
 323              		.cfi_offset 6, -8
 324              		.cfi_offset 14, -4
 325              		.loc 1 123 0
 326 0002 041E     		subs	r4, r0, #0
 124:../../../../../../Middlewares/Third_Party/LoRaWAN/Mac/LoRaMacSerializer.c ****     if( ( macMsg == 0 ) || ( macMsg->Buffer == 0 ) )
 327              		.loc 1 124 0
 328 0004 60D0     		beq	.L23
 329              		.loc 1 124 0 is_stmt 0 discriminator 1
 330 0006 0268     		ldr	r2, [r0]
 331 0008 002A     		cmp	r2, #0
 332 000a 5DD0     		beq	.L23
 333              	.LVL33:
 125:../../../../../../Middlewares/Third_Party/LoRaWAN/Mac/LoRaMacSerializer.c ****     {
 126:../../../../../../Middlewares/Third_Party/LoRaWAN/Mac/LoRaMacSerializer.c ****         return LORAMAC_SERIALIZER_ERROR_NPE;
 127:../../../../../../Middlewares/Third_Party/LoRaWAN/Mac/LoRaMacSerializer.c ****     }
 128:../../../../../../Middlewares/Third_Party/LoRaWAN/Mac/LoRaMacSerializer.c **** 
 129:../../../../../../Middlewares/Third_Party/LoRaWAN/Mac/LoRaMacSerializer.c ****     uint16_t bufItr = 0;
 130:../../../../../../Middlewares/Third_Party/LoRaWAN/Mac/LoRaMacSerializer.c **** 
 131:../../../../../../Middlewares/Third_Party/LoRaWAN/Mac/LoRaMacSerializer.c ****     // Check macMsg->BufSize
 132:../../../../../../Middlewares/Third_Party/LoRaWAN/Mac/LoRaMacSerializer.c ****     uint16_t computedBufSize =   LORAMAC_MHDR_FIELD_SIZE
 133:../../../../../../Middlewares/Third_Party/LoRaWAN/Mac/LoRaMacSerializer.c ****                                + LORAMAC_FHDR_DEV_ADD_FIELD_SIZE
 134:../../../../../../Middlewares/Third_Party/LoRaWAN/Mac/LoRaMacSerializer.c ****                                + LORAMAC_FHDR_F_CTRL_FIELD_SIZE
 135:../../../../../../Middlewares/Third_Party/LoRaWAN/Mac/LoRaMacSerializer.c ****                                + LORAMAC_FHDR_F_CNT_FIELD_SIZE;
 136:../../../../../../Middlewares/Third_Party/LoRaWAN/Mac/LoRaMacSerializer.c **** 
 137:../../../../../../Middlewares/Third_Party/LoRaWAN/Mac/LoRaMacSerializer.c ****     if( macMsg->FRMPayloadSize == 0 )
 334              		.loc 1 137 0 is_stmt 1
 335 000c 2823     		movs	r3, #40
 336 000e C15C     		ldrb	r1, [r0, r3]
 337 0010 0079     		ldrb	r0, [r0, #4]
 338              	.LVL34:
 339 0012 0029     		cmp	r1, #0
 340 0014 4FD1     		bne	.L19
 138:../../../../../../Middlewares/Third_Party/LoRaWAN/Mac/LoRaMacSerializer.c ****     {
 139:../../../../../../Middlewares/Third_Party/LoRaWAN/Mac/LoRaMacSerializer.c ****         if( macMsg->BufSize < computedBufSize )
 341              		.loc 1 139 0
 342 0016 0728     		cmp	r0, #7
 343 0018 54D9     		bls	.L25
 344              	.L20:
 345              	.LVL35:
 140:../../../../../../Middlewares/Third_Party/LoRaWAN/Mac/LoRaMacSerializer.c ****         {
 141:../../../../../../Middlewares/Third_Party/LoRaWAN/Mac/LoRaMacSerializer.c ****             return LORAMAC_SERIALIZER_ERROR_BUF_SIZE;
 142:../../../../../../Middlewares/Third_Party/LoRaWAN/Mac/LoRaMacSerializer.c ****         }
 143:../../../../../../Middlewares/Third_Party/LoRaWAN/Mac/LoRaMacSerializer.c ****     }
 144:../../../../../../Middlewares/Third_Party/LoRaWAN/Mac/LoRaMacSerializer.c ****     else
 145:../../../../../../Middlewares/Third_Party/LoRaWAN/Mac/LoRaMacSerializer.c ****     {   //If FRMPayload >0, FPort field is present.
 146:../../../../../../Middlewares/Third_Party/LoRaWAN/Mac/LoRaMacSerializer.c ****         if( macMsg->BufSize < computedBufSize + macMsg->FHDR.FCtrl.Bits.FOptsLen + macMsg->FRMPaylo
ARM GAS  C:\Users\EBANO_~1\AppData\Local\Temp\cc3CSO1m.s 			page 10


 147:../../../../../../Middlewares/Third_Party/LoRaWAN/Mac/LoRaMacSerializer.c ****         {
 148:../../../../../../Middlewares/Third_Party/LoRaWAN/Mac/LoRaMacSerializer.c ****             return LORAMAC_SERIALIZER_ERROR_BUF_SIZE;
 149:../../../../../../Middlewares/Third_Party/LoRaWAN/Mac/LoRaMacSerializer.c ****         }
 150:../../../../../../Middlewares/Third_Party/LoRaWAN/Mac/LoRaMacSerializer.c ****     }
 151:../../../../../../Middlewares/Third_Party/LoRaWAN/Mac/LoRaMacSerializer.c **** 
 152:../../../../../../Middlewares/Third_Party/LoRaWAN/Mac/LoRaMacSerializer.c ****     macMsg->Buffer[bufItr++] = macMsg->MHDR.Value;
 153:../../../../../../Middlewares/Third_Party/LoRaWAN/Mac/LoRaMacSerializer.c **** 
 154:../../../../../../Middlewares/Third_Party/LoRaWAN/Mac/LoRaMacSerializer.c ****     macMsg->Buffer[bufItr++] = ( macMsg->FHDR.DevAddr ) & 0xFF;
 155:../../../../../../Middlewares/Third_Party/LoRaWAN/Mac/LoRaMacSerializer.c ****     macMsg->Buffer[bufItr++] = ( macMsg->FHDR.DevAddr >> 8 ) & 0xFF;
 156:../../../../../../Middlewares/Third_Party/LoRaWAN/Mac/LoRaMacSerializer.c ****     macMsg->Buffer[bufItr++] = ( macMsg->FHDR.DevAddr >> 16 ) & 0xFF;
 157:../../../../../../Middlewares/Third_Party/LoRaWAN/Mac/LoRaMacSerializer.c ****     macMsg->Buffer[bufItr++] = ( macMsg->FHDR.DevAddr >> 24 ) & 0xFF;
 158:../../../../../../Middlewares/Third_Party/LoRaWAN/Mac/LoRaMacSerializer.c **** 
 159:../../../../../../Middlewares/Third_Party/LoRaWAN/Mac/LoRaMacSerializer.c ****     macMsg->Buffer[bufItr++] = macMsg->FHDR.FCtrl.Value;
 160:../../../../../../Middlewares/Third_Party/LoRaWAN/Mac/LoRaMacSerializer.c **** 
 161:../../../../../../Middlewares/Third_Party/LoRaWAN/Mac/LoRaMacSerializer.c ****     macMsg->Buffer[bufItr++] = macMsg->FHDR.FCnt & 0xFF;
 162:../../../../../../Middlewares/Third_Party/LoRaWAN/Mac/LoRaMacSerializer.c ****     macMsg->Buffer[bufItr++] = ( macMsg->FHDR.FCnt >> 8 ) & 0xFF;
 163:../../../../../../Middlewares/Third_Party/LoRaWAN/Mac/LoRaMacSerializer.c **** 
 164:../../../../../../Middlewares/Third_Party/LoRaWAN/Mac/LoRaMacSerializer.c ****     memcpy1( &macMsg->Buffer[bufItr], macMsg->FHDR.FOpts, macMsg->FHDR.FCtrl.Bits.FOptsLen );
 346              		.loc 1 164 0
 347 001a 2100     		movs	r1, r4
 152:../../../../../../Middlewares/Third_Party/LoRaWAN/Mac/LoRaMacSerializer.c **** 
 348              		.loc 1 152 0
 349 001c 6379     		ldrb	r3, [r4, #5]
 350              		.loc 1 164 0
 351 001e 1031     		adds	r1, r1, #16
 152:../../../../../../Middlewares/Third_Party/LoRaWAN/Mac/LoRaMacSerializer.c **** 
 352              		.loc 1 152 0
 353 0020 1370     		strb	r3, [r2]
 154:../../../../../../Middlewares/Third_Party/LoRaWAN/Mac/LoRaMacSerializer.c ****     macMsg->Buffer[bufItr++] = ( macMsg->FHDR.DevAddr >> 8 ) & 0xFF;
 354              		.loc 1 154 0
 355 0022 A368     		ldr	r3, [r4, #8]
 356 0024 2268     		ldr	r2, [r4]
 357 0026 5370     		strb	r3, [r2, #1]
 155:../../../../../../Middlewares/Third_Party/LoRaWAN/Mac/LoRaMacSerializer.c ****     macMsg->Buffer[bufItr++] = ( macMsg->FHDR.DevAddr >> 16 ) & 0xFF;
 358              		.loc 1 155 0
 359 0028 A368     		ldr	r3, [r4, #8]
 360 002a 2268     		ldr	r2, [r4]
 361 002c 1B0A     		lsrs	r3, r3, #8
 362 002e 9370     		strb	r3, [r2, #2]
 156:../../../../../../Middlewares/Third_Party/LoRaWAN/Mac/LoRaMacSerializer.c ****     macMsg->Buffer[bufItr++] = ( macMsg->FHDR.DevAddr >> 24 ) & 0xFF;
 363              		.loc 1 156 0
 364 0030 6389     		ldrh	r3, [r4, #10]
 365 0032 2268     		ldr	r2, [r4]
 366 0034 D370     		strb	r3, [r2, #3]
 157:../../../../../../Middlewares/Third_Party/LoRaWAN/Mac/LoRaMacSerializer.c **** 
 367              		.loc 1 157 0
 368 0036 E37A     		ldrb	r3, [r4, #11]
 369 0038 2268     		ldr	r2, [r4]
 370 003a 1371     		strb	r3, [r2, #4]
 159:../../../../../../Middlewares/Third_Party/LoRaWAN/Mac/LoRaMacSerializer.c **** 
 371              		.loc 1 159 0
 372 003c 237B     		ldrb	r3, [r4, #12]
 373 003e 2268     		ldr	r2, [r4]
 374 0040 5371     		strb	r3, [r2, #5]
 161:../../../../../../Middlewares/Third_Party/LoRaWAN/Mac/LoRaMacSerializer.c ****     macMsg->Buffer[bufItr++] = ( macMsg->FHDR.FCnt >> 8 ) & 0xFF;
 375              		.loc 1 161 0
 376 0042 E389     		ldrh	r3, [r4, #14]
ARM GAS  C:\Users\EBANO_~1\AppData\Local\Temp\cc3CSO1m.s 			page 11


 377 0044 2268     		ldr	r2, [r4]
 378 0046 9371     		strb	r3, [r2, #6]
 162:../../../../../../Middlewares/Third_Party/LoRaWAN/Mac/LoRaMacSerializer.c **** 
 379              		.loc 1 162 0
 380 0048 E389     		ldrh	r3, [r4, #14]
 381 004a 2268     		ldr	r2, [r4]
 382 004c 1B0A     		lsrs	r3, r3, #8
 383 004e D371     		strb	r3, [r2, #7]
 384              		.loc 1 164 0
 385 0050 227B     		ldrb	r2, [r4, #12]
 386 0052 2068     		ldr	r0, [r4]
 387 0054 1207     		lsls	r2, r2, #28
 388 0056 120F     		lsrs	r2, r2, #28
 389 0058 0830     		adds	r0, r0, #8
 390 005a FFF7FEFF 		bl	memcpy1
 391              	.LVL36:
 165:../../../../../../Middlewares/Third_Party/LoRaWAN/Mac/LoRaMacSerializer.c ****     bufItr = bufItr + macMsg->FHDR.FCtrl.Bits.FOptsLen;
 392              		.loc 1 165 0
 393 005e 237B     		ldrb	r3, [r4, #12]
 166:../../../../../../Middlewares/Third_Party/LoRaWAN/Mac/LoRaMacSerializer.c **** 
 167:../../../../../../Middlewares/Third_Party/LoRaWAN/Mac/LoRaMacSerializer.c ****     if( macMsg->FRMPayloadSize > 0 )
 394              		.loc 1 167 0
 395 0060 2821     		movs	r1, #40
 165:../../../../../../Middlewares/Third_Party/LoRaWAN/Mac/LoRaMacSerializer.c ****     bufItr = bufItr + macMsg->FHDR.FCtrl.Bits.FOptsLen;
 396              		.loc 1 165 0
 397 0062 1B07     		lsls	r3, r3, #28
 398 0064 1B0F     		lsrs	r3, r3, #28
 399 0066 1D00     		movs	r5, r3
 400              		.loc 1 167 0
 401 0068 625C     		ldrb	r2, [r4, r1]
 165:../../../../../../Middlewares/Third_Party/LoRaWAN/Mac/LoRaMacSerializer.c ****     bufItr = bufItr + macMsg->FHDR.FCtrl.Bits.FOptsLen;
 402              		.loc 1 165 0
 403 006a 0835     		adds	r5, r5, #8
 404              	.LVL37:
 405 006c 2800     		movs	r0, r5
 406              		.loc 1 167 0
 407 006e 002A     		cmp	r2, #0
 408 0070 2CD1     		bne	.L29
 409              	.L21:
 168:../../../../../../Middlewares/Third_Party/LoRaWAN/Mac/LoRaMacSerializer.c ****     {
 169:../../../../../../Middlewares/Third_Party/LoRaWAN/Mac/LoRaMacSerializer.c ****         macMsg->Buffer[bufItr++] = macMsg->FPort;
 170:../../../../../../Middlewares/Third_Party/LoRaWAN/Mac/LoRaMacSerializer.c ****     }
 171:../../../../../../Middlewares/Third_Party/LoRaWAN/Mac/LoRaMacSerializer.c **** 
 172:../../../../../../Middlewares/Third_Party/LoRaWAN/Mac/LoRaMacSerializer.c ****     memcpy1( &macMsg->Buffer[bufItr], macMsg->FRMPayload, macMsg->FRMPayloadSize );
 410              		.loc 1 172 0
 411 0072 2368     		ldr	r3, [r4]
 412 0074 92B2     		uxth	r2, r2
 413 0076 5819     		adds	r0, r3, r5
 414 0078 616A     		ldr	r1, [r4, #36]
 415 007a FFF7FEFF 		bl	memcpy1
 416              	.LVL38:
 173:../../../../../../Middlewares/Third_Party/LoRaWAN/Mac/LoRaMacSerializer.c ****     bufItr = bufItr + macMsg->FRMPayloadSize;
 417              		.loc 1 173 0
 418 007e 2823     		movs	r3, #40
 419 0080 E35C     		ldrb	r3, [r4, r3]
 174:../../../../../../Middlewares/Third_Party/LoRaWAN/Mac/LoRaMacSerializer.c **** 
 175:../../../../../../Middlewares/Third_Party/LoRaWAN/Mac/LoRaMacSerializer.c ****     macMsg->Buffer[bufItr++] = macMsg->MIC & 0xFF;
ARM GAS  C:\Users\EBANO_~1\AppData\Local\Temp\cc3CSO1m.s 			page 12


 420              		.loc 1 175 0
 421 0082 E26A     		ldr	r2, [r4, #44]
 422 0084 2168     		ldr	r1, [r4]
 173:../../../../../../Middlewares/Third_Party/LoRaWAN/Mac/LoRaMacSerializer.c ****     bufItr = bufItr + macMsg->FRMPayloadSize;
 423              		.loc 1 173 0
 424 0086 EB18     		adds	r3, r5, r3
 425 0088 9BB2     		uxth	r3, r3
 426              	.LVL39:
 427              		.loc 1 175 0
 428 008a CA54     		strb	r2, [r1, r3]
 429              	.LVL40:
 176:../../../../../../Middlewares/Third_Party/LoRaWAN/Mac/LoRaMacSerializer.c ****     macMsg->Buffer[bufItr++] = ( macMsg->MIC >> 8 ) & 0xFF;
 430              		.loc 1 176 0
 431 008c E16A     		ldr	r1, [r4, #44]
 432 008e 2068     		ldr	r0, [r4]
 175:../../../../../../Middlewares/Third_Party/LoRaWAN/Mac/LoRaMacSerializer.c ****     macMsg->Buffer[bufItr++] = ( macMsg->MIC >> 8 ) & 0xFF;
 433              		.loc 1 175 0
 434 0090 5A1C     		adds	r2, r3, #1
 435              		.loc 1 176 0
 436 0092 92B2     		uxth	r2, r2
 437 0094 090A     		lsrs	r1, r1, #8
 438 0096 8154     		strb	r1, [r0, r2]
 439              	.LVL41:
 177:../../../../../../Middlewares/Third_Party/LoRaWAN/Mac/LoRaMacSerializer.c ****     macMsg->Buffer[bufItr++] = ( macMsg->MIC >> 16 ) & 0xFF;
 440              		.loc 1 177 0
 441 0098 E18D     		ldrh	r1, [r4, #46]
 442 009a 2068     		ldr	r0, [r4]
 176:../../../../../../Middlewares/Third_Party/LoRaWAN/Mac/LoRaMacSerializer.c ****     macMsg->Buffer[bufItr++] = ( macMsg->MIC >> 8 ) & 0xFF;
 443              		.loc 1 176 0
 444 009c 9A1C     		adds	r2, r3, #2
 445              		.loc 1 177 0
 446 009e 92B2     		uxth	r2, r2
 447 00a0 8154     		strb	r1, [r0, r2]
 448              	.LVL42:
 178:../../../../../../Middlewares/Third_Party/LoRaWAN/Mac/LoRaMacSerializer.c ****     macMsg->Buffer[bufItr++] = ( macMsg->MIC >> 24 ) & 0xFF;
 449              		.loc 1 178 0
 450 00a2 E16A     		ldr	r1, [r4, #44]
 177:../../../../../../Middlewares/Third_Party/LoRaWAN/Mac/LoRaMacSerializer.c ****     macMsg->Buffer[bufItr++] = ( macMsg->MIC >> 16 ) & 0xFF;
 451              		.loc 1 177 0
 452 00a4 DA1C     		adds	r2, r3, #3
 453              		.loc 1 178 0
 454 00a6 2068     		ldr	r0, [r4]
 455 00a8 92B2     		uxth	r2, r2
 456 00aa 090E     		lsrs	r1, r1, #24
 457 00ac 8154     		strb	r1, [r0, r2]
 179:../../../../../../Middlewares/Third_Party/LoRaWAN/Mac/LoRaMacSerializer.c **** 
 180:../../../../../../Middlewares/Third_Party/LoRaWAN/Mac/LoRaMacSerializer.c ****     macMsg->BufSize = bufItr;
 181:../../../../../../Middlewares/Third_Party/LoRaWAN/Mac/LoRaMacSerializer.c **** 
 182:../../../../../../Middlewares/Third_Party/LoRaWAN/Mac/LoRaMacSerializer.c ****     return LORAMAC_SERIALIZER_SUCCESS;
 458              		.loc 1 182 0
 459 00ae 0020     		movs	r0, #0
 178:../../../../../../Middlewares/Third_Party/LoRaWAN/Mac/LoRaMacSerializer.c ****     macMsg->Buffer[bufItr++] = ( macMsg->MIC >> 24 ) & 0xFF;
 460              		.loc 1 178 0
 461 00b0 0433     		adds	r3, r3, #4
 462              	.LVL43:
 180:../../../../../../Middlewares/Third_Party/LoRaWAN/Mac/LoRaMacSerializer.c **** 
 463              		.loc 1 180 0
ARM GAS  C:\Users\EBANO_~1\AppData\Local\Temp\cc3CSO1m.s 			page 13


 464 00b2 2371     		strb	r3, [r4, #4]
 465              	.LVL44:
 466              	.L18:
 183:../../../../../../Middlewares/Third_Party/LoRaWAN/Mac/LoRaMacSerializer.c **** }
 467              		.loc 1 183 0
 468              		@ sp needed
 469              	.LVL45:
 470 00b4 70BD     		pop	{r4, r5, r6, pc}
 471              	.LVL46:
 472              	.L19:
 146:../../../../../../Middlewares/Third_Party/LoRaWAN/Mac/LoRaMacSerializer.c ****         {
 473              		.loc 1 146 0
 474 00b6 237B     		ldrb	r3, [r4, #12]
 475 00b8 1B07     		lsls	r3, r3, #28
 476 00ba 1B0F     		lsrs	r3, r3, #28
 477 00bc 0833     		adds	r3, r3, #8
 478 00be 5B18     		adds	r3, r3, r1
 479 00c0 8342     		cmp	r3, r0
 480 00c2 AADB     		blt	.L20
 481              	.L25:
 141:../../../../../../Middlewares/Third_Party/LoRaWAN/Mac/LoRaMacSerializer.c ****         }
 482              		.loc 1 141 0
 483 00c4 0220     		movs	r0, #2
 484 00c6 F5E7     		b	.L18
 485              	.LVL47:
 486              	.L23:
 126:../../../../../../Middlewares/Third_Party/LoRaWAN/Mac/LoRaMacSerializer.c ****     }
 487              		.loc 1 126 0
 488 00c8 0120     		movs	r0, #1
 489              	.LVL48:
 490 00ca F3E7     		b	.L18
 491              	.LVL49:
 492              	.L29:
 169:../../../../../../Middlewares/Third_Party/LoRaWAN/Mac/LoRaMacSerializer.c ****     }
 493              		.loc 1 169 0
 494 00cc 0933     		adds	r3, r3, #9
 495 00ce 1D00     		movs	r5, r3
 496              	.LVL50:
 497 00d0 2023     		movs	r3, #32
 498 00d2 2268     		ldr	r2, [r4]
 499 00d4 E35C     		ldrb	r3, [r4, r3]
 500 00d6 1354     		strb	r3, [r2, r0]
 501 00d8 625C     		ldrb	r2, [r4, r1]
 502 00da CAE7     		b	.L21
 503              		.cfi_endproc
 504              	.LFE42:
 505              		.size	LoRaMacSerializerData, .-LoRaMacSerializerData
 506              		.text
 507              	.Letext0:
 508              		.file 2 "c:\\program files (x86)\\gnu tools arm embedded\\7 2018-q2-update\\arm-none-eabi\\include
 509              		.file 3 "c:\\program files (x86)\\gnu tools arm embedded\\7 2018-q2-update\\arm-none-eabi\\include
 510              		.file 4 "../../../../../../Middlewares/Third_Party/LoRaWAN/Mac/LoRaMacHeaderTypes.h"
 511              		.file 5 "../../../../../../Middlewares/Third_Party/LoRaWAN/Mac/LoRaMacMessageTypes.h"
 512              		.file 6 "../../../../../../Middlewares/Third_Party/LoRaWAN/Mac/LoRaMacSerializer.h"
 513              		.file 7 "../../../../../../Drivers/CMSIS/Device/ST/STM32L0xx/Include/system_stm32l0xx.h"
 514              		.file 8 "c:\\program files (x86)\\gnu tools arm embedded\\7 2018-q2-update\\arm-none-eabi\\include
 515              		.file 9 "c:\\program files (x86)\\gnu tools arm embedded\\7 2018-q2-update\\arm-none-eabi\\include
ARM GAS  C:\Users\EBANO_~1\AppData\Local\Temp\cc3CSO1m.s 			page 14


 516              		.file 10 "c:\\program files (x86)\\gnu tools arm embedded\\7 2018-q2-update\\lib\\gcc\\arm-none-ea
 517              		.file 11 "c:\\program files (x86)\\gnu tools arm embedded\\7 2018-q2-update\\arm-none-eabi\\includ
 518              		.file 12 "c:\\program files (x86)\\gnu tools arm embedded\\7 2018-q2-update\\arm-none-eabi\\includ
 519              		.file 13 "../../../../../../Middlewares/Third_Party/LoRaWAN/Utilities/utilities.h"
 520              		.section	.debug_info,"",%progbits
 521              	.Ldebug_info0:
 522 0000 E90F0000 		.4byte	0xfe9
 523 0004 0200     		.2byte	0x2
 524 0006 00000000 		.4byte	.Ldebug_abbrev0
 525 000a 04       		.byte	0x4
 526 000b 01       		.uleb128 0x1
 527 000c 12050000 		.4byte	.LASF187
 528 0010 0C       		.byte	0xc
 529 0011 2E040000 		.4byte	.LASF188
 530 0015 AF080000 		.4byte	.LASF189
 531 0019 00000000 		.4byte	.Ldebug_ranges0+0
 532 001d 00000000 		.4byte	0
 533 0021 00000000 		.4byte	0
 534 0025 00000000 		.4byte	.Ldebug_line0
 535 0029 02       		.uleb128 0x2
 536 002a 01       		.byte	0x1
 537 002b 06       		.byte	0x6
 538 002c 5A010000 		.4byte	.LASF0
 539 0030 03       		.uleb128 0x3
 540 0031 5E000000 		.4byte	.LASF3
 541 0035 02       		.byte	0x2
 542 0036 2B       		.byte	0x2b
 543 0037 3B000000 		.4byte	0x3b
 544 003b 02       		.uleb128 0x2
 545 003c 01       		.byte	0x1
 546 003d 08       		.byte	0x8
 547 003e AA050000 		.4byte	.LASF1
 548 0042 02       		.uleb128 0x2
 549 0043 02       		.byte	0x2
 550 0044 05       		.byte	0x5
 551 0045 15000000 		.4byte	.LASF2
 552 0049 03       		.uleb128 0x3
 553 004a 48070000 		.4byte	.LASF4
 554 004e 02       		.byte	0x2
 555 004f 39       		.byte	0x39
 556 0050 54000000 		.4byte	0x54
 557 0054 02       		.uleb128 0x2
 558 0055 02       		.byte	0x2
 559 0056 07       		.byte	0x7
 560 0057 9F070000 		.4byte	.LASF5
 561 005b 02       		.uleb128 0x2
 562 005c 04       		.byte	0x4
 563 005d 05       		.byte	0x5
 564 005e D0010000 		.4byte	.LASF6
 565 0062 03       		.uleb128 0x3
 566 0063 63020000 		.4byte	.LASF7
 567 0067 02       		.byte	0x2
 568 0068 4F       		.byte	0x4f
 569 0069 6D000000 		.4byte	0x6d
 570 006d 02       		.uleb128 0x2
 571 006e 04       		.byte	0x4
 572 006f 07       		.byte	0x7
ARM GAS  C:\Users\EBANO_~1\AppData\Local\Temp\cc3CSO1m.s 			page 15


 573 0070 06030000 		.4byte	.LASF8
 574 0074 02       		.uleb128 0x2
 575 0075 08       		.byte	0x8
 576 0076 05       		.byte	0x5
 577 0077 F9010000 		.4byte	.LASF9
 578 007b 02       		.uleb128 0x2
 579 007c 08       		.byte	0x8
 580 007d 07       		.byte	0x7
 581 007e C8000000 		.4byte	.LASF10
 582 0082 04       		.uleb128 0x4
 583 0083 04       		.byte	0x4
 584 0084 05       		.byte	0x5
 585 0085 696E7400 		.ascii	"int\000"
 586 0089 02       		.uleb128 0x2
 587 008a 04       		.byte	0x4
 588 008b 07       		.byte	0x7
 589 008c 3B070000 		.4byte	.LASF11
 590 0090 03       		.uleb128 0x3
 591 0091 93080000 		.4byte	.LASF12
 592 0095 03       		.byte	0x3
 593 0096 18       		.byte	0x18
 594 0097 30000000 		.4byte	0x30
 595 009b 05       		.uleb128 0x5
 596 009c 90000000 		.4byte	0x90
 597 00a0 03       		.uleb128 0x3
 598 00a1 9F030000 		.4byte	.LASF13
 599 00a5 03       		.byte	0x3
 600 00a6 24       		.byte	0x24
 601 00a7 49000000 		.4byte	0x49
 602 00ab 03       		.uleb128 0x3
 603 00ac 39080000 		.4byte	.LASF14
 604 00b0 03       		.byte	0x3
 605 00b1 30       		.byte	0x30
 606 00b2 62000000 		.4byte	0x62
 607 00b6 06       		.uleb128 0x6
 608 00b7 C6040000 		.4byte	.LASF20
 609 00bb 01       		.byte	0x1
 610 00bc 04       		.byte	0x4
 611 00bd 67       		.byte	0x67
 612 00be F6000000 		.4byte	0xf6
 613 00c2 07       		.uleb128 0x7
 614 00c3 B2070000 		.4byte	.LASF15
 615 00c7 04       		.byte	0x4
 616 00c8 6C       		.byte	0x6c
 617 00c9 90000000 		.4byte	0x90
 618 00cd 01       		.byte	0x1
 619 00ce 02       		.byte	0x2
 620 00cf 06       		.byte	0x6
 621 00d0 02       		.byte	0x2
 622 00d1 23       		.byte	0x23
 623 00d2 00       		.uleb128 0
 624 00d3 08       		.uleb128 0x8
 625 00d4 52465500 		.ascii	"RFU\000"
 626 00d8 04       		.byte	0x4
 627 00d9 70       		.byte	0x70
 628 00da 90000000 		.4byte	0x90
 629 00de 01       		.byte	0x1
ARM GAS  C:\Users\EBANO_~1\AppData\Local\Temp\cc3CSO1m.s 			page 16


 630 00df 03       		.byte	0x3
 631 00e0 03       		.byte	0x3
 632 00e1 02       		.byte	0x2
 633 00e2 23       		.byte	0x23
 634 00e3 00       		.uleb128 0
 635 00e4 07       		.uleb128 0x7
 636 00e5 D7050000 		.4byte	.LASF16
 637 00e9 04       		.byte	0x4
 638 00ea 74       		.byte	0x74
 639 00eb 90000000 		.4byte	0x90
 640 00ef 01       		.byte	0x1
 641 00f0 03       		.byte	0x3
 642 00f1 00       		.byte	0
 643 00f2 02       		.byte	0x2
 644 00f3 23       		.byte	0x23
 645 00f4 00       		.uleb128 0
 646 00f5 00       		.byte	0
 647 00f6 09       		.uleb128 0x9
 648 00f7 A4020000 		.4byte	.LASF25
 649 00fb 01       		.byte	0x1
 650 00fc 04       		.byte	0x4
 651 00fd 5E       		.byte	0x5e
 652 00fe 19010000 		.4byte	0x119
 653 0102 0A       		.uleb128 0xa
 654 0103 72080000 		.4byte	.LASF17
 655 0107 04       		.byte	0x4
 656 0108 63       		.byte	0x63
 657 0109 90000000 		.4byte	0x90
 658 010d 0A       		.uleb128 0xa
 659 010e 5E060000 		.4byte	.LASF18
 660 0112 04       		.byte	0x4
 661 0113 75       		.byte	0x75
 662 0114 B6000000 		.4byte	0xb6
 663 0118 00       		.byte	0
 664 0119 03       		.uleb128 0x3
 665 011a 42060000 		.4byte	.LASF19
 666 011e 04       		.byte	0x4
 667 011f 76       		.byte	0x76
 668 0120 F6000000 		.4byte	0xf6
 669 0124 06       		.uleb128 0x6
 670 0125 30090000 		.4byte	.LASF21
 671 0129 01       		.byte	0x1
 672 012a 04       		.byte	0x4
 673 012b 86       		.byte	0x86
 674 012c 86010000 		.4byte	0x186
 675 0130 07       		.uleb128 0x7
 676 0131 09050000 		.4byte	.LASF22
 677 0135 04       		.byte	0x4
 678 0136 8B       		.byte	0x8b
 679 0137 90000000 		.4byte	0x90
 680 013b 01       		.byte	0x1
 681 013c 04       		.byte	0x4
 682 013d 04       		.byte	0x4
 683 013e 02       		.byte	0x2
 684 013f 23       		.byte	0x23
 685 0140 00       		.uleb128 0
 686 0141 07       		.uleb128 0x7
ARM GAS  C:\Users\EBANO_~1\AppData\Local\Temp\cc3CSO1m.s 			page 17


 687 0142 80070000 		.4byte	.LASF23
 688 0146 04       		.byte	0x4
 689 0147 8F       		.byte	0x8f
 690 0148 90000000 		.4byte	0x90
 691 014c 01       		.byte	0x1
 692 014d 01       		.byte	0x1
 693 014e 03       		.byte	0x3
 694 014f 02       		.byte	0x2
 695 0150 23       		.byte	0x23
 696 0151 00       		.uleb128 0
 697 0152 08       		.uleb128 0x8
 698 0153 41636B00 		.ascii	"Ack\000"
 699 0157 04       		.byte	0x4
 700 0158 93       		.byte	0x93
 701 0159 90000000 		.4byte	0x90
 702 015d 01       		.byte	0x1
 703 015e 01       		.byte	0x1
 704 015f 02       		.byte	0x2
 705 0160 02       		.byte	0x2
 706 0161 23       		.byte	0x23
 707 0162 00       		.uleb128 0
 708 0163 07       		.uleb128 0x7
 709 0164 D6030000 		.4byte	.LASF24
 710 0168 04       		.byte	0x4
 711 0169 97       		.byte	0x97
 712 016a 90000000 		.4byte	0x90
 713 016e 01       		.byte	0x1
 714 016f 01       		.byte	0x1
 715 0170 01       		.byte	0x1
 716 0171 02       		.byte	0x2
 717 0172 23       		.byte	0x23
 718 0173 00       		.uleb128 0
 719 0174 08       		.uleb128 0x8
 720 0175 41647200 		.ascii	"Adr\000"
 721 0179 04       		.byte	0x4
 722 017a 9B       		.byte	0x9b
 723 017b 90000000 		.4byte	0x90
 724 017f 01       		.byte	0x1
 725 0180 01       		.byte	0x1
 726 0181 00       		.byte	0
 727 0182 02       		.byte	0x2
 728 0183 23       		.byte	0x23
 729 0184 00       		.uleb128 0
 730 0185 00       		.byte	0
 731 0186 09       		.uleb128 0x9
 732 0187 68000000 		.4byte	.LASF26
 733 018b 01       		.byte	0x1
 734 018c 04       		.byte	0x4
 735 018d 7D       		.byte	0x7d
 736 018e A9010000 		.4byte	0x1a9
 737 0192 0A       		.uleb128 0xa
 738 0193 72080000 		.4byte	.LASF17
 739 0197 04       		.byte	0x4
 740 0198 82       		.byte	0x82
 741 0199 90000000 		.4byte	0x90
 742 019d 0A       		.uleb128 0xa
 743 019e 5E060000 		.4byte	.LASF18
ARM GAS  C:\Users\EBANO_~1\AppData\Local\Temp\cc3CSO1m.s 			page 18


 744 01a2 04       		.byte	0x4
 745 01a3 9C       		.byte	0x9c
 746 01a4 24010000 		.4byte	0x124
 747 01a8 00       		.byte	0
 748 01a9 03       		.uleb128 0x3
 749 01aa 53070000 		.4byte	.LASF27
 750 01ae 04       		.byte	0x4
 751 01af 9D       		.byte	0x9d
 752 01b0 86010000 		.4byte	0x186
 753 01b4 06       		.uleb128 0x6
 754 01b5 42080000 		.4byte	.LASF28
 755 01b9 18       		.byte	0x18
 756 01ba 04       		.byte	0x4
 757 01bb A4       		.byte	0xa4
 758 01bc F9010000 		.4byte	0x1f9
 759 01c0 0B       		.uleb128 0xb
 760 01c1 D7020000 		.4byte	.LASF29
 761 01c5 04       		.byte	0x4
 762 01c6 A9       		.byte	0xa9
 763 01c7 AB000000 		.4byte	0xab
 764 01cb 02       		.byte	0x2
 765 01cc 23       		.byte	0x23
 766 01cd 00       		.uleb128 0
 767 01ce 0B       		.uleb128 0xb
 768 01cf 6E020000 		.4byte	.LASF30
 769 01d3 04       		.byte	0x4
 770 01d4 AD       		.byte	0xad
 771 01d5 A9010000 		.4byte	0x1a9
 772 01d9 02       		.byte	0x2
 773 01da 23       		.byte	0x23
 774 01db 04       		.uleb128 0x4
 775 01dc 0B       		.uleb128 0xb
 776 01dd 18030000 		.4byte	.LASF31
 777 01e1 04       		.byte	0x4
 778 01e2 B1       		.byte	0xb1
 779 01e3 A0000000 		.4byte	0xa0
 780 01e7 02       		.byte	0x2
 781 01e8 23       		.byte	0x23
 782 01e9 06       		.uleb128 0x6
 783 01ea 0B       		.uleb128 0xb
 784 01eb 90090000 		.4byte	.LASF32
 785 01ef 04       		.byte	0x4
 786 01f0 B5       		.byte	0xb5
 787 01f1 F9010000 		.4byte	0x1f9
 788 01f5 02       		.byte	0x2
 789 01f6 23       		.byte	0x23
 790 01f7 08       		.uleb128 0x8
 791 01f8 00       		.byte	0
 792 01f9 0C       		.uleb128 0xc
 793 01fa 90000000 		.4byte	0x90
 794 01fe 09020000 		.4byte	0x209
 795 0202 0D       		.uleb128 0xd
 796 0203 89000000 		.4byte	0x89
 797 0207 0E       		.byte	0xe
 798 0208 00       		.byte	0
 799 0209 03       		.uleb128 0x3
 800 020a 4D030000 		.4byte	.LASF33
ARM GAS  C:\Users\EBANO_~1\AppData\Local\Temp\cc3CSO1m.s 			page 19


 801 020e 04       		.byte	0x4
 802 020f B6       		.byte	0xb6
 803 0210 B4010000 		.4byte	0x1b4
 804 0214 06       		.uleb128 0x6
 805 0215 78080000 		.4byte	.LASF34
 806 0219 1C       		.byte	0x1c
 807 021a 05       		.byte	0x5
 808 021b 50       		.byte	0x50
 809 021c 83020000 		.4byte	0x283
 810 0220 0B       		.uleb128 0xb
 811 0221 56080000 		.4byte	.LASF35
 812 0225 05       		.byte	0x5
 813 0226 55       		.byte	0x55
 814 0227 83020000 		.4byte	0x283
 815 022b 02       		.byte	0x2
 816 022c 23       		.byte	0x23
 817 022d 00       		.uleb128 0
 818 022e 0B       		.uleb128 0xb
 819 022f DF000000 		.4byte	.LASF36
 820 0233 05       		.byte	0x5
 821 0234 59       		.byte	0x59
 822 0235 90000000 		.4byte	0x90
 823 0239 02       		.byte	0x2
 824 023a 23       		.byte	0x23
 825 023b 04       		.uleb128 0x4
 826 023c 0B       		.uleb128 0xb
 827 023d C3000000 		.4byte	.LASF37
 828 0241 05       		.byte	0x5
 829 0242 5D       		.byte	0x5d
 830 0243 19010000 		.4byte	0x119
 831 0247 02       		.byte	0x2
 832 0248 23       		.byte	0x23
 833 0249 05       		.uleb128 0x5
 834 024a 0B       		.uleb128 0xb
 835 024b 57090000 		.4byte	.LASF38
 836 024f 05       		.byte	0x5
 837 0250 61       		.byte	0x61
 838 0251 89020000 		.4byte	0x289
 839 0255 02       		.byte	0x2
 840 0256 23       		.byte	0x23
 841 0257 06       		.uleb128 0x6
 842 0258 0B       		.uleb128 0xb
 843 0259 9C000000 		.4byte	.LASF39
 844 025d 05       		.byte	0x5
 845 025e 65       		.byte	0x65
 846 025f 89020000 		.4byte	0x289
 847 0263 02       		.byte	0x2
 848 0264 23       		.byte	0x23
 849 0265 0E       		.uleb128 0xe
 850 0266 0B       		.uleb128 0xb
 851 0267 91030000 		.4byte	.LASF40
 852 026b 05       		.byte	0x5
 853 026c 69       		.byte	0x69
 854 026d A0000000 		.4byte	0xa0
 855 0271 02       		.byte	0x2
 856 0272 23       		.byte	0x23
 857 0273 16       		.uleb128 0x16
ARM GAS  C:\Users\EBANO_~1\AppData\Local\Temp\cc3CSO1m.s 			page 20


 858 0274 0E       		.uleb128 0xe
 859 0275 4D494300 		.ascii	"MIC\000"
 860 0279 05       		.byte	0x5
 861 027a 6D       		.byte	0x6d
 862 027b AB000000 		.4byte	0xab
 863 027f 02       		.byte	0x2
 864 0280 23       		.byte	0x23
 865 0281 18       		.uleb128 0x18
 866 0282 00       		.byte	0
 867 0283 0F       		.uleb128 0xf
 868 0284 04       		.byte	0x4
 869 0285 90000000 		.4byte	0x90
 870 0289 0C       		.uleb128 0xc
 871 028a 90000000 		.4byte	0x90
 872 028e 99020000 		.4byte	0x299
 873 0292 0D       		.uleb128 0xd
 874 0293 89000000 		.4byte	0x89
 875 0297 07       		.byte	0x7
 876 0298 00       		.byte	0
 877 0299 03       		.uleb128 0x3
 878 029a DA070000 		.4byte	.LASF41
 879 029e 05       		.byte	0x5
 880 029f 6E       		.byte	0x6e
 881 02a0 14020000 		.4byte	0x214
 882 02a4 06       		.uleb128 0x6
 883 02a5 F9060000 		.4byte	.LASF42
 884 02a9 20       		.byte	0x20
 885 02aa 05       		.byte	0x5
 886 02ab 73       		.byte	0x73
 887 02ac 21030000 		.4byte	0x321
 888 02b0 0B       		.uleb128 0xb
 889 02b1 56080000 		.4byte	.LASF35
 890 02b5 05       		.byte	0x5
 891 02b6 78       		.byte	0x78
 892 02b7 83020000 		.4byte	0x283
 893 02bb 02       		.byte	0x2
 894 02bc 23       		.byte	0x23
 895 02bd 00       		.uleb128 0
 896 02be 0B       		.uleb128 0xb
 897 02bf DF000000 		.4byte	.LASF36
 898 02c3 05       		.byte	0x5
 899 02c4 7C       		.byte	0x7c
 900 02c5 90000000 		.4byte	0x90
 901 02c9 02       		.byte	0x2
 902 02ca 23       		.byte	0x23
 903 02cb 04       		.uleb128 0x4
 904 02cc 0B       		.uleb128 0xb
 905 02cd C3000000 		.4byte	.LASF37
 906 02d1 05       		.byte	0x5
 907 02d2 80       		.byte	0x80
 908 02d3 19010000 		.4byte	0x119
 909 02d7 02       		.byte	0x2
 910 02d8 23       		.byte	0x23
 911 02d9 05       		.uleb128 0x5
 912 02da 0B       		.uleb128 0xb
 913 02db 91000000 		.4byte	.LASF43
 914 02df 05       		.byte	0x5
ARM GAS  C:\Users\EBANO_~1\AppData\Local\Temp\cc3CSO1m.s 			page 21


 915 02e0 84       		.byte	0x84
 916 02e1 90000000 		.4byte	0x90
 917 02e5 02       		.byte	0x2
 918 02e6 23       		.byte	0x23
 919 02e7 06       		.uleb128 0x6
 920 02e8 0B       		.uleb128 0xb
 921 02e9 57090000 		.4byte	.LASF38
 922 02ed 05       		.byte	0x5
 923 02ee 88       		.byte	0x88
 924 02ef 89020000 		.4byte	0x289
 925 02f3 02       		.byte	0x2
 926 02f4 23       		.byte	0x23
 927 02f5 07       		.uleb128 0x7
 928 02f6 0B       		.uleb128 0xb
 929 02f7 9C000000 		.4byte	.LASF39
 930 02fb 05       		.byte	0x5
 931 02fc 8C       		.byte	0x8c
 932 02fd 89020000 		.4byte	0x289
 933 0301 02       		.byte	0x2
 934 0302 23       		.byte	0x23
 935 0303 0F       		.uleb128 0xf
 936 0304 0B       		.uleb128 0xb
 937 0305 39030000 		.4byte	.LASF44
 938 0309 05       		.byte	0x5
 939 030a 90       		.byte	0x90
 940 030b A0000000 		.4byte	0xa0
 941 030f 02       		.byte	0x2
 942 0310 23       		.byte	0x23
 943 0311 18       		.uleb128 0x18
 944 0312 0E       		.uleb128 0xe
 945 0313 4D494300 		.ascii	"MIC\000"
 946 0317 05       		.byte	0x5
 947 0318 94       		.byte	0x94
 948 0319 AB000000 		.4byte	0xab
 949 031d 02       		.byte	0x2
 950 031e 23       		.byte	0x23
 951 031f 1C       		.uleb128 0x1c
 952 0320 00       		.byte	0
 953 0321 03       		.uleb128 0x3
 954 0322 DF040000 		.4byte	.LASF45
 955 0326 05       		.byte	0x5
 956 0327 95       		.byte	0x95
 957 0328 A4020000 		.4byte	0x2a4
 958 032c 06       		.uleb128 0x6
 959 032d 1E010000 		.4byte	.LASF46
 960 0331 18       		.byte	0x18
 961 0332 05       		.byte	0x5
 962 0333 9A       		.byte	0x9a
 963 0334 A9030000 		.4byte	0x3a9
 964 0338 0B       		.uleb128 0xb
 965 0339 56080000 		.4byte	.LASF35
 966 033d 05       		.byte	0x5
 967 033e 9F       		.byte	0x9f
 968 033f 83020000 		.4byte	0x283
 969 0343 02       		.byte	0x2
 970 0344 23       		.byte	0x23
 971 0345 00       		.uleb128 0
ARM GAS  C:\Users\EBANO_~1\AppData\Local\Temp\cc3CSO1m.s 			page 22


 972 0346 0B       		.uleb128 0xb
 973 0347 DF000000 		.4byte	.LASF36
 974 034b 05       		.byte	0x5
 975 034c A3       		.byte	0xa3
 976 034d 90000000 		.4byte	0x90
 977 0351 02       		.byte	0x2
 978 0352 23       		.byte	0x23
 979 0353 04       		.uleb128 0x4
 980 0354 0B       		.uleb128 0xb
 981 0355 C3000000 		.4byte	.LASF37
 982 0359 05       		.byte	0x5
 983 035a A7       		.byte	0xa7
 984 035b 19010000 		.4byte	0x119
 985 035f 02       		.byte	0x2
 986 0360 23       		.byte	0x23
 987 0361 05       		.uleb128 0x5
 988 0362 0B       		.uleb128 0xb
 989 0363 91000000 		.4byte	.LASF43
 990 0367 05       		.byte	0x5
 991 0368 AB       		.byte	0xab
 992 0369 90000000 		.4byte	0x90
 993 036d 02       		.byte	0x2
 994 036e 23       		.byte	0x23
 995 036f 06       		.uleb128 0x6
 996 0370 0B       		.uleb128 0xb
 997 0371 09010000 		.4byte	.LASF47
 998 0375 05       		.byte	0x5
 999 0376 AF       		.byte	0xaf
 1000 0377 A9030000 		.4byte	0x3a9
 1001 037b 02       		.byte	0x2
 1002 037c 23       		.byte	0x23
 1003 037d 07       		.uleb128 0x7
 1004 037e 0B       		.uleb128 0xb
 1005 037f 9C000000 		.4byte	.LASF39
 1006 0383 05       		.byte	0x5
 1007 0384 B3       		.byte	0xb3
 1008 0385 89020000 		.4byte	0x289
 1009 0389 02       		.byte	0x2
 1010 038a 23       		.byte	0x23
 1011 038b 0A       		.uleb128 0xa
 1012 038c 0B       		.uleb128 0xb
 1013 038d 30030000 		.4byte	.LASF48
 1014 0391 05       		.byte	0x5
 1015 0392 B7       		.byte	0xb7
 1016 0393 A0000000 		.4byte	0xa0
 1017 0397 02       		.byte	0x2
 1018 0398 23       		.byte	0x23
 1019 0399 12       		.uleb128 0x12
 1020 039a 0E       		.uleb128 0xe
 1021 039b 4D494300 		.ascii	"MIC\000"
 1022 039f 05       		.byte	0x5
 1023 03a0 BB       		.byte	0xbb
 1024 03a1 AB000000 		.4byte	0xab
 1025 03a5 02       		.byte	0x2
 1026 03a6 23       		.byte	0x23
 1027 03a7 14       		.uleb128 0x14
 1028 03a8 00       		.byte	0
ARM GAS  C:\Users\EBANO_~1\AppData\Local\Temp\cc3CSO1m.s 			page 23


 1029 03a9 0C       		.uleb128 0xc
 1030 03aa 90000000 		.4byte	0x90
 1031 03ae B9030000 		.4byte	0x3b9
 1032 03b2 0D       		.uleb128 0xd
 1033 03b3 89000000 		.4byte	0x89
 1034 03b7 02       		.byte	0x2
 1035 03b8 00       		.byte	0
 1036 03b9 03       		.uleb128 0x3
 1037 03ba D2060000 		.4byte	.LASF49
 1038 03be 05       		.byte	0x5
 1039 03bf BC       		.byte	0xbc
 1040 03c0 2C030000 		.4byte	0x32c
 1041 03c4 06       		.uleb128 0x6
 1042 03c5 6C010000 		.4byte	.LASF50
 1043 03c9 30       		.byte	0x30
 1044 03ca 05       		.byte	0x5
 1045 03cb F2       		.byte	0xf2
 1046 03cc 46040000 		.4byte	0x446
 1047 03d0 0B       		.uleb128 0xb
 1048 03d1 56080000 		.4byte	.LASF35
 1049 03d5 05       		.byte	0x5
 1050 03d6 F7       		.byte	0xf7
 1051 03d7 83020000 		.4byte	0x283
 1052 03db 02       		.byte	0x2
 1053 03dc 23       		.byte	0x23
 1054 03dd 00       		.uleb128 0
 1055 03de 0B       		.uleb128 0xb
 1056 03df DF000000 		.4byte	.LASF36
 1057 03e3 05       		.byte	0x5
 1058 03e4 FB       		.byte	0xfb
 1059 03e5 90000000 		.4byte	0x90
 1060 03e9 02       		.byte	0x2
 1061 03ea 23       		.byte	0x23
 1062 03eb 04       		.uleb128 0x4
 1063 03ec 0B       		.uleb128 0xb
 1064 03ed C3000000 		.4byte	.LASF37
 1065 03f1 05       		.byte	0x5
 1066 03f2 FF       		.byte	0xff
 1067 03f3 19010000 		.4byte	0x119
 1068 03f7 02       		.byte	0x2
 1069 03f8 23       		.byte	0x23
 1070 03f9 05       		.uleb128 0x5
 1071 03fa 10       		.uleb128 0x10
 1072 03fb 21080000 		.4byte	.LASF51
 1073 03ff 05       		.byte	0x5
 1074 0400 0301     		.2byte	0x103
 1075 0402 09020000 		.4byte	0x209
 1076 0406 02       		.byte	0x2
 1077 0407 23       		.byte	0x23
 1078 0408 08       		.uleb128 0x8
 1079 0409 10       		.uleb128 0x10
 1080 040a 66070000 		.4byte	.LASF52
 1081 040e 05       		.byte	0x5
 1082 040f 0701     		.2byte	0x107
 1083 0411 90000000 		.4byte	0x90
 1084 0415 02       		.byte	0x2
 1085 0416 23       		.byte	0x23
ARM GAS  C:\Users\EBANO_~1\AppData\Local\Temp\cc3CSO1m.s 			page 24


 1086 0417 20       		.uleb128 0x20
 1087 0418 10       		.uleb128 0x10
 1088 0419 7F040000 		.4byte	.LASF53
 1089 041d 05       		.byte	0x5
 1090 041e 0B01     		.2byte	0x10b
 1091 0420 83020000 		.4byte	0x283
 1092 0424 02       		.byte	0x2
 1093 0425 23       		.byte	0x23
 1094 0426 24       		.uleb128 0x24
 1095 0427 10       		.uleb128 0x10
 1096 0428 E7000000 		.4byte	.LASF54
 1097 042c 05       		.byte	0x5
 1098 042d 0F01     		.2byte	0x10f
 1099 042f 90000000 		.4byte	0x90
 1100 0433 02       		.byte	0x2
 1101 0434 23       		.byte	0x23
 1102 0435 28       		.uleb128 0x28
 1103 0436 11       		.uleb128 0x11
 1104 0437 4D494300 		.ascii	"MIC\000"
 1105 043b 05       		.byte	0x5
 1106 043c 1301     		.2byte	0x113
 1107 043e AB000000 		.4byte	0xab
 1108 0442 02       		.byte	0x2
 1109 0443 23       		.byte	0x23
 1110 0444 2C       		.uleb128 0x2c
 1111 0445 00       		.byte	0
 1112 0446 12       		.uleb128 0x12
 1113 0447 00000000 		.4byte	.LASF55
 1114 044b 05       		.byte	0x5
 1115 044c 1401     		.2byte	0x114
 1116 044e C4030000 		.4byte	0x3c4
 1117 0452 13       		.uleb128 0x13
 1118 0453 B9020000 		.4byte	.LASF190
 1119 0457 07       		.byte	0x7
 1120 0458 01       		.byte	0x1
 1121 0459 3B000000 		.4byte	0x3b
 1122 045d 06       		.byte	0x6
 1123 045e 2E       		.byte	0x2e
 1124 045f 7C040000 		.4byte	0x47c
 1125 0463 14       		.uleb128 0x14
 1126 0464 75090000 		.4byte	.LASF56
 1127 0468 00       		.byte	0
 1128 0469 14       		.uleb128 0x14
 1129 046a 26000000 		.4byte	.LASF57
 1130 046e 01       		.byte	0x1
 1131 046f 14       		.uleb128 0x14
 1132 0470 B4030000 		.4byte	.LASF58
 1133 0474 02       		.byte	0x2
 1134 0475 14       		.uleb128 0x14
 1135 0476 B8050000 		.4byte	.LASF59
 1136 047a 03       		.byte	0x3
 1137 047b 00       		.byte	0
 1138 047c 03       		.uleb128 0x3
 1139 047d 91060000 		.4byte	.LASF60
 1140 0481 06       		.byte	0x6
 1141 0482 40       		.byte	0x40
 1142 0483 52040000 		.4byte	0x452
ARM GAS  C:\Users\EBANO_~1\AppData\Local\Temp\cc3CSO1m.s 			page 25


 1143 0487 15       		.uleb128 0x15
 1144 0488 E6020000 		.4byte	.LASF61
 1145 048c 07       		.byte	0x7
 1146 048d 4A       		.byte	0x4a
 1147 048e AB000000 		.4byte	0xab
 1148 0492 01       		.byte	0x1
 1149 0493 01       		.byte	0x1
 1150 0494 0C       		.uleb128 0xc
 1151 0495 9B000000 		.4byte	0x9b
 1152 0499 A4040000 		.4byte	0x4a4
 1153 049d 0D       		.uleb128 0xd
 1154 049e 89000000 		.4byte	0x89
 1155 04a2 0F       		.byte	0xf
 1156 04a3 00       		.byte	0
 1157 04a4 05       		.uleb128 0x5
 1158 04a5 94040000 		.4byte	0x494
 1159 04a9 15       		.uleb128 0x15
 1160 04aa 6C070000 		.4byte	.LASF62
 1161 04ae 07       		.byte	0x7
 1162 04af 4D       		.byte	0x4d
 1163 04b0 A4040000 		.4byte	0x4a4
 1164 04b4 01       		.byte	0x1
 1165 04b5 01       		.byte	0x1
 1166 04b6 0C       		.uleb128 0xc
 1167 04b7 9B000000 		.4byte	0x9b
 1168 04bb C6040000 		.4byte	0x4c6
 1169 04bf 0D       		.uleb128 0xd
 1170 04c0 89000000 		.4byte	0x89
 1171 04c4 07       		.byte	0x7
 1172 04c5 00       		.byte	0
 1173 04c6 05       		.uleb128 0x5
 1174 04c7 B6040000 		.4byte	0x4b6
 1175 04cb 15       		.uleb128 0x15
 1176 04cc 96020000 		.4byte	.LASF63
 1177 04d0 07       		.byte	0x7
 1178 04d1 4E       		.byte	0x4e
 1179 04d2 C6040000 		.4byte	0x4c6
 1180 04d6 01       		.byte	0x1
 1181 04d7 01       		.byte	0x1
 1182 04d8 0C       		.uleb128 0xc
 1183 04d9 9B000000 		.4byte	0x9b
 1184 04dd E8040000 		.4byte	0x4e8
 1185 04e1 0D       		.uleb128 0xd
 1186 04e2 89000000 		.4byte	0x89
 1187 04e6 08       		.byte	0x8
 1188 04e7 00       		.byte	0
 1189 04e8 05       		.uleb128 0x5
 1190 04e9 D8040000 		.4byte	0x4d8
 1191 04ed 15       		.uleb128 0x15
 1192 04ee 22040000 		.4byte	.LASF64
 1193 04f2 07       		.byte	0x7
 1194 04f3 4F       		.byte	0x4f
 1195 04f4 E8040000 		.4byte	0x4e8
 1196 04f8 01       		.byte	0x1
 1197 04f9 01       		.byte	0x1
 1198 04fa 02       		.uleb128 0x2
 1199 04fb 08       		.byte	0x8
ARM GAS  C:\Users\EBANO_~1\AppData\Local\Temp\cc3CSO1m.s 			page 26


 1200 04fc 04       		.byte	0x4
 1201 04fd 14070000 		.4byte	.LASF65
 1202 0501 16       		.uleb128 0x16
 1203 0502 04       		.byte	0x4
 1204 0503 03       		.uleb128 0x3
 1205 0504 89030000 		.4byte	.LASF66
 1206 0508 08       		.byte	0x8
 1207 0509 22       		.byte	0x22
 1208 050a 0E050000 		.4byte	0x50e
 1209 050e 0F       		.uleb128 0xf
 1210 050f 04       		.byte	0x4
 1211 0510 14050000 		.4byte	0x514
 1212 0514 17       		.uleb128 0x17
 1213 0515 B3060000 		.4byte	.LASF173
 1214 0519 01       		.byte	0x1
 1215 051a 03       		.uleb128 0x3
 1216 051b 4C010000 		.4byte	.LASF67
 1217 051f 09       		.byte	0x9
 1218 0520 2C       		.byte	0x2c
 1219 0521 5B000000 		.4byte	0x5b
 1220 0525 03       		.uleb128 0x3
 1221 0526 F1060000 		.4byte	.LASF68
 1222 052a 09       		.byte	0x9
 1223 052b 72       		.byte	0x72
 1224 052c 5B000000 		.4byte	0x5b
 1225 0530 12       		.uleb128 0x12
 1226 0531 BF040000 		.4byte	.LASF69
 1227 0535 0A       		.byte	0xa
 1228 0536 6501     		.2byte	0x165
 1229 0538 89000000 		.4byte	0x89
 1230 053c 18       		.uleb128 0x18
 1231 053d 04       		.byte	0x4
 1232 053e 09       		.byte	0x9
 1233 053f A6       		.byte	0xa6
 1234 0540 5B050000 		.4byte	0x55b
 1235 0544 0A       		.uleb128 0xa
 1236 0545 83030000 		.4byte	.LASF70
 1237 0549 09       		.byte	0x9
 1238 054a A8       		.byte	0xa8
 1239 054b 30050000 		.4byte	0x530
 1240 054f 0A       		.uleb128 0xa
 1241 0550 DF020000 		.4byte	.LASF71
 1242 0554 09       		.byte	0x9
 1243 0555 A9       		.byte	0xa9
 1244 0556 5B050000 		.4byte	0x55b
 1245 055a 00       		.byte	0
 1246 055b 0C       		.uleb128 0xc
 1247 055c 3B000000 		.4byte	0x3b
 1248 0560 6B050000 		.4byte	0x56b
 1249 0564 0D       		.uleb128 0xd
 1250 0565 89000000 		.4byte	0x89
 1251 0569 03       		.byte	0x3
 1252 056a 00       		.byte	0
 1253 056b 19       		.uleb128 0x19
 1254 056c 08       		.byte	0x8
 1255 056d 09       		.byte	0x9
 1256 056e A3       		.byte	0xa3
ARM GAS  C:\Users\EBANO_~1\AppData\Local\Temp\cc3CSO1m.s 			page 27


 1257 056f 90050000 		.4byte	0x590
 1258 0573 0B       		.uleb128 0xb
 1259 0574 AB060000 		.4byte	.LASF72
 1260 0578 09       		.byte	0x9
 1261 0579 A5       		.byte	0xa5
 1262 057a 82000000 		.4byte	0x82
 1263 057e 02       		.byte	0x2
 1264 057f 23       		.byte	0x23
 1265 0580 00       		.uleb128 0
 1266 0581 0B       		.uleb128 0xb
 1267 0582 BA060000 		.4byte	.LASF73
 1268 0586 09       		.byte	0x9
 1269 0587 AA       		.byte	0xaa
 1270 0588 3C050000 		.4byte	0x53c
 1271 058c 02       		.byte	0x2
 1272 058d 23       		.byte	0x23
 1273 058e 04       		.uleb128 0x4
 1274 058f 00       		.byte	0
 1275 0590 03       		.uleb128 0x3
 1276 0591 0F060000 		.4byte	.LASF74
 1277 0595 09       		.byte	0x9
 1278 0596 AB       		.byte	0xab
 1279 0597 6B050000 		.4byte	0x56b
 1280 059b 03       		.uleb128 0x3
 1281 059c E6050000 		.4byte	.LASF75
 1282 05a0 09       		.byte	0x9
 1283 05a1 AF       		.byte	0xaf
 1284 05a2 03050000 		.4byte	0x503
 1285 05a6 03       		.uleb128 0x3
 1286 05a7 F6070000 		.4byte	.LASF76
 1287 05ab 0B       		.byte	0xb
 1288 05ac 16       		.byte	0x16
 1289 05ad 6D000000 		.4byte	0x6d
 1290 05b1 06       		.uleb128 0x6
 1291 05b2 8E020000 		.4byte	.LASF77
 1292 05b6 18       		.byte	0x18
 1293 05b7 0B       		.byte	0xb
 1294 05b8 2F       		.byte	0x2f
 1295 05b9 10060000 		.4byte	0x610
 1296 05bd 0B       		.uleb128 0xb
 1297 05be 7A070000 		.4byte	.LASF78
 1298 05c2 0B       		.byte	0xb
 1299 05c3 31       		.byte	0x31
 1300 05c4 10060000 		.4byte	0x610
 1301 05c8 02       		.byte	0x2
 1302 05c9 23       		.byte	0x23
 1303 05ca 00       		.uleb128 0
 1304 05cb 0E       		.uleb128 0xe
 1305 05cc 5F6B00   		.ascii	"_k\000"
 1306 05cf 0B       		.byte	0xb
 1307 05d0 32       		.byte	0x32
 1308 05d1 82000000 		.4byte	0x82
 1309 05d5 02       		.byte	0x2
 1310 05d6 23       		.byte	0x23
 1311 05d7 04       		.uleb128 0x4
 1312 05d8 0B       		.uleb128 0xb
 1313 05d9 7C060000 		.4byte	.LASF79
ARM GAS  C:\Users\EBANO_~1\AppData\Local\Temp\cc3CSO1m.s 			page 28


 1314 05dd 0B       		.byte	0xb
 1315 05de 32       		.byte	0x32
 1316 05df 82000000 		.4byte	0x82
 1317 05e3 02       		.byte	0x2
 1318 05e4 23       		.byte	0x23
 1319 05e5 08       		.uleb128 0x8
 1320 05e6 0B       		.uleb128 0xb
 1321 05e7 74020000 		.4byte	.LASF80
 1322 05eb 0B       		.byte	0xb
 1323 05ec 32       		.byte	0x32
 1324 05ed 82000000 		.4byte	0x82
 1325 05f1 02       		.byte	0x2
 1326 05f2 23       		.byte	0x23
 1327 05f3 0C       		.uleb128 0xc
 1328 05f4 0B       		.uleb128 0xb
 1329 05f5 67080000 		.4byte	.LASF81
 1330 05f9 0B       		.byte	0xb
 1331 05fa 32       		.byte	0x32
 1332 05fb 82000000 		.4byte	0x82
 1333 05ff 02       		.byte	0x2
 1334 0600 23       		.byte	0x23
 1335 0601 10       		.uleb128 0x10
 1336 0602 0E       		.uleb128 0xe
 1337 0603 5F7800   		.ascii	"_x\000"
 1338 0606 0B       		.byte	0xb
 1339 0607 33       		.byte	0x33
 1340 0608 16060000 		.4byte	0x616
 1341 060c 02       		.byte	0x2
 1342 060d 23       		.byte	0x23
 1343 060e 14       		.uleb128 0x14
 1344 060f 00       		.byte	0
 1345 0610 0F       		.uleb128 0xf
 1346 0611 04       		.byte	0x4
 1347 0612 B1050000 		.4byte	0x5b1
 1348 0616 0C       		.uleb128 0xc
 1349 0617 A6050000 		.4byte	0x5a6
 1350 061b 26060000 		.4byte	0x626
 1351 061f 0D       		.uleb128 0xd
 1352 0620 89000000 		.4byte	0x89
 1353 0624 00       		.byte	0
 1354 0625 00       		.byte	0
 1355 0626 06       		.uleb128 0x6
 1356 0627 D2020000 		.4byte	.LASF82
 1357 062b 24       		.byte	0x24
 1358 062c 0B       		.byte	0xb
 1359 062d 37       		.byte	0x37
 1360 062e B1060000 		.4byte	0x6b1
 1361 0632 0B       		.uleb128 0xb
 1362 0633 3C010000 		.4byte	.LASF83
 1363 0637 0B       		.byte	0xb
 1364 0638 39       		.byte	0x39
 1365 0639 82000000 		.4byte	0x82
 1366 063d 02       		.byte	0x2
 1367 063e 23       		.byte	0x23
 1368 063f 00       		.uleb128 0
 1369 0640 0B       		.uleb128 0xb
 1370 0641 49090000 		.4byte	.LASF84
ARM GAS  C:\Users\EBANO_~1\AppData\Local\Temp\cc3CSO1m.s 			page 29


 1371 0645 0B       		.byte	0xb
 1372 0646 3A       		.byte	0x3a
 1373 0647 82000000 		.4byte	0x82
 1374 064b 02       		.byte	0x2
 1375 064c 23       		.byte	0x23
 1376 064d 04       		.uleb128 0x4
 1377 064e 0B       		.uleb128 0xb
 1378 064f A3010000 		.4byte	.LASF85
 1379 0653 0B       		.byte	0xb
 1380 0654 3B       		.byte	0x3b
 1381 0655 82000000 		.4byte	0x82
 1382 0659 02       		.byte	0x2
 1383 065a 23       		.byte	0x23
 1384 065b 08       		.uleb128 0x8
 1385 065c 0B       		.uleb128 0xb
 1386 065d 96090000 		.4byte	.LASF86
 1387 0661 0B       		.byte	0xb
 1388 0662 3C       		.byte	0x3c
 1389 0663 82000000 		.4byte	0x82
 1390 0667 02       		.byte	0x2
 1391 0668 23       		.byte	0x23
 1392 0669 0C       		.uleb128 0xc
 1393 066a 0B       		.uleb128 0xb
 1394 066b 8A040000 		.4byte	.LASF87
 1395 066f 0B       		.byte	0xb
 1396 0670 3D       		.byte	0x3d
 1397 0671 82000000 		.4byte	0x82
 1398 0675 02       		.byte	0x2
 1399 0676 23       		.byte	0x23
 1400 0677 10       		.uleb128 0x10
 1401 0678 0B       		.uleb128 0xb
 1402 0679 E7030000 		.4byte	.LASF88
 1403 067d 0B       		.byte	0xb
 1404 067e 3E       		.byte	0x3e
 1405 067f 82000000 		.4byte	0x82
 1406 0683 02       		.byte	0x2
 1407 0684 23       		.byte	0x23
 1408 0685 14       		.uleb128 0x14
 1409 0686 0B       		.uleb128 0xb
 1410 0687 C8060000 		.4byte	.LASF89
 1411 068b 0B       		.byte	0xb
 1412 068c 3F       		.byte	0x3f
 1413 068d 82000000 		.4byte	0x82
 1414 0691 02       		.byte	0x2
 1415 0692 23       		.byte	0x23
 1416 0693 18       		.uleb128 0x18
 1417 0694 0B       		.uleb128 0xb
 1418 0695 EF050000 		.4byte	.LASF90
 1419 0699 0B       		.byte	0xb
 1420 069a 40       		.byte	0x40
 1421 069b 82000000 		.4byte	0x82
 1422 069f 02       		.byte	0x2
 1423 06a0 23       		.byte	0x23
 1424 06a1 1C       		.uleb128 0x1c
 1425 06a2 0B       		.uleb128 0xb
 1426 06a3 07040000 		.4byte	.LASF91
 1427 06a7 0B       		.byte	0xb
ARM GAS  C:\Users\EBANO_~1\AppData\Local\Temp\cc3CSO1m.s 			page 30


 1428 06a8 41       		.byte	0x41
 1429 06a9 82000000 		.4byte	0x82
 1430 06ad 02       		.byte	0x2
 1431 06ae 23       		.byte	0x23
 1432 06af 20       		.uleb128 0x20
 1433 06b0 00       		.byte	0
 1434 06b1 1A       		.uleb128 0x1a
 1435 06b2 B2010000 		.4byte	.LASF92
 1436 06b6 0801     		.2byte	0x108
 1437 06b8 0B       		.byte	0xb
 1438 06b9 4A       		.byte	0x4a
 1439 06ba FA060000 		.4byte	0x6fa
 1440 06be 0B       		.uleb128 0xb
 1441 06bf 43000000 		.4byte	.LASF93
 1442 06c3 0B       		.byte	0xb
 1443 06c4 4B       		.byte	0x4b
 1444 06c5 FA060000 		.4byte	0x6fa
 1445 06c9 02       		.byte	0x2
 1446 06ca 23       		.byte	0x23
 1447 06cb 00       		.uleb128 0
 1448 06cc 0B       		.uleb128 0xb
 1449 06cd 52060000 		.4byte	.LASF94
 1450 06d1 0B       		.byte	0xb
 1451 06d2 4C       		.byte	0x4c
 1452 06d3 FA060000 		.4byte	0x6fa
 1453 06d7 03       		.byte	0x3
 1454 06d8 23       		.byte	0x23
 1455 06d9 8001     		.uleb128 0x80
 1456 06db 0B       		.uleb128 0xb
 1457 06dc 96070000 		.4byte	.LASF95
 1458 06e0 0B       		.byte	0xb
 1459 06e1 4E       		.byte	0x4e
 1460 06e2 A6050000 		.4byte	0x5a6
 1461 06e6 03       		.byte	0x3
 1462 06e7 23       		.byte	0x23
 1463 06e8 8002     		.uleb128 0x100
 1464 06ea 0B       		.uleb128 0xb
 1465 06eb E0010000 		.4byte	.LASF96
 1466 06ef 0B       		.byte	0xb
 1467 06f0 51       		.byte	0x51
 1468 06f1 A6050000 		.4byte	0x5a6
 1469 06f5 03       		.byte	0x3
 1470 06f6 23       		.byte	0x23
 1471 06f7 8402     		.uleb128 0x104
 1472 06f9 00       		.byte	0
 1473 06fa 0C       		.uleb128 0xc
 1474 06fb 01050000 		.4byte	0x501
 1475 06ff 0A070000 		.4byte	0x70a
 1476 0703 0D       		.uleb128 0xd
 1477 0704 89000000 		.4byte	0x89
 1478 0708 1F       		.byte	0x1f
 1479 0709 00       		.byte	0
 1480 070a 1A       		.uleb128 0x1a
 1481 070b 93040000 		.4byte	.LASF97
 1482 070f 9001     		.2byte	0x190
 1483 0711 0B       		.byte	0xb
 1484 0712 5D       		.byte	0x5d
ARM GAS  C:\Users\EBANO_~1\AppData\Local\Temp\cc3CSO1m.s 			page 31


 1485 0713 51070000 		.4byte	0x751
 1486 0717 0B       		.uleb128 0xb
 1487 0718 7A070000 		.4byte	.LASF78
 1488 071c 0B       		.byte	0xb
 1489 071d 5E       		.byte	0x5e
 1490 071e 51070000 		.4byte	0x751
 1491 0722 02       		.byte	0x2
 1492 0723 23       		.byte	0x23
 1493 0724 00       		.uleb128 0
 1494 0725 0B       		.uleb128 0xb
 1495 0726 3D060000 		.4byte	.LASF98
 1496 072a 0B       		.byte	0xb
 1497 072b 5F       		.byte	0x5f
 1498 072c 82000000 		.4byte	0x82
 1499 0730 02       		.byte	0x2
 1500 0731 23       		.byte	0x23
 1501 0732 04       		.uleb128 0x4
 1502 0733 0B       		.uleb128 0xb
 1503 0734 5E020000 		.4byte	.LASF99
 1504 0738 0B       		.byte	0xb
 1505 0739 61       		.byte	0x61
 1506 073a 57070000 		.4byte	0x757
 1507 073e 02       		.byte	0x2
 1508 073f 23       		.byte	0x23
 1509 0740 08       		.uleb128 0x8
 1510 0741 0B       		.uleb128 0xb
 1511 0742 B2010000 		.4byte	.LASF92
 1512 0746 0B       		.byte	0xb
 1513 0747 62       		.byte	0x62
 1514 0748 B1060000 		.4byte	0x6b1
 1515 074c 03       		.byte	0x3
 1516 074d 23       		.byte	0x23
 1517 074e 8801     		.uleb128 0x88
 1518 0750 00       		.byte	0
 1519 0751 0F       		.uleb128 0xf
 1520 0752 04       		.byte	0x4
 1521 0753 0A070000 		.4byte	0x70a
 1522 0757 0C       		.uleb128 0xc
 1523 0758 67070000 		.4byte	0x767
 1524 075c 67070000 		.4byte	0x767
 1525 0760 0D       		.uleb128 0xd
 1526 0761 89000000 		.4byte	0x89
 1527 0765 1F       		.byte	0x1f
 1528 0766 00       		.byte	0
 1529 0767 0F       		.uleb128 0xf
 1530 0768 04       		.byte	0x4
 1531 0769 6D070000 		.4byte	0x76d
 1532 076d 1B       		.uleb128 0x1b
 1533 076e 01       		.byte	0x1
 1534 076f 06       		.uleb128 0x6
 1535 0770 F9050000 		.4byte	.LASF100
 1536 0774 08       		.byte	0x8
 1537 0775 0B       		.byte	0xb
 1538 0776 75       		.byte	0x75
 1539 0777 98070000 		.4byte	0x798
 1540 077b 0B       		.uleb128 0xb
 1541 077c 80010000 		.4byte	.LASF101
ARM GAS  C:\Users\EBANO_~1\AppData\Local\Temp\cc3CSO1m.s 			page 32


 1542 0780 0B       		.byte	0xb
 1543 0781 76       		.byte	0x76
 1544 0782 98070000 		.4byte	0x798
 1545 0786 02       		.byte	0x2
 1546 0787 23       		.byte	0x23
 1547 0788 00       		.uleb128 0
 1548 0789 0B       		.uleb128 0xb
 1549 078a 35070000 		.4byte	.LASF102
 1550 078e 0B       		.byte	0xb
 1551 078f 77       		.byte	0x77
 1552 0790 82000000 		.4byte	0x82
 1553 0794 02       		.byte	0x2
 1554 0795 23       		.byte	0x23
 1555 0796 04       		.uleb128 0x4
 1556 0797 00       		.byte	0
 1557 0798 0F       		.uleb128 0xf
 1558 0799 04       		.byte	0x4
 1559 079a 3B000000 		.4byte	0x3b
 1560 079e 06       		.uleb128 0x6
 1561 079f 1A060000 		.4byte	.LASF103
 1562 07a3 68       		.byte	0x68
 1563 07a4 0B       		.byte	0xb
 1564 07a5 B5       		.byte	0xb5
 1565 07a6 F8080000 		.4byte	0x8f8
 1566 07aa 0E       		.uleb128 0xe
 1567 07ab 5F7000   		.ascii	"_p\000"
 1568 07ae 0B       		.byte	0xb
 1569 07af B6       		.byte	0xb6
 1570 07b0 98070000 		.4byte	0x798
 1571 07b4 02       		.byte	0x2
 1572 07b5 23       		.byte	0x23
 1573 07b6 00       		.uleb128 0
 1574 07b7 0E       		.uleb128 0xe
 1575 07b8 5F7200   		.ascii	"_r\000"
 1576 07bb 0B       		.byte	0xb
 1577 07bc B7       		.byte	0xb7
 1578 07bd 82000000 		.4byte	0x82
 1579 07c1 02       		.byte	0x2
 1580 07c2 23       		.byte	0x23
 1581 07c3 04       		.uleb128 0x4
 1582 07c4 0E       		.uleb128 0xe
 1583 07c5 5F7700   		.ascii	"_w\000"
 1584 07c8 0B       		.byte	0xb
 1585 07c9 B8       		.byte	0xb8
 1586 07ca 82000000 		.4byte	0x82
 1587 07ce 02       		.byte	0x2
 1588 07cf 23       		.byte	0x23
 1589 07d0 08       		.uleb128 0x8
 1590 07d1 0B       		.uleb128 0xb
 1591 07d2 D9010000 		.4byte	.LASF104
 1592 07d6 0B       		.byte	0xb
 1593 07d7 B9       		.byte	0xb9
 1594 07d8 42000000 		.4byte	0x42
 1595 07dc 02       		.byte	0x2
 1596 07dd 23       		.byte	0x23
 1597 07de 0C       		.uleb128 0xc
 1598 07df 0B       		.uleb128 0xb
ARM GAS  C:\Users\EBANO_~1\AppData\Local\Temp\cc3CSO1m.s 			page 33


 1599 07e0 1D030000 		.4byte	.LASF105
 1600 07e4 0B       		.byte	0xb
 1601 07e5 BA       		.byte	0xba
 1602 07e6 42000000 		.4byte	0x42
 1603 07ea 02       		.byte	0x2
 1604 07eb 23       		.byte	0x23
 1605 07ec 0E       		.uleb128 0xe
 1606 07ed 0E       		.uleb128 0xe
 1607 07ee 5F626600 		.ascii	"_bf\000"
 1608 07f2 0B       		.byte	0xb
 1609 07f3 BB       		.byte	0xbb
 1610 07f4 6F070000 		.4byte	0x76f
 1611 07f8 02       		.byte	0x2
 1612 07f9 23       		.byte	0x23
 1613 07fa 10       		.uleb128 0x10
 1614 07fb 0B       		.uleb128 0xb
 1615 07fc 6C090000 		.4byte	.LASF106
 1616 0800 0B       		.byte	0xb
 1617 0801 BC       		.byte	0xbc
 1618 0802 82000000 		.4byte	0x82
 1619 0806 02       		.byte	0x2
 1620 0807 23       		.byte	0x23
 1621 0808 18       		.uleb128 0x18
 1622 0809 0B       		.uleb128 0xb
 1623 080a C0010000 		.4byte	.LASF107
 1624 080e 0B       		.byte	0xb
 1625 080f C3       		.byte	0xc3
 1626 0810 01050000 		.4byte	0x501
 1627 0814 02       		.byte	0x2
 1628 0815 23       		.byte	0x23
 1629 0816 1C       		.uleb128 0x1c
 1630 0817 0B       		.uleb128 0xb
 1631 0818 B3020000 		.4byte	.LASF108
 1632 081c 0B       		.byte	0xb
 1633 081d C5       		.byte	0xc5
 1634 081e 920A0000 		.4byte	0xa92
 1635 0822 02       		.byte	0x2
 1636 0823 23       		.byte	0x23
 1637 0824 20       		.uleb128 0x20
 1638 0825 0B       		.uleb128 0xb
 1639 0826 E0030000 		.4byte	.LASF109
 1640 082a 0B       		.byte	0xb
 1641 082b C7       		.byte	0xc7
 1642 082c BD0A0000 		.4byte	0xabd
 1643 0830 02       		.byte	0x2
 1644 0831 23       		.byte	0x23
 1645 0832 24       		.uleb128 0x24
 1646 0833 0B       		.uleb128 0xb
 1647 0834 C2060000 		.4byte	.LASF110
 1648 0838 0B       		.byte	0xb
 1649 0839 CA       		.byte	0xca
 1650 083a E20A0000 		.4byte	0xae2
 1651 083e 02       		.byte	0x2
 1652 083f 23       		.byte	0x23
 1653 0840 28       		.uleb128 0x28
 1654 0841 0B       		.uleb128 0xb
 1655 0842 53010000 		.4byte	.LASF111
ARM GAS  C:\Users\EBANO_~1\AppData\Local\Temp\cc3CSO1m.s 			page 34


 1656 0846 0B       		.byte	0xb
 1657 0847 CB       		.byte	0xcb
 1658 0848 FD0A0000 		.4byte	0xafd
 1659 084c 02       		.byte	0x2
 1660 084d 23       		.byte	0x23
 1661 084e 2C       		.uleb128 0x2c
 1662 084f 0E       		.uleb128 0xe
 1663 0850 5F756200 		.ascii	"_ub\000"
 1664 0854 0B       		.byte	0xb
 1665 0855 CE       		.byte	0xce
 1666 0856 6F070000 		.4byte	0x76f
 1667 085a 02       		.byte	0x2
 1668 085b 23       		.byte	0x23
 1669 085c 30       		.uleb128 0x30
 1670 085d 0E       		.uleb128 0xe
 1671 085e 5F757000 		.ascii	"_up\000"
 1672 0862 0B       		.byte	0xb
 1673 0863 CF       		.byte	0xcf
 1674 0864 98070000 		.4byte	0x798
 1675 0868 02       		.byte	0x2
 1676 0869 23       		.byte	0x23
 1677 086a 38       		.uleb128 0x38
 1678 086b 0E       		.uleb128 0xe
 1679 086c 5F757200 		.ascii	"_ur\000"
 1680 0870 0B       		.byte	0xb
 1681 0871 D0       		.byte	0xd0
 1682 0872 82000000 		.4byte	0x82
 1683 0876 02       		.byte	0x2
 1684 0877 23       		.byte	0x23
 1685 0878 3C       		.uleb128 0x3c
 1686 0879 0B       		.uleb128 0xb
 1687 087a 66010000 		.4byte	.LASF112
 1688 087e 0B       		.byte	0xb
 1689 087f D3       		.byte	0xd3
 1690 0880 030B0000 		.4byte	0xb03
 1691 0884 02       		.byte	0x2
 1692 0885 23       		.byte	0x23
 1693 0886 40       		.uleb128 0x40
 1694 0887 0B       		.uleb128 0xb
 1695 0888 22090000 		.4byte	.LASF113
 1696 088c 0B       		.byte	0xb
 1697 088d D4       		.byte	0xd4
 1698 088e 130B0000 		.4byte	0xb13
 1699 0892 02       		.byte	0x2
 1700 0893 23       		.byte	0x23
 1701 0894 43       		.uleb128 0x43
 1702 0895 0E       		.uleb128 0xe
 1703 0896 5F6C6200 		.ascii	"_lb\000"
 1704 089a 0B       		.byte	0xb
 1705 089b D7       		.byte	0xd7
 1706 089c 6F070000 		.4byte	0x76f
 1707 08a0 02       		.byte	0x2
 1708 08a1 23       		.byte	0x23
 1709 08a2 44       		.uleb128 0x44
 1710 08a3 0B       		.uleb128 0xb
 1711 08a4 2C070000 		.4byte	.LASF114
 1712 08a8 0B       		.byte	0xb
ARM GAS  C:\Users\EBANO_~1\AppData\Local\Temp\cc3CSO1m.s 			page 35


 1713 08a9 DA       		.byte	0xda
 1714 08aa 82000000 		.4byte	0x82
 1715 08ae 02       		.byte	0x2
 1716 08af 23       		.byte	0x23
 1717 08b0 4C       		.uleb128 0x4c
 1718 08b1 0B       		.uleb128 0xb
 1719 08b2 37020000 		.4byte	.LASF115
 1720 08b6 0B       		.byte	0xb
 1721 08b7 DB       		.byte	0xdb
 1722 08b8 1A050000 		.4byte	0x51a
 1723 08bc 02       		.byte	0x2
 1724 08bd 23       		.byte	0x23
 1725 08be 50       		.uleb128 0x50
 1726 08bf 0B       		.uleb128 0xb
 1727 08c0 23030000 		.4byte	.LASF116
 1728 08c4 0B       		.byte	0xb
 1729 08c5 DE       		.byte	0xde
 1730 08c6 17090000 		.4byte	0x917
 1731 08ca 02       		.byte	0x2
 1732 08cb 23       		.byte	0x23
 1733 08cc 54       		.uleb128 0x54
 1734 08cd 0B       		.uleb128 0xb
 1735 08ce A8030000 		.4byte	.LASF117
 1736 08d2 0B       		.byte	0xb
 1737 08d3 E2       		.byte	0xe2
 1738 08d4 9B050000 		.4byte	0x59b
 1739 08d8 02       		.byte	0x2
 1740 08d9 23       		.byte	0x23
 1741 08da 58       		.uleb128 0x58
 1742 08db 0B       		.uleb128 0xb
 1743 08dc 22060000 		.4byte	.LASF118
 1744 08e0 0B       		.byte	0xb
 1745 08e1 E4       		.byte	0xe4
 1746 08e2 90050000 		.4byte	0x590
 1747 08e6 02       		.byte	0x2
 1748 08e7 23       		.byte	0x23
 1749 08e8 5C       		.uleb128 0x5c
 1750 08e9 0B       		.uleb128 0xb
 1751 08ea 00060000 		.4byte	.LASF119
 1752 08ee 0B       		.byte	0xb
 1753 08ef E5       		.byte	0xe5
 1754 08f0 82000000 		.4byte	0x82
 1755 08f4 02       		.byte	0x2
 1756 08f5 23       		.byte	0x23
 1757 08f6 64       		.uleb128 0x64
 1758 08f7 00       		.byte	0
 1759 08f8 1C       		.uleb128 0x1c
 1760 08f9 01       		.byte	0x1
 1761 08fa 82000000 		.4byte	0x82
 1762 08fe 17090000 		.4byte	0x917
 1763 0902 1D       		.uleb128 0x1d
 1764 0903 17090000 		.4byte	0x917
 1765 0907 1D       		.uleb128 0x1d
 1766 0908 01050000 		.4byte	0x501
 1767 090c 1D       		.uleb128 0x1d
 1768 090d 800A0000 		.4byte	0xa80
 1769 0911 1D       		.uleb128 0x1d
ARM GAS  C:\Users\EBANO_~1\AppData\Local\Temp\cc3CSO1m.s 			page 36


 1770 0912 82000000 		.4byte	0x82
 1771 0916 00       		.byte	0
 1772 0917 0F       		.uleb128 0xf
 1773 0918 04       		.byte	0x4
 1774 0919 22090000 		.4byte	0x922
 1775 091d 05       		.uleb128 0x5
 1776 091e 17090000 		.4byte	0x917
 1777 0922 1E       		.uleb128 0x1e
 1778 0923 84060000 		.4byte	.LASF120
 1779 0927 2804     		.2byte	0x428
 1780 0929 0B       		.byte	0xb
 1781 092a 6002     		.2byte	0x260
 1782 092c 800A0000 		.4byte	0xa80
 1783 0930 10       		.uleb128 0x10
 1784 0931 20070000 		.4byte	.LASF121
 1785 0935 0B       		.byte	0xb
 1786 0936 6202     		.2byte	0x262
 1787 0938 82000000 		.4byte	0x82
 1788 093c 02       		.byte	0x2
 1789 093d 23       		.byte	0x23
 1790 093e 00       		.uleb128 0
 1791 093f 10       		.uleb128 0x10
 1792 0940 E8010000 		.4byte	.LASF122
 1793 0944 0B       		.byte	0xb
 1794 0945 6702     		.2byte	0x267
 1795 0947 700B0000 		.4byte	0xb70
 1796 094b 02       		.byte	0x2
 1797 094c 23       		.byte	0x23
 1798 094d 04       		.uleb128 0x4
 1799 094e 10       		.uleb128 0x10
 1800 094f F6020000 		.4byte	.LASF123
 1801 0953 0B       		.byte	0xb
 1802 0954 6702     		.2byte	0x267
 1803 0956 700B0000 		.4byte	0xb70
 1804 095a 02       		.byte	0x2
 1805 095b 23       		.byte	0x23
 1806 095c 08       		.uleb128 0x8
 1807 095d 10       		.uleb128 0x10
 1808 095e 86020000 		.4byte	.LASF124
 1809 0962 0B       		.byte	0xb
 1810 0963 6702     		.2byte	0x267
 1811 0965 700B0000 		.4byte	0xb70
 1812 0969 02       		.byte	0x2
 1813 096a 23       		.byte	0x23
 1814 096b 0C       		.uleb128 0xc
 1815 096c 10       		.uleb128 0x10
 1816 096d 38060000 		.4byte	.LASF125
 1817 0971 0B       		.byte	0xb
 1818 0972 6902     		.2byte	0x269
 1819 0974 82000000 		.4byte	0x82
 1820 0978 02       		.byte	0x2
 1821 0979 23       		.byte	0x23
 1822 097a 10       		.uleb128 0x10
 1823 097b 10       		.uleb128 0x10
 1824 097c 53000000 		.4byte	.LASF126
 1825 0980 0B       		.byte	0xb
 1826 0981 6A02     		.2byte	0x26a
ARM GAS  C:\Users\EBANO_~1\AppData\Local\Temp\cc3CSO1m.s 			page 37


 1827 0983 8B0D0000 		.4byte	0xd8b
 1828 0987 02       		.byte	0x2
 1829 0988 23       		.byte	0x23
 1830 0989 14       		.uleb128 0x14
 1831 098a 10       		.uleb128 0x10
 1832 098b 63060000 		.4byte	.LASF127
 1833 098f 0B       		.byte	0xb
 1834 0990 6D02     		.2byte	0x26d
 1835 0992 82000000 		.4byte	0x82
 1836 0996 02       		.byte	0x2
 1837 0997 23       		.byte	0x23
 1838 0998 30       		.uleb128 0x30
 1839 0999 10       		.uleb128 0x10
 1840 099a 64090000 		.4byte	.LASF128
 1841 099e 0B       		.byte	0xb
 1842 099f 6E02     		.2byte	0x26e
 1843 09a1 A10D0000 		.4byte	0xda1
 1844 09a5 02       		.byte	0x2
 1845 09a6 23       		.byte	0x23
 1846 09a7 34       		.uleb128 0x34
 1847 09a8 10       		.uleb128 0x10
 1848 09a9 A5040000 		.4byte	.LASF129
 1849 09ad 0B       		.byte	0xb
 1850 09ae 7002     		.2byte	0x270
 1851 09b0 82000000 		.4byte	0x82
 1852 09b4 02       		.byte	0x2
 1853 09b5 23       		.byte	0x23
 1854 09b6 38       		.uleb128 0x38
 1855 09b7 10       		.uleb128 0x10
 1856 09b8 5D080000 		.4byte	.LASF130
 1857 09bc 0B       		.byte	0xb
 1858 09bd 7202     		.2byte	0x272
 1859 09bf B30D0000 		.4byte	0xdb3
 1860 09c3 02       		.byte	0x2
 1861 09c4 23       		.byte	0x23
 1862 09c5 3C       		.uleb128 0x3c
 1863 09c6 10       		.uleb128 0x10
 1864 09c7 7B030000 		.4byte	.LASF131
 1865 09cb 0B       		.byte	0xb
 1866 09cc 7502     		.2byte	0x275
 1867 09ce 10060000 		.4byte	0x610
 1868 09d2 02       		.byte	0x2
 1869 09d3 23       		.byte	0x23
 1870 09d4 40       		.uleb128 0x40
 1871 09d5 10       		.uleb128 0x10
 1872 09d6 EF010000 		.4byte	.LASF132
 1873 09da 0B       		.byte	0xb
 1874 09db 7602     		.2byte	0x276
 1875 09dd 82000000 		.4byte	0x82
 1876 09e1 02       		.byte	0x2
 1877 09e2 23       		.byte	0x23
 1878 09e3 44       		.uleb128 0x44
 1879 09e4 10       		.uleb128 0x10
 1880 09e5 5F090000 		.4byte	.LASF133
 1881 09e9 0B       		.byte	0xb
 1882 09ea 7702     		.2byte	0x277
 1883 09ec 10060000 		.4byte	0x610
ARM GAS  C:\Users\EBANO_~1\AppData\Local\Temp\cc3CSO1m.s 			page 38


 1884 09f0 02       		.byte	0x2
 1885 09f1 23       		.byte	0x23
 1886 09f2 48       		.uleb128 0x48
 1887 09f3 10       		.uleb128 0x10
 1888 09f4 D5040000 		.4byte	.LASF134
 1889 09f8 0B       		.byte	0xb
 1890 09f9 7802     		.2byte	0x278
 1891 09fb B90D0000 		.4byte	0xdb9
 1892 09ff 02       		.byte	0x2
 1893 0a00 23       		.byte	0x23
 1894 0a01 4C       		.uleb128 0x4c
 1895 0a02 10       		.uleb128 0x10
 1896 0a03 FE020000 		.4byte	.LASF135
 1897 0a07 0B       		.byte	0xb
 1898 0a08 7B02     		.2byte	0x27b
 1899 0a0a 82000000 		.4byte	0x82
 1900 0a0e 02       		.byte	0x2
 1901 0a0f 23       		.byte	0x23
 1902 0a10 50       		.uleb128 0x50
 1903 0a11 10       		.uleb128 0x10
 1904 0a12 2F020000 		.4byte	.LASF136
 1905 0a16 0B       		.byte	0xb
 1906 0a17 7C02     		.2byte	0x27c
 1907 0a19 800A0000 		.4byte	0xa80
 1908 0a1d 02       		.byte	0x2
 1909 0a1e 23       		.byte	0x23
 1910 0a1f 54       		.uleb128 0x54
 1911 0a20 10       		.uleb128 0x10
 1912 0a21 9A030000 		.4byte	.LASF137
 1913 0a25 0B       		.byte	0xb
 1914 0a26 9F02     		.2byte	0x29f
 1915 0a28 690D0000 		.4byte	0xd69
 1916 0a2c 02       		.byte	0x2
 1917 0a2d 23       		.byte	0x23
 1918 0a2e 58       		.uleb128 0x58
 1919 0a2f 10       		.uleb128 0x10
 1920 0a30 93040000 		.4byte	.LASF97
 1921 0a34 0B       		.byte	0xb
 1922 0a35 A302     		.2byte	0x2a3
 1923 0a37 51070000 		.4byte	0x751
 1924 0a3b 03       		.byte	0x3
 1925 0a3c 23       		.byte	0x23
 1926 0a3d C802     		.uleb128 0x148
 1927 0a3f 10       		.uleb128 0x10
 1928 0a40 88000000 		.4byte	.LASF138
 1929 0a44 0B       		.byte	0xb
 1930 0a45 A402     		.2byte	0x2a4
 1931 0a47 0A070000 		.4byte	0x70a
 1932 0a4b 03       		.byte	0x3
 1933 0a4c 23       		.byte	0x23
 1934 0a4d CC02     		.uleb128 0x14c
 1935 0a4f 10       		.uleb128 0x10
 1936 0a50 A5080000 		.4byte	.LASF139
 1937 0a54 0B       		.byte	0xb
 1938 0a55 A802     		.2byte	0x2a8
 1939 0a57 CB0D0000 		.4byte	0xdcb
 1940 0a5b 03       		.byte	0x3
ARM GAS  C:\Users\EBANO_~1\AppData\Local\Temp\cc3CSO1m.s 			page 39


 1941 0a5c 23       		.byte	0x23
 1942 0a5d DC05     		.uleb128 0x2dc
 1943 0a5f 10       		.uleb128 0x10
 1944 0a60 C8010000 		.4byte	.LASF140
 1945 0a64 0B       		.byte	0xb
 1946 0a65 AD02     		.2byte	0x2ad
 1947 0a67 2F0B0000 		.4byte	0xb2f
 1948 0a6b 03       		.byte	0x3
 1949 0a6c 23       		.byte	0x23
 1950 0a6d E005     		.uleb128 0x2e0
 1951 0a6f 10       		.uleb128 0x10
 1952 0a70 AD010000 		.4byte	.LASF141
 1953 0a74 0B       		.byte	0xb
 1954 0a75 AF02     		.2byte	0x2af
 1955 0a77 D70D0000 		.4byte	0xdd7
 1956 0a7b 03       		.byte	0x3
 1957 0a7c 23       		.byte	0x23
 1958 0a7d EC05     		.uleb128 0x2ec
 1959 0a7f 00       		.byte	0
 1960 0a80 0F       		.uleb128 0xf
 1961 0a81 04       		.byte	0x4
 1962 0a82 860A0000 		.4byte	0xa86
 1963 0a86 02       		.uleb128 0x2
 1964 0a87 01       		.byte	0x1
 1965 0a88 08       		.byte	0x8
 1966 0a89 27070000 		.4byte	.LASF142
 1967 0a8d 05       		.uleb128 0x5
 1968 0a8e 860A0000 		.4byte	0xa86
 1969 0a92 0F       		.uleb128 0xf
 1970 0a93 04       		.byte	0x4
 1971 0a94 F8080000 		.4byte	0x8f8
 1972 0a98 1C       		.uleb128 0x1c
 1973 0a99 01       		.byte	0x1
 1974 0a9a 82000000 		.4byte	0x82
 1975 0a9e B70A0000 		.4byte	0xab7
 1976 0aa2 1D       		.uleb128 0x1d
 1977 0aa3 17090000 		.4byte	0x917
 1978 0aa7 1D       		.uleb128 0x1d
 1979 0aa8 01050000 		.4byte	0x501
 1980 0aac 1D       		.uleb128 0x1d
 1981 0aad B70A0000 		.4byte	0xab7
 1982 0ab1 1D       		.uleb128 0x1d
 1983 0ab2 82000000 		.4byte	0x82
 1984 0ab6 00       		.byte	0
 1985 0ab7 0F       		.uleb128 0xf
 1986 0ab8 04       		.byte	0x4
 1987 0ab9 8D0A0000 		.4byte	0xa8d
 1988 0abd 0F       		.uleb128 0xf
 1989 0abe 04       		.byte	0x4
 1990 0abf 980A0000 		.4byte	0xa98
 1991 0ac3 1C       		.uleb128 0x1c
 1992 0ac4 01       		.byte	0x1
 1993 0ac5 25050000 		.4byte	0x525
 1994 0ac9 E20A0000 		.4byte	0xae2
 1995 0acd 1D       		.uleb128 0x1d
 1996 0ace 17090000 		.4byte	0x917
 1997 0ad2 1D       		.uleb128 0x1d
ARM GAS  C:\Users\EBANO_~1\AppData\Local\Temp\cc3CSO1m.s 			page 40


 1998 0ad3 01050000 		.4byte	0x501
 1999 0ad7 1D       		.uleb128 0x1d
 2000 0ad8 25050000 		.4byte	0x525
 2001 0adc 1D       		.uleb128 0x1d
 2002 0add 82000000 		.4byte	0x82
 2003 0ae1 00       		.byte	0
 2004 0ae2 0F       		.uleb128 0xf
 2005 0ae3 04       		.byte	0x4
 2006 0ae4 C30A0000 		.4byte	0xac3
 2007 0ae8 1C       		.uleb128 0x1c
 2008 0ae9 01       		.byte	0x1
 2009 0aea 82000000 		.4byte	0x82
 2010 0aee FD0A0000 		.4byte	0xafd
 2011 0af2 1D       		.uleb128 0x1d
 2012 0af3 17090000 		.4byte	0x917
 2013 0af7 1D       		.uleb128 0x1d
 2014 0af8 01050000 		.4byte	0x501
 2015 0afc 00       		.byte	0
 2016 0afd 0F       		.uleb128 0xf
 2017 0afe 04       		.byte	0x4
 2018 0aff E80A0000 		.4byte	0xae8
 2019 0b03 0C       		.uleb128 0xc
 2020 0b04 3B000000 		.4byte	0x3b
 2021 0b08 130B0000 		.4byte	0xb13
 2022 0b0c 0D       		.uleb128 0xd
 2023 0b0d 89000000 		.4byte	0x89
 2024 0b11 02       		.byte	0x2
 2025 0b12 00       		.byte	0
 2026 0b13 0C       		.uleb128 0xc
 2027 0b14 3B000000 		.4byte	0x3b
 2028 0b18 230B0000 		.4byte	0xb23
 2029 0b1c 0D       		.uleb128 0xd
 2030 0b1d 89000000 		.4byte	0x89
 2031 0b21 00       		.byte	0
 2032 0b22 00       		.byte	0
 2033 0b23 12       		.uleb128 0x12
 2034 0b24 08060000 		.4byte	.LASF143
 2035 0b28 0B       		.byte	0xb
 2036 0b29 1F01     		.2byte	0x11f
 2037 0b2b 9E070000 		.4byte	0x79e
 2038 0b2f 1F       		.uleb128 0x1f
 2039 0b30 6C080000 		.4byte	.LASF144
 2040 0b34 0C       		.byte	0xc
 2041 0b35 0B       		.byte	0xb
 2042 0b36 2301     		.2byte	0x123
 2043 0b38 6A0B0000 		.4byte	0xb6a
 2044 0b3c 10       		.uleb128 0x10
 2045 0b3d 7A070000 		.4byte	.LASF78
 2046 0b41 0B       		.byte	0xb
 2047 0b42 2501     		.2byte	0x125
 2048 0b44 6A0B0000 		.4byte	0xb6a
 2049 0b48 02       		.byte	0x2
 2050 0b49 23       		.byte	0x23
 2051 0b4a 00       		.uleb128 0
 2052 0b4b 10       		.uleb128 0x10
 2053 0b4c 29030000 		.4byte	.LASF145
 2054 0b50 0B       		.byte	0xb
ARM GAS  C:\Users\EBANO_~1\AppData\Local\Temp\cc3CSO1m.s 			page 41


 2055 0b51 2601     		.2byte	0x126
 2056 0b53 82000000 		.4byte	0x82
 2057 0b57 02       		.byte	0x2
 2058 0b58 23       		.byte	0x23
 2059 0b59 04       		.uleb128 0x4
 2060 0b5a 10       		.uleb128 0x10
 2061 0b5b D1050000 		.4byte	.LASF146
 2062 0b5f 0B       		.byte	0xb
 2063 0b60 2701     		.2byte	0x127
 2064 0b62 700B0000 		.4byte	0xb70
 2065 0b66 02       		.byte	0x2
 2066 0b67 23       		.byte	0x23
 2067 0b68 08       		.uleb128 0x8
 2068 0b69 00       		.byte	0
 2069 0b6a 0F       		.uleb128 0xf
 2070 0b6b 04       		.byte	0x4
 2071 0b6c 2F0B0000 		.4byte	0xb2f
 2072 0b70 0F       		.uleb128 0xf
 2073 0b71 04       		.byte	0x4
 2074 0b72 230B0000 		.4byte	0xb23
 2075 0b76 1F       		.uleb128 0x1f
 2076 0b77 4B000000 		.4byte	.LASF147
 2077 0b7b 0E       		.byte	0xe
 2078 0b7c 0B       		.byte	0xb
 2079 0b7d 3F01     		.2byte	0x13f
 2080 0b7f B10B0000 		.4byte	0xbb1
 2081 0b83 10       		.uleb128 0x10
 2082 0b84 8B060000 		.4byte	.LASF148
 2083 0b88 0B       		.byte	0xb
 2084 0b89 4001     		.2byte	0x140
 2085 0b8b B10B0000 		.4byte	0xbb1
 2086 0b8f 02       		.byte	0x2
 2087 0b90 23       		.byte	0x23
 2088 0b91 00       		.uleb128 0
 2089 0b92 10       		.uleb128 0x10
 2090 0b93 AE030000 		.4byte	.LASF149
 2091 0b97 0B       		.byte	0xb
 2092 0b98 4101     		.2byte	0x141
 2093 0b9a B10B0000 		.4byte	0xbb1
 2094 0b9e 02       		.byte	0x2
 2095 0b9f 23       		.byte	0x23
 2096 0ba0 06       		.uleb128 0x6
 2097 0ba1 10       		.uleb128 0x10
 2098 0ba2 D5070000 		.4byte	.LASF150
 2099 0ba6 0B       		.byte	0xb
 2100 0ba7 4201     		.2byte	0x142
 2101 0ba9 54000000 		.4byte	0x54
 2102 0bad 02       		.byte	0x2
 2103 0bae 23       		.byte	0x23
 2104 0baf 0C       		.uleb128 0xc
 2105 0bb0 00       		.byte	0
 2106 0bb1 0C       		.uleb128 0xc
 2107 0bb2 54000000 		.4byte	0x54
 2108 0bb6 C10B0000 		.4byte	0xbc1
 2109 0bba 0D       		.uleb128 0xd
 2110 0bbb 89000000 		.4byte	0x89
 2111 0bbf 02       		.byte	0x2
ARM GAS  C:\Users\EBANO_~1\AppData\Local\Temp\cc3CSO1m.s 			page 42


 2112 0bc0 00       		.byte	0
 2113 0bc1 20       		.uleb128 0x20
 2114 0bc2 D0       		.byte	0xd0
 2115 0bc3 0B       		.byte	0xb
 2116 0bc4 8002     		.2byte	0x280
 2117 0bc6 F10C0000 		.4byte	0xcf1
 2118 0bca 10       		.uleb128 0x10
 2119 0bcb F1030000 		.4byte	.LASF151
 2120 0bcf 0B       		.byte	0xb
 2121 0bd0 8202     		.2byte	0x282
 2122 0bd2 89000000 		.4byte	0x89
 2123 0bd6 02       		.byte	0x2
 2124 0bd7 23       		.byte	0x23
 2125 0bd8 00       		.uleb128 0
 2126 0bd9 10       		.uleb128 0x10
 2127 0bda 89070000 		.4byte	.LASF152
 2128 0bde 0B       		.byte	0xb
 2129 0bdf 8302     		.2byte	0x283
 2130 0be1 800A0000 		.4byte	0xa80
 2131 0be5 02       		.byte	0x2
 2132 0be6 23       		.byte	0x23
 2133 0be7 04       		.uleb128 0x4
 2134 0be8 10       		.uleb128 0x10
 2135 0be9 6E030000 		.4byte	.LASF153
 2136 0bed 0B       		.byte	0xb
 2137 0bee 8402     		.2byte	0x284
 2138 0bf0 F10C0000 		.4byte	0xcf1
 2139 0bf4 02       		.byte	0x2
 2140 0bf5 23       		.byte	0x23
 2141 0bf6 08       		.uleb128 0x8
 2142 0bf7 10       		.uleb128 0x10
 2143 0bf8 3A090000 		.4byte	.LASF154
 2144 0bfc 0B       		.byte	0xb
 2145 0bfd 8502     		.2byte	0x285
 2146 0bff 26060000 		.4byte	0x626
 2147 0c03 02       		.byte	0x2
 2148 0c04 23       		.byte	0x23
 2149 0c05 24       		.uleb128 0x24
 2150 0c06 10       		.uleb128 0x10
 2151 0c07 B0040000 		.4byte	.LASF155
 2152 0c0b 0B       		.byte	0xb
 2153 0c0c 8602     		.2byte	0x286
 2154 0c0e 82000000 		.4byte	0x82
 2155 0c12 02       		.byte	0x2
 2156 0c13 23       		.byte	0x23
 2157 0c14 48       		.uleb128 0x48
 2158 0c15 10       		.uleb128 0x10
 2159 0c16 42030000 		.4byte	.LASF156
 2160 0c1a 0B       		.byte	0xb
 2161 0c1b 8702     		.2byte	0x287
 2162 0c1d 7B000000 		.4byte	0x7b
 2163 0c21 02       		.byte	0x2
 2164 0c22 23       		.byte	0x23
 2165 0c23 50       		.uleb128 0x50
 2166 0c24 10       		.uleb128 0x10
 2167 0c25 52090000 		.4byte	.LASF157
 2168 0c29 0B       		.byte	0xb
ARM GAS  C:\Users\EBANO_~1\AppData\Local\Temp\cc3CSO1m.s 			page 43


 2169 0c2a 8802     		.2byte	0x288
 2170 0c2c 760B0000 		.4byte	0xb76
 2171 0c30 02       		.byte	0x2
 2172 0c31 23       		.byte	0x23
 2173 0c32 58       		.uleb128 0x58
 2174 0c33 10       		.uleb128 0x10
 2175 0c34 2B060000 		.4byte	.LASF158
 2176 0c38 0B       		.byte	0xb
 2177 0c39 8902     		.2byte	0x289
 2178 0c3b 90050000 		.4byte	0x590
 2179 0c3f 02       		.byte	0x2
 2180 0c40 23       		.byte	0x23
 2181 0c41 68       		.uleb128 0x68
 2182 0c42 10       		.uleb128 0x10
 2183 0c43 7A000000 		.4byte	.LASF159
 2184 0c47 0B       		.byte	0xb
 2185 0c48 8A02     		.2byte	0x28a
 2186 0c4a 90050000 		.4byte	0x590
 2187 0c4e 02       		.byte	0x2
 2188 0c4f 23       		.byte	0x23
 2189 0c50 70       		.uleb128 0x70
 2190 0c51 10       		.uleb128 0x10
 2191 0c52 FB040000 		.4byte	.LASF160
 2192 0c56 0B       		.byte	0xb
 2193 0c57 8B02     		.2byte	0x28b
 2194 0c59 90050000 		.4byte	0x590
 2195 0c5d 02       		.byte	0x2
 2196 0c5e 23       		.byte	0x23
 2197 0c5f 78       		.uleb128 0x78
 2198 0c60 10       		.uleb128 0x10
 2199 0c61 9B080000 		.4byte	.LASF161
 2200 0c65 0B       		.byte	0xb
 2201 0c66 8C02     		.2byte	0x28c
 2202 0c68 010D0000 		.4byte	0xd01
 2203 0c6c 03       		.byte	0x3
 2204 0c6d 23       		.byte	0x23
 2205 0c6e 8001     		.uleb128 0x80
 2206 0c70 10       		.uleb128 0x10
 2207 0c71 62030000 		.4byte	.LASF162
 2208 0c75 0B       		.byte	0xb
 2209 0c76 8D02     		.2byte	0x28d
 2210 0c78 110D0000 		.4byte	0xd11
 2211 0c7c 03       		.byte	0x3
 2212 0c7d 23       		.byte	0x23
 2213 0c7e 8801     		.uleb128 0x88
 2214 0c80 10       		.uleb128 0x10
 2215 0c81 14080000 		.4byte	.LASF163
 2216 0c85 0B       		.byte	0xb
 2217 0c86 8E02     		.2byte	0x28e
 2218 0c88 82000000 		.4byte	0x82
 2219 0c8c 03       		.byte	0x3
 2220 0c8d 23       		.byte	0x23
 2221 0c8e A001     		.uleb128 0xa0
 2222 0c90 10       		.uleb128 0x10
 2223 0c91 50020000 		.4byte	.LASF164
 2224 0c95 0B       		.byte	0xb
 2225 0c96 8F02     		.2byte	0x28f
ARM GAS  C:\Users\EBANO_~1\AppData\Local\Temp\cc3CSO1m.s 			page 44


 2226 0c98 90050000 		.4byte	0x590
 2227 0c9c 03       		.byte	0x3
 2228 0c9d 23       		.byte	0x23
 2229 0c9e A401     		.uleb128 0xa4
 2230 0ca0 10       		.uleb128 0x10
 2231 0ca1 0F010000 		.4byte	.LASF165
 2232 0ca5 0B       		.byte	0xb
 2233 0ca6 9002     		.2byte	0x290
 2234 0ca8 90050000 		.4byte	0x590
 2235 0cac 03       		.byte	0x3
 2236 0cad 23       		.byte	0x23
 2237 0cae AC01     		.uleb128 0xac
 2238 0cb0 10       		.uleb128 0x10
 2239 0cb1 3F020000 		.4byte	.LASF166
 2240 0cb5 0B       		.byte	0xb
 2241 0cb6 9102     		.2byte	0x291
 2242 0cb8 90050000 		.4byte	0x590
 2243 0cbc 03       		.byte	0x3
 2244 0cbd 23       		.byte	0x23
 2245 0cbe B401     		.uleb128 0xb4
 2246 0cc0 10       		.uleb128 0x10
 2247 0cc1 A3000000 		.4byte	.LASF167
 2248 0cc5 0B       		.byte	0xb
 2249 0cc6 9202     		.2byte	0x292
 2250 0cc8 90050000 		.4byte	0x590
 2251 0ccc 03       		.byte	0x3
 2252 0ccd 23       		.byte	0x23
 2253 0cce BC01     		.uleb128 0xbc
 2254 0cd0 10       		.uleb128 0x10
 2255 0cd1 B2000000 		.4byte	.LASF168
 2256 0cd5 0B       		.byte	0xb
 2257 0cd6 9302     		.2byte	0x293
 2258 0cd8 90050000 		.4byte	0x590
 2259 0cdc 03       		.byte	0x3
 2260 0cdd 23       		.byte	0x23
 2261 0cde C401     		.uleb128 0xc4
 2262 0ce0 10       		.uleb128 0x10
 2263 0ce1 DD050000 		.4byte	.LASF169
 2264 0ce5 0B       		.byte	0xb
 2265 0ce6 9402     		.2byte	0x294
 2266 0ce8 82000000 		.4byte	0x82
 2267 0cec 03       		.byte	0x3
 2268 0ced 23       		.byte	0x23
 2269 0cee CC01     		.uleb128 0xcc
 2270 0cf0 00       		.byte	0
 2271 0cf1 0C       		.uleb128 0xc
 2272 0cf2 860A0000 		.4byte	0xa86
 2273 0cf6 010D0000 		.4byte	0xd01
 2274 0cfa 0D       		.uleb128 0xd
 2275 0cfb 89000000 		.4byte	0x89
 2276 0cff 19       		.byte	0x19
 2277 0d00 00       		.byte	0
 2278 0d01 0C       		.uleb128 0xc
 2279 0d02 860A0000 		.4byte	0xa86
 2280 0d06 110D0000 		.4byte	0xd11
 2281 0d0a 0D       		.uleb128 0xd
 2282 0d0b 89000000 		.4byte	0x89
ARM GAS  C:\Users\EBANO_~1\AppData\Local\Temp\cc3CSO1m.s 			page 45


 2283 0d0f 07       		.byte	0x7
 2284 0d10 00       		.byte	0
 2285 0d11 0C       		.uleb128 0xc
 2286 0d12 860A0000 		.4byte	0xa86
 2287 0d16 210D0000 		.4byte	0xd21
 2288 0d1a 0D       		.uleb128 0xd
 2289 0d1b 89000000 		.4byte	0x89
 2290 0d1f 17       		.byte	0x17
 2291 0d20 00       		.byte	0
 2292 0d21 20       		.uleb128 0x20
 2293 0d22 F0       		.byte	0xf0
 2294 0d23 0B       		.byte	0xb
 2295 0d24 9902     		.2byte	0x299
 2296 0d26 490D0000 		.4byte	0xd49
 2297 0d2a 10       		.uleb128 0x10
 2298 0d2b 78040000 		.4byte	.LASF170
 2299 0d2f 0B       		.byte	0xb
 2300 0d30 9C02     		.2byte	0x29c
 2301 0d32 490D0000 		.4byte	0xd49
 2302 0d36 02       		.byte	0x2
 2303 0d37 23       		.byte	0x23
 2304 0d38 00       		.uleb128 0
 2305 0d39 10       		.uleb128 0x10
 2306 0d3a FE030000 		.4byte	.LASF171
 2307 0d3e 0B       		.byte	0xb
 2308 0d3f 9D02     		.2byte	0x29d
 2309 0d41 590D0000 		.4byte	0xd59
 2310 0d45 02       		.byte	0x2
 2311 0d46 23       		.byte	0x23
 2312 0d47 78       		.uleb128 0x78
 2313 0d48 00       		.byte	0
 2314 0d49 0C       		.uleb128 0xc
 2315 0d4a 98070000 		.4byte	0x798
 2316 0d4e 590D0000 		.4byte	0xd59
 2317 0d52 0D       		.uleb128 0xd
 2318 0d53 89000000 		.4byte	0x89
 2319 0d57 1D       		.byte	0x1d
 2320 0d58 00       		.byte	0
 2321 0d59 0C       		.uleb128 0xc
 2322 0d5a 89000000 		.4byte	0x89
 2323 0d5e 690D0000 		.4byte	0xd69
 2324 0d62 0D       		.uleb128 0xd
 2325 0d63 89000000 		.4byte	0x89
 2326 0d67 1D       		.byte	0x1d
 2327 0d68 00       		.byte	0
 2328 0d69 21       		.uleb128 0x21
 2329 0d6a F0       		.byte	0xf0
 2330 0d6b 0B       		.byte	0xb
 2331 0d6c 7E02     		.2byte	0x27e
 2332 0d6e 8B0D0000 		.4byte	0xd8b
 2333 0d72 22       		.uleb128 0x22
 2334 0d73 84060000 		.4byte	.LASF120
 2335 0d77 0B       		.byte	0xb
 2336 0d78 9502     		.2byte	0x295
 2337 0d7a C10B0000 		.4byte	0xbc1
 2338 0d7e 22       		.uleb128 0x22
 2339 0d7f 28090000 		.4byte	.LASF172
ARM GAS  C:\Users\EBANO_~1\AppData\Local\Temp\cc3CSO1m.s 			page 46


 2340 0d83 0B       		.byte	0xb
 2341 0d84 9E02     		.2byte	0x29e
 2342 0d86 210D0000 		.4byte	0xd21
 2343 0d8a 00       		.byte	0
 2344 0d8b 0C       		.uleb128 0xc
 2345 0d8c 860A0000 		.4byte	0xa86
 2346 0d90 9B0D0000 		.4byte	0xd9b
 2347 0d94 0D       		.uleb128 0xd
 2348 0d95 89000000 		.4byte	0x89
 2349 0d99 18       		.byte	0x18
 2350 0d9a 00       		.byte	0
 2351 0d9b 17       		.uleb128 0x17
 2352 0d9c FE000000 		.4byte	.LASF174
 2353 0da0 01       		.byte	0x1
 2354 0da1 0F       		.uleb128 0xf
 2355 0da2 04       		.byte	0x4
 2356 0da3 9B0D0000 		.4byte	0xd9b
 2357 0da7 23       		.uleb128 0x23
 2358 0da8 01       		.byte	0x1
 2359 0da9 B30D0000 		.4byte	0xdb3
 2360 0dad 1D       		.uleb128 0x1d
 2361 0dae 17090000 		.4byte	0x917
 2362 0db2 00       		.byte	0
 2363 0db3 0F       		.uleb128 0xf
 2364 0db4 04       		.byte	0x4
 2365 0db5 A70D0000 		.4byte	0xda7
 2366 0db9 0F       		.uleb128 0xf
 2367 0dba 04       		.byte	0x4
 2368 0dbb 10060000 		.4byte	0x610
 2369 0dbf 23       		.uleb128 0x23
 2370 0dc0 01       		.byte	0x1
 2371 0dc1 CB0D0000 		.4byte	0xdcb
 2372 0dc5 1D       		.uleb128 0x1d
 2373 0dc6 82000000 		.4byte	0x82
 2374 0dca 00       		.byte	0
 2375 0dcb 0F       		.uleb128 0xf
 2376 0dcc 04       		.byte	0x4
 2377 0dcd D10D0000 		.4byte	0xdd1
 2378 0dd1 0F       		.uleb128 0xf
 2379 0dd2 04       		.byte	0x4
 2380 0dd3 BF0D0000 		.4byte	0xdbf
 2381 0dd7 0C       		.uleb128 0xc
 2382 0dd8 230B0000 		.4byte	0xb23
 2383 0ddc E70D0000 		.4byte	0xde7
 2384 0de0 0D       		.uleb128 0xd
 2385 0de1 89000000 		.4byte	0x89
 2386 0de5 02       		.byte	0x2
 2387 0de6 00       		.byte	0
 2388 0de7 24       		.uleb128 0x24
 2389 0de8 7A020000 		.4byte	.LASF175
 2390 0dec 0B       		.byte	0xb
 2391 0ded 2E03     		.2byte	0x32e
 2392 0def 17090000 		.4byte	0x917
 2393 0df3 01       		.byte	0x1
 2394 0df4 01       		.byte	0x1
 2395 0df5 24       		.uleb128 0x24
 2396 0df6 26080000 		.4byte	.LASF176
ARM GAS  C:\Users\EBANO_~1\AppData\Local\Temp\cc3CSO1m.s 			page 47


 2397 0dfa 0B       		.byte	0xb
 2398 0dfb 2F03     		.2byte	0x32f
 2399 0dfd 1D090000 		.4byte	0x91d
 2400 0e01 01       		.byte	0x1
 2401 0e02 01       		.byte	0x1
 2402 0e03 15       		.uleb128 0x15
 2403 0e04 9B040000 		.4byte	.LASF177
 2404 0e08 0C       		.byte	0xc
 2405 0e09 63       		.byte	0x63
 2406 0e0a 800A0000 		.4byte	0xa80
 2407 0e0e 01       		.byte	0x1
 2408 0e0f 01       		.byte	0x1
 2409 0e10 25       		.uleb128 0x25
 2410 0e11 01       		.byte	0x1
 2411 0e12 FE070000 		.4byte	.LASF180
 2412 0e16 01       		.byte	0x1
 2413 0e17 7A       		.byte	0x7a
 2414 0e18 01       		.byte	0x1
 2415 0e19 7C040000 		.4byte	0x47c
 2416 0e1d 00000000 		.4byte	.LFB42
 2417 0e21 DC000000 		.4byte	.LFE42
 2418 0e25 00000000 		.4byte	.LLST9
 2419 0e29 01       		.byte	0x1
 2420 0e2a 790E0000 		.4byte	0xe79
 2421 0e2e 26       		.uleb128 0x26
 2422 0e2f 45010000 		.4byte	.LASF182
 2423 0e33 01       		.byte	0x1
 2424 0e34 7A       		.byte	0x7a
 2425 0e35 790E0000 		.4byte	0xe79
 2426 0e39 20000000 		.4byte	.LLST10
 2427 0e3d 27       		.uleb128 0x27
 2428 0e3e 1F000000 		.4byte	.LASF178
 2429 0e42 01       		.byte	0x1
 2430 0e43 81       		.byte	0x81
 2431 0e44 A0000000 		.4byte	0xa0
 2432 0e48 6D000000 		.4byte	.LLST11
 2433 0e4c 27       		.uleb128 0x27
 2434 0e4d 12040000 		.4byte	.LASF179
 2435 0e51 01       		.byte	0x1
 2436 0e52 84       		.byte	0x84
 2437 0e53 A0000000 		.4byte	0xa0
 2438 0e57 F0000000 		.4byte	.LLST12
 2439 0e5b 28       		.uleb128 0x28
 2440 0e5c 5E000000 		.4byte	.LVL36
 2441 0e60 D20F0000 		.4byte	0xfd2
 2442 0e64 6F0E0000 		.4byte	0xe6f
 2443 0e68 29       		.uleb128 0x29
 2444 0e69 01       		.byte	0x1
 2445 0e6a 51       		.byte	0x51
 2446 0e6b 02       		.byte	0x2
 2447 0e6c 74       		.byte	0x74
 2448 0e6d 10       		.sleb128 16
 2449 0e6e 00       		.byte	0
 2450 0e6f 2A       		.uleb128 0x2a
 2451 0e70 7E000000 		.4byte	.LVL38
 2452 0e74 D20F0000 		.4byte	0xfd2
 2453 0e78 00       		.byte	0
ARM GAS  C:\Users\EBANO_~1\AppData\Local\Temp\cc3CSO1m.s 			page 48


 2454 0e79 0F       		.uleb128 0xf
 2455 0e7a 04       		.byte	0x4
 2456 0e7b 46040000 		.4byte	0x446
 2457 0e7f 25       		.uleb128 0x25
 2458 0e80 01       		.byte	0x1
 2459 0e81 0F020000 		.4byte	.LASF181
 2460 0e85 01       		.byte	0x1
 2461 0e86 5B       		.byte	0x5b
 2462 0e87 01       		.byte	0x1
 2463 0e88 7C040000 		.4byte	0x47c
 2464 0e8c 00000000 		.4byte	.LFB41
 2465 0e90 4E000000 		.4byte	.LFE41
 2466 0e94 1C010000 		.4byte	.LLST6
 2467 0e98 01       		.byte	0x1
 2468 0e99 EA0E0000 		.4byte	0xeea
 2469 0e9d 26       		.uleb128 0x26
 2470 0e9e 45010000 		.4byte	.LASF182
 2471 0ea2 01       		.byte	0x1
 2472 0ea3 5B       		.byte	0x5b
 2473 0ea4 EA0E0000 		.4byte	0xeea
 2474 0ea8 3C010000 		.4byte	.LLST7
 2475 0eac 27       		.uleb128 0x27
 2476 0ead 1F000000 		.4byte	.LASF178
 2477 0eb1 01       		.byte	0x1
 2478 0eb2 62       		.byte	0x62
 2479 0eb3 A0000000 		.4byte	0xa0
 2480 0eb7 7E010000 		.4byte	.LLST8
 2481 0ebb 28       		.uleb128 0x28
 2482 0ebc 2A000000 		.4byte	.LVL25
 2483 0ec0 DF0F0000 		.4byte	0xfdf
 2484 0ec4 D40E0000 		.4byte	0xed4
 2485 0ec8 29       		.uleb128 0x29
 2486 0ec9 01       		.byte	0x1
 2487 0eca 51       		.byte	0x51
 2488 0ecb 02       		.byte	0x2
 2489 0ecc 74       		.byte	0x74
 2490 0ecd 07       		.sleb128 7
 2491 0ece 29       		.uleb128 0x29
 2492 0ecf 01       		.byte	0x1
 2493 0ed0 52       		.byte	0x52
 2494 0ed1 01       		.byte	0x1
 2495 0ed2 33       		.byte	0x33
 2496 0ed3 00       		.byte	0
 2497 0ed4 2B       		.uleb128 0x2b
 2498 0ed5 38000000 		.4byte	.LVL26
 2499 0ed9 DF0F0000 		.4byte	0xfdf
 2500 0edd 29       		.uleb128 0x29
 2501 0ede 01       		.byte	0x1
 2502 0edf 51       		.byte	0x51
 2503 0ee0 02       		.byte	0x2
 2504 0ee1 74       		.byte	0x74
 2505 0ee2 0A       		.sleb128 10
 2506 0ee3 29       		.uleb128 0x29
 2507 0ee4 01       		.byte	0x1
 2508 0ee5 52       		.byte	0x52
 2509 0ee6 01       		.byte	0x1
 2510 0ee7 38       		.byte	0x38
ARM GAS  C:\Users\EBANO_~1\AppData\Local\Temp\cc3CSO1m.s 			page 49


 2511 0ee8 00       		.byte	0
 2512 0ee9 00       		.byte	0
 2513 0eea 0F       		.uleb128 0xf
 2514 0eeb 04       		.byte	0x4
 2515 0eec B9030000 		.4byte	0x3b9
 2516 0ef0 25       		.uleb128 0x25
 2517 0ef1 01       		.byte	0x1
 2518 0ef2 86010000 		.4byte	.LASF183
 2519 0ef6 01       		.byte	0x1
 2520 0ef7 3C       		.byte	0x3c
 2521 0ef8 01       		.byte	0x1
 2522 0ef9 7C040000 		.4byte	0x47c
 2523 0efd 00000000 		.4byte	.LFB40
 2524 0f01 4E000000 		.4byte	.LFE40
 2525 0f05 C2010000 		.4byte	.LLST3
 2526 0f09 01       		.byte	0x1
 2527 0f0a 5B0F0000 		.4byte	0xf5b
 2528 0f0e 26       		.uleb128 0x26
 2529 0f0f 45010000 		.4byte	.LASF182
 2530 0f13 01       		.byte	0x1
 2531 0f14 3C       		.byte	0x3c
 2532 0f15 5B0F0000 		.4byte	0xf5b
 2533 0f19 E2010000 		.4byte	.LLST4
 2534 0f1d 27       		.uleb128 0x27
 2535 0f1e 1F000000 		.4byte	.LASF178
 2536 0f22 01       		.byte	0x1
 2537 0f23 43       		.byte	0x43
 2538 0f24 A0000000 		.4byte	0xa0
 2539 0f28 24020000 		.4byte	.LLST5
 2540 0f2c 28       		.uleb128 0x28
 2541 0f2d 2A000000 		.4byte	.LVL14
 2542 0f31 DF0F0000 		.4byte	0xfdf
 2543 0f35 450F0000 		.4byte	0xf45
 2544 0f39 29       		.uleb128 0x29
 2545 0f3a 01       		.byte	0x1
 2546 0f3b 51       		.byte	0x51
 2547 0f3c 02       		.byte	0x2
 2548 0f3d 74       		.byte	0x74
 2549 0f3e 07       		.sleb128 7
 2550 0f3f 29       		.uleb128 0x29
 2551 0f40 01       		.byte	0x1
 2552 0f41 52       		.byte	0x52
 2553 0f42 01       		.byte	0x1
 2554 0f43 38       		.byte	0x38
 2555 0f44 00       		.byte	0
 2556 0f45 2B       		.uleb128 0x2b
 2557 0f46 38000000 		.4byte	.LVL15
 2558 0f4a DF0F0000 		.4byte	0xfdf
 2559 0f4e 29       		.uleb128 0x29
 2560 0f4f 01       		.byte	0x1
 2561 0f50 51       		.byte	0x51
 2562 0f51 02       		.byte	0x2
 2563 0f52 74       		.byte	0x74
 2564 0f53 0F       		.sleb128 15
 2565 0f54 29       		.uleb128 0x29
 2566 0f55 01       		.byte	0x1
 2567 0f56 52       		.byte	0x52
ARM GAS  C:\Users\EBANO_~1\AppData\Local\Temp\cc3CSO1m.s 			page 50


 2568 0f57 01       		.byte	0x1
 2569 0f58 38       		.byte	0x38
 2570 0f59 00       		.byte	0
 2571 0f5a 00       		.byte	0
 2572 0f5b 0F       		.uleb128 0xf
 2573 0f5c 04       		.byte	0x4
 2574 0f5d 21030000 		.4byte	0x321
 2575 0f61 25       		.uleb128 0x25
 2576 0f62 01       		.byte	0x1
 2577 0f63 B8070000 		.4byte	.LASF184
 2578 0f67 01       		.byte	0x1
 2579 0f68 18       		.byte	0x18
 2580 0f69 01       		.byte	0x1
 2581 0f6a 7C040000 		.4byte	0x47c
 2582 0f6e 00000000 		.4byte	.LFB39
 2583 0f72 66000000 		.4byte	.LFE39
 2584 0f76 68020000 		.4byte	.LLST0
 2585 0f7a 01       		.byte	0x1
 2586 0f7b CC0F0000 		.4byte	0xfcc
 2587 0f7f 26       		.uleb128 0x26
 2588 0f80 45010000 		.4byte	.LASF182
 2589 0f84 01       		.byte	0x1
 2590 0f85 18       		.byte	0x18
 2591 0f86 CC0F0000 		.4byte	0xfcc
 2592 0f8a 88020000 		.4byte	.LLST1
 2593 0f8e 27       		.uleb128 0x27
 2594 0f8f 1F000000 		.4byte	.LASF178
 2595 0f93 01       		.byte	0x1
 2596 0f94 1F       		.byte	0x1f
 2597 0f95 A0000000 		.4byte	0xa0
 2598 0f99 CA020000 		.4byte	.LLST2
 2599 0f9d 28       		.uleb128 0x28
 2600 0f9e 24000000 		.4byte	.LVL4
 2601 0fa2 DF0F0000 		.4byte	0xfdf
 2602 0fa6 B60F0000 		.4byte	0xfb6
 2603 0faa 29       		.uleb128 0x29
 2604 0fab 01       		.byte	0x1
 2605 0fac 51       		.byte	0x51
 2606 0fad 02       		.byte	0x2
 2607 0fae 74       		.byte	0x74
 2608 0faf 06       		.sleb128 6
 2609 0fb0 29       		.uleb128 0x29
 2610 0fb1 01       		.byte	0x1
 2611 0fb2 52       		.byte	0x52
 2612 0fb3 01       		.byte	0x1
 2613 0fb4 38       		.byte	0x38
 2614 0fb5 00       		.byte	0
 2615 0fb6 2B       		.uleb128 0x2b
 2616 0fb7 32000000 		.4byte	.LVL5
 2617 0fbb DF0F0000 		.4byte	0xfdf
 2618 0fbf 29       		.uleb128 0x29
 2619 0fc0 01       		.byte	0x1
 2620 0fc1 51       		.byte	0x51
 2621 0fc2 02       		.byte	0x2
 2622 0fc3 74       		.byte	0x74
 2623 0fc4 0E       		.sleb128 14
 2624 0fc5 29       		.uleb128 0x29
ARM GAS  C:\Users\EBANO_~1\AppData\Local\Temp\cc3CSO1m.s 			page 51


 2625 0fc6 01       		.byte	0x1
 2626 0fc7 52       		.byte	0x52
 2627 0fc8 01       		.byte	0x1
 2628 0fc9 38       		.byte	0x38
 2629 0fca 00       		.byte	0
 2630 0fcb 00       		.byte	0
 2631 0fcc 0F       		.uleb128 0xf
 2632 0fcd 04       		.byte	0x4
 2633 0fce 99020000 		.4byte	0x299
 2634 0fd2 2C       		.uleb128 0x2c
 2635 0fd3 01       		.byte	0x1
 2636 0fd4 01       		.byte	0x1
 2637 0fd5 F6000000 		.4byte	.LASF185
 2638 0fd9 F6000000 		.4byte	.LASF185
 2639 0fdd 0D       		.byte	0xd
 2640 0fde 89       		.byte	0x89
 2641 0fdf 2C       		.uleb128 0x2c
 2642 0fe0 01       		.byte	0x1
 2643 0fe1 01       		.byte	0x1
 2644 0fe2 07020000 		.4byte	.LASF186
 2645 0fe6 07020000 		.4byte	.LASF186
 2646 0fea 0D       		.byte	0xd
 2647 0feb 92       		.byte	0x92
 2648 0fec 00       		.byte	0
 2649              		.section	.debug_abbrev,"",%progbits
 2650              	.Ldebug_abbrev0:
 2651 0000 01       		.uleb128 0x1
 2652 0001 11       		.uleb128 0x11
 2653 0002 01       		.byte	0x1
 2654 0003 25       		.uleb128 0x25
 2655 0004 0E       		.uleb128 0xe
 2656 0005 13       		.uleb128 0x13
 2657 0006 0B       		.uleb128 0xb
 2658 0007 03       		.uleb128 0x3
 2659 0008 0E       		.uleb128 0xe
 2660 0009 1B       		.uleb128 0x1b
 2661 000a 0E       		.uleb128 0xe
 2662 000b 55       		.uleb128 0x55
 2663 000c 06       		.uleb128 0x6
 2664 000d 11       		.uleb128 0x11
 2665 000e 01       		.uleb128 0x1
 2666 000f 52       		.uleb128 0x52
 2667 0010 01       		.uleb128 0x1
 2668 0011 10       		.uleb128 0x10
 2669 0012 06       		.uleb128 0x6
 2670 0013 00       		.byte	0
 2671 0014 00       		.byte	0
 2672 0015 02       		.uleb128 0x2
 2673 0016 24       		.uleb128 0x24
 2674 0017 00       		.byte	0
 2675 0018 0B       		.uleb128 0xb
 2676 0019 0B       		.uleb128 0xb
 2677 001a 3E       		.uleb128 0x3e
 2678 001b 0B       		.uleb128 0xb
 2679 001c 03       		.uleb128 0x3
 2680 001d 0E       		.uleb128 0xe
 2681 001e 00       		.byte	0
ARM GAS  C:\Users\EBANO_~1\AppData\Local\Temp\cc3CSO1m.s 			page 52


 2682 001f 00       		.byte	0
 2683 0020 03       		.uleb128 0x3
 2684 0021 16       		.uleb128 0x16
 2685 0022 00       		.byte	0
 2686 0023 03       		.uleb128 0x3
 2687 0024 0E       		.uleb128 0xe
 2688 0025 3A       		.uleb128 0x3a
 2689 0026 0B       		.uleb128 0xb
 2690 0027 3B       		.uleb128 0x3b
 2691 0028 0B       		.uleb128 0xb
 2692 0029 49       		.uleb128 0x49
 2693 002a 13       		.uleb128 0x13
 2694 002b 00       		.byte	0
 2695 002c 00       		.byte	0
 2696 002d 04       		.uleb128 0x4
 2697 002e 24       		.uleb128 0x24
 2698 002f 00       		.byte	0
 2699 0030 0B       		.uleb128 0xb
 2700 0031 0B       		.uleb128 0xb
 2701 0032 3E       		.uleb128 0x3e
 2702 0033 0B       		.uleb128 0xb
 2703 0034 03       		.uleb128 0x3
 2704 0035 08       		.uleb128 0x8
 2705 0036 00       		.byte	0
 2706 0037 00       		.byte	0
 2707 0038 05       		.uleb128 0x5
 2708 0039 26       		.uleb128 0x26
 2709 003a 00       		.byte	0
 2710 003b 49       		.uleb128 0x49
 2711 003c 13       		.uleb128 0x13
 2712 003d 00       		.byte	0
 2713 003e 00       		.byte	0
 2714 003f 06       		.uleb128 0x6
 2715 0040 13       		.uleb128 0x13
 2716 0041 01       		.byte	0x1
 2717 0042 03       		.uleb128 0x3
 2718 0043 0E       		.uleb128 0xe
 2719 0044 0B       		.uleb128 0xb
 2720 0045 0B       		.uleb128 0xb
 2721 0046 3A       		.uleb128 0x3a
 2722 0047 0B       		.uleb128 0xb
 2723 0048 3B       		.uleb128 0x3b
 2724 0049 0B       		.uleb128 0xb
 2725 004a 01       		.uleb128 0x1
 2726 004b 13       		.uleb128 0x13
 2727 004c 00       		.byte	0
 2728 004d 00       		.byte	0
 2729 004e 07       		.uleb128 0x7
 2730 004f 0D       		.uleb128 0xd
 2731 0050 00       		.byte	0
 2732 0051 03       		.uleb128 0x3
 2733 0052 0E       		.uleb128 0xe
 2734 0053 3A       		.uleb128 0x3a
 2735 0054 0B       		.uleb128 0xb
 2736 0055 3B       		.uleb128 0x3b
 2737 0056 0B       		.uleb128 0xb
 2738 0057 49       		.uleb128 0x49
ARM GAS  C:\Users\EBANO_~1\AppData\Local\Temp\cc3CSO1m.s 			page 53


 2739 0058 13       		.uleb128 0x13
 2740 0059 0B       		.uleb128 0xb
 2741 005a 0B       		.uleb128 0xb
 2742 005b 0D       		.uleb128 0xd
 2743 005c 0B       		.uleb128 0xb
 2744 005d 0C       		.uleb128 0xc
 2745 005e 0B       		.uleb128 0xb
 2746 005f 38       		.uleb128 0x38
 2747 0060 0A       		.uleb128 0xa
 2748 0061 00       		.byte	0
 2749 0062 00       		.byte	0
 2750 0063 08       		.uleb128 0x8
 2751 0064 0D       		.uleb128 0xd
 2752 0065 00       		.byte	0
 2753 0066 03       		.uleb128 0x3
 2754 0067 08       		.uleb128 0x8
 2755 0068 3A       		.uleb128 0x3a
 2756 0069 0B       		.uleb128 0xb
 2757 006a 3B       		.uleb128 0x3b
 2758 006b 0B       		.uleb128 0xb
 2759 006c 49       		.uleb128 0x49
 2760 006d 13       		.uleb128 0x13
 2761 006e 0B       		.uleb128 0xb
 2762 006f 0B       		.uleb128 0xb
 2763 0070 0D       		.uleb128 0xd
 2764 0071 0B       		.uleb128 0xb
 2765 0072 0C       		.uleb128 0xc
 2766 0073 0B       		.uleb128 0xb
 2767 0074 38       		.uleb128 0x38
 2768 0075 0A       		.uleb128 0xa
 2769 0076 00       		.byte	0
 2770 0077 00       		.byte	0
 2771 0078 09       		.uleb128 0x9
 2772 0079 17       		.uleb128 0x17
 2773 007a 01       		.byte	0x1
 2774 007b 03       		.uleb128 0x3
 2775 007c 0E       		.uleb128 0xe
 2776 007d 0B       		.uleb128 0xb
 2777 007e 0B       		.uleb128 0xb
 2778 007f 3A       		.uleb128 0x3a
 2779 0080 0B       		.uleb128 0xb
 2780 0081 3B       		.uleb128 0x3b
 2781 0082 0B       		.uleb128 0xb
 2782 0083 01       		.uleb128 0x1
 2783 0084 13       		.uleb128 0x13
 2784 0085 00       		.byte	0
 2785 0086 00       		.byte	0
 2786 0087 0A       		.uleb128 0xa
 2787 0088 0D       		.uleb128 0xd
 2788 0089 00       		.byte	0
 2789 008a 03       		.uleb128 0x3
 2790 008b 0E       		.uleb128 0xe
 2791 008c 3A       		.uleb128 0x3a
 2792 008d 0B       		.uleb128 0xb
 2793 008e 3B       		.uleb128 0x3b
 2794 008f 0B       		.uleb128 0xb
 2795 0090 49       		.uleb128 0x49
ARM GAS  C:\Users\EBANO_~1\AppData\Local\Temp\cc3CSO1m.s 			page 54


 2796 0091 13       		.uleb128 0x13
 2797 0092 00       		.byte	0
 2798 0093 00       		.byte	0
 2799 0094 0B       		.uleb128 0xb
 2800 0095 0D       		.uleb128 0xd
 2801 0096 00       		.byte	0
 2802 0097 03       		.uleb128 0x3
 2803 0098 0E       		.uleb128 0xe
 2804 0099 3A       		.uleb128 0x3a
 2805 009a 0B       		.uleb128 0xb
 2806 009b 3B       		.uleb128 0x3b
 2807 009c 0B       		.uleb128 0xb
 2808 009d 49       		.uleb128 0x49
 2809 009e 13       		.uleb128 0x13
 2810 009f 38       		.uleb128 0x38
 2811 00a0 0A       		.uleb128 0xa
 2812 00a1 00       		.byte	0
 2813 00a2 00       		.byte	0
 2814 00a3 0C       		.uleb128 0xc
 2815 00a4 01       		.uleb128 0x1
 2816 00a5 01       		.byte	0x1
 2817 00a6 49       		.uleb128 0x49
 2818 00a7 13       		.uleb128 0x13
 2819 00a8 01       		.uleb128 0x1
 2820 00a9 13       		.uleb128 0x13
 2821 00aa 00       		.byte	0
 2822 00ab 00       		.byte	0
 2823 00ac 0D       		.uleb128 0xd
 2824 00ad 21       		.uleb128 0x21
 2825 00ae 00       		.byte	0
 2826 00af 49       		.uleb128 0x49
 2827 00b0 13       		.uleb128 0x13
 2828 00b1 2F       		.uleb128 0x2f
 2829 00b2 0B       		.uleb128 0xb
 2830 00b3 00       		.byte	0
 2831 00b4 00       		.byte	0
 2832 00b5 0E       		.uleb128 0xe
 2833 00b6 0D       		.uleb128 0xd
 2834 00b7 00       		.byte	0
 2835 00b8 03       		.uleb128 0x3
 2836 00b9 08       		.uleb128 0x8
 2837 00ba 3A       		.uleb128 0x3a
 2838 00bb 0B       		.uleb128 0xb
 2839 00bc 3B       		.uleb128 0x3b
 2840 00bd 0B       		.uleb128 0xb
 2841 00be 49       		.uleb128 0x49
 2842 00bf 13       		.uleb128 0x13
 2843 00c0 38       		.uleb128 0x38
 2844 00c1 0A       		.uleb128 0xa
 2845 00c2 00       		.byte	0
 2846 00c3 00       		.byte	0
 2847 00c4 0F       		.uleb128 0xf
 2848 00c5 0F       		.uleb128 0xf
 2849 00c6 00       		.byte	0
 2850 00c7 0B       		.uleb128 0xb
 2851 00c8 0B       		.uleb128 0xb
 2852 00c9 49       		.uleb128 0x49
ARM GAS  C:\Users\EBANO_~1\AppData\Local\Temp\cc3CSO1m.s 			page 55


 2853 00ca 13       		.uleb128 0x13
 2854 00cb 00       		.byte	0
 2855 00cc 00       		.byte	0
 2856 00cd 10       		.uleb128 0x10
 2857 00ce 0D       		.uleb128 0xd
 2858 00cf 00       		.byte	0
 2859 00d0 03       		.uleb128 0x3
 2860 00d1 0E       		.uleb128 0xe
 2861 00d2 3A       		.uleb128 0x3a
 2862 00d3 0B       		.uleb128 0xb
 2863 00d4 3B       		.uleb128 0x3b
 2864 00d5 05       		.uleb128 0x5
 2865 00d6 49       		.uleb128 0x49
 2866 00d7 13       		.uleb128 0x13
 2867 00d8 38       		.uleb128 0x38
 2868 00d9 0A       		.uleb128 0xa
 2869 00da 00       		.byte	0
 2870 00db 00       		.byte	0
 2871 00dc 11       		.uleb128 0x11
 2872 00dd 0D       		.uleb128 0xd
 2873 00de 00       		.byte	0
 2874 00df 03       		.uleb128 0x3
 2875 00e0 08       		.uleb128 0x8
 2876 00e1 3A       		.uleb128 0x3a
 2877 00e2 0B       		.uleb128 0xb
 2878 00e3 3B       		.uleb128 0x3b
 2879 00e4 05       		.uleb128 0x5
 2880 00e5 49       		.uleb128 0x49
 2881 00e6 13       		.uleb128 0x13
 2882 00e7 38       		.uleb128 0x38
 2883 00e8 0A       		.uleb128 0xa
 2884 00e9 00       		.byte	0
 2885 00ea 00       		.byte	0
 2886 00eb 12       		.uleb128 0x12
 2887 00ec 16       		.uleb128 0x16
 2888 00ed 00       		.byte	0
 2889 00ee 03       		.uleb128 0x3
 2890 00ef 0E       		.uleb128 0xe
 2891 00f0 3A       		.uleb128 0x3a
 2892 00f1 0B       		.uleb128 0xb
 2893 00f2 3B       		.uleb128 0x3b
 2894 00f3 05       		.uleb128 0x5
 2895 00f4 49       		.uleb128 0x49
 2896 00f5 13       		.uleb128 0x13
 2897 00f6 00       		.byte	0
 2898 00f7 00       		.byte	0
 2899 00f8 13       		.uleb128 0x13
 2900 00f9 04       		.uleb128 0x4
 2901 00fa 01       		.byte	0x1
 2902 00fb 03       		.uleb128 0x3
 2903 00fc 0E       		.uleb128 0xe
 2904 00fd 3E       		.uleb128 0x3e
 2905 00fe 0B       		.uleb128 0xb
 2906 00ff 0B       		.uleb128 0xb
 2907 0100 0B       		.uleb128 0xb
 2908 0101 49       		.uleb128 0x49
 2909 0102 13       		.uleb128 0x13
ARM GAS  C:\Users\EBANO_~1\AppData\Local\Temp\cc3CSO1m.s 			page 56


 2910 0103 3A       		.uleb128 0x3a
 2911 0104 0B       		.uleb128 0xb
 2912 0105 3B       		.uleb128 0x3b
 2913 0106 0B       		.uleb128 0xb
 2914 0107 01       		.uleb128 0x1
 2915 0108 13       		.uleb128 0x13
 2916 0109 00       		.byte	0
 2917 010a 00       		.byte	0
 2918 010b 14       		.uleb128 0x14
 2919 010c 28       		.uleb128 0x28
 2920 010d 00       		.byte	0
 2921 010e 03       		.uleb128 0x3
 2922 010f 0E       		.uleb128 0xe
 2923 0110 1C       		.uleb128 0x1c
 2924 0111 0B       		.uleb128 0xb
 2925 0112 00       		.byte	0
 2926 0113 00       		.byte	0
 2927 0114 15       		.uleb128 0x15
 2928 0115 34       		.uleb128 0x34
 2929 0116 00       		.byte	0
 2930 0117 03       		.uleb128 0x3
 2931 0118 0E       		.uleb128 0xe
 2932 0119 3A       		.uleb128 0x3a
 2933 011a 0B       		.uleb128 0xb
 2934 011b 3B       		.uleb128 0x3b
 2935 011c 0B       		.uleb128 0xb
 2936 011d 49       		.uleb128 0x49
 2937 011e 13       		.uleb128 0x13
 2938 011f 3F       		.uleb128 0x3f
 2939 0120 0C       		.uleb128 0xc
 2940 0121 3C       		.uleb128 0x3c
 2941 0122 0C       		.uleb128 0xc
 2942 0123 00       		.byte	0
 2943 0124 00       		.byte	0
 2944 0125 16       		.uleb128 0x16
 2945 0126 0F       		.uleb128 0xf
 2946 0127 00       		.byte	0
 2947 0128 0B       		.uleb128 0xb
 2948 0129 0B       		.uleb128 0xb
 2949 012a 00       		.byte	0
 2950 012b 00       		.byte	0
 2951 012c 17       		.uleb128 0x17
 2952 012d 13       		.uleb128 0x13
 2953 012e 00       		.byte	0
 2954 012f 03       		.uleb128 0x3
 2955 0130 0E       		.uleb128 0xe
 2956 0131 3C       		.uleb128 0x3c
 2957 0132 0C       		.uleb128 0xc
 2958 0133 00       		.byte	0
 2959 0134 00       		.byte	0
 2960 0135 18       		.uleb128 0x18
 2961 0136 17       		.uleb128 0x17
 2962 0137 01       		.byte	0x1
 2963 0138 0B       		.uleb128 0xb
 2964 0139 0B       		.uleb128 0xb
 2965 013a 3A       		.uleb128 0x3a
 2966 013b 0B       		.uleb128 0xb
ARM GAS  C:\Users\EBANO_~1\AppData\Local\Temp\cc3CSO1m.s 			page 57


 2967 013c 3B       		.uleb128 0x3b
 2968 013d 0B       		.uleb128 0xb
 2969 013e 01       		.uleb128 0x1
 2970 013f 13       		.uleb128 0x13
 2971 0140 00       		.byte	0
 2972 0141 00       		.byte	0
 2973 0142 19       		.uleb128 0x19
 2974 0143 13       		.uleb128 0x13
 2975 0144 01       		.byte	0x1
 2976 0145 0B       		.uleb128 0xb
 2977 0146 0B       		.uleb128 0xb
 2978 0147 3A       		.uleb128 0x3a
 2979 0148 0B       		.uleb128 0xb
 2980 0149 3B       		.uleb128 0x3b
 2981 014a 0B       		.uleb128 0xb
 2982 014b 01       		.uleb128 0x1
 2983 014c 13       		.uleb128 0x13
 2984 014d 00       		.byte	0
 2985 014e 00       		.byte	0
 2986 014f 1A       		.uleb128 0x1a
 2987 0150 13       		.uleb128 0x13
 2988 0151 01       		.byte	0x1
 2989 0152 03       		.uleb128 0x3
 2990 0153 0E       		.uleb128 0xe
 2991 0154 0B       		.uleb128 0xb
 2992 0155 05       		.uleb128 0x5
 2993 0156 3A       		.uleb128 0x3a
 2994 0157 0B       		.uleb128 0xb
 2995 0158 3B       		.uleb128 0x3b
 2996 0159 0B       		.uleb128 0xb
 2997 015a 01       		.uleb128 0x1
 2998 015b 13       		.uleb128 0x13
 2999 015c 00       		.byte	0
 3000 015d 00       		.byte	0
 3001 015e 1B       		.uleb128 0x1b
 3002 015f 15       		.uleb128 0x15
 3003 0160 00       		.byte	0
 3004 0161 27       		.uleb128 0x27
 3005 0162 0C       		.uleb128 0xc
 3006 0163 00       		.byte	0
 3007 0164 00       		.byte	0
 3008 0165 1C       		.uleb128 0x1c
 3009 0166 15       		.uleb128 0x15
 3010 0167 01       		.byte	0x1
 3011 0168 27       		.uleb128 0x27
 3012 0169 0C       		.uleb128 0xc
 3013 016a 49       		.uleb128 0x49
 3014 016b 13       		.uleb128 0x13
 3015 016c 01       		.uleb128 0x1
 3016 016d 13       		.uleb128 0x13
 3017 016e 00       		.byte	0
 3018 016f 00       		.byte	0
 3019 0170 1D       		.uleb128 0x1d
 3020 0171 05       		.uleb128 0x5
 3021 0172 00       		.byte	0
 3022 0173 49       		.uleb128 0x49
 3023 0174 13       		.uleb128 0x13
ARM GAS  C:\Users\EBANO_~1\AppData\Local\Temp\cc3CSO1m.s 			page 58


 3024 0175 00       		.byte	0
 3025 0176 00       		.byte	0
 3026 0177 1E       		.uleb128 0x1e
 3027 0178 13       		.uleb128 0x13
 3028 0179 01       		.byte	0x1
 3029 017a 03       		.uleb128 0x3
 3030 017b 0E       		.uleb128 0xe
 3031 017c 0B       		.uleb128 0xb
 3032 017d 05       		.uleb128 0x5
 3033 017e 3A       		.uleb128 0x3a
 3034 017f 0B       		.uleb128 0xb
 3035 0180 3B       		.uleb128 0x3b
 3036 0181 05       		.uleb128 0x5
 3037 0182 01       		.uleb128 0x1
 3038 0183 13       		.uleb128 0x13
 3039 0184 00       		.byte	0
 3040 0185 00       		.byte	0
 3041 0186 1F       		.uleb128 0x1f
 3042 0187 13       		.uleb128 0x13
 3043 0188 01       		.byte	0x1
 3044 0189 03       		.uleb128 0x3
 3045 018a 0E       		.uleb128 0xe
 3046 018b 0B       		.uleb128 0xb
 3047 018c 0B       		.uleb128 0xb
 3048 018d 3A       		.uleb128 0x3a
 3049 018e 0B       		.uleb128 0xb
 3050 018f 3B       		.uleb128 0x3b
 3051 0190 05       		.uleb128 0x5
 3052 0191 01       		.uleb128 0x1
 3053 0192 13       		.uleb128 0x13
 3054 0193 00       		.byte	0
 3055 0194 00       		.byte	0
 3056 0195 20       		.uleb128 0x20
 3057 0196 13       		.uleb128 0x13
 3058 0197 01       		.byte	0x1
 3059 0198 0B       		.uleb128 0xb
 3060 0199 0B       		.uleb128 0xb
 3061 019a 3A       		.uleb128 0x3a
 3062 019b 0B       		.uleb128 0xb
 3063 019c 3B       		.uleb128 0x3b
 3064 019d 05       		.uleb128 0x5
 3065 019e 01       		.uleb128 0x1
 3066 019f 13       		.uleb128 0x13
 3067 01a0 00       		.byte	0
 3068 01a1 00       		.byte	0
 3069 01a2 21       		.uleb128 0x21
 3070 01a3 17       		.uleb128 0x17
 3071 01a4 01       		.byte	0x1
 3072 01a5 0B       		.uleb128 0xb
 3073 01a6 0B       		.uleb128 0xb
 3074 01a7 3A       		.uleb128 0x3a
 3075 01a8 0B       		.uleb128 0xb
 3076 01a9 3B       		.uleb128 0x3b
 3077 01aa 05       		.uleb128 0x5
 3078 01ab 01       		.uleb128 0x1
 3079 01ac 13       		.uleb128 0x13
 3080 01ad 00       		.byte	0
ARM GAS  C:\Users\EBANO_~1\AppData\Local\Temp\cc3CSO1m.s 			page 59


 3081 01ae 00       		.byte	0
 3082 01af 22       		.uleb128 0x22
 3083 01b0 0D       		.uleb128 0xd
 3084 01b1 00       		.byte	0
 3085 01b2 03       		.uleb128 0x3
 3086 01b3 0E       		.uleb128 0xe
 3087 01b4 3A       		.uleb128 0x3a
 3088 01b5 0B       		.uleb128 0xb
 3089 01b6 3B       		.uleb128 0x3b
 3090 01b7 05       		.uleb128 0x5
 3091 01b8 49       		.uleb128 0x49
 3092 01b9 13       		.uleb128 0x13
 3093 01ba 00       		.byte	0
 3094 01bb 00       		.byte	0
 3095 01bc 23       		.uleb128 0x23
 3096 01bd 15       		.uleb128 0x15
 3097 01be 01       		.byte	0x1
 3098 01bf 27       		.uleb128 0x27
 3099 01c0 0C       		.uleb128 0xc
 3100 01c1 01       		.uleb128 0x1
 3101 01c2 13       		.uleb128 0x13
 3102 01c3 00       		.byte	0
 3103 01c4 00       		.byte	0
 3104 01c5 24       		.uleb128 0x24
 3105 01c6 34       		.uleb128 0x34
 3106 01c7 00       		.byte	0
 3107 01c8 03       		.uleb128 0x3
 3108 01c9 0E       		.uleb128 0xe
 3109 01ca 3A       		.uleb128 0x3a
 3110 01cb 0B       		.uleb128 0xb
 3111 01cc 3B       		.uleb128 0x3b
 3112 01cd 05       		.uleb128 0x5
 3113 01ce 49       		.uleb128 0x49
 3114 01cf 13       		.uleb128 0x13
 3115 01d0 3F       		.uleb128 0x3f
 3116 01d1 0C       		.uleb128 0xc
 3117 01d2 3C       		.uleb128 0x3c
 3118 01d3 0C       		.uleb128 0xc
 3119 01d4 00       		.byte	0
 3120 01d5 00       		.byte	0
 3121 01d6 25       		.uleb128 0x25
 3122 01d7 2E       		.uleb128 0x2e
 3123 01d8 01       		.byte	0x1
 3124 01d9 3F       		.uleb128 0x3f
 3125 01da 0C       		.uleb128 0xc
 3126 01db 03       		.uleb128 0x3
 3127 01dc 0E       		.uleb128 0xe
 3128 01dd 3A       		.uleb128 0x3a
 3129 01de 0B       		.uleb128 0xb
 3130 01df 3B       		.uleb128 0x3b
 3131 01e0 0B       		.uleb128 0xb
 3132 01e1 27       		.uleb128 0x27
 3133 01e2 0C       		.uleb128 0xc
 3134 01e3 49       		.uleb128 0x49
 3135 01e4 13       		.uleb128 0x13
 3136 01e5 11       		.uleb128 0x11
 3137 01e6 01       		.uleb128 0x1
ARM GAS  C:\Users\EBANO_~1\AppData\Local\Temp\cc3CSO1m.s 			page 60


 3138 01e7 12       		.uleb128 0x12
 3139 01e8 01       		.uleb128 0x1
 3140 01e9 40       		.uleb128 0x40
 3141 01ea 06       		.uleb128 0x6
 3142 01eb 9742     		.uleb128 0x2117
 3143 01ed 0C       		.uleb128 0xc
 3144 01ee 01       		.uleb128 0x1
 3145 01ef 13       		.uleb128 0x13
 3146 01f0 00       		.byte	0
 3147 01f1 00       		.byte	0
 3148 01f2 26       		.uleb128 0x26
 3149 01f3 05       		.uleb128 0x5
 3150 01f4 00       		.byte	0
 3151 01f5 03       		.uleb128 0x3
 3152 01f6 0E       		.uleb128 0xe
 3153 01f7 3A       		.uleb128 0x3a
 3154 01f8 0B       		.uleb128 0xb
 3155 01f9 3B       		.uleb128 0x3b
 3156 01fa 0B       		.uleb128 0xb
 3157 01fb 49       		.uleb128 0x49
 3158 01fc 13       		.uleb128 0x13
 3159 01fd 02       		.uleb128 0x2
 3160 01fe 06       		.uleb128 0x6
 3161 01ff 00       		.byte	0
 3162 0200 00       		.byte	0
 3163 0201 27       		.uleb128 0x27
 3164 0202 34       		.uleb128 0x34
 3165 0203 00       		.byte	0
 3166 0204 03       		.uleb128 0x3
 3167 0205 0E       		.uleb128 0xe
 3168 0206 3A       		.uleb128 0x3a
 3169 0207 0B       		.uleb128 0xb
 3170 0208 3B       		.uleb128 0x3b
 3171 0209 0B       		.uleb128 0xb
 3172 020a 49       		.uleb128 0x49
 3173 020b 13       		.uleb128 0x13
 3174 020c 02       		.uleb128 0x2
 3175 020d 06       		.uleb128 0x6
 3176 020e 00       		.byte	0
 3177 020f 00       		.byte	0
 3178 0210 28       		.uleb128 0x28
 3179 0211 898201   		.uleb128 0x4109
 3180 0214 01       		.byte	0x1
 3181 0215 11       		.uleb128 0x11
 3182 0216 01       		.uleb128 0x1
 3183 0217 31       		.uleb128 0x31
 3184 0218 13       		.uleb128 0x13
 3185 0219 01       		.uleb128 0x1
 3186 021a 13       		.uleb128 0x13
 3187 021b 00       		.byte	0
 3188 021c 00       		.byte	0
 3189 021d 29       		.uleb128 0x29
 3190 021e 8A8201   		.uleb128 0x410a
 3191 0221 00       		.byte	0
 3192 0222 02       		.uleb128 0x2
 3193 0223 0A       		.uleb128 0xa
 3194 0224 9142     		.uleb128 0x2111
ARM GAS  C:\Users\EBANO_~1\AppData\Local\Temp\cc3CSO1m.s 			page 61


 3195 0226 0A       		.uleb128 0xa
 3196 0227 00       		.byte	0
 3197 0228 00       		.byte	0
 3198 0229 2A       		.uleb128 0x2a
 3199 022a 898201   		.uleb128 0x4109
 3200 022d 00       		.byte	0
 3201 022e 11       		.uleb128 0x11
 3202 022f 01       		.uleb128 0x1
 3203 0230 31       		.uleb128 0x31
 3204 0231 13       		.uleb128 0x13
 3205 0232 00       		.byte	0
 3206 0233 00       		.byte	0
 3207 0234 2B       		.uleb128 0x2b
 3208 0235 898201   		.uleb128 0x4109
 3209 0238 01       		.byte	0x1
 3210 0239 11       		.uleb128 0x11
 3211 023a 01       		.uleb128 0x1
 3212 023b 31       		.uleb128 0x31
 3213 023c 13       		.uleb128 0x13
 3214 023d 00       		.byte	0
 3215 023e 00       		.byte	0
 3216 023f 2C       		.uleb128 0x2c
 3217 0240 2E       		.uleb128 0x2e
 3218 0241 00       		.byte	0
 3219 0242 3F       		.uleb128 0x3f
 3220 0243 0C       		.uleb128 0xc
 3221 0244 3C       		.uleb128 0x3c
 3222 0245 0C       		.uleb128 0xc
 3223 0246 8740     		.uleb128 0x2007
 3224 0248 0E       		.uleb128 0xe
 3225 0249 03       		.uleb128 0x3
 3226 024a 0E       		.uleb128 0xe
 3227 024b 3A       		.uleb128 0x3a
 3228 024c 0B       		.uleb128 0xb
 3229 024d 3B       		.uleb128 0x3b
 3230 024e 0B       		.uleb128 0xb
 3231 024f 00       		.byte	0
 3232 0250 00       		.byte	0
 3233 0251 00       		.byte	0
 3234              		.section	.debug_loc,"",%progbits
 3235              	.Ldebug_loc0:
 3236              	.LLST9:
 3237 0000 00000000 		.4byte	.LFB42
 3238 0004 02000000 		.4byte	.LCFI3
 3239 0008 0200     		.2byte	0x2
 3240 000a 7D       		.byte	0x7d
 3241 000b 00       		.sleb128 0
 3242 000c 02000000 		.4byte	.LCFI3
 3243 0010 DC000000 		.4byte	.LFE42
 3244 0014 0200     		.2byte	0x2
 3245 0016 7D       		.byte	0x7d
 3246 0017 10       		.sleb128 16
 3247 0018 00000000 		.4byte	0
 3248 001c 00000000 		.4byte	0
 3249              	.LLST10:
 3250 0020 00000000 		.4byte	.LVL32
 3251 0024 12000000 		.4byte	.LVL34
ARM GAS  C:\Users\EBANO_~1\AppData\Local\Temp\cc3CSO1m.s 			page 62


 3252 0028 0100     		.2byte	0x1
 3253 002a 50       		.byte	0x50
 3254 002b 12000000 		.4byte	.LVL34
 3255 002f B4000000 		.4byte	.LVL45
 3256 0033 0100     		.2byte	0x1
 3257 0035 54       		.byte	0x54
 3258 0036 B4000000 		.4byte	.LVL45
 3259 003a B6000000 		.4byte	.LVL46
 3260 003e 0400     		.2byte	0x4
 3261 0040 F3       		.byte	0xf3
 3262 0041 01       		.uleb128 0x1
 3263 0042 50       		.byte	0x50
 3264 0043 9F       		.byte	0x9f
 3265 0044 B6000000 		.4byte	.LVL46
 3266 0048 C8000000 		.4byte	.LVL47
 3267 004c 0100     		.2byte	0x1
 3268 004e 54       		.byte	0x54
 3269 004f C8000000 		.4byte	.LVL47
 3270 0053 CA000000 		.4byte	.LVL48
 3271 0057 0100     		.2byte	0x1
 3272 0059 50       		.byte	0x50
 3273 005a CA000000 		.4byte	.LVL48
 3274 005e DC000000 		.4byte	.LFE42
 3275 0062 0100     		.2byte	0x1
 3276 0064 54       		.byte	0x54
 3277 0065 00000000 		.4byte	0
 3278 0069 00000000 		.4byte	0
 3279              	.LLST11:
 3280 006d 0C000000 		.4byte	.LVL33
 3281 0071 1A000000 		.4byte	.LVL35
 3282 0075 0200     		.2byte	0x2
 3283 0077 30       		.byte	0x30
 3284 0078 9F       		.byte	0x9f
 3285 0079 1A000000 		.4byte	.LVL35
 3286 007d 6C000000 		.4byte	.LVL37
 3287 0081 0200     		.2byte	0x2
 3288 0083 38       		.byte	0x38
 3289 0084 9F       		.byte	0x9f
 3290 0085 6C000000 		.4byte	.LVL37
 3291 0089 8A000000 		.4byte	.LVL39
 3292 008d 0100     		.2byte	0x1
 3293 008f 55       		.byte	0x55
 3294 0090 8A000000 		.4byte	.LVL39
 3295 0094 8C000000 		.4byte	.LVL40
 3296 0098 0300     		.2byte	0x3
 3297 009a 73       		.byte	0x73
 3298 009b 01       		.sleb128 1
 3299 009c 9F       		.byte	0x9f
 3300 009d 8C000000 		.4byte	.LVL40
 3301 00a1 98000000 		.4byte	.LVL41
 3302 00a5 0300     		.2byte	0x3
 3303 00a7 73       		.byte	0x73
 3304 00a8 02       		.sleb128 2
 3305 00a9 9F       		.byte	0x9f
 3306 00aa 98000000 		.4byte	.LVL41
 3307 00ae A2000000 		.4byte	.LVL42
 3308 00b2 0300     		.2byte	0x3
ARM GAS  C:\Users\EBANO_~1\AppData\Local\Temp\cc3CSO1m.s 			page 63


 3309 00b4 73       		.byte	0x73
 3310 00b5 03       		.sleb128 3
 3311 00b6 9F       		.byte	0x9f
 3312 00b7 A2000000 		.4byte	.LVL42
 3313 00bb B2000000 		.4byte	.LVL43
 3314 00bf 0300     		.2byte	0x3
 3315 00c1 73       		.byte	0x73
 3316 00c2 04       		.sleb128 4
 3317 00c3 9F       		.byte	0x9f
 3318 00c4 B2000000 		.4byte	.LVL43
 3319 00c8 B4000000 		.4byte	.LVL44
 3320 00cc 0300     		.2byte	0x3
 3321 00ce 73       		.byte	0x73
 3322 00cf 00       		.sleb128 0
 3323 00d0 9F       		.byte	0x9f
 3324 00d1 B6000000 		.4byte	.LVL46
 3325 00d5 C8000000 		.4byte	.LVL47
 3326 00d9 0200     		.2byte	0x2
 3327 00db 30       		.byte	0x30
 3328 00dc 9F       		.byte	0x9f
 3329 00dd CC000000 		.4byte	.LVL49
 3330 00e1 DC000000 		.4byte	.LFE42
 3331 00e5 0100     		.2byte	0x1
 3332 00e7 55       		.byte	0x55
 3333 00e8 00000000 		.4byte	0
 3334 00ec 00000000 		.4byte	0
 3335              	.LLST12:
 3336 00f0 0C000000 		.4byte	.LVL33
 3337 00f4 B4000000 		.4byte	.LVL44
 3338 00f8 0200     		.2byte	0x2
 3339 00fa 38       		.byte	0x38
 3340 00fb 9F       		.byte	0x9f
 3341 00fc B6000000 		.4byte	.LVL46
 3342 0100 C8000000 		.4byte	.LVL47
 3343 0104 0200     		.2byte	0x2
 3344 0106 38       		.byte	0x38
 3345 0107 9F       		.byte	0x9f
 3346 0108 CC000000 		.4byte	.LVL49
 3347 010c DC000000 		.4byte	.LFE42
 3348 0110 0200     		.2byte	0x2
 3349 0112 38       		.byte	0x38
 3350 0113 9F       		.byte	0x9f
 3351 0114 00000000 		.4byte	0
 3352 0118 00000000 		.4byte	0
 3353              	.LLST6:
 3354 011c 00000000 		.4byte	.LFB41
 3355 0120 02000000 		.4byte	.LCFI2
 3356 0124 0200     		.2byte	0x2
 3357 0126 7D       		.byte	0x7d
 3358 0127 00       		.sleb128 0
 3359 0128 02000000 		.4byte	.LCFI2
 3360 012c 4E000000 		.4byte	.LFE41
 3361 0130 0200     		.2byte	0x2
 3362 0132 7D       		.byte	0x7d
 3363 0133 08       		.sleb128 8
 3364 0134 00000000 		.4byte	0
 3365 0138 00000000 		.4byte	0
ARM GAS  C:\Users\EBANO_~1\AppData\Local\Temp\cc3CSO1m.s 			page 64


 3366              	.LLST7:
 3367 013c 00000000 		.4byte	.LVL21
 3368 0140 10000000 		.4byte	.LVL23
 3369 0144 0100     		.2byte	0x1
 3370 0146 50       		.byte	0x50
 3371 0147 10000000 		.4byte	.LVL23
 3372 014b 48000000 		.4byte	.LVL29
 3373 014f 0100     		.2byte	0x1
 3374 0151 54       		.byte	0x54
 3375 0152 48000000 		.4byte	.LVL29
 3376 0156 4A000000 		.4byte	.LVL30
 3377 015a 0400     		.2byte	0x4
 3378 015c F3       		.byte	0xf3
 3379 015d 01       		.uleb128 0x1
 3380 015e 50       		.byte	0x50
 3381 015f 9F       		.byte	0x9f
 3382 0160 4A000000 		.4byte	.LVL30
 3383 0164 4C000000 		.4byte	.LVL31
 3384 0168 0100     		.2byte	0x1
 3385 016a 50       		.byte	0x50
 3386 016b 4C000000 		.4byte	.LVL31
 3387 016f 4E000000 		.4byte	.LFE41
 3388 0173 0100     		.2byte	0x1
 3389 0175 54       		.byte	0x54
 3390 0176 00000000 		.4byte	0
 3391 017a 00000000 		.4byte	0
 3392              	.LLST8:
 3393 017e 0C000000 		.4byte	.LVL22
 3394 0182 14000000 		.4byte	.LVL24
 3395 0186 0200     		.2byte	0x2
 3396 0188 30       		.byte	0x30
 3397 0189 9F       		.byte	0x9f
 3398 018a 14000000 		.4byte	.LVL24
 3399 018e 2A000000 		.4byte	.LVL25
 3400 0192 0200     		.2byte	0x2
 3401 0194 32       		.byte	0x32
 3402 0195 9F       		.byte	0x9f
 3403 0196 2A000000 		.4byte	.LVL25
 3404 019a 38000000 		.4byte	.LVL26
 3405 019e 0200     		.2byte	0x2
 3406 01a0 35       		.byte	0x35
 3407 01a1 9F       		.byte	0x9f
 3408 01a2 38000000 		.4byte	.LVL26
 3409 01a6 44000000 		.4byte	.LVL27
 3410 01aa 0200     		.2byte	0x2
 3411 01ac 3E       		.byte	0x3e
 3412 01ad 9F       		.byte	0x9f
 3413 01ae 44000000 		.4byte	.LVL27
 3414 01b2 48000000 		.4byte	.LVL28
 3415 01b6 0200     		.2byte	0x2
 3416 01b8 3F       		.byte	0x3f
 3417 01b9 9F       		.byte	0x9f
 3418 01ba 00000000 		.4byte	0
 3419 01be 00000000 		.4byte	0
 3420              	.LLST3:
 3421 01c2 00000000 		.4byte	.LFB40
 3422 01c6 02000000 		.4byte	.LCFI1
ARM GAS  C:\Users\EBANO_~1\AppData\Local\Temp\cc3CSO1m.s 			page 65


 3423 01ca 0200     		.2byte	0x2
 3424 01cc 7D       		.byte	0x7d
 3425 01cd 00       		.sleb128 0
 3426 01ce 02000000 		.4byte	.LCFI1
 3427 01d2 4E000000 		.4byte	.LFE40
 3428 01d6 0200     		.2byte	0x2
 3429 01d8 7D       		.byte	0x7d
 3430 01d9 08       		.sleb128 8
 3431 01da 00000000 		.4byte	0
 3432 01de 00000000 		.4byte	0
 3433              	.LLST4:
 3434 01e2 00000000 		.4byte	.LVL10
 3435 01e6 10000000 		.4byte	.LVL12
 3436 01ea 0100     		.2byte	0x1
 3437 01ec 50       		.byte	0x50
 3438 01ed 10000000 		.4byte	.LVL12
 3439 01f1 48000000 		.4byte	.LVL18
 3440 01f5 0100     		.2byte	0x1
 3441 01f7 54       		.byte	0x54
 3442 01f8 48000000 		.4byte	.LVL18
 3443 01fc 4A000000 		.4byte	.LVL19
 3444 0200 0400     		.2byte	0x4
 3445 0202 F3       		.byte	0xf3
 3446 0203 01       		.uleb128 0x1
 3447 0204 50       		.byte	0x50
 3448 0205 9F       		.byte	0x9f
 3449 0206 4A000000 		.4byte	.LVL19
 3450 020a 4C000000 		.4byte	.LVL20
 3451 020e 0100     		.2byte	0x1
 3452 0210 50       		.byte	0x50
 3453 0211 4C000000 		.4byte	.LVL20
 3454 0215 4E000000 		.4byte	.LFE40
 3455 0219 0100     		.2byte	0x1
 3456 021b 54       		.byte	0x54
 3457 021c 00000000 		.4byte	0
 3458 0220 00000000 		.4byte	0
 3459              	.LLST5:
 3460 0224 0C000000 		.4byte	.LVL11
 3461 0228 14000000 		.4byte	.LVL13
 3462 022c 0200     		.2byte	0x2
 3463 022e 30       		.byte	0x30
 3464 022f 9F       		.byte	0x9f
 3465 0230 14000000 		.4byte	.LVL13
 3466 0234 2A000000 		.4byte	.LVL14
 3467 0238 0200     		.2byte	0x2
 3468 023a 32       		.byte	0x32
 3469 023b 9F       		.byte	0x9f
 3470 023c 2A000000 		.4byte	.LVL14
 3471 0240 38000000 		.4byte	.LVL15
 3472 0244 0200     		.2byte	0x2
 3473 0246 3A       		.byte	0x3a
 3474 0247 9F       		.byte	0x9f
 3475 0248 38000000 		.4byte	.LVL15
 3476 024c 44000000 		.4byte	.LVL16
 3477 0250 0200     		.2byte	0x2
 3478 0252 43       		.byte	0x43
 3479 0253 9F       		.byte	0x9f
ARM GAS  C:\Users\EBANO_~1\AppData\Local\Temp\cc3CSO1m.s 			page 66


 3480 0254 44000000 		.4byte	.LVL16
 3481 0258 48000000 		.4byte	.LVL17
 3482 025c 0200     		.2byte	0x2
 3483 025e 44       		.byte	0x44
 3484 025f 9F       		.byte	0x9f
 3485 0260 00000000 		.4byte	0
 3486 0264 00000000 		.4byte	0
 3487              	.LLST0:
 3488 0268 00000000 		.4byte	.LFB39
 3489 026c 02000000 		.4byte	.LCFI0
 3490 0270 0200     		.2byte	0x2
 3491 0272 7D       		.byte	0x7d
 3492 0273 00       		.sleb128 0
 3493 0274 02000000 		.4byte	.LCFI0
 3494 0278 66000000 		.4byte	.LFE39
 3495 027c 0200     		.2byte	0x2
 3496 027e 7D       		.byte	0x7d
 3497 027f 08       		.sleb128 8
 3498 0280 00000000 		.4byte	0
 3499 0284 00000000 		.4byte	0
 3500              	.LLST1:
 3501 0288 00000000 		.4byte	.LVL0
 3502 028c 10000000 		.4byte	.LVL2
 3503 0290 0100     		.2byte	0x1
 3504 0292 50       		.byte	0x50
 3505 0293 10000000 		.4byte	.LVL2
 3506 0297 60000000 		.4byte	.LVL7
 3507 029b 0100     		.2byte	0x1
 3508 029d 54       		.byte	0x54
 3509 029e 60000000 		.4byte	.LVL7
 3510 02a2 62000000 		.4byte	.LVL8
 3511 02a6 0400     		.2byte	0x4
 3512 02a8 F3       		.byte	0xf3
 3513 02a9 01       		.uleb128 0x1
 3514 02aa 50       		.byte	0x50
 3515 02ab 9F       		.byte	0x9f
 3516 02ac 62000000 		.4byte	.LVL8
 3517 02b0 64000000 		.4byte	.LVL9
 3518 02b4 0100     		.2byte	0x1
 3519 02b6 50       		.byte	0x50
 3520 02b7 64000000 		.4byte	.LVL9
 3521 02bb 66000000 		.4byte	.LFE39
 3522 02bf 0100     		.2byte	0x1
 3523 02c1 54       		.byte	0x54
 3524 02c2 00000000 		.4byte	0
 3525 02c6 00000000 		.4byte	0
 3526              	.LLST2:
 3527 02ca 0C000000 		.4byte	.LVL1
 3528 02ce 14000000 		.4byte	.LVL3
 3529 02d2 0200     		.2byte	0x2
 3530 02d4 30       		.byte	0x30
 3531 02d5 9F       		.byte	0x9f
 3532 02d6 14000000 		.4byte	.LVL3
 3533 02da 24000000 		.4byte	.LVL4
 3534 02de 0200     		.2byte	0x2
 3535 02e0 31       		.byte	0x31
 3536 02e1 9F       		.byte	0x9f
ARM GAS  C:\Users\EBANO_~1\AppData\Local\Temp\cc3CSO1m.s 			page 67


 3537 02e2 24000000 		.4byte	.LVL4
 3538 02e6 32000000 		.4byte	.LVL5
 3539 02ea 0200     		.2byte	0x2
 3540 02ec 39       		.byte	0x39
 3541 02ed 9F       		.byte	0x9f
 3542 02ee 32000000 		.4byte	.LVL5
 3543 02f2 60000000 		.4byte	.LVL6
 3544 02f6 0200     		.2byte	0x2
 3545 02f8 47       		.byte	0x47
 3546 02f9 9F       		.byte	0x9f
 3547 02fa 00000000 		.4byte	0
 3548 02fe 00000000 		.4byte	0
 3549              		.section	.debug_aranges,"",%progbits
 3550 0000 34000000 		.4byte	0x34
 3551 0004 0200     		.2byte	0x2
 3552 0006 00000000 		.4byte	.Ldebug_info0
 3553 000a 04       		.byte	0x4
 3554 000b 00       		.byte	0
 3555 000c 0000     		.2byte	0
 3556 000e 0000     		.2byte	0
 3557 0010 00000000 		.4byte	.LFB39
 3558 0014 66000000 		.4byte	.LFE39-.LFB39
 3559 0018 00000000 		.4byte	.LFB40
 3560 001c 4E000000 		.4byte	.LFE40-.LFB40
 3561 0020 00000000 		.4byte	.LFB41
 3562 0024 4E000000 		.4byte	.LFE41-.LFB41
 3563 0028 00000000 		.4byte	.LFB42
 3564 002c DC000000 		.4byte	.LFE42-.LFB42
 3565 0030 00000000 		.4byte	0
 3566 0034 00000000 		.4byte	0
 3567              		.section	.debug_ranges,"",%progbits
 3568              	.Ldebug_ranges0:
 3569 0000 00000000 		.4byte	.LFB39
 3570 0004 66000000 		.4byte	.LFE39
 3571 0008 00000000 		.4byte	.LFB40
 3572 000c 4E000000 		.4byte	.LFE40
 3573 0010 00000000 		.4byte	.LFB41
 3574 0014 4E000000 		.4byte	.LFE41
 3575 0018 00000000 		.4byte	.LFB42
 3576 001c DC000000 		.4byte	.LFE42
 3577 0020 00000000 		.4byte	0
 3578 0024 00000000 		.4byte	0
 3579              		.section	.debug_line,"",%progbits
 3580              	.Ldebug_line0:
 3581 0000 E8030000 		.section	.debug_str,"MS",%progbits,1
 3581      02000D03 
 3581      00000201 
 3581      FB0E0D00 
 3581      01010101 
 3582              	.LASF55:
 3583 0000 4C6F5261 		.ascii	"LoRaMacMessageData_t\000"
 3583      4D61634D 
 3583      65737361 
 3583      67654461 
 3583      74615F74 
 3584              	.LASF2:
 3585 0015 73686F72 		.ascii	"short int\000"
ARM GAS  C:\Users\EBANO_~1\AppData\Local\Temp\cc3CSO1m.s 			page 68


 3585      7420696E 
 3585      7400
 3586              	.LASF178:
 3587 001f 62756649 		.ascii	"bufItr\000"
 3587      747200
 3588              	.LASF57:
 3589 0026 4C4F5241 		.ascii	"LORAMAC_SERIALIZER_ERROR_NPE\000"
 3589      4D41435F 
 3589      53455249 
 3589      414C495A 
 3589      45525F45 
 3590              	.LASF93:
 3591 0043 5F666E61 		.ascii	"_fnargs\000"
 3591      72677300 
 3592              	.LASF147:
 3593 004b 5F72616E 		.ascii	"_rand48\000"
 3593      64343800 
 3594              	.LASF126:
 3595 0053 5F656D65 		.ascii	"_emergency\000"
 3595      7267656E 
 3595      637900
 3596              	.LASF3:
 3597 005e 5F5F7569 		.ascii	"__uint8_t\000"
 3597      6E74385F 
 3597      7400
 3598              	.LASF26:
 3599 0068 754C6F52 		.ascii	"uLoRaMacFrameCtrl\000"
 3599      614D6163 
 3599      4672616D 
 3599      65437472 
 3599      6C00
 3600              	.LASF159:
 3601 007a 5F6D6274 		.ascii	"_mbtowc_state\000"
 3601      6F77635F 
 3601      73746174 
 3601      6500
 3602              	.LASF138:
 3603 0088 5F617465 		.ascii	"_atexit0\000"
 3603      78697430 
 3603      00
 3604              	.LASF43:
 3605 0091 52654A6F 		.ascii	"ReJoinType\000"
 3605      696E5479 
 3605      706500
 3606              	.LASF39:
 3607 009c 44657645 		.ascii	"DevEUI\000"
 3607      554900
 3608              	.LASF167:
 3609 00a3 5F776372 		.ascii	"_wcrtomb_state\000"
 3609      746F6D62 
 3609      5F737461 
 3609      746500
 3610              	.LASF168:
 3611 00b2 5F776373 		.ascii	"_wcsrtombs_state\000"
 3611      72746F6D 
 3611      62735F73 
 3611      74617465 
ARM GAS  C:\Users\EBANO_~1\AppData\Local\Temp\cc3CSO1m.s 			page 69


 3611      00
 3612              	.LASF37:
 3613 00c3 4D484452 		.ascii	"MHDR\000"
 3613      00
 3614              	.LASF10:
 3615 00c8 6C6F6E67 		.ascii	"long long unsigned int\000"
 3615      206C6F6E 
 3615      6720756E 
 3615      7369676E 
 3615      65642069 
 3616              	.LASF36:
 3617 00df 42756653 		.ascii	"BufSize\000"
 3617      697A6500 
 3618              	.LASF54:
 3619 00e7 46524D50 		.ascii	"FRMPayloadSize\000"
 3619      61796C6F 
 3619      61645369 
 3619      7A6500
 3620              	.LASF185:
 3621 00f6 6D656D63 		.ascii	"memcpy1\000"
 3621      70793100 
 3622              	.LASF174:
 3623 00fe 5F5F6C6F 		.ascii	"__locale_t\000"
 3623      63616C65 
 3623      5F7400
 3624              	.LASF47:
 3625 0109 4E657449 		.ascii	"NetID\000"
 3625      4400
 3626              	.LASF165:
 3627 010f 5F6D6272 		.ascii	"_mbrtowc_state\000"
 3627      746F7763 
 3627      5F737461 
 3627      746500
 3628              	.LASF46:
 3629 011e 734C6F52 		.ascii	"sLoRaMacMessageReJoinType0or2\000"
 3629      614D6163 
 3629      4D657373 
 3629      61676552 
 3629      654A6F69 
 3630              	.LASF83:
 3631 013c 5F5F746D 		.ascii	"__tm_sec\000"
 3631      5F736563 
 3631      00
 3632              	.LASF182:
 3633 0145 6D61634D 		.ascii	"macMsg\000"
 3633      736700
 3634              	.LASF67:
 3635 014c 5F6F6666 		.ascii	"_off_t\000"
 3635      5F7400
 3636              	.LASF111:
 3637 0153 5F636C6F 		.ascii	"_close\000"
 3637      736500
 3638              	.LASF0:
 3639 015a 7369676E 		.ascii	"signed char\000"
 3639      65642063 
 3639      68617200 
 3640              	.LASF112:
ARM GAS  C:\Users\EBANO_~1\AppData\Local\Temp\cc3CSO1m.s 			page 70


 3641 0166 5F756275 		.ascii	"_ubuf\000"
 3641      6600
 3642              	.LASF50:
 3643 016c 734C6F52 		.ascii	"sLoRaMacMessageData\000"
 3643      614D6163 
 3643      4D657373 
 3643      61676544 
 3643      61746100 
 3644              	.LASF101:
 3645 0180 5F626173 		.ascii	"_base\000"
 3645      6500
 3646              	.LASF183:
 3647 0186 4C6F5261 		.ascii	"LoRaMacSerializerReJoinType1\000"
 3647      4D616353 
 3647      65726961 
 3647      6C697A65 
 3647      7252654A 
 3648              	.LASF85:
 3649 01a3 5F5F746D 		.ascii	"__tm_hour\000"
 3649      5F686F75 
 3649      7200
 3650              	.LASF141:
 3651 01ad 5F5F7366 		.ascii	"__sf\000"
 3651      00
 3652              	.LASF92:
 3653 01b2 5F6F6E5F 		.ascii	"_on_exit_args\000"
 3653      65786974 
 3653      5F617267 
 3653      7300
 3654              	.LASF107:
 3655 01c0 5F636F6F 		.ascii	"_cookie\000"
 3655      6B696500 
 3656              	.LASF140:
 3657 01c8 5F5F7367 		.ascii	"__sglue\000"
 3657      6C756500 
 3658              	.LASF6:
 3659 01d0 6C6F6E67 		.ascii	"long int\000"
 3659      20696E74 
 3659      00
 3660              	.LASF104:
 3661 01d9 5F666C61 		.ascii	"_flags\000"
 3661      677300
 3662              	.LASF96:
 3663 01e0 5F69735F 		.ascii	"_is_cxa\000"
 3663      63786100 
 3664              	.LASF122:
 3665 01e8 5F737464 		.ascii	"_stdin\000"
 3665      696E00
 3666              	.LASF132:
 3667 01ef 5F726573 		.ascii	"_result_k\000"
 3667      756C745F 
 3667      6B00
 3668              	.LASF9:
 3669 01f9 6C6F6E67 		.ascii	"long long int\000"
 3669      206C6F6E 
 3669      6720696E 
 3669      7400
ARM GAS  C:\Users\EBANO_~1\AppData\Local\Temp\cc3CSO1m.s 			page 71


 3670              	.LASF186:
 3671 0207 6D656D63 		.ascii	"memcpyr\000"
 3671      70797200 
 3672              	.LASF181:
 3673 020f 4C6F5261 		.ascii	"LoRaMacSerializerReJoinType0or2\000"
 3673      4D616353 
 3673      65726961 
 3673      6C697A65 
 3673      7252654A 
 3674              	.LASF136:
 3675 022f 5F637674 		.ascii	"_cvtbuf\000"
 3675      62756600 
 3676              	.LASF115:
 3677 0237 5F6F6666 		.ascii	"_offset\000"
 3677      73657400 
 3678              	.LASF166:
 3679 023f 5F6D6273 		.ascii	"_mbsrtowcs_state\000"
 3679      72746F77 
 3679      63735F73 
 3679      74617465 
 3679      00
 3680              	.LASF164:
 3681 0250 5F6D6272 		.ascii	"_mbrlen_state\000"
 3681      6C656E5F 
 3681      73746174 
 3681      6500
 3682              	.LASF99:
 3683 025e 5F666E73 		.ascii	"_fns\000"
 3683      00
 3684              	.LASF7:
 3685 0263 5F5F7569 		.ascii	"__uint32_t\000"
 3685      6E743332 
 3685      5F7400
 3686              	.LASF30:
 3687 026e 46437472 		.ascii	"FCtrl\000"
 3687      6C00
 3688              	.LASF80:
 3689 0274 5F736967 		.ascii	"_sign\000"
 3689      6E00
 3690              	.LASF175:
 3691 027a 5F696D70 		.ascii	"_impure_ptr\000"
 3691      7572655F 
 3691      70747200 
 3692              	.LASF124:
 3693 0286 5F737464 		.ascii	"_stderr\000"
 3693      65727200 
 3694              	.LASF77:
 3695 028e 5F426967 		.ascii	"_Bigint\000"
 3695      696E7400 
 3696              	.LASF63:
 3697 0296 41504250 		.ascii	"APBPrescTable\000"
 3697      72657363 
 3697      5461626C 
 3697      6500
 3698              	.LASF25:
 3699 02a4 754C6F52 		.ascii	"uLoRaMacHeader\000"
 3699      614D6163 
ARM GAS  C:\Users\EBANO_~1\AppData\Local\Temp\cc3CSO1m.s 			page 72


 3699      48656164 
 3699      657200
 3700              	.LASF108:
 3701 02b3 5F726561 		.ascii	"_read\000"
 3701      6400
 3702              	.LASF190:
 3703 02b9 654C6F52 		.ascii	"eLoRaMacSerializerStatus\000"
 3703      614D6163 
 3703      53657269 
 3703      616C697A 
 3703      65725374 
 3704              	.LASF82:
 3705 02d2 5F5F746D 		.ascii	"__tm\000"
 3705      00
 3706              	.LASF29:
 3707 02d7 44657641 		.ascii	"DevAddr\000"
 3707      64647200 
 3708              	.LASF71:
 3709 02df 5F5F7763 		.ascii	"__wchb\000"
 3709      686200
 3710              	.LASF61:
 3711 02e6 53797374 		.ascii	"SystemCoreClock\000"
 3711      656D436F 
 3711      7265436C 
 3711      6F636B00 
 3712              	.LASF123:
 3713 02f6 5F737464 		.ascii	"_stdout\000"
 3713      6F757400 
 3714              	.LASF135:
 3715 02fe 5F637674 		.ascii	"_cvtlen\000"
 3715      6C656E00 
 3716              	.LASF8:
 3717 0306 6C6F6E67 		.ascii	"long unsigned int\000"
 3717      20756E73 
 3717      69676E65 
 3717      6420696E 
 3717      7400
 3718              	.LASF31:
 3719 0318 46436E74 		.ascii	"FCnt\000"
 3719      00
 3720              	.LASF105:
 3721 031d 5F66696C 		.ascii	"_file\000"
 3721      6500
 3722              	.LASF116:
 3723 0323 5F646174 		.ascii	"_data\000"
 3723      6100
 3724              	.LASF145:
 3725 0329 5F6E696F 		.ascii	"_niobs\000"
 3725      627300
 3726              	.LASF48:
 3727 0330 524A636F 		.ascii	"RJcount0\000"
 3727      756E7430 
 3727      00
 3728              	.LASF44:
 3729 0339 524A636F 		.ascii	"RJcount1\000"
 3729      756E7431 
 3729      00
ARM GAS  C:\Users\EBANO_~1\AppData\Local\Temp\cc3CSO1m.s 			page 73


 3730              	.LASF156:
 3731 0342 5F72616E 		.ascii	"_rand_next\000"
 3731      645F6E65 
 3731      787400
 3732              	.LASF33:
 3733 034d 4C6F5261 		.ascii	"LoRaMacFrameHeader_t\000"
 3733      4D616346 
 3733      72616D65 
 3733      48656164 
 3733      65725F74 
 3734              	.LASF162:
 3735 0362 5F736967 		.ascii	"_signal_buf\000"
 3735      6E616C5F 
 3735      62756600 
 3736              	.LASF153:
 3737 036e 5F617363 		.ascii	"_asctime_buf\000"
 3737      74696D65 
 3737      5F627566 
 3737      00
 3738              	.LASF131:
 3739 037b 5F726573 		.ascii	"_result\000"
 3739      756C7400 
 3740              	.LASF70:
 3741 0383 5F5F7763 		.ascii	"__wch\000"
 3741      6800
 3742              	.LASF66:
 3743 0389 5F4C4F43 		.ascii	"_LOCK_T\000"
 3743      4B5F5400 
 3744              	.LASF40:
 3745 0391 4465764E 		.ascii	"DevNonce\000"
 3745      6F6E6365 
 3745      00
 3746              	.LASF137:
 3747 039a 5F6E6577 		.ascii	"_new\000"
 3747      00
 3748              	.LASF13:
 3749 039f 75696E74 		.ascii	"uint16_t\000"
 3749      31365F74 
 3749      00
 3750              	.LASF117:
 3751 03a8 5F6C6F63 		.ascii	"_lock\000"
 3751      6B00
 3752              	.LASF149:
 3753 03ae 5F6D756C 		.ascii	"_mult\000"
 3753      7400
 3754              	.LASF58:
 3755 03b4 4C4F5241 		.ascii	"LORAMAC_SERIALIZER_ERROR_BUF_SIZE\000"
 3755      4D41435F 
 3755      53455249 
 3755      414C495A 
 3755      45525F45 
 3756              	.LASF24:
 3757 03d6 41647241 		.ascii	"AdrAckReq\000"
 3757      636B5265 
 3757      7100
 3758              	.LASF109:
 3759 03e0 5F777269 		.ascii	"_write\000"
ARM GAS  C:\Users\EBANO_~1\AppData\Local\Temp\cc3CSO1m.s 			page 74


 3759      746500
 3760              	.LASF88:
 3761 03e7 5F5F746D 		.ascii	"__tm_year\000"
 3761      5F796561 
 3761      7200
 3762              	.LASF151:
 3763 03f1 5F756E75 		.ascii	"_unused_rand\000"
 3763      7365645F 
 3763      72616E64 
 3763      00
 3764              	.LASF171:
 3765 03fe 5F6E6D61 		.ascii	"_nmalloc\000"
 3765      6C6C6F63 
 3765      00
 3766              	.LASF91:
 3767 0407 5F5F746D 		.ascii	"__tm_isdst\000"
 3767      5F697364 
 3767      737400
 3768              	.LASF179:
 3769 0412 636F6D70 		.ascii	"computedBufSize\000"
 3769      75746564 
 3769      42756653 
 3769      697A6500 
 3770              	.LASF64:
 3771 0422 504C4C4D 		.ascii	"PLLMulTable\000"
 3771      756C5461 
 3771      626C6500 
 3772              	.LASF188:
 3773 042e 2E2E2F2E 		.ascii	"../../../../../../Middlewares/Third_Party/LoRaWAN/M"
 3773      2E2F2E2E 
 3773      2F2E2E2F 
 3773      2E2E2F2E 
 3773      2E2F4D69 
 3774 0461 61632F4C 		.ascii	"ac/LoRaMacSerializer.c\000"
 3774      6F52614D 
 3774      61635365 
 3774      7269616C 
 3774      697A6572 
 3775              	.LASF170:
 3776 0478 5F6E6578 		.ascii	"_nextf\000"
 3776      746600
 3777              	.LASF53:
 3778 047f 46524D50 		.ascii	"FRMPayload\000"
 3778      61796C6F 
 3778      616400
 3779              	.LASF87:
 3780 048a 5F5F746D 		.ascii	"__tm_mon\000"
 3780      5F6D6F6E 
 3780      00
 3781              	.LASF97:
 3782 0493 5F617465 		.ascii	"_atexit\000"
 3782      78697400 
 3783              	.LASF177:
 3784 049b 7375626F 		.ascii	"suboptarg\000"
 3784      70746172 
 3784      6700
 3785              	.LASF129:
ARM GAS  C:\Users\EBANO_~1\AppData\Local\Temp\cc3CSO1m.s 			page 75


 3786 04a5 5F5F7364 		.ascii	"__sdidinit\000"
 3786      6964696E 
 3786      697400
 3787              	.LASF155:
 3788 04b0 5F67616D 		.ascii	"_gamma_signgam\000"
 3788      6D615F73 
 3788      69676E67 
 3788      616D00
 3789              	.LASF69:
 3790 04bf 77696E74 		.ascii	"wint_t\000"
 3790      5F7400
 3791              	.LASF20:
 3792 04c6 734D6163 		.ascii	"sMacHeaderBits\000"
 3792      48656164 
 3792      65724269 
 3792      747300
 3793              	.LASF134:
 3794 04d5 5F667265 		.ascii	"_freelist\000"
 3794      656C6973 
 3794      7400
 3795              	.LASF45:
 3796 04df 4C6F5261 		.ascii	"LoRaMacMessageReJoinType1_t\000"
 3796      4D61634D 
 3796      65737361 
 3796      67655265 
 3796      4A6F696E 
 3797              	.LASF160:
 3798 04fb 5F776374 		.ascii	"_wctomb_state\000"
 3798      6F6D625F 
 3798      73746174 
 3798      6500
 3799              	.LASF22:
 3800 0509 464F7074 		.ascii	"FOptsLen\000"
 3800      734C656E 
 3800      00
 3801              	.LASF187:
 3802 0512 474E5520 		.ascii	"GNU C11 7.3.1 20180622 (release) [ARM/embedded-7-br"
 3802      43313120 
 3802      372E332E 
 3802      31203230 
 3802      31383036 
 3803 0545 616E6368 		.ascii	"anch revision 261907] -mcpu=cortex-m0plus -mthumb -"
 3803      20726576 
 3803      6973696F 
 3803      6E203236 
 3803      31393037 
 3804 0578 6D666C6F 		.ascii	"mfloat-abi=soft -gdwarf-2 -O3 -ffunction-sections\000"
 3804      61742D61 
 3804      62693D73 
 3804      6F667420 
 3804      2D676477 
 3805              	.LASF1:
 3806 05aa 756E7369 		.ascii	"unsigned char\000"
 3806      676E6564 
 3806      20636861 
 3806      7200
 3807              	.LASF59:
ARM GAS  C:\Users\EBANO_~1\AppData\Local\Temp\cc3CSO1m.s 			page 76


 3808 05b8 4C4F5241 		.ascii	"LORAMAC_SERIALIZER_ERROR\000"
 3808      4D41435F 
 3808      53455249 
 3808      414C495A 
 3808      45525F45 
 3809              	.LASF146:
 3810 05d1 5F696F62 		.ascii	"_iobs\000"
 3810      7300
 3811              	.LASF16:
 3812 05d7 4D547970 		.ascii	"MType\000"
 3812      6500
 3813              	.LASF169:
 3814 05dd 5F685F65 		.ascii	"_h_errno\000"
 3814      72726E6F 
 3814      00
 3815              	.LASF75:
 3816 05e6 5F666C6F 		.ascii	"_flock_t\000"
 3816      636B5F74 
 3816      00
 3817              	.LASF90:
 3818 05ef 5F5F746D 		.ascii	"__tm_yday\000"
 3818      5F796461 
 3818      7900
 3819              	.LASF100:
 3820 05f9 5F5F7362 		.ascii	"__sbuf\000"
 3820      756600
 3821              	.LASF119:
 3822 0600 5F666C61 		.ascii	"_flags2\000"
 3822      67733200 
 3823              	.LASF143:
 3824 0608 5F5F4649 		.ascii	"__FILE\000"
 3824      4C4500
 3825              	.LASF74:
 3826 060f 5F6D6273 		.ascii	"_mbstate_t\000"
 3826      74617465 
 3826      5F7400
 3827              	.LASF103:
 3828 061a 5F5F7346 		.ascii	"__sFILE\000"
 3828      494C4500 
 3829              	.LASF118:
 3830 0622 5F6D6273 		.ascii	"_mbstate\000"
 3830      74617465 
 3830      00
 3831              	.LASF158:
 3832 062b 5F6D626C 		.ascii	"_mblen_state\000"
 3832      656E5F73 
 3832      74617465 
 3832      00
 3833              	.LASF125:
 3834 0638 5F696E63 		.ascii	"_inc\000"
 3834      00
 3835              	.LASF98:
 3836 063d 5F696E64 		.ascii	"_ind\000"
 3836      00
 3837              	.LASF19:
 3838 0642 4C6F5261 		.ascii	"LoRaMacHeader_t\000"
 3838      4D616348 
ARM GAS  C:\Users\EBANO_~1\AppData\Local\Temp\cc3CSO1m.s 			page 77


 3838      65616465 
 3838      725F7400 
 3839              	.LASF94:
 3840 0652 5F64736F 		.ascii	"_dso_handle\000"
 3840      5F68616E 
 3840      646C6500 
 3841              	.LASF18:
 3842 065e 42697473 		.ascii	"Bits\000"
 3842      00
 3843              	.LASF127:
 3844 0663 5F756E73 		.ascii	"_unspecified_locale_info\000"
 3844      70656369 
 3844      66696564 
 3844      5F6C6F63 
 3844      616C655F 
 3845              	.LASF79:
 3846 067c 5F6D6178 		.ascii	"_maxwds\000"
 3846      77647300 
 3847              	.LASF120:
 3848 0684 5F726565 		.ascii	"_reent\000"
 3848      6E7400
 3849              	.LASF148:
 3850 068b 5F736565 		.ascii	"_seed\000"
 3850      6400
 3851              	.LASF60:
 3852 0691 4C6F5261 		.ascii	"LoRaMacSerializerStatus_t\000"
 3852      4D616353 
 3852      65726961 
 3852      6C697A65 
 3852      72537461 
 3853              	.LASF72:
 3854 06ab 5F5F636F 		.ascii	"__count\000"
 3854      756E7400 
 3855              	.LASF173:
 3856 06b3 5F5F6C6F 		.ascii	"__lock\000"
 3856      636B00
 3857              	.LASF73:
 3858 06ba 5F5F7661 		.ascii	"__value\000"
 3858      6C756500 
 3859              	.LASF110:
 3860 06c2 5F736565 		.ascii	"_seek\000"
 3860      6B00
 3861              	.LASF89:
 3862 06c8 5F5F746D 		.ascii	"__tm_wday\000"
 3862      5F776461 
 3862      7900
 3863              	.LASF49:
 3864 06d2 4C6F5261 		.ascii	"LoRaMacMessageReJoinType0or2_t\000"
 3864      4D61634D 
 3864      65737361 
 3864      67655265 
 3864      4A6F696E 
 3865              	.LASF68:
 3866 06f1 5F66706F 		.ascii	"_fpos_t\000"
 3866      735F7400 
 3867              	.LASF42:
 3868 06f9 734C6F52 		.ascii	"sLoRaMacMessageReJoinType1\000"
ARM GAS  C:\Users\EBANO_~1\AppData\Local\Temp\cc3CSO1m.s 			page 78


 3868      614D6163 
 3868      4D657373 
 3868      61676552 
 3868      654A6F69 
 3869              	.LASF65:
 3870 0714 6C6F6E67 		.ascii	"long double\000"
 3870      20646F75 
 3870      626C6500 
 3871              	.LASF121:
 3872 0720 5F657272 		.ascii	"_errno\000"
 3872      6E6F00
 3873              	.LASF142:
 3874 0727 63686172 		.ascii	"char\000"
 3874      00
 3875              	.LASF114:
 3876 072c 5F626C6B 		.ascii	"_blksize\000"
 3876      73697A65 
 3876      00
 3877              	.LASF102:
 3878 0735 5F73697A 		.ascii	"_size\000"
 3878      6500
 3879              	.LASF11:
 3880 073b 756E7369 		.ascii	"unsigned int\000"
 3880      676E6564 
 3880      20696E74 
 3880      00
 3881              	.LASF4:
 3882 0748 5F5F7569 		.ascii	"__uint16_t\000"
 3882      6E743136 
 3882      5F7400
 3883              	.LASF27:
 3884 0753 4C6F5261 		.ascii	"LoRaMacFrameCtrl_t\000"
 3884      4D616346 
 3884      72616D65 
 3884      4374726C 
 3884      5F7400
 3885              	.LASF52:
 3886 0766 46506F72 		.ascii	"FPort\000"
 3886      7400
 3887              	.LASF62:
 3888 076c 41484250 		.ascii	"AHBPrescTable\000"
 3888      72657363 
 3888      5461626C 
 3888      6500
 3889              	.LASF78:
 3890 077a 5F6E6578 		.ascii	"_next\000"
 3890      7400
 3891              	.LASF23:
 3892 0780 4650656E 		.ascii	"FPending\000"
 3892      64696E67 
 3892      00
 3893              	.LASF152:
 3894 0789 5F737472 		.ascii	"_strtok_last\000"
 3894      746F6B5F 
 3894      6C617374 
 3894      00
 3895              	.LASF95:
ARM GAS  C:\Users\EBANO_~1\AppData\Local\Temp\cc3CSO1m.s 			page 79


 3896 0796 5F666E74 		.ascii	"_fntypes\000"
 3896      79706573 
 3896      00
 3897              	.LASF5:
 3898 079f 73686F72 		.ascii	"short unsigned int\000"
 3898      7420756E 
 3898      7369676E 
 3898      65642069 
 3898      6E7400
 3899              	.LASF15:
 3900 07b2 4D616A6F 		.ascii	"Major\000"
 3900      7200
 3901              	.LASF184:
 3902 07b8 4C6F5261 		.ascii	"LoRaMacSerializerJoinRequest\000"
 3902      4D616353 
 3902      65726961 
 3902      6C697A65 
 3902      724A6F69 
 3903              	.LASF150:
 3904 07d5 5F616464 		.ascii	"_add\000"
 3904      00
 3905              	.LASF41:
 3906 07da 4C6F5261 		.ascii	"LoRaMacMessageJoinRequest_t\000"
 3906      4D61634D 
 3906      65737361 
 3906      67654A6F 
 3906      696E5265 
 3907              	.LASF76:
 3908 07f6 5F5F554C 		.ascii	"__ULong\000"
 3908      6F6E6700 
 3909              	.LASF180:
 3910 07fe 4C6F5261 		.ascii	"LoRaMacSerializerData\000"
 3910      4D616353 
 3910      65726961 
 3910      6C697A65 
 3910      72446174 
 3911              	.LASF163:
 3912 0814 5F676574 		.ascii	"_getdate_err\000"
 3912      64617465 
 3912      5F657272 
 3912      00
 3913              	.LASF51:
 3914 0821 46484452 		.ascii	"FHDR\000"
 3914      00
 3915              	.LASF176:
 3916 0826 5F676C6F 		.ascii	"_global_impure_ptr\000"
 3916      62616C5F 
 3916      696D7075 
 3916      72655F70 
 3916      747200
 3917              	.LASF14:
 3918 0839 75696E74 		.ascii	"uint32_t\000"
 3918      33325F74 
 3918      00
 3919              	.LASF28:
 3920 0842 734C6F52 		.ascii	"sLoRaMacFrameHeader\000"
 3920      614D6163 
ARM GAS  C:\Users\EBANO_~1\AppData\Local\Temp\cc3CSO1m.s 			page 80


 3920      4672616D 
 3920      65486561 
 3920      64657200 
 3921              	.LASF35:
 3922 0856 42756666 		.ascii	"Buffer\000"
 3922      657200
 3923              	.LASF130:
 3924 085d 5F5F636C 		.ascii	"__cleanup\000"
 3924      65616E75 
 3924      7000
 3925              	.LASF81:
 3926 0867 5F776473 		.ascii	"_wds\000"
 3926      00
 3927              	.LASF144:
 3928 086c 5F676C75 		.ascii	"_glue\000"
 3928      6500
 3929              	.LASF17:
 3930 0872 56616C75 		.ascii	"Value\000"
 3930      6500
 3931              	.LASF34:
 3932 0878 734C6F52 		.ascii	"sLoRaMacMessageJoinRequest\000"
 3932      614D6163 
 3932      4D657373 
 3932      6167654A 
 3932      6F696E52 
 3933              	.LASF12:
 3934 0893 75696E74 		.ascii	"uint8_t\000"
 3934      385F7400 
 3935              	.LASF161:
 3936 089b 5F6C3634 		.ascii	"_l64a_buf\000"
 3936      615F6275 
 3936      6600
 3937              	.LASF139:
 3938 08a5 5F736967 		.ascii	"_sig_func\000"
 3938      5F66756E 
 3938      6300
 3939              	.LASF189:
 3940 08af 443A5C67 		.ascii	"D:\\git_pessoal\\keil_gcc\\STM32CubeExpansion_LRWAN"
 3940      69745F70 
 3940      6573736F 
 3940      616C5C6B 
 3940      65696C5F 
 3941 08df 5F56312E 		.ascii	"_V1.2.1\\Projects\\B-L072Z-LRWAN1\\Applications\\Lo"
 3941      322E315C 
 3941      50726F6A 
 3941      65637473 
 3941      5C422D4C 
 3942 090e 52615C45 		.ascii	"Ra\\End_Node\\MDK-ARM\000"
 3942      6E645F4E 
 3942      6F64655C 
 3942      4D444B2D 
 3942      41524D00 
 3943              	.LASF113:
 3944 0922 5F6E6275 		.ascii	"_nbuf\000"
 3944      6600
 3945              	.LASF172:
 3946 0928 5F756E75 		.ascii	"_unused\000"
ARM GAS  C:\Users\EBANO_~1\AppData\Local\Temp\cc3CSO1m.s 			page 81


 3946      73656400 
 3947              	.LASF21:
 3948 0930 73437472 		.ascii	"sCtrlBits\000"
 3948      6C426974 
 3948      7300
 3949              	.LASF154:
 3950 093a 5F6C6F63 		.ascii	"_localtime_buf\000"
 3950      616C7469 
 3950      6D655F62 
 3950      756600
 3951              	.LASF84:
 3952 0949 5F5F746D 		.ascii	"__tm_min\000"
 3952      5F6D696E 
 3952      00
 3953              	.LASF157:
 3954 0952 5F723438 		.ascii	"_r48\000"
 3954      00
 3955              	.LASF38:
 3956 0957 4A6F696E 		.ascii	"JoinEUI\000"
 3956      45554900 
 3957              	.LASF133:
 3958 095f 5F703573 		.ascii	"_p5s\000"
 3958      00
 3959              	.LASF128:
 3960 0964 5F6C6F63 		.ascii	"_locale\000"
 3960      616C6500 
 3961              	.LASF106:
 3962 096c 5F6C6266 		.ascii	"_lbfsize\000"
 3962      73697A65 
 3962      00
 3963              	.LASF56:
 3964 0975 4C4F5241 		.ascii	"LORAMAC_SERIALIZER_SUCCESS\000"
 3964      4D41435F 
 3964      53455249 
 3964      414C495A 
 3964      45525F53 
 3965              	.LASF32:
 3966 0990 464F7074 		.ascii	"FOpts\000"
 3966      7300
 3967              	.LASF86:
 3968 0996 5F5F746D 		.ascii	"__tm_mday\000"
 3968      5F6D6461 
 3968      7900
 3969              		.ident	"GCC: (GNU Tools for Arm Embedded Processors 7-2018-q2-update) 7.3.1 20180622 (release) [AR
ARM GAS  C:\Users\EBANO_~1\AppData\Local\Temp\cc3CSO1m.s 			page 82


DEFINED SYMBOLS
                            *ABS*:00000000 LoRaMacSerializer.c
C:\Users\EBANO_~1\AppData\Local\Temp\cc3CSO1m.s:16     .text.LoRaMacSerializerJoinRequest:00000000 $t
C:\Users\EBANO_~1\AppData\Local\Temp\cc3CSO1m.s:24     .text.LoRaMacSerializerJoinRequest:00000000 LoRaMacSerializerJoinRequest
C:\Users\EBANO_~1\AppData\Local\Temp\cc3CSO1m.s:123    .text.LoRaMacSerializerReJoinType1:00000000 $t
C:\Users\EBANO_~1\AppData\Local\Temp\cc3CSO1m.s:131    .text.LoRaMacSerializerReJoinType1:00000000 LoRaMacSerializerReJoinType1
C:\Users\EBANO_~1\AppData\Local\Temp\cc3CSO1m.s:213    .text.LoRaMacSerializerReJoinType0or2:00000000 $t
C:\Users\EBANO_~1\AppData\Local\Temp\cc3CSO1m.s:221    .text.LoRaMacSerializerReJoinType0or2:00000000 LoRaMacSerializerReJoinType0or2
C:\Users\EBANO_~1\AppData\Local\Temp\cc3CSO1m.s:303    .text.LoRaMacSerializerData:00000000 $t
C:\Users\EBANO_~1\AppData\Local\Temp\cc3CSO1m.s:311    .text.LoRaMacSerializerData:00000000 LoRaMacSerializerData

UNDEFINED SYMBOLS
memcpyr
memcpy1
