ARM GAS  C:\Users\EBANO_~1\AppData\Local\Temp\ccD2gIpL.s 			page 1


   1              		.cpu cortex-m0plus
   2              		.eabi_attribute 20, 1
   3              		.eabi_attribute 21, 1
   4              		.eabi_attribute 23, 3
   5              		.eabi_attribute 24, 1
   6              		.eabi_attribute 25, 1
   7              		.eabi_attribute 26, 1
   8              		.eabi_attribute 30, 2
   9              		.eabi_attribute 34, 0
  10              		.eabi_attribute 18, 4
  11              		.file	"lora.c"
  12              		.text
  13              	.Ltext0:
  14              		.cfi_sections	.debug_frame
  15              		.section	.text.MlmeIndication,"ax",%progbits
  16              		.align	1
  17              		.p2align 2,,3
  18              		.syntax unified
  19              		.code	16
  20              		.thumb_func
  21              		.fpu softvfp
  22              		.type	MlmeIndication, %function
  23              	MlmeIndication:
  24              	.LFB42:
  25              		.file 1 "../../../../../../Middlewares/Third_Party/LoRaWAN/Core/lora.c"
   1:../../../../../../Middlewares/Third_Party/LoRaWAN/Core/lora.c **** /******************************************************************************
   2:../../../../../../Middlewares/Third_Party/LoRaWAN/Core/lora.c ****   * @file    lora.c
   3:../../../../../../Middlewares/Third_Party/LoRaWAN/Core/lora.c ****   * @author  MCD Application Team
   4:../../../../../../Middlewares/Third_Party/LoRaWAN/Core/lora.c ****   * @brief   lora API to drive the lora state Machine
   5:../../../../../../Middlewares/Third_Party/LoRaWAN/Core/lora.c ****   ******************************************************************************
   6:../../../../../../Middlewares/Third_Party/LoRaWAN/Core/lora.c ****   * @attention
   7:../../../../../../Middlewares/Third_Party/LoRaWAN/Core/lora.c ****   *
   8:../../../../../../Middlewares/Third_Party/LoRaWAN/Core/lora.c ****   * <h2><center>&copy; Copyright (c) 2018 STMicroelectronics.
   9:../../../../../../Middlewares/Third_Party/LoRaWAN/Core/lora.c ****   * All rights reserved.</center></h2>
  10:../../../../../../Middlewares/Third_Party/LoRaWAN/Core/lora.c ****   *
  11:../../../../../../Middlewares/Third_Party/LoRaWAN/Core/lora.c ****   * This software component is licensed by ST under Ultimate Liberty license
  12:../../../../../../Middlewares/Third_Party/LoRaWAN/Core/lora.c ****   * SLA0044, the "License"; You may not use this file except in compliance with
  13:../../../../../../Middlewares/Third_Party/LoRaWAN/Core/lora.c ****   * the License. You may obtain a copy of the License at:
  14:../../../../../../Middlewares/Third_Party/LoRaWAN/Core/lora.c ****   *                             www.st.com/SLA0044
  15:../../../../../../Middlewares/Third_Party/LoRaWAN/Core/lora.c ****   *
  16:../../../../../../Middlewares/Third_Party/LoRaWAN/Core/lora.c ****   ******************************************************************************
  17:../../../../../../Middlewares/Third_Party/LoRaWAN/Core/lora.c ****   */
  18:../../../../../../Middlewares/Third_Party/LoRaWAN/Core/lora.c **** 
  19:../../../../../../Middlewares/Third_Party/LoRaWAN/Core/lora.c **** /* Includes ------------------------------------------------------------------*/
  20:../../../../../../Middlewares/Third_Party/LoRaWAN/Core/lora.c **** #include "hw.h"
  21:../../../../../../Middlewares/Third_Party/LoRaWAN/Core/lora.c **** #include "timeServer.h"
  22:../../../../../../Middlewares/Third_Party/LoRaWAN/Core/lora.c **** #include "LoRaMac.h"
  23:../../../../../../Middlewares/Third_Party/LoRaWAN/Core/lora.c **** #include "lora.h"
  24:../../../../../../Middlewares/Third_Party/LoRaWAN/Core/lora.c **** #include "lora-test.h"
  25:../../../../../../Middlewares/Third_Party/LoRaWAN/Core/lora.c **** 
  26:../../../../../../Middlewares/Third_Party/LoRaWAN/Core/lora.c **** /*!
  27:../../../../../../Middlewares/Third_Party/LoRaWAN/Core/lora.c ****  *  Select either Device_Time_req or Beacon_Time_Req following LoRaWAN version 
  28:../../../../../../Middlewares/Third_Party/LoRaWAN/Core/lora.c ****  *  - Device_Time_req   Available for V1.0.3 or later                          
  29:../../../../../../Middlewares/Third_Party/LoRaWAN/Core/lora.c ****  *  - Beacon_time_Req   Available for V1.0.2 and before                        
  30:../../../../../../Middlewares/Third_Party/LoRaWAN/Core/lora.c ****  */
  31:../../../../../../Middlewares/Third_Party/LoRaWAN/Core/lora.c **** #define USE_DEVICE_TIMING
  32:../../../../../../Middlewares/Third_Party/LoRaWAN/Core/lora.c **** 
ARM GAS  C:\Users\EBANO_~1\AppData\Local\Temp\ccD2gIpL.s 			page 2


  33:../../../../../../Middlewares/Third_Party/LoRaWAN/Core/lora.c **** /*!
  34:../../../../../../Middlewares/Third_Party/LoRaWAN/Core/lora.c ****  * Join requests trials duty cycle.
  35:../../../../../../Middlewares/Third_Party/LoRaWAN/Core/lora.c ****  */
  36:../../../../../../Middlewares/Third_Party/LoRaWAN/Core/lora.c **** #define OVER_THE_AIR_ACTIVATION_DUTYCYCLE           10000  // 10 [s] value in ms
  37:../../../../../../Middlewares/Third_Party/LoRaWAN/Core/lora.c **** 
  38:../../../../../../Middlewares/Third_Party/LoRaWAN/Core/lora.c **** #if defined( REGION_EU868 )
  39:../../../../../../Middlewares/Third_Party/LoRaWAN/Core/lora.c **** 
  40:../../../../../../Middlewares/Third_Party/LoRaWAN/Core/lora.c **** #include "LoRaMacTest.h"
  41:../../../../../../Middlewares/Third_Party/LoRaWAN/Core/lora.c **** 
  42:../../../../../../Middlewares/Third_Party/LoRaWAN/Core/lora.c **** /*!
  43:../../../../../../Middlewares/Third_Party/LoRaWAN/Core/lora.c ****  * LoRaWAN ETSI duty cycle control enable/disable
  44:../../../../../../Middlewares/Third_Party/LoRaWAN/Core/lora.c ****  *
  45:../../../../../../Middlewares/Third_Party/LoRaWAN/Core/lora.c ****  * \remark Please note that ETSI mandates duty cycled transmissions. Use only for test purposes
  46:../../../../../../Middlewares/Third_Party/LoRaWAN/Core/lora.c ****  */
  47:../../../../../../Middlewares/Third_Party/LoRaWAN/Core/lora.c **** #define LORAWAN_DUTYCYCLE_ON                        true
  48:../../../../../../Middlewares/Third_Party/LoRaWAN/Core/lora.c **** #endif
  49:../../../../../../Middlewares/Third_Party/LoRaWAN/Core/lora.c **** /*!
  50:../../../../../../Middlewares/Third_Party/LoRaWAN/Core/lora.c ****  * Default ping slots periodicity
  51:../../../../../../Middlewares/Third_Party/LoRaWAN/Core/lora.c ****  *
  52:../../../../../../Middlewares/Third_Party/LoRaWAN/Core/lora.c ****  * \remark periodicity is equal to 2^LORAWAN_DEFAULT_PING_SLOT_PERIODICITY seconds
  53:../../../../../../Middlewares/Third_Party/LoRaWAN/Core/lora.c ****  *         example: 2^3 = 8 seconds. The end-device will open an Rx slot every 8 seconds.
  54:../../../../../../Middlewares/Third_Party/LoRaWAN/Core/lora.c ****  */
  55:../../../../../../Middlewares/Third_Party/LoRaWAN/Core/lora.c **** #define LORAWAN_DEFAULT_PING_SLOT_PERIODICITY       0   
  56:../../../../../../Middlewares/Third_Party/LoRaWAN/Core/lora.c **** 
  57:../../../../../../Middlewares/Third_Party/LoRaWAN/Core/lora.c **** #define HEX16(X)  X[0],X[1], X[2],X[3], X[4],X[5], X[6],X[7],X[8],X[9], X[10],X[11], X[12],X[13], X
  58:../../../../../../Middlewares/Third_Party/LoRaWAN/Core/lora.c **** #define HEX8(X)   X[0],X[1], X[2],X[3], X[4],X[5], X[6],X[7]
  59:../../../../../../Middlewares/Third_Party/LoRaWAN/Core/lora.c **** static uint8_t DevEui[] = LORAWAN_DEVICE_EUI;
  60:../../../../../../Middlewares/Third_Party/LoRaWAN/Core/lora.c **** static uint8_t JoinEui[] = LORAWAN_JOIN_EUI;
  61:../../../../../../Middlewares/Third_Party/LoRaWAN/Core/lora.c **** static uint8_t AppKey[] = LORAWAN_APP_KEY;
  62:../../../../../../Middlewares/Third_Party/LoRaWAN/Core/lora.c **** static uint8_t NwkKey[] = LORAWAN_NWK_KEY;
  63:../../../../../../Middlewares/Third_Party/LoRaWAN/Core/lora.c **** 
  64:../../../../../../Middlewares/Third_Party/LoRaWAN/Core/lora.c **** static MlmeReqJoin_t JoinParameters;
  65:../../../../../../Middlewares/Third_Party/LoRaWAN/Core/lora.c **** 
  66:../../../../../../Middlewares/Third_Party/LoRaWAN/Core/lora.c **** #if( OVER_THE_AIR_ACTIVATION == 0 )
  67:../../../../../../Middlewares/Third_Party/LoRaWAN/Core/lora.c **** 
  68:../../../../../../Middlewares/Third_Party/LoRaWAN/Core/lora.c **** static uint8_t FNwkSIntKey[] = LORAWAN_F_NWK_S_INT_KEY;
  69:../../../../../../Middlewares/Third_Party/LoRaWAN/Core/lora.c **** static uint8_t SNwkSIntKey[] = LORAWAN_S_NWK_S_INT_KEY;
  70:../../../../../../Middlewares/Third_Party/LoRaWAN/Core/lora.c **** static uint8_t NwkSEncKey[] = LORAWAN_NWK_S_ENC_KEY;
  71:../../../../../../Middlewares/Third_Party/LoRaWAN/Core/lora.c **** static uint8_t AppSKey[] = LORAWAN_APP_S_KEY;
  72:../../../../../../Middlewares/Third_Party/LoRaWAN/Core/lora.c **** static uint32_t DevAddr = LORAWAN_DEVICE_ADDRESS;
  73:../../../../../../Middlewares/Third_Party/LoRaWAN/Core/lora.c **** #endif
  74:../../../../../../Middlewares/Third_Party/LoRaWAN/Core/lora.c **** 
  75:../../../../../../Middlewares/Third_Party/LoRaWAN/Core/lora.c **** #ifdef LORAMAC_CLASSB_ENABLED
  76:../../../../../../Middlewares/Third_Party/LoRaWAN/Core/lora.c **** static LoraErrorStatus LORA_BeaconReq( void);
  77:../../../../../../Middlewares/Third_Party/LoRaWAN/Core/lora.c **** static LoraErrorStatus LORA_PingSlotReq( void);
  78:../../../../../../Middlewares/Third_Party/LoRaWAN/Core/lora.c **** 
  79:../../../../../../Middlewares/Third_Party/LoRaWAN/Core/lora.c **** #if defined( USE_DEVICE_TIMING )
  80:../../../../../../Middlewares/Third_Party/LoRaWAN/Core/lora.c **** static LoraErrorStatus LORA_DeviceTimeReq(void);
  81:../../../../../../Middlewares/Third_Party/LoRaWAN/Core/lora.c **** #else
  82:../../../../../../Middlewares/Third_Party/LoRaWAN/Core/lora.c **** static LoraErrorStatus LORA_BeaconTimeReq(void);
  83:../../../../../../Middlewares/Third_Party/LoRaWAN/Core/lora.c **** #endif /* USE_DEVICE_TIMING */
  84:../../../../../../Middlewares/Third_Party/LoRaWAN/Core/lora.c **** #endif /* LORAMAC_CLASSB_ENABLED */
  85:../../../../../../Middlewares/Third_Party/LoRaWAN/Core/lora.c **** 
  86:../../../../../../Middlewares/Third_Party/LoRaWAN/Core/lora.c **** /*!
  87:../../../../../../Middlewares/Third_Party/LoRaWAN/Core/lora.c ****  * Defines the LoRa parameters at Init
  88:../../../../../../Middlewares/Third_Party/LoRaWAN/Core/lora.c ****  */
  89:../../../../../../Middlewares/Third_Party/LoRaWAN/Core/lora.c **** static LoRaParam_t* LoRaParamInit;
ARM GAS  C:\Users\EBANO_~1\AppData\Local\Temp\ccD2gIpL.s 			page 3


  90:../../../../../../Middlewares/Third_Party/LoRaWAN/Core/lora.c **** static LoRaMacPrimitives_t LoRaMacPrimitives;
  91:../../../../../../Middlewares/Third_Party/LoRaWAN/Core/lora.c **** static LoRaMacCallback_t LoRaMacCallbacks;
  92:../../../../../../Middlewares/Third_Party/LoRaWAN/Core/lora.c **** static MibRequestConfirm_t mibReq;
  93:../../../../../../Middlewares/Third_Party/LoRaWAN/Core/lora.c **** 
  94:../../../../../../Middlewares/Third_Party/LoRaWAN/Core/lora.c **** static LoRaMainCallback_t *LoRaMainCallbacks;
  95:../../../../../../Middlewares/Third_Party/LoRaWAN/Core/lora.c **** 
  96:../../../../../../Middlewares/Third_Party/LoRaWAN/Core/lora.c **** extern lora_AppData_t AppData;
  97:../../../../../../Middlewares/Third_Party/LoRaWAN/Core/lora.c **** 
  98:../../../../../../Middlewares/Third_Party/LoRaWAN/Core/lora.c **** 
  99:../../../../../../Middlewares/Third_Party/LoRaWAN/Core/lora.c **** 
 100:../../../../../../Middlewares/Third_Party/LoRaWAN/Core/lora.c **** 
 101:../../../../../../Middlewares/Third_Party/LoRaWAN/Core/lora.c **** 
 102:../../../../../../Middlewares/Third_Party/LoRaWAN/Core/lora.c **** /*!
 103:../../../../../../Middlewares/Third_Party/LoRaWAN/Core/lora.c ****  * MAC event info status strings.
 104:../../../../../../Middlewares/Third_Party/LoRaWAN/Core/lora.c ****  */
 105:../../../../../../Middlewares/Third_Party/LoRaWAN/Core/lora.c **** const char* EventInfoStatusStrings[] =
 106:../../../../../../Middlewares/Third_Party/LoRaWAN/Core/lora.c **** { 
 107:../../../../../../Middlewares/Third_Party/LoRaWAN/Core/lora.c ****     "OK", "Error", "Tx timeout", "Rx 1 timeout",
 108:../../../../../../Middlewares/Third_Party/LoRaWAN/Core/lora.c ****     "Rx 2 timeout", "Rx1 error", "Rx2 error",
 109:../../../../../../Middlewares/Third_Party/LoRaWAN/Core/lora.c ****     "Join failed", "Downlink repeated", "Tx DR payload size error",
 110:../../../../../../Middlewares/Third_Party/LoRaWAN/Core/lora.c ****     "Downlink too many frames loss", "Address fail", "MIC fail",
 111:../../../../../../Middlewares/Third_Party/LoRaWAN/Core/lora.c ****     "Multicast faile", "Beacon locked", "Beacon lost", "Beacon not found"
 112:../../../../../../Middlewares/Third_Party/LoRaWAN/Core/lora.c **** };
 113:../../../../../../Middlewares/Third_Party/LoRaWAN/Core/lora.c **** 
 114:../../../../../../Middlewares/Third_Party/LoRaWAN/Core/lora.c **** /*!
 115:../../../../../../Middlewares/Third_Party/LoRaWAN/Core/lora.c ****  * MAC status strings
 116:../../../../../../Middlewares/Third_Party/LoRaWAN/Core/lora.c ****  */
 117:../../../../../../Middlewares/Third_Party/LoRaWAN/Core/lora.c **** const char* MacStatusStrings[] =
 118:../../../../../../Middlewares/Third_Party/LoRaWAN/Core/lora.c **** {
 119:../../../../../../Middlewares/Third_Party/LoRaWAN/Core/lora.c ****     "OK", "Busy", "Service unknown", "Parameter invalid", "Frequency invalid",
 120:../../../../../../Middlewares/Third_Party/LoRaWAN/Core/lora.c ****     "Datarate invalid", "Freuqency or datarate invalid", "No network joined",
 121:../../../../../../Middlewares/Third_Party/LoRaWAN/Core/lora.c ****     "Length error", "Device OFF", "Region not supported", "Skipped APP data",
 122:../../../../../../Middlewares/Third_Party/LoRaWAN/Core/lora.c ****     "DutyC restricted", "No channel found", "No free channel found",
 123:../../../../../../Middlewares/Third_Party/LoRaWAN/Core/lora.c ****     "Busy beacon reserved time", "Busy ping-slot window time",
 124:../../../../../../Middlewares/Third_Party/LoRaWAN/Core/lora.c ****     "Busy uplink collision", "Crypto error", "FCnt handler error",
 125:../../../../../../Middlewares/Third_Party/LoRaWAN/Core/lora.c ****     "MAC command error", "ERROR"
 126:../../../../../../Middlewares/Third_Party/LoRaWAN/Core/lora.c **** };
 127:../../../../../../Middlewares/Third_Party/LoRaWAN/Core/lora.c **** 
 128:../../../../../../Middlewares/Third_Party/LoRaWAN/Core/lora.c **** const char* MlmeReqStrings[] =
 129:../../../../../../Middlewares/Third_Party/LoRaWAN/Core/lora.c **** {
 130:../../../../../../Middlewares/Third_Party/LoRaWAN/Core/lora.c ****     "MLME_JOIN",
 131:../../../../../../Middlewares/Third_Party/LoRaWAN/Core/lora.c ****     "MLME_REJOIN_0",
 132:../../../../../../Middlewares/Third_Party/LoRaWAN/Core/lora.c ****     "MLME_REJOIN_1",
 133:../../../../../../Middlewares/Third_Party/LoRaWAN/Core/lora.c ****     "MLME_LINK_CHECK",
 134:../../../../../../Middlewares/Third_Party/LoRaWAN/Core/lora.c ****     "MLME_TXCW",
 135:../../../../../../Middlewares/Third_Party/LoRaWAN/Core/lora.c ****     "MLME_TXCW_1",
 136:../../../../../../Middlewares/Third_Party/LoRaWAN/Core/lora.c ****     "MLME_SCHEDULE_UPLINK",
 137:../../../../../../Middlewares/Third_Party/LoRaWAN/Core/lora.c ****     "MLME_NVM_CTXS_UPDATE",
 138:../../../../../../Middlewares/Third_Party/LoRaWAN/Core/lora.c ****     "MLME_DERIVE_MC_KE_KEY",
 139:../../../../../../Middlewares/Third_Party/LoRaWAN/Core/lora.c ****     "MLME_DERIVE_MC_KEY_PAIR",
 140:../../../../../../Middlewares/Third_Party/LoRaWAN/Core/lora.c ****     "MLME_DEVICE_TIME",
 141:../../../../../../Middlewares/Third_Party/LoRaWAN/Core/lora.c ****     "MLME_BEACON",
 142:../../../../../../Middlewares/Third_Party/LoRaWAN/Core/lora.c ****     "MLME_BEACON_ACQUISITION",
 143:../../../../../../Middlewares/Third_Party/LoRaWAN/Core/lora.c ****     "MLME_PING_SLOT_INFO",
 144:../../../../../../Middlewares/Third_Party/LoRaWAN/Core/lora.c ****     "MLME_BEACON_TIMING,MLME_BEACON_LOST"
 145:../../../../../../Middlewares/Third_Party/LoRaWAN/Core/lora.c **** };
 146:../../../../../../Middlewares/Third_Party/LoRaWAN/Core/lora.c **** 
ARM GAS  C:\Users\EBANO_~1\AppData\Local\Temp\ccD2gIpL.s 			page 4


 147:../../../../../../Middlewares/Third_Party/LoRaWAN/Core/lora.c **** static void TraceUpLinkFrame(McpsConfirm_t *mcpsConfirm);
 148:../../../../../../Middlewares/Third_Party/LoRaWAN/Core/lora.c **** static void TraceDownLinkFrame(McpsIndication_t *mcpsIndication);
 149:../../../../../../Middlewares/Third_Party/LoRaWAN/Core/lora.c **** #ifdef LORAMAC_CLASSB_ENABLED
 150:../../../../../../Middlewares/Third_Party/LoRaWAN/Core/lora.c **** static void TraceBeaconInfo(MlmeIndication_t *mlmeIndication);
 151:../../../../../../Middlewares/Third_Party/LoRaWAN/Core/lora.c **** #endif /* LORAMAC_CLASSB_ENABLED */
 152:../../../../../../Middlewares/Third_Party/LoRaWAN/Core/lora.c **** 
 153:../../../../../../Middlewares/Third_Party/LoRaWAN/Core/lora.c **** /*!
 154:../../../../../../Middlewares/Third_Party/LoRaWAN/Core/lora.c ****  * \brief   MCPS-Confirm event function
 155:../../../../../../Middlewares/Third_Party/LoRaWAN/Core/lora.c ****  *
 156:../../../../../../Middlewares/Third_Party/LoRaWAN/Core/lora.c ****  * \param   [IN] McpsConfirm - Pointer to the confirm structure,
 157:../../../../../../Middlewares/Third_Party/LoRaWAN/Core/lora.c ****  *               containing confirm attributes.
 158:../../../../../../Middlewares/Third_Party/LoRaWAN/Core/lora.c ****  */
 159:../../../../../../Middlewares/Third_Party/LoRaWAN/Core/lora.c **** static void McpsConfirm( McpsConfirm_t *mcpsConfirm )
 160:../../../../../../Middlewares/Third_Party/LoRaWAN/Core/lora.c **** {
 161:../../../../../../Middlewares/Third_Party/LoRaWAN/Core/lora.c ****     TVL2( PRINTNOW(); PRINTF("APP> McpsConfirm STATUS: %s\r\n", EventInfoStatusStrings[mcpsConfirm-
 162:../../../../../../Middlewares/Third_Party/LoRaWAN/Core/lora.c ****   
 163:../../../../../../Middlewares/Third_Party/LoRaWAN/Core/lora.c ****     if( mcpsConfirm->Status == LORAMAC_EVENT_INFO_STATUS_OK )
 164:../../../../../../Middlewares/Third_Party/LoRaWAN/Core/lora.c ****     {
 165:../../../../../../Middlewares/Third_Party/LoRaWAN/Core/lora.c ****         switch( mcpsConfirm->McpsRequest )
 166:../../../../../../Middlewares/Third_Party/LoRaWAN/Core/lora.c ****         {
 167:../../../../../../Middlewares/Third_Party/LoRaWAN/Core/lora.c ****             case MCPS_UNCONFIRMED:
 168:../../../../../../Middlewares/Third_Party/LoRaWAN/Core/lora.c ****             {
 169:../../../../../../Middlewares/Third_Party/LoRaWAN/Core/lora.c ****                 // Check Datarate
 170:../../../../../../Middlewares/Third_Party/LoRaWAN/Core/lora.c ****                 // Check TxPower
 171:../../../../../../Middlewares/Third_Party/LoRaWAN/Core/lora.c ****                 break;
 172:../../../../../../Middlewares/Third_Party/LoRaWAN/Core/lora.c ****             }
 173:../../../../../../Middlewares/Third_Party/LoRaWAN/Core/lora.c ****             case MCPS_CONFIRMED:
 174:../../../../../../Middlewares/Third_Party/LoRaWAN/Core/lora.c ****             {
 175:../../../../../../Middlewares/Third_Party/LoRaWAN/Core/lora.c ****                 // Check Datarate
 176:../../../../../../Middlewares/Third_Party/LoRaWAN/Core/lora.c ****                 // Check TxPower
 177:../../../../../../Middlewares/Third_Party/LoRaWAN/Core/lora.c ****                 // Check AckReceived
 178:../../../../../../Middlewares/Third_Party/LoRaWAN/Core/lora.c ****                 // Check NbTrials
 179:../../../../../../Middlewares/Third_Party/LoRaWAN/Core/lora.c ****                 break;
 180:../../../../../../Middlewares/Third_Party/LoRaWAN/Core/lora.c ****             }
 181:../../../../../../Middlewares/Third_Party/LoRaWAN/Core/lora.c ****             case MCPS_PROPRIETARY:
 182:../../../../../../Middlewares/Third_Party/LoRaWAN/Core/lora.c ****             {
 183:../../../../../../Middlewares/Third_Party/LoRaWAN/Core/lora.c ****                 break;
 184:../../../../../../Middlewares/Third_Party/LoRaWAN/Core/lora.c ****             }
 185:../../../../../../Middlewares/Third_Party/LoRaWAN/Core/lora.c ****             default:
 186:../../../../../../Middlewares/Third_Party/LoRaWAN/Core/lora.c ****                 break;
 187:../../../../../../Middlewares/Third_Party/LoRaWAN/Core/lora.c ****         }
 188:../../../../../../Middlewares/Third_Party/LoRaWAN/Core/lora.c ****     }
 189:../../../../../../Middlewares/Third_Party/LoRaWAN/Core/lora.c ****     
 190:../../../../../../Middlewares/Third_Party/LoRaWAN/Core/lora.c ****     /*implicitely desactivated when VERBOSE_LEVEL < 2*/
 191:../../../../../../Middlewares/Third_Party/LoRaWAN/Core/lora.c ****     TraceUpLinkFrame(mcpsConfirm);
 192:../../../../../../Middlewares/Third_Party/LoRaWAN/Core/lora.c **** }
 193:../../../../../../Middlewares/Third_Party/LoRaWAN/Core/lora.c **** 
 194:../../../../../../Middlewares/Third_Party/LoRaWAN/Core/lora.c **** /*!
 195:../../../../../../Middlewares/Third_Party/LoRaWAN/Core/lora.c ****  * \brief   MCPS-Indication event function
 196:../../../../../../Middlewares/Third_Party/LoRaWAN/Core/lora.c ****  *
 197:../../../../../../Middlewares/Third_Party/LoRaWAN/Core/lora.c ****  * \param   [IN] mcpsIndication - Pointer to the indication structure,
 198:../../../../../../Middlewares/Third_Party/LoRaWAN/Core/lora.c ****  *               containing indication attributes.
 199:../../../../../../Middlewares/Third_Party/LoRaWAN/Core/lora.c ****  */
 200:../../../../../../Middlewares/Third_Party/LoRaWAN/Core/lora.c **** static void McpsIndication( McpsIndication_t *mcpsIndication )
 201:../../../../../../Middlewares/Third_Party/LoRaWAN/Core/lora.c **** {
 202:../../../../../../Middlewares/Third_Party/LoRaWAN/Core/lora.c ****     TVL2( PRINTNOW(); PRINTF("APP> McpsInd STATUS: %s\r\n", EventInfoStatusStrings[mcpsIndication->
 203:../../../../../../Middlewares/Third_Party/LoRaWAN/Core/lora.c ****     
ARM GAS  C:\Users\EBANO_~1\AppData\Local\Temp\ccD2gIpL.s 			page 5


 204:../../../../../../Middlewares/Third_Party/LoRaWAN/Core/lora.c ****     lora_AppData_t AppData;
 205:../../../../../../Middlewares/Third_Party/LoRaWAN/Core/lora.c ****     if( mcpsIndication->Status != LORAMAC_EVENT_INFO_STATUS_OK )
 206:../../../../../../Middlewares/Third_Party/LoRaWAN/Core/lora.c ****     {
 207:../../../../../../Middlewares/Third_Party/LoRaWAN/Core/lora.c ****         return;
 208:../../../../../../Middlewares/Third_Party/LoRaWAN/Core/lora.c ****     }
 209:../../../../../../Middlewares/Third_Party/LoRaWAN/Core/lora.c **** 
 210:../../../../../../Middlewares/Third_Party/LoRaWAN/Core/lora.c ****     switch( mcpsIndication->McpsIndication )
 211:../../../../../../Middlewares/Third_Party/LoRaWAN/Core/lora.c ****     {
 212:../../../../../../Middlewares/Third_Party/LoRaWAN/Core/lora.c ****         case MCPS_UNCONFIRMED:
 213:../../../../../../Middlewares/Third_Party/LoRaWAN/Core/lora.c ****         {
 214:../../../../../../Middlewares/Third_Party/LoRaWAN/Core/lora.c ****             break;
 215:../../../../../../Middlewares/Third_Party/LoRaWAN/Core/lora.c ****         }
 216:../../../../../../Middlewares/Third_Party/LoRaWAN/Core/lora.c ****         case MCPS_CONFIRMED:
 217:../../../../../../Middlewares/Third_Party/LoRaWAN/Core/lora.c ****         {
 218:../../../../../../Middlewares/Third_Party/LoRaWAN/Core/lora.c ****             break;
 219:../../../../../../Middlewares/Third_Party/LoRaWAN/Core/lora.c ****         }
 220:../../../../../../Middlewares/Third_Party/LoRaWAN/Core/lora.c ****         case MCPS_PROPRIETARY:
 221:../../../../../../Middlewares/Third_Party/LoRaWAN/Core/lora.c ****         {
 222:../../../../../../Middlewares/Third_Party/LoRaWAN/Core/lora.c ****             break;
 223:../../../../../../Middlewares/Third_Party/LoRaWAN/Core/lora.c ****         }
 224:../../../../../../Middlewares/Third_Party/LoRaWAN/Core/lora.c ****         case MCPS_MULTICAST:
 225:../../../../../../Middlewares/Third_Party/LoRaWAN/Core/lora.c ****         {
 226:../../../../../../Middlewares/Third_Party/LoRaWAN/Core/lora.c ****             break;
 227:../../../../../../Middlewares/Third_Party/LoRaWAN/Core/lora.c ****         }
 228:../../../../../../Middlewares/Third_Party/LoRaWAN/Core/lora.c ****         default:
 229:../../../../../../Middlewares/Third_Party/LoRaWAN/Core/lora.c ****             break;
 230:../../../../../../Middlewares/Third_Party/LoRaWAN/Core/lora.c ****     }
 231:../../../../../../Middlewares/Third_Party/LoRaWAN/Core/lora.c **** 
 232:../../../../../../Middlewares/Third_Party/LoRaWAN/Core/lora.c ****     // Check Multicast
 233:../../../../../../Middlewares/Third_Party/LoRaWAN/Core/lora.c ****     // Check Port
 234:../../../../../../Middlewares/Third_Party/LoRaWAN/Core/lora.c ****     // Check Datarate
 235:../../../../../../Middlewares/Third_Party/LoRaWAN/Core/lora.c ****     // Check FramePending
 236:../../../../../../Middlewares/Third_Party/LoRaWAN/Core/lora.c ****     if( mcpsIndication->FramePending == true )
 237:../../../../../../Middlewares/Third_Party/LoRaWAN/Core/lora.c ****     {
 238:../../../../../../Middlewares/Third_Party/LoRaWAN/Core/lora.c ****         // The server signals that it has pending data to be sent.
 239:../../../../../../Middlewares/Third_Party/LoRaWAN/Core/lora.c ****         // We schedule an uplink as soon as possible to flush the server.
 240:../../../../../../Middlewares/Third_Party/LoRaWAN/Core/lora.c ****         LoRaMainCallbacks->LORA_TxNeeded( );
 241:../../../../../../Middlewares/Third_Party/LoRaWAN/Core/lora.c ****     }
 242:../../../../../../Middlewares/Third_Party/LoRaWAN/Core/lora.c ****     // Check Buffer
 243:../../../../../../Middlewares/Third_Party/LoRaWAN/Core/lora.c ****     // Check BufferSize
 244:../../../../../../Middlewares/Third_Party/LoRaWAN/Core/lora.c ****     // Check Rssi
 245:../../../../../../Middlewares/Third_Party/LoRaWAN/Core/lora.c ****     // Check Snr
 246:../../../../../../Middlewares/Third_Party/LoRaWAN/Core/lora.c ****     // Check RxSlot
 247:../../../../../../Middlewares/Third_Party/LoRaWAN/Core/lora.c ****     if (certif_running() == true )
 248:../../../../../../Middlewares/Third_Party/LoRaWAN/Core/lora.c ****     {
 249:../../../../../../Middlewares/Third_Party/LoRaWAN/Core/lora.c ****       certif_DownLinkIncrement( );
 250:../../../../../../Middlewares/Third_Party/LoRaWAN/Core/lora.c ****     }
 251:../../../../../../Middlewares/Third_Party/LoRaWAN/Core/lora.c **** 
 252:../../../../../../Middlewares/Third_Party/LoRaWAN/Core/lora.c ****     if( mcpsIndication->RxData == true )
 253:../../../../../../Middlewares/Third_Party/LoRaWAN/Core/lora.c ****     {
 254:../../../../../../Middlewares/Third_Party/LoRaWAN/Core/lora.c ****       switch( mcpsIndication->Port )
 255:../../../../../../Middlewares/Third_Party/LoRaWAN/Core/lora.c ****       {
 256:../../../../../../Middlewares/Third_Party/LoRaWAN/Core/lora.c ****         case CERTIF_PORT:
 257:../../../../../../Middlewares/Third_Party/LoRaWAN/Core/lora.c ****           certif_rx( mcpsIndication, &JoinParameters );
 258:../../../../../../Middlewares/Third_Party/LoRaWAN/Core/lora.c ****           break;
 259:../../../../../../Middlewares/Third_Party/LoRaWAN/Core/lora.c ****         default:
 260:../../../../../../Middlewares/Third_Party/LoRaWAN/Core/lora.c ****           
ARM GAS  C:\Users\EBANO_~1\AppData\Local\Temp\ccD2gIpL.s 			page 6


 261:../../../../../../Middlewares/Third_Party/LoRaWAN/Core/lora.c ****           AppData.Port = mcpsIndication->Port;
 262:../../../../../../Middlewares/Third_Party/LoRaWAN/Core/lora.c ****           AppData.BuffSize = mcpsIndication->BufferSize;
 263:../../../../../../Middlewares/Third_Party/LoRaWAN/Core/lora.c ****           AppData.Buff = mcpsIndication->Buffer;
 264:../../../../../../Middlewares/Third_Party/LoRaWAN/Core/lora.c ****         
 265:../../../../../../Middlewares/Third_Party/LoRaWAN/Core/lora.c ****           LoRaMainCallbacks->LORA_RxData( &AppData );
 266:../../../../../../Middlewares/Third_Party/LoRaWAN/Core/lora.c ****           break;
 267:../../../../../../Middlewares/Third_Party/LoRaWAN/Core/lora.c ****       }
 268:../../../../../../Middlewares/Third_Party/LoRaWAN/Core/lora.c ****     }
 269:../../../../../../Middlewares/Third_Party/LoRaWAN/Core/lora.c ****     
 270:../../../../../../Middlewares/Third_Party/LoRaWAN/Core/lora.c ****     /*implicitely desactivated when VERBOSE_LEVEL < 2*/
 271:../../../../../../Middlewares/Third_Party/LoRaWAN/Core/lora.c ****     TraceDownLinkFrame(mcpsIndication);
 272:../../../../../../Middlewares/Third_Party/LoRaWAN/Core/lora.c **** }
 273:../../../../../../Middlewares/Third_Party/LoRaWAN/Core/lora.c **** 
 274:../../../../../../Middlewares/Third_Party/LoRaWAN/Core/lora.c **** /*!
 275:../../../../../../Middlewares/Third_Party/LoRaWAN/Core/lora.c ****  * \brief   MLME-Confirm event function
 276:../../../../../../Middlewares/Third_Party/LoRaWAN/Core/lora.c ****  *
 277:../../../../../../Middlewares/Third_Party/LoRaWAN/Core/lora.c ****  * \param   [IN] MlmeConfirm - Pointer to the confirm structure,
 278:../../../../../../Middlewares/Third_Party/LoRaWAN/Core/lora.c ****  *               containing confirm attributes.
 279:../../../../../../Middlewares/Third_Party/LoRaWAN/Core/lora.c ****  */
 280:../../../../../../Middlewares/Third_Party/LoRaWAN/Core/lora.c **** static void MlmeConfirm( MlmeConfirm_t *mlmeConfirm )
 281:../../../../../../Middlewares/Third_Party/LoRaWAN/Core/lora.c **** {
 282:../../../../../../Middlewares/Third_Party/LoRaWAN/Core/lora.c **** #ifdef LORAMAC_CLASSB_ENABLED
 283:../../../../../../Middlewares/Third_Party/LoRaWAN/Core/lora.c ****     MibRequestConfirm_t mibReq;
 284:../../../../../../Middlewares/Third_Party/LoRaWAN/Core/lora.c **** #endif /* LORAMAC_CLASSB_ENABLED */
 285:../../../../../../Middlewares/Third_Party/LoRaWAN/Core/lora.c **** 
 286:../../../../../../Middlewares/Third_Party/LoRaWAN/Core/lora.c ****     TVL2( PRINTNOW(); PRINTF("APP> MlmeConfirm STATUS: %s\r\n", EventInfoStatusStrings[mlmeConfirm-
 287:../../../../../../Middlewares/Third_Party/LoRaWAN/Core/lora.c ****     
 288:../../../../../../Middlewares/Third_Party/LoRaWAN/Core/lora.c ****     switch( mlmeConfirm->MlmeRequest )
 289:../../../../../../Middlewares/Third_Party/LoRaWAN/Core/lora.c ****     {
 290:../../../../../../Middlewares/Third_Party/LoRaWAN/Core/lora.c ****         case MLME_JOIN:
 291:../../../../../../Middlewares/Third_Party/LoRaWAN/Core/lora.c ****         {
 292:../../../../../../Middlewares/Third_Party/LoRaWAN/Core/lora.c ****             if( mlmeConfirm->Status == LORAMAC_EVENT_INFO_STATUS_OK )
 293:../../../../../../Middlewares/Third_Party/LoRaWAN/Core/lora.c ****             {
 294:../../../../../../Middlewares/Third_Party/LoRaWAN/Core/lora.c ****               // Status is OK, node has joined the network
 295:../../../../../../Middlewares/Third_Party/LoRaWAN/Core/lora.c ****               LoRaMainCallbacks->LORA_HasJoined();
 296:../../../../../../Middlewares/Third_Party/LoRaWAN/Core/lora.c **** #ifdef LORAMAC_CLASSB_ENABLED
 297:../../../../../../Middlewares/Third_Party/LoRaWAN/Core/lora.c **** #if defined( USE_DEVICE_TIMING )              
 298:../../../../../../Middlewares/Third_Party/LoRaWAN/Core/lora.c ****               LORA_DeviceTimeReq();
 299:../../../../../../Middlewares/Third_Party/LoRaWAN/Core/lora.c **** #else              
 300:../../../../../../Middlewares/Third_Party/LoRaWAN/Core/lora.c ****               LORA_BeaconTimeReq();
 301:../../../../../../Middlewares/Third_Party/LoRaWAN/Core/lora.c **** #endif /* USE_DEVICE_TIMING */
 302:../../../../../../Middlewares/Third_Party/LoRaWAN/Core/lora.c **** #endif /* LORAMAC_CLASSB_ENABLED */
 303:../../../../../../Middlewares/Third_Party/LoRaWAN/Core/lora.c ****             }
 304:../../../../../../Middlewares/Third_Party/LoRaWAN/Core/lora.c ****             else
 305:../../../../../../Middlewares/Third_Party/LoRaWAN/Core/lora.c ****             {
 306:../../../../../../Middlewares/Third_Party/LoRaWAN/Core/lora.c ****                 // Join was not successful. Try to join again
 307:../../../../../../Middlewares/Third_Party/LoRaWAN/Core/lora.c ****                 LORA_Join();
 308:../../../../../../Middlewares/Third_Party/LoRaWAN/Core/lora.c ****             }
 309:../../../../../../Middlewares/Third_Party/LoRaWAN/Core/lora.c ****             break;
 310:../../../../../../Middlewares/Third_Party/LoRaWAN/Core/lora.c ****         }
 311:../../../../../../Middlewares/Third_Party/LoRaWAN/Core/lora.c ****         case MLME_LINK_CHECK:
 312:../../../../../../Middlewares/Third_Party/LoRaWAN/Core/lora.c ****         {
 313:../../../../../../Middlewares/Third_Party/LoRaWAN/Core/lora.c ****             if( mlmeConfirm->Status == LORAMAC_EVENT_INFO_STATUS_OK )
 314:../../../../../../Middlewares/Third_Party/LoRaWAN/Core/lora.c ****             {
 315:../../../../../../Middlewares/Third_Party/LoRaWAN/Core/lora.c ****                 // Check DemodMargin
 316:../../../../../../Middlewares/Third_Party/LoRaWAN/Core/lora.c ****                 // Check NbGateways
 317:../../../../../../Middlewares/Third_Party/LoRaWAN/Core/lora.c ****                 if (certif_running() == true )
ARM GAS  C:\Users\EBANO_~1\AppData\Local\Temp\ccD2gIpL.s 			page 7


 318:../../../../../../Middlewares/Third_Party/LoRaWAN/Core/lora.c ****                 {
 319:../../../../../../Middlewares/Third_Party/LoRaWAN/Core/lora.c ****                      certif_linkCheck( mlmeConfirm);
 320:../../../../../../Middlewares/Third_Party/LoRaWAN/Core/lora.c ****                 }
 321:../../../../../../Middlewares/Third_Party/LoRaWAN/Core/lora.c ****             }
 322:../../../../../../Middlewares/Third_Party/LoRaWAN/Core/lora.c ****             break;
 323:../../../../../../Middlewares/Third_Party/LoRaWAN/Core/lora.c ****         }
 324:../../../../../../Middlewares/Third_Party/LoRaWAN/Core/lora.c **** #ifdef LORAMAC_CLASSB_ENABLED
 325:../../../../../../Middlewares/Third_Party/LoRaWAN/Core/lora.c ****         case MLME_BEACON_ACQUISITION:
 326:../../../../../../Middlewares/Third_Party/LoRaWAN/Core/lora.c ****         {
 327:../../../../../../Middlewares/Third_Party/LoRaWAN/Core/lora.c ****             if( mlmeConfirm->Status == LORAMAC_EVENT_INFO_STATUS_OK )
 328:../../../../../../Middlewares/Third_Party/LoRaWAN/Core/lora.c ****             {
 329:../../../../../../Middlewares/Third_Party/LoRaWAN/Core/lora.c ****                 /* Beacon has been acquired */
 330:../../../../../../Middlewares/Third_Party/LoRaWAN/Core/lora.c ****                 /* REquest Server for Ping Slot */
 331:../../../../../../Middlewares/Third_Party/LoRaWAN/Core/lora.c ****                 LORA_PingSlotReq( );
 332:../../../../../../Middlewares/Third_Party/LoRaWAN/Core/lora.c ****             }
 333:../../../../../../Middlewares/Third_Party/LoRaWAN/Core/lora.c ****             else
 334:../../../../../../Middlewares/Third_Party/LoRaWAN/Core/lora.c ****             {
 335:../../../../../../Middlewares/Third_Party/LoRaWAN/Core/lora.c ****                 /* Beacon not acquired */
 336:../../../../../../Middlewares/Third_Party/LoRaWAN/Core/lora.c ****                 /* Search again */
 337:../../../../../../Middlewares/Third_Party/LoRaWAN/Core/lora.c ****                 /* we can check if the MAC has received a time reference for the beacon*/
 338:../../../../../../Middlewares/Third_Party/LoRaWAN/Core/lora.c ****                 /* in this case do either a Device_Time_Req  or a Beacon_Timing_req*/
 339:../../../../../../Middlewares/Third_Party/LoRaWAN/Core/lora.c ****                 LORA_BeaconReq( );
 340:../../../../../../Middlewares/Third_Party/LoRaWAN/Core/lora.c ****             }
 341:../../../../../../Middlewares/Third_Party/LoRaWAN/Core/lora.c ****             break;
 342:../../../../../../Middlewares/Third_Party/LoRaWAN/Core/lora.c ****         }
 343:../../../../../../Middlewares/Third_Party/LoRaWAN/Core/lora.c ****         case MLME_PING_SLOT_INFO:
 344:../../../../../../Middlewares/Third_Party/LoRaWAN/Core/lora.c ****         {
 345:../../../../../../Middlewares/Third_Party/LoRaWAN/Core/lora.c ****             if( mlmeConfirm->Status == LORAMAC_EVENT_INFO_STATUS_OK )
 346:../../../../../../Middlewares/Third_Party/LoRaWAN/Core/lora.c ****             {
 347:../../../../../../Middlewares/Third_Party/LoRaWAN/Core/lora.c ****                /* class B is now ativated*/
 348:../../../../../../Middlewares/Third_Party/LoRaWAN/Core/lora.c ****                 mibReq.Type = MIB_DEVICE_CLASS;
 349:../../../../../../Middlewares/Third_Party/LoRaWAN/Core/lora.c ****                 mibReq.Param.Class = CLASS_B;
 350:../../../../../../Middlewares/Third_Party/LoRaWAN/Core/lora.c ****                 LoRaMacMibSetRequestConfirm( &mibReq );
 351:../../../../../../Middlewares/Third_Party/LoRaWAN/Core/lora.c ****                 
 352:../../../../../../Middlewares/Third_Party/LoRaWAN/Core/lora.c **** #if defined( REGION_AU915 ) || defined( REGION_US915 )
 353:../../../../../../Middlewares/Third_Party/LoRaWAN/Core/lora.c ****                 mibReq.Type = MIB_PING_SLOT_DATARATE;
 354:../../../../../../Middlewares/Third_Party/LoRaWAN/Core/lora.c ****                 mibReq.Param.PingSlotDatarate = DR_8;
 355:../../../../../../Middlewares/Third_Party/LoRaWAN/Core/lora.c ****                 LoRaMacMibSetRequestConfirm( &mibReq );
 356:../../../../../../Middlewares/Third_Party/LoRaWAN/Core/lora.c **** #endif
 357:../../../../../../Middlewares/Third_Party/LoRaWAN/Core/lora.c ****                 TVL2( PRINTF("\r\n#= Switch to Class B done. =#r\n" );)
 358:../../../../../../Middlewares/Third_Party/LoRaWAN/Core/lora.c ****                 
 359:../../../../../../Middlewares/Third_Party/LoRaWAN/Core/lora.c ****                 /*notify upper layer*/
 360:../../../../../../Middlewares/Third_Party/LoRaWAN/Core/lora.c ****                 LoRaMainCallbacks->LORA_ConfirmClass(CLASS_B);
 361:../../../../../../Middlewares/Third_Party/LoRaWAN/Core/lora.c ****             }
 362:../../../../../../Middlewares/Third_Party/LoRaWAN/Core/lora.c ****             else
 363:../../../../../../Middlewares/Third_Party/LoRaWAN/Core/lora.c ****             {
 364:../../../../../../Middlewares/Third_Party/LoRaWAN/Core/lora.c ****                 LORA_PingSlotReq( );
 365:../../../../../../Middlewares/Third_Party/LoRaWAN/Core/lora.c ****             }
 366:../../../../../../Middlewares/Third_Party/LoRaWAN/Core/lora.c ****             break;
 367:../../../../../../Middlewares/Third_Party/LoRaWAN/Core/lora.c ****         }
 368:../../../../../../Middlewares/Third_Party/LoRaWAN/Core/lora.c **** #if defined( USE_DEVICE_TIMING )        
 369:../../../../../../Middlewares/Third_Party/LoRaWAN/Core/lora.c ****         case MLME_DEVICE_TIME:
 370:../../../../../../Middlewares/Third_Party/LoRaWAN/Core/lora.c ****         {        
 371:../../../../../../Middlewares/Third_Party/LoRaWAN/Core/lora.c ****             if( mlmeConfirm->Status != LORAMAC_EVENT_INFO_STATUS_OK )
 372:../../../../../../Middlewares/Third_Party/LoRaWAN/Core/lora.c ****             {
 373:../../../../../../Middlewares/Third_Party/LoRaWAN/Core/lora.c ****               LORA_DeviceTimeReq();
 374:../../../../../../Middlewares/Third_Party/LoRaWAN/Core/lora.c ****             }  
ARM GAS  C:\Users\EBANO_~1\AppData\Local\Temp\ccD2gIpL.s 			page 8


 375:../../../../../../Middlewares/Third_Party/LoRaWAN/Core/lora.c ****         }              
 376:../../../../../../Middlewares/Third_Party/LoRaWAN/Core/lora.c **** #endif /* USE_DEVICE_TIMING */
 377:../../../../../../Middlewares/Third_Party/LoRaWAN/Core/lora.c **** #endif /* LORAMAC_CLASSB_ENABLED */
 378:../../../../../../Middlewares/Third_Party/LoRaWAN/Core/lora.c ****         default:
 379:../../../../../../Middlewares/Third_Party/LoRaWAN/Core/lora.c ****             break;
 380:../../../../../../Middlewares/Third_Party/LoRaWAN/Core/lora.c ****     }
 381:../../../../../../Middlewares/Third_Party/LoRaWAN/Core/lora.c **** }
 382:../../../../../../Middlewares/Third_Party/LoRaWAN/Core/lora.c **** 
 383:../../../../../../Middlewares/Third_Party/LoRaWAN/Core/lora.c **** /*!
 384:../../../../../../Middlewares/Third_Party/LoRaWAN/Core/lora.c ****  * \brief   MLME-Indication event function
 385:../../../../../../Middlewares/Third_Party/LoRaWAN/Core/lora.c ****  *
 386:../../../../../../Middlewares/Third_Party/LoRaWAN/Core/lora.c ****  * \param   [IN] MlmeIndication - Pointer to the indication structure.
 387:../../../../../../Middlewares/Third_Party/LoRaWAN/Core/lora.c ****  */
 388:../../../../../../Middlewares/Third_Party/LoRaWAN/Core/lora.c **** static void MlmeIndication( MlmeIndication_t *MlmeIndication )
 389:../../../../../../Middlewares/Third_Party/LoRaWAN/Core/lora.c **** {
  26              		.loc 1 389 0
  27              		.cfi_startproc
  28              		@ args = 0, pretend = 0, frame = 0
  29              		@ frame_needed = 0, uses_anonymous_args = 0
  30              	.LVL0:
 390:../../../../../../Middlewares/Third_Party/LoRaWAN/Core/lora.c **** #ifdef LORAMAC_CLASSB_ENABLED
 391:../../../../../../Middlewares/Third_Party/LoRaWAN/Core/lora.c ****     MibRequestConfirm_t mibReq;
 392:../../../../../../Middlewares/Third_Party/LoRaWAN/Core/lora.c **** #endif /* LORAMAC_CLASSB_ENABLED */
 393:../../../../../../Middlewares/Third_Party/LoRaWAN/Core/lora.c **** 
 394:../../../../../../Middlewares/Third_Party/LoRaWAN/Core/lora.c ****     TVL2( PRINTNOW(); PRINTF("APP> MLMEInd STATUS: %s\r\n", EventInfoStatusStrings[MlmeIndication->
 395:../../../../../../Middlewares/Third_Party/LoRaWAN/Core/lora.c **** 
 396:../../../../../../Middlewares/Third_Party/LoRaWAN/Core/lora.c ****     switch( MlmeIndication->MlmeIndication )
  31              		.loc 1 396 0
  32 0000 0378     		ldrb	r3, [r0]
 389:../../../../../../Middlewares/Third_Party/LoRaWAN/Core/lora.c **** #ifdef LORAMAC_CLASSB_ENABLED
  33              		.loc 1 389 0
  34 0002 10B5     		push	{r4, lr}
  35              	.LCFI0:
  36              		.cfi_def_cfa_offset 8
  37              		.cfi_offset 4, -8
  38              		.cfi_offset 14, -4
  39              		.loc 1 396 0
  40 0004 062B     		cmp	r3, #6
  41 0006 03D1     		bne	.L1
 397:../../../../../../Middlewares/Third_Party/LoRaWAN/Core/lora.c ****     {
 398:../../../../../../Middlewares/Third_Party/LoRaWAN/Core/lora.c ****         case MLME_SCHEDULE_UPLINK:
 399:../../../../../../Middlewares/Third_Party/LoRaWAN/Core/lora.c ****         {
 400:../../../../../../Middlewares/Third_Party/LoRaWAN/Core/lora.c ****             // The MAC signals that we shall provide an uplink as soon as possible
 401:../../../../../../Middlewares/Third_Party/LoRaWAN/Core/lora.c ****             LoRaMainCallbacks->LORA_TxNeeded( );			
  42              		.loc 1 401 0
  43 0008 024B     		ldr	r3, .L5
  44 000a 1B68     		ldr	r3, [r3]
  45 000c DB69     		ldr	r3, [r3, #28]
  46 000e 9847     		blx	r3
  47              	.LVL1:
  48              	.L1:
 402:../../../../../../Middlewares/Third_Party/LoRaWAN/Core/lora.c ****             break;
 403:../../../../../../Middlewares/Third_Party/LoRaWAN/Core/lora.c ****         }
 404:../../../../../../Middlewares/Third_Party/LoRaWAN/Core/lora.c **** #ifdef LORAMAC_CLASSB_ENABLED
 405:../../../../../../Middlewares/Third_Party/LoRaWAN/Core/lora.c ****         case MLME_BEACON_LOST:
 406:../../../../../../Middlewares/Third_Party/LoRaWAN/Core/lora.c ****         {
 407:../../../../../../Middlewares/Third_Party/LoRaWAN/Core/lora.c ****             // Switch to class A again
ARM GAS  C:\Users\EBANO_~1\AppData\Local\Temp\ccD2gIpL.s 			page 9


 408:../../../../../../Middlewares/Third_Party/LoRaWAN/Core/lora.c ****             mibReq.Type = MIB_DEVICE_CLASS;
 409:../../../../../../Middlewares/Third_Party/LoRaWAN/Core/lora.c ****             mibReq.Param.Class = CLASS_A;
 410:../../../../../../Middlewares/Third_Party/LoRaWAN/Core/lora.c ****             LoRaMacMibSetRequestConfirm( &mibReq );
 411:../../../../../../Middlewares/Third_Party/LoRaWAN/Core/lora.c ****             
 412:../../../../../../Middlewares/Third_Party/LoRaWAN/Core/lora.c ****             TVL2( PRINTF("\r\n#= Switch to Class A done. =# BEACON LOST\r\n" ); )
 413:../../../../../../Middlewares/Third_Party/LoRaWAN/Core/lora.c **** 
 414:../../../../../../Middlewares/Third_Party/LoRaWAN/Core/lora.c ****             LORA_BeaconReq();
 415:../../../../../../Middlewares/Third_Party/LoRaWAN/Core/lora.c ****             break;
 416:../../../../../../Middlewares/Third_Party/LoRaWAN/Core/lora.c ****         }
 417:../../../../../../Middlewares/Third_Party/LoRaWAN/Core/lora.c ****         case MLME_BEACON:
 418:../../../../../../Middlewares/Third_Party/LoRaWAN/Core/lora.c ****         {
 419:../../../../../../Middlewares/Third_Party/LoRaWAN/Core/lora.c ****             if( MlmeIndication->Status == LORAMAC_EVENT_INFO_STATUS_BEACON_LOCKED )
 420:../../../../../../Middlewares/Third_Party/LoRaWAN/Core/lora.c ****             {
 421:../../../../../../Middlewares/Third_Party/LoRaWAN/Core/lora.c ****               TraceBeaconInfo(MlmeIndication);
 422:../../../../../../Middlewares/Third_Party/LoRaWAN/Core/lora.c ****             }
 423:../../../../../../Middlewares/Third_Party/LoRaWAN/Core/lora.c ****             else
 424:../../../../../../Middlewares/Third_Party/LoRaWAN/Core/lora.c ****             {
 425:../../../../../../Middlewares/Third_Party/LoRaWAN/Core/lora.c ****               TVL2( PRINTF( "BEACON NOT RECEIVED\n\r");)
 426:../../../../../../Middlewares/Third_Party/LoRaWAN/Core/lora.c ****             }
 427:../../../../../../Middlewares/Third_Party/LoRaWAN/Core/lora.c ****             break;
 428:../../../../../../Middlewares/Third_Party/LoRaWAN/Core/lora.c **** 
 429:../../../../../../Middlewares/Third_Party/LoRaWAN/Core/lora.c ****         }
 430:../../../../../../Middlewares/Third_Party/LoRaWAN/Core/lora.c **** #endif /* LORAMAC_CLASSB_ENABLED */
 431:../../../../../../Middlewares/Third_Party/LoRaWAN/Core/lora.c ****         default:
 432:../../../../../../Middlewares/Third_Party/LoRaWAN/Core/lora.c ****             break;
 433:../../../../../../Middlewares/Third_Party/LoRaWAN/Core/lora.c ****     }
 434:../../../../../../Middlewares/Third_Party/LoRaWAN/Core/lora.c **** }
  49              		.loc 1 434 0
  50              		@ sp needed
  51 0010 10BD     		pop	{r4, pc}
  52              	.L6:
  53 0012 C046     		.align	2
  54              	.L5:
  55 0014 00000000 		.word	.LANCHOR0
  56              		.cfi_endproc
  57              	.LFE42:
  58              		.size	MlmeIndication, .-MlmeIndication
  59              		.section	.text.McpsIndication,"ax",%progbits
  60              		.align	1
  61              		.p2align 2,,3
  62              		.syntax unified
  63              		.code	16
  64              		.thumb_func
  65              		.fpu softvfp
  66              		.type	McpsIndication, %function
  67              	McpsIndication:
  68              	.LFB40:
 201:../../../../../../Middlewares/Third_Party/LoRaWAN/Core/lora.c ****     TVL2( PRINTNOW(); PRINTF("APP> McpsInd STATUS: %s\r\n", EventInfoStatusStrings[mcpsIndication->
  69              		.loc 1 201 0
  70              		.cfi_startproc
  71              		@ args = 0, pretend = 0, frame = 8
  72              		@ frame_needed = 0, uses_anonymous_args = 0
  73              	.LVL2:
  74 0000 10B5     		push	{r4, lr}
  75              	.LCFI1:
  76              		.cfi_def_cfa_offset 8
  77              		.cfi_offset 4, -8
ARM GAS  C:\Users\EBANO_~1\AppData\Local\Temp\ccD2gIpL.s 			page 10


  78              		.cfi_offset 14, -4
 205:../../../../../../Middlewares/Third_Party/LoRaWAN/Core/lora.c ****     {
  79              		.loc 1 205 0
  80 0002 4378     		ldrb	r3, [r0, #1]
 201:../../../../../../Middlewares/Third_Party/LoRaWAN/Core/lora.c ****     TVL2( PRINTNOW(); PRINTF("APP> McpsInd STATUS: %s\r\n", EventInfoStatusStrings[mcpsIndication->
  81              		.loc 1 201 0
  82 0004 82B0     		sub	sp, sp, #8
  83              	.LCFI2:
  84              		.cfi_def_cfa_offset 16
 201:../../../../../../Middlewares/Third_Party/LoRaWAN/Core/lora.c ****     TVL2( PRINTNOW(); PRINTF("APP> McpsInd STATUS: %s\r\n", EventInfoStatusStrings[mcpsIndication->
  85              		.loc 1 201 0
  86 0006 0400     		movs	r4, r0
 205:../../../../../../Middlewares/Third_Party/LoRaWAN/Core/lora.c ****     {
  87              		.loc 1 205 0
  88 0008 002B     		cmp	r3, #0
  89 000a 1BD1     		bne	.L7
  90              	.LVL3:
  91              	.LBB7:
  92              	.LBB8:
 236:../../../../../../Middlewares/Third_Party/LoRaWAN/Core/lora.c ****     {
  93              		.loc 1 236 0
  94 000c 4379     		ldrb	r3, [r0, #5]
  95 000e 012B     		cmp	r3, #1
  96 0010 03D1     		bne	.L9
 240:../../../../../../Middlewares/Third_Party/LoRaWAN/Core/lora.c ****     }
  97              		.loc 1 240 0
  98 0012 134B     		ldr	r3, .L24
  99 0014 1B68     		ldr	r3, [r3]
 100 0016 DB69     		ldr	r3, [r3, #28]
 101 0018 9847     		blx	r3
 102              	.LVL4:
 103              	.L9:
 247:../../../../../../Middlewares/Third_Party/LoRaWAN/Core/lora.c ****     {
 104              		.loc 1 247 0
 105 001a FFF7FEFF 		bl	certif_running
 106              	.LVL5:
 107 001e 0028     		cmp	r0, #0
 108 0020 12D1     		bne	.L21
 252:../../../../../../Middlewares/Third_Party/LoRaWAN/Core/lora.c ****     {
 109              		.loc 1 252 0
 110 0022 637B     		ldrb	r3, [r4, #13]
 111 0024 002B     		cmp	r3, #0
 112 0026 0DD0     		beq	.L7
 113              	.L23:
 254:../../../../../../Middlewares/Third_Party/LoRaWAN/Core/lora.c ****       {
 114              		.loc 1 254 0
 115 0028 E378     		ldrb	r3, [r4, #3]
 116 002a E02B     		cmp	r3, #224
 117 002c 12D0     		beq	.L22
 261:../../../../../../Middlewares/Third_Party/LoRaWAN/Core/lora.c ****           AppData.BuffSize = mcpsIndication->BufferSize;
 118              		.loc 1 261 0
 119 002e 6A46     		mov	r2, sp
 120 0030 5371     		strb	r3, [r2, #5]
 262:../../../../../../Middlewares/Third_Party/LoRaWAN/Core/lora.c ****           AppData.Buff = mcpsIndication->Buffer;
 121              		.loc 1 262 0
 122 0032 237B     		ldrb	r3, [r4, #12]
 265:../../../../../../Middlewares/Third_Party/LoRaWAN/Core/lora.c ****           break;
ARM GAS  C:\Users\EBANO_~1\AppData\Local\Temp\ccD2gIpL.s 			page 11


 123              		.loc 1 265 0
 124 0034 6846     		mov	r0, sp
 262:../../../../../../Middlewares/Third_Party/LoRaWAN/Core/lora.c ****           AppData.Buff = mcpsIndication->Buffer;
 125              		.loc 1 262 0
 126 0036 1371     		strb	r3, [r2, #4]
 263:../../../../../../Middlewares/Third_Party/LoRaWAN/Core/lora.c ****         
 127              		.loc 1 263 0
 128 0038 A368     		ldr	r3, [r4, #8]
 129 003a 0093     		str	r3, [sp]
 265:../../../../../../Middlewares/Third_Party/LoRaWAN/Core/lora.c ****           break;
 130              		.loc 1 265 0
 131 003c 084B     		ldr	r3, .L24
 132 003e 1B68     		ldr	r3, [r3]
 133 0040 1B69     		ldr	r3, [r3, #16]
 134 0042 9847     		blx	r3
 135              	.LVL6:
 136              	.L7:
 137              	.LBE8:
 138              	.LBE7:
 272:../../../../../../Middlewares/Third_Party/LoRaWAN/Core/lora.c **** 
 139              		.loc 1 272 0
 140 0044 02B0     		add	sp, sp, #8
 141              		@ sp needed
 142              	.LVL7:
 143 0046 10BD     		pop	{r4, pc}
 144              	.LVL8:
 145              	.L21:
 146              	.LBB10:
 147              	.LBB9:
 249:../../../../../../Middlewares/Third_Party/LoRaWAN/Core/lora.c ****     }
 148              		.loc 1 249 0
 149 0048 FFF7FEFF 		bl	certif_DownLinkIncrement
 150              	.LVL9:
 252:../../../../../../Middlewares/Third_Party/LoRaWAN/Core/lora.c ****     {
 151              		.loc 1 252 0
 152 004c 637B     		ldrb	r3, [r4, #13]
 153 004e 002B     		cmp	r3, #0
 154 0050 EAD1     		bne	.L23
 155 0052 F7E7     		b	.L7
 156              	.L22:
 257:../../../../../../Middlewares/Third_Party/LoRaWAN/Core/lora.c ****           break;
 157              		.loc 1 257 0
 158 0054 0249     		ldr	r1, .L24
 159 0056 2000     		movs	r0, r4
 160 0058 0431     		adds	r1, r1, #4
 161 005a FFF7FEFF 		bl	certif_rx
 162              	.LVL10:
 163 005e F1E7     		b	.L7
 164              	.L25:
 165              		.align	2
 166              	.L24:
 167 0060 00000000 		.word	.LANCHOR0
 168              	.LBE9:
 169              	.LBE10:
 170              		.cfi_endproc
 171              	.LFE40:
 172              		.size	McpsIndication, .-McpsIndication
ARM GAS  C:\Users\EBANO_~1\AppData\Local\Temp\ccD2gIpL.s 			page 12


 173              		.section	.text.McpsConfirm,"ax",%progbits
 174              		.align	1
 175              		.p2align 2,,3
 176              		.syntax unified
 177              		.code	16
 178              		.thumb_func
 179              		.fpu softvfp
 180              		.type	McpsConfirm, %function
 181              	McpsConfirm:
 182              	.LFB39:
 160:../../../../../../Middlewares/Third_Party/LoRaWAN/Core/lora.c ****     TVL2( PRINTNOW(); PRINTF("APP> McpsConfirm STATUS: %s\r\n", EventInfoStatusStrings[mcpsConfirm-
 183              		.loc 1 160 0
 184              		.cfi_startproc
 185              		@ args = 0, pretend = 0, frame = 48
 186              		@ frame_needed = 0, uses_anonymous_args = 0
 187              	.LVL11:
 188              	.LBB14:
 189              	.LBB15:
 435:../../../../../../Middlewares/Third_Party/LoRaWAN/Core/lora.c **** /**
 436:../../../../../../Middlewares/Third_Party/LoRaWAN/Core/lora.c ****  *  lora Init
 437:../../../../../../Middlewares/Third_Party/LoRaWAN/Core/lora.c ****  */
 438:../../../../../../Middlewares/Third_Party/LoRaWAN/Core/lora.c **** void LORA_Init (LoRaMainCallback_t *callbacks, LoRaParam_t* LoRaParam )
 439:../../../../../../Middlewares/Third_Party/LoRaWAN/Core/lora.c **** {
 440:../../../../../../Middlewares/Third_Party/LoRaWAN/Core/lora.c ****   /* init the Tx Duty Cycle*/
 441:../../../../../../Middlewares/Third_Party/LoRaWAN/Core/lora.c ****   LoRaParamInit = LoRaParam;
 442:../../../../../../Middlewares/Third_Party/LoRaWAN/Core/lora.c ****   
 443:../../../../../../Middlewares/Third_Party/LoRaWAN/Core/lora.c ****   /* init the main call backs*/
 444:../../../../../../Middlewares/Third_Party/LoRaWAN/Core/lora.c ****   LoRaMainCallbacks = callbacks;
 445:../../../../../../Middlewares/Third_Party/LoRaWAN/Core/lora.c ****   
 446:../../../../../../Middlewares/Third_Party/LoRaWAN/Core/lora.c **** #if (STATIC_DEVICE_EUI != 1)
 447:../../../../../../Middlewares/Third_Party/LoRaWAN/Core/lora.c ****   LoRaMainCallbacks->BoardGetUniqueId( DevEui );  
 448:../../../../../../Middlewares/Third_Party/LoRaWAN/Core/lora.c **** #endif
 449:../../../../../../Middlewares/Third_Party/LoRaWAN/Core/lora.c ****   
 450:../../../../../../Middlewares/Third_Party/LoRaWAN/Core/lora.c **** #if( OVER_THE_AIR_ACTIVATION != 0 )
 451:../../../../../../Middlewares/Third_Party/LoRaWAN/Core/lora.c **** 
 452:../../../../../../Middlewares/Third_Party/LoRaWAN/Core/lora.c ****   PPRINTF( "OTAA\n\r"); 
 453:../../../../../../Middlewares/Third_Party/LoRaWAN/Core/lora.c ****   PPRINTF( "DevEui= %02X-%02X-%02X-%02X-%02X-%02X-%02X-%02X\n\r", HEX8(DevEui));
 454:../../../../../../Middlewares/Third_Party/LoRaWAN/Core/lora.c ****   PPRINTF( "AppEui= %02X-%02X-%02X-%02X-%02X-%02X-%02X-%02X\n\r", HEX8(JoinEui));
 455:../../../../../../Middlewares/Third_Party/LoRaWAN/Core/lora.c ****   PPRINTF( "AppKey= %02X %02X %02X %02X %02X %02X %02X %02X %02X %02X %02X %02X %02X %02X %02X %02X
 456:../../../../../../Middlewares/Third_Party/LoRaWAN/Core/lora.c **** #else
 457:../../../../../../Middlewares/Third_Party/LoRaWAN/Core/lora.c **** 
 458:../../../../../../Middlewares/Third_Party/LoRaWAN/Core/lora.c **** #if (STATIC_DEVICE_ADDRESS != 1)
 459:../../../../../../Middlewares/Third_Party/LoRaWAN/Core/lora.c ****   // Random seed initialization
 460:../../../../../../Middlewares/Third_Party/LoRaWAN/Core/lora.c ****   srand1( LoRaMainCallbacks->BoardGetRandomSeed( ) );
 461:../../../../../../Middlewares/Third_Party/LoRaWAN/Core/lora.c ****   // Choose a random device address
 462:../../../../../../Middlewares/Third_Party/LoRaWAN/Core/lora.c ****   DevAddr = randr( 0, 0x01FFFFFF );
 463:../../../../../../Middlewares/Third_Party/LoRaWAN/Core/lora.c **** #endif
 464:../../../../../../Middlewares/Third_Party/LoRaWAN/Core/lora.c ****   PPRINTF( "ABP\n\r"); 
 465:../../../../../../Middlewares/Third_Party/LoRaWAN/Core/lora.c ****   PPRINTF( "DevEui= %02X-%02X-%02X-%02X-%02X-%02X-%02X-%02X\n\r", HEX8(DevEui));
 466:../../../../../../Middlewares/Third_Party/LoRaWAN/Core/lora.c ****   PPRINTF( "DevAdd=  %08X\n\r", DevAddr) ;
 467:../../../../../../Middlewares/Third_Party/LoRaWAN/Core/lora.c ****   PPRINTF( "NwkSKey= %02X %02X %02X %02X %02X %02X %02X %02X %02X %02X %02X %02X %02X %02X %02X %02
 468:../../../../../../Middlewares/Third_Party/LoRaWAN/Core/lora.c ****   PPRINTF( "AppSKey= %02X %02X %02X %02X %02X %02X %02X %02X %02X %02X %02X %02X %02X %02X %02X %02
 469:../../../../../../Middlewares/Third_Party/LoRaWAN/Core/lora.c **** #endif
 470:../../../../../../Middlewares/Third_Party/LoRaWAN/Core/lora.c ****         LoRaMacPrimitives.MacMcpsConfirm = McpsConfirm;
 471:../../../../../../Middlewares/Third_Party/LoRaWAN/Core/lora.c ****         LoRaMacPrimitives.MacMcpsIndication = McpsIndication;
 472:../../../../../../Middlewares/Third_Party/LoRaWAN/Core/lora.c ****         LoRaMacPrimitives.MacMlmeConfirm = MlmeConfirm;
 473:../../../../../../Middlewares/Third_Party/LoRaWAN/Core/lora.c ****         LoRaMacPrimitives.MacMlmeIndication = MlmeIndication;
ARM GAS  C:\Users\EBANO_~1\AppData\Local\Temp\ccD2gIpL.s 			page 13


 474:../../../../../../Middlewares/Third_Party/LoRaWAN/Core/lora.c ****         LoRaMacCallbacks.GetBatteryLevel = LoRaMainCallbacks->BoardGetBatteryLevel;
 475:../../../../../../Middlewares/Third_Party/LoRaWAN/Core/lora.c ****         LoRaMacCallbacks.GetTemperatureLevel = LoRaMainCallbacks->BoardGetTemperatureLevel;
 476:../../../../../../Middlewares/Third_Party/LoRaWAN/Core/lora.c ****         LoRaMacCallbacks.MacProcessNotify = LoRaMainCallbacks->MacProcessNotify;
 477:../../../../../../Middlewares/Third_Party/LoRaWAN/Core/lora.c **** #if defined( REGION_AS923 )
 478:../../../../../../Middlewares/Third_Party/LoRaWAN/Core/lora.c ****         LoRaMacInitialization( &LoRaMacPrimitives, &LoRaMacCallbacks, LORAMAC_REGION_AS923 );
 479:../../../../../../Middlewares/Third_Party/LoRaWAN/Core/lora.c **** #elif defined( REGION_AU915 )
 480:../../../../../../Middlewares/Third_Party/LoRaWAN/Core/lora.c ****         LoRaMacInitialization( &LoRaMacPrimitives, &LoRaMacCallbacks, LORAMAC_REGION_AU915 );
 481:../../../../../../Middlewares/Third_Party/LoRaWAN/Core/lora.c **** #elif defined( REGION_CN470 )
 482:../../../../../../Middlewares/Third_Party/LoRaWAN/Core/lora.c ****         LoRaMacInitialization( &LoRaMacPrimitives, &LoRaMacCallbacks, LORAMAC_REGION_CN470 );
 483:../../../../../../Middlewares/Third_Party/LoRaWAN/Core/lora.c **** #elif defined( REGION_CN779 )
 484:../../../../../../Middlewares/Third_Party/LoRaWAN/Core/lora.c ****         LoRaMacInitialization( &LoRaMacPrimitives, &LoRaMacCallbacks, LORAMAC_REGION_CN779 );
 485:../../../../../../Middlewares/Third_Party/LoRaWAN/Core/lora.c **** #elif defined( REGION_EU433 )
 486:../../../../../../Middlewares/Third_Party/LoRaWAN/Core/lora.c ****         LoRaMacInitialization( &LoRaMacPrimitives, &LoRaMacCallbacks, LORAMAC_REGION_EU433 );
 487:../../../../../../Middlewares/Third_Party/LoRaWAN/Core/lora.c ****  #elif defined( REGION_IN865 )
 488:../../../../../../Middlewares/Third_Party/LoRaWAN/Core/lora.c ****         LoRaMacInitialization( &LoRaMacPrimitives, &LoRaMacCallbacks, LORAMAC_REGION_IN865 );
 489:../../../../../../Middlewares/Third_Party/LoRaWAN/Core/lora.c **** #elif defined( REGION_EU868 )
 490:../../../../../../Middlewares/Third_Party/LoRaWAN/Core/lora.c ****         LoRaMacInitialization( &LoRaMacPrimitives, &LoRaMacCallbacks, LORAMAC_REGION_EU868 );
 491:../../../../../../Middlewares/Third_Party/LoRaWAN/Core/lora.c **** #elif defined( REGION_KR920 )
 492:../../../../../../Middlewares/Third_Party/LoRaWAN/Core/lora.c ****         LoRaMacInitialization( &LoRaMacPrimitives, &LoRaMacCallbacks, LORAMAC_REGION_KR920 );
 493:../../../../../../Middlewares/Third_Party/LoRaWAN/Core/lora.c **** #elif defined( REGION_US915 )
 494:../../../../../../Middlewares/Third_Party/LoRaWAN/Core/lora.c ****         LoRaMacInitialization( &LoRaMacPrimitives, &LoRaMacCallbacks, LORAMAC_REGION_US915 );
 495:../../../../../../Middlewares/Third_Party/LoRaWAN/Core/lora.c **** 
 496:../../../../../../Middlewares/Third_Party/LoRaWAN/Core/lora.c **** #if defined( HYBRID )
 497:../../../../../../Middlewares/Third_Party/LoRaWAN/Core/lora.c ****                 uint16_t channelMask[] = { 0x00FF, 0x0000, 0x0000, 0x0000, 0x0001, 0x0000};
 498:../../../../../../Middlewares/Third_Party/LoRaWAN/Core/lora.c ****                 mibReq.Type = MIB_CHANNELS_MASK;
 499:../../../../../../Middlewares/Third_Party/LoRaWAN/Core/lora.c ****                 mibReq.Param.ChannelsMask = channelMask;
 500:../../../../../../Middlewares/Third_Party/LoRaWAN/Core/lora.c ****                 LoRaMacMibSetRequestConfirm( &mibReq );
 501:../../../../../../Middlewares/Third_Party/LoRaWAN/Core/lora.c ****                 mibReq.Type = MIB_CHANNELS_DEFAULT_MASK;
 502:../../../../../../Middlewares/Third_Party/LoRaWAN/Core/lora.c ****                 mibReq.Param.ChannelsDefaultMask = channelMask;
 503:../../../../../../Middlewares/Third_Party/LoRaWAN/Core/lora.c ****                 LoRaMacMibSetRequestConfirm( &mibReq );
 504:../../../../../../Middlewares/Third_Party/LoRaWAN/Core/lora.c **** #endif
 505:../../../../../../Middlewares/Third_Party/LoRaWAN/Core/lora.c **** #elif defined( REGION_RU864 )
 506:../../../../../../Middlewares/Third_Party/LoRaWAN/Core/lora.c ****         LoRaMacInitialization( &LoRaMacPrimitives, &LoRaMacCallbacks, LORAMAC_REGION_RU864 );
 507:../../../../../../Middlewares/Third_Party/LoRaWAN/Core/lora.c **** #else
 508:../../../../../../Middlewares/Third_Party/LoRaWAN/Core/lora.c ****     #error "Please define a region in the compiler options."
 509:../../../../../../Middlewares/Third_Party/LoRaWAN/Core/lora.c **** #endif
 510:../../../../../../Middlewares/Third_Party/LoRaWAN/Core/lora.c ****       
 511:../../../../../../Middlewares/Third_Party/LoRaWAN/Core/lora.c ****       mibReq.Type = MIB_ADR;
 512:../../../../../../Middlewares/Third_Party/LoRaWAN/Core/lora.c ****       mibReq.Param.AdrEnable = LoRaParamInit->AdrEnable;
 513:../../../../../../Middlewares/Third_Party/LoRaWAN/Core/lora.c ****       LoRaMacMibSetRequestConfirm( &mibReq );
 514:../../../../../../Middlewares/Third_Party/LoRaWAN/Core/lora.c **** 
 515:../../../../../../Middlewares/Third_Party/LoRaWAN/Core/lora.c ****       mibReq.Type = MIB_PUBLIC_NETWORK;
 516:../../../../../../Middlewares/Third_Party/LoRaWAN/Core/lora.c ****       mibReq.Param.EnablePublicNetwork = LoRaParamInit->EnablePublicNetwork;
 517:../../../../../../Middlewares/Third_Party/LoRaWAN/Core/lora.c ****       LoRaMacMibSetRequestConfirm( &mibReq );
 518:../../../../../../Middlewares/Third_Party/LoRaWAN/Core/lora.c ****       
 519:../../../../../../Middlewares/Third_Party/LoRaWAN/Core/lora.c ****       mibReq.Type = MIB_APP_KEY;
 520:../../../../../../Middlewares/Third_Party/LoRaWAN/Core/lora.c ****       mibReq.Param.AppKey = AppKey;
 521:../../../../../../Middlewares/Third_Party/LoRaWAN/Core/lora.c ****       LoRaMacMibSetRequestConfirm( &mibReq );
 522:../../../../../../Middlewares/Third_Party/LoRaWAN/Core/lora.c **** 
 523:../../../../../../Middlewares/Third_Party/LoRaWAN/Core/lora.c ****       mibReq.Type = MIB_NWK_KEY;
 524:../../../../../../Middlewares/Third_Party/LoRaWAN/Core/lora.c ****       mibReq.Param.NwkKey = NwkKey;
 525:../../../../../../Middlewares/Third_Party/LoRaWAN/Core/lora.c ****       LoRaMacMibSetRequestConfirm( &mibReq );      
 526:../../../../../../Middlewares/Third_Party/LoRaWAN/Core/lora.c ****                       
 527:../../../../../../Middlewares/Third_Party/LoRaWAN/Core/lora.c ****       mibReq.Type = MIB_DEVICE_CLASS;
 528:../../../../../../Middlewares/Third_Party/LoRaWAN/Core/lora.c ****       mibReq.Param.Class= CLASS_A;
 529:../../../../../../Middlewares/Third_Party/LoRaWAN/Core/lora.c ****       LoRaMacMibSetRequestConfirm( &mibReq );
 530:../../../../../../Middlewares/Third_Party/LoRaWAN/Core/lora.c **** 
ARM GAS  C:\Users\EBANO_~1\AppData\Local\Temp\ccD2gIpL.s 			page 14


 531:../../../../../../Middlewares/Third_Party/LoRaWAN/Core/lora.c **** #if defined( REGION_EU868 )
 532:../../../../../../Middlewares/Third_Party/LoRaWAN/Core/lora.c ****       LoRaMacTestSetDutyCycleOn( LORAWAN_DUTYCYCLE_ON );
 533:../../../../../../Middlewares/Third_Party/LoRaWAN/Core/lora.c **** #endif
 534:../../../../../../Middlewares/Third_Party/LoRaWAN/Core/lora.c ****       
 535:../../../../../../Middlewares/Third_Party/LoRaWAN/Core/lora.c ****       mibReq.Type = MIB_SYSTEM_MAX_RX_ERROR;
 536:../../../../../../Middlewares/Third_Party/LoRaWAN/Core/lora.c ****       mibReq.Param.SystemMaxRxError = 20;
 537:../../../../../../Middlewares/Third_Party/LoRaWAN/Core/lora.c ****       LoRaMacMibSetRequestConfirm( &mibReq );
 538:../../../../../../Middlewares/Third_Party/LoRaWAN/Core/lora.c **** 
 539:../../../../../../Middlewares/Third_Party/LoRaWAN/Core/lora.c ****       /*set Mac statein Idle*/
 540:../../../../../../Middlewares/Third_Party/LoRaWAN/Core/lora.c ****       LoRaMacStart( );
 541:../../../../../../Middlewares/Third_Party/LoRaWAN/Core/lora.c **** }
 542:../../../../../../Middlewares/Third_Party/LoRaWAN/Core/lora.c **** 
 543:../../../../../../Middlewares/Third_Party/LoRaWAN/Core/lora.c **** 
 544:../../../../../../Middlewares/Third_Party/LoRaWAN/Core/lora.c **** void LORA_Join( void)
 545:../../../../../../Middlewares/Third_Party/LoRaWAN/Core/lora.c **** {
 546:../../../../../../Middlewares/Third_Party/LoRaWAN/Core/lora.c ****     MlmeReq_t mlmeReq;
 547:../../../../../../Middlewares/Third_Party/LoRaWAN/Core/lora.c ****   
 548:../../../../../../Middlewares/Third_Party/LoRaWAN/Core/lora.c ****     mlmeReq.Type = MLME_JOIN;
 549:../../../../../../Middlewares/Third_Party/LoRaWAN/Core/lora.c ****     mlmeReq.Req.Join.DevEui = DevEui;
 550:../../../../../../Middlewares/Third_Party/LoRaWAN/Core/lora.c ****     mlmeReq.Req.Join.JoinEui = JoinEui;
 551:../../../../../../Middlewares/Third_Party/LoRaWAN/Core/lora.c ****     mlmeReq.Req.Join.Datarate = LoRaParamInit->TxDatarate;
 552:../../../../../../Middlewares/Third_Party/LoRaWAN/Core/lora.c ****   
 553:../../../../../../Middlewares/Third_Party/LoRaWAN/Core/lora.c ****     JoinParameters = mlmeReq.Req.Join;
 554:../../../../../../Middlewares/Third_Party/LoRaWAN/Core/lora.c **** 
 555:../../../../../../Middlewares/Third_Party/LoRaWAN/Core/lora.c **** #if( OVER_THE_AIR_ACTIVATION != 0 )
 556:../../../../../../Middlewares/Third_Party/LoRaWAN/Core/lora.c ****     LoRaMacMlmeRequest( &mlmeReq );
 557:../../../../../../Middlewares/Third_Party/LoRaWAN/Core/lora.c **** #else
 558:../../../../../../Middlewares/Third_Party/LoRaWAN/Core/lora.c ****     mibReq.Type = MIB_NET_ID;
 559:../../../../../../Middlewares/Third_Party/LoRaWAN/Core/lora.c ****     mibReq.Param.NetID = LORAWAN_NETWORK_ID;
 560:../../../../../../Middlewares/Third_Party/LoRaWAN/Core/lora.c ****     LoRaMacMibSetRequestConfirm( &mibReq );
 561:../../../../../../Middlewares/Third_Party/LoRaWAN/Core/lora.c **** 
 562:../../../../../../Middlewares/Third_Party/LoRaWAN/Core/lora.c ****     mibReq.Type = MIB_DEV_ADDR;
 563:../../../../../../Middlewares/Third_Party/LoRaWAN/Core/lora.c ****     mibReq.Param.DevAddr = DevAddr;
 564:../../../../../../Middlewares/Third_Party/LoRaWAN/Core/lora.c ****     LoRaMacMibSetRequestConfirm( &mibReq );
 565:../../../../../../Middlewares/Third_Party/LoRaWAN/Core/lora.c **** 
 566:../../../../../../Middlewares/Third_Party/LoRaWAN/Core/lora.c ****     mibReq.Type = MIB_F_NWK_S_INT_KEY;
 567:../../../../../../Middlewares/Third_Party/LoRaWAN/Core/lora.c ****     mibReq.Param.FNwkSIntKey = FNwkSIntKey;
 568:../../../../../../Middlewares/Third_Party/LoRaWAN/Core/lora.c ****     LoRaMacMibSetRequestConfirm( &mibReq );
 569:../../../../../../Middlewares/Third_Party/LoRaWAN/Core/lora.c **** 
 570:../../../../../../Middlewares/Third_Party/LoRaWAN/Core/lora.c ****     mibReq.Type = MIB_S_NWK_S_INT_KEY;
 571:../../../../../../Middlewares/Third_Party/LoRaWAN/Core/lora.c ****     mibReq.Param.SNwkSIntKey = SNwkSIntKey;
 572:../../../../../../Middlewares/Third_Party/LoRaWAN/Core/lora.c ****     LoRaMacMibSetRequestConfirm( &mibReq );
 573:../../../../../../Middlewares/Third_Party/LoRaWAN/Core/lora.c **** 
 574:../../../../../../Middlewares/Third_Party/LoRaWAN/Core/lora.c ****     mibReq.Type = MIB_NWK_S_ENC_KEY;
 575:../../../../../../Middlewares/Third_Party/LoRaWAN/Core/lora.c ****     mibReq.Param.NwkSEncKey = NwkSEncKey;
 576:../../../../../../Middlewares/Third_Party/LoRaWAN/Core/lora.c ****     LoRaMacMibSetRequestConfirm( &mibReq );
 577:../../../../../../Middlewares/Third_Party/LoRaWAN/Core/lora.c **** 
 578:../../../../../../Middlewares/Third_Party/LoRaWAN/Core/lora.c ****     mibReq.Type = MIB_APP_S_KEY;
 579:../../../../../../Middlewares/Third_Party/LoRaWAN/Core/lora.c ****     mibReq.Param.AppSKey = AppSKey;
 580:../../../../../../Middlewares/Third_Party/LoRaWAN/Core/lora.c ****     LoRaMacMibSetRequestConfirm( &mibReq );
 581:../../../../../../Middlewares/Third_Party/LoRaWAN/Core/lora.c **** 
 582:../../../../../../Middlewares/Third_Party/LoRaWAN/Core/lora.c ****     mibReq.Type = MIB_NETWORK_ACTIVATION;
 583:../../../../../../Middlewares/Third_Party/LoRaWAN/Core/lora.c ****     mibReq.Param.NetworkActivation = ACTIVATION_TYPE_ABP;
 584:../../../../../../Middlewares/Third_Party/LoRaWAN/Core/lora.c ****     LoRaMacMibSetRequestConfirm( &mibReq );
 585:../../../../../../Middlewares/Third_Party/LoRaWAN/Core/lora.c ****     
 586:../../../../../../Middlewares/Third_Party/LoRaWAN/Core/lora.c ****     // Enable legacy mode to operate according to LoRaWAN Spec. 1.0.3
 587:../../../../../../Middlewares/Third_Party/LoRaWAN/Core/lora.c ****     Version_t abpLrWanVersion;
ARM GAS  C:\Users\EBANO_~1\AppData\Local\Temp\ccD2gIpL.s 			page 15


 588:../../../../../../Middlewares/Third_Party/LoRaWAN/Core/lora.c **** 
 589:../../../../../../Middlewares/Third_Party/LoRaWAN/Core/lora.c ****     abpLrWanVersion.Fields.Major    = 1;
 590:../../../../../../Middlewares/Third_Party/LoRaWAN/Core/lora.c ****     abpLrWanVersion.Fields.Minor    = 0;
 591:../../../../../../Middlewares/Third_Party/LoRaWAN/Core/lora.c ****     abpLrWanVersion.Fields.Revision = 3;
 592:../../../../../../Middlewares/Third_Party/LoRaWAN/Core/lora.c ****     abpLrWanVersion.Fields.Rfu      = 0;
 593:../../../../../../Middlewares/Third_Party/LoRaWAN/Core/lora.c **** 
 594:../../../../../../Middlewares/Third_Party/LoRaWAN/Core/lora.c ****     mibReq.Type = MIB_ABP_LORAWAN_VERSION;
 595:../../../../../../Middlewares/Third_Party/LoRaWAN/Core/lora.c ****     mibReq.Param.AbpLrWanVersion = abpLrWanVersion;
 596:../../../../../../Middlewares/Third_Party/LoRaWAN/Core/lora.c ****     LoRaMacMibSetRequestConfirm( &mibReq );
 597:../../../../../../Middlewares/Third_Party/LoRaWAN/Core/lora.c **** 
 598:../../../../../../Middlewares/Third_Party/LoRaWAN/Core/lora.c ****     LoRaMainCallbacks->LORA_HasJoined();
 599:../../../../../../Middlewares/Third_Party/LoRaWAN/Core/lora.c **** #endif
 600:../../../../../../Middlewares/Third_Party/LoRaWAN/Core/lora.c **** }
 601:../../../../../../Middlewares/Third_Party/LoRaWAN/Core/lora.c **** 
 602:../../../../../../Middlewares/Third_Party/LoRaWAN/Core/lora.c **** LoraFlagStatus LORA_JoinStatus( void)
 603:../../../../../../Middlewares/Third_Party/LoRaWAN/Core/lora.c **** {
 604:../../../../../../Middlewares/Third_Party/LoRaWAN/Core/lora.c ****   MibRequestConfirm_t mibReq;
 605:../../../../../../Middlewares/Third_Party/LoRaWAN/Core/lora.c **** 
 606:../../../../../../Middlewares/Third_Party/LoRaWAN/Core/lora.c ****   mibReq.Type = MIB_NETWORK_ACTIVATION;
 607:../../../../../../Middlewares/Third_Party/LoRaWAN/Core/lora.c ****   
 608:../../../../../../Middlewares/Third_Party/LoRaWAN/Core/lora.c ****   LoRaMacMibGetRequestConfirm( &mibReq );
 609:../../../../../../Middlewares/Third_Party/LoRaWAN/Core/lora.c **** 
 610:../../../../../../Middlewares/Third_Party/LoRaWAN/Core/lora.c ****   if( mibReq.Param.NetworkActivation == ACTIVATION_TYPE_NONE )
 611:../../../../../../Middlewares/Third_Party/LoRaWAN/Core/lora.c ****   {
 612:../../../../../../Middlewares/Third_Party/LoRaWAN/Core/lora.c ****     return LORA_RESET;
 613:../../../../../../Middlewares/Third_Party/LoRaWAN/Core/lora.c ****   }
 614:../../../../../../Middlewares/Third_Party/LoRaWAN/Core/lora.c ****   else
 615:../../../../../../Middlewares/Third_Party/LoRaWAN/Core/lora.c ****   {
 616:../../../../../../Middlewares/Third_Party/LoRaWAN/Core/lora.c ****     return LORA_SET;
 617:../../../../../../Middlewares/Third_Party/LoRaWAN/Core/lora.c ****   }
 618:../../../../../../Middlewares/Third_Party/LoRaWAN/Core/lora.c **** }
 619:../../../../../../Middlewares/Third_Party/LoRaWAN/Core/lora.c **** 
 620:../../../../../../Middlewares/Third_Party/LoRaWAN/Core/lora.c **** 
 621:../../../../../../Middlewares/Third_Party/LoRaWAN/Core/lora.c **** 
 622:../../../../../../Middlewares/Third_Party/LoRaWAN/Core/lora.c **** bool LORA_send(lora_AppData_t* AppData, LoraConfirm_t IsTxConfirmed)
 623:../../../../../../Middlewares/Third_Party/LoRaWAN/Core/lora.c **** {
 624:../../../../../../Middlewares/Third_Party/LoRaWAN/Core/lora.c ****     McpsReq_t mcpsReq;
 625:../../../../../../Middlewares/Third_Party/LoRaWAN/Core/lora.c ****     LoRaMacTxInfo_t txInfo;
 626:../../../../../../Middlewares/Third_Party/LoRaWAN/Core/lora.c ****   
 627:../../../../../../Middlewares/Third_Party/LoRaWAN/Core/lora.c ****     /*if certification test are on going, application data is not sent*/
 628:../../../../../../Middlewares/Third_Party/LoRaWAN/Core/lora.c ****     if (certif_running() == true)
 629:../../../../../../Middlewares/Third_Party/LoRaWAN/Core/lora.c ****     {
 630:../../../../../../Middlewares/Third_Party/LoRaWAN/Core/lora.c ****       return false;
 631:../../../../../../Middlewares/Third_Party/LoRaWAN/Core/lora.c ****     }
 632:../../../../../../Middlewares/Third_Party/LoRaWAN/Core/lora.c ****     
 633:../../../../../../Middlewares/Third_Party/LoRaWAN/Core/lora.c ****     if( LoRaMacQueryTxPossible( AppData->BuffSize, &txInfo ) != LORAMAC_STATUS_OK )
 634:../../../../../../Middlewares/Third_Party/LoRaWAN/Core/lora.c ****     {
 635:../../../../../../Middlewares/Third_Party/LoRaWAN/Core/lora.c ****         // Send empty frame in order to flush MAC commands
 636:../../../../../../Middlewares/Third_Party/LoRaWAN/Core/lora.c ****         mcpsReq.Type = MCPS_UNCONFIRMED;
 637:../../../../../../Middlewares/Third_Party/LoRaWAN/Core/lora.c ****         mcpsReq.Req.Unconfirmed.fBuffer = NULL;
 638:../../../../../../Middlewares/Third_Party/LoRaWAN/Core/lora.c ****         mcpsReq.Req.Unconfirmed.fBufferSize = 0;
 639:../../../../../../Middlewares/Third_Party/LoRaWAN/Core/lora.c ****         mcpsReq.Req.Unconfirmed.Datarate = LoRaParamInit->TxDatarate;
 640:../../../../../../Middlewares/Third_Party/LoRaWAN/Core/lora.c ****     }
 641:../../../../../../Middlewares/Third_Party/LoRaWAN/Core/lora.c ****     else
 642:../../../../../../Middlewares/Third_Party/LoRaWAN/Core/lora.c ****     {
 643:../../../../../../Middlewares/Third_Party/LoRaWAN/Core/lora.c ****         if( IsTxConfirmed == LORAWAN_UNCONFIRMED_MSG )
 644:../../../../../../Middlewares/Third_Party/LoRaWAN/Core/lora.c ****         {
ARM GAS  C:\Users\EBANO_~1\AppData\Local\Temp\ccD2gIpL.s 			page 16


 645:../../../../../../Middlewares/Third_Party/LoRaWAN/Core/lora.c ****             mcpsReq.Type = MCPS_UNCONFIRMED;
 646:../../../../../../Middlewares/Third_Party/LoRaWAN/Core/lora.c ****             mcpsReq.Req.Unconfirmed.fPort = AppData->Port;
 647:../../../../../../Middlewares/Third_Party/LoRaWAN/Core/lora.c ****             mcpsReq.Req.Unconfirmed.fBufferSize = AppData->BuffSize;
 648:../../../../../../Middlewares/Third_Party/LoRaWAN/Core/lora.c ****             mcpsReq.Req.Unconfirmed.fBuffer = AppData->Buff;
 649:../../../../../../Middlewares/Third_Party/LoRaWAN/Core/lora.c ****             mcpsReq.Req.Unconfirmed.Datarate = LoRaParamInit->TxDatarate;
 650:../../../../../../Middlewares/Third_Party/LoRaWAN/Core/lora.c ****         }
 651:../../../../../../Middlewares/Third_Party/LoRaWAN/Core/lora.c ****         else
 652:../../../../../../Middlewares/Third_Party/LoRaWAN/Core/lora.c ****         {
 653:../../../../../../Middlewares/Third_Party/LoRaWAN/Core/lora.c ****             mcpsReq.Type = MCPS_CONFIRMED;
 654:../../../../../../Middlewares/Third_Party/LoRaWAN/Core/lora.c ****             mcpsReq.Req.Confirmed.fPort = AppData->Port;
 655:../../../../../../Middlewares/Third_Party/LoRaWAN/Core/lora.c ****             mcpsReq.Req.Confirmed.fBufferSize = AppData->BuffSize;
 656:../../../../../../Middlewares/Third_Party/LoRaWAN/Core/lora.c ****             mcpsReq.Req.Confirmed.fBuffer = AppData->Buff;
 657:../../../../../../Middlewares/Third_Party/LoRaWAN/Core/lora.c ****             mcpsReq.Req.Confirmed.NbTrials = 8;
 658:../../../../../../Middlewares/Third_Party/LoRaWAN/Core/lora.c ****             mcpsReq.Req.Confirmed.Datarate = LoRaParamInit->TxDatarate;
 659:../../../../../../Middlewares/Third_Party/LoRaWAN/Core/lora.c ****         }
 660:../../../../../../Middlewares/Third_Party/LoRaWAN/Core/lora.c ****     }
 661:../../../../../../Middlewares/Third_Party/LoRaWAN/Core/lora.c ****     if( LoRaMacMcpsRequest( &mcpsReq ) == LORAMAC_STATUS_OK )
 662:../../../../../../Middlewares/Third_Party/LoRaWAN/Core/lora.c ****     {
 663:../../../../../../Middlewares/Third_Party/LoRaWAN/Core/lora.c ****         return false;
 664:../../../../../../Middlewares/Third_Party/LoRaWAN/Core/lora.c ****     }
 665:../../../../../../Middlewares/Third_Party/LoRaWAN/Core/lora.c ****     return true;
 666:../../../../../../Middlewares/Third_Party/LoRaWAN/Core/lora.c **** }  
 667:../../../../../../Middlewares/Third_Party/LoRaWAN/Core/lora.c **** 
 668:../../../../../../Middlewares/Third_Party/LoRaWAN/Core/lora.c **** #ifdef LORAMAC_CLASSB_ENABLED
 669:../../../../../../Middlewares/Third_Party/LoRaWAN/Core/lora.c **** #if defined( USE_DEVICE_TIMING )
 670:../../../../../../Middlewares/Third_Party/LoRaWAN/Core/lora.c **** static LoraErrorStatus LORA_DeviceTimeReq( void)
 671:../../../../../../Middlewares/Third_Party/LoRaWAN/Core/lora.c **** {
 672:../../../../../../Middlewares/Third_Party/LoRaWAN/Core/lora.c ****   MlmeReq_t mlmeReq;
 673:../../../../../../Middlewares/Third_Party/LoRaWAN/Core/lora.c **** 
 674:../../../../../../Middlewares/Third_Party/LoRaWAN/Core/lora.c ****   mlmeReq.Type = MLME_DEVICE_TIME;
 675:../../../../../../Middlewares/Third_Party/LoRaWAN/Core/lora.c **** 
 676:../../../../../../Middlewares/Third_Party/LoRaWAN/Core/lora.c ****   if( LoRaMacMlmeRequest( &mlmeReq ) == LORAMAC_STATUS_OK )
 677:../../../../../../Middlewares/Third_Party/LoRaWAN/Core/lora.c ****   {
 678:../../../../../../Middlewares/Third_Party/LoRaWAN/Core/lora.c ****     return LORA_SUCCESS;
 679:../../../../../../Middlewares/Third_Party/LoRaWAN/Core/lora.c ****   }
 680:../../../../../../Middlewares/Third_Party/LoRaWAN/Core/lora.c ****   else
 681:../../../../../../Middlewares/Third_Party/LoRaWAN/Core/lora.c ****   {
 682:../../../../../../Middlewares/Third_Party/LoRaWAN/Core/lora.c ****     return LORA_ERROR;
 683:../../../../../../Middlewares/Third_Party/LoRaWAN/Core/lora.c ****   }
 684:../../../../../../Middlewares/Third_Party/LoRaWAN/Core/lora.c **** }
 685:../../../../../../Middlewares/Third_Party/LoRaWAN/Core/lora.c **** #else
 686:../../../../../../Middlewares/Third_Party/LoRaWAN/Core/lora.c **** static LoraErrorStatus LORA_BeaconTimeReq( void)
 687:../../../../../../Middlewares/Third_Party/LoRaWAN/Core/lora.c **** {
 688:../../../../../../Middlewares/Third_Party/LoRaWAN/Core/lora.c ****   MlmeReq_t mlmeReq;
 689:../../../../../../Middlewares/Third_Party/LoRaWAN/Core/lora.c **** 
 690:../../../../../../Middlewares/Third_Party/LoRaWAN/Core/lora.c ****   mlmeReq.Type = MLME_BEACON_TIMING;
 691:../../../../../../Middlewares/Third_Party/LoRaWAN/Core/lora.c **** 
 692:../../../../../../Middlewares/Third_Party/LoRaWAN/Core/lora.c ****   if( LoRaMacMlmeRequest( &mlmeReq ) == LORAMAC_STATUS_OK )
 693:../../../../../../Middlewares/Third_Party/LoRaWAN/Core/lora.c ****   {
 694:../../../../../../Middlewares/Third_Party/LoRaWAN/Core/lora.c ****     return LORA_SUCCESS;
 695:../../../../../../Middlewares/Third_Party/LoRaWAN/Core/lora.c ****   }
 696:../../../../../../Middlewares/Third_Party/LoRaWAN/Core/lora.c ****   else
 697:../../../../../../Middlewares/Third_Party/LoRaWAN/Core/lora.c ****   {
 698:../../../../../../Middlewares/Third_Party/LoRaWAN/Core/lora.c ****     return LORA_ERROR;
 699:../../../../../../Middlewares/Third_Party/LoRaWAN/Core/lora.c ****   }
 700:../../../../../../Middlewares/Third_Party/LoRaWAN/Core/lora.c **** }
 701:../../../../../../Middlewares/Third_Party/LoRaWAN/Core/lora.c **** #endif
ARM GAS  C:\Users\EBANO_~1\AppData\Local\Temp\ccD2gIpL.s 			page 17


 702:../../../../../../Middlewares/Third_Party/LoRaWAN/Core/lora.c **** 
 703:../../../../../../Middlewares/Third_Party/LoRaWAN/Core/lora.c **** static LoraErrorStatus LORA_BeaconReq( void)
 704:../../../../../../Middlewares/Third_Party/LoRaWAN/Core/lora.c **** {
 705:../../../../../../Middlewares/Third_Party/LoRaWAN/Core/lora.c ****   MlmeReq_t mlmeReq;
 706:../../../../../../Middlewares/Third_Party/LoRaWAN/Core/lora.c **** 
 707:../../../../../../Middlewares/Third_Party/LoRaWAN/Core/lora.c ****   mlmeReq.Type = MLME_BEACON_ACQUISITION;
 708:../../../../../../Middlewares/Third_Party/LoRaWAN/Core/lora.c **** 
 709:../../../../../../Middlewares/Third_Party/LoRaWAN/Core/lora.c ****   if( LoRaMacMlmeRequest( &mlmeReq ) == LORAMAC_STATUS_OK )
 710:../../../../../../Middlewares/Third_Party/LoRaWAN/Core/lora.c ****   {
 711:../../../../../../Middlewares/Third_Party/LoRaWAN/Core/lora.c ****     return LORA_SUCCESS;
 712:../../../../../../Middlewares/Third_Party/LoRaWAN/Core/lora.c ****   }
 713:../../../../../../Middlewares/Third_Party/LoRaWAN/Core/lora.c ****   else
 714:../../../../../../Middlewares/Third_Party/LoRaWAN/Core/lora.c ****   {
 715:../../../../../../Middlewares/Third_Party/LoRaWAN/Core/lora.c ****     return LORA_ERROR;
 716:../../../../../../Middlewares/Third_Party/LoRaWAN/Core/lora.c ****   }
 717:../../../../../../Middlewares/Third_Party/LoRaWAN/Core/lora.c **** }
 718:../../../../../../Middlewares/Third_Party/LoRaWAN/Core/lora.c **** 
 719:../../../../../../Middlewares/Third_Party/LoRaWAN/Core/lora.c **** static LoraErrorStatus LORA_PingSlotReq( void)
 720:../../../../../../Middlewares/Third_Party/LoRaWAN/Core/lora.c **** {
 721:../../../../../../Middlewares/Third_Party/LoRaWAN/Core/lora.c **** 
 722:../../../../../../Middlewares/Third_Party/LoRaWAN/Core/lora.c ****   MlmeReq_t mlmeReq;
 723:../../../../../../Middlewares/Third_Party/LoRaWAN/Core/lora.c **** 
 724:../../../../../../Middlewares/Third_Party/LoRaWAN/Core/lora.c ****   mlmeReq.Type = MLME_LINK_CHECK;
 725:../../../../../../Middlewares/Third_Party/LoRaWAN/Core/lora.c ****   LoRaMacMlmeRequest( &mlmeReq );
 726:../../../../../../Middlewares/Third_Party/LoRaWAN/Core/lora.c **** 
 727:../../../../../../Middlewares/Third_Party/LoRaWAN/Core/lora.c ****   mlmeReq.Type = MLME_PING_SLOT_INFO;
 728:../../../../../../Middlewares/Third_Party/LoRaWAN/Core/lora.c ****   mlmeReq.Req.PingSlotInfo.PingSlot.Fields.Periodicity = LORAWAN_DEFAULT_PING_SLOT_PERIODICITY;
 729:../../../../../../Middlewares/Third_Party/LoRaWAN/Core/lora.c ****   mlmeReq.Req.PingSlotInfo.PingSlot.Fields.RFU = 0;
 730:../../../../../../Middlewares/Third_Party/LoRaWAN/Core/lora.c **** 
 731:../../../../../../Middlewares/Third_Party/LoRaWAN/Core/lora.c ****   if( LoRaMacMlmeRequest( &mlmeReq ) == LORAMAC_STATUS_OK )
 732:../../../../../../Middlewares/Third_Party/LoRaWAN/Core/lora.c ****   {
 733:../../../../../../Middlewares/Third_Party/LoRaWAN/Core/lora.c ****       return LORA_SUCCESS;
 734:../../../../../../Middlewares/Third_Party/LoRaWAN/Core/lora.c ****   }
 735:../../../../../../Middlewares/Third_Party/LoRaWAN/Core/lora.c ****   else
 736:../../../../../../Middlewares/Third_Party/LoRaWAN/Core/lora.c ****   {
 737:../../../../../../Middlewares/Third_Party/LoRaWAN/Core/lora.c ****      return LORA_ERROR;
 738:../../../../../../Middlewares/Third_Party/LoRaWAN/Core/lora.c ****   }
 739:../../../../../../Middlewares/Third_Party/LoRaWAN/Core/lora.c **** }
 740:../../../../../../Middlewares/Third_Party/LoRaWAN/Core/lora.c **** #endif /* LORAMAC_CLASSB_ENABLED */
 741:../../../../../../Middlewares/Third_Party/LoRaWAN/Core/lora.c **** 
 742:../../../../../../Middlewares/Third_Party/LoRaWAN/Core/lora.c **** LoraErrorStatus LORA_RequestClass( DeviceClass_t newClass )
 743:../../../../../../Middlewares/Third_Party/LoRaWAN/Core/lora.c **** {
 744:../../../../../../Middlewares/Third_Party/LoRaWAN/Core/lora.c ****   LoraErrorStatus Errorstatus = LORA_SUCCESS;
 745:../../../../../../Middlewares/Third_Party/LoRaWAN/Core/lora.c ****   MibRequestConfirm_t mibReq;
 746:../../../../../../Middlewares/Third_Party/LoRaWAN/Core/lora.c ****   DeviceClass_t currentClass;
 747:../../../../../../Middlewares/Third_Party/LoRaWAN/Core/lora.c ****   
 748:../../../../../../Middlewares/Third_Party/LoRaWAN/Core/lora.c ****   mibReq.Type = MIB_DEVICE_CLASS;
 749:../../../../../../Middlewares/Third_Party/LoRaWAN/Core/lora.c ****   LoRaMacMibGetRequestConfirm( &mibReq );
 750:../../../../../../Middlewares/Third_Party/LoRaWAN/Core/lora.c ****   
 751:../../../../../../Middlewares/Third_Party/LoRaWAN/Core/lora.c ****   currentClass = mibReq.Param.Class;
 752:../../../../../../Middlewares/Third_Party/LoRaWAN/Core/lora.c ****   /*attempt to swicth only if class update*/
 753:../../../../../../Middlewares/Third_Party/LoRaWAN/Core/lora.c ****   if (currentClass != newClass)
 754:../../../../../../Middlewares/Third_Party/LoRaWAN/Core/lora.c ****   {
 755:../../../../../../Middlewares/Third_Party/LoRaWAN/Core/lora.c ****     switch (newClass)
 756:../../../../../../Middlewares/Third_Party/LoRaWAN/Core/lora.c ****     {
 757:../../../../../../Middlewares/Third_Party/LoRaWAN/Core/lora.c ****       case CLASS_A:
 758:../../../../../../Middlewares/Third_Party/LoRaWAN/Core/lora.c ****       {
ARM GAS  C:\Users\EBANO_~1\AppData\Local\Temp\ccD2gIpL.s 			page 18


 759:../../../../../../Middlewares/Third_Party/LoRaWAN/Core/lora.c ****         mibReq.Param.Class = CLASS_A;
 760:../../../../../../Middlewares/Third_Party/LoRaWAN/Core/lora.c ****         if( LoRaMacMibSetRequestConfirm( &mibReq ) == LORAMAC_STATUS_OK )
 761:../../../../../../Middlewares/Third_Party/LoRaWAN/Core/lora.c ****         {
 762:../../../../../../Middlewares/Third_Party/LoRaWAN/Core/lora.c ****         /*switch is instantanuous*/
 763:../../../../../../Middlewares/Third_Party/LoRaWAN/Core/lora.c ****           LoRaMainCallbacks->LORA_ConfirmClass(CLASS_A);
 764:../../../../../../Middlewares/Third_Party/LoRaWAN/Core/lora.c ****         }
 765:../../../../../../Middlewares/Third_Party/LoRaWAN/Core/lora.c ****         else
 766:../../../../../../Middlewares/Third_Party/LoRaWAN/Core/lora.c ****         {
 767:../../../../../../Middlewares/Third_Party/LoRaWAN/Core/lora.c ****           Errorstatus = LORA_ERROR;
 768:../../../../../../Middlewares/Third_Party/LoRaWAN/Core/lora.c ****         }
 769:../../../../../../Middlewares/Third_Party/LoRaWAN/Core/lora.c ****         break;
 770:../../../../../../Middlewares/Third_Party/LoRaWAN/Core/lora.c ****       }
 771:../../../../../../Middlewares/Third_Party/LoRaWAN/Core/lora.c ****       case CLASS_B:
 772:../../../../../../Middlewares/Third_Party/LoRaWAN/Core/lora.c ****       {
 773:../../../../../../Middlewares/Third_Party/LoRaWAN/Core/lora.c **** #ifdef LORAMAC_CLASSB_ENABLED
 774:../../../../../../Middlewares/Third_Party/LoRaWAN/Core/lora.c ****         if (currentClass != CLASS_A)
 775:../../../../../../Middlewares/Third_Party/LoRaWAN/Core/lora.c ****         {
 776:../../../../../../Middlewares/Third_Party/LoRaWAN/Core/lora.c ****           Errorstatus = LORA_ERROR;
 777:../../../../../../Middlewares/Third_Party/LoRaWAN/Core/lora.c ****         }
 778:../../../../../../Middlewares/Third_Party/LoRaWAN/Core/lora.c ****         /*switch is not instantanuous*/
 779:../../../../../../Middlewares/Third_Party/LoRaWAN/Core/lora.c ****         Errorstatus = LORA_BeaconReq( );
 780:../../../../../../Middlewares/Third_Party/LoRaWAN/Core/lora.c **** #else
 781:../../../../../../Middlewares/Third_Party/LoRaWAN/Core/lora.c ****         PRINTF( "warning: LORAMAC_CLASSB_ENABLED has not been defined at compilation\n\r");
 782:../../../../../../Middlewares/Third_Party/LoRaWAN/Core/lora.c **** #endif /* LORAMAC_CLASSB_ENABLED */
 783:../../../../../../Middlewares/Third_Party/LoRaWAN/Core/lora.c ****         break;
 784:../../../../../../Middlewares/Third_Party/LoRaWAN/Core/lora.c ****       }
 785:../../../../../../Middlewares/Third_Party/LoRaWAN/Core/lora.c ****       case CLASS_C:
 786:../../../../../../Middlewares/Third_Party/LoRaWAN/Core/lora.c ****       {
 787:../../../../../../Middlewares/Third_Party/LoRaWAN/Core/lora.c ****         if (currentClass != CLASS_A)
 788:../../../../../../Middlewares/Third_Party/LoRaWAN/Core/lora.c ****         {
 789:../../../../../../Middlewares/Third_Party/LoRaWAN/Core/lora.c ****           Errorstatus = LORA_ERROR;
 790:../../../../../../Middlewares/Third_Party/LoRaWAN/Core/lora.c ****         }
 791:../../../../../../Middlewares/Third_Party/LoRaWAN/Core/lora.c ****         /*switch is instantanuous*/
 792:../../../../../../Middlewares/Third_Party/LoRaWAN/Core/lora.c ****         mibReq.Param.Class = CLASS_C;
 793:../../../../../../Middlewares/Third_Party/LoRaWAN/Core/lora.c ****         if( LoRaMacMibSetRequestConfirm( &mibReq ) == LORAMAC_STATUS_OK )
 794:../../../../../../Middlewares/Third_Party/LoRaWAN/Core/lora.c ****         {
 795:../../../../../../Middlewares/Third_Party/LoRaWAN/Core/lora.c ****           LoRaMainCallbacks->LORA_ConfirmClass(CLASS_C);
 796:../../../../../../Middlewares/Third_Party/LoRaWAN/Core/lora.c ****         }
 797:../../../../../../Middlewares/Third_Party/LoRaWAN/Core/lora.c ****         else
 798:../../../../../../Middlewares/Third_Party/LoRaWAN/Core/lora.c ****         {
 799:../../../../../../Middlewares/Third_Party/LoRaWAN/Core/lora.c ****             Errorstatus = LORA_ERROR;
 800:../../../../../../Middlewares/Third_Party/LoRaWAN/Core/lora.c ****         }
 801:../../../../../../Middlewares/Third_Party/LoRaWAN/Core/lora.c ****         break;
 802:../../../../../../Middlewares/Third_Party/LoRaWAN/Core/lora.c ****       }
 803:../../../../../../Middlewares/Third_Party/LoRaWAN/Core/lora.c ****       default:
 804:../../../../../../Middlewares/Third_Party/LoRaWAN/Core/lora.c ****         break;
 805:../../../../../../Middlewares/Third_Party/LoRaWAN/Core/lora.c ****     } 
 806:../../../../../../Middlewares/Third_Party/LoRaWAN/Core/lora.c ****   }
 807:../../../../../../Middlewares/Third_Party/LoRaWAN/Core/lora.c ****   return Errorstatus;
 808:../../../../../../Middlewares/Third_Party/LoRaWAN/Core/lora.c **** }
 809:../../../../../../Middlewares/Third_Party/LoRaWAN/Core/lora.c **** 
 810:../../../../../../Middlewares/Third_Party/LoRaWAN/Core/lora.c **** void LORA_GetCurrentClass( DeviceClass_t *currentClass )
 811:../../../../../../Middlewares/Third_Party/LoRaWAN/Core/lora.c **** {
 812:../../../../../../Middlewares/Third_Party/LoRaWAN/Core/lora.c ****   MibRequestConfirm_t mibReq;
 813:../../../../../../Middlewares/Third_Party/LoRaWAN/Core/lora.c ****   
 814:../../../../../../Middlewares/Third_Party/LoRaWAN/Core/lora.c ****   mibReq.Type = MIB_DEVICE_CLASS;
 815:../../../../../../Middlewares/Third_Party/LoRaWAN/Core/lora.c ****   LoRaMacMibGetRequestConfirm( &mibReq );
ARM GAS  C:\Users\EBANO_~1\AppData\Local\Temp\ccD2gIpL.s 			page 19


 816:../../../../../../Middlewares/Third_Party/LoRaWAN/Core/lora.c ****   
 817:../../../../../../Middlewares/Third_Party/LoRaWAN/Core/lora.c ****   *currentClass = mibReq.Param.Class;
 818:../../../../../../Middlewares/Third_Party/LoRaWAN/Core/lora.c **** }
 819:../../../../../../Middlewares/Third_Party/LoRaWAN/Core/lora.c **** 
 820:../../../../../../Middlewares/Third_Party/LoRaWAN/Core/lora.c **** 
 821:../../../../../../Middlewares/Third_Party/LoRaWAN/Core/lora.c **** static void TraceUpLinkFrame(McpsConfirm_t *mcpsConfirm)
 822:../../../../../../Middlewares/Third_Party/LoRaWAN/Core/lora.c **** {
 823:../../../../../../Middlewares/Third_Party/LoRaWAN/Core/lora.c **** 
 824:../../../../../../Middlewares/Third_Party/LoRaWAN/Core/lora.c ****     MibRequestConfirm_t mibGet;
 825:../../../../../../Middlewares/Third_Party/LoRaWAN/Core/lora.c ****     MibRequestConfirm_t mibReq;
 826:../../../../../../Middlewares/Third_Party/LoRaWAN/Core/lora.c **** 
 827:../../../../../../Middlewares/Third_Party/LoRaWAN/Core/lora.c ****     mibReq.Type = MIB_DEVICE_CLASS;
 190              		.loc 1 827 0
 191 0000 0023     		movs	r3, #0
 192              	.LBE15:
 193              	.LBE14:
 160:../../../../../../Middlewares/Third_Party/LoRaWAN/Core/lora.c ****     TVL2( PRINTNOW(); PRINTF("APP> McpsConfirm STATUS: %s\r\n", EventInfoStatusStrings[mcpsConfirm-
 194              		.loc 1 160 0
 195 0002 00B5     		push	{lr}
 196              	.LCFI3:
 197              		.cfi_def_cfa_offset 4
 198              		.cfi_offset 14, -4
 199 0004 8DB0     		sub	sp, sp, #52
 200              	.LCFI4:
 201              		.cfi_def_cfa_offset 56
 202              	.LBB17:
 203              	.LBB16:
 204              		.loc 1 827 0
 205 0006 06A8     		add	r0, sp, #24
 206              	.LVL12:
 207 0008 0370     		strb	r3, [r0]
 828:../../../../../../Middlewares/Third_Party/LoRaWAN/Core/lora.c ****     LoRaMacMibGetRequestConfirm( &mibReq );
 208              		.loc 1 828 0
 209 000a FFF7FEFF 		bl	LoRaMacMibGetRequestConfirm
 210              	.LVL13:
 829:../../../../../../Middlewares/Third_Party/LoRaWAN/Core/lora.c ****   
 830:../../../../../../Middlewares/Third_Party/LoRaWAN/Core/lora.c ****     TVL2( PRINTF("\r\n" );)
 831:../../../../../../Middlewares/Third_Party/LoRaWAN/Core/lora.c ****     TVL2( PRINTNOW(); PRINTF("#= U/L FRAME %lu =# Class %c, Port %d, data size %d, pwr %d, ", \
 832:../../../../../../Middlewares/Third_Party/LoRaWAN/Core/lora.c ****                              mcpsConfirm->UpLinkCounter, \
 833:../../../../../../Middlewares/Third_Party/LoRaWAN/Core/lora.c ****                              "ABC"[mibReq.Param.Class], \
 834:../../../../../../Middlewares/Third_Party/LoRaWAN/Core/lora.c ****                              AppData.Port, \
 835:../../../../../../Middlewares/Third_Party/LoRaWAN/Core/lora.c ****                              AppData.BuffSize, \
 836:../../../../../../Middlewares/Third_Party/LoRaWAN/Core/lora.c ****                              mcpsConfirm->TxPower );)
 837:../../../../../../Middlewares/Third_Party/LoRaWAN/Core/lora.c **** 
 838:../../../../../../Middlewares/Third_Party/LoRaWAN/Core/lora.c ****     mibGet.Type  = MIB_CHANNELS_MASK;
 211              		.loc 1 838 0
 212 000e 1F23     		movs	r3, #31
 213 0010 6A46     		mov	r2, sp
 839:../../../../../../Middlewares/Third_Party/LoRaWAN/Core/lora.c ****     if( LoRaMacMibGetRequestConfirm( &mibGet ) == LORAMAC_STATUS_OK )
 214              		.loc 1 839 0
 215 0012 6846     		mov	r0, sp
 838:../../../../../../Middlewares/Third_Party/LoRaWAN/Core/lora.c ****     if( LoRaMacMibGetRequestConfirm( &mibGet ) == LORAMAC_STATUS_OK )
 216              		.loc 1 838 0
 217 0014 1370     		strb	r3, [r2]
 218              		.loc 1 839 0
 219 0016 FFF7FEFF 		bl	LoRaMacMibGetRequestConfirm
 220              	.LVL14:
ARM GAS  C:\Users\EBANO_~1\AppData\Local\Temp\ccD2gIpL.s 			page 20


 221              	.LBE16:
 222              	.LBE17:
 192:../../../../../../Middlewares/Third_Party/LoRaWAN/Core/lora.c **** 
 223              		.loc 1 192 0
 224 001a 0DB0     		add	sp, sp, #52
 225              		@ sp needed
 226 001c 00BD     		pop	{pc}
 227              		.cfi_endproc
 228              	.LFE39:
 229              		.size	McpsConfirm, .-McpsConfirm
 230 001e C046     		.section	.text.MlmeConfirm,"ax",%progbits
 231              		.align	1
 232              		.p2align 2,,3
 233              		.syntax unified
 234              		.code	16
 235              		.thumb_func
 236              		.fpu softvfp
 237              		.type	MlmeConfirm, %function
 238              	MlmeConfirm:
 239              	.LFB41:
 281:../../../../../../Middlewares/Third_Party/LoRaWAN/Core/lora.c **** #ifdef LORAMAC_CLASSB_ENABLED
 240              		.loc 1 281 0
 241              		.cfi_startproc
 242              		@ args = 0, pretend = 0, frame = 16
 243              		@ frame_needed = 0, uses_anonymous_args = 0
 244              	.LVL15:
 245 0000 10B5     		push	{r4, lr}
 246              	.LCFI5:
 247              		.cfi_def_cfa_offset 8
 248              		.cfi_offset 4, -8
 249              		.cfi_offset 14, -4
 288:../../../../../../Middlewares/Third_Party/LoRaWAN/Core/lora.c ****     {
 250              		.loc 1 288 0
 251 0002 0378     		ldrb	r3, [r0]
 281:../../../../../../Middlewares/Third_Party/LoRaWAN/Core/lora.c **** #ifdef LORAMAC_CLASSB_ENABLED
 252              		.loc 1 281 0
 253 0004 84B0     		sub	sp, sp, #16
 254              	.LCFI6:
 255              		.cfi_def_cfa_offset 24
 281:../../../../../../Middlewares/Third_Party/LoRaWAN/Core/lora.c **** #ifdef LORAMAC_CLASSB_ENABLED
 256              		.loc 1 281 0
 257 0006 0400     		movs	r4, r0
 288:../../../../../../Middlewares/Third_Party/LoRaWAN/Core/lora.c ****     {
 258              		.loc 1 288 0
 259 0008 002B     		cmp	r3, #0
 260 000a 06D0     		beq	.L29
 261 000c 032B     		cmp	r3, #3
 262 000e 02D1     		bne	.L27
 313:../../../../../../Middlewares/Third_Party/LoRaWAN/Core/lora.c ****             {
 263              		.loc 1 313 0
 264 0010 4378     		ldrb	r3, [r0, #1]
 265 0012 002B     		cmp	r3, #0
 266 0014 09D0     		beq	.L37
 267              	.LVL16:
 268              	.L27:
 381:../../../../../../Middlewares/Third_Party/LoRaWAN/Core/lora.c **** 
 269              		.loc 1 381 0
ARM GAS  C:\Users\EBANO_~1\AppData\Local\Temp\ccD2gIpL.s 			page 21


 270 0016 04B0     		add	sp, sp, #16
 271              		@ sp needed
 272 0018 10BD     		pop	{r4, pc}
 273              	.LVL17:
 274              	.L29:
 292:../../../../../../Middlewares/Third_Party/LoRaWAN/Core/lora.c ****             {
 275              		.loc 1 292 0
 276 001a 4278     		ldrb	r2, [r0, #1]
 277 001c 002A     		cmp	r2, #0
 278 001e 0CD1     		bne	.L31
 295:../../../../../../Middlewares/Third_Party/LoRaWAN/Core/lora.c **** #ifdef LORAMAC_CLASSB_ENABLED
 279              		.loc 1 295 0
 280 0020 0F4B     		ldr	r3, .L38
 281 0022 1B68     		ldr	r3, [r3]
 282 0024 5B69     		ldr	r3, [r3, #20]
 283 0026 9847     		blx	r3
 284              	.LVL18:
 285 0028 F5E7     		b	.L27
 286              	.LVL19:
 287              	.L37:
 288              	.LBB22:
 289              	.LBB23:
 317:../../../../../../Middlewares/Third_Party/LoRaWAN/Core/lora.c ****                 {
 290              		.loc 1 317 0
 291 002a FFF7FEFF 		bl	certif_running
 292              	.LVL20:
 293 002e 0028     		cmp	r0, #0
 294 0030 F1D0     		beq	.L27
 319:../../../../../../Middlewares/Third_Party/LoRaWAN/Core/lora.c ****                 }
 295              		.loc 1 319 0
 296 0032 2000     		movs	r0, r4
 297 0034 FFF7FEFF 		bl	certif_linkCheck
 298              	.LVL21:
 299              	.LBE23:
 300              	.LBE22:
 381:../../../../../../Middlewares/Third_Party/LoRaWAN/Core/lora.c **** 
 301              		.loc 1 381 0
 302 0038 EDE7     		b	.L27
 303              	.LVL22:
 304              	.L31:
 305              	.LBB24:
 306              	.LBB25:
 548:../../../../../../Middlewares/Third_Party/LoRaWAN/Core/lora.c ****     mlmeReq.Req.Join.DevEui = DevEui;
 307              		.loc 1 548 0
 308 003a 6A46     		mov	r2, sp
 551:../../../../../../Middlewares/Third_Party/LoRaWAN/Core/lora.c ****   
 309              		.loc 1 551 0
 310 003c 6946     		mov	r1, sp
 548:../../../../../../Middlewares/Third_Party/LoRaWAN/Core/lora.c ****     mlmeReq.Req.Join.DevEui = DevEui;
 311              		.loc 1 548 0
 312 003e 1370     		strb	r3, [r2]
 549:../../../../../../Middlewares/Third_Party/LoRaWAN/Core/lora.c ****     mlmeReq.Req.Join.JoinEui = JoinEui;
 313              		.loc 1 549 0
 314 0040 084B     		ldr	r3, .L38+4
 315 0042 0193     		str	r3, [sp, #4]
 550:../../../../../../Middlewares/Third_Party/LoRaWAN/Core/lora.c ****     mlmeReq.Req.Join.Datarate = LoRaParamInit->TxDatarate;
 316              		.loc 1 550 0
ARM GAS  C:\Users\EBANO_~1\AppData\Local\Temp\ccD2gIpL.s 			page 22


 317 0044 0833     		adds	r3, r3, #8
 318 0046 0293     		str	r3, [sp, #8]
 551:../../../../../../Middlewares/Third_Party/LoRaWAN/Core/lora.c ****   
 319              		.loc 1 551 0
 320 0048 054B     		ldr	r3, .L38
 321 004a 1A69     		ldr	r2, [r3, #16]
 553:../../../../../../Middlewares/Third_Party/LoRaWAN/Core/lora.c **** 
 322              		.loc 1 553 0
 323 004c 0433     		adds	r3, r3, #4
 551:../../../../../../Middlewares/Third_Party/LoRaWAN/Core/lora.c ****   
 324              		.loc 1 551 0
 325 004e 5278     		ldrb	r2, [r2, #1]
 326 0050 0A73     		strb	r2, [r1, #12]
 553:../../../../../../Middlewares/Third_Party/LoRaWAN/Core/lora.c **** 
 327              		.loc 1 553 0
 328 0052 01AA     		add	r2, sp, #4
 329 0054 13CA     		ldmia	r2!, {r0, r1, r4}
 330 0056 13C3     		stmia	r3!, {r0, r1, r4}
 331              	.LVL23:
 556:../../../../../../Middlewares/Third_Party/LoRaWAN/Core/lora.c **** #else
 332              		.loc 1 556 0
 333 0058 6846     		mov	r0, sp
 334 005a FFF7FEFF 		bl	LoRaMacMlmeRequest
 335              	.LVL24:
 336 005e DAE7     		b	.L27
 337              	.L39:
 338              		.align	2
 339              	.L38:
 340 0060 00000000 		.word	.LANCHOR0
 341 0064 00000000 		.word	.LANCHOR1
 342              	.LBE25:
 343              	.LBE24:
 344              		.cfi_endproc
 345              	.LFE41:
 346              		.size	MlmeConfirm, .-MlmeConfirm
 347              		.section	.text.LORA_Init,"ax",%progbits
 348              		.align	1
 349              		.p2align 2,,3
 350              		.global	LORA_Init
 351              		.syntax unified
 352              		.code	16
 353              		.thumb_func
 354              		.fpu softvfp
 355              		.type	LORA_Init, %function
 356              	LORA_Init:
 357              	.LFB43:
 439:../../../../../../Middlewares/Third_Party/LoRaWAN/Core/lora.c ****   /* init the Tx Duty Cycle*/
 358              		.loc 1 439 0
 359              		.cfi_startproc
 360              		@ args = 0, pretend = 0, frame = 0
 361              		@ frame_needed = 0, uses_anonymous_args = 0
 362              	.LVL25:
 363 0000 F0B5     		push	{r4, r5, r6, r7, lr}
 364              	.LCFI7:
 365              		.cfi_def_cfa_offset 20
 366              		.cfi_offset 4, -20
 367              		.cfi_offset 5, -16
ARM GAS  C:\Users\EBANO_~1\AppData\Local\Temp\ccD2gIpL.s 			page 23


 368              		.cfi_offset 6, -12
 369              		.cfi_offset 7, -8
 370              		.cfi_offset 14, -4
 371 0002 C646     		mov	lr, r8
 372 0004 00B5     		push	{lr}
 373              	.LCFI8:
 374              		.cfi_def_cfa_offset 24
 375              		.cfi_offset 8, -24
 441:../../../../../../Middlewares/Third_Party/LoRaWAN/Core/lora.c ****   
 376              		.loc 1 441 0
 377 0006 554D     		ldr	r5, .L49
 447:../../../../../../Middlewares/Third_Party/LoRaWAN/Core/lora.c **** #endif
 378              		.loc 1 447 0
 379 0008 554C     		ldr	r4, .L49+4
 444:../../../../../../Middlewares/Third_Party/LoRaWAN/Core/lora.c ****   
 380              		.loc 1 444 0
 381 000a 2860     		str	r0, [r5]
 447:../../../../../../Middlewares/Third_Party/LoRaWAN/Core/lora.c **** #endif
 382              		.loc 1 447 0
 383 000c 8368     		ldr	r3, [r0, #8]
 439:../../../../../../Middlewares/Third_Party/LoRaWAN/Core/lora.c ****   /* init the Tx Duty Cycle*/
 384              		.loc 1 439 0
 385 000e 8EB0     		sub	sp, sp, #56
 386              	.LCFI9:
 387              		.cfi_def_cfa_offset 80
 447:../../../../../../Middlewares/Third_Party/LoRaWAN/Core/lora.c **** #endif
 388              		.loc 1 447 0
 389 0010 2000     		movs	r0, r4
 390              	.LVL26:
 441:../../../../../../Middlewares/Third_Party/LoRaWAN/Core/lora.c ****   
 391              		.loc 1 441 0
 392 0012 2961     		str	r1, [r5, #16]
 447:../../../../../../Middlewares/Third_Party/LoRaWAN/Core/lora.c **** #endif
 393              		.loc 1 447 0
 394 0014 9847     		blx	r3
 395              	.LVL27:
 396 0016 534E     		ldr	r6, .L49+8
 397              	.L41:
 452:../../../../../../Middlewares/Third_Party/LoRaWAN/Core/lora.c ****   PPRINTF( "DevEui= %02X-%02X-%02X-%02X-%02X-%02X-%02X-%02X\n\r", HEX8(DevEui));
 398              		.loc 1 452 0 discriminator 1
 399 0018 3000     		movs	r0, r6
 400 001a FFF7FEFF 		bl	TraceSend
 401              	.LVL28:
 402 001e 0028     		cmp	r0, #0
 403 0020 FAD1     		bne	.L41
 404 0022 514E     		ldr	r6, .L49+12
 405              	.L42:
 453:../../../../../../Middlewares/Third_Party/LoRaWAN/Core/lora.c ****   PPRINTF( "AppEui= %02X-%02X-%02X-%02X-%02X-%02X-%02X-%02X\n\r", HEX8(JoinEui));
 406              		.loc 1 453 0 discriminator 1
 407 0024 E079     		ldrb	r0, [r4, #7]
 408 0026 A378     		ldrb	r3, [r4, #2]
 409 0028 6278     		ldrb	r2, [r4, #1]
 410 002a 2178     		ldrb	r1, [r4]
 411 002c 0490     		str	r0, [sp, #16]
 412 002e A079     		ldrb	r0, [r4, #6]
 413 0030 0390     		str	r0, [sp, #12]
 414 0032 6079     		ldrb	r0, [r4, #5]
ARM GAS  C:\Users\EBANO_~1\AppData\Local\Temp\ccD2gIpL.s 			page 24


 415 0034 0290     		str	r0, [sp, #8]
 416 0036 2079     		ldrb	r0, [r4, #4]
 417 0038 0190     		str	r0, [sp, #4]
 418 003a E078     		ldrb	r0, [r4, #3]
 419 003c 0090     		str	r0, [sp]
 420 003e 3000     		movs	r0, r6
 421 0040 FFF7FEFF 		bl	TraceSend
 422              	.LVL29:
 423 0044 0028     		cmp	r0, #0
 424 0046 EDD1     		bne	.L42
 425 0048 484E     		ldr	r6, .L49+16
 426              	.L43:
 454:../../../../../../Middlewares/Third_Party/LoRaWAN/Core/lora.c ****   PPRINTF( "AppKey= %02X %02X %02X %02X %02X %02X %02X %02X %02X %02X %02X %02X %02X %02X %02X %02X
 427              		.loc 1 454 0 discriminator 1
 428 004a E07B     		ldrb	r0, [r4, #15]
 429 004c A37A     		ldrb	r3, [r4, #10]
 430 004e 627A     		ldrb	r2, [r4, #9]
 431 0050 217A     		ldrb	r1, [r4, #8]
 432 0052 0490     		str	r0, [sp, #16]
 433 0054 A07B     		ldrb	r0, [r4, #14]
 434 0056 0390     		str	r0, [sp, #12]
 435 0058 607B     		ldrb	r0, [r4, #13]
 436 005a 0290     		str	r0, [sp, #8]
 437 005c 207B     		ldrb	r0, [r4, #12]
 438 005e 0190     		str	r0, [sp, #4]
 439 0060 E07A     		ldrb	r0, [r4, #11]
 440 0062 0090     		str	r0, [sp]
 441 0064 3000     		movs	r0, r6
 442 0066 FFF7FEFF 		bl	TraceSend
 443              	.LVL30:
 444 006a 0028     		cmp	r0, #0
 445 006c EDD1     		bne	.L43
 446 006e 404F     		ldr	r7, .L49+20
 447              	.L44:
 455:../../../../../../Middlewares/Third_Party/LoRaWAN/Core/lora.c **** #else
 448              		.loc 1 455 0 discriminator 1
 449 0070 E07F     		ldrb	r0, [r4, #31]
 450 0072 A37C     		ldrb	r3, [r4, #18]
 451 0074 627C     		ldrb	r2, [r4, #17]
 452 0076 217C     		ldrb	r1, [r4, #16]
 453 0078 0C90     		str	r0, [sp, #48]
 454 007a A07F     		ldrb	r0, [r4, #30]
 455 007c 0B90     		str	r0, [sp, #44]
 456 007e 607F     		ldrb	r0, [r4, #29]
 457 0080 0A90     		str	r0, [sp, #40]
 458 0082 207F     		ldrb	r0, [r4, #28]
 459 0084 0990     		str	r0, [sp, #36]
 460 0086 E07E     		ldrb	r0, [r4, #27]
 461 0088 0890     		str	r0, [sp, #32]
 462 008a A07E     		ldrb	r0, [r4, #26]
 463 008c 0790     		str	r0, [sp, #28]
 464 008e 607E     		ldrb	r0, [r4, #25]
 465 0090 0690     		str	r0, [sp, #24]
 466 0092 207E     		ldrb	r0, [r4, #24]
 467 0094 0590     		str	r0, [sp, #20]
 468 0096 E07D     		ldrb	r0, [r4, #23]
 469 0098 0490     		str	r0, [sp, #16]
ARM GAS  C:\Users\EBANO_~1\AppData\Local\Temp\ccD2gIpL.s 			page 25


 470 009a A07D     		ldrb	r0, [r4, #22]
 471 009c 0390     		str	r0, [sp, #12]
 472 009e 607D     		ldrb	r0, [r4, #21]
 473 00a0 0290     		str	r0, [sp, #8]
 474 00a2 207D     		ldrb	r0, [r4, #20]
 475 00a4 0190     		str	r0, [sp, #4]
 476 00a6 E07C     		ldrb	r0, [r4, #19]
 477 00a8 0090     		str	r0, [sp]
 478 00aa 3800     		movs	r0, r7
 479 00ac FFF7FEFF 		bl	TraceSend
 480              	.LVL31:
 481 00b0 061E     		subs	r6, r0, #0
 482 00b2 DDD1     		bne	.L44
 490:../../../../../../Middlewares/Third_Party/LoRaWAN/Core/lora.c **** #elif defined( REGION_KR920 )
 483              		.loc 1 490 0
 484 00b4 2900     		movs	r1, r5
 485 00b6 2431     		adds	r1, r1, #36
 486 00b8 0800     		movs	r0, r1
 470:../../../../../../Middlewares/Third_Party/LoRaWAN/Core/lora.c ****         LoRaMacPrimitives.MacMcpsIndication = McpsIndication;
 487              		.loc 1 470 0
 488 00ba 2E4B     		ldr	r3, .L49+24
 490:../../../../../../Middlewares/Third_Party/LoRaWAN/Core/lora.c **** #elif defined( REGION_KR920 )
 489              		.loc 1 490 0
 490 00bc 1038     		subs	r0, r0, #16
 470:../../../../../../Middlewares/Third_Party/LoRaWAN/Core/lora.c ****         LoRaMacPrimitives.MacMcpsIndication = McpsIndication;
 491              		.loc 1 470 0
 492 00be 6B61     		str	r3, [r5, #20]
 471:../../../../../../Middlewares/Third_Party/LoRaWAN/Core/lora.c ****         LoRaMacPrimitives.MacMlmeConfirm = MlmeConfirm;
 493              		.loc 1 471 0
 494 00c0 2D4B     		ldr	r3, .L49+28
 512:../../../../../../Middlewares/Third_Party/LoRaWAN/Core/lora.c ****       LoRaMacMibSetRequestConfirm( &mibReq );
 495              		.loc 1 512 0
 496 00c2 2F00     		movs	r7, r5
 471:../../../../../../Middlewares/Third_Party/LoRaWAN/Core/lora.c ****         LoRaMacPrimitives.MacMlmeConfirm = MlmeConfirm;
 497              		.loc 1 471 0
 498 00c4 AB61     		str	r3, [r5, #24]
 472:../../../../../../Middlewares/Third_Party/LoRaWAN/Core/lora.c ****         LoRaMacPrimitives.MacMlmeIndication = MlmeIndication;
 499              		.loc 1 472 0
 500 00c6 2D4B     		ldr	r3, .L49+32
 512:../../../../../../Middlewares/Third_Party/LoRaWAN/Core/lora.c ****       LoRaMacMibSetRequestConfirm( &mibReq );
 501              		.loc 1 512 0
 502 00c8 3437     		adds	r7, r7, #52
 472:../../../../../../Middlewares/Third_Party/LoRaWAN/Core/lora.c ****         LoRaMacPrimitives.MacMlmeIndication = MlmeIndication;
 503              		.loc 1 472 0
 504 00ca EB61     		str	r3, [r5, #28]
 473:../../../../../../Middlewares/Third_Party/LoRaWAN/Core/lora.c ****         LoRaMacCallbacks.GetBatteryLevel = LoRaMainCallbacks->BoardGetBatteryLevel;
 505              		.loc 1 473 0
 506 00cc 2C4B     		ldr	r3, .L49+36
 507 00ce 2B62     		str	r3, [r5, #32]
 474:../../../../../../Middlewares/Third_Party/LoRaWAN/Core/lora.c ****         LoRaMacCallbacks.GetTemperatureLevel = LoRaMainCallbacks->BoardGetTemperatureLevel;
 508              		.loc 1 474 0
 509 00d0 2B68     		ldr	r3, [r5]
 510 00d2 1A68     		ldr	r2, [r3]
 511 00d4 6A62     		str	r2, [r5, #36]
 475:../../../../../../Middlewares/Third_Party/LoRaWAN/Core/lora.c ****         LoRaMacCallbacks.MacProcessNotify = LoRaMainCallbacks->MacProcessNotify;
 512              		.loc 1 475 0
 513 00d6 5A68     		ldr	r2, [r3, #4]
ARM GAS  C:\Users\EBANO_~1\AppData\Local\Temp\ccD2gIpL.s 			page 26


 476:../../../../../../Middlewares/Third_Party/LoRaWAN/Core/lora.c **** #if defined( REGION_AS923 )
 514              		.loc 1 476 0
 515 00d8 1B6A     		ldr	r3, [r3, #32]
 475:../../../../../../Middlewares/Third_Party/LoRaWAN/Core/lora.c ****         LoRaMacCallbacks.MacProcessNotify = LoRaMainCallbacks->MacProcessNotify;
 516              		.loc 1 475 0
 517 00da AA62     		str	r2, [r5, #40]
 490:../../../../../../Middlewares/Third_Party/LoRaWAN/Core/lora.c **** #elif defined( REGION_KR920 )
 518              		.loc 1 490 0
 519 00dc 0522     		movs	r2, #5
 476:../../../../../../Middlewares/Third_Party/LoRaWAN/Core/lora.c **** #if defined( REGION_AS923 )
 520              		.loc 1 476 0
 521 00de 2B63     		str	r3, [r5, #48]
 490:../../../../../../Middlewares/Third_Party/LoRaWAN/Core/lora.c **** #elif defined( REGION_KR920 )
 522              		.loc 1 490 0
 523 00e0 FFF7FEFF 		bl	LoRaMacInitialization
 524              	.LVL32:
 511:../../../../../../Middlewares/Third_Party/LoRaWAN/Core/lora.c ****       mibReq.Param.AdrEnable = LoRaParamInit->AdrEnable;
 525              		.loc 1 511 0
 526 00e4 3423     		movs	r3, #52
 527 00e6 9846     		mov	r8, r3
 528 00e8 4246     		mov	r2, r8
 529 00ea 323B     		subs	r3, r3, #50
 530 00ec AB54     		strb	r3, [r5, r2]
 512:../../../../../../Middlewares/Third_Party/LoRaWAN/Core/lora.c ****       LoRaMacMibSetRequestConfirm( &mibReq );
 531              		.loc 1 512 0
 532 00ee 2B69     		ldr	r3, [r5, #16]
 513:../../../../../../Middlewares/Third_Party/LoRaWAN/Core/lora.c **** 
 533              		.loc 1 513 0
 534 00f0 3800     		movs	r0, r7
 512:../../../../../../Middlewares/Third_Party/LoRaWAN/Core/lora.c ****       LoRaMacMibSetRequestConfirm( &mibReq );
 535              		.loc 1 512 0
 536 00f2 1B78     		ldrb	r3, [r3]
 537 00f4 3B71     		strb	r3, [r7, #4]
 513:../../../../../../Middlewares/Third_Party/LoRaWAN/Core/lora.c **** 
 538              		.loc 1 513 0
 539 00f6 FFF7FEFF 		bl	LoRaMacMibSetRequestConfirm
 540              	.LVL33:
 515:../../../../../../Middlewares/Third_Party/LoRaWAN/Core/lora.c ****       mibReq.Param.EnablePublicNetwork = LoRaParamInit->EnablePublicNetwork;
 541              		.loc 1 515 0
 542 00fa 4246     		mov	r2, r8
 543 00fc 1A23     		movs	r3, #26
 544 00fe AB54     		strb	r3, [r5, r2]
 516:../../../../../../Middlewares/Third_Party/LoRaWAN/Core/lora.c ****       LoRaMacMibSetRequestConfirm( &mibReq );
 545              		.loc 1 516 0
 546 0100 2B69     		ldr	r3, [r5, #16]
 517:../../../../../../Middlewares/Third_Party/LoRaWAN/Core/lora.c ****       
 547              		.loc 1 517 0
 548 0102 3800     		movs	r0, r7
 516:../../../../../../Middlewares/Third_Party/LoRaWAN/Core/lora.c ****       LoRaMacMibSetRequestConfirm( &mibReq );
 549              		.loc 1 516 0
 550 0104 9B78     		ldrb	r3, [r3, #2]
 551 0106 3B71     		strb	r3, [r7, #4]
 517:../../../../../../Middlewares/Third_Party/LoRaWAN/Core/lora.c ****       
 552              		.loc 1 517 0
 553 0108 FFF7FEFF 		bl	LoRaMacMibSetRequestConfirm
 554              	.LVL34:
 519:../../../../../../Middlewares/Third_Party/LoRaWAN/Core/lora.c ****       mibReq.Param.AppKey = AppKey;
ARM GAS  C:\Users\EBANO_~1\AppData\Local\Temp\ccD2gIpL.s 			page 27


 555              		.loc 1 519 0
 556 010c 4246     		mov	r2, r8
 557 010e 0523     		movs	r3, #5
 558 0110 AB54     		strb	r3, [r5, r2]
 520:../../../../../../Middlewares/Third_Party/LoRaWAN/Core/lora.c ****       LoRaMacMibSetRequestConfirm( &mibReq );
 559              		.loc 1 520 0
 560 0112 2300     		movs	r3, r4
 521:../../../../../../Middlewares/Third_Party/LoRaWAN/Core/lora.c **** 
 561              		.loc 1 521 0
 562 0114 3800     		movs	r0, r7
 520:../../../../../../Middlewares/Third_Party/LoRaWAN/Core/lora.c ****       LoRaMacMibSetRequestConfirm( &mibReq );
 563              		.loc 1 520 0
 564 0116 1033     		adds	r3, r3, #16
 565 0118 AB63     		str	r3, [r5, #56]
 521:../../../../../../Middlewares/Third_Party/LoRaWAN/Core/lora.c **** 
 566              		.loc 1 521 0
 567 011a FFF7FEFF 		bl	LoRaMacMibSetRequestConfirm
 568              	.LVL35:
 523:../../../../../../Middlewares/Third_Party/LoRaWAN/Core/lora.c ****       mibReq.Param.NwkKey = NwkKey;
 569              		.loc 1 523 0
 570 011e 4246     		mov	r2, r8
 571 0120 0623     		movs	r3, #6
 524:../../../../../../Middlewares/Third_Party/LoRaWAN/Core/lora.c ****       LoRaMacMibSetRequestConfirm( &mibReq );      
 572              		.loc 1 524 0
 573 0122 2034     		adds	r4, r4, #32
 525:../../../../../../Middlewares/Third_Party/LoRaWAN/Core/lora.c ****                       
 574              		.loc 1 525 0
 575 0124 3800     		movs	r0, r7
 523:../../../../../../Middlewares/Third_Party/LoRaWAN/Core/lora.c ****       mibReq.Param.NwkKey = NwkKey;
 576              		.loc 1 523 0
 577 0126 AB54     		strb	r3, [r5, r2]
 524:../../../../../../Middlewares/Third_Party/LoRaWAN/Core/lora.c ****       LoRaMacMibSetRequestConfirm( &mibReq );      
 578              		.loc 1 524 0
 579 0128 AC63     		str	r4, [r5, #56]
 525:../../../../../../Middlewares/Third_Party/LoRaWAN/Core/lora.c ****                       
 580              		.loc 1 525 0
 581 012a FFF7FEFF 		bl	LoRaMacMibSetRequestConfirm
 582              	.LVL36:
 527:../../../../../../Middlewares/Third_Party/LoRaWAN/Core/lora.c ****       mibReq.Param.Class= CLASS_A;
 583              		.loc 1 527 0
 584 012e 4346     		mov	r3, r8
 529:../../../../../../Middlewares/Third_Party/LoRaWAN/Core/lora.c **** 
 585              		.loc 1 529 0
 586 0130 3800     		movs	r0, r7
 527:../../../../../../Middlewares/Third_Party/LoRaWAN/Core/lora.c ****       mibReq.Param.Class= CLASS_A;
 587              		.loc 1 527 0
 588 0132 EE54     		strb	r6, [r5, r3]
 528:../../../../../../Middlewares/Third_Party/LoRaWAN/Core/lora.c ****       LoRaMacMibSetRequestConfirm( &mibReq );
 589              		.loc 1 528 0
 590 0134 3E71     		strb	r6, [r7, #4]
 529:../../../../../../Middlewares/Third_Party/LoRaWAN/Core/lora.c **** 
 591              		.loc 1 529 0
 592 0136 FFF7FEFF 		bl	LoRaMacMibSetRequestConfirm
 593              	.LVL37:
 532:../../../../../../Middlewares/Third_Party/LoRaWAN/Core/lora.c **** #endif
 594              		.loc 1 532 0
 595 013a 0120     		movs	r0, #1
ARM GAS  C:\Users\EBANO_~1\AppData\Local\Temp\ccD2gIpL.s 			page 28


 596 013c FFF7FEFF 		bl	LoRaMacTestSetDutyCycleOn
 597              	.LVL38:
 535:../../../../../../Middlewares/Third_Party/LoRaWAN/Core/lora.c ****       mibReq.Param.SystemMaxRxError = 20;
 598              		.loc 1 535 0
 599 0140 4246     		mov	r2, r8
 600 0142 2B23     		movs	r3, #43
 537:../../../../../../Middlewares/Third_Party/LoRaWAN/Core/lora.c **** 
 601              		.loc 1 537 0
 602 0144 3800     		movs	r0, r7
 535:../../../../../../Middlewares/Third_Party/LoRaWAN/Core/lora.c ****       mibReq.Param.SystemMaxRxError = 20;
 603              		.loc 1 535 0
 604 0146 AB54     		strb	r3, [r5, r2]
 536:../../../../../../Middlewares/Third_Party/LoRaWAN/Core/lora.c ****       LoRaMacMibSetRequestConfirm( &mibReq );
 605              		.loc 1 536 0
 606 0148 173B     		subs	r3, r3, #23
 607 014a AB63     		str	r3, [r5, #56]
 537:../../../../../../Middlewares/Third_Party/LoRaWAN/Core/lora.c **** 
 608              		.loc 1 537 0
 609 014c FFF7FEFF 		bl	LoRaMacMibSetRequestConfirm
 610              	.LVL39:
 540:../../../../../../Middlewares/Third_Party/LoRaWAN/Core/lora.c **** }
 611              		.loc 1 540 0
 612 0150 FFF7FEFF 		bl	LoRaMacStart
 613              	.LVL40:
 541:../../../../../../Middlewares/Third_Party/LoRaWAN/Core/lora.c **** 
 614              		.loc 1 541 0
 615 0154 0EB0     		add	sp, sp, #56
 616              		@ sp needed
 617 0156 04BC     		pop	{r2}
 618 0158 9046     		mov	r8, r2
 619 015a F0BD     		pop	{r4, r5, r6, r7, pc}
 620              	.L50:
 621              		.align	2
 622              	.L49:
 623 015c 00000000 		.word	.LANCHOR0
 624 0160 00000000 		.word	.LANCHOR1
 625 0164 00000000 		.word	.LC13
 626 0168 08000000 		.word	.LC15
 627 016c 3C000000 		.word	.LC17
 628 0170 70000000 		.word	.LC19
 629 0174 00000000 		.word	McpsConfirm
 630 0178 00000000 		.word	McpsIndication
 631 017c 00000000 		.word	MlmeConfirm
 632 0180 00000000 		.word	MlmeIndication
 633              		.cfi_endproc
 634              	.LFE43:
 635              		.size	LORA_Init, .-LORA_Init
 636              		.section	.text.LORA_Join,"ax",%progbits
 637              		.align	1
 638              		.p2align 2,,3
 639              		.global	LORA_Join
 640              		.syntax unified
 641              		.code	16
 642              		.thumb_func
 643              		.fpu softvfp
 644              		.type	LORA_Join, %function
 645              	LORA_Join:
ARM GAS  C:\Users\EBANO_~1\AppData\Local\Temp\ccD2gIpL.s 			page 29


 646              	.LFB44:
 545:../../../../../../Middlewares/Third_Party/LoRaWAN/Core/lora.c ****     MlmeReq_t mlmeReq;
 647              		.loc 1 545 0
 648              		.cfi_startproc
 649              		@ args = 0, pretend = 0, frame = 16
 650              		@ frame_needed = 0, uses_anonymous_args = 0
 651 0000 10B5     		push	{r4, lr}
 652              	.LCFI10:
 653              		.cfi_def_cfa_offset 8
 654              		.cfi_offset 4, -8
 655              		.cfi_offset 14, -4
 656 0002 84B0     		sub	sp, sp, #16
 657              	.LCFI11:
 658              		.cfi_def_cfa_offset 24
 548:../../../../../../Middlewares/Third_Party/LoRaWAN/Core/lora.c ****     mlmeReq.Req.Join.DevEui = DevEui;
 659              		.loc 1 548 0
 660 0004 6A46     		mov	r2, sp
 661 0006 0023     		movs	r3, #0
 551:../../../../../../Middlewares/Third_Party/LoRaWAN/Core/lora.c ****   
 662              		.loc 1 551 0
 663 0008 6946     		mov	r1, sp
 548:../../../../../../Middlewares/Third_Party/LoRaWAN/Core/lora.c ****     mlmeReq.Req.Join.DevEui = DevEui;
 664              		.loc 1 548 0
 665 000a 1370     		strb	r3, [r2]
 549:../../../../../../Middlewares/Third_Party/LoRaWAN/Core/lora.c ****     mlmeReq.Req.Join.JoinEui = JoinEui;
 666              		.loc 1 549 0
 667 000c 084B     		ldr	r3, .L52
 668 000e 0193     		str	r3, [sp, #4]
 550:../../../../../../Middlewares/Third_Party/LoRaWAN/Core/lora.c ****     mlmeReq.Req.Join.Datarate = LoRaParamInit->TxDatarate;
 669              		.loc 1 550 0
 670 0010 0833     		adds	r3, r3, #8
 671 0012 0293     		str	r3, [sp, #8]
 551:../../../../../../Middlewares/Third_Party/LoRaWAN/Core/lora.c ****   
 672              		.loc 1 551 0
 673 0014 074B     		ldr	r3, .L52+4
 674 0016 1A69     		ldr	r2, [r3, #16]
 553:../../../../../../Middlewares/Third_Party/LoRaWAN/Core/lora.c **** 
 675              		.loc 1 553 0
 676 0018 0433     		adds	r3, r3, #4
 551:../../../../../../Middlewares/Third_Party/LoRaWAN/Core/lora.c ****   
 677              		.loc 1 551 0
 678 001a 5278     		ldrb	r2, [r2, #1]
 679 001c 0A73     		strb	r2, [r1, #12]
 553:../../../../../../Middlewares/Third_Party/LoRaWAN/Core/lora.c **** 
 680              		.loc 1 553 0
 681 001e 01AA     		add	r2, sp, #4
 682 0020 13CA     		ldmia	r2!, {r0, r1, r4}
 683 0022 13C3     		stmia	r3!, {r0, r1, r4}
 556:../../../../../../Middlewares/Third_Party/LoRaWAN/Core/lora.c **** #else
 684              		.loc 1 556 0
 685 0024 6846     		mov	r0, sp
 686 0026 FFF7FEFF 		bl	LoRaMacMlmeRequest
 687              	.LVL41:
 600:../../../../../../Middlewares/Third_Party/LoRaWAN/Core/lora.c **** 
 688              		.loc 1 600 0
 689 002a 04B0     		add	sp, sp, #16
 690              		@ sp needed
ARM GAS  C:\Users\EBANO_~1\AppData\Local\Temp\ccD2gIpL.s 			page 30


 691 002c 10BD     		pop	{r4, pc}
 692              	.L53:
 693 002e C046     		.align	2
 694              	.L52:
 695 0030 00000000 		.word	.LANCHOR1
 696 0034 00000000 		.word	.LANCHOR0
 697              		.cfi_endproc
 698              	.LFE44:
 699              		.size	LORA_Join, .-LORA_Join
 700              		.section	.text.LORA_JoinStatus,"ax",%progbits
 701              		.align	1
 702              		.p2align 2,,3
 703              		.global	LORA_JoinStatus
 704              		.syntax unified
 705              		.code	16
 706              		.thumb_func
 707              		.fpu softvfp
 708              		.type	LORA_JoinStatus, %function
 709              	LORA_JoinStatus:
 710              	.LFB45:
 603:../../../../../../Middlewares/Third_Party/LoRaWAN/Core/lora.c ****   MibRequestConfirm_t mibReq;
 711              		.loc 1 603 0
 712              		.cfi_startproc
 713              		@ args = 0, pretend = 0, frame = 24
 714              		@ frame_needed = 0, uses_anonymous_args = 0
 715 0000 00B5     		push	{lr}
 716              	.LCFI12:
 717              		.cfi_def_cfa_offset 4
 718              		.cfi_offset 14, -4
 719 0002 87B0     		sub	sp, sp, #28
 720              	.LCFI13:
 721              		.cfi_def_cfa_offset 32
 606:../../../../../../Middlewares/Third_Party/LoRaWAN/Core/lora.c ****   
 722              		.loc 1 606 0
 723 0004 0123     		movs	r3, #1
 724 0006 6A46     		mov	r2, sp
 608:../../../../../../Middlewares/Third_Party/LoRaWAN/Core/lora.c **** 
 725              		.loc 1 608 0
 726 0008 6846     		mov	r0, sp
 606:../../../../../../Middlewares/Third_Party/LoRaWAN/Core/lora.c ****   
 727              		.loc 1 606 0
 728 000a 1370     		strb	r3, [r2]
 608:../../../../../../Middlewares/Third_Party/LoRaWAN/Core/lora.c **** 
 729              		.loc 1 608 0
 730 000c FFF7FEFF 		bl	LoRaMacMibGetRequestConfirm
 731              	.LVL42:
 610:../../../../../../Middlewares/Third_Party/LoRaWAN/Core/lora.c ****   {
 732              		.loc 1 610 0
 733 0010 6B46     		mov	r3, sp
 734 0012 1879     		ldrb	r0, [r3, #4]
 735 0014 431E     		subs	r3, r0, #1
 736 0016 9841     		sbcs	r0, r0, r3
 612:../../../../../../Middlewares/Third_Party/LoRaWAN/Core/lora.c ****   }
 737              		.loc 1 612 0
 738 0018 C0B2     		uxtb	r0, r0
 618:../../../../../../Middlewares/Third_Party/LoRaWAN/Core/lora.c **** 
 739              		.loc 1 618 0
ARM GAS  C:\Users\EBANO_~1\AppData\Local\Temp\ccD2gIpL.s 			page 31


 740 001a 07B0     		add	sp, sp, #28
 741              		@ sp needed
 742 001c 00BD     		pop	{pc}
 743              		.cfi_endproc
 744              	.LFE45:
 745              		.size	LORA_JoinStatus, .-LORA_JoinStatus
 746 001e C046     		.section	.text.LORA_send,"ax",%progbits
 747              		.align	1
 748              		.p2align 2,,3
 749              		.global	LORA_send
 750              		.syntax unified
 751              		.code	16
 752              		.thumb_func
 753              		.fpu softvfp
 754              		.type	LORA_send, %function
 755              	LORA_send:
 756              	.LFB46:
 623:../../../../../../Middlewares/Third_Party/LoRaWAN/Core/lora.c ****     McpsReq_t mcpsReq;
 757              		.loc 1 623 0
 758              		.cfi_startproc
 759              		@ args = 0, pretend = 0, frame = 24
 760              		@ frame_needed = 0, uses_anonymous_args = 0
 761              	.LVL43:
 762 0000 70B5     		push	{r4, r5, r6, lr}
 763              	.LCFI14:
 764              		.cfi_def_cfa_offset 16
 765              		.cfi_offset 4, -16
 766              		.cfi_offset 5, -12
 767              		.cfi_offset 6, -8
 768              		.cfi_offset 14, -4
 769 0002 86B0     		sub	sp, sp, #24
 770              	.LCFI15:
 771              		.cfi_def_cfa_offset 40
 623:../../../../../../Middlewares/Third_Party/LoRaWAN/Core/lora.c ****     McpsReq_t mcpsReq;
 772              		.loc 1 623 0
 773 0004 0500     		movs	r5, r0
 774 0006 0E00     		movs	r6, r1
 628:../../../../../../Middlewares/Third_Party/LoRaWAN/Core/lora.c ****     {
 775              		.loc 1 628 0
 776 0008 FFF7FEFF 		bl	certif_running
 777              	.LVL44:
 778 000c 0400     		movs	r4, r0
 630:../../../../../../Middlewares/Third_Party/LoRaWAN/Core/lora.c ****     }
 779              		.loc 1 630 0
 780 000e 0020     		movs	r0, #0
 628:../../../../../../Middlewares/Third_Party/LoRaWAN/Core/lora.c ****     {
 781              		.loc 1 628 0
 782 0010 002C     		cmp	r4, #0
 783 0012 01D0     		beq	.L61
 784              	.LVL45:
 785              	.L56:
 666:../../../../../../Middlewares/Third_Party/LoRaWAN/Core/lora.c **** 
 786              		.loc 1 666 0
 787 0014 06B0     		add	sp, sp, #24
 788              		@ sp needed
 789 0016 70BD     		pop	{r4, r5, r6, pc}
 790              	.LVL46:
ARM GAS  C:\Users\EBANO_~1\AppData\Local\Temp\ccD2gIpL.s 			page 32


 791              	.L61:
 633:../../../../../../Middlewares/Third_Party/LoRaWAN/Core/lora.c ****     {
 792              		.loc 1 633 0
 793 0018 2879     		ldrb	r0, [r5, #4]
 794 001a 01A9     		add	r1, sp, #4
 795 001c FFF7FEFF 		bl	LoRaMacQueryTxPossible
 796              	.LVL47:
 797 0020 0028     		cmp	r0, #0
 798 0022 14D1     		bne	.L62
 799 0024 134B     		ldr	r3, .L63
 800 0026 6C79     		ldrb	r4, [r5, #5]
 801 0028 1B69     		ldr	r3, [r3, #16]
 802 002a 2979     		ldrb	r1, [r5, #4]
 803 002c 5B78     		ldrb	r3, [r3, #1]
 804 002e 2A68     		ldr	r2, [r5]
 805 0030 5BB2     		sxtb	r3, r3
 645:../../../../../../Middlewares/Third_Party/LoRaWAN/Core/lora.c ****             mcpsReq.Req.Unconfirmed.fPort = AppData->Port;
 806              		.loc 1 645 0
 807 0032 02A8     		add	r0, sp, #8
 643:../../../../../../Middlewares/Third_Party/LoRaWAN/Core/lora.c ****         {
 808              		.loc 1 643 0
 809 0034 002E     		cmp	r6, #0
 810 0036 13D1     		bne	.L59
 645:../../../../../../Middlewares/Third_Party/LoRaWAN/Core/lora.c ****             mcpsReq.Req.Unconfirmed.fPort = AppData->Port;
 811              		.loc 1 645 0
 812 0038 0670     		strb	r6, [r0]
 646:../../../../../../Middlewares/Third_Party/LoRaWAN/Core/lora.c ****             mcpsReq.Req.Unconfirmed.fBufferSize = AppData->BuffSize;
 813              		.loc 1 646 0
 814 003a 0471     		strb	r4, [r0, #4]
 647:../../../../../../Middlewares/Third_Party/LoRaWAN/Core/lora.c ****             mcpsReq.Req.Unconfirmed.fBuffer = AppData->Buff;
 815              		.loc 1 647 0
 816 003c 8181     		strh	r1, [r0, #12]
 648:../../../../../../Middlewares/Third_Party/LoRaWAN/Core/lora.c ****             mcpsReq.Req.Unconfirmed.Datarate = LoRaParamInit->TxDatarate;
 817              		.loc 1 648 0
 818 003e 8260     		str	r2, [r0, #8]
 649:../../../../../../Middlewares/Third_Party/LoRaWAN/Core/lora.c ****         }
 819              		.loc 1 649 0
 820 0040 8373     		strb	r3, [r0, #14]
 821              	.LVL48:
 822              	.L58:
 661:../../../../../../Middlewares/Third_Party/LoRaWAN/Core/lora.c ****     {
 823              		.loc 1 661 0
 824 0042 FFF7FEFF 		bl	LoRaMacMcpsRequest
 825              	.LVL49:
 826 0046 431E     		subs	r3, r0, #1
 827 0048 9841     		sbcs	r0, r0, r3
 828 004a C0B2     		uxtb	r0, r0
 829 004c E2E7     		b	.L56
 830              	.LVL50:
 831              	.L62:
 639:../../../../../../Middlewares/Third_Party/LoRaWAN/Core/lora.c ****     }
 832              		.loc 1 639 0
 833 004e 094B     		ldr	r3, .L63
 636:../../../../../../Middlewares/Third_Party/LoRaWAN/Core/lora.c ****         mcpsReq.Req.Unconfirmed.fBuffer = NULL;
 834              		.loc 1 636 0
 835 0050 02A8     		add	r0, sp, #8
 639:../../../../../../Middlewares/Third_Party/LoRaWAN/Core/lora.c ****     }
ARM GAS  C:\Users\EBANO_~1\AppData\Local\Temp\ccD2gIpL.s 			page 33


 836              		.loc 1 639 0
 837 0052 1B69     		ldr	r3, [r3, #16]
 636:../../../../../../Middlewares/Third_Party/LoRaWAN/Core/lora.c ****         mcpsReq.Req.Unconfirmed.fBuffer = NULL;
 838              		.loc 1 636 0
 839 0054 0470     		strb	r4, [r0]
 637:../../../../../../Middlewares/Third_Party/LoRaWAN/Core/lora.c ****         mcpsReq.Req.Unconfirmed.fBufferSize = 0;
 840              		.loc 1 637 0
 841 0056 8460     		str	r4, [r0, #8]
 638:../../../../../../Middlewares/Third_Party/LoRaWAN/Core/lora.c ****         mcpsReq.Req.Unconfirmed.Datarate = LoRaParamInit->TxDatarate;
 842              		.loc 1 638 0
 843 0058 8481     		strh	r4, [r0, #12]
 639:../../../../../../Middlewares/Third_Party/LoRaWAN/Core/lora.c ****     }
 844              		.loc 1 639 0
 845 005a 5B78     		ldrb	r3, [r3, #1]
 846 005c 8373     		strb	r3, [r0, #14]
 847 005e F0E7     		b	.L58
 848              	.L59:
 653:../../../../../../Middlewares/Third_Party/LoRaWAN/Core/lora.c ****             mcpsReq.Req.Confirmed.fPort = AppData->Port;
 849              		.loc 1 653 0
 850 0060 0125     		movs	r5, #1
 851              	.LVL51:
 656:../../../../../../Middlewares/Third_Party/LoRaWAN/Core/lora.c ****             mcpsReq.Req.Confirmed.NbTrials = 8;
 852              		.loc 1 656 0
 853 0062 8260     		str	r2, [r0, #8]
 657:../../../../../../Middlewares/Third_Party/LoRaWAN/Core/lora.c ****             mcpsReq.Req.Confirmed.Datarate = LoRaParamInit->TxDatarate;
 854              		.loc 1 657 0
 855 0064 0822     		movs	r2, #8
 653:../../../../../../Middlewares/Third_Party/LoRaWAN/Core/lora.c ****             mcpsReq.Req.Confirmed.fPort = AppData->Port;
 856              		.loc 1 653 0
 857 0066 0570     		strb	r5, [r0]
 654:../../../../../../Middlewares/Third_Party/LoRaWAN/Core/lora.c ****             mcpsReq.Req.Confirmed.fBufferSize = AppData->BuffSize;
 858              		.loc 1 654 0
 859 0068 0471     		strb	r4, [r0, #4]
 655:../../../../../../Middlewares/Third_Party/LoRaWAN/Core/lora.c ****             mcpsReq.Req.Confirmed.fBuffer = AppData->Buff;
 860              		.loc 1 655 0
 861 006a 8181     		strh	r1, [r0, #12]
 657:../../../../../../Middlewares/Third_Party/LoRaWAN/Core/lora.c ****             mcpsReq.Req.Confirmed.Datarate = LoRaParamInit->TxDatarate;
 862              		.loc 1 657 0
 863 006c C273     		strb	r2, [r0, #15]
 658:../../../../../../Middlewares/Third_Party/LoRaWAN/Core/lora.c ****         }
 864              		.loc 1 658 0
 865 006e 8373     		strb	r3, [r0, #14]
 866 0070 E7E7     		b	.L58
 867              	.L64:
 868 0072 C046     		.align	2
 869              	.L63:
 870 0074 00000000 		.word	.LANCHOR0
 871              		.cfi_endproc
 872              	.LFE46:
 873              		.size	LORA_send, .-LORA_send
 874              		.section	.text.LORA_RequestClass,"ax",%progbits
 875              		.align	1
 876              		.p2align 2,,3
 877              		.global	LORA_RequestClass
 878              		.syntax unified
 879              		.code	16
 880              		.thumb_func
ARM GAS  C:\Users\EBANO_~1\AppData\Local\Temp\ccD2gIpL.s 			page 34


 881              		.fpu softvfp
 882              		.type	LORA_RequestClass, %function
 883              	LORA_RequestClass:
 884              	.LFB47:
 743:../../../../../../Middlewares/Third_Party/LoRaWAN/Core/lora.c ****   LoraErrorStatus Errorstatus = LORA_SUCCESS;
 885              		.loc 1 743 0
 886              		.cfi_startproc
 887              		@ args = 0, pretend = 0, frame = 24
 888              		@ frame_needed = 0, uses_anonymous_args = 0
 889              	.LVL52:
 890 0000 30B5     		push	{r4, r5, lr}
 891              	.LCFI16:
 892              		.cfi_def_cfa_offset 12
 893              		.cfi_offset 4, -12
 894              		.cfi_offset 5, -8
 895              		.cfi_offset 14, -4
 896 0002 87B0     		sub	sp, sp, #28
 897              	.LCFI17:
 898              		.cfi_def_cfa_offset 40
 748:../../../../../../Middlewares/Third_Party/LoRaWAN/Core/lora.c ****   LoRaMacMibGetRequestConfirm( &mibReq );
 899              		.loc 1 748 0
 900 0004 0023     		movs	r3, #0
 901 0006 6A46     		mov	r2, sp
 743:../../../../../../Middlewares/Third_Party/LoRaWAN/Core/lora.c ****   LoraErrorStatus Errorstatus = LORA_SUCCESS;
 902              		.loc 1 743 0
 903 0008 0500     		movs	r5, r0
 749:../../../../../../Middlewares/Third_Party/LoRaWAN/Core/lora.c ****   
 904              		.loc 1 749 0
 905 000a 6846     		mov	r0, sp
 906              	.LVL53:
 748:../../../../../../Middlewares/Third_Party/LoRaWAN/Core/lora.c ****   LoRaMacMibGetRequestConfirm( &mibReq );
 907              		.loc 1 748 0
 908 000c 1370     		strb	r3, [r2]
 749:../../../../../../Middlewares/Third_Party/LoRaWAN/Core/lora.c ****   
 909              		.loc 1 749 0
 910 000e FFF7FEFF 		bl	LoRaMacMibGetRequestConfirm
 911              	.LVL54:
 751:../../../../../../Middlewares/Third_Party/LoRaWAN/Core/lora.c ****   /*attempt to swicth only if class update*/
 912              		.loc 1 751 0
 913 0012 6B46     		mov	r3, sp
 914 0014 1879     		ldrb	r0, [r3, #4]
 915              	.LVL55:
 753:../../../../../../Middlewares/Third_Party/LoRaWAN/Core/lora.c ****   {
 916              		.loc 1 753 0
 917 0016 A842     		cmp	r0, r5
 918 0018 15D0     		beq	.L74
 755:../../../../../../Middlewares/Third_Party/LoRaWAN/Core/lora.c ****     {
 919              		.loc 1 755 0
 920 001a 012D     		cmp	r5, #1
 921 001c 25D0     		beq	.L67
 922 001e 002D     		cmp	r5, #0
 923 0020 15D0     		beq	.L68
 924 0022 022D     		cmp	r5, #2
 925 0024 0FD1     		bne	.L74
 787:../../../../../../Middlewares/Third_Party/LoRaWAN/Core/lora.c ****         {
 926              		.loc 1 787 0
 927 0026 431E     		subs	r3, r0, #1
ARM GAS  C:\Users\EBANO_~1\AppData\Local\Temp\ccD2gIpL.s 			page 35


 928 0028 9841     		sbcs	r0, r0, r3
 929              	.LVL56:
 792:../../../../../../Middlewares/Third_Party/LoRaWAN/Core/lora.c ****         if( LoRaMacMibSetRequestConfirm( &mibReq ) == LORAMAC_STATUS_OK )
 930              		.loc 1 792 0
 931 002a 6B46     		mov	r3, sp
 787:../../../../../../Middlewares/Third_Party/LoRaWAN/Core/lora.c ****         {
 932              		.loc 1 787 0
 933 002c 4442     		rsbs	r4, r0, #0
 934              	.LVL57:
 793:../../../../../../Middlewares/Third_Party/LoRaWAN/Core/lora.c ****         {
 935              		.loc 1 793 0
 936 002e 6846     		mov	r0, sp
 792:../../../../../../Middlewares/Third_Party/LoRaWAN/Core/lora.c ****         if( LoRaMacMibSetRequestConfirm( &mibReq ) == LORAMAC_STATUS_OK )
 937              		.loc 1 792 0
 938 0030 1D71     		strb	r5, [r3, #4]
 939              	.LVL58:
 793:../../../../../../Middlewares/Third_Party/LoRaWAN/Core/lora.c ****         {
 940              		.loc 1 793 0
 941 0032 FFF7FEFF 		bl	LoRaMacMibSetRequestConfirm
 942              	.LVL59:
 943 0036 0028     		cmp	r0, #0
 944 0038 1CD1     		bne	.L71
 795:../../../../../../Middlewares/Third_Party/LoRaWAN/Core/lora.c ****         }
 945              		.loc 1 795 0
 946 003a 104B     		ldr	r3, .L75
 947 003c 0230     		adds	r0, r0, #2
 948 003e 1B68     		ldr	r3, [r3]
 949 0040 9B69     		ldr	r3, [r3, #24]
 950 0042 9847     		blx	r3
 951              	.LVL60:
 952 0044 00E0     		b	.L66
 953              	.LVL61:
 954              	.L74:
 744:../../../../../../Middlewares/Third_Party/LoRaWAN/Core/lora.c ****   MibRequestConfirm_t mibReq;
 955              		.loc 1 744 0
 956 0046 0024     		movs	r4, #0
 957              	.LVL62:
 958              	.L66:
 808:../../../../../../Middlewares/Third_Party/LoRaWAN/Core/lora.c **** 
 959              		.loc 1 808 0
 960 0048 2000     		movs	r0, r4
 961 004a 07B0     		add	sp, sp, #28
 962              		@ sp needed
 963              	.LVL63:
 964 004c 30BD     		pop	{r4, r5, pc}
 965              	.LVL64:
 966              	.L68:
 759:../../../../../../Middlewares/Third_Party/LoRaWAN/Core/lora.c ****         if( LoRaMacMibSetRequestConfirm( &mibReq ) == LORAMAC_STATUS_OK )
 967              		.loc 1 759 0
 968 004e 6B46     		mov	r3, sp
 760:../../../../../../Middlewares/Third_Party/LoRaWAN/Core/lora.c ****         {
 969              		.loc 1 760 0
 970 0050 6846     		mov	r0, sp
 971              	.LVL65:
 759:../../../../../../Middlewares/Third_Party/LoRaWAN/Core/lora.c ****         if( LoRaMacMibSetRequestConfirm( &mibReq ) == LORAMAC_STATUS_OK )
 972              		.loc 1 759 0
 973 0052 1D71     		strb	r5, [r3, #4]
ARM GAS  C:\Users\EBANO_~1\AppData\Local\Temp\ccD2gIpL.s 			page 36


 974              	.LVL66:
 760:../../../../../../Middlewares/Third_Party/LoRaWAN/Core/lora.c ****         {
 975              		.loc 1 760 0
 976 0054 FFF7FEFF 		bl	LoRaMacMibSetRequestConfirm
 977              	.LVL67:
 978 0058 0028     		cmp	r0, #0
 979 005a 0BD1     		bne	.L71
 763:../../../../../../Middlewares/Third_Party/LoRaWAN/Core/lora.c ****         }
 980              		.loc 1 763 0
 981 005c 074B     		ldr	r3, .L75
 982 005e 0020     		movs	r0, #0
 983 0060 1B68     		ldr	r3, [r3]
 744:../../../../../../Middlewares/Third_Party/LoRaWAN/Core/lora.c ****   MibRequestConfirm_t mibReq;
 984              		.loc 1 744 0
 985 0062 0024     		movs	r4, #0
 763:../../../../../../Middlewares/Third_Party/LoRaWAN/Core/lora.c ****         }
 986              		.loc 1 763 0
 987 0064 9B69     		ldr	r3, [r3, #24]
 988 0066 9847     		blx	r3
 989              	.LVL68:
 990 0068 EEE7     		b	.L66
 991              	.LVL69:
 992              	.L67:
 781:../../../../../../Middlewares/Third_Party/LoRaWAN/Core/lora.c **** #endif /* LORAMAC_CLASSB_ENABLED */
 993              		.loc 1 781 0
 994 006a 0548     		ldr	r0, .L75+4
 995              	.LVL70:
 996 006c FFF7FEFF 		bl	TraceSend
 997              	.LVL71:
 744:../../../../../../Middlewares/Third_Party/LoRaWAN/Core/lora.c ****   MibRequestConfirm_t mibReq;
 998              		.loc 1 744 0
 999 0070 0024     		movs	r4, #0
 783:../../../../../../Middlewares/Third_Party/LoRaWAN/Core/lora.c ****       }
 1000              		.loc 1 783 0
 1001 0072 E9E7     		b	.L66
 1002              	.LVL72:
 1003              	.L71:
 767:../../../../../../Middlewares/Third_Party/LoRaWAN/Core/lora.c ****         }
 1004              		.loc 1 767 0
 1005 0074 0124     		movs	r4, #1
 1006 0076 6442     		rsbs	r4, r4, #0
 1007 0078 E6E7     		b	.L66
 1008              	.L76:
 1009 007a C046     		.align	2
 1010              	.L75:
 1011 007c 00000000 		.word	.LANCHOR0
 1012 0080 CC000000 		.word	.LC35
 1013              		.cfi_endproc
 1014              	.LFE47:
 1015              		.size	LORA_RequestClass, .-LORA_RequestClass
 1016              		.section	.text.LORA_GetCurrentClass,"ax",%progbits
 1017              		.align	1
 1018              		.p2align 2,,3
 1019              		.global	LORA_GetCurrentClass
 1020              		.syntax unified
 1021              		.code	16
 1022              		.thumb_func
ARM GAS  C:\Users\EBANO_~1\AppData\Local\Temp\ccD2gIpL.s 			page 37


 1023              		.fpu softvfp
 1024              		.type	LORA_GetCurrentClass, %function
 1025              	LORA_GetCurrentClass:
 1026              	.LFB48:
 811:../../../../../../Middlewares/Third_Party/LoRaWAN/Core/lora.c ****   MibRequestConfirm_t mibReq;
 1027              		.loc 1 811 0
 1028              		.cfi_startproc
 1029              		@ args = 0, pretend = 0, frame = 24
 1030              		@ frame_needed = 0, uses_anonymous_args = 0
 1031              	.LVL73:
 1032 0000 10B5     		push	{r4, lr}
 1033              	.LCFI18:
 1034              		.cfi_def_cfa_offset 8
 1035              		.cfi_offset 4, -8
 1036              		.cfi_offset 14, -4
 1037 0002 86B0     		sub	sp, sp, #24
 1038              	.LCFI19:
 1039              		.cfi_def_cfa_offset 32
 814:../../../../../../Middlewares/Third_Party/LoRaWAN/Core/lora.c ****   LoRaMacMibGetRequestConfirm( &mibReq );
 1040              		.loc 1 814 0
 1041 0004 0023     		movs	r3, #0
 1042 0006 6A46     		mov	r2, sp
 811:../../../../../../Middlewares/Third_Party/LoRaWAN/Core/lora.c ****   MibRequestConfirm_t mibReq;
 1043              		.loc 1 811 0
 1044 0008 0400     		movs	r4, r0
 815:../../../../../../Middlewares/Third_Party/LoRaWAN/Core/lora.c ****   
 1045              		.loc 1 815 0
 1046 000a 6846     		mov	r0, sp
 1047              	.LVL74:
 814:../../../../../../Middlewares/Third_Party/LoRaWAN/Core/lora.c ****   LoRaMacMibGetRequestConfirm( &mibReq );
 1048              		.loc 1 814 0
 1049 000c 1370     		strb	r3, [r2]
 815:../../../../../../Middlewares/Third_Party/LoRaWAN/Core/lora.c ****   
 1050              		.loc 1 815 0
 1051 000e FFF7FEFF 		bl	LoRaMacMibGetRequestConfirm
 1052              	.LVL75:
 817:../../../../../../Middlewares/Third_Party/LoRaWAN/Core/lora.c **** }
 1053              		.loc 1 817 0
 1054 0012 6B46     		mov	r3, sp
 1055 0014 1B79     		ldrb	r3, [r3, #4]
 1056 0016 2370     		strb	r3, [r4]
 818:../../../../../../Middlewares/Third_Party/LoRaWAN/Core/lora.c **** 
 1057              		.loc 1 818 0
 1058 0018 06B0     		add	sp, sp, #24
 1059              		@ sp needed
 1060              	.LVL76:
 1061 001a 10BD     		pop	{r4, pc}
 1062              		.cfi_endproc
 1063              	.LFE48:
 1064              		.size	LORA_GetCurrentClass, .-LORA_GetCurrentClass
 1065              		.global	MlmeReqStrings
 1066              		.global	MacStatusStrings
 1067              		.global	EventInfoStatusStrings
 1068              		.data
 1069              		.align	2
 1070              		.set	.LANCHOR1,. + 0
 1071              		.type	DevEui, %object
ARM GAS  C:\Users\EBANO_~1\AppData\Local\Temp\ccD2gIpL.s 			page 38


 1072              		.size	DevEui, 8
 1073              	DevEui:
 1074 0000 01       		.byte	1
 1075 0001 01       		.byte	1
 1076 0002 01       		.byte	1
 1077 0003 01       		.byte	1
 1078 0004 01       		.byte	1
 1079 0005 01       		.byte	1
 1080 0006 01       		.byte	1
 1081 0007 01       		.byte	1
 1082              		.type	JoinEui, %object
 1083              		.size	JoinEui, 8
 1084              	JoinEui:
 1085 0008 01       		.byte	1
 1086 0009 01       		.byte	1
 1087 000a 01       		.byte	1
 1088 000b 01       		.byte	1
 1089 000c 01       		.byte	1
 1090 000d 01       		.byte	1
 1091 000e 01       		.byte	1
 1092 000f 01       		.byte	1
 1093              		.type	AppKey, %object
 1094              		.size	AppKey, 16
 1095              	AppKey:
 1096 0010 2B       		.byte	43
 1097 0011 7E       		.byte	126
 1098 0012 15       		.byte	21
 1099 0013 16       		.byte	22
 1100 0014 28       		.byte	40
 1101 0015 AE       		.byte	-82
 1102 0016 D2       		.byte	-46
 1103 0017 A6       		.byte	-90
 1104 0018 AB       		.byte	-85
 1105 0019 F7       		.byte	-9
 1106 001a 15       		.byte	21
 1107 001b 88       		.byte	-120
 1108 001c 09       		.byte	9
 1109 001d CF       		.byte	-49
 1110 001e 4F       		.byte	79
 1111 001f 3C       		.byte	60
 1112              		.type	NwkKey, %object
 1113              		.size	NwkKey, 16
 1114              	NwkKey:
 1115 0020 2B       		.byte	43
 1116 0021 7E       		.byte	126
 1117 0022 15       		.byte	21
 1118 0023 16       		.byte	22
 1119 0024 28       		.byte	40
 1120 0025 AE       		.byte	-82
 1121 0026 D2       		.byte	-46
 1122 0027 A6       		.byte	-90
 1123 0028 AB       		.byte	-85
 1124 0029 F7       		.byte	-9
 1125 002a 15       		.byte	21
 1126 002b 88       		.byte	-120
 1127 002c 09       		.byte	9
 1128 002d CF       		.byte	-49
ARM GAS  C:\Users\EBANO_~1\AppData\Local\Temp\ccD2gIpL.s 			page 39


 1129 002e 4F       		.byte	79
 1130 002f 3C       		.byte	60
 1131              		.type	MlmeReqStrings, %object
 1132              		.size	MlmeReqStrings, 60
 1133              	MlmeReqStrings:
 1134 0030 14010000 		.word	.LC37
 1135 0034 20010000 		.word	.LC38
 1136 0038 30010000 		.word	.LC39
 1137 003c 40010000 		.word	.LC40
 1138 0040 50010000 		.word	.LC41
 1139 0044 5C010000 		.word	.LC42
 1140 0048 68010000 		.word	.LC43
 1141 004c 80010000 		.word	.LC44
 1142 0050 98010000 		.word	.LC45
 1143 0054 B0010000 		.word	.LC46
 1144 0058 C8010000 		.word	.LC47
 1145 005c DC010000 		.word	.LC48
 1146 0060 E8010000 		.word	.LC49
 1147 0064 00020000 		.word	.LC50
 1148 0068 14020000 		.word	.LC51
 1149              		.type	MacStatusStrings, %object
 1150              		.size	MacStatusStrings, 88
 1151              	MacStatusStrings:
 1152 006c 38020000 		.word	.LC52
 1153 0070 3C020000 		.word	.LC53
 1154 0074 44020000 		.word	.LC54
 1155 0078 54020000 		.word	.LC55
 1156 007c 68020000 		.word	.LC56
 1157 0080 7C020000 		.word	.LC57
 1158 0084 90020000 		.word	.LC58
 1159 0088 B0020000 		.word	.LC59
 1160 008c C4020000 		.word	.LC60
 1161 0090 D4020000 		.word	.LC61
 1162 0094 E0020000 		.word	.LC62
 1163 0098 F8020000 		.word	.LC63
 1164 009c 0C030000 		.word	.LC64
 1165 00a0 20030000 		.word	.LC65
 1166 00a4 34030000 		.word	.LC66
 1167 00a8 4C030000 		.word	.LC67
 1168 00ac 68030000 		.word	.LC68
 1169 00b0 84030000 		.word	.LC69
 1170 00b4 9C030000 		.word	.LC70
 1171 00b8 AC030000 		.word	.LC71
 1172 00bc C0030000 		.word	.LC72
 1173 00c0 D4030000 		.word	.LC73
 1174              		.type	EventInfoStatusStrings, %object
 1175              		.size	EventInfoStatusStrings, 68
 1176              	EventInfoStatusStrings:
 1177 00c4 38020000 		.word	.LC52
 1178 00c8 DC030000 		.word	.LC74
 1179 00cc E4030000 		.word	.LC75
 1180 00d0 F0030000 		.word	.LC76
 1181 00d4 00040000 		.word	.LC77
 1182 00d8 10040000 		.word	.LC78
 1183 00dc 1C040000 		.word	.LC79
 1184 00e0 28040000 		.word	.LC80
 1185 00e4 34040000 		.word	.LC81
ARM GAS  C:\Users\EBANO_~1\AppData\Local\Temp\ccD2gIpL.s 			page 40


 1186 00e8 48040000 		.word	.LC82
 1187 00ec 64040000 		.word	.LC83
 1188 00f0 84040000 		.word	.LC84
 1189 00f4 94040000 		.word	.LC85
 1190 00f8 A0040000 		.word	.LC86
 1191 00fc B0040000 		.word	.LC87
 1192 0100 C0040000 		.word	.LC88
 1193 0104 CC040000 		.word	.LC89
 1194              		.bss
 1195              		.align	2
 1196              		.set	.LANCHOR0,. + 0
 1197              		.type	LoRaMainCallbacks, %object
 1198              		.size	LoRaMainCallbacks, 4
 1199              	LoRaMainCallbacks:
 1200 0000 00000000 		.space	4
 1201              		.type	JoinParameters, %object
 1202              		.size	JoinParameters, 12
 1203              	JoinParameters:
 1204 0004 00000000 		.space	12
 1204      00000000 
 1204      00000000 
 1205              		.type	LoRaParamInit, %object
 1206              		.size	LoRaParamInit, 4
 1207              	LoRaParamInit:
 1208 0010 00000000 		.space	4
 1209              		.type	LoRaMacPrimitives, %object
 1210              		.size	LoRaMacPrimitives, 16
 1211              	LoRaMacPrimitives:
 1212 0014 00000000 		.space	16
 1212      00000000 
 1212      00000000 
 1212      00000000 
 1213              		.type	LoRaMacCallbacks, %object
 1214              		.size	LoRaMacCallbacks, 16
 1215              	LoRaMacCallbacks:
 1216 0024 00000000 		.space	16
 1216      00000000 
 1216      00000000 
 1216      00000000 
 1217              		.type	mibReq, %object
 1218              		.size	mibReq, 24
 1219              	mibReq:
 1220 0034 00000000 		.space	24
 1220      00000000 
 1220      00000000 
 1220      00000000 
 1220      00000000 
 1221              		.section	.rodata.str1.4,"aMS",%progbits,1
 1222              		.align	2
 1223              	.LC13:
 1224 0000 4F544141 		.ascii	"OTAA\012\015\000"
 1224      0A0D00
 1225 0007 00       		.space	1
 1226              	.LC15:
 1227 0008 44657645 		.ascii	"DevEui= %02X-%02X-%02X-%02X-%02X-%02X-%02X-%02X\012"
 1227      75693D20 
 1227      25303258 
ARM GAS  C:\Users\EBANO_~1\AppData\Local\Temp\ccD2gIpL.s 			page 41


 1227      2D253032 
 1227      582D2530 
 1228 0038 0D00     		.ascii	"\015\000"
 1229 003a 0000     		.space	2
 1230              	.LC17:
 1231 003c 41707045 		.ascii	"AppEui= %02X-%02X-%02X-%02X-%02X-%02X-%02X-%02X\012"
 1231      75693D20 
 1231      25303258 
 1231      2D253032 
 1231      582D2530 
 1232 006c 0D00     		.ascii	"\015\000"
 1233 006e 0000     		.space	2
 1234              	.LC19:
 1235 0070 4170704B 		.ascii	"AppKey= %02X %02X %02X %02X %02X %02X %02X %02X %02"
 1235      65793D20 
 1235      25303258 
 1235      20253032 
 1235      58202530 
 1236 00a3 58202530 		.ascii	"X %02X %02X %02X %02X %02X %02X %02X\012\015\000"
 1236      32582025 
 1236      30325820 
 1236      25303258 
 1236      20253032 
 1237 00ca 0000     		.space	2
 1238              	.LC35:
 1239 00cc 7761726E 		.ascii	"warning: LORAMAC_CLASSB_ENABLED has not been define"
 1239      696E673A 
 1239      204C4F52 
 1239      414D4143 
 1239      5F434C41 
 1240 00ff 64206174 		.ascii	"d at compilation\012\015\000"
 1240      20636F6D 
 1240      70696C61 
 1240      74696F6E 
 1240      0A0D00
 1241 0112 0000     		.space	2
 1242              	.LC37:
 1243 0114 4D4C4D45 		.ascii	"MLME_JOIN\000"
 1243      5F4A4F49 
 1243      4E00
 1244 011e 0000     		.space	2
 1245              	.LC38:
 1246 0120 4D4C4D45 		.ascii	"MLME_REJOIN_0\000"
 1246      5F52454A 
 1246      4F494E5F 
 1246      3000
 1247 012e 0000     		.space	2
 1248              	.LC39:
 1249 0130 4D4C4D45 		.ascii	"MLME_REJOIN_1\000"
 1249      5F52454A 
 1249      4F494E5F 
 1249      3100
 1250 013e 0000     		.space	2
 1251              	.LC40:
 1252 0140 4D4C4D45 		.ascii	"MLME_LINK_CHECK\000"
 1252      5F4C494E 
 1252      4B5F4348 
ARM GAS  C:\Users\EBANO_~1\AppData\Local\Temp\ccD2gIpL.s 			page 42


 1252      45434B00 
 1253              	.LC41:
 1254 0150 4D4C4D45 		.ascii	"MLME_TXCW\000"
 1254      5F545843 
 1254      5700
 1255 015a 0000     		.space	2
 1256              	.LC42:
 1257 015c 4D4C4D45 		.ascii	"MLME_TXCW_1\000"
 1257      5F545843 
 1257      575F3100 
 1258              	.LC43:
 1259 0168 4D4C4D45 		.ascii	"MLME_SCHEDULE_UPLINK\000"
 1259      5F534348 
 1259      4544554C 
 1259      455F5550 
 1259      4C494E4B 
 1260 017d 000000   		.space	3
 1261              	.LC44:
 1262 0180 4D4C4D45 		.ascii	"MLME_NVM_CTXS_UPDATE\000"
 1262      5F4E564D 
 1262      5F435458 
 1262      535F5550 
 1262      44415445 
 1263 0195 000000   		.space	3
 1264              	.LC45:
 1265 0198 4D4C4D45 		.ascii	"MLME_DERIVE_MC_KE_KEY\000"
 1265      5F444552 
 1265      4956455F 
 1265      4D435F4B 
 1265      455F4B45 
 1266 01ae 0000     		.space	2
 1267              	.LC46:
 1268 01b0 4D4C4D45 		.ascii	"MLME_DERIVE_MC_KEY_PAIR\000"
 1268      5F444552 
 1268      4956455F 
 1268      4D435F4B 
 1268      45595F50 
 1269              	.LC47:
 1270 01c8 4D4C4D45 		.ascii	"MLME_DEVICE_TIME\000"
 1270      5F444556 
 1270      4943455F 
 1270      54494D45 
 1270      00
 1271 01d9 000000   		.space	3
 1272              	.LC48:
 1273 01dc 4D4C4D45 		.ascii	"MLME_BEACON\000"
 1273      5F424541 
 1273      434F4E00 
 1274              	.LC49:
 1275 01e8 4D4C4D45 		.ascii	"MLME_BEACON_ACQUISITION\000"
 1275      5F424541 
 1275      434F4E5F 
 1275      41435155 
 1275      49534954 
 1276              	.LC50:
 1277 0200 4D4C4D45 		.ascii	"MLME_PING_SLOT_INFO\000"
 1277      5F50494E 
ARM GAS  C:\Users\EBANO_~1\AppData\Local\Temp\ccD2gIpL.s 			page 43


 1277      475F534C 
 1277      4F545F49 
 1277      4E464F00 
 1278              	.LC51:
 1279 0214 4D4C4D45 		.ascii	"MLME_BEACON_TIMING,MLME_BEACON_LOST\000"
 1279      5F424541 
 1279      434F4E5F 
 1279      54494D49 
 1279      4E472C4D 
 1280              	.LC52:
 1281 0238 4F4B00   		.ascii	"OK\000"
 1282 023b 00       		.space	1
 1283              	.LC53:
 1284 023c 42757379 		.ascii	"Busy\000"
 1284      00
 1285 0241 000000   		.space	3
 1286              	.LC54:
 1287 0244 53657276 		.ascii	"Service unknown\000"
 1287      69636520 
 1287      756E6B6E 
 1287      6F776E00 
 1288              	.LC55:
 1289 0254 50617261 		.ascii	"Parameter invalid\000"
 1289      6D657465 
 1289      7220696E 
 1289      76616C69 
 1289      6400
 1290 0266 0000     		.space	2
 1291              	.LC56:
 1292 0268 46726571 		.ascii	"Frequency invalid\000"
 1292      75656E63 
 1292      7920696E 
 1292      76616C69 
 1292      6400
 1293 027a 0000     		.space	2
 1294              	.LC57:
 1295 027c 44617461 		.ascii	"Datarate invalid\000"
 1295      72617465 
 1295      20696E76 
 1295      616C6964 
 1295      00
 1296 028d 000000   		.space	3
 1297              	.LC58:
 1298 0290 46726575 		.ascii	"Freuqency or datarate invalid\000"
 1298      71656E63 
 1298      79206F72 
 1298      20646174 
 1298      61726174 
 1299 02ae 0000     		.space	2
 1300              	.LC59:
 1301 02b0 4E6F206E 		.ascii	"No network joined\000"
 1301      6574776F 
 1301      726B206A 
 1301      6F696E65 
 1301      6400
 1302 02c2 0000     		.space	2
 1303              	.LC60:
ARM GAS  C:\Users\EBANO_~1\AppData\Local\Temp\ccD2gIpL.s 			page 44


 1304 02c4 4C656E67 		.ascii	"Length error\000"
 1304      74682065 
 1304      72726F72 
 1304      00
 1305 02d1 000000   		.space	3
 1306              	.LC61:
 1307 02d4 44657669 		.ascii	"Device OFF\000"
 1307      6365204F 
 1307      464600
 1308 02df 00       		.space	1
 1309              	.LC62:
 1310 02e0 52656769 		.ascii	"Region not supported\000"
 1310      6F6E206E 
 1310      6F742073 
 1310      7570706F 
 1310      72746564 
 1311 02f5 000000   		.space	3
 1312              	.LC63:
 1313 02f8 536B6970 		.ascii	"Skipped APP data\000"
 1313      70656420 
 1313      41505020 
 1313      64617461 
 1313      00
 1314 0309 000000   		.space	3
 1315              	.LC64:
 1316 030c 44757479 		.ascii	"DutyC restricted\000"
 1316      43207265 
 1316      73747269 
 1316      63746564 
 1316      00
 1317 031d 000000   		.space	3
 1318              	.LC65:
 1319 0320 4E6F2063 		.ascii	"No channel found\000"
 1319      68616E6E 
 1319      656C2066 
 1319      6F756E64 
 1319      00
 1320 0331 000000   		.space	3
 1321              	.LC66:
 1322 0334 4E6F2066 		.ascii	"No free channel found\000"
 1322      72656520 
 1322      6368616E 
 1322      6E656C20 
 1322      666F756E 
 1323 034a 0000     		.space	2
 1324              	.LC67:
 1325 034c 42757379 		.ascii	"Busy beacon reserved time\000"
 1325      20626561 
 1325      636F6E20 
 1325      72657365 
 1325      72766564 
 1326 0366 0000     		.space	2
 1327              	.LC68:
 1328 0368 42757379 		.ascii	"Busy ping-slot window time\000"
 1328      2070696E 
 1328      672D736C 
 1328      6F742077 
ARM GAS  C:\Users\EBANO_~1\AppData\Local\Temp\ccD2gIpL.s 			page 45


 1328      696E646F 
 1329 0383 00       		.space	1
 1330              	.LC69:
 1331 0384 42757379 		.ascii	"Busy uplink collision\000"
 1331      2075706C 
 1331      696E6B20 
 1331      636F6C6C 
 1331      6973696F 
 1332 039a 0000     		.space	2
 1333              	.LC70:
 1334 039c 43727970 		.ascii	"Crypto error\000"
 1334      746F2065 
 1334      72726F72 
 1334      00
 1335 03a9 000000   		.space	3
 1336              	.LC71:
 1337 03ac 46436E74 		.ascii	"FCnt handler error\000"
 1337      2068616E 
 1337      646C6572 
 1337      20657272 
 1337      6F7200
 1338 03bf 00       		.space	1
 1339              	.LC72:
 1340 03c0 4D414320 		.ascii	"MAC command error\000"
 1340      636F6D6D 
 1340      616E6420 
 1340      6572726F 
 1340      7200
 1341 03d2 0000     		.space	2
 1342              	.LC73:
 1343 03d4 4552524F 		.ascii	"ERROR\000"
 1343      5200
 1344 03da 0000     		.space	2
 1345              	.LC74:
 1346 03dc 4572726F 		.ascii	"Error\000"
 1346      7200
 1347 03e2 0000     		.space	2
 1348              	.LC75:
 1349 03e4 54782074 		.ascii	"Tx timeout\000"
 1349      696D656F 
 1349      757400
 1350 03ef 00       		.space	1
 1351              	.LC76:
 1352 03f0 52782031 		.ascii	"Rx 1 timeout\000"
 1352      2074696D 
 1352      656F7574 
 1352      00
 1353 03fd 000000   		.space	3
 1354              	.LC77:
 1355 0400 52782032 		.ascii	"Rx 2 timeout\000"
 1355      2074696D 
 1355      656F7574 
 1355      00
 1356 040d 000000   		.space	3
 1357              	.LC78:
 1358 0410 52783120 		.ascii	"Rx1 error\000"
 1358      6572726F 
ARM GAS  C:\Users\EBANO_~1\AppData\Local\Temp\ccD2gIpL.s 			page 46


 1358      7200
 1359 041a 0000     		.space	2
 1360              	.LC79:
 1361 041c 52783220 		.ascii	"Rx2 error\000"
 1361      6572726F 
 1361      7200
 1362 0426 0000     		.space	2
 1363              	.LC80:
 1364 0428 4A6F696E 		.ascii	"Join failed\000"
 1364      20666169 
 1364      6C656400 
 1365              	.LC81:
 1366 0434 446F776E 		.ascii	"Downlink repeated\000"
 1366      6C696E6B 
 1366      20726570 
 1366      65617465 
 1366      6400
 1367 0446 0000     		.space	2
 1368              	.LC82:
 1369 0448 54782044 		.ascii	"Tx DR payload size error\000"
 1369      52207061 
 1369      796C6F61 
 1369      64207369 
 1369      7A652065 
 1370 0461 000000   		.space	3
 1371              	.LC83:
 1372 0464 446F776E 		.ascii	"Downlink too many frames loss\000"
 1372      6C696E6B 
 1372      20746F6F 
 1372      206D616E 
 1372      79206672 
 1373 0482 0000     		.space	2
 1374              	.LC84:
 1375 0484 41646472 		.ascii	"Address fail\000"
 1375      65737320 
 1375      6661696C 
 1375      00
 1376 0491 000000   		.space	3
 1377              	.LC85:
 1378 0494 4D494320 		.ascii	"MIC fail\000"
 1378      6661696C 
 1378      00
 1379 049d 000000   		.space	3
 1380              	.LC86:
 1381 04a0 4D756C74 		.ascii	"Multicast faile\000"
 1381      69636173 
 1381      74206661 
 1381      696C6500 
 1382              	.LC87:
 1383 04b0 42656163 		.ascii	"Beacon locked\000"
 1383      6F6E206C 
 1383      6F636B65 
 1383      6400
 1384 04be 0000     		.space	2
 1385              	.LC88:
 1386 04c0 42656163 		.ascii	"Beacon lost\000"
 1386      6F6E206C 
ARM GAS  C:\Users\EBANO_~1\AppData\Local\Temp\ccD2gIpL.s 			page 47


 1386      6F737400 
 1387              	.LC89:
 1388 04cc 42656163 		.ascii	"Beacon not found\000"
 1388      6F6E206E 
 1388      6F742066 
 1388      6F756E64 
 1388      00
 1389              		.text
 1390              	.Letext0:
 1391              		.file 2 "c:\\program files (x86)\\gnu tools arm embedded\\7 2018-q2-update\\lib\\gcc\\arm-none-eab
 1392              		.file 3 "c:\\program files (x86)\\gnu tools arm embedded\\7 2018-q2-update\\arm-none-eabi\\include
 1393              		.file 4 "c:\\program files (x86)\\gnu tools arm embedded\\7 2018-q2-update\\arm-none-eabi\\include
 1394              		.file 5 "c:\\program files (x86)\\gnu tools arm embedded\\7 2018-q2-update\\arm-none-eabi\\include
 1395              		.file 6 "c:\\program files (x86)\\gnu tools arm embedded\\7 2018-q2-update\\arm-none-eabi\\include
 1396              		.file 7 "c:\\program files (x86)\\gnu tools arm embedded\\7 2018-q2-update\\arm-none-eabi\\include
 1397              		.file 8 "c:\\program files (x86)\\gnu tools arm embedded\\7 2018-q2-update\\arm-none-eabi\\include
 1398              		.file 9 "../../../../../../Drivers/CMSIS/Device/ST/STM32L0xx/Include/system_stm32l0xx.h"
 1399              		.file 10 "c:\\program files (x86)\\gnu tools arm embedded\\7 2018-q2-update\\arm-none-eabi\\includ
 1400              		.file 11 "../../../../../../Middlewares/Third_Party/LoRaWAN/Utilities/utilities.h"
 1401              		.file 12 "c:\\program files (x86)\\gnu tools arm embedded\\7 2018-q2-update\\arm-none-eabi\\includ
 1402              		.file 13 "../../../../../../Middlewares/Third_Party/LoRaWAN/Utilities/systime.h"
 1403              		.file 14 "../../../../../../Middlewares/Third_Party/LoRaWAN/Phy/radio.h"
 1404              		.file 15 "../../../../../../Middlewares/Third_Party/LoRaWAN/Mac/LoRaMacTypes.h"
 1405              		.file 16 "../../../../../../Middlewares/Third_Party/LoRaWAN/Mac/LoRaMac.h"
 1406              		.file 17 "../../../../../../Middlewares/Third_Party/LoRaWAN/Core/lora.h"
 1407              		.file 18 "../../../../../../Middlewares/Third_Party/LoRaWAN/Utilities/trace.h"
 1408              		.file 19 "../../../../../../Middlewares/Third_Party/LoRaWAN/Core/lora-test.h"
 1409              		.file 20 "../../../../../../Middlewares/Third_Party/LoRaWAN/Mac/LoRaMacTest.h"
 1410              		.section	.debug_info,"",%progbits
 1411              	.Ldebug_info0:
 1412 0000 DA2D0000 		.4byte	0x2dda
 1413 0004 0200     		.2byte	0x2
 1414 0006 00000000 		.4byte	.Ldebug_abbrev0
 1415 000a 04       		.byte	0x4
 1416 000b 01       		.uleb128 0x1
 1417 000c CA0B0000 		.4byte	.LASF688
 1418 0010 0C       		.byte	0xc
 1419 0011 D5060000 		.4byte	.LASF689
 1420 0015 BC090000 		.4byte	.LASF690
 1421 0019 30000000 		.4byte	.Ldebug_ranges0+0x30
 1422 001d 00000000 		.4byte	0
 1423 0021 00000000 		.4byte	0
 1424 0025 00000000 		.4byte	.Ldebug_line0
 1425 0029 02       		.uleb128 0x2
 1426 002a 04       		.byte	0x4
 1427 002b 05       		.byte	0x5
 1428 002c 696E7400 		.ascii	"int\000"
 1429 0030 03       		.uleb128 0x3
 1430 0031 350E0000 		.4byte	.LASF3
 1431 0035 02       		.byte	0x2
 1432 0036 D8       		.byte	0xd8
 1433 0037 3B000000 		.4byte	0x3b
 1434 003b 04       		.uleb128 0x4
 1435 003c 04       		.byte	0x4
 1436 003d 07       		.byte	0x7
 1437 003e 0C280000 		.4byte	.LASF0
 1438 0042 04       		.uleb128 0x4
ARM GAS  C:\Users\EBANO_~1\AppData\Local\Temp\ccD2gIpL.s 			page 48


 1439 0043 08       		.byte	0x8
 1440 0044 05       		.byte	0x5
 1441 0045 12250000 		.4byte	.LASF1
 1442 0049 04       		.uleb128 0x4
 1443 004a 08       		.byte	0x8
 1444 004b 04       		.byte	0x4
 1445 004c 2B1A0000 		.4byte	.LASF2
 1446 0050 03       		.uleb128 0x3
 1447 0051 2D270000 		.4byte	.LASF4
 1448 0055 03       		.byte	0x3
 1449 0056 29       		.byte	0x29
 1450 0057 5B000000 		.4byte	0x5b
 1451 005b 04       		.uleb128 0x4
 1452 005c 01       		.byte	0x1
 1453 005d 06       		.byte	0x6
 1454 005e BE150000 		.4byte	.LASF5
 1455 0062 03       		.uleb128 0x3
 1456 0063 01010000 		.4byte	.LASF6
 1457 0067 03       		.byte	0x3
 1458 0068 2B       		.byte	0x2b
 1459 0069 6D000000 		.4byte	0x6d
 1460 006d 04       		.uleb128 0x4
 1461 006e 01       		.byte	0x1
 1462 006f 08       		.byte	0x8
 1463 0070 2D090000 		.4byte	.LASF7
 1464 0074 03       		.uleb128 0x3
 1465 0075 00080000 		.4byte	.LASF8
 1466 0079 03       		.byte	0x3
 1467 007a 37       		.byte	0x37
 1468 007b 7F000000 		.4byte	0x7f
 1469 007f 04       		.uleb128 0x4
 1470 0080 02       		.byte	0x2
 1471 0081 05       		.byte	0x5
 1472 0082 EF280000 		.4byte	.LASF9
 1473 0086 03       		.uleb128 0x3
 1474 0087 1C080000 		.4byte	.LASF10
 1475 008b 03       		.byte	0x3
 1476 008c 39       		.byte	0x39
 1477 008d 91000000 		.4byte	0x91
 1478 0091 04       		.uleb128 0x4
 1479 0092 02       		.byte	0x2
 1480 0093 07       		.byte	0x7
 1481 0094 9D150000 		.4byte	.LASF11
 1482 0098 04       		.uleb128 0x4
 1483 0099 04       		.byte	0x4
 1484 009a 05       		.byte	0x5
 1485 009b 3F180000 		.4byte	.LASF12
 1486 009f 03       		.uleb128 0x3
 1487 00a0 601F0000 		.4byte	.LASF13
 1488 00a4 03       		.byte	0x3
 1489 00a5 4F       		.byte	0x4f
 1490 00a6 AA000000 		.4byte	0xaa
 1491 00aa 04       		.uleb128 0x4
 1492 00ab 04       		.byte	0x4
 1493 00ac 07       		.byte	0x7
 1494 00ad 8D1A0000 		.4byte	.LASF14
 1495 00b1 04       		.uleb128 0x4
ARM GAS  C:\Users\EBANO_~1\AppData\Local\Temp\ccD2gIpL.s 			page 49


 1496 00b2 08       		.byte	0x8
 1497 00b3 07       		.byte	0x7
 1498 00b4 DE210000 		.4byte	.LASF15
 1499 00b8 03       		.uleb128 0x3
 1500 00b9 E6070000 		.4byte	.LASF16
 1501 00bd 04       		.byte	0x4
 1502 00be 22       		.byte	0x22
 1503 00bf C3000000 		.4byte	0xc3
 1504 00c3 05       		.uleb128 0x5
 1505 00c4 04       		.byte	0x4
 1506 00c5 C9000000 		.4byte	0xc9
 1507 00c9 06       		.uleb128 0x6
 1508 00ca E6050000 		.4byte	.LASF123
 1509 00ce 01       		.byte	0x1
 1510 00cf 03       		.uleb128 0x3
 1511 00d0 100E0000 		.4byte	.LASF17
 1512 00d4 05       		.byte	0x5
 1513 00d5 2C       		.byte	0x2c
 1514 00d6 98000000 		.4byte	0x98
 1515 00da 03       		.uleb128 0x3
 1516 00db A51E0000 		.4byte	.LASF18
 1517 00df 05       		.byte	0x5
 1518 00e0 72       		.byte	0x72
 1519 00e1 98000000 		.4byte	0x98
 1520 00e5 07       		.uleb128 0x7
 1521 00e6 FC0F0000 		.4byte	.LASF19
 1522 00ea 02       		.byte	0x2
 1523 00eb 6501     		.2byte	0x165
 1524 00ed 3B000000 		.4byte	0x3b
 1525 00f1 08       		.uleb128 0x8
 1526 00f2 04       		.byte	0x4
 1527 00f3 05       		.byte	0x5
 1528 00f4 A6       		.byte	0xa6
 1529 00f5 10010000 		.4byte	0x110
 1530 00f9 09       		.uleb128 0x9
 1531 00fa 65170000 		.4byte	.LASF20
 1532 00fe 05       		.byte	0x5
 1533 00ff A8       		.byte	0xa8
 1534 0100 E5000000 		.4byte	0xe5
 1535 0104 09       		.uleb128 0x9
 1536 0105 BF0F0000 		.4byte	.LASF21
 1537 0109 05       		.byte	0x5
 1538 010a A9       		.byte	0xa9
 1539 010b 10010000 		.4byte	0x110
 1540 010f 00       		.byte	0
 1541 0110 0A       		.uleb128 0xa
 1542 0111 6D000000 		.4byte	0x6d
 1543 0115 20010000 		.4byte	0x120
 1544 0119 0B       		.uleb128 0xb
 1545 011a 3B000000 		.4byte	0x3b
 1546 011e 03       		.byte	0x3
 1547 011f 00       		.byte	0
 1548 0120 0C       		.uleb128 0xc
 1549 0121 08       		.byte	0x8
 1550 0122 05       		.byte	0x5
 1551 0123 A3       		.byte	0xa3
 1552 0124 45010000 		.4byte	0x145
ARM GAS  C:\Users\EBANO_~1\AppData\Local\Temp\ccD2gIpL.s 			page 50


 1553 0128 0D       		.uleb128 0xd
 1554 0129 4B0E0000 		.4byte	.LASF22
 1555 012d 05       		.byte	0x5
 1556 012e A5       		.byte	0xa5
 1557 012f 29000000 		.4byte	0x29
 1558 0133 02       		.byte	0x2
 1559 0134 23       		.byte	0x23
 1560 0135 00       		.uleb128 0
 1561 0136 0D       		.uleb128 0xd
 1562 0137 9C1F0000 		.4byte	.LASF23
 1563 013b 05       		.byte	0x5
 1564 013c AA       		.byte	0xaa
 1565 013d F1000000 		.4byte	0xf1
 1566 0141 02       		.byte	0x2
 1567 0142 23       		.byte	0x23
 1568 0143 04       		.uleb128 0x4
 1569 0144 00       		.byte	0
 1570 0145 03       		.uleb128 0x3
 1571 0146 241F0000 		.4byte	.LASF24
 1572 014a 05       		.byte	0x5
 1573 014b AB       		.byte	0xab
 1574 014c 20010000 		.4byte	0x120
 1575 0150 03       		.uleb128 0x3
 1576 0151 51240000 		.4byte	.LASF25
 1577 0155 05       		.byte	0x5
 1578 0156 AF       		.byte	0xaf
 1579 0157 B8000000 		.4byte	0xb8
 1580 015b 0E       		.uleb128 0xe
 1581 015c 04       		.byte	0x4
 1582 015d 05       		.uleb128 0x5
 1583 015e 04       		.byte	0x4
 1584 015f 63010000 		.4byte	0x163
 1585 0163 04       		.uleb128 0x4
 1586 0164 01       		.byte	0x1
 1587 0165 08       		.byte	0x8
 1588 0166 741B0000 		.4byte	.LASF26
 1589 016a 0F       		.uleb128 0xf
 1590 016b 63010000 		.4byte	0x163
 1591 016f 03       		.uleb128 0x3
 1592 0170 46140000 		.4byte	.LASF27
 1593 0174 06       		.byte	0x6
 1594 0175 16       		.byte	0x16
 1595 0176 AA000000 		.4byte	0xaa
 1596 017a 10       		.uleb128 0x10
 1597 017b 721C0000 		.4byte	.LASF32
 1598 017f 18       		.byte	0x18
 1599 0180 06       		.byte	0x6
 1600 0181 2F       		.byte	0x2f
 1601 0182 D9010000 		.4byte	0x1d9
 1602 0186 0D       		.uleb128 0xd
 1603 0187 39110000 		.4byte	.LASF28
 1604 018b 06       		.byte	0x6
 1605 018c 31       		.byte	0x31
 1606 018d D9010000 		.4byte	0x1d9
 1607 0191 02       		.byte	0x2
 1608 0192 23       		.byte	0x23
 1609 0193 00       		.uleb128 0
ARM GAS  C:\Users\EBANO_~1\AppData\Local\Temp\ccD2gIpL.s 			page 51


 1610 0194 11       		.uleb128 0x11
 1611 0195 5F6B00   		.ascii	"_k\000"
 1612 0198 06       		.byte	0x6
 1613 0199 32       		.byte	0x32
 1614 019a 29000000 		.4byte	0x29
 1615 019e 02       		.byte	0x2
 1616 019f 23       		.byte	0x23
 1617 01a0 04       		.uleb128 0x4
 1618 01a1 0D       		.uleb128 0xd
 1619 01a2 A9190000 		.4byte	.LASF29
 1620 01a6 06       		.byte	0x6
 1621 01a7 32       		.byte	0x32
 1622 01a8 29000000 		.4byte	0x29
 1623 01ac 02       		.byte	0x2
 1624 01ad 23       		.byte	0x23
 1625 01ae 08       		.uleb128 0x8
 1626 01af 0D       		.uleb128 0xd
 1627 01b0 27270000 		.4byte	.LASF30
 1628 01b4 06       		.byte	0x6
 1629 01b5 32       		.byte	0x32
 1630 01b6 29000000 		.4byte	0x29
 1631 01ba 02       		.byte	0x2
 1632 01bb 23       		.byte	0x23
 1633 01bc 0C       		.uleb128 0xc
 1634 01bd 0D       		.uleb128 0xd
 1635 01be A0090000 		.4byte	.LASF31
 1636 01c2 06       		.byte	0x6
 1637 01c3 32       		.byte	0x32
 1638 01c4 29000000 		.4byte	0x29
 1639 01c8 02       		.byte	0x2
 1640 01c9 23       		.byte	0x23
 1641 01ca 10       		.uleb128 0x10
 1642 01cb 11       		.uleb128 0x11
 1643 01cc 5F7800   		.ascii	"_x\000"
 1644 01cf 06       		.byte	0x6
 1645 01d0 33       		.byte	0x33
 1646 01d1 DF010000 		.4byte	0x1df
 1647 01d5 02       		.byte	0x2
 1648 01d6 23       		.byte	0x23
 1649 01d7 14       		.uleb128 0x14
 1650 01d8 00       		.byte	0
 1651 01d9 05       		.uleb128 0x5
 1652 01da 04       		.byte	0x4
 1653 01db 7A010000 		.4byte	0x17a
 1654 01df 0A       		.uleb128 0xa
 1655 01e0 6F010000 		.4byte	0x16f
 1656 01e4 EF010000 		.4byte	0x1ef
 1657 01e8 0B       		.uleb128 0xb
 1658 01e9 3B000000 		.4byte	0x3b
 1659 01ed 00       		.byte	0
 1660 01ee 00       		.byte	0
 1661 01ef 10       		.uleb128 0x10
 1662 01f0 7D070000 		.4byte	.LASF33
 1663 01f4 24       		.byte	0x24
 1664 01f5 06       		.byte	0x6
 1665 01f6 37       		.byte	0x37
 1666 01f7 7A020000 		.4byte	0x27a
ARM GAS  C:\Users\EBANO_~1\AppData\Local\Temp\ccD2gIpL.s 			page 52


 1667 01fb 0D       		.uleb128 0xd
 1668 01fc 2B130000 		.4byte	.LASF34
 1669 0200 06       		.byte	0x6
 1670 0201 39       		.byte	0x39
 1671 0202 29000000 		.4byte	0x29
 1672 0206 02       		.byte	0x2
 1673 0207 23       		.byte	0x23
 1674 0208 00       		.uleb128 0
 1675 0209 0D       		.uleb128 0xd
 1676 020a 44270000 		.4byte	.LASF35
 1677 020e 06       		.byte	0x6
 1678 020f 3A       		.byte	0x3a
 1679 0210 29000000 		.4byte	0x29
 1680 0214 02       		.byte	0x2
 1681 0215 23       		.byte	0x23
 1682 0216 04       		.uleb128 0x4
 1683 0217 0D       		.uleb128 0xd
 1684 0218 D50F0000 		.4byte	.LASF36
 1685 021c 06       		.byte	0x6
 1686 021d 3B       		.byte	0x3b
 1687 021e 29000000 		.4byte	0x29
 1688 0222 02       		.byte	0x2
 1689 0223 23       		.byte	0x23
 1690 0224 08       		.uleb128 0x8
 1691 0225 0D       		.uleb128 0xd
 1692 0226 8A100000 		.4byte	.LASF37
 1693 022a 06       		.byte	0x6
 1694 022b 3C       		.byte	0x3c
 1695 022c 29000000 		.4byte	0x29
 1696 0230 02       		.byte	0x2
 1697 0231 23       		.byte	0x23
 1698 0232 0C       		.uleb128 0xc
 1699 0233 0D       		.uleb128 0xd
 1700 0234 A1010000 		.4byte	.LASF38
 1701 0238 06       		.byte	0x6
 1702 0239 3D       		.byte	0x3d
 1703 023a 29000000 		.4byte	0x29
 1704 023e 02       		.byte	0x2
 1705 023f 23       		.byte	0x23
 1706 0240 10       		.uleb128 0x10
 1707 0241 0D       		.uleb128 0xd
 1708 0242 7A0B0000 		.4byte	.LASF39
 1709 0246 06       		.byte	0x6
 1710 0247 3E       		.byte	0x3e
 1711 0248 29000000 		.4byte	0x29
 1712 024c 02       		.byte	0x2
 1713 024d 23       		.byte	0x23
 1714 024e 14       		.uleb128 0x14
 1715 024f 0D       		.uleb128 0xd
 1716 0250 D6080000 		.4byte	.LASF40
 1717 0254 06       		.byte	0x6
 1718 0255 3F       		.byte	0x3f
 1719 0256 29000000 		.4byte	0x29
 1720 025a 02       		.byte	0x2
 1721 025b 23       		.byte	0x23
 1722 025c 18       		.uleb128 0x18
 1723 025d 0D       		.uleb128 0xd
ARM GAS  C:\Users\EBANO_~1\AppData\Local\Temp\ccD2gIpL.s 			page 53


 1724 025e B8070000 		.4byte	.LASF41
 1725 0262 06       		.byte	0x6
 1726 0263 40       		.byte	0x40
 1727 0264 29000000 		.4byte	0x29
 1728 0268 02       		.byte	0x2
 1729 0269 23       		.byte	0x23
 1730 026a 1C       		.uleb128 0x1c
 1731 026b 0D       		.uleb128 0xd
 1732 026c E0080000 		.4byte	.LASF42
 1733 0270 06       		.byte	0x6
 1734 0271 41       		.byte	0x41
 1735 0272 29000000 		.4byte	0x29
 1736 0276 02       		.byte	0x2
 1737 0277 23       		.byte	0x23
 1738 0278 20       		.uleb128 0x20
 1739 0279 00       		.byte	0
 1740 027a 12       		.uleb128 0x12
 1741 027b 34130000 		.4byte	.LASF43
 1742 027f 0801     		.2byte	0x108
 1743 0281 06       		.byte	0x6
 1744 0282 4A       		.byte	0x4a
 1745 0283 C3020000 		.4byte	0x2c3
 1746 0287 0D       		.uleb128 0xd
 1747 0288 9E100000 		.4byte	.LASF44
 1748 028c 06       		.byte	0x6
 1749 028d 4B       		.byte	0x4b
 1750 028e C3020000 		.4byte	0x2c3
 1751 0292 02       		.byte	0x2
 1752 0293 23       		.byte	0x23
 1753 0294 00       		.uleb128 0
 1754 0295 0D       		.uleb128 0xd
 1755 0296 81080000 		.4byte	.LASF45
 1756 029a 06       		.byte	0x6
 1757 029b 4C       		.byte	0x4c
 1758 029c C3020000 		.4byte	0x2c3
 1759 02a0 03       		.byte	0x3
 1760 02a1 23       		.byte	0x23
 1761 02a2 8001     		.uleb128 0x80
 1762 02a4 0D       		.uleb128 0xd
 1763 02a5 AA010000 		.4byte	.LASF46
 1764 02a9 06       		.byte	0x6
 1765 02aa 4E       		.byte	0x4e
 1766 02ab 6F010000 		.4byte	0x16f
 1767 02af 03       		.byte	0x3
 1768 02b0 23       		.byte	0x23
 1769 02b1 8002     		.uleb128 0x100
 1770 02b3 0D       		.uleb128 0xd
 1771 02b4 A41F0000 		.4byte	.LASF47
 1772 02b8 06       		.byte	0x6
 1773 02b9 51       		.byte	0x51
 1774 02ba 6F010000 		.4byte	0x16f
 1775 02be 03       		.byte	0x3
 1776 02bf 23       		.byte	0x23
 1777 02c0 8402     		.uleb128 0x104
 1778 02c2 00       		.byte	0
 1779 02c3 0A       		.uleb128 0xa
 1780 02c4 5B010000 		.4byte	0x15b
ARM GAS  C:\Users\EBANO_~1\AppData\Local\Temp\ccD2gIpL.s 			page 54


 1781 02c8 D3020000 		.4byte	0x2d3
 1782 02cc 0B       		.uleb128 0xb
 1783 02cd 3B000000 		.4byte	0x3b
 1784 02d1 1F       		.byte	0x1f
 1785 02d2 00       		.byte	0
 1786 02d3 12       		.uleb128 0x12
 1787 02d4 29010000 		.4byte	.LASF48
 1788 02d8 9001     		.2byte	0x190
 1789 02da 06       		.byte	0x6
 1790 02db 5D       		.byte	0x5d
 1791 02dc 1A030000 		.4byte	0x31a
 1792 02e0 0D       		.uleb128 0xd
 1793 02e1 39110000 		.4byte	.LASF28
 1794 02e5 06       		.byte	0x6
 1795 02e6 5E       		.byte	0x5e
 1796 02e7 1A030000 		.4byte	0x31a
 1797 02eb 02       		.byte	0x2
 1798 02ec 23       		.byte	0x23
 1799 02ed 00       		.uleb128 0
 1800 02ee 0D       		.uleb128 0xd
 1801 02ef C2010000 		.4byte	.LASF49
 1802 02f3 06       		.byte	0x6
 1803 02f4 5F       		.byte	0x5f
 1804 02f5 29000000 		.4byte	0x29
 1805 02f9 02       		.byte	0x2
 1806 02fa 23       		.byte	0x23
 1807 02fb 04       		.uleb128 0x4
 1808 02fc 0D       		.uleb128 0xd
 1809 02fd E31E0000 		.4byte	.LASF50
 1810 0301 06       		.byte	0x6
 1811 0302 61       		.byte	0x61
 1812 0303 20030000 		.4byte	0x320
 1813 0307 02       		.byte	0x2
 1814 0308 23       		.byte	0x23
 1815 0309 08       		.uleb128 0x8
 1816 030a 0D       		.uleb128 0xd
 1817 030b 34130000 		.4byte	.LASF43
 1818 030f 06       		.byte	0x6
 1819 0310 62       		.byte	0x62
 1820 0311 7A020000 		.4byte	0x27a
 1821 0315 03       		.byte	0x3
 1822 0316 23       		.byte	0x23
 1823 0317 8801     		.uleb128 0x88
 1824 0319 00       		.byte	0
 1825 031a 05       		.uleb128 0x5
 1826 031b 04       		.byte	0x4
 1827 031c D3020000 		.4byte	0x2d3
 1828 0320 0A       		.uleb128 0xa
 1829 0321 30030000 		.4byte	0x330
 1830 0325 30030000 		.4byte	0x330
 1831 0329 0B       		.uleb128 0xb
 1832 032a 3B000000 		.4byte	0x3b
 1833 032e 1F       		.byte	0x1f
 1834 032f 00       		.byte	0
 1835 0330 05       		.uleb128 0x5
 1836 0331 04       		.byte	0x4
 1837 0332 36030000 		.4byte	0x336
ARM GAS  C:\Users\EBANO_~1\AppData\Local\Temp\ccD2gIpL.s 			page 55


 1838 0336 13       		.uleb128 0x13
 1839 0337 01       		.byte	0x1
 1840 0338 10       		.uleb128 0x10
 1841 0339 F4160000 		.4byte	.LASF51
 1842 033d 08       		.byte	0x8
 1843 033e 06       		.byte	0x6
 1844 033f 75       		.byte	0x75
 1845 0340 61030000 		.4byte	0x361
 1846 0344 0D       		.uleb128 0xd
 1847 0345 8F060000 		.4byte	.LASF52
 1848 0349 06       		.byte	0x6
 1849 034a 76       		.byte	0x76
 1850 034b 61030000 		.4byte	0x361
 1851 034f 02       		.byte	0x2
 1852 0350 23       		.byte	0x23
 1853 0351 00       		.uleb128 0
 1854 0352 0D       		.uleb128 0xd
 1855 0353 510A0000 		.4byte	.LASF53
 1856 0357 06       		.byte	0x6
 1857 0358 77       		.byte	0x77
 1858 0359 29000000 		.4byte	0x29
 1859 035d 02       		.byte	0x2
 1860 035e 23       		.byte	0x23
 1861 035f 04       		.uleb128 0x4
 1862 0360 00       		.byte	0
 1863 0361 05       		.uleb128 0x5
 1864 0362 04       		.byte	0x4
 1865 0363 6D000000 		.4byte	0x6d
 1866 0367 10       		.uleb128 0x10
 1867 0368 D41E0000 		.4byte	.LASF54
 1868 036c 68       		.byte	0x68
 1869 036d 06       		.byte	0x6
 1870 036e B5       		.byte	0xb5
 1871 036f C1040000 		.4byte	0x4c1
 1872 0373 11       		.uleb128 0x11
 1873 0374 5F7000   		.ascii	"_p\000"
 1874 0377 06       		.byte	0x6
 1875 0378 B6       		.byte	0xb6
 1876 0379 61030000 		.4byte	0x361
 1877 037d 02       		.byte	0x2
 1878 037e 23       		.byte	0x23
 1879 037f 00       		.uleb128 0
 1880 0380 11       		.uleb128 0x11
 1881 0381 5F7200   		.ascii	"_r\000"
 1882 0384 06       		.byte	0x6
 1883 0385 B7       		.byte	0xb7
 1884 0386 29000000 		.4byte	0x29
 1885 038a 02       		.byte	0x2
 1886 038b 23       		.byte	0x23
 1887 038c 04       		.uleb128 0x4
 1888 038d 11       		.uleb128 0x11
 1889 038e 5F7700   		.ascii	"_w\000"
 1890 0391 06       		.byte	0x6
 1891 0392 B8       		.byte	0xb8
 1892 0393 29000000 		.4byte	0x29
 1893 0397 02       		.byte	0x2
 1894 0398 23       		.byte	0x23
ARM GAS  C:\Users\EBANO_~1\AppData\Local\Temp\ccD2gIpL.s 			page 56


 1895 0399 08       		.uleb128 0x8
 1896 039a 0D       		.uleb128 0xd
 1897 039b 8E020000 		.4byte	.LASF55
 1898 039f 06       		.byte	0x6
 1899 03a0 B9       		.byte	0xb9
 1900 03a1 7F000000 		.4byte	0x7f
 1901 03a5 02       		.byte	0x2
 1902 03a6 23       		.byte	0x23
 1903 03a7 0C       		.uleb128 0xc
 1904 03a8 0D       		.uleb128 0xd
 1905 03a9 B51E0000 		.4byte	.LASF56
 1906 03ad 06       		.byte	0x6
 1907 03ae BA       		.byte	0xba
 1908 03af 7F000000 		.4byte	0x7f
 1909 03b3 02       		.byte	0x2
 1910 03b4 23       		.byte	0x23
 1911 03b5 0E       		.uleb128 0xe
 1912 03b6 11       		.uleb128 0x11
 1913 03b7 5F626600 		.ascii	"_bf\000"
 1914 03bb 06       		.byte	0x6
 1915 03bc BB       		.byte	0xbb
 1916 03bd 38030000 		.4byte	0x338
 1917 03c1 02       		.byte	0x2
 1918 03c2 23       		.byte	0x23
 1919 03c3 10       		.uleb128 0x10
 1920 03c4 0D       		.uleb128 0xd
 1921 03c5 15050000 		.4byte	.LASF57
 1922 03c9 06       		.byte	0x6
 1923 03ca BC       		.byte	0xbc
 1924 03cb 29000000 		.4byte	0x29
 1925 03cf 02       		.byte	0x2
 1926 03d0 23       		.byte	0x23
 1927 03d1 18       		.uleb128 0x18
 1928 03d2 0D       		.uleb128 0xd
 1929 03d3 63110000 		.4byte	.LASF58
 1930 03d7 06       		.byte	0x6
 1931 03d8 C3       		.byte	0xc3
 1932 03d9 5B010000 		.4byte	0x15b
 1933 03dd 02       		.byte	0x2
 1934 03de 23       		.byte	0x23
 1935 03df 1C       		.uleb128 0x1c
 1936 03e0 0D       		.uleb128 0xd
 1937 03e1 37290000 		.4byte	.LASF59
 1938 03e5 06       		.byte	0x6
 1939 03e6 C5       		.byte	0xc5
 1940 03e7 49060000 		.4byte	0x649
 1941 03eb 02       		.byte	0x2
 1942 03ec 23       		.byte	0x23
 1943 03ed 20       		.uleb128 0x20
 1944 03ee 0D       		.uleb128 0xd
 1945 03ef C80A0000 		.4byte	.LASF60
 1946 03f3 06       		.byte	0x6
 1947 03f4 C7       		.byte	0xc7
 1948 03f5 74060000 		.4byte	0x674
 1949 03f9 02       		.byte	0x2
 1950 03fa 23       		.byte	0x23
 1951 03fb 24       		.uleb128 0x24
ARM GAS  C:\Users\EBANO_~1\AppData\Local\Temp\ccD2gIpL.s 			page 57


 1952 03fc 0D       		.uleb128 0xd
 1953 03fd 59150000 		.4byte	.LASF61
 1954 0401 06       		.byte	0x6
 1955 0402 CA       		.byte	0xca
 1956 0403 99060000 		.4byte	0x699
 1957 0407 02       		.byte	0x2
 1958 0408 23       		.byte	0x23
 1959 0409 28       		.uleb128 0x28
 1960 040a 0D       		.uleb128 0xd
 1961 040b 5C1B0000 		.4byte	.LASF62
 1962 040f 06       		.byte	0x6
 1963 0410 CB       		.byte	0xcb
 1964 0411 B4060000 		.4byte	0x6b4
 1965 0415 02       		.byte	0x2
 1966 0416 23       		.byte	0x23
 1967 0417 2C       		.uleb128 0x2c
 1968 0418 11       		.uleb128 0x11
 1969 0419 5F756200 		.ascii	"_ub\000"
 1970 041d 06       		.byte	0x6
 1971 041e CE       		.byte	0xce
 1972 041f 38030000 		.4byte	0x338
 1973 0423 02       		.byte	0x2
 1974 0424 23       		.byte	0x23
 1975 0425 30       		.uleb128 0x30
 1976 0426 11       		.uleb128 0x11
 1977 0427 5F757000 		.ascii	"_up\000"
 1978 042b 06       		.byte	0x6
 1979 042c CF       		.byte	0xcf
 1980 042d 61030000 		.4byte	0x361
 1981 0431 02       		.byte	0x2
 1982 0432 23       		.byte	0x23
 1983 0433 38       		.uleb128 0x38
 1984 0434 11       		.uleb128 0x11
 1985 0435 5F757200 		.ascii	"_ur\000"
 1986 0439 06       		.byte	0x6
 1987 043a D0       		.byte	0xd0
 1988 043b 29000000 		.4byte	0x29
 1989 043f 02       		.byte	0x2
 1990 0440 23       		.byte	0x23
 1991 0441 3C       		.uleb128 0x3c
 1992 0442 0D       		.uleb128 0xd
 1993 0443 F61D0000 		.4byte	.LASF63
 1994 0447 06       		.byte	0x6
 1995 0448 D3       		.byte	0xd3
 1996 0449 BA060000 		.4byte	0x6ba
 1997 044d 02       		.byte	0x2
 1998 044e 23       		.byte	0x23
 1999 044f 40       		.uleb128 0x40
 2000 0450 0D       		.uleb128 0xd
 2001 0451 34030000 		.4byte	.LASF64
 2002 0455 06       		.byte	0x6
 2003 0456 D4       		.byte	0xd4
 2004 0457 CA060000 		.4byte	0x6ca
 2005 045b 02       		.byte	0x2
 2006 045c 23       		.byte	0x23
 2007 045d 43       		.uleb128 0x43
 2008 045e 11       		.uleb128 0x11
ARM GAS  C:\Users\EBANO_~1\AppData\Local\Temp\ccD2gIpL.s 			page 58


 2009 045f 5F6C6200 		.ascii	"_lb\000"
 2010 0463 06       		.byte	0x6
 2011 0464 D7       		.byte	0xd7
 2012 0465 38030000 		.4byte	0x338
 2013 0469 02       		.byte	0x2
 2014 046a 23       		.byte	0x23
 2015 046b 44       		.uleb128 0x44
 2016 046c 0D       		.uleb128 0xd
 2017 046d DC1D0000 		.4byte	.LASF65
 2018 0471 06       		.byte	0x6
 2019 0472 DA       		.byte	0xda
 2020 0473 29000000 		.4byte	0x29
 2021 0477 02       		.byte	0x2
 2022 0478 23       		.byte	0x23
 2023 0479 4C       		.uleb128 0x4c
 2024 047a 0D       		.uleb128 0xd
 2025 047b C0160000 		.4byte	.LASF66
 2026 047f 06       		.byte	0x6
 2027 0480 DB       		.byte	0xdb
 2028 0481 CF000000 		.4byte	0xcf
 2029 0485 02       		.byte	0x2
 2030 0486 23       		.byte	0x23
 2031 0487 50       		.uleb128 0x50
 2032 0488 0D       		.uleb128 0xd
 2033 0489 92050000 		.4byte	.LASF67
 2034 048d 06       		.byte	0x6
 2035 048e DE       		.byte	0xde
 2036 048f E0040000 		.4byte	0x4e0
 2037 0493 02       		.byte	0x2
 2038 0494 23       		.byte	0x23
 2039 0495 54       		.uleb128 0x54
 2040 0496 0D       		.uleb128 0xd
 2041 0497 2E030000 		.4byte	.LASF68
 2042 049b 06       		.byte	0x6
 2043 049c E2       		.byte	0xe2
 2044 049d 50010000 		.4byte	0x150
 2045 04a1 02       		.byte	0x2
 2046 04a2 23       		.byte	0x23
 2047 04a3 58       		.uleb128 0x58
 2048 04a4 0D       		.uleb128 0xd
 2049 04a5 20010000 		.4byte	.LASF69
 2050 04a9 06       		.byte	0x6
 2051 04aa E4       		.byte	0xe4
 2052 04ab 45010000 		.4byte	0x145
 2053 04af 02       		.byte	0x2
 2054 04b0 23       		.byte	0x23
 2055 04b1 5C       		.uleb128 0x5c
 2056 04b2 0D       		.uleb128 0xd
 2057 04b3 60250000 		.4byte	.LASF70
 2058 04b7 06       		.byte	0x6
 2059 04b8 E5       		.byte	0xe5
 2060 04b9 29000000 		.4byte	0x29
 2061 04bd 02       		.byte	0x2
 2062 04be 23       		.byte	0x23
 2063 04bf 64       		.uleb128 0x64
 2064 04c0 00       		.byte	0
 2065 04c1 14       		.uleb128 0x14
ARM GAS  C:\Users\EBANO_~1\AppData\Local\Temp\ccD2gIpL.s 			page 59


 2066 04c2 01       		.byte	0x1
 2067 04c3 29000000 		.4byte	0x29
 2068 04c7 E0040000 		.4byte	0x4e0
 2069 04cb 15       		.uleb128 0x15
 2070 04cc E0040000 		.4byte	0x4e0
 2071 04d0 15       		.uleb128 0x15
 2072 04d1 5B010000 		.4byte	0x15b
 2073 04d5 15       		.uleb128 0x15
 2074 04d6 5D010000 		.4byte	0x15d
 2075 04da 15       		.uleb128 0x15
 2076 04db 29000000 		.4byte	0x29
 2077 04df 00       		.byte	0
 2078 04e0 05       		.uleb128 0x5
 2079 04e1 04       		.byte	0x4
 2080 04e2 EB040000 		.4byte	0x4eb
 2081 04e6 0F       		.uleb128 0xf
 2082 04e7 E0040000 		.4byte	0x4e0
 2083 04eb 16       		.uleb128 0x16
 2084 04ec ED050000 		.4byte	.LASF71
 2085 04f0 2804     		.2byte	0x428
 2086 04f2 06       		.byte	0x6
 2087 04f3 6002     		.2byte	0x260
 2088 04f5 49060000 		.4byte	0x649
 2089 04f9 17       		.uleb128 0x17
 2090 04fa 74100000 		.4byte	.LASF72
 2091 04fe 06       		.byte	0x6
 2092 04ff 6202     		.2byte	0x262
 2093 0501 29000000 		.4byte	0x29
 2094 0505 02       		.byte	0x2
 2095 0506 23       		.byte	0x23
 2096 0507 00       		.uleb128 0
 2097 0508 17       		.uleb128 0x17
 2098 0509 690D0000 		.4byte	.LASF73
 2099 050d 06       		.byte	0x6
 2100 050e 6702     		.2byte	0x267
 2101 0510 27070000 		.4byte	0x727
 2102 0514 02       		.byte	0x2
 2103 0515 23       		.byte	0x23
 2104 0516 04       		.uleb128 0x4
 2105 0517 17       		.uleb128 0x17
 2106 0518 3B090000 		.4byte	.LASF74
 2107 051c 06       		.byte	0x6
 2108 051d 6702     		.2byte	0x267
 2109 051f 27070000 		.4byte	0x727
 2110 0523 02       		.byte	0x2
 2111 0524 23       		.byte	0x23
 2112 0525 08       		.uleb128 0x8
 2113 0526 17       		.uleb128 0x17
 2114 0527 71080000 		.4byte	.LASF75
 2115 052b 06       		.byte	0x6
 2116 052c 6702     		.2byte	0x267
 2117 052e 27070000 		.4byte	0x727
 2118 0532 02       		.byte	0x2
 2119 0533 23       		.byte	0x23
 2120 0534 0C       		.uleb128 0xc
 2121 0535 17       		.uleb128 0x17
 2122 0536 BD010000 		.4byte	.LASF76
ARM GAS  C:\Users\EBANO_~1\AppData\Local\Temp\ccD2gIpL.s 			page 60


 2123 053a 06       		.byte	0x6
 2124 053b 6902     		.2byte	0x269
 2125 053d 29000000 		.4byte	0x29
 2126 0541 02       		.byte	0x2
 2127 0542 23       		.byte	0x23
 2128 0543 10       		.uleb128 0x10
 2129 0544 17       		.uleb128 0x17
 2130 0545 ED180000 		.4byte	.LASF77
 2131 0549 06       		.byte	0x6
 2132 054a 6A02     		.2byte	0x26a
 2133 054c 42090000 		.4byte	0x942
 2134 0550 02       		.byte	0x2
 2135 0551 23       		.byte	0x23
 2136 0552 14       		.uleb128 0x14
 2137 0553 17       		.uleb128 0x17
 2138 0554 B1230000 		.4byte	.LASF78
 2139 0558 06       		.byte	0x6
 2140 0559 6D02     		.2byte	0x26d
 2141 055b 29000000 		.4byte	0x29
 2142 055f 02       		.byte	0x2
 2143 0560 23       		.byte	0x23
 2144 0561 30       		.uleb128 0x30
 2145 0562 17       		.uleb128 0x17
 2146 0563 A4250000 		.4byte	.LASF79
 2147 0567 06       		.byte	0x6
 2148 0568 6E02     		.2byte	0x26e
 2149 056a 58090000 		.4byte	0x958
 2150 056e 02       		.byte	0x2
 2151 056f 23       		.byte	0x23
 2152 0570 34       		.uleb128 0x34
 2153 0571 17       		.uleb128 0x17
 2154 0572 E4230000 		.4byte	.LASF80
 2155 0576 06       		.byte	0x6
 2156 0577 7002     		.2byte	0x270
 2157 0579 29000000 		.4byte	0x29
 2158 057d 02       		.byte	0x2
 2159 057e 23       		.byte	0x23
 2160 057f 38       		.uleb128 0x38
 2161 0580 17       		.uleb128 0x17
 2162 0581 361E0000 		.4byte	.LASF81
 2163 0585 06       		.byte	0x6
 2164 0586 7202     		.2byte	0x272
 2165 0588 6A090000 		.4byte	0x96a
 2166 058c 02       		.byte	0x2
 2167 058d 23       		.byte	0x23
 2168 058e 3C       		.uleb128 0x3c
 2169 058f 17       		.uleb128 0x17
 2170 0590 79080000 		.4byte	.LASF82
 2171 0594 06       		.byte	0x6
 2172 0595 7502     		.2byte	0x275
 2173 0597 D9010000 		.4byte	0x1d9
 2174 059b 02       		.byte	0x2
 2175 059c 23       		.byte	0x23
 2176 059d 40       		.uleb128 0x40
 2177 059e 17       		.uleb128 0x17
 2178 059f 67080000 		.4byte	.LASF83
 2179 05a3 06       		.byte	0x6
ARM GAS  C:\Users\EBANO_~1\AppData\Local\Temp\ccD2gIpL.s 			page 61


 2180 05a4 7602     		.2byte	0x276
 2181 05a6 29000000 		.4byte	0x29
 2182 05aa 02       		.byte	0x2
 2183 05ab 23       		.byte	0x23
 2184 05ac 44       		.uleb128 0x44
 2185 05ad 17       		.uleb128 0x17
 2186 05ae 57200000 		.4byte	.LASF84
 2187 05b2 06       		.byte	0x6
 2188 05b3 7702     		.2byte	0x277
 2189 05b5 D9010000 		.4byte	0x1d9
 2190 05b9 02       		.byte	0x2
 2191 05ba 23       		.byte	0x23
 2192 05bb 48       		.uleb128 0x48
 2193 05bc 17       		.uleb128 0x17
 2194 05bd 77160000 		.4byte	.LASF85
 2195 05c1 06       		.byte	0x6
 2196 05c2 7802     		.2byte	0x278
 2197 05c4 70090000 		.4byte	0x970
 2198 05c8 02       		.byte	0x2
 2199 05c9 23       		.byte	0x23
 2200 05ca 4C       		.uleb128 0x4c
 2201 05cb 17       		.uleb128 0x17
 2202 05cc AF020000 		.4byte	.LASF86
 2203 05d0 06       		.byte	0x6
 2204 05d1 7B02     		.2byte	0x27b
 2205 05d3 29000000 		.4byte	0x29
 2206 05d7 02       		.byte	0x2
 2207 05d8 23       		.byte	0x23
 2208 05d9 50       		.uleb128 0x50
 2209 05da 17       		.uleb128 0x17
 2210 05db B40E0000 		.4byte	.LASF87
 2211 05df 06       		.byte	0x6
 2212 05e0 7C02     		.2byte	0x27c
 2213 05e2 5D010000 		.4byte	0x15d
 2214 05e6 02       		.byte	0x2
 2215 05e7 23       		.byte	0x23
 2216 05e8 54       		.uleb128 0x54
 2217 05e9 17       		.uleb128 0x17
 2218 05ea 03100000 		.4byte	.LASF88
 2219 05ee 06       		.byte	0x6
 2220 05ef 9F02     		.2byte	0x29f
 2221 05f1 20090000 		.4byte	0x920
 2222 05f5 02       		.byte	0x2
 2223 05f6 23       		.byte	0x23
 2224 05f7 58       		.uleb128 0x58
 2225 05f8 17       		.uleb128 0x17
 2226 05f9 29010000 		.4byte	.LASF48
 2227 05fd 06       		.byte	0x6
 2228 05fe A302     		.2byte	0x2a3
 2229 0600 1A030000 		.4byte	0x31a
 2230 0604 03       		.byte	0x3
 2231 0605 23       		.byte	0x23
 2232 0606 C802     		.uleb128 0x148
 2233 0608 17       		.uleb128 0x17
 2234 0609 191D0000 		.4byte	.LASF89
 2235 060d 06       		.byte	0x6
 2236 060e A402     		.2byte	0x2a4
ARM GAS  C:\Users\EBANO_~1\AppData\Local\Temp\ccD2gIpL.s 			page 62


 2237 0610 D3020000 		.4byte	0x2d3
 2238 0614 03       		.byte	0x3
 2239 0615 23       		.byte	0x23
 2240 0616 CC02     		.uleb128 0x14c
 2241 0618 17       		.uleb128 0x17
 2242 0619 E6020000 		.4byte	.LASF90
 2243 061d 06       		.byte	0x6
 2244 061e A802     		.2byte	0x2a8
 2245 0620 82090000 		.4byte	0x982
 2246 0624 03       		.byte	0x3
 2247 0625 23       		.byte	0x23
 2248 0626 DC05     		.uleb128 0x2dc
 2249 0628 17       		.uleb128 0x17
 2250 0629 161E0000 		.4byte	.LASF91
 2251 062d 06       		.byte	0x6
 2252 062e AD02     		.2byte	0x2ad
 2253 0630 E6060000 		.4byte	0x6e6
 2254 0634 03       		.byte	0x3
 2255 0635 23       		.byte	0x23
 2256 0636 E005     		.uleb128 0x2e0
 2257 0638 17       		.uleb128 0x17
 2258 0639 62060000 		.4byte	.LASF92
 2259 063d 06       		.byte	0x6
 2260 063e AF02     		.2byte	0x2af
 2261 0640 8E090000 		.4byte	0x98e
 2262 0644 03       		.byte	0x3
 2263 0645 23       		.byte	0x23
 2264 0646 EC05     		.uleb128 0x2ec
 2265 0648 00       		.byte	0
 2266 0649 05       		.uleb128 0x5
 2267 064a 04       		.byte	0x4
 2268 064b C1040000 		.4byte	0x4c1
 2269 064f 14       		.uleb128 0x14
 2270 0650 01       		.byte	0x1
 2271 0651 29000000 		.4byte	0x29
 2272 0655 6E060000 		.4byte	0x66e
 2273 0659 15       		.uleb128 0x15
 2274 065a E0040000 		.4byte	0x4e0
 2275 065e 15       		.uleb128 0x15
 2276 065f 5B010000 		.4byte	0x15b
 2277 0663 15       		.uleb128 0x15
 2278 0664 6E060000 		.4byte	0x66e
 2279 0668 15       		.uleb128 0x15
 2280 0669 29000000 		.4byte	0x29
 2281 066d 00       		.byte	0
 2282 066e 05       		.uleb128 0x5
 2283 066f 04       		.byte	0x4
 2284 0670 6A010000 		.4byte	0x16a
 2285 0674 05       		.uleb128 0x5
 2286 0675 04       		.byte	0x4
 2287 0676 4F060000 		.4byte	0x64f
 2288 067a 14       		.uleb128 0x14
 2289 067b 01       		.byte	0x1
 2290 067c DA000000 		.4byte	0xda
 2291 0680 99060000 		.4byte	0x699
 2292 0684 15       		.uleb128 0x15
 2293 0685 E0040000 		.4byte	0x4e0
ARM GAS  C:\Users\EBANO_~1\AppData\Local\Temp\ccD2gIpL.s 			page 63


 2294 0689 15       		.uleb128 0x15
 2295 068a 5B010000 		.4byte	0x15b
 2296 068e 15       		.uleb128 0x15
 2297 068f DA000000 		.4byte	0xda
 2298 0693 15       		.uleb128 0x15
 2299 0694 29000000 		.4byte	0x29
 2300 0698 00       		.byte	0
 2301 0699 05       		.uleb128 0x5
 2302 069a 04       		.byte	0x4
 2303 069b 7A060000 		.4byte	0x67a
 2304 069f 14       		.uleb128 0x14
 2305 06a0 01       		.byte	0x1
 2306 06a1 29000000 		.4byte	0x29
 2307 06a5 B4060000 		.4byte	0x6b4
 2308 06a9 15       		.uleb128 0x15
 2309 06aa E0040000 		.4byte	0x4e0
 2310 06ae 15       		.uleb128 0x15
 2311 06af 5B010000 		.4byte	0x15b
 2312 06b3 00       		.byte	0
 2313 06b4 05       		.uleb128 0x5
 2314 06b5 04       		.byte	0x4
 2315 06b6 9F060000 		.4byte	0x69f
 2316 06ba 0A       		.uleb128 0xa
 2317 06bb 6D000000 		.4byte	0x6d
 2318 06bf CA060000 		.4byte	0x6ca
 2319 06c3 0B       		.uleb128 0xb
 2320 06c4 3B000000 		.4byte	0x3b
 2321 06c8 02       		.byte	0x2
 2322 06c9 00       		.byte	0
 2323 06ca 0A       		.uleb128 0xa
 2324 06cb 6D000000 		.4byte	0x6d
 2325 06cf DA060000 		.4byte	0x6da
 2326 06d3 0B       		.uleb128 0xb
 2327 06d4 3B000000 		.4byte	0x3b
 2328 06d8 00       		.byte	0
 2329 06d9 00       		.byte	0
 2330 06da 07       		.uleb128 0x7
 2331 06db E0260000 		.4byte	.LASF93
 2332 06df 06       		.byte	0x6
 2333 06e0 1F01     		.2byte	0x11f
 2334 06e2 67030000 		.4byte	0x367
 2335 06e6 18       		.uleb128 0x18
 2336 06e7 951B0000 		.4byte	.LASF94
 2337 06eb 0C       		.byte	0xc
 2338 06ec 06       		.byte	0x6
 2339 06ed 2301     		.2byte	0x123
 2340 06ef 21070000 		.4byte	0x721
 2341 06f3 17       		.uleb128 0x17
 2342 06f4 39110000 		.4byte	.LASF28
 2343 06f8 06       		.byte	0x6
 2344 06f9 2501     		.2byte	0x125
 2345 06fb 21070000 		.4byte	0x721
 2346 06ff 02       		.byte	0x2
 2347 0700 23       		.byte	0x23
 2348 0701 00       		.uleb128 0
 2349 0702 17       		.uleb128 0x17
 2350 0703 1C100000 		.4byte	.LASF95
ARM GAS  C:\Users\EBANO_~1\AppData\Local\Temp\ccD2gIpL.s 			page 64


 2351 0707 06       		.byte	0x6
 2352 0708 2601     		.2byte	0x126
 2353 070a 29000000 		.4byte	0x29
 2354 070e 02       		.byte	0x2
 2355 070f 23       		.byte	0x23
 2356 0710 04       		.uleb128 0x4
 2357 0711 17       		.uleb128 0x17
 2358 0712 D0180000 		.4byte	.LASF96
 2359 0716 06       		.byte	0x6
 2360 0717 2701     		.2byte	0x127
 2361 0719 27070000 		.4byte	0x727
 2362 071d 02       		.byte	0x2
 2363 071e 23       		.byte	0x23
 2364 071f 08       		.uleb128 0x8
 2365 0720 00       		.byte	0
 2366 0721 05       		.uleb128 0x5
 2367 0722 04       		.byte	0x4
 2368 0723 E6060000 		.4byte	0x6e6
 2369 0727 05       		.uleb128 0x5
 2370 0728 04       		.byte	0x4
 2371 0729 DA060000 		.4byte	0x6da
 2372 072d 18       		.uleb128 0x18
 2373 072e 43290000 		.4byte	.LASF97
 2374 0732 0E       		.byte	0xe
 2375 0733 06       		.byte	0x6
 2376 0734 3F01     		.2byte	0x13f
 2377 0736 68070000 		.4byte	0x768
 2378 073a 17       		.uleb128 0x17
 2379 073b 53150000 		.4byte	.LASF98
 2380 073f 06       		.byte	0x6
 2381 0740 4001     		.2byte	0x140
 2382 0742 68070000 		.4byte	0x768
 2383 0746 02       		.byte	0x2
 2384 0747 23       		.byte	0x23
 2385 0748 00       		.uleb128 0
 2386 0749 17       		.uleb128 0x17
 2387 074a 620C0000 		.4byte	.LASF99
 2388 074e 06       		.byte	0x6
 2389 074f 4101     		.2byte	0x141
 2390 0751 68070000 		.4byte	0x768
 2391 0755 02       		.byte	0x2
 2392 0756 23       		.byte	0x23
 2393 0757 06       		.uleb128 0x6
 2394 0758 17       		.uleb128 0x17
 2395 0759 5A040000 		.4byte	.LASF100
 2396 075d 06       		.byte	0x6
 2397 075e 4201     		.2byte	0x142
 2398 0760 91000000 		.4byte	0x91
 2399 0764 02       		.byte	0x2
 2400 0765 23       		.byte	0x23
 2401 0766 0C       		.uleb128 0xc
 2402 0767 00       		.byte	0
 2403 0768 0A       		.uleb128 0xa
 2404 0769 91000000 		.4byte	0x91
 2405 076d 78070000 		.4byte	0x778
 2406 0771 0B       		.uleb128 0xb
 2407 0772 3B000000 		.4byte	0x3b
ARM GAS  C:\Users\EBANO_~1\AppData\Local\Temp\ccD2gIpL.s 			page 65


 2408 0776 02       		.byte	0x2
 2409 0777 00       		.byte	0
 2410 0778 19       		.uleb128 0x19
 2411 0779 D0       		.byte	0xd0
 2412 077a 06       		.byte	0x6
 2413 077b 8002     		.2byte	0x280
 2414 077d A8080000 		.4byte	0x8a8
 2415 0781 17       		.uleb128 0x17
 2416 0782 27080000 		.4byte	.LASF101
 2417 0786 06       		.byte	0x6
 2418 0787 8202     		.2byte	0x282
 2419 0789 3B000000 		.4byte	0x3b
 2420 078d 02       		.byte	0x2
 2421 078e 23       		.byte	0x23
 2422 078f 00       		.uleb128 0
 2423 0790 17       		.uleb128 0x17
 2424 0791 05150000 		.4byte	.LASF102
 2425 0795 06       		.byte	0x6
 2426 0796 8302     		.2byte	0x283
 2427 0798 5D010000 		.4byte	0x15d
 2428 079c 02       		.byte	0x2
 2429 079d 23       		.byte	0x23
 2430 079e 04       		.uleb128 0x4
 2431 079f 17       		.uleb128 0x17
 2432 07a0 45170000 		.4byte	.LASF103
 2433 07a4 06       		.byte	0x6
 2434 07a5 8402     		.2byte	0x284
 2435 07a7 A8080000 		.4byte	0x8a8
 2436 07ab 02       		.byte	0x2
 2437 07ac 23       		.byte	0x23
 2438 07ad 08       		.uleb128 0x8
 2439 07ae 17       		.uleb128 0x17
 2440 07af 3C0E0000 		.4byte	.LASF104
 2441 07b3 06       		.byte	0x6
 2442 07b4 8502     		.2byte	0x285
 2443 07b6 EF010000 		.4byte	0x1ef
 2444 07ba 02       		.byte	0x2
 2445 07bb 23       		.byte	0x23
 2446 07bc 24       		.uleb128 0x24
 2447 07bd 17       		.uleb128 0x17
 2448 07be 30220000 		.4byte	.LASF105
 2449 07c2 06       		.byte	0x6
 2450 07c3 8602     		.2byte	0x286
 2451 07c5 29000000 		.4byte	0x29
 2452 07c9 02       		.byte	0x2
 2453 07ca 23       		.byte	0x23
 2454 07cb 48       		.uleb128 0x48
 2455 07cc 17       		.uleb128 0x17
 2456 07cd 2A190000 		.4byte	.LASF106
 2457 07d1 06       		.byte	0x6
 2458 07d2 8702     		.2byte	0x287
 2459 07d4 B1000000 		.4byte	0xb1
 2460 07d8 02       		.byte	0x2
 2461 07d9 23       		.byte	0x23
 2462 07da 50       		.uleb128 0x50
 2463 07db 17       		.uleb128 0x17
 2464 07dc 2C280000 		.4byte	.LASF107
ARM GAS  C:\Users\EBANO_~1\AppData\Local\Temp\ccD2gIpL.s 			page 66


 2465 07e0 06       		.byte	0x6
 2466 07e1 8802     		.2byte	0x288
 2467 07e3 2D070000 		.4byte	0x72d
 2468 07e7 02       		.byte	0x2
 2469 07e8 23       		.byte	0x23
 2470 07e9 58       		.uleb128 0x58
 2471 07ea 17       		.uleb128 0x17
 2472 07eb 091E0000 		.4byte	.LASF108
 2473 07ef 06       		.byte	0x6
 2474 07f0 8902     		.2byte	0x289
 2475 07f2 45010000 		.4byte	0x145
 2476 07f6 02       		.byte	0x2
 2477 07f7 23       		.byte	0x23
 2478 07f8 68       		.uleb128 0x68
 2479 07f9 17       		.uleb128 0x17
 2480 07fa 9B060000 		.4byte	.LASF109
 2481 07fe 06       		.byte	0x6
 2482 07ff 8A02     		.2byte	0x28a
 2483 0801 45010000 		.4byte	0x145
 2484 0805 02       		.byte	0x2
 2485 0806 23       		.byte	0x23
 2486 0807 70       		.uleb128 0x70
 2487 0808 17       		.uleb128 0x17
 2488 0809 65180000 		.4byte	.LASF110
 2489 080d 06       		.byte	0x6
 2490 080e 8B02     		.2byte	0x28b
 2491 0810 45010000 		.4byte	0x145
 2492 0814 02       		.byte	0x2
 2493 0815 23       		.byte	0x23
 2494 0816 78       		.uleb128 0x78
 2495 0817 17       		.uleb128 0x17
 2496 0818 FB160000 		.4byte	.LASF111
 2497 081c 06       		.byte	0x6
 2498 081d 8C02     		.2byte	0x28c
 2499 081f B8080000 		.4byte	0x8b8
 2500 0823 03       		.byte	0x3
 2501 0824 23       		.byte	0x23
 2502 0825 8001     		.uleb128 0x80
 2503 0827 17       		.uleb128 0x17
 2504 0828 51110000 		.4byte	.LASF112
 2505 082c 06       		.byte	0x6
 2506 082d 8D02     		.2byte	0x28d
 2507 082f C8080000 		.4byte	0x8c8
 2508 0833 03       		.byte	0x3
 2509 0834 23       		.byte	0x23
 2510 0835 8801     		.uleb128 0x88
 2511 0837 17       		.uleb128 0x17
 2512 0838 601D0000 		.4byte	.LASF113
 2513 083c 06       		.byte	0x6
 2514 083d 8E02     		.2byte	0x28e
 2515 083f 29000000 		.4byte	0x29
 2516 0843 03       		.byte	0x3
 2517 0844 23       		.byte	0x23
 2518 0845 A001     		.uleb128 0xa0
 2519 0847 17       		.uleb128 0x17
 2520 0848 9F0C0000 		.4byte	.LASF114
 2521 084c 06       		.byte	0x6
ARM GAS  C:\Users\EBANO_~1\AppData\Local\Temp\ccD2gIpL.s 			page 67


 2522 084d 8F02     		.2byte	0x28f
 2523 084f 45010000 		.4byte	0x145
 2524 0853 03       		.byte	0x3
 2525 0854 23       		.byte	0x23
 2526 0855 A401     		.uleb128 0xa4
 2527 0857 17       		.uleb128 0x17
 2528 0858 C60F0000 		.4byte	.LASF115
 2529 085c 06       		.byte	0x6
 2530 085d 9002     		.2byte	0x290
 2531 085f 45010000 		.4byte	0x145
 2532 0863 03       		.byte	0x3
 2533 0864 23       		.byte	0x23
 2534 0865 AC01     		.uleb128 0xac
 2535 0867 17       		.uleb128 0x17
 2536 0868 81090000 		.4byte	.LASF116
 2537 086c 06       		.byte	0x6
 2538 086d 9102     		.2byte	0x291
 2539 086f 45010000 		.4byte	0x145
 2540 0873 03       		.byte	0x3
 2541 0874 23       		.byte	0x23
 2542 0875 B401     		.uleb128 0xb4
 2543 0877 17       		.uleb128 0x17
 2544 0878 DB130000 		.4byte	.LASF117
 2545 087c 06       		.byte	0x6
 2546 087d 9202     		.2byte	0x292
 2547 087f 45010000 		.4byte	0x145
 2548 0883 03       		.byte	0x3
 2549 0884 23       		.byte	0x23
 2550 0885 BC01     		.uleb128 0xbc
 2551 0887 17       		.uleb128 0x17
 2552 0888 92170000 		.4byte	.LASF118
 2553 088c 06       		.byte	0x6
 2554 088d 9302     		.2byte	0x293
 2555 088f 45010000 		.4byte	0x145
 2556 0893 03       		.byte	0x3
 2557 0894 23       		.byte	0x23
 2558 0895 C401     		.uleb128 0xc4
 2559 0897 17       		.uleb128 0x17
 2560 0898 2F1F0000 		.4byte	.LASF119
 2561 089c 06       		.byte	0x6
 2562 089d 9402     		.2byte	0x294
 2563 089f 29000000 		.4byte	0x29
 2564 08a3 03       		.byte	0x3
 2565 08a4 23       		.byte	0x23
 2566 08a5 CC01     		.uleb128 0xcc
 2567 08a7 00       		.byte	0
 2568 08a8 0A       		.uleb128 0xa
 2569 08a9 63010000 		.4byte	0x163
 2570 08ad B8080000 		.4byte	0x8b8
 2571 08b1 0B       		.uleb128 0xb
 2572 08b2 3B000000 		.4byte	0x3b
 2573 08b6 19       		.byte	0x19
 2574 08b7 00       		.byte	0
 2575 08b8 0A       		.uleb128 0xa
 2576 08b9 63010000 		.4byte	0x163
 2577 08bd C8080000 		.4byte	0x8c8
 2578 08c1 0B       		.uleb128 0xb
ARM GAS  C:\Users\EBANO_~1\AppData\Local\Temp\ccD2gIpL.s 			page 68


 2579 08c2 3B000000 		.4byte	0x3b
 2580 08c6 07       		.byte	0x7
 2581 08c7 00       		.byte	0
 2582 08c8 0A       		.uleb128 0xa
 2583 08c9 63010000 		.4byte	0x163
 2584 08cd D8080000 		.4byte	0x8d8
 2585 08d1 0B       		.uleb128 0xb
 2586 08d2 3B000000 		.4byte	0x3b
 2587 08d6 17       		.byte	0x17
 2588 08d7 00       		.byte	0
 2589 08d8 19       		.uleb128 0x19
 2590 08d9 F0       		.byte	0xf0
 2591 08da 06       		.byte	0x6
 2592 08db 9902     		.2byte	0x299
 2593 08dd 00090000 		.4byte	0x900
 2594 08e1 17       		.uleb128 0x17
 2595 08e2 23190000 		.4byte	.LASF120
 2596 08e6 06       		.byte	0x6
 2597 08e7 9C02     		.2byte	0x29c
 2598 08e9 00090000 		.4byte	0x900
 2599 08ed 02       		.byte	0x2
 2600 08ee 23       		.byte	0x23
 2601 08ef 00       		.uleb128 0
 2602 08f0 17       		.uleb128 0x17
 2603 08f1 7F0D0000 		.4byte	.LASF121
 2604 08f5 06       		.byte	0x6
 2605 08f6 9D02     		.2byte	0x29d
 2606 08f8 10090000 		.4byte	0x910
 2607 08fc 02       		.byte	0x2
 2608 08fd 23       		.byte	0x23
 2609 08fe 78       		.uleb128 0x78
 2610 08ff 00       		.byte	0
 2611 0900 0A       		.uleb128 0xa
 2612 0901 61030000 		.4byte	0x361
 2613 0905 10090000 		.4byte	0x910
 2614 0909 0B       		.uleb128 0xb
 2615 090a 3B000000 		.4byte	0x3b
 2616 090e 1D       		.byte	0x1d
 2617 090f 00       		.byte	0
 2618 0910 0A       		.uleb128 0xa
 2619 0911 3B000000 		.4byte	0x3b
 2620 0915 20090000 		.4byte	0x920
 2621 0919 0B       		.uleb128 0xb
 2622 091a 3B000000 		.4byte	0x3b
 2623 091e 1D       		.byte	0x1d
 2624 091f 00       		.byte	0
 2625 0920 1A       		.uleb128 0x1a
 2626 0921 F0       		.byte	0xf0
 2627 0922 06       		.byte	0x6
 2628 0923 7E02     		.2byte	0x27e
 2629 0925 42090000 		.4byte	0x942
 2630 0929 1B       		.uleb128 0x1b
 2631 092a ED050000 		.4byte	.LASF71
 2632 092e 06       		.byte	0x6
 2633 092f 9502     		.2byte	0x295
 2634 0931 78070000 		.4byte	0x778
 2635 0935 1B       		.uleb128 0x1b
ARM GAS  C:\Users\EBANO_~1\AppData\Local\Temp\ccD2gIpL.s 			page 69


 2636 0936 4F030000 		.4byte	.LASF122
 2637 093a 06       		.byte	0x6
 2638 093b 9E02     		.2byte	0x29e
 2639 093d D8080000 		.4byte	0x8d8
 2640 0941 00       		.byte	0
 2641 0942 0A       		.uleb128 0xa
 2642 0943 63010000 		.4byte	0x163
 2643 0947 52090000 		.4byte	0x952
 2644 094b 0B       		.uleb128 0xb
 2645 094c 3B000000 		.4byte	0x3b
 2646 0950 18       		.byte	0x18
 2647 0951 00       		.byte	0
 2648 0952 06       		.uleb128 0x6
 2649 0953 1E1E0000 		.4byte	.LASF124
 2650 0957 01       		.byte	0x1
 2651 0958 05       		.uleb128 0x5
 2652 0959 04       		.byte	0x4
 2653 095a 52090000 		.4byte	0x952
 2654 095e 1C       		.uleb128 0x1c
 2655 095f 01       		.byte	0x1
 2656 0960 6A090000 		.4byte	0x96a
 2657 0964 15       		.uleb128 0x15
 2658 0965 E0040000 		.4byte	0x4e0
 2659 0969 00       		.byte	0
 2660 096a 05       		.uleb128 0x5
 2661 096b 04       		.byte	0x4
 2662 096c 5E090000 		.4byte	0x95e
 2663 0970 05       		.uleb128 0x5
 2664 0971 04       		.byte	0x4
 2665 0972 D9010000 		.4byte	0x1d9
 2666 0976 1C       		.uleb128 0x1c
 2667 0977 01       		.byte	0x1
 2668 0978 82090000 		.4byte	0x982
 2669 097c 15       		.uleb128 0x15
 2670 097d 29000000 		.4byte	0x29
 2671 0981 00       		.byte	0
 2672 0982 05       		.uleb128 0x5
 2673 0983 04       		.byte	0x4
 2674 0984 88090000 		.4byte	0x988
 2675 0988 05       		.uleb128 0x5
 2676 0989 04       		.byte	0x4
 2677 098a 76090000 		.4byte	0x976
 2678 098e 0A       		.uleb128 0xa
 2679 098f DA060000 		.4byte	0x6da
 2680 0993 9E090000 		.4byte	0x99e
 2681 0997 0B       		.uleb128 0xb
 2682 0998 3B000000 		.4byte	0x3b
 2683 099c 02       		.byte	0x2
 2684 099d 00       		.byte	0
 2685 099e 1D       		.uleb128 0x1d
 2686 099f D01D0000 		.4byte	.LASF125
 2687 09a3 06       		.byte	0x6
 2688 09a4 2E03     		.2byte	0x32e
 2689 09a6 E0040000 		.4byte	0x4e0
 2690 09aa 01       		.byte	0x1
 2691 09ab 01       		.byte	0x1
 2692 09ac 1D       		.uleb128 0x1d
ARM GAS  C:\Users\EBANO_~1\AppData\Local\Temp\ccD2gIpL.s 			page 70


 2693 09ad 9E230000 		.4byte	.LASF126
 2694 09b1 06       		.byte	0x6
 2695 09b2 2F03     		.2byte	0x32f
 2696 09b4 E6040000 		.4byte	0x4e6
 2697 09b8 01       		.byte	0x1
 2698 09b9 01       		.byte	0x1
 2699 09ba 04       		.uleb128 0x4
 2700 09bb 04       		.byte	0x4
 2701 09bc 04       		.byte	0x4
 2702 09bd AF090000 		.4byte	.LASF127
 2703 09c1 04       		.uleb128 0x4
 2704 09c2 08       		.byte	0x8
 2705 09c3 04       		.byte	0x4
 2706 09c4 DC1E0000 		.4byte	.LASF128
 2707 09c8 1E       		.uleb128 0x1e
 2708 09c9 E7170000 		.4byte	.LASF206
 2709 09cd 05       		.byte	0x5
 2710 09ce 01       		.byte	0x1
 2711 09cf 5B000000 		.4byte	0x5b
 2712 09d3 07       		.byte	0x7
 2713 09d4 8202     		.2byte	0x282
 2714 09d6 F3090000 		.4byte	0x9f3
 2715 09da 1F       		.uleb128 0x1f
 2716 09db DA150000 		.4byte	.LASF129
 2717 09df 7F       		.sleb128 -1
 2718 09e0 20       		.uleb128 0x20
 2719 09e1 D8020000 		.4byte	.LASF130
 2720 09e5 00       		.byte	0
 2721 09e6 20       		.uleb128 0x20
 2722 09e7 CB000000 		.4byte	.LASF131
 2723 09eb 01       		.byte	0x1
 2724 09ec 20       		.uleb128 0x20
 2725 09ed EF230000 		.4byte	.LASF132
 2726 09f1 02       		.byte	0x2
 2727 09f2 00       		.byte	0
 2728 09f3 1D       		.uleb128 0x1d
 2729 09f4 EB080000 		.4byte	.LASF133
 2730 09f8 07       		.byte	0x7
 2731 09f9 8D02     		.2byte	0x28d
 2732 09fb C8090000 		.4byte	0x9c8
 2733 09ff 01       		.byte	0x1
 2734 0a00 01       		.byte	0x1
 2735 0a01 03       		.uleb128 0x3
 2736 0a02 1A140000 		.4byte	.LASF134
 2737 0a06 08       		.byte	0x8
 2738 0a07 14       		.byte	0x14
 2739 0a08 50000000 		.4byte	0x50
 2740 0a0c 03       		.uleb128 0x3
 2741 0a0d 530E0000 		.4byte	.LASF135
 2742 0a11 08       		.byte	0x8
 2743 0a12 18       		.byte	0x18
 2744 0a13 62000000 		.4byte	0x62
 2745 0a17 0F       		.uleb128 0xf
 2746 0a18 0C0A0000 		.4byte	0xa0c
 2747 0a1c 03       		.uleb128 0x3
 2748 0a1d 87150000 		.4byte	.LASF136
 2749 0a21 08       		.byte	0x8
ARM GAS  C:\Users\EBANO_~1\AppData\Local\Temp\ccD2gIpL.s 			page 71


 2750 0a22 20       		.byte	0x20
 2751 0a23 74000000 		.4byte	0x74
 2752 0a27 03       		.uleb128 0x3
 2753 0a28 23020000 		.4byte	.LASF137
 2754 0a2c 08       		.byte	0x8
 2755 0a2d 24       		.byte	0x24
 2756 0a2e 86000000 		.4byte	0x86
 2757 0a32 03       		.uleb128 0x3
 2758 0a33 5E190000 		.4byte	.LASF138
 2759 0a37 08       		.byte	0x8
 2760 0a38 30       		.byte	0x30
 2761 0a39 9F000000 		.4byte	0x9f
 2762 0a3d 21       		.uleb128 0x21
 2763 0a3e C8160000 		.4byte	.LASF139
 2764 0a42 09       		.byte	0x9
 2765 0a43 4A       		.byte	0x4a
 2766 0a44 320A0000 		.4byte	0xa32
 2767 0a48 01       		.byte	0x1
 2768 0a49 01       		.byte	0x1
 2769 0a4a 0A       		.uleb128 0xa
 2770 0a4b 170A0000 		.4byte	0xa17
 2771 0a4f 5A0A0000 		.4byte	0xa5a
 2772 0a53 0B       		.uleb128 0xb
 2773 0a54 3B000000 		.4byte	0x3b
 2774 0a58 0F       		.byte	0xf
 2775 0a59 00       		.byte	0
 2776 0a5a 0F       		.uleb128 0xf
 2777 0a5b 4A0A0000 		.4byte	0xa4a
 2778 0a5f 21       		.uleb128 0x21
 2779 0a60 0A260000 		.4byte	.LASF140
 2780 0a64 09       		.byte	0x9
 2781 0a65 4D       		.byte	0x4d
 2782 0a66 5A0A0000 		.4byte	0xa5a
 2783 0a6a 01       		.byte	0x1
 2784 0a6b 01       		.byte	0x1
 2785 0a6c 0A       		.uleb128 0xa
 2786 0a6d 170A0000 		.4byte	0xa17
 2787 0a71 7C0A0000 		.4byte	0xa7c
 2788 0a75 0B       		.uleb128 0xb
 2789 0a76 3B000000 		.4byte	0x3b
 2790 0a7a 07       		.byte	0x7
 2791 0a7b 00       		.byte	0
 2792 0a7c 0F       		.uleb128 0xf
 2793 0a7d 6C0A0000 		.4byte	0xa6c
 2794 0a81 21       		.uleb128 0x21
 2795 0a82 CB1B0000 		.4byte	.LASF141
 2796 0a86 09       		.byte	0x9
 2797 0a87 4E       		.byte	0x4e
 2798 0a88 7C0A0000 		.4byte	0xa7c
 2799 0a8c 01       		.byte	0x1
 2800 0a8d 01       		.byte	0x1
 2801 0a8e 0A       		.uleb128 0xa
 2802 0a8f 170A0000 		.4byte	0xa17
 2803 0a93 9E0A0000 		.4byte	0xa9e
 2804 0a97 0B       		.uleb128 0xb
 2805 0a98 3B000000 		.4byte	0x3b
 2806 0a9c 08       		.byte	0x8
ARM GAS  C:\Users\EBANO_~1\AppData\Local\Temp\ccD2gIpL.s 			page 72


 2807 0a9d 00       		.byte	0
 2808 0a9e 0F       		.uleb128 0xf
 2809 0a9f 8E0A0000 		.4byte	0xa8e
 2810 0aa3 21       		.uleb128 0x21
 2811 0aa4 991E0000 		.4byte	.LASF142
 2812 0aa8 09       		.byte	0x9
 2813 0aa9 4F       		.byte	0x4f
 2814 0aaa 9E0A0000 		.4byte	0xa9e
 2815 0aae 01       		.byte	0x1
 2816 0aaf 01       		.byte	0x1
 2817 0ab0 05       		.uleb128 0x5
 2818 0ab1 04       		.byte	0x4
 2819 0ab2 0C0A0000 		.4byte	0xa0c
 2820 0ab6 21       		.uleb128 0x21
 2821 0ab7 4D1A0000 		.4byte	.LASF143
 2822 0abb 0A       		.byte	0xa
 2823 0abc 63       		.byte	0x63
 2824 0abd 5D010000 		.4byte	0x15d
 2825 0ac1 01       		.byte	0x1
 2826 0ac2 01       		.byte	0x1
 2827 0ac3 03       		.uleb128 0x3
 2828 0ac4 B0200000 		.4byte	.LASF144
 2829 0ac8 0B       		.byte	0xb
 2830 0ac9 3D       		.byte	0x3d
 2831 0aca 320A0000 		.4byte	0xa32
 2832 0ace 10       		.uleb128 0x10
 2833 0acf 170E0000 		.4byte	.LASF145
 2834 0ad3 04       		.byte	0x4
 2835 0ad4 0B       		.byte	0xb
 2836 0ad5 5F       		.byte	0x5f
 2837 0ad6 130B0000 		.4byte	0xb13
 2838 0ada 11       		.uleb128 0x11
 2839 0adb 52667500 		.ascii	"Rfu\000"
 2840 0adf 0B       		.byte	0xb
 2841 0ae0 61       		.byte	0x61
 2842 0ae1 0C0A0000 		.4byte	0xa0c
 2843 0ae5 02       		.byte	0x2
 2844 0ae6 23       		.byte	0x23
 2845 0ae7 00       		.uleb128 0
 2846 0ae8 0D       		.uleb128 0xd
 2847 0ae9 64000000 		.4byte	.LASF146
 2848 0aed 0B       		.byte	0xb
 2849 0aee 62       		.byte	0x62
 2850 0aef 0C0A0000 		.4byte	0xa0c
 2851 0af3 02       		.byte	0x2
 2852 0af4 23       		.byte	0x23
 2853 0af5 01       		.uleb128 0x1
 2854 0af6 0D       		.uleb128 0xd
 2855 0af7 16040000 		.4byte	.LASF147
 2856 0afb 0B       		.byte	0xb
 2857 0afc 63       		.byte	0x63
 2858 0afd 0C0A0000 		.4byte	0xa0c
 2859 0b01 02       		.byte	0x2
 2860 0b02 23       		.byte	0x23
 2861 0b03 02       		.uleb128 0x2
 2862 0b04 0D       		.uleb128 0xd
 2863 0b05 2A230000 		.4byte	.LASF148
ARM GAS  C:\Users\EBANO_~1\AppData\Local\Temp\ccD2gIpL.s 			page 73


 2864 0b09 0B       		.byte	0xb
 2865 0b0a 64       		.byte	0x64
 2866 0b0b 0C0A0000 		.4byte	0xa0c
 2867 0b0f 02       		.byte	0x2
 2868 0b10 23       		.byte	0x23
 2869 0b11 03       		.uleb128 0x3
 2870 0b12 00       		.byte	0
 2871 0b13 22       		.uleb128 0x22
 2872 0b14 2B0E0000 		.4byte	.LASF250
 2873 0b18 04       		.byte	0x4
 2874 0b19 0B       		.byte	0xb
 2875 0b1a 5D       		.byte	0x5d
 2876 0b1b 360B0000 		.4byte	0xb36
 2877 0b1f 09       		.uleb128 0x9
 2878 0b20 BE140000 		.4byte	.LASF149
 2879 0b24 0B       		.byte	0xb
 2880 0b25 65       		.byte	0x65
 2881 0b26 CE0A0000 		.4byte	0xace
 2882 0b2a 09       		.uleb128 0x9
 2883 0b2b 31280000 		.4byte	.LASF150
 2884 0b2f 0B       		.byte	0xb
 2885 0b30 66       		.byte	0x66
 2886 0b31 320A0000 		.4byte	0xa32
 2887 0b35 00       		.byte	0
 2888 0b36 03       		.uleb128 0x3
 2889 0b37 210E0000 		.4byte	.LASF151
 2890 0b3b 0B       		.byte	0xb
 2891 0b3c 67       		.byte	0x67
 2892 0b3d 130B0000 		.4byte	0xb13
 2893 0b41 21       		.uleb128 0x21
 2894 0b42 A9210000 		.4byte	.LASF152
 2895 0b46 0C       		.byte	0xc
 2896 0b47 9A       		.byte	0x9a
 2897 0b48 98000000 		.4byte	0x98
 2898 0b4c 01       		.byte	0x1
 2899 0b4d 01       		.byte	0x1
 2900 0b4e 21       		.uleb128 0x21
 2901 0b4f CD050000 		.4byte	.LASF153
 2902 0b53 0C       		.byte	0xc
 2903 0b54 9B       		.byte	0x9b
 2904 0b55 29000000 		.4byte	0x29
 2905 0b59 01       		.byte	0x1
 2906 0b5a 01       		.byte	0x1
 2907 0b5b 0A       		.uleb128 0xa
 2908 0b5c 5D010000 		.4byte	0x15d
 2909 0b60 6B0B0000 		.4byte	0xb6b
 2910 0b64 0B       		.uleb128 0xb
 2911 0b65 3B000000 		.4byte	0x3b
 2912 0b69 01       		.byte	0x1
 2913 0b6a 00       		.byte	0
 2914 0b6b 21       		.uleb128 0x21
 2915 0b6c 6B110000 		.4byte	.LASF154
 2916 0b70 0C       		.byte	0xc
 2917 0b71 9E       		.byte	0x9e
 2918 0b72 5B0B0000 		.4byte	0xb5b
 2919 0b76 01       		.byte	0x1
 2920 0b77 01       		.byte	0x1
ARM GAS  C:\Users\EBANO_~1\AppData\Local\Temp\ccD2gIpL.s 			page 74


 2921 0b78 10       		.uleb128 0x10
 2922 0b79 5F040000 		.4byte	.LASF155
 2923 0b7d 08       		.byte	0x8
 2924 0b7e 0D       		.byte	0xd
 2925 0b7f 52       		.byte	0x52
 2926 0b80 A10B0000 		.4byte	0xba1
 2927 0b84 0D       		.uleb128 0xd
 2928 0b85 970C0000 		.4byte	.LASF156
 2929 0b89 0D       		.byte	0xd
 2930 0b8a 54       		.byte	0x54
 2931 0b8b 320A0000 		.4byte	0xa32
 2932 0b8f 02       		.byte	0x2
 2933 0b90 23       		.byte	0x23
 2934 0b91 00       		.uleb128 0
 2935 0b92 0D       		.uleb128 0xd
 2936 0b93 6D000000 		.4byte	.LASF157
 2937 0b97 0D       		.byte	0xd
 2938 0b98 55       		.byte	0x55
 2939 0b99 1C0A0000 		.4byte	0xa1c
 2940 0b9d 02       		.byte	0x2
 2941 0b9e 23       		.byte	0x23
 2942 0b9f 04       		.uleb128 0x4
 2943 0ba0 00       		.byte	0
 2944 0ba1 03       		.uleb128 0x3
 2945 0ba2 69040000 		.4byte	.LASF158
 2946 0ba6 0D       		.byte	0xd
 2947 0ba7 56       		.byte	0x56
 2948 0ba8 780B0000 		.4byte	0xb78
 2949 0bac 04       		.uleb128 0x4
 2950 0bad 01       		.byte	0x1
 2951 0bae 02       		.byte	0x2
 2952 0baf 13010000 		.4byte	.LASF159
 2953 0bb3 23       		.uleb128 0x23
 2954 0bb4 07       		.byte	0x7
 2955 0bb5 01       		.byte	0x1
 2956 0bb6 6D000000 		.4byte	0x6d
 2957 0bba 0E       		.byte	0xe
 2958 0bbb 21       		.byte	0x21
 2959 0bbc CD0B0000 		.4byte	0xbcd
 2960 0bc0 20       		.uleb128 0x20
 2961 0bc1 DF0F0000 		.4byte	.LASF160
 2962 0bc5 00       		.byte	0
 2963 0bc6 20       		.uleb128 0x20
 2964 0bc7 D3210000 		.4byte	.LASF161
 2965 0bcb 01       		.byte	0x1
 2966 0bcc 00       		.byte	0
 2967 0bcd 03       		.uleb128 0x3
 2968 0bce 66100000 		.4byte	.LASF162
 2969 0bd2 0E       		.byte	0xe
 2970 0bd3 24       		.byte	0x24
 2971 0bd4 B30B0000 		.4byte	0xbb3
 2972 0bd8 23       		.uleb128 0x23
 2973 0bd9 07       		.byte	0x7
 2974 0bda 01       		.byte	0x1
 2975 0bdb 6D000000 		.4byte	0x6d
 2976 0bdf 0E       		.byte	0xe
 2977 0be0 2A       		.byte	0x2a
ARM GAS  C:\Users\EBANO_~1\AppData\Local\Temp\ccD2gIpL.s 			page 75


 2978 0be1 FE0B0000 		.4byte	0xbfe
 2979 0be5 20       		.uleb128 0x20
 2980 0be6 85040000 		.4byte	.LASF163
 2981 0bea 00       		.byte	0
 2982 0beb 20       		.uleb128 0x20
 2983 0bec D8110000 		.4byte	.LASF164
 2984 0bf0 01       		.byte	0x1
 2985 0bf1 20       		.uleb128 0x20
 2986 0bf2 64200000 		.4byte	.LASF165
 2987 0bf6 02       		.byte	0x2
 2988 0bf7 20       		.uleb128 0x20
 2989 0bf8 8E1B0000 		.4byte	.LASF166
 2990 0bfc 03       		.byte	0x3
 2991 0bfd 00       		.byte	0
 2992 0bfe 03       		.uleb128 0x3
 2993 0bff 08140000 		.4byte	.LASF167
 2994 0c03 0E       		.byte	0xe
 2995 0c04 2F       		.byte	0x2f
 2996 0c05 D80B0000 		.4byte	0xbd8
 2997 0c09 0C       		.uleb128 0xc
 2998 0c0a 1C       		.byte	0x1c
 2999 0c0b 0E       		.byte	0xe
 3000 0c0c 34       		.byte	0x34
 3001 0c0d 740C0000 		.4byte	0xc74
 3002 0c11 0D       		.uleb128 0xd
 3003 0c12 680B0000 		.4byte	.LASF168
 3004 0c16 0E       		.byte	0xe
 3005 0c17 39       		.byte	0x39
 3006 0c18 30030000 		.4byte	0x330
 3007 0c1c 02       		.byte	0x2
 3008 0c1d 23       		.byte	0x23
 3009 0c1e 00       		.uleb128 0
 3010 0c1f 0D       		.uleb128 0xd
 3011 0c20 AF030000 		.4byte	.LASF169
 3012 0c24 0E       		.byte	0xe
 3013 0c25 3D       		.byte	0x3d
 3014 0c26 30030000 		.4byte	0x330
 3015 0c2a 02       		.byte	0x2
 3016 0c2b 23       		.byte	0x23
 3017 0c2c 04       		.uleb128 0x4
 3018 0c2d 0D       		.uleb128 0xd
 3019 0c2e 620D0000 		.4byte	.LASF170
 3020 0c32 0E       		.byte	0xe
 3021 0c33 48       		.byte	0x48
 3022 0c34 8F0C0000 		.4byte	0xc8f
 3023 0c38 02       		.byte	0x2
 3024 0c39 23       		.byte	0x23
 3025 0c3a 08       		.uleb128 0x8
 3026 0c3b 0D       		.uleb128 0xd
 3027 0c3c 89030000 		.4byte	.LASF171
 3028 0c40 0E       		.byte	0xe
 3029 0c41 4C       		.byte	0x4c
 3030 0c42 30030000 		.4byte	0x330
 3031 0c46 02       		.byte	0x2
 3032 0c47 23       		.byte	0x23
 3033 0c48 0C       		.uleb128 0xc
 3034 0c49 0D       		.uleb128 0xd
ARM GAS  C:\Users\EBANO_~1\AppData\Local\Temp\ccD2gIpL.s 			page 76


 3035 0c4a 0F020000 		.4byte	.LASF172
 3036 0c4e 0E       		.byte	0xe
 3037 0c4f 50       		.byte	0x50
 3038 0c50 30030000 		.4byte	0x330
 3039 0c54 02       		.byte	0x2
 3040 0c55 23       		.byte	0x23
 3041 0c56 10       		.uleb128 0x10
 3042 0c57 0D       		.uleb128 0xd
 3043 0c58 3F110000 		.4byte	.LASF173
 3044 0c5c 0E       		.byte	0xe
 3045 0c5d 56       		.byte	0x56
 3046 0c5e A10C0000 		.4byte	0xca1
 3047 0c62 02       		.byte	0x2
 3048 0c63 23       		.byte	0x23
 3049 0c64 14       		.uleb128 0x14
 3050 0c65 0D       		.uleb128 0xd
 3051 0c66 9C250000 		.4byte	.LASF174
 3052 0c6a 0E       		.byte	0xe
 3053 0c6b 5D       		.byte	0x5d
 3054 0c6c B30C0000 		.4byte	0xcb3
 3055 0c70 02       		.byte	0x2
 3056 0c71 23       		.byte	0x23
 3057 0c72 18       		.uleb128 0x18
 3058 0c73 00       		.byte	0
 3059 0c74 1C       		.uleb128 0x1c
 3060 0c75 01       		.byte	0x1
 3061 0c76 8F0C0000 		.4byte	0xc8f
 3062 0c7a 15       		.uleb128 0x15
 3063 0c7b B00A0000 		.4byte	0xab0
 3064 0c7f 15       		.uleb128 0x15
 3065 0c80 270A0000 		.4byte	0xa27
 3066 0c84 15       		.uleb128 0x15
 3067 0c85 1C0A0000 		.4byte	0xa1c
 3068 0c89 15       		.uleb128 0x15
 3069 0c8a 010A0000 		.4byte	0xa01
 3070 0c8e 00       		.byte	0
 3071 0c8f 05       		.uleb128 0x5
 3072 0c90 04       		.byte	0x4
 3073 0c91 740C0000 		.4byte	0xc74
 3074 0c95 1C       		.uleb128 0x1c
 3075 0c96 01       		.byte	0x1
 3076 0c97 A10C0000 		.4byte	0xca1
 3077 0c9b 15       		.uleb128 0x15
 3078 0c9c 0C0A0000 		.4byte	0xa0c
 3079 0ca0 00       		.byte	0
 3080 0ca1 05       		.uleb128 0x5
 3081 0ca2 04       		.byte	0x4
 3082 0ca3 950C0000 		.4byte	0xc95
 3083 0ca7 1C       		.uleb128 0x1c
 3084 0ca8 01       		.byte	0x1
 3085 0ca9 B30C0000 		.4byte	0xcb3
 3086 0cad 15       		.uleb128 0x15
 3087 0cae AC0B0000 		.4byte	0xbac
 3088 0cb2 00       		.byte	0
 3089 0cb3 05       		.uleb128 0x5
 3090 0cb4 04       		.byte	0x4
 3091 0cb5 A70C0000 		.4byte	0xca7
ARM GAS  C:\Users\EBANO_~1\AppData\Local\Temp\ccD2gIpL.s 			page 77


 3092 0cb9 03       		.uleb128 0x3
 3093 0cba F5240000 		.4byte	.LASF175
 3094 0cbe 0E       		.byte	0xe
 3095 0cbf 5E       		.byte	0x5e
 3096 0cc0 090C0000 		.4byte	0xc09
 3097 0cc4 10       		.uleb128 0x10
 3098 0cc5 49050000 		.4byte	.LASF176
 3099 0cc9 74       		.byte	0x74
 3100 0cca 0E       		.byte	0xe
 3101 0ccb 63       		.byte	0x63
 3102 0ccc 780E0000 		.4byte	0xe78
 3103 0cd0 0D       		.uleb128 0xd
 3104 0cd1 70160000 		.4byte	.LASF177
 3105 0cd5 0E       		.byte	0xe
 3106 0cd6 68       		.byte	0x68
 3107 0cd7 30030000 		.4byte	0x330
 3108 0cdb 02       		.byte	0x2
 3109 0cdc 23       		.byte	0x23
 3110 0cdd 00       		.uleb128 0
 3111 0cde 0D       		.uleb128 0xd
 3112 0cdf 32040000 		.4byte	.LASF178
 3113 0ce3 0E       		.byte	0xe
 3114 0ce4 6C       		.byte	0x6c
 3115 0ce5 30030000 		.4byte	0x330
 3116 0ce9 02       		.byte	0x2
 3117 0cea 23       		.byte	0x23
 3118 0ceb 04       		.uleb128 0x4
 3119 0cec 0D       		.uleb128 0xd
 3120 0ced 7A220000 		.4byte	.LASF179
 3121 0cf1 0E       		.byte	0xe
 3122 0cf2 73       		.byte	0x73
 3123 0cf3 930E0000 		.4byte	0xe93
 3124 0cf7 02       		.byte	0x2
 3125 0cf8 23       		.byte	0x23
 3126 0cf9 08       		.uleb128 0x8
 3127 0cfa 0D       		.uleb128 0xd
 3128 0cfb A8120000 		.4byte	.LASF180
 3129 0cff 0E       		.byte	0xe
 3130 0d00 79       		.byte	0x79
 3131 0d01 9F0E0000 		.4byte	0xe9f
 3132 0d05 02       		.byte	0x2
 3133 0d06 23       		.byte	0x23
 3134 0d07 0C       		.uleb128 0xc
 3135 0d08 0D       		.uleb128 0xd
 3136 0d09 260B0000 		.4byte	.LASF181
 3137 0d0d 0E       		.byte	0xe
 3138 0d0e 7F       		.byte	0x7f
 3139 0d0f B10E0000 		.4byte	0xeb1
 3140 0d13 02       		.byte	0x2
 3141 0d14 23       		.byte	0x23
 3142 0d15 10       		.uleb128 0x10
 3143 0d16 0D       		.uleb128 0xd
 3144 0d17 FC1C0000 		.4byte	.LASF182
 3145 0d1b 0E       		.byte	0xe
 3146 0d1c 85       		.byte	0x85
 3147 0d1d C30E0000 		.4byte	0xec3
 3148 0d21 02       		.byte	0x2
ARM GAS  C:\Users\EBANO_~1\AppData\Local\Temp\ccD2gIpL.s 			page 78


 3149 0d22 23       		.byte	0x23
 3150 0d23 14       		.uleb128 0x14
 3151 0d24 0D       		.uleb128 0xd
 3152 0d25 121B0000 		.4byte	.LASF183
 3153 0d29 0E       		.byte	0xe
 3154 0d2a 90       		.byte	0x90
 3155 0d2b E80E0000 		.4byte	0xee8
 3156 0d2f 02       		.byte	0x2
 3157 0d30 23       		.byte	0x23
 3158 0d31 18       		.uleb128 0x18
 3159 0d32 0D       		.uleb128 0xd
 3160 0d33 9F0D0000 		.4byte	.LASF184
 3161 0d37 0E       		.byte	0xe
 3162 0d38 9B       		.byte	0x9b
 3163 0d39 F40E0000 		.4byte	0xef4
 3164 0d3d 02       		.byte	0x2
 3165 0d3e 23       		.byte	0x23
 3166 0d3f 1C       		.uleb128 0x1c
 3167 0d40 0D       		.uleb128 0xd
 3168 0d41 2B290000 		.4byte	.LASF185
 3169 0d45 0E       		.byte	0xe
 3170 0d46 C3       		.byte	0xc3
 3171 0d47 470F0000 		.4byte	0xf47
 3172 0d4b 02       		.byte	0x2
 3173 0d4c 23       		.byte	0x23
 3174 0d4d 20       		.uleb128 0x20
 3175 0d4e 0D       		.uleb128 0xd
 3176 0d4f B2120000 		.4byte	.LASF186
 3177 0d53 0E       		.byte	0xe
 3178 0d54 ED       		.byte	0xed
 3179 0d55 950F0000 		.4byte	0xf95
 3180 0d59 02       		.byte	0x2
 3181 0d5a 23       		.byte	0x23
 3182 0d5b 24       		.uleb128 0x24
 3183 0d5c 0D       		.uleb128 0xd
 3184 0d5d 2B150000 		.4byte	.LASF187
 3185 0d61 0E       		.byte	0xe
 3186 0d62 F8       		.byte	0xf8
 3187 0d63 AB0F0000 		.4byte	0xfab
 3188 0d67 02       		.byte	0x2
 3189 0d68 23       		.byte	0x23
 3190 0d69 28       		.uleb128 0x28
 3191 0d6a 17       		.uleb128 0x17
 3192 0d6b D8160000 		.4byte	.LASF188
 3193 0d6f 0E       		.byte	0xe
 3194 0d70 0301     		.2byte	0x103
 3195 0d72 C60F0000 		.4byte	0xfc6
 3196 0d76 02       		.byte	0x2
 3197 0d77 23       		.byte	0x23
 3198 0d78 2C       		.uleb128 0x2c
 3199 0d79 17       		.uleb128 0x17
 3200 0d7a 0B240000 		.4byte	.LASF189
 3201 0d7e 0E       		.byte	0xe
 3202 0d7f 0B01     		.2byte	0x10b
 3203 0d81 DD0F0000 		.4byte	0xfdd
 3204 0d85 02       		.byte	0x2
 3205 0d86 23       		.byte	0x23
ARM GAS  C:\Users\EBANO_~1\AppData\Local\Temp\ccD2gIpL.s 			page 79


 3206 0d87 30       		.uleb128 0x30
 3207 0d88 17       		.uleb128 0x17
 3208 0d89 08100000 		.4byte	.LASF190
 3209 0d8d 0E       		.byte	0xe
 3210 0d8e 0F01     		.2byte	0x10f
 3211 0d90 30030000 		.4byte	0x330
 3212 0d94 02       		.byte	0x2
 3213 0d95 23       		.byte	0x23
 3214 0d96 34       		.uleb128 0x34
 3215 0d97 17       		.uleb128 0x17
 3216 0d98 5A060000 		.4byte	.LASF191
 3217 0d9c 0E       		.byte	0xe
 3218 0d9d 1301     		.2byte	0x113
 3219 0d9f 30030000 		.4byte	0x330
 3220 0da3 02       		.byte	0x2
 3221 0da4 23       		.byte	0x23
 3222 0da5 38       		.uleb128 0x38
 3223 0da6 24       		.uleb128 0x24
 3224 0da7 527800   		.ascii	"Rx\000"
 3225 0daa 0E       		.byte	0xe
 3226 0dab 1901     		.2byte	0x119
 3227 0dad C30E0000 		.4byte	0xec3
 3228 0db1 02       		.byte	0x2
 3229 0db2 23       		.byte	0x23
 3230 0db3 3C       		.uleb128 0x3c
 3231 0db4 17       		.uleb128 0x17
 3232 0db5 8E0C0000 		.4byte	.LASF192
 3233 0db9 0E       		.byte	0xe
 3234 0dba 1D01     		.2byte	0x11d
 3235 0dbc 30030000 		.4byte	0x330
 3236 0dc0 02       		.byte	0x2
 3237 0dc1 23       		.byte	0x23
 3238 0dc2 40       		.uleb128 0x40
 3239 0dc3 17       		.uleb128 0x17
 3240 0dc4 C1190000 		.4byte	.LASF193
 3241 0dc8 0E       		.byte	0xe
 3242 0dc9 2501     		.2byte	0x125
 3243 0dcb F90F0000 		.4byte	0xff9
 3244 0dcf 02       		.byte	0x2
 3245 0dd0 23       		.byte	0x23
 3246 0dd1 44       		.uleb128 0x44
 3247 0dd2 17       		.uleb128 0x17
 3248 0dd3 CE210000 		.4byte	.LASF194
 3249 0dd7 0E       		.byte	0xe
 3250 0dd8 2B01     		.2byte	0x12b
 3251 0dda 0F100000 		.4byte	0x100f
 3252 0dde 02       		.byte	0x2
 3253 0ddf 23       		.byte	0x23
 3254 0de0 48       		.uleb128 0x48
 3255 0de1 17       		.uleb128 0x17
 3256 0de2 95060000 		.4byte	.LASF195
 3257 0de6 0E       		.byte	0xe
 3258 0de7 3201     		.2byte	0x132
 3259 0de9 26100000 		.4byte	0x1026
 3260 0ded 02       		.byte	0x2
 3261 0dee 23       		.byte	0x23
 3262 0def 4C       		.uleb128 0x4c
ARM GAS  C:\Users\EBANO_~1\AppData\Local\Temp\ccD2gIpL.s 			page 80


 3263 0df0 17       		.uleb128 0x17
 3264 0df1 78070000 		.4byte	.LASF196
 3265 0df5 0E       		.byte	0xe
 3266 0df6 3901     		.2byte	0x139
 3267 0df8 3C100000 		.4byte	0x103c
 3268 0dfc 02       		.byte	0x2
 3269 0dfd 23       		.byte	0x23
 3270 0dfe 50       		.uleb128 0x50
 3271 0dff 17       		.uleb128 0x17
 3272 0e00 03020000 		.4byte	.LASF197
 3273 0e04 0E       		.byte	0xe
 3274 0e05 4101     		.2byte	0x141
 3275 0e07 58100000 		.4byte	0x1058
 3276 0e0b 02       		.byte	0x2
 3277 0e0c 23       		.byte	0x23
 3278 0e0d 54       		.uleb128 0x54
 3279 0e0e 17       		.uleb128 0x17
 3280 0e0f 52020000 		.4byte	.LASF198
 3281 0e13 0E       		.byte	0xe
 3282 0e14 4901     		.2byte	0x149
 3283 0e16 58100000 		.4byte	0x1058
 3284 0e1a 02       		.byte	0x2
 3285 0e1b 23       		.byte	0x23
 3286 0e1c 58       		.uleb128 0x58
 3287 0e1d 17       		.uleb128 0x17
 3288 0e1e 98050000 		.4byte	.LASF199
 3289 0e22 0E       		.byte	0xe
 3290 0e23 5001     		.2byte	0x150
 3291 0e25 6F100000 		.4byte	0x106f
 3292 0e29 02       		.byte	0x2
 3293 0e2a 23       		.byte	0x23
 3294 0e2b 5C       		.uleb128 0x5c
 3295 0e2c 17       		.uleb128 0x17
 3296 0e2d 631B0000 		.4byte	.LASF200
 3297 0e31 0E       		.byte	0xe
 3298 0e32 5801     		.2byte	0x158
 3299 0e34 B30C0000 		.4byte	0xcb3
 3300 0e38 02       		.byte	0x2
 3301 0e39 23       		.byte	0x23
 3302 0e3a 60       		.uleb128 0x60
 3303 0e3b 17       		.uleb128 0x17
 3304 0e3c 70260000 		.4byte	.LASF201
 3305 0e40 0E       		.byte	0xe
 3306 0e41 5E01     		.2byte	0x15e
 3307 0e43 F40E0000 		.4byte	0xef4
 3308 0e47 02       		.byte	0x2
 3309 0e48 23       		.byte	0x23
 3310 0e49 64       		.uleb128 0x64
 3311 0e4a 17       		.uleb128 0x17
 3312 0e4b 051C0000 		.4byte	.LASF202
 3313 0e4f 0E       		.byte	0xe
 3314 0e50 6201     		.2byte	0x162
 3315 0e52 30030000 		.4byte	0x330
 3316 0e56 02       		.byte	0x2
 3317 0e57 23       		.byte	0x23
 3318 0e58 68       		.uleb128 0x68
 3319 0e59 17       		.uleb128 0x17
ARM GAS  C:\Users\EBANO_~1\AppData\Local\Temp\ccD2gIpL.s 			page 81


 3320 0e5a F6070000 		.4byte	.LASF203
 3321 0e5e 0E       		.byte	0xe
 3322 0e5f 6E01     		.2byte	0x16e
 3323 0e61 C30E0000 		.4byte	0xec3
 3324 0e65 02       		.byte	0x2
 3325 0e66 23       		.byte	0x23
 3326 0e67 6C       		.uleb128 0x6c
 3327 0e68 17       		.uleb128 0x17
 3328 0e69 610F0000 		.4byte	.LASF204
 3329 0e6d 0E       		.byte	0xe
 3330 0e6e 7701     		.2byte	0x177
 3331 0e70 86100000 		.4byte	0x1086
 3332 0e74 02       		.byte	0x2
 3333 0e75 23       		.byte	0x23
 3334 0e76 70       		.uleb128 0x70
 3335 0e77 00       		.byte	0
 3336 0e78 0F       		.uleb128 0xf
 3337 0e79 C40C0000 		.4byte	0xcc4
 3338 0e7d 14       		.uleb128 0x14
 3339 0e7e 01       		.byte	0x1
 3340 0e7f 320A0000 		.4byte	0xa32
 3341 0e83 8D0E0000 		.4byte	0xe8d
 3342 0e87 15       		.uleb128 0x15
 3343 0e88 8D0E0000 		.4byte	0xe8d
 3344 0e8c 00       		.byte	0
 3345 0e8d 05       		.uleb128 0x5
 3346 0e8e 04       		.byte	0x4
 3347 0e8f B90C0000 		.4byte	0xcb9
 3348 0e93 05       		.uleb128 0x5
 3349 0e94 04       		.byte	0x4
 3350 0e95 7D0E0000 		.4byte	0xe7d
 3351 0e99 25       		.uleb128 0x25
 3352 0e9a 01       		.byte	0x1
 3353 0e9b FE0B0000 		.4byte	0xbfe
 3354 0e9f 05       		.uleb128 0x5
 3355 0ea0 04       		.byte	0x4
 3356 0ea1 990E0000 		.4byte	0xe99
 3357 0ea5 1C       		.uleb128 0x1c
 3358 0ea6 01       		.byte	0x1
 3359 0ea7 B10E0000 		.4byte	0xeb1
 3360 0eab 15       		.uleb128 0x15
 3361 0eac CD0B0000 		.4byte	0xbcd
 3362 0eb0 00       		.byte	0
 3363 0eb1 05       		.uleb128 0x5
 3364 0eb2 04       		.byte	0x4
 3365 0eb3 A50E0000 		.4byte	0xea5
 3366 0eb7 1C       		.uleb128 0x1c
 3367 0eb8 01       		.byte	0x1
 3368 0eb9 C30E0000 		.4byte	0xec3
 3369 0ebd 15       		.uleb128 0x15
 3370 0ebe 320A0000 		.4byte	0xa32
 3371 0ec2 00       		.byte	0
 3372 0ec3 05       		.uleb128 0x5
 3373 0ec4 04       		.byte	0x4
 3374 0ec5 B70E0000 		.4byte	0xeb7
 3375 0ec9 14       		.uleb128 0x14
 3376 0eca 01       		.byte	0x1
ARM GAS  C:\Users\EBANO_~1\AppData\Local\Temp\ccD2gIpL.s 			page 82


 3377 0ecb AC0B0000 		.4byte	0xbac
 3378 0ecf E80E0000 		.4byte	0xee8
 3379 0ed3 15       		.uleb128 0x15
 3380 0ed4 CD0B0000 		.4byte	0xbcd
 3381 0ed8 15       		.uleb128 0x15
 3382 0ed9 320A0000 		.4byte	0xa32
 3383 0edd 15       		.uleb128 0x15
 3384 0ede 1C0A0000 		.4byte	0xa1c
 3385 0ee2 15       		.uleb128 0x15
 3386 0ee3 320A0000 		.4byte	0xa32
 3387 0ee7 00       		.byte	0
 3388 0ee8 05       		.uleb128 0x5
 3389 0ee9 04       		.byte	0x4
 3390 0eea C90E0000 		.4byte	0xec9
 3391 0eee 25       		.uleb128 0x25
 3392 0eef 01       		.byte	0x1
 3393 0ef0 320A0000 		.4byte	0xa32
 3394 0ef4 05       		.uleb128 0x5
 3395 0ef5 04       		.byte	0x4
 3396 0ef6 EE0E0000 		.4byte	0xeee
 3397 0efa 1C       		.uleb128 0x1c
 3398 0efb 01       		.byte	0x1
 3399 0efc 470F0000 		.4byte	0xf47
 3400 0f00 15       		.uleb128 0x15
 3401 0f01 CD0B0000 		.4byte	0xbcd
 3402 0f05 15       		.uleb128 0x15
 3403 0f06 320A0000 		.4byte	0xa32
 3404 0f0a 15       		.uleb128 0x15
 3405 0f0b 320A0000 		.4byte	0xa32
 3406 0f0f 15       		.uleb128 0x15
 3407 0f10 0C0A0000 		.4byte	0xa0c
 3408 0f14 15       		.uleb128 0x15
 3409 0f15 320A0000 		.4byte	0xa32
 3410 0f19 15       		.uleb128 0x15
 3411 0f1a 270A0000 		.4byte	0xa27
 3412 0f1e 15       		.uleb128 0x15
 3413 0f1f 270A0000 		.4byte	0xa27
 3414 0f23 15       		.uleb128 0x15
 3415 0f24 AC0B0000 		.4byte	0xbac
 3416 0f28 15       		.uleb128 0x15
 3417 0f29 0C0A0000 		.4byte	0xa0c
 3418 0f2d 15       		.uleb128 0x15
 3419 0f2e AC0B0000 		.4byte	0xbac
 3420 0f32 15       		.uleb128 0x15
 3421 0f33 AC0B0000 		.4byte	0xbac
 3422 0f37 15       		.uleb128 0x15
 3423 0f38 0C0A0000 		.4byte	0xa0c
 3424 0f3c 15       		.uleb128 0x15
 3425 0f3d AC0B0000 		.4byte	0xbac
 3426 0f41 15       		.uleb128 0x15
 3427 0f42 AC0B0000 		.4byte	0xbac
 3428 0f46 00       		.byte	0
 3429 0f47 05       		.uleb128 0x5
 3430 0f48 04       		.byte	0x4
 3431 0f49 FA0E0000 		.4byte	0xefa
 3432 0f4d 1C       		.uleb128 0x1c
 3433 0f4e 01       		.byte	0x1
ARM GAS  C:\Users\EBANO_~1\AppData\Local\Temp\ccD2gIpL.s 			page 83


 3434 0f4f 950F0000 		.4byte	0xf95
 3435 0f53 15       		.uleb128 0x15
 3436 0f54 CD0B0000 		.4byte	0xbcd
 3437 0f58 15       		.uleb128 0x15
 3438 0f59 010A0000 		.4byte	0xa01
 3439 0f5d 15       		.uleb128 0x15
 3440 0f5e 320A0000 		.4byte	0xa32
 3441 0f62 15       		.uleb128 0x15
 3442 0f63 320A0000 		.4byte	0xa32
 3443 0f67 15       		.uleb128 0x15
 3444 0f68 320A0000 		.4byte	0xa32
 3445 0f6c 15       		.uleb128 0x15
 3446 0f6d 0C0A0000 		.4byte	0xa0c
 3447 0f71 15       		.uleb128 0x15
 3448 0f72 270A0000 		.4byte	0xa27
 3449 0f76 15       		.uleb128 0x15
 3450 0f77 AC0B0000 		.4byte	0xbac
 3451 0f7b 15       		.uleb128 0x15
 3452 0f7c AC0B0000 		.4byte	0xbac
 3453 0f80 15       		.uleb128 0x15
 3454 0f81 AC0B0000 		.4byte	0xbac
 3455 0f85 15       		.uleb128 0x15
 3456 0f86 0C0A0000 		.4byte	0xa0c
 3457 0f8a 15       		.uleb128 0x15
 3458 0f8b AC0B0000 		.4byte	0xbac
 3459 0f8f 15       		.uleb128 0x15
 3460 0f90 320A0000 		.4byte	0xa32
 3461 0f94 00       		.byte	0
 3462 0f95 05       		.uleb128 0x5
 3463 0f96 04       		.byte	0x4
 3464 0f97 4D0F0000 		.4byte	0xf4d
 3465 0f9b 14       		.uleb128 0x14
 3466 0f9c 01       		.byte	0x1
 3467 0f9d AC0B0000 		.4byte	0xbac
 3468 0fa1 AB0F0000 		.4byte	0xfab
 3469 0fa5 15       		.uleb128 0x15
 3470 0fa6 320A0000 		.4byte	0xa32
 3471 0faa 00       		.byte	0
 3472 0fab 05       		.uleb128 0x5
 3473 0fac 04       		.byte	0x4
 3474 0fad 9B0F0000 		.4byte	0xf9b
 3475 0fb1 14       		.uleb128 0x14
 3476 0fb2 01       		.byte	0x1
 3477 0fb3 320A0000 		.4byte	0xa32
 3478 0fb7 C60F0000 		.4byte	0xfc6
 3479 0fbb 15       		.uleb128 0x15
 3480 0fbc CD0B0000 		.4byte	0xbcd
 3481 0fc0 15       		.uleb128 0x15
 3482 0fc1 0C0A0000 		.4byte	0xa0c
 3483 0fc5 00       		.byte	0
 3484 0fc6 05       		.uleb128 0x5
 3485 0fc7 04       		.byte	0x4
 3486 0fc8 B10F0000 		.4byte	0xfb1
 3487 0fcc 1C       		.uleb128 0x1c
 3488 0fcd 01       		.byte	0x1
 3489 0fce DD0F0000 		.4byte	0xfdd
 3490 0fd2 15       		.uleb128 0x15
ARM GAS  C:\Users\EBANO_~1\AppData\Local\Temp\ccD2gIpL.s 			page 84


 3491 0fd3 B00A0000 		.4byte	0xab0
 3492 0fd7 15       		.uleb128 0x15
 3493 0fd8 0C0A0000 		.4byte	0xa0c
 3494 0fdc 00       		.byte	0
 3495 0fdd 05       		.uleb128 0x5
 3496 0fde 04       		.byte	0x4
 3497 0fdf CC0F0000 		.4byte	0xfcc
 3498 0fe3 1C       		.uleb128 0x1c
 3499 0fe4 01       		.byte	0x1
 3500 0fe5 F90F0000 		.4byte	0xff9
 3501 0fe9 15       		.uleb128 0x15
 3502 0fea 320A0000 		.4byte	0xa32
 3503 0fee 15       		.uleb128 0x15
 3504 0fef 010A0000 		.4byte	0xa01
 3505 0ff3 15       		.uleb128 0x15
 3506 0ff4 270A0000 		.4byte	0xa27
 3507 0ff8 00       		.byte	0
 3508 0ff9 05       		.uleb128 0x5
 3509 0ffa 04       		.byte	0x4
 3510 0ffb E30F0000 		.4byte	0xfe3
 3511 0fff 14       		.uleb128 0x14
 3512 1000 01       		.byte	0x1
 3513 1001 1C0A0000 		.4byte	0xa1c
 3514 1005 0F100000 		.4byte	0x100f
 3515 1009 15       		.uleb128 0x15
 3516 100a CD0B0000 		.4byte	0xbcd
 3517 100e 00       		.byte	0
 3518 100f 05       		.uleb128 0x5
 3519 1010 04       		.byte	0x4
 3520 1011 FF0F0000 		.4byte	0xfff
 3521 1015 1C       		.uleb128 0x1c
 3522 1016 01       		.byte	0x1
 3523 1017 26100000 		.4byte	0x1026
 3524 101b 15       		.uleb128 0x15
 3525 101c 270A0000 		.4byte	0xa27
 3526 1020 15       		.uleb128 0x15
 3527 1021 0C0A0000 		.4byte	0xa0c
 3528 1025 00       		.byte	0
 3529 1026 05       		.uleb128 0x5
 3530 1027 04       		.byte	0x4
 3531 1028 15100000 		.4byte	0x1015
 3532 102c 14       		.uleb128 0x14
 3533 102d 01       		.byte	0x1
 3534 102e 0C0A0000 		.4byte	0xa0c
 3535 1032 3C100000 		.4byte	0x103c
 3536 1036 15       		.uleb128 0x15
 3537 1037 270A0000 		.4byte	0xa27
 3538 103b 00       		.byte	0
 3539 103c 05       		.uleb128 0x5
 3540 103d 04       		.byte	0x4
 3541 103e 2C100000 		.4byte	0x102c
 3542 1042 1C       		.uleb128 0x1c
 3543 1043 01       		.byte	0x1
 3544 1044 58100000 		.4byte	0x1058
 3545 1048 15       		.uleb128 0x15
 3546 1049 270A0000 		.4byte	0xa27
 3547 104d 15       		.uleb128 0x15
ARM GAS  C:\Users\EBANO_~1\AppData\Local\Temp\ccD2gIpL.s 			page 85


 3548 104e B00A0000 		.4byte	0xab0
 3549 1052 15       		.uleb128 0x15
 3550 1053 0C0A0000 		.4byte	0xa0c
 3551 1057 00       		.byte	0
 3552 1058 05       		.uleb128 0x5
 3553 1059 04       		.byte	0x4
 3554 105a 42100000 		.4byte	0x1042
 3555 105e 1C       		.uleb128 0x1c
 3556 105f 01       		.byte	0x1
 3557 1060 6F100000 		.4byte	0x106f
 3558 1064 15       		.uleb128 0x15
 3559 1065 CD0B0000 		.4byte	0xbcd
 3560 1069 15       		.uleb128 0x15
 3561 106a 0C0A0000 		.4byte	0xa0c
 3562 106e 00       		.byte	0
 3563 106f 05       		.uleb128 0x5
 3564 1070 04       		.byte	0x4
 3565 1071 5E100000 		.4byte	0x105e
 3566 1075 1C       		.uleb128 0x1c
 3567 1076 01       		.byte	0x1
 3568 1077 86100000 		.4byte	0x1086
 3569 107b 15       		.uleb128 0x15
 3570 107c 320A0000 		.4byte	0xa32
 3571 1080 15       		.uleb128 0x15
 3572 1081 320A0000 		.4byte	0xa32
 3573 1085 00       		.byte	0
 3574 1086 05       		.uleb128 0x5
 3575 1087 04       		.byte	0x4
 3576 1088 75100000 		.4byte	0x1075
 3577 108c 1D       		.uleb128 0x1d
 3578 108d C40B0000 		.4byte	.LASF205
 3579 1091 0E       		.byte	0xe
 3580 1092 8001     		.2byte	0x180
 3581 1094 780E0000 		.4byte	0xe78
 3582 1098 01       		.byte	0x1
 3583 1099 01       		.byte	0x1
 3584 109a 26       		.uleb128 0x26
 3585 109b 6F290000 		.4byte	.LASF207
 3586 109f 07       		.byte	0x7
 3587 10a0 01       		.byte	0x1
 3588 10a1 6D000000 		.4byte	0x6d
 3589 10a5 0F       		.byte	0xf
 3590 10a6 83       		.byte	0x83
 3591 10a7 36110000 		.4byte	0x1136
 3592 10ab 20       		.uleb128 0x20
 3593 10ac 371D0000 		.4byte	.LASF208
 3594 10b0 00       		.byte	0
 3595 10b1 20       		.uleb128 0x20
 3596 10b2 AE040000 		.4byte	.LASF209
 3597 10b6 01       		.byte	0x1
 3598 10b7 20       		.uleb128 0x20
 3599 10b8 17020000 		.4byte	.LASF210
 3600 10bc 02       		.byte	0x2
 3601 10bd 20       		.uleb128 0x20
 3602 10be 34240000 		.4byte	.LASF211
 3603 10c2 03       		.byte	0x3
 3604 10c3 20       		.uleb128 0x20
ARM GAS  C:\Users\EBANO_~1\AppData\Local\Temp\ccD2gIpL.s 			page 86


 3605 10c4 8F0D0000 		.4byte	.LASF212
 3606 10c8 04       		.byte	0x4
 3607 10c9 20       		.uleb128 0x20
 3608 10ca 47200000 		.4byte	.LASF213
 3609 10ce 05       		.byte	0x5
 3610 10cf 20       		.uleb128 0x20
 3611 10d0 8F150000 		.4byte	.LASF214
 3612 10d4 06       		.byte	0x6
 3613 10d5 20       		.uleb128 0x20
 3614 10d6 19190000 		.4byte	.LASF215
 3615 10da 07       		.byte	0x7
 3616 10db 20       		.uleb128 0x20
 3617 10dc 94100000 		.4byte	.LASF216
 3618 10e0 7F       		.byte	0x7f
 3619 10e1 20       		.uleb128 0x20
 3620 10e2 34080000 		.4byte	.LASF217
 3621 10e6 80       		.byte	0x80
 3622 10e7 20       		.uleb128 0x20
 3623 10e8 B90C0000 		.4byte	.LASF218
 3624 10ec 81       		.byte	0x81
 3625 10ed 20       		.uleb128 0x20
 3626 10ee 65010000 		.4byte	.LASF219
 3627 10f2 82       		.byte	0x82
 3628 10f3 20       		.uleb128 0x20
 3629 10f4 3D080000 		.4byte	.LASF220
 3630 10f8 83       		.byte	0x83
 3631 10f9 20       		.uleb128 0x20
 3632 10fa C80C0000 		.4byte	.LASF221
 3633 10fe 84       		.byte	0x84
 3634 10ff 20       		.uleb128 0x20
 3635 1100 74010000 		.4byte	.LASF222
 3636 1104 85       		.byte	0x85
 3637 1105 20       		.uleb128 0x20
 3638 1106 46080000 		.4byte	.LASF223
 3639 110a 86       		.byte	0x86
 3640 110b 20       		.uleb128 0x20
 3641 110c D70C0000 		.4byte	.LASF224
 3642 1110 87       		.byte	0x87
 3643 1111 20       		.uleb128 0x20
 3644 1112 83010000 		.4byte	.LASF225
 3645 1116 88       		.byte	0x88
 3646 1117 20       		.uleb128 0x20
 3647 1118 4F080000 		.4byte	.LASF226
 3648 111c 89       		.byte	0x89
 3649 111d 20       		.uleb128 0x20
 3650 111e E60C0000 		.4byte	.LASF227
 3651 1122 8A       		.byte	0x8a
 3652 1123 20       		.uleb128 0x20
 3653 1124 92010000 		.4byte	.LASF228
 3654 1128 8B       		.byte	0x8b
 3655 1129 20       		.uleb128 0x20
 3656 112a EA130000 		.4byte	.LASF229
 3657 112e 8C       		.byte	0x8c
 3658 112f 20       		.uleb128 0x20
 3659 1130 3C150000 		.4byte	.LASF230
 3660 1134 8D       		.byte	0x8d
 3661 1135 00       		.byte	0
ARM GAS  C:\Users\EBANO_~1\AppData\Local\Temp\ccD2gIpL.s 			page 87


 3662 1136 03       		.uleb128 0x3
 3663 1137 97070000 		.4byte	.LASF231
 3664 113b 0F       		.byte	0xf
 3665 113c E1       		.byte	0xe1
 3666 113d 9A100000 		.4byte	0x109a
 3667 1141 26       		.uleb128 0x26
 3668 1142 42070000 		.4byte	.LASF232
 3669 1146 07       		.byte	0x7
 3670 1147 01       		.byte	0x1
 3671 1148 6D000000 		.4byte	0x6d
 3672 114c 0F       		.byte	0xf
 3673 114d E6       		.byte	0xe6
 3674 114e 71110000 		.4byte	0x1171
 3675 1152 20       		.uleb128 0x20
 3676 1153 55220000 		.4byte	.LASF233
 3677 1157 00       		.byte	0
 3678 1158 20       		.uleb128 0x20
 3679 1159 B3210000 		.4byte	.LASF234
 3680 115d 01       		.byte	0x1
 3681 115e 20       		.uleb128 0x20
 3682 115f 03210000 		.4byte	.LASF235
 3683 1163 02       		.byte	0x2
 3684 1164 20       		.uleb128 0x20
 3685 1165 43090000 		.4byte	.LASF236
 3686 1169 03       		.byte	0x3
 3687 116a 20       		.uleb128 0x20
 3688 116b B9030000 		.4byte	.LASF237
 3689 116f 04       		.byte	0x4
 3690 1170 00       		.byte	0
 3691 1171 03       		.uleb128 0x3
 3692 1172 7B060000 		.4byte	.LASF238
 3693 1176 0F       		.byte	0xf
 3694 1177 FC       		.byte	0xfc
 3695 1178 41110000 		.4byte	0x1141
 3696 117c 26       		.uleb128 0x26
 3697 117d 18260000 		.4byte	.LASF239
 3698 1181 07       		.byte	0x7
 3699 1182 01       		.byte	0x1
 3700 1183 6D000000 		.4byte	0x6d
 3701 1187 10       		.byte	0x10
 3702 1188 7E       		.byte	0x7e
 3703 1189 A0110000 		.4byte	0x11a0
 3704 118d 20       		.uleb128 0x20
 3705 118e 13130000 		.4byte	.LASF240
 3706 1192 00       		.byte	0
 3707 1193 20       		.uleb128 0x20
 3708 1194 1B130000 		.4byte	.LASF241
 3709 1198 01       		.byte	0x1
 3710 1199 20       		.uleb128 0x20
 3711 119a 23130000 		.4byte	.LASF242
 3712 119e 02       		.byte	0x2
 3713 119f 00       		.byte	0
 3714 11a0 03       		.uleb128 0x3
 3715 11a1 36270000 		.4byte	.LASF243
 3716 11a5 10       		.byte	0x10
 3717 11a6 92       		.byte	0x92
 3718 11a7 7C110000 		.4byte	0x117c
ARM GAS  C:\Users\EBANO_~1\AppData\Local\Temp\ccD2gIpL.s 			page 88


 3719 11ab 26       		.uleb128 0x26
 3720 11ac C10D0000 		.4byte	.LASF244
 3721 11b0 07       		.byte	0x7
 3722 11b1 01       		.byte	0x1
 3723 11b2 6D000000 		.4byte	0x6d
 3724 11b6 10       		.byte	0x10
 3725 11b7 97       		.byte	0x97
 3726 11b8 CF110000 		.4byte	0x11cf
 3727 11bc 20       		.uleb128 0x20
 3728 11bd 3A030000 		.4byte	.LASF245
 3729 11c1 00       		.byte	0
 3730 11c2 20       		.uleb128 0x20
 3731 11c3 F1140000 		.4byte	.LASF246
 3732 11c7 01       		.byte	0x1
 3733 11c8 20       		.uleb128 0x20
 3734 11c9 06220000 		.4byte	.LASF247
 3735 11cd 02       		.byte	0x2
 3736 11ce 00       		.byte	0
 3737 11cf 03       		.uleb128 0x3
 3738 11d0 40240000 		.4byte	.LASF248
 3739 11d4 10       		.byte	0x10
 3740 11d5 A5       		.byte	0xa5
 3741 11d6 AB110000 		.4byte	0x11ab
 3742 11da 10       		.uleb128 0x10
 3743 11db 68260000 		.4byte	.LASF249
 3744 11df 01       		.byte	0x1
 3745 11e0 10       		.byte	0x10
 3746 11e1 B4       		.byte	0xb4
 3747 11e2 09120000 		.4byte	0x1209
 3748 11e6 27       		.uleb128 0x27
 3749 11e7 4D696E00 		.ascii	"Min\000"
 3750 11eb 10       		.byte	0x10
 3751 11ec BD       		.byte	0xbd
 3752 11ed 010A0000 		.4byte	0xa01
 3753 11f1 01       		.byte	0x1
 3754 11f2 04       		.byte	0x4
 3755 11f3 04       		.byte	0x4
 3756 11f4 02       		.byte	0x2
 3757 11f5 23       		.byte	0x23
 3758 11f6 00       		.uleb128 0
 3759 11f7 27       		.uleb128 0x27
 3760 11f8 4D617800 		.ascii	"Max\000"
 3761 11fc 10       		.byte	0x10
 3762 11fd C5       		.byte	0xc5
 3763 11fe 010A0000 		.4byte	0xa01
 3764 1202 01       		.byte	0x1
 3765 1203 04       		.byte	0x4
 3766 1204 00       		.byte	0
 3767 1205 02       		.byte	0x2
 3768 1206 23       		.byte	0x23
 3769 1207 00       		.uleb128 0
 3770 1208 00       		.byte	0
 3771 1209 22       		.uleb128 0x22
 3772 120a 840B0000 		.4byte	.LASF251
 3773 120e 01       		.byte	0x1
 3774 120f 10       		.byte	0x10
 3775 1210 AB       		.byte	0xab
ARM GAS  C:\Users\EBANO_~1\AppData\Local\Temp\ccD2gIpL.s 			page 89


 3776 1211 2C120000 		.4byte	0x122c
 3777 1215 09       		.uleb128 0x9
 3778 1216 31280000 		.4byte	.LASF150
 3779 121a 10       		.byte	0x10
 3780 121b B0       		.byte	0xb0
 3781 121c 010A0000 		.4byte	0xa01
 3782 1220 09       		.uleb128 0x9
 3783 1221 BE140000 		.4byte	.LASF149
 3784 1225 10       		.byte	0x10
 3785 1226 C6       		.byte	0xc6
 3786 1227 DA110000 		.4byte	0x11da
 3787 122b 00       		.byte	0
 3788 122c 03       		.uleb128 0x3
 3789 122d A5090000 		.4byte	.LASF252
 3790 1231 10       		.byte	0x10
 3791 1232 C7       		.byte	0xc7
 3792 1233 09120000 		.4byte	0x1209
 3793 1237 10       		.uleb128 0x10
 3794 1238 BB1E0000 		.4byte	.LASF253
 3795 123c 0C       		.byte	0xc
 3796 123d 10       		.byte	0x10
 3797 123e CC       		.byte	0xcc
 3798 123f 7C120000 		.4byte	0x127c
 3799 1243 0D       		.uleb128 0xd
 3800 1244 30230000 		.4byte	.LASF254
 3801 1248 10       		.byte	0x10
 3802 1249 D1       		.byte	0xd1
 3803 124a 320A0000 		.4byte	0xa32
 3804 124e 02       		.byte	0x2
 3805 124f 23       		.byte	0x23
 3806 1250 00       		.uleb128 0
 3807 1251 0D       		.uleb128 0xd
 3808 1252 5F150000 		.4byte	.LASF255
 3809 1256 10       		.byte	0x10
 3810 1257 D5       		.byte	0xd5
 3811 1258 320A0000 		.4byte	0xa32
 3812 125c 02       		.byte	0x2
 3813 125d 23       		.byte	0x23
 3814 125e 04       		.uleb128 0x4
 3815 125f 0D       		.uleb128 0xd
 3816 1260 EE070000 		.4byte	.LASF256
 3817 1264 10       		.byte	0x10
 3818 1265 D9       		.byte	0xd9
 3819 1266 2C120000 		.4byte	0x122c
 3820 126a 02       		.byte	0x2
 3821 126b 23       		.byte	0x23
 3822 126c 08       		.uleb128 0x8
 3823 126d 0D       		.uleb128 0xd
 3824 126e 8D0B0000 		.4byte	.LASF257
 3825 1272 10       		.byte	0x10
 3826 1273 DD       		.byte	0xdd
 3827 1274 0C0A0000 		.4byte	0xa0c
 3828 1278 02       		.byte	0x2
 3829 1279 23       		.byte	0x23
 3830 127a 09       		.uleb128 0x9
 3831 127b 00       		.byte	0
 3832 127c 03       		.uleb128 0x3
ARM GAS  C:\Users\EBANO_~1\AppData\Local\Temp\ccD2gIpL.s 			page 90


 3833 127d D4120000 		.4byte	.LASF258
 3834 1281 10       		.byte	0x10
 3835 1282 DE       		.byte	0xde
 3836 1283 37120000 		.4byte	0x1237
 3837 1287 10       		.uleb128 0x10
 3838 1288 54090000 		.4byte	.LASF259
 3839 128c 08       		.byte	0x8
 3840 128d 10       		.byte	0x10
 3841 128e E3       		.byte	0xe3
 3842 128f B0120000 		.4byte	0x12b0
 3843 1293 0D       		.uleb128 0xd
 3844 1294 30230000 		.4byte	.LASF254
 3845 1298 10       		.byte	0x10
 3846 1299 E8       		.byte	0xe8
 3847 129a 320A0000 		.4byte	0xa32
 3848 129e 02       		.byte	0x2
 3849 129f 23       		.byte	0x23
 3850 12a0 00       		.uleb128 0
 3851 12a1 0D       		.uleb128 0xd
 3852 12a2 2B240000 		.4byte	.LASF260
 3853 12a6 10       		.byte	0x10
 3854 12a7 F0       		.byte	0xf0
 3855 12a8 0C0A0000 		.4byte	0xa0c
 3856 12ac 02       		.byte	0x2
 3857 12ad 23       		.byte	0x23
 3858 12ae 04       		.uleb128 0x4
 3859 12af 00       		.byte	0
 3860 12b0 03       		.uleb128 0x3
 3861 12b1 E90F0000 		.4byte	.LASF261
 3862 12b5 10       		.byte	0x10
 3863 12b6 F1       		.byte	0xf1
 3864 12b7 87120000 		.4byte	0x1287
 3865 12bb 26       		.uleb128 0x26
 3866 12bc A50E0000 		.4byte	.LASF262
 3867 12c0 07       		.byte	0x7
 3868 12c1 01       		.byte	0x1
 3869 12c2 6D000000 		.4byte	0x6d
 3870 12c6 10       		.byte	0x10
 3871 12c7 F6       		.byte	0xf6
 3872 12c8 EB120000 		.4byte	0x12eb
 3873 12cc 20       		.uleb128 0x20
 3874 12cd 671E0000 		.4byte	.LASF263
 3875 12d1 00       		.byte	0
 3876 12d2 20       		.uleb128 0x20
 3877 12d3 751E0000 		.4byte	.LASF264
 3878 12d7 01       		.byte	0x1
 3879 12d8 20       		.uleb128 0x20
 3880 12d9 00000000 		.4byte	.LASF265
 3881 12dd 02       		.byte	0x2
 3882 12de 20       		.uleb128 0x20
 3883 12df E7260000 		.4byte	.LASF266
 3884 12e3 03       		.byte	0x3
 3885 12e4 20       		.uleb128 0x20
 3886 12e5 460F0000 		.4byte	.LASF267
 3887 12e9 04       		.byte	0x4
 3888 12ea 00       		.byte	0
 3889 12eb 07       		.uleb128 0x7
ARM GAS  C:\Users\EBANO_~1\AppData\Local\Temp\ccD2gIpL.s 			page 91


 3890 12ec B9110000 		.4byte	.LASF268
 3891 12f0 10       		.byte	0x10
 3892 12f1 0C01     		.2byte	0x10c
 3893 12f3 BB120000 		.4byte	0x12bb
 3894 12f7 18       		.uleb128 0x18
 3895 12f8 73180000 		.4byte	.LASF269
 3896 12fc 40       		.byte	0x40
 3897 12fd 10       		.byte	0x10
 3898 12fe 1101     		.2byte	0x111
 3899 1300 F5130000 		.4byte	0x13f5
 3900 1304 17       		.uleb128 0x17
 3901 1305 55070000 		.4byte	.LASF270
 3902 1309 10       		.byte	0x10
 3903 130a 1601     		.2byte	0x116
 3904 130c 5B010000 		.4byte	0x15b
 3905 1310 02       		.byte	0x2
 3906 1311 23       		.byte	0x23
 3907 1312 00       		.uleb128 0
 3908 1313 17       		.uleb128 0x17
 3909 1314 DC1F0000 		.4byte	.LASF271
 3910 1318 10       		.byte	0x10
 3911 1319 1A01     		.2byte	0x11a
 3912 131b 30000000 		.4byte	0x30
 3913 131f 02       		.byte	0x2
 3914 1320 23       		.byte	0x23
 3915 1321 04       		.uleb128 0x4
 3916 1322 17       		.uleb128 0x17
 3917 1323 D8100000 		.4byte	.LASF272
 3918 1327 10       		.byte	0x10
 3919 1328 1E01     		.2byte	0x11e
 3920 132a 5B010000 		.4byte	0x15b
 3921 132e 02       		.byte	0x2
 3922 132f 23       		.byte	0x23
 3923 1330 08       		.uleb128 0x8
 3924 1331 17       		.uleb128 0x17
 3925 1332 4D190000 		.4byte	.LASF273
 3926 1336 10       		.byte	0x10
 3927 1337 2201     		.2byte	0x122
 3928 1339 30000000 		.4byte	0x30
 3929 133d 02       		.byte	0x2
 3930 133e 23       		.byte	0x23
 3931 133f 0C       		.uleb128 0xc
 3932 1340 17       		.uleb128 0x17
 3933 1341 291E0000 		.4byte	.LASF274
 3934 1345 10       		.byte	0x10
 3935 1346 2601     		.2byte	0x126
 3936 1348 5B010000 		.4byte	0x15b
 3937 134c 02       		.byte	0x2
 3938 134d 23       		.byte	0x23
 3939 134e 10       		.uleb128 0x10
 3940 134f 17       		.uleb128 0x17
 3941 1350 7C1A0000 		.4byte	.LASF275
 3942 1354 10       		.byte	0x10
 3943 1355 2A01     		.2byte	0x12a
 3944 1357 30000000 		.4byte	0x30
 3945 135b 02       		.byte	0x2
 3946 135c 23       		.byte	0x23
ARM GAS  C:\Users\EBANO_~1\AppData\Local\Temp\ccD2gIpL.s 			page 92


 3947 135d 14       		.uleb128 0x14
 3948 135e 17       		.uleb128 0x17
 3949 135f FB110000 		.4byte	.LASF276
 3950 1363 10       		.byte	0x10
 3951 1364 2E01     		.2byte	0x12e
 3952 1366 5B010000 		.4byte	0x15b
 3953 136a 02       		.byte	0x2
 3954 136b 23       		.byte	0x23
 3955 136c 18       		.uleb128 0x18
 3956 136d 17       		.uleb128 0x17
 3957 136e 771D0000 		.4byte	.LASF277
 3958 1372 10       		.byte	0x10
 3959 1373 3201     		.2byte	0x132
 3960 1375 30000000 		.4byte	0x30
 3961 1379 02       		.byte	0x2
 3962 137a 23       		.byte	0x23
 3963 137b 1C       		.uleb128 0x1c
 3964 137c 17       		.uleb128 0x17
 3965 137d 78150000 		.4byte	.LASF278
 3966 1381 10       		.byte	0x10
 3967 1382 3601     		.2byte	0x136
 3968 1384 5B010000 		.4byte	0x15b
 3969 1388 02       		.byte	0x2
 3970 1389 23       		.byte	0x23
 3971 138a 20       		.uleb128 0x20
 3972 138b 17       		.uleb128 0x17
 3973 138c E6270000 		.4byte	.LASF279
 3974 1390 10       		.byte	0x10
 3975 1391 3A01     		.2byte	0x13a
 3976 1393 30000000 		.4byte	0x30
 3977 1397 02       		.byte	0x2
 3978 1398 23       		.byte	0x23
 3979 1399 24       		.uleb128 0x24
 3980 139a 17       		.uleb128 0x17
 3981 139b 89230000 		.4byte	.LASF280
 3982 139f 10       		.byte	0x10
 3983 13a0 3E01     		.2byte	0x13e
 3984 13a2 5B010000 		.4byte	0x15b
 3985 13a6 02       		.byte	0x2
 3986 13a7 23       		.byte	0x23
 3987 13a8 28       		.uleb128 0x28
 3988 13a9 17       		.uleb128 0x17
 3989 13aa F5210000 		.4byte	.LASF281
 3990 13ae 10       		.byte	0x10
 3991 13af 4201     		.2byte	0x142
 3992 13b1 30000000 		.4byte	0x30
 3993 13b5 02       		.byte	0x2
 3994 13b6 23       		.byte	0x23
 3995 13b7 2C       		.uleb128 0x2c
 3996 13b8 17       		.uleb128 0x17
 3997 13b9 181A0000 		.4byte	.LASF282
 3998 13bd 10       		.byte	0x10
 3999 13be 4601     		.2byte	0x146
 4000 13c0 5B010000 		.4byte	0x15b
 4001 13c4 02       		.byte	0x2
 4002 13c5 23       		.byte	0x23
 4003 13c6 30       		.uleb128 0x30
ARM GAS  C:\Users\EBANO_~1\AppData\Local\Temp\ccD2gIpL.s 			page 93


 4004 13c7 17       		.uleb128 0x17
 4005 13c8 51260000 		.4byte	.LASF283
 4006 13cc 10       		.byte	0x10
 4007 13cd 4A01     		.2byte	0x14a
 4008 13cf 30000000 		.4byte	0x30
 4009 13d3 02       		.byte	0x2
 4010 13d4 23       		.byte	0x23
 4011 13d5 34       		.uleb128 0x34
 4012 13d6 17       		.uleb128 0x17
 4013 13d7 4E1F0000 		.4byte	.LASF284
 4014 13db 10       		.byte	0x10
 4015 13dc 4E01     		.2byte	0x14e
 4016 13de 5B010000 		.4byte	0x15b
 4017 13e2 02       		.byte	0x2
 4018 13e3 23       		.byte	0x23
 4019 13e4 38       		.uleb128 0x38
 4020 13e5 17       		.uleb128 0x17
 4021 13e6 D2240000 		.4byte	.LASF285
 4022 13ea 10       		.byte	0x10
 4023 13eb 5201     		.2byte	0x152
 4024 13ed 30000000 		.4byte	0x30
 4025 13f1 02       		.byte	0x2
 4026 13f2 23       		.byte	0x23
 4027 13f3 3C       		.uleb128 0x3c
 4028 13f4 00       		.byte	0
 4029 13f5 07       		.uleb128 0x7
 4030 13f6 1C040000 		.4byte	.LASF286
 4031 13fa 10       		.byte	0x10
 4032 13fb 5301     		.2byte	0x153
 4033 13fd F7120000 		.4byte	0x12f7
 4034 1401 18       		.uleb128 0x18
 4035 1402 EF000000 		.4byte	.LASF287
 4036 1406 14       		.byte	0x14
 4037 1407 10       		.byte	0x10
 4038 1408 A601     		.2byte	0x1a6
 4039 140a 69140000 		.4byte	0x1469
 4040 140e 17       		.uleb128 0x17
 4041 140f B5090000 		.4byte	.LASF288
 4042 1413 10       		.byte	0x10
 4043 1414 AB01     		.2byte	0x1ab
 4044 1416 71110000 		.4byte	0x1171
 4045 141a 02       		.byte	0x2
 4046 141b 23       		.byte	0x23
 4047 141c 00       		.uleb128 0
 4048 141d 17       		.uleb128 0x17
 4049 141e 96230000 		.4byte	.LASF289
 4050 1422 10       		.byte	0x10
 4051 1423 AF01     		.2byte	0x1af
 4052 1425 320A0000 		.4byte	0xa32
 4053 1429 02       		.byte	0x2
 4054 142a 23       		.byte	0x23
 4055 142b 04       		.uleb128 0x4
 4056 142c 17       		.uleb128 0x17
 4057 142d 47260000 		.4byte	.LASF290
 4058 1431 10       		.byte	0x10
 4059 1432 B301     		.2byte	0x1b3
 4060 1434 AC0B0000 		.4byte	0xbac
ARM GAS  C:\Users\EBANO_~1\AppData\Local\Temp\ccD2gIpL.s 			page 94


 4061 1438 02       		.byte	0x2
 4062 1439 23       		.byte	0x23
 4063 143a 08       		.uleb128 0x8
 4064 143b 17       		.uleb128 0x17
 4065 143c 30230000 		.4byte	.LASF254
 4066 1440 10       		.byte	0x10
 4067 1441 B701     		.2byte	0x1b7
 4068 1443 320A0000 		.4byte	0xa32
 4069 1447 02       		.byte	0x2
 4070 1448 23       		.byte	0x23
 4071 1449 0C       		.uleb128 0xc
 4072 144a 17       		.uleb128 0x17
 4073 144b 2B240000 		.4byte	.LASF260
 4074 144f 10       		.byte	0x10
 4075 1450 BB01     		.2byte	0x1bb
 4076 1452 010A0000 		.4byte	0xa01
 4077 1456 02       		.byte	0x2
 4078 1457 23       		.byte	0x23
 4079 1458 10       		.uleb128 0x10
 4080 1459 17       		.uleb128 0x17
 4081 145a AD0C0000 		.4byte	.LASF291
 4082 145e 10       		.byte	0x10
 4083 145f C001     		.2byte	0x1c0
 4084 1461 270A0000 		.4byte	0xa27
 4085 1465 02       		.byte	0x2
 4086 1466 23       		.byte	0x23
 4087 1467 12       		.uleb128 0x12
 4088 1468 00       		.byte	0
 4089 1469 07       		.uleb128 0x7
 4090 146a FD100000 		.4byte	.LASF292
 4091 146e 10       		.byte	0x10
 4092 146f C101     		.2byte	0x1c1
 4093 1471 01140000 		.4byte	0x1401
 4094 1475 18       		.uleb128 0x18
 4095 1476 27210000 		.4byte	.LASF293
 4096 147a 01       		.byte	0x1
 4097 147b 10       		.byte	0x10
 4098 147c D101     		.2byte	0x1d1
 4099 147e A7140000 		.4byte	0x14a7
 4100 1482 28       		.uleb128 0x28
 4101 1483 AD0C0000 		.4byte	.LASF291
 4102 1487 10       		.byte	0x10
 4103 1488 D701     		.2byte	0x1d7
 4104 148a 0C0A0000 		.4byte	0xa0c
 4105 148e 01       		.byte	0x1
 4106 148f 03       		.byte	0x3
 4107 1490 05       		.byte	0x5
 4108 1491 02       		.byte	0x2
 4109 1492 23       		.byte	0x23
 4110 1493 00       		.uleb128 0
 4111 1494 29       		.uleb128 0x29
 4112 1495 52465500 		.ascii	"RFU\000"
 4113 1499 10       		.byte	0x10
 4114 149a DB01     		.2byte	0x1db
 4115 149c 0C0A0000 		.4byte	0xa0c
 4116 14a0 01       		.byte	0x1
 4117 14a1 05       		.byte	0x5
ARM GAS  C:\Users\EBANO_~1\AppData\Local\Temp\ccD2gIpL.s 			page 95


 4118 14a2 00       		.byte	0
 4119 14a3 02       		.byte	0x2
 4120 14a4 23       		.byte	0x23
 4121 14a5 00       		.uleb128 0
 4122 14a6 00       		.byte	0
 4123 14a7 2A       		.uleb128 0x2a
 4124 14a8 920B0000 		.4byte	.LASF294
 4125 14ac 01       		.byte	0x1
 4126 14ad 10       		.byte	0x10
 4127 14ae C801     		.2byte	0x1c8
 4128 14b0 CD140000 		.4byte	0x14cd
 4129 14b4 1B       		.uleb128 0x1b
 4130 14b5 31280000 		.4byte	.LASF150
 4131 14b9 10       		.byte	0x10
 4132 14ba CD01     		.2byte	0x1cd
 4133 14bc 0C0A0000 		.4byte	0xa0c
 4134 14c0 1B       		.uleb128 0x1b
 4135 14c1 BE140000 		.4byte	.LASF149
 4136 14c5 10       		.byte	0x10
 4137 14c6 DC01     		.2byte	0x1dc
 4138 14c8 75140000 		.4byte	0x1475
 4139 14cc 00       		.byte	0
 4140 14cd 07       		.uleb128 0x7
 4141 14ce 58080000 		.4byte	.LASF295
 4142 14d2 10       		.byte	0x10
 4143 14d3 DD01     		.2byte	0x1dd
 4144 14d5 A7140000 		.4byte	0x14a7
 4145 14d9 18       		.uleb128 0x18
 4146 14da 2D110000 		.4byte	.LASF296
 4147 14de 07       		.byte	0x7
 4148 14df 10       		.byte	0x10
 4149 14e0 FF01     		.2byte	0x1ff
 4150 14e2 05150000 		.4byte	0x1505
 4151 14e6 17       		.uleb128 0x17
 4152 14e7 5E1E0000 		.4byte	.LASF297
 4153 14eb 10       		.byte	0x10
 4154 14ec 0402     		.2byte	0x204
 4155 14ee 0C0A0000 		.4byte	0xa0c
 4156 14f2 02       		.byte	0x2
 4157 14f3 23       		.byte	0x23
 4158 14f4 00       		.uleb128 0
 4159 14f5 17       		.uleb128 0x17
 4160 14f6 25200000 		.4byte	.LASF298
 4161 14fa 10       		.byte	0x10
 4162 14fb 0802     		.2byte	0x208
 4163 14fd 05150000 		.4byte	0x1505
 4164 1501 02       		.byte	0x2
 4165 1502 23       		.byte	0x23
 4166 1503 01       		.uleb128 0x1
 4167 1504 00       		.byte	0
 4168 1505 0A       		.uleb128 0xa
 4169 1506 0C0A0000 		.4byte	0xa0c
 4170 150a 15150000 		.4byte	0x1515
 4171 150e 0B       		.uleb128 0xb
 4172 150f 3B000000 		.4byte	0x3b
 4173 1513 05       		.byte	0x5
 4174 1514 00       		.byte	0
ARM GAS  C:\Users\EBANO_~1\AppData\Local\Temp\ccD2gIpL.s 			page 96


 4175 1515 18       		.uleb128 0x18
 4176 1516 8A200000 		.4byte	.LASF299
 4177 151a 14       		.byte	0x14
 4178 151b 10       		.byte	0x10
 4179 151c E401     		.2byte	0x1e4
 4180 151e 7D150000 		.4byte	0x157d
 4181 1522 17       		.uleb128 0x17
 4182 1523 C01D0000 		.4byte	.LASF300
 4183 1527 10       		.byte	0x10
 4184 1528 EA01     		.2byte	0x1ea
 4185 152a 320A0000 		.4byte	0xa32
 4186 152e 02       		.byte	0x2
 4187 152f 23       		.byte	0x23
 4188 1530 00       		.uleb128 0
 4189 1531 17       		.uleb128 0x17
 4190 1532 30230000 		.4byte	.LASF254
 4191 1536 10       		.byte	0x10
 4192 1537 EE01     		.2byte	0x1ee
 4193 1539 320A0000 		.4byte	0xa32
 4194 153d 02       		.byte	0x2
 4195 153e 23       		.byte	0x23
 4196 153f 04       		.uleb128 0x4
 4197 1540 17       		.uleb128 0x17
 4198 1541 2B240000 		.4byte	.LASF260
 4199 1545 10       		.byte	0x10
 4200 1546 F201     		.2byte	0x1f2
 4201 1548 0C0A0000 		.4byte	0xa0c
 4202 154c 02       		.byte	0x2
 4203 154d 23       		.byte	0x23
 4204 154e 08       		.uleb128 0x8
 4205 154f 17       		.uleb128 0x17
 4206 1550 CE210000 		.4byte	.LASF194
 4207 1554 10       		.byte	0x10
 4208 1555 F601     		.2byte	0x1f6
 4209 1557 1C0A0000 		.4byte	0xa1c
 4210 155b 02       		.byte	0x2
 4211 155c 23       		.byte	0x23
 4212 155d 0A       		.uleb128 0xa
 4213 155e 24       		.uleb128 0x24
 4214 155f 536E7200 		.ascii	"Snr\000"
 4215 1563 10       		.byte	0x10
 4216 1564 FA01     		.2byte	0x1fa
 4217 1566 010A0000 		.4byte	0xa01
 4218 156a 02       		.byte	0x2
 4219 156b 23       		.byte	0x23
 4220 156c 0C       		.uleb128 0xc
 4221 156d 17       		.uleb128 0x17
 4222 156e 11160000 		.4byte	.LASF301
 4223 1572 10       		.byte	0x10
 4224 1573 0902     		.2byte	0x209
 4225 1575 D9140000 		.4byte	0x14d9
 4226 1579 02       		.byte	0x2
 4227 157a 23       		.byte	0x23
 4228 157b 0D       		.uleb128 0xd
 4229 157c 00       		.byte	0
 4230 157d 07       		.uleb128 0x7
 4231 157e 68250000 		.4byte	.LASF302
ARM GAS  C:\Users\EBANO_~1\AppData\Local\Temp\ccD2gIpL.s 			page 97


 4232 1582 10       		.byte	0x10
 4233 1583 0A02     		.2byte	0x20a
 4234 1585 15150000 		.4byte	0x1515
 4235 1589 1E       		.uleb128 0x1e
 4236 158a C7010000 		.4byte	.LASF303
 4237 158e 07       		.byte	0x7
 4238 158f 01       		.byte	0x1
 4239 1590 6D000000 		.4byte	0x6d
 4240 1594 10       		.byte	0x10
 4241 1595 0F02     		.2byte	0x20f
 4242 1597 02160000 		.4byte	0x1602
 4243 159b 20       		.uleb128 0x20
 4244 159c 2A200000 		.4byte	.LASF304
 4245 15a0 00       		.byte	0
 4246 15a1 20       		.uleb128 0x20
 4247 15a2 A51B0000 		.4byte	.LASF305
 4248 15a6 01       		.byte	0x1
 4249 15a7 20       		.uleb128 0x20
 4250 15a8 42130000 		.4byte	.LASF306
 4251 15ac 02       		.byte	0x2
 4252 15ad 20       		.uleb128 0x20
 4253 15ae BA260000 		.4byte	.LASF307
 4254 15b2 03       		.byte	0x3
 4255 15b3 20       		.uleb128 0x20
 4256 15b4 2C020000 		.4byte	.LASF308
 4257 15b8 04       		.byte	0x4
 4258 15b9 20       		.uleb128 0x20
 4259 15ba F0020000 		.4byte	.LASF309
 4260 15be 05       		.byte	0x5
 4261 15bf 20       		.uleb128 0x20
 4262 15c0 A00B0000 		.4byte	.LASF310
 4263 15c4 06       		.byte	0x6
 4264 15c5 20       		.uleb128 0x20
 4265 15c6 D5190000 		.4byte	.LASF311
 4266 15ca 07       		.byte	0x7
 4267 15cb 20       		.uleb128 0x20
 4268 15cc 3F120000 		.4byte	.LASF312
 4269 15d0 08       		.byte	0x8
 4270 15d1 20       		.uleb128 0x20
 4271 15d2 7A1C0000 		.4byte	.LASF313
 4272 15d6 09       		.byte	0x9
 4273 15d7 20       		.uleb128 0x20
 4274 15d8 CB200000 		.4byte	.LASF314
 4275 15dc 0A       		.byte	0xa
 4276 15dd 20       		.uleb128 0x20
 4277 15de F8170000 		.4byte	.LASF315
 4278 15e2 0B       		.byte	0xb
 4279 15e3 20       		.uleb128 0x20
 4280 15e4 43100000 		.4byte	.LASF316
 4281 15e8 0C       		.byte	0xc
 4282 15e9 20       		.uleb128 0x20
 4283 15ea 9F0A0000 		.4byte	.LASF317
 4284 15ee 0D       		.byte	0xd
 4285 15ef 20       		.uleb128 0x20
 4286 15f0 A6270000 		.4byte	.LASF318
 4287 15f4 0E       		.byte	0xe
 4288 15f5 20       		.uleb128 0x20
ARM GAS  C:\Users\EBANO_~1\AppData\Local\Temp\ccD2gIpL.s 			page 98


 4289 15f6 83190000 		.4byte	.LASF319
 4290 15fa 0F       		.byte	0xf
 4291 15fb 20       		.uleb128 0x20
 4292 15fc E81E0000 		.4byte	.LASF320
 4293 1600 10       		.byte	0x10
 4294 1601 00       		.byte	0
 4295 1602 07       		.uleb128 0x7
 4296 1603 70230000 		.4byte	.LASF321
 4297 1607 10       		.byte	0x10
 4298 1608 5802     		.2byte	0x258
 4299 160a 89150000 		.4byte	0x1589
 4300 160e 1E       		.uleb128 0x1e
 4301 160f 95020000 		.4byte	.LASF322
 4302 1613 07       		.byte	0x7
 4303 1614 01       		.byte	0x1
 4304 1615 6D000000 		.4byte	0x6d
 4305 1619 10       		.byte	0x10
 4306 161a 9602     		.2byte	0x296
 4307 161c 39160000 		.4byte	0x1639
 4308 1620 20       		.uleb128 0x20
 4309 1621 75250000 		.4byte	.LASF323
 4310 1625 00       		.byte	0
 4311 1626 20       		.uleb128 0x20
 4312 1627 1E110000 		.4byte	.LASF324
 4313 162b 01       		.byte	0x1
 4314 162c 20       		.uleb128 0x20
 4315 162d 4B290000 		.4byte	.LASF325
 4316 1631 02       		.byte	0x2
 4317 1632 20       		.uleb128 0x20
 4318 1633 54010000 		.4byte	.LASF326
 4319 1637 03       		.byte	0x3
 4320 1638 00       		.byte	0
 4321 1639 07       		.uleb128 0x7
 4322 163a 86120000 		.4byte	.LASF327
 4323 163e 10       		.byte	0x10
 4324 163f A802     		.2byte	0x2a8
 4325 1641 0E160000 		.4byte	0x160e
 4326 1645 18       		.uleb128 0x18
 4327 1646 29050000 		.4byte	.LASF328
 4328 164a 0C       		.byte	0xc
 4329 164b 10       		.byte	0x10
 4330 164c AD02     		.2byte	0x2ad
 4331 164e 8F160000 		.4byte	0x168f
 4332 1652 17       		.uleb128 0x17
 4333 1653 E9000000 		.4byte	.LASF329
 4334 1657 10       		.byte	0x10
 4335 1658 B502     		.2byte	0x2b5
 4336 165a 0C0A0000 		.4byte	0xa0c
 4337 165e 02       		.byte	0x2
 4338 165f 23       		.byte	0x23
 4339 1660 00       		.uleb128 0
 4340 1661 17       		.uleb128 0x17
 4341 1662 0B010000 		.4byte	.LASF330
 4342 1666 10       		.byte	0x10
 4343 1667 B902     		.2byte	0x2b9
 4344 1669 5B010000 		.4byte	0x15b
 4345 166d 02       		.byte	0x2
ARM GAS  C:\Users\EBANO_~1\AppData\Local\Temp\ccD2gIpL.s 			page 99


 4346 166e 23       		.byte	0x23
 4347 166f 04       		.uleb128 0x4
 4348 1670 17       		.uleb128 0x17
 4349 1671 64230000 		.4byte	.LASF331
 4350 1675 10       		.byte	0x10
 4351 1676 BD02     		.2byte	0x2bd
 4352 1678 270A0000 		.4byte	0xa27
 4353 167c 02       		.byte	0x2
 4354 167d 23       		.byte	0x23
 4355 167e 08       		.uleb128 0x8
 4356 167f 17       		.uleb128 0x17
 4357 1680 2B240000 		.4byte	.LASF260
 4358 1684 10       		.byte	0x10
 4359 1685 C102     		.2byte	0x2c1
 4360 1687 010A0000 		.4byte	0xa01
 4361 168b 02       		.byte	0x2
 4362 168c 23       		.byte	0x23
 4363 168d 0A       		.uleb128 0xa
 4364 168e 00       		.byte	0
 4365 168f 07       		.uleb128 0x7
 4366 1690 3A230000 		.4byte	.LASF332
 4367 1694 10       		.byte	0x10
 4368 1695 C202     		.2byte	0x2c2
 4369 1697 45160000 		.4byte	0x1645
 4370 169b 18       		.uleb128 0x18
 4371 169c 500D0000 		.4byte	.LASF333
 4372 16a0 0C       		.byte	0xc
 4373 16a1 10       		.byte	0x10
 4374 16a2 C702     		.2byte	0x2c7
 4375 16a4 F4160000 		.4byte	0x16f4
 4376 16a8 17       		.uleb128 0x17
 4377 16a9 E9000000 		.4byte	.LASF329
 4378 16ad 10       		.byte	0x10
 4379 16ae CF02     		.2byte	0x2cf
 4380 16b0 0C0A0000 		.4byte	0xa0c
 4381 16b4 02       		.byte	0x2
 4382 16b5 23       		.byte	0x23
 4383 16b6 00       		.uleb128 0
 4384 16b7 17       		.uleb128 0x17
 4385 16b8 0B010000 		.4byte	.LASF330
 4386 16bc 10       		.byte	0x10
 4387 16bd D302     		.2byte	0x2d3
 4388 16bf 5B010000 		.4byte	0x15b
 4389 16c3 02       		.byte	0x2
 4390 16c4 23       		.byte	0x23
 4391 16c5 04       		.uleb128 0x4
 4392 16c6 17       		.uleb128 0x17
 4393 16c7 64230000 		.4byte	.LASF331
 4394 16cb 10       		.byte	0x10
 4395 16cc D702     		.2byte	0x2d7
 4396 16ce 270A0000 		.4byte	0xa27
 4397 16d2 02       		.byte	0x2
 4398 16d3 23       		.byte	0x23
 4399 16d4 08       		.uleb128 0x8
 4400 16d5 17       		.uleb128 0x17
 4401 16d6 2B240000 		.4byte	.LASF260
 4402 16da 10       		.byte	0x10
ARM GAS  C:\Users\EBANO_~1\AppData\Local\Temp\ccD2gIpL.s 			page 100


 4403 16db DB02     		.2byte	0x2db
 4404 16dd 010A0000 		.4byte	0xa01
 4405 16e1 02       		.byte	0x2
 4406 16e2 23       		.byte	0x23
 4407 16e3 0A       		.uleb128 0xa
 4408 16e4 17       		.uleb128 0x17
 4409 16e5 F31C0000 		.4byte	.LASF334
 4410 16e9 10       		.byte	0x10
 4411 16ea F002     		.2byte	0x2f0
 4412 16ec 0C0A0000 		.4byte	0xa0c
 4413 16f0 02       		.byte	0x2
 4414 16f1 23       		.byte	0x23
 4415 16f2 0B       		.uleb128 0xb
 4416 16f3 00       		.byte	0
 4417 16f4 07       		.uleb128 0x7
 4418 16f5 26160000 		.4byte	.LASF335
 4419 16f9 10       		.byte	0x10
 4420 16fa F102     		.2byte	0x2f1
 4421 16fc 9B160000 		.4byte	0x169b
 4422 1700 18       		.uleb128 0x18
 4423 1701 66220000 		.4byte	.LASF336
 4424 1705 08       		.byte	0x8
 4425 1706 10       		.byte	0x10
 4426 1707 F602     		.2byte	0x2f6
 4427 1709 3B170000 		.4byte	0x173b
 4428 170d 17       		.uleb128 0x17
 4429 170e 0B010000 		.4byte	.LASF330
 4430 1712 10       		.byte	0x10
 4431 1713 FB02     		.2byte	0x2fb
 4432 1715 5B010000 		.4byte	0x15b
 4433 1719 02       		.byte	0x2
 4434 171a 23       		.byte	0x23
 4435 171b 00       		.uleb128 0
 4436 171c 17       		.uleb128 0x17
 4437 171d 64230000 		.4byte	.LASF331
 4438 1721 10       		.byte	0x10
 4439 1722 FF02     		.2byte	0x2ff
 4440 1724 270A0000 		.4byte	0xa27
 4441 1728 02       		.byte	0x2
 4442 1729 23       		.byte	0x23
 4443 172a 04       		.uleb128 0x4
 4444 172b 17       		.uleb128 0x17
 4445 172c 2B240000 		.4byte	.LASF260
 4446 1730 10       		.byte	0x10
 4447 1731 0303     		.2byte	0x303
 4448 1733 010A0000 		.4byte	0xa01
 4449 1737 02       		.byte	0x2
 4450 1738 23       		.byte	0x23
 4451 1739 06       		.uleb128 0x6
 4452 173a 00       		.byte	0
 4453 173b 07       		.uleb128 0x7
 4454 173c 791B0000 		.4byte	.LASF337
 4455 1740 10       		.byte	0x10
 4456 1741 0403     		.2byte	0x304
 4457 1743 00170000 		.4byte	0x1700
 4458 1747 2A       		.uleb128 0x2a
 4459 1748 87280000 		.4byte	.LASF338
ARM GAS  C:\Users\EBANO_~1\AppData\Local\Temp\ccD2gIpL.s 			page 101


 4460 174c 0C       		.byte	0xc
 4461 174d 10       		.byte	0x10
 4462 174e 1303     		.2byte	0x313
 4463 1750 79170000 		.4byte	0x1779
 4464 1754 1B       		.uleb128 0x1b
 4465 1755 FB080000 		.4byte	.LASF339
 4466 1759 10       		.byte	0x10
 4467 175a 1803     		.2byte	0x318
 4468 175c 8F160000 		.4byte	0x168f
 4469 1760 1B       		.uleb128 0x1b
 4470 1761 65290000 		.4byte	.LASF340
 4471 1765 10       		.byte	0x10
 4472 1766 1C03     		.2byte	0x31c
 4473 1768 F4160000 		.4byte	0x16f4
 4474 176c 1B       		.uleb128 0x1b
 4475 176d 700F0000 		.4byte	.LASF341
 4476 1771 10       		.byte	0x10
 4477 1772 2003     		.2byte	0x320
 4478 1774 3B170000 		.4byte	0x173b
 4479 1778 00       		.byte	0
 4480 1779 18       		.uleb128 0x18
 4481 177a 7E280000 		.4byte	.LASF342
 4482 177e 10       		.byte	0x10
 4483 177f 10       		.byte	0x10
 4484 1780 0903     		.2byte	0x309
 4485 1782 A5170000 		.4byte	0x17a5
 4486 1786 17       		.uleb128 0x17
 4487 1787 BC0D0000 		.4byte	.LASF343
 4488 178b 10       		.byte	0x10
 4489 178c 0E03     		.2byte	0x30e
 4490 178e 39160000 		.4byte	0x1639
 4491 1792 02       		.byte	0x2
 4492 1793 23       		.byte	0x23
 4493 1794 00       		.uleb128 0
 4494 1795 24       		.uleb128 0x24
 4495 1796 52657100 		.ascii	"Req\000"
 4496 179a 10       		.byte	0x10
 4497 179b 2103     		.2byte	0x321
 4498 179d 47170000 		.4byte	0x1747
 4499 17a1 02       		.byte	0x2
 4500 17a2 23       		.byte	0x23
 4501 17a3 04       		.uleb128 0x4
 4502 17a4 00       		.byte	0
 4503 17a5 07       		.uleb128 0x7
 4504 17a6 9B1B0000 		.4byte	.LASF344
 4505 17aa 10       		.byte	0x10
 4506 17ab 2203     		.2byte	0x322
 4507 17ad 79170000 		.4byte	0x1779
 4508 17b1 18       		.uleb128 0x18
 4509 17b2 F50A0000 		.4byte	.LASF345
 4510 17b6 14       		.byte	0x14
 4511 17b7 10       		.byte	0x10
 4512 17b8 2703     		.2byte	0x327
 4513 17ba 46180000 		.4byte	0x1846
 4514 17be 17       		.uleb128 0x17
 4515 17bf 88290000 		.4byte	.LASF346
 4516 17c3 10       		.byte	0x10
ARM GAS  C:\Users\EBANO_~1\AppData\Local\Temp\ccD2gIpL.s 			page 102


 4517 17c4 2C03     		.2byte	0x32c
 4518 17c6 39160000 		.4byte	0x1639
 4519 17ca 02       		.byte	0x2
 4520 17cb 23       		.byte	0x23
 4521 17cc 00       		.uleb128 0
 4522 17cd 17       		.uleb128 0x17
 4523 17ce 67190000 		.4byte	.LASF347
 4524 17d2 10       		.byte	0x10
 4525 17d3 3003     		.2byte	0x330
 4526 17d5 02160000 		.4byte	0x1602
 4527 17d9 02       		.byte	0x2
 4528 17da 23       		.byte	0x23
 4529 17db 01       		.uleb128 0x1
 4530 17dc 17       		.uleb128 0x17
 4531 17dd 2B240000 		.4byte	.LASF260
 4532 17e1 10       		.byte	0x10
 4533 17e2 3403     		.2byte	0x334
 4534 17e4 0C0A0000 		.4byte	0xa0c
 4535 17e8 02       		.byte	0x2
 4536 17e9 23       		.byte	0x23
 4537 17ea 02       		.uleb128 0x2
 4538 17eb 17       		.uleb128 0x17
 4539 17ec 5C200000 		.4byte	.LASF348
 4540 17f0 10       		.byte	0x10
 4541 17f1 3803     		.2byte	0x338
 4542 17f3 010A0000 		.4byte	0xa01
 4543 17f7 02       		.byte	0x2
 4544 17f8 23       		.byte	0x23
 4545 17f9 03       		.uleb128 0x3
 4546 17fa 17       		.uleb128 0x17
 4547 17fb 33210000 		.4byte	.LASF349
 4548 17ff 10       		.byte	0x10
 4549 1800 3C03     		.2byte	0x33c
 4550 1802 AC0B0000 		.4byte	0xbac
 4551 1806 02       		.byte	0x2
 4552 1807 23       		.byte	0x23
 4553 1808 04       		.uleb128 0x4
 4554 1809 17       		.uleb128 0x17
 4555 180a 6C030000 		.4byte	.LASF350
 4556 180e 10       		.byte	0x10
 4557 180f 4003     		.2byte	0x340
 4558 1811 0C0A0000 		.4byte	0xa0c
 4559 1815 02       		.byte	0x2
 4560 1816 23       		.byte	0x23
 4561 1817 05       		.uleb128 0x5
 4562 1818 17       		.uleb128 0x17
 4563 1819 14030000 		.4byte	.LASF351
 4564 181d 10       		.byte	0x10
 4565 181e 4403     		.2byte	0x344
 4566 1820 C30A0000 		.4byte	0xac3
 4567 1824 02       		.byte	0x2
 4568 1825 23       		.byte	0x23
 4569 1826 08       		.uleb128 0x8
 4570 1827 17       		.uleb128 0x17
 4571 1828 10110000 		.4byte	.LASF352
 4572 182c 10       		.byte	0x10
 4573 182d 4803     		.2byte	0x348
ARM GAS  C:\Users\EBANO_~1\AppData\Local\Temp\ccD2gIpL.s 			page 103


 4574 182f 320A0000 		.4byte	0xa32
 4575 1833 02       		.byte	0x2
 4576 1834 23       		.byte	0x23
 4577 1835 0C       		.uleb128 0xc
 4578 1836 17       		.uleb128 0x17
 4579 1837 AD1E0000 		.4byte	.LASF353
 4580 183b 10       		.byte	0x10
 4581 183c 4C03     		.2byte	0x34c
 4582 183e 320A0000 		.4byte	0xa32
 4583 1842 02       		.byte	0x2
 4584 1843 23       		.byte	0x23
 4585 1844 10       		.uleb128 0x10
 4586 1845 00       		.byte	0
 4587 1846 07       		.uleb128 0x7
 4588 1847 5D020000 		.4byte	.LASF354
 4589 184b 10       		.byte	0x10
 4590 184c 4D03     		.2byte	0x34d
 4591 184e B1170000 		.4byte	0x17b1
 4592 1852 18       		.uleb128 0x18
 4593 1853 B1190000 		.4byte	.LASF355
 4594 1857 1C       		.byte	0x1c
 4595 1858 10       		.byte	0x10
 4596 1859 5203     		.2byte	0x352
 4597 185b 41190000 		.4byte	0x1941
 4598 185f 17       		.uleb128 0x17
 4599 1860 B2280000 		.4byte	.LASF356
 4600 1864 10       		.byte	0x10
 4601 1865 5703     		.2byte	0x357
 4602 1867 39160000 		.4byte	0x1639
 4603 186b 02       		.byte	0x2
 4604 186c 23       		.byte	0x23
 4605 186d 00       		.uleb128 0
 4606 186e 17       		.uleb128 0x17
 4607 186f 67190000 		.4byte	.LASF347
 4608 1873 10       		.byte	0x10
 4609 1874 5B03     		.2byte	0x35b
 4610 1876 02160000 		.4byte	0x1602
 4611 187a 02       		.byte	0x2
 4612 187b 23       		.byte	0x23
 4613 187c 01       		.uleb128 0x1
 4614 187d 17       		.uleb128 0x17
 4615 187e 1C160000 		.4byte	.LASF357
 4616 1882 10       		.byte	0x10
 4617 1883 5F03     		.2byte	0x35f
 4618 1885 0C0A0000 		.4byte	0xa0c
 4619 1889 02       		.byte	0x2
 4620 188a 23       		.byte	0x23
 4621 188b 02       		.uleb128 0x2
 4622 188c 17       		.uleb128 0x17
 4623 188d 9B130000 		.4byte	.LASF358
 4624 1891 10       		.byte	0x10
 4625 1892 6303     		.2byte	0x363
 4626 1894 0C0A0000 		.4byte	0xa0c
 4627 1898 02       		.byte	0x2
 4628 1899 23       		.byte	0x23
 4629 189a 03       		.uleb128 0x3
 4630 189b 17       		.uleb128 0x17
ARM GAS  C:\Users\EBANO_~1\AppData\Local\Temp\ccD2gIpL.s 			page 104


 4631 189c 0E190000 		.4byte	.LASF359
 4632 18a0 10       		.byte	0x10
 4633 18a1 6703     		.2byte	0x367
 4634 18a3 0C0A0000 		.4byte	0xa0c
 4635 18a7 02       		.byte	0x2
 4636 18a8 23       		.byte	0x23
 4637 18a9 04       		.uleb128 0x4
 4638 18aa 17       		.uleb128 0x17
 4639 18ab 900F0000 		.4byte	.LASF360
 4640 18af 10       		.byte	0x10
 4641 18b0 6B03     		.2byte	0x36b
 4642 18b2 0C0A0000 		.4byte	0xa0c
 4643 18b6 02       		.byte	0x2
 4644 18b7 23       		.byte	0x23
 4645 18b8 05       		.uleb128 0x5
 4646 18b9 17       		.uleb128 0x17
 4647 18ba 72200000 		.4byte	.LASF361
 4648 18be 10       		.byte	0x10
 4649 18bf 6F03     		.2byte	0x36f
 4650 18c1 B00A0000 		.4byte	0xab0
 4651 18c5 02       		.byte	0x2
 4652 18c6 23       		.byte	0x23
 4653 18c7 08       		.uleb128 0x8
 4654 18c8 17       		.uleb128 0x17
 4655 18c9 90130000 		.4byte	.LASF362
 4656 18cd 10       		.byte	0x10
 4657 18ce 7303     		.2byte	0x373
 4658 18d0 0C0A0000 		.4byte	0xa0c
 4659 18d4 02       		.byte	0x2
 4660 18d5 23       		.byte	0x23
 4661 18d6 0C       		.uleb128 0xc
 4662 18d7 17       		.uleb128 0x17
 4663 18d8 CF080000 		.4byte	.LASF363
 4664 18dc 10       		.byte	0x10
 4665 18dd 7703     		.2byte	0x377
 4666 18df AC0B0000 		.4byte	0xbac
 4667 18e3 02       		.byte	0x2
 4668 18e4 23       		.byte	0x23
 4669 18e5 0D       		.uleb128 0xd
 4670 18e6 17       		.uleb128 0x17
 4671 18e7 CE210000 		.4byte	.LASF194
 4672 18eb 10       		.byte	0x10
 4673 18ec 7B03     		.2byte	0x37b
 4674 18ee 1C0A0000 		.4byte	0xa1c
 4675 18f2 02       		.byte	0x2
 4676 18f3 23       		.byte	0x23
 4677 18f4 0E       		.uleb128 0xe
 4678 18f5 24       		.uleb128 0x24
 4679 18f6 536E7200 		.ascii	"Snr\000"
 4680 18fa 10       		.byte	0x10
 4681 18fb 7F03     		.2byte	0x37f
 4682 18fd 010A0000 		.4byte	0xa01
 4683 1901 02       		.byte	0x2
 4684 1902 23       		.byte	0x23
 4685 1903 10       		.uleb128 0x10
 4686 1904 17       		.uleb128 0x17
 4687 1905 2F0B0000 		.4byte	.LASF364
ARM GAS  C:\Users\EBANO_~1\AppData\Local\Temp\ccD2gIpL.s 			page 105


 4688 1909 10       		.byte	0x10
 4689 190a 8303     		.2byte	0x383
 4690 190c EB120000 		.4byte	0x12eb
 4691 1910 02       		.byte	0x2
 4692 1911 23       		.byte	0x23
 4693 1912 11       		.uleb128 0x11
 4694 1913 17       		.uleb128 0x17
 4695 1914 33210000 		.4byte	.LASF349
 4696 1918 10       		.byte	0x10
 4697 1919 8703     		.2byte	0x387
 4698 191b AC0B0000 		.4byte	0xbac
 4699 191f 02       		.byte	0x2
 4700 1920 23       		.byte	0x23
 4701 1921 12       		.uleb128 0x12
 4702 1922 17       		.uleb128 0x17
 4703 1923 10240000 		.4byte	.LASF365
 4704 1927 10       		.byte	0x10
 4705 1928 8B03     		.2byte	0x38b
 4706 192a 320A0000 		.4byte	0xa32
 4707 192e 02       		.byte	0x2
 4708 192f 23       		.byte	0x23
 4709 1930 14       		.uleb128 0x14
 4710 1931 17       		.uleb128 0x17
 4711 1932 91250000 		.4byte	.LASF366
 4712 1936 10       		.byte	0x10
 4713 1937 8F03     		.2byte	0x38f
 4714 1939 320A0000 		.4byte	0xa32
 4715 193d 02       		.byte	0x2
 4716 193e 23       		.byte	0x23
 4717 193f 18       		.uleb128 0x18
 4718 1940 00       		.byte	0
 4719 1941 07       		.uleb128 0x7
 4720 1942 570B0000 		.4byte	.LASF367
 4721 1946 10       		.byte	0x10
 4722 1947 9003     		.2byte	0x390
 4723 1949 52180000 		.4byte	0x1852
 4724 194d 1E       		.uleb128 0x1e
 4725 194e BB240000 		.4byte	.LASF368
 4726 1952 07       		.byte	0x7
 4727 1953 01       		.byte	0x1
 4728 1954 6D000000 		.4byte	0x6d
 4729 1958 10       		.byte	0x10
 4730 1959 AA03     		.2byte	0x3aa
 4731 195b BA190000 		.4byte	0x19ba
 4732 195f 20       		.uleb128 0x20
 4733 1960 9E120000 		.4byte	.LASF369
 4734 1964 00       		.byte	0
 4735 1965 20       		.uleb128 0x20
 4736 1966 4D270000 		.4byte	.LASF370
 4737 196a 01       		.byte	0x1
 4738 196b 20       		.uleb128 0x20
 4739 196c 5B270000 		.4byte	.LASF371
 4740 1970 02       		.byte	0x2
 4741 1971 20       		.uleb128 0x20
 4742 1972 CA150000 		.4byte	.LASF372
 4743 1976 03       		.byte	0x3
 4744 1977 20       		.uleb128 0x20
ARM GAS  C:\Users\EBANO_~1\AppData\Local\Temp\ccD2gIpL.s 			page 106


 4745 1978 B3010000 		.4byte	.LASF373
 4746 197c 04       		.byte	0x4
 4747 197d 20       		.uleb128 0x20
 4748 197e DB170000 		.4byte	.LASF374
 4749 1982 05       		.byte	0x5
 4750 1983 20       		.uleb128 0x20
 4751 1984 BC0E0000 		.4byte	.LASF375
 4752 1988 06       		.byte	0x6
 4753 1989 20       		.uleb128 0x20
 4754 198a 6D240000 		.4byte	.LASF376
 4755 198e 07       		.byte	0x7
 4756 198f 20       		.uleb128 0x20
 4757 1990 CE270000 		.4byte	.LASF377
 4758 1994 08       		.byte	0x8
 4759 1995 20       		.uleb128 0x20
 4760 1996 36260000 		.4byte	.LASF378
 4761 199a 09       		.byte	0x9
 4762 199b 20       		.uleb128 0x20
 4763 199c FF040000 		.4byte	.LASF379
 4764 19a0 0A       		.byte	0xa
 4765 19a1 20       		.uleb128 0x20
 4766 19a2 2B000000 		.4byte	.LASF380
 4767 19a6 0B       		.byte	0xb
 4768 19a7 20       		.uleb128 0x20
 4769 19a8 D7250000 		.4byte	.LASF381
 4770 19ac 0C       		.byte	0xc
 4771 19ad 20       		.uleb128 0x20
 4772 19ae 130B0000 		.4byte	.LASF382
 4773 19b2 0D       		.byte	0xd
 4774 19b3 20       		.uleb128 0x20
 4775 19b4 1A290000 		.4byte	.LASF383
 4776 19b8 0E       		.byte	0xe
 4777 19b9 00       		.byte	0
 4778 19ba 07       		.uleb128 0x7
 4779 19bb 880D0000 		.4byte	.LASF384
 4780 19bf 10       		.byte	0x10
 4781 19c0 0504     		.2byte	0x405
 4782 19c2 4D190000 		.4byte	0x194d
 4783 19c6 18       		.uleb128 0x18
 4784 19c7 85170000 		.4byte	.LASF385
 4785 19cb 0C       		.byte	0xc
 4786 19cc 10       		.byte	0x10
 4787 19cd 0A04     		.2byte	0x40a
 4788 19cf 011A0000 		.4byte	0x1a01
 4789 19d3 17       		.uleb128 0x17
 4790 19d4 39160000 		.4byte	.LASF386
 4791 19d8 10       		.byte	0x10
 4792 19d9 1104     		.2byte	0x411
 4793 19db B00A0000 		.4byte	0xab0
 4794 19df 02       		.byte	0x2
 4795 19e0 23       		.byte	0x23
 4796 19e1 00       		.uleb128 0
 4797 19e2 17       		.uleb128 0x17
 4798 19e3 63210000 		.4byte	.LASF387
 4799 19e7 10       		.byte	0x10
 4800 19e8 1704     		.2byte	0x417
 4801 19ea B00A0000 		.4byte	0xab0
ARM GAS  C:\Users\EBANO_~1\AppData\Local\Temp\ccD2gIpL.s 			page 107


 4802 19ee 02       		.byte	0x2
 4803 19ef 23       		.byte	0x23
 4804 19f0 04       		.uleb128 0x4
 4805 19f1 17       		.uleb128 0x17
 4806 19f2 2B240000 		.4byte	.LASF260
 4807 19f6 10       		.byte	0x10
 4808 19f7 1B04     		.2byte	0x41b
 4809 19f9 0C0A0000 		.4byte	0xa0c
 4810 19fd 02       		.byte	0x2
 4811 19fe 23       		.byte	0x23
 4812 19ff 08       		.uleb128 0x8
 4813 1a00 00       		.byte	0
 4814 1a01 07       		.uleb128 0x7
 4815 1a02 CD170000 		.4byte	.LASF388
 4816 1a06 10       		.byte	0x10
 4817 1a07 1C04     		.2byte	0x41c
 4818 1a09 C6190000 		.4byte	0x19c6
 4819 1a0d 18       		.uleb128 0x18
 4820 1a0e DF1A0000 		.4byte	.LASF389
 4821 1a12 0C       		.byte	0xc
 4822 1a13 10       		.byte	0x10
 4823 1a14 2104     		.2byte	0x421
 4824 1a16 481A0000 		.4byte	0x1a48
 4825 1a1a 17       		.uleb128 0x17
 4826 1a1b 16170000 		.4byte	.LASF390
 4827 1a1f 10       		.byte	0x10
 4828 1a20 2604     		.2byte	0x426
 4829 1a22 270A0000 		.4byte	0xa27
 4830 1a26 02       		.byte	0x2
 4831 1a27 23       		.byte	0x23
 4832 1a28 00       		.uleb128 0
 4833 1a29 17       		.uleb128 0x17
 4834 1a2a 30230000 		.4byte	.LASF254
 4835 1a2e 10       		.byte	0x10
 4836 1a2f 2A04     		.2byte	0x42a
 4837 1a31 320A0000 		.4byte	0xa32
 4838 1a35 02       		.byte	0x2
 4839 1a36 23       		.byte	0x23
 4840 1a37 04       		.uleb128 0x4
 4841 1a38 17       		.uleb128 0x17
 4842 1a39 F9190000 		.4byte	.LASF391
 4843 1a3d 10       		.byte	0x10
 4844 1a3e 2E04     		.2byte	0x42e
 4845 1a40 0C0A0000 		.4byte	0xa0c
 4846 1a44 02       		.byte	0x2
 4847 1a45 23       		.byte	0x23
 4848 1a46 08       		.uleb128 0x8
 4849 1a47 00       		.byte	0
 4850 1a48 07       		.uleb128 0x7
 4851 1a49 DF040000 		.4byte	.LASF392
 4852 1a4d 10       		.byte	0x10
 4853 1a4e 2F04     		.2byte	0x42f
 4854 1a50 0D1A0000 		.4byte	0x1a0d
 4855 1a54 18       		.uleb128 0x18
 4856 1a55 57030000 		.4byte	.LASF393
 4857 1a59 01       		.byte	0x1
 4858 1a5a 10       		.byte	0x10
ARM GAS  C:\Users\EBANO_~1\AppData\Local\Temp\ccD2gIpL.s 			page 108


 4859 1a5b 3404     		.2byte	0x434
 4860 1a5d 711A0000 		.4byte	0x1a71
 4861 1a61 17       		.uleb128 0x17
 4862 1a62 EE220000 		.4byte	.LASF394
 4863 1a66 10       		.byte	0x10
 4864 1a67 3604     		.2byte	0x436
 4865 1a69 CD140000 		.4byte	0x14cd
 4866 1a6d 02       		.byte	0x2
 4867 1a6e 23       		.byte	0x23
 4868 1a6f 00       		.uleb128 0
 4869 1a70 00       		.byte	0
 4870 1a71 07       		.uleb128 0x7
 4871 1a72 3F220000 		.4byte	.LASF395
 4872 1a76 10       		.byte	0x10
 4873 1a77 3704     		.2byte	0x437
 4874 1a79 541A0000 		.4byte	0x1a54
 4875 1a7d 18       		.uleb128 0x18
 4876 1a7e F8180000 		.4byte	.LASF396
 4877 1a82 08       		.byte	0x8
 4878 1a83 10       		.byte	0x10
 4879 1a84 3C04     		.2byte	0x43c
 4880 1a86 B81A0000 		.4byte	0x1ab8
 4881 1a8a 17       		.uleb128 0x17
 4882 1a8b 3D290000 		.4byte	.LASF397
 4883 1a8f 10       		.byte	0x10
 4884 1a90 4104     		.2byte	0x441
 4885 1a92 36110000 		.4byte	0x1136
 4886 1a96 02       		.byte	0x2
 4887 1a97 23       		.byte	0x23
 4888 1a98 00       		.uleb128 0
 4889 1a99 17       		.uleb128 0x17
 4890 1a9a 48040000 		.4byte	.LASF398
 4891 1a9e 10       		.byte	0x10
 4892 1a9f 4504     		.2byte	0x445
 4893 1aa1 270A0000 		.4byte	0xa27
 4894 1aa5 02       		.byte	0x2
 4895 1aa6 23       		.byte	0x23
 4896 1aa7 02       		.uleb128 0x2
 4897 1aa8 17       		.uleb128 0x17
 4898 1aa9 C4000000 		.4byte	.LASF399
 4899 1aad 10       		.byte	0x10
 4900 1aae 4904     		.2byte	0x449
 4901 1ab0 B00A0000 		.4byte	0xab0
 4902 1ab4 02       		.byte	0x2
 4903 1ab5 23       		.byte	0x23
 4904 1ab6 04       		.uleb128 0x4
 4905 1ab7 00       		.byte	0
 4906 1ab8 07       		.uleb128 0x7
 4907 1ab9 3D010000 		.4byte	.LASF400
 4908 1abd 10       		.byte	0x10
 4909 1abe 4A04     		.2byte	0x44a
 4910 1ac0 7D1A0000 		.4byte	0x1a7d
 4911 1ac4 18       		.uleb128 0x18
 4912 1ac5 46160000 		.4byte	.LASF401
 4913 1ac9 01       		.byte	0x1
 4914 1aca 10       		.byte	0x10
 4915 1acb 4F04     		.2byte	0x44f
ARM GAS  C:\Users\EBANO_~1\AppData\Local\Temp\ccD2gIpL.s 			page 109


 4916 1acd E11A0000 		.4byte	0x1ae1
 4917 1ad1 17       		.uleb128 0x17
 4918 1ad2 B5090000 		.4byte	.LASF288
 4919 1ad6 10       		.byte	0x10
 4920 1ad7 5404     		.2byte	0x454
 4921 1ad9 71110000 		.4byte	0x1171
 4922 1add 02       		.byte	0x2
 4923 1ade 23       		.byte	0x23
 4924 1adf 00       		.uleb128 0
 4925 1ae0 00       		.byte	0
 4926 1ae1 07       		.uleb128 0x7
 4927 1ae2 101C0000 		.4byte	.LASF402
 4928 1ae6 10       		.byte	0x10
 4929 1ae7 5504     		.2byte	0x455
 4930 1ae9 C41A0000 		.4byte	0x1ac4
 4931 1aed 2A       		.uleb128 0x2a
 4932 1aee 5A290000 		.4byte	.LASF403
 4933 1af2 0C       		.byte	0xc
 4934 1af3 10       		.byte	0x10
 4935 1af4 6404     		.2byte	0x464
 4936 1af6 371B0000 		.4byte	0x1b37
 4937 1afa 1B       		.uleb128 0x1b
 4938 1afb 81120000 		.4byte	.LASF404
 4939 1aff 10       		.byte	0x10
 4940 1b00 6904     		.2byte	0x469
 4941 1b02 011A0000 		.4byte	0x1a01
 4942 1b06 1B       		.uleb128 0x1b
 4943 1b07 15140000 		.4byte	.LASF405
 4944 1b0b 10       		.byte	0x10
 4945 1b0c 6D04     		.2byte	0x46d
 4946 1b0e 481A0000 		.4byte	0x1a48
 4947 1b12 1B       		.uleb128 0x1b
 4948 1b13 980E0000 		.4byte	.LASF406
 4949 1b17 10       		.byte	0x10
 4950 1b18 7104     		.2byte	0x471
 4951 1b1a 711A0000 		.4byte	0x1a71
 4952 1b1e 1B       		.uleb128 0x1b
 4953 1b1f F00D0000 		.4byte	.LASF407
 4954 1b23 10       		.byte	0x10
 4955 1b24 7504     		.2byte	0x475
 4956 1b26 B81A0000 		.4byte	0x1ab8
 4957 1b2a 1B       		.uleb128 0x1b
 4958 1b2b 14000000 		.4byte	.LASF408
 4959 1b2f 10       		.byte	0x10
 4960 1b30 7904     		.2byte	0x479
 4961 1b32 E11A0000 		.4byte	0x1ae1
 4962 1b36 00       		.byte	0
 4963 1b37 18       		.uleb128 0x18
 4964 1b38 BE120000 		.4byte	.LASF409
 4965 1b3c 10       		.byte	0x10
 4966 1b3d 10       		.byte	0x10
 4967 1b3e 5A04     		.2byte	0x45a
 4968 1b40 631B0000 		.4byte	0x1b63
 4969 1b44 17       		.uleb128 0x17
 4970 1b45 BC0D0000 		.4byte	.LASF343
 4971 1b49 10       		.byte	0x10
 4972 1b4a 5F04     		.2byte	0x45f
ARM GAS  C:\Users\EBANO_~1\AppData\Local\Temp\ccD2gIpL.s 			page 110


 4973 1b4c BA190000 		.4byte	0x19ba
 4974 1b50 02       		.byte	0x2
 4975 1b51 23       		.byte	0x23
 4976 1b52 00       		.uleb128 0
 4977 1b53 24       		.uleb128 0x24
 4978 1b54 52657100 		.ascii	"Req\000"
 4979 1b58 10       		.byte	0x10
 4980 1b59 7A04     		.2byte	0x47a
 4981 1b5b ED1A0000 		.4byte	0x1aed
 4982 1b5f 02       		.byte	0x2
 4983 1b60 23       		.byte	0x23
 4984 1b61 04       		.uleb128 0x4
 4985 1b62 00       		.byte	0
 4986 1b63 07       		.uleb128 0x7
 4987 1b64 0B050000 		.4byte	.LASF410
 4988 1b68 10       		.byte	0x10
 4989 1b69 7B04     		.2byte	0x47b
 4990 1b6b 371B0000 		.4byte	0x1b37
 4991 1b6f 18       		.uleb128 0x18
 4992 1b70 570A0000 		.4byte	.LASF411
 4993 1b74 14       		.byte	0x14
 4994 1b75 10       		.byte	0x10
 4995 1b76 8004     		.2byte	0x480
 4996 1b78 F51B0000 		.4byte	0x1bf5
 4997 1b7c 17       		.uleb128 0x17
 4998 1b7d BB100000 		.4byte	.LASF412
 4999 1b81 10       		.byte	0x10
 5000 1b82 8504     		.2byte	0x485
 5001 1b84 BA190000 		.4byte	0x19ba
 5002 1b88 02       		.byte	0x2
 5003 1b89 23       		.byte	0x23
 5004 1b8a 00       		.uleb128 0
 5005 1b8b 17       		.uleb128 0x17
 5006 1b8c 67190000 		.4byte	.LASF347
 5007 1b90 10       		.byte	0x10
 5008 1b91 8904     		.2byte	0x489
 5009 1b93 02160000 		.4byte	0x1602
 5010 1b97 02       		.byte	0x2
 5011 1b98 23       		.byte	0x23
 5012 1b99 01       		.uleb128 0x1
 5013 1b9a 17       		.uleb128 0x17
 5014 1b9b 14030000 		.4byte	.LASF351
 5015 1b9f 10       		.byte	0x10
 5016 1ba0 8D04     		.2byte	0x48d
 5017 1ba2 C30A0000 		.4byte	0xac3
 5018 1ba6 02       		.byte	0x2
 5019 1ba7 23       		.byte	0x23
 5020 1ba8 04       		.uleb128 0x4
 5021 1ba9 17       		.uleb128 0x17
 5022 1baa B31A0000 		.4byte	.LASF413
 5023 1bae 10       		.byte	0x10
 5024 1baf 9204     		.2byte	0x492
 5025 1bb1 0C0A0000 		.4byte	0xa0c
 5026 1bb5 02       		.byte	0x2
 5027 1bb6 23       		.byte	0x23
 5028 1bb7 08       		.uleb128 0x8
 5029 1bb8 17       		.uleb128 0x17
ARM GAS  C:\Users\EBANO_~1\AppData\Local\Temp\ccD2gIpL.s 			page 111


 5030 1bb9 D41A0000 		.4byte	.LASF414
 5031 1bbd 10       		.byte	0x10
 5032 1bbe 9604     		.2byte	0x496
 5033 1bc0 0C0A0000 		.4byte	0xa0c
 5034 1bc4 02       		.byte	0x2
 5035 1bc5 23       		.byte	0x23
 5036 1bc6 09       		.uleb128 0x9
 5037 1bc7 17       		.uleb128 0x17
 5038 1bc8 6C030000 		.4byte	.LASF350
 5039 1bcc 10       		.byte	0x10
 5040 1bcd 9A04     		.2byte	0x49a
 5041 1bcf 0C0A0000 		.4byte	0xa0c
 5042 1bd3 02       		.byte	0x2
 5043 1bd4 23       		.byte	0x23
 5044 1bd5 0A       		.uleb128 0xa
 5045 1bd6 17       		.uleb128 0x17
 5046 1bd7 3F210000 		.4byte	.LASF415
 5047 1bdb 10       		.byte	0x10
 5048 1bdc 9F04     		.2byte	0x49f
 5049 1bde C30A0000 		.4byte	0xac3
 5050 1be2 02       		.byte	0x2
 5051 1be3 23       		.byte	0x23
 5052 1be4 0C       		.uleb128 0xc
 5053 1be5 17       		.uleb128 0x17
 5054 1be6 51050000 		.4byte	.LASF416
 5055 1bea 10       		.byte	0x10
 5056 1beb A304     		.2byte	0x4a3
 5057 1bed 0C0A0000 		.4byte	0xa0c
 5058 1bf1 02       		.byte	0x2
 5059 1bf2 23       		.byte	0x23
 5060 1bf3 10       		.uleb128 0x10
 5061 1bf4 00       		.byte	0
 5062 1bf5 07       		.uleb128 0x7
 5063 1bf6 C5130000 		.4byte	.LASF417
 5064 1bfa 10       		.byte	0x10
 5065 1bfb A404     		.2byte	0x4a4
 5066 1bfd 6F1B0000 		.4byte	0x1b6f
 5067 1c01 18       		.uleb128 0x18
 5068 1c02 8D080000 		.4byte	.LASF418
 5069 1c06 18       		.byte	0x18
 5070 1c07 10       		.byte	0x10
 5071 1c08 A904     		.2byte	0x4a9
 5072 1c0a 3C1C0000 		.4byte	0x1c3c
 5073 1c0e 17       		.uleb128 0x17
 5074 1c0f 95040000 		.4byte	.LASF419
 5075 1c13 10       		.byte	0x10
 5076 1c14 AE04     		.2byte	0x4ae
 5077 1c16 BA190000 		.4byte	0x19ba
 5078 1c1a 02       		.byte	0x2
 5079 1c1b 23       		.byte	0x23
 5080 1c1c 00       		.uleb128 0
 5081 1c1d 17       		.uleb128 0x17
 5082 1c1e 67190000 		.4byte	.LASF347
 5083 1c22 10       		.byte	0x10
 5084 1c23 B204     		.2byte	0x4b2
 5085 1c25 02160000 		.4byte	0x1602
 5086 1c29 02       		.byte	0x2
ARM GAS  C:\Users\EBANO_~1\AppData\Local\Temp\ccD2gIpL.s 			page 112


 5087 1c2a 23       		.byte	0x23
 5088 1c2b 01       		.uleb128 0x1
 5089 1c2c 17       		.uleb128 0x17
 5090 1c2d FD130000 		.4byte	.LASF420
 5091 1c31 10       		.byte	0x10
 5092 1c32 B704     		.2byte	0x4b7
 5093 1c34 7D150000 		.4byte	0x157d
 5094 1c38 02       		.byte	0x2
 5095 1c39 23       		.byte	0x23
 5096 1c3a 04       		.uleb128 0x4
 5097 1c3b 00       		.byte	0
 5098 1c3c 07       		.uleb128 0x7
 5099 1c3d 48180000 		.4byte	.LASF421
 5100 1c41 10       		.byte	0x10
 5101 1c42 B804     		.2byte	0x4b8
 5102 1c44 011C0000 		.4byte	0x1c01
 5103 1c48 1E       		.uleb128 0x1e
 5104 1c49 C8050000 		.4byte	.LASF422
 5105 1c4d 07       		.byte	0x7
 5106 1c4e 01       		.byte	0x1
 5107 1c4f 6D000000 		.4byte	0x6d
 5108 1c53 10       		.byte	0x10
 5109 1c54 0605     		.2byte	0x506
 5110 1c56 CF1D0000 		.4byte	0x1dcf
 5111 1c5a 20       		.uleb128 0x20
 5112 1c5b C7100000 		.4byte	.LASF423
 5113 1c5f 00       		.byte	0
 5114 1c60 20       		.uleb128 0x20
 5115 1c61 FF030000 		.4byte	.LASF424
 5116 1c65 01       		.byte	0x1
 5117 1c66 20       		.uleb128 0x20
 5118 1c67 8D040000 		.4byte	.LASF425
 5119 1c6b 02       		.byte	0x2
 5120 1c6c 20       		.uleb128 0x20
 5121 1c6d 6F0B0000 		.4byte	.LASF426
 5122 1c71 03       		.byte	0x3
 5123 1c72 20       		.uleb128 0x20
 5124 1c73 35070000 		.4byte	.LASF427
 5125 1c77 04       		.byte	0x4
 5126 1c78 20       		.uleb128 0x20
 5127 1c79 AD1C0000 		.4byte	.LASF428
 5128 1c7d 05       		.byte	0x5
 5129 1c7e 20       		.uleb128 0x20
 5130 1c7f 4E040000 		.4byte	.LASF429
 5131 1c83 06       		.byte	0x6
 5132 1c84 20       		.uleb128 0x20
 5133 1c85 771F0000 		.4byte	.LASF430
 5134 1c89 07       		.byte	0x7
 5135 1c8a 20       		.uleb128 0x20
 5136 1c8b C5060000 		.4byte	.LASF431
 5137 1c8f 08       		.byte	0x8
 5138 1c90 20       		.uleb128 0x20
 5139 1c91 67060000 		.4byte	.LASF432
 5140 1c95 09       		.byte	0x9
 5141 1c96 20       		.uleb128 0x20
 5142 1c97 481B0000 		.4byte	.LASF433
 5143 1c9b 0A       		.byte	0xa
ARM GAS  C:\Users\EBANO_~1\AppData\Local\Temp\ccD2gIpL.s 			page 113


 5144 1c9c 20       		.uleb128 0x20
 5145 1c9d 0F120000 		.4byte	.LASF434
 5146 1ca1 0B       		.byte	0xb
 5147 1ca2 20       		.uleb128 0x20
 5148 1ca3 0E100000 		.4byte	.LASF435
 5149 1ca7 0C       		.byte	0xc
 5150 1ca8 20       		.uleb128 0x20
 5151 1ca9 27070000 		.4byte	.LASF436
 5152 1cad 0D       		.byte	0xd
 5153 1cae 20       		.uleb128 0x20
 5154 1caf 780A0000 		.4byte	.LASF437
 5155 1cb3 0E       		.byte	0xe
 5156 1cb4 20       		.uleb128 0x20
 5157 1cb5 78000000 		.4byte	.LASF438
 5158 1cb9 0F       		.byte	0xf
 5159 1cba 20       		.uleb128 0x20
 5160 1cbb 170D0000 		.4byte	.LASF439
 5161 1cbf 10       		.byte	0x10
 5162 1cc0 20       		.uleb128 0x20
 5163 1cc1 850A0000 		.4byte	.LASF440
 5164 1cc5 11       		.byte	0x11
 5165 1cc6 20       		.uleb128 0x20
 5166 1cc7 8B000000 		.4byte	.LASF441
 5167 1ccb 12       		.byte	0x12
 5168 1ccc 20       		.uleb128 0x20
 5169 1ccd 2A0D0000 		.4byte	.LASF442
 5170 1cd1 13       		.byte	0x13
 5171 1cd2 20       		.uleb128 0x20
 5172 1cd3 920A0000 		.4byte	.LASF443
 5173 1cd7 14       		.byte	0x14
 5174 1cd8 20       		.uleb128 0x20
 5175 1cd9 9E000000 		.4byte	.LASF444
 5176 1cdd 15       		.byte	0x15
 5177 1cde 20       		.uleb128 0x20
 5178 1cdf 3D0D0000 		.4byte	.LASF445
 5179 1ce3 16       		.byte	0x16
 5180 1ce4 20       		.uleb128 0x20
 5181 1ce5 3B040000 		.4byte	.LASF446
 5182 1ce9 17       		.byte	0x17
 5183 1cea 20       		.uleb128 0x20
 5184 1ceb B1000000 		.4byte	.LASF447
 5185 1cef 18       		.byte	0x18
 5186 1cf0 20       		.uleb128 0x20
 5187 1cf1 88180000 		.4byte	.LASF448
 5188 1cf5 19       		.byte	0x19
 5189 1cf6 20       		.uleb128 0x20
 5190 1cf7 83240000 		.4byte	.LASF449
 5191 1cfb 1A       		.byte	0x1a
 5192 1cfc 20       		.uleb128 0x20
 5193 1cfd 7D050000 		.4byte	.LASF450
 5194 1d01 1B       		.byte	0x1b
 5195 1d02 20       		.uleb128 0x20
 5196 1d03 8C260000 		.4byte	.LASF451
 5197 1d07 1C       		.byte	0x1c
 5198 1d08 20       		.uleb128 0x20
 5199 1d09 EB250000 		.4byte	.LASF452
 5200 1d0d 1D       		.byte	0x1d
ARM GAS  C:\Users\EBANO_~1\AppData\Local\Temp\ccD2gIpL.s 			page 114


 5201 1d0e 20       		.uleb128 0x20
 5202 1d0f 390A0000 		.4byte	.LASF453
 5203 1d13 1E       		.byte	0x1e
 5204 1d14 20       		.uleb128 0x20
 5205 1d15 DE030000 		.4byte	.LASF454
 5206 1d19 1F       		.byte	0x1f
 5207 1d1a 20       		.uleb128 0x20
 5208 1d1b CA230000 		.4byte	.LASF455
 5209 1d1f 20       		.byte	0x20
 5210 1d20 20       		.uleb128 0x20
 5211 1d21 381F0000 		.4byte	.LASF456
 5212 1d25 21       		.byte	0x21
 5213 1d26 20       		.uleb128 0x20
 5214 1d27 040F0000 		.4byte	.LASF457
 5215 1d2b 22       		.byte	0x22
 5216 1d2c 20       		.uleb128 0x20
 5217 1d2d 201B0000 		.4byte	.LASF458
 5218 1d31 23       		.byte	0x23
 5219 1d32 20       		.uleb128 0x20
 5220 1d33 341B0000 		.4byte	.LASF459
 5221 1d37 24       		.byte	0x24
 5222 1d38 20       		.uleb128 0x20
 5223 1d39 AC1F0000 		.4byte	.LASF460
 5224 1d3d 25       		.byte	0x25
 5225 1d3e 20       		.uleb128 0x20
 5226 1d3f C41F0000 		.4byte	.LASF461
 5227 1d43 26       		.byte	0x26
 5228 1d44 20       		.uleb128 0x20
 5229 1d45 21120000 		.4byte	.LASF462
 5230 1d49 27       		.byte	0x27
 5231 1d4a 20       		.uleb128 0x20
 5232 1d4b 6B120000 		.4byte	.LASF463
 5233 1d4f 28       		.byte	0x28
 5234 1d50 20       		.uleb128 0x20
 5235 1d51 831E0000 		.4byte	.LASF464
 5236 1d55 29       		.byte	0x29
 5237 1d56 20       		.uleb128 0x20
 5238 1d57 401E0000 		.4byte	.LASF465
 5239 1d5b 2A       		.byte	0x2a
 5240 1d5c 20       		.uleb128 0x20
 5241 1d5d 35190000 		.4byte	.LASF466
 5242 1d61 2B       		.byte	0x2b
 5243 1d62 20       		.uleb128 0x20
 5244 1d63 5A240000 		.4byte	.LASF467
 5245 1d67 2C       		.byte	0x2c
 5246 1d68 20       		.uleb128 0x20
 5247 1d69 E51D0000 		.4byte	.LASF468
 5248 1d6d 2D       		.byte	0x2d
 5249 1d6e 20       		.uleb128 0x20
 5250 1d6f FF190000 		.4byte	.LASF469
 5251 1d73 2E       		.byte	0x2e
 5252 1d74 20       		.uleb128 0x20
 5253 1d75 81160000 		.4byte	.LASF470
 5254 1d79 2F       		.byte	0x2f
 5255 1d7a 20       		.uleb128 0x20
 5256 1d7b E5100000 		.4byte	.LASF471
 5257 1d7f 30       		.byte	0x30
ARM GAS  C:\Users\EBANO_~1\AppData\Local\Temp\ccD2gIpL.s 			page 115


 5258 1d80 20       		.uleb128 0x20
 5259 1d81 66090000 		.4byte	.LASF472
 5260 1d85 31       		.byte	0x31
 5261 1d86 20       		.uleb128 0x20
 5262 1d87 2B180000 		.4byte	.LASF473
 5263 1d8b 32       		.byte	0x32
 5264 1d8c 20       		.uleb128 0x20
 5265 1d8d 05170000 		.4byte	.LASF474
 5266 1d91 33       		.byte	0x33
 5267 1d92 20       		.uleb128 0x20
 5268 1d93 0A080000 		.4byte	.LASF475
 5269 1d97 34       		.byte	0x34
 5270 1d98 20       		.uleb128 0x20
 5271 1d99 A3170000 		.4byte	.LASF476
 5272 1d9d 35       		.byte	0x35
 5273 1d9e 20       		.uleb128 0x20
 5274 1d9f 1B220000 		.4byte	.LASF477
 5275 1da3 36       		.byte	0x36
 5276 1da4 20       		.uleb128 0x20
 5277 1da5 94290000 		.4byte	.LASF478
 5278 1da9 37       		.byte	0x37
 5279 1daa 20       		.uleb128 0x20
 5280 1dab 6B020000 		.4byte	.LASF479
 5281 1daf 38       		.byte	0x38
 5282 1db0 20       		.uleb128 0x20
 5283 1db1 680C0000 		.4byte	.LASF480
 5284 1db5 39       		.byte	0x39
 5285 1db6 20       		.uleb128 0x20
 5286 1db7 CF0A0000 		.4byte	.LASF481
 5287 1dbb 3A       		.byte	0x3a
 5288 1dbc 20       		.uleb128 0x20
 5289 1dbd 65140000 		.4byte	.LASF482
 5290 1dc1 3B       		.byte	0x3b
 5291 1dc2 20       		.uleb128 0x20
 5292 1dc3 C2070000 		.4byte	.LASF483
 5293 1dc7 3C       		.byte	0x3c
 5294 1dc8 20       		.uleb128 0x20
 5295 1dc9 A7140000 		.4byte	.LASF484
 5296 1dcd 3D       		.byte	0x3d
 5297 1dce 00       		.byte	0
 5298 1dcf 07       		.uleb128 0x7
 5299 1dd0 C51B0000 		.4byte	.LASF485
 5300 1dd4 10       		.byte	0x10
 5301 1dd5 7D06     		.2byte	0x67d
 5302 1dd7 481C0000 		.4byte	0x1c48
 5303 1ddb 2A       		.uleb128 0x2a
 5304 1ddc A4040000 		.4byte	.LASF486
 5305 1de0 14       		.byte	0x14
 5306 1de1 10       		.byte	0x10
 5307 1de2 8206     		.2byte	0x682
 5308 1de4 DD200000 		.4byte	0x20dd
 5309 1de8 1B       		.uleb128 0x1b
 5310 1de9 40160000 		.4byte	.LASF487
 5311 1ded 10       		.byte	0x10
 5312 1dee 8906     		.2byte	0x689
 5313 1df0 A0110000 		.4byte	0x11a0
 5314 1df4 1B       		.uleb128 0x1b
ARM GAS  C:\Users\EBANO_~1\AppData\Local\Temp\ccD2gIpL.s 			page 116


 5315 1df5 071D0000 		.4byte	.LASF488
 5316 1df9 10       		.byte	0x10
 5317 1dfa 8F06     		.2byte	0x68f
 5318 1dfc CF110000 		.4byte	0x11cf
 5319 1e00 1B       		.uleb128 0x1b
 5320 1e01 23090000 		.4byte	.LASF489
 5321 1e05 10       		.byte	0x10
 5322 1e06 9506     		.2byte	0x695
 5323 1e08 AC0B0000 		.4byte	0xbac
 5324 1e0c 1B       		.uleb128 0x1b
 5325 1e0d 5D110000 		.4byte	.LASF490
 5326 1e11 10       		.byte	0x10
 5327 1e12 9B06     		.2byte	0x69b
 5328 1e14 320A0000 		.4byte	0xa32
 5329 1e18 1B       		.uleb128 0x1b
 5330 1e19 A0130000 		.4byte	.LASF491
 5331 1e1d 10       		.byte	0x10
 5332 1e1e A106     		.2byte	0x6a1
 5333 1e20 320A0000 		.4byte	0xa32
 5334 1e24 1B       		.uleb128 0x1b
 5335 1e25 19010000 		.4byte	.LASF492
 5336 1e29 10       		.byte	0x10
 5337 1e2a A706     		.2byte	0x6a7
 5338 1e2c B00A0000 		.4byte	0xab0
 5339 1e30 1B       		.uleb128 0x1b
 5340 1e31 96200000 		.4byte	.LASF493
 5341 1e35 10       		.byte	0x10
 5342 1e36 AD06     		.2byte	0x6ad
 5343 1e38 B00A0000 		.4byte	0xab0
 5344 1e3c 1B       		.uleb128 0x1b
 5345 1e3d DD070000 		.4byte	.LASF494
 5346 1e41 10       		.byte	0x10
 5347 1e42 B306     		.2byte	0x6b3
 5348 1e44 B00A0000 		.4byte	0xab0
 5349 1e48 1B       		.uleb128 0x1b
 5350 1e49 A5180000 		.4byte	.LASF495
 5351 1e4d 10       		.byte	0x10
 5352 1e4e B906     		.2byte	0x6b9
 5353 1e50 B00A0000 		.4byte	0xab0
 5354 1e54 1B       		.uleb128 0x1b
 5355 1e55 31010000 		.4byte	.LASF496
 5356 1e59 10       		.byte	0x10
 5357 1e5a BF06     		.2byte	0x6bf
 5358 1e5c B00A0000 		.4byte	0xab0
 5359 1e60 1B       		.uleb128 0x1b
 5360 1e61 6C150000 		.4byte	.LASF497
 5361 1e65 10       		.byte	0x10
 5362 1e66 C506     		.2byte	0x6c5
 5363 1e68 B00A0000 		.4byte	0xab0
 5364 1e6c 1B       		.uleb128 0x1b
 5365 1e6d 1E050000 		.4byte	.LASF498
 5366 1e71 10       		.byte	0x10
 5367 1e72 CB06     		.2byte	0x6cb
 5368 1e74 B00A0000 		.4byte	0xab0
 5369 1e78 1B       		.uleb128 0x1b
 5370 1e79 B70F0000 		.4byte	.LASF499
 5371 1e7d 10       		.byte	0x10
ARM GAS  C:\Users\EBANO_~1\AppData\Local\Temp\ccD2gIpL.s 			page 117


 5372 1e7e D106     		.2byte	0x6d1
 5373 1e80 B00A0000 		.4byte	0xab0
 5374 1e84 1B       		.uleb128 0x1b
 5375 1e85 D3130000 		.4byte	.LASF500
 5376 1e89 10       		.byte	0x10
 5377 1e8a D706     		.2byte	0x6d7
 5378 1e8c B00A0000 		.4byte	0xab0
 5379 1e90 1B       		.uleb128 0x1b
 5380 1e91 D5140000 		.4byte	.LASF501
 5381 1e95 10       		.byte	0x10
 5382 1e96 DD06     		.2byte	0x6dd
 5383 1e98 B00A0000 		.4byte	0xab0
 5384 1e9c 1B       		.uleb128 0x1b
 5385 1e9d D91B0000 		.4byte	.LASF502
 5386 1ea1 10       		.byte	0x10
 5387 1ea2 E306     		.2byte	0x6e3
 5388 1ea4 B00A0000 		.4byte	0xab0
 5389 1ea8 1B       		.uleb128 0x1b
 5390 1ea9 86250000 		.4byte	.LASF503
 5391 1ead 10       		.byte	0x10
 5392 1eae E906     		.2byte	0x6e9
 5393 1eb0 B00A0000 		.4byte	0xab0
 5394 1eb4 1B       		.uleb128 0x1b
 5395 1eb5 DC140000 		.4byte	.LASF504
 5396 1eb9 10       		.byte	0x10
 5397 1eba EF06     		.2byte	0x6ef
 5398 1ebc B00A0000 		.4byte	0xab0
 5399 1ec0 1B       		.uleb128 0x1b
 5400 1ec1 E41B0000 		.4byte	.LASF505
 5401 1ec5 10       		.byte	0x10
 5402 1ec6 F506     		.2byte	0x6f5
 5403 1ec8 B00A0000 		.4byte	0xab0
 5404 1ecc 1B       		.uleb128 0x1b
 5405 1ecd F9280000 		.4byte	.LASF506
 5406 1ed1 10       		.byte	0x10
 5407 1ed2 FB06     		.2byte	0x6fb
 5408 1ed4 B00A0000 		.4byte	0xab0
 5409 1ed8 1B       		.uleb128 0x1b
 5410 1ed9 E3140000 		.4byte	.LASF507
 5411 1edd 10       		.byte	0x10
 5412 1ede 0107     		.2byte	0x701
 5413 1ee0 B00A0000 		.4byte	0xab0
 5414 1ee4 1B       		.uleb128 0x1b
 5415 1ee5 EF1B0000 		.4byte	.LASF508
 5416 1ee9 10       		.byte	0x10
 5417 1eea 0707     		.2byte	0x707
 5418 1eec B00A0000 		.4byte	0xab0
 5419 1ef0 1B       		.uleb128 0x1b
 5420 1ef1 04290000 		.4byte	.LASF509
 5421 1ef5 10       		.byte	0x10
 5422 1ef6 0D07     		.2byte	0x70d
 5423 1ef8 B00A0000 		.4byte	0xab0
 5424 1efc 1B       		.uleb128 0x1b
 5425 1efd EA140000 		.4byte	.LASF510
 5426 1f01 10       		.byte	0x10
 5427 1f02 1307     		.2byte	0x713
 5428 1f04 B00A0000 		.4byte	0xab0
ARM GAS  C:\Users\EBANO_~1\AppData\Local\Temp\ccD2gIpL.s 			page 118


 5429 1f08 1B       		.uleb128 0x1b
 5430 1f09 FA1B0000 		.4byte	.LASF511
 5431 1f0d 10       		.byte	0x10
 5432 1f0e 1907     		.2byte	0x719
 5433 1f10 B00A0000 		.4byte	0xab0
 5434 1f14 1B       		.uleb128 0x1b
 5435 1f15 0F290000 		.4byte	.LASF512
 5436 1f19 10       		.byte	0x10
 5437 1f1a 1F07     		.2byte	0x71f
 5438 1f1c B00A0000 		.4byte	0xab0
 5439 1f20 1B       		.uleb128 0x1b
 5440 1f21 13070000 		.4byte	.LASF513
 5441 1f25 10       		.byte	0x10
 5442 1f26 2507     		.2byte	0x725
 5443 1f28 AC0B0000 		.4byte	0xbac
 5444 1f2c 1B       		.uleb128 0x1b
 5445 1f2d A60D0000 		.4byte	.LASF514
 5446 1f31 10       		.byte	0x10
 5447 1f32 2B07     		.2byte	0x72b
 5448 1f34 AC0B0000 		.4byte	0xbac
 5449 1f38 1B       		.uleb128 0x1b
 5450 1f39 E4120000 		.4byte	.LASF515
 5451 1f3d 10       		.byte	0x10
 5452 1f3e 3107     		.2byte	0x731
 5453 1f40 DD200000 		.4byte	0x20dd
 5454 1f44 1B       		.uleb128 0x1b
 5455 1f45 20240000 		.4byte	.LASF516
 5456 1f49 10       		.byte	0x10
 5457 1f4a 3707     		.2byte	0x737
 5458 1f4c B0120000 		.4byte	0x12b0
 5459 1f50 1B       		.uleb128 0x1b
 5460 1f51 82210000 		.4byte	.LASF517
 5461 1f55 10       		.byte	0x10
 5462 1f56 3D07     		.2byte	0x73d
 5463 1f58 B0120000 		.4byte	0x12b0
 5464 1f5c 1B       		.uleb128 0x1b
 5465 1f5d FE230000 		.4byte	.LASF518
 5466 1f61 10       		.byte	0x10
 5467 1f62 4307     		.2byte	0x743
 5468 1f64 E3200000 		.4byte	0x20e3
 5469 1f68 1B       		.uleb128 0x1b
 5470 1f69 9F1A0000 		.4byte	.LASF519
 5471 1f6d 10       		.byte	0x10
 5472 1f6e 4907     		.2byte	0x749
 5473 1f70 E3200000 		.4byte	0x20e3
 5474 1f74 1B       		.uleb128 0x1b
 5475 1f75 DF280000 		.4byte	.LASF520
 5476 1f79 10       		.byte	0x10
 5477 1f7a 4F07     		.2byte	0x74f
 5478 1f7c 0C0A0000 		.4byte	0xa0c
 5479 1f80 1B       		.uleb128 0x1b
 5480 1f81 E8150000 		.4byte	.LASF521
 5481 1f85 10       		.byte	0x10
 5482 1f86 5507     		.2byte	0x755
 5483 1f88 320A0000 		.4byte	0xa32
 5484 1f8c 1B       		.uleb128 0x1b
 5485 1f8d 92090000 		.4byte	.LASF522
ARM GAS  C:\Users\EBANO_~1\AppData\Local\Temp\ccD2gIpL.s 			page 119


 5486 1f91 10       		.byte	0x10
 5487 1f92 5B07     		.2byte	0x75b
 5488 1f94 320A0000 		.4byte	0xa32
 5489 1f98 1B       		.uleb128 0x1b
 5490 1f99 B91C0000 		.4byte	.LASF523
 5491 1f9d 10       		.byte	0x10
 5492 1f9e 6107     		.2byte	0x761
 5493 1fa0 320A0000 		.4byte	0xa32
 5494 1fa4 1B       		.uleb128 0x1b
 5495 1fa5 AE180000 		.4byte	.LASF524
 5496 1fa9 10       		.byte	0x10
 5497 1faa 6707     		.2byte	0x767
 5498 1fac 320A0000 		.4byte	0xa32
 5499 1fb0 1B       		.uleb128 0x1b
 5500 1fb1 BF180000 		.4byte	.LASF525
 5501 1fb5 10       		.byte	0x10
 5502 1fb6 6D07     		.2byte	0x76d
 5503 1fb8 320A0000 		.4byte	0xa32
 5504 1fbc 1B       		.uleb128 0x1b
 5505 1fbd 65050000 		.4byte	.LASF526
 5506 1fc1 10       		.byte	0x10
 5507 1fc2 7307     		.2byte	0x773
 5508 1fc4 010A0000 		.4byte	0xa01
 5509 1fc8 1B       		.uleb128 0x1b
 5510 1fc9 A7070000 		.4byte	.LASF527
 5511 1fcd 10       		.byte	0x10
 5512 1fce 7907     		.2byte	0x779
 5513 1fd0 010A0000 		.4byte	0xa01
 5514 1fd4 1B       		.uleb128 0x1b
 5515 1fd5 D6180000 		.4byte	.LASF528
 5516 1fd9 10       		.byte	0x10
 5517 1fda 7F07     		.2byte	0x77f
 5518 1fdc 010A0000 		.4byte	0xa01
 5519 1fe0 1B       		.uleb128 0x1b
 5520 1fe1 E31C0000 		.4byte	.LASF529
 5521 1fe5 10       		.byte	0x10
 5522 1fe6 8507     		.2byte	0x785
 5523 1fe8 010A0000 		.4byte	0xa01
 5524 1fec 1B       		.uleb128 0x1b
 5525 1fed 6B170000 		.4byte	.LASF530
 5526 1ff1 10       		.byte	0x10
 5527 1ff2 8B07     		.2byte	0x78b
 5528 1ff4 69140000 		.4byte	0x1469
 5529 1ff8 1B       		.uleb128 0x1b
 5530 1ff9 1A150000 		.4byte	.LASF531
 5531 1ffd 10       		.byte	0x10
 5532 1ffe 9107     		.2byte	0x791
 5533 2000 320A0000 		.4byte	0xa32
 5534 2004 1B       		.uleb128 0x1b
 5535 2005 C7120000 		.4byte	.LASF532
 5536 2009 10       		.byte	0x10
 5537 200a 9707     		.2byte	0x797
 5538 200c 0C0A0000 		.4byte	0xa0c
 5539 2010 1B       		.uleb128 0x1b
 5540 2011 1E170000 		.4byte	.LASF533
 5541 2015 10       		.byte	0x10
 5542 2016 9D07     		.2byte	0x79d
ARM GAS  C:\Users\EBANO_~1\AppData\Local\Temp\ccD2gIpL.s 			page 120


 5543 2018 BA090000 		.4byte	0x9ba
 5544 201c 1B       		.uleb128 0x1b
 5545 201d 84270000 		.4byte	.LASF534
 5546 2021 10       		.byte	0x10
 5547 2022 A307     		.2byte	0x7a3
 5548 2024 BA090000 		.4byte	0x9ba
 5549 2028 1B       		.uleb128 0x1b
 5550 2029 5C140000 		.4byte	.LASF535
 5551 202d 10       		.byte	0x10
 5552 202e A907     		.2byte	0x7a9
 5553 2030 E9200000 		.4byte	0x20e9
 5554 2034 1B       		.uleb128 0x1b
 5555 2035 AC220000 		.4byte	.LASF536
 5556 2039 10       		.byte	0x10
 5557 203a AF07     		.2byte	0x7af
 5558 203c 360B0000 		.4byte	0xb36
 5559 2040 1B       		.uleb128 0x1b
 5560 2041 97270000 		.4byte	.LASF537
 5561 2045 10       		.byte	0x10
 5562 2046 B507     		.2byte	0x7b5
 5563 2048 320A0000 		.4byte	0xa32
 5564 204c 1B       		.uleb128 0x1b
 5565 204d 700D0000 		.4byte	.LASF538
 5566 2051 10       		.byte	0x10
 5567 2052 BB07     		.2byte	0x7bb
 5568 2054 320A0000 		.4byte	0xa32
 5569 2058 1B       		.uleb128 0x1b
 5570 2059 3D050000 		.4byte	.LASF539
 5571 205d 10       		.byte	0x10
 5572 205e C107     		.2byte	0x7c1
 5573 2060 320A0000 		.4byte	0xa32
 5574 2064 1B       		.uleb128 0x1b
 5575 2065 99260000 		.4byte	.LASF540
 5576 2069 10       		.byte	0x10
 5577 206a C707     		.2byte	0x7c7
 5578 206c 320A0000 		.4byte	0xa32
 5579 2070 1B       		.uleb128 0x1b
 5580 2071 860E0000 		.4byte	.LASF541
 5581 2075 10       		.byte	0x10
 5582 2076 CD07     		.2byte	0x7cd
 5583 2078 320A0000 		.4byte	0xa32
 5584 207c 1B       		.uleb128 0x1b
 5585 207d FB250000 		.4byte	.LASF542
 5586 2081 10       		.byte	0x10
 5587 2082 D307     		.2byte	0x7d3
 5588 2084 320A0000 		.4byte	0xa32
 5589 2088 1B       		.uleb128 0x1b
 5590 2089 9B1D0000 		.4byte	.LASF543
 5591 208d 10       		.byte	0x10
 5592 208e D907     		.2byte	0x7d9
 5593 2090 320A0000 		.4byte	0xa32
 5594 2094 1B       		.uleb128 0x1b
 5595 2095 2A170000 		.4byte	.LASF544
 5596 2099 10       		.byte	0x10
 5597 209a DF07     		.2byte	0x7df
 5598 209c 320A0000 		.4byte	0xa32
 5599 20a0 1B       		.uleb128 0x1b
ARM GAS  C:\Users\EBANO_~1\AppData\Local\Temp\ccD2gIpL.s 			page 121


 5600 20a1 F4150000 		.4byte	.LASF545
 5601 20a5 10       		.byte	0x10
 5602 20a6 E507     		.2byte	0x7e5
 5603 20a8 320A0000 		.4byte	0xa32
 5604 20ac 1B       		.uleb128 0x1b
 5605 20ad C1280000 		.4byte	.LASF546
 5606 20b1 10       		.byte	0x10
 5607 20b2 EC07     		.2byte	0x7ec
 5608 20b4 320A0000 		.4byte	0xa32
 5609 20b8 1B       		.uleb128 0x1b
 5610 20b9 9D080000 		.4byte	.LASF547
 5611 20bd 10       		.byte	0x10
 5612 20be F307     		.2byte	0x7f3
 5613 20c0 320A0000 		.4byte	0xa32
 5614 20c4 1B       		.uleb128 0x1b
 5615 20c5 9B020000 		.4byte	.LASF548
 5616 20c9 10       		.byte	0x10
 5617 20ca F907     		.2byte	0x7f9
 5618 20cc 320A0000 		.4byte	0xa32
 5619 20d0 1B       		.uleb128 0x1b
 5620 20d1 350F0000 		.4byte	.LASF549
 5621 20d5 10       		.byte	0x10
 5622 20d6 FF07     		.2byte	0x7ff
 5623 20d8 010A0000 		.4byte	0xa01
 5624 20dc 00       		.byte	0
 5625 20dd 05       		.uleb128 0x5
 5626 20de 04       		.byte	0x4
 5627 20df 7C120000 		.4byte	0x127c
 5628 20e3 05       		.uleb128 0x5
 5629 20e4 04       		.byte	0x4
 5630 20e5 270A0000 		.4byte	0xa27
 5631 20e9 05       		.uleb128 0x5
 5632 20ea 04       		.byte	0x4
 5633 20eb F5130000 		.4byte	0x13f5
 5634 20ef 07       		.uleb128 0x7
 5635 20f0 421A0000 		.4byte	.LASF550
 5636 20f4 10       		.byte	0x10
 5637 20f5 0008     		.2byte	0x800
 5638 20f7 DB1D0000 		.4byte	0x1ddb
 5639 20fb 18       		.uleb128 0x18
 5640 20fc F9270000 		.4byte	.LASF551
 5641 2100 18       		.byte	0x18
 5642 2101 10       		.byte	0x10
 5643 2102 0508     		.2byte	0x805
 5644 2104 27210000 		.4byte	0x2127
 5645 2108 17       		.uleb128 0x17
 5646 2109 BC0D0000 		.4byte	.LASF343
 5647 210d 10       		.byte	0x10
 5648 210e 0A08     		.2byte	0x80a
 5649 2110 CF1D0000 		.4byte	0x1dcf
 5650 2114 02       		.byte	0x2
 5651 2115 23       		.byte	0x23
 5652 2116 00       		.uleb128 0
 5653 2117 17       		.uleb128 0x17
 5654 2118 FE0D0000 		.4byte	.LASF552
 5655 211c 10       		.byte	0x10
 5656 211d 0F08     		.2byte	0x80f
ARM GAS  C:\Users\EBANO_~1\AppData\Local\Temp\ccD2gIpL.s 			page 122


 5657 211f EF200000 		.4byte	0x20ef
 5658 2123 02       		.byte	0x2
 5659 2124 23       		.byte	0x23
 5660 2125 04       		.uleb128 0x4
 5661 2126 00       		.byte	0
 5662 2127 07       		.uleb128 0x7
 5663 2128 640A0000 		.4byte	.LASF553
 5664 212c 10       		.byte	0x10
 5665 212d 1008     		.2byte	0x810
 5666 212f FB200000 		.4byte	0x20fb
 5667 2133 18       		.uleb128 0x18
 5668 2134 DF220000 		.4byte	.LASF554
 5669 2138 02       		.byte	0x2
 5670 2139 10       		.byte	0x10
 5671 213a 1508     		.2byte	0x815
 5672 213c 5F210000 		.4byte	0x215f
 5673 2140 17       		.uleb128 0x17
 5674 2141 D10D0000 		.4byte	.LASF555
 5675 2145 10       		.byte	0x10
 5676 2146 1A08     		.2byte	0x81a
 5677 2148 0C0A0000 		.4byte	0xa0c
 5678 214c 02       		.byte	0x2
 5679 214d 23       		.byte	0x23
 5680 214e 00       		.uleb128 0
 5681 214f 17       		.uleb128 0x17
 5682 2150 EA1F0000 		.4byte	.LASF556
 5683 2154 10       		.byte	0x10
 5684 2155 1F08     		.2byte	0x81f
 5685 2157 0C0A0000 		.4byte	0xa0c
 5686 215b 02       		.byte	0x2
 5687 215c 23       		.byte	0x23
 5688 215d 01       		.uleb128 0x1
 5689 215e 00       		.byte	0
 5690 215f 07       		.uleb128 0x7
 5691 2160 8E160000 		.4byte	.LASF557
 5692 2164 10       		.byte	0x10
 5693 2165 2008     		.2byte	0x820
 5694 2167 33210000 		.4byte	0x2133
 5695 216b 1E       		.uleb128 0x1e
 5696 216c D7050000 		.4byte	.LASF558
 5697 2170 07       		.byte	0x7
 5698 2171 01       		.byte	0x1
 5699 2172 6D000000 		.4byte	0x6d
 5700 2176 10       		.byte	0x10
 5701 2177 2508     		.2byte	0x825
 5702 2179 08220000 		.4byte	0x2208
 5703 217d 20       		.uleb128 0x20
 5704 217e 3F1D0000 		.4byte	.LASF559
 5705 2182 00       		.byte	0
 5706 2183 20       		.uleb128 0x20
 5707 2184 CA030000 		.4byte	.LASF560
 5708 2188 01       		.byte	0x1
 5709 2189 20       		.uleb128 0x20
 5710 218a 37280000 		.4byte	.LASF561
 5711 218e 02       		.byte	0x2
 5712 218f 20       		.uleb128 0x20
 5713 2190 360B0000 		.4byte	.LASF562
ARM GAS  C:\Users\EBANO_~1\AppData\Local\Temp\ccD2gIpL.s 			page 123


 5714 2194 03       		.byte	0x3
 5715 2195 20       		.uleb128 0x20
 5716 2196 3C1C0000 		.4byte	.LASF563
 5717 219a 04       		.byte	0x4
 5718 219b 20       		.uleb128 0x20
 5719 219c B7250000 		.4byte	.LASF564
 5720 21a0 05       		.byte	0x5
 5721 21a1 20       		.uleb128 0x20
 5722 21a2 20250000 		.4byte	.LASF565
 5723 21a6 06       		.byte	0x6
 5724 21a7 20       		.uleb128 0x20
 5725 21a8 B7020000 		.4byte	.LASF566
 5726 21ac 07       		.byte	0x7
 5727 21ad 20       		.uleb128 0x20
 5728 21ae 07090000 		.4byte	.LASF567
 5729 21b2 08       		.byte	0x8
 5730 21b3 20       		.uleb128 0x20
 5731 21b4 73110000 		.4byte	.LASF568
 5732 21b8 09       		.byte	0x9
 5733 21b9 20       		.uleb128 0x20
 5734 21ba 92280000 		.4byte	.LASF569
 5735 21be 0A       		.byte	0xa
 5736 21bf 20       		.uleb128 0x20
 5737 21c0 0A060000 		.4byte	.LASF570
 5738 21c4 0B       		.byte	0xb
 5739 21c5 20       		.uleb128 0x20
 5740 21c6 05200000 		.4byte	.LASF571
 5741 21ca 0C       		.byte	0xc
 5742 21cb 20       		.uleb128 0x20
 5743 21cc 21140000 		.4byte	.LASF572
 5744 21d0 0D       		.byte	0xd
 5745 21d1 20       		.uleb128 0x20
 5746 21d2 67130000 		.4byte	.LASF573
 5747 21d6 0E       		.byte	0xe
 5748 21d7 20       		.uleb128 0x20
 5749 21d8 FD260000 		.4byte	.LASF574
 5750 21dc 0F       		.byte	0xf
 5751 21dd 20       		.uleb128 0x20
 5752 21de 96240000 		.4byte	.LASF575
 5753 21e2 10       		.byte	0x10
 5754 21e3 20       		.uleb128 0x20
 5755 21e4 B6040000 		.4byte	.LASF576
 5756 21e8 11       		.byte	0x11
 5757 21e9 20       		.uleb128 0x20
 5758 21ea F50C0000 		.4byte	.LASF577
 5759 21ee 12       		.byte	0x12
 5760 21ef 20       		.uleb128 0x20
 5761 21f0 23100000 		.4byte	.LASF578
 5762 21f4 13       		.byte	0x13
 5763 21f5 20       		.uleb128 0x20
 5764 21f6 43250000 		.4byte	.LASF579
 5765 21fa 14       		.byte	0x14
 5766 21fb 20       		.uleb128 0x20
 5767 21fc BC220000 		.4byte	.LASF580
 5768 2200 15       		.byte	0x15
 5769 2201 20       		.uleb128 0x20
 5770 2202 E6110000 		.4byte	.LASF581
ARM GAS  C:\Users\EBANO_~1\AppData\Local\Temp\ccD2gIpL.s 			page 124


 5771 2206 16       		.byte	0x16
 5772 2207 00       		.byte	0
 5773 2208 1E       		.uleb128 0x1e
 5774 2209 AF160000 		.4byte	.LASF582
 5775 220d 07       		.byte	0x7
 5776 220e 01       		.byte	0x1
 5777 220f 6D000000 		.4byte	0x6d
 5778 2213 10       		.byte	0x10
 5779 2214 8A08     		.2byte	0x88a
 5780 2216 57220000 		.4byte	0x2257
 5781 221a 20       		.uleb128 0x20
 5782 221b F7220000 		.4byte	.LASF583
 5783 221f 00       		.byte	0
 5784 2220 20       		.uleb128 0x20
 5785 2221 94210000 		.4byte	.LASF584
 5786 2225 01       		.byte	0x1
 5787 2226 20       		.uleb128 0x20
 5788 2227 A6100000 		.4byte	.LASF585
 5789 222b 02       		.byte	0x2
 5790 222c 20       		.uleb128 0x20
 5791 222d 221D0000 		.4byte	.LASF586
 5792 2231 03       		.byte	0x3
 5793 2232 20       		.uleb128 0x20
 5794 2233 5B0E0000 		.4byte	.LASF587
 5795 2237 04       		.byte	0x4
 5796 2238 20       		.uleb128 0x20
 5797 2239 871F0000 		.4byte	.LASF588
 5798 223d 05       		.byte	0x5
 5799 223e 20       		.uleb128 0x20
 5800 223f 82070000 		.4byte	.LASF589
 5801 2243 06       		.byte	0x6
 5802 2244 20       		.uleb128 0x20
 5803 2245 BF1A0000 		.4byte	.LASF590
 5804 2249 07       		.byte	0x7
 5805 224a 20       		.uleb128 0x20
 5806 224b 97220000 		.4byte	.LASF591
 5807 224f 08       		.byte	0x8
 5808 2250 20       		.uleb128 0x20
 5809 2251 4F230000 		.4byte	.LASF592
 5810 2255 09       		.byte	0x9
 5811 2256 00       		.byte	0
 5812 2257 1E       		.uleb128 0x1e
 5813 2258 EE0E0000 		.4byte	.LASF593
 5814 225c 07       		.byte	0x7
 5815 225d 01       		.byte	0x1
 5816 225e 6D000000 		.4byte	0x6d
 5817 2262 10       		.byte	0x10
 5818 2263 B908     		.2byte	0x8b9
 5819 2265 9A220000 		.4byte	0x229a
 5820 2269 20       		.uleb128 0x20
 5821 226a 631A0000 		.4byte	.LASF594
 5822 226e 00       		.byte	0
 5823 226f 20       		.uleb128 0x20
 5824 2270 A9060000 		.4byte	.LASF595
 5825 2274 01       		.byte	0x1
 5826 2275 20       		.uleb128 0x20
 5827 2276 AC050000 		.4byte	.LASF596
ARM GAS  C:\Users\EBANO_~1\AppData\Local\Temp\ccD2gIpL.s 			page 125


 5828 227a 02       		.byte	0x2
 5829 227b 20       		.uleb128 0x20
 5830 227c DF010000 		.4byte	.LASF597
 5831 2280 03       		.byte	0x3
 5832 2281 20       		.uleb128 0x20
 5833 2282 0C230000 		.4byte	.LASF598
 5834 2286 04       		.byte	0x4
 5835 2287 20       		.uleb128 0x20
 5836 2288 D10E0000 		.4byte	.LASF599
 5837 228c 05       		.byte	0x5
 5838 228d 20       		.uleb128 0x20
 5839 228e F0120000 		.4byte	.LASF600
 5840 2292 06       		.byte	0x6
 5841 2293 20       		.uleb128 0x20
 5842 2294 97110000 		.4byte	.LASF601
 5843 2298 07       		.byte	0x7
 5844 2299 00       		.byte	0
 5845 229a 07       		.uleb128 0x7
 5846 229b 1F0F0000 		.4byte	.LASF602
 5847 229f 10       		.byte	0x10
 5848 22a0 DB08     		.2byte	0x8db
 5849 22a2 57220000 		.4byte	0x2257
 5850 22a6 18       		.uleb128 0x18
 5851 22a7 76030000 		.4byte	.LASF603
 5852 22ab 10       		.byte	0x10
 5853 22ac 10       		.byte	0x10
 5854 22ad E208     		.2byte	0x8e2
 5855 22af F0220000 		.4byte	0x22f0
 5856 22b3 17       		.uleb128 0x17
 5857 22b4 B11D0000 		.4byte	.LASF604
 5858 22b8 10       		.byte	0x10
 5859 22b9 E908     		.2byte	0x8e9
 5860 22bb 02230000 		.4byte	0x2302
 5861 22bf 02       		.byte	0x2
 5862 22c0 23       		.byte	0x23
 5863 22c1 00       		.uleb128 0
 5864 22c2 17       		.uleb128 0x17
 5865 22c3 BB170000 		.4byte	.LASF605
 5866 22c7 10       		.byte	0x10
 5867 22c8 EF08     		.2byte	0x8ef
 5868 22ca 1A230000 		.4byte	0x231a
 5869 22ce 02       		.byte	0x2
 5870 22cf 23       		.byte	0x23
 5871 22d0 04       		.uleb128 0x4
 5872 22d1 17       		.uleb128 0x17
 5873 22d2 511D0000 		.4byte	.LASF606
 5874 22d6 10       		.byte	0x10
 5875 22d7 F508     		.2byte	0x8f5
 5876 22d9 32230000 		.4byte	0x2332
 5877 22dd 02       		.byte	0x2
 5878 22de 23       		.byte	0x23
 5879 22df 08       		.uleb128 0x8
 5880 22e0 17       		.uleb128 0x17
 5881 22e1 66070000 		.4byte	.LASF607
 5882 22e5 10       		.byte	0x10
 5883 22e6 FB08     		.2byte	0x8fb
 5884 22e8 4A230000 		.4byte	0x234a
ARM GAS  C:\Users\EBANO_~1\AppData\Local\Temp\ccD2gIpL.s 			page 126


 5885 22ec 02       		.byte	0x2
 5886 22ed 23       		.byte	0x23
 5887 22ee 0C       		.uleb128 0xc
 5888 22ef 00       		.byte	0
 5889 22f0 1C       		.uleb128 0x1c
 5890 22f1 01       		.byte	0x1
 5891 22f2 FC220000 		.4byte	0x22fc
 5892 22f6 15       		.uleb128 0x15
 5893 22f7 FC220000 		.4byte	0x22fc
 5894 22fb 00       		.byte	0
 5895 22fc 05       		.uleb128 0x5
 5896 22fd 04       		.byte	0x4
 5897 22fe 46180000 		.4byte	0x1846
 5898 2302 05       		.uleb128 0x5
 5899 2303 04       		.byte	0x4
 5900 2304 F0220000 		.4byte	0x22f0
 5901 2308 1C       		.uleb128 0x1c
 5902 2309 01       		.byte	0x1
 5903 230a 14230000 		.4byte	0x2314
 5904 230e 15       		.uleb128 0x15
 5905 230f 14230000 		.4byte	0x2314
 5906 2313 00       		.byte	0
 5907 2314 05       		.uleb128 0x5
 5908 2315 04       		.byte	0x4
 5909 2316 41190000 		.4byte	0x1941
 5910 231a 05       		.uleb128 0x5
 5911 231b 04       		.byte	0x4
 5912 231c 08230000 		.4byte	0x2308
 5913 2320 1C       		.uleb128 0x1c
 5914 2321 01       		.byte	0x1
 5915 2322 2C230000 		.4byte	0x232c
 5916 2326 15       		.uleb128 0x15
 5917 2327 2C230000 		.4byte	0x232c
 5918 232b 00       		.byte	0
 5919 232c 05       		.uleb128 0x5
 5920 232d 04       		.byte	0x4
 5921 232e F51B0000 		.4byte	0x1bf5
 5922 2332 05       		.uleb128 0x5
 5923 2333 04       		.byte	0x4
 5924 2334 20230000 		.4byte	0x2320
 5925 2338 1C       		.uleb128 0x1c
 5926 2339 01       		.byte	0x1
 5927 233a 44230000 		.4byte	0x2344
 5928 233e 15       		.uleb128 0x15
 5929 233f 44230000 		.4byte	0x2344
 5930 2343 00       		.byte	0
 5931 2344 05       		.uleb128 0x5
 5932 2345 04       		.byte	0x4
 5933 2346 3C1C0000 		.4byte	0x1c3c
 5934 234a 05       		.uleb128 0x5
 5935 234b 04       		.byte	0x4
 5936 234c 38230000 		.4byte	0x2338
 5937 2350 07       		.uleb128 0x7
 5938 2351 A8130000 		.4byte	.LASF608
 5939 2355 10       		.byte	0x10
 5940 2356 FC08     		.2byte	0x8fc
 5941 2358 A6220000 		.4byte	0x22a6
ARM GAS  C:\Users\EBANO_~1\AppData\Local\Temp\ccD2gIpL.s 			page 127


 5942 235c 18       		.uleb128 0x18
 5943 235d 25260000 		.4byte	.LASF609
 5944 2361 10       		.byte	0x10
 5945 2362 10       		.byte	0x10
 5946 2363 0109     		.2byte	0x901
 5947 2365 A6230000 		.4byte	0x23a6
 5948 2369 17       		.uleb128 0x17
 5949 236a 5D280000 		.4byte	.LASF610
 5950 236e 10       		.byte	0x10
 5951 236f 0B09     		.2byte	0x90b
 5952 2371 AC230000 		.4byte	0x23ac
 5953 2375 02       		.byte	0x2
 5954 2376 23       		.byte	0x23
 5955 2377 00       		.uleb128 0
 5956 2378 17       		.uleb128 0x17
 5957 2379 7C0F0000 		.4byte	.LASF611
 5958 237d 10       		.byte	0x10
 5959 237e 1109     		.2byte	0x911
 5960 2380 B8230000 		.4byte	0x23b8
 5961 2384 02       		.byte	0x2
 5962 2385 23       		.byte	0x23
 5963 2386 04       		.uleb128 0x4
 5964 2387 17       		.uleb128 0x17
 5965 2388 020B0000 		.4byte	.LASF612
 5966 238c 10       		.byte	0x10
 5967 238d 1709     		.2byte	0x917
 5968 238f CA230000 		.4byte	0x23ca
 5969 2393 02       		.byte	0x2
 5970 2394 23       		.byte	0x23
 5971 2395 08       		.uleb128 0x8
 5972 2396 17       		.uleb128 0x17
 5973 2397 131F0000 		.4byte	.LASF613
 5974 239b 10       		.byte	0x10
 5975 239c 1E09     		.2byte	0x91e
 5976 239e 30030000 		.4byte	0x330
 5977 23a2 02       		.byte	0x2
 5978 23a3 23       		.byte	0x23
 5979 23a4 0C       		.uleb128 0xc
 5980 23a5 00       		.byte	0
 5981 23a6 25       		.uleb128 0x25
 5982 23a7 01       		.byte	0x1
 5983 23a8 0C0A0000 		.4byte	0xa0c
 5984 23ac 05       		.uleb128 0x5
 5985 23ad 04       		.byte	0x4
 5986 23ae A6230000 		.4byte	0x23a6
 5987 23b2 25       		.uleb128 0x25
 5988 23b3 01       		.byte	0x1
 5989 23b4 270A0000 		.4byte	0xa27
 5990 23b8 05       		.uleb128 0x5
 5991 23b9 04       		.byte	0x4
 5992 23ba B2230000 		.4byte	0x23b2
 5993 23be 1C       		.uleb128 0x1c
 5994 23bf 01       		.byte	0x1
 5995 23c0 CA230000 		.4byte	0x23ca
 5996 23c4 15       		.uleb128 0x15
 5997 23c5 9A220000 		.4byte	0x229a
 5998 23c9 00       		.byte	0
ARM GAS  C:\Users\EBANO_~1\AppData\Local\Temp\ccD2gIpL.s 			page 128


 5999 23ca 05       		.uleb128 0x5
 6000 23cb 04       		.byte	0x4
 6001 23cc BE230000 		.4byte	0x23be
 6002 23d0 07       		.uleb128 0x7
 6003 23d1 ED040000 		.4byte	.LASF614
 6004 23d5 10       		.byte	0x10
 6005 23d6 1F09     		.2byte	0x91f
 6006 23d8 5C230000 		.4byte	0x235c
 6007 23dc 2B       		.uleb128 0x2b
 6008 23dd A6260000 		.4byte	.LASF640
 6009 23e1 10       		.byte	0x10
 6010 23e2 2509     		.2byte	0x925
 6011 23e4 5A0A0000 		.4byte	0xa5a
 6012 23e8 10       		.byte	0x10
 6013 23e9 08       		.byte	0x8
 6014 23ea 0A       		.byte	0xa
 6015 23eb 0C       		.byte	0xc
 6016 23ec 0D       		.byte	0xd
 6017 23ed 0E       		.byte	0xe
 6018 23ee 10       		.byte	0x10
 6019 23ef 12       		.byte	0x12
 6020 23f0 14       		.byte	0x14
 6021 23f1 15       		.byte	0x15
 6022 23f2 18       		.byte	0x18
 6023 23f3 1A       		.byte	0x1a
 6024 23f4 1B       		.byte	0x1b
 6025 23f5 1D       		.byte	0x1d
 6026 23f6 1E       		.byte	0x1e
 6027 23f7 21       		.byte	0x21
 6028 23f8 24       		.byte	0x24
 6029 23f9 0C       		.uleb128 0xc
 6030 23fa 08       		.byte	0x8
 6031 23fb 11       		.byte	0x11
 6032 23fc 3B       		.byte	0x3b
 6033 23fd 2C240000 		.4byte	0x242c
 6034 2401 0D       		.uleb128 0xd
 6035 2402 93030000 		.4byte	.LASF615
 6036 2406 11       		.byte	0x11
 6037 2407 3E       		.byte	0x3e
 6038 2408 B00A0000 		.4byte	0xab0
 6039 240c 02       		.byte	0x2
 6040 240d 23       		.byte	0x23
 6041 240e 00       		.uleb128 0
 6042 240f 0D       		.uleb128 0xd
 6043 2410 BC130000 		.4byte	.LASF616
 6044 2414 11       		.byte	0x11
 6045 2415 40       		.byte	0x40
 6046 2416 0C0A0000 		.4byte	0xa0c
 6047 241a 02       		.byte	0x2
 6048 241b 23       		.byte	0x23
 6049 241c 04       		.uleb128 0x4
 6050 241d 0D       		.uleb128 0xd
 6051 241e 9B130000 		.4byte	.LASF358
 6052 2422 11       		.byte	0x11
 6053 2423 42       		.byte	0x42
 6054 2424 0C0A0000 		.4byte	0xa0c
 6055 2428 02       		.byte	0x2
ARM GAS  C:\Users\EBANO_~1\AppData\Local\Temp\ccD2gIpL.s 			page 129


 6056 2429 23       		.byte	0x23
 6057 242a 05       		.uleb128 0x5
 6058 242b 00       		.byte	0
 6059 242c 03       		.uleb128 0x3
 6060 242d 7B100000 		.4byte	.LASF617
 6061 2431 11       		.byte	0x11
 6062 2432 44       		.byte	0x44
 6063 2433 F9230000 		.4byte	0x23f9
 6064 2437 23       		.uleb128 0x23
 6065 2438 07       		.byte	0x7
 6066 2439 01       		.byte	0x1
 6067 243a 6D000000 		.4byte	0x6d
 6068 243e 11       		.byte	0x11
 6069 243f 49       		.byte	0x49
 6070 2440 51240000 		.4byte	0x2451
 6071 2444 20       		.uleb128 0x20
 6072 2445 371A0000 		.4byte	.LASF618
 6073 2449 00       		.byte	0
 6074 244a 20       		.uleb128 0x20
 6075 244b 7C170000 		.4byte	.LASF619
 6076 244f 01       		.byte	0x1
 6077 2450 00       		.byte	0
 6078 2451 03       		.uleb128 0x3
 6079 2452 BC200000 		.4byte	.LASF620
 6080 2456 11       		.byte	0x11
 6081 2457 4C       		.byte	0x4c
 6082 2458 37240000 		.4byte	0x2437
 6083 245c 23       		.uleb128 0x23
 6084 245d 05       		.byte	0x5
 6085 245e 01       		.byte	0x1
 6086 245f 5B000000 		.4byte	0x5b
 6087 2463 11       		.byte	0x11
 6088 2464 4F       		.byte	0x4f
 6089 2465 76240000 		.4byte	0x2476
 6090 2469 1F       		.uleb128 0x1f
 6091 246a AC250000 		.4byte	.LASF621
 6092 246e 7F       		.sleb128 -1
 6093 246f 20       		.uleb128 0x20
 6094 2470 FC1D0000 		.4byte	.LASF622
 6095 2474 00       		.byte	0
 6096 2475 00       		.byte	0
 6097 2476 03       		.uleb128 0x3
 6098 2477 43150000 		.4byte	.LASF623
 6099 247b 11       		.byte	0x11
 6100 247c 52       		.byte	0x52
 6101 247d 5C240000 		.4byte	0x245c
 6102 2481 23       		.uleb128 0x23
 6103 2482 07       		.byte	0x7
 6104 2483 01       		.byte	0x1
 6105 2484 6D000000 		.4byte	0x6d
 6106 2488 11       		.byte	0x11
 6107 2489 55       		.byte	0x55
 6108 248a 9B240000 		.4byte	0x249b
 6109 248e 20       		.uleb128 0x20
 6110 248f 7F220000 		.4byte	.LASF624
 6111 2493 00       		.byte	0
 6112 2494 20       		.uleb128 0x20
ARM GAS  C:\Users\EBANO_~1\AppData\Local\Temp\ccD2gIpL.s 			page 130


 6113 2495 F4050000 		.4byte	.LASF625
 6114 2499 01       		.byte	0x1
 6115 249a 00       		.byte	0
 6116 249b 03       		.uleb128 0x3
 6117 249c 7E260000 		.4byte	.LASF626
 6118 24a0 11       		.byte	0x11
 6119 24a1 58       		.byte	0x58
 6120 24a2 81240000 		.4byte	0x2481
 6121 24a6 10       		.uleb128 0x10
 6122 24a7 C51D0000 		.4byte	.LASF627
 6123 24ab 03       		.byte	0x3
 6124 24ac 11       		.byte	0x11
 6125 24ad 73       		.byte	0x73
 6126 24ae DD240000 		.4byte	0x24dd
 6127 24b2 0D       		.uleb128 0xd
 6128 24b3 23090000 		.4byte	.LASF489
 6129 24b7 11       		.byte	0x11
 6130 24b8 78       		.byte	0x78
 6131 24b9 AC0B0000 		.4byte	0xbac
 6132 24bd 02       		.byte	0x2
 6133 24be 23       		.byte	0x23
 6134 24bf 00       		.uleb128 0
 6135 24c0 0D       		.uleb128 0xd
 6136 24c1 65160000 		.4byte	.LASF628
 6137 24c5 11       		.byte	0x11
 6138 24c6 7C       		.byte	0x7c
 6139 24c7 010A0000 		.4byte	0xa01
 6140 24cb 02       		.byte	0x2
 6141 24cc 23       		.byte	0x23
 6142 24cd 01       		.uleb128 0x1
 6143 24ce 0D       		.uleb128 0xd
 6144 24cf 13070000 		.4byte	.LASF513
 6145 24d3 11       		.byte	0x11
 6146 24d4 81       		.byte	0x81
 6147 24d5 AC0B0000 		.4byte	0xbac
 6148 24d9 02       		.byte	0x2
 6149 24da 23       		.byte	0x23
 6150 24db 02       		.uleb128 0x2
 6151 24dc 00       		.byte	0
 6152 24dd 03       		.uleb128 0x3
 6153 24de 6B1F0000 		.4byte	.LASF629
 6154 24e2 11       		.byte	0x11
 6155 24e3 83       		.byte	0x83
 6156 24e4 A6240000 		.4byte	0x24a6
 6157 24e8 10       		.uleb128 0x10
 6158 24e9 73040000 		.4byte	.LASF630
 6159 24ed 24       		.byte	0x24
 6160 24ee 11       		.byte	0x11
 6161 24ef 86       		.byte	0x86
 6162 24f0 73250000 		.4byte	0x2573
 6163 24f4 0D       		.uleb128 0xd
 6164 24f5 5D1C0000 		.4byte	.LASF631
 6165 24f9 11       		.byte	0x11
 6166 24fa 8D       		.byte	0x8d
 6167 24fb AC230000 		.4byte	0x23ac
 6168 24ff 02       		.byte	0x2
 6169 2500 23       		.byte	0x23
ARM GAS  C:\Users\EBANO_~1\AppData\Local\Temp\ccD2gIpL.s 			page 131


 6170 2501 00       		.uleb128 0
 6171 2502 0D       		.uleb128 0xd
 6172 2503 8E140000 		.4byte	.LASF632
 6173 2507 11       		.byte	0x11
 6174 2508 93       		.byte	0x93
 6175 2509 B8230000 		.4byte	0x23b8
 6176 250d 02       		.byte	0x2
 6177 250e 23       		.byte	0x23
 6178 250f 04       		.uleb128 0x4
 6179 2510 0D       		.uleb128 0xd
 6180 2511 C1240000 		.4byte	.LASF633
 6181 2515 11       		.byte	0x11
 6182 2516 99       		.byte	0x99
 6183 2517 7F250000 		.4byte	0x257f
 6184 251b 02       		.byte	0x2
 6185 251c 23       		.byte	0x23
 6186 251d 08       		.uleb128 0x8
 6187 251e 0D       		.uleb128 0xd
 6188 251f 19280000 		.4byte	.LASF634
 6189 2523 11       		.byte	0x11
 6190 2524 9F       		.byte	0x9f
 6191 2525 F40E0000 		.4byte	0xef4
 6192 2529 02       		.byte	0x2
 6193 252a 23       		.byte	0x23
 6194 252b 0C       		.uleb128 0xc
 6195 252c 0D       		.uleb128 0xd
 6196 252d 1F180000 		.4byte	.LASF635
 6197 2531 11       		.byte	0x11
 6198 2532 A6       		.byte	0xa6
 6199 2533 97250000 		.4byte	0x2597
 6200 2537 02       		.byte	0x2
 6201 2538 23       		.byte	0x23
 6202 2539 10       		.uleb128 0x10
 6203 253a 0D       		.uleb128 0xd
 6204 253b 03250000 		.4byte	.LASF636
 6205 253f 11       		.byte	0x11
 6206 2540 AD       		.byte	0xad
 6207 2541 30030000 		.4byte	0x330
 6208 2545 02       		.byte	0x2
 6209 2546 23       		.byte	0x23
 6210 2547 14       		.uleb128 0x14
 6211 2548 0D       		.uleb128 0xd
 6212 2549 69270000 		.4byte	.LASF637
 6213 254d 11       		.byte	0x11
 6214 254e B7       		.byte	0xb7
 6215 254f A9250000 		.4byte	0x25a9
 6216 2553 02       		.byte	0x2
 6217 2554 23       		.byte	0x23
 6218 2555 18       		.uleb128 0x18
 6219 2556 0D       		.uleb128 0xd
 6220 2557 20030000 		.4byte	.LASF638
 6221 255b 11       		.byte	0x11
 6222 255c BE       		.byte	0xbe
 6223 255d 30030000 		.4byte	0x330
 6224 2561 02       		.byte	0x2
 6225 2562 23       		.byte	0x23
 6226 2563 1C       		.uleb128 0x1c
ARM GAS  C:\Users\EBANO_~1\AppData\Local\Temp\ccD2gIpL.s 			page 132


 6227 2564 0D       		.uleb128 0xd
 6228 2565 131F0000 		.4byte	.LASF613
 6229 2569 11       		.byte	0x11
 6230 256a C5       		.byte	0xc5
 6231 256b 30030000 		.4byte	0x330
 6232 256f 02       		.byte	0x2
 6233 2570 23       		.byte	0x23
 6234 2571 20       		.uleb128 0x20
 6235 2572 00       		.byte	0
 6236 2573 1C       		.uleb128 0x1c
 6237 2574 01       		.byte	0x1
 6238 2575 7F250000 		.4byte	0x257f
 6239 2579 15       		.uleb128 0x15
 6240 257a B00A0000 		.4byte	0xab0
 6241 257e 00       		.byte	0
 6242 257f 05       		.uleb128 0x5
 6243 2580 04       		.byte	0x4
 6244 2581 73250000 		.4byte	0x2573
 6245 2585 1C       		.uleb128 0x1c
 6246 2586 01       		.byte	0x1
 6247 2587 91250000 		.4byte	0x2591
 6248 258b 15       		.uleb128 0x15
 6249 258c 91250000 		.4byte	0x2591
 6250 2590 00       		.byte	0
 6251 2591 05       		.uleb128 0x5
 6252 2592 04       		.byte	0x4
 6253 2593 2C240000 		.4byte	0x242c
 6254 2597 05       		.uleb128 0x5
 6255 2598 04       		.byte	0x4
 6256 2599 85250000 		.4byte	0x2585
 6257 259d 1C       		.uleb128 0x1c
 6258 259e 01       		.byte	0x1
 6259 259f A9250000 		.4byte	0x25a9
 6260 25a3 15       		.uleb128 0x15
 6261 25a4 A0110000 		.4byte	0x11a0
 6262 25a8 00       		.byte	0
 6263 25a9 05       		.uleb128 0x5
 6264 25aa 04       		.byte	0x4
 6265 25ab 9D250000 		.4byte	0x259d
 6266 25af 03       		.uleb128 0x3
 6267 25b0 14210000 		.4byte	.LASF639
 6268 25b4 11       		.byte	0x11
 6269 25b5 C6       		.byte	0xc6
 6270 25b6 E8240000 		.4byte	0x24e8
 6271 25ba 0A       		.uleb128 0xa
 6272 25bb 0C0A0000 		.4byte	0xa0c
 6273 25bf CA250000 		.4byte	0x25ca
 6274 25c3 0B       		.uleb128 0xb
 6275 25c4 3B000000 		.4byte	0x3b
 6276 25c8 07       		.byte	0x7
 6277 25c9 00       		.byte	0
 6278 25ca 2C       		.uleb128 0x2c
 6279 25cb 39160000 		.4byte	.LASF386
 6280 25cf 01       		.byte	0x1
 6281 25d0 3B       		.byte	0x3b
 6282 25d1 BA250000 		.4byte	0x25ba
 6283 25d5 05       		.byte	0x5
ARM GAS  C:\Users\EBANO_~1\AppData\Local\Temp\ccD2gIpL.s 			page 133


 6284 25d6 03       		.byte	0x3
 6285 25d7 00000000 		.4byte	DevEui
 6286 25db 2C       		.uleb128 0x2c
 6287 25dc 63210000 		.4byte	.LASF387
 6288 25e0 01       		.byte	0x1
 6289 25e1 3C       		.byte	0x3c
 6290 25e2 BA250000 		.4byte	0x25ba
 6291 25e6 05       		.byte	0x5
 6292 25e7 03       		.byte	0x3
 6293 25e8 08000000 		.4byte	JoinEui
 6294 25ec 0A       		.uleb128 0xa
 6295 25ed 0C0A0000 		.4byte	0xa0c
 6296 25f1 FC250000 		.4byte	0x25fc
 6297 25f5 0B       		.uleb128 0xb
 6298 25f6 3B000000 		.4byte	0x3b
 6299 25fa 0F       		.byte	0xf
 6300 25fb 00       		.byte	0
 6301 25fc 2C       		.uleb128 0x2c
 6302 25fd 19010000 		.4byte	.LASF492
 6303 2601 01       		.byte	0x1
 6304 2602 3D       		.byte	0x3d
 6305 2603 EC250000 		.4byte	0x25ec
 6306 2607 05       		.byte	0x5
 6307 2608 03       		.byte	0x3
 6308 2609 10000000 		.4byte	AppKey
 6309 260d 2C       		.uleb128 0x2c
 6310 260e 96200000 		.4byte	.LASF493
 6311 2612 01       		.byte	0x1
 6312 2613 3E       		.byte	0x3e
 6313 2614 EC250000 		.4byte	0x25ec
 6314 2618 05       		.byte	0x5
 6315 2619 03       		.byte	0x3
 6316 261a 20000000 		.4byte	NwkKey
 6317 261e 2C       		.uleb128 0x2c
 6318 261f 43000000 		.4byte	.LASF641
 6319 2623 01       		.byte	0x1
 6320 2624 40       		.byte	0x40
 6321 2625 011A0000 		.4byte	0x1a01
 6322 2629 05       		.byte	0x5
 6323 262a 03       		.byte	0x3
 6324 262b 04000000 		.4byte	JoinParameters
 6325 262f 2C       		.uleb128 0x2c
 6326 2630 4E140000 		.4byte	.LASF642
 6327 2634 01       		.byte	0x1
 6328 2635 59       		.byte	0x59
 6329 2636 40260000 		.4byte	0x2640
 6330 263a 05       		.byte	0x5
 6331 263b 03       		.byte	0x3
 6332 263c 10000000 		.4byte	LoRaParamInit
 6333 2640 05       		.uleb128 0x5
 6334 2641 04       		.byte	0x4
 6335 2642 DD240000 		.4byte	0x24dd
 6336 2646 2C       		.uleb128 0x2c
 6337 2647 E2160000 		.4byte	.LASF643
 6338 264b 01       		.byte	0x1
 6339 264c 5A       		.byte	0x5a
 6340 264d 50230000 		.4byte	0x2350
ARM GAS  C:\Users\EBANO_~1\AppData\Local\Temp\ccD2gIpL.s 			page 134


 6341 2651 05       		.byte	0x5
 6342 2652 03       		.byte	0x3
 6343 2653 14000000 		.4byte	LoRaMacPrimitives
 6344 2657 2C       		.uleb128 0x2c
 6345 2658 6D280000 		.4byte	.LASF644
 6346 265c 01       		.byte	0x1
 6347 265d 5B       		.byte	0x5b
 6348 265e D0230000 		.4byte	0x23d0
 6349 2662 05       		.byte	0x5
 6350 2663 03       		.byte	0x3
 6351 2664 24000000 		.4byte	LoRaMacCallbacks
 6352 2668 2C       		.uleb128 0x2c
 6353 2669 7A090000 		.4byte	.LASF645
 6354 266d 01       		.byte	0x1
 6355 266e 5C       		.byte	0x5c
 6356 266f 27210000 		.4byte	0x2127
 6357 2673 05       		.byte	0x5
 6358 2674 03       		.byte	0x3
 6359 2675 34000000 		.4byte	mibReq
 6360 2679 2C       		.uleb128 0x2c
 6361 267a 51210000 		.4byte	.LASF646
 6362 267e 01       		.byte	0x1
 6363 267f 5E       		.byte	0x5e
 6364 2680 8A260000 		.4byte	0x268a
 6365 2684 05       		.byte	0x5
 6366 2685 03       		.byte	0x3
 6367 2686 00000000 		.4byte	LoRaMainCallbacks
 6368 268a 05       		.uleb128 0x5
 6369 268b 04       		.byte	0x4
 6370 268c AF250000 		.4byte	0x25af
 6371 2690 21       		.uleb128 0x21
 6372 2691 12150000 		.4byte	.LASF647
 6373 2695 01       		.byte	0x1
 6374 2696 60       		.byte	0x60
 6375 2697 2C240000 		.4byte	0x242c
 6376 269b 01       		.byte	0x1
 6377 269c 01       		.byte	0x1
 6378 269d 0A       		.uleb128 0xa
 6379 269e 6E060000 		.4byte	0x66e
 6380 26a2 AD260000 		.4byte	0x26ad
 6381 26a6 0B       		.uleb128 0xb
 6382 26a7 3B000000 		.4byte	0x3b
 6383 26ab 10       		.byte	0x10
 6384 26ac 00       		.byte	0
 6385 26ad 2D       		.uleb128 0x2d
 6386 26ae 6B210000 		.4byte	.LASF648
 6387 26b2 01       		.byte	0x1
 6388 26b3 69       		.byte	0x69
 6389 26b4 9D260000 		.4byte	0x269d
 6390 26b8 01       		.byte	0x1
 6391 26b9 05       		.byte	0x5
 6392 26ba 03       		.byte	0x3
 6393 26bb 00000000 		.4byte	EventInfoStatusStrings
 6394 26bf 0A       		.uleb128 0xa
 6395 26c0 6E060000 		.4byte	0x66e
 6396 26c4 CF260000 		.4byte	0x26cf
 6397 26c8 0B       		.uleb128 0xb
ARM GAS  C:\Users\EBANO_~1\AppData\Local\Temp\ccD2gIpL.s 			page 135


 6398 26c9 3B000000 		.4byte	0x3b
 6399 26cd 15       		.byte	0x15
 6400 26ce 00       		.byte	0
 6401 26cf 2D       		.uleb128 0x2d
 6402 26d0 9E160000 		.4byte	.LASF649
 6403 26d4 01       		.byte	0x1
 6404 26d5 75       		.byte	0x75
 6405 26d6 BF260000 		.4byte	0x26bf
 6406 26da 01       		.byte	0x1
 6407 26db 05       		.byte	0x5
 6408 26dc 03       		.byte	0x3
 6409 26dd 00000000 		.4byte	MacStatusStrings
 6410 26e1 0A       		.uleb128 0xa
 6411 26e2 6E060000 		.4byte	0x66e
 6412 26e6 F1260000 		.4byte	0x26f1
 6413 26ea 0B       		.uleb128 0xb
 6414 26eb 3B000000 		.4byte	0x3b
 6415 26ef 0E       		.byte	0xe
 6416 26f0 00       		.byte	0
 6417 26f1 2D       		.uleb128 0x2d
 6418 26f2 DA000000 		.4byte	.LASF650
 6419 26f6 01       		.byte	0x1
 6420 26f7 80       		.byte	0x80
 6421 26f8 E1260000 		.4byte	0x26e1
 6422 26fc 01       		.byte	0x1
 6423 26fd 05       		.byte	0x5
 6424 26fe 03       		.byte	0x3
 6425 26ff 00000000 		.4byte	MlmeReqStrings
 6426 2703 2E       		.uleb128 0x2e
 6427 2704 9D200000 		.4byte	.LASF653
 6428 2708 01       		.byte	0x1
 6429 2709 6203     		.2byte	0x362
 6430 270b 01       		.byte	0x1
 6431 270c 01       		.byte	0x1
 6432 270d 38270000 		.4byte	0x2738
 6433 2711 2F       		.uleb128 0x2f
 6434 2712 C9110000 		.4byte	.LASF655
 6435 2716 01       		.byte	0x1
 6436 2717 6203     		.2byte	0x362
 6437 2719 14230000 		.4byte	0x2314
 6438 271d 30       		.uleb128 0x30
 6439 271e 59180000 		.4byte	.LASF651
 6440 2722 01       		.byte	0x1
 6441 2723 6403     		.2byte	0x364
 6442 2725 38270000 		.4byte	0x2738
 6443 2729 31       		.uleb128 0x31
 6444 272a 30       		.uleb128 0x30
 6445 272b BD080000 		.4byte	.LASF652
 6446 272f 01       		.byte	0x1
 6447 2730 6703     		.2byte	0x367
 6448 2732 A10B0000 		.4byte	0xba1
 6449 2736 00       		.byte	0
 6450 2737 00       		.byte	0
 6451 2738 0A       		.uleb128 0xa
 6452 2739 6E060000 		.4byte	0x66e
 6453 273d 48270000 		.4byte	0x2748
 6454 2741 0B       		.uleb128 0xb
ARM GAS  C:\Users\EBANO_~1\AppData\Local\Temp\ccD2gIpL.s 			page 136


 6455 2742 3B000000 		.4byte	0x3b
 6456 2746 04       		.byte	0x4
 6457 2747 00       		.byte	0
 6458 2748 2E       		.uleb128 0x2e
 6459 2749 8D120000 		.4byte	.LASF654
 6460 274d 01       		.byte	0x1
 6461 274e 3503     		.2byte	0x335
 6462 2750 01       		.byte	0x1
 6463 2751 01       		.byte	0x1
 6464 2752 99270000 		.4byte	0x2799
 6465 2756 2F       		.uleb128 0x2f
 6466 2757 C3080000 		.4byte	.LASF656
 6467 275b 01       		.byte	0x1
 6468 275c 3503     		.2byte	0x335
 6469 275e FC220000 		.4byte	0x22fc
 6470 2762 30       		.uleb128 0x30
 6471 2763 5F070000 		.4byte	.LASF657
 6472 2767 01       		.byte	0x1
 6473 2768 3803     		.2byte	0x338
 6474 276a 27210000 		.4byte	0x2127
 6475 276e 30       		.uleb128 0x30
 6476 276f 7A090000 		.4byte	.LASF645
 6477 2773 01       		.byte	0x1
 6478 2774 3903     		.2byte	0x339
 6479 2776 27210000 		.4byte	0x2127
 6480 277a 32       		.uleb128 0x32
 6481 277b 8C270000 		.4byte	0x278c
 6482 277f 30       		.uleb128 0x30
 6483 2780 BD080000 		.4byte	.LASF652
 6484 2784 01       		.byte	0x1
 6485 2785 3F03     		.2byte	0x33f
 6486 2787 A10B0000 		.4byte	0xba1
 6487 278b 00       		.byte	0
 6488 278c 31       		.uleb128 0x31
 6489 278d 33       		.uleb128 0x33
 6490 278e 6900     		.ascii	"i\000"
 6491 2790 01       		.byte	0x1
 6492 2791 4F03     		.2byte	0x34f
 6493 2793 0C0A0000 		.4byte	0xa0c
 6494 2797 00       		.byte	0
 6495 2798 00       		.byte	0
 6496 2799 34       		.uleb128 0x34
 6497 279a 01       		.byte	0x1
 6498 279b 6E190000 		.4byte	.LASF668
 6499 279f 01       		.byte	0x1
 6500 27a0 2A03     		.2byte	0x32a
 6501 27a2 01       		.byte	0x1
 6502 27a3 00000000 		.4byte	.LFB48
 6503 27a7 1C000000 		.4byte	.LFE48
 6504 27ab 00000000 		.4byte	.LLST23
 6505 27af 01       		.byte	0x1
 6506 27b0 E4270000 		.4byte	0x27e4
 6507 27b4 35       		.uleb128 0x35
 6508 27b5 D2040000 		.4byte	.LASF658
 6509 27b9 01       		.byte	0x1
 6510 27ba 2A03     		.2byte	0x32a
 6511 27bc E4270000 		.4byte	0x27e4
ARM GAS  C:\Users\EBANO_~1\AppData\Local\Temp\ccD2gIpL.s 			page 137


 6512 27c0 2C000000 		.4byte	.LLST24
 6513 27c4 36       		.uleb128 0x36
 6514 27c5 7A090000 		.4byte	.LASF645
 6515 27c9 01       		.byte	0x1
 6516 27ca 2C03     		.2byte	0x32c
 6517 27cc 27210000 		.4byte	0x2127
 6518 27d0 02       		.byte	0x2
 6519 27d1 91       		.byte	0x91
 6520 27d2 60       		.sleb128 -32
 6521 27d3 37       		.uleb128 0x37
 6522 27d4 12000000 		.4byte	.LVL75
 6523 27d8 2D2D0000 		.4byte	0x2d2d
 6524 27dc 38       		.uleb128 0x38
 6525 27dd 01       		.byte	0x1
 6526 27de 50       		.byte	0x50
 6527 27df 02       		.byte	0x2
 6528 27e0 7D       		.byte	0x7d
 6529 27e1 00       		.sleb128 0
 6530 27e2 00       		.byte	0
 6531 27e3 00       		.byte	0
 6532 27e4 05       		.uleb128 0x5
 6533 27e5 04       		.byte	0x4
 6534 27e6 A0110000 		.4byte	0x11a0
 6535 27ea 39       		.uleb128 0x39
 6536 27eb 01       		.byte	0x1
 6537 27ec 52000000 		.4byte	.LASF661
 6538 27f0 01       		.byte	0x1
 6539 27f1 E602     		.2byte	0x2e6
 6540 27f3 01       		.byte	0x1
 6541 27f4 76240000 		.4byte	0x2476
 6542 27f8 00000000 		.4byte	.LFB47
 6543 27fc 84000000 		.4byte	.LFE47
 6544 2800 58000000 		.4byte	.LLST19
 6545 2804 01       		.byte	0x1
 6546 2805 A8280000 		.4byte	0x28a8
 6547 2809 35       		.uleb128 0x35
 6548 280a 7B270000 		.4byte	.LASF659
 6549 280e 01       		.byte	0x1
 6550 280f E602     		.2byte	0x2e6
 6551 2811 A0110000 		.4byte	0x11a0
 6552 2815 84000000 		.4byte	.LLST20
 6553 2819 3A       		.uleb128 0x3a
 6554 281a 040E0000 		.4byte	.LASF660
 6555 281e 01       		.byte	0x1
 6556 281f E802     		.2byte	0x2e8
 6557 2821 76240000 		.4byte	0x2476
 6558 2825 A5000000 		.4byte	.LLST21
 6559 2829 36       		.uleb128 0x36
 6560 282a 7A090000 		.4byte	.LASF645
 6561 282e 01       		.byte	0x1
 6562 282f E902     		.2byte	0x2e9
 6563 2831 27210000 		.4byte	0x2127
 6564 2835 02       		.byte	0x2
 6565 2836 91       		.byte	0x91
 6566 2837 58       		.sleb128 -40
 6567 2838 3A       		.uleb128 0x3a
 6568 2839 D2040000 		.4byte	.LASF658
ARM GAS  C:\Users\EBANO_~1\AppData\Local\Temp\ccD2gIpL.s 			page 138


 6569 283d 01       		.byte	0x1
 6570 283e EA02     		.2byte	0x2ea
 6571 2840 A0110000 		.4byte	0x11a0
 6572 2844 E7000000 		.4byte	.LLST22
 6573 2848 3B       		.uleb128 0x3b
 6574 2849 12000000 		.4byte	.LVL54
 6575 284d 2D2D0000 		.4byte	0x2d2d
 6576 2851 5C280000 		.4byte	0x285c
 6577 2855 38       		.uleb128 0x38
 6578 2856 01       		.byte	0x1
 6579 2857 50       		.byte	0x50
 6580 2858 02       		.byte	0x2
 6581 2859 7D       		.byte	0x7d
 6582 285a 00       		.sleb128 0
 6583 285b 00       		.byte	0
 6584 285c 3B       		.uleb128 0x3b
 6585 285d 36000000 		.4byte	.LVL59
 6586 2861 3B2D0000 		.4byte	0x2d3b
 6587 2865 70280000 		.4byte	0x2870
 6588 2869 38       		.uleb128 0x38
 6589 286a 01       		.byte	0x1
 6590 286b 50       		.byte	0x50
 6591 286c 02       		.byte	0x2
 6592 286d 7D       		.byte	0x7d
 6593 286e 00       		.sleb128 0
 6594 286f 00       		.byte	0
 6595 2870 3B       		.uleb128 0x3b
 6596 2871 58000000 		.4byte	.LVL67
 6597 2875 3B2D0000 		.4byte	0x2d3b
 6598 2879 84280000 		.4byte	0x2884
 6599 287d 38       		.uleb128 0x38
 6600 287e 01       		.byte	0x1
 6601 287f 50       		.byte	0x50
 6602 2880 02       		.byte	0x2
 6603 2881 7D       		.byte	0x7d
 6604 2882 00       		.sleb128 0
 6605 2883 00       		.byte	0
 6606 2884 3C       		.uleb128 0x3c
 6607 2885 68000000 		.4byte	.LVL68
 6608 2889 94280000 		.4byte	0x2894
 6609 288d 38       		.uleb128 0x38
 6610 288e 01       		.byte	0x1
 6611 288f 50       		.byte	0x50
 6612 2890 02       		.byte	0x2
 6613 2891 74       		.byte	0x74
 6614 2892 00       		.sleb128 0
 6615 2893 00       		.byte	0
 6616 2894 37       		.uleb128 0x37
 6617 2895 70000000 		.4byte	.LVL71
 6618 2899 492D0000 		.4byte	0x2d49
 6619 289d 38       		.uleb128 0x38
 6620 289e 01       		.byte	0x1
 6621 289f 50       		.byte	0x50
 6622 28a0 05       		.byte	0x5
 6623 28a1 03       		.byte	0x3
 6624 28a2 CC000000 		.4byte	.LC35
 6625 28a6 00       		.byte	0
ARM GAS  C:\Users\EBANO_~1\AppData\Local\Temp\ccD2gIpL.s 			page 139


 6626 28a7 00       		.byte	0
 6627 28a8 3D       		.uleb128 0x3d
 6628 28a9 01       		.byte	0x1
 6629 28aa 6D1D0000 		.4byte	.LASF662
 6630 28ae 01       		.byte	0x1
 6631 28af 6E02     		.2byte	0x26e
 6632 28b1 01       		.byte	0x1
 6633 28b2 AC0B0000 		.4byte	0xbac
 6634 28b6 00000000 		.4byte	.LFB46
 6635 28ba 78000000 		.4byte	.LFE46
 6636 28be 3F010000 		.4byte	.LLST16
 6637 28c2 01       		.byte	0x1
 6638 28c3 2C290000 		.4byte	0x292c
 6639 28c7 35       		.uleb128 0x35
 6640 28c8 12150000 		.4byte	.LASF647
 6641 28cc 01       		.byte	0x1
 6642 28cd 6E02     		.2byte	0x26e
 6643 28cf 91250000 		.4byte	0x2591
 6644 28d3 6B010000 		.4byte	.LLST17
 6645 28d7 35       		.uleb128 0x35
 6646 28d8 B0150000 		.4byte	.LASF663
 6647 28dc 01       		.byte	0x1
 6648 28dd 6E02     		.2byte	0x26e
 6649 28df 9B240000 		.4byte	0x249b
 6650 28e3 C9010000 		.4byte	.LLST18
 6651 28e7 36       		.uleb128 0x36
 6652 28e8 80180000 		.4byte	.LASF664
 6653 28ec 01       		.byte	0x1
 6654 28ed 7002     		.2byte	0x270
 6655 28ef A5170000 		.4byte	0x17a5
 6656 28f3 02       		.byte	0x2
 6657 28f4 91       		.byte	0x91
 6658 28f5 60       		.sleb128 -32
 6659 28f6 36       		.uleb128 0x36
 6660 28f7 56280000 		.4byte	.LASF665
 6661 28fb 01       		.byte	0x1
 6662 28fc 7102     		.2byte	0x271
 6663 28fe 5F210000 		.4byte	0x215f
 6664 2902 02       		.byte	0x2
 6665 2903 91       		.byte	0x91
 6666 2904 5C       		.sleb128 -36
 6667 2905 3E       		.uleb128 0x3e
 6668 2906 0C000000 		.4byte	.LVL44
 6669 290a 562D0000 		.4byte	0x2d56
 6670 290e 3B       		.uleb128 0x3b
 6671 290f 20000000 		.4byte	.LVL47
 6672 2913 632D0000 		.4byte	0x2d63
 6673 2917 22290000 		.4byte	0x2922
 6674 291b 38       		.uleb128 0x38
 6675 291c 01       		.byte	0x1
 6676 291d 51       		.byte	0x51
 6677 291e 02       		.byte	0x2
 6678 291f 91       		.byte	0x91
 6679 2920 5C       		.sleb128 -36
 6680 2921 00       		.byte	0
 6681 2922 3E       		.uleb128 0x3e
 6682 2923 46000000 		.4byte	.LVL49
ARM GAS  C:\Users\EBANO_~1\AppData\Local\Temp\ccD2gIpL.s 			page 140


 6683 2927 712D0000 		.4byte	0x2d71
 6684 292b 00       		.byte	0
 6685 292c 3D       		.uleb128 0x3d
 6686 292d 01       		.byte	0x1
 6687 292e C5140000 		.4byte	.LASF666
 6688 2932 01       		.byte	0x1
 6689 2933 5A02     		.2byte	0x25a
 6690 2935 01       		.byte	0x1
 6691 2936 51240000 		.4byte	0x2451
 6692 293a 00000000 		.4byte	.LFB45
 6693 293e 1E000000 		.4byte	.LFE45
 6694 2942 EA010000 		.4byte	.LLST15
 6695 2946 01       		.byte	0x1
 6696 2947 6B290000 		.4byte	0x296b
 6697 294b 36       		.uleb128 0x36
 6698 294c 7A090000 		.4byte	.LASF645
 6699 2950 01       		.byte	0x1
 6700 2951 5C02     		.2byte	0x25c
 6701 2953 27210000 		.4byte	0x2127
 6702 2957 02       		.byte	0x2
 6703 2958 91       		.byte	0x91
 6704 2959 60       		.sleb128 -32
 6705 295a 37       		.uleb128 0x37
 6706 295b 10000000 		.4byte	.LVL42
 6707 295f 2D2D0000 		.4byte	0x2d2d
 6708 2963 38       		.uleb128 0x38
 6709 2964 01       		.byte	0x1
 6710 2965 50       		.byte	0x50
 6711 2966 02       		.byte	0x2
 6712 2967 7D       		.byte	0x7d
 6713 2968 00       		.sleb128 0
 6714 2969 00       		.byte	0
 6715 296a 00       		.byte	0
 6716 296b 3F       		.uleb128 0x3f
 6717 296c 01       		.byte	0x1
 6718 296d C4210000 		.4byte	.LASF691
 6719 2971 01       		.byte	0x1
 6720 2972 2002     		.2byte	0x220
 6721 2974 01       		.byte	0x1
 6722 2975 01       		.byte	0x1
 6723 2976 87290000 		.4byte	0x2987
 6724 297a 30       		.uleb128 0x30
 6725 297b 2A040000 		.4byte	.LASF667
 6726 297f 01       		.byte	0x1
 6727 2980 2202     		.2byte	0x222
 6728 2982 631B0000 		.4byte	0x1b63
 6729 2986 00       		.byte	0
 6730 2987 34       		.uleb128 0x34
 6731 2988 01       		.byte	0x1
 6732 2989 2F0A0000 		.4byte	.LASF669
 6733 298d 01       		.byte	0x1
 6734 298e B601     		.2byte	0x1b6
 6735 2990 01       		.byte	0x1
 6736 2991 00000000 		.4byte	.LFB43
 6737 2995 84010000 		.4byte	.LFE43
 6738 2999 16020000 		.4byte	.LLST11
 6739 299d 01       		.byte	0x1
ARM GAS  C:\Users\EBANO_~1\AppData\Local\Temp\ccD2gIpL.s 			page 141


 6740 299e D62A0000 		.4byte	0x2ad6
 6741 29a2 35       		.uleb128 0x35
 6742 29a3 7E290000 		.4byte	.LASF670
 6743 29a7 01       		.byte	0x1
 6744 29a8 B601     		.2byte	0x1b6
 6745 29aa 8A260000 		.4byte	0x268a
 6746 29ae 4F020000 		.4byte	.LLST12
 6747 29b2 35       		.uleb128 0x35
 6748 29b3 CA1E0000 		.4byte	.LASF671
 6749 29b7 01       		.byte	0x1
 6750 29b8 B601     		.2byte	0x1b6
 6751 29ba 40260000 		.4byte	0x2640
 6752 29be 7F020000 		.4byte	.LLST13
 6753 29c2 3C       		.uleb128 0x3c
 6754 29c3 16000000 		.4byte	.LVL27
 6755 29c7 D2290000 		.4byte	0x29d2
 6756 29cb 38       		.uleb128 0x38
 6757 29cc 01       		.byte	0x1
 6758 29cd 50       		.byte	0x50
 6759 29ce 02       		.byte	0x2
 6760 29cf 74       		.byte	0x74
 6761 29d0 00       		.sleb128 0
 6762 29d1 00       		.byte	0
 6763 29d2 3B       		.uleb128 0x3b
 6764 29d3 1E000000 		.4byte	.LVL28
 6765 29d7 492D0000 		.4byte	0x2d49
 6766 29db E6290000 		.4byte	0x29e6
 6767 29df 38       		.uleb128 0x38
 6768 29e0 01       		.byte	0x1
 6769 29e1 50       		.byte	0x50
 6770 29e2 02       		.byte	0x2
 6771 29e3 76       		.byte	0x76
 6772 29e4 00       		.sleb128 0
 6773 29e5 00       		.byte	0
 6774 29e6 3B       		.uleb128 0x3b
 6775 29e7 44000000 		.4byte	.LVL29
 6776 29eb 492D0000 		.4byte	0x2d49
 6777 29ef FA290000 		.4byte	0x29fa
 6778 29f3 38       		.uleb128 0x38
 6779 29f4 01       		.byte	0x1
 6780 29f5 50       		.byte	0x50
 6781 29f6 02       		.byte	0x2
 6782 29f7 76       		.byte	0x76
 6783 29f8 00       		.sleb128 0
 6784 29f9 00       		.byte	0
 6785 29fa 3B       		.uleb128 0x3b
 6786 29fb 6A000000 		.4byte	.LVL30
 6787 29ff 492D0000 		.4byte	0x2d49
 6788 2a03 0E2A0000 		.4byte	0x2a0e
 6789 2a07 38       		.uleb128 0x38
 6790 2a08 01       		.byte	0x1
 6791 2a09 50       		.byte	0x50
 6792 2a0a 02       		.byte	0x2
 6793 2a0b 76       		.byte	0x76
 6794 2a0c 00       		.sleb128 0
 6795 2a0d 00       		.byte	0
 6796 2a0e 3B       		.uleb128 0x3b
ARM GAS  C:\Users\EBANO_~1\AppData\Local\Temp\ccD2gIpL.s 			page 142


 6797 2a0f B0000000 		.4byte	.LVL31
 6798 2a13 492D0000 		.4byte	0x2d49
 6799 2a17 222A0000 		.4byte	0x2a22
 6800 2a1b 38       		.uleb128 0x38
 6801 2a1c 01       		.byte	0x1
 6802 2a1d 50       		.byte	0x50
 6803 2a1e 02       		.byte	0x2
 6804 2a1f 77       		.byte	0x77
 6805 2a20 00       		.sleb128 0
 6806 2a21 00       		.byte	0
 6807 2a22 3B       		.uleb128 0x3b
 6808 2a23 E4000000 		.4byte	.LVL32
 6809 2a27 7F2D0000 		.4byte	0x2d7f
 6810 2a2b 412A0000 		.4byte	0x2a41
 6811 2a2f 38       		.uleb128 0x38
 6812 2a30 01       		.byte	0x1
 6813 2a31 50       		.byte	0x50
 6814 2a32 02       		.byte	0x2
 6815 2a33 75       		.byte	0x75
 6816 2a34 14       		.sleb128 20
 6817 2a35 38       		.uleb128 0x38
 6818 2a36 01       		.byte	0x1
 6819 2a37 51       		.byte	0x51
 6820 2a38 02       		.byte	0x2
 6821 2a39 75       		.byte	0x75
 6822 2a3a 24       		.sleb128 36
 6823 2a3b 38       		.uleb128 0x38
 6824 2a3c 01       		.byte	0x1
 6825 2a3d 52       		.byte	0x52
 6826 2a3e 01       		.byte	0x1
 6827 2a3f 35       		.byte	0x35
 6828 2a40 00       		.byte	0
 6829 2a41 3B       		.uleb128 0x3b
 6830 2a42 FA000000 		.4byte	.LVL33
 6831 2a46 3B2D0000 		.4byte	0x2d3b
 6832 2a4a 552A0000 		.4byte	0x2a55
 6833 2a4e 38       		.uleb128 0x38
 6834 2a4f 01       		.byte	0x1
 6835 2a50 50       		.byte	0x50
 6836 2a51 02       		.byte	0x2
 6837 2a52 77       		.byte	0x77
 6838 2a53 00       		.sleb128 0
 6839 2a54 00       		.byte	0
 6840 2a55 3B       		.uleb128 0x3b
 6841 2a56 0C010000 		.4byte	.LVL34
 6842 2a5a 3B2D0000 		.4byte	0x2d3b
 6843 2a5e 692A0000 		.4byte	0x2a69
 6844 2a62 38       		.uleb128 0x38
 6845 2a63 01       		.byte	0x1
 6846 2a64 50       		.byte	0x50
 6847 2a65 02       		.byte	0x2
 6848 2a66 77       		.byte	0x77
 6849 2a67 00       		.sleb128 0
 6850 2a68 00       		.byte	0
 6851 2a69 3B       		.uleb128 0x3b
 6852 2a6a 1E010000 		.4byte	.LVL35
 6853 2a6e 3B2D0000 		.4byte	0x2d3b
ARM GAS  C:\Users\EBANO_~1\AppData\Local\Temp\ccD2gIpL.s 			page 143


 6854 2a72 7D2A0000 		.4byte	0x2a7d
 6855 2a76 38       		.uleb128 0x38
 6856 2a77 01       		.byte	0x1
 6857 2a78 50       		.byte	0x50
 6858 2a79 02       		.byte	0x2
 6859 2a7a 77       		.byte	0x77
 6860 2a7b 00       		.sleb128 0
 6861 2a7c 00       		.byte	0
 6862 2a7d 3B       		.uleb128 0x3b
 6863 2a7e 2E010000 		.4byte	.LVL36
 6864 2a82 3B2D0000 		.4byte	0x2d3b
 6865 2a86 912A0000 		.4byte	0x2a91
 6866 2a8a 38       		.uleb128 0x38
 6867 2a8b 01       		.byte	0x1
 6868 2a8c 50       		.byte	0x50
 6869 2a8d 02       		.byte	0x2
 6870 2a8e 77       		.byte	0x77
 6871 2a8f 00       		.sleb128 0
 6872 2a90 00       		.byte	0
 6873 2a91 3B       		.uleb128 0x3b
 6874 2a92 3A010000 		.4byte	.LVL37
 6875 2a96 3B2D0000 		.4byte	0x2d3b
 6876 2a9a A52A0000 		.4byte	0x2aa5
 6877 2a9e 38       		.uleb128 0x38
 6878 2a9f 01       		.byte	0x1
 6879 2aa0 50       		.byte	0x50
 6880 2aa1 02       		.byte	0x2
 6881 2aa2 77       		.byte	0x77
 6882 2aa3 00       		.sleb128 0
 6883 2aa4 00       		.byte	0
 6884 2aa5 3B       		.uleb128 0x3b
 6885 2aa6 40010000 		.4byte	.LVL38
 6886 2aaa 8D2D0000 		.4byte	0x2d8d
 6887 2aae B82A0000 		.4byte	0x2ab8
 6888 2ab2 38       		.uleb128 0x38
 6889 2ab3 01       		.byte	0x1
 6890 2ab4 50       		.byte	0x50
 6891 2ab5 01       		.byte	0x1
 6892 2ab6 31       		.byte	0x31
 6893 2ab7 00       		.byte	0
 6894 2ab8 3B       		.uleb128 0x3b
 6895 2ab9 50010000 		.4byte	.LVL39
 6896 2abd 3B2D0000 		.4byte	0x2d3b
 6897 2ac1 CC2A0000 		.4byte	0x2acc
 6898 2ac5 38       		.uleb128 0x38
 6899 2ac6 01       		.byte	0x1
 6900 2ac7 50       		.byte	0x50
 6901 2ac8 02       		.byte	0x2
 6902 2ac9 77       		.byte	0x77
 6903 2aca 00       		.sleb128 0
 6904 2acb 00       		.byte	0
 6905 2acc 3E       		.uleb128 0x3e
 6906 2acd 54010000 		.4byte	.LVL40
 6907 2ad1 9A2D0000 		.4byte	0x2d9a
 6908 2ad5 00       		.byte	0
 6909 2ad6 40       		.uleb128 0x40
 6910 2ad7 95040000 		.4byte	.LASF419
ARM GAS  C:\Users\EBANO_~1\AppData\Local\Temp\ccD2gIpL.s 			page 144


 6911 2adb 01       		.byte	0x1
 6912 2adc 8401     		.2byte	0x184
 6913 2ade 01       		.byte	0x1
 6914 2adf 00000000 		.4byte	.LFB42
 6915 2ae3 18000000 		.4byte	.LFE42
 6916 2ae7 A0020000 		.4byte	.LLST0
 6917 2aeb 01       		.byte	0x1
 6918 2aec 0F2B0000 		.4byte	0x2b0f
 6919 2af0 35       		.uleb128 0x35
 6920 2af1 95040000 		.4byte	.LASF419
 6921 2af5 01       		.byte	0x1
 6922 2af6 8401     		.2byte	0x184
 6923 2af8 44230000 		.4byte	0x2344
 6924 2afc C0020000 		.4byte	.LLST1
 6925 2b00 31       		.uleb128 0x31
 6926 2b01 30       		.uleb128 0x30
 6927 2b02 BD080000 		.4byte	.LASF652
 6928 2b06 01       		.byte	0x1
 6929 2b07 8A01     		.2byte	0x18a
 6930 2b09 A10B0000 		.4byte	0xba1
 6931 2b0d 00       		.byte	0
 6932 2b0e 00       		.byte	0
 6933 2b0f 2E       		.uleb128 0x2e
 6934 2b10 301C0000 		.4byte	.LASF672
 6935 2b14 01       		.byte	0x1
 6936 2b15 1801     		.2byte	0x118
 6937 2b17 01       		.byte	0x1
 6938 2b18 01       		.byte	0x1
 6939 2b19 382B0000 		.4byte	0x2b38
 6940 2b1d 2F       		.uleb128 0x2f
 6941 2b1e 571A0000 		.4byte	.LASF673
 6942 2b22 01       		.byte	0x1
 6943 2b23 1801     		.2byte	0x118
 6944 2b25 2C230000 		.4byte	0x232c
 6945 2b29 31       		.uleb128 0x31
 6946 2b2a 30       		.uleb128 0x30
 6947 2b2b BD080000 		.4byte	.LASF652
 6948 2b2f 01       		.byte	0x1
 6949 2b30 1E01     		.2byte	0x11e
 6950 2b32 A10B0000 		.4byte	0xba1
 6951 2b36 00       		.byte	0
 6952 2b37 00       		.byte	0
 6953 2b38 41       		.uleb128 0x41
 6954 2b39 B2280000 		.4byte	.LASF356
 6955 2b3d 01       		.byte	0x1
 6956 2b3e C8       		.byte	0xc8
 6957 2b3f 01       		.byte	0x1
 6958 2b40 01       		.byte	0x1
 6959 2b41 692B0000 		.4byte	0x2b69
 6960 2b45 42       		.uleb128 0x42
 6961 2b46 C9110000 		.4byte	.LASF655
 6962 2b4a 01       		.byte	0x1
 6963 2b4b C8       		.byte	0xc8
 6964 2b4c 14230000 		.4byte	0x2314
 6965 2b50 43       		.uleb128 0x43
 6966 2b51 12150000 		.4byte	.LASF647
 6967 2b55 01       		.byte	0x1
ARM GAS  C:\Users\EBANO_~1\AppData\Local\Temp\ccD2gIpL.s 			page 145


 6968 2b56 CC       		.byte	0xcc
 6969 2b57 2C240000 		.4byte	0x242c
 6970 2b5b 31       		.uleb128 0x31
 6971 2b5c 43       		.uleb128 0x43
 6972 2b5d BD080000 		.4byte	.LASF652
 6973 2b61 01       		.byte	0x1
 6974 2b62 CA       		.byte	0xca
 6975 2b63 A10B0000 		.4byte	0xba1
 6976 2b67 00       		.byte	0
 6977 2b68 00       		.byte	0
 6978 2b69 44       		.uleb128 0x44
 6979 2b6a 8F1D0000 		.4byte	.LASF674
 6980 2b6e 01       		.byte	0x1
 6981 2b6f 9F       		.byte	0x9f
 6982 2b70 01       		.byte	0x1
 6983 2b71 00000000 		.4byte	.LFB39
 6984 2b75 1E000000 		.4byte	.LFE39
 6985 2b79 E1020000 		.4byte	.LLST5
 6986 2b7d 01       		.byte	0x1
 6987 2b7e F62B0000 		.4byte	0x2bf6
 6988 2b82 45       		.uleb128 0x45
 6989 2b83 C3080000 		.4byte	.LASF656
 6990 2b87 01       		.byte	0x1
 6991 2b88 9F       		.byte	0x9f
 6992 2b89 FC220000 		.4byte	0x22fc
 6993 2b8d 0D030000 		.4byte	.LLST6
 6994 2b91 32       		.uleb128 0x32
 6995 2b92 A22B0000 		.4byte	0x2ba2
 6996 2b96 43       		.uleb128 0x43
 6997 2b97 BD080000 		.4byte	.LASF652
 6998 2b9b 01       		.byte	0x1
 6999 2b9c A1       		.byte	0xa1
 7000 2b9d A10B0000 		.4byte	0xba1
 7001 2ba1 00       		.byte	0
 7002 2ba2 46       		.uleb128 0x46
 7003 2ba3 48270000 		.4byte	0x2748
 7004 2ba7 00000000 		.4byte	.LBB14
 7005 2bab 18000000 		.4byte	.Ldebug_ranges0+0x18
 7006 2baf 01       		.byte	0x1
 7007 2bb0 BF       		.byte	0xbf
 7008 2bb1 47       		.uleb128 0x47
 7009 2bb2 56270000 		.4byte	0x2756
 7010 2bb6 2E030000 		.4byte	.LLST7
 7011 2bba 48       		.uleb128 0x48
 7012 2bbb 18000000 		.4byte	.Ldebug_ranges0+0x18
 7013 2bbf 49       		.uleb128 0x49
 7014 2bc0 62270000 		.4byte	0x2762
 7015 2bc4 02       		.byte	0x2
 7016 2bc5 91       		.byte	0x91
 7017 2bc6 48       		.sleb128 -56
 7018 2bc7 49       		.uleb128 0x49
 7019 2bc8 6E270000 		.4byte	0x276e
 7020 2bcc 02       		.byte	0x2
 7021 2bcd 91       		.byte	0x91
 7022 2bce 60       		.sleb128 -32
 7023 2bcf 3B       		.uleb128 0x3b
 7024 2bd0 0E000000 		.4byte	.LVL13
ARM GAS  C:\Users\EBANO_~1\AppData\Local\Temp\ccD2gIpL.s 			page 146


 7025 2bd4 2D2D0000 		.4byte	0x2d2d
 7026 2bd8 E32B0000 		.4byte	0x2be3
 7027 2bdc 38       		.uleb128 0x38
 7028 2bdd 01       		.byte	0x1
 7029 2bde 50       		.byte	0x50
 7030 2bdf 02       		.byte	0x2
 7031 2be0 91       		.byte	0x91
 7032 2be1 60       		.sleb128 -32
 7033 2be2 00       		.byte	0
 7034 2be3 37       		.uleb128 0x37
 7035 2be4 1A000000 		.4byte	.LVL14
 7036 2be8 2D2D0000 		.4byte	0x2d2d
 7037 2bec 38       		.uleb128 0x38
 7038 2bed 01       		.byte	0x1
 7039 2bee 50       		.byte	0x50
 7040 2bef 02       		.byte	0x2
 7041 2bf0 7D       		.byte	0x7d
 7042 2bf1 00       		.sleb128 0
 7043 2bf2 00       		.byte	0
 7044 2bf3 00       		.byte	0
 7045 2bf4 00       		.byte	0
 7046 2bf5 00       		.byte	0
 7047 2bf6 4A       		.uleb128 0x4a
 7048 2bf7 382B0000 		.4byte	0x2b38
 7049 2bfb 00000000 		.4byte	.LFB40
 7050 2bff 64000000 		.4byte	.LFE40
 7051 2c03 4F030000 		.4byte	.LLST2
 7052 2c07 01       		.byte	0x1
 7053 2c08 772C0000 		.4byte	0x2c77
 7054 2c0c 47       		.uleb128 0x47
 7055 2c0d 452B0000 		.4byte	0x2b45
 7056 2c11 7B030000 		.4byte	.LLST3
 7057 2c15 4B       		.uleb128 0x4b
 7058 2c16 502B0000 		.4byte	0x2b50
 7059 2c1a 4C       		.uleb128 0x4c
 7060 2c1b 382B0000 		.4byte	0x2b38
 7061 2c1f 00000000 		.4byte	.Ldebug_ranges0+0
 7062 2c23 47       		.uleb128 0x47
 7063 2c24 452B0000 		.4byte	0x2b45
 7064 2c28 B2030000 		.4byte	.LLST4
 7065 2c2c 48       		.uleb128 0x48
 7066 2c2d 00000000 		.4byte	.Ldebug_ranges0+0
 7067 2c31 49       		.uleb128 0x49
 7068 2c32 152C0000 		.4byte	0x2c15
 7069 2c36 02       		.byte	0x2
 7070 2c37 91       		.byte	0x91
 7071 2c38 70       		.sleb128 -16
 7072 2c39 3E       		.uleb128 0x3e
 7073 2c3a 1E000000 		.4byte	.LVL5
 7074 2c3e 562D0000 		.4byte	0x2d56
 7075 2c42 3C       		.uleb128 0x3c
 7076 2c43 44000000 		.4byte	.LVL6
 7077 2c47 522C0000 		.4byte	0x2c52
 7078 2c4b 38       		.uleb128 0x38
 7079 2c4c 01       		.byte	0x1
 7080 2c4d 50       		.byte	0x50
 7081 2c4e 02       		.byte	0x2
ARM GAS  C:\Users\EBANO_~1\AppData\Local\Temp\ccD2gIpL.s 			page 147


 7082 2c4f 7D       		.byte	0x7d
 7083 2c50 00       		.sleb128 0
 7084 2c51 00       		.byte	0
 7085 2c52 3E       		.uleb128 0x3e
 7086 2c53 4C000000 		.4byte	.LVL9
 7087 2c57 A82D0000 		.4byte	0x2da8
 7088 2c5b 37       		.uleb128 0x37
 7089 2c5c 5E000000 		.4byte	.LVL10
 7090 2c60 B52D0000 		.4byte	0x2db5
 7091 2c64 38       		.uleb128 0x38
 7092 2c65 01       		.byte	0x1
 7093 2c66 50       		.byte	0x50
 7094 2c67 02       		.byte	0x2
 7095 2c68 74       		.byte	0x74
 7096 2c69 00       		.sleb128 0
 7097 2c6a 38       		.uleb128 0x38
 7098 2c6b 01       		.byte	0x1
 7099 2c6c 51       		.byte	0x51
 7100 2c6d 05       		.byte	0x5
 7101 2c6e 03       		.byte	0x3
 7102 2c6f 04000000 		.4byte	.LANCHOR0+4
 7103 2c73 00       		.byte	0
 7104 2c74 00       		.byte	0
 7105 2c75 00       		.byte	0
 7106 2c76 00       		.byte	0
 7107 2c77 4A       		.uleb128 0x4a
 7108 2c78 0F2B0000 		.4byte	0x2b0f
 7109 2c7c 00000000 		.4byte	.LFB41
 7110 2c80 68000000 		.4byte	.LFE41
 7111 2c84 DB030000 		.4byte	.LLST8
 7112 2c88 01       		.byte	0x1
 7113 2c89 FE2C0000 		.4byte	0x2cfe
 7114 2c8d 47       		.uleb128 0x47
 7115 2c8e 1D2B0000 		.4byte	0x2b1d
 7116 2c92 07040000 		.4byte	.LLST9
 7117 2c96 4D       		.uleb128 0x4d
 7118 2c97 0F2B0000 		.4byte	0x2b0f
 7119 2c9b 2A000000 		.4byte	.LBB22
 7120 2c9f 38000000 		.4byte	.LBE22
 7121 2ca3 CA2C0000 		.4byte	0x2cca
 7122 2ca7 47       		.uleb128 0x47
 7123 2ca8 1D2B0000 		.4byte	0x2b1d
 7124 2cac 6D040000 		.4byte	.LLST10
 7125 2cb0 3E       		.uleb128 0x3e
 7126 2cb1 2E000000 		.4byte	.LVL20
 7127 2cb5 562D0000 		.4byte	0x2d56
 7128 2cb9 37       		.uleb128 0x37
 7129 2cba 38000000 		.4byte	.LVL21
 7130 2cbe C22D0000 		.4byte	0x2dc2
 7131 2cc2 38       		.uleb128 0x38
 7132 2cc3 01       		.byte	0x1
 7133 2cc4 50       		.byte	0x50
 7134 2cc5 02       		.byte	0x2
 7135 2cc6 74       		.byte	0x74
 7136 2cc7 00       		.sleb128 0
 7137 2cc8 00       		.byte	0
 7138 2cc9 00       		.byte	0
ARM GAS  C:\Users\EBANO_~1\AppData\Local\Temp\ccD2gIpL.s 			page 148


 7139 2cca 4E       		.uleb128 0x4e
 7140 2ccb 6B290000 		.4byte	0x296b
 7141 2ccf 3A000000 		.4byte	.LBB24
 7142 2cd3 68000000 		.4byte	.LBE24
 7143 2cd7 01       		.byte	0x1
 7144 2cd8 3301     		.2byte	0x133
 7145 2cda 4F       		.uleb128 0x4f
 7146 2cdb 3A000000 		.4byte	.LBB25
 7147 2cdf 68000000 		.4byte	.LBE25
 7148 2ce3 49       		.uleb128 0x49
 7149 2ce4 7A290000 		.4byte	0x297a
 7150 2ce8 02       		.byte	0x2
 7151 2ce9 91       		.byte	0x91
 7152 2cea 68       		.sleb128 -24
 7153 2ceb 37       		.uleb128 0x37
 7154 2cec 5E000000 		.4byte	.LVL24
 7155 2cf0 CF2D0000 		.4byte	0x2dcf
 7156 2cf4 38       		.uleb128 0x38
 7157 2cf5 01       		.byte	0x1
 7158 2cf6 50       		.byte	0x50
 7159 2cf7 02       		.byte	0x2
 7160 2cf8 7D       		.byte	0x7d
 7161 2cf9 00       		.sleb128 0
 7162 2cfa 00       		.byte	0
 7163 2cfb 00       		.byte	0
 7164 2cfc 00       		.byte	0
 7165 2cfd 00       		.byte	0
 7166 2cfe 50       		.uleb128 0x50
 7167 2cff 6B290000 		.4byte	0x296b
 7168 2d03 00000000 		.4byte	.LFB44
 7169 2d07 38000000 		.4byte	.LFE44
 7170 2d0b 8B040000 		.4byte	.LLST14
 7171 2d0f 01       		.byte	0x1
 7172 2d10 2D2D0000 		.4byte	0x2d2d
 7173 2d14 49       		.uleb128 0x49
 7174 2d15 7A290000 		.4byte	0x297a
 7175 2d19 02       		.byte	0x2
 7176 2d1a 91       		.byte	0x91
 7177 2d1b 68       		.sleb128 -24
 7178 2d1c 37       		.uleb128 0x37
 7179 2d1d 2A000000 		.4byte	.LVL41
 7180 2d21 CF2D0000 		.4byte	0x2dcf
 7181 2d25 38       		.uleb128 0x38
 7182 2d26 01       		.byte	0x1
 7183 2d27 50       		.byte	0x50
 7184 2d28 02       		.byte	0x2
 7185 2d29 7D       		.byte	0x7d
 7186 2d2a 00       		.sleb128 0
 7187 2d2b 00       		.byte	0
 7188 2d2c 00       		.byte	0
 7189 2d2d 51       		.uleb128 0x51
 7190 2d2e 01       		.byte	0x1
 7191 2d2f 01       		.byte	0x1
 7192 2d30 EC1A0000 		.4byte	.LASF675
 7193 2d34 EC1A0000 		.4byte	.LASF675
 7194 2d38 10       		.byte	0x10
 7195 2d39 BB09     		.2byte	0x9bb
ARM GAS  C:\Users\EBANO_~1\AppData\Local\Temp\ccD2gIpL.s 			page 149


 7196 2d3b 51       		.uleb128 0x51
 7197 2d3c 01       		.byte	0x1
 7198 2d3d 01       		.byte	0x1
 7199 2d3e C71C0000 		.4byte	.LASF676
 7200 2d42 C71C0000 		.4byte	.LASF676
 7201 2d46 10       		.byte	0x10
 7202 2d47 DA09     		.2byte	0x9da
 7203 2d49 52       		.uleb128 0x52
 7204 2d4a 01       		.byte	0x1
 7205 2d4b 01       		.byte	0x1
 7206 2d4c 081B0000 		.4byte	.LASF677
 7207 2d50 081B0000 		.4byte	.LASF677
 7208 2d54 12       		.byte	0x12
 7209 2d55 32       		.byte	0x32
 7210 2d56 52       		.uleb128 0x52
 7211 2d57 01       		.byte	0x1
 7212 2d58 01       		.byte	0x1
 7213 2d59 F0030000 		.4byte	.LASF678
 7214 2d5d F0030000 		.4byte	.LASF678
 7215 2d61 13       		.byte	0x13
 7216 2d62 24       		.byte	0x24
 7217 2d63 51       		.uleb128 0x51
 7218 2d64 01       		.byte	0x1
 7219 2d65 01       		.byte	0x1
 7220 2d66 98030000 		.4byte	.LASF679
 7221 2d6a 98030000 		.4byte	.LASF679
 7222 2d6e 10       		.byte	0x10
 7223 2d6f 7109     		.2byte	0x971
 7224 2d71 51       		.uleb128 0x51
 7225 2d72 01       		.byte	0x1
 7226 2d73 01       		.byte	0x1
 7227 2d74 2E060000 		.4byte	.LASF680
 7228 2d78 2E060000 		.4byte	.LASF680
 7229 2d7c 10       		.byte	0x10
 7230 2d7d 2E0A     		.2byte	0xa2e
 7231 2d7f 51       		.uleb128 0x51
 7232 2d80 01       		.byte	0x1
 7233 2d81 01       		.byte	0x1
 7234 2d82 700E0000 		.4byte	.LASF681
 7235 2d86 700E0000 		.4byte	.LASF681
 7236 2d8a 10       		.byte	0x10
 7237 2d8b 3D09     		.2byte	0x93d
 7238 2d8d 52       		.uleb128 0x52
 7239 2d8e 01       		.byte	0x1
 7240 2d8f 01       		.byte	0x1
 7241 2d90 9D0F0000 		.4byte	.LASF682
 7242 2d94 9D0F0000 		.4byte	.LASF682
 7243 2d98 14       		.byte	0x14
 7244 2d99 2F       		.byte	0x2f
 7245 2d9a 51       		.uleb128 0x51
 7246 2d9b 01       		.byte	0x1
 7247 2d9c 01       		.byte	0x1
 7248 2d9d E8240000 		.4byte	.LASF683
 7249 2da1 E8240000 		.4byte	.LASF683
 7250 2da5 10       		.byte	0x10
 7251 2da6 4609     		.2byte	0x946
 7252 2da8 52       		.uleb128 0x52
ARM GAS  C:\Users\EBANO_~1\AppData\Local\Temp\ccD2gIpL.s 			page 150


 7253 2da9 01       		.byte	0x1
 7254 2daa 01       		.byte	0x1
 7255 2dab 41060000 		.4byte	.LASF684
 7256 2daf 41060000 		.4byte	.LASF684
 7257 2db3 13       		.byte	0x13
 7258 2db4 26       		.byte	0x26
 7259 2db5 52       		.uleb128 0x52
 7260 2db6 01       		.byte	0x1
 7261 2db7 01       		.byte	0x1
 7262 2db8 9B180000 		.4byte	.LASF685
 7263 2dbc 9B180000 		.4byte	.LASF685
 7264 2dc0 13       		.byte	0x13
 7265 2dc1 2A       		.byte	0x2a
 7266 2dc2 52       		.uleb128 0x52
 7267 2dc3 01       		.byte	0x1
 7268 2dc4 01       		.byte	0x1
 7269 2dc5 79200000 		.4byte	.LASF686
 7270 2dc9 79200000 		.4byte	.LASF686
 7271 2dcd 13       		.byte	0x13
 7272 2dce 28       		.byte	0x28
 7273 2dcf 51       		.uleb128 0x51
 7274 2dd0 01       		.byte	0x1
 7275 2dd1 01       		.byte	0x1
 7276 2dd2 52170000 		.4byte	.LASF687
 7277 2dd6 52170000 		.4byte	.LASF687
 7278 2dda 10       		.byte	0x10
 7279 2ddb 0C0A     		.2byte	0xa0c
 7280 2ddd 00       		.byte	0
 7281              		.section	.debug_abbrev,"",%progbits
 7282              	.Ldebug_abbrev0:
 7283 0000 01       		.uleb128 0x1
 7284 0001 11       		.uleb128 0x11
 7285 0002 01       		.byte	0x1
 7286 0003 25       		.uleb128 0x25
 7287 0004 0E       		.uleb128 0xe
 7288 0005 13       		.uleb128 0x13
 7289 0006 0B       		.uleb128 0xb
 7290 0007 03       		.uleb128 0x3
 7291 0008 0E       		.uleb128 0xe
 7292 0009 1B       		.uleb128 0x1b
 7293 000a 0E       		.uleb128 0xe
 7294 000b 55       		.uleb128 0x55
 7295 000c 06       		.uleb128 0x6
 7296 000d 11       		.uleb128 0x11
 7297 000e 01       		.uleb128 0x1
 7298 000f 52       		.uleb128 0x52
 7299 0010 01       		.uleb128 0x1
 7300 0011 10       		.uleb128 0x10
 7301 0012 06       		.uleb128 0x6
 7302 0013 00       		.byte	0
 7303 0014 00       		.byte	0
 7304 0015 02       		.uleb128 0x2
 7305 0016 24       		.uleb128 0x24
 7306 0017 00       		.byte	0
 7307 0018 0B       		.uleb128 0xb
 7308 0019 0B       		.uleb128 0xb
 7309 001a 3E       		.uleb128 0x3e
ARM GAS  C:\Users\EBANO_~1\AppData\Local\Temp\ccD2gIpL.s 			page 151


 7310 001b 0B       		.uleb128 0xb
 7311 001c 03       		.uleb128 0x3
 7312 001d 08       		.uleb128 0x8
 7313 001e 00       		.byte	0
 7314 001f 00       		.byte	0
 7315 0020 03       		.uleb128 0x3
 7316 0021 16       		.uleb128 0x16
 7317 0022 00       		.byte	0
 7318 0023 03       		.uleb128 0x3
 7319 0024 0E       		.uleb128 0xe
 7320 0025 3A       		.uleb128 0x3a
 7321 0026 0B       		.uleb128 0xb
 7322 0027 3B       		.uleb128 0x3b
 7323 0028 0B       		.uleb128 0xb
 7324 0029 49       		.uleb128 0x49
 7325 002a 13       		.uleb128 0x13
 7326 002b 00       		.byte	0
 7327 002c 00       		.byte	0
 7328 002d 04       		.uleb128 0x4
 7329 002e 24       		.uleb128 0x24
 7330 002f 00       		.byte	0
 7331 0030 0B       		.uleb128 0xb
 7332 0031 0B       		.uleb128 0xb
 7333 0032 3E       		.uleb128 0x3e
 7334 0033 0B       		.uleb128 0xb
 7335 0034 03       		.uleb128 0x3
 7336 0035 0E       		.uleb128 0xe
 7337 0036 00       		.byte	0
 7338 0037 00       		.byte	0
 7339 0038 05       		.uleb128 0x5
 7340 0039 0F       		.uleb128 0xf
 7341 003a 00       		.byte	0
 7342 003b 0B       		.uleb128 0xb
 7343 003c 0B       		.uleb128 0xb
 7344 003d 49       		.uleb128 0x49
 7345 003e 13       		.uleb128 0x13
 7346 003f 00       		.byte	0
 7347 0040 00       		.byte	0
 7348 0041 06       		.uleb128 0x6
 7349 0042 13       		.uleb128 0x13
 7350 0043 00       		.byte	0
 7351 0044 03       		.uleb128 0x3
 7352 0045 0E       		.uleb128 0xe
 7353 0046 3C       		.uleb128 0x3c
 7354 0047 0C       		.uleb128 0xc
 7355 0048 00       		.byte	0
 7356 0049 00       		.byte	0
 7357 004a 07       		.uleb128 0x7
 7358 004b 16       		.uleb128 0x16
 7359 004c 00       		.byte	0
 7360 004d 03       		.uleb128 0x3
 7361 004e 0E       		.uleb128 0xe
 7362 004f 3A       		.uleb128 0x3a
 7363 0050 0B       		.uleb128 0xb
 7364 0051 3B       		.uleb128 0x3b
 7365 0052 05       		.uleb128 0x5
 7366 0053 49       		.uleb128 0x49
ARM GAS  C:\Users\EBANO_~1\AppData\Local\Temp\ccD2gIpL.s 			page 152


 7367 0054 13       		.uleb128 0x13
 7368 0055 00       		.byte	0
 7369 0056 00       		.byte	0
 7370 0057 08       		.uleb128 0x8
 7371 0058 17       		.uleb128 0x17
 7372 0059 01       		.byte	0x1
 7373 005a 0B       		.uleb128 0xb
 7374 005b 0B       		.uleb128 0xb
 7375 005c 3A       		.uleb128 0x3a
 7376 005d 0B       		.uleb128 0xb
 7377 005e 3B       		.uleb128 0x3b
 7378 005f 0B       		.uleb128 0xb
 7379 0060 01       		.uleb128 0x1
 7380 0061 13       		.uleb128 0x13
 7381 0062 00       		.byte	0
 7382 0063 00       		.byte	0
 7383 0064 09       		.uleb128 0x9
 7384 0065 0D       		.uleb128 0xd
 7385 0066 00       		.byte	0
 7386 0067 03       		.uleb128 0x3
 7387 0068 0E       		.uleb128 0xe
 7388 0069 3A       		.uleb128 0x3a
 7389 006a 0B       		.uleb128 0xb
 7390 006b 3B       		.uleb128 0x3b
 7391 006c 0B       		.uleb128 0xb
 7392 006d 49       		.uleb128 0x49
 7393 006e 13       		.uleb128 0x13
 7394 006f 00       		.byte	0
 7395 0070 00       		.byte	0
 7396 0071 0A       		.uleb128 0xa
 7397 0072 01       		.uleb128 0x1
 7398 0073 01       		.byte	0x1
 7399 0074 49       		.uleb128 0x49
 7400 0075 13       		.uleb128 0x13
 7401 0076 01       		.uleb128 0x1
 7402 0077 13       		.uleb128 0x13
 7403 0078 00       		.byte	0
 7404 0079 00       		.byte	0
 7405 007a 0B       		.uleb128 0xb
 7406 007b 21       		.uleb128 0x21
 7407 007c 00       		.byte	0
 7408 007d 49       		.uleb128 0x49
 7409 007e 13       		.uleb128 0x13
 7410 007f 2F       		.uleb128 0x2f
 7411 0080 0B       		.uleb128 0xb
 7412 0081 00       		.byte	0
 7413 0082 00       		.byte	0
 7414 0083 0C       		.uleb128 0xc
 7415 0084 13       		.uleb128 0x13
 7416 0085 01       		.byte	0x1
 7417 0086 0B       		.uleb128 0xb
 7418 0087 0B       		.uleb128 0xb
 7419 0088 3A       		.uleb128 0x3a
 7420 0089 0B       		.uleb128 0xb
 7421 008a 3B       		.uleb128 0x3b
 7422 008b 0B       		.uleb128 0xb
 7423 008c 01       		.uleb128 0x1
ARM GAS  C:\Users\EBANO_~1\AppData\Local\Temp\ccD2gIpL.s 			page 153


 7424 008d 13       		.uleb128 0x13
 7425 008e 00       		.byte	0
 7426 008f 00       		.byte	0
 7427 0090 0D       		.uleb128 0xd
 7428 0091 0D       		.uleb128 0xd
 7429 0092 00       		.byte	0
 7430 0093 03       		.uleb128 0x3
 7431 0094 0E       		.uleb128 0xe
 7432 0095 3A       		.uleb128 0x3a
 7433 0096 0B       		.uleb128 0xb
 7434 0097 3B       		.uleb128 0x3b
 7435 0098 0B       		.uleb128 0xb
 7436 0099 49       		.uleb128 0x49
 7437 009a 13       		.uleb128 0x13
 7438 009b 38       		.uleb128 0x38
 7439 009c 0A       		.uleb128 0xa
 7440 009d 00       		.byte	0
 7441 009e 00       		.byte	0
 7442 009f 0E       		.uleb128 0xe
 7443 00a0 0F       		.uleb128 0xf
 7444 00a1 00       		.byte	0
 7445 00a2 0B       		.uleb128 0xb
 7446 00a3 0B       		.uleb128 0xb
 7447 00a4 00       		.byte	0
 7448 00a5 00       		.byte	0
 7449 00a6 0F       		.uleb128 0xf
 7450 00a7 26       		.uleb128 0x26
 7451 00a8 00       		.byte	0
 7452 00a9 49       		.uleb128 0x49
 7453 00aa 13       		.uleb128 0x13
 7454 00ab 00       		.byte	0
 7455 00ac 00       		.byte	0
 7456 00ad 10       		.uleb128 0x10
 7457 00ae 13       		.uleb128 0x13
 7458 00af 01       		.byte	0x1
 7459 00b0 03       		.uleb128 0x3
 7460 00b1 0E       		.uleb128 0xe
 7461 00b2 0B       		.uleb128 0xb
 7462 00b3 0B       		.uleb128 0xb
 7463 00b4 3A       		.uleb128 0x3a
 7464 00b5 0B       		.uleb128 0xb
 7465 00b6 3B       		.uleb128 0x3b
 7466 00b7 0B       		.uleb128 0xb
 7467 00b8 01       		.uleb128 0x1
 7468 00b9 13       		.uleb128 0x13
 7469 00ba 00       		.byte	0
 7470 00bb 00       		.byte	0
 7471 00bc 11       		.uleb128 0x11
 7472 00bd 0D       		.uleb128 0xd
 7473 00be 00       		.byte	0
 7474 00bf 03       		.uleb128 0x3
 7475 00c0 08       		.uleb128 0x8
 7476 00c1 3A       		.uleb128 0x3a
 7477 00c2 0B       		.uleb128 0xb
 7478 00c3 3B       		.uleb128 0x3b
 7479 00c4 0B       		.uleb128 0xb
 7480 00c5 49       		.uleb128 0x49
ARM GAS  C:\Users\EBANO_~1\AppData\Local\Temp\ccD2gIpL.s 			page 154


 7481 00c6 13       		.uleb128 0x13
 7482 00c7 38       		.uleb128 0x38
 7483 00c8 0A       		.uleb128 0xa
 7484 00c9 00       		.byte	0
 7485 00ca 00       		.byte	0
 7486 00cb 12       		.uleb128 0x12
 7487 00cc 13       		.uleb128 0x13
 7488 00cd 01       		.byte	0x1
 7489 00ce 03       		.uleb128 0x3
 7490 00cf 0E       		.uleb128 0xe
 7491 00d0 0B       		.uleb128 0xb
 7492 00d1 05       		.uleb128 0x5
 7493 00d2 3A       		.uleb128 0x3a
 7494 00d3 0B       		.uleb128 0xb
 7495 00d4 3B       		.uleb128 0x3b
 7496 00d5 0B       		.uleb128 0xb
 7497 00d6 01       		.uleb128 0x1
 7498 00d7 13       		.uleb128 0x13
 7499 00d8 00       		.byte	0
 7500 00d9 00       		.byte	0
 7501 00da 13       		.uleb128 0x13
 7502 00db 15       		.uleb128 0x15
 7503 00dc 00       		.byte	0
 7504 00dd 27       		.uleb128 0x27
 7505 00de 0C       		.uleb128 0xc
 7506 00df 00       		.byte	0
 7507 00e0 00       		.byte	0
 7508 00e1 14       		.uleb128 0x14
 7509 00e2 15       		.uleb128 0x15
 7510 00e3 01       		.byte	0x1
 7511 00e4 27       		.uleb128 0x27
 7512 00e5 0C       		.uleb128 0xc
 7513 00e6 49       		.uleb128 0x49
 7514 00e7 13       		.uleb128 0x13
 7515 00e8 01       		.uleb128 0x1
 7516 00e9 13       		.uleb128 0x13
 7517 00ea 00       		.byte	0
 7518 00eb 00       		.byte	0
 7519 00ec 15       		.uleb128 0x15
 7520 00ed 05       		.uleb128 0x5
 7521 00ee 00       		.byte	0
 7522 00ef 49       		.uleb128 0x49
 7523 00f0 13       		.uleb128 0x13
 7524 00f1 00       		.byte	0
 7525 00f2 00       		.byte	0
 7526 00f3 16       		.uleb128 0x16
 7527 00f4 13       		.uleb128 0x13
 7528 00f5 01       		.byte	0x1
 7529 00f6 03       		.uleb128 0x3
 7530 00f7 0E       		.uleb128 0xe
 7531 00f8 0B       		.uleb128 0xb
 7532 00f9 05       		.uleb128 0x5
 7533 00fa 3A       		.uleb128 0x3a
 7534 00fb 0B       		.uleb128 0xb
 7535 00fc 3B       		.uleb128 0x3b
 7536 00fd 05       		.uleb128 0x5
 7537 00fe 01       		.uleb128 0x1
ARM GAS  C:\Users\EBANO_~1\AppData\Local\Temp\ccD2gIpL.s 			page 155


 7538 00ff 13       		.uleb128 0x13
 7539 0100 00       		.byte	0
 7540 0101 00       		.byte	0
 7541 0102 17       		.uleb128 0x17
 7542 0103 0D       		.uleb128 0xd
 7543 0104 00       		.byte	0
 7544 0105 03       		.uleb128 0x3
 7545 0106 0E       		.uleb128 0xe
 7546 0107 3A       		.uleb128 0x3a
 7547 0108 0B       		.uleb128 0xb
 7548 0109 3B       		.uleb128 0x3b
 7549 010a 05       		.uleb128 0x5
 7550 010b 49       		.uleb128 0x49
 7551 010c 13       		.uleb128 0x13
 7552 010d 38       		.uleb128 0x38
 7553 010e 0A       		.uleb128 0xa
 7554 010f 00       		.byte	0
 7555 0110 00       		.byte	0
 7556 0111 18       		.uleb128 0x18
 7557 0112 13       		.uleb128 0x13
 7558 0113 01       		.byte	0x1
 7559 0114 03       		.uleb128 0x3
 7560 0115 0E       		.uleb128 0xe
 7561 0116 0B       		.uleb128 0xb
 7562 0117 0B       		.uleb128 0xb
 7563 0118 3A       		.uleb128 0x3a
 7564 0119 0B       		.uleb128 0xb
 7565 011a 3B       		.uleb128 0x3b
 7566 011b 05       		.uleb128 0x5
 7567 011c 01       		.uleb128 0x1
 7568 011d 13       		.uleb128 0x13
 7569 011e 00       		.byte	0
 7570 011f 00       		.byte	0
 7571 0120 19       		.uleb128 0x19
 7572 0121 13       		.uleb128 0x13
 7573 0122 01       		.byte	0x1
 7574 0123 0B       		.uleb128 0xb
 7575 0124 0B       		.uleb128 0xb
 7576 0125 3A       		.uleb128 0x3a
 7577 0126 0B       		.uleb128 0xb
 7578 0127 3B       		.uleb128 0x3b
 7579 0128 05       		.uleb128 0x5
 7580 0129 01       		.uleb128 0x1
 7581 012a 13       		.uleb128 0x13
 7582 012b 00       		.byte	0
 7583 012c 00       		.byte	0
 7584 012d 1A       		.uleb128 0x1a
 7585 012e 17       		.uleb128 0x17
 7586 012f 01       		.byte	0x1
 7587 0130 0B       		.uleb128 0xb
 7588 0131 0B       		.uleb128 0xb
 7589 0132 3A       		.uleb128 0x3a
 7590 0133 0B       		.uleb128 0xb
 7591 0134 3B       		.uleb128 0x3b
 7592 0135 05       		.uleb128 0x5
 7593 0136 01       		.uleb128 0x1
 7594 0137 13       		.uleb128 0x13
ARM GAS  C:\Users\EBANO_~1\AppData\Local\Temp\ccD2gIpL.s 			page 156


 7595 0138 00       		.byte	0
 7596 0139 00       		.byte	0
 7597 013a 1B       		.uleb128 0x1b
 7598 013b 0D       		.uleb128 0xd
 7599 013c 00       		.byte	0
 7600 013d 03       		.uleb128 0x3
 7601 013e 0E       		.uleb128 0xe
 7602 013f 3A       		.uleb128 0x3a
 7603 0140 0B       		.uleb128 0xb
 7604 0141 3B       		.uleb128 0x3b
 7605 0142 05       		.uleb128 0x5
 7606 0143 49       		.uleb128 0x49
 7607 0144 13       		.uleb128 0x13
 7608 0145 00       		.byte	0
 7609 0146 00       		.byte	0
 7610 0147 1C       		.uleb128 0x1c
 7611 0148 15       		.uleb128 0x15
 7612 0149 01       		.byte	0x1
 7613 014a 27       		.uleb128 0x27
 7614 014b 0C       		.uleb128 0xc
 7615 014c 01       		.uleb128 0x1
 7616 014d 13       		.uleb128 0x13
 7617 014e 00       		.byte	0
 7618 014f 00       		.byte	0
 7619 0150 1D       		.uleb128 0x1d
 7620 0151 34       		.uleb128 0x34
 7621 0152 00       		.byte	0
 7622 0153 03       		.uleb128 0x3
 7623 0154 0E       		.uleb128 0xe
 7624 0155 3A       		.uleb128 0x3a
 7625 0156 0B       		.uleb128 0xb
 7626 0157 3B       		.uleb128 0x3b
 7627 0158 05       		.uleb128 0x5
 7628 0159 49       		.uleb128 0x49
 7629 015a 13       		.uleb128 0x13
 7630 015b 3F       		.uleb128 0x3f
 7631 015c 0C       		.uleb128 0xc
 7632 015d 3C       		.uleb128 0x3c
 7633 015e 0C       		.uleb128 0xc
 7634 015f 00       		.byte	0
 7635 0160 00       		.byte	0
 7636 0161 1E       		.uleb128 0x1e
 7637 0162 04       		.uleb128 0x4
 7638 0163 01       		.byte	0x1
 7639 0164 03       		.uleb128 0x3
 7640 0165 0E       		.uleb128 0xe
 7641 0166 3E       		.uleb128 0x3e
 7642 0167 0B       		.uleb128 0xb
 7643 0168 0B       		.uleb128 0xb
 7644 0169 0B       		.uleb128 0xb
 7645 016a 49       		.uleb128 0x49
 7646 016b 13       		.uleb128 0x13
 7647 016c 3A       		.uleb128 0x3a
 7648 016d 0B       		.uleb128 0xb
 7649 016e 3B       		.uleb128 0x3b
 7650 016f 05       		.uleb128 0x5
 7651 0170 01       		.uleb128 0x1
ARM GAS  C:\Users\EBANO_~1\AppData\Local\Temp\ccD2gIpL.s 			page 157


 7652 0171 13       		.uleb128 0x13
 7653 0172 00       		.byte	0
 7654 0173 00       		.byte	0
 7655 0174 1F       		.uleb128 0x1f
 7656 0175 28       		.uleb128 0x28
 7657 0176 00       		.byte	0
 7658 0177 03       		.uleb128 0x3
 7659 0178 0E       		.uleb128 0xe
 7660 0179 1C       		.uleb128 0x1c
 7661 017a 0D       		.uleb128 0xd
 7662 017b 00       		.byte	0
 7663 017c 00       		.byte	0
 7664 017d 20       		.uleb128 0x20
 7665 017e 28       		.uleb128 0x28
 7666 017f 00       		.byte	0
 7667 0180 03       		.uleb128 0x3
 7668 0181 0E       		.uleb128 0xe
 7669 0182 1C       		.uleb128 0x1c
 7670 0183 0B       		.uleb128 0xb
 7671 0184 00       		.byte	0
 7672 0185 00       		.byte	0
 7673 0186 21       		.uleb128 0x21
 7674 0187 34       		.uleb128 0x34
 7675 0188 00       		.byte	0
 7676 0189 03       		.uleb128 0x3
 7677 018a 0E       		.uleb128 0xe
 7678 018b 3A       		.uleb128 0x3a
 7679 018c 0B       		.uleb128 0xb
 7680 018d 3B       		.uleb128 0x3b
 7681 018e 0B       		.uleb128 0xb
 7682 018f 49       		.uleb128 0x49
 7683 0190 13       		.uleb128 0x13
 7684 0191 3F       		.uleb128 0x3f
 7685 0192 0C       		.uleb128 0xc
 7686 0193 3C       		.uleb128 0x3c
 7687 0194 0C       		.uleb128 0xc
 7688 0195 00       		.byte	0
 7689 0196 00       		.byte	0
 7690 0197 22       		.uleb128 0x22
 7691 0198 17       		.uleb128 0x17
 7692 0199 01       		.byte	0x1
 7693 019a 03       		.uleb128 0x3
 7694 019b 0E       		.uleb128 0xe
 7695 019c 0B       		.uleb128 0xb
 7696 019d 0B       		.uleb128 0xb
 7697 019e 3A       		.uleb128 0x3a
 7698 019f 0B       		.uleb128 0xb
 7699 01a0 3B       		.uleb128 0x3b
 7700 01a1 0B       		.uleb128 0xb
 7701 01a2 01       		.uleb128 0x1
 7702 01a3 13       		.uleb128 0x13
 7703 01a4 00       		.byte	0
 7704 01a5 00       		.byte	0
 7705 01a6 23       		.uleb128 0x23
 7706 01a7 04       		.uleb128 0x4
 7707 01a8 01       		.byte	0x1
 7708 01a9 3E       		.uleb128 0x3e
ARM GAS  C:\Users\EBANO_~1\AppData\Local\Temp\ccD2gIpL.s 			page 158


 7709 01aa 0B       		.uleb128 0xb
 7710 01ab 0B       		.uleb128 0xb
 7711 01ac 0B       		.uleb128 0xb
 7712 01ad 49       		.uleb128 0x49
 7713 01ae 13       		.uleb128 0x13
 7714 01af 3A       		.uleb128 0x3a
 7715 01b0 0B       		.uleb128 0xb
 7716 01b1 3B       		.uleb128 0x3b
 7717 01b2 0B       		.uleb128 0xb
 7718 01b3 01       		.uleb128 0x1
 7719 01b4 13       		.uleb128 0x13
 7720 01b5 00       		.byte	0
 7721 01b6 00       		.byte	0
 7722 01b7 24       		.uleb128 0x24
 7723 01b8 0D       		.uleb128 0xd
 7724 01b9 00       		.byte	0
 7725 01ba 03       		.uleb128 0x3
 7726 01bb 08       		.uleb128 0x8
 7727 01bc 3A       		.uleb128 0x3a
 7728 01bd 0B       		.uleb128 0xb
 7729 01be 3B       		.uleb128 0x3b
 7730 01bf 05       		.uleb128 0x5
 7731 01c0 49       		.uleb128 0x49
 7732 01c1 13       		.uleb128 0x13
 7733 01c2 38       		.uleb128 0x38
 7734 01c3 0A       		.uleb128 0xa
 7735 01c4 00       		.byte	0
 7736 01c5 00       		.byte	0
 7737 01c6 25       		.uleb128 0x25
 7738 01c7 15       		.uleb128 0x15
 7739 01c8 00       		.byte	0
 7740 01c9 27       		.uleb128 0x27
 7741 01ca 0C       		.uleb128 0xc
 7742 01cb 49       		.uleb128 0x49
 7743 01cc 13       		.uleb128 0x13
 7744 01cd 00       		.byte	0
 7745 01ce 00       		.byte	0
 7746 01cf 26       		.uleb128 0x26
 7747 01d0 04       		.uleb128 0x4
 7748 01d1 01       		.byte	0x1
 7749 01d2 03       		.uleb128 0x3
 7750 01d3 0E       		.uleb128 0xe
 7751 01d4 3E       		.uleb128 0x3e
 7752 01d5 0B       		.uleb128 0xb
 7753 01d6 0B       		.uleb128 0xb
 7754 01d7 0B       		.uleb128 0xb
 7755 01d8 49       		.uleb128 0x49
 7756 01d9 13       		.uleb128 0x13
 7757 01da 3A       		.uleb128 0x3a
 7758 01db 0B       		.uleb128 0xb
 7759 01dc 3B       		.uleb128 0x3b
 7760 01dd 0B       		.uleb128 0xb
 7761 01de 01       		.uleb128 0x1
 7762 01df 13       		.uleb128 0x13
 7763 01e0 00       		.byte	0
 7764 01e1 00       		.byte	0
 7765 01e2 27       		.uleb128 0x27
ARM GAS  C:\Users\EBANO_~1\AppData\Local\Temp\ccD2gIpL.s 			page 159


 7766 01e3 0D       		.uleb128 0xd
 7767 01e4 00       		.byte	0
 7768 01e5 03       		.uleb128 0x3
 7769 01e6 08       		.uleb128 0x8
 7770 01e7 3A       		.uleb128 0x3a
 7771 01e8 0B       		.uleb128 0xb
 7772 01e9 3B       		.uleb128 0x3b
 7773 01ea 0B       		.uleb128 0xb
 7774 01eb 49       		.uleb128 0x49
 7775 01ec 13       		.uleb128 0x13
 7776 01ed 0B       		.uleb128 0xb
 7777 01ee 0B       		.uleb128 0xb
 7778 01ef 0D       		.uleb128 0xd
 7779 01f0 0B       		.uleb128 0xb
 7780 01f1 0C       		.uleb128 0xc
 7781 01f2 0B       		.uleb128 0xb
 7782 01f3 38       		.uleb128 0x38
 7783 01f4 0A       		.uleb128 0xa
 7784 01f5 00       		.byte	0
 7785 01f6 00       		.byte	0
 7786 01f7 28       		.uleb128 0x28
 7787 01f8 0D       		.uleb128 0xd
 7788 01f9 00       		.byte	0
 7789 01fa 03       		.uleb128 0x3
 7790 01fb 0E       		.uleb128 0xe
 7791 01fc 3A       		.uleb128 0x3a
 7792 01fd 0B       		.uleb128 0xb
 7793 01fe 3B       		.uleb128 0x3b
 7794 01ff 05       		.uleb128 0x5
 7795 0200 49       		.uleb128 0x49
 7796 0201 13       		.uleb128 0x13
 7797 0202 0B       		.uleb128 0xb
 7798 0203 0B       		.uleb128 0xb
 7799 0204 0D       		.uleb128 0xd
 7800 0205 0B       		.uleb128 0xb
 7801 0206 0C       		.uleb128 0xc
 7802 0207 0B       		.uleb128 0xb
 7803 0208 38       		.uleb128 0x38
 7804 0209 0A       		.uleb128 0xa
 7805 020a 00       		.byte	0
 7806 020b 00       		.byte	0
 7807 020c 29       		.uleb128 0x29
 7808 020d 0D       		.uleb128 0xd
 7809 020e 00       		.byte	0
 7810 020f 03       		.uleb128 0x3
 7811 0210 08       		.uleb128 0x8
 7812 0211 3A       		.uleb128 0x3a
 7813 0212 0B       		.uleb128 0xb
 7814 0213 3B       		.uleb128 0x3b
 7815 0214 05       		.uleb128 0x5
 7816 0215 49       		.uleb128 0x49
 7817 0216 13       		.uleb128 0x13
 7818 0217 0B       		.uleb128 0xb
 7819 0218 0B       		.uleb128 0xb
 7820 0219 0D       		.uleb128 0xd
 7821 021a 0B       		.uleb128 0xb
 7822 021b 0C       		.uleb128 0xc
ARM GAS  C:\Users\EBANO_~1\AppData\Local\Temp\ccD2gIpL.s 			page 160


 7823 021c 0B       		.uleb128 0xb
 7824 021d 38       		.uleb128 0x38
 7825 021e 0A       		.uleb128 0xa
 7826 021f 00       		.byte	0
 7827 0220 00       		.byte	0
 7828 0221 2A       		.uleb128 0x2a
 7829 0222 17       		.uleb128 0x17
 7830 0223 01       		.byte	0x1
 7831 0224 03       		.uleb128 0x3
 7832 0225 0E       		.uleb128 0xe
 7833 0226 0B       		.uleb128 0xb
 7834 0227 0B       		.uleb128 0xb
 7835 0228 3A       		.uleb128 0x3a
 7836 0229 0B       		.uleb128 0xb
 7837 022a 3B       		.uleb128 0x3b
 7838 022b 05       		.uleb128 0x5
 7839 022c 01       		.uleb128 0x1
 7840 022d 13       		.uleb128 0x13
 7841 022e 00       		.byte	0
 7842 022f 00       		.byte	0
 7843 0230 2B       		.uleb128 0x2b
 7844 0231 34       		.uleb128 0x34
 7845 0232 00       		.byte	0
 7846 0233 03       		.uleb128 0x3
 7847 0234 0E       		.uleb128 0xe
 7848 0235 3A       		.uleb128 0x3a
 7849 0236 0B       		.uleb128 0xb
 7850 0237 3B       		.uleb128 0x3b
 7851 0238 05       		.uleb128 0x5
 7852 0239 49       		.uleb128 0x49
 7853 023a 13       		.uleb128 0x13
 7854 023b 1C       		.uleb128 0x1c
 7855 023c 0A       		.uleb128 0xa
 7856 023d 00       		.byte	0
 7857 023e 00       		.byte	0
 7858 023f 2C       		.uleb128 0x2c
 7859 0240 34       		.uleb128 0x34
 7860 0241 00       		.byte	0
 7861 0242 03       		.uleb128 0x3
 7862 0243 0E       		.uleb128 0xe
 7863 0244 3A       		.uleb128 0x3a
 7864 0245 0B       		.uleb128 0xb
 7865 0246 3B       		.uleb128 0x3b
 7866 0247 0B       		.uleb128 0xb
 7867 0248 49       		.uleb128 0x49
 7868 0249 13       		.uleb128 0x13
 7869 024a 02       		.uleb128 0x2
 7870 024b 0A       		.uleb128 0xa
 7871 024c 00       		.byte	0
 7872 024d 00       		.byte	0
 7873 024e 2D       		.uleb128 0x2d
 7874 024f 34       		.uleb128 0x34
 7875 0250 00       		.byte	0
 7876 0251 03       		.uleb128 0x3
 7877 0252 0E       		.uleb128 0xe
 7878 0253 3A       		.uleb128 0x3a
 7879 0254 0B       		.uleb128 0xb
ARM GAS  C:\Users\EBANO_~1\AppData\Local\Temp\ccD2gIpL.s 			page 161


 7880 0255 3B       		.uleb128 0x3b
 7881 0256 0B       		.uleb128 0xb
 7882 0257 49       		.uleb128 0x49
 7883 0258 13       		.uleb128 0x13
 7884 0259 3F       		.uleb128 0x3f
 7885 025a 0C       		.uleb128 0xc
 7886 025b 02       		.uleb128 0x2
 7887 025c 0A       		.uleb128 0xa
 7888 025d 00       		.byte	0
 7889 025e 00       		.byte	0
 7890 025f 2E       		.uleb128 0x2e
 7891 0260 2E       		.uleb128 0x2e
 7892 0261 01       		.byte	0x1
 7893 0262 03       		.uleb128 0x3
 7894 0263 0E       		.uleb128 0xe
 7895 0264 3A       		.uleb128 0x3a
 7896 0265 0B       		.uleb128 0xb
 7897 0266 3B       		.uleb128 0x3b
 7898 0267 05       		.uleb128 0x5
 7899 0268 27       		.uleb128 0x27
 7900 0269 0C       		.uleb128 0xc
 7901 026a 20       		.uleb128 0x20
 7902 026b 0B       		.uleb128 0xb
 7903 026c 01       		.uleb128 0x1
 7904 026d 13       		.uleb128 0x13
 7905 026e 00       		.byte	0
 7906 026f 00       		.byte	0
 7907 0270 2F       		.uleb128 0x2f
 7908 0271 05       		.uleb128 0x5
 7909 0272 00       		.byte	0
 7910 0273 03       		.uleb128 0x3
 7911 0274 0E       		.uleb128 0xe
 7912 0275 3A       		.uleb128 0x3a
 7913 0276 0B       		.uleb128 0xb
 7914 0277 3B       		.uleb128 0x3b
 7915 0278 05       		.uleb128 0x5
 7916 0279 49       		.uleb128 0x49
 7917 027a 13       		.uleb128 0x13
 7918 027b 00       		.byte	0
 7919 027c 00       		.byte	0
 7920 027d 30       		.uleb128 0x30
 7921 027e 34       		.uleb128 0x34
 7922 027f 00       		.byte	0
 7923 0280 03       		.uleb128 0x3
 7924 0281 0E       		.uleb128 0xe
 7925 0282 3A       		.uleb128 0x3a
 7926 0283 0B       		.uleb128 0xb
 7927 0284 3B       		.uleb128 0x3b
 7928 0285 05       		.uleb128 0x5
 7929 0286 49       		.uleb128 0x49
 7930 0287 13       		.uleb128 0x13
 7931 0288 00       		.byte	0
 7932 0289 00       		.byte	0
 7933 028a 31       		.uleb128 0x31
 7934 028b 0B       		.uleb128 0xb
 7935 028c 01       		.byte	0x1
 7936 028d 00       		.byte	0
ARM GAS  C:\Users\EBANO_~1\AppData\Local\Temp\ccD2gIpL.s 			page 162


 7937 028e 00       		.byte	0
 7938 028f 32       		.uleb128 0x32
 7939 0290 0B       		.uleb128 0xb
 7940 0291 01       		.byte	0x1
 7941 0292 01       		.uleb128 0x1
 7942 0293 13       		.uleb128 0x13
 7943 0294 00       		.byte	0
 7944 0295 00       		.byte	0
 7945 0296 33       		.uleb128 0x33
 7946 0297 34       		.uleb128 0x34
 7947 0298 00       		.byte	0
 7948 0299 03       		.uleb128 0x3
 7949 029a 08       		.uleb128 0x8
 7950 029b 3A       		.uleb128 0x3a
 7951 029c 0B       		.uleb128 0xb
 7952 029d 3B       		.uleb128 0x3b
 7953 029e 05       		.uleb128 0x5
 7954 029f 49       		.uleb128 0x49
 7955 02a0 13       		.uleb128 0x13
 7956 02a1 00       		.byte	0
 7957 02a2 00       		.byte	0
 7958 02a3 34       		.uleb128 0x34
 7959 02a4 2E       		.uleb128 0x2e
 7960 02a5 01       		.byte	0x1
 7961 02a6 3F       		.uleb128 0x3f
 7962 02a7 0C       		.uleb128 0xc
 7963 02a8 03       		.uleb128 0x3
 7964 02a9 0E       		.uleb128 0xe
 7965 02aa 3A       		.uleb128 0x3a
 7966 02ab 0B       		.uleb128 0xb
 7967 02ac 3B       		.uleb128 0x3b
 7968 02ad 05       		.uleb128 0x5
 7969 02ae 27       		.uleb128 0x27
 7970 02af 0C       		.uleb128 0xc
 7971 02b0 11       		.uleb128 0x11
 7972 02b1 01       		.uleb128 0x1
 7973 02b2 12       		.uleb128 0x12
 7974 02b3 01       		.uleb128 0x1
 7975 02b4 40       		.uleb128 0x40
 7976 02b5 06       		.uleb128 0x6
 7977 02b6 9742     		.uleb128 0x2117
 7978 02b8 0C       		.uleb128 0xc
 7979 02b9 01       		.uleb128 0x1
 7980 02ba 13       		.uleb128 0x13
 7981 02bb 00       		.byte	0
 7982 02bc 00       		.byte	0
 7983 02bd 35       		.uleb128 0x35
 7984 02be 05       		.uleb128 0x5
 7985 02bf 00       		.byte	0
 7986 02c0 03       		.uleb128 0x3
 7987 02c1 0E       		.uleb128 0xe
 7988 02c2 3A       		.uleb128 0x3a
 7989 02c3 0B       		.uleb128 0xb
 7990 02c4 3B       		.uleb128 0x3b
 7991 02c5 05       		.uleb128 0x5
 7992 02c6 49       		.uleb128 0x49
 7993 02c7 13       		.uleb128 0x13
ARM GAS  C:\Users\EBANO_~1\AppData\Local\Temp\ccD2gIpL.s 			page 163


 7994 02c8 02       		.uleb128 0x2
 7995 02c9 06       		.uleb128 0x6
 7996 02ca 00       		.byte	0
 7997 02cb 00       		.byte	0
 7998 02cc 36       		.uleb128 0x36
 7999 02cd 34       		.uleb128 0x34
 8000 02ce 00       		.byte	0
 8001 02cf 03       		.uleb128 0x3
 8002 02d0 0E       		.uleb128 0xe
 8003 02d1 3A       		.uleb128 0x3a
 8004 02d2 0B       		.uleb128 0xb
 8005 02d3 3B       		.uleb128 0x3b
 8006 02d4 05       		.uleb128 0x5
 8007 02d5 49       		.uleb128 0x49
 8008 02d6 13       		.uleb128 0x13
 8009 02d7 02       		.uleb128 0x2
 8010 02d8 0A       		.uleb128 0xa
 8011 02d9 00       		.byte	0
 8012 02da 00       		.byte	0
 8013 02db 37       		.uleb128 0x37
 8014 02dc 898201   		.uleb128 0x4109
 8015 02df 01       		.byte	0x1
 8016 02e0 11       		.uleb128 0x11
 8017 02e1 01       		.uleb128 0x1
 8018 02e2 31       		.uleb128 0x31
 8019 02e3 13       		.uleb128 0x13
 8020 02e4 00       		.byte	0
 8021 02e5 00       		.byte	0
 8022 02e6 38       		.uleb128 0x38
 8023 02e7 8A8201   		.uleb128 0x410a
 8024 02ea 00       		.byte	0
 8025 02eb 02       		.uleb128 0x2
 8026 02ec 0A       		.uleb128 0xa
 8027 02ed 9142     		.uleb128 0x2111
 8028 02ef 0A       		.uleb128 0xa
 8029 02f0 00       		.byte	0
 8030 02f1 00       		.byte	0
 8031 02f2 39       		.uleb128 0x39
 8032 02f3 2E       		.uleb128 0x2e
 8033 02f4 01       		.byte	0x1
 8034 02f5 3F       		.uleb128 0x3f
 8035 02f6 0C       		.uleb128 0xc
 8036 02f7 03       		.uleb128 0x3
 8037 02f8 0E       		.uleb128 0xe
 8038 02f9 3A       		.uleb128 0x3a
 8039 02fa 0B       		.uleb128 0xb
 8040 02fb 3B       		.uleb128 0x3b
 8041 02fc 05       		.uleb128 0x5
 8042 02fd 27       		.uleb128 0x27
 8043 02fe 0C       		.uleb128 0xc
 8044 02ff 49       		.uleb128 0x49
 8045 0300 13       		.uleb128 0x13
 8046 0301 11       		.uleb128 0x11
 8047 0302 01       		.uleb128 0x1
 8048 0303 12       		.uleb128 0x12
 8049 0304 01       		.uleb128 0x1
 8050 0305 40       		.uleb128 0x40
ARM GAS  C:\Users\EBANO_~1\AppData\Local\Temp\ccD2gIpL.s 			page 164


 8051 0306 06       		.uleb128 0x6
 8052 0307 9642     		.uleb128 0x2116
 8053 0309 0C       		.uleb128 0xc
 8054 030a 01       		.uleb128 0x1
 8055 030b 13       		.uleb128 0x13
 8056 030c 00       		.byte	0
 8057 030d 00       		.byte	0
 8058 030e 3A       		.uleb128 0x3a
 8059 030f 34       		.uleb128 0x34
 8060 0310 00       		.byte	0
 8061 0311 03       		.uleb128 0x3
 8062 0312 0E       		.uleb128 0xe
 8063 0313 3A       		.uleb128 0x3a
 8064 0314 0B       		.uleb128 0xb
 8065 0315 3B       		.uleb128 0x3b
 8066 0316 05       		.uleb128 0x5
 8067 0317 49       		.uleb128 0x49
 8068 0318 13       		.uleb128 0x13
 8069 0319 02       		.uleb128 0x2
 8070 031a 06       		.uleb128 0x6
 8071 031b 00       		.byte	0
 8072 031c 00       		.byte	0
 8073 031d 3B       		.uleb128 0x3b
 8074 031e 898201   		.uleb128 0x4109
 8075 0321 01       		.byte	0x1
 8076 0322 11       		.uleb128 0x11
 8077 0323 01       		.uleb128 0x1
 8078 0324 31       		.uleb128 0x31
 8079 0325 13       		.uleb128 0x13
 8080 0326 01       		.uleb128 0x1
 8081 0327 13       		.uleb128 0x13
 8082 0328 00       		.byte	0
 8083 0329 00       		.byte	0
 8084 032a 3C       		.uleb128 0x3c
 8085 032b 898201   		.uleb128 0x4109
 8086 032e 01       		.byte	0x1
 8087 032f 11       		.uleb128 0x11
 8088 0330 01       		.uleb128 0x1
 8089 0331 01       		.uleb128 0x1
 8090 0332 13       		.uleb128 0x13
 8091 0333 00       		.byte	0
 8092 0334 00       		.byte	0
 8093 0335 3D       		.uleb128 0x3d
 8094 0336 2E       		.uleb128 0x2e
 8095 0337 01       		.byte	0x1
 8096 0338 3F       		.uleb128 0x3f
 8097 0339 0C       		.uleb128 0xc
 8098 033a 03       		.uleb128 0x3
 8099 033b 0E       		.uleb128 0xe
 8100 033c 3A       		.uleb128 0x3a
 8101 033d 0B       		.uleb128 0xb
 8102 033e 3B       		.uleb128 0x3b
 8103 033f 05       		.uleb128 0x5
 8104 0340 27       		.uleb128 0x27
 8105 0341 0C       		.uleb128 0xc
 8106 0342 49       		.uleb128 0x49
 8107 0343 13       		.uleb128 0x13
ARM GAS  C:\Users\EBANO_~1\AppData\Local\Temp\ccD2gIpL.s 			page 165


 8108 0344 11       		.uleb128 0x11
 8109 0345 01       		.uleb128 0x1
 8110 0346 12       		.uleb128 0x12
 8111 0347 01       		.uleb128 0x1
 8112 0348 40       		.uleb128 0x40
 8113 0349 06       		.uleb128 0x6
 8114 034a 9742     		.uleb128 0x2117
 8115 034c 0C       		.uleb128 0xc
 8116 034d 01       		.uleb128 0x1
 8117 034e 13       		.uleb128 0x13
 8118 034f 00       		.byte	0
 8119 0350 00       		.byte	0
 8120 0351 3E       		.uleb128 0x3e
 8121 0352 898201   		.uleb128 0x4109
 8122 0355 00       		.byte	0
 8123 0356 11       		.uleb128 0x11
 8124 0357 01       		.uleb128 0x1
 8125 0358 31       		.uleb128 0x31
 8126 0359 13       		.uleb128 0x13
 8127 035a 00       		.byte	0
 8128 035b 00       		.byte	0
 8129 035c 3F       		.uleb128 0x3f
 8130 035d 2E       		.uleb128 0x2e
 8131 035e 01       		.byte	0x1
 8132 035f 3F       		.uleb128 0x3f
 8133 0360 0C       		.uleb128 0xc
 8134 0361 03       		.uleb128 0x3
 8135 0362 0E       		.uleb128 0xe
 8136 0363 3A       		.uleb128 0x3a
 8137 0364 0B       		.uleb128 0xb
 8138 0365 3B       		.uleb128 0x3b
 8139 0366 05       		.uleb128 0x5
 8140 0367 27       		.uleb128 0x27
 8141 0368 0C       		.uleb128 0xc
 8142 0369 20       		.uleb128 0x20
 8143 036a 0B       		.uleb128 0xb
 8144 036b 01       		.uleb128 0x1
 8145 036c 13       		.uleb128 0x13
 8146 036d 00       		.byte	0
 8147 036e 00       		.byte	0
 8148 036f 40       		.uleb128 0x40
 8149 0370 2E       		.uleb128 0x2e
 8150 0371 01       		.byte	0x1
 8151 0372 03       		.uleb128 0x3
 8152 0373 0E       		.uleb128 0xe
 8153 0374 3A       		.uleb128 0x3a
 8154 0375 0B       		.uleb128 0xb
 8155 0376 3B       		.uleb128 0x3b
 8156 0377 05       		.uleb128 0x5
 8157 0378 27       		.uleb128 0x27
 8158 0379 0C       		.uleb128 0xc
 8159 037a 11       		.uleb128 0x11
 8160 037b 01       		.uleb128 0x1
 8161 037c 12       		.uleb128 0x12
 8162 037d 01       		.uleb128 0x1
 8163 037e 40       		.uleb128 0x40
 8164 037f 06       		.uleb128 0x6
ARM GAS  C:\Users\EBANO_~1\AppData\Local\Temp\ccD2gIpL.s 			page 166


 8165 0380 9642     		.uleb128 0x2116
 8166 0382 0C       		.uleb128 0xc
 8167 0383 01       		.uleb128 0x1
 8168 0384 13       		.uleb128 0x13
 8169 0385 00       		.byte	0
 8170 0386 00       		.byte	0
 8171 0387 41       		.uleb128 0x41
 8172 0388 2E       		.uleb128 0x2e
 8173 0389 01       		.byte	0x1
 8174 038a 03       		.uleb128 0x3
 8175 038b 0E       		.uleb128 0xe
 8176 038c 3A       		.uleb128 0x3a
 8177 038d 0B       		.uleb128 0xb
 8178 038e 3B       		.uleb128 0x3b
 8179 038f 0B       		.uleb128 0xb
 8180 0390 27       		.uleb128 0x27
 8181 0391 0C       		.uleb128 0xc
 8182 0392 20       		.uleb128 0x20
 8183 0393 0B       		.uleb128 0xb
 8184 0394 01       		.uleb128 0x1
 8185 0395 13       		.uleb128 0x13
 8186 0396 00       		.byte	0
 8187 0397 00       		.byte	0
 8188 0398 42       		.uleb128 0x42
 8189 0399 05       		.uleb128 0x5
 8190 039a 00       		.byte	0
 8191 039b 03       		.uleb128 0x3
 8192 039c 0E       		.uleb128 0xe
 8193 039d 3A       		.uleb128 0x3a
 8194 039e 0B       		.uleb128 0xb
 8195 039f 3B       		.uleb128 0x3b
 8196 03a0 0B       		.uleb128 0xb
 8197 03a1 49       		.uleb128 0x49
 8198 03a2 13       		.uleb128 0x13
 8199 03a3 00       		.byte	0
 8200 03a4 00       		.byte	0
 8201 03a5 43       		.uleb128 0x43
 8202 03a6 34       		.uleb128 0x34
 8203 03a7 00       		.byte	0
 8204 03a8 03       		.uleb128 0x3
 8205 03a9 0E       		.uleb128 0xe
 8206 03aa 3A       		.uleb128 0x3a
 8207 03ab 0B       		.uleb128 0xb
 8208 03ac 3B       		.uleb128 0x3b
 8209 03ad 0B       		.uleb128 0xb
 8210 03ae 49       		.uleb128 0x49
 8211 03af 13       		.uleb128 0x13
 8212 03b0 00       		.byte	0
 8213 03b1 00       		.byte	0
 8214 03b2 44       		.uleb128 0x44
 8215 03b3 2E       		.uleb128 0x2e
 8216 03b4 01       		.byte	0x1
 8217 03b5 03       		.uleb128 0x3
 8218 03b6 0E       		.uleb128 0xe
 8219 03b7 3A       		.uleb128 0x3a
 8220 03b8 0B       		.uleb128 0xb
 8221 03b9 3B       		.uleb128 0x3b
ARM GAS  C:\Users\EBANO_~1\AppData\Local\Temp\ccD2gIpL.s 			page 167


 8222 03ba 0B       		.uleb128 0xb
 8223 03bb 27       		.uleb128 0x27
 8224 03bc 0C       		.uleb128 0xc
 8225 03bd 11       		.uleb128 0x11
 8226 03be 01       		.uleb128 0x1
 8227 03bf 12       		.uleb128 0x12
 8228 03c0 01       		.uleb128 0x1
 8229 03c1 40       		.uleb128 0x40
 8230 03c2 06       		.uleb128 0x6
 8231 03c3 9742     		.uleb128 0x2117
 8232 03c5 0C       		.uleb128 0xc
 8233 03c6 01       		.uleb128 0x1
 8234 03c7 13       		.uleb128 0x13
 8235 03c8 00       		.byte	0
 8236 03c9 00       		.byte	0
 8237 03ca 45       		.uleb128 0x45
 8238 03cb 05       		.uleb128 0x5
 8239 03cc 00       		.byte	0
 8240 03cd 03       		.uleb128 0x3
 8241 03ce 0E       		.uleb128 0xe
 8242 03cf 3A       		.uleb128 0x3a
 8243 03d0 0B       		.uleb128 0xb
 8244 03d1 3B       		.uleb128 0x3b
 8245 03d2 0B       		.uleb128 0xb
 8246 03d3 49       		.uleb128 0x49
 8247 03d4 13       		.uleb128 0x13
 8248 03d5 02       		.uleb128 0x2
 8249 03d6 06       		.uleb128 0x6
 8250 03d7 00       		.byte	0
 8251 03d8 00       		.byte	0
 8252 03d9 46       		.uleb128 0x46
 8253 03da 1D       		.uleb128 0x1d
 8254 03db 01       		.byte	0x1
 8255 03dc 31       		.uleb128 0x31
 8256 03dd 13       		.uleb128 0x13
 8257 03de 52       		.uleb128 0x52
 8258 03df 01       		.uleb128 0x1
 8259 03e0 55       		.uleb128 0x55
 8260 03e1 06       		.uleb128 0x6
 8261 03e2 58       		.uleb128 0x58
 8262 03e3 0B       		.uleb128 0xb
 8263 03e4 59       		.uleb128 0x59
 8264 03e5 0B       		.uleb128 0xb
 8265 03e6 00       		.byte	0
 8266 03e7 00       		.byte	0
 8267 03e8 47       		.uleb128 0x47
 8268 03e9 05       		.uleb128 0x5
 8269 03ea 00       		.byte	0
 8270 03eb 31       		.uleb128 0x31
 8271 03ec 13       		.uleb128 0x13
 8272 03ed 02       		.uleb128 0x2
 8273 03ee 06       		.uleb128 0x6
 8274 03ef 00       		.byte	0
 8275 03f0 00       		.byte	0
 8276 03f1 48       		.uleb128 0x48
 8277 03f2 0B       		.uleb128 0xb
 8278 03f3 01       		.byte	0x1
ARM GAS  C:\Users\EBANO_~1\AppData\Local\Temp\ccD2gIpL.s 			page 168


 8279 03f4 55       		.uleb128 0x55
 8280 03f5 06       		.uleb128 0x6
 8281 03f6 00       		.byte	0
 8282 03f7 00       		.byte	0
 8283 03f8 49       		.uleb128 0x49
 8284 03f9 34       		.uleb128 0x34
 8285 03fa 00       		.byte	0
 8286 03fb 31       		.uleb128 0x31
 8287 03fc 13       		.uleb128 0x13
 8288 03fd 02       		.uleb128 0x2
 8289 03fe 0A       		.uleb128 0xa
 8290 03ff 00       		.byte	0
 8291 0400 00       		.byte	0
 8292 0401 4A       		.uleb128 0x4a
 8293 0402 2E       		.uleb128 0x2e
 8294 0403 01       		.byte	0x1
 8295 0404 31       		.uleb128 0x31
 8296 0405 13       		.uleb128 0x13
 8297 0406 11       		.uleb128 0x11
 8298 0407 01       		.uleb128 0x1
 8299 0408 12       		.uleb128 0x12
 8300 0409 01       		.uleb128 0x1
 8301 040a 40       		.uleb128 0x40
 8302 040b 06       		.uleb128 0x6
 8303 040c 9642     		.uleb128 0x2116
 8304 040e 0C       		.uleb128 0xc
 8305 040f 01       		.uleb128 0x1
 8306 0410 13       		.uleb128 0x13
 8307 0411 00       		.byte	0
 8308 0412 00       		.byte	0
 8309 0413 4B       		.uleb128 0x4b
 8310 0414 34       		.uleb128 0x34
 8311 0415 00       		.byte	0
 8312 0416 31       		.uleb128 0x31
 8313 0417 13       		.uleb128 0x13
 8314 0418 00       		.byte	0
 8315 0419 00       		.byte	0
 8316 041a 4C       		.uleb128 0x4c
 8317 041b 0B       		.uleb128 0xb
 8318 041c 01       		.byte	0x1
 8319 041d 31       		.uleb128 0x31
 8320 041e 13       		.uleb128 0x13
 8321 041f 55       		.uleb128 0x55
 8322 0420 06       		.uleb128 0x6
 8323 0421 00       		.byte	0
 8324 0422 00       		.byte	0
 8325 0423 4D       		.uleb128 0x4d
 8326 0424 0B       		.uleb128 0xb
 8327 0425 01       		.byte	0x1
 8328 0426 31       		.uleb128 0x31
 8329 0427 13       		.uleb128 0x13
 8330 0428 11       		.uleb128 0x11
 8331 0429 01       		.uleb128 0x1
 8332 042a 12       		.uleb128 0x12
 8333 042b 01       		.uleb128 0x1
 8334 042c 01       		.uleb128 0x1
 8335 042d 13       		.uleb128 0x13
ARM GAS  C:\Users\EBANO_~1\AppData\Local\Temp\ccD2gIpL.s 			page 169


 8336 042e 00       		.byte	0
 8337 042f 00       		.byte	0
 8338 0430 4E       		.uleb128 0x4e
 8339 0431 1D       		.uleb128 0x1d
 8340 0432 01       		.byte	0x1
 8341 0433 31       		.uleb128 0x31
 8342 0434 13       		.uleb128 0x13
 8343 0435 11       		.uleb128 0x11
 8344 0436 01       		.uleb128 0x1
 8345 0437 12       		.uleb128 0x12
 8346 0438 01       		.uleb128 0x1
 8347 0439 58       		.uleb128 0x58
 8348 043a 0B       		.uleb128 0xb
 8349 043b 59       		.uleb128 0x59
 8350 043c 05       		.uleb128 0x5
 8351 043d 00       		.byte	0
 8352 043e 00       		.byte	0
 8353 043f 4F       		.uleb128 0x4f
 8354 0440 0B       		.uleb128 0xb
 8355 0441 01       		.byte	0x1
 8356 0442 11       		.uleb128 0x11
 8357 0443 01       		.uleb128 0x1
 8358 0444 12       		.uleb128 0x12
 8359 0445 01       		.uleb128 0x1
 8360 0446 00       		.byte	0
 8361 0447 00       		.byte	0
 8362 0448 50       		.uleb128 0x50
 8363 0449 2E       		.uleb128 0x2e
 8364 044a 01       		.byte	0x1
 8365 044b 31       		.uleb128 0x31
 8366 044c 13       		.uleb128 0x13
 8367 044d 11       		.uleb128 0x11
 8368 044e 01       		.uleb128 0x1
 8369 044f 12       		.uleb128 0x12
 8370 0450 01       		.uleb128 0x1
 8371 0451 40       		.uleb128 0x40
 8372 0452 06       		.uleb128 0x6
 8373 0453 9742     		.uleb128 0x2117
 8374 0455 0C       		.uleb128 0xc
 8375 0456 01       		.uleb128 0x1
 8376 0457 13       		.uleb128 0x13
 8377 0458 00       		.byte	0
 8378 0459 00       		.byte	0
 8379 045a 51       		.uleb128 0x51
 8380 045b 2E       		.uleb128 0x2e
 8381 045c 00       		.byte	0
 8382 045d 3F       		.uleb128 0x3f
 8383 045e 0C       		.uleb128 0xc
 8384 045f 3C       		.uleb128 0x3c
 8385 0460 0C       		.uleb128 0xc
 8386 0461 8740     		.uleb128 0x2007
 8387 0463 0E       		.uleb128 0xe
 8388 0464 03       		.uleb128 0x3
 8389 0465 0E       		.uleb128 0xe
 8390 0466 3A       		.uleb128 0x3a
 8391 0467 0B       		.uleb128 0xb
 8392 0468 3B       		.uleb128 0x3b
ARM GAS  C:\Users\EBANO_~1\AppData\Local\Temp\ccD2gIpL.s 			page 170


 8393 0469 05       		.uleb128 0x5
 8394 046a 00       		.byte	0
 8395 046b 00       		.byte	0
 8396 046c 52       		.uleb128 0x52
 8397 046d 2E       		.uleb128 0x2e
 8398 046e 00       		.byte	0
 8399 046f 3F       		.uleb128 0x3f
 8400 0470 0C       		.uleb128 0xc
 8401 0471 3C       		.uleb128 0x3c
 8402 0472 0C       		.uleb128 0xc
 8403 0473 8740     		.uleb128 0x2007
 8404 0475 0E       		.uleb128 0xe
 8405 0476 03       		.uleb128 0x3
 8406 0477 0E       		.uleb128 0xe
 8407 0478 3A       		.uleb128 0x3a
 8408 0479 0B       		.uleb128 0xb
 8409 047a 3B       		.uleb128 0x3b
 8410 047b 0B       		.uleb128 0xb
 8411 047c 00       		.byte	0
 8412 047d 00       		.byte	0
 8413 047e 00       		.byte	0
 8414              		.section	.debug_loc,"",%progbits
 8415              	.Ldebug_loc0:
 8416              	.LLST23:
 8417 0000 00000000 		.4byte	.LFB48
 8418 0004 02000000 		.4byte	.LCFI18
 8419 0008 0200     		.2byte	0x2
 8420 000a 7D       		.byte	0x7d
 8421 000b 00       		.sleb128 0
 8422 000c 02000000 		.4byte	.LCFI18
 8423 0010 04000000 		.4byte	.LCFI19
 8424 0014 0200     		.2byte	0x2
 8425 0016 7D       		.byte	0x7d
 8426 0017 08       		.sleb128 8
 8427 0018 04000000 		.4byte	.LCFI19
 8428 001c 1C000000 		.4byte	.LFE48
 8429 0020 0200     		.2byte	0x2
 8430 0022 7D       		.byte	0x7d
 8431 0023 20       		.sleb128 32
 8432 0024 00000000 		.4byte	0
 8433 0028 00000000 		.4byte	0
 8434              	.LLST24:
 8435 002c 00000000 		.4byte	.LVL73
 8436 0030 0C000000 		.4byte	.LVL74
 8437 0034 0100     		.2byte	0x1
 8438 0036 50       		.byte	0x50
 8439 0037 0C000000 		.4byte	.LVL74
 8440 003b 1A000000 		.4byte	.LVL76
 8441 003f 0100     		.2byte	0x1
 8442 0041 54       		.byte	0x54
 8443 0042 1A000000 		.4byte	.LVL76
 8444 0046 1C000000 		.4byte	.LFE48
 8445 004a 0400     		.2byte	0x4
 8446 004c F3       		.byte	0xf3
 8447 004d 01       		.uleb128 0x1
 8448 004e 50       		.byte	0x50
 8449 004f 9F       		.byte	0x9f
ARM GAS  C:\Users\EBANO_~1\AppData\Local\Temp\ccD2gIpL.s 			page 171


 8450 0050 00000000 		.4byte	0
 8451 0054 00000000 		.4byte	0
 8452              	.LLST19:
 8453 0058 00000000 		.4byte	.LFB47
 8454 005c 02000000 		.4byte	.LCFI16
 8455 0060 0200     		.2byte	0x2
 8456 0062 7D       		.byte	0x7d
 8457 0063 00       		.sleb128 0
 8458 0064 02000000 		.4byte	.LCFI16
 8459 0068 04000000 		.4byte	.LCFI17
 8460 006c 0200     		.2byte	0x2
 8461 006e 7D       		.byte	0x7d
 8462 006f 0C       		.sleb128 12
 8463 0070 04000000 		.4byte	.LCFI17
 8464 0074 84000000 		.4byte	.LFE47
 8465 0078 0200     		.2byte	0x2
 8466 007a 7D       		.byte	0x7d
 8467 007b 28       		.sleb128 40
 8468 007c 00000000 		.4byte	0
 8469 0080 00000000 		.4byte	0
 8470              	.LLST20:
 8471 0084 00000000 		.4byte	.LVL52
 8472 0088 0C000000 		.4byte	.LVL53
 8473 008c 0100     		.2byte	0x1
 8474 008e 50       		.byte	0x50
 8475 008f 0C000000 		.4byte	.LVL53
 8476 0093 84000000 		.4byte	.LFE47
 8477 0097 0400     		.2byte	0x4
 8478 0099 F3       		.byte	0xf3
 8479 009a 01       		.uleb128 0x1
 8480 009b 50       		.byte	0x50
 8481 009c 9F       		.byte	0x9f
 8482 009d 00000000 		.4byte	0
 8483 00a1 00000000 		.4byte	0
 8484              	.LLST21:
 8485 00a5 00000000 		.4byte	.LVL52
 8486 00a9 2E000000 		.4byte	.LVL57
 8487 00ad 0200     		.2byte	0x2
 8488 00af 30       		.byte	0x30
 8489 00b0 9F       		.byte	0x9f
 8490 00b1 2E000000 		.4byte	.LVL57
 8491 00b5 46000000 		.4byte	.LVL61
 8492 00b9 0100     		.2byte	0x1
 8493 00bb 54       		.byte	0x54
 8494 00bc 46000000 		.4byte	.LVL61
 8495 00c0 48000000 		.4byte	.LVL62
 8496 00c4 0200     		.2byte	0x2
 8497 00c6 30       		.byte	0x30
 8498 00c7 9F       		.byte	0x9f
 8499 00c8 48000000 		.4byte	.LVL62
 8500 00cc 4C000000 		.4byte	.LVL63
 8501 00d0 0100     		.2byte	0x1
 8502 00d2 54       		.byte	0x54
 8503 00d3 4E000000 		.4byte	.LVL64
 8504 00d7 74000000 		.4byte	.LVL72
 8505 00db 0200     		.2byte	0x2
 8506 00dd 30       		.byte	0x30
ARM GAS  C:\Users\EBANO_~1\AppData\Local\Temp\ccD2gIpL.s 			page 172


 8507 00de 9F       		.byte	0x9f
 8508 00df 00000000 		.4byte	0
 8509 00e3 00000000 		.4byte	0
 8510              	.LLST22:
 8511 00e7 16000000 		.4byte	.LVL55
 8512 00eb 2A000000 		.4byte	.LVL56
 8513 00ef 0100     		.2byte	0x1
 8514 00f1 50       		.byte	0x50
 8515 00f2 2A000000 		.4byte	.LVL56
 8516 00f6 32000000 		.4byte	.LVL58
 8517 00fa 0200     		.2byte	0x2
 8518 00fc 7D       		.byte	0x7d
 8519 00fd 04       		.sleb128 4
 8520 00fe 46000000 		.4byte	.LVL61
 8521 0102 48000000 		.4byte	.LVL62
 8522 0106 0100     		.2byte	0x1
 8523 0108 50       		.byte	0x50
 8524 0109 4E000000 		.4byte	.LVL64
 8525 010d 52000000 		.4byte	.LVL65
 8526 0111 0100     		.2byte	0x1
 8527 0113 50       		.byte	0x50
 8528 0114 52000000 		.4byte	.LVL65
 8529 0118 54000000 		.4byte	.LVL66
 8530 011c 0200     		.2byte	0x2
 8531 011e 70       		.byte	0x70
 8532 011f 04       		.sleb128 4
 8533 0120 6A000000 		.4byte	.LVL69
 8534 0124 6C000000 		.4byte	.LVL70
 8535 0128 0100     		.2byte	0x1
 8536 012a 50       		.byte	0x50
 8537 012b 6C000000 		.4byte	.LVL70
 8538 012f 6F000000 		.4byte	.LVL71-1
 8539 0133 0200     		.2byte	0x2
 8540 0135 73       		.byte	0x73
 8541 0136 04       		.sleb128 4
 8542 0137 00000000 		.4byte	0
 8543 013b 00000000 		.4byte	0
 8544              	.LLST16:
 8545 013f 00000000 		.4byte	.LFB46
 8546 0143 02000000 		.4byte	.LCFI14
 8547 0147 0200     		.2byte	0x2
 8548 0149 7D       		.byte	0x7d
 8549 014a 00       		.sleb128 0
 8550 014b 02000000 		.4byte	.LCFI14
 8551 014f 04000000 		.4byte	.LCFI15
 8552 0153 0200     		.2byte	0x2
 8553 0155 7D       		.byte	0x7d
 8554 0156 10       		.sleb128 16
 8555 0157 04000000 		.4byte	.LCFI15
 8556 015b 78000000 		.4byte	.LFE46
 8557 015f 0200     		.2byte	0x2
 8558 0161 7D       		.byte	0x7d
 8559 0162 28       		.sleb128 40
 8560 0163 00000000 		.4byte	0
 8561 0167 00000000 		.4byte	0
 8562              	.LLST17:
 8563 016b 00000000 		.4byte	.LVL43
ARM GAS  C:\Users\EBANO_~1\AppData\Local\Temp\ccD2gIpL.s 			page 173


 8564 016f 0B000000 		.4byte	.LVL44-1
 8565 0173 0100     		.2byte	0x1
 8566 0175 50       		.byte	0x50
 8567 0176 0B000000 		.4byte	.LVL44-1
 8568 017a 14000000 		.4byte	.LVL45
 8569 017e 0100     		.2byte	0x1
 8570 0180 55       		.byte	0x55
 8571 0181 14000000 		.4byte	.LVL45
 8572 0185 18000000 		.4byte	.LVL46
 8573 0189 0400     		.2byte	0x4
 8574 018b F3       		.byte	0xf3
 8575 018c 01       		.uleb128 0x1
 8576 018d 50       		.byte	0x50
 8577 018e 9F       		.byte	0x9f
 8578 018f 18000000 		.4byte	.LVL46
 8579 0193 42000000 		.4byte	.LVL48
 8580 0197 0100     		.2byte	0x1
 8581 0199 55       		.byte	0x55
 8582 019a 42000000 		.4byte	.LVL48
 8583 019e 4E000000 		.4byte	.LVL50
 8584 01a2 0400     		.2byte	0x4
 8585 01a4 F3       		.byte	0xf3
 8586 01a5 01       		.uleb128 0x1
 8587 01a6 50       		.byte	0x50
 8588 01a7 9F       		.byte	0x9f
 8589 01a8 4E000000 		.4byte	.LVL50
 8590 01ac 62000000 		.4byte	.LVL51
 8591 01b0 0100     		.2byte	0x1
 8592 01b2 55       		.byte	0x55
 8593 01b3 62000000 		.4byte	.LVL51
 8594 01b7 78000000 		.4byte	.LFE46
 8595 01bb 0400     		.2byte	0x4
 8596 01bd F3       		.byte	0xf3
 8597 01be 01       		.uleb128 0x1
 8598 01bf 50       		.byte	0x50
 8599 01c0 9F       		.byte	0x9f
 8600 01c1 00000000 		.4byte	0
 8601 01c5 00000000 		.4byte	0
 8602              	.LLST18:
 8603 01c9 00000000 		.4byte	.LVL43
 8604 01cd 0B000000 		.4byte	.LVL44-1
 8605 01d1 0100     		.2byte	0x1
 8606 01d3 51       		.byte	0x51
 8607 01d4 0B000000 		.4byte	.LVL44-1
 8608 01d8 78000000 		.4byte	.LFE46
 8609 01dc 0400     		.2byte	0x4
 8610 01de F3       		.byte	0xf3
 8611 01df 01       		.uleb128 0x1
 8612 01e0 51       		.byte	0x51
 8613 01e1 9F       		.byte	0x9f
 8614 01e2 00000000 		.4byte	0
 8615 01e6 00000000 		.4byte	0
 8616              	.LLST15:
 8617 01ea 00000000 		.4byte	.LFB45
 8618 01ee 02000000 		.4byte	.LCFI12
 8619 01f2 0200     		.2byte	0x2
 8620 01f4 7D       		.byte	0x7d
ARM GAS  C:\Users\EBANO_~1\AppData\Local\Temp\ccD2gIpL.s 			page 174


 8621 01f5 00       		.sleb128 0
 8622 01f6 02000000 		.4byte	.LCFI12
 8623 01fa 04000000 		.4byte	.LCFI13
 8624 01fe 0200     		.2byte	0x2
 8625 0200 7D       		.byte	0x7d
 8626 0201 04       		.sleb128 4
 8627 0202 04000000 		.4byte	.LCFI13
 8628 0206 1E000000 		.4byte	.LFE45
 8629 020a 0200     		.2byte	0x2
 8630 020c 7D       		.byte	0x7d
 8631 020d 20       		.sleb128 32
 8632 020e 00000000 		.4byte	0
 8633 0212 00000000 		.4byte	0
 8634              	.LLST11:
 8635 0216 00000000 		.4byte	.LFB43
 8636 021a 02000000 		.4byte	.LCFI7
 8637 021e 0200     		.2byte	0x2
 8638 0220 7D       		.byte	0x7d
 8639 0221 00       		.sleb128 0
 8640 0222 02000000 		.4byte	.LCFI7
 8641 0226 06000000 		.4byte	.LCFI8
 8642 022a 0200     		.2byte	0x2
 8643 022c 7D       		.byte	0x7d
 8644 022d 14       		.sleb128 20
 8645 022e 06000000 		.4byte	.LCFI8
 8646 0232 10000000 		.4byte	.LCFI9
 8647 0236 0200     		.2byte	0x2
 8648 0238 7D       		.byte	0x7d
 8649 0239 18       		.sleb128 24
 8650 023a 10000000 		.4byte	.LCFI9
 8651 023e 84010000 		.4byte	.LFE43
 8652 0242 0300     		.2byte	0x3
 8653 0244 7D       		.byte	0x7d
 8654 0245 D000     		.sleb128 80
 8655 0247 00000000 		.4byte	0
 8656 024b 00000000 		.4byte	0
 8657              	.LLST12:
 8658 024f 00000000 		.4byte	.LVL25
 8659 0253 12000000 		.4byte	.LVL26
 8660 0257 0100     		.2byte	0x1
 8661 0259 50       		.byte	0x50
 8662 025a 12000000 		.4byte	.LVL26
 8663 025e 15000000 		.4byte	.LVL27-1
 8664 0262 0500     		.2byte	0x5
 8665 0264 03       		.byte	0x3
 8666 0265 00000000 		.4byte	LoRaMainCallbacks
 8667 0269 15000000 		.4byte	.LVL27-1
 8668 026d 84010000 		.4byte	.LFE43
 8669 0271 0400     		.2byte	0x4
 8670 0273 F3       		.byte	0xf3
 8671 0274 01       		.uleb128 0x1
 8672 0275 50       		.byte	0x50
 8673 0276 9F       		.byte	0x9f
 8674 0277 00000000 		.4byte	0
 8675 027b 00000000 		.4byte	0
 8676              	.LLST13:
 8677 027f 00000000 		.4byte	.LVL25
ARM GAS  C:\Users\EBANO_~1\AppData\Local\Temp\ccD2gIpL.s 			page 175


 8678 0283 15000000 		.4byte	.LVL27-1
 8679 0287 0100     		.2byte	0x1
 8680 0289 51       		.byte	0x51
 8681 028a 15000000 		.4byte	.LVL27-1
 8682 028e 84010000 		.4byte	.LFE43
 8683 0292 0400     		.2byte	0x4
 8684 0294 F3       		.byte	0xf3
 8685 0295 01       		.uleb128 0x1
 8686 0296 51       		.byte	0x51
 8687 0297 9F       		.byte	0x9f
 8688 0298 00000000 		.4byte	0
 8689 029c 00000000 		.4byte	0
 8690              	.LLST0:
 8691 02a0 00000000 		.4byte	.LFB42
 8692 02a4 04000000 		.4byte	.LCFI0
 8693 02a8 0200     		.2byte	0x2
 8694 02aa 7D       		.byte	0x7d
 8695 02ab 00       		.sleb128 0
 8696 02ac 04000000 		.4byte	.LCFI0
 8697 02b0 18000000 		.4byte	.LFE42
 8698 02b4 0200     		.2byte	0x2
 8699 02b6 7D       		.byte	0x7d
 8700 02b7 08       		.sleb128 8
 8701 02b8 00000000 		.4byte	0
 8702 02bc 00000000 		.4byte	0
 8703              	.LLST1:
 8704 02c0 00000000 		.4byte	.LVL0
 8705 02c4 0F000000 		.4byte	.LVL1-1
 8706 02c8 0100     		.2byte	0x1
 8707 02ca 50       		.byte	0x50
 8708 02cb 0F000000 		.4byte	.LVL1-1
 8709 02cf 18000000 		.4byte	.LFE42
 8710 02d3 0400     		.2byte	0x4
 8711 02d5 F3       		.byte	0xf3
 8712 02d6 01       		.uleb128 0x1
 8713 02d7 50       		.byte	0x50
 8714 02d8 9F       		.byte	0x9f
 8715 02d9 00000000 		.4byte	0
 8716 02dd 00000000 		.4byte	0
 8717              	.LLST5:
 8718 02e1 00000000 		.4byte	.LFB39
 8719 02e5 04000000 		.4byte	.LCFI3
 8720 02e9 0200     		.2byte	0x2
 8721 02eb 7D       		.byte	0x7d
 8722 02ec 00       		.sleb128 0
 8723 02ed 04000000 		.4byte	.LCFI3
 8724 02f1 06000000 		.4byte	.LCFI4
 8725 02f5 0200     		.2byte	0x2
 8726 02f7 7D       		.byte	0x7d
 8727 02f8 04       		.sleb128 4
 8728 02f9 06000000 		.4byte	.LCFI4
 8729 02fd 1E000000 		.4byte	.LFE39
 8730 0301 0200     		.2byte	0x2
 8731 0303 7D       		.byte	0x7d
 8732 0304 38       		.sleb128 56
 8733 0305 00000000 		.4byte	0
 8734 0309 00000000 		.4byte	0
ARM GAS  C:\Users\EBANO_~1\AppData\Local\Temp\ccD2gIpL.s 			page 176


 8735              	.LLST6:
 8736 030d 00000000 		.4byte	.LVL11
 8737 0311 08000000 		.4byte	.LVL12
 8738 0315 0100     		.2byte	0x1
 8739 0317 50       		.byte	0x50
 8740 0318 08000000 		.4byte	.LVL12
 8741 031c 1E000000 		.4byte	.LFE39
 8742 0320 0400     		.2byte	0x4
 8743 0322 F3       		.byte	0xf3
 8744 0323 01       		.uleb128 0x1
 8745 0324 50       		.byte	0x50
 8746 0325 9F       		.byte	0x9f
 8747 0326 00000000 		.4byte	0
 8748 032a 00000000 		.4byte	0
 8749              	.LLST7:
 8750 032e 00000000 		.4byte	.LVL11
 8751 0332 08000000 		.4byte	.LVL12
 8752 0336 0100     		.2byte	0x1
 8753 0338 50       		.byte	0x50
 8754 0339 08000000 		.4byte	.LVL12
 8755 033d 1E000000 		.4byte	.LFE39
 8756 0341 0400     		.2byte	0x4
 8757 0343 F3       		.byte	0xf3
 8758 0344 01       		.uleb128 0x1
 8759 0345 50       		.byte	0x50
 8760 0346 9F       		.byte	0x9f
 8761 0347 00000000 		.4byte	0
 8762 034b 00000000 		.4byte	0
 8763              	.LLST2:
 8764 034f 00000000 		.4byte	.LFB40
 8765 0353 02000000 		.4byte	.LCFI1
 8766 0357 0200     		.2byte	0x2
 8767 0359 7D       		.byte	0x7d
 8768 035a 00       		.sleb128 0
 8769 035b 02000000 		.4byte	.LCFI1
 8770 035f 06000000 		.4byte	.LCFI2
 8771 0363 0200     		.2byte	0x2
 8772 0365 7D       		.byte	0x7d
 8773 0366 08       		.sleb128 8
 8774 0367 06000000 		.4byte	.LCFI2
 8775 036b 64000000 		.4byte	.LFE40
 8776 036f 0200     		.2byte	0x2
 8777 0371 7D       		.byte	0x7d
 8778 0372 10       		.sleb128 16
 8779 0373 00000000 		.4byte	0
 8780 0377 00000000 		.4byte	0
 8781              	.LLST3:
 8782 037b 00000000 		.4byte	.LVL2
 8783 037f 19000000 		.4byte	.LVL4-1
 8784 0383 0100     		.2byte	0x1
 8785 0385 50       		.byte	0x50
 8786 0386 19000000 		.4byte	.LVL4-1
 8787 038a 46000000 		.4byte	.LVL7
 8788 038e 0100     		.2byte	0x1
 8789 0390 54       		.byte	0x54
 8790 0391 46000000 		.4byte	.LVL7
 8791 0395 48000000 		.4byte	.LVL8
ARM GAS  C:\Users\EBANO_~1\AppData\Local\Temp\ccD2gIpL.s 			page 177


 8792 0399 0400     		.2byte	0x4
 8793 039b F3       		.byte	0xf3
 8794 039c 01       		.uleb128 0x1
 8795 039d 50       		.byte	0x50
 8796 039e 9F       		.byte	0x9f
 8797 039f 48000000 		.4byte	.LVL8
 8798 03a3 64000000 		.4byte	.LFE40
 8799 03a7 0100     		.2byte	0x1
 8800 03a9 54       		.byte	0x54
 8801 03aa 00000000 		.4byte	0
 8802 03ae 00000000 		.4byte	0
 8803              	.LLST4:
 8804 03b2 0C000000 		.4byte	.LVL3
 8805 03b6 19000000 		.4byte	.LVL4-1
 8806 03ba 0100     		.2byte	0x1
 8807 03bc 50       		.byte	0x50
 8808 03bd 19000000 		.4byte	.LVL4-1
 8809 03c1 44000000 		.4byte	.LVL6
 8810 03c5 0100     		.2byte	0x1
 8811 03c7 54       		.byte	0x54
 8812 03c8 48000000 		.4byte	.LVL8
 8813 03cc 64000000 		.4byte	.LFE40
 8814 03d0 0100     		.2byte	0x1
 8815 03d2 54       		.byte	0x54
 8816 03d3 00000000 		.4byte	0
 8817 03d7 00000000 		.4byte	0
 8818              	.LLST8:
 8819 03db 00000000 		.4byte	.LFB41
 8820 03df 02000000 		.4byte	.LCFI5
 8821 03e3 0200     		.2byte	0x2
 8822 03e5 7D       		.byte	0x7d
 8823 03e6 00       		.sleb128 0
 8824 03e7 02000000 		.4byte	.LCFI5
 8825 03eb 06000000 		.4byte	.LCFI6
 8826 03ef 0200     		.2byte	0x2
 8827 03f1 7D       		.byte	0x7d
 8828 03f2 08       		.sleb128 8
 8829 03f3 06000000 		.4byte	.LCFI6
 8830 03f7 68000000 		.4byte	.LFE41
 8831 03fb 0200     		.2byte	0x2
 8832 03fd 7D       		.byte	0x7d
 8833 03fe 18       		.sleb128 24
 8834 03ff 00000000 		.4byte	0
 8835 0403 00000000 		.4byte	0
 8836              	.LLST9:
 8837 0407 00000000 		.4byte	.LVL15
 8838 040b 16000000 		.4byte	.LVL16
 8839 040f 0100     		.2byte	0x1
 8840 0411 50       		.byte	0x50
 8841 0412 16000000 		.4byte	.LVL16
 8842 0416 1A000000 		.4byte	.LVL17
 8843 041a 0400     		.2byte	0x4
 8844 041c F3       		.byte	0xf3
 8845 041d 01       		.uleb128 0x1
 8846 041e 50       		.byte	0x50
 8847 041f 9F       		.byte	0x9f
 8848 0420 1A000000 		.4byte	.LVL17
ARM GAS  C:\Users\EBANO_~1\AppData\Local\Temp\ccD2gIpL.s 			page 178


 8849 0424 27000000 		.4byte	.LVL18-1
 8850 0428 0100     		.2byte	0x1
 8851 042a 50       		.byte	0x50
 8852 042b 27000000 		.4byte	.LVL18-1
 8853 042f 2A000000 		.4byte	.LVL19
 8854 0433 0100     		.2byte	0x1
 8855 0435 54       		.byte	0x54
 8856 0436 2A000000 		.4byte	.LVL19
 8857 043a 2D000000 		.4byte	.LVL20-1
 8858 043e 0100     		.2byte	0x1
 8859 0440 50       		.byte	0x50
 8860 0441 2D000000 		.4byte	.LVL20-1
 8861 0445 3A000000 		.4byte	.LVL22
 8862 0449 0100     		.2byte	0x1
 8863 044b 54       		.byte	0x54
 8864 044c 3A000000 		.4byte	.LVL22
 8865 0450 58000000 		.4byte	.LVL23
 8866 0454 0100     		.2byte	0x1
 8867 0456 50       		.byte	0x50
 8868 0457 58000000 		.4byte	.LVL23
 8869 045b 68000000 		.4byte	.LFE41
 8870 045f 0400     		.2byte	0x4
 8871 0461 F3       		.byte	0xf3
 8872 0462 01       		.uleb128 0x1
 8873 0463 50       		.byte	0x50
 8874 0464 9F       		.byte	0x9f
 8875 0465 00000000 		.4byte	0
 8876 0469 00000000 		.4byte	0
 8877              	.LLST10:
 8878 046d 2A000000 		.4byte	.LVL19
 8879 0471 2D000000 		.4byte	.LVL20-1
 8880 0475 0100     		.2byte	0x1
 8881 0477 50       		.byte	0x50
 8882 0478 2D000000 		.4byte	.LVL20-1
 8883 047c 3A000000 		.4byte	.LVL22
 8884 0480 0100     		.2byte	0x1
 8885 0482 54       		.byte	0x54
 8886 0483 00000000 		.4byte	0
 8887 0487 00000000 		.4byte	0
 8888              	.LLST14:
 8889 048b 00000000 		.4byte	.LFB44
 8890 048f 02000000 		.4byte	.LCFI10
 8891 0493 0200     		.2byte	0x2
 8892 0495 7D       		.byte	0x7d
 8893 0496 00       		.sleb128 0
 8894 0497 02000000 		.4byte	.LCFI10
 8895 049b 04000000 		.4byte	.LCFI11
 8896 049f 0200     		.2byte	0x2
 8897 04a1 7D       		.byte	0x7d
 8898 04a2 08       		.sleb128 8
 8899 04a3 04000000 		.4byte	.LCFI11
 8900 04a7 38000000 		.4byte	.LFE44
 8901 04ab 0200     		.2byte	0x2
 8902 04ad 7D       		.byte	0x7d
 8903 04ae 18       		.sleb128 24
 8904 04af 00000000 		.4byte	0
 8905 04b3 00000000 		.4byte	0
ARM GAS  C:\Users\EBANO_~1\AppData\Local\Temp\ccD2gIpL.s 			page 179


 8906              		.section	.debug_aranges,"",%progbits
 8907 0000 64000000 		.4byte	0x64
 8908 0004 0200     		.2byte	0x2
 8909 0006 00000000 		.4byte	.Ldebug_info0
 8910 000a 04       		.byte	0x4
 8911 000b 00       		.byte	0
 8912 000c 0000     		.2byte	0
 8913 000e 0000     		.2byte	0
 8914 0010 00000000 		.4byte	.LFB42
 8915 0014 18000000 		.4byte	.LFE42-.LFB42
 8916 0018 00000000 		.4byte	.LFB40
 8917 001c 64000000 		.4byte	.LFE40-.LFB40
 8918 0020 00000000 		.4byte	.LFB39
 8919 0024 1E000000 		.4byte	.LFE39-.LFB39
 8920 0028 00000000 		.4byte	.LFB41
 8921 002c 68000000 		.4byte	.LFE41-.LFB41
 8922 0030 00000000 		.4byte	.LFB43
 8923 0034 84010000 		.4byte	.LFE43-.LFB43
 8924 0038 00000000 		.4byte	.LFB44
 8925 003c 38000000 		.4byte	.LFE44-.LFB44
 8926 0040 00000000 		.4byte	.LFB45
 8927 0044 1E000000 		.4byte	.LFE45-.LFB45
 8928 0048 00000000 		.4byte	.LFB46
 8929 004c 78000000 		.4byte	.LFE46-.LFB46
 8930 0050 00000000 		.4byte	.LFB47
 8931 0054 84000000 		.4byte	.LFE47-.LFB47
 8932 0058 00000000 		.4byte	.LFB48
 8933 005c 1C000000 		.4byte	.LFE48-.LFB48
 8934 0060 00000000 		.4byte	0
 8935 0064 00000000 		.4byte	0
 8936              		.section	.debug_ranges,"",%progbits
 8937              	.Ldebug_ranges0:
 8938 0000 0C000000 		.4byte	.LBB7
 8939 0004 44000000 		.4byte	.LBE7
 8940 0008 48000000 		.4byte	.LBB10
 8941 000c 64000000 		.4byte	.LBE10
 8942 0010 00000000 		.4byte	0
 8943 0014 00000000 		.4byte	0
 8944 0018 00000000 		.4byte	.LBB14
 8945 001c 02000000 		.4byte	.LBE14
 8946 0020 06000000 		.4byte	.LBB17
 8947 0024 1A000000 		.4byte	.LBE17
 8948 0028 00000000 		.4byte	0
 8949 002c 00000000 		.4byte	0
 8950 0030 00000000 		.4byte	.LFB42
 8951 0034 18000000 		.4byte	.LFE42
 8952 0038 00000000 		.4byte	.LFB40
 8953 003c 64000000 		.4byte	.LFE40
 8954 0040 00000000 		.4byte	.LFB39
 8955 0044 1E000000 		.4byte	.LFE39
 8956 0048 00000000 		.4byte	.LFB41
 8957 004c 68000000 		.4byte	.LFE41
 8958 0050 00000000 		.4byte	.LFB43
 8959 0054 84010000 		.4byte	.LFE43
 8960 0058 00000000 		.4byte	.LFB44
 8961 005c 38000000 		.4byte	.LFE44
 8962 0060 00000000 		.4byte	.LFB45
ARM GAS  C:\Users\EBANO_~1\AppData\Local\Temp\ccD2gIpL.s 			page 180


 8963 0064 1E000000 		.4byte	.LFE45
 8964 0068 00000000 		.4byte	.LFB46
 8965 006c 78000000 		.4byte	.LFE46
 8966 0070 00000000 		.4byte	.LFB47
 8967 0074 84000000 		.4byte	.LFE47
 8968 0078 00000000 		.4byte	.LFB48
 8969 007c 1C000000 		.4byte	.LFE48
 8970 0080 00000000 		.4byte	0
 8971 0084 00000000 		.4byte	0
 8972              		.section	.debug_line,"",%progbits
 8973              	.Ldebug_line0:
 8974 0000 8D050000 		.section	.debug_str,"MS",%progbits,1
 8974      0200A503 
 8974      00000201 
 8974      FB0E0D00 
 8974      01010101 
 8975              	.LASF265:
 8976 0000 52585F53 		.ascii	"RX_SLOT_WIN_CLASS_C\000"
 8976      4C4F545F 
 8976      57494E5F 
 8976      434C4153 
 8976      535F4300 
 8977              	.LASF408:
 8978 0014 44657269 		.ascii	"DeriveMcSessionKeyPair\000"
 8978      76654D63 
 8978      53657373 
 8978      696F6E4B 
 8978      65795061 
 8979              	.LASF380:
 8980 002b 4D4C4D45 		.ascii	"MLME_BEACON_ACQUISITION\000"
 8980      5F424541 
 8980      434F4E5F 
 8980      41435155 
 8980      49534954 
 8981              	.LASF641:
 8982 0043 4A6F696E 		.ascii	"JoinParameters\000"
 8982      50617261 
 8982      6D657465 
 8982      727300
 8983              	.LASF661:
 8984 0052 4C4F5241 		.ascii	"LORA_RequestClass\000"
 8984      5F526571 
 8984      75657374 
 8984      436C6173 
 8984      7300
 8985              	.LASF146:
 8986 0064 52657669 		.ascii	"Revision\000"
 8986      73696F6E 
 8986      00
 8987              	.LASF157:
 8988 006d 53756253 		.ascii	"SubSeconds\000"
 8988      65636F6E 
 8988      647300
 8989              	.LASF438:
 8990 0078 4D49425F 		.ascii	"MIB_MC_APP_S_KEY_0\000"
 8990      4D435F41 
 8990      50505F53 
ARM GAS  C:\Users\EBANO_~1\AppData\Local\Temp\ccD2gIpL.s 			page 181


 8990      5F4B4559 
 8990      5F3000
 8991              	.LASF441:
 8992 008b 4D49425F 		.ascii	"MIB_MC_APP_S_KEY_1\000"
 8992      4D435F41 
 8992      50505F53 
 8992      5F4B4559 
 8992      5F3100
 8993              	.LASF444:
 8994 009e 4D49425F 		.ascii	"MIB_MC_APP_S_KEY_2\000"
 8994      4D435F41 
 8994      50505F53 
 8994      5F4B4559 
 8994      5F3200
 8995              	.LASF447:
 8996 00b1 4D49425F 		.ascii	"MIB_MC_APP_S_KEY_3\000"
 8996      4D435F41 
 8996      50505F53 
 8996      5F4B4559 
 8996      5F3300
 8997              	.LASF399:
 8998 00c4 44657645 		.ascii	"DevEUI\000"
 8998      554900
 8999              	.LASF131:
 9000 00cb 5F5F6664 		.ascii	"__fdlibm_xopen\000"
 9000      6C69626D 
 9000      5F786F70 
 9000      656E00
 9001              	.LASF650:
 9002 00da 4D6C6D65 		.ascii	"MlmeReqStrings\000"
 9002      52657153 
 9002      7472696E 
 9002      677300
 9003              	.LASF329:
 9004 00e9 66506F72 		.ascii	"fPort\000"
 9004      7400
 9005              	.LASF287:
 9006 00ef 734D756C 		.ascii	"sMulticastChannel\000"
 9006      74696361 
 9006      73744368 
 9006      616E6E65 
 9006      6C00
 9007              	.LASF6:
 9008 0101 5F5F7569 		.ascii	"__uint8_t\000"
 9008      6E74385F 
 9008      7400
 9009              	.LASF330:
 9010 010b 66427566 		.ascii	"fBuffer\000"
 9010      66657200 
 9011              	.LASF159:
 9012 0113 5F426F6F 		.ascii	"_Bool\000"
 9012      6C00
 9013              	.LASF492:
 9014 0119 4170704B 		.ascii	"AppKey\000"
 9014      657900
 9015              	.LASF69:
 9016 0120 5F6D6273 		.ascii	"_mbstate\000"
ARM GAS  C:\Users\EBANO_~1\AppData\Local\Temp\ccD2gIpL.s 			page 182


 9016      74617465 
 9016      00
 9017              	.LASF48:
 9018 0129 5F617465 		.ascii	"_atexit\000"
 9018      78697400 
 9019              	.LASF496:
 9020 0131 464E776B 		.ascii	"FNwkSIntKey\000"
 9020      53496E74 
 9020      4B657900 
 9021              	.LASF400:
 9022 013d 4D6C6D65 		.ascii	"MlmeReqDeriveMcKEKey_t\000"
 9022      52657144 
 9022      65726976 
 9022      654D634B 
 9022      454B6579 
 9023              	.LASF326:
 9024 0154 4D435053 		.ascii	"MCPS_PROPRIETARY\000"
 9024      5F50524F 
 9024      50524945 
 9024      54415259 
 9024      00
 9025              	.LASF219:
 9026 0165 4D435F4E 		.ascii	"MC_NWK_S_KEY_0\000"
 9026      574B5F53 
 9026      5F4B4559 
 9026      5F3000
 9027              	.LASF222:
 9028 0174 4D435F4E 		.ascii	"MC_NWK_S_KEY_1\000"
 9028      574B5F53 
 9028      5F4B4559 
 9028      5F3100
 9029              	.LASF225:
 9030 0183 4D435F4E 		.ascii	"MC_NWK_S_KEY_2\000"
 9030      574B5F53 
 9030      5F4B4559 
 9030      5F3200
 9031              	.LASF228:
 9032 0192 4D435F4E 		.ascii	"MC_NWK_S_KEY_3\000"
 9032      574B5F53 
 9032      5F4B4559 
 9032      5F3300
 9033              	.LASF38:
 9034 01a1 5F5F746D 		.ascii	"__tm_mon\000"
 9034      5F6D6F6E 
 9034      00
 9035              	.LASF46:
 9036 01aa 5F666E74 		.ascii	"_fntypes\000"
 9036      79706573 
 9036      00
 9037              	.LASF373:
 9038 01b3 4D4C4D45 		.ascii	"MLME_TXCW\000"
 9038      5F545843 
 9038      5700
 9039              	.LASF76:
 9040 01bd 5F696E63 		.ascii	"_inc\000"
 9040      00
 9041              	.LASF49:
ARM GAS  C:\Users\EBANO_~1\AppData\Local\Temp\ccD2gIpL.s 			page 183


 9042 01c2 5F696E64 		.ascii	"_ind\000"
 9042      00
 9043              	.LASF303:
 9044 01c7 654C6F52 		.ascii	"eLoRaMacEventInfoStatus\000"
 9044      614D6163 
 9044      4576656E 
 9044      74496E66 
 9044      6F537461 
 9045              	.LASF597:
 9046 01df 4C4F5241 		.ascii	"LORAMAC_NVMCTXMODULE_SECURE_ELEMENT\000"
 9046      4D41435F 
 9046      4E564D43 
 9046      54584D4F 
 9046      44554C45 
 9047              	.LASF197:
 9048 0203 57726974 		.ascii	"WriteBuffer\000"
 9048      65427566 
 9048      66657200 
 9049              	.LASF172:
 9050 020f 52784572 		.ascii	"RxError\000"
 9050      726F7200 
 9051              	.LASF210:
 9052 0217 4A5F535F 		.ascii	"J_S_INT_KEY\000"
 9052      494E545F 
 9052      4B455900 
 9053              	.LASF137:
 9054 0223 75696E74 		.ascii	"uint16_t\000"
 9054      31365F74 
 9054      00
 9055              	.LASF308:
 9056 022c 4C4F5241 		.ascii	"LORAMAC_EVENT_INFO_STATUS_RX2_TIMEOUT\000"
 9056      4D41435F 
 9056      4556454E 
 9056      545F494E 
 9056      464F5F53 
 9057              	.LASF198:
 9058 0252 52656164 		.ascii	"ReadBuffer\000"
 9058      42756666 
 9058      657200
 9059              	.LASF354:
 9060 025d 4D637073 		.ascii	"McpsConfirm_t\000"
 9060      436F6E66 
 9060      69726D5F 
 9060      7400
 9061              	.LASF479:
 9062 026b 4D49425F 		.ascii	"MIB_BEACON_SYMBOL_TO_EXPANSION_MAX\000"
 9062      42454143 
 9062      4F4E5F53 
 9062      594D424F 
 9062      4C5F544F 
 9063              	.LASF55:
 9064 028e 5F666C61 		.ascii	"_flags\000"
 9064      677300
 9065              	.LASF322:
 9066 0295 654D6370 		.ascii	"eMcps\000"
 9066      7300
 9067              	.LASF548:
ARM GAS  C:\Users\EBANO_~1\AppData\Local\Temp\ccD2gIpL.s 			page 184


 9068 029b 4D617842 		.ascii	"MaxBeaconLessPeriod\000"
 9068      6561636F 
 9068      6E4C6573 
 9068      73506572 
 9068      696F6400 
 9069              	.LASF86:
 9070 02af 5F637674 		.ascii	"_cvtlen\000"
 9070      6C656E00 
 9071              	.LASF566:
 9072 02b7 4C4F5241 		.ascii	"LORAMAC_STATUS_NO_NETWORK_JOINED\000"
 9072      4D41435F 
 9072      53544154 
 9072      55535F4E 
 9072      4F5F4E45 
 9073              	.LASF130:
 9074 02d8 5F5F6664 		.ascii	"__fdlibm_svid\000"
 9074      6C69626D 
 9074      5F737669 
 9074      6400
 9075              	.LASF90:
 9076 02e6 5F736967 		.ascii	"_sig_func\000"
 9076      5F66756E 
 9076      6300
 9077              	.LASF309:
 9078 02f0 4C4F5241 		.ascii	"LORAMAC_EVENT_INFO_STATUS_RX1_ERROR\000"
 9078      4D41435F 
 9078      4556454E 
 9078      545F494E 
 9078      464F5F53 
 9079              	.LASF351:
 9080 0314 54785469 		.ascii	"TxTimeOnAir\000"
 9080      6D654F6E 
 9080      41697200 
 9081              	.LASF638:
 9082 0320 4C4F5241 		.ascii	"LORA_TxNeeded\000"
 9082      5F54784E 
 9082      65656465 
 9082      6400
 9083              	.LASF68:
 9084 032e 5F6C6F63 		.ascii	"_lock\000"
 9084      6B00
 9085              	.LASF64:
 9086 0334 5F6E6275 		.ascii	"_nbuf\000"
 9086      6600
 9087              	.LASF245:
 9088 033a 41435449 		.ascii	"ACTIVATION_TYPE_NONE\000"
 9088      56415449 
 9088      4F4E5F54 
 9088      5950455F 
 9088      4E4F4E45 
 9089              	.LASF122:
 9090 034f 5F756E75 		.ascii	"_unused\000"
 9090      73656400 
 9091              	.LASF393:
 9092 0357 734D6C6D 		.ascii	"sMlmeReqPingSlotInfo\000"
 9092      65526571 
 9092      50696E67 
ARM GAS  C:\Users\EBANO_~1\AppData\Local\Temp\ccD2gIpL.s 			page 185


 9092      536C6F74 
 9092      496E666F 
 9093              	.LASF350:
 9094 036c 4E625265 		.ascii	"NbRetries\000"
 9094      74726965 
 9094      7300
 9095              	.LASF603:
 9096 0376 734C6F52 		.ascii	"sLoRaMacPrimitives\000"
 9096      614D6163 
 9096      5072696D 
 9096      69746976 
 9096      657300
 9097              	.LASF171:
 9098 0389 52785469 		.ascii	"RxTimeout\000"
 9098      6D656F75 
 9098      7400
 9099              	.LASF615:
 9100 0393 42756666 		.ascii	"Buff\000"
 9100      00
 9101              	.LASF679:
 9102 0398 4C6F5261 		.ascii	"LoRaMacQueryTxPossible\000"
 9102      4D616351 
 9102      75657279 
 9102      5478506F 
 9102      73736962 
 9103              	.LASF169:
 9104 03af 54785469 		.ascii	"TxTimeout\000"
 9104      6D656F75 
 9104      7400
 9105              	.LASF237:
 9106 03b9 554E4943 		.ascii	"UNICAST_DEV_ADDR\000"
 9106      4153545F 
 9106      4445565F 
 9106      41444452 
 9106      00
 9107              	.LASF560:
 9108 03ca 4C4F5241 		.ascii	"LORAMAC_STATUS_BUSY\000"
 9108      4D41435F 
 9108      53544154 
 9108      55535F42 
 9108      55535900 
 9109              	.LASF454:
 9110 03de 4D49425F 		.ascii	"MIB_CHANNELS_MASK\000"
 9110      4348414E 
 9110      4E454C53 
 9110      5F4D4153 
 9110      4B00
 9111              	.LASF678:
 9112 03f0 63657274 		.ascii	"certif_running\000"
 9112      69665F72 
 9112      756E6E69 
 9112      6E6700
 9113              	.LASF424:
 9114 03ff 4D49425F 		.ascii	"MIB_NETWORK_ACTIVATION\000"
 9114      4E455457 
 9114      4F524B5F 
 9114      41435449 
ARM GAS  C:\Users\EBANO_~1\AppData\Local\Temp\ccD2gIpL.s 			page 186


 9114      56415449 
 9115              	.LASF147:
 9116 0416 4D696E6F 		.ascii	"Minor\000"
 9116      7200
 9117              	.LASF286:
 9118 041c 4C6F5261 		.ascii	"LoRaMacCtxs_t\000"
 9118      4D616343 
 9118      7478735F 
 9118      7400
 9119              	.LASF667:
 9120 042a 6D6C6D65 		.ascii	"mlmeReq\000"
 9120      52657100 
 9121              	.LASF178:
 9122 0432 496F4465 		.ascii	"IoDeInit\000"
 9122      496E6974 
 9122      00
 9123              	.LASF446:
 9124 043b 4D49425F 		.ascii	"MIB_MC_KEY_3\000"
 9124      4D435F4B 
 9124      45595F33 
 9124      00
 9125              	.LASF398:
 9126 0448 4E6F6E63 		.ascii	"Nonce\000"
 9126      6500
 9127              	.LASF429:
 9128 044e 4D49425F 		.ascii	"MIB_NWK_KEY\000"
 9128      4E574B5F 
 9128      4B455900 
 9129              	.LASF100:
 9130 045a 5F616464 		.ascii	"_add\000"
 9130      00
 9131              	.LASF155:
 9132 045f 53797354 		.ascii	"SysTime_s\000"
 9132      696D655F 
 9132      7300
 9133              	.LASF158:
 9134 0469 53797354 		.ascii	"SysTime_t\000"
 9134      696D655F 
 9134      7400
 9135              	.LASF630:
 9136 0473 734C6F52 		.ascii	"sLoRaMainCallback\000"
 9136      614D6169 
 9136      6E43616C 
 9136      6C626163 
 9136      6B00
 9137              	.LASF163:
 9138 0485 52465F49 		.ascii	"RF_IDLE\000"
 9138      444C4500 
 9139              	.LASF425:
 9140 048d 4D49425F 		.ascii	"MIB_ADR\000"
 9140      41445200 
 9141              	.LASF419:
 9142 0495 4D6C6D65 		.ascii	"MlmeIndication\000"
 9142      496E6469 
 9142      63617469 
 9142      6F6E00
 9143              	.LASF486:
ARM GAS  C:\Users\EBANO_~1\AppData\Local\Temp\ccD2gIpL.s 			page 187


 9144 04a4 754D6962 		.ascii	"uMibParam\000"
 9144      50617261 
 9144      6D00
 9145              	.LASF209:
 9146 04ae 4E574B5F 		.ascii	"NWK_KEY\000"
 9146      4B455900 
 9147              	.LASF576:
 9148 04b6 4C4F5241 		.ascii	"LORAMAC_STATUS_CRYPTO_ERROR\000"
 9148      4D41435F 
 9148      53544154 
 9148      55535F43 
 9148      52595054 
 9149              	.LASF658:
 9150 04d2 63757272 		.ascii	"currentClass\000"
 9150      656E7443 
 9150      6C617373 
 9150      00
 9151              	.LASF392:
 9152 04df 4D6C6D65 		.ascii	"MlmeReqTxCw_t\000"
 9152      52657154 
 9152      7843775F 
 9152      7400
 9153              	.LASF614:
 9154 04ed 4C6F5261 		.ascii	"LoRaMacCallback_t\000"
 9154      4D616343 
 9154      616C6C62 
 9154      61636B5F 
 9154      7400
 9155              	.LASF379:
 9156 04ff 4D4C4D45 		.ascii	"MLME_BEACON\000"
 9156      5F424541 
 9156      434F4E00 
 9157              	.LASF410:
 9158 050b 4D6C6D65 		.ascii	"MlmeReq_t\000"
 9158      5265715F 
 9158      7400
 9159              	.LASF57:
 9160 0515 5F6C6266 		.ascii	"_lbfsize\000"
 9160      73697A65 
 9160      00
 9161              	.LASF498:
 9162 051e 4E776B53 		.ascii	"NwkSEncKey\000"
 9162      456E634B 
 9162      657900
 9163              	.LASF328:
 9164 0529 734D6370 		.ascii	"sMcpsReqUnconfirmed\000"
 9164      73526571 
 9164      556E636F 
 9164      6E666972 
 9164      6D656400 
 9165              	.LASF539:
 9166 053d 42656163 		.ascii	"BeaconGuard\000"
 9166      6F6E4775 
 9166      61726400 
 9167              	.LASF176:
 9168 0549 52616469 		.ascii	"Radio_s\000"
 9168      6F5F7300 
ARM GAS  C:\Users\EBANO_~1\AppData\Local\Temp\ccD2gIpL.s 			page 188


 9169              	.LASF416:
 9170 0551 42656163 		.ascii	"BeaconTimingChannel\000"
 9170      6F6E5469 
 9170      6D696E67 
 9170      4368616E 
 9170      6E656C00 
 9171              	.LASF526:
 9172 0565 4368616E 		.ascii	"ChannelsDefaultDatarate\000"
 9172      6E656C73 
 9172      44656661 
 9172      756C7444 
 9172      61746172 
 9173              	.LASF450:
 9174 057d 4D49425F 		.ascii	"MIB_REPEATER_SUPPORT\000"
 9174      52455045 
 9174      41544552 
 9174      5F535550 
 9174      504F5254 
 9175              	.LASF67:
 9176 0592 5F646174 		.ascii	"_data\000"
 9176      6100
 9177              	.LASF199:
 9178 0598 5365744D 		.ascii	"SetMaxPayloadLength\000"
 9178      61785061 
 9178      796C6F61 
 9178      644C656E 
 9178      67746800 
 9179              	.LASF596:
 9180 05ac 4C4F5241 		.ascii	"LORAMAC_NVMCTXMODULE_CRYPTO\000"
 9180      4D41435F 
 9180      4E564D43 
 9180      54584D4F 
 9180      44554C45 
 9181              	.LASF422:
 9182 05c8 654D6962 		.ascii	"eMib\000"
 9182      00
 9183              	.LASF153:
 9184 05cd 5F646179 		.ascii	"_daylight\000"
 9184      6C696768 
 9184      7400
 9185              	.LASF558:
 9186 05d7 654C6F52 		.ascii	"eLoRaMacStatus\000"
 9186      614D6163 
 9186      53746174 
 9186      757300
 9187              	.LASF123:
 9188 05e6 5F5F6C6F 		.ascii	"__lock\000"
 9188      636B00
 9189              	.LASF71:
 9190 05ed 5F726565 		.ascii	"_reent\000"
 9190      6E7400
 9191              	.LASF625:
 9192 05f4 4C4F5241 		.ascii	"LORAWAN_CONFIRMED_MSG\000"
 9192      57414E5F 
 9192      434F4E46 
 9192      49524D45 
 9192      445F4D53 
ARM GAS  C:\Users\EBANO_~1\AppData\Local\Temp\ccD2gIpL.s 			page 189


 9193              	.LASF570:
 9194 060a 4C4F5241 		.ascii	"LORAMAC_STATUS_DUTYCYCLE_RESTRICTED\000"
 9194      4D41435F 
 9194      53544154 
 9194      55535F44 
 9194      55545943 
 9195              	.LASF680:
 9196 062e 4C6F5261 		.ascii	"LoRaMacMcpsRequest\000"
 9196      4D61634D 
 9196      63707352 
 9196      65717565 
 9196      737400
 9197              	.LASF684:
 9198 0641 63657274 		.ascii	"certif_DownLinkIncrement\000"
 9198      69665F44 
 9198      6F776E4C 
 9198      696E6B49 
 9198      6E637265 
 9199              	.LASF191:
 9200 065a 5374616E 		.ascii	"Standby\000"
 9200      64627900 
 9201              	.LASF92:
 9202 0662 5F5F7366 		.ascii	"__sf\000"
 9202      00
 9203              	.LASF432:
 9204 0667 4D49425F 		.ascii	"MIB_F_NWK_S_INT_KEY\000"
 9204      465F4E57 
 9204      4B5F535F 
 9204      494E545F 
 9204      4B455900 
 9205              	.LASF238:
 9206 067b 41646472 		.ascii	"AddressIdentifier_t\000"
 9206      65737349 
 9206      64656E74 
 9206      69666965 
 9206      725F7400 
 9207              	.LASF52:
 9208 068f 5F626173 		.ascii	"_base\000"
 9208      6500
 9209              	.LASF195:
 9210 0695 57726974 		.ascii	"Write\000"
 9210      6500
 9211              	.LASF109:
 9212 069b 5F6D6274 		.ascii	"_mbtowc_state\000"
 9212      6F77635F 
 9212      73746174 
 9212      6500
 9213              	.LASF595:
 9214 06a9 4C4F5241 		.ascii	"LORAMAC_NVMCTXMODULE_REGION\000"
 9214      4D41435F 
 9214      4E564D43 
 9214      54584D4F 
 9214      44554C45 
 9215              	.LASF431:
 9216 06c5 4D49425F 		.ascii	"MIB_J_S_ENC_KEY\000"
 9216      4A5F535F 
 9216      454E435F 
ARM GAS  C:\Users\EBANO_~1\AppData\Local\Temp\ccD2gIpL.s 			page 190


 9216      4B455900 
 9217              	.LASF689:
 9218 06d5 2E2E2F2E 		.ascii	"../../../../../../Middlewares/Third_Party/LoRaWAN/C"
 9218      2E2F2E2E 
 9218      2F2E2E2F 
 9218      2E2E2F2E 
 9218      2E2F4D69 
 9219 0708 6F72652F 		.ascii	"ore/lora.c\000"
 9219      6C6F7261 
 9219      2E6300
 9220              	.LASF513:
 9221 0713 456E6162 		.ascii	"EnablePublicNetwork\000"
 9221      6C655075 
 9221      626C6963 
 9221      4E657477 
 9221      6F726B00 
 9222              	.LASF436:
 9223 0727 4D49425F 		.ascii	"MIB_MC_KE_KEY\000"
 9223      4D435F4B 
 9223      455F4B45 
 9223      5900
 9224              	.LASF427:
 9225 0735 4D49425F 		.ascii	"MIB_DEV_ADDR\000"
 9225      4445565F 
 9225      41444452 
 9225      00
 9226              	.LASF232:
 9227 0742 65416464 		.ascii	"eAddressIdentifier\000"
 9227      72657373 
 9227      4964656E 
 9227      74696669 
 9227      657200
 9228              	.LASF270:
 9229 0755 4D61634E 		.ascii	"MacNvmCtx\000"
 9229      766D4374 
 9229      7800
 9230              	.LASF657:
 9231 075f 6D696247 		.ascii	"mibGet\000"
 9231      657400
 9232              	.LASF607:
 9233 0766 4D61634D 		.ascii	"MacMlmeIndication\000"
 9233      6C6D6549 
 9233      6E646963 
 9233      6174696F 
 9233      6E00
 9234              	.LASF196:
 9235 0778 52656164 		.ascii	"Read\000"
 9235      00
 9236              	.LASF33:
 9237 077d 5F5F746D 		.ascii	"__tm\000"
 9237      00
 9238              	.LASF589:
 9239 0782 4C4F5241 		.ascii	"LORAMAC_REGION_KR920\000"
 9239      4D41435F 
 9239      52454749 
 9239      4F4E5F4B 
 9239      52393230 
ARM GAS  C:\Users\EBANO_~1\AppData\Local\Temp\ccD2gIpL.s 			page 191


 9240              	.LASF231:
 9241 0797 4B657949 		.ascii	"KeyIdentifier_t\000"
 9241      64656E74 
 9241      69666965 
 9241      725F7400 
 9242              	.LASF527:
 9243 07a7 4368616E 		.ascii	"ChannelsDatarate\000"
 9243      6E656C73 
 9243      44617461 
 9243      72617465 
 9243      00
 9244              	.LASF41:
 9245 07b8 5F5F746D 		.ascii	"__tm_yday\000"
 9245      5F796461 
 9245      7900
 9246              	.LASF483:
 9247 07c2 4D49425F 		.ascii	"MIB_MAX_BEACON_LESS_PERIOD\000"
 9247      4D41585F 
 9247      42454143 
 9247      4F4E5F4C 
 9247      4553535F 
 9248              	.LASF494:
 9249 07dd 4A53496E 		.ascii	"JSIntKey\000"
 9249      744B6579 
 9249      00
 9250              	.LASF16:
 9251 07e6 5F4C4F43 		.ascii	"_LOCK_T\000"
 9251      4B5F5400 
 9252              	.LASF256:
 9253 07ee 44725261 		.ascii	"DrRange\000"
 9253      6E676500 
 9254              	.LASF203:
 9255 07f6 5278426F 		.ascii	"RxBoosted\000"
 9255      6F737465 
 9255      6400
 9256              	.LASF8:
 9257 0800 5F5F696E 		.ascii	"__int16_t\000"
 9257      7431365F 
 9257      7400
 9258              	.LASF475:
 9259 080a 4D49425F 		.ascii	"MIB_BEACON_WINDOW\000"
 9259      42454143 
 9259      4F4E5F57 
 9259      494E444F 
 9259      5700
 9260              	.LASF10:
 9261 081c 5F5F7569 		.ascii	"__uint16_t\000"
 9261      6E743136 
 9261      5F7400
 9262              	.LASF101:
 9263 0827 5F756E75 		.ascii	"_unused_rand\000"
 9263      7365645F 
 9263      72616E64 
 9263      00
 9264              	.LASF217:
 9265 0834 4D435F4B 		.ascii	"MC_KEY_0\000"
 9265      45595F30 
ARM GAS  C:\Users\EBANO_~1\AppData\Local\Temp\ccD2gIpL.s 			page 192


 9265      00
 9266              	.LASF220:
 9267 083d 4D435F4B 		.ascii	"MC_KEY_1\000"
 9267      45595F31 
 9267      00
 9268              	.LASF223:
 9269 0846 4D435F4B 		.ascii	"MC_KEY_2\000"
 9269      45595F32 
 9269      00
 9270              	.LASF226:
 9271 084f 4D435F4B 		.ascii	"MC_KEY_3\000"
 9271      45595F33 
 9271      00
 9272              	.LASF295:
 9273 0858 50696E67 		.ascii	"PingSlotInfo_t\000"
 9273      536C6F74 
 9273      496E666F 
 9273      5F7400
 9274              	.LASF83:
 9275 0867 5F726573 		.ascii	"_result_k\000"
 9275      756C745F 
 9275      6B00
 9276              	.LASF75:
 9277 0871 5F737464 		.ascii	"_stderr\000"
 9277      65727200 
 9278              	.LASF82:
 9279 0879 5F726573 		.ascii	"_result\000"
 9279      756C7400 
 9280              	.LASF45:
 9281 0881 5F64736F 		.ascii	"_dso_handle\000"
 9281      5F68616E 
 9281      646C6500 
 9282              	.LASF418:
 9283 088d 734D6C6D 		.ascii	"sMlmeIndication\000"
 9283      65496E64 
 9283      69636174 
 9283      696F6E00 
 9284              	.LASF547:
 9285 089d 50696E67 		.ascii	"PingSlotSymbolToExpansionFactor\000"
 9285      536C6F74 
 9285      53796D62 
 9285      6F6C546F 
 9285      45787061 
 9286              	.LASF652:
 9287 08bd 7374696D 		.ascii	"stime\000"
 9287      6500
 9288              	.LASF656:
 9289 08c3 6D637073 		.ascii	"mcpsConfirm\000"
 9289      436F6E66 
 9289      69726D00 
 9290              	.LASF363:
 9291 08cf 52784461 		.ascii	"RxData\000"
 9291      746100
 9292              	.LASF40:
 9293 08d6 5F5F746D 		.ascii	"__tm_wday\000"
 9293      5F776461 
 9293      7900
ARM GAS  C:\Users\EBANO_~1\AppData\Local\Temp\ccD2gIpL.s 			page 193


 9294              	.LASF42:
 9295 08e0 5F5F746D 		.ascii	"__tm_isdst\000"
 9295      5F697364 
 9295      737400
 9296              	.LASF133:
 9297 08eb 5F5F6664 		.ascii	"__fdlib_version\000"
 9297      6C69625F 
 9297      76657273 
 9297      696F6E00 
 9298              	.LASF339:
 9299 08fb 556E636F 		.ascii	"Unconfirmed\000"
 9299      6E666972 
 9299      6D656400 
 9300              	.LASF567:
 9301 0907 4C4F5241 		.ascii	"LORAMAC_STATUS_LENGTH_ERROR\000"
 9301      4D41435F 
 9301      53544154 
 9301      55535F4C 
 9301      454E4754 
 9302              	.LASF489:
 9303 0923 41647245 		.ascii	"AdrEnable\000"
 9303      6E61626C 
 9303      6500
 9304              	.LASF7:
 9305 092d 756E7369 		.ascii	"unsigned char\000"
 9305      676E6564 
 9305      20636861 
 9305      7200
 9306              	.LASF74:
 9307 093b 5F737464 		.ascii	"_stdout\000"
 9307      6F757400 
 9308              	.LASF236:
 9309 0943 4D554C54 		.ascii	"MULTICAST_3_ADDR\000"
 9309      49434153 
 9309      545F335F 
 9309      41444452 
 9309      00
 9310              	.LASF259:
 9311 0954 73527832 		.ascii	"sRx2ChannelParams\000"
 9311      4368616E 
 9311      6E656C50 
 9311      6172616D 
 9311      7300
 9312              	.LASF472:
 9313 0966 4D49425F 		.ascii	"MIB_BEACON_INTERVAL\000"
 9313      42454143 
 9313      4F4E5F49 
 9313      4E544552 
 9313      56414C00 
 9314              	.LASF645:
 9315 097a 6D696252 		.ascii	"mibReq\000"
 9315      657100
 9316              	.LASF116:
 9317 0981 5F6D6273 		.ascii	"_mbsrtowcs_state\000"
 9317      72746F77 
 9317      63735F73 
 9317      74617465 
ARM GAS  C:\Users\EBANO_~1\AppData\Local\Temp\ccD2gIpL.s 			page 194


 9317      00
 9318              	.LASF522:
 9319 0992 52656365 		.ascii	"ReceiveDelay1\000"
 9319      69766544 
 9319      656C6179 
 9319      3100
 9320              	.LASF31:
 9321 09a0 5F776473 		.ascii	"_wds\000"
 9321      00
 9322              	.LASF252:
 9323 09a5 44725261 		.ascii	"DrRange_t\000"
 9323      6E67655F 
 9323      7400
 9324              	.LASF127:
 9325 09af 666C6F61 		.ascii	"float\000"
 9325      7400
 9326              	.LASF288:
 9327 09b5 41646472 		.ascii	"AddrID\000"
 9327      494400
 9328              	.LASF690:
 9329 09bc 443A5C67 		.ascii	"D:\\git_pessoal\\keil_gcc\\STM32CubeExpansion_LRWAN"
 9329      69745F70 
 9329      6573736F 
 9329      616C5C6B 
 9329      65696C5F 
 9330 09ec 5F56312E 		.ascii	"_V1.2.1\\Projects\\B-L072Z-LRWAN1\\Applications\\Lo"
 9330      322E315C 
 9330      50726F6A 
 9330      65637473 
 9330      5C422D4C 
 9331 0a1b 52615C45 		.ascii	"Ra\\End_Node\\MDK-ARM\000"
 9331      6E645F4E 
 9331      6F64655C 
 9331      4D444B2D 
 9331      41524D00 
 9332              	.LASF669:
 9333 0a2f 4C4F5241 		.ascii	"LORA_Init\000"
 9333      5F496E69 
 9333      7400
 9334              	.LASF453:
 9335 0a39 4D49425F 		.ascii	"MIB_RX2_DEFAULT_CHANNEL\000"
 9335      5258325F 
 9335      44454641 
 9335      554C545F 
 9335      4348414E 
 9336              	.LASF53:
 9337 0a51 5F73697A 		.ascii	"_size\000"
 9337      6500
 9338              	.LASF411:
 9339 0a57 734D6C6D 		.ascii	"sMlmeConfirm\000"
 9339      65436F6E 
 9339      6669726D 
 9339      00
 9340              	.LASF553:
 9341 0a64 4D696252 		.ascii	"MibRequestConfirm_t\000"
 9341      65717565 
 9341      7374436F 
ARM GAS  C:\Users\EBANO_~1\AppData\Local\Temp\ccD2gIpL.s 			page 195


 9341      6E666972 
 9341      6D5F7400 
 9342              	.LASF437:
 9343 0a78 4D49425F 		.ascii	"MIB_MC_KEY_0\000"
 9343      4D435F4B 
 9343      45595F30 
 9343      00
 9344              	.LASF440:
 9345 0a85 4D49425F 		.ascii	"MIB_MC_KEY_1\000"
 9345      4D435F4B 
 9345      45595F31 
 9345      00
 9346              	.LASF443:
 9347 0a92 4D49425F 		.ascii	"MIB_MC_KEY_2\000"
 9347      4D435F4B 
 9347      45595F32 
 9347      00
 9348              	.LASF317:
 9349 0a9f 4C4F5241 		.ascii	"LORAMAC_EVENT_INFO_STATUS_MULTICAST_FAIL\000"
 9349      4D41435F 
 9349      4556454E 
 9349      545F494E 
 9349      464F5F53 
 9350              	.LASF60:
 9351 0ac8 5F777269 		.ascii	"_write\000"
 9351      746500
 9352              	.LASF481:
 9353 0acf 4D49425F 		.ascii	"MIB_BEACON_SYMBOL_TO_EXPANSION_FACTOR\000"
 9353      42454143 
 9353      4F4E5F53 
 9353      594D424F 
 9353      4C5F544F 
 9354              	.LASF345:
 9355 0af5 734D6370 		.ascii	"sMcpsConfirm\000"
 9355      73436F6E 
 9355      6669726D 
 9355      00
 9356              	.LASF612:
 9357 0b02 4E766D43 		.ascii	"NvmContextChange\000"
 9357      6F6E7465 
 9357      78744368 
 9357      616E6765 
 9357      00
 9358              	.LASF382:
 9359 0b13 4D4C4D45 		.ascii	"MLME_BEACON_TIMING\000"
 9359      5F424541 
 9359      434F4E5F 
 9359      54494D49 
 9359      4E4700
 9360              	.LASF181:
 9361 0b26 5365744D 		.ascii	"SetModem\000"
 9361      6F64656D 
 9361      00
 9362              	.LASF364:
 9363 0b2f 5278536C 		.ascii	"RxSlot\000"
 9363      6F7400
 9364              	.LASF562:
ARM GAS  C:\Users\EBANO_~1\AppData\Local\Temp\ccD2gIpL.s 			page 196


 9365 0b36 4C4F5241 		.ascii	"LORAMAC_STATUS_PARAMETER_INVALID\000"
 9365      4D41435F 
 9365      53544154 
 9365      55535F50 
 9365      4152414D 
 9366              	.LASF367:
 9367 0b57 4D637073 		.ascii	"McpsIndication_t\000"
 9367      496E6469 
 9367      63617469 
 9367      6F6E5F74 
 9367      00
 9368              	.LASF168:
 9369 0b68 5478446F 		.ascii	"TxDone\000"
 9369      6E6500
 9370              	.LASF426:
 9371 0b6f 4D49425F 		.ascii	"MIB_NET_ID\000"
 9371      4E45545F 
 9371      494400
 9372              	.LASF39:
 9373 0b7a 5F5F746D 		.ascii	"__tm_year\000"
 9373      5F796561 
 9373      7200
 9374              	.LASF251:
 9375 0b84 75447252 		.ascii	"uDrRange\000"
 9375      616E6765 
 9375      00
 9376              	.LASF257:
 9377 0b8d 42616E64 		.ascii	"Band\000"
 9377      00
 9378              	.LASF294:
 9379 0b92 7550696E 		.ascii	"uPingSlotInfo\000"
 9379      67536C6F 
 9379      74496E66 
 9379      6F00
 9380              	.LASF310:
 9381 0ba0 4C4F5241 		.ascii	"LORAMAC_EVENT_INFO_STATUS_RX2_ERROR\000"
 9381      4D41435F 
 9381      4556454E 
 9381      545F494E 
 9381      464F5F53 
 9382              	.LASF205:
 9383 0bc4 52616469 		.ascii	"Radio\000"
 9383      6F00
 9384              	.LASF688:
 9385 0bca 474E5520 		.ascii	"GNU C11 7.3.1 20180622 (release) [ARM/embedded-7-br"
 9385      43313120 
 9385      372E332E 
 9385      31203230 
 9385      31383036 
 9386 0bfd 616E6368 		.ascii	"anch revision 261907] -mcpu=cortex-m0plus -mthumb -"
 9386      20726576 
 9386      6973696F 
 9386      6E203236 
 9386      31393037 
 9387 0c30 6D666C6F 		.ascii	"mfloat-abi=soft -gdwarf-2 -O3 -ffunction-sections\000"
 9387      61742D61 
 9387      62693D73 
ARM GAS  C:\Users\EBANO_~1\AppData\Local\Temp\ccD2gIpL.s 			page 197


 9387      6F667420 
 9387      2D676477 
 9388              	.LASF99:
 9389 0c62 5F6D756C 		.ascii	"_mult\000"
 9389      7400
 9390              	.LASF480:
 9391 0c68 4D49425F 		.ascii	"MIB_PING_SLOT_SYMBOL_TO_EXPANSION_MAX\000"
 9391      50494E47 
 9391      5F534C4F 
 9391      545F5359 
 9391      4D424F4C 
 9392              	.LASF192:
 9393 0c8e 53746172 		.ascii	"StartCad\000"
 9393      74436164 
 9393      00
 9394              	.LASF156:
 9395 0c97 5365636F 		.ascii	"Seconds\000"
 9395      6E647300 
 9396              	.LASF114:
 9397 0c9f 5F6D6272 		.ascii	"_mbrlen_state\000"
 9397      6C656E5F 
 9397      73746174 
 9397      6500
 9398              	.LASF291:
 9399 0cad 50657269 		.ascii	"Periodicity\000"
 9399      6F646963 
 9399      69747900 
 9400              	.LASF218:
 9401 0cb9 4D435F41 		.ascii	"MC_APP_S_KEY_0\000"
 9401      50505F53 
 9401      5F4B4559 
 9401      5F3000
 9402              	.LASF221:
 9403 0cc8 4D435F41 		.ascii	"MC_APP_S_KEY_1\000"
 9403      50505F53 
 9403      5F4B4559 
 9403      5F3100
 9404              	.LASF224:
 9405 0cd7 4D435F41 		.ascii	"MC_APP_S_KEY_2\000"
 9405      50505F53 
 9405      5F4B4559 
 9405      5F3200
 9406              	.LASF227:
 9407 0ce6 4D435F41 		.ascii	"MC_APP_S_KEY_3\000"
 9407      50505F53 
 9407      5F4B4559 
 9407      5F3300
 9408              	.LASF577:
 9409 0cf5 4C4F5241 		.ascii	"LORAMAC_STATUS_FCNT_HANDLER_ERROR\000"
 9409      4D41435F 
 9409      53544154 
 9409      55535F46 
 9409      434E545F 
 9410              	.LASF439:
 9411 0d17 4D49425F 		.ascii	"MIB_MC_NWK_S_KEY_0\000"
 9411      4D435F4E 
 9411      574B5F53 
ARM GAS  C:\Users\EBANO_~1\AppData\Local\Temp\ccD2gIpL.s 			page 198


 9411      5F4B4559 
 9411      5F3000
 9412              	.LASF442:
 9413 0d2a 4D49425F 		.ascii	"MIB_MC_NWK_S_KEY_1\000"
 9413      4D435F4E 
 9413      574B5F53 
 9413      5F4B4559 
 9413      5F3100
 9414              	.LASF445:
 9415 0d3d 4D49425F 		.ascii	"MIB_MC_NWK_S_KEY_2\000"
 9415      4D435F4E 
 9415      574B5F53 
 9415      5F4B4559 
 9415      5F3200
 9416              	.LASF333:
 9417 0d50 734D6370 		.ascii	"sMcpsReqConfirmed\000"
 9417      73526571 
 9417      436F6E66 
 9417      69726D65 
 9417      6400
 9418              	.LASF170:
 9419 0d62 5278446F 		.ascii	"RxDone\000"
 9419      6E6500
 9420              	.LASF73:
 9421 0d69 5F737464 		.ascii	"_stdin\000"
 9421      696E00
 9422              	.LASF538:
 9423 0d70 42656163 		.ascii	"BeaconReserved\000"
 9423      6F6E5265 
 9423      73657276 
 9423      656400
 9424              	.LASF121:
 9425 0d7f 5F6E6D61 		.ascii	"_nmalloc\000"
 9425      6C6C6F63 
 9425      00
 9426              	.LASF384:
 9427 0d88 4D6C6D65 		.ascii	"Mlme_t\000"
 9427      5F7400
 9428              	.LASF212:
 9429 0d8f 465F4E57 		.ascii	"F_NWK_S_INT_KEY\000"
 9429      4B5F535F 
 9429      494E545F 
 9429      4B455900 
 9430              	.LASF184:
 9431 0d9f 52616E64 		.ascii	"Random\000"
 9431      6F6D00
 9432              	.LASF514:
 9433 0da6 456E6162 		.ascii	"EnableRepeaterSupport\000"
 9433      6C655265 
 9433      70656174 
 9433      65725375 
 9433      70706F72 
 9434              	.LASF343:
 9435 0dbc 54797065 		.ascii	"Type\000"
 9435      00
 9436              	.LASF244:
 9437 0dc1 65416374 		.ascii	"eActivationType\000"
ARM GAS  C:\Users\EBANO_~1\AppData\Local\Temp\ccD2gIpL.s 			page 199


 9437      69766174 
 9437      696F6E54 
 9437      79706500 
 9438              	.LASF555:
 9439 0dd1 4D617850 		.ascii	"MaxPossibleApplicationDataSize\000"
 9439      6F737369 
 9439      626C6541 
 9439      70706C69 
 9439      63617469 
 9440              	.LASF407:
 9441 0df0 44657269 		.ascii	"DeriveMcKEKey\000"
 9441      76654D63 
 9441      4B454B65 
 9441      7900
 9442              	.LASF552:
 9443 0dfe 50617261 		.ascii	"Param\000"
 9443      6D00
 9444              	.LASF660:
 9445 0e04 4572726F 		.ascii	"Errorstatus\000"
 9445      72737461 
 9445      74757300 
 9446              	.LASF17:
 9447 0e10 5F6F6666 		.ascii	"_off_t\000"
 9447      5F7400
 9448              	.LASF145:
 9449 0e17 56657273 		.ascii	"Version_s\000"
 9449      696F6E5F 
 9449      7300
 9450              	.LASF151:
 9451 0e21 56657273 		.ascii	"Version_t\000"
 9451      696F6E5F 
 9451      7400
 9452              	.LASF250:
 9453 0e2b 56657273 		.ascii	"Version_u\000"
 9453      696F6E5F 
 9453      7500
 9454              	.LASF3:
 9455 0e35 73697A65 		.ascii	"size_t\000"
 9455      5F7400
 9456              	.LASF104:
 9457 0e3c 5F6C6F63 		.ascii	"_localtime_buf\000"
 9457      616C7469 
 9457      6D655F62 
 9457      756600
 9458              	.LASF22:
 9459 0e4b 5F5F636F 		.ascii	"__count\000"
 9459      756E7400 
 9460              	.LASF135:
 9461 0e53 75696E74 		.ascii	"uint8_t\000"
 9461      385F7400 
 9462              	.LASF587:
 9463 0e5b 4C4F5241 		.ascii	"LORAMAC_REGION_EU433\000"
 9463      4D41435F 
 9463      52454749 
 9463      4F4E5F45 
 9463      55343333 
 9464              	.LASF681:
ARM GAS  C:\Users\EBANO_~1\AppData\Local\Temp\ccD2gIpL.s 			page 200


 9465 0e70 4C6F5261 		.ascii	"LoRaMacInitialization\000"
 9465      4D616349 
 9465      6E697469 
 9465      616C697A 
 9465      6174696F 
 9466              	.LASF541:
 9467 0e86 42656163 		.ascii	"BeaconWindowSlots\000"
 9467      6F6E5769 
 9467      6E646F77 
 9467      536C6F74 
 9467      7300
 9468              	.LASF406:
 9469 0e98 50696E67 		.ascii	"PingSlotInfo\000"
 9469      536C6F74 
 9469      496E666F 
 9469      00
 9470              	.LASF262:
 9471 0ea5 654C6F52 		.ascii	"eLoRaMacRxSlot\000"
 9471      614D6163 
 9471      5278536C 
 9471      6F7400
 9472              	.LASF87:
 9473 0eb4 5F637674 		.ascii	"_cvtbuf\000"
 9473      62756600 
 9474              	.LASF375:
 9475 0ebc 4D4C4D45 		.ascii	"MLME_SCHEDULE_UPLINK\000"
 9475      5F534348 
 9475      4544554C 
 9475      455F5550 
 9475      4C494E4B 
 9476              	.LASF599:
 9477 0ed1 4C4F5241 		.ascii	"LORAMAC_NVMCTXMODULE_CLASS_B\000"
 9477      4D41435F 
 9477      4E564D43 
 9477      54584D4F 
 9477      44554C45 
 9478              	.LASF593:
 9479 0eee 4C6F5261 		.ascii	"LoRaMacNvmCtxModule_e\000"
 9479      4D61634E 
 9479      766D4374 
 9479      784D6F64 
 9479      756C655F 
 9480              	.LASF457:
 9481 0f04 4D49425F 		.ascii	"MIB_MAX_RX_WINDOW_DURATION\000"
 9481      4D41585F 
 9481      52585F57 
 9481      494E444F 
 9481      575F4455 
 9482              	.LASF602:
 9483 0f1f 4C6F5261 		.ascii	"LoRaMacNvmCtxModule_t\000"
 9483      4D61634E 
 9483      766D4374 
 9483      784D6F64 
 9483      756C655F 
 9484              	.LASF549:
 9485 0f35 50696E67 		.ascii	"PingSlotDatarate\000"
 9485      536C6F74 
ARM GAS  C:\Users\EBANO_~1\AppData\Local\Temp\ccD2gIpL.s 			page 201


 9485      44617461 
 9485      72617465 
 9485      00
 9486              	.LASF267:
 9487 0f46 52585F53 		.ascii	"RX_SLOT_WIN_MULTICAST_SLOT\000"
 9487      4C4F545F 
 9487      57494E5F 
 9487      4D554C54 
 9487      49434153 
 9488              	.LASF204:
 9489 0f61 53657452 		.ascii	"SetRxDutyCycle\000"
 9489      78447574 
 9489      79437963 
 9489      6C6500
 9490              	.LASF341:
 9491 0f70 50726F70 		.ascii	"Proprietary\000"
 9491      72696574 
 9491      61727900 
 9492              	.LASF611:
 9493 0f7c 47657454 		.ascii	"GetTemperatureLevel\000"
 9493      656D7065 
 9493      72617475 
 9493      72654C65 
 9493      76656C00 
 9494              	.LASF360:
 9495 0f90 4672616D 		.ascii	"FramePending\000"
 9495      6550656E 
 9495      64696E67 
 9495      00
 9496              	.LASF682:
 9497 0f9d 4C6F5261 		.ascii	"LoRaMacTestSetDutyCycleOn\000"
 9497      4D616354 
 9497      65737453 
 9497      65744475 
 9497      74794379 
 9498              	.LASF499:
 9499 0fb7 41707053 		.ascii	"AppSKey\000"
 9499      4B657900 
 9500              	.LASF21:
 9501 0fbf 5F5F7763 		.ascii	"__wchb\000"
 9501      686200
 9502              	.LASF115:
 9503 0fc6 5F6D6272 		.ascii	"_mbrtowc_state\000"
 9503      746F7763 
 9503      5F737461 
 9503      746500
 9504              	.LASF36:
 9505 0fd5 5F5F746D 		.ascii	"__tm_hour\000"
 9505      5F686F75 
 9505      7200
 9506              	.LASF160:
 9507 0fdf 4D4F4445 		.ascii	"MODEM_FSK\000"
 9507      4D5F4653 
 9507      4B00
 9508              	.LASF261:
 9509 0fe9 52783243 		.ascii	"Rx2ChannelParams_t\000"
 9509      68616E6E 
ARM GAS  C:\Users\EBANO_~1\AppData\Local\Temp\ccD2gIpL.s 			page 202


 9509      656C5061 
 9509      72616D73 
 9509      5F7400
 9510              	.LASF19:
 9511 0ffc 77696E74 		.ascii	"wint_t\000"
 9511      5F7400
 9512              	.LASF88:
 9513 1003 5F6E6577 		.ascii	"_new\000"
 9513      00
 9514              	.LASF190:
 9515 1008 536C6565 		.ascii	"Sleep\000"
 9515      7000
 9516              	.LASF435:
 9517 100e 4D49425F 		.ascii	"MIB_APP_S_KEY\000"
 9517      4150505F 
 9517      535F4B45 
 9517      5900
 9518              	.LASF95:
 9519 101c 5F6E696F 		.ascii	"_niobs\000"
 9519      627300
 9520              	.LASF578:
 9521 1023 4C4F5241 		.ascii	"LORAMAC_STATUS_MAC_COMMAD_ERROR\000"
 9521      4D41435F 
 9521      53544154 
 9521      55535F4D 
 9521      41435F43 
 9522              	.LASF316:
 9523 1043 4C4F5241 		.ascii	"LORAMAC_EVENT_INFO_STATUS_MIC_FAIL\000"
 9523      4D41435F 
 9523      4556454E 
 9523      545F494E 
 9523      464F5F53 
 9524              	.LASF162:
 9525 1066 52616469 		.ascii	"RadioModems_t\000"
 9525      6F4D6F64 
 9525      656D735F 
 9525      7400
 9526              	.LASF72:
 9527 1074 5F657272 		.ascii	"_errno\000"
 9527      6E6F00
 9528              	.LASF617:
 9529 107b 6C6F7261 		.ascii	"lora_AppData_t\000"
 9529      5F417070 
 9529      44617461 
 9529      5F7400
 9530              	.LASF37:
 9531 108a 5F5F746D 		.ascii	"__tm_mday\000"
 9531      5F6D6461 
 9531      7900
 9532              	.LASF216:
 9533 1094 4D435F4B 		.ascii	"MC_KE_KEY\000"
 9533      455F4B45 
 9533      5900
 9534              	.LASF44:
 9535 109e 5F666E61 		.ascii	"_fnargs\000"
 9535      72677300 
 9536              	.LASF585:
ARM GAS  C:\Users\EBANO_~1\AppData\Local\Temp\ccD2gIpL.s 			page 203


 9537 10a6 4C4F5241 		.ascii	"LORAMAC_REGION_CN470\000"
 9537      4D41435F 
 9537      52454749 
 9537      4F4E5F43 
 9537      4E343730 
 9538              	.LASF412:
 9539 10bb 4D6C6D65 		.ascii	"MlmeRequest\000"
 9539      52657175 
 9539      65737400 
 9540              	.LASF423:
 9541 10c7 4D49425F 		.ascii	"MIB_DEVICE_CLASS\000"
 9541      44455649 
 9541      43455F43 
 9541      4C415353 
 9541      00
 9542              	.LASF272:
 9543 10d8 52656769 		.ascii	"RegionNvmCtx\000"
 9543      6F6E4E76 
 9543      6D437478 
 9543      00
 9544              	.LASF471:
 9545 10e5 4D49425F 		.ascii	"MIB_ABP_LORAWAN_VERSION\000"
 9545      4142505F 
 9545      4C4F5241 
 9545      57414E5F 
 9545      56455253 
 9546              	.LASF292:
 9547 10fd 4D756C74 		.ascii	"MulticastChannel_t\000"
 9547      69636173 
 9547      74436861 
 9547      6E6E656C 
 9547      5F7400
 9548              	.LASF352:
 9549 1110 55704C69 		.ascii	"UpLinkCounter\000"
 9549      6E6B436F 
 9549      756E7465 
 9549      7200
 9550              	.LASF324:
 9551 111e 4D435053 		.ascii	"MCPS_CONFIRMED\000"
 9551      5F434F4E 
 9551      4649524D 
 9551      454400
 9552              	.LASF296:
 9553 112d 73477753 		.ascii	"sGwSpecific\000"
 9553      70656369 
 9553      66696300 
 9554              	.LASF28:
 9555 1139 5F6E6578 		.ascii	"_next\000"
 9555      7400
 9556              	.LASF173:
 9557 113f 46687373 		.ascii	"FhssChangeChannel\000"
 9557      4368616E 
 9557      67654368 
 9557      616E6E65 
 9557      6C00
 9558              	.LASF112:
 9559 1151 5F736967 		.ascii	"_signal_buf\000"
ARM GAS  C:\Users\EBANO_~1\AppData\Local\Temp\ccD2gIpL.s 			page 204


 9559      6E616C5F 
 9559      62756600 
 9560              	.LASF490:
 9561 115d 4E657449 		.ascii	"NetID\000"
 9561      4400
 9562              	.LASF58:
 9563 1163 5F636F6F 		.ascii	"_cookie\000"
 9563      6B696500 
 9564              	.LASF154:
 9565 116b 5F747A6E 		.ascii	"_tzname\000"
 9565      616D6500 
 9566              	.LASF568:
 9567 1173 4C4F5241 		.ascii	"LORAMAC_STATUS_REGION_NOT_SUPPORTED\000"
 9567      4D41435F 
 9567      53544154 
 9567      55535F52 
 9567      4547494F 
 9568              	.LASF601:
 9569 1197 4C4F5241 		.ascii	"LORAMAC_NVMCTXMODULE_FCNT_HANDLER\000"
 9569      4D41435F 
 9569      4E564D43 
 9569      54584D4F 
 9569      44554C45 
 9570              	.LASF268:
 9571 11b9 4C6F5261 		.ascii	"LoRaMacRxSlot_t\000"
 9571      4D616352 
 9571      78536C6F 
 9571      745F7400 
 9572              	.LASF655:
 9573 11c9 6D637073 		.ascii	"mcpsIndication\000"
 9573      496E6469 
 9573      63617469 
 9573      6F6E00
 9574              	.LASF164:
 9575 11d8 52465F52 		.ascii	"RF_RX_RUNNING\000"
 9575      585F5255 
 9575      4E4E494E 
 9575      4700
 9576              	.LASF581:
 9577 11e6 4C4F5241 		.ascii	"LORAMAC_STATUS_ERROR\000"
 9577      4D41435F 
 9577      53544154 
 9577      55535F45 
 9577      52524F52 
 9578              	.LASF276:
 9579 11fb 53656375 		.ascii	"SecureElementNvmCtx\000"
 9579      7265456C 
 9579      656D656E 
 9579      744E766D 
 9579      43747800 
 9580              	.LASF434:
 9581 120f 4D49425F 		.ascii	"MIB_NWK_S_ENC_KEY\000"
 9581      4E574B5F 
 9581      535F454E 
 9581      435F4B45 
 9581      5900
 9582              	.LASF462:
ARM GAS  C:\Users\EBANO_~1\AppData\Local\Temp\ccD2gIpL.s 			page 205


 9583 1221 4D49425F 		.ascii	"MIB_CHANNELS_DEFAULT_DATARATE\000"
 9583      4348414E 
 9583      4E454C53 
 9583      5F444546 
 9583      41554C54 
 9584              	.LASF312:
 9585 123f 4C4F5241 		.ascii	"LORAMAC_EVENT_INFO_STATUS_DOWNLINK_REPEATED\000"
 9585      4D41435F 
 9585      4556454E 
 9585      545F494E 
 9585      464F5F53 
 9586              	.LASF463:
 9587 126b 4D49425F 		.ascii	"MIB_CHANNELS_DATARATE\000"
 9587      4348414E 
 9587      4E454C53 
 9587      5F444154 
 9587      41524154 
 9588              	.LASF404:
 9589 1281 4A6F696E 		.ascii	"Join\000"
 9589      00
 9590              	.LASF327:
 9591 1286 4D637073 		.ascii	"Mcps_t\000"
 9591      5F7400
 9592              	.LASF654:
 9593 128d 54726163 		.ascii	"TraceUpLinkFrame\000"
 9593      6555704C 
 9593      696E6B46 
 9593      72616D65 
 9593      00
 9594              	.LASF369:
 9595 129e 4D4C4D45 		.ascii	"MLME_JOIN\000"
 9595      5F4A4F49 
 9595      4E00
 9596              	.LASF180:
 9597 12a8 47657453 		.ascii	"GetStatus\000"
 9597      74617475 
 9597      7300
 9598              	.LASF186:
 9599 12b2 53657454 		.ascii	"SetTxConfig\000"
 9599      78436F6E 
 9599      66696700 
 9600              	.LASF409:
 9601 12be 734D6C6D 		.ascii	"sMlmeReq\000"
 9601      65526571 
 9601      00
 9602              	.LASF532:
 9603 12c7 4D696E52 		.ascii	"MinRxSymbols\000"
 9603      7853796D 
 9603      626F6C73 
 9603      00
 9604              	.LASF258:
 9605 12d4 4368616E 		.ascii	"ChannelParams_t\000"
 9605      6E656C50 
 9605      6172616D 
 9605      735F7400 
 9606              	.LASF515:
 9607 12e4 4368616E 		.ascii	"ChannelList\000"
ARM GAS  C:\Users\EBANO_~1\AppData\Local\Temp\ccD2gIpL.s 			page 206


 9607      6E656C4C 
 9607      69737400 
 9608              	.LASF600:
 9609 12f0 4C4F5241 		.ascii	"LORAMAC_NVMCTXMODULE_CONFIRM_QUEUE\000"
 9609      4D41435F 
 9609      4E564D43 
 9609      54584D4F 
 9609      44554C45 
 9610              	.LASF240:
 9611 1313 434C4153 		.ascii	"CLASS_A\000"
 9611      535F4100 
 9612              	.LASF241:
 9613 131b 434C4153 		.ascii	"CLASS_B\000"
 9613      535F4200 
 9614              	.LASF242:
 9615 1323 434C4153 		.ascii	"CLASS_C\000"
 9615      535F4300 
 9616              	.LASF34:
 9617 132b 5F5F746D 		.ascii	"__tm_sec\000"
 9617      5F736563 
 9617      00
 9618              	.LASF43:
 9619 1334 5F6F6E5F 		.ascii	"_on_exit_args\000"
 9619      65786974 
 9619      5F617267 
 9619      7300
 9620              	.LASF306:
 9621 1342 4C4F5241 		.ascii	"LORAMAC_EVENT_INFO_STATUS_TX_TIMEOUT\000"
 9621      4D41435F 
 9621      4556454E 
 9621      545F494E 
 9621      464F5F53 
 9622              	.LASF573:
 9623 1367 4C4F5241 		.ascii	"LORAMAC_STATUS_BUSY_BEACON_RESERVED_TIME\000"
 9623      4D41435F 
 9623      53544154 
 9623      55535F42 
 9623      5553595F 
 9624              	.LASF362:
 9625 1390 42756666 		.ascii	"BufferSize\000"
 9625      65725369 
 9625      7A6500
 9626              	.LASF358:
 9627 139b 506F7274 		.ascii	"Port\000"
 9627      00
 9628              	.LASF491:
 9629 13a0 44657641 		.ascii	"DevAddr\000"
 9629      64647200 
 9630              	.LASF608:
 9631 13a8 4C6F5261 		.ascii	"LoRaMacPrimitives_t\000"
 9631      4D616350 
 9631      72696D69 
 9631      74697665 
 9631      735F7400 
 9632              	.LASF616:
 9633 13bc 42756666 		.ascii	"BuffSize\000"
 9633      53697A65 
ARM GAS  C:\Users\EBANO_~1\AppData\Local\Temp\ccD2gIpL.s 			page 207


 9633      00
 9634              	.LASF417:
 9635 13c5 4D6C6D65 		.ascii	"MlmeConfirm_t\000"
 9635      436F6E66 
 9635      69726D5F 
 9635      7400
 9636              	.LASF500:
 9637 13d3 4D634B45 		.ascii	"McKEKey\000"
 9637      4B657900 
 9638              	.LASF117:
 9639 13db 5F776372 		.ascii	"_wcrtomb_state\000"
 9639      746F6D62 
 9639      5F737461 
 9639      746500
 9640              	.LASF229:
 9641 13ea 534C4F54 		.ascii	"SLOT_RAND_ZERO_KEY\000"
 9641      5F52414E 
 9641      445F5A45 
 9641      524F5F4B 
 9641      455900
 9642              	.LASF420:
 9643 13fd 42656163 		.ascii	"BeaconInfo\000"
 9643      6F6E496E 
 9643      666F00
 9644              	.LASF167:
 9645 1408 52616469 		.ascii	"RadioState_t\000"
 9645      6F537461 
 9645      74655F74 
 9645      00
 9646              	.LASF405:
 9647 1415 54784377 		.ascii	"TxCw\000"
 9647      00
 9648              	.LASF134:
 9649 141a 696E7438 		.ascii	"int8_t\000"
 9649      5F7400
 9650              	.LASF572:
 9651 1421 4C4F5241 		.ascii	"LORAMAC_STATUS_NO_FREE_CHANNEL_FOUND\000"
 9651      4D41435F 
 9651      53544154 
 9651      55535F4E 
 9651      4F5F4652 
 9652              	.LASF27:
 9653 1446 5F5F554C 		.ascii	"__ULong\000"
 9653      6F6E6700 
 9654              	.LASF642:
 9655 144e 4C6F5261 		.ascii	"LoRaParamInit\000"
 9655      50617261 
 9655      6D496E69 
 9655      7400
 9656              	.LASF535:
 9657 145c 436F6E74 		.ascii	"Contexts\000"
 9657      65787473 
 9657      00
 9658              	.LASF482:
 9659 1465 4D49425F 		.ascii	"MIB_PING_SLOT_SYMBOL_TO_EXPANSION_FACTOR\000"
 9659      50494E47 
 9659      5F534C4F 
ARM GAS  C:\Users\EBANO_~1\AppData\Local\Temp\ccD2gIpL.s 			page 208


 9659      545F5359 
 9659      4D424F4C 
 9660              	.LASF632:
 9661 148e 426F6172 		.ascii	"BoardGetTemperatureLevel\000"
 9661      64476574 
 9661      54656D70 
 9661      65726174 
 9661      7572654C 
 9662              	.LASF484:
 9663 14a7 4D49425F 		.ascii	"MIB_PING_SLOT_DATARATE\000"
 9663      50494E47 
 9663      5F534C4F 
 9663      545F4441 
 9663      54415241 
 9664              	.LASF149:
 9665 14be 4669656C 		.ascii	"Fields\000"
 9665      647300
 9666              	.LASF666:
 9667 14c5 4C4F5241 		.ascii	"LORA_JoinStatus\000"
 9667      5F4A6F69 
 9667      6E537461 
 9667      74757300 
 9668              	.LASF501:
 9669 14d5 4D634B65 		.ascii	"McKey0\000"
 9669      793000
 9670              	.LASF504:
 9671 14dc 4D634B65 		.ascii	"McKey1\000"
 9671      793100
 9672              	.LASF507:
 9673 14e3 4D634B65 		.ascii	"McKey2\000"
 9673      793200
 9674              	.LASF510:
 9675 14ea 4D634B65 		.ascii	"McKey3\000"
 9675      793300
 9676              	.LASF246:
 9677 14f1 41435449 		.ascii	"ACTIVATION_TYPE_ABP\000"
 9677      56415449 
 9677      4F4E5F54 
 9677      5950455F 
 9677      41425000 
 9678              	.LASF102:
 9679 1505 5F737472 		.ascii	"_strtok_last\000"
 9679      746F6B5F 
 9679      6C617374 
 9679      00
 9680              	.LASF647:
 9681 1512 41707044 		.ascii	"AppData\000"
 9681      61746100 
 9682              	.LASF531:
 9683 151a 53797374 		.ascii	"SystemMaxRxError\000"
 9683      656D4D61 
 9683      78527845 
 9683      72726F72 
 9683      00
 9684              	.LASF187:
 9685 152b 43686563 		.ascii	"CheckRfFrequency\000"
 9685      6B526646 
ARM GAS  C:\Users\EBANO_~1\AppData\Local\Temp\ccD2gIpL.s 			page 209


 9685      72657175 
 9685      656E6379 
 9685      00
 9686              	.LASF230:
 9687 153c 4E4F5F4B 		.ascii	"NO_KEY\000"
 9687      455900
 9688              	.LASF623:
 9689 1543 4C6F7261 		.ascii	"LoraErrorStatus\000"
 9689      4572726F 
 9689      72537461 
 9689      74757300 
 9690              	.LASF98:
 9691 1553 5F736565 		.ascii	"_seed\000"
 9691      6400
 9692              	.LASF61:
 9693 1559 5F736565 		.ascii	"_seek\000"
 9693      6B00
 9694              	.LASF255:
 9695 155f 52783146 		.ascii	"Rx1Frequency\000"
 9695      72657175 
 9695      656E6379 
 9695      00
 9696              	.LASF497:
 9697 156c 534E776B 		.ascii	"SNwkSIntKey\000"
 9697      53496E74 
 9697      4B657900 
 9698              	.LASF278:
 9699 1578 436F6D6D 		.ascii	"CommandsNvmCtx\000"
 9699      616E6473 
 9699      4E766D43 
 9699      747800
 9700              	.LASF136:
 9701 1587 696E7431 		.ascii	"int16_t\000"
 9701      365F7400 
 9702              	.LASF214:
 9703 158f 4E574B5F 		.ascii	"NWK_S_ENC_KEY\000"
 9703      535F454E 
 9703      435F4B45 
 9703      5900
 9704              	.LASF11:
 9705 159d 73686F72 		.ascii	"short unsigned int\000"
 9705      7420756E 
 9705      7369676E 
 9705      65642069 
 9705      6E7400
 9706              	.LASF663:
 9707 15b0 49735478 		.ascii	"IsTxConfirmed\000"
 9707      436F6E66 
 9707      69726D65 
 9707      6400
 9708              	.LASF5:
 9709 15be 7369676E 		.ascii	"signed char\000"
 9709      65642063 
 9709      68617200 
 9710              	.LASF372:
 9711 15ca 4D4C4D45 		.ascii	"MLME_LINK_CHECK\000"
 9711      5F4C494E 
ARM GAS  C:\Users\EBANO_~1\AppData\Local\Temp\ccD2gIpL.s 			page 210


 9711      4B5F4348 
 9711      45434B00 
 9712              	.LASF129:
 9713 15da 5F5F6664 		.ascii	"__fdlibm_ieee\000"
 9713      6C69626D 
 9713      5F696565 
 9713      6500
 9714              	.LASF521:
 9715 15e8 4D617852 		.ascii	"MaxRxWindow\000"
 9715      7857696E 
 9715      646F7700 
 9716              	.LASF545:
 9717 15f4 50696E67 		.ascii	"PingSlotSymbolToExpansionMax\000"
 9717      536C6F74 
 9717      53796D62 
 9717      6F6C546F 
 9717      45787061 
 9718              	.LASF301:
 9719 1611 47775370 		.ascii	"GwSpecific\000"
 9719      65636966 
 9719      696300
 9720              	.LASF357:
 9721 161c 4D756C74 		.ascii	"Multicast\000"
 9721      69636173 
 9721      7400
 9722              	.LASF335:
 9723 1626 4D637073 		.ascii	"McpsReqConfirmed_t\000"
 9723      52657143 
 9723      6F6E6669 
 9723      726D6564 
 9723      5F7400
 9724              	.LASF386:
 9725 1639 44657645 		.ascii	"DevEui\000"
 9725      756900
 9726              	.LASF487:
 9727 1640 436C6173 		.ascii	"Class\000"
 9727      7300
 9728              	.LASF401:
 9729 1646 734D6C6D 		.ascii	"sMlmeReqDeriveMcSessionKeyPair\000"
 9729      65526571 
 9729      44657269 
 9729      76654D63 
 9729      53657373 
 9730              	.LASF628:
 9731 1665 54784461 		.ascii	"TxDatarate\000"
 9731      74617261 
 9731      746500
 9732              	.LASF177:
 9733 1670 496F496E 		.ascii	"IoInit\000"
 9733      697400
 9734              	.LASF85:
 9735 1677 5F667265 		.ascii	"_freelist\000"
 9735      656C6973 
 9735      7400
 9736              	.LASF470:
 9737 1681 4D49425F 		.ascii	"MIB_NVM_CTXS\000"
 9737      4E564D5F 
ARM GAS  C:\Users\EBANO_~1\AppData\Local\Temp\ccD2gIpL.s 			page 211


 9737      43545853 
 9737      00
 9738              	.LASF557:
 9739 168e 4C6F5261 		.ascii	"LoRaMacTxInfo_t\000"
 9739      4D616354 
 9739      78496E66 
 9739      6F5F7400 
 9740              	.LASF649:
 9741 169e 4D616353 		.ascii	"MacStatusStrings\000"
 9741      74617475 
 9741      73537472 
 9741      696E6773 
 9741      00
 9742              	.LASF582:
 9743 16af 654C6F52 		.ascii	"eLoRaMacRegion_t\000"
 9743      614D6163 
 9743      52656769 
 9743      6F6E5F74 
 9743      00
 9744              	.LASF66:
 9745 16c0 5F6F6666 		.ascii	"_offset\000"
 9745      73657400 
 9746              	.LASF139:
 9747 16c8 53797374 		.ascii	"SystemCoreClock\000"
 9747      656D436F 
 9747      7265436C 
 9747      6F636B00 
 9748              	.LASF188:
 9749 16d8 54696D65 		.ascii	"TimeOnAir\000"
 9749      4F6E4169 
 9749      7200
 9750              	.LASF643:
 9751 16e2 4C6F5261 		.ascii	"LoRaMacPrimitives\000"
 9751      4D616350 
 9751      72696D69 
 9751      74697665 
 9751      7300
 9752              	.LASF51:
 9753 16f4 5F5F7362 		.ascii	"__sbuf\000"
 9753      756600
 9754              	.LASF111:
 9755 16fb 5F6C3634 		.ascii	"_l64a_buf\000"
 9755      615F6275 
 9755      6600
 9756              	.LASF474:
 9757 1705 4D49425F 		.ascii	"MIB_BEACON_GUARD\000"
 9757      42454143 
 9757      4F4E5F47 
 9757      55415244 
 9757      00
 9758              	.LASF390:
 9759 1716 54696D65 		.ascii	"Timeout\000"
 9759      6F757400 
 9760              	.LASF533:
 9761 171e 416E7465 		.ascii	"AntennaGain\000"
 9761      6E6E6147 
 9761      61696E00 
ARM GAS  C:\Users\EBANO_~1\AppData\Local\Temp\ccD2gIpL.s 			page 212


 9762              	.LASF544:
 9763 172a 42656163 		.ascii	"BeaconSymbolToExpansionMax\000"
 9763      6F6E5379 
 9763      6D626F6C 
 9763      546F4578 
 9763      70616E73 
 9764              	.LASF103:
 9765 1745 5F617363 		.ascii	"_asctime_buf\000"
 9765      74696D65 
 9765      5F627566 
 9765      00
 9766              	.LASF687:
 9767 1752 4C6F5261 		.ascii	"LoRaMacMlmeRequest\000"
 9767      4D61634D 
 9767      6C6D6552 
 9767      65717565 
 9767      737400
 9768              	.LASF20:
 9769 1765 5F5F7763 		.ascii	"__wch\000"
 9769      6800
 9770              	.LASF530:
 9771 176b 4D756C74 		.ascii	"MulticastChannel\000"
 9771      69636173 
 9771      74436861 
 9771      6E6E656C 
 9771      00
 9772              	.LASF619:
 9773 177c 4C4F5241 		.ascii	"LORA_SET\000"
 9773      5F534554 
 9773      00
 9774              	.LASF385:
 9775 1785 734D6C6D 		.ascii	"sMlmeReqJoin\000"
 9775      65526571 
 9775      4A6F696E 
 9775      00
 9776              	.LASF118:
 9777 1792 5F776373 		.ascii	"_wcsrtombs_state\000"
 9777      72746F6D 
 9777      62735F73 
 9777      74617465 
 9777      00
 9778              	.LASF476:
 9779 17a3 4D49425F 		.ascii	"MIB_BEACON_WINDOW_SLOTS\000"
 9779      42454143 
 9779      4F4E5F57 
 9779      494E444F 
 9779      575F534C 
 9780              	.LASF605:
 9781 17bb 4D61634D 		.ascii	"MacMcpsIndication\000"
 9781      63707349 
 9781      6E646963 
 9781      6174696F 
 9781      6E00
 9782              	.LASF388:
 9783 17cd 4D6C6D65 		.ascii	"MlmeReqJoin_t\000"
 9783      5265714A 
 9783      6F696E5F 
ARM GAS  C:\Users\EBANO_~1\AppData\Local\Temp\ccD2gIpL.s 			page 213


 9783      7400
 9784              	.LASF374:
 9785 17db 4D4C4D45 		.ascii	"MLME_TXCW_1\000"
 9785      5F545843 
 9785      575F3100 
 9786              	.LASF206:
 9787 17e7 5F5F6664 		.ascii	"__fdlibm_version\000"
 9787      6C69626D 
 9787      5F766572 
 9787      73696F6E 
 9787      00
 9788              	.LASF315:
 9789 17f8 4C4F5241 		.ascii	"LORAMAC_EVENT_INFO_STATUS_ADDRESS_FAIL\000"
 9789      4D41435F 
 9789      4556454E 
 9789      545F494E 
 9789      464F5F53 
 9790              	.LASF635:
 9791 181f 4C4F5241 		.ascii	"LORA_RxData\000"
 9791      5F527844 
 9791      61746100 
 9792              	.LASF473:
 9793 182b 4D49425F 		.ascii	"MIB_BEACON_RESERVED\000"
 9793      42454143 
 9793      4F4E5F52 
 9793      45534552 
 9793      56454400 
 9794              	.LASF12:
 9795 183f 6C6F6E67 		.ascii	"long int\000"
 9795      20696E74 
 9795      00
 9796              	.LASF421:
 9797 1848 4D6C6D65 		.ascii	"MlmeIndication_t\000"
 9797      496E6469 
 9797      63617469 
 9797      6F6E5F74 
 9797      00
 9798              	.LASF651:
 9799 1859 736C6F74 		.ascii	"slotStrings\000"
 9799      53747269 
 9799      6E677300 
 9800              	.LASF110:
 9801 1865 5F776374 		.ascii	"_wctomb_state\000"
 9801      6F6D625F 
 9801      73746174 
 9801      6500
 9802              	.LASF269:
 9803 1873 734C6F52 		.ascii	"sLoRaMacCtxs\000"
 9803      614D6163 
 9803      43747873 
 9803      00
 9804              	.LASF664:
 9805 1880 6D637073 		.ascii	"mcpsReq\000"
 9805      52657100 
 9806              	.LASF448:
 9807 1888 4D49425F 		.ascii	"MIB_MC_NWK_S_KEY_3\000"
 9807      4D435F4E 
ARM GAS  C:\Users\EBANO_~1\AppData\Local\Temp\ccD2gIpL.s 			page 214


 9807      574B5F53 
 9807      5F4B4559 
 9807      5F3300
 9808              	.LASF685:
 9809 189b 63657274 		.ascii	"certif_rx\000"
 9809      69665F72 
 9809      7800
 9810              	.LASF495:
 9811 18a5 4A53456E 		.ascii	"JSEncKey\000"
 9811      634B6579 
 9811      00
 9812              	.LASF524:
 9813 18ae 4A6F696E 		.ascii	"JoinAcceptDelay1\000"
 9813      41636365 
 9813      70744465 
 9813      6C617931 
 9813      00
 9814              	.LASF525:
 9815 18bf 4A6F696E 		.ascii	"JoinAcceptDelay2\000"
 9815      41636365 
 9815      70744465 
 9815      6C617932 
 9815      00
 9816              	.LASF96:
 9817 18d0 5F696F62 		.ascii	"_iobs\000"
 9817      7300
 9818              	.LASF528:
 9819 18d6 4368616E 		.ascii	"ChannelsDefaultTxPower\000"
 9819      6E656C73 
 9819      44656661 
 9819      756C7454 
 9819      78506F77 
 9820              	.LASF77:
 9821 18ed 5F656D65 		.ascii	"_emergency\000"
 9821      7267656E 
 9821      637900
 9822              	.LASF396:
 9823 18f8 734D6C6D 		.ascii	"sMlmeReqDeriveMcKEKey\000"
 9823      65526571 
 9823      44657269 
 9823      76654D63 
 9823      4B454B65 
 9824              	.LASF359:
 9825 190e 52784461 		.ascii	"RxDatarate\000"
 9825      74617261 
 9825      746500
 9826              	.LASF215:
 9827 1919 4150505F 		.ascii	"APP_S_KEY\000"
 9827      535F4B45 
 9827      5900
 9828              	.LASF120:
 9829 1923 5F6E6578 		.ascii	"_nextf\000"
 9829      746600
 9830              	.LASF106:
 9831 192a 5F72616E 		.ascii	"_rand_next\000"
 9831      645F6E65 
 9831      787400
ARM GAS  C:\Users\EBANO_~1\AppData\Local\Temp\ccD2gIpL.s 			page 215


 9832              	.LASF466:
 9833 1935 4D49425F 		.ascii	"MIB_SYSTEM_MAX_RX_ERROR\000"
 9833      53595354 
 9833      454D5F4D 
 9833      41585F52 
 9833      585F4552 
 9834              	.LASF273:
 9835 194d 52656769 		.ascii	"RegionNvmCtxSize\000"
 9835      6F6E4E76 
 9835      6D437478 
 9835      53697A65 
 9835      00
 9836              	.LASF138:
 9837 195e 75696E74 		.ascii	"uint32_t\000"
 9837      33325F74 
 9837      00
 9838              	.LASF347:
 9839 1967 53746174 		.ascii	"Status\000"
 9839      757300
 9840              	.LASF668:
 9841 196e 4C4F5241 		.ascii	"LORA_GetCurrentClass\000"
 9841      5F476574 
 9841      43757272 
 9841      656E7443 
 9841      6C617373 
 9842              	.LASF319:
 9843 1983 4C4F5241 		.ascii	"LORAMAC_EVENT_INFO_STATUS_BEACON_LOST\000"
 9843      4D41435F 
 9843      4556454E 
 9843      545F494E 
 9843      464F5F53 
 9844              	.LASF29:
 9845 19a9 5F6D6178 		.ascii	"_maxwds\000"
 9845      77647300 
 9846              	.LASF355:
 9847 19b1 734D6370 		.ascii	"sMcpsIndication\000"
 9847      73496E64 
 9847      69636174 
 9847      696F6E00 
 9848              	.LASF193:
 9849 19c1 53657454 		.ascii	"SetTxContinuousWave\000"
 9849      78436F6E 
 9849      74696E75 
 9849      6F757357 
 9849      61766500 
 9850              	.LASF311:
 9851 19d5 4C4F5241 		.ascii	"LORAMAC_EVENT_INFO_STATUS_JOIN_FAIL\000"
 9851      4D41435F 
 9851      4556454E 
 9851      545F494E 
 9851      464F5F53 
 9852              	.LASF391:
 9853 19f9 506F7765 		.ascii	"Power\000"
 9853      7200
 9854              	.LASF469:
 9855 19ff 4D49425F 		.ascii	"MIB_DEFAULT_ANTENNA_GAIN\000"
 9855      44454641 
ARM GAS  C:\Users\EBANO_~1\AppData\Local\Temp\ccD2gIpL.s 			page 216


 9855      554C545F 
 9855      414E5445 
 9855      4E4E415F 
 9856              	.LASF282:
 9857 1a18 436F6E66 		.ascii	"ConfirmQueueNvmCtx\000"
 9857      69726D51 
 9857      75657565 
 9857      4E766D43 
 9857      747800
 9858              	.LASF2:
 9859 1a2b 6C6F6E67 		.ascii	"long double\000"
 9859      20646F75 
 9859      626C6500 
 9860              	.LASF618:
 9861 1a37 4C4F5241 		.ascii	"LORA_RESET\000"
 9861      5F524553 
 9861      455400
 9862              	.LASF550:
 9863 1a42 4D696250 		.ascii	"MibParam_t\000"
 9863      6172616D 
 9863      5F7400
 9864              	.LASF143:
 9865 1a4d 7375626F 		.ascii	"suboptarg\000"
 9865      70746172 
 9865      6700
 9866              	.LASF673:
 9867 1a57 6D6C6D65 		.ascii	"mlmeConfirm\000"
 9867      436F6E66 
 9867      69726D00 
 9868              	.LASF594:
 9869 1a63 4C4F5241 		.ascii	"LORAMAC_NVMCTXMODULE_MAC\000"
 9869      4D41435F 
 9869      4E564D43 
 9869      54584D4F 
 9869      44554C45 
 9870              	.LASF275:
 9871 1a7c 43727970 		.ascii	"CryptoNvmCtxSize\000"
 9871      746F4E76 
 9871      6D437478 
 9871      53697A65 
 9871      00
 9872              	.LASF14:
 9873 1a8d 6C6F6E67 		.ascii	"long unsigned int\000"
 9873      20756E73 
 9873      69676E65 
 9873      6420696E 
 9873      7400
 9874              	.LASF519:
 9875 1a9f 4368616E 		.ascii	"ChannelsDefaultMask\000"
 9875      6E656C73 
 9875      44656661 
 9875      756C744D 
 9875      61736B00 
 9876              	.LASF413:
 9877 1ab3 44656D6F 		.ascii	"DemodMargin\000"
 9877      644D6172 
 9877      67696E00 
ARM GAS  C:\Users\EBANO_~1\AppData\Local\Temp\ccD2gIpL.s 			page 217


 9878              	.LASF590:
 9879 1abf 4C4F5241 		.ascii	"LORAMAC_REGION_IN865\000"
 9879      4D41435F 
 9879      52454749 
 9879      4F4E5F49 
 9879      4E383635 
 9880              	.LASF414:
 9881 1ad4 4E624761 		.ascii	"NbGateways\000"
 9881      74657761 
 9881      797300
 9882              	.LASF389:
 9883 1adf 734D6C6D 		.ascii	"sMlmeReqTxCw\000"
 9883      65526571 
 9883      54784377 
 9883      00
 9884              	.LASF675:
 9885 1aec 4C6F5261 		.ascii	"LoRaMacMibGetRequestConfirm\000"
 9885      4D61634D 
 9885      69624765 
 9885      74526571 
 9885      75657374 
 9886              	.LASF677:
 9887 1b08 54726163 		.ascii	"TraceSend\000"
 9887      6553656E 
 9887      6400
 9888              	.LASF183:
 9889 1b12 49734368 		.ascii	"IsChannelFree\000"
 9889      616E6E65 
 9889      6C467265 
 9889      6500
 9890              	.LASF458:
 9891 1b20 4D49425F 		.ascii	"MIB_RECEIVE_DELAY_1\000"
 9891      52454345 
 9891      4956455F 
 9891      44454C41 
 9891      595F3100 
 9892              	.LASF459:
 9893 1b34 4D49425F 		.ascii	"MIB_RECEIVE_DELAY_2\000"
 9893      52454345 
 9893      4956455F 
 9893      44454C41 
 9893      595F3200 
 9894              	.LASF433:
 9895 1b48 4D49425F 		.ascii	"MIB_S_NWK_S_INT_KEY\000"
 9895      535F4E57 
 9895      4B5F535F 
 9895      494E545F 
 9895      4B455900 
 9896              	.LASF62:
 9897 1b5c 5F636C6F 		.ascii	"_close\000"
 9897      736500
 9898              	.LASF200:
 9899 1b63 53657450 		.ascii	"SetPublicNetwork\000"
 9899      75626C69 
 9899      634E6574 
 9899      776F726B 
 9899      00
ARM GAS  C:\Users\EBANO_~1\AppData\Local\Temp\ccD2gIpL.s 			page 218


 9900              	.LASF26:
 9901 1b74 63686172 		.ascii	"char\000"
 9901      00
 9902              	.LASF337:
 9903 1b79 4D637073 		.ascii	"McpsReqProprietary_t\000"
 9903      52657150 
 9903      726F7072 
 9903      69657461 
 9903      72795F74 
 9904              	.LASF166:
 9905 1b8e 52465F43 		.ascii	"RF_CAD\000"
 9905      414400
 9906              	.LASF94:
 9907 1b95 5F676C75 		.ascii	"_glue\000"
 9907      6500
 9908              	.LASF344:
 9909 1b9b 4D637073 		.ascii	"McpsReq_t\000"
 9909      5265715F 
 9909      7400
 9910              	.LASF305:
 9911 1ba5 4C4F5241 		.ascii	"LORAMAC_EVENT_INFO_STATUS_ERROR\000"
 9911      4D41435F 
 9911      4556454E 
 9911      545F494E 
 9911      464F5F53 
 9912              	.LASF485:
 9913 1bc5 4D69625F 		.ascii	"Mib_t\000"
 9913      7400
 9914              	.LASF141:
 9915 1bcb 41504250 		.ascii	"APBPrescTable\000"
 9915      72657363 
 9915      5461626C 
 9915      6500
 9916              	.LASF502:
 9917 1bd9 4D634170 		.ascii	"McAppSKey0\000"
 9917      70534B65 
 9917      793000
 9918              	.LASF505:
 9919 1be4 4D634170 		.ascii	"McAppSKey1\000"
 9919      70534B65 
 9919      793100
 9920              	.LASF508:
 9921 1bef 4D634170 		.ascii	"McAppSKey2\000"
 9921      70534B65 
 9921      793200
 9922              	.LASF511:
 9923 1bfa 4D634170 		.ascii	"McAppSKey3\000"
 9923      70534B65 
 9923      793300
 9924              	.LASF202:
 9925 1c05 49727150 		.ascii	"IrqProcess\000"
 9925      726F6365 
 9925      737300
 9926              	.LASF402:
 9927 1c10 4D6C6D65 		.ascii	"MlmeReqDeriveMcSessionKeyPair_t\000"
 9927      52657144 
 9927      65726976 
ARM GAS  C:\Users\EBANO_~1\AppData\Local\Temp\ccD2gIpL.s 			page 219


 9927      654D6353 
 9927      65737369 
 9928              	.LASF672:
 9929 1c30 4D6C6D65 		.ascii	"MlmeConfirm\000"
 9929      436F6E66 
 9929      69726D00 
 9930              	.LASF563:
 9931 1c3c 4C4F5241 		.ascii	"LORAMAC_STATUS_FREQUENCY_INVALID\000"
 9931      4D41435F 
 9931      53544154 
 9931      55535F46 
 9931      52455155 
 9932              	.LASF631:
 9933 1c5d 426F6172 		.ascii	"BoardGetBatteryLevel\000"
 9933      64476574 
 9933      42617474 
 9933      6572794C 
 9933      6576656C 
 9934              	.LASF32:
 9935 1c72 5F426967 		.ascii	"_Bigint\000"
 9935      696E7400 
 9936              	.LASF313:
 9937 1c7a 4C4F5241 		.ascii	"LORAMAC_EVENT_INFO_STATUS_TX_DR_PAYLOAD_SIZE_ERROR\000"
 9937      4D41435F 
 9937      4556454E 
 9937      545F494E 
 9937      464F5F53 
 9938              	.LASF428:
 9939 1cad 4D49425F 		.ascii	"MIB_APP_KEY\000"
 9939      4150505F 
 9939      4B455900 
 9940              	.LASF523:
 9941 1cb9 52656365 		.ascii	"ReceiveDelay2\000"
 9941      69766544 
 9941      656C6179 
 9941      3200
 9942              	.LASF676:
 9943 1cc7 4C6F5261 		.ascii	"LoRaMacMibSetRequestConfirm\000"
 9943      4D61634D 
 9943      69625365 
 9943      74526571 
 9943      75657374 
 9944              	.LASF529:
 9945 1ce3 4368616E 		.ascii	"ChannelsTxPower\000"
 9945      6E656C73 
 9945      5478506F 
 9945      77657200 
 9946              	.LASF334:
 9947 1cf3 4E625472 		.ascii	"NbTrials\000"
 9947      69616C73 
 9947      00
 9948              	.LASF182:
 9949 1cfc 53657443 		.ascii	"SetChannel\000"
 9949      68616E6E 
 9949      656C00
 9950              	.LASF488:
 9951 1d07 4E657477 		.ascii	"NetworkActivation\000"
ARM GAS  C:\Users\EBANO_~1\AppData\Local\Temp\ccD2gIpL.s 			page 220


 9951      6F726B41 
 9951      63746976 
 9951      6174696F 
 9951      6E00
 9952              	.LASF89:
 9953 1d19 5F617465 		.ascii	"_atexit0\000"
 9953      78697430 
 9953      00
 9954              	.LASF586:
 9955 1d22 4C4F5241 		.ascii	"LORAMAC_REGION_CN779\000"
 9955      4D41435F 
 9955      52454749 
 9955      4F4E5F43 
 9955      4E373739 
 9956              	.LASF208:
 9957 1d37 4150505F 		.ascii	"APP_KEY\000"
 9957      4B455900 
 9958              	.LASF559:
 9959 1d3f 4C4F5241 		.ascii	"LORAMAC_STATUS_OK\000"
 9959      4D41435F 
 9959      53544154 
 9959      55535F4F 
 9959      4B00
 9960              	.LASF606:
 9961 1d51 4D61634D 		.ascii	"MacMlmeConfirm\000"
 9961      6C6D6543 
 9961      6F6E6669 
 9961      726D00
 9962              	.LASF113:
 9963 1d60 5F676574 		.ascii	"_getdate_err\000"
 9963      64617465 
 9963      5F657272 
 9963      00
 9964              	.LASF662:
 9965 1d6d 4C4F5241 		.ascii	"LORA_send\000"
 9965      5F73656E 
 9965      6400
 9966              	.LASF277:
 9967 1d77 53656375 		.ascii	"SecureElementNvmCtxSize\000"
 9967      7265456C 
 9967      656D656E 
 9967      744E766D 
 9967      43747853 
 9968              	.LASF674:
 9969 1d8f 4D637073 		.ascii	"McpsConfirm\000"
 9969      436F6E66 
 9969      69726D00 
 9970              	.LASF543:
 9971 1d9b 42656163 		.ascii	"BeaconSymbolToDefault\000"
 9971      6F6E5379 
 9971      6D626F6C 
 9971      546F4465 
 9971      6661756C 
 9972              	.LASF604:
 9973 1db1 4D61634D 		.ascii	"MacMcpsConfirm\000"
 9973      63707343 
 9973      6F6E6669 
ARM GAS  C:\Users\EBANO_~1\AppData\Local\Temp\ccD2gIpL.s 			page 221


 9973      726D00
 9974              	.LASF300:
 9975 1dc0 54696D65 		.ascii	"Time\000"
 9975      00
 9976              	.LASF627:
 9977 1dc5 734C6F52 		.ascii	"sLoRaParam\000"
 9977      61506172 
 9977      616D00
 9978              	.LASF125:
 9979 1dd0 5F696D70 		.ascii	"_impure_ptr\000"
 9979      7572655F 
 9979      70747200 
 9980              	.LASF65:
 9981 1ddc 5F626C6B 		.ascii	"_blksize\000"
 9981      73697A65 
 9981      00
 9982              	.LASF468:
 9983 1de5 4D49425F 		.ascii	"MIB_ANTENNA_GAIN\000"
 9983      414E5445 
 9983      4E4E415F 
 9983      4741494E 
 9983      00
 9984              	.LASF63:
 9985 1df6 5F756275 		.ascii	"_ubuf\000"
 9985      6600
 9986              	.LASF622:
 9987 1dfc 4C4F5241 		.ascii	"LORA_SUCCESS\000"
 9987      5F535543 
 9987      43455353 
 9987      00
 9988              	.LASF108:
 9989 1e09 5F6D626C 		.ascii	"_mblen_state\000"
 9989      656E5F73 
 9989      74617465 
 9989      00
 9990              	.LASF91:
 9991 1e16 5F5F7367 		.ascii	"__sglue\000"
 9991      6C756500 
 9992              	.LASF124:
 9993 1e1e 5F5F6C6F 		.ascii	"__locale_t\000"
 9993      63616C65 
 9993      5F7400
 9994              	.LASF274:
 9995 1e29 43727970 		.ascii	"CryptoNvmCtx\000"
 9995      746F4E76 
 9995      6D437478 
 9995      00
 9996              	.LASF81:
 9997 1e36 5F5F636C 		.ascii	"__cleanup\000"
 9997      65616E75 
 9997      7000
 9998              	.LASF465:
 9999 1e40 4D49425F 		.ascii	"MIB_CHANNELS_DEFAULT_TX_POWER\000"
 9999      4348414E 
 9999      4E454C53 
 9999      5F444546 
 9999      41554C54 
ARM GAS  C:\Users\EBANO_~1\AppData\Local\Temp\ccD2gIpL.s 			page 222


 10000              	.LASF297:
 10001 1e5e 496E666F 		.ascii	"InfoDesc\000"
 10001      44657363 
 10001      00
 10002              	.LASF263:
 10003 1e67 52585F53 		.ascii	"RX_SLOT_WIN_1\000"
 10003      4C4F545F 
 10003      57494E5F 
 10003      3100
 10004              	.LASF264:
 10005 1e75 52585F53 		.ascii	"RX_SLOT_WIN_2\000"
 10005      4C4F545F 
 10005      57494E5F 
 10005      3200
 10006              	.LASF464:
 10007 1e83 4D49425F 		.ascii	"MIB_CHANNELS_TX_POWER\000"
 10007      4348414E 
 10007      4E454C53 
 10007      5F54585F 
 10007      504F5745 
 10008              	.LASF142:
 10009 1e99 504C4C4D 		.ascii	"PLLMulTable\000"
 10009      756C5461 
 10009      626C6500 
 10010              	.LASF18:
 10011 1ea5 5F66706F 		.ascii	"_fpos_t\000"
 10011      735F7400 
 10012              	.LASF353:
 10013 1ead 4368616E 		.ascii	"Channel\000"
 10013      6E656C00 
 10014              	.LASF56:
 10015 1eb5 5F66696C 		.ascii	"_file\000"
 10015      6500
 10016              	.LASF253:
 10017 1ebb 73436861 		.ascii	"sChannelParams\000"
 10017      6E6E656C 
 10017      50617261 
 10017      6D7300
 10018              	.LASF671:
 10019 1eca 4C6F5261 		.ascii	"LoRaParam\000"
 10019      50617261 
 10019      6D00
 10020              	.LASF54:
 10021 1ed4 5F5F7346 		.ascii	"__sFILE\000"
 10021      494C4500 
 10022              	.LASF128:
 10023 1edc 646F7562 		.ascii	"double\000"
 10023      6C6500
 10024              	.LASF50:
 10025 1ee3 5F666E73 		.ascii	"_fns\000"
 10025      00
 10026              	.LASF320:
 10027 1ee8 4C4F5241 		.ascii	"LORAMAC_EVENT_INFO_STATUS_BEACON_NOT_FOUND\000"
 10027      4D41435F 
 10027      4556454E 
 10027      545F494E 
 10027      464F5F53 
ARM GAS  C:\Users\EBANO_~1\AppData\Local\Temp\ccD2gIpL.s 			page 223


 10028              	.LASF613:
 10029 1f13 4D616350 		.ascii	"MacProcessNotify\000"
 10029      726F6365 
 10029      73734E6F 
 10029      74696679 
 10029      00
 10030              	.LASF24:
 10031 1f24 5F6D6273 		.ascii	"_mbstate_t\000"
 10031      74617465 
 10031      5F7400
 10032              	.LASF119:
 10033 1f2f 5F685F65 		.ascii	"_h_errno\000"
 10033      72726E6F 
 10033      00
 10034              	.LASF456:
 10035 1f38 4D49425F 		.ascii	"MIB_CHANNELS_NB_TRANS\000"
 10035      4348414E 
 10035      4E454C53 
 10035      5F4E425F 
 10035      5452414E 
 10036              	.LASF284:
 10037 1f4e 46436E74 		.ascii	"FCntHandlerNvmCtx\000"
 10037      48616E64 
 10037      6C65724E 
 10037      766D4374 
 10037      7800
 10038              	.LASF13:
 10039 1f60 5F5F7569 		.ascii	"__uint32_t\000"
 10039      6E743332 
 10039      5F7400
 10040              	.LASF629:
 10041 1f6b 4C6F5261 		.ascii	"LoRaParam_t\000"
 10041      50617261 
 10041      6D5F7400 
 10042              	.LASF430:
 10043 1f77 4D49425F 		.ascii	"MIB_J_S_INT_KEY\000"
 10043      4A5F535F 
 10043      494E545F 
 10043      4B455900 
 10044              	.LASF588:
 10045 1f87 4C4F5241 		.ascii	"LORAMAC_REGION_EU868\000"
 10045      4D41435F 
 10045      52454749 
 10045      4F4E5F45 
 10045      55383638 
 10046              	.LASF23:
 10047 1f9c 5F5F7661 		.ascii	"__value\000"
 10047      6C756500 
 10048              	.LASF47:
 10049 1fa4 5F69735F 		.ascii	"_is_cxa\000"
 10049      63786100 
 10050              	.LASF460:
 10051 1fac 4D49425F 		.ascii	"MIB_JOIN_ACCEPT_DELAY_1\000"
 10051      4A4F494E 
 10051      5F414343 
 10051      4550545F 
 10051      44454C41 
ARM GAS  C:\Users\EBANO_~1\AppData\Local\Temp\ccD2gIpL.s 			page 224


 10052              	.LASF461:
 10053 1fc4 4D49425F 		.ascii	"MIB_JOIN_ACCEPT_DELAY_2\000"
 10053      4A4F494E 
 10053      5F414343 
 10053      4550545F 
 10053      44454C41 
 10054              	.LASF271:
 10055 1fdc 4D61634E 		.ascii	"MacNvmCtxSize\000"
 10055      766D4374 
 10055      7853697A 
 10055      6500
 10056              	.LASF556:
 10057 1fea 43757272 		.ascii	"CurrentPossiblePayloadSize\000"
 10057      656E7450 
 10057      6F737369 
 10057      626C6550 
 10057      61796C6F 
 10058              	.LASF571:
 10059 2005 4C4F5241 		.ascii	"LORAMAC_STATUS_NO_CHANNEL_FOUND\000"
 10059      4D41435F 
 10059      53544154 
 10059      55535F4E 
 10059      4F5F4348 
 10060              	.LASF298:
 10061 2025 496E666F 		.ascii	"Info\000"
 10061      00
 10062              	.LASF304:
 10063 202a 4C4F5241 		.ascii	"LORAMAC_EVENT_INFO_STATUS_OK\000"
 10063      4D41435F 
 10063      4556454E 
 10063      545F494E 
 10063      464F5F53 
 10064              	.LASF213:
 10065 2047 535F4E57 		.ascii	"S_NWK_S_INT_KEY\000"
 10065      4B5F535F 
 10065      494E545F 
 10065      4B455900 
 10066              	.LASF84:
 10067 2057 5F703573 		.ascii	"_p5s\000"
 10067      00
 10068              	.LASF348:
 10069 205c 5478506F 		.ascii	"TxPower\000"
 10069      77657200 
 10070              	.LASF165:
 10071 2064 52465F54 		.ascii	"RF_TX_RUNNING\000"
 10071      585F5255 
 10071      4E4E494E 
 10071      4700
 10072              	.LASF361:
 10073 2072 42756666 		.ascii	"Buffer\000"
 10073      657200
 10074              	.LASF686:
 10075 2079 63657274 		.ascii	"certif_linkCheck\000"
 10075      69665F6C 
 10075      696E6B43 
 10075      6865636B 
 10075      00
ARM GAS  C:\Users\EBANO_~1\AppData\Local\Temp\ccD2gIpL.s 			page 225


 10076              	.LASF299:
 10077 208a 73426561 		.ascii	"sBeaconInfo\000"
 10077      636F6E49 
 10077      6E666F00 
 10078              	.LASF493:
 10079 2096 4E776B4B 		.ascii	"NwkKey\000"
 10079      657900
 10080              	.LASF653:
 10081 209d 54726163 		.ascii	"TraceDownLinkFrame\000"
 10081      65446F77 
 10081      6E4C696E 
 10081      6B467261 
 10081      6D6500
 10082              	.LASF144:
 10083 20b0 54696D65 		.ascii	"TimerTime_t\000"
 10083      7254696D 
 10083      655F7400 
 10084              	.LASF620:
 10085 20bc 4C6F7261 		.ascii	"LoraFlagStatus\000"
 10085      466C6167 
 10085      53746174 
 10085      757300
 10086              	.LASF314:
 10087 20cb 4C4F5241 		.ascii	"LORAMAC_EVENT_INFO_STATUS_DOWNLINK_TOO_MANY_FRAMES_"
 10087      4D41435F 
 10087      4556454E 
 10087      545F494E 
 10087      464F5F53 
 10088 20fe 4C4F5353 		.ascii	"LOSS\000"
 10088      00
 10089              	.LASF235:
 10090 2103 4D554C54 		.ascii	"MULTICAST_2_ADDR\000"
 10090      49434153 
 10090      545F325F 
 10090      41444452 
 10090      00
 10091              	.LASF639:
 10092 2114 4C6F5261 		.ascii	"LoRaMainCallback_t\000"
 10092      4D61696E 
 10092      43616C6C 
 10092      6261636B 
 10092      5F7400
 10093              	.LASF293:
 10094 2127 73496E66 		.ascii	"sInfoFields\000"
 10094      6F466965 
 10094      6C647300 
 10095              	.LASF349:
 10096 2133 41636B52 		.ascii	"AckReceived\000"
 10096      65636569 
 10096      76656400 
 10097              	.LASF415:
 10098 213f 42656163 		.ascii	"BeaconTimingDelay\000"
 10098      6F6E5469 
 10098      6D696E67 
 10098      44656C61 
 10098      7900
 10099              	.LASF646:
ARM GAS  C:\Users\EBANO_~1\AppData\Local\Temp\ccD2gIpL.s 			page 226


 10100 2151 4C6F5261 		.ascii	"LoRaMainCallbacks\000"
 10100      4D61696E 
 10100      43616C6C 
 10100      6261636B 
 10100      7300
 10101              	.LASF387:
 10102 2163 4A6F696E 		.ascii	"JoinEui\000"
 10102      45756900 
 10103              	.LASF648:
 10104 216b 4576656E 		.ascii	"EventInfoStatusStrings\000"
 10104      74496E66 
 10104      6F537461 
 10104      74757353 
 10104      7472696E 
 10105              	.LASF517:
 10106 2182 52783244 		.ascii	"Rx2DefaultChannel\000"
 10106      65666175 
 10106      6C744368 
 10106      616E6E65 
 10106      6C00
 10107              	.LASF584:
 10108 2194 4C4F5241 		.ascii	"LORAMAC_REGION_AU915\000"
 10108      4D41435F 
 10108      52454749 
 10108      4F4E5F41 
 10108      55393135 
 10109              	.LASF152:
 10110 21a9 5F74696D 		.ascii	"_timezone\000"
 10110      657A6F6E 
 10110      6500
 10111              	.LASF234:
 10112 21b3 4D554C54 		.ascii	"MULTICAST_1_ADDR\000"
 10112      49434153 
 10112      545F315F 
 10112      41444452 
 10112      00
 10113              	.LASF691:
 10114 21c4 4C4F5241 		.ascii	"LORA_Join\000"
 10114      5F4A6F69 
 10114      6E00
 10115              	.LASF194:
 10116 21ce 52737369 		.ascii	"Rssi\000"
 10116      00
 10117              	.LASF161:
 10118 21d3 4D4F4445 		.ascii	"MODEM_LORA\000"
 10118      4D5F4C4F 
 10118      524100
 10119              	.LASF15:
 10120 21de 6C6F6E67 		.ascii	"long long unsigned int\000"
 10120      206C6F6E 
 10120      6720756E 
 10120      7369676E 
 10120      65642069 
 10121              	.LASF281:
 10122 21f5 436C6173 		.ascii	"ClassBNvmCtxSize\000"
 10122      73424E76 
 10122      6D437478 
ARM GAS  C:\Users\EBANO_~1\AppData\Local\Temp\ccD2gIpL.s 			page 227


 10122      53697A65 
 10122      00
 10123              	.LASF247:
 10124 2206 41435449 		.ascii	"ACTIVATION_TYPE_OTAA\000"
 10124      56415449 
 10124      4F4E5F54 
 10124      5950455F 
 10124      4F544141 
 10125              	.LASF477:
 10126 221b 4D49425F 		.ascii	"MIB_PING_SLOT_WINDOW\000"
 10126      50494E47 
 10126      5F534C4F 
 10126      545F5749 
 10126      4E444F57 
 10127              	.LASF105:
 10128 2230 5F67616D 		.ascii	"_gamma_signgam\000"
 10128      6D615F73 
 10128      69676E67 
 10128      616D00
 10129              	.LASF395:
 10130 223f 4D6C6D65 		.ascii	"MlmeReqPingSlotInfo_t\000"
 10130      52657150 
 10130      696E6753 
 10130      6C6F7449 
 10130      6E666F5F 
 10131              	.LASF233:
 10132 2255 4D554C54 		.ascii	"MULTICAST_0_ADDR\000"
 10132      49434153 
 10132      545F305F 
 10132      41444452 
 10132      00
 10133              	.LASF336:
 10134 2266 734D6370 		.ascii	"sMcpsReqProprietary\000"
 10134      73526571 
 10134      50726F70 
 10134      72696574 
 10134      61727900 
 10135              	.LASF179:
 10136 227a 496E6974 		.ascii	"Init\000"
 10136      00
 10137              	.LASF624:
 10138 227f 4C4F5241 		.ascii	"LORAWAN_UNCONFIRMED_MSG\000"
 10138      57414E5F 
 10138      554E434F 
 10138      4E464952 
 10138      4D45445F 
 10139              	.LASF591:
 10140 2297 4C4F5241 		.ascii	"LORAMAC_REGION_US915\000"
 10140      4D41435F 
 10140      52454749 
 10140      4F4E5F55 
 10140      53393135 
 10141              	.LASF536:
 10142 22ac 4162704C 		.ascii	"AbpLrWanVersion\000"
 10142      7257616E 
 10142      56657273 
 10142      696F6E00 
ARM GAS  C:\Users\EBANO_~1\AppData\Local\Temp\ccD2gIpL.s 			page 228


 10143              	.LASF580:
 10144 22bc 4C4F5241 		.ascii	"LORAMAC_STATUS_CONFIRM_QUEUE_ERROR\000"
 10144      4D41435F 
 10144      53544154 
 10144      55535F43 
 10144      4F4E4649 
 10145              	.LASF554:
 10146 22df 734C6F52 		.ascii	"sLoRaMacTxInfo\000"
 10146      614D6163 
 10146      5478496E 
 10146      666F00
 10147              	.LASF394:
 10148 22ee 50696E67 		.ascii	"PingSlot\000"
 10148      536C6F74 
 10148      00
 10149              	.LASF583:
 10150 22f7 4C4F5241 		.ascii	"LORAMAC_REGION_AS923\000"
 10150      4D41435F 
 10150      52454749 
 10150      4F4E5F41 
 10150      53393233 
 10151              	.LASF598:
 10152 230c 4C4F5241 		.ascii	"LORAMAC_NVMCTXMODULE_COMMANDS\000"
 10152      4D41435F 
 10152      4E564D43 
 10152      54584D4F 
 10152      44554C45 
 10153              	.LASF148:
 10154 232a 4D616A6F 		.ascii	"Major\000"
 10154      7200
 10155              	.LASF254:
 10156 2330 46726571 		.ascii	"Frequency\000"
 10156      75656E63 
 10156      7900
 10157              	.LASF332:
 10158 233a 4D637073 		.ascii	"McpsReqUnconfirmed_t\000"
 10158      52657155 
 10158      6E636F6E 
 10158      6669726D 
 10158      65645F74 
 10159              	.LASF592:
 10160 234f 4C4F5241 		.ascii	"LORAMAC_REGION_RU864\000"
 10160      4D41435F 
 10160      52454749 
 10160      4F4E5F52 
 10160      55383634 
 10161              	.LASF331:
 10162 2364 66427566 		.ascii	"fBufferSize\000"
 10162      66657253 
 10162      697A6500 
 10163              	.LASF321:
 10164 2370 4C6F5261 		.ascii	"LoRaMacEventInfoStatus_t\000"
 10164      4D616345 
 10164      76656E74 
 10164      496E666F 
 10164      53746174 
 10165              	.LASF280:
ARM GAS  C:\Users\EBANO_~1\AppData\Local\Temp\ccD2gIpL.s 			page 229


 10166 2389 436C6173 		.ascii	"ClassBNvmCtx\000"
 10166      73424E76 
 10166      6D437478 
 10166      00
 10167              	.LASF289:
 10168 2396 41646472 		.ascii	"Address\000"
 10168      65737300 
 10169              	.LASF126:
 10170 239e 5F676C6F 		.ascii	"_global_impure_ptr\000"
 10170      62616C5F 
 10170      696D7075 
 10170      72655F70 
 10170      747200
 10171              	.LASF78:
 10172 23b1 5F756E73 		.ascii	"_unspecified_locale_info\000"
 10172      70656369 
 10172      66696564 
 10172      5F6C6F63 
 10172      616C655F 
 10173              	.LASF455:
 10174 23ca 4D49425F 		.ascii	"MIB_CHANNELS_DEFAULT_MASK\000"
 10174      4348414E 
 10174      4E454C53 
 10174      5F444546 
 10174      41554C54 
 10175              	.LASF80:
 10176 23e4 5F5F7364 		.ascii	"__sdidinit\000"
 10176      6964696E 
 10176      697400
 10177              	.LASF132:
 10178 23ef 5F5F6664 		.ascii	"__fdlibm_posix\000"
 10178      6C69626D 
 10178      5F706F73 
 10178      697800
 10179              	.LASF518:
 10180 23fe 4368616E 		.ascii	"ChannelsMask\000"
 10180      6E656C73 
 10180      4D61736B 
 10180      00
 10181              	.LASF189:
 10182 240b 53656E64 		.ascii	"Send\000"
 10182      00
 10183              	.LASF365:
 10184 2410 446F776E 		.ascii	"DownLinkCounter\000"
 10184      4C696E6B 
 10184      436F756E 
 10184      74657200 
 10185              	.LASF516:
 10186 2420 52783243 		.ascii	"Rx2Channel\000"
 10186      68616E6E 
 10186      656C00
 10187              	.LASF260:
 10188 242b 44617461 		.ascii	"Datarate\000"
 10188      72617465 
 10188      00
 10189              	.LASF211:
 10190 2434 4A5F535F 		.ascii	"J_S_ENC_KEY\000"
ARM GAS  C:\Users\EBANO_~1\AppData\Local\Temp\ccD2gIpL.s 			page 230


 10190      454E435F 
 10190      4B455900 
 10191              	.LASF248:
 10192 2440 41637469 		.ascii	"ActivationType_t\000"
 10192      76617469 
 10192      6F6E5479 
 10192      70655F74 
 10192      00
 10193              	.LASF25:
 10194 2451 5F666C6F 		.ascii	"_flock_t\000"
 10194      636B5F74 
 10194      00
 10195              	.LASF467:
 10196 245a 4D49425F 		.ascii	"MIB_MIN_RX_SYMBOLS\000"
 10196      4D494E5F 
 10196      52585F53 
 10196      594D424F 
 10196      4C5300
 10197              	.LASF376:
 10198 246d 4D4C4D45 		.ascii	"MLME_DERIVE_MC_KE_KEY\000"
 10198      5F444552 
 10198      4956455F 
 10198      4D435F4B 
 10198      455F4B45 
 10199              	.LASF449:
 10200 2483 4D49425F 		.ascii	"MIB_PUBLIC_NETWORK\000"
 10200      5055424C 
 10200      49435F4E 
 10200      4554574F 
 10200      524B00
 10201              	.LASF575:
 10202 2496 4C4F5241 		.ascii	"LORAMAC_STATUS_BUSY_UPLINK_COLLISION\000"
 10202      4D41435F 
 10202      53544154 
 10202      55535F42 
 10202      5553595F 
 10203              	.LASF368:
 10204 24bb 654D6C6D 		.ascii	"eMlme\000"
 10204      6500
 10205              	.LASF633:
 10206 24c1 426F6172 		.ascii	"BoardGetUniqueId\000"
 10206      64476574 
 10206      556E6971 
 10206      75654964 
 10206      00
 10207              	.LASF285:
 10208 24d2 46436E74 		.ascii	"FCntHandlerNvmCtxSize\000"
 10208      48616E64 
 10208      6C65724E 
 10208      766D4374 
 10208      7853697A 
 10209              	.LASF683:
 10210 24e8 4C6F5261 		.ascii	"LoRaMacStart\000"
 10210      4D616353 
 10210      74617274 
 10210      00
 10211              	.LASF175:
ARM GAS  C:\Users\EBANO_~1\AppData\Local\Temp\ccD2gIpL.s 			page 231


 10212 24f5 52616469 		.ascii	"RadioEvents_t\000"
 10212      6F457665 
 10212      6E74735F 
 10212      7400
 10213              	.LASF636:
 10214 2503 4C4F5241 		.ascii	"LORA_HasJoined\000"
 10214      5F486173 
 10214      4A6F696E 
 10214      656400
 10215              	.LASF1:
 10216 2512 6C6F6E67 		.ascii	"long long int\000"
 10216      206C6F6E 
 10216      6720696E 
 10216      7400
 10217              	.LASF565:
 10218 2520 4C4F5241 		.ascii	"LORAMAC_STATUS_FREQ_AND_DR_INVALID\000"
 10218      4D41435F 
 10218      53544154 
 10218      55535F46 
 10218      5245515F 
 10219              	.LASF579:
 10220 2543 4C4F5241 		.ascii	"LORAMAC_STATUS_CLASS_B_ERROR\000"
 10220      4D41435F 
 10220      53544154 
 10220      55535F43 
 10220      4C415353 
 10221              	.LASF70:
 10222 2560 5F666C61 		.ascii	"_flags2\000"
 10222      67733200 
 10223              	.LASF302:
 10224 2568 42656163 		.ascii	"BeaconInfo_t\000"
 10224      6F6E496E 
 10224      666F5F74 
 10224      00
 10225              	.LASF323:
 10226 2575 4D435053 		.ascii	"MCPS_UNCONFIRMED\000"
 10226      5F554E43 
 10226      4F4E4649 
 10226      524D4544 
 10226      00
 10227              	.LASF503:
 10228 2586 4D634E77 		.ascii	"McNwkSKey0\000"
 10228      6B534B65 
 10228      793000
 10229              	.LASF366:
 10230 2591 44657641 		.ascii	"DevAddress\000"
 10230      64647265 
 10230      737300
 10231              	.LASF174:
 10232 259c 43616444 		.ascii	"CadDone\000"
 10232      6F6E6500 
 10233              	.LASF79:
 10234 25a4 5F6C6F63 		.ascii	"_locale\000"
 10234      616C6500 
 10235              	.LASF621:
 10236 25ac 4C4F5241 		.ascii	"LORA_ERROR\000"
 10236      5F455252 
ARM GAS  C:\Users\EBANO_~1\AppData\Local\Temp\ccD2gIpL.s 			page 232


 10236      4F5200
 10237              	.LASF564:
 10238 25b7 4C4F5241 		.ascii	"LORAMAC_STATUS_DATARATE_INVALID\000"
 10238      4D41435F 
 10238      53544154 
 10238      55535F44 
 10238      41544152 
 10239              	.LASF381:
 10240 25d7 4D4C4D45 		.ascii	"MLME_PING_SLOT_INFO\000"
 10240      5F50494E 
 10240      475F534C 
 10240      4F545F49 
 10240      4E464F00 
 10241              	.LASF452:
 10242 25eb 4D49425F 		.ascii	"MIB_RX2_CHANNEL\000"
 10242      5258325F 
 10242      4348414E 
 10242      4E454C00 
 10243              	.LASF542:
 10244 25fb 50696E67 		.ascii	"PingSlotWindow\000"
 10244      536C6F74 
 10244      57696E64 
 10244      6F7700
 10245              	.LASF140:
 10246 260a 41484250 		.ascii	"AHBPrescTable\000"
 10246      72657363 
 10246      5461626C 
 10246      6500
 10247              	.LASF239:
 10248 2618 65446576 		.ascii	"eDeviceClass\000"
 10248      69636543 
 10248      6C617373 
 10248      00
 10249              	.LASF609:
 10250 2625 734C6F52 		.ascii	"sLoRaMacCallback\000"
 10250      614D6163 
 10250      43616C6C 
 10250      6261636B 
 10250      00
 10251              	.LASF378:
 10252 2636 4D4C4D45 		.ascii	"MLME_DEVICE_TIME\000"
 10252      5F444556 
 10252      4943455F 
 10252      54494D45 
 10252      00
 10253              	.LASF290:
 10254 2647 4973456E 		.ascii	"IsEnabled\000"
 10254      61626C65 
 10254      6400
 10255              	.LASF283:
 10256 2651 436F6E66 		.ascii	"ConfirmQueueNvmCtxSize\000"
 10256      69726D51 
 10256      75657565 
 10256      4E766D43 
 10256      74785369 
 10257              	.LASF249:
 10258 2668 73466965 		.ascii	"sFields\000"
ARM GAS  C:\Users\EBANO_~1\AppData\Local\Temp\ccD2gIpL.s 			page 233


 10258      6C647300 
 10259              	.LASF201:
 10260 2670 47657457 		.ascii	"GetWakeupTime\000"
 10260      616B6575 
 10260      7054696D 
 10260      6500
 10261              	.LASF626:
 10262 267e 4C6F7261 		.ascii	"LoraConfirm_t\000"
 10262      436F6E66 
 10262      69726D5F 
 10262      7400
 10263              	.LASF451:
 10264 268c 4D49425F 		.ascii	"MIB_CHANNELS\000"
 10264      4348414E 
 10264      4E454C53 
 10264      00
 10265              	.LASF540:
 10266 2699 42656163 		.ascii	"BeaconWindow\000"
 10266      6F6E5769 
 10266      6E646F77 
 10266      00
 10267              	.LASF640:
 10268 26a6 4C6F5261 		.ascii	"LoRaMacMaxEirpTable\000"
 10268      4D61634D 
 10268      61784569 
 10268      72705461 
 10268      626C6500 
 10269              	.LASF307:
 10270 26ba 4C4F5241 		.ascii	"LORAMAC_EVENT_INFO_STATUS_RX1_TIMEOUT\000"
 10270      4D41435F 
 10270      4556454E 
 10270      545F494E 
 10270      464F5F53 
 10271              	.LASF93:
 10272 26e0 5F5F4649 		.ascii	"__FILE\000"
 10272      4C4500
 10273              	.LASF266:
 10274 26e7 52585F53 		.ascii	"RX_SLOT_WIN_PING_SLOT\000"
 10274      4C4F545F 
 10274      57494E5F 
 10274      50494E47 
 10274      5F534C4F 
 10275              	.LASF574:
 10276 26fd 4C4F5241 		.ascii	"LORAMAC_STATUS_BUSY_PING_SLOT_WINDOW_TIME\000"
 10276      4D41435F 
 10276      53544154 
 10276      55535F42 
 10276      5553595F 
 10277              	.LASF30:
 10278 2727 5F736967 		.ascii	"_sign\000"
 10278      6E00
 10279              	.LASF4:
 10280 272d 5F5F696E 		.ascii	"__int8_t\000"
 10280      74385F74 
 10280      00
 10281              	.LASF243:
 10282 2736 44657669 		.ascii	"DeviceClass_t\000"
ARM GAS  C:\Users\EBANO_~1\AppData\Local\Temp\ccD2gIpL.s 			page 234


 10282      6365436C 
 10282      6173735F 
 10282      7400
 10283              	.LASF35:
 10284 2744 5F5F746D 		.ascii	"__tm_min\000"
 10284      5F6D696E 
 10284      00
 10285              	.LASF370:
 10286 274d 4D4C4D45 		.ascii	"MLME_REJOIN_0\000"
 10286      5F52454A 
 10286      4F494E5F 
 10286      3000
 10287              	.LASF371:
 10288 275b 4D4C4D45 		.ascii	"MLME_REJOIN_1\000"
 10288      5F52454A 
 10288      4F494E5F 
 10288      3100
 10289              	.LASF637:
 10290 2769 4C4F5241 		.ascii	"LORA_ConfirmClass\000"
 10290      5F436F6E 
 10290      6669726D 
 10290      436C6173 
 10290      7300
 10291              	.LASF659:
 10292 277b 6E657743 		.ascii	"newClass\000"
 10292      6C617373 
 10292      00
 10293              	.LASF534:
 10294 2784 44656661 		.ascii	"DefaultAntennaGain\000"
 10294      756C7441 
 10294      6E74656E 
 10294      6E614761 
 10294      696E00
 10295              	.LASF537:
 10296 2797 42656163 		.ascii	"BeaconInterval\000"
 10296      6F6E496E 
 10296      74657276 
 10296      616C00
 10297              	.LASF318:
 10298 27a6 4C4F5241 		.ascii	"LORAMAC_EVENT_INFO_STATUS_BEACON_LOCKED\000"
 10298      4D41435F 
 10298      4556454E 
 10298      545F494E 
 10298      464F5F53 
 10299              	.LASF377:
 10300 27ce 4D4C4D45 		.ascii	"MLME_DERIVE_MC_KEY_PAIR\000"
 10300      5F444552 
 10300      4956455F 
 10300      4D435F4B 
 10300      45595F50 
 10301              	.LASF279:
 10302 27e6 436F6D6D 		.ascii	"CommandsNvmCtxSize\000"
 10302      616E6473 
 10302      4E766D43 
 10302      74785369 
 10302      7A6500
 10303              	.LASF551:
ARM GAS  C:\Users\EBANO_~1\AppData\Local\Temp\ccD2gIpL.s 			page 235


 10304 27f9 654D6962 		.ascii	"eMibRequestConfirm\000"
 10304      52657175 
 10304      65737443 
 10304      6F6E6669 
 10304      726D00
 10305              	.LASF0:
 10306 280c 756E7369 		.ascii	"unsigned int\000"
 10306      676E6564 
 10306      20696E74 
 10306      00
 10307              	.LASF634:
 10308 2819 426F6172 		.ascii	"BoardGetRandomSeed\000"
 10308      64476574 
 10308      52616E64 
 10308      6F6D5365 
 10308      656400
 10309              	.LASF107:
 10310 282c 5F723438 		.ascii	"_r48\000"
 10310      00
 10311              	.LASF150:
 10312 2831 56616C75 		.ascii	"Value\000"
 10312      6500
 10313              	.LASF561:
 10314 2837 4C4F5241 		.ascii	"LORAMAC_STATUS_SERVICE_UNKNOWN\000"
 10314      4D41435F 
 10314      53544154 
 10314      55535F53 
 10314      45525649 
 10315              	.LASF665:
 10316 2856 7478496E 		.ascii	"txInfo\000"
 10316      666F00
 10317              	.LASF610:
 10318 285d 47657442 		.ascii	"GetBatteryLevel\000"
 10318      61747465 
 10318      72794C65 
 10318      76656C00 
 10319              	.LASF644:
 10320 286d 4C6F5261 		.ascii	"LoRaMacCallbacks\000"
 10320      4D616343 
 10320      616C6C62 
 10320      61636B73 
 10320      00
 10321              	.LASF342:
 10322 287e 734D6370 		.ascii	"sMcpsReq\000"
 10322      73526571 
 10322      00
 10323              	.LASF338:
 10324 2887 754D6370 		.ascii	"uMcpsParam\000"
 10324      73506172 
 10324      616D00
 10325              	.LASF569:
 10326 2892 4C4F5241 		.ascii	"LORAMAC_STATUS_SKIPPED_APP_DATA\000"
 10326      4D41435F 
 10326      53544154 
 10326      55535F53 
 10326      4B495050 
 10327              	.LASF356:
ARM GAS  C:\Users\EBANO_~1\AppData\Local\Temp\ccD2gIpL.s 			page 236


 10328 28b2 4D637073 		.ascii	"McpsIndication\000"
 10328      496E6469 
 10328      63617469 
 10328      6F6E00
 10329              	.LASF546:
 10330 28c1 42656163 		.ascii	"BeaconSymbolToExpansionFactor\000"
 10330      6F6E5379 
 10330      6D626F6C 
 10330      546F4578 
 10330      70616E73 
 10331              	.LASF520:
 10332 28df 4368616E 		.ascii	"ChannelsNbTrans\000"
 10332      6E656C73 
 10332      4E625472 
 10332      616E7300 
 10333              	.LASF9:
 10334 28ef 73686F72 		.ascii	"short int\000"
 10334      7420696E 
 10334      7400
 10335              	.LASF506:
 10336 28f9 4D634E77 		.ascii	"McNwkSKey1\000"
 10336      6B534B65 
 10336      793100
 10337              	.LASF509:
 10338 2904 4D634E77 		.ascii	"McNwkSKey2\000"
 10338      6B534B65 
 10338      793200
 10339              	.LASF512:
 10340 290f 4D634E77 		.ascii	"McNwkSKey3\000"
 10340      6B534B65 
 10340      793300
 10341              	.LASF383:
 10342 291a 4D4C4D45 		.ascii	"MLME_BEACON_LOST\000"
 10342      5F424541 
 10342      434F4E5F 
 10342      4C4F5354 
 10342      00
 10343              	.LASF185:
 10344 292b 53657452 		.ascii	"SetRxConfig\000"
 10344      78436F6E 
 10344      66696700 
 10345              	.LASF59:
 10346 2937 5F726561 		.ascii	"_read\000"
 10346      6400
 10347              	.LASF397:
 10348 293d 4B657949 		.ascii	"KeyID\000"
 10348      4400
 10349              	.LASF97:
 10350 2943 5F72616E 		.ascii	"_rand48\000"
 10350      64343800 
 10351              	.LASF325:
 10352 294b 4D435053 		.ascii	"MCPS_MULTICAST\000"
 10352      5F4D554C 
 10352      54494341 
 10352      535400
 10353              	.LASF403:
 10354 295a 754D6C6D 		.ascii	"uMlmeParam\000"
ARM GAS  C:\Users\EBANO_~1\AppData\Local\Temp\ccD2gIpL.s 			page 237


 10354      65506172 
 10354      616D00
 10355              	.LASF340:
 10356 2965 436F6E66 		.ascii	"Confirmed\000"
 10356      69726D65 
 10356      6400
 10357              	.LASF207:
 10358 296f 654B6579 		.ascii	"eKeyIdentifier\000"
 10358      4964656E 
 10358      74696669 
 10358      657200
 10359              	.LASF670:
 10360 297e 63616C6C 		.ascii	"callbacks\000"
 10360      6261636B 
 10360      7300
 10361              	.LASF346:
 10362 2988 4D637073 		.ascii	"McpsRequest\000"
 10362      52657175 
 10362      65737400 
 10363              	.LASF478:
 10364 2994 4D49425F 		.ascii	"MIB_BEACON_SYMBOL_TO_DEFAULT\000"
 10364      42454143 
 10364      4F4E5F53 
 10364      594D424F 
 10364      4C5F544F 
 10365              		.ident	"GCC: (GNU Tools for Arm Embedded Processors 7-2018-q2-update) 7.3.1 20180622 (release) [AR
ARM GAS  C:\Users\EBANO_~1\AppData\Local\Temp\ccD2gIpL.s 			page 238


DEFINED SYMBOLS
                            *ABS*:00000000 lora.c
C:\Users\EBANO_~1\AppData\Local\Temp\ccD2gIpL.s:16     .text.MlmeIndication:00000000 $t
C:\Users\EBANO_~1\AppData\Local\Temp\ccD2gIpL.s:23     .text.MlmeIndication:00000000 MlmeIndication
C:\Users\EBANO_~1\AppData\Local\Temp\ccD2gIpL.s:55     .text.MlmeIndication:00000014 $d
C:\Users\EBANO_~1\AppData\Local\Temp\ccD2gIpL.s:60     .text.McpsIndication:00000000 $t
C:\Users\EBANO_~1\AppData\Local\Temp\ccD2gIpL.s:67     .text.McpsIndication:00000000 McpsIndication
C:\Users\EBANO_~1\AppData\Local\Temp\ccD2gIpL.s:167    .text.McpsIndication:00000060 $d
C:\Users\EBANO_~1\AppData\Local\Temp\ccD2gIpL.s:174    .text.McpsConfirm:00000000 $t
C:\Users\EBANO_~1\AppData\Local\Temp\ccD2gIpL.s:181    .text.McpsConfirm:00000000 McpsConfirm
C:\Users\EBANO_~1\AppData\Local\Temp\ccD2gIpL.s:231    .text.MlmeConfirm:00000000 $t
C:\Users\EBANO_~1\AppData\Local\Temp\ccD2gIpL.s:238    .text.MlmeConfirm:00000000 MlmeConfirm
C:\Users\EBANO_~1\AppData\Local\Temp\ccD2gIpL.s:340    .text.MlmeConfirm:00000060 $d
C:\Users\EBANO_~1\AppData\Local\Temp\ccD2gIpL.s:348    .text.LORA_Init:00000000 $t
C:\Users\EBANO_~1\AppData\Local\Temp\ccD2gIpL.s:356    .text.LORA_Init:00000000 LORA_Init
C:\Users\EBANO_~1\AppData\Local\Temp\ccD2gIpL.s:623    .text.LORA_Init:0000015c $d
C:\Users\EBANO_~1\AppData\Local\Temp\ccD2gIpL.s:637    .text.LORA_Join:00000000 $t
C:\Users\EBANO_~1\AppData\Local\Temp\ccD2gIpL.s:645    .text.LORA_Join:00000000 LORA_Join
C:\Users\EBANO_~1\AppData\Local\Temp\ccD2gIpL.s:695    .text.LORA_Join:00000030 $d
C:\Users\EBANO_~1\AppData\Local\Temp\ccD2gIpL.s:701    .text.LORA_JoinStatus:00000000 $t
C:\Users\EBANO_~1\AppData\Local\Temp\ccD2gIpL.s:709    .text.LORA_JoinStatus:00000000 LORA_JoinStatus
C:\Users\EBANO_~1\AppData\Local\Temp\ccD2gIpL.s:747    .text.LORA_send:00000000 $t
C:\Users\EBANO_~1\AppData\Local\Temp\ccD2gIpL.s:755    .text.LORA_send:00000000 LORA_send
C:\Users\EBANO_~1\AppData\Local\Temp\ccD2gIpL.s:870    .text.LORA_send:00000074 $d
C:\Users\EBANO_~1\AppData\Local\Temp\ccD2gIpL.s:875    .text.LORA_RequestClass:00000000 $t
C:\Users\EBANO_~1\AppData\Local\Temp\ccD2gIpL.s:883    .text.LORA_RequestClass:00000000 LORA_RequestClass
C:\Users\EBANO_~1\AppData\Local\Temp\ccD2gIpL.s:1011   .text.LORA_RequestClass:0000007c $d
C:\Users\EBANO_~1\AppData\Local\Temp\ccD2gIpL.s:1017   .text.LORA_GetCurrentClass:00000000 $t
C:\Users\EBANO_~1\AppData\Local\Temp\ccD2gIpL.s:1025   .text.LORA_GetCurrentClass:00000000 LORA_GetCurrentClass
C:\Users\EBANO_~1\AppData\Local\Temp\ccD2gIpL.s:1133   .data:00000030 MlmeReqStrings
C:\Users\EBANO_~1\AppData\Local\Temp\ccD2gIpL.s:1151   .data:0000006c MacStatusStrings
C:\Users\EBANO_~1\AppData\Local\Temp\ccD2gIpL.s:1176   .data:000000c4 EventInfoStatusStrings
C:\Users\EBANO_~1\AppData\Local\Temp\ccD2gIpL.s:1069   .data:00000000 $d
C:\Users\EBANO_~1\AppData\Local\Temp\ccD2gIpL.s:1073   .data:00000000 DevEui
C:\Users\EBANO_~1\AppData\Local\Temp\ccD2gIpL.s:1084   .data:00000008 JoinEui
C:\Users\EBANO_~1\AppData\Local\Temp\ccD2gIpL.s:1095   .data:00000010 AppKey
C:\Users\EBANO_~1\AppData\Local\Temp\ccD2gIpL.s:1114   .data:00000020 NwkKey
C:\Users\EBANO_~1\AppData\Local\Temp\ccD2gIpL.s:1195   .bss:00000000 $d
C:\Users\EBANO_~1\AppData\Local\Temp\ccD2gIpL.s:1199   .bss:00000000 LoRaMainCallbacks
C:\Users\EBANO_~1\AppData\Local\Temp\ccD2gIpL.s:1203   .bss:00000004 JoinParameters
C:\Users\EBANO_~1\AppData\Local\Temp\ccD2gIpL.s:1207   .bss:00000010 LoRaParamInit
C:\Users\EBANO_~1\AppData\Local\Temp\ccD2gIpL.s:1211   .bss:00000014 LoRaMacPrimitives
C:\Users\EBANO_~1\AppData\Local\Temp\ccD2gIpL.s:1215   .bss:00000024 LoRaMacCallbacks
C:\Users\EBANO_~1\AppData\Local\Temp\ccD2gIpL.s:1219   .bss:00000034 mibReq
C:\Users\EBANO_~1\AppData\Local\Temp\ccD2gIpL.s:1222   .rodata.str1.4:00000000 $d

UNDEFINED SYMBOLS
certif_running
certif_DownLinkIncrement
certif_rx
LoRaMacMibGetRequestConfirm
certif_linkCheck
LoRaMacMlmeRequest
TraceSend
LoRaMacInitialization
LoRaMacMibSetRequestConfirm
LoRaMacTestSetDutyCycleOn
ARM GAS  C:\Users\EBANO_~1\AppData\Local\Temp\ccD2gIpL.s 			page 239


LoRaMacStart
LoRaMacQueryTxPossible
LoRaMacMcpsRequest
