ARM GAS  C:\Users\EBANO_~1\AppData\Local\Temp\ccis3phW.s 			page 1


   1              		.cpu cortex-m0plus
   2              		.eabi_attribute 20, 1
   3              		.eabi_attribute 21, 1
   4              		.eabi_attribute 23, 3
   5              		.eabi_attribute 24, 1
   6              		.eabi_attribute 25, 1
   7              		.eabi_attribute 26, 1
   8              		.eabi_attribute 30, 2
   9              		.eabi_attribute 34, 0
  10              		.eabi_attribute 18, 4
  11              		.file	"LoRaMacClassB.c"
  12              		.text
  13              	.Ltext0:
  14              		.cfi_sections	.debug_frame
  15              		.section	.text.LoRaMacClassBInit,"ax",%progbits
  16              		.align	1
  17              		.p2align 2,,3
  18              		.global	LoRaMacClassBInit
  19              		.syntax unified
  20              		.code	16
  21              		.thumb_func
  22              		.fpu softvfp
  23              		.type	LoRaMacClassBInit, %function
  24              	LoRaMacClassBInit:
  25              	.LFB39:
  26              		.file 1 "../../../../../../Middlewares/Third_Party/LoRaWAN/Mac/LoRaMacClassB.c"
   1:../../../../../../Middlewares/Third_Party/LoRaWAN/Mac/LoRaMacClassB.c **** /*
   2:../../../../../../Middlewares/Third_Party/LoRaWAN/Mac/LoRaMacClassB.c ****  / _____)             _              | |
   3:../../../../../../Middlewares/Third_Party/LoRaWAN/Mac/LoRaMacClassB.c **** ( (____  _____ ____ _| |_ _____  ____| |__
   4:../../../../../../Middlewares/Third_Party/LoRaWAN/Mac/LoRaMacClassB.c ****  \____ \| ___ |    (_   _) ___ |/ ___)  _ \
   5:../../../../../../Middlewares/Third_Party/LoRaWAN/Mac/LoRaMacClassB.c ****  _____) ) ____| | | || |_| ____( (___| | | |
   6:../../../../../../Middlewares/Third_Party/LoRaWAN/Mac/LoRaMacClassB.c **** (______/|_____)_|_|_| \__)_____)\____)_| |_|
   7:../../../../../../Middlewares/Third_Party/LoRaWAN/Mac/LoRaMacClassB.c ****     (C)2013 Semtech
   8:../../../../../../Middlewares/Third_Party/LoRaWAN/Mac/LoRaMacClassB.c ****  ___ _____ _   ___ _  _____ ___  ___  ___ ___
   9:../../../../../../Middlewares/Third_Party/LoRaWAN/Mac/LoRaMacClassB.c **** / __|_   _/_\ / __| |/ / __/ _ \| _ \/ __| __|
  10:../../../../../../Middlewares/Third_Party/LoRaWAN/Mac/LoRaMacClassB.c **** \__ \ | |/ _ \ (__| ' <| _| (_) |   / (__| _|
  11:../../../../../../Middlewares/Third_Party/LoRaWAN/Mac/LoRaMacClassB.c **** |___/ |_/_/ \_\___|_|\_\_| \___/|_|_\\___|___|
  12:../../../../../../Middlewares/Third_Party/LoRaWAN/Mac/LoRaMacClassB.c **** embedded.connectivity.solutions===============
  13:../../../../../../Middlewares/Third_Party/LoRaWAN/Mac/LoRaMacClassB.c **** 
  14:../../../../../../Middlewares/Third_Party/LoRaWAN/Mac/LoRaMacClassB.c **** Description: LoRa MAC Class B layer implementation
  15:../../../../../../Middlewares/Third_Party/LoRaWAN/Mac/LoRaMacClassB.c **** 
  16:../../../../../../Middlewares/Third_Party/LoRaWAN/Mac/LoRaMacClassB.c **** License: Revised BSD License, see LICENSE.TXT file include in the project
  17:../../../../../../Middlewares/Third_Party/LoRaWAN/Mac/LoRaMacClassB.c **** 
  18:../../../../../../Middlewares/Third_Party/LoRaWAN/Mac/LoRaMacClassB.c **** Maintainer: Miguel Luis ( Semtech ), Gregory Cristian ( Semtech ) and Daniel Jaeckle ( STACKFORCE )
  19:../../../../../../Middlewares/Third_Party/LoRaWAN/Mac/LoRaMacClassB.c **** */
  20:../../../../../../Middlewares/Third_Party/LoRaWAN/Mac/LoRaMacClassB.c **** #include <math.h>
  21:../../../../../../Middlewares/Third_Party/LoRaWAN/Mac/LoRaMacClassB.c **** #include "utilities.h"
  22:../../../../../../Middlewares/Third_Party/LoRaWAN/Mac/LoRaMacClassB.c **** #include "secure-element.h"
  23:../../../../../../Middlewares/Third_Party/LoRaWAN/Mac/LoRaMacClassB.c **** #include "LoRaMac.h"
  24:../../../../../../Middlewares/Third_Party/LoRaWAN/Mac/LoRaMacClassB.c **** #include "LoRaMacClassB.h"
  25:../../../../../../Middlewares/Third_Party/LoRaWAN/Mac/LoRaMacClassB.c **** #include "LoRaMacClassBConfig.h"
  26:../../../../../../Middlewares/Third_Party/LoRaWAN/Mac/LoRaMacClassB.c **** #include "LoRaMacCrypto.h"
  27:../../../../../../Middlewares/Third_Party/LoRaWAN/Mac/LoRaMacClassB.c **** #include "LoRaMacConfirmQueue.h"
  28:../../../../../../Middlewares/Third_Party/LoRaWAN/Mac/LoRaMacClassB.c **** 
  29:../../../../../../Middlewares/Third_Party/LoRaWAN/Mac/LoRaMacClassB.c **** #ifdef LORAMAC_CLASSB_ENABLED
  30:../../../../../../Middlewares/Third_Party/LoRaWAN/Mac/LoRaMacClassB.c **** 
  31:../../../../../../Middlewares/Third_Party/LoRaWAN/Mac/LoRaMacClassB.c **** /*
ARM GAS  C:\Users\EBANO_~1\AppData\Local\Temp\ccis3phW.s 			page 2


  32:../../../../../../Middlewares/Third_Party/LoRaWAN/Mac/LoRaMacClassB.c ****  * LoRaMac Class B Context structure
  33:../../../../../../Middlewares/Third_Party/LoRaWAN/Mac/LoRaMacClassB.c ****  */
  34:../../../../../../Middlewares/Third_Party/LoRaWAN/Mac/LoRaMacClassB.c **** typedef struct sLoRaMacClassBNvmCtx
  35:../../../../../../Middlewares/Third_Party/LoRaWAN/Mac/LoRaMacClassB.c **** {
  36:../../../../../../Middlewares/Third_Party/LoRaWAN/Mac/LoRaMacClassB.c ****     /*!
  37:../../../../../../Middlewares/Third_Party/LoRaWAN/Mac/LoRaMacClassB.c ****     * State of the beaconing mechanism
  38:../../../../../../Middlewares/Third_Party/LoRaWAN/Mac/LoRaMacClassB.c ****     */
  39:../../../../../../Middlewares/Third_Party/LoRaWAN/Mac/LoRaMacClassB.c ****     BeaconState_t BeaconState;
  40:../../../../../../Middlewares/Third_Party/LoRaWAN/Mac/LoRaMacClassB.c ****     /*!
  41:../../../../../../Middlewares/Third_Party/LoRaWAN/Mac/LoRaMacClassB.c ****     * State of the ping slot mechanism
  42:../../../../../../Middlewares/Third_Party/LoRaWAN/Mac/LoRaMacClassB.c ****     */
  43:../../../../../../Middlewares/Third_Party/LoRaWAN/Mac/LoRaMacClassB.c ****     PingSlotState_t PingSlotState;
  44:../../../../../../Middlewares/Third_Party/LoRaWAN/Mac/LoRaMacClassB.c ****     /*!
  45:../../../../../../Middlewares/Third_Party/LoRaWAN/Mac/LoRaMacClassB.c ****     * State of the multicast slot mechanism
  46:../../../../../../Middlewares/Third_Party/LoRaWAN/Mac/LoRaMacClassB.c ****     */
  47:../../../../../../Middlewares/Third_Party/LoRaWAN/Mac/LoRaMacClassB.c ****     PingSlotState_t MulticastSlotState;
  48:../../../../../../Middlewares/Third_Party/LoRaWAN/Mac/LoRaMacClassB.c ****     /*!
  49:../../../../../../Middlewares/Third_Party/LoRaWAN/Mac/LoRaMacClassB.c ****     * Class B ping slot context
  50:../../../../../../Middlewares/Third_Party/LoRaWAN/Mac/LoRaMacClassB.c ****     */
  51:../../../../../../Middlewares/Third_Party/LoRaWAN/Mac/LoRaMacClassB.c ****     PingSlotContext_t PingSlotCtx;
  52:../../../../../../Middlewares/Third_Party/LoRaWAN/Mac/LoRaMacClassB.c ****     /*!
  53:../../../../../../Middlewares/Third_Party/LoRaWAN/Mac/LoRaMacClassB.c ****     * Class B beacon context
  54:../../../../../../Middlewares/Third_Party/LoRaWAN/Mac/LoRaMacClassB.c ****     */
  55:../../../../../../Middlewares/Third_Party/LoRaWAN/Mac/LoRaMacClassB.c ****     BeaconContext_t BeaconCtx;
  56:../../../../../../Middlewares/Third_Party/LoRaWAN/Mac/LoRaMacClassB.c **** } LoRaMacClassBNvmCtx_t;
  57:../../../../../../Middlewares/Third_Party/LoRaWAN/Mac/LoRaMacClassB.c **** 
  58:../../../../../../Middlewares/Third_Party/LoRaWAN/Mac/LoRaMacClassB.c **** /*
  59:../../../../../../Middlewares/Third_Party/LoRaWAN/Mac/LoRaMacClassB.c ****  * LoRaMac Class B Context structure
  60:../../../../../../Middlewares/Third_Party/LoRaWAN/Mac/LoRaMacClassB.c ****  */
  61:../../../../../../Middlewares/Third_Party/LoRaWAN/Mac/LoRaMacClassB.c **** typedef struct sLoRaMacClassBCtx
  62:../../../../../../Middlewares/Third_Party/LoRaWAN/Mac/LoRaMacClassB.c **** {
  63:../../../../../../Middlewares/Third_Party/LoRaWAN/Mac/LoRaMacClassB.c ****     /*!
  64:../../../../../../Middlewares/Third_Party/LoRaWAN/Mac/LoRaMacClassB.c ****     * Timer for CLASS B beacon acquisition and tracking.
  65:../../../../../../Middlewares/Third_Party/LoRaWAN/Mac/LoRaMacClassB.c ****     */
  66:../../../../../../Middlewares/Third_Party/LoRaWAN/Mac/LoRaMacClassB.c ****     TimerEvent_t BeaconTimer;
  67:../../../../../../Middlewares/Third_Party/LoRaWAN/Mac/LoRaMacClassB.c ****     /*!
  68:../../../../../../Middlewares/Third_Party/LoRaWAN/Mac/LoRaMacClassB.c ****     * Timer for CLASS B ping slot timer.
  69:../../../../../../Middlewares/Third_Party/LoRaWAN/Mac/LoRaMacClassB.c ****     */
  70:../../../../../../Middlewares/Third_Party/LoRaWAN/Mac/LoRaMacClassB.c ****     TimerEvent_t PingSlotTimer;
  71:../../../../../../Middlewares/Third_Party/LoRaWAN/Mac/LoRaMacClassB.c ****     /*!
  72:../../../../../../Middlewares/Third_Party/LoRaWAN/Mac/LoRaMacClassB.c ****     * Timer for CLASS B multicast ping slot timer.
  73:../../../../../../Middlewares/Third_Party/LoRaWAN/Mac/LoRaMacClassB.c ****     */
  74:../../../../../../Middlewares/Third_Party/LoRaWAN/Mac/LoRaMacClassB.c ****     TimerEvent_t MulticastSlotTimer;
  75:../../../../../../Middlewares/Third_Party/LoRaWAN/Mac/LoRaMacClassB.c ****     /*!
  76:../../../../../../Middlewares/Third_Party/LoRaWAN/Mac/LoRaMacClassB.c ****     * Container for the callbacks related to class b.
  77:../../../../../../Middlewares/Third_Party/LoRaWAN/Mac/LoRaMacClassB.c ****     */
  78:../../../../../../Middlewares/Third_Party/LoRaWAN/Mac/LoRaMacClassB.c ****     LoRaMacClassBCallback_t LoRaMacClassBCallbacks;
  79:../../../../../../Middlewares/Third_Party/LoRaWAN/Mac/LoRaMacClassB.c ****     /*!
  80:../../../../../../Middlewares/Third_Party/LoRaWAN/Mac/LoRaMacClassB.c ****     * Data structure which holds the parameters which needs to be set
  81:../../../../../../Middlewares/Third_Party/LoRaWAN/Mac/LoRaMacClassB.c ****     * in class b operation.
  82:../../../../../../Middlewares/Third_Party/LoRaWAN/Mac/LoRaMacClassB.c ****     */
  83:../../../../../../Middlewares/Third_Party/LoRaWAN/Mac/LoRaMacClassB.c ****     LoRaMacClassBParams_t LoRaMacClassBParams;
  84:../../../../../../Middlewares/Third_Party/LoRaWAN/Mac/LoRaMacClassB.c ****     /*
  85:../../../../../../Middlewares/Third_Party/LoRaWAN/Mac/LoRaMacClassB.c ****      * Callback function to notify the upper layer about context change
  86:../../../../../../Middlewares/Third_Party/LoRaWAN/Mac/LoRaMacClassB.c ****      */
  87:../../../../../../Middlewares/Third_Party/LoRaWAN/Mac/LoRaMacClassB.c ****     EventNvmCtxChanged EventNvmCtxChanged;
  88:../../../../../../Middlewares/Third_Party/LoRaWAN/Mac/LoRaMacClassB.c ****     /*!
ARM GAS  C:\Users\EBANO_~1\AppData\Local\Temp\ccis3phW.s 			page 3


  89:../../../../../../Middlewares/Third_Party/LoRaWAN/Mac/LoRaMacClassB.c ****     * Non-volatile module context.
  90:../../../../../../Middlewares/Third_Party/LoRaWAN/Mac/LoRaMacClassB.c ****     */
  91:../../../../../../Middlewares/Third_Party/LoRaWAN/Mac/LoRaMacClassB.c ****     LoRaMacClassBNvmCtx_t* NvmCtx;
  92:../../../../../../Middlewares/Third_Party/LoRaWAN/Mac/LoRaMacClassB.c **** } LoRaMacClassBCtx_t;
  93:../../../../../../Middlewares/Third_Party/LoRaWAN/Mac/LoRaMacClassB.c **** 
  94:../../../../../../Middlewares/Third_Party/LoRaWAN/Mac/LoRaMacClassB.c **** /*!
  95:../../../../../../Middlewares/Third_Party/LoRaWAN/Mac/LoRaMacClassB.c ****  * Defines the LoRaMac radio events status
  96:../../../../../../Middlewares/Third_Party/LoRaWAN/Mac/LoRaMacClassB.c ****  */
  97:../../../../../../Middlewares/Third_Party/LoRaWAN/Mac/LoRaMacClassB.c **** typedef union uLoRaMacClassBEvents
  98:../../../../../../Middlewares/Third_Party/LoRaWAN/Mac/LoRaMacClassB.c **** {
  99:../../../../../../Middlewares/Third_Party/LoRaWAN/Mac/LoRaMacClassB.c ****     uint32_t Value;
 100:../../../../../../Middlewares/Third_Party/LoRaWAN/Mac/LoRaMacClassB.c ****     struct sEvents
 101:../../../../../../Middlewares/Third_Party/LoRaWAN/Mac/LoRaMacClassB.c ****     {
 102:../../../../../../Middlewares/Third_Party/LoRaWAN/Mac/LoRaMacClassB.c ****         uint32_t Beacon        : 1;
 103:../../../../../../Middlewares/Third_Party/LoRaWAN/Mac/LoRaMacClassB.c ****         uint32_t PingSlot      : 1;
 104:../../../../../../Middlewares/Third_Party/LoRaWAN/Mac/LoRaMacClassB.c ****         uint32_t MulticastSlot : 1;
 105:../../../../../../Middlewares/Third_Party/LoRaWAN/Mac/LoRaMacClassB.c ****     }Events;
 106:../../../../../../Middlewares/Third_Party/LoRaWAN/Mac/LoRaMacClassB.c **** }LoRaMacClassBEvents_t;
 107:../../../../../../Middlewares/Third_Party/LoRaWAN/Mac/LoRaMacClassB.c **** 
 108:../../../../../../Middlewares/Third_Party/LoRaWAN/Mac/LoRaMacClassB.c **** LoRaMacClassBEvents_t LoRaMacClassBEvents = { .Value = 0 };
 109:../../../../../../Middlewares/Third_Party/LoRaWAN/Mac/LoRaMacClassB.c **** 
 110:../../../../../../Middlewares/Third_Party/LoRaWAN/Mac/LoRaMacClassB.c **** /*
 111:../../../../../../Middlewares/Third_Party/LoRaWAN/Mac/LoRaMacClassB.c ****  * Non-volatile module context.
 112:../../../../../../Middlewares/Third_Party/LoRaWAN/Mac/LoRaMacClassB.c ****  */
 113:../../../../../../Middlewares/Third_Party/LoRaWAN/Mac/LoRaMacClassB.c **** static LoRaMacClassBNvmCtx_t NvmCtx;
 114:../../../../../../Middlewares/Third_Party/LoRaWAN/Mac/LoRaMacClassB.c **** 
 115:../../../../../../Middlewares/Third_Party/LoRaWAN/Mac/LoRaMacClassB.c **** /*
 116:../../../../../../Middlewares/Third_Party/LoRaWAN/Mac/LoRaMacClassB.c ****  * Module context.
 117:../../../../../../Middlewares/Third_Party/LoRaWAN/Mac/LoRaMacClassB.c ****  */
 118:../../../../../../Middlewares/Third_Party/LoRaWAN/Mac/LoRaMacClassB.c **** /*static*/ LoRaMacClassBCtx_t Ctx;
 119:../../../../../../Middlewares/Third_Party/LoRaWAN/Mac/LoRaMacClassB.c **** 
 120:../../../../../../Middlewares/Third_Party/LoRaWAN/Mac/LoRaMacClassB.c **** /*!
 121:../../../../../../Middlewares/Third_Party/LoRaWAN/Mac/LoRaMacClassB.c ****  * Computes the Ping Offset
 122:../../../../../../Middlewares/Third_Party/LoRaWAN/Mac/LoRaMacClassB.c ****  *
 123:../../../../../../Middlewares/Third_Party/LoRaWAN/Mac/LoRaMacClassB.c ****  * \param [IN]  beaconTime      - Time of the recent received beacon
 124:../../../../../../Middlewares/Third_Party/LoRaWAN/Mac/LoRaMacClassB.c ****  * \param [IN]  address         - Frame address
 125:../../../../../../Middlewares/Third_Party/LoRaWAN/Mac/LoRaMacClassB.c ****  * \param [IN]  pingPeriod      - Ping period of the node
 126:../../../../../../Middlewares/Third_Party/LoRaWAN/Mac/LoRaMacClassB.c ****  * \param [OUT] pingOffset      - Pseudo random ping offset
 127:../../../../../../Middlewares/Third_Party/LoRaWAN/Mac/LoRaMacClassB.c ****  */
 128:../../../../../../Middlewares/Third_Party/LoRaWAN/Mac/LoRaMacClassB.c **** static void ComputePingOffset( uint64_t beaconTime, uint32_t address, uint16_t pingPeriod, uint16_t
 129:../../../../../../Middlewares/Third_Party/LoRaWAN/Mac/LoRaMacClassB.c **** {
 130:../../../../../../Middlewares/Third_Party/LoRaWAN/Mac/LoRaMacClassB.c ****     uint8_t zeroKey[16];
 131:../../../../../../Middlewares/Third_Party/LoRaWAN/Mac/LoRaMacClassB.c ****     uint8_t buffer[16];
 132:../../../../../../Middlewares/Third_Party/LoRaWAN/Mac/LoRaMacClassB.c ****     uint8_t cipher[16];
 133:../../../../../../Middlewares/Third_Party/LoRaWAN/Mac/LoRaMacClassB.c ****     uint32_t result = 0;
 134:../../../../../../Middlewares/Third_Party/LoRaWAN/Mac/LoRaMacClassB.c ****     /* Refer to chapter 15.2 of the LoRaWAN specification v1.1. The beacon time
 135:../../../../../../Middlewares/Third_Party/LoRaWAN/Mac/LoRaMacClassB.c ****      * GPS time in seconds modulo 2^32
 136:../../../../../../Middlewares/Third_Party/LoRaWAN/Mac/LoRaMacClassB.c ****      */
 137:../../../../../../Middlewares/Third_Party/LoRaWAN/Mac/LoRaMacClassB.c ****     uint32_t time = ( beaconTime % ( ( ( uint64_t ) 1 ) << 32 ) );
 138:../../../../../../Middlewares/Third_Party/LoRaWAN/Mac/LoRaMacClassB.c **** 
 139:../../../../../../Middlewares/Third_Party/LoRaWAN/Mac/LoRaMacClassB.c ****     memset1( zeroKey, 0, 16 );
 140:../../../../../../Middlewares/Third_Party/LoRaWAN/Mac/LoRaMacClassB.c ****     memset1( buffer, 0, 16 );
 141:../../../../../../Middlewares/Third_Party/LoRaWAN/Mac/LoRaMacClassB.c ****     memset1( cipher, 0, 16 );
 142:../../../../../../Middlewares/Third_Party/LoRaWAN/Mac/LoRaMacClassB.c **** 
 143:../../../../../../Middlewares/Third_Party/LoRaWAN/Mac/LoRaMacClassB.c ****     buffer[0] = ( time ) & 0xFF;
 144:../../../../../../Middlewares/Third_Party/LoRaWAN/Mac/LoRaMacClassB.c ****     buffer[1] = ( time >> 8 ) & 0xFF;
 145:../../../../../../Middlewares/Third_Party/LoRaWAN/Mac/LoRaMacClassB.c ****     buffer[2] = ( time >> 16 ) & 0xFF;
ARM GAS  C:\Users\EBANO_~1\AppData\Local\Temp\ccis3phW.s 			page 4


 146:../../../../../../Middlewares/Third_Party/LoRaWAN/Mac/LoRaMacClassB.c ****     buffer[3] = ( time >> 24 ) & 0xFF;
 147:../../../../../../Middlewares/Third_Party/LoRaWAN/Mac/LoRaMacClassB.c **** 
 148:../../../../../../Middlewares/Third_Party/LoRaWAN/Mac/LoRaMacClassB.c ****     buffer[4] = ( address ) & 0xFF;
 149:../../../../../../Middlewares/Third_Party/LoRaWAN/Mac/LoRaMacClassB.c ****     buffer[5] = ( address >> 8 ) & 0xFF;
 150:../../../../../../Middlewares/Third_Party/LoRaWAN/Mac/LoRaMacClassB.c ****     buffer[6] = ( address >> 16 ) & 0xFF;
 151:../../../../../../Middlewares/Third_Party/LoRaWAN/Mac/LoRaMacClassB.c ****     buffer[7] = ( address >> 24 ) & 0xFF;
 152:../../../../../../Middlewares/Third_Party/LoRaWAN/Mac/LoRaMacClassB.c **** 
 153:../../../../../../Middlewares/Third_Party/LoRaWAN/Mac/LoRaMacClassB.c ****     SecureElementSetKey( SLOT_RAND_ZERO_KEY, zeroKey );
 154:../../../../../../Middlewares/Third_Party/LoRaWAN/Mac/LoRaMacClassB.c **** 
 155:../../../../../../Middlewares/Third_Party/LoRaWAN/Mac/LoRaMacClassB.c ****     SecureElementAesEncrypt( buffer, 16, SLOT_RAND_ZERO_KEY, cipher );
 156:../../../../../../Middlewares/Third_Party/LoRaWAN/Mac/LoRaMacClassB.c **** 
 157:../../../../../../Middlewares/Third_Party/LoRaWAN/Mac/LoRaMacClassB.c ****     result = ( ( ( uint32_t ) cipher[0] ) + ( ( ( uint32_t ) cipher[1] ) * 256 ) );
 158:../../../../../../Middlewares/Third_Party/LoRaWAN/Mac/LoRaMacClassB.c **** 
 159:../../../../../../Middlewares/Third_Party/LoRaWAN/Mac/LoRaMacClassB.c ****     *pingOffset = ( uint16_t )( result % pingPeriod );
 160:../../../../../../Middlewares/Third_Party/LoRaWAN/Mac/LoRaMacClassB.c **** }
 161:../../../../../../Middlewares/Third_Party/LoRaWAN/Mac/LoRaMacClassB.c **** 
 162:../../../../../../Middlewares/Third_Party/LoRaWAN/Mac/LoRaMacClassB.c **** /*!
 163:../../../../../../Middlewares/Third_Party/LoRaWAN/Mac/LoRaMacClassB.c ****  * \brief Calculates the downlink frequency for a given channel.
 164:../../../../../../Middlewares/Third_Party/LoRaWAN/Mac/LoRaMacClassB.c ****  *
 165:../../../../../../Middlewares/Third_Party/LoRaWAN/Mac/LoRaMacClassB.c ****  * \param [IN] channel The channel according to the channel plan.
 166:../../../../../../Middlewares/Third_Party/LoRaWAN/Mac/LoRaMacClassB.c ****  *
 167:../../../../../../Middlewares/Third_Party/LoRaWAN/Mac/LoRaMacClassB.c ****  * \retval The downlink frequency
 168:../../../../../../Middlewares/Third_Party/LoRaWAN/Mac/LoRaMacClassB.c ****  */
 169:../../../../../../Middlewares/Third_Party/LoRaWAN/Mac/LoRaMacClassB.c **** static uint32_t CalcDownlinkFrequency( uint8_t channel )
 170:../../../../../../Middlewares/Third_Party/LoRaWAN/Mac/LoRaMacClassB.c **** {
 171:../../../../../../Middlewares/Third_Party/LoRaWAN/Mac/LoRaMacClassB.c ****     GetPhyParams_t getPhy;
 172:../../../../../../Middlewares/Third_Party/LoRaWAN/Mac/LoRaMacClassB.c ****     PhyParam_t phyParam;
 173:../../../../../../Middlewares/Third_Party/LoRaWAN/Mac/LoRaMacClassB.c ****     uint32_t frequency = 0;
 174:../../../../../../Middlewares/Third_Party/LoRaWAN/Mac/LoRaMacClassB.c ****     uint32_t stepwidth = 0;
 175:../../../../../../Middlewares/Third_Party/LoRaWAN/Mac/LoRaMacClassB.c **** 
 176:../../../../../../Middlewares/Third_Party/LoRaWAN/Mac/LoRaMacClassB.c ****     getPhy.Attribute = PHY_BEACON_CHANNEL_FREQ;
 177:../../../../../../Middlewares/Third_Party/LoRaWAN/Mac/LoRaMacClassB.c ****     phyParam = RegionGetPhyParam( *Ctx.LoRaMacClassBParams.LoRaMacRegion, &getPhy );
 178:../../../../../../Middlewares/Third_Party/LoRaWAN/Mac/LoRaMacClassB.c ****     frequency = phyParam.Value;
 179:../../../../../../Middlewares/Third_Party/LoRaWAN/Mac/LoRaMacClassB.c **** 
 180:../../../../../../Middlewares/Third_Party/LoRaWAN/Mac/LoRaMacClassB.c ****     getPhy.Attribute = PHY_BEACON_CHANNEL_STEPWIDTH;
 181:../../../../../../Middlewares/Third_Party/LoRaWAN/Mac/LoRaMacClassB.c ****     phyParam = RegionGetPhyParam( *Ctx.LoRaMacClassBParams.LoRaMacRegion, &getPhy );
 182:../../../../../../Middlewares/Third_Party/LoRaWAN/Mac/LoRaMacClassB.c ****     stepwidth = phyParam.Value;
 183:../../../../../../Middlewares/Third_Party/LoRaWAN/Mac/LoRaMacClassB.c **** 
 184:../../../../../../Middlewares/Third_Party/LoRaWAN/Mac/LoRaMacClassB.c ****     // Calculate the frequency
 185:../../../../../../Middlewares/Third_Party/LoRaWAN/Mac/LoRaMacClassB.c ****     return frequency + ( channel * stepwidth );
 186:../../../../../../Middlewares/Third_Party/LoRaWAN/Mac/LoRaMacClassB.c **** }
 187:../../../../../../Middlewares/Third_Party/LoRaWAN/Mac/LoRaMacClassB.c **** 
 188:../../../../../../Middlewares/Third_Party/LoRaWAN/Mac/LoRaMacClassB.c **** /*!
 189:../../../../../../Middlewares/Third_Party/LoRaWAN/Mac/LoRaMacClassB.c ****  * \brief Calculates the downlink channel for the beacon and for
 190:../../../../../../Middlewares/Third_Party/LoRaWAN/Mac/LoRaMacClassB.c ****  *        ping slot downlinks.
 191:../../../../../../Middlewares/Third_Party/LoRaWAN/Mac/LoRaMacClassB.c ****  *
 192:../../../../../../Middlewares/Third_Party/LoRaWAN/Mac/LoRaMacClassB.c ****  * \param [IN] devAddr The address of the device
 193:../../../../../../Middlewares/Third_Party/LoRaWAN/Mac/LoRaMacClassB.c ****  *
 194:../../../../../../Middlewares/Third_Party/LoRaWAN/Mac/LoRaMacClassB.c ****  * \param [IN] beaconTime The beacon time of the beacon.
 195:../../../../../../Middlewares/Third_Party/LoRaWAN/Mac/LoRaMacClassB.c ****  *
 196:../../../../../../Middlewares/Third_Party/LoRaWAN/Mac/LoRaMacClassB.c ****  * \param [IN] beaconInterval The beacon interval
 197:../../../../../../Middlewares/Third_Party/LoRaWAN/Mac/LoRaMacClassB.c ****  *
 198:../../../../../../Middlewares/Third_Party/LoRaWAN/Mac/LoRaMacClassB.c ****  * \retval The downlink channel
 199:../../../../../../Middlewares/Third_Party/LoRaWAN/Mac/LoRaMacClassB.c ****  */
 200:../../../../../../Middlewares/Third_Party/LoRaWAN/Mac/LoRaMacClassB.c **** static uint32_t CalcDownlinkChannelAndFrequency( uint32_t devAddr, TimerTime_t beaconTime, TimerTim
 201:../../../../../../Middlewares/Third_Party/LoRaWAN/Mac/LoRaMacClassB.c **** {
 202:../../../../../../Middlewares/Third_Party/LoRaWAN/Mac/LoRaMacClassB.c ****     GetPhyParams_t getPhy;
ARM GAS  C:\Users\EBANO_~1\AppData\Local\Temp\ccis3phW.s 			page 5


 203:../../../../../../Middlewares/Third_Party/LoRaWAN/Mac/LoRaMacClassB.c ****     PhyParam_t phyParam;
 204:../../../../../../Middlewares/Third_Party/LoRaWAN/Mac/LoRaMacClassB.c ****     uint32_t channel = 0;
 205:../../../../../../Middlewares/Third_Party/LoRaWAN/Mac/LoRaMacClassB.c ****     uint8_t nbChannels = 0;
 206:../../../../../../Middlewares/Third_Party/LoRaWAN/Mac/LoRaMacClassB.c ****     uint32_t frequency = 0;
 207:../../../../../../Middlewares/Third_Party/LoRaWAN/Mac/LoRaMacClassB.c **** 
 208:../../../../../../Middlewares/Third_Party/LoRaWAN/Mac/LoRaMacClassB.c ****     getPhy.Attribute = PHY_BEACON_NB_CHANNELS;
 209:../../../../../../Middlewares/Third_Party/LoRaWAN/Mac/LoRaMacClassB.c ****     phyParam = RegionGetPhyParam( *Ctx.LoRaMacClassBParams.LoRaMacRegion, &getPhy );
 210:../../../../../../Middlewares/Third_Party/LoRaWAN/Mac/LoRaMacClassB.c ****     nbChannels = (uint8_t) phyParam.Value;
 211:../../../../../../Middlewares/Third_Party/LoRaWAN/Mac/LoRaMacClassB.c **** 
 212:../../../../../../Middlewares/Third_Party/LoRaWAN/Mac/LoRaMacClassB.c ****     if( nbChannels > 1 )
 213:../../../../../../Middlewares/Third_Party/LoRaWAN/Mac/LoRaMacClassB.c ****     {
 214:../../../../../../Middlewares/Third_Party/LoRaWAN/Mac/LoRaMacClassB.c ****         // Calculate the channel for the next downlink
 215:../../../../../../Middlewares/Third_Party/LoRaWAN/Mac/LoRaMacClassB.c ****         channel = devAddr + ( beaconTime / ( beaconInterval / 1000 ) );
 216:../../../../../../Middlewares/Third_Party/LoRaWAN/Mac/LoRaMacClassB.c ****         channel = channel % nbChannels;
 217:../../../../../../Middlewares/Third_Party/LoRaWAN/Mac/LoRaMacClassB.c ****     }
 218:../../../../../../Middlewares/Third_Party/LoRaWAN/Mac/LoRaMacClassB.c **** 
 219:../../../../../../Middlewares/Third_Party/LoRaWAN/Mac/LoRaMacClassB.c ****     // Calculate the frequency for the next downlink
 220:../../../../../../Middlewares/Third_Party/LoRaWAN/Mac/LoRaMacClassB.c ****     frequency = CalcDownlinkFrequency( channel );
 221:../../../../../../Middlewares/Third_Party/LoRaWAN/Mac/LoRaMacClassB.c **** 
 222:../../../../../../Middlewares/Third_Party/LoRaWAN/Mac/LoRaMacClassB.c ****     // Calculate the frequency for the next downlink
 223:../../../../../../Middlewares/Third_Party/LoRaWAN/Mac/LoRaMacClassB.c ****     return frequency;
 224:../../../../../../Middlewares/Third_Party/LoRaWAN/Mac/LoRaMacClassB.c **** }
 225:../../../../../../Middlewares/Third_Party/LoRaWAN/Mac/LoRaMacClassB.c **** 
 226:../../../../../../Middlewares/Third_Party/LoRaWAN/Mac/LoRaMacClassB.c **** /*!
 227:../../../../../../Middlewares/Third_Party/LoRaWAN/Mac/LoRaMacClassB.c ****  * \brief Calculates the correct frequency and opens up the beacon reception window.
 228:../../../../../../Middlewares/Third_Party/LoRaWAN/Mac/LoRaMacClassB.c ****  *
 229:../../../../../../Middlewares/Third_Party/LoRaWAN/Mac/LoRaMacClassB.c ****  * \param [IN] rxTime The reception time which should be setup
 230:../../../../../../Middlewares/Third_Party/LoRaWAN/Mac/LoRaMacClassB.c ****  *
 231:../../../../../../Middlewares/Third_Party/LoRaWAN/Mac/LoRaMacClassB.c ****  * \param [IN] activateDefaultChannel Set to true, if the function shall setup the default channel
 232:../../../../../../Middlewares/Third_Party/LoRaWAN/Mac/LoRaMacClassB.c ****  */
 233:../../../../../../Middlewares/Third_Party/LoRaWAN/Mac/LoRaMacClassB.c **** static void RxBeaconSetup( TimerTime_t rxTime, bool activateDefaultChannel )
 234:../../../../../../Middlewares/Third_Party/LoRaWAN/Mac/LoRaMacClassB.c **** {
 235:../../../../../../Middlewares/Third_Party/LoRaWAN/Mac/LoRaMacClassB.c ****     RxBeaconSetup_t rxBeaconSetup;
 236:../../../../../../Middlewares/Third_Party/LoRaWAN/Mac/LoRaMacClassB.c ****     uint32_t frequency = 0;
 237:../../../../../../Middlewares/Third_Party/LoRaWAN/Mac/LoRaMacClassB.c ****     RxConfigParams_t beaconRxConfig;
 238:../../../../../../Middlewares/Third_Party/LoRaWAN/Mac/LoRaMacClassB.c ****     GetPhyParams_t getPhy;
 239:../../../../../../Middlewares/Third_Party/LoRaWAN/Mac/LoRaMacClassB.c ****     PhyParam_t phyParam;
 240:../../../../../../Middlewares/Third_Party/LoRaWAN/Mac/LoRaMacClassB.c ****     uint16_t windowTimeout = Ctx.NvmCtx->BeaconCtx.SymbolTimeout;
 241:../../../../../../Middlewares/Third_Party/LoRaWAN/Mac/LoRaMacClassB.c **** 
 242:../../../../../../Middlewares/Third_Party/LoRaWAN/Mac/LoRaMacClassB.c ****     if( activateDefaultChannel == true )
 243:../../../../../../Middlewares/Third_Party/LoRaWAN/Mac/LoRaMacClassB.c ****     {
 244:../../../../../../Middlewares/Third_Party/LoRaWAN/Mac/LoRaMacClassB.c ****         // This is the default frequency in case we don't know when the next
 245:../../../../../../Middlewares/Third_Party/LoRaWAN/Mac/LoRaMacClassB.c ****         // beacon will be transmitted. We select channel 0 as default.
 246:../../../../../../Middlewares/Third_Party/LoRaWAN/Mac/LoRaMacClassB.c ****         frequency = CalcDownlinkFrequency( 0 );
 247:../../../../../../Middlewares/Third_Party/LoRaWAN/Mac/LoRaMacClassB.c ****     }
 248:../../../../../../Middlewares/Third_Party/LoRaWAN/Mac/LoRaMacClassB.c ****     else
 249:../../../../../../Middlewares/Third_Party/LoRaWAN/Mac/LoRaMacClassB.c ****     {
 250:../../../../../../Middlewares/Third_Party/LoRaWAN/Mac/LoRaMacClassB.c ****         // This is the frequency according to the channel plan
 251:../../../../../../Middlewares/Third_Party/LoRaWAN/Mac/LoRaMacClassB.c ****         frequency = CalcDownlinkChannelAndFrequency( 0, Ctx.NvmCtx->BeaconCtx.BeaconTime + ( CLASSB
 252:../../../../../../Middlewares/Third_Party/LoRaWAN/Mac/LoRaMacClassB.c ****                                                      CLASSB_BEACON_INTERVAL );
 253:../../../../../../Middlewares/Third_Party/LoRaWAN/Mac/LoRaMacClassB.c ****     }
 254:../../../../../../Middlewares/Third_Party/LoRaWAN/Mac/LoRaMacClassB.c **** 
 255:../../../../../../Middlewares/Third_Party/LoRaWAN/Mac/LoRaMacClassB.c ****     if( Ctx.NvmCtx->BeaconCtx.Ctrl.CustomFreq == 1 )
 256:../../../../../../Middlewares/Third_Party/LoRaWAN/Mac/LoRaMacClassB.c ****     {
 257:../../../../../../Middlewares/Third_Party/LoRaWAN/Mac/LoRaMacClassB.c ****         // Set the frequency from the BeaconFreqReq
 258:../../../../../../Middlewares/Third_Party/LoRaWAN/Mac/LoRaMacClassB.c ****         frequency = Ctx.NvmCtx->BeaconCtx.Frequency;
 259:../../../../../../Middlewares/Third_Party/LoRaWAN/Mac/LoRaMacClassB.c ****     }
ARM GAS  C:\Users\EBANO_~1\AppData\Local\Temp\ccis3phW.s 			page 6


 260:../../../../../../Middlewares/Third_Party/LoRaWAN/Mac/LoRaMacClassB.c **** 
 261:../../../../../../Middlewares/Third_Party/LoRaWAN/Mac/LoRaMacClassB.c ****     if( Ctx.NvmCtx->BeaconCtx.Ctrl.BeaconChannelSet == 1 )
 262:../../../../../../Middlewares/Third_Party/LoRaWAN/Mac/LoRaMacClassB.c ****     {
 263:../../../../../../Middlewares/Third_Party/LoRaWAN/Mac/LoRaMacClassB.c ****         // Set the frequency which was provided by BeaconTimingAns MAC command
 264:../../../../../../Middlewares/Third_Party/LoRaWAN/Mac/LoRaMacClassB.c ****         Ctx.NvmCtx->BeaconCtx.Ctrl.BeaconChannelSet = 0;
 265:../../../../../../Middlewares/Third_Party/LoRaWAN/Mac/LoRaMacClassB.c ****         frequency = CalcDownlinkFrequency( Ctx.NvmCtx->BeaconCtx.BeaconTimingChannel );
 266:../../../../../../Middlewares/Third_Party/LoRaWAN/Mac/LoRaMacClassB.c ****     }
 267:../../../../../../Middlewares/Third_Party/LoRaWAN/Mac/LoRaMacClassB.c **** 
 268:../../../../../../Middlewares/Third_Party/LoRaWAN/Mac/LoRaMacClassB.c ****     if( ( Ctx.NvmCtx->BeaconCtx.Ctrl.BeaconAcquired == 1 ) || ( Ctx.NvmCtx->BeaconCtx.Ctrl.Acquisit
 269:../../../../../../Middlewares/Third_Party/LoRaWAN/Mac/LoRaMacClassB.c ****     {
 270:../../../../../../Middlewares/Third_Party/LoRaWAN/Mac/LoRaMacClassB.c ****         // Apply the symbol timeout only if we have acquired the beacon
 271:../../../../../../Middlewares/Third_Party/LoRaWAN/Mac/LoRaMacClassB.c ****         // Otherwise, take the window enlargement into account
 272:../../../../../../Middlewares/Third_Party/LoRaWAN/Mac/LoRaMacClassB.c ****         // Read beacon datarate
 273:../../../../../../Middlewares/Third_Party/LoRaWAN/Mac/LoRaMacClassB.c ****         getPhy.Attribute = PHY_BEACON_CHANNEL_DR;
 274:../../../../../../Middlewares/Third_Party/LoRaWAN/Mac/LoRaMacClassB.c ****         phyParam = RegionGetPhyParam( *Ctx.LoRaMacClassBParams.LoRaMacRegion, &getPhy );
 275:../../../../../../Middlewares/Third_Party/LoRaWAN/Mac/LoRaMacClassB.c **** 
 276:../../../../../../Middlewares/Third_Party/LoRaWAN/Mac/LoRaMacClassB.c ****         // Calculate downlink symbols
 277:../../../../../../Middlewares/Third_Party/LoRaWAN/Mac/LoRaMacClassB.c ****         RegionComputeRxWindowParameters( *Ctx.LoRaMacClassBParams.LoRaMacRegion,
 278:../../../../../../Middlewares/Third_Party/LoRaWAN/Mac/LoRaMacClassB.c ****                                         ( int8_t )phyParam.Value, // datarate
 279:../../../../../../Middlewares/Third_Party/LoRaWAN/Mac/LoRaMacClassB.c ****                                         Ctx.LoRaMacClassBParams.LoRaMacParams->MinRxSymbols,
 280:../../../../../../Middlewares/Third_Party/LoRaWAN/Mac/LoRaMacClassB.c ****                                         Ctx.LoRaMacClassBParams.LoRaMacParams->SystemMaxRxError,
 281:../../../../../../Middlewares/Third_Party/LoRaWAN/Mac/LoRaMacClassB.c ****                                         &beaconRxConfig );
 282:../../../../../../Middlewares/Third_Party/LoRaWAN/Mac/LoRaMacClassB.c ****         windowTimeout = beaconRxConfig.WindowTimeout;
 283:../../../../../../Middlewares/Third_Party/LoRaWAN/Mac/LoRaMacClassB.c ****     }
 284:../../../../../../Middlewares/Third_Party/LoRaWAN/Mac/LoRaMacClassB.c **** 
 285:../../../../../../Middlewares/Third_Party/LoRaWAN/Mac/LoRaMacClassB.c ****     rxBeaconSetup.SymbolTimeout = windowTimeout;
 286:../../../../../../Middlewares/Third_Party/LoRaWAN/Mac/LoRaMacClassB.c ****     rxBeaconSetup.RxTime = rxTime;
 287:../../../../../../Middlewares/Third_Party/LoRaWAN/Mac/LoRaMacClassB.c ****     rxBeaconSetup.Frequency = frequency;
 288:../../../../../../Middlewares/Third_Party/LoRaWAN/Mac/LoRaMacClassB.c **** 
 289:../../../../../../Middlewares/Third_Party/LoRaWAN/Mac/LoRaMacClassB.c ****     RegionRxBeaconSetup( *Ctx.LoRaMacClassBParams.LoRaMacRegion, &rxBeaconSetup, &Ctx.LoRaMacClassB
 290:../../../../../../Middlewares/Third_Party/LoRaWAN/Mac/LoRaMacClassB.c **** 
 291:../../../../../../Middlewares/Third_Party/LoRaWAN/Mac/LoRaMacClassB.c ****     Ctx.LoRaMacClassBParams.MlmeIndication->BeaconInfo.Frequency = frequency;
 292:../../../../../../Middlewares/Third_Party/LoRaWAN/Mac/LoRaMacClassB.c ****     Ctx.LoRaMacClassBParams.MlmeIndication->BeaconInfo.Datarate = Ctx.LoRaMacClassBParams.McpsIndic
 293:../../../../../../Middlewares/Third_Party/LoRaWAN/Mac/LoRaMacClassB.c **** }
 294:../../../../../../Middlewares/Third_Party/LoRaWAN/Mac/LoRaMacClassB.c **** 
 295:../../../../../../Middlewares/Third_Party/LoRaWAN/Mac/LoRaMacClassB.c **** /*!
 296:../../../../../../Middlewares/Third_Party/LoRaWAN/Mac/LoRaMacClassB.c ****  * \brief Calculates the next ping slot time.
 297:../../../../../../Middlewares/Third_Party/LoRaWAN/Mac/LoRaMacClassB.c ****  *
 298:../../../../../../Middlewares/Third_Party/LoRaWAN/Mac/LoRaMacClassB.c ****  * \param [IN] slotOffset The ping slot offset
 299:../../../../../../Middlewares/Third_Party/LoRaWAN/Mac/LoRaMacClassB.c ****  * \param [IN] pingPeriod The ping period
 300:../../../../../../Middlewares/Third_Party/LoRaWAN/Mac/LoRaMacClassB.c ****  * \param [OUT] timeOffset Time offset of the next slot, based on current time
 301:../../../../../../Middlewares/Third_Party/LoRaWAN/Mac/LoRaMacClassB.c ****  *
 302:../../../../../../Middlewares/Third_Party/LoRaWAN/Mac/LoRaMacClassB.c ****  * \retval [true: ping slot found, false: no ping slot found]
 303:../../../../../../Middlewares/Third_Party/LoRaWAN/Mac/LoRaMacClassB.c ****  */
 304:../../../../../../Middlewares/Third_Party/LoRaWAN/Mac/LoRaMacClassB.c **** static bool CalcNextSlotTime( uint16_t slotOffset, uint16_t pingPeriod, uint16_t pingNb, TimerTime_
 305:../../../../../../Middlewares/Third_Party/LoRaWAN/Mac/LoRaMacClassB.c **** {
 306:../../../../../../Middlewares/Third_Party/LoRaWAN/Mac/LoRaMacClassB.c ****     uint8_t currentPingSlot = 0;
 307:../../../../../../Middlewares/Third_Party/LoRaWAN/Mac/LoRaMacClassB.c ****     TimerTime_t slotTime = 0;
 308:../../../../../../Middlewares/Third_Party/LoRaWAN/Mac/LoRaMacClassB.c ****     TimerTime_t currentTime = TimerGetCurrentTime( );
 309:../../../../../../Middlewares/Third_Party/LoRaWAN/Mac/LoRaMacClassB.c **** 
 310:../../../../../../Middlewares/Third_Party/LoRaWAN/Mac/LoRaMacClassB.c ****     // Calculate the point in time of the last beacon even if we missed it
 311:../../../../../../Middlewares/Third_Party/LoRaWAN/Mac/LoRaMacClassB.c ****     slotTime = ( ( currentTime - Ctx.NvmCtx->BeaconCtx.LastBeaconRx ) % CLASSB_BEACON_INTERVAL );
 312:../../../../../../Middlewares/Third_Party/LoRaWAN/Mac/LoRaMacClassB.c ****     slotTime = currentTime - slotTime;
 313:../../../../../../Middlewares/Third_Party/LoRaWAN/Mac/LoRaMacClassB.c **** 
 314:../../../../../../Middlewares/Third_Party/LoRaWAN/Mac/LoRaMacClassB.c ****     // Add the reserved time and the ping offset
 315:../../../../../../Middlewares/Third_Party/LoRaWAN/Mac/LoRaMacClassB.c ****     slotTime += CLASSB_BEACON_RESERVED;
 316:../../../../../../Middlewares/Third_Party/LoRaWAN/Mac/LoRaMacClassB.c ****     slotTime += slotOffset * CLASSB_PING_SLOT_WINDOW;
ARM GAS  C:\Users\EBANO_~1\AppData\Local\Temp\ccis3phW.s 			page 7


 317:../../../../../../Middlewares/Third_Party/LoRaWAN/Mac/LoRaMacClassB.c **** 
 318:../../../../../../Middlewares/Third_Party/LoRaWAN/Mac/LoRaMacClassB.c ****     if( slotTime < currentTime )
 319:../../../../../../Middlewares/Third_Party/LoRaWAN/Mac/LoRaMacClassB.c ****     {
 320:../../../../../../Middlewares/Third_Party/LoRaWAN/Mac/LoRaMacClassB.c ****         currentPingSlot = ( ( currentTime - slotTime ) /
 321:../../../../../../Middlewares/Third_Party/LoRaWAN/Mac/LoRaMacClassB.c ****                           ( pingPeriod * CLASSB_PING_SLOT_WINDOW ) ) + 1;
 322:../../../../../../Middlewares/Third_Party/LoRaWAN/Mac/LoRaMacClassB.c ****         slotTime += ( ( TimerTime_t )( currentPingSlot * pingPeriod ) *
 323:../../../../../../Middlewares/Third_Party/LoRaWAN/Mac/LoRaMacClassB.c ****                     CLASSB_PING_SLOT_WINDOW );
 324:../../../../../../Middlewares/Third_Party/LoRaWAN/Mac/LoRaMacClassB.c ****     }
 325:../../../../../../Middlewares/Third_Party/LoRaWAN/Mac/LoRaMacClassB.c **** 
 326:../../../../../../Middlewares/Third_Party/LoRaWAN/Mac/LoRaMacClassB.c ****     if( currentPingSlot < pingNb )
 327:../../../../../../Middlewares/Third_Party/LoRaWAN/Mac/LoRaMacClassB.c ****     {
 328:../../../../../../Middlewares/Third_Party/LoRaWAN/Mac/LoRaMacClassB.c ****         if( slotTime <= ( Ctx.NvmCtx->BeaconCtx.NextBeaconRx - CLASSB_BEACON_GUARD - CLASSB_PING_SL
 329:../../../../../../Middlewares/Third_Party/LoRaWAN/Mac/LoRaMacClassB.c ****         {
 330:../../../../../../Middlewares/Third_Party/LoRaWAN/Mac/LoRaMacClassB.c ****             // Calculate the relative ping slot time
 331:../../../../../../Middlewares/Third_Party/LoRaWAN/Mac/LoRaMacClassB.c ****             slotTime -= currentTime;
 332:../../../../../../Middlewares/Third_Party/LoRaWAN/Mac/LoRaMacClassB.c ****             slotTime -= Radio.GetWakeupTime( );
 333:../../../../../../Middlewares/Third_Party/LoRaWAN/Mac/LoRaMacClassB.c ****             slotTime = TimerTempCompensation( slotTime, Ctx.NvmCtx->BeaconCtx.Temperature );
 334:../../../../../../Middlewares/Third_Party/LoRaWAN/Mac/LoRaMacClassB.c ****             *timeOffset = slotTime;
 335:../../../../../../Middlewares/Third_Party/LoRaWAN/Mac/LoRaMacClassB.c ****             return true;
 336:../../../../../../Middlewares/Third_Party/LoRaWAN/Mac/LoRaMacClassB.c ****         }
 337:../../../../../../Middlewares/Third_Party/LoRaWAN/Mac/LoRaMacClassB.c ****     }
 338:../../../../../../Middlewares/Third_Party/LoRaWAN/Mac/LoRaMacClassB.c ****     return false;
 339:../../../../../../Middlewares/Third_Party/LoRaWAN/Mac/LoRaMacClassB.c **** }
 340:../../../../../../Middlewares/Third_Party/LoRaWAN/Mac/LoRaMacClassB.c **** 
 341:../../../../../../Middlewares/Third_Party/LoRaWAN/Mac/LoRaMacClassB.c **** /*!
 342:../../../../../../Middlewares/Third_Party/LoRaWAN/Mac/LoRaMacClassB.c ****  * \brief Calculates CRC's of the beacon frame
 343:../../../../../../Middlewares/Third_Party/LoRaWAN/Mac/LoRaMacClassB.c ****  *
 344:../../../../../../Middlewares/Third_Party/LoRaWAN/Mac/LoRaMacClassB.c ****  * \param [IN] buffer Pointer to the data
 345:../../../../../../Middlewares/Third_Party/LoRaWAN/Mac/LoRaMacClassB.c ****  * \param [IN] length Length of the data
 346:../../../../../../Middlewares/Third_Party/LoRaWAN/Mac/LoRaMacClassB.c ****  *
 347:../../../../../../Middlewares/Third_Party/LoRaWAN/Mac/LoRaMacClassB.c ****  * \retval CRC
 348:../../../../../../Middlewares/Third_Party/LoRaWAN/Mac/LoRaMacClassB.c ****  */
 349:../../../../../../Middlewares/Third_Party/LoRaWAN/Mac/LoRaMacClassB.c **** static uint16_t BeaconCrc( uint8_t *buffer, uint16_t length )
 350:../../../../../../Middlewares/Third_Party/LoRaWAN/Mac/LoRaMacClassB.c **** {
 351:../../../../../../Middlewares/Third_Party/LoRaWAN/Mac/LoRaMacClassB.c ****     // The CRC calculation follows CCITT
 352:../../../../../../Middlewares/Third_Party/LoRaWAN/Mac/LoRaMacClassB.c ****     const uint16_t polynom = 0x1021;
 353:../../../../../../Middlewares/Third_Party/LoRaWAN/Mac/LoRaMacClassB.c ****     // CRC initial value
 354:../../../../../../Middlewares/Third_Party/LoRaWAN/Mac/LoRaMacClassB.c ****     uint16_t crc = 0x0000;
 355:../../../../../../Middlewares/Third_Party/LoRaWAN/Mac/LoRaMacClassB.c **** 
 356:../../../../../../Middlewares/Third_Party/LoRaWAN/Mac/LoRaMacClassB.c ****     if( buffer == NULL )
 357:../../../../../../Middlewares/Third_Party/LoRaWAN/Mac/LoRaMacClassB.c ****     {
 358:../../../../../../Middlewares/Third_Party/LoRaWAN/Mac/LoRaMacClassB.c ****         return 0;
 359:../../../../../../Middlewares/Third_Party/LoRaWAN/Mac/LoRaMacClassB.c ****     }
 360:../../../../../../Middlewares/Third_Party/LoRaWAN/Mac/LoRaMacClassB.c **** 
 361:../../../../../../Middlewares/Third_Party/LoRaWAN/Mac/LoRaMacClassB.c ****     for( uint16_t i = 0; i < length; ++i )
 362:../../../../../../Middlewares/Third_Party/LoRaWAN/Mac/LoRaMacClassB.c ****     {
 363:../../../../../../Middlewares/Third_Party/LoRaWAN/Mac/LoRaMacClassB.c ****         crc ^= ( uint16_t ) buffer[i] << 8;
 364:../../../../../../Middlewares/Third_Party/LoRaWAN/Mac/LoRaMacClassB.c ****         for( uint16_t j = 0; j < 8; ++j )
 365:../../../../../../Middlewares/Third_Party/LoRaWAN/Mac/LoRaMacClassB.c ****         {
 366:../../../../../../Middlewares/Third_Party/LoRaWAN/Mac/LoRaMacClassB.c ****             crc = ( crc & 0x8000 ) ? ( crc << 1 ) ^ polynom : ( crc << 1 );
 367:../../../../../../Middlewares/Third_Party/LoRaWAN/Mac/LoRaMacClassB.c ****         }
 368:../../../../../../Middlewares/Third_Party/LoRaWAN/Mac/LoRaMacClassB.c ****     }
 369:../../../../../../Middlewares/Third_Party/LoRaWAN/Mac/LoRaMacClassB.c **** 
 370:../../../../../../Middlewares/Third_Party/LoRaWAN/Mac/LoRaMacClassB.c ****     return crc;
 371:../../../../../../Middlewares/Third_Party/LoRaWAN/Mac/LoRaMacClassB.c **** }
 372:../../../../../../Middlewares/Third_Party/LoRaWAN/Mac/LoRaMacClassB.c **** 
 373:../../../../../../Middlewares/Third_Party/LoRaWAN/Mac/LoRaMacClassB.c **** static void GetTemperatureLevel( LoRaMacClassBCallback_t *callbacks, BeaconContext_t *beaconCtx )
ARM GAS  C:\Users\EBANO_~1\AppData\Local\Temp\ccis3phW.s 			page 8


 374:../../../../../../Middlewares/Third_Party/LoRaWAN/Mac/LoRaMacClassB.c **** {
 375:../../../../../../Middlewares/Third_Party/LoRaWAN/Mac/LoRaMacClassB.c ****     // Measure temperature, if available
 376:../../../../../../Middlewares/Third_Party/LoRaWAN/Mac/LoRaMacClassB.c ****     if( ( callbacks != NULL ) && ( callbacks->GetTemperatureLevel != NULL ) )
 377:../../../../../../Middlewares/Third_Party/LoRaWAN/Mac/LoRaMacClassB.c ****     {
 378:../../../../../../Middlewares/Third_Party/LoRaWAN/Mac/LoRaMacClassB.c ****         beaconCtx->Temperature = (float) callbacks->GetTemperatureLevel( );
 379:../../../../../../Middlewares/Third_Party/LoRaWAN/Mac/LoRaMacClassB.c ****     }
 380:../../../../../../Middlewares/Third_Party/LoRaWAN/Mac/LoRaMacClassB.c **** }
 381:../../../../../../Middlewares/Third_Party/LoRaWAN/Mac/LoRaMacClassB.c **** 
 382:../../../../../../Middlewares/Third_Party/LoRaWAN/Mac/LoRaMacClassB.c **** static void InitClassBDefaults( void )
 383:../../../../../../Middlewares/Third_Party/LoRaWAN/Mac/LoRaMacClassB.c **** {
 384:../../../../../../Middlewares/Third_Party/LoRaWAN/Mac/LoRaMacClassB.c ****     GetPhyParams_t getPhy;
 385:../../../../../../Middlewares/Third_Party/LoRaWAN/Mac/LoRaMacClassB.c ****     PhyParam_t phyParam;
 386:../../../../../../Middlewares/Third_Party/LoRaWAN/Mac/LoRaMacClassB.c **** 
 387:../../../../../../Middlewares/Third_Party/LoRaWAN/Mac/LoRaMacClassB.c ****     // Init events
 388:../../../../../../Middlewares/Third_Party/LoRaWAN/Mac/LoRaMacClassB.c ****     LoRaMacClassBEvents.Value = 0;
 389:../../../../../../Middlewares/Third_Party/LoRaWAN/Mac/LoRaMacClassB.c **** 
 390:../../../../../../Middlewares/Third_Party/LoRaWAN/Mac/LoRaMacClassB.c ****     // Init variables to default
 391:../../../../../../Middlewares/Third_Party/LoRaWAN/Mac/LoRaMacClassB.c ****     memset1( ( uint8_t* ) &Ctx.NvmCtx->BeaconCtx, 0, sizeof( BeaconContext_t ) );
 392:../../../../../../Middlewares/Third_Party/LoRaWAN/Mac/LoRaMacClassB.c ****     memset1( ( uint8_t* ) &Ctx.NvmCtx->PingSlotCtx, 0, sizeof( PingSlotContext_t ) );
 393:../../../../../../Middlewares/Third_Party/LoRaWAN/Mac/LoRaMacClassB.c **** 
 394:../../../../../../Middlewares/Third_Party/LoRaWAN/Mac/LoRaMacClassB.c ****     // Setup default temperature
 395:../../../../../../Middlewares/Third_Party/LoRaWAN/Mac/LoRaMacClassB.c ****     Ctx.NvmCtx->BeaconCtx.Temperature = 25.0;
 396:../../../../../../Middlewares/Third_Party/LoRaWAN/Mac/LoRaMacClassB.c ****     GetTemperatureLevel( &Ctx.LoRaMacClassBCallbacks, &Ctx.NvmCtx->BeaconCtx );
 397:../../../../../../Middlewares/Third_Party/LoRaWAN/Mac/LoRaMacClassB.c **** 
 398:../../../../../../Middlewares/Third_Party/LoRaWAN/Mac/LoRaMacClassB.c ****     // Setup default ping slot datarate
 399:../../../../../../Middlewares/Third_Party/LoRaWAN/Mac/LoRaMacClassB.c ****     getPhy.Attribute = PHY_PING_SLOT_CHANNEL_DR;
 400:../../../../../../Middlewares/Third_Party/LoRaWAN/Mac/LoRaMacClassB.c ****     phyParam = RegionGetPhyParam( *Ctx.LoRaMacClassBParams.LoRaMacRegion, &getPhy );
 401:../../../../../../Middlewares/Third_Party/LoRaWAN/Mac/LoRaMacClassB.c ****     Ctx.NvmCtx->PingSlotCtx.Datarate = (int8_t)( phyParam.Value );
 402:../../../../../../Middlewares/Third_Party/LoRaWAN/Mac/LoRaMacClassB.c **** 
 403:../../../../../../Middlewares/Third_Party/LoRaWAN/Mac/LoRaMacClassB.c ****     // Setup default states
 404:../../../../../../Middlewares/Third_Party/LoRaWAN/Mac/LoRaMacClassB.c ****     Ctx.NvmCtx->BeaconState = BEACON_STATE_ACQUISITION;
 405:../../../../../../Middlewares/Third_Party/LoRaWAN/Mac/LoRaMacClassB.c ****     Ctx.NvmCtx->PingSlotState = PINGSLOT_STATE_CALC_PING_OFFSET;
 406:../../../../../../Middlewares/Third_Party/LoRaWAN/Mac/LoRaMacClassB.c ****     Ctx.NvmCtx->MulticastSlotState = PINGSLOT_STATE_CALC_PING_OFFSET;
 407:../../../../../../Middlewares/Third_Party/LoRaWAN/Mac/LoRaMacClassB.c **** }
 408:../../../../../../Middlewares/Third_Party/LoRaWAN/Mac/LoRaMacClassB.c **** 
 409:../../../../../../Middlewares/Third_Party/LoRaWAN/Mac/LoRaMacClassB.c **** static void EnlargeWindowTimeout( void )
 410:../../../../../../Middlewares/Third_Party/LoRaWAN/Mac/LoRaMacClassB.c **** {
 411:../../../../../../Middlewares/Third_Party/LoRaWAN/Mac/LoRaMacClassB.c ****     // Update beacon movement
 412:../../../../../../Middlewares/Third_Party/LoRaWAN/Mac/LoRaMacClassB.c ****     Ctx.NvmCtx->BeaconCtx.BeaconWindowMovement *= CLASSB_WINDOW_MOVE_EXPANSION_FACTOR;
 413:../../../../../../Middlewares/Third_Party/LoRaWAN/Mac/LoRaMacClassB.c ****     if( Ctx.NvmCtx->BeaconCtx.BeaconWindowMovement > CLASSB_WINDOW_MOVE_EXPANSION_MAX )
 414:../../../../../../Middlewares/Third_Party/LoRaWAN/Mac/LoRaMacClassB.c ****     {
 415:../../../../../../Middlewares/Third_Party/LoRaWAN/Mac/LoRaMacClassB.c ****         Ctx.NvmCtx->BeaconCtx.BeaconWindowMovement = CLASSB_WINDOW_MOVE_EXPANSION_MAX;
 416:../../../../../../Middlewares/Third_Party/LoRaWAN/Mac/LoRaMacClassB.c ****     }
 417:../../../../../../Middlewares/Third_Party/LoRaWAN/Mac/LoRaMacClassB.c ****     // Update symbol timeout
 418:../../../../../../Middlewares/Third_Party/LoRaWAN/Mac/LoRaMacClassB.c ****     Ctx.NvmCtx->BeaconCtx.SymbolTimeout *= CLASSB_BEACON_SYMBOL_TO_EXPANSION_FACTOR;
 419:../../../../../../Middlewares/Third_Party/LoRaWAN/Mac/LoRaMacClassB.c ****     if( Ctx.NvmCtx->BeaconCtx.SymbolTimeout > CLASSB_BEACON_SYMBOL_TO_EXPANSION_MAX )
 420:../../../../../../Middlewares/Third_Party/LoRaWAN/Mac/LoRaMacClassB.c ****     {
 421:../../../../../../Middlewares/Third_Party/LoRaWAN/Mac/LoRaMacClassB.c ****         Ctx.NvmCtx->BeaconCtx.SymbolTimeout = CLASSB_BEACON_SYMBOL_TO_EXPANSION_MAX;
 422:../../../../../../Middlewares/Third_Party/LoRaWAN/Mac/LoRaMacClassB.c ****     }
 423:../../../../../../Middlewares/Third_Party/LoRaWAN/Mac/LoRaMacClassB.c ****     Ctx.NvmCtx->PingSlotCtx.SymbolTimeout *= CLASSB_BEACON_SYMBOL_TO_EXPANSION_FACTOR;
 424:../../../../../../Middlewares/Third_Party/LoRaWAN/Mac/LoRaMacClassB.c ****     if( Ctx.NvmCtx->PingSlotCtx.SymbolTimeout > CLASSB_PING_SLOT_SYMBOL_TO_EXPANSION_MAX )
 425:../../../../../../Middlewares/Third_Party/LoRaWAN/Mac/LoRaMacClassB.c ****     {
 426:../../../../../../Middlewares/Third_Party/LoRaWAN/Mac/LoRaMacClassB.c ****         Ctx.NvmCtx->PingSlotCtx.SymbolTimeout = CLASSB_PING_SLOT_SYMBOL_TO_EXPANSION_MAX;
 427:../../../../../../Middlewares/Third_Party/LoRaWAN/Mac/LoRaMacClassB.c ****     }
 428:../../../../../../Middlewares/Third_Party/LoRaWAN/Mac/LoRaMacClassB.c **** }
 429:../../../../../../Middlewares/Third_Party/LoRaWAN/Mac/LoRaMacClassB.c **** 
 430:../../../../../../Middlewares/Third_Party/LoRaWAN/Mac/LoRaMacClassB.c **** static void ResetWindowTimeout( void )
ARM GAS  C:\Users\EBANO_~1\AppData\Local\Temp\ccis3phW.s 			page 9


 431:../../../../../../Middlewares/Third_Party/LoRaWAN/Mac/LoRaMacClassB.c **** {
 432:../../../../../../Middlewares/Third_Party/LoRaWAN/Mac/LoRaMacClassB.c ****     Ctx.NvmCtx->BeaconCtx.SymbolTimeout = CLASSB_BEACON_SYMBOL_TO_DEFAULT;
 433:../../../../../../Middlewares/Third_Party/LoRaWAN/Mac/LoRaMacClassB.c ****     Ctx.NvmCtx->PingSlotCtx.SymbolTimeout = CLASSB_BEACON_SYMBOL_TO_DEFAULT;
 434:../../../../../../Middlewares/Third_Party/LoRaWAN/Mac/LoRaMacClassB.c ****     Ctx.NvmCtx->BeaconCtx.BeaconWindowMovement  = CLASSB_WINDOW_MOVE_DEFAULT;
 435:../../../../../../Middlewares/Third_Party/LoRaWAN/Mac/LoRaMacClassB.c **** }
 436:../../../../../../Middlewares/Third_Party/LoRaWAN/Mac/LoRaMacClassB.c **** 
 437:../../../../../../Middlewares/Third_Party/LoRaWAN/Mac/LoRaMacClassB.c **** static TimerTime_t CalcDelayForNextBeacon( TimerTime_t currentTime, TimerTime_t lastBeaconRx )
 438:../../../../../../Middlewares/Third_Party/LoRaWAN/Mac/LoRaMacClassB.c **** {
 439:../../../../../../Middlewares/Third_Party/LoRaWAN/Mac/LoRaMacClassB.c ****     TimerTime_t nextBeaconRxTime = 0;
 440:../../../../../../Middlewares/Third_Party/LoRaWAN/Mac/LoRaMacClassB.c **** 
 441:../../../../../../Middlewares/Third_Party/LoRaWAN/Mac/LoRaMacClassB.c ****     // Calculate the point in time of the next beacon
 442:../../../../../../Middlewares/Third_Party/LoRaWAN/Mac/LoRaMacClassB.c ****     nextBeaconRxTime = ( ( currentTime - lastBeaconRx ) % CLASSB_BEACON_INTERVAL );
 443:../../../../../../Middlewares/Third_Party/LoRaWAN/Mac/LoRaMacClassB.c ****     return ( CLASSB_BEACON_INTERVAL - nextBeaconRxTime );
 444:../../../../../../Middlewares/Third_Party/LoRaWAN/Mac/LoRaMacClassB.c **** }
 445:../../../../../../Middlewares/Third_Party/LoRaWAN/Mac/LoRaMacClassB.c **** 
 446:../../../../../../Middlewares/Third_Party/LoRaWAN/Mac/LoRaMacClassB.c **** static void IndicateBeaconStatus( LoRaMacEventInfoStatus_t status )
 447:../../../../../../Middlewares/Third_Party/LoRaWAN/Mac/LoRaMacClassB.c **** {
 448:../../../../../../Middlewares/Third_Party/LoRaWAN/Mac/LoRaMacClassB.c ****     if( Ctx.NvmCtx->BeaconCtx.Ctrl.ResumeBeaconing == 0 )
 449:../../../../../../Middlewares/Third_Party/LoRaWAN/Mac/LoRaMacClassB.c ****     {
 450:../../../../../../Middlewares/Third_Party/LoRaWAN/Mac/LoRaMacClassB.c ****         Ctx.LoRaMacClassBParams.MlmeIndication->MlmeIndication = MLME_BEACON;
 451:../../../../../../Middlewares/Third_Party/LoRaWAN/Mac/LoRaMacClassB.c ****         Ctx.LoRaMacClassBParams.MlmeIndication->Status = status;
 452:../../../../../../Middlewares/Third_Party/LoRaWAN/Mac/LoRaMacClassB.c ****         Ctx.LoRaMacClassBParams.LoRaMacFlags->Bits.MlmeInd = 1;
 453:../../../../../../Middlewares/Third_Party/LoRaWAN/Mac/LoRaMacClassB.c **** 
 454:../../../../../../Middlewares/Third_Party/LoRaWAN/Mac/LoRaMacClassB.c ****         Ctx.LoRaMacClassBParams.LoRaMacFlags->Bits.MacDone = 1;
 455:../../../../../../Middlewares/Third_Party/LoRaWAN/Mac/LoRaMacClassB.c ****     }
 456:../../../../../../Middlewares/Third_Party/LoRaWAN/Mac/LoRaMacClassB.c ****     Ctx.NvmCtx->BeaconCtx.Ctrl.ResumeBeaconing = 0;
 457:../../../../../../Middlewares/Third_Party/LoRaWAN/Mac/LoRaMacClassB.c **** }
 458:../../../../../../Middlewares/Third_Party/LoRaWAN/Mac/LoRaMacClassB.c **** 
 459:../../../../../../Middlewares/Third_Party/LoRaWAN/Mac/LoRaMacClassB.c **** static TimerTime_t ApplyGuardTime( TimerTime_t beaconEventTime )
 460:../../../../../../Middlewares/Third_Party/LoRaWAN/Mac/LoRaMacClassB.c **** {
 461:../../../../../../Middlewares/Third_Party/LoRaWAN/Mac/LoRaMacClassB.c ****     TimerTime_t timeGuard = beaconEventTime;
 462:../../../../../../Middlewares/Third_Party/LoRaWAN/Mac/LoRaMacClassB.c **** 
 463:../../../../../../Middlewares/Third_Party/LoRaWAN/Mac/LoRaMacClassB.c ****     if( timeGuard > CLASSB_BEACON_GUARD )
 464:../../../../../../Middlewares/Third_Party/LoRaWAN/Mac/LoRaMacClassB.c ****     {
 465:../../../../../../Middlewares/Third_Party/LoRaWAN/Mac/LoRaMacClassB.c ****         timeGuard -= CLASSB_BEACON_GUARD;
 466:../../../../../../Middlewares/Third_Party/LoRaWAN/Mac/LoRaMacClassB.c ****     }
 467:../../../../../../Middlewares/Third_Party/LoRaWAN/Mac/LoRaMacClassB.c ****     return timeGuard;
 468:../../../../../../Middlewares/Third_Party/LoRaWAN/Mac/LoRaMacClassB.c **** }
 469:../../../../../../Middlewares/Third_Party/LoRaWAN/Mac/LoRaMacClassB.c **** 
 470:../../../../../../Middlewares/Third_Party/LoRaWAN/Mac/LoRaMacClassB.c **** static TimerTime_t UpdateBeaconState( LoRaMacEventInfoStatus_t status,
 471:../../../../../../Middlewares/Third_Party/LoRaWAN/Mac/LoRaMacClassB.c ****                                       TimerTime_t windowMovement, TimerTime_t currentTime )
 472:../../../../../../Middlewares/Third_Party/LoRaWAN/Mac/LoRaMacClassB.c **** 
 473:../../../../../../Middlewares/Third_Party/LoRaWAN/Mac/LoRaMacClassB.c **** {
 474:../../../../../../Middlewares/Third_Party/LoRaWAN/Mac/LoRaMacClassB.c ****     TimerTime_t beaconEventTime = 0;
 475:../../../../../../Middlewares/Third_Party/LoRaWAN/Mac/LoRaMacClassB.c **** 
 476:../../../../../../Middlewares/Third_Party/LoRaWAN/Mac/LoRaMacClassB.c ****     // Calculate the next beacon RX time
 477:../../../../../../Middlewares/Third_Party/LoRaWAN/Mac/LoRaMacClassB.c ****     beaconEventTime = CalcDelayForNextBeacon( currentTime, Ctx.NvmCtx->BeaconCtx.LastBeaconRx );
 478:../../../../../../Middlewares/Third_Party/LoRaWAN/Mac/LoRaMacClassB.c ****     Ctx.NvmCtx->BeaconCtx.NextBeaconRx = currentTime + beaconEventTime;
 479:../../../../../../Middlewares/Third_Party/LoRaWAN/Mac/LoRaMacClassB.c **** 
 480:../../../../../../Middlewares/Third_Party/LoRaWAN/Mac/LoRaMacClassB.c ****     // Take temperature compensation into account
 481:../../../../../../Middlewares/Third_Party/LoRaWAN/Mac/LoRaMacClassB.c ****     beaconEventTime = TimerTempCompensation( beaconEventTime, Ctx.NvmCtx->BeaconCtx.Temperature );
 482:../../../../../../Middlewares/Third_Party/LoRaWAN/Mac/LoRaMacClassB.c **** 
 483:../../../../../../Middlewares/Third_Party/LoRaWAN/Mac/LoRaMacClassB.c ****     // Move the window
 484:../../../../../../Middlewares/Third_Party/LoRaWAN/Mac/LoRaMacClassB.c ****     if( beaconEventTime > windowMovement )
 485:../../../../../../Middlewares/Third_Party/LoRaWAN/Mac/LoRaMacClassB.c ****     {
 486:../../../../../../Middlewares/Third_Party/LoRaWAN/Mac/LoRaMacClassB.c ****         beaconEventTime -= windowMovement;
 487:../../../../../../Middlewares/Third_Party/LoRaWAN/Mac/LoRaMacClassB.c ****     }
ARM GAS  C:\Users\EBANO_~1\AppData\Local\Temp\ccis3phW.s 			page 10


 488:../../../../../../Middlewares/Third_Party/LoRaWAN/Mac/LoRaMacClassB.c ****     Ctx.NvmCtx->BeaconCtx.NextBeaconRxAdjusted = currentTime + beaconEventTime;
 489:../../../../../../Middlewares/Third_Party/LoRaWAN/Mac/LoRaMacClassB.c **** 
 490:../../../../../../Middlewares/Third_Party/LoRaWAN/Mac/LoRaMacClassB.c ****     // Start the RX slot state machine for ping and multicast slots
 491:../../../../../../Middlewares/Third_Party/LoRaWAN/Mac/LoRaMacClassB.c ****     LoRaMacClassBStartRxSlots( );
 492:../../../../../../Middlewares/Third_Party/LoRaWAN/Mac/LoRaMacClassB.c **** 
 493:../../../../../../Middlewares/Third_Party/LoRaWAN/Mac/LoRaMacClassB.c ****     // Setup an MLME_BEACON indication to inform the upper layer
 494:../../../../../../Middlewares/Third_Party/LoRaWAN/Mac/LoRaMacClassB.c ****     IndicateBeaconStatus( status );
 495:../../../../../../Middlewares/Third_Party/LoRaWAN/Mac/LoRaMacClassB.c **** 
 496:../../../../../../Middlewares/Third_Party/LoRaWAN/Mac/LoRaMacClassB.c ****     // Apply guard time
 497:../../../../../../Middlewares/Third_Party/LoRaWAN/Mac/LoRaMacClassB.c ****     return ApplyGuardTime( beaconEventTime );
 498:../../../../../../Middlewares/Third_Party/LoRaWAN/Mac/LoRaMacClassB.c **** }
 499:../../../../../../Middlewares/Third_Party/LoRaWAN/Mac/LoRaMacClassB.c **** 
 500:../../../../../../Middlewares/Third_Party/LoRaWAN/Mac/LoRaMacClassB.c **** static uint8_t CalcPingNb( uint16_t periodicity )
 501:../../../../../../Middlewares/Third_Party/LoRaWAN/Mac/LoRaMacClassB.c **** {
 502:../../../../../../Middlewares/Third_Party/LoRaWAN/Mac/LoRaMacClassB.c ****     return 128 / ( 1 << periodicity );
 503:../../../../../../Middlewares/Third_Party/LoRaWAN/Mac/LoRaMacClassB.c **** }
 504:../../../../../../Middlewares/Third_Party/LoRaWAN/Mac/LoRaMacClassB.c **** 
 505:../../../../../../Middlewares/Third_Party/LoRaWAN/Mac/LoRaMacClassB.c **** static uint16_t CalcPingPeriod( uint8_t pingNb )
 506:../../../../../../Middlewares/Third_Party/LoRaWAN/Mac/LoRaMacClassB.c **** {
 507:../../../../../../Middlewares/Third_Party/LoRaWAN/Mac/LoRaMacClassB.c ****     return CLASSB_BEACON_WINDOW_SLOTS / pingNb;
 508:../../../../../../Middlewares/Third_Party/LoRaWAN/Mac/LoRaMacClassB.c **** }
 509:../../../../../../Middlewares/Third_Party/LoRaWAN/Mac/LoRaMacClassB.c **** 
 510:../../../../../../Middlewares/Third_Party/LoRaWAN/Mac/LoRaMacClassB.c **** /*
 511:../../../../../../Middlewares/Third_Party/LoRaWAN/Mac/LoRaMacClassB.c ****  * Dummy callback in case if the user provides NULL function pointer
 512:../../../../../../Middlewares/Third_Party/LoRaWAN/Mac/LoRaMacClassB.c ****  */
 513:../../../../../../Middlewares/Third_Party/LoRaWAN/Mac/LoRaMacClassB.c **** static void NvmContextChange( void )
 514:../../../../../../Middlewares/Third_Party/LoRaWAN/Mac/LoRaMacClassB.c **** {
 515:../../../../../../Middlewares/Third_Party/LoRaWAN/Mac/LoRaMacClassB.c ****     if( Ctx.EventNvmCtxChanged != NULL )
 516:../../../../../../Middlewares/Third_Party/LoRaWAN/Mac/LoRaMacClassB.c ****     {
 517:../../../../../../Middlewares/Third_Party/LoRaWAN/Mac/LoRaMacClassB.c ****         Ctx.EventNvmCtxChanged( );
 518:../../../../../../Middlewares/Third_Party/LoRaWAN/Mac/LoRaMacClassB.c ****     }
 519:../../../../../../Middlewares/Third_Party/LoRaWAN/Mac/LoRaMacClassB.c **** }
 520:../../../../../../Middlewares/Third_Party/LoRaWAN/Mac/LoRaMacClassB.c **** 
 521:../../../../../../Middlewares/Third_Party/LoRaWAN/Mac/LoRaMacClassB.c **** #endif // LORAMAC_CLASSB_ENABLED
 522:../../../../../../Middlewares/Third_Party/LoRaWAN/Mac/LoRaMacClassB.c **** 
 523:../../../../../../Middlewares/Third_Party/LoRaWAN/Mac/LoRaMacClassB.c **** void LoRaMacClassBInit( LoRaMacClassBParams_t *classBParams, LoRaMacClassBCallback_t *callbacks, Ev
 524:../../../../../../Middlewares/Third_Party/LoRaWAN/Mac/LoRaMacClassB.c **** {
  27              		.loc 1 524 0
  28              		.cfi_startproc
  29              		@ args = 0, pretend = 0, frame = 0
  30              		@ frame_needed = 0, uses_anonymous_args = 0
  31              		@ link register save eliminated.
  32              	.LVL0:
 525:../../../../../../Middlewares/Third_Party/LoRaWAN/Mac/LoRaMacClassB.c **** #ifdef LORAMAC_CLASSB_ENABLED
 526:../../../../../../Middlewares/Third_Party/LoRaWAN/Mac/LoRaMacClassB.c ****     // Store callbacks
 527:../../../../../../Middlewares/Third_Party/LoRaWAN/Mac/LoRaMacClassB.c ****     Ctx.LoRaMacClassBCallbacks = *callbacks;
 528:../../../../../../Middlewares/Third_Party/LoRaWAN/Mac/LoRaMacClassB.c **** 
 529:../../../../../../Middlewares/Third_Party/LoRaWAN/Mac/LoRaMacClassB.c ****     // Store parameter pointers
 530:../../../../../../Middlewares/Third_Party/LoRaWAN/Mac/LoRaMacClassB.c ****     Ctx.LoRaMacClassBParams = *classBParams;
 531:../../../../../../Middlewares/Third_Party/LoRaWAN/Mac/LoRaMacClassB.c **** 
 532:../../../../../../Middlewares/Third_Party/LoRaWAN/Mac/LoRaMacClassB.c ****     // Assign non-volatile context
 533:../../../../../../Middlewares/Third_Party/LoRaWAN/Mac/LoRaMacClassB.c ****     Ctx.NvmCtx = &NvmCtx;
 534:../../../../../../Middlewares/Third_Party/LoRaWAN/Mac/LoRaMacClassB.c **** 
 535:../../../../../../Middlewares/Third_Party/LoRaWAN/Mac/LoRaMacClassB.c ****     // Assign callback
 536:../../../../../../Middlewares/Third_Party/LoRaWAN/Mac/LoRaMacClassB.c ****     Ctx.EventNvmCtxChanged = classBNvmCtxChanged;
 537:../../../../../../Middlewares/Third_Party/LoRaWAN/Mac/LoRaMacClassB.c **** 
 538:../../../../../../Middlewares/Third_Party/LoRaWAN/Mac/LoRaMacClassB.c ****     // Initialize timers
ARM GAS  C:\Users\EBANO_~1\AppData\Local\Temp\ccis3phW.s 			page 11


 539:../../../../../../Middlewares/Third_Party/LoRaWAN/Mac/LoRaMacClassB.c ****     TimerInit( &Ctx.BeaconTimer, LoRaMacClassBBeaconTimerEvent );
 540:../../../../../../Middlewares/Third_Party/LoRaWAN/Mac/LoRaMacClassB.c ****     TimerInit( &Ctx.PingSlotTimer, LoRaMacClassBPingSlotTimerEvent );
 541:../../../../../../Middlewares/Third_Party/LoRaWAN/Mac/LoRaMacClassB.c ****     TimerInit( &Ctx.MulticastSlotTimer, LoRaMacClassBMulticastSlotTimerEvent );
 542:../../../../../../Middlewares/Third_Party/LoRaWAN/Mac/LoRaMacClassB.c **** 
 543:../../../../../../Middlewares/Third_Party/LoRaWAN/Mac/LoRaMacClassB.c ****     InitClassBDefaults( );
 544:../../../../../../Middlewares/Third_Party/LoRaWAN/Mac/LoRaMacClassB.c **** #endif // LORAMAC_CLASSB_ENABLED
 545:../../../../../../Middlewares/Third_Party/LoRaWAN/Mac/LoRaMacClassB.c **** }
  33              		.loc 1 545 0
  34              		@ sp needed
  35 0000 7047     		bx	lr
  36              		.cfi_endproc
  37              	.LFE39:
  38              		.size	LoRaMacClassBInit, .-LoRaMacClassBInit
  39 0002 C046     		.section	.text.LoRaMacClassBRestoreNvmCtx,"ax",%progbits
  40              		.align	1
  41              		.p2align 2,,3
  42              		.global	LoRaMacClassBRestoreNvmCtx
  43              		.syntax unified
  44              		.code	16
  45              		.thumb_func
  46              		.fpu softvfp
  47              		.type	LoRaMacClassBRestoreNvmCtx, %function
  48              	LoRaMacClassBRestoreNvmCtx:
  49              	.LFB40:
 546:../../../../../../Middlewares/Third_Party/LoRaWAN/Mac/LoRaMacClassB.c **** 
 547:../../../../../../Middlewares/Third_Party/LoRaWAN/Mac/LoRaMacClassB.c **** bool LoRaMacClassBRestoreNvmCtx( void* classBNvmCtx )
 548:../../../../../../Middlewares/Third_Party/LoRaWAN/Mac/LoRaMacClassB.c **** {
  50              		.loc 1 548 0
  51              		.cfi_startproc
  52              		@ args = 0, pretend = 0, frame = 0
  53              		@ frame_needed = 0, uses_anonymous_args = 0
  54              		@ link register save eliminated.
  55              	.LVL1:
 549:../../../../../../Middlewares/Third_Party/LoRaWAN/Mac/LoRaMacClassB.c **** #ifdef LORAMAC_CLASSB_ENABLED
 550:../../../../../../Middlewares/Third_Party/LoRaWAN/Mac/LoRaMacClassB.c ****     // Restore module context
 551:../../../../../../Middlewares/Third_Party/LoRaWAN/Mac/LoRaMacClassB.c ****     if( classBNvmCtx != NULL )
 552:../../../../../../Middlewares/Third_Party/LoRaWAN/Mac/LoRaMacClassB.c ****     {
 553:../../../../../../Middlewares/Third_Party/LoRaWAN/Mac/LoRaMacClassB.c ****         memcpy1( ( uint8_t* ) &NvmCtx, ( uint8_t* ) classBNvmCtx, sizeof( NvmCtx ) );
 554:../../../../../../Middlewares/Third_Party/LoRaWAN/Mac/LoRaMacClassB.c ****         return true;
 555:../../../../../../Middlewares/Third_Party/LoRaWAN/Mac/LoRaMacClassB.c ****     }
 556:../../../../../../Middlewares/Third_Party/LoRaWAN/Mac/LoRaMacClassB.c ****     else
 557:../../../../../../Middlewares/Third_Party/LoRaWAN/Mac/LoRaMacClassB.c ****     {
 558:../../../../../../Middlewares/Third_Party/LoRaWAN/Mac/LoRaMacClassB.c ****         return false;
 559:../../../../../../Middlewares/Third_Party/LoRaWAN/Mac/LoRaMacClassB.c ****     }
 560:../../../../../../Middlewares/Third_Party/LoRaWAN/Mac/LoRaMacClassB.c **** #else
 561:../../../../../../Middlewares/Third_Party/LoRaWAN/Mac/LoRaMacClassB.c ****     return true;
 562:../../../../../../Middlewares/Third_Party/LoRaWAN/Mac/LoRaMacClassB.c **** #endif // LORAMAC_CLASSB_ENABLED
 563:../../../../../../Middlewares/Third_Party/LoRaWAN/Mac/LoRaMacClassB.c **** }
  56              		.loc 1 563 0
  57 0000 0120     		movs	r0, #1
  58              	.LVL2:
  59              		@ sp needed
  60 0002 7047     		bx	lr
  61              		.cfi_endproc
  62              	.LFE40:
  63              		.size	LoRaMacClassBRestoreNvmCtx, .-LoRaMacClassBRestoreNvmCtx
  64              		.section	.text.LoRaMacClassBGetNvmCtx,"ax",%progbits
ARM GAS  C:\Users\EBANO_~1\AppData\Local\Temp\ccis3phW.s 			page 12


  65              		.align	1
  66              		.p2align 2,,3
  67              		.global	LoRaMacClassBGetNvmCtx
  68              		.syntax unified
  69              		.code	16
  70              		.thumb_func
  71              		.fpu softvfp
  72              		.type	LoRaMacClassBGetNvmCtx, %function
  73              	LoRaMacClassBGetNvmCtx:
  74              	.LFB41:
 564:../../../../../../Middlewares/Third_Party/LoRaWAN/Mac/LoRaMacClassB.c **** 
 565:../../../../../../Middlewares/Third_Party/LoRaWAN/Mac/LoRaMacClassB.c **** void* LoRaMacClassBGetNvmCtx( size_t* classBNvmCtxSize )
 566:../../../../../../Middlewares/Third_Party/LoRaWAN/Mac/LoRaMacClassB.c **** {
  75              		.loc 1 566 0
  76              		.cfi_startproc
  77              		@ args = 0, pretend = 0, frame = 0
  78              		@ frame_needed = 0, uses_anonymous_args = 0
  79              		@ link register save eliminated.
  80              	.LVL3:
 567:../../../../../../Middlewares/Third_Party/LoRaWAN/Mac/LoRaMacClassB.c **** #ifdef LORAMAC_CLASSB_ENABLED
 568:../../../../../../Middlewares/Third_Party/LoRaWAN/Mac/LoRaMacClassB.c ****     *classBNvmCtxSize = sizeof( NvmCtx );
 569:../../../../../../Middlewares/Third_Party/LoRaWAN/Mac/LoRaMacClassB.c ****     return &NvmCtx;
 570:../../../../../../Middlewares/Third_Party/LoRaWAN/Mac/LoRaMacClassB.c **** #else
 571:../../../../../../Middlewares/Third_Party/LoRaWAN/Mac/LoRaMacClassB.c ****     *classBNvmCtxSize = 0;
  81              		.loc 1 571 0
  82 0000 0023     		movs	r3, #0
 572:../../../../../../Middlewares/Third_Party/LoRaWAN/Mac/LoRaMacClassB.c ****     return NULL;
 573:../../../../../../Middlewares/Third_Party/LoRaWAN/Mac/LoRaMacClassB.c **** #endif // LORAMAC_CLASSB_ENABLED
 574:../../../../../../Middlewares/Third_Party/LoRaWAN/Mac/LoRaMacClassB.c **** }
  83              		.loc 1 574 0
  84              		@ sp needed
 571:../../../../../../Middlewares/Third_Party/LoRaWAN/Mac/LoRaMacClassB.c ****     return NULL;
  85              		.loc 1 571 0
  86 0002 0360     		str	r3, [r0]
  87              		.loc 1 574 0
  88 0004 0020     		movs	r0, #0
  89              	.LVL4:
  90 0006 7047     		bx	lr
  91              		.cfi_endproc
  92              	.LFE41:
  93              		.size	LoRaMacClassBGetNvmCtx, .-LoRaMacClassBGetNvmCtx
  94              		.section	.text.LoRaMacClassBSetBeaconState,"ax",%progbits
  95              		.align	1
  96              		.p2align 2,,3
  97              		.global	LoRaMacClassBSetBeaconState
  98              		.syntax unified
  99              		.code	16
 100              		.thumb_func
 101              		.fpu softvfp
 102              		.type	LoRaMacClassBSetBeaconState, %function
 103              	LoRaMacClassBSetBeaconState:
 104              	.LFB42:
 575:../../../../../../Middlewares/Third_Party/LoRaWAN/Mac/LoRaMacClassB.c **** 
 576:../../../../../../Middlewares/Third_Party/LoRaWAN/Mac/LoRaMacClassB.c **** void LoRaMacClassBSetBeaconState( BeaconState_t beaconState )
 577:../../../../../../Middlewares/Third_Party/LoRaWAN/Mac/LoRaMacClassB.c **** {
 105              		.loc 1 577 0
 106              		.cfi_startproc
ARM GAS  C:\Users\EBANO_~1\AppData\Local\Temp\ccis3phW.s 			page 13


 107              		@ args = 0, pretend = 0, frame = 0
 108              		@ frame_needed = 0, uses_anonymous_args = 0
 109              		@ link register save eliminated.
 110              	.LVL5:
 578:../../../../../../Middlewares/Third_Party/LoRaWAN/Mac/LoRaMacClassB.c **** #ifdef LORAMAC_CLASSB_ENABLED
 579:../../../../../../Middlewares/Third_Party/LoRaWAN/Mac/LoRaMacClassB.c ****     if( beaconState == BEACON_STATE_ACQUISITION )
 580:../../../../../../Middlewares/Third_Party/LoRaWAN/Mac/LoRaMacClassB.c ****     {
 581:../../../../../../Middlewares/Third_Party/LoRaWAN/Mac/LoRaMacClassB.c ****         // If the MAC has received a time reference for the beacon,
 582:../../../../../../Middlewares/Third_Party/LoRaWAN/Mac/LoRaMacClassB.c ****         // apply the state BEACON_STATE_ACQUISITION_BY_TIME.
 583:../../../../../../Middlewares/Third_Party/LoRaWAN/Mac/LoRaMacClassB.c ****         if( ( Ctx.NvmCtx->BeaconCtx.Ctrl.BeaconDelaySet == 1 ) &&
 584:../../../../../../Middlewares/Third_Party/LoRaWAN/Mac/LoRaMacClassB.c ****             ( LoRaMacClassBIsAcquisitionPending( ) == false ) )
 585:../../../../../../Middlewares/Third_Party/LoRaWAN/Mac/LoRaMacClassB.c ****         {
 586:../../../../../../Middlewares/Third_Party/LoRaWAN/Mac/LoRaMacClassB.c ****             Ctx.NvmCtx->BeaconState = BEACON_STATE_ACQUISITION_BY_TIME;
 587:../../../../../../Middlewares/Third_Party/LoRaWAN/Mac/LoRaMacClassB.c ****         }
 588:../../../../../../Middlewares/Third_Party/LoRaWAN/Mac/LoRaMacClassB.c ****         else
 589:../../../../../../Middlewares/Third_Party/LoRaWAN/Mac/LoRaMacClassB.c ****         {
 590:../../../../../../Middlewares/Third_Party/LoRaWAN/Mac/LoRaMacClassB.c ****            Ctx.NvmCtx->BeaconState = beaconState;
 591:../../../../../../Middlewares/Third_Party/LoRaWAN/Mac/LoRaMacClassB.c ****         }
 592:../../../../../../Middlewares/Third_Party/LoRaWAN/Mac/LoRaMacClassB.c ****     }
 593:../../../../../../Middlewares/Third_Party/LoRaWAN/Mac/LoRaMacClassB.c ****     else
 594:../../../../../../Middlewares/Third_Party/LoRaWAN/Mac/LoRaMacClassB.c ****     {
 595:../../../../../../Middlewares/Third_Party/LoRaWAN/Mac/LoRaMacClassB.c ****         if( ( Ctx.NvmCtx->BeaconState != BEACON_STATE_ACQUISITION ) &&
 596:../../../../../../Middlewares/Third_Party/LoRaWAN/Mac/LoRaMacClassB.c ****             ( Ctx.NvmCtx->BeaconState != BEACON_STATE_ACQUISITION_BY_TIME ) )
 597:../../../../../../Middlewares/Third_Party/LoRaWAN/Mac/LoRaMacClassB.c ****         {
 598:../../../../../../Middlewares/Third_Party/LoRaWAN/Mac/LoRaMacClassB.c ****             Ctx.NvmCtx->BeaconState = beaconState;
 599:../../../../../../Middlewares/Third_Party/LoRaWAN/Mac/LoRaMacClassB.c ****         }
 600:../../../../../../Middlewares/Third_Party/LoRaWAN/Mac/LoRaMacClassB.c ****     }
 601:../../../../../../Middlewares/Third_Party/LoRaWAN/Mac/LoRaMacClassB.c **** 
 602:../../../../../../Middlewares/Third_Party/LoRaWAN/Mac/LoRaMacClassB.c ****     NvmContextChange( );
 603:../../../../../../Middlewares/Third_Party/LoRaWAN/Mac/LoRaMacClassB.c **** 
 604:../../../../../../Middlewares/Third_Party/LoRaWAN/Mac/LoRaMacClassB.c **** #endif // LORAMAC_CLASSB_ENABLED
 605:../../../../../../Middlewares/Third_Party/LoRaWAN/Mac/LoRaMacClassB.c **** }
 111              		.loc 1 605 0
 112              		@ sp needed
 113 0000 7047     		bx	lr
 114              		.cfi_endproc
 115              	.LFE42:
 116              		.size	LoRaMacClassBSetBeaconState, .-LoRaMacClassBSetBeaconState
 117 0002 C046     		.section	.text.LoRaMacClassBSetPingSlotState,"ax",%progbits
 118              		.align	1
 119              		.p2align 2,,3
 120              		.global	LoRaMacClassBSetPingSlotState
 121              		.syntax unified
 122              		.code	16
 123              		.thumb_func
 124              		.fpu softvfp
 125              		.type	LoRaMacClassBSetPingSlotState, %function
 126              	LoRaMacClassBSetPingSlotState:
 127              	.LFB72:
 128              		.cfi_startproc
 129              		@ args = 0, pretend = 0, frame = 0
 130              		@ frame_needed = 0, uses_anonymous_args = 0
 131              		@ link register save eliminated.
 132              		@ sp needed
 133 0000 7047     		bx	lr
 134              		.cfi_endproc
 135              	.LFE72:
ARM GAS  C:\Users\EBANO_~1\AppData\Local\Temp\ccis3phW.s 			page 14


 136              		.size	LoRaMacClassBSetPingSlotState, .-LoRaMacClassBSetPingSlotState
 137 0002 C046     		.section	.text.LoRaMacClassBSetMulticastSlotState,"ax",%progbits
 138              		.align	1
 139              		.p2align 2,,3
 140              		.global	LoRaMacClassBSetMulticastSlotState
 141              		.syntax unified
 142              		.code	16
 143              		.thumb_func
 144              		.fpu softvfp
 145              		.type	LoRaMacClassBSetMulticastSlotState, %function
 146              	LoRaMacClassBSetMulticastSlotState:
 147              	.LFB74:
 148              		.cfi_startproc
 149              		@ args = 0, pretend = 0, frame = 0
 150              		@ frame_needed = 0, uses_anonymous_args = 0
 151              		@ link register save eliminated.
 152              		@ sp needed
 153 0000 7047     		bx	lr
 154              		.cfi_endproc
 155              	.LFE74:
 156              		.size	LoRaMacClassBSetMulticastSlotState, .-LoRaMacClassBSetMulticastSlotState
 157 0002 C046     		.section	.text.LoRaMacClassBIsAcquisitionInProgress,"ax",%progbits
 158              		.align	1
 159              		.p2align 2,,3
 160              		.global	LoRaMacClassBIsAcquisitionInProgress
 161              		.syntax unified
 162              		.code	16
 163              		.thumb_func
 164              		.fpu softvfp
 165              		.type	LoRaMacClassBIsAcquisitionInProgress, %function
 166              	LoRaMacClassBIsAcquisitionInProgress:
 167              	.LFB45:
 606:../../../../../../Middlewares/Third_Party/LoRaWAN/Mac/LoRaMacClassB.c **** 
 607:../../../../../../Middlewares/Third_Party/LoRaWAN/Mac/LoRaMacClassB.c **** void LoRaMacClassBSetPingSlotState( PingSlotState_t pingSlotState )
 608:../../../../../../Middlewares/Third_Party/LoRaWAN/Mac/LoRaMacClassB.c **** {
 609:../../../../../../Middlewares/Third_Party/LoRaWAN/Mac/LoRaMacClassB.c **** #ifdef LORAMAC_CLASSB_ENABLED
 610:../../../../../../Middlewares/Third_Party/LoRaWAN/Mac/LoRaMacClassB.c ****     Ctx.NvmCtx->PingSlotState = pingSlotState;
 611:../../../../../../Middlewares/Third_Party/LoRaWAN/Mac/LoRaMacClassB.c ****     NvmContextChange( );
 612:../../../../../../Middlewares/Third_Party/LoRaWAN/Mac/LoRaMacClassB.c **** #endif // LORAMAC_CLASSB_ENABLED
 613:../../../../../../Middlewares/Third_Party/LoRaWAN/Mac/LoRaMacClassB.c **** }
 614:../../../../../../Middlewares/Third_Party/LoRaWAN/Mac/LoRaMacClassB.c **** 
 615:../../../../../../Middlewares/Third_Party/LoRaWAN/Mac/LoRaMacClassB.c **** void LoRaMacClassBSetMulticastSlotState( PingSlotState_t multicastSlotState )
 616:../../../../../../Middlewares/Third_Party/LoRaWAN/Mac/LoRaMacClassB.c **** {
 617:../../../../../../Middlewares/Third_Party/LoRaWAN/Mac/LoRaMacClassB.c **** #ifdef LORAMAC_CLASSB_ENABLED
 618:../../../../../../Middlewares/Third_Party/LoRaWAN/Mac/LoRaMacClassB.c ****     Ctx.NvmCtx->MulticastSlotState = multicastSlotState;
 619:../../../../../../Middlewares/Third_Party/LoRaWAN/Mac/LoRaMacClassB.c ****     NvmContextChange( );
 620:../../../../../../Middlewares/Third_Party/LoRaWAN/Mac/LoRaMacClassB.c **** #endif // LORAMAC_CLASSB_ENABLED
 621:../../../../../../Middlewares/Third_Party/LoRaWAN/Mac/LoRaMacClassB.c **** }
 622:../../../../../../Middlewares/Third_Party/LoRaWAN/Mac/LoRaMacClassB.c **** 
 623:../../../../../../Middlewares/Third_Party/LoRaWAN/Mac/LoRaMacClassB.c **** bool LoRaMacClassBIsAcquisitionInProgress( void )
 624:../../../../../../Middlewares/Third_Party/LoRaWAN/Mac/LoRaMacClassB.c **** {
 168              		.loc 1 624 0
 169              		.cfi_startproc
 170              		@ args = 0, pretend = 0, frame = 0
 171              		@ frame_needed = 0, uses_anonymous_args = 0
 172              		@ link register save eliminated.
 625:../../../../../../Middlewares/Third_Party/LoRaWAN/Mac/LoRaMacClassB.c **** #ifdef LORAMAC_CLASSB_ENABLED
ARM GAS  C:\Users\EBANO_~1\AppData\Local\Temp\ccis3phW.s 			page 15


 626:../../../../../../Middlewares/Third_Party/LoRaWAN/Mac/LoRaMacClassB.c ****     if( Ctx.NvmCtx->BeaconState == BEACON_STATE_ACQUISITION_BY_TIME )
 627:../../../../../../Middlewares/Third_Party/LoRaWAN/Mac/LoRaMacClassB.c ****     {
 628:../../../../../../Middlewares/Third_Party/LoRaWAN/Mac/LoRaMacClassB.c ****         // In this case the acquisition is in progress, as the MAC has
 629:../../../../../../Middlewares/Third_Party/LoRaWAN/Mac/LoRaMacClassB.c ****         // a time reference for the next beacon RX.
 630:../../../../../../Middlewares/Third_Party/LoRaWAN/Mac/LoRaMacClassB.c ****         return true;
 631:../../../../../../Middlewares/Third_Party/LoRaWAN/Mac/LoRaMacClassB.c ****     }
 632:../../../../../../Middlewares/Third_Party/LoRaWAN/Mac/LoRaMacClassB.c ****     if( LoRaMacClassBIsAcquisitionPending( ) == true )
 633:../../../../../../Middlewares/Third_Party/LoRaWAN/Mac/LoRaMacClassB.c ****     {
 634:../../../../../../Middlewares/Third_Party/LoRaWAN/Mac/LoRaMacClassB.c ****         // In this case the acquisition is in progress, as the MAC
 635:../../../../../../Middlewares/Third_Party/LoRaWAN/Mac/LoRaMacClassB.c ****         // searches for a beacon.
 636:../../../../../../Middlewares/Third_Party/LoRaWAN/Mac/LoRaMacClassB.c ****         return true;
 637:../../../../../../Middlewares/Third_Party/LoRaWAN/Mac/LoRaMacClassB.c ****     }
 638:../../../../../../Middlewares/Third_Party/LoRaWAN/Mac/LoRaMacClassB.c ****     return false;
 639:../../../../../../Middlewares/Third_Party/LoRaWAN/Mac/LoRaMacClassB.c **** #else
 640:../../../../../../Middlewares/Third_Party/LoRaWAN/Mac/LoRaMacClassB.c ****     return false;
 641:../../../../../../Middlewares/Third_Party/LoRaWAN/Mac/LoRaMacClassB.c **** #endif // LORAMAC_CLASSB_ENABLED
 642:../../../../../../Middlewares/Third_Party/LoRaWAN/Mac/LoRaMacClassB.c **** }
 173              		.loc 1 642 0
 174 0000 0020     		movs	r0, #0
 175              		@ sp needed
 176 0002 7047     		bx	lr
 177              		.cfi_endproc
 178              	.LFE45:
 179              		.size	LoRaMacClassBIsAcquisitionInProgress, .-LoRaMacClassBIsAcquisitionInProgress
 180              		.section	.text.LoRaMacClassBBeaconTimerEvent,"ax",%progbits
 181              		.align	1
 182              		.p2align 2,,3
 183              		.global	LoRaMacClassBBeaconTimerEvent
 184              		.syntax unified
 185              		.code	16
 186              		.thumb_func
 187              		.fpu softvfp
 188              		.type	LoRaMacClassBBeaconTimerEvent, %function
 189              	LoRaMacClassBBeaconTimerEvent:
 190              	.LFB46:
 643:../../../../../../Middlewares/Third_Party/LoRaWAN/Mac/LoRaMacClassB.c **** 
 644:../../../../../../Middlewares/Third_Party/LoRaWAN/Mac/LoRaMacClassB.c **** void LoRaMacClassBBeaconTimerEvent( void* context )
 645:../../../../../../Middlewares/Third_Party/LoRaWAN/Mac/LoRaMacClassB.c **** {
 191              		.loc 1 645 0
 192              		.cfi_startproc
 193              		@ args = 0, pretend = 0, frame = 0
 194              		@ frame_needed = 0, uses_anonymous_args = 0
 195              		@ link register save eliminated.
 196              	.LVL6:
 646:../../../../../../Middlewares/Third_Party/LoRaWAN/Mac/LoRaMacClassB.c **** #ifdef LORAMAC_CLASSB_ENABLED
 647:../../../../../../Middlewares/Third_Party/LoRaWAN/Mac/LoRaMacClassB.c ****     Ctx.NvmCtx->BeaconCtx.TimeStamp = TimerGetCurrentTime( );
 648:../../../../../../Middlewares/Third_Party/LoRaWAN/Mac/LoRaMacClassB.c ****     TimerStop( &Ctx.BeaconTimer );
 649:../../../../../../Middlewares/Third_Party/LoRaWAN/Mac/LoRaMacClassB.c ****     LoRaMacClassBEvents.Events.Beacon = 1;
 650:../../../../../../Middlewares/Third_Party/LoRaWAN/Mac/LoRaMacClassB.c **** 
 651:../../../../../../Middlewares/Third_Party/LoRaWAN/Mac/LoRaMacClassB.c ****     if( Ctx.LoRaMacClassBCallbacks.MacProcessNotify != NULL )
 652:../../../../../../Middlewares/Third_Party/LoRaWAN/Mac/LoRaMacClassB.c ****     {
 653:../../../../../../Middlewares/Third_Party/LoRaWAN/Mac/LoRaMacClassB.c ****         Ctx.LoRaMacClassBCallbacks.MacProcessNotify( );
 654:../../../../../../Middlewares/Third_Party/LoRaWAN/Mac/LoRaMacClassB.c ****     }
 655:../../../../../../Middlewares/Third_Party/LoRaWAN/Mac/LoRaMacClassB.c **** #endif // LORAMAC_CLASSB_ENABLED
 656:../../../../../../Middlewares/Third_Party/LoRaWAN/Mac/LoRaMacClassB.c **** }
 197              		.loc 1 656 0
 198              		@ sp needed
ARM GAS  C:\Users\EBANO_~1\AppData\Local\Temp\ccis3phW.s 			page 16


 199 0000 7047     		bx	lr
 200              		.cfi_endproc
 201              	.LFE46:
 202              		.size	LoRaMacClassBBeaconTimerEvent, .-LoRaMacClassBBeaconTimerEvent
 203 0002 C046     		.section	.text.LoRaMacClassBPingSlotTimerEvent,"ax",%progbits
 204              		.align	1
 205              		.p2align 2,,3
 206              		.global	LoRaMacClassBPingSlotTimerEvent
 207              		.syntax unified
 208              		.code	16
 209              		.thumb_func
 210              		.fpu softvfp
 211              		.type	LoRaMacClassBPingSlotTimerEvent, %function
 212              	LoRaMacClassBPingSlotTimerEvent:
 213              	.LFB78:
 214              		.cfi_startproc
 215              		@ args = 0, pretend = 0, frame = 0
 216              		@ frame_needed = 0, uses_anonymous_args = 0
 217              		@ link register save eliminated.
 218              		@ sp needed
 219 0000 7047     		bx	lr
 220              		.cfi_endproc
 221              	.LFE78:
 222              		.size	LoRaMacClassBPingSlotTimerEvent, .-LoRaMacClassBPingSlotTimerEvent
 223 0002 C046     		.section	.text.LoRaMacClassBMulticastSlotTimerEvent,"ax",%progbits
 224              		.align	1
 225              		.p2align 2,,3
 226              		.global	LoRaMacClassBMulticastSlotTimerEvent
 227              		.syntax unified
 228              		.code	16
 229              		.thumb_func
 230              		.fpu softvfp
 231              		.type	LoRaMacClassBMulticastSlotTimerEvent, %function
 232              	LoRaMacClassBMulticastSlotTimerEvent:
 233              	.LFB80:
 234              		.cfi_startproc
 235              		@ args = 0, pretend = 0, frame = 0
 236              		@ frame_needed = 0, uses_anonymous_args = 0
 237              		@ link register save eliminated.
 238              		@ sp needed
 239 0000 7047     		bx	lr
 240              		.cfi_endproc
 241              	.LFE80:
 242              		.size	LoRaMacClassBMulticastSlotTimerEvent, .-LoRaMacClassBMulticastSlotTimerEvent
 243 0002 C046     		.section	.text.LoRaMacClassBRxBeacon,"ax",%progbits
 244              		.align	1
 245              		.p2align 2,,3
 246              		.global	LoRaMacClassBRxBeacon
 247              		.syntax unified
 248              		.code	16
 249              		.thumb_func
 250              		.fpu softvfp
 251              		.type	LoRaMacClassBRxBeacon, %function
 252              	LoRaMacClassBRxBeacon:
 253              	.LFB49:
 657:../../../../../../Middlewares/Third_Party/LoRaWAN/Mac/LoRaMacClassB.c **** 
 658:../../../../../../Middlewares/Third_Party/LoRaWAN/Mac/LoRaMacClassB.c **** #ifdef LORAMAC_CLASSB_ENABLED
ARM GAS  C:\Users\EBANO_~1\AppData\Local\Temp\ccis3phW.s 			page 17


 659:../../../../../../Middlewares/Third_Party/LoRaWAN/Mac/LoRaMacClassB.c **** static void LoRaMacClassBProcessBeacon( void )
 660:../../../../../../Middlewares/Third_Party/LoRaWAN/Mac/LoRaMacClassB.c **** {
 661:../../../../../../Middlewares/Third_Party/LoRaWAN/Mac/LoRaMacClassB.c ****     bool activateTimer = false;
 662:../../../../../../Middlewares/Third_Party/LoRaWAN/Mac/LoRaMacClassB.c ****     TimerTime_t beaconEventTime = 1;
 663:../../../../../../Middlewares/Third_Party/LoRaWAN/Mac/LoRaMacClassB.c ****     TimerTime_t currentTime = Ctx.NvmCtx->BeaconCtx.TimeStamp;
 664:../../../../../../Middlewares/Third_Party/LoRaWAN/Mac/LoRaMacClassB.c **** 
 665:../../../../../../Middlewares/Third_Party/LoRaWAN/Mac/LoRaMacClassB.c ****     // Beacon state machine
 666:../../../../../../Middlewares/Third_Party/LoRaWAN/Mac/LoRaMacClassB.c ****     switch( Ctx.NvmCtx->BeaconState )
 667:../../../../../../Middlewares/Third_Party/LoRaWAN/Mac/LoRaMacClassB.c ****     {
 668:../../../../../../Middlewares/Third_Party/LoRaWAN/Mac/LoRaMacClassB.c ****         case BEACON_STATE_ACQUISITION_BY_TIME:
 669:../../../../../../Middlewares/Third_Party/LoRaWAN/Mac/LoRaMacClassB.c ****         {
 670:../../../../../../Middlewares/Third_Party/LoRaWAN/Mac/LoRaMacClassB.c ****             activateTimer = true;
 671:../../../../../../Middlewares/Third_Party/LoRaWAN/Mac/LoRaMacClassB.c **** 
 672:../../../../../../Middlewares/Third_Party/LoRaWAN/Mac/LoRaMacClassB.c ****             if( Ctx.NvmCtx->BeaconCtx.Ctrl.AcquisitionPending == 1 )
 673:../../../../../../Middlewares/Third_Party/LoRaWAN/Mac/LoRaMacClassB.c ****             {
 674:../../../../../../Middlewares/Third_Party/LoRaWAN/Mac/LoRaMacClassB.c ****                 Radio.Sleep();
 675:../../../../../../Middlewares/Third_Party/LoRaWAN/Mac/LoRaMacClassB.c ****                 Ctx.NvmCtx->BeaconState = BEACON_STATE_LOST;
 676:../../../../../../Middlewares/Third_Party/LoRaWAN/Mac/LoRaMacClassB.c ****             }
 677:../../../../../../Middlewares/Third_Party/LoRaWAN/Mac/LoRaMacClassB.c ****             else
 678:../../../../../../Middlewares/Third_Party/LoRaWAN/Mac/LoRaMacClassB.c ****             {
 679:../../../../../../Middlewares/Third_Party/LoRaWAN/Mac/LoRaMacClassB.c ****                 // Default symbol timeouts
 680:../../../../../../Middlewares/Third_Party/LoRaWAN/Mac/LoRaMacClassB.c ****                 ResetWindowTimeout( );
 681:../../../../../../Middlewares/Third_Party/LoRaWAN/Mac/LoRaMacClassB.c **** 
 682:../../../../../../Middlewares/Third_Party/LoRaWAN/Mac/LoRaMacClassB.c ****                 if( Ctx.NvmCtx->BeaconCtx.Ctrl.BeaconDelaySet == 1 )
 683:../../../../../../Middlewares/Third_Party/LoRaWAN/Mac/LoRaMacClassB.c ****                 {
 684:../../../../../../Middlewares/Third_Party/LoRaWAN/Mac/LoRaMacClassB.c ****                     if( Ctx.NvmCtx->BeaconCtx.BeaconTimingDelay > 0 )
 685:../../../../../../Middlewares/Third_Party/LoRaWAN/Mac/LoRaMacClassB.c ****                     {
 686:../../../../../../Middlewares/Third_Party/LoRaWAN/Mac/LoRaMacClassB.c ****                         if( Ctx.NvmCtx->BeaconCtx.NextBeaconRx > currentTime )
 687:../../../../../../Middlewares/Third_Party/LoRaWAN/Mac/LoRaMacClassB.c ****                         {
 688:../../../../../../Middlewares/Third_Party/LoRaWAN/Mac/LoRaMacClassB.c ****                             beaconEventTime = TimerTempCompensation( Ctx.NvmCtx->BeaconCtx.NextBeac
 689:../../../../../../Middlewares/Third_Party/LoRaWAN/Mac/LoRaMacClassB.c ****                         }
 690:../../../../../../Middlewares/Third_Party/LoRaWAN/Mac/LoRaMacClassB.c ****                         else
 691:../../../../../../Middlewares/Third_Party/LoRaWAN/Mac/LoRaMacClassB.c ****                         {
 692:../../../../../../Middlewares/Third_Party/LoRaWAN/Mac/LoRaMacClassB.c ****                             // Reset status provides by BeaconTimingAns
 693:../../../../../../Middlewares/Third_Party/LoRaWAN/Mac/LoRaMacClassB.c ****                             Ctx.NvmCtx->BeaconCtx.Ctrl.BeaconDelaySet = 0;
 694:../../../../../../Middlewares/Third_Party/LoRaWAN/Mac/LoRaMacClassB.c ****                             Ctx.NvmCtx->BeaconCtx.Ctrl.BeaconChannelSet = 0;
 695:../../../../../../Middlewares/Third_Party/LoRaWAN/Mac/LoRaMacClassB.c ****                             Ctx.NvmCtx->BeaconState = BEACON_STATE_ACQUISITION;
 696:../../../../../../Middlewares/Third_Party/LoRaWAN/Mac/LoRaMacClassB.c ****                         }
 697:../../../../../../Middlewares/Third_Party/LoRaWAN/Mac/LoRaMacClassB.c ****                         Ctx.NvmCtx->BeaconCtx.BeaconTimingDelay = 0;
 698:../../../../../../Middlewares/Third_Party/LoRaWAN/Mac/LoRaMacClassB.c ****                     }
 699:../../../../../../Middlewares/Third_Party/LoRaWAN/Mac/LoRaMacClassB.c ****                     else
 700:../../../../../../Middlewares/Third_Party/LoRaWAN/Mac/LoRaMacClassB.c ****                     {
 701:../../../../../../Middlewares/Third_Party/LoRaWAN/Mac/LoRaMacClassB.c ****                         activateTimer = false;
 702:../../../../../../Middlewares/Third_Party/LoRaWAN/Mac/LoRaMacClassB.c **** 
 703:../../../../../../Middlewares/Third_Party/LoRaWAN/Mac/LoRaMacClassB.c ****                         // Reset status provides by BeaconTimingAns
 704:../../../../../../Middlewares/Third_Party/LoRaWAN/Mac/LoRaMacClassB.c ****                         Ctx.NvmCtx->BeaconCtx.Ctrl.BeaconDelaySet = 0;
 705:../../../../../../Middlewares/Third_Party/LoRaWAN/Mac/LoRaMacClassB.c ****                         // Set the node into acquisition mode
 706:../../../../../../Middlewares/Third_Party/LoRaWAN/Mac/LoRaMacClassB.c ****                         Ctx.NvmCtx->BeaconCtx.Ctrl.AcquisitionPending = 1;
 707:../../../../../../Middlewares/Third_Party/LoRaWAN/Mac/LoRaMacClassB.c **** 
 708:../../../../../../Middlewares/Third_Party/LoRaWAN/Mac/LoRaMacClassB.c ****                         // Don't use the default channel. We know on which
 709:../../../../../../Middlewares/Third_Party/LoRaWAN/Mac/LoRaMacClassB.c ****                         // channel the next beacon will be transmitted
 710:../../../../../../Middlewares/Third_Party/LoRaWAN/Mac/LoRaMacClassB.c ****                         RxBeaconSetup( CLASSB_BEACON_RESERVED, false );
 711:../../../../../../Middlewares/Third_Party/LoRaWAN/Mac/LoRaMacClassB.c ****                     }
 712:../../../../../../Middlewares/Third_Party/LoRaWAN/Mac/LoRaMacClassB.c ****                 }
 713:../../../../../../Middlewares/Third_Party/LoRaWAN/Mac/LoRaMacClassB.c ****                 else
 714:../../../../../../Middlewares/Third_Party/LoRaWAN/Mac/LoRaMacClassB.c ****                 {
 715:../../../../../../Middlewares/Third_Party/LoRaWAN/Mac/LoRaMacClassB.c ****                     Ctx.NvmCtx->BeaconCtx.NextBeaconRx = 0;
ARM GAS  C:\Users\EBANO_~1\AppData\Local\Temp\ccis3phW.s 			page 18


 716:../../../../../../Middlewares/Third_Party/LoRaWAN/Mac/LoRaMacClassB.c ****                     Ctx.NvmCtx->BeaconCtx.BeaconTimingDelay = 0;
 717:../../../../../../Middlewares/Third_Party/LoRaWAN/Mac/LoRaMacClassB.c **** 
 718:../../../../../../Middlewares/Third_Party/LoRaWAN/Mac/LoRaMacClassB.c ****                     Ctx.NvmCtx->BeaconState = BEACON_STATE_ACQUISITION;
 719:../../../../../../Middlewares/Third_Party/LoRaWAN/Mac/LoRaMacClassB.c ****                 }
 720:../../../../../../Middlewares/Third_Party/LoRaWAN/Mac/LoRaMacClassB.c ****             }
 721:../../../../../../Middlewares/Third_Party/LoRaWAN/Mac/LoRaMacClassB.c ****             break;
 722:../../../../../../Middlewares/Third_Party/LoRaWAN/Mac/LoRaMacClassB.c ****         }
 723:../../../../../../Middlewares/Third_Party/LoRaWAN/Mac/LoRaMacClassB.c ****         case BEACON_STATE_ACQUISITION:
 724:../../../../../../Middlewares/Third_Party/LoRaWAN/Mac/LoRaMacClassB.c ****         {
 725:../../../../../../Middlewares/Third_Party/LoRaWAN/Mac/LoRaMacClassB.c ****             activateTimer = true;
 726:../../../../../../Middlewares/Third_Party/LoRaWAN/Mac/LoRaMacClassB.c **** 
 727:../../../../../../Middlewares/Third_Party/LoRaWAN/Mac/LoRaMacClassB.c ****             if( Ctx.NvmCtx->BeaconCtx.Ctrl.AcquisitionPending == 1 )
 728:../../../../../../Middlewares/Third_Party/LoRaWAN/Mac/LoRaMacClassB.c ****             {
 729:../../../../../../Middlewares/Third_Party/LoRaWAN/Mac/LoRaMacClassB.c ****                 Radio.Sleep();
 730:../../../../../../Middlewares/Third_Party/LoRaWAN/Mac/LoRaMacClassB.c ****                 Ctx.NvmCtx->BeaconState = BEACON_STATE_LOST;
 731:../../../../../../Middlewares/Third_Party/LoRaWAN/Mac/LoRaMacClassB.c ****             }
 732:../../../../../../Middlewares/Third_Party/LoRaWAN/Mac/LoRaMacClassB.c ****             else
 733:../../../../../../Middlewares/Third_Party/LoRaWAN/Mac/LoRaMacClassB.c ****             {
 734:../../../../../../Middlewares/Third_Party/LoRaWAN/Mac/LoRaMacClassB.c ****                 // Default symbol timeouts
 735:../../../../../../Middlewares/Third_Party/LoRaWAN/Mac/LoRaMacClassB.c ****                 ResetWindowTimeout( );
 736:../../../../../../Middlewares/Third_Party/LoRaWAN/Mac/LoRaMacClassB.c **** 
 737:../../../../../../Middlewares/Third_Party/LoRaWAN/Mac/LoRaMacClassB.c ****                 Ctx.NvmCtx->BeaconCtx.Ctrl.AcquisitionPending = 1;
 738:../../../../../../Middlewares/Third_Party/LoRaWAN/Mac/LoRaMacClassB.c ****                 beaconEventTime = CLASSB_BEACON_INTERVAL;
 739:../../../../../../Middlewares/Third_Party/LoRaWAN/Mac/LoRaMacClassB.c **** 
 740:../../../../../../Middlewares/Third_Party/LoRaWAN/Mac/LoRaMacClassB.c ****                 // Start the beacon acquisition. When the MAC has received a beacon in function
 741:../../../../../../Middlewares/Third_Party/LoRaWAN/Mac/LoRaMacClassB.c ****                 // RxBeacon successfully, the next state is BEACON_STATE_LOCKED. If the MAC does no
 742:../../../../../../Middlewares/Third_Party/LoRaWAN/Mac/LoRaMacClassB.c ****                 // find a beacon, the state machine will stay in state BEACON_STATE_ACQUISITION.
 743:../../../../../../Middlewares/Third_Party/LoRaWAN/Mac/LoRaMacClassB.c ****                 // This state detects that a acquisition was pending previously and will change the
 744:../../../../../../Middlewares/Third_Party/LoRaWAN/Mac/LoRaMacClassB.c ****                 // state to BEACON_STATE_LOST.
 745:../../../../../../Middlewares/Third_Party/LoRaWAN/Mac/LoRaMacClassB.c ****                 RxBeaconSetup( 0, true );
 746:../../../../../../Middlewares/Third_Party/LoRaWAN/Mac/LoRaMacClassB.c ****             }
 747:../../../../../../Middlewares/Third_Party/LoRaWAN/Mac/LoRaMacClassB.c ****             break;
 748:../../../../../../Middlewares/Third_Party/LoRaWAN/Mac/LoRaMacClassB.c ****         }
 749:../../../../../../Middlewares/Third_Party/LoRaWAN/Mac/LoRaMacClassB.c ****         case BEACON_STATE_TIMEOUT:
 750:../../../../../../Middlewares/Third_Party/LoRaWAN/Mac/LoRaMacClassB.c ****         {
 751:../../../../../../Middlewares/Third_Party/LoRaWAN/Mac/LoRaMacClassB.c ****             // We have to update the beacon time, since we missed a beacon
 752:../../../../../../Middlewares/Third_Party/LoRaWAN/Mac/LoRaMacClassB.c ****             Ctx.NvmCtx->BeaconCtx.BeaconTime += ( CLASSB_BEACON_INTERVAL / 1000 );
 753:../../../../../../Middlewares/Third_Party/LoRaWAN/Mac/LoRaMacClassB.c **** 
 754:../../../../../../Middlewares/Third_Party/LoRaWAN/Mac/LoRaMacClassB.c ****             // Enlarge window timeouts to increase the chance to receive the next beacon
 755:../../../../../../Middlewares/Third_Party/LoRaWAN/Mac/LoRaMacClassB.c ****             EnlargeWindowTimeout( );
 756:../../../../../../Middlewares/Third_Party/LoRaWAN/Mac/LoRaMacClassB.c **** 
 757:../../../../../../Middlewares/Third_Party/LoRaWAN/Mac/LoRaMacClassB.c ****             // Setup next state
 758:../../../../../../Middlewares/Third_Party/LoRaWAN/Mac/LoRaMacClassB.c ****             Ctx.NvmCtx->BeaconState = BEACON_STATE_REACQUISITION;
 759:../../../../../../Middlewares/Third_Party/LoRaWAN/Mac/LoRaMacClassB.c ****         }
 760:../../../../../../Middlewares/Third_Party/LoRaWAN/Mac/LoRaMacClassB.c ****             // Intentional fall through
 761:../../../../../../Middlewares/Third_Party/LoRaWAN/Mac/LoRaMacClassB.c ****         case BEACON_STATE_REACQUISITION:
 762:../../../../../../Middlewares/Third_Party/LoRaWAN/Mac/LoRaMacClassB.c ****         {
 763:../../../../../../Middlewares/Third_Party/LoRaWAN/Mac/LoRaMacClassB.c ****             activateTimer = true;
 764:../../../../../../Middlewares/Third_Party/LoRaWAN/Mac/LoRaMacClassB.c **** 
 765:../../../../../../Middlewares/Third_Party/LoRaWAN/Mac/LoRaMacClassB.c ****             // The beacon is no longer acquired
 766:../../../../../../Middlewares/Third_Party/LoRaWAN/Mac/LoRaMacClassB.c ****             Ctx.NvmCtx->BeaconCtx.Ctrl.BeaconAcquired = 0;
 767:../../../../../../Middlewares/Third_Party/LoRaWAN/Mac/LoRaMacClassB.c **** 
 768:../../../../../../Middlewares/Third_Party/LoRaWAN/Mac/LoRaMacClassB.c ****             // Verify if the maximum beacon less period has been elapsed
 769:../../../../../../Middlewares/Third_Party/LoRaWAN/Mac/LoRaMacClassB.c ****             if( ( currentTime - Ctx.NvmCtx->BeaconCtx.LastBeaconRx ) > CLASSB_MAX_BEACON_LESS_PERIO
 770:../../../../../../Middlewares/Third_Party/LoRaWAN/Mac/LoRaMacClassB.c ****             {
 771:../../../../../../Middlewares/Third_Party/LoRaWAN/Mac/LoRaMacClassB.c ****                 Ctx.NvmCtx->BeaconState = BEACON_STATE_LOST;
 772:../../../../../../Middlewares/Third_Party/LoRaWAN/Mac/LoRaMacClassB.c ****             }
ARM GAS  C:\Users\EBANO_~1\AppData\Local\Temp\ccis3phW.s 			page 19


 773:../../../../../../Middlewares/Third_Party/LoRaWAN/Mac/LoRaMacClassB.c ****             else
 774:../../../../../../Middlewares/Third_Party/LoRaWAN/Mac/LoRaMacClassB.c ****             {
 775:../../../../../../Middlewares/Third_Party/LoRaWAN/Mac/LoRaMacClassB.c ****                 // Handle beacon miss
 776:../../../../../../Middlewares/Third_Party/LoRaWAN/Mac/LoRaMacClassB.c ****                 beaconEventTime = UpdateBeaconState( LORAMAC_EVENT_INFO_STATUS_BEACON_LOST,
 777:../../../../../../Middlewares/Third_Party/LoRaWAN/Mac/LoRaMacClassB.c ****                                                      Ctx.NvmCtx->BeaconCtx.BeaconWindowMovement, cu
 778:../../../../../../Middlewares/Third_Party/LoRaWAN/Mac/LoRaMacClassB.c **** 
 779:../../../../../../Middlewares/Third_Party/LoRaWAN/Mac/LoRaMacClassB.c ****                 // Setup next state
 780:../../../../../../Middlewares/Third_Party/LoRaWAN/Mac/LoRaMacClassB.c ****                 Ctx.NvmCtx->BeaconState = BEACON_STATE_IDLE;
 781:../../../../../../Middlewares/Third_Party/LoRaWAN/Mac/LoRaMacClassB.c ****             }
 782:../../../../../../Middlewares/Third_Party/LoRaWAN/Mac/LoRaMacClassB.c ****             break;
 783:../../../../../../Middlewares/Third_Party/LoRaWAN/Mac/LoRaMacClassB.c ****         }
 784:../../../../../../Middlewares/Third_Party/LoRaWAN/Mac/LoRaMacClassB.c ****         case BEACON_STATE_LOCKED:
 785:../../../../../../Middlewares/Third_Party/LoRaWAN/Mac/LoRaMacClassB.c ****         {
 786:../../../../../../Middlewares/Third_Party/LoRaWAN/Mac/LoRaMacClassB.c ****             activateTimer = true;
 787:../../../../../../Middlewares/Third_Party/LoRaWAN/Mac/LoRaMacClassB.c **** 
 788:../../../../../../Middlewares/Third_Party/LoRaWAN/Mac/LoRaMacClassB.c ****             // We have received a beacon. Acquisition is no longer pending.
 789:../../../../../../Middlewares/Third_Party/LoRaWAN/Mac/LoRaMacClassB.c ****             Ctx.NvmCtx->BeaconCtx.Ctrl.AcquisitionPending = 0;
 790:../../../../../../Middlewares/Third_Party/LoRaWAN/Mac/LoRaMacClassB.c **** 
 791:../../../../../../Middlewares/Third_Party/LoRaWAN/Mac/LoRaMacClassB.c ****             // Handle beacon reception
 792:../../../../../../Middlewares/Third_Party/LoRaWAN/Mac/LoRaMacClassB.c ****             beaconEventTime = UpdateBeaconState( LORAMAC_EVENT_INFO_STATUS_BEACON_LOCKED,
 793:../../../../../../Middlewares/Third_Party/LoRaWAN/Mac/LoRaMacClassB.c ****                                                  0, currentTime );
 794:../../../../../../Middlewares/Third_Party/LoRaWAN/Mac/LoRaMacClassB.c **** 
 795:../../../../../../Middlewares/Third_Party/LoRaWAN/Mac/LoRaMacClassB.c ****             // Setup the MLME confirm for the MLME_BEACON_ACQUISITION
 796:../../../../../../Middlewares/Third_Party/LoRaWAN/Mac/LoRaMacClassB.c ****             if( Ctx.LoRaMacClassBParams.LoRaMacFlags->Bits.MlmeReq == 1 )
 797:../../../../../../Middlewares/Third_Party/LoRaWAN/Mac/LoRaMacClassB.c ****             {
 798:../../../../../../Middlewares/Third_Party/LoRaWAN/Mac/LoRaMacClassB.c ****                 if( LoRaMacConfirmQueueIsCmdActive( MLME_BEACON_ACQUISITION ) == true )
 799:../../../../../../Middlewares/Third_Party/LoRaWAN/Mac/LoRaMacClassB.c ****                 {
 800:../../../../../../Middlewares/Third_Party/LoRaWAN/Mac/LoRaMacClassB.c ****                     LoRaMacConfirmQueueSetStatus( LORAMAC_EVENT_INFO_STATUS_OK, MLME_BEACON_ACQUISI
 801:../../../../../../Middlewares/Third_Party/LoRaWAN/Mac/LoRaMacClassB.c ****                     Ctx.LoRaMacClassBParams.MlmeConfirm->TxTimeOnAir = 0;
 802:../../../../../../Middlewares/Third_Party/LoRaWAN/Mac/LoRaMacClassB.c ****                 }
 803:../../../../../../Middlewares/Third_Party/LoRaWAN/Mac/LoRaMacClassB.c ****             }
 804:../../../../../../Middlewares/Third_Party/LoRaWAN/Mac/LoRaMacClassB.c **** 
 805:../../../../../../Middlewares/Third_Party/LoRaWAN/Mac/LoRaMacClassB.c ****             // Setup next state
 806:../../../../../../Middlewares/Third_Party/LoRaWAN/Mac/LoRaMacClassB.c ****             Ctx.NvmCtx->BeaconState = BEACON_STATE_IDLE;
 807:../../../../../../Middlewares/Third_Party/LoRaWAN/Mac/LoRaMacClassB.c ****             break;
 808:../../../../../../Middlewares/Third_Party/LoRaWAN/Mac/LoRaMacClassB.c ****         }
 809:../../../../../../Middlewares/Third_Party/LoRaWAN/Mac/LoRaMacClassB.c ****         case BEACON_STATE_IDLE:
 810:../../../../../../Middlewares/Third_Party/LoRaWAN/Mac/LoRaMacClassB.c ****         {
 811:../../../../../../Middlewares/Third_Party/LoRaWAN/Mac/LoRaMacClassB.c ****             activateTimer = true;
 812:../../../../../../Middlewares/Third_Party/LoRaWAN/Mac/LoRaMacClassB.c ****             GetTemperatureLevel( &Ctx.LoRaMacClassBCallbacks, &Ctx.NvmCtx->BeaconCtx );
 813:../../../../../../Middlewares/Third_Party/LoRaWAN/Mac/LoRaMacClassB.c ****             beaconEventTime = Ctx.NvmCtx->BeaconCtx.NextBeaconRxAdjusted - Radio.GetWakeupTime( );
 814:../../../../../../Middlewares/Third_Party/LoRaWAN/Mac/LoRaMacClassB.c ****             currentTime = TimerGetCurrentTime( );
 815:../../../../../../Middlewares/Third_Party/LoRaWAN/Mac/LoRaMacClassB.c **** 
 816:../../../../../../Middlewares/Third_Party/LoRaWAN/Mac/LoRaMacClassB.c ****             if( beaconEventTime > currentTime )
 817:../../../../../../Middlewares/Third_Party/LoRaWAN/Mac/LoRaMacClassB.c ****             {
 818:../../../../../../Middlewares/Third_Party/LoRaWAN/Mac/LoRaMacClassB.c ****                 Ctx.NvmCtx->BeaconState = BEACON_STATE_GUARD;
 819:../../../../../../Middlewares/Third_Party/LoRaWAN/Mac/LoRaMacClassB.c ****                 beaconEventTime -= currentTime;
 820:../../../../../../Middlewares/Third_Party/LoRaWAN/Mac/LoRaMacClassB.c ****                 beaconEventTime = TimerTempCompensation( beaconEventTime, Ctx.NvmCtx->BeaconCtx.Tem
 821:../../../../../../Middlewares/Third_Party/LoRaWAN/Mac/LoRaMacClassB.c ****             }
 822:../../../../../../Middlewares/Third_Party/LoRaWAN/Mac/LoRaMacClassB.c ****             else
 823:../../../../../../Middlewares/Third_Party/LoRaWAN/Mac/LoRaMacClassB.c ****             {
 824:../../../../../../Middlewares/Third_Party/LoRaWAN/Mac/LoRaMacClassB.c ****                 Ctx.NvmCtx->BeaconState = BEACON_STATE_REACQUISITION;
 825:../../../../../../Middlewares/Third_Party/LoRaWAN/Mac/LoRaMacClassB.c ****                 beaconEventTime = 1;
 826:../../../../../../Middlewares/Third_Party/LoRaWAN/Mac/LoRaMacClassB.c ****             }
 827:../../../../../../Middlewares/Third_Party/LoRaWAN/Mac/LoRaMacClassB.c ****             break;
 828:../../../../../../Middlewares/Third_Party/LoRaWAN/Mac/LoRaMacClassB.c ****         }
 829:../../../../../../Middlewares/Third_Party/LoRaWAN/Mac/LoRaMacClassB.c ****         case BEACON_STATE_GUARD:
ARM GAS  C:\Users\EBANO_~1\AppData\Local\Temp\ccis3phW.s 			page 20


 830:../../../../../../Middlewares/Third_Party/LoRaWAN/Mac/LoRaMacClassB.c ****         {
 831:../../../../../../Middlewares/Third_Party/LoRaWAN/Mac/LoRaMacClassB.c ****             Ctx.NvmCtx->BeaconState = BEACON_STATE_RX;
 832:../../../../../../Middlewares/Third_Party/LoRaWAN/Mac/LoRaMacClassB.c **** 
 833:../../../../../../Middlewares/Third_Party/LoRaWAN/Mac/LoRaMacClassB.c ****             // Stop slot timers
 834:../../../../../../Middlewares/Third_Party/LoRaWAN/Mac/LoRaMacClassB.c ****             LoRaMacClassBStopRxSlots( );
 835:../../../../../../Middlewares/Third_Party/LoRaWAN/Mac/LoRaMacClassB.c **** 
 836:../../../../../../Middlewares/Third_Party/LoRaWAN/Mac/LoRaMacClassB.c ****             // Don't use the default channel. We know on which
 837:../../../../../../Middlewares/Third_Party/LoRaWAN/Mac/LoRaMacClassB.c ****             // channel the next beacon will be transmitted
 838:../../../../../../Middlewares/Third_Party/LoRaWAN/Mac/LoRaMacClassB.c ****             RxBeaconSetup( CLASSB_BEACON_RESERVED, false );
 839:../../../../../../Middlewares/Third_Party/LoRaWAN/Mac/LoRaMacClassB.c ****             break;
 840:../../../../../../Middlewares/Third_Party/LoRaWAN/Mac/LoRaMacClassB.c ****         }
 841:../../../../../../Middlewares/Third_Party/LoRaWAN/Mac/LoRaMacClassB.c ****         case BEACON_STATE_LOST:
 842:../../../../../../Middlewares/Third_Party/LoRaWAN/Mac/LoRaMacClassB.c ****         {
 843:../../../../../../Middlewares/Third_Party/LoRaWAN/Mac/LoRaMacClassB.c ****             // Handle events
 844:../../../../../../Middlewares/Third_Party/LoRaWAN/Mac/LoRaMacClassB.c ****             if( Ctx.LoRaMacClassBParams.LoRaMacFlags->Bits.MlmeReq == 1 )
 845:../../../../../../Middlewares/Third_Party/LoRaWAN/Mac/LoRaMacClassB.c ****             {
 846:../../../../../../Middlewares/Third_Party/LoRaWAN/Mac/LoRaMacClassB.c ****                 if( LoRaMacConfirmQueueIsCmdActive( MLME_BEACON_ACQUISITION ) == true )
 847:../../../../../../Middlewares/Third_Party/LoRaWAN/Mac/LoRaMacClassB.c ****                 {
 848:../../../../../../Middlewares/Third_Party/LoRaWAN/Mac/LoRaMacClassB.c ****                     LoRaMacConfirmQueueSetStatus( LORAMAC_EVENT_INFO_STATUS_BEACON_NOT_FOUND, MLME_
 849:../../../../../../Middlewares/Third_Party/LoRaWAN/Mac/LoRaMacClassB.c ****                 }
 850:../../../../../../Middlewares/Third_Party/LoRaWAN/Mac/LoRaMacClassB.c ****             }
 851:../../../../../../Middlewares/Third_Party/LoRaWAN/Mac/LoRaMacClassB.c ****             else
 852:../../../../../../Middlewares/Third_Party/LoRaWAN/Mac/LoRaMacClassB.c ****             {
 853:../../../../../../Middlewares/Third_Party/LoRaWAN/Mac/LoRaMacClassB.c ****                 Ctx.LoRaMacClassBParams.MlmeIndication->MlmeIndication = MLME_BEACON_LOST;
 854:../../../../../../Middlewares/Third_Party/LoRaWAN/Mac/LoRaMacClassB.c ****                 Ctx.LoRaMacClassBParams.MlmeIndication->Status = LORAMAC_EVENT_INFO_STATUS_OK;
 855:../../../../../../Middlewares/Third_Party/LoRaWAN/Mac/LoRaMacClassB.c ****                 Ctx.LoRaMacClassBParams.LoRaMacFlags->Bits.MlmeInd = 1;
 856:../../../../../../Middlewares/Third_Party/LoRaWAN/Mac/LoRaMacClassB.c ****             }
 857:../../../../../../Middlewares/Third_Party/LoRaWAN/Mac/LoRaMacClassB.c **** 
 858:../../../../../../Middlewares/Third_Party/LoRaWAN/Mac/LoRaMacClassB.c ****             // Stop slot timers
 859:../../../../../../Middlewares/Third_Party/LoRaWAN/Mac/LoRaMacClassB.c ****             LoRaMacClassBStopRxSlots( );
 860:../../../../../../Middlewares/Third_Party/LoRaWAN/Mac/LoRaMacClassB.c **** 
 861:../../../../../../Middlewares/Third_Party/LoRaWAN/Mac/LoRaMacClassB.c ****             // Initialize default state for class b
 862:../../../../../../Middlewares/Third_Party/LoRaWAN/Mac/LoRaMacClassB.c ****             InitClassBDefaults( );
 863:../../../../../../Middlewares/Third_Party/LoRaWAN/Mac/LoRaMacClassB.c **** 
 864:../../../../../../Middlewares/Third_Party/LoRaWAN/Mac/LoRaMacClassB.c ****             Ctx.LoRaMacClassBParams.LoRaMacFlags->Bits.MacDone = 1;
 865:../../../../../../Middlewares/Third_Party/LoRaWAN/Mac/LoRaMacClassB.c **** 
 866:../../../../../../Middlewares/Third_Party/LoRaWAN/Mac/LoRaMacClassB.c ****             break;
 867:../../../../../../Middlewares/Third_Party/LoRaWAN/Mac/LoRaMacClassB.c ****         }
 868:../../../../../../Middlewares/Third_Party/LoRaWAN/Mac/LoRaMacClassB.c ****         default:
 869:../../../../../../Middlewares/Third_Party/LoRaWAN/Mac/LoRaMacClassB.c ****         {
 870:../../../../../../Middlewares/Third_Party/LoRaWAN/Mac/LoRaMacClassB.c ****             Ctx.NvmCtx->BeaconState = BEACON_STATE_ACQUISITION;
 871:../../../../../../Middlewares/Third_Party/LoRaWAN/Mac/LoRaMacClassB.c ****             break;
 872:../../../../../../Middlewares/Third_Party/LoRaWAN/Mac/LoRaMacClassB.c ****         }
 873:../../../../../../Middlewares/Third_Party/LoRaWAN/Mac/LoRaMacClassB.c ****     }
 874:../../../../../../Middlewares/Third_Party/LoRaWAN/Mac/LoRaMacClassB.c **** 
 875:../../../../../../Middlewares/Third_Party/LoRaWAN/Mac/LoRaMacClassB.c ****     if( activateTimer == true )
 876:../../../../../../Middlewares/Third_Party/LoRaWAN/Mac/LoRaMacClassB.c ****     {
 877:../../../../../../Middlewares/Third_Party/LoRaWAN/Mac/LoRaMacClassB.c ****         TimerSetValue( &Ctx.BeaconTimer, beaconEventTime );
 878:../../../../../../Middlewares/Third_Party/LoRaWAN/Mac/LoRaMacClassB.c ****         TimerStart( &Ctx.BeaconTimer );
 879:../../../../../../Middlewares/Third_Party/LoRaWAN/Mac/LoRaMacClassB.c ****     }
 880:../../../../../../Middlewares/Third_Party/LoRaWAN/Mac/LoRaMacClassB.c **** 
 881:../../../../../../Middlewares/Third_Party/LoRaWAN/Mac/LoRaMacClassB.c ****     NvmContextChange( );
 882:../../../../../../Middlewares/Third_Party/LoRaWAN/Mac/LoRaMacClassB.c **** }
 883:../../../../../../Middlewares/Third_Party/LoRaWAN/Mac/LoRaMacClassB.c **** #endif // LORAMAC_CLASSB_ENABLED
 884:../../../../../../Middlewares/Third_Party/LoRaWAN/Mac/LoRaMacClassB.c **** 
 885:../../../../../../Middlewares/Third_Party/LoRaWAN/Mac/LoRaMacClassB.c **** void LoRaMacClassBPingSlotTimerEvent( void* context )
 886:../../../../../../Middlewares/Third_Party/LoRaWAN/Mac/LoRaMacClassB.c **** {
ARM GAS  C:\Users\EBANO_~1\AppData\Local\Temp\ccis3phW.s 			page 21


 887:../../../../../../Middlewares/Third_Party/LoRaWAN/Mac/LoRaMacClassB.c **** #ifdef LORAMAC_CLASSB_ENABLED
 888:../../../../../../Middlewares/Third_Party/LoRaWAN/Mac/LoRaMacClassB.c ****     LoRaMacClassBEvents.Events.PingSlot = 1;
 889:../../../../../../Middlewares/Third_Party/LoRaWAN/Mac/LoRaMacClassB.c **** 
 890:../../../../../../Middlewares/Third_Party/LoRaWAN/Mac/LoRaMacClassB.c ****     if( Ctx.LoRaMacClassBCallbacks.MacProcessNotify != NULL )
 891:../../../../../../Middlewares/Third_Party/LoRaWAN/Mac/LoRaMacClassB.c ****     {
 892:../../../../../../Middlewares/Third_Party/LoRaWAN/Mac/LoRaMacClassB.c ****         Ctx.LoRaMacClassBCallbacks.MacProcessNotify( );
 893:../../../../../../Middlewares/Third_Party/LoRaWAN/Mac/LoRaMacClassB.c ****     }
 894:../../../../../../Middlewares/Third_Party/LoRaWAN/Mac/LoRaMacClassB.c **** #endif // LORAMAC_CLASSB_ENABLED
 895:../../../../../../Middlewares/Third_Party/LoRaWAN/Mac/LoRaMacClassB.c **** }
 896:../../../../../../Middlewares/Third_Party/LoRaWAN/Mac/LoRaMacClassB.c **** 
 897:../../../../../../Middlewares/Third_Party/LoRaWAN/Mac/LoRaMacClassB.c **** #ifdef LORAMAC_CLASSB_ENABLED
 898:../../../../../../Middlewares/Third_Party/LoRaWAN/Mac/LoRaMacClassB.c **** static void LoRaMacClassBProcessPingSlot( void )
 899:../../../../../../Middlewares/Third_Party/LoRaWAN/Mac/LoRaMacClassB.c **** {
 900:../../../../../../Middlewares/Third_Party/LoRaWAN/Mac/LoRaMacClassB.c ****     static RxConfigParams_t pingSlotRxConfig;
 901:../../../../../../Middlewares/Third_Party/LoRaWAN/Mac/LoRaMacClassB.c ****     TimerTime_t pingSlotTime = 0;
 902:../../../../../../Middlewares/Third_Party/LoRaWAN/Mac/LoRaMacClassB.c **** 
 903:../../../../../../Middlewares/Third_Party/LoRaWAN/Mac/LoRaMacClassB.c ****     switch( Ctx.NvmCtx->PingSlotState )
 904:../../../../../../Middlewares/Third_Party/LoRaWAN/Mac/LoRaMacClassB.c ****     {
 905:../../../../../../Middlewares/Third_Party/LoRaWAN/Mac/LoRaMacClassB.c ****         case PINGSLOT_STATE_CALC_PING_OFFSET:
 906:../../../../../../Middlewares/Third_Party/LoRaWAN/Mac/LoRaMacClassB.c ****         {
 907:../../../../../../Middlewares/Third_Party/LoRaWAN/Mac/LoRaMacClassB.c ****             ComputePingOffset( Ctx.NvmCtx->BeaconCtx.BeaconTime,
 908:../../../../../../Middlewares/Third_Party/LoRaWAN/Mac/LoRaMacClassB.c ****                                             *Ctx.LoRaMacClassBParams.LoRaMacDevAddr,
 909:../../../../../../Middlewares/Third_Party/LoRaWAN/Mac/LoRaMacClassB.c ****                                             Ctx.NvmCtx->PingSlotCtx.PingPeriod,
 910:../../../../../../Middlewares/Third_Party/LoRaWAN/Mac/LoRaMacClassB.c ****                                             &( Ctx.NvmCtx->PingSlotCtx.PingOffset ) );
 911:../../../../../../Middlewares/Third_Party/LoRaWAN/Mac/LoRaMacClassB.c ****             Ctx.NvmCtx->PingSlotState = PINGSLOT_STATE_SET_TIMER;
 912:../../../../../../Middlewares/Third_Party/LoRaWAN/Mac/LoRaMacClassB.c ****         }
 913:../../../../../../Middlewares/Third_Party/LoRaWAN/Mac/LoRaMacClassB.c ****             // Intentional fall through
 914:../../../../../../Middlewares/Third_Party/LoRaWAN/Mac/LoRaMacClassB.c ****         case PINGSLOT_STATE_SET_TIMER:
 915:../../../../../../Middlewares/Third_Party/LoRaWAN/Mac/LoRaMacClassB.c ****         {
 916:../../../../../../Middlewares/Third_Party/LoRaWAN/Mac/LoRaMacClassB.c ****             if( CalcNextSlotTime( Ctx.NvmCtx->PingSlotCtx.PingOffset, Ctx.NvmCtx->PingSlotCtx.PingP
 917:../../../../../../Middlewares/Third_Party/LoRaWAN/Mac/LoRaMacClassB.c ****             {
 918:../../../../../../Middlewares/Third_Party/LoRaWAN/Mac/LoRaMacClassB.c ****                 if( Ctx.NvmCtx->BeaconCtx.Ctrl.BeaconAcquired == 1 )
 919:../../../../../../Middlewares/Third_Party/LoRaWAN/Mac/LoRaMacClassB.c ****                 {
 920:../../../../../../Middlewares/Third_Party/LoRaWAN/Mac/LoRaMacClassB.c ****                     // Compute the symbol timeout. Apply it only, if the beacon is acquired
 921:../../../../../../Middlewares/Third_Party/LoRaWAN/Mac/LoRaMacClassB.c ****                     // Otherwise, take the enlargement of the symbols into account.
 922:../../../../../../Middlewares/Third_Party/LoRaWAN/Mac/LoRaMacClassB.c ****                     RegionComputeRxWindowParameters( *Ctx.LoRaMacClassBParams.LoRaMacRegion,
 923:../../../../../../Middlewares/Third_Party/LoRaWAN/Mac/LoRaMacClassB.c ****                                                      Ctx.NvmCtx->PingSlotCtx.Datarate,
 924:../../../../../../Middlewares/Third_Party/LoRaWAN/Mac/LoRaMacClassB.c ****                                                      Ctx.LoRaMacClassBParams.LoRaMacParams->MinRxSy
 925:../../../../../../Middlewares/Third_Party/LoRaWAN/Mac/LoRaMacClassB.c ****                                                      Ctx.LoRaMacClassBParams.LoRaMacParams->SystemM
 926:../../../../../../Middlewares/Third_Party/LoRaWAN/Mac/LoRaMacClassB.c ****                                                      &pingSlotRxConfig );
 927:../../../../../../Middlewares/Third_Party/LoRaWAN/Mac/LoRaMacClassB.c ****                     Ctx.NvmCtx->PingSlotCtx.SymbolTimeout = pingSlotRxConfig.WindowTimeout;
 928:../../../../../../Middlewares/Third_Party/LoRaWAN/Mac/LoRaMacClassB.c **** 
 929:../../../../../../Middlewares/Third_Party/LoRaWAN/Mac/LoRaMacClassB.c ****                     if( ( int32_t )pingSlotTime > pingSlotRxConfig.WindowOffset )
 930:../../../../../../Middlewares/Third_Party/LoRaWAN/Mac/LoRaMacClassB.c ****                     {// Apply the window offset
 931:../../../../../../Middlewares/Third_Party/LoRaWAN/Mac/LoRaMacClassB.c ****                         pingSlotTime += pingSlotRxConfig.WindowOffset;
 932:../../../../../../Middlewares/Third_Party/LoRaWAN/Mac/LoRaMacClassB.c ****                     }
 933:../../../../../../Middlewares/Third_Party/LoRaWAN/Mac/LoRaMacClassB.c ****                 }
 934:../../../../../../Middlewares/Third_Party/LoRaWAN/Mac/LoRaMacClassB.c **** 
 935:../../../../../../Middlewares/Third_Party/LoRaWAN/Mac/LoRaMacClassB.c ****                 // Start the timer if the ping slot time is in range
 936:../../../../../../Middlewares/Third_Party/LoRaWAN/Mac/LoRaMacClassB.c ****                 Ctx.NvmCtx->PingSlotState = PINGSLOT_STATE_IDLE;
 937:../../../../../../Middlewares/Third_Party/LoRaWAN/Mac/LoRaMacClassB.c ****                 TimerSetValue( &Ctx.PingSlotTimer, pingSlotTime );
 938:../../../../../../Middlewares/Third_Party/LoRaWAN/Mac/LoRaMacClassB.c ****                 TimerStart( &Ctx.PingSlotTimer );
 939:../../../../../../Middlewares/Third_Party/LoRaWAN/Mac/LoRaMacClassB.c ****             }
 940:../../../../../../Middlewares/Third_Party/LoRaWAN/Mac/LoRaMacClassB.c ****             break;
 941:../../../../../../Middlewares/Third_Party/LoRaWAN/Mac/LoRaMacClassB.c ****         }
 942:../../../../../../Middlewares/Third_Party/LoRaWAN/Mac/LoRaMacClassB.c ****         case PINGSLOT_STATE_IDLE:
 943:../../../../../../Middlewares/Third_Party/LoRaWAN/Mac/LoRaMacClassB.c ****         {
ARM GAS  C:\Users\EBANO_~1\AppData\Local\Temp\ccis3phW.s 			page 22


 944:../../../../../../Middlewares/Third_Party/LoRaWAN/Mac/LoRaMacClassB.c ****             uint32_t frequency = Ctx.NvmCtx->PingSlotCtx.Frequency;
 945:../../../../../../Middlewares/Third_Party/LoRaWAN/Mac/LoRaMacClassB.c **** 
 946:../../../../../../Middlewares/Third_Party/LoRaWAN/Mac/LoRaMacClassB.c ****             // Apply a custom frequency if the following bit is set
 947:../../../../../../Middlewares/Third_Party/LoRaWAN/Mac/LoRaMacClassB.c ****             if( Ctx.NvmCtx->PingSlotCtx.Ctrl.CustomFreq == 0 )
 948:../../../../../../Middlewares/Third_Party/LoRaWAN/Mac/LoRaMacClassB.c ****             {
 949:../../../../../../Middlewares/Third_Party/LoRaWAN/Mac/LoRaMacClassB.c ****                 // Restore floor plan
 950:../../../../../../Middlewares/Third_Party/LoRaWAN/Mac/LoRaMacClassB.c ****                 frequency = CalcDownlinkChannelAndFrequency( *Ctx.LoRaMacClassBParams.LoRaMacDevAdd
 951:../../../../../../Middlewares/Third_Party/LoRaWAN/Mac/LoRaMacClassB.c ****             }
 952:../../../../../../Middlewares/Third_Party/LoRaWAN/Mac/LoRaMacClassB.c **** 
 953:../../../../../../Middlewares/Third_Party/LoRaWAN/Mac/LoRaMacClassB.c ****             // Open the ping slot window only, if there is no multicast ping slot
 954:../../../../../../Middlewares/Third_Party/LoRaWAN/Mac/LoRaMacClassB.c ****             // open. Multicast ping slots have always priority
 955:../../../../../../Middlewares/Third_Party/LoRaWAN/Mac/LoRaMacClassB.c ****             if( Ctx.NvmCtx->MulticastSlotState != PINGSLOT_STATE_RX )
 956:../../../../../../Middlewares/Third_Party/LoRaWAN/Mac/LoRaMacClassB.c ****             {
 957:../../../../../../Middlewares/Third_Party/LoRaWAN/Mac/LoRaMacClassB.c ****                 Ctx.NvmCtx->PingSlotState = PINGSLOT_STATE_RX;
 958:../../../../../../Middlewares/Third_Party/LoRaWAN/Mac/LoRaMacClassB.c **** 
 959:../../../../../../Middlewares/Third_Party/LoRaWAN/Mac/LoRaMacClassB.c ****                 pingSlotRxConfig.Datarate = Ctx.NvmCtx->PingSlotCtx.Datarate;
 960:../../../../../../Middlewares/Third_Party/LoRaWAN/Mac/LoRaMacClassB.c ****                 pingSlotRxConfig.DownlinkDwellTime = Ctx.LoRaMacClassBParams.LoRaMacParams->Downlin
 961:../../../../../../Middlewares/Third_Party/LoRaWAN/Mac/LoRaMacClassB.c ****                 pingSlotRxConfig.RepeaterSupport = Ctx.LoRaMacClassBParams.LoRaMacParams->RepeaterS
 962:../../../../../../Middlewares/Third_Party/LoRaWAN/Mac/LoRaMacClassB.c ****                 pingSlotRxConfig.Frequency = frequency;
 963:../../../../../../Middlewares/Third_Party/LoRaWAN/Mac/LoRaMacClassB.c ****                 pingSlotRxConfig.RxContinuous = false;
 964:../../../../../../Middlewares/Third_Party/LoRaWAN/Mac/LoRaMacClassB.c ****                 pingSlotRxConfig.RxSlot = RX_SLOT_WIN_PING_SLOT;
 965:../../../../../../Middlewares/Third_Party/LoRaWAN/Mac/LoRaMacClassB.c **** 
 966:../../../../../../Middlewares/Third_Party/LoRaWAN/Mac/LoRaMacClassB.c ****                 RegionRxConfig( *Ctx.LoRaMacClassBParams.LoRaMacRegion, &pingSlotRxConfig, ( int8_t
 967:../../../../../../Middlewares/Third_Party/LoRaWAN/Mac/LoRaMacClassB.c **** 
 968:../../../../../../Middlewares/Third_Party/LoRaWAN/Mac/LoRaMacClassB.c ****                 if( pingSlotRxConfig.RxContinuous == false )
 969:../../../../../../Middlewares/Third_Party/LoRaWAN/Mac/LoRaMacClassB.c ****                 {
 970:../../../../../../Middlewares/Third_Party/LoRaWAN/Mac/LoRaMacClassB.c ****                     Radio.Rx( Ctx.LoRaMacClassBParams.LoRaMacParams->MaxRxWindow );
 971:../../../../../../Middlewares/Third_Party/LoRaWAN/Mac/LoRaMacClassB.c ****                 }
 972:../../../../../../Middlewares/Third_Party/LoRaWAN/Mac/LoRaMacClassB.c ****                 else
 973:../../../../../../Middlewares/Third_Party/LoRaWAN/Mac/LoRaMacClassB.c ****                 {
 974:../../../../../../Middlewares/Third_Party/LoRaWAN/Mac/LoRaMacClassB.c ****                     Radio.Rx( 0 ); // Continuous mode
 975:../../../../../../Middlewares/Third_Party/LoRaWAN/Mac/LoRaMacClassB.c ****                 }
 976:../../../../../../Middlewares/Third_Party/LoRaWAN/Mac/LoRaMacClassB.c ****             }
 977:../../../../../../Middlewares/Third_Party/LoRaWAN/Mac/LoRaMacClassB.c ****             else
 978:../../../../../../Middlewares/Third_Party/LoRaWAN/Mac/LoRaMacClassB.c ****             {
 979:../../../../../../Middlewares/Third_Party/LoRaWAN/Mac/LoRaMacClassB.c ****                 // Multicast slots have priority. Skip Rx
 980:../../../../../../Middlewares/Third_Party/LoRaWAN/Mac/LoRaMacClassB.c ****                 Ctx.NvmCtx->PingSlotState = PINGSLOT_STATE_CALC_PING_OFFSET;
 981:../../../../../../Middlewares/Third_Party/LoRaWAN/Mac/LoRaMacClassB.c ****                 TimerSetValue( &Ctx.PingSlotTimer, CLASSB_PING_SLOT_WINDOW );
 982:../../../../../../Middlewares/Third_Party/LoRaWAN/Mac/LoRaMacClassB.c ****                 TimerStart( &Ctx.PingSlotTimer );
 983:../../../../../../Middlewares/Third_Party/LoRaWAN/Mac/LoRaMacClassB.c ****             }
 984:../../../../../../Middlewares/Third_Party/LoRaWAN/Mac/LoRaMacClassB.c ****             break;
 985:../../../../../../Middlewares/Third_Party/LoRaWAN/Mac/LoRaMacClassB.c ****         }
 986:../../../../../../Middlewares/Third_Party/LoRaWAN/Mac/LoRaMacClassB.c ****         default:
 987:../../../../../../Middlewares/Third_Party/LoRaWAN/Mac/LoRaMacClassB.c ****         {
 988:../../../../../../Middlewares/Third_Party/LoRaWAN/Mac/LoRaMacClassB.c ****             Ctx.NvmCtx->PingSlotState = PINGSLOT_STATE_CALC_PING_OFFSET;
 989:../../../../../../Middlewares/Third_Party/LoRaWAN/Mac/LoRaMacClassB.c ****             break;
 990:../../../../../../Middlewares/Third_Party/LoRaWAN/Mac/LoRaMacClassB.c ****         }
 991:../../../../../../Middlewares/Third_Party/LoRaWAN/Mac/LoRaMacClassB.c ****     }
 992:../../../../../../Middlewares/Third_Party/LoRaWAN/Mac/LoRaMacClassB.c **** 
 993:../../../../../../Middlewares/Third_Party/LoRaWAN/Mac/LoRaMacClassB.c ****     NvmContextChange( );
 994:../../../../../../Middlewares/Third_Party/LoRaWAN/Mac/LoRaMacClassB.c **** }
 995:../../../../../../Middlewares/Third_Party/LoRaWAN/Mac/LoRaMacClassB.c **** #endif // LORAMAC_CLASSB_ENABLED
 996:../../../../../../Middlewares/Third_Party/LoRaWAN/Mac/LoRaMacClassB.c **** 
 997:../../../../../../Middlewares/Third_Party/LoRaWAN/Mac/LoRaMacClassB.c **** void LoRaMacClassBMulticastSlotTimerEvent( void* context )
 998:../../../../../../Middlewares/Third_Party/LoRaWAN/Mac/LoRaMacClassB.c **** {
 999:../../../../../../Middlewares/Third_Party/LoRaWAN/Mac/LoRaMacClassB.c **** #ifdef LORAMAC_CLASSB_ENABLED
1000:../../../../../../Middlewares/Third_Party/LoRaWAN/Mac/LoRaMacClassB.c ****     LoRaMacClassBEvents.Events.MulticastSlot = 1;
ARM GAS  C:\Users\EBANO_~1\AppData\Local\Temp\ccis3phW.s 			page 23


1001:../../../../../../Middlewares/Third_Party/LoRaWAN/Mac/LoRaMacClassB.c **** 
1002:../../../../../../Middlewares/Third_Party/LoRaWAN/Mac/LoRaMacClassB.c ****     if( Ctx.LoRaMacClassBCallbacks.MacProcessNotify != NULL )
1003:../../../../../../Middlewares/Third_Party/LoRaWAN/Mac/LoRaMacClassB.c ****     {
1004:../../../../../../Middlewares/Third_Party/LoRaWAN/Mac/LoRaMacClassB.c ****         Ctx.LoRaMacClassBCallbacks.MacProcessNotify( );
1005:../../../../../../Middlewares/Third_Party/LoRaWAN/Mac/LoRaMacClassB.c ****     }
1006:../../../../../../Middlewares/Third_Party/LoRaWAN/Mac/LoRaMacClassB.c **** #endif // LORAMAC_CLASSB_ENABLED
1007:../../../../../../Middlewares/Third_Party/LoRaWAN/Mac/LoRaMacClassB.c **** }
1008:../../../../../../Middlewares/Third_Party/LoRaWAN/Mac/LoRaMacClassB.c **** 
1009:../../../../../../Middlewares/Third_Party/LoRaWAN/Mac/LoRaMacClassB.c **** #ifdef LORAMAC_CLASSB_ENABLED
1010:../../../../../../Middlewares/Third_Party/LoRaWAN/Mac/LoRaMacClassB.c **** static void LoRaMacClassBProcessMulticastSlot( void )
1011:../../../../../../Middlewares/Third_Party/LoRaWAN/Mac/LoRaMacClassB.c **** {
1012:../../../../../../Middlewares/Third_Party/LoRaWAN/Mac/LoRaMacClassB.c ****     static RxConfigParams_t multicastSlotRxConfig;
1013:../../../../../../Middlewares/Third_Party/LoRaWAN/Mac/LoRaMacClassB.c ****     TimerTime_t multicastSlotTime = 0;
1014:../../../../../../Middlewares/Third_Party/LoRaWAN/Mac/LoRaMacClassB.c ****     TimerTime_t slotTime = 0;
1015:../../../../../../Middlewares/Third_Party/LoRaWAN/Mac/LoRaMacClassB.c ****     MulticastCtx_t *cur = Ctx.LoRaMacClassBParams.MulticastChannels;
1016:../../../../../../Middlewares/Third_Party/LoRaWAN/Mac/LoRaMacClassB.c **** 
1017:../../../../../../Middlewares/Third_Party/LoRaWAN/Mac/LoRaMacClassB.c **** 
1018:../../../../../../Middlewares/Third_Party/LoRaWAN/Mac/LoRaMacClassB.c ****     if( cur == NULL )
1019:../../../../../../Middlewares/Third_Party/LoRaWAN/Mac/LoRaMacClassB.c ****     {
1020:../../../../../../Middlewares/Third_Party/LoRaWAN/Mac/LoRaMacClassB.c ****         return;
1021:../../../../../../Middlewares/Third_Party/LoRaWAN/Mac/LoRaMacClassB.c ****     }
1022:../../../../../../Middlewares/Third_Party/LoRaWAN/Mac/LoRaMacClassB.c **** 
1023:../../../../../../Middlewares/Third_Party/LoRaWAN/Mac/LoRaMacClassB.c ****     if( Ctx.NvmCtx->MulticastSlotState == PINGSLOT_STATE_RX )
1024:../../../../../../Middlewares/Third_Party/LoRaWAN/Mac/LoRaMacClassB.c ****     {
1025:../../../../../../Middlewares/Third_Party/LoRaWAN/Mac/LoRaMacClassB.c ****         // A multicast slot is already open
1026:../../../../../../Middlewares/Third_Party/LoRaWAN/Mac/LoRaMacClassB.c ****         return;
1027:../../../../../../Middlewares/Third_Party/LoRaWAN/Mac/LoRaMacClassB.c ****     }
1028:../../../../../../Middlewares/Third_Party/LoRaWAN/Mac/LoRaMacClassB.c **** 
1029:../../../../../../Middlewares/Third_Party/LoRaWAN/Mac/LoRaMacClassB.c ****     switch( Ctx.NvmCtx->MulticastSlotState )
1030:../../../../../../Middlewares/Third_Party/LoRaWAN/Mac/LoRaMacClassB.c ****     {
1031:../../../../../../Middlewares/Third_Party/LoRaWAN/Mac/LoRaMacClassB.c ****         case PINGSLOT_STATE_CALC_PING_OFFSET:
1032:../../../../../../Middlewares/Third_Party/LoRaWAN/Mac/LoRaMacClassB.c ****         {
1033:../../../../../../Middlewares/Third_Party/LoRaWAN/Mac/LoRaMacClassB.c ****             // Compute all offsets for every multicast slots
1034:../../../../../../Middlewares/Third_Party/LoRaWAN/Mac/LoRaMacClassB.c ****             for( uint8_t i = 0; i < 4; i++ )
1035:../../../../../../Middlewares/Third_Party/LoRaWAN/Mac/LoRaMacClassB.c ****             {
1036:../../../../../../Middlewares/Third_Party/LoRaWAN/Mac/LoRaMacClassB.c ****                 ComputePingOffset( Ctx.NvmCtx->BeaconCtx.BeaconTime,
1037:../../../../../../Middlewares/Third_Party/LoRaWAN/Mac/LoRaMacClassB.c ****                                                 cur->Address,
1038:../../../../../../Middlewares/Third_Party/LoRaWAN/Mac/LoRaMacClassB.c ****                                                 cur->PingPeriod,
1039:../../../../../../Middlewares/Third_Party/LoRaWAN/Mac/LoRaMacClassB.c ****                                                 &( cur->PingOffset ) );
1040:../../../../../../Middlewares/Third_Party/LoRaWAN/Mac/LoRaMacClassB.c ****                 cur++;
1041:../../../../../../Middlewares/Third_Party/LoRaWAN/Mac/LoRaMacClassB.c ****             }
1042:../../../../../../Middlewares/Third_Party/LoRaWAN/Mac/LoRaMacClassB.c ****             Ctx.NvmCtx->MulticastSlotState = PINGSLOT_STATE_SET_TIMER;
1043:../../../../../../Middlewares/Third_Party/LoRaWAN/Mac/LoRaMacClassB.c ****         }
1044:../../../../../../Middlewares/Third_Party/LoRaWAN/Mac/LoRaMacClassB.c ****             // Intentional fall through
1045:../../../../../../Middlewares/Third_Party/LoRaWAN/Mac/LoRaMacClassB.c ****         case PINGSLOT_STATE_SET_TIMER:
1046:../../../../../../Middlewares/Third_Party/LoRaWAN/Mac/LoRaMacClassB.c ****         {
1047:../../../../../../Middlewares/Third_Party/LoRaWAN/Mac/LoRaMacClassB.c ****             cur = Ctx.LoRaMacClassBParams.MulticastChannels;
1048:../../../../../../Middlewares/Third_Party/LoRaWAN/Mac/LoRaMacClassB.c ****             Ctx.NvmCtx->PingSlotCtx.NextMulticastChannel = NULL;
1049:../../../../../../Middlewares/Third_Party/LoRaWAN/Mac/LoRaMacClassB.c **** 
1050:../../../../../../Middlewares/Third_Party/LoRaWAN/Mac/LoRaMacClassB.c ****             for( uint8_t i = 0; i < 4; i++ )
1051:../../../../../../Middlewares/Third_Party/LoRaWAN/Mac/LoRaMacClassB.c ****             {
1052:../../../../../../Middlewares/Third_Party/LoRaWAN/Mac/LoRaMacClassB.c ****                 // Calculate the next slot time for every multicast slot
1053:../../../../../../Middlewares/Third_Party/LoRaWAN/Mac/LoRaMacClassB.c ****                 if( CalcNextSlotTime( cur->PingOffset, cur->PingPeriod, cur->PingNb, &slotTime ) ==
1054:../../../../../../Middlewares/Third_Party/LoRaWAN/Mac/LoRaMacClassB.c ****                 {
1055:../../../../../../Middlewares/Third_Party/LoRaWAN/Mac/LoRaMacClassB.c ****                     if( ( multicastSlotTime == 0 ) || ( multicastSlotTime > slotTime ) )
1056:../../../../../../Middlewares/Third_Party/LoRaWAN/Mac/LoRaMacClassB.c ****                     {
1057:../../../../../../Middlewares/Third_Party/LoRaWAN/Mac/LoRaMacClassB.c ****                         // Update the slot time and the next multicast channel
ARM GAS  C:\Users\EBANO_~1\AppData\Local\Temp\ccis3phW.s 			page 24


1058:../../../../../../Middlewares/Third_Party/LoRaWAN/Mac/LoRaMacClassB.c ****                         multicastSlotTime = slotTime;
1059:../../../../../../Middlewares/Third_Party/LoRaWAN/Mac/LoRaMacClassB.c ****                         Ctx.NvmCtx->PingSlotCtx.NextMulticastChannel = cur;
1060:../../../../../../Middlewares/Third_Party/LoRaWAN/Mac/LoRaMacClassB.c ****                     }
1061:../../../../../../Middlewares/Third_Party/LoRaWAN/Mac/LoRaMacClassB.c ****                 }
1062:../../../../../../Middlewares/Third_Party/LoRaWAN/Mac/LoRaMacClassB.c ****                 cur++;
1063:../../../../../../Middlewares/Third_Party/LoRaWAN/Mac/LoRaMacClassB.c ****             }
1064:../../../../../../Middlewares/Third_Party/LoRaWAN/Mac/LoRaMacClassB.c **** 
1065:../../../../../../Middlewares/Third_Party/LoRaWAN/Mac/LoRaMacClassB.c ****             // Schedule the next multicast slot
1066:../../../../../../Middlewares/Third_Party/LoRaWAN/Mac/LoRaMacClassB.c ****             if( Ctx.NvmCtx->PingSlotCtx.NextMulticastChannel != NULL )
1067:../../../../../../Middlewares/Third_Party/LoRaWAN/Mac/LoRaMacClassB.c ****             {
1068:../../../../../../Middlewares/Third_Party/LoRaWAN/Mac/LoRaMacClassB.c ****                 if( Ctx.NvmCtx->BeaconCtx.Ctrl.BeaconAcquired == 1 )
1069:../../../../../../Middlewares/Third_Party/LoRaWAN/Mac/LoRaMacClassB.c ****                 {
1070:../../../../../../Middlewares/Third_Party/LoRaWAN/Mac/LoRaMacClassB.c ****                     RegionComputeRxWindowParameters( *Ctx.LoRaMacClassBParams.LoRaMacRegion,
1071:../../../../../../Middlewares/Third_Party/LoRaWAN/Mac/LoRaMacClassB.c ****                                                     Ctx.NvmCtx->PingSlotCtx.Datarate,
1072:../../../../../../Middlewares/Third_Party/LoRaWAN/Mac/LoRaMacClassB.c ****                                                     Ctx.LoRaMacClassBParams.LoRaMacParams->MinRxSym
1073:../../../../../../Middlewares/Third_Party/LoRaWAN/Mac/LoRaMacClassB.c ****                                                     Ctx.LoRaMacClassBParams.LoRaMacParams->SystemMa
1074:../../../../../../Middlewares/Third_Party/LoRaWAN/Mac/LoRaMacClassB.c ****                                                     &multicastSlotRxConfig );
1075:../../../../../../Middlewares/Third_Party/LoRaWAN/Mac/LoRaMacClassB.c ****                     Ctx.NvmCtx->PingSlotCtx.SymbolTimeout = multicastSlotRxConfig.WindowTimeout;
1076:../../../../../../Middlewares/Third_Party/LoRaWAN/Mac/LoRaMacClassB.c ****                 }
1077:../../../../../../Middlewares/Third_Party/LoRaWAN/Mac/LoRaMacClassB.c **** 
1078:../../../../../../Middlewares/Third_Party/LoRaWAN/Mac/LoRaMacClassB.c ****                 if( ( int32_t )multicastSlotTime > multicastSlotRxConfig.WindowOffset )
1079:../../../../../../Middlewares/Third_Party/LoRaWAN/Mac/LoRaMacClassB.c ****                 {// Apply the window offset
1080:../../../../../../Middlewares/Third_Party/LoRaWAN/Mac/LoRaMacClassB.c ****                     multicastSlotTime += multicastSlotRxConfig.WindowOffset;
1081:../../../../../../Middlewares/Third_Party/LoRaWAN/Mac/LoRaMacClassB.c ****                 }
1082:../../../../../../Middlewares/Third_Party/LoRaWAN/Mac/LoRaMacClassB.c **** 
1083:../../../../../../Middlewares/Third_Party/LoRaWAN/Mac/LoRaMacClassB.c ****                 // Start the timer if the ping slot time is in range
1084:../../../../../../Middlewares/Third_Party/LoRaWAN/Mac/LoRaMacClassB.c ****                 Ctx.NvmCtx->MulticastSlotState = PINGSLOT_STATE_IDLE;
1085:../../../../../../Middlewares/Third_Party/LoRaWAN/Mac/LoRaMacClassB.c ****                 TimerSetValue( &Ctx.MulticastSlotTimer, multicastSlotTime );
1086:../../../../../../Middlewares/Third_Party/LoRaWAN/Mac/LoRaMacClassB.c ****                 TimerStart( &Ctx.MulticastSlotTimer );
1087:../../../../../../Middlewares/Third_Party/LoRaWAN/Mac/LoRaMacClassB.c ****             }
1088:../../../../../../Middlewares/Third_Party/LoRaWAN/Mac/LoRaMacClassB.c ****             break;
1089:../../../../../../Middlewares/Third_Party/LoRaWAN/Mac/LoRaMacClassB.c ****         }
1090:../../../../../../Middlewares/Third_Party/LoRaWAN/Mac/LoRaMacClassB.c ****         case PINGSLOT_STATE_IDLE:
1091:../../../../../../Middlewares/Third_Party/LoRaWAN/Mac/LoRaMacClassB.c ****         {
1092:../../../../../../Middlewares/Third_Party/LoRaWAN/Mac/LoRaMacClassB.c ****             uint32_t frequency = 0;
1093:../../../../../../Middlewares/Third_Party/LoRaWAN/Mac/LoRaMacClassB.c **** 
1094:../../../../../../Middlewares/Third_Party/LoRaWAN/Mac/LoRaMacClassB.c ****             // Verify if the multicast channel is valid
1095:../../../../../../Middlewares/Third_Party/LoRaWAN/Mac/LoRaMacClassB.c ****             if( Ctx.NvmCtx->PingSlotCtx.NextMulticastChannel == NULL )
1096:../../../../../../Middlewares/Third_Party/LoRaWAN/Mac/LoRaMacClassB.c ****             {
1097:../../../../../../Middlewares/Third_Party/LoRaWAN/Mac/LoRaMacClassB.c ****                 Ctx.NvmCtx->MulticastSlotState = PINGSLOT_STATE_CALC_PING_OFFSET;
1098:../../../../../../Middlewares/Third_Party/LoRaWAN/Mac/LoRaMacClassB.c ****                 TimerSetValue( &Ctx.MulticastSlotTimer, 1 );
1099:../../../../../../Middlewares/Third_Party/LoRaWAN/Mac/LoRaMacClassB.c ****                 TimerStart( &Ctx.MulticastSlotTimer );
1100:../../../../../../Middlewares/Third_Party/LoRaWAN/Mac/LoRaMacClassB.c ****                 break;
1101:../../../../../../Middlewares/Third_Party/LoRaWAN/Mac/LoRaMacClassB.c ****             }
1102:../../../../../../Middlewares/Third_Party/LoRaWAN/Mac/LoRaMacClassB.c **** 
1103:../../../../../../Middlewares/Third_Party/LoRaWAN/Mac/LoRaMacClassB.c ****             // Apply frequency
1104:../../../../../../Middlewares/Third_Party/LoRaWAN/Mac/LoRaMacClassB.c ****             frequency = Ctx.NvmCtx->PingSlotCtx.NextMulticastChannel->Frequency;
1105:../../../../../../Middlewares/Third_Party/LoRaWAN/Mac/LoRaMacClassB.c **** 
1106:../../../../../../Middlewares/Third_Party/LoRaWAN/Mac/LoRaMacClassB.c ****             // Restore the floor plan frequency if there is no individual frequency assigned
1107:../../../../../../Middlewares/Third_Party/LoRaWAN/Mac/LoRaMacClassB.c ****             if( frequency == 0 )
1108:../../../../../../Middlewares/Third_Party/LoRaWAN/Mac/LoRaMacClassB.c ****             {
1109:../../../../../../Middlewares/Third_Party/LoRaWAN/Mac/LoRaMacClassB.c ****                 // Restore floor plan
1110:../../../../../../Middlewares/Third_Party/LoRaWAN/Mac/LoRaMacClassB.c ****                 frequency = CalcDownlinkChannelAndFrequency( Ctx.NvmCtx->PingSlotCtx.NextMulticastC
1111:../../../../../../Middlewares/Third_Party/LoRaWAN/Mac/LoRaMacClassB.c ****             }
1112:../../../../../../Middlewares/Third_Party/LoRaWAN/Mac/LoRaMacClassB.c **** 
1113:../../../../../../Middlewares/Third_Party/LoRaWAN/Mac/LoRaMacClassB.c ****             Ctx.NvmCtx->MulticastSlotState = PINGSLOT_STATE_RX;
1114:../../../../../../Middlewares/Third_Party/LoRaWAN/Mac/LoRaMacClassB.c **** 
ARM GAS  C:\Users\EBANO_~1\AppData\Local\Temp\ccis3phW.s 			page 25


1115:../../../../../../Middlewares/Third_Party/LoRaWAN/Mac/LoRaMacClassB.c ****             multicastSlotRxConfig.Datarate = Ctx.NvmCtx->PingSlotCtx.NextMulticastChannel->Datarate
1116:../../../../../../Middlewares/Third_Party/LoRaWAN/Mac/LoRaMacClassB.c ****             multicastSlotRxConfig.DownlinkDwellTime = Ctx.LoRaMacClassBParams.LoRaMacParams->Downli
1117:../../../../../../Middlewares/Third_Party/LoRaWAN/Mac/LoRaMacClassB.c ****             multicastSlotRxConfig.RepeaterSupport = Ctx.LoRaMacClassBParams.LoRaMacParams->Repeater
1118:../../../../../../Middlewares/Third_Party/LoRaWAN/Mac/LoRaMacClassB.c ****             multicastSlotRxConfig.Frequency = frequency;
1119:../../../../../../Middlewares/Third_Party/LoRaWAN/Mac/LoRaMacClassB.c ****             multicastSlotRxConfig.RxContinuous = false;
1120:../../../../../../Middlewares/Third_Party/LoRaWAN/Mac/LoRaMacClassB.c ****             multicastSlotRxConfig.RxSlot = RX_SLOT_WIN_MULTICAST_SLOT;
1121:../../../../../../Middlewares/Third_Party/LoRaWAN/Mac/LoRaMacClassB.c **** 
1122:../../../../../../Middlewares/Third_Party/LoRaWAN/Mac/LoRaMacClassB.c ****             RegionRxConfig( *Ctx.LoRaMacClassBParams.LoRaMacRegion, &multicastSlotRxConfig, ( int8_
1123:../../../../../../Middlewares/Third_Party/LoRaWAN/Mac/LoRaMacClassB.c **** 
1124:../../../../../../Middlewares/Third_Party/LoRaWAN/Mac/LoRaMacClassB.c ****             if( Ctx.NvmCtx->PingSlotState == PINGSLOT_STATE_RX )
1125:../../../../../../Middlewares/Third_Party/LoRaWAN/Mac/LoRaMacClassB.c ****             {
1126:../../../../../../Middlewares/Third_Party/LoRaWAN/Mac/LoRaMacClassB.c ****                 // Close ping slot window, if necessary. Multicast slots have priority
1127:../../../../../../Middlewares/Third_Party/LoRaWAN/Mac/LoRaMacClassB.c ****                 Radio.Standby( );
1128:../../../../../../Middlewares/Third_Party/LoRaWAN/Mac/LoRaMacClassB.c ****                 Ctx.NvmCtx->PingSlotState = PINGSLOT_STATE_CALC_PING_OFFSET;
1129:../../../../../../Middlewares/Third_Party/LoRaWAN/Mac/LoRaMacClassB.c ****                 TimerSetValue( &Ctx.PingSlotTimer, CLASSB_PING_SLOT_WINDOW );
1130:../../../../../../Middlewares/Third_Party/LoRaWAN/Mac/LoRaMacClassB.c ****                 TimerStart( &Ctx.PingSlotTimer );
1131:../../../../../../Middlewares/Third_Party/LoRaWAN/Mac/LoRaMacClassB.c ****             }
1132:../../../../../../Middlewares/Third_Party/LoRaWAN/Mac/LoRaMacClassB.c **** 
1133:../../../../../../Middlewares/Third_Party/LoRaWAN/Mac/LoRaMacClassB.c ****             if( multicastSlotRxConfig.RxContinuous == false )
1134:../../../../../../Middlewares/Third_Party/LoRaWAN/Mac/LoRaMacClassB.c ****             {
1135:../../../../../../Middlewares/Third_Party/LoRaWAN/Mac/LoRaMacClassB.c ****                 Radio.Rx( Ctx.LoRaMacClassBParams.LoRaMacParams->MaxRxWindow );
1136:../../../../../../Middlewares/Third_Party/LoRaWAN/Mac/LoRaMacClassB.c ****             }
1137:../../../../../../Middlewares/Third_Party/LoRaWAN/Mac/LoRaMacClassB.c ****             else
1138:../../../../../../Middlewares/Third_Party/LoRaWAN/Mac/LoRaMacClassB.c ****             {
1139:../../../../../../Middlewares/Third_Party/LoRaWAN/Mac/LoRaMacClassB.c ****                 Radio.Rx( 0 ); // Continuous mode
1140:../../../../../../Middlewares/Third_Party/LoRaWAN/Mac/LoRaMacClassB.c ****             }
1141:../../../../../../Middlewares/Third_Party/LoRaWAN/Mac/LoRaMacClassB.c ****             break;
1142:../../../../../../Middlewares/Third_Party/LoRaWAN/Mac/LoRaMacClassB.c ****         }
1143:../../../../../../Middlewares/Third_Party/LoRaWAN/Mac/LoRaMacClassB.c ****         default:
1144:../../../../../../Middlewares/Third_Party/LoRaWAN/Mac/LoRaMacClassB.c ****         {
1145:../../../../../../Middlewares/Third_Party/LoRaWAN/Mac/LoRaMacClassB.c ****             Ctx.NvmCtx->MulticastSlotState = PINGSLOT_STATE_CALC_PING_OFFSET;
1146:../../../../../../Middlewares/Third_Party/LoRaWAN/Mac/LoRaMacClassB.c ****             break;
1147:../../../../../../Middlewares/Third_Party/LoRaWAN/Mac/LoRaMacClassB.c ****         }
1148:../../../../../../Middlewares/Third_Party/LoRaWAN/Mac/LoRaMacClassB.c ****     }
1149:../../../../../../Middlewares/Third_Party/LoRaWAN/Mac/LoRaMacClassB.c **** 
1150:../../../../../../Middlewares/Third_Party/LoRaWAN/Mac/LoRaMacClassB.c ****     NvmContextChange( );
1151:../../../../../../Middlewares/Third_Party/LoRaWAN/Mac/LoRaMacClassB.c **** }
1152:../../../../../../Middlewares/Third_Party/LoRaWAN/Mac/LoRaMacClassB.c **** #endif // LORAMAC_CLASSB_ENABLED
1153:../../../../../../Middlewares/Third_Party/LoRaWAN/Mac/LoRaMacClassB.c **** 
1154:../../../../../../Middlewares/Third_Party/LoRaWAN/Mac/LoRaMacClassB.c **** bool LoRaMacClassBRxBeacon( uint8_t *payload, uint16_t size )
1155:../../../../../../Middlewares/Third_Party/LoRaWAN/Mac/LoRaMacClassB.c **** {
 254              		.loc 1 1155 0
 255              		.cfi_startproc
 256              		@ args = 0, pretend = 0, frame = 0
 257              		@ frame_needed = 0, uses_anonymous_args = 0
 258              		@ link register save eliminated.
 259              	.LVL7:
1156:../../../../../../Middlewares/Third_Party/LoRaWAN/Mac/LoRaMacClassB.c **** #ifdef LORAMAC_CLASSB_ENABLED
1157:../../../../../../Middlewares/Third_Party/LoRaWAN/Mac/LoRaMacClassB.c ****     GetPhyParams_t getPhy;
1158:../../../../../../Middlewares/Third_Party/LoRaWAN/Mac/LoRaMacClassB.c ****     PhyParam_t phyParam;
1159:../../../../../../Middlewares/Third_Party/LoRaWAN/Mac/LoRaMacClassB.c ****     bool beaconProcessed = false;
1160:../../../../../../Middlewares/Third_Party/LoRaWAN/Mac/LoRaMacClassB.c ****     uint16_t crc0 = 0;
1161:../../../../../../Middlewares/Third_Party/LoRaWAN/Mac/LoRaMacClassB.c ****     uint16_t crc1 = 0;
1162:../../../../../../Middlewares/Third_Party/LoRaWAN/Mac/LoRaMacClassB.c ****     uint16_t beaconCrc0 = 0;
1163:../../../../../../Middlewares/Third_Party/LoRaWAN/Mac/LoRaMacClassB.c ****     uint16_t beaconCrc1 = 0;
1164:../../../../../../Middlewares/Third_Party/LoRaWAN/Mac/LoRaMacClassB.c **** 
1165:../../../../../../Middlewares/Third_Party/LoRaWAN/Mac/LoRaMacClassB.c ****     getPhy.Attribute = PHY_BEACON_FORMAT;
ARM GAS  C:\Users\EBANO_~1\AppData\Local\Temp\ccis3phW.s 			page 26


1166:../../../../../../Middlewares/Third_Party/LoRaWAN/Mac/LoRaMacClassB.c ****     phyParam = RegionGetPhyParam( *Ctx.LoRaMacClassBParams.LoRaMacRegion, &getPhy );
1167:../../../../../../Middlewares/Third_Party/LoRaWAN/Mac/LoRaMacClassB.c **** 
1168:../../../../../../Middlewares/Third_Party/LoRaWAN/Mac/LoRaMacClassB.c ****     // Verify if we are in the state where we expect a beacon
1169:../../../../../../Middlewares/Third_Party/LoRaWAN/Mac/LoRaMacClassB.c ****     if( ( Ctx.NvmCtx->BeaconState == BEACON_STATE_RX ) || ( Ctx.NvmCtx->BeaconCtx.Ctrl.AcquisitionP
1170:../../../../../../Middlewares/Third_Party/LoRaWAN/Mac/LoRaMacClassB.c ****     {
1171:../../../../../../Middlewares/Third_Party/LoRaWAN/Mac/LoRaMacClassB.c ****         if( size == phyParam.BeaconFormat.BeaconSize )
1172:../../../../../../Middlewares/Third_Party/LoRaWAN/Mac/LoRaMacClassB.c ****         {
1173:../../../../../../Middlewares/Third_Party/LoRaWAN/Mac/LoRaMacClassB.c ****             // A beacon frame is defined as:
1174:../../../../../../Middlewares/Third_Party/LoRaWAN/Mac/LoRaMacClassB.c ****             // Bytes: |  x   |  4   |  2   |     7      |  y   |  2   |
1175:../../../../../../Middlewares/Third_Party/LoRaWAN/Mac/LoRaMacClassB.c ****             //        |------|------|------|------------|------|------|
1176:../../../../../../Middlewares/Third_Party/LoRaWAN/Mac/LoRaMacClassB.c ****             // Field: | RFU1 | Time | CRC1 | GwSpecific | RFU2 | CRC2 |
1177:../../../../../../Middlewares/Third_Party/LoRaWAN/Mac/LoRaMacClassB.c ****             //
1178:../../../../../../Middlewares/Third_Party/LoRaWAN/Mac/LoRaMacClassB.c ****             // Field RFU1 and RFU2 have variable sizes. It depends on the region specific implement
1179:../../../../../../Middlewares/Third_Party/LoRaWAN/Mac/LoRaMacClassB.c **** 
1180:../../../../../../Middlewares/Third_Party/LoRaWAN/Mac/LoRaMacClassB.c ****             // Read CRC1 field from the frame
1181:../../../../../../Middlewares/Third_Party/LoRaWAN/Mac/LoRaMacClassB.c ****             beaconCrc0 = ( ( uint16_t )payload[phyParam.BeaconFormat.Rfu1Size + 4] ) & 0x00FF;
1182:../../../../../../Middlewares/Third_Party/LoRaWAN/Mac/LoRaMacClassB.c ****             beaconCrc0 |= ( ( uint16_t )payload[phyParam.BeaconFormat.Rfu1Size + 4 + 1] << 8 ) & 0x
1183:../../../../../../Middlewares/Third_Party/LoRaWAN/Mac/LoRaMacClassB.c ****             crc0 = BeaconCrc( payload, phyParam.BeaconFormat.Rfu1Size + 4 );
1184:../../../../../../Middlewares/Third_Party/LoRaWAN/Mac/LoRaMacClassB.c **** 
1185:../../../../../../Middlewares/Third_Party/LoRaWAN/Mac/LoRaMacClassB.c ****             // Validate the first crc of the beacon frame
1186:../../../../../../Middlewares/Third_Party/LoRaWAN/Mac/LoRaMacClassB.c ****             if( crc0 == beaconCrc0 )
1187:../../../../../../Middlewares/Third_Party/LoRaWAN/Mac/LoRaMacClassB.c ****             {
1188:../../../../../../Middlewares/Third_Party/LoRaWAN/Mac/LoRaMacClassB.c ****                 // Read Time field from the frame
1189:../../../../../../Middlewares/Third_Party/LoRaWAN/Mac/LoRaMacClassB.c ****                 Ctx.NvmCtx->BeaconCtx.BeaconTime  = ( ( uint32_t )payload[phyParam.BeaconFormat.Rfu
1190:../../../../../../Middlewares/Third_Party/LoRaWAN/Mac/LoRaMacClassB.c ****                 Ctx.NvmCtx->BeaconCtx.BeaconTime |= ( ( uint32_t )( payload[phyParam.BeaconFormat.R
1191:../../../../../../Middlewares/Third_Party/LoRaWAN/Mac/LoRaMacClassB.c ****                 Ctx.NvmCtx->BeaconCtx.BeaconTime |= ( ( uint32_t )( payload[phyParam.BeaconFormat.R
1192:../../../../../../Middlewares/Third_Party/LoRaWAN/Mac/LoRaMacClassB.c ****                 Ctx.NvmCtx->BeaconCtx.BeaconTime |= ( ( uint32_t )( payload[phyParam.BeaconFormat.R
1193:../../../../../../Middlewares/Third_Party/LoRaWAN/Mac/LoRaMacClassB.c ****                 Ctx.LoRaMacClassBParams.MlmeIndication->BeaconInfo.Time = Ctx.NvmCtx->BeaconCtx.Bea
1194:../../../../../../Middlewares/Third_Party/LoRaWAN/Mac/LoRaMacClassB.c ****                 beaconProcessed = true;
1195:../../../../../../Middlewares/Third_Party/LoRaWAN/Mac/LoRaMacClassB.c ****             }
1196:../../../../../../Middlewares/Third_Party/LoRaWAN/Mac/LoRaMacClassB.c **** 
1197:../../../../../../Middlewares/Third_Party/LoRaWAN/Mac/LoRaMacClassB.c ****             // Read CRC2 field from the frame
1198:../../../../../../Middlewares/Third_Party/LoRaWAN/Mac/LoRaMacClassB.c ****             beaconCrc1 = ( ( uint16_t )payload[phyParam.BeaconFormat.Rfu1Size + 4 + 2 + 7 + phyPara
1199:../../../../../../Middlewares/Third_Party/LoRaWAN/Mac/LoRaMacClassB.c ****             beaconCrc1 |= ( ( uint16_t )payload[phyParam.BeaconFormat.Rfu1Size + 4 + 2 + 7 + phyPar
1200:../../../../../../Middlewares/Third_Party/LoRaWAN/Mac/LoRaMacClassB.c ****             crc1 = BeaconCrc( &payload[phyParam.BeaconFormat.Rfu1Size + 4 + 2], 7 + phyParam.Beacon
1201:../../../../../../Middlewares/Third_Party/LoRaWAN/Mac/LoRaMacClassB.c **** 
1202:../../../../../../Middlewares/Third_Party/LoRaWAN/Mac/LoRaMacClassB.c ****             // Validate the second crc of the beacon frame
1203:../../../../../../Middlewares/Third_Party/LoRaWAN/Mac/LoRaMacClassB.c ****             if( crc1 == beaconCrc1 )
1204:../../../../../../Middlewares/Third_Party/LoRaWAN/Mac/LoRaMacClassB.c ****             {
1205:../../../../../../Middlewares/Third_Party/LoRaWAN/Mac/LoRaMacClassB.c ****                 // Read GwSpecific field from the frame
1206:../../../../../../Middlewares/Third_Party/LoRaWAN/Mac/LoRaMacClassB.c ****                 // The GwSpecific field contains 1 byte InfoDesc and 6 bytes Info
1207:../../../../../../Middlewares/Third_Party/LoRaWAN/Mac/LoRaMacClassB.c ****                 Ctx.LoRaMacClassBParams.MlmeIndication->BeaconInfo.GwSpecific.InfoDesc = payload[ph
1208:../../../../../../Middlewares/Third_Party/LoRaWAN/Mac/LoRaMacClassB.c ****                 memcpy1( Ctx.LoRaMacClassBParams.MlmeIndication->BeaconInfo.GwSpecific.Info, &paylo
1209:../../../../../../Middlewares/Third_Party/LoRaWAN/Mac/LoRaMacClassB.c ****             }
1210:../../../../../../Middlewares/Third_Party/LoRaWAN/Mac/LoRaMacClassB.c **** 
1211:../../../../../../Middlewares/Third_Party/LoRaWAN/Mac/LoRaMacClassB.c ****             // Reset beacon variables, if one of the crc is valid
1212:../../../../../../Middlewares/Third_Party/LoRaWAN/Mac/LoRaMacClassB.c ****             if( beaconProcessed == true )
1213:../../../../../../Middlewares/Third_Party/LoRaWAN/Mac/LoRaMacClassB.c ****             {
1214:../../../../../../Middlewares/Third_Party/LoRaWAN/Mac/LoRaMacClassB.c ****                 Ctx.NvmCtx->BeaconCtx.LastBeaconRx = TimerGetCurrentTime( ) - Radio.TimeOnAir( MODE
1215:../../../../../../Middlewares/Third_Party/LoRaWAN/Mac/LoRaMacClassB.c ****                 Ctx.NvmCtx->BeaconCtx.Ctrl.BeaconAcquired = 1;
1216:../../../../../../Middlewares/Third_Party/LoRaWAN/Mac/LoRaMacClassB.c ****                 Ctx.NvmCtx->BeaconCtx.Ctrl.BeaconMode = 1;
1217:../../../../../../Middlewares/Third_Party/LoRaWAN/Mac/LoRaMacClassB.c ****                 ResetWindowTimeout( );
1218:../../../../../../Middlewares/Third_Party/LoRaWAN/Mac/LoRaMacClassB.c ****                 Ctx.NvmCtx->BeaconState = BEACON_STATE_LOCKED;
1219:../../../../../../Middlewares/Third_Party/LoRaWAN/Mac/LoRaMacClassB.c **** 
1220:../../../../../../Middlewares/Third_Party/LoRaWAN/Mac/LoRaMacClassB.c ****                 LoRaMacClassBBeaconTimerEvent( NULL );
1221:../../../../../../Middlewares/Third_Party/LoRaWAN/Mac/LoRaMacClassB.c ****             }
1222:../../../../../../Middlewares/Third_Party/LoRaWAN/Mac/LoRaMacClassB.c ****         }
ARM GAS  C:\Users\EBANO_~1\AppData\Local\Temp\ccis3phW.s 			page 27


1223:../../../../../../Middlewares/Third_Party/LoRaWAN/Mac/LoRaMacClassB.c **** 
1224:../../../../../../Middlewares/Third_Party/LoRaWAN/Mac/LoRaMacClassB.c ****         if( Ctx.NvmCtx->BeaconState == BEACON_STATE_RX )
1225:../../../../../../Middlewares/Third_Party/LoRaWAN/Mac/LoRaMacClassB.c ****         {
1226:../../../../../../Middlewares/Third_Party/LoRaWAN/Mac/LoRaMacClassB.c ****             Ctx.NvmCtx->BeaconState = BEACON_STATE_TIMEOUT;
1227:../../../../../../Middlewares/Third_Party/LoRaWAN/Mac/LoRaMacClassB.c ****             LoRaMacClassBBeaconTimerEvent( NULL );
1228:../../../../../../Middlewares/Third_Party/LoRaWAN/Mac/LoRaMacClassB.c ****         }
1229:../../../../../../Middlewares/Third_Party/LoRaWAN/Mac/LoRaMacClassB.c ****         // When the MAC listens for a beacon, it is not allowed to process any other
1230:../../../../../../Middlewares/Third_Party/LoRaWAN/Mac/LoRaMacClassB.c ****         // downlink except the beacon frame itself. The reason for this is that no valid downlink w
1231:../../../../../../Middlewares/Third_Party/LoRaWAN/Mac/LoRaMacClassB.c ****         // If it receives a frame which is
1232:../../../../../../Middlewares/Third_Party/LoRaWAN/Mac/LoRaMacClassB.c ****         // 1. not a beacon or
1233:../../../../../../Middlewares/Third_Party/LoRaWAN/Mac/LoRaMacClassB.c ****         // 2. a beacon with a crc fail
1234:../../../../../../Middlewares/Third_Party/LoRaWAN/Mac/LoRaMacClassB.c ****         // the MAC shall ignore the frame completely. Thus, the function must always return true, e
1235:../../../../../../Middlewares/Third_Party/LoRaWAN/Mac/LoRaMacClassB.c ****         // valid beacon has been received.
1236:../../../../../../Middlewares/Third_Party/LoRaWAN/Mac/LoRaMacClassB.c ****         beaconProcessed = true;
1237:../../../../../../Middlewares/Third_Party/LoRaWAN/Mac/LoRaMacClassB.c ****     }
1238:../../../../../../Middlewares/Third_Party/LoRaWAN/Mac/LoRaMacClassB.c **** 
1239:../../../../../../Middlewares/Third_Party/LoRaWAN/Mac/LoRaMacClassB.c ****     NvmContextChange( );
1240:../../../../../../Middlewares/Third_Party/LoRaWAN/Mac/LoRaMacClassB.c **** 
1241:../../../../../../Middlewares/Third_Party/LoRaWAN/Mac/LoRaMacClassB.c ****     return beaconProcessed;
1242:../../../../../../Middlewares/Third_Party/LoRaWAN/Mac/LoRaMacClassB.c **** #else
1243:../../../../../../Middlewares/Third_Party/LoRaWAN/Mac/LoRaMacClassB.c ****     return false;
1244:../../../../../../Middlewares/Third_Party/LoRaWAN/Mac/LoRaMacClassB.c **** #endif // LORAMAC_CLASSB_ENABLED
1245:../../../../../../Middlewares/Third_Party/LoRaWAN/Mac/LoRaMacClassB.c **** }
 260              		.loc 1 1245 0
 261 0000 0020     		movs	r0, #0
 262              	.LVL8:
 263              		@ sp needed
 264 0002 7047     		bx	lr
 265              		.cfi_endproc
 266              	.LFE49:
 267              		.size	LoRaMacClassBRxBeacon, .-LoRaMacClassBRxBeacon
 268              		.section	.text.LoRaMacClassBIsBeaconExpected,"ax",%progbits
 269              		.align	1
 270              		.p2align 2,,3
 271              		.global	LoRaMacClassBIsBeaconExpected
 272              		.syntax unified
 273              		.code	16
 274              		.thumb_func
 275              		.fpu softvfp
 276              		.type	LoRaMacClassBIsBeaconExpected, %function
 277              	LoRaMacClassBIsBeaconExpected:
 278              	.LFB84:
 279              		.cfi_startproc
 280              		@ args = 0, pretend = 0, frame = 0
 281              		@ frame_needed = 0, uses_anonymous_args = 0
 282              		@ link register save eliminated.
 283 0000 0020     		movs	r0, #0
 284              		@ sp needed
 285 0002 7047     		bx	lr
 286              		.cfi_endproc
 287              	.LFE84:
 288              		.size	LoRaMacClassBIsBeaconExpected, .-LoRaMacClassBIsBeaconExpected
 289              		.section	.text.LoRaMacClassBIsPingExpected,"ax",%progbits
 290              		.align	1
 291              		.p2align 2,,3
 292              		.global	LoRaMacClassBIsPingExpected
 293              		.syntax unified
ARM GAS  C:\Users\EBANO_~1\AppData\Local\Temp\ccis3phW.s 			page 28


 294              		.code	16
 295              		.thumb_func
 296              		.fpu softvfp
 297              		.type	LoRaMacClassBIsPingExpected, %function
 298              	LoRaMacClassBIsPingExpected:
 299              	.LFB86:
 300              		.cfi_startproc
 301              		@ args = 0, pretend = 0, frame = 0
 302              		@ frame_needed = 0, uses_anonymous_args = 0
 303              		@ link register save eliminated.
 304 0000 0020     		movs	r0, #0
 305              		@ sp needed
 306 0002 7047     		bx	lr
 307              		.cfi_endproc
 308              	.LFE86:
 309              		.size	LoRaMacClassBIsPingExpected, .-LoRaMacClassBIsPingExpected
 310              		.section	.text.LoRaMacClassBIsMulticastExpected,"ax",%progbits
 311              		.align	1
 312              		.p2align 2,,3
 313              		.global	LoRaMacClassBIsMulticastExpected
 314              		.syntax unified
 315              		.code	16
 316              		.thumb_func
 317              		.fpu softvfp
 318              		.type	LoRaMacClassBIsMulticastExpected, %function
 319              	LoRaMacClassBIsMulticastExpected:
 320              	.LFB88:
 321              		.cfi_startproc
 322              		@ args = 0, pretend = 0, frame = 0
 323              		@ frame_needed = 0, uses_anonymous_args = 0
 324              		@ link register save eliminated.
 325 0000 0020     		movs	r0, #0
 326              		@ sp needed
 327 0002 7047     		bx	lr
 328              		.cfi_endproc
 329              	.LFE88:
 330              		.size	LoRaMacClassBIsMulticastExpected, .-LoRaMacClassBIsMulticastExpected
 331              		.section	.text.LoRaMacClassBIsAcquisitionPending,"ax",%progbits
 332              		.align	1
 333              		.p2align 2,,3
 334              		.global	LoRaMacClassBIsAcquisitionPending
 335              		.syntax unified
 336              		.code	16
 337              		.thumb_func
 338              		.fpu softvfp
 339              		.type	LoRaMacClassBIsAcquisitionPending, %function
 340              	LoRaMacClassBIsAcquisitionPending:
 341              	.LFB90:
 342              		.cfi_startproc
 343              		@ args = 0, pretend = 0, frame = 0
 344              		@ frame_needed = 0, uses_anonymous_args = 0
 345              		@ link register save eliminated.
 346 0000 0020     		movs	r0, #0
 347              		@ sp needed
 348 0002 7047     		bx	lr
 349              		.cfi_endproc
 350              	.LFE90:
ARM GAS  C:\Users\EBANO_~1\AppData\Local\Temp\ccis3phW.s 			page 29


 351              		.size	LoRaMacClassBIsAcquisitionPending, .-LoRaMacClassBIsAcquisitionPending
 352              		.section	.text.LoRaMacClassBIsBeaconModeActive,"ax",%progbits
 353              		.align	1
 354              		.p2align 2,,3
 355              		.global	LoRaMacClassBIsBeaconModeActive
 356              		.syntax unified
 357              		.code	16
 358              		.thumb_func
 359              		.fpu softvfp
 360              		.type	LoRaMacClassBIsBeaconModeActive, %function
 361              	LoRaMacClassBIsBeaconModeActive:
 362              	.LFB92:
 363              		.cfi_startproc
 364              		@ args = 0, pretend = 0, frame = 0
 365              		@ frame_needed = 0, uses_anonymous_args = 0
 366              		@ link register save eliminated.
 367 0000 0020     		movs	r0, #0
 368              		@ sp needed
 369 0002 7047     		bx	lr
 370              		.cfi_endproc
 371              	.LFE92:
 372              		.size	LoRaMacClassBIsBeaconModeActive, .-LoRaMacClassBIsBeaconModeActive
 373              		.section	.text.LoRaMacClassBSetPingSlotInfo,"ax",%progbits
 374              		.align	1
 375              		.p2align 2,,3
 376              		.global	LoRaMacClassBSetPingSlotInfo
 377              		.syntax unified
 378              		.code	16
 379              		.thumb_func
 380              		.fpu softvfp
 381              		.type	LoRaMacClassBSetPingSlotInfo, %function
 382              	LoRaMacClassBSetPingSlotInfo:
 383              	.LFB76:
 384              		.cfi_startproc
 385              		@ args = 0, pretend = 0, frame = 0
 386              		@ frame_needed = 0, uses_anonymous_args = 0
 387              		@ link register save eliminated.
 388              		@ sp needed
 389 0000 7047     		bx	lr
 390              		.cfi_endproc
 391              	.LFE76:
 392              		.size	LoRaMacClassBSetPingSlotInfo, .-LoRaMacClassBSetPingSlotInfo
 393 0002 C046     		.section	.text.LoRaMacClassBHaltBeaconing,"ax",%progbits
 394              		.align	1
 395              		.p2align 2,,3
 396              		.global	LoRaMacClassBHaltBeaconing
 397              		.syntax unified
 398              		.code	16
 399              		.thumb_func
 400              		.fpu softvfp
 401              		.type	LoRaMacClassBHaltBeaconing, %function
 402              	LoRaMacClassBHaltBeaconing:
 403              	.LFB56:
1246:../../../../../../Middlewares/Third_Party/LoRaWAN/Mac/LoRaMacClassB.c **** 
1247:../../../../../../Middlewares/Third_Party/LoRaWAN/Mac/LoRaMacClassB.c **** bool LoRaMacClassBIsBeaconExpected( void )
1248:../../../../../../Middlewares/Third_Party/LoRaWAN/Mac/LoRaMacClassB.c **** {
1249:../../../../../../Middlewares/Third_Party/LoRaWAN/Mac/LoRaMacClassB.c **** #ifdef LORAMAC_CLASSB_ENABLED
ARM GAS  C:\Users\EBANO_~1\AppData\Local\Temp\ccis3phW.s 			page 30


1250:../../../../../../Middlewares/Third_Party/LoRaWAN/Mac/LoRaMacClassB.c ****     if( ( Ctx.NvmCtx->BeaconCtx.Ctrl.AcquisitionPending == 1 ) ||
1251:../../../../../../Middlewares/Third_Party/LoRaWAN/Mac/LoRaMacClassB.c ****         ( Ctx.NvmCtx->BeaconState == BEACON_STATE_RX ) )
1252:../../../../../../Middlewares/Third_Party/LoRaWAN/Mac/LoRaMacClassB.c ****     {
1253:../../../../../../Middlewares/Third_Party/LoRaWAN/Mac/LoRaMacClassB.c ****         return true;
1254:../../../../../../Middlewares/Third_Party/LoRaWAN/Mac/LoRaMacClassB.c ****     }
1255:../../../../../../Middlewares/Third_Party/LoRaWAN/Mac/LoRaMacClassB.c ****     return false;
1256:../../../../../../Middlewares/Third_Party/LoRaWAN/Mac/LoRaMacClassB.c **** #else
1257:../../../../../../Middlewares/Third_Party/LoRaWAN/Mac/LoRaMacClassB.c ****     return false;
1258:../../../../../../Middlewares/Third_Party/LoRaWAN/Mac/LoRaMacClassB.c **** #endif // LORAMAC_CLASSB_ENABLED
1259:../../../../../../Middlewares/Third_Party/LoRaWAN/Mac/LoRaMacClassB.c **** }
1260:../../../../../../Middlewares/Third_Party/LoRaWAN/Mac/LoRaMacClassB.c **** 
1261:../../../../../../Middlewares/Third_Party/LoRaWAN/Mac/LoRaMacClassB.c **** bool LoRaMacClassBIsPingExpected( void )
1262:../../../../../../Middlewares/Third_Party/LoRaWAN/Mac/LoRaMacClassB.c **** {
1263:../../../../../../Middlewares/Third_Party/LoRaWAN/Mac/LoRaMacClassB.c **** #ifdef LORAMAC_CLASSB_ENABLED
1264:../../../../../../Middlewares/Third_Party/LoRaWAN/Mac/LoRaMacClassB.c ****     if( Ctx.NvmCtx->PingSlotState == PINGSLOT_STATE_RX )
1265:../../../../../../Middlewares/Third_Party/LoRaWAN/Mac/LoRaMacClassB.c ****     {
1266:../../../../../../Middlewares/Third_Party/LoRaWAN/Mac/LoRaMacClassB.c ****         return true;
1267:../../../../../../Middlewares/Third_Party/LoRaWAN/Mac/LoRaMacClassB.c ****     }
1268:../../../../../../Middlewares/Third_Party/LoRaWAN/Mac/LoRaMacClassB.c ****     return false;
1269:../../../../../../Middlewares/Third_Party/LoRaWAN/Mac/LoRaMacClassB.c **** #else
1270:../../../../../../Middlewares/Third_Party/LoRaWAN/Mac/LoRaMacClassB.c ****     return false;
1271:../../../../../../Middlewares/Third_Party/LoRaWAN/Mac/LoRaMacClassB.c **** #endif // LORAMAC_CLASSB_ENABLED
1272:../../../../../../Middlewares/Third_Party/LoRaWAN/Mac/LoRaMacClassB.c **** }
1273:../../../../../../Middlewares/Third_Party/LoRaWAN/Mac/LoRaMacClassB.c **** 
1274:../../../../../../Middlewares/Third_Party/LoRaWAN/Mac/LoRaMacClassB.c **** bool LoRaMacClassBIsMulticastExpected( void )
1275:../../../../../../Middlewares/Third_Party/LoRaWAN/Mac/LoRaMacClassB.c **** {
1276:../../../../../../Middlewares/Third_Party/LoRaWAN/Mac/LoRaMacClassB.c **** #ifdef LORAMAC_CLASSB_ENABLED
1277:../../../../../../Middlewares/Third_Party/LoRaWAN/Mac/LoRaMacClassB.c ****     if( Ctx.NvmCtx->MulticastSlotState == PINGSLOT_STATE_RX )
1278:../../../../../../Middlewares/Third_Party/LoRaWAN/Mac/LoRaMacClassB.c ****     {
1279:../../../../../../Middlewares/Third_Party/LoRaWAN/Mac/LoRaMacClassB.c ****         return true;
1280:../../../../../../Middlewares/Third_Party/LoRaWAN/Mac/LoRaMacClassB.c ****     }
1281:../../../../../../Middlewares/Third_Party/LoRaWAN/Mac/LoRaMacClassB.c ****     return false;
1282:../../../../../../Middlewares/Third_Party/LoRaWAN/Mac/LoRaMacClassB.c **** #else
1283:../../../../../../Middlewares/Third_Party/LoRaWAN/Mac/LoRaMacClassB.c ****     return false;
1284:../../../../../../Middlewares/Third_Party/LoRaWAN/Mac/LoRaMacClassB.c **** #endif // LORAMAC_CLASSB_ENABLED
1285:../../../../../../Middlewares/Third_Party/LoRaWAN/Mac/LoRaMacClassB.c **** }
1286:../../../../../../Middlewares/Third_Party/LoRaWAN/Mac/LoRaMacClassB.c **** 
1287:../../../../../../Middlewares/Third_Party/LoRaWAN/Mac/LoRaMacClassB.c **** bool LoRaMacClassBIsAcquisitionPending( void )
1288:../../../../../../Middlewares/Third_Party/LoRaWAN/Mac/LoRaMacClassB.c **** {
1289:../../../../../../Middlewares/Third_Party/LoRaWAN/Mac/LoRaMacClassB.c **** #ifdef LORAMAC_CLASSB_ENABLED
1290:../../../../../../Middlewares/Third_Party/LoRaWAN/Mac/LoRaMacClassB.c ****     if( Ctx.NvmCtx->BeaconCtx.Ctrl.AcquisitionPending == 1 )
1291:../../../../../../Middlewares/Third_Party/LoRaWAN/Mac/LoRaMacClassB.c ****     {
1292:../../../../../../Middlewares/Third_Party/LoRaWAN/Mac/LoRaMacClassB.c ****         return true;
1293:../../../../../../Middlewares/Third_Party/LoRaWAN/Mac/LoRaMacClassB.c ****     }
1294:../../../../../../Middlewares/Third_Party/LoRaWAN/Mac/LoRaMacClassB.c ****     return false;
1295:../../../../../../Middlewares/Third_Party/LoRaWAN/Mac/LoRaMacClassB.c **** #else
1296:../../../../../../Middlewares/Third_Party/LoRaWAN/Mac/LoRaMacClassB.c ****     return false;
1297:../../../../../../Middlewares/Third_Party/LoRaWAN/Mac/LoRaMacClassB.c **** #endif // LORAMAC_CLASSB_ENABLED
1298:../../../../../../Middlewares/Third_Party/LoRaWAN/Mac/LoRaMacClassB.c **** }
1299:../../../../../../Middlewares/Third_Party/LoRaWAN/Mac/LoRaMacClassB.c **** 
1300:../../../../../../Middlewares/Third_Party/LoRaWAN/Mac/LoRaMacClassB.c **** bool LoRaMacClassBIsBeaconModeActive( void )
1301:../../../../../../Middlewares/Third_Party/LoRaWAN/Mac/LoRaMacClassB.c **** {
1302:../../../../../../Middlewares/Third_Party/LoRaWAN/Mac/LoRaMacClassB.c **** #ifdef LORAMAC_CLASSB_ENABLED
1303:../../../../../../Middlewares/Third_Party/LoRaWAN/Mac/LoRaMacClassB.c ****     if( ( Ctx.NvmCtx->BeaconCtx.Ctrl.BeaconMode == 1 ) ||
1304:../../../../../../Middlewares/Third_Party/LoRaWAN/Mac/LoRaMacClassB.c ****         ( Ctx.NvmCtx->BeaconState == BEACON_STATE_ACQUISITION_BY_TIME ) )
1305:../../../../../../Middlewares/Third_Party/LoRaWAN/Mac/LoRaMacClassB.c ****     {
1306:../../../../../../Middlewares/Third_Party/LoRaWAN/Mac/LoRaMacClassB.c ****         return true;
ARM GAS  C:\Users\EBANO_~1\AppData\Local\Temp\ccis3phW.s 			page 31


1307:../../../../../../Middlewares/Third_Party/LoRaWAN/Mac/LoRaMacClassB.c ****     }
1308:../../../../../../Middlewares/Third_Party/LoRaWAN/Mac/LoRaMacClassB.c ****     return false;
1309:../../../../../../Middlewares/Third_Party/LoRaWAN/Mac/LoRaMacClassB.c **** #else
1310:../../../../../../Middlewares/Third_Party/LoRaWAN/Mac/LoRaMacClassB.c ****     return false;
1311:../../../../../../Middlewares/Third_Party/LoRaWAN/Mac/LoRaMacClassB.c **** #endif // LORAMAC_CLASSB_ENABLED
1312:../../../../../../Middlewares/Third_Party/LoRaWAN/Mac/LoRaMacClassB.c **** }
1313:../../../../../../Middlewares/Third_Party/LoRaWAN/Mac/LoRaMacClassB.c **** 
1314:../../../../../../Middlewares/Third_Party/LoRaWAN/Mac/LoRaMacClassB.c **** void LoRaMacClassBSetPingSlotInfo( uint8_t periodicity )
1315:../../../../../../Middlewares/Third_Party/LoRaWAN/Mac/LoRaMacClassB.c **** {
1316:../../../../../../Middlewares/Third_Party/LoRaWAN/Mac/LoRaMacClassB.c **** #ifdef LORAMAC_CLASSB_ENABLED
1317:../../../../../../Middlewares/Third_Party/LoRaWAN/Mac/LoRaMacClassB.c ****     Ctx.NvmCtx->PingSlotCtx.PingNb = CalcPingNb( periodicity );
1318:../../../../../../Middlewares/Third_Party/LoRaWAN/Mac/LoRaMacClassB.c ****     Ctx.NvmCtx->PingSlotCtx.PingPeriod = CalcPingPeriod( Ctx.NvmCtx->PingSlotCtx.PingNb );
1319:../../../../../../Middlewares/Third_Party/LoRaWAN/Mac/LoRaMacClassB.c ****     NvmContextChange( );
1320:../../../../../../Middlewares/Third_Party/LoRaWAN/Mac/LoRaMacClassB.c **** #endif // LORAMAC_CLASSB_ENABLED
1321:../../../../../../Middlewares/Third_Party/LoRaWAN/Mac/LoRaMacClassB.c **** }
1322:../../../../../../Middlewares/Third_Party/LoRaWAN/Mac/LoRaMacClassB.c **** 
1323:../../../../../../Middlewares/Third_Party/LoRaWAN/Mac/LoRaMacClassB.c **** void LoRaMacClassBHaltBeaconing( void )
1324:../../../../../../Middlewares/Third_Party/LoRaWAN/Mac/LoRaMacClassB.c **** {
 404              		.loc 1 1324 0
 405              		.cfi_startproc
 406              		@ args = 0, pretend = 0, frame = 0
 407              		@ frame_needed = 0, uses_anonymous_args = 0
 408              		@ link register save eliminated.
1325:../../../../../../Middlewares/Third_Party/LoRaWAN/Mac/LoRaMacClassB.c **** #ifdef LORAMAC_CLASSB_ENABLED
1326:../../../../../../Middlewares/Third_Party/LoRaWAN/Mac/LoRaMacClassB.c ****     if( Ctx.NvmCtx->BeaconCtx.Ctrl.BeaconMode == 1 )
1327:../../../../../../Middlewares/Third_Party/LoRaWAN/Mac/LoRaMacClassB.c ****     {
1328:../../../../../../Middlewares/Third_Party/LoRaWAN/Mac/LoRaMacClassB.c ****         if( ( Ctx.NvmCtx->BeaconState == BEACON_STATE_TIMEOUT ) ||
1329:../../../../../../Middlewares/Third_Party/LoRaWAN/Mac/LoRaMacClassB.c ****             ( Ctx.NvmCtx->BeaconState == BEACON_STATE_LOST ) )
1330:../../../../../../Middlewares/Third_Party/LoRaWAN/Mac/LoRaMacClassB.c ****         {
1331:../../../../../../Middlewares/Third_Party/LoRaWAN/Mac/LoRaMacClassB.c ****             // Update the state machine before halt
1332:../../../../../../Middlewares/Third_Party/LoRaWAN/Mac/LoRaMacClassB.c ****             LoRaMacClassBBeaconTimerEvent( NULL );
1333:../../../../../../Middlewares/Third_Party/LoRaWAN/Mac/LoRaMacClassB.c ****         }
1334:../../../../../../Middlewares/Third_Party/LoRaWAN/Mac/LoRaMacClassB.c **** 
1335:../../../../../../Middlewares/Third_Party/LoRaWAN/Mac/LoRaMacClassB.c ****         CRITICAL_SECTION_BEGIN( );
1336:../../../../../../Middlewares/Third_Party/LoRaWAN/Mac/LoRaMacClassB.c ****         LoRaMacClassBEvents.Events.Beacon = 0;
1337:../../../../../../Middlewares/Third_Party/LoRaWAN/Mac/LoRaMacClassB.c ****         CRITICAL_SECTION_END( );
1338:../../../../../../Middlewares/Third_Party/LoRaWAN/Mac/LoRaMacClassB.c **** 
1339:../../../../../../Middlewares/Third_Party/LoRaWAN/Mac/LoRaMacClassB.c ****         // Halt ping slot state machine
1340:../../../../../../Middlewares/Third_Party/LoRaWAN/Mac/LoRaMacClassB.c ****         TimerStop( &Ctx.BeaconTimer );
1341:../../../../../../Middlewares/Third_Party/LoRaWAN/Mac/LoRaMacClassB.c **** 
1342:../../../../../../Middlewares/Third_Party/LoRaWAN/Mac/LoRaMacClassB.c ****         // Halt beacon state machine
1343:../../../../../../Middlewares/Third_Party/LoRaWAN/Mac/LoRaMacClassB.c ****         Ctx.NvmCtx->BeaconState = BEACON_STATE_HALT;
1344:../../../../../../Middlewares/Third_Party/LoRaWAN/Mac/LoRaMacClassB.c **** 
1345:../../../../../../Middlewares/Third_Party/LoRaWAN/Mac/LoRaMacClassB.c ****         // Halt ping and multicast slot state machines
1346:../../../../../../Middlewares/Third_Party/LoRaWAN/Mac/LoRaMacClassB.c ****         LoRaMacClassBStopRxSlots( );
1347:../../../../../../Middlewares/Third_Party/LoRaWAN/Mac/LoRaMacClassB.c **** 
1348:../../../../../../Middlewares/Third_Party/LoRaWAN/Mac/LoRaMacClassB.c ****         NvmContextChange( );
1349:../../../../../../Middlewares/Third_Party/LoRaWAN/Mac/LoRaMacClassB.c ****     }
1350:../../../../../../Middlewares/Third_Party/LoRaWAN/Mac/LoRaMacClassB.c **** #endif // LORAMAC_CLASSB_ENABLED
1351:../../../../../../Middlewares/Third_Party/LoRaWAN/Mac/LoRaMacClassB.c **** }
 409              		.loc 1 1351 0
 410              		@ sp needed
 411 0000 7047     		bx	lr
 412              		.cfi_endproc
 413              	.LFE56:
 414              		.size	LoRaMacClassBHaltBeaconing, .-LoRaMacClassBHaltBeaconing
 415 0002 C046     		.section	.text.LoRaMacClassBResumeBeaconing,"ax",%progbits
ARM GAS  C:\Users\EBANO_~1\AppData\Local\Temp\ccis3phW.s 			page 32


 416              		.align	1
 417              		.p2align 2,,3
 418              		.global	LoRaMacClassBResumeBeaconing
 419              		.syntax unified
 420              		.code	16
 421              		.thumb_func
 422              		.fpu softvfp
 423              		.type	LoRaMacClassBResumeBeaconing, %function
 424              	LoRaMacClassBResumeBeaconing:
 425              	.LFB94:
 426              		.cfi_startproc
 427              		@ args = 0, pretend = 0, frame = 0
 428              		@ frame_needed = 0, uses_anonymous_args = 0
 429              		@ link register save eliminated.
 430              		@ sp needed
 431 0000 7047     		bx	lr
 432              		.cfi_endproc
 433              	.LFE94:
 434              		.size	LoRaMacClassBResumeBeaconing, .-LoRaMacClassBResumeBeaconing
 435 0002 C046     		.section	.text.LoRaMacClassBSwitchClass,"ax",%progbits
 436              		.align	1
 437              		.p2align 2,,3
 438              		.global	LoRaMacClassBSwitchClass
 439              		.syntax unified
 440              		.code	16
 441              		.thumb_func
 442              		.fpu softvfp
 443              		.type	LoRaMacClassBSwitchClass, %function
 444              	LoRaMacClassBSwitchClass:
 445              	.LFB58:
1352:../../../../../../Middlewares/Third_Party/LoRaWAN/Mac/LoRaMacClassB.c **** 
1353:../../../../../../Middlewares/Third_Party/LoRaWAN/Mac/LoRaMacClassB.c **** void LoRaMacClassBResumeBeaconing( void )
1354:../../../../../../Middlewares/Third_Party/LoRaWAN/Mac/LoRaMacClassB.c **** {
1355:../../../../../../Middlewares/Third_Party/LoRaWAN/Mac/LoRaMacClassB.c **** #ifdef LORAMAC_CLASSB_ENABLED
1356:../../../../../../Middlewares/Third_Party/LoRaWAN/Mac/LoRaMacClassB.c ****     if( Ctx.NvmCtx->BeaconState == BEACON_STATE_HALT )
1357:../../../../../../Middlewares/Third_Party/LoRaWAN/Mac/LoRaMacClassB.c ****     {
1358:../../../../../../Middlewares/Third_Party/LoRaWAN/Mac/LoRaMacClassB.c ****         Ctx.NvmCtx->BeaconCtx.Ctrl.ResumeBeaconing = 1;
1359:../../../../../../Middlewares/Third_Party/LoRaWAN/Mac/LoRaMacClassB.c **** 
1360:../../../../../../Middlewares/Third_Party/LoRaWAN/Mac/LoRaMacClassB.c ****         // Set default state
1361:../../../../../../Middlewares/Third_Party/LoRaWAN/Mac/LoRaMacClassB.c ****         Ctx.NvmCtx->BeaconState = BEACON_STATE_LOCKED;
1362:../../../../../../Middlewares/Third_Party/LoRaWAN/Mac/LoRaMacClassB.c **** 
1363:../../../../../../Middlewares/Third_Party/LoRaWAN/Mac/LoRaMacClassB.c ****         if( Ctx.NvmCtx->BeaconCtx.Ctrl.BeaconAcquired == 0 )
1364:../../../../../../Middlewares/Third_Party/LoRaWAN/Mac/LoRaMacClassB.c ****         {
1365:../../../../../../Middlewares/Third_Party/LoRaWAN/Mac/LoRaMacClassB.c ****             // Set the default state for beacon less operation
1366:../../../../../../Middlewares/Third_Party/LoRaWAN/Mac/LoRaMacClassB.c ****             Ctx.NvmCtx->BeaconState = BEACON_STATE_REACQUISITION;
1367:../../../../../../Middlewares/Third_Party/LoRaWAN/Mac/LoRaMacClassB.c ****         }
1368:../../../../../../Middlewares/Third_Party/LoRaWAN/Mac/LoRaMacClassB.c **** 
1369:../../../../../../Middlewares/Third_Party/LoRaWAN/Mac/LoRaMacClassB.c ****         LoRaMacClassBBeaconTimerEvent( NULL );
1370:../../../../../../Middlewares/Third_Party/LoRaWAN/Mac/LoRaMacClassB.c ****         NvmContextChange( );
1371:../../../../../../Middlewares/Third_Party/LoRaWAN/Mac/LoRaMacClassB.c ****     }
1372:../../../../../../Middlewares/Third_Party/LoRaWAN/Mac/LoRaMacClassB.c **** #endif // LORAMAC_CLASSB_ENABLED
1373:../../../../../../Middlewares/Third_Party/LoRaWAN/Mac/LoRaMacClassB.c **** }
1374:../../../../../../Middlewares/Third_Party/LoRaWAN/Mac/LoRaMacClassB.c **** 
1375:../../../../../../Middlewares/Third_Party/LoRaWAN/Mac/LoRaMacClassB.c **** LoRaMacStatus_t LoRaMacClassBSwitchClass( DeviceClass_t nextClass )
1376:../../../../../../Middlewares/Third_Party/LoRaWAN/Mac/LoRaMacClassB.c **** {
 446              		.loc 1 1376 0
 447              		.cfi_startproc
ARM GAS  C:\Users\EBANO_~1\AppData\Local\Temp\ccis3phW.s 			page 33


 448              		@ args = 0, pretend = 0, frame = 0
 449              		@ frame_needed = 0, uses_anonymous_args = 0
 450              		@ link register save eliminated.
 451              	.LVL9:
1377:../../../../../../Middlewares/Third_Party/LoRaWAN/Mac/LoRaMacClassB.c **** #ifdef LORAMAC_CLASSB_ENABLED
1378:../../../../../../Middlewares/Third_Party/LoRaWAN/Mac/LoRaMacClassB.c ****     if( nextClass == CLASS_B )
1379:../../../../../../Middlewares/Third_Party/LoRaWAN/Mac/LoRaMacClassB.c ****     {// Switch to from class a to class b
1380:../../../../../../Middlewares/Third_Party/LoRaWAN/Mac/LoRaMacClassB.c ****         if( ( Ctx.NvmCtx->BeaconCtx.Ctrl.BeaconMode == 1 ) && ( Ctx.NvmCtx->PingSlotCtx.Ctrl.Assign
1381:../../../../../../Middlewares/Third_Party/LoRaWAN/Mac/LoRaMacClassB.c ****         {
1382:../../../../../../Middlewares/Third_Party/LoRaWAN/Mac/LoRaMacClassB.c ****             return LORAMAC_STATUS_OK;
1383:../../../../../../Middlewares/Third_Party/LoRaWAN/Mac/LoRaMacClassB.c ****         }
1384:../../../../../../Middlewares/Third_Party/LoRaWAN/Mac/LoRaMacClassB.c ****     }
1385:../../../../../../Middlewares/Third_Party/LoRaWAN/Mac/LoRaMacClassB.c ****     if( nextClass == CLASS_A )
1386:../../../../../../Middlewares/Third_Party/LoRaWAN/Mac/LoRaMacClassB.c ****     {// Switch from class b to class a
1387:../../../../../../Middlewares/Third_Party/LoRaWAN/Mac/LoRaMacClassB.c ****         LoRaMacClassBHaltBeaconing( );
1388:../../../../../../Middlewares/Third_Party/LoRaWAN/Mac/LoRaMacClassB.c **** 
1389:../../../../../../Middlewares/Third_Party/LoRaWAN/Mac/LoRaMacClassB.c ****         // Initialize default state for class b
1390:../../../../../../Middlewares/Third_Party/LoRaWAN/Mac/LoRaMacClassB.c ****         InitClassBDefaults( );
1391:../../../../../../Middlewares/Third_Party/LoRaWAN/Mac/LoRaMacClassB.c **** 
1392:../../../../../../Middlewares/Third_Party/LoRaWAN/Mac/LoRaMacClassB.c ****         return LORAMAC_STATUS_OK;
1393:../../../../../../Middlewares/Third_Party/LoRaWAN/Mac/LoRaMacClassB.c ****     }
1394:../../../../../../Middlewares/Third_Party/LoRaWAN/Mac/LoRaMacClassB.c ****     return LORAMAC_STATUS_SERVICE_UNKNOWN;
1395:../../../../../../Middlewares/Third_Party/LoRaWAN/Mac/LoRaMacClassB.c **** #else
1396:../../../../../../Middlewares/Third_Party/LoRaWAN/Mac/LoRaMacClassB.c ****     return LORAMAC_STATUS_SERVICE_UNKNOWN;
1397:../../../../../../Middlewares/Third_Party/LoRaWAN/Mac/LoRaMacClassB.c **** #endif // LORAMAC_CLASSB_ENABLED
1398:../../../../../../Middlewares/Third_Party/LoRaWAN/Mac/LoRaMacClassB.c **** }
 452              		.loc 1 1398 0
 453 0000 0220     		movs	r0, #2
 454              	.LVL10:
 455              		@ sp needed
 456 0002 7047     		bx	lr
 457              		.cfi_endproc
 458              	.LFE58:
 459              		.size	LoRaMacClassBSwitchClass, .-LoRaMacClassBSwitchClass
 460              		.section	.text.LoRaMacClassBMibGetRequestConfirm,"ax",%progbits
 461              		.align	1
 462              		.p2align 2,,3
 463              		.global	LoRaMacClassBMibGetRequestConfirm
 464              		.syntax unified
 465              		.code	16
 466              		.thumb_func
 467              		.fpu softvfp
 468              		.type	LoRaMacClassBMibGetRequestConfirm, %function
 469              	LoRaMacClassBMibGetRequestConfirm:
 470              	.LFB59:
1399:../../../../../../Middlewares/Third_Party/LoRaWAN/Mac/LoRaMacClassB.c **** 
1400:../../../../../../Middlewares/Third_Party/LoRaWAN/Mac/LoRaMacClassB.c **** LoRaMacStatus_t LoRaMacClassBMibGetRequestConfirm( MibRequestConfirm_t *mibGet )
1401:../../../../../../Middlewares/Third_Party/LoRaWAN/Mac/LoRaMacClassB.c **** {
 471              		.loc 1 1401 0
 472              		.cfi_startproc
 473              		@ args = 0, pretend = 0, frame = 0
 474              		@ frame_needed = 0, uses_anonymous_args = 0
 475              		@ link register save eliminated.
 476              	.LVL11:
1402:../../../../../../Middlewares/Third_Party/LoRaWAN/Mac/LoRaMacClassB.c **** #ifdef LORAMAC_CLASSB_ENABLED
1403:../../../../../../Middlewares/Third_Party/LoRaWAN/Mac/LoRaMacClassB.c ****     LoRaMacStatus_t status;
1404:../../../../../../Middlewares/Third_Party/LoRaWAN/Mac/LoRaMacClassB.c **** 
ARM GAS  C:\Users\EBANO_~1\AppData\Local\Temp\ccis3phW.s 			page 34


1405:../../../../../../Middlewares/Third_Party/LoRaWAN/Mac/LoRaMacClassB.c ****     switch( mibGet->Type )
1406:../../../../../../Middlewares/Third_Party/LoRaWAN/Mac/LoRaMacClassB.c ****     {
1407:../../../../../../Middlewares/Third_Party/LoRaWAN/Mac/LoRaMacClassB.c ****         case MIB_PING_SLOT_DATARATE:
1408:../../../../../../Middlewares/Third_Party/LoRaWAN/Mac/LoRaMacClassB.c ****         {
1409:../../../../../../Middlewares/Third_Party/LoRaWAN/Mac/LoRaMacClassB.c ****             mibGet->Param.PingSlotDatarate = Ctx.NvmCtx->PingSlotCtx.Datarate;
1410:../../../../../../Middlewares/Third_Party/LoRaWAN/Mac/LoRaMacClassB.c ****             break;
1411:../../../../../../Middlewares/Third_Party/LoRaWAN/Mac/LoRaMacClassB.c ****         }
1412:../../../../../../Middlewares/Third_Party/LoRaWAN/Mac/LoRaMacClassB.c ****         default:
1413:../../../../../../Middlewares/Third_Party/LoRaWAN/Mac/LoRaMacClassB.c ****         {
1414:../../../../../../Middlewares/Third_Party/LoRaWAN/Mac/LoRaMacClassB.c ****             status = LORAMAC_STATUS_SERVICE_UNKNOWN;
1415:../../../../../../Middlewares/Third_Party/LoRaWAN/Mac/LoRaMacClassB.c ****             break;
1416:../../../../../../Middlewares/Third_Party/LoRaWAN/Mac/LoRaMacClassB.c ****         }
1417:../../../../../../Middlewares/Third_Party/LoRaWAN/Mac/LoRaMacClassB.c ****     }
1418:../../../../../../Middlewares/Third_Party/LoRaWAN/Mac/LoRaMacClassB.c ****     return status;
1419:../../../../../../Middlewares/Third_Party/LoRaWAN/Mac/LoRaMacClassB.c **** #else
1420:../../../../../../Middlewares/Third_Party/LoRaWAN/Mac/LoRaMacClassB.c ****     return LORAMAC_STATUS_SERVICE_UNKNOWN;
1421:../../../../../../Middlewares/Third_Party/LoRaWAN/Mac/LoRaMacClassB.c **** #endif // LORAMAC_CLASSB_ENABLED
1422:../../../../../../Middlewares/Third_Party/LoRaWAN/Mac/LoRaMacClassB.c **** }
 477              		.loc 1 1422 0
 478 0000 0220     		movs	r0, #2
 479              	.LVL12:
 480              		@ sp needed
 481 0002 7047     		bx	lr
 482              		.cfi_endproc
 483              	.LFE59:
 484              		.size	LoRaMacClassBMibGetRequestConfirm, .-LoRaMacClassBMibGetRequestConfirm
 485              		.section	.text.LoRaMacMibClassBSetRequestConfirm,"ax",%progbits
 486              		.align	1
 487              		.p2align 2,,3
 488              		.global	LoRaMacMibClassBSetRequestConfirm
 489              		.syntax unified
 490              		.code	16
 491              		.thumb_func
 492              		.fpu softvfp
 493              		.type	LoRaMacMibClassBSetRequestConfirm, %function
 494              	LoRaMacMibClassBSetRequestConfirm:
 495              	.LFB106:
 496              		.cfi_startproc
 497              		@ args = 0, pretend = 0, frame = 0
 498              		@ frame_needed = 0, uses_anonymous_args = 0
 499              		@ link register save eliminated.
 500 0000 0220     		movs	r0, #2
 501              		@ sp needed
 502 0002 7047     		bx	lr
 503              		.cfi_endproc
 504              	.LFE106:
 505              		.size	LoRaMacMibClassBSetRequestConfirm, .-LoRaMacMibClassBSetRequestConfirm
 506              		.section	.text.LoRaMacClassBPingSlotInfoAns,"ax",%progbits
 507              		.align	1
 508              		.p2align 2,,3
 509              		.global	LoRaMacClassBPingSlotInfoAns
 510              		.syntax unified
 511              		.code	16
 512              		.thumb_func
 513              		.fpu softvfp
 514              		.type	LoRaMacClassBPingSlotInfoAns, %function
 515              	LoRaMacClassBPingSlotInfoAns:
ARM GAS  C:\Users\EBANO_~1\AppData\Local\Temp\ccis3phW.s 			page 35


 516              	.LFB96:
 517              		.cfi_startproc
 518              		@ args = 0, pretend = 0, frame = 0
 519              		@ frame_needed = 0, uses_anonymous_args = 0
 520              		@ link register save eliminated.
 521              		@ sp needed
 522 0000 7047     		bx	lr
 523              		.cfi_endproc
 524              	.LFE96:
 525              		.size	LoRaMacClassBPingSlotInfoAns, .-LoRaMacClassBPingSlotInfoAns
 526 0002 C046     		.section	.text.LoRaMacClassBPingSlotChannelReq,"ax",%progbits
 527              		.align	1
 528              		.p2align 2,,3
 529              		.global	LoRaMacClassBPingSlotChannelReq
 530              		.syntax unified
 531              		.code	16
 532              		.thumb_func
 533              		.fpu softvfp
 534              		.type	LoRaMacClassBPingSlotChannelReq, %function
 535              	LoRaMacClassBPingSlotChannelReq:
 536              	.LFB62:
1423:../../../../../../Middlewares/Third_Party/LoRaWAN/Mac/LoRaMacClassB.c **** 
1424:../../../../../../Middlewares/Third_Party/LoRaWAN/Mac/LoRaMacClassB.c **** LoRaMacStatus_t LoRaMacMibClassBSetRequestConfirm( MibRequestConfirm_t *mibSet )
1425:../../../../../../Middlewares/Third_Party/LoRaWAN/Mac/LoRaMacClassB.c **** {
1426:../../../../../../Middlewares/Third_Party/LoRaWAN/Mac/LoRaMacClassB.c **** #ifdef LORAMAC_CLASSB_ENABLED
1427:../../../../../../Middlewares/Third_Party/LoRaWAN/Mac/LoRaMacClassB.c ****     LoRaMacStatus_t status;
1428:../../../../../../Middlewares/Third_Party/LoRaWAN/Mac/LoRaMacClassB.c **** 
1429:../../../../../../Middlewares/Third_Party/LoRaWAN/Mac/LoRaMacClassB.c ****     switch( mibSet->Type )
1430:../../../../../../Middlewares/Third_Party/LoRaWAN/Mac/LoRaMacClassB.c ****     {
1431:../../../../../../Middlewares/Third_Party/LoRaWAN/Mac/LoRaMacClassB.c ****         case MIB_PING_SLOT_DATARATE:
1432:../../../../../../Middlewares/Third_Party/LoRaWAN/Mac/LoRaMacClassB.c ****         {
1433:../../../../../../Middlewares/Third_Party/LoRaWAN/Mac/LoRaMacClassB.c ****             Ctx.NvmCtx->PingSlotCtx.Datarate = mibSet->Param.PingSlotDatarate;
1434:../../../../../../Middlewares/Third_Party/LoRaWAN/Mac/LoRaMacClassB.c ****             break;
1435:../../../../../../Middlewares/Third_Party/LoRaWAN/Mac/LoRaMacClassB.c ****         }
1436:../../../../../../Middlewares/Third_Party/LoRaWAN/Mac/LoRaMacClassB.c ****         default:
1437:../../../../../../Middlewares/Third_Party/LoRaWAN/Mac/LoRaMacClassB.c ****         {
1438:../../../../../../Middlewares/Third_Party/LoRaWAN/Mac/LoRaMacClassB.c ****             status = LORAMAC_STATUS_SERVICE_UNKNOWN;
1439:../../../../../../Middlewares/Third_Party/LoRaWAN/Mac/LoRaMacClassB.c ****             break;
1440:../../../../../../Middlewares/Third_Party/LoRaWAN/Mac/LoRaMacClassB.c ****         }
1441:../../../../../../Middlewares/Third_Party/LoRaWAN/Mac/LoRaMacClassB.c ****     }
1442:../../../../../../Middlewares/Third_Party/LoRaWAN/Mac/LoRaMacClassB.c ****     NvmContextChange( );
1443:../../../../../../Middlewares/Third_Party/LoRaWAN/Mac/LoRaMacClassB.c ****     return status;
1444:../../../../../../Middlewares/Third_Party/LoRaWAN/Mac/LoRaMacClassB.c **** #else
1445:../../../../../../Middlewares/Third_Party/LoRaWAN/Mac/LoRaMacClassB.c ****     return LORAMAC_STATUS_SERVICE_UNKNOWN;
1446:../../../../../../Middlewares/Third_Party/LoRaWAN/Mac/LoRaMacClassB.c **** #endif // LORAMAC_CLASSB_ENABLED
1447:../../../../../../Middlewares/Third_Party/LoRaWAN/Mac/LoRaMacClassB.c **** }
1448:../../../../../../Middlewares/Third_Party/LoRaWAN/Mac/LoRaMacClassB.c **** 
1449:../../../../../../Middlewares/Third_Party/LoRaWAN/Mac/LoRaMacClassB.c **** void LoRaMacClassBPingSlotInfoAns( void )
1450:../../../../../../Middlewares/Third_Party/LoRaWAN/Mac/LoRaMacClassB.c **** {
1451:../../../../../../Middlewares/Third_Party/LoRaWAN/Mac/LoRaMacClassB.c **** #ifdef LORAMAC_CLASSB_ENABLED
1452:../../../../../../Middlewares/Third_Party/LoRaWAN/Mac/LoRaMacClassB.c ****     if( LoRaMacConfirmQueueIsCmdActive( MLME_PING_SLOT_INFO ) == true )
1453:../../../../../../Middlewares/Third_Party/LoRaWAN/Mac/LoRaMacClassB.c ****     {
1454:../../../../../../Middlewares/Third_Party/LoRaWAN/Mac/LoRaMacClassB.c ****         LoRaMacConfirmQueueSetStatus( LORAMAC_EVENT_INFO_STATUS_OK, MLME_PING_SLOT_INFO );
1455:../../../../../../Middlewares/Third_Party/LoRaWAN/Mac/LoRaMacClassB.c ****         Ctx.NvmCtx->PingSlotCtx.Ctrl.Assigned = 1;
1456:../../../../../../Middlewares/Third_Party/LoRaWAN/Mac/LoRaMacClassB.c ****     }
1457:../../../../../../Middlewares/Third_Party/LoRaWAN/Mac/LoRaMacClassB.c **** #endif // LORAMAC_CLASSB_ENABLED
1458:../../../../../../Middlewares/Third_Party/LoRaWAN/Mac/LoRaMacClassB.c **** }
ARM GAS  C:\Users\EBANO_~1\AppData\Local\Temp\ccis3phW.s 			page 36


1459:../../../../../../Middlewares/Third_Party/LoRaWAN/Mac/LoRaMacClassB.c **** 
1460:../../../../../../Middlewares/Third_Party/LoRaWAN/Mac/LoRaMacClassB.c **** uint8_t LoRaMacClassBPingSlotChannelReq( uint8_t datarate, uint32_t frequency )
1461:../../../../../../Middlewares/Third_Party/LoRaWAN/Mac/LoRaMacClassB.c **** {
 537              		.loc 1 1461 0
 538              		.cfi_startproc
 539              		@ args = 0, pretend = 0, frame = 0
 540              		@ frame_needed = 0, uses_anonymous_args = 0
 541              		@ link register save eliminated.
 542              	.LVL13:
1462:../../../../../../Middlewares/Third_Party/LoRaWAN/Mac/LoRaMacClassB.c **** #ifdef LORAMAC_CLASSB_ENABLED
1463:../../../../../../Middlewares/Third_Party/LoRaWAN/Mac/LoRaMacClassB.c ****     uint8_t status = 0x03;
1464:../../../../../../Middlewares/Third_Party/LoRaWAN/Mac/LoRaMacClassB.c ****     VerifyParams_t verify;
1465:../../../../../../Middlewares/Third_Party/LoRaWAN/Mac/LoRaMacClassB.c ****     bool isCustomFreq = false;
1466:../../../../../../Middlewares/Third_Party/LoRaWAN/Mac/LoRaMacClassB.c **** 
1467:../../../../../../Middlewares/Third_Party/LoRaWAN/Mac/LoRaMacClassB.c ****     if( frequency != 0 )
1468:../../../../../../Middlewares/Third_Party/LoRaWAN/Mac/LoRaMacClassB.c ****     {
1469:../../../../../../Middlewares/Third_Party/LoRaWAN/Mac/LoRaMacClassB.c ****         isCustomFreq = true;
1470:../../../../../../Middlewares/Third_Party/LoRaWAN/Mac/LoRaMacClassB.c ****         if( Radio.CheckRfFrequency( frequency ) == false )
1471:../../../../../../Middlewares/Third_Party/LoRaWAN/Mac/LoRaMacClassB.c ****         {
1472:../../../../../../Middlewares/Third_Party/LoRaWAN/Mac/LoRaMacClassB.c ****             status &= 0xFE; // Channel frequency KO
1473:../../../../../../Middlewares/Third_Party/LoRaWAN/Mac/LoRaMacClassB.c ****         }
1474:../../../../../../Middlewares/Third_Party/LoRaWAN/Mac/LoRaMacClassB.c ****     }
1475:../../../../../../Middlewares/Third_Party/LoRaWAN/Mac/LoRaMacClassB.c **** 
1476:../../../../../../Middlewares/Third_Party/LoRaWAN/Mac/LoRaMacClassB.c ****     verify.DatarateParams.Datarate = datarate;
1477:../../../../../../Middlewares/Third_Party/LoRaWAN/Mac/LoRaMacClassB.c ****     verify.DatarateParams.DownlinkDwellTime = Ctx.LoRaMacClassBParams.LoRaMacParams->DownlinkDwellT
1478:../../../../../../Middlewares/Third_Party/LoRaWAN/Mac/LoRaMacClassB.c **** 
1479:../../../../../../Middlewares/Third_Party/LoRaWAN/Mac/LoRaMacClassB.c ****     if( RegionVerify( *Ctx.LoRaMacClassBParams.LoRaMacRegion, &verify, PHY_RX_DR ) == false )
1480:../../../../../../Middlewares/Third_Party/LoRaWAN/Mac/LoRaMacClassB.c ****     {
1481:../../../../../../Middlewares/Third_Party/LoRaWAN/Mac/LoRaMacClassB.c ****         status &= 0xFD; // Datarate range KO
1482:../../../../../../Middlewares/Third_Party/LoRaWAN/Mac/LoRaMacClassB.c ****     }
1483:../../../../../../Middlewares/Third_Party/LoRaWAN/Mac/LoRaMacClassB.c **** 
1484:../../../../../../Middlewares/Third_Party/LoRaWAN/Mac/LoRaMacClassB.c ****     if( status == 0x03 )
1485:../../../../../../Middlewares/Third_Party/LoRaWAN/Mac/LoRaMacClassB.c ****     {
1486:../../../../../../Middlewares/Third_Party/LoRaWAN/Mac/LoRaMacClassB.c ****         if( isCustomFreq == true )
1487:../../../../../../Middlewares/Third_Party/LoRaWAN/Mac/LoRaMacClassB.c ****         {
1488:../../../../../../Middlewares/Third_Party/LoRaWAN/Mac/LoRaMacClassB.c ****             Ctx.NvmCtx->PingSlotCtx.Ctrl.CustomFreq = 1;
1489:../../../../../../Middlewares/Third_Party/LoRaWAN/Mac/LoRaMacClassB.c ****             Ctx.NvmCtx->PingSlotCtx.Frequency = frequency;
1490:../../../../../../Middlewares/Third_Party/LoRaWAN/Mac/LoRaMacClassB.c ****         }
1491:../../../../../../Middlewares/Third_Party/LoRaWAN/Mac/LoRaMacClassB.c ****         else
1492:../../../../../../Middlewares/Third_Party/LoRaWAN/Mac/LoRaMacClassB.c ****         {
1493:../../../../../../Middlewares/Third_Party/LoRaWAN/Mac/LoRaMacClassB.c ****             Ctx.NvmCtx->PingSlotCtx.Ctrl.CustomFreq = 0;
1494:../../../../../../Middlewares/Third_Party/LoRaWAN/Mac/LoRaMacClassB.c ****             Ctx.NvmCtx->PingSlotCtx.Frequency = 0;
1495:../../../../../../Middlewares/Third_Party/LoRaWAN/Mac/LoRaMacClassB.c ****         }
1496:../../../../../../Middlewares/Third_Party/LoRaWAN/Mac/LoRaMacClassB.c ****         Ctx.NvmCtx->PingSlotCtx.Datarate = datarate;
1497:../../../../../../Middlewares/Third_Party/LoRaWAN/Mac/LoRaMacClassB.c ****         NvmContextChange( );
1498:../../../../../../Middlewares/Third_Party/LoRaWAN/Mac/LoRaMacClassB.c ****     }
1499:../../../../../../Middlewares/Third_Party/LoRaWAN/Mac/LoRaMacClassB.c **** 
1500:../../../../../../Middlewares/Third_Party/LoRaWAN/Mac/LoRaMacClassB.c ****     return status;
1501:../../../../../../Middlewares/Third_Party/LoRaWAN/Mac/LoRaMacClassB.c **** #else
1502:../../../../../../Middlewares/Third_Party/LoRaWAN/Mac/LoRaMacClassB.c ****     return 0;
1503:../../../../../../Middlewares/Third_Party/LoRaWAN/Mac/LoRaMacClassB.c **** #endif // LORAMAC_CLASSB_ENABLED
1504:../../../../../../Middlewares/Third_Party/LoRaWAN/Mac/LoRaMacClassB.c **** }
 543              		.loc 1 1504 0
 544 0000 0020     		movs	r0, #0
 545              	.LVL14:
 546              		@ sp needed
 547 0002 7047     		bx	lr
ARM GAS  C:\Users\EBANO_~1\AppData\Local\Temp\ccis3phW.s 			page 37


 548              		.cfi_endproc
 549              	.LFE62:
 550              		.size	LoRaMacClassBPingSlotChannelReq, .-LoRaMacClassBPingSlotChannelReq
 551              		.section	.text.LoRaMacClassBBeaconTimingAns,"ax",%progbits
 552              		.align	1
 553              		.p2align 2,,3
 554              		.global	LoRaMacClassBBeaconTimingAns
 555              		.syntax unified
 556              		.code	16
 557              		.thumb_func
 558              		.fpu softvfp
 559              		.type	LoRaMacClassBBeaconTimingAns, %function
 560              	LoRaMacClassBBeaconTimingAns:
 561              	.LFB63:
1505:../../../../../../Middlewares/Third_Party/LoRaWAN/Mac/LoRaMacClassB.c **** 
1506:../../../../../../Middlewares/Third_Party/LoRaWAN/Mac/LoRaMacClassB.c **** void LoRaMacClassBBeaconTimingAns( uint16_t beaconTimingDelay, uint8_t beaconTimingChannel, TimerTi
1507:../../../../../../Middlewares/Third_Party/LoRaWAN/Mac/LoRaMacClassB.c **** {
 562              		.loc 1 1507 0
 563              		.cfi_startproc
 564              		@ args = 0, pretend = 0, frame = 0
 565              		@ frame_needed = 0, uses_anonymous_args = 0
 566              		@ link register save eliminated.
 567              	.LVL15:
1508:../../../../../../Middlewares/Third_Party/LoRaWAN/Mac/LoRaMacClassB.c **** #ifdef LORAMAC_CLASSB_ENABLED
1509:../../../../../../Middlewares/Third_Party/LoRaWAN/Mac/LoRaMacClassB.c ****     Ctx.NvmCtx->BeaconCtx.BeaconTimingDelay = ( CLASSB_BEACON_DELAY_BEACON_TIMING_ANS * beaconTimin
1510:../../../../../../Middlewares/Third_Party/LoRaWAN/Mac/LoRaMacClassB.c ****     Ctx.NvmCtx->BeaconCtx.BeaconTimingChannel = beaconTimingChannel;
1511:../../../../../../Middlewares/Third_Party/LoRaWAN/Mac/LoRaMacClassB.c **** 
1512:../../../../../../Middlewares/Third_Party/LoRaWAN/Mac/LoRaMacClassB.c ****     if( LoRaMacConfirmQueueIsCmdActive( MLME_BEACON_TIMING ) == true )
1513:../../../../../../Middlewares/Third_Party/LoRaWAN/Mac/LoRaMacClassB.c ****     {
1514:../../../../../../Middlewares/Third_Party/LoRaWAN/Mac/LoRaMacClassB.c ****         if( Ctx.NvmCtx->BeaconCtx.BeaconTimingDelay > CLASSB_BEACON_INTERVAL )
1515:../../../../../../Middlewares/Third_Party/LoRaWAN/Mac/LoRaMacClassB.c ****         {
1516:../../../../../../Middlewares/Third_Party/LoRaWAN/Mac/LoRaMacClassB.c ****             // We missed the beacon already
1517:../../../../../../Middlewares/Third_Party/LoRaWAN/Mac/LoRaMacClassB.c ****             Ctx.NvmCtx->BeaconCtx.BeaconTimingDelay = 0;
1518:../../../../../../Middlewares/Third_Party/LoRaWAN/Mac/LoRaMacClassB.c ****             Ctx.NvmCtx->BeaconCtx.BeaconTimingChannel = 0;
1519:../../../../../../Middlewares/Third_Party/LoRaWAN/Mac/LoRaMacClassB.c ****             LoRaMacConfirmQueueSetStatus( LORAMAC_EVENT_INFO_STATUS_BEACON_NOT_FOUND, MLME_BEACON_T
1520:../../../../../../Middlewares/Third_Party/LoRaWAN/Mac/LoRaMacClassB.c ****         }
1521:../../../../../../Middlewares/Third_Party/LoRaWAN/Mac/LoRaMacClassB.c ****         else
1522:../../../../../../Middlewares/Third_Party/LoRaWAN/Mac/LoRaMacClassB.c ****         {
1523:../../../../../../Middlewares/Third_Party/LoRaWAN/Mac/LoRaMacClassB.c ****             Ctx.NvmCtx->BeaconCtx.Ctrl.BeaconDelaySet = 1;
1524:../../../../../../Middlewares/Third_Party/LoRaWAN/Mac/LoRaMacClassB.c ****             Ctx.NvmCtx->BeaconCtx.Ctrl.BeaconChannelSet = 1;
1525:../../../../../../Middlewares/Third_Party/LoRaWAN/Mac/LoRaMacClassB.c ****             Ctx.NvmCtx->BeaconCtx.NextBeaconRx = lastRxDone + Ctx.NvmCtx->BeaconCtx.BeaconTimingDel
1526:../../../../../../Middlewares/Third_Party/LoRaWAN/Mac/LoRaMacClassB.c ****             LoRaMacConfirmQueueSetStatus( LORAMAC_EVENT_INFO_STATUS_OK, MLME_BEACON_TIMING );
1527:../../../../../../Middlewares/Third_Party/LoRaWAN/Mac/LoRaMacClassB.c ****         }
1528:../../../../../../Middlewares/Third_Party/LoRaWAN/Mac/LoRaMacClassB.c **** 
1529:../../../../../../Middlewares/Third_Party/LoRaWAN/Mac/LoRaMacClassB.c ****         Ctx.LoRaMacClassBParams.MlmeConfirm->BeaconTimingDelay = Ctx.NvmCtx->BeaconCtx.BeaconTiming
1530:../../../../../../Middlewares/Third_Party/LoRaWAN/Mac/LoRaMacClassB.c ****         Ctx.LoRaMacClassBParams.MlmeConfirm->BeaconTimingChannel = Ctx.NvmCtx->BeaconCtx.BeaconTimi
1531:../../../../../../Middlewares/Third_Party/LoRaWAN/Mac/LoRaMacClassB.c ****     }
1532:../../../../../../Middlewares/Third_Party/LoRaWAN/Mac/LoRaMacClassB.c ****     NvmContextChange( );
1533:../../../../../../Middlewares/Third_Party/LoRaWAN/Mac/LoRaMacClassB.c **** #endif // LORAMAC_CLASSB_ENABLED
1534:../../../../../../Middlewares/Third_Party/LoRaWAN/Mac/LoRaMacClassB.c **** }
 568              		.loc 1 1534 0
 569              		@ sp needed
 570 0000 7047     		bx	lr
 571              		.cfi_endproc
 572              	.LFE63:
 573              		.size	LoRaMacClassBBeaconTimingAns, .-LoRaMacClassBBeaconTimingAns
 574 0002 C046     		.section	.text.LoRaMacClassBDeviceTimeAns,"ax",%progbits
ARM GAS  C:\Users\EBANO_~1\AppData\Local\Temp\ccis3phW.s 			page 38


 575              		.align	1
 576              		.p2align 2,,3
 577              		.global	LoRaMacClassBDeviceTimeAns
 578              		.syntax unified
 579              		.code	16
 580              		.thumb_func
 581              		.fpu softvfp
 582              		.type	LoRaMacClassBDeviceTimeAns, %function
 583              	LoRaMacClassBDeviceTimeAns:
 584              	.LFB98:
 585              		.cfi_startproc
 586              		@ args = 0, pretend = 0, frame = 0
 587              		@ frame_needed = 0, uses_anonymous_args = 0
 588              		@ link register save eliminated.
 589              		@ sp needed
 590 0000 7047     		bx	lr
 591              		.cfi_endproc
 592              	.LFE98:
 593              		.size	LoRaMacClassBDeviceTimeAns, .-LoRaMacClassBDeviceTimeAns
 594 0002 C046     		.section	.text.LoRaMacClassBBeaconFreqReq,"ax",%progbits
 595              		.align	1
 596              		.p2align 2,,3
 597              		.global	LoRaMacClassBBeaconFreqReq
 598              		.syntax unified
 599              		.code	16
 600              		.thumb_func
 601              		.fpu softvfp
 602              		.type	LoRaMacClassBBeaconFreqReq, %function
 603              	LoRaMacClassBBeaconFreqReq:
 604              	.LFB65:
1535:../../../../../../Middlewares/Third_Party/LoRaWAN/Mac/LoRaMacClassB.c **** 
1536:../../../../../../Middlewares/Third_Party/LoRaWAN/Mac/LoRaMacClassB.c **** void LoRaMacClassBDeviceTimeAns( void )
1537:../../../../../../Middlewares/Third_Party/LoRaWAN/Mac/LoRaMacClassB.c **** {
1538:../../../../../../Middlewares/Third_Party/LoRaWAN/Mac/LoRaMacClassB.c **** #ifdef LORAMAC_CLASSB_ENABLED
1539:../../../../../../Middlewares/Third_Party/LoRaWAN/Mac/LoRaMacClassB.c **** 
1540:../../../../../../Middlewares/Third_Party/LoRaWAN/Mac/LoRaMacClassB.c ****     SysTime_t nextBeacon = SysTimeGet( );
1541:../../../../../../Middlewares/Third_Party/LoRaWAN/Mac/LoRaMacClassB.c ****     uint32_t currentTimeMs = SysTime2Ms( nextBeacon );
1542:../../../../../../Middlewares/Third_Party/LoRaWAN/Mac/LoRaMacClassB.c **** 
1543:../../../../../../Middlewares/Third_Party/LoRaWAN/Mac/LoRaMacClassB.c ****     nextBeacon.Seconds = nextBeacon.Seconds + ( 128 - ( nextBeacon.Seconds % 128 ) );
1544:../../../../../../Middlewares/Third_Party/LoRaWAN/Mac/LoRaMacClassB.c **** 
1545:../../../../../../Middlewares/Third_Party/LoRaWAN/Mac/LoRaMacClassB.c ****     Ctx.NvmCtx->BeaconCtx.NextBeaconRx = SysTime2Ms( nextBeacon );
1546:../../../../../../Middlewares/Third_Party/LoRaWAN/Mac/LoRaMacClassB.c ****     if( Ctx.NvmCtx->BeaconCtx.NextBeaconRx > CLASSB_BEACON_INTERVAL )
1547:../../../../../../Middlewares/Third_Party/LoRaWAN/Mac/LoRaMacClassB.c ****     {
1548:../../../../../../Middlewares/Third_Party/LoRaWAN/Mac/LoRaMacClassB.c ****         Ctx.NvmCtx->BeaconCtx.LastBeaconRx = Ctx.NvmCtx->BeaconCtx.NextBeaconRx - CLASSB_BEACON_INT
1549:../../../../../../Middlewares/Third_Party/LoRaWAN/Mac/LoRaMacClassB.c ****     }
1550:../../../../../../Middlewares/Third_Party/LoRaWAN/Mac/LoRaMacClassB.c ****     else
1551:../../../../../../Middlewares/Third_Party/LoRaWAN/Mac/LoRaMacClassB.c ****     {
1552:../../../../../../Middlewares/Third_Party/LoRaWAN/Mac/LoRaMacClassB.c ****         Ctx.NvmCtx->BeaconCtx.LastBeaconRx = 0;
1553:../../../../../../Middlewares/Third_Party/LoRaWAN/Mac/LoRaMacClassB.c ****     }
1554:../../../../../../Middlewares/Third_Party/LoRaWAN/Mac/LoRaMacClassB.c **** 
1555:../../../../../../Middlewares/Third_Party/LoRaWAN/Mac/LoRaMacClassB.c ****     if( LoRaMacConfirmQueueIsCmdActive( MLME_DEVICE_TIME ) == true )
1556:../../../../../../Middlewares/Third_Party/LoRaWAN/Mac/LoRaMacClassB.c ****     {
1557:../../../../../../Middlewares/Third_Party/LoRaWAN/Mac/LoRaMacClassB.c ****         if( currentTimeMs > Ctx.NvmCtx->BeaconCtx.NextBeaconRx )
1558:../../../../../../Middlewares/Third_Party/LoRaWAN/Mac/LoRaMacClassB.c ****         {
1559:../../../../../../Middlewares/Third_Party/LoRaWAN/Mac/LoRaMacClassB.c ****             // We missed the beacon already
1560:../../../../../../Middlewares/Third_Party/LoRaWAN/Mac/LoRaMacClassB.c ****             Ctx.NvmCtx->BeaconCtx.LastBeaconRx = 0;
1561:../../../../../../Middlewares/Third_Party/LoRaWAN/Mac/LoRaMacClassB.c ****             Ctx.NvmCtx->BeaconCtx.NextBeaconRx = 0;
ARM GAS  C:\Users\EBANO_~1\AppData\Local\Temp\ccis3phW.s 			page 39


1562:../../../../../../Middlewares/Third_Party/LoRaWAN/Mac/LoRaMacClassB.c ****             LoRaMacConfirmQueueSetStatus( LORAMAC_EVENT_INFO_STATUS_BEACON_NOT_FOUND, MLME_DEVICE_T
1563:../../../../../../Middlewares/Third_Party/LoRaWAN/Mac/LoRaMacClassB.c ****         }
1564:../../../../../../Middlewares/Third_Party/LoRaWAN/Mac/LoRaMacClassB.c ****         else
1565:../../../../../../Middlewares/Third_Party/LoRaWAN/Mac/LoRaMacClassB.c ****         {
1566:../../../../../../Middlewares/Third_Party/LoRaWAN/Mac/LoRaMacClassB.c ****             Ctx.NvmCtx->BeaconCtx.Ctrl.BeaconDelaySet = 1;
1567:../../../../../../Middlewares/Third_Party/LoRaWAN/Mac/LoRaMacClassB.c ****             Ctx.NvmCtx->BeaconCtx.BeaconTimingDelay = Ctx.NvmCtx->BeaconCtx.NextBeaconRx - currentT
1568:../../../../../../Middlewares/Third_Party/LoRaWAN/Mac/LoRaMacClassB.c ****             Ctx.NvmCtx->BeaconCtx.BeaconTime = nextBeacon.Seconds - UNIX_GPS_EPOCH_OFFSET - 128;
1569:../../../../../../Middlewares/Third_Party/LoRaWAN/Mac/LoRaMacClassB.c ****             LoRaMacConfirmQueueSetStatus( LORAMAC_EVENT_INFO_STATUS_OK, MLME_DEVICE_TIME );
1570:../../../../../../Middlewares/Third_Party/LoRaWAN/Mac/LoRaMacClassB.c ****         }
1571:../../../../../../Middlewares/Third_Party/LoRaWAN/Mac/LoRaMacClassB.c ****     }
1572:../../../../../../Middlewares/Third_Party/LoRaWAN/Mac/LoRaMacClassB.c **** 
1573:../../../../../../Middlewares/Third_Party/LoRaWAN/Mac/LoRaMacClassB.c ****     NvmContextChange( );
1574:../../../../../../Middlewares/Third_Party/LoRaWAN/Mac/LoRaMacClassB.c **** #endif // LORAMAC_CLASSB_ENABLED
1575:../../../../../../Middlewares/Third_Party/LoRaWAN/Mac/LoRaMacClassB.c **** }
1576:../../../../../../Middlewares/Third_Party/LoRaWAN/Mac/LoRaMacClassB.c **** 
1577:../../../../../../Middlewares/Third_Party/LoRaWAN/Mac/LoRaMacClassB.c **** bool LoRaMacClassBBeaconFreqReq( uint32_t frequency )
1578:../../../../../../Middlewares/Third_Party/LoRaWAN/Mac/LoRaMacClassB.c **** {
 605              		.loc 1 1578 0
 606              		.cfi_startproc
 607              		@ args = 0, pretend = 0, frame = 0
 608              		@ frame_needed = 0, uses_anonymous_args = 0
 609              		@ link register save eliminated.
 610              	.LVL16:
1579:../../../../../../Middlewares/Third_Party/LoRaWAN/Mac/LoRaMacClassB.c **** #ifdef LORAMAC_CLASSB_ENABLED
1580:../../../../../../Middlewares/Third_Party/LoRaWAN/Mac/LoRaMacClassB.c ****     if( frequency != 0 )
1581:../../../../../../Middlewares/Third_Party/LoRaWAN/Mac/LoRaMacClassB.c ****     {
1582:../../../../../../Middlewares/Third_Party/LoRaWAN/Mac/LoRaMacClassB.c ****         if( Radio.CheckRfFrequency( frequency ) == true )
1583:../../../../../../Middlewares/Third_Party/LoRaWAN/Mac/LoRaMacClassB.c ****         {
1584:../../../../../../Middlewares/Third_Party/LoRaWAN/Mac/LoRaMacClassB.c ****             Ctx.NvmCtx->BeaconCtx.Ctrl.CustomFreq = 1;
1585:../../../../../../Middlewares/Third_Party/LoRaWAN/Mac/LoRaMacClassB.c ****             Ctx.NvmCtx->BeaconCtx.Frequency = frequency;
1586:../../../../../../Middlewares/Third_Party/LoRaWAN/Mac/LoRaMacClassB.c ****             return true;
1587:../../../../../../Middlewares/Third_Party/LoRaWAN/Mac/LoRaMacClassB.c ****         }
1588:../../../../../../Middlewares/Third_Party/LoRaWAN/Mac/LoRaMacClassB.c ****     }
1589:../../../../../../Middlewares/Third_Party/LoRaWAN/Mac/LoRaMacClassB.c ****     else
1590:../../../../../../Middlewares/Third_Party/LoRaWAN/Mac/LoRaMacClassB.c ****     {
1591:../../../../../../Middlewares/Third_Party/LoRaWAN/Mac/LoRaMacClassB.c ****         Ctx.NvmCtx->BeaconCtx.Ctrl.CustomFreq = 0;
1592:../../../../../../Middlewares/Third_Party/LoRaWAN/Mac/LoRaMacClassB.c ****         return true;
1593:../../../../../../Middlewares/Third_Party/LoRaWAN/Mac/LoRaMacClassB.c ****     }
1594:../../../../../../Middlewares/Third_Party/LoRaWAN/Mac/LoRaMacClassB.c ****     NvmContextChange( );
1595:../../../../../../Middlewares/Third_Party/LoRaWAN/Mac/LoRaMacClassB.c ****     return false;
1596:../../../../../../Middlewares/Third_Party/LoRaWAN/Mac/LoRaMacClassB.c **** #else
1597:../../../../../../Middlewares/Third_Party/LoRaWAN/Mac/LoRaMacClassB.c ****     return false;
1598:../../../../../../Middlewares/Third_Party/LoRaWAN/Mac/LoRaMacClassB.c **** #endif // LORAMAC_CLASSB_ENABLED
1599:../../../../../../Middlewares/Third_Party/LoRaWAN/Mac/LoRaMacClassB.c **** }
 611              		.loc 1 1599 0
 612 0000 0020     		movs	r0, #0
 613              	.LVL17:
 614              		@ sp needed
 615 0002 7047     		bx	lr
 616              		.cfi_endproc
 617              	.LFE65:
 618              		.size	LoRaMacClassBBeaconFreqReq, .-LoRaMacClassBBeaconFreqReq
 619              		.section	.text.LoRaMacClassBIsUplinkCollision,"ax",%progbits
 620              		.align	1
 621              		.p2align 2,,3
 622              		.global	LoRaMacClassBIsUplinkCollision
 623              		.syntax unified
ARM GAS  C:\Users\EBANO_~1\AppData\Local\Temp\ccis3phW.s 			page 40


 624              		.code	16
 625              		.thumb_func
 626              		.fpu softvfp
 627              		.type	LoRaMacClassBIsUplinkCollision, %function
 628              	LoRaMacClassBIsUplinkCollision:
 629              	.LFB66:
1600:../../../../../../Middlewares/Third_Party/LoRaWAN/Mac/LoRaMacClassB.c **** 
1601:../../../../../../Middlewares/Third_Party/LoRaWAN/Mac/LoRaMacClassB.c **** TimerTime_t LoRaMacClassBIsUplinkCollision( TimerTime_t txTimeOnAir )
1602:../../../../../../Middlewares/Third_Party/LoRaWAN/Mac/LoRaMacClassB.c **** {
 630              		.loc 1 1602 0
 631              		.cfi_startproc
 632              		@ args = 0, pretend = 0, frame = 0
 633              		@ frame_needed = 0, uses_anonymous_args = 0
 634              		@ link register save eliminated.
 635              	.LVL18:
1603:../../../../../../Middlewares/Third_Party/LoRaWAN/Mac/LoRaMacClassB.c **** #ifdef LORAMAC_CLASSB_ENABLED
1604:../../../../../../Middlewares/Third_Party/LoRaWAN/Mac/LoRaMacClassB.c ****     TimerTime_t currentTime = TimerGetCurrentTime( );
1605:../../../../../../Middlewares/Third_Party/LoRaWAN/Mac/LoRaMacClassB.c ****     TimerTime_t beaconReserved = 0;
1606:../../../../../../Middlewares/Third_Party/LoRaWAN/Mac/LoRaMacClassB.c **** 
1607:../../../../../../Middlewares/Third_Party/LoRaWAN/Mac/LoRaMacClassB.c ****     beaconReserved = Ctx.NvmCtx->BeaconCtx.NextBeaconRx -
1608:../../../../../../Middlewares/Third_Party/LoRaWAN/Mac/LoRaMacClassB.c ****                      CLASSB_BEACON_GUARD -
1609:../../../../../../Middlewares/Third_Party/LoRaWAN/Mac/LoRaMacClassB.c ****                      Ctx.LoRaMacClassBParams.LoRaMacParams->ReceiveDelay1 -
1610:../../../../../../Middlewares/Third_Party/LoRaWAN/Mac/LoRaMacClassB.c ****                      Ctx.LoRaMacClassBParams.LoRaMacParams->ReceiveDelay2 -
1611:../../../../../../Middlewares/Third_Party/LoRaWAN/Mac/LoRaMacClassB.c ****                      txTimeOnAir;
1612:../../../../../../Middlewares/Third_Party/LoRaWAN/Mac/LoRaMacClassB.c **** 
1613:../../../../../../Middlewares/Third_Party/LoRaWAN/Mac/LoRaMacClassB.c ****     // Check if the next beacon will be received during the next uplink.
1614:../../../../../../Middlewares/Third_Party/LoRaWAN/Mac/LoRaMacClassB.c ****     if( ( currentTime >= beaconReserved ) && ( currentTime < ( Ctx.NvmCtx->BeaconCtx.NextBeaconRx +
1615:../../../../../../Middlewares/Third_Party/LoRaWAN/Mac/LoRaMacClassB.c ****     {// Next beacon will be sent during the next uplink.
1616:../../../../../../Middlewares/Third_Party/LoRaWAN/Mac/LoRaMacClassB.c ****         return CLASSB_BEACON_RESERVED;
1617:../../../../../../Middlewares/Third_Party/LoRaWAN/Mac/LoRaMacClassB.c ****     }
1618:../../../../../../Middlewares/Third_Party/LoRaWAN/Mac/LoRaMacClassB.c ****     return 0;
1619:../../../../../../Middlewares/Third_Party/LoRaWAN/Mac/LoRaMacClassB.c **** #else
1620:../../../../../../Middlewares/Third_Party/LoRaWAN/Mac/LoRaMacClassB.c ****     return 0;
1621:../../../../../../Middlewares/Third_Party/LoRaWAN/Mac/LoRaMacClassB.c **** #endif // LORAMAC_CLASSB_ENABLED
1622:../../../../../../Middlewares/Third_Party/LoRaWAN/Mac/LoRaMacClassB.c **** }
 636              		.loc 1 1622 0
 637 0000 0020     		movs	r0, #0
 638              	.LVL19:
 639              		@ sp needed
 640 0002 7047     		bx	lr
 641              		.cfi_endproc
 642              	.LFE66:
 643              		.size	LoRaMacClassBIsUplinkCollision, .-LoRaMacClassBIsUplinkCollision
 644              		.section	.text.LoRaMacClassBStopRxSlots,"ax",%progbits
 645              		.align	1
 646              		.p2align 2,,3
 647              		.global	LoRaMacClassBStopRxSlots
 648              		.syntax unified
 649              		.code	16
 650              		.thumb_func
 651              		.fpu softvfp
 652              		.type	LoRaMacClassBStopRxSlots, %function
 653              	LoRaMacClassBStopRxSlots:
 654              	.LFB100:
 655              		.cfi_startproc
 656              		@ args = 0, pretend = 0, frame = 0
 657              		@ frame_needed = 0, uses_anonymous_args = 0
ARM GAS  C:\Users\EBANO_~1\AppData\Local\Temp\ccis3phW.s 			page 41


 658              		@ link register save eliminated.
 659              		@ sp needed
 660 0000 7047     		bx	lr
 661              		.cfi_endproc
 662              	.LFE100:
 663              		.size	LoRaMacClassBStopRxSlots, .-LoRaMacClassBStopRxSlots
 664 0002 C046     		.section	.text.LoRaMacClassBStartRxSlots,"ax",%progbits
 665              		.align	1
 666              		.p2align 2,,3
 667              		.global	LoRaMacClassBStartRxSlots
 668              		.syntax unified
 669              		.code	16
 670              		.thumb_func
 671              		.fpu softvfp
 672              		.type	LoRaMacClassBStartRxSlots, %function
 673              	LoRaMacClassBStartRxSlots:
 674              	.LFB102:
 675              		.cfi_startproc
 676              		@ args = 0, pretend = 0, frame = 0
 677              		@ frame_needed = 0, uses_anonymous_args = 0
 678              		@ link register save eliminated.
 679              		@ sp needed
 680 0000 7047     		bx	lr
 681              		.cfi_endproc
 682              	.LFE102:
 683              		.size	LoRaMacClassBStartRxSlots, .-LoRaMacClassBStartRxSlots
 684 0002 C046     		.section	.text.LoRaMacClassBSetMulticastPeriodicity,"ax",%progbits
 685              		.align	1
 686              		.p2align 2,,3
 687              		.global	LoRaMacClassBSetMulticastPeriodicity
 688              		.syntax unified
 689              		.code	16
 690              		.thumb_func
 691              		.fpu softvfp
 692              		.type	LoRaMacClassBSetMulticastPeriodicity, %function
 693              	LoRaMacClassBSetMulticastPeriodicity:
 694              	.LFB82:
 695              		.cfi_startproc
 696              		@ args = 0, pretend = 0, frame = 0
 697              		@ frame_needed = 0, uses_anonymous_args = 0
 698              		@ link register save eliminated.
 699              		@ sp needed
 700 0000 7047     		bx	lr
 701              		.cfi_endproc
 702              	.LFE82:
 703              		.size	LoRaMacClassBSetMulticastPeriodicity, .-LoRaMacClassBSetMulticastPeriodicity
 704 0002 C046     		.section	.text.LoRaMacClassBProcess,"ax",%progbits
 705              		.align	1
 706              		.p2align 2,,3
 707              		.global	LoRaMacClassBProcess
 708              		.syntax unified
 709              		.code	16
 710              		.thumb_func
 711              		.fpu softvfp
 712              		.type	LoRaMacClassBProcess, %function
 713              	LoRaMacClassBProcess:
 714              	.LFB104:
ARM GAS  C:\Users\EBANO_~1\AppData\Local\Temp\ccis3phW.s 			page 42


 715              		.cfi_startproc
 716              		@ args = 0, pretend = 0, frame = 0
 717              		@ frame_needed = 0, uses_anonymous_args = 0
 718              		@ link register save eliminated.
 719              		@ sp needed
 720 0000 7047     		bx	lr
 721              		.cfi_endproc
 722              	.LFE104:
 723              		.size	LoRaMacClassBProcess, .-LoRaMacClassBProcess
 724 0002 C046     		.text
 725              	.Letext0:
 726              		.file 2 "c:\\program files (x86)\\gnu tools arm embedded\\7 2018-q2-update\\lib\\gcc\\arm-none-eab
 727              		.file 3 "c:\\program files (x86)\\gnu tools arm embedded\\7 2018-q2-update\\arm-none-eabi\\include
 728              		.file 4 "c:\\program files (x86)\\gnu tools arm embedded\\7 2018-q2-update\\arm-none-eabi\\include
 729              		.file 5 "c:\\program files (x86)\\gnu tools arm embedded\\7 2018-q2-update\\arm-none-eabi\\include
 730              		.file 6 "c:\\program files (x86)\\gnu tools arm embedded\\7 2018-q2-update\\arm-none-eabi\\include
 731              		.file 7 "c:\\program files (x86)\\gnu tools arm embedded\\7 2018-q2-update\\arm-none-eabi\\include
 732              		.file 8 "c:\\program files (x86)\\gnu tools arm embedded\\7 2018-q2-update\\arm-none-eabi\\include
 733              		.file 9 "../../../../../../Drivers/CMSIS/Device/ST/STM32L0xx/Include/system_stm32l0xx.h"
 734              		.file 10 "c:\\program files (x86)\\gnu tools arm embedded\\7 2018-q2-update\\arm-none-eabi\\includ
 735              		.file 11 "../../../../../../Middlewares/Third_Party/LoRaWAN/Utilities/utilities.h"
 736              		.file 12 "../../../../../../Middlewares/Third_Party/LoRaWAN/Mac/LoRaMacTypes.h"
 737              		.file 13 "c:\\program files (x86)\\gnu tools arm embedded\\7 2018-q2-update\\arm-none-eabi\\includ
 738              		.file 14 "../../../../../../Middlewares/Third_Party/LoRaWAN/Phy/radio.h"
 739              		.file 15 "../../../../../../Middlewares/Third_Party/LoRaWAN/Mac/LoRaMac.h"
 740              		.file 16 "../../../../../../Middlewares/Third_Party/LoRaWAN/Mac/LoRaMacClassB.h"