ARM GAS  C:\Users\EBANO_~1\AppData\Local\Temp\ccdt2GJa.s 			page 1


   1              		.cpu cortex-m0plus
   2              		.eabi_attribute 20, 1
   3              		.eabi_attribute 21, 1
   4              		.eabi_attribute 23, 3
   5              		.eabi_attribute 24, 1
   6              		.eabi_attribute 25, 1
   7              		.eabi_attribute 26, 1
   8              		.eabi_attribute 30, 2
   9              		.eabi_attribute 34, 0
  10              		.eabi_attribute 18, 4
  11              		.file	"LoRaMacConfirmQueue.c"
  12              		.text
  13              	.Ltext0:
  14              		.cfi_sections	.debug_frame
  15              		.section	.text.LoRaMacConfirmQueueInit,"ax",%progbits
  16              		.align	1
  17              		.p2align 2,,3
  18              		.global	LoRaMacConfirmQueueInit
  19              		.syntax unified
  20              		.code	16
  21              		.thumb_func
  22              		.fpu softvfp
  23              		.type	LoRaMacConfirmQueueInit, %function
  24              	LoRaMacConfirmQueueInit:
  25              	.LFB42:
  26              		.file 1 "../../../../../../Middlewares/Third_Party/LoRaWAN/Mac/LoRaMacConfirmQueue.c"
   1:../../../../../../Middlewares/Third_Party/LoRaWAN/Mac/LoRaMacConfirmQueue.c **** /*
   2:../../../../../../Middlewares/Third_Party/LoRaWAN/Mac/LoRaMacConfirmQueue.c ****  / _____)             _              | |
   3:../../../../../../Middlewares/Third_Party/LoRaWAN/Mac/LoRaMacConfirmQueue.c **** ( (____  _____ ____ _| |_ _____  ____| |__
   4:../../../../../../Middlewares/Third_Party/LoRaWAN/Mac/LoRaMacConfirmQueue.c ****  \____ \| ___ |    (_   _) ___ |/ ___)  _ \
   5:../../../../../../Middlewares/Third_Party/LoRaWAN/Mac/LoRaMacConfirmQueue.c ****  _____) ) ____| | | || |_| ____( (___| | | |
   6:../../../../../../Middlewares/Third_Party/LoRaWAN/Mac/LoRaMacConfirmQueue.c **** (______/|_____)_|_|_| \__)_____)\____)_| |_|
   7:../../../../../../Middlewares/Third_Party/LoRaWAN/Mac/LoRaMacConfirmQueue.c ****     (C)2013 Semtech
   8:../../../../../../Middlewares/Third_Party/LoRaWAN/Mac/LoRaMacConfirmQueue.c ****  ___ _____ _   ___ _  _____ ___  ___  ___ ___
   9:../../../../../../Middlewares/Third_Party/LoRaWAN/Mac/LoRaMacConfirmQueue.c **** / __|_   _/_\ / __| |/ / __/ _ \| _ \/ __| __|
  10:../../../../../../Middlewares/Third_Party/LoRaWAN/Mac/LoRaMacConfirmQueue.c **** \__ \ | |/ _ \ (__| ' <| _| (_) |   / (__| _|
  11:../../../../../../Middlewares/Third_Party/LoRaWAN/Mac/LoRaMacConfirmQueue.c **** |___/ |_/_/ \_\___|_|\_\_| \___/|_|_\\___|___|
  12:../../../../../../Middlewares/Third_Party/LoRaWAN/Mac/LoRaMacConfirmQueue.c **** embedded.connectivity.solutions===============
  13:../../../../../../Middlewares/Third_Party/LoRaWAN/Mac/LoRaMacConfirmQueue.c **** 
  14:../../../../../../Middlewares/Third_Party/LoRaWAN/Mac/LoRaMacConfirmQueue.c **** Description: LoRa MAC confirm queue implementation
  15:../../../../../../Middlewares/Third_Party/LoRaWAN/Mac/LoRaMacConfirmQueue.c **** 
  16:../../../../../../Middlewares/Third_Party/LoRaWAN/Mac/LoRaMacConfirmQueue.c **** License: Revised BSD License, see LICENSE.TXT file include in the project
  17:../../../../../../Middlewares/Third_Party/LoRaWAN/Mac/LoRaMacConfirmQueue.c **** 
  18:../../../../../../Middlewares/Third_Party/LoRaWAN/Mac/LoRaMacConfirmQueue.c **** Maintainer: Miguel Luis ( Semtech ), Gregory Cristian ( Semtech ) and Daniel Jaeckle ( STACKFORCE )
  19:../../../../../../Middlewares/Third_Party/LoRaWAN/Mac/LoRaMacConfirmQueue.c **** */
  20:../../../../../../Middlewares/Third_Party/LoRaWAN/Mac/LoRaMacConfirmQueue.c **** #include <stdint.h>
  21:../../../../../../Middlewares/Third_Party/LoRaWAN/Mac/LoRaMacConfirmQueue.c **** #include <stdbool.h>
  22:../../../../../../Middlewares/Third_Party/LoRaWAN/Mac/LoRaMacConfirmQueue.c **** #include <stddef.h>
  23:../../../../../../Middlewares/Third_Party/LoRaWAN/Mac/LoRaMacConfirmQueue.c **** 
  24:../../../../../../Middlewares/Third_Party/LoRaWAN/Mac/LoRaMacConfirmQueue.c **** #include "timer.h"
  25:../../../../../../Middlewares/Third_Party/LoRaWAN/Mac/LoRaMacConfirmQueue.c **** #include "utilities.h"
  26:../../../../../../Middlewares/Third_Party/LoRaWAN/Mac/LoRaMacConfirmQueue.c **** #include "LoRaMac.h"
  27:../../../../../../Middlewares/Third_Party/LoRaWAN/Mac/LoRaMacConfirmQueue.c **** #include "LoRaMacConfirmQueue.h"
  28:../../../../../../Middlewares/Third_Party/LoRaWAN/Mac/LoRaMacConfirmQueue.c **** 
  29:../../../../../../Middlewares/Third_Party/LoRaWAN/Mac/LoRaMacConfirmQueue.c **** 
  30:../../../../../../Middlewares/Third_Party/LoRaWAN/Mac/LoRaMacConfirmQueue.c **** /*
  31:../../../../../../Middlewares/Third_Party/LoRaWAN/Mac/LoRaMacConfirmQueue.c ****  * LoRaMac Confirm Queue Context NVM structure
ARM GAS  C:\Users\EBANO_~1\AppData\Local\Temp\ccdt2GJa.s 			page 2


  32:../../../../../../Middlewares/Third_Party/LoRaWAN/Mac/LoRaMacConfirmQueue.c ****  */
  33:../../../../../../Middlewares/Third_Party/LoRaWAN/Mac/LoRaMacConfirmQueue.c **** typedef struct sLoRaMacConfirmQueueNvmCtx
  34:../../../../../../Middlewares/Third_Party/LoRaWAN/Mac/LoRaMacConfirmQueue.c **** {
  35:../../../../../../Middlewares/Third_Party/LoRaWAN/Mac/LoRaMacConfirmQueue.c ****     /*!
  36:../../../../../../Middlewares/Third_Party/LoRaWAN/Mac/LoRaMacConfirmQueue.c ****     * MlmeConfirm queue data structure
  37:../../../../../../Middlewares/Third_Party/LoRaWAN/Mac/LoRaMacConfirmQueue.c ****     */
  38:../../../../../../Middlewares/Third_Party/LoRaWAN/Mac/LoRaMacConfirmQueue.c ****     MlmeConfirmQueue_t MlmeConfirmQueue[LORA_MAC_MLME_CONFIRM_QUEUE_LEN];
  39:../../../../../../Middlewares/Third_Party/LoRaWAN/Mac/LoRaMacConfirmQueue.c ****     /*!
  40:../../../../../../Middlewares/Third_Party/LoRaWAN/Mac/LoRaMacConfirmQueue.c ****     * Counts the number of MlmeConfirms to process
  41:../../../../../../Middlewares/Third_Party/LoRaWAN/Mac/LoRaMacConfirmQueue.c ****     */
  42:../../../../../../Middlewares/Third_Party/LoRaWAN/Mac/LoRaMacConfirmQueue.c ****     uint8_t MlmeConfirmQueueCnt;
  43:../../../../../../Middlewares/Third_Party/LoRaWAN/Mac/LoRaMacConfirmQueue.c ****     /*!
  44:../../../../../../Middlewares/Third_Party/LoRaWAN/Mac/LoRaMacConfirmQueue.c ****     * Variable which holds a common status
  45:../../../../../../Middlewares/Third_Party/LoRaWAN/Mac/LoRaMacConfirmQueue.c ****     */
  46:../../../../../../Middlewares/Third_Party/LoRaWAN/Mac/LoRaMacConfirmQueue.c ****     LoRaMacEventInfoStatus_t CommonStatus;
  47:../../../../../../Middlewares/Third_Party/LoRaWAN/Mac/LoRaMacConfirmQueue.c **** } LoRaMacConfirmQueueNvmCtx_t;
  48:../../../../../../Middlewares/Third_Party/LoRaWAN/Mac/LoRaMacConfirmQueue.c **** 
  49:../../../../../../Middlewares/Third_Party/LoRaWAN/Mac/LoRaMacConfirmQueue.c **** /*
  50:../../../../../../Middlewares/Third_Party/LoRaWAN/Mac/LoRaMacConfirmQueue.c ****  * LoRaMac Confirm Queue Context structure
  51:../../../../../../Middlewares/Third_Party/LoRaWAN/Mac/LoRaMacConfirmQueue.c ****  */
  52:../../../../../../Middlewares/Third_Party/LoRaWAN/Mac/LoRaMacConfirmQueue.c **** typedef struct sLoRaMacConfirmQueueCtx
  53:../../../../../../Middlewares/Third_Party/LoRaWAN/Mac/LoRaMacConfirmQueue.c **** {
  54:../../../../../../Middlewares/Third_Party/LoRaWAN/Mac/LoRaMacConfirmQueue.c ****     /*!
  55:../../../../../../Middlewares/Third_Party/LoRaWAN/Mac/LoRaMacConfirmQueue.c ****     * LoRaMac callback function primitives
  56:../../../../../../Middlewares/Third_Party/LoRaWAN/Mac/LoRaMacConfirmQueue.c ****     */
  57:../../../../../../Middlewares/Third_Party/LoRaWAN/Mac/LoRaMacConfirmQueue.c ****     LoRaMacPrimitives_t* Primitives;
  58:../../../../../../Middlewares/Third_Party/LoRaWAN/Mac/LoRaMacConfirmQueue.c ****     /*!
  59:../../../../../../Middlewares/Third_Party/LoRaWAN/Mac/LoRaMacConfirmQueue.c ****     * Pointer to the first element of the ring buffer
  60:../../../../../../Middlewares/Third_Party/LoRaWAN/Mac/LoRaMacConfirmQueue.c ****     */
  61:../../../../../../Middlewares/Third_Party/LoRaWAN/Mac/LoRaMacConfirmQueue.c ****     MlmeConfirmQueue_t* BufferStart;
  62:../../../../../../Middlewares/Third_Party/LoRaWAN/Mac/LoRaMacConfirmQueue.c ****     /*!
  63:../../../../../../Middlewares/Third_Party/LoRaWAN/Mac/LoRaMacConfirmQueue.c ****     * Pointer to the last element of the ring buffer
  64:../../../../../../Middlewares/Third_Party/LoRaWAN/Mac/LoRaMacConfirmQueue.c ****     */
  65:../../../../../../Middlewares/Third_Party/LoRaWAN/Mac/LoRaMacConfirmQueue.c ****     MlmeConfirmQueue_t* BufferEnd;
  66:../../../../../../Middlewares/Third_Party/LoRaWAN/Mac/LoRaMacConfirmQueue.c ****     /*
  67:../../../../../../Middlewares/Third_Party/LoRaWAN/Mac/LoRaMacConfirmQueue.c ****      * Callback function to notify the upper layer about context change
  68:../../../../../../Middlewares/Third_Party/LoRaWAN/Mac/LoRaMacConfirmQueue.c ****      */
  69:../../../../../../Middlewares/Third_Party/LoRaWAN/Mac/LoRaMacConfirmQueue.c ****     EventNvmCtxChanged EventNvmCtxChanged;
  70:../../../../../../Middlewares/Third_Party/LoRaWAN/Mac/LoRaMacConfirmQueue.c ****     /*!
  71:../../../../../../Middlewares/Third_Party/LoRaWAN/Mac/LoRaMacConfirmQueue.c ****     * Non-volatile module context.
  72:../../../../../../Middlewares/Third_Party/LoRaWAN/Mac/LoRaMacConfirmQueue.c ****     */
  73:../../../../../../Middlewares/Third_Party/LoRaWAN/Mac/LoRaMacConfirmQueue.c ****     LoRaMacConfirmQueueNvmCtx_t* ConfirmQueueNvmCtx;
  74:../../../../../../Middlewares/Third_Party/LoRaWAN/Mac/LoRaMacConfirmQueue.c **** } LoRaMacConfirmQueueCtx_t;
  75:../../../../../../Middlewares/Third_Party/LoRaWAN/Mac/LoRaMacConfirmQueue.c **** 
  76:../../../../../../Middlewares/Third_Party/LoRaWAN/Mac/LoRaMacConfirmQueue.c **** /*
  77:../../../../../../Middlewares/Third_Party/LoRaWAN/Mac/LoRaMacConfirmQueue.c ****  * Non-volatile module context.
  78:../../../../../../Middlewares/Third_Party/LoRaWAN/Mac/LoRaMacConfirmQueue.c ****  */
  79:../../../../../../Middlewares/Third_Party/LoRaWAN/Mac/LoRaMacConfirmQueue.c **** static LoRaMacConfirmQueueNvmCtx_t ConfirmQueueNvmCtx;
  80:../../../../../../Middlewares/Third_Party/LoRaWAN/Mac/LoRaMacConfirmQueue.c **** 
  81:../../../../../../Middlewares/Third_Party/LoRaWAN/Mac/LoRaMacConfirmQueue.c **** /*
  82:../../../../../../Middlewares/Third_Party/LoRaWAN/Mac/LoRaMacConfirmQueue.c ****  * Module context.
  83:../../../../../../Middlewares/Third_Party/LoRaWAN/Mac/LoRaMacConfirmQueue.c ****  */
  84:../../../../../../Middlewares/Third_Party/LoRaWAN/Mac/LoRaMacConfirmQueue.c **** static LoRaMacConfirmQueueCtx_t ConfirmQueueCtx;
  85:../../../../../../Middlewares/Third_Party/LoRaWAN/Mac/LoRaMacConfirmQueue.c **** 
  86:../../../../../../Middlewares/Third_Party/LoRaWAN/Mac/LoRaMacConfirmQueue.c **** static MlmeConfirmQueue_t* IncreaseBufferPointer( MlmeConfirmQueue_t* bufferPointer )
  87:../../../../../../Middlewares/Third_Party/LoRaWAN/Mac/LoRaMacConfirmQueue.c **** {
  88:../../../../../../Middlewares/Third_Party/LoRaWAN/Mac/LoRaMacConfirmQueue.c ****     if( bufferPointer == &ConfirmQueueCtx.ConfirmQueueNvmCtx->MlmeConfirmQueue[LORA_MAC_MLME_CONFIR
ARM GAS  C:\Users\EBANO_~1\AppData\Local\Temp\ccdt2GJa.s 			page 3


  89:../../../../../../Middlewares/Third_Party/LoRaWAN/Mac/LoRaMacConfirmQueue.c ****     {
  90:../../../../../../Middlewares/Third_Party/LoRaWAN/Mac/LoRaMacConfirmQueue.c ****         // Reset to the first element
  91:../../../../../../Middlewares/Third_Party/LoRaWAN/Mac/LoRaMacConfirmQueue.c ****         bufferPointer = ConfirmQueueCtx.ConfirmQueueNvmCtx->MlmeConfirmQueue;
  92:../../../../../../Middlewares/Third_Party/LoRaWAN/Mac/LoRaMacConfirmQueue.c ****     }
  93:../../../../../../Middlewares/Third_Party/LoRaWAN/Mac/LoRaMacConfirmQueue.c ****     else
  94:../../../../../../Middlewares/Third_Party/LoRaWAN/Mac/LoRaMacConfirmQueue.c ****     {
  95:../../../../../../Middlewares/Third_Party/LoRaWAN/Mac/LoRaMacConfirmQueue.c ****         // Increase
  96:../../../../../../Middlewares/Third_Party/LoRaWAN/Mac/LoRaMacConfirmQueue.c ****         bufferPointer++;
  97:../../../../../../Middlewares/Third_Party/LoRaWAN/Mac/LoRaMacConfirmQueue.c ****     }
  98:../../../../../../Middlewares/Third_Party/LoRaWAN/Mac/LoRaMacConfirmQueue.c ****     return bufferPointer;
  99:../../../../../../Middlewares/Third_Party/LoRaWAN/Mac/LoRaMacConfirmQueue.c **** }
 100:../../../../../../Middlewares/Third_Party/LoRaWAN/Mac/LoRaMacConfirmQueue.c **** 
 101:../../../../../../Middlewares/Third_Party/LoRaWAN/Mac/LoRaMacConfirmQueue.c **** static MlmeConfirmQueue_t* DecreaseBufferPointer( MlmeConfirmQueue_t* bufferPointer )
 102:../../../../../../Middlewares/Third_Party/LoRaWAN/Mac/LoRaMacConfirmQueue.c **** {
 103:../../../../../../Middlewares/Third_Party/LoRaWAN/Mac/LoRaMacConfirmQueue.c ****     if( bufferPointer == ConfirmQueueCtx.ConfirmQueueNvmCtx->MlmeConfirmQueue )
 104:../../../../../../Middlewares/Third_Party/LoRaWAN/Mac/LoRaMacConfirmQueue.c ****     {
 105:../../../../../../Middlewares/Third_Party/LoRaWAN/Mac/LoRaMacConfirmQueue.c ****         // Reset to the last element
 106:../../../../../../Middlewares/Third_Party/LoRaWAN/Mac/LoRaMacConfirmQueue.c ****         bufferPointer = &ConfirmQueueCtx.ConfirmQueueNvmCtx->MlmeConfirmQueue[LORA_MAC_MLME_CONFIRM
 107:../../../../../../Middlewares/Third_Party/LoRaWAN/Mac/LoRaMacConfirmQueue.c ****     }
 108:../../../../../../Middlewares/Third_Party/LoRaWAN/Mac/LoRaMacConfirmQueue.c ****     else
 109:../../../../../../Middlewares/Third_Party/LoRaWAN/Mac/LoRaMacConfirmQueue.c ****     {
 110:../../../../../../Middlewares/Third_Party/LoRaWAN/Mac/LoRaMacConfirmQueue.c ****         bufferPointer--;
 111:../../../../../../Middlewares/Third_Party/LoRaWAN/Mac/LoRaMacConfirmQueue.c ****     }
 112:../../../../../../Middlewares/Third_Party/LoRaWAN/Mac/LoRaMacConfirmQueue.c ****     return bufferPointer;
 113:../../../../../../Middlewares/Third_Party/LoRaWAN/Mac/LoRaMacConfirmQueue.c **** }
 114:../../../../../../Middlewares/Third_Party/LoRaWAN/Mac/LoRaMacConfirmQueue.c **** 
 115:../../../../../../Middlewares/Third_Party/LoRaWAN/Mac/LoRaMacConfirmQueue.c **** static MlmeConfirmQueue_t* GetElement( Mlme_t request, MlmeConfirmQueue_t* bufferStart, MlmeConfirm
 116:../../../../../../Middlewares/Third_Party/LoRaWAN/Mac/LoRaMacConfirmQueue.c **** {
 117:../../../../../../Middlewares/Third_Party/LoRaWAN/Mac/LoRaMacConfirmQueue.c ****     MlmeConfirmQueue_t* element = bufferStart;
 118:../../../../../../Middlewares/Third_Party/LoRaWAN/Mac/LoRaMacConfirmQueue.c **** 
 119:../../../../../../Middlewares/Third_Party/LoRaWAN/Mac/LoRaMacConfirmQueue.c ****     while( element != bufferEnd )
 120:../../../../../../Middlewares/Third_Party/LoRaWAN/Mac/LoRaMacConfirmQueue.c ****     {
 121:../../../../../../Middlewares/Third_Party/LoRaWAN/Mac/LoRaMacConfirmQueue.c ****         if( element->Request == request )
 122:../../../../../../Middlewares/Third_Party/LoRaWAN/Mac/LoRaMacConfirmQueue.c ****         {
 123:../../../../../../Middlewares/Third_Party/LoRaWAN/Mac/LoRaMacConfirmQueue.c ****             // We have found the element
 124:../../../../../../Middlewares/Third_Party/LoRaWAN/Mac/LoRaMacConfirmQueue.c ****             return element;
 125:../../../../../../Middlewares/Third_Party/LoRaWAN/Mac/LoRaMacConfirmQueue.c ****         }
 126:../../../../../../Middlewares/Third_Party/LoRaWAN/Mac/LoRaMacConfirmQueue.c ****         else
 127:../../../../../../Middlewares/Third_Party/LoRaWAN/Mac/LoRaMacConfirmQueue.c ****         {
 128:../../../../../../Middlewares/Third_Party/LoRaWAN/Mac/LoRaMacConfirmQueue.c ****             element = IncreaseBufferPointer( element );
 129:../../../../../../Middlewares/Third_Party/LoRaWAN/Mac/LoRaMacConfirmQueue.c ****         }
 130:../../../../../../Middlewares/Third_Party/LoRaWAN/Mac/LoRaMacConfirmQueue.c ****     }
 131:../../../../../../Middlewares/Third_Party/LoRaWAN/Mac/LoRaMacConfirmQueue.c ****     return NULL;
 132:../../../../../../Middlewares/Third_Party/LoRaWAN/Mac/LoRaMacConfirmQueue.c **** }
 133:../../../../../../Middlewares/Third_Party/LoRaWAN/Mac/LoRaMacConfirmQueue.c **** 
 134:../../../../../../Middlewares/Third_Party/LoRaWAN/Mac/LoRaMacConfirmQueue.c **** void LoRaMacConfirmQueueInit( LoRaMacPrimitives_t* primitives, EventNvmCtxChanged confirmQueueNvmCt
 135:../../../../../../Middlewares/Third_Party/LoRaWAN/Mac/LoRaMacConfirmQueue.c **** {
  27              		.loc 1 135 0
  28              		.cfi_startproc
  29              		@ args = 0, pretend = 0, frame = 0
  30              		@ frame_needed = 0, uses_anonymous_args = 0
  31              	.LVL0:
  32 0000 70B5     		push	{r4, r5, r6, lr}
  33              	.LCFI0:
  34              		.cfi_def_cfa_offset 16
  35              		.cfi_offset 4, -16
  36              		.cfi_offset 5, -12
ARM GAS  C:\Users\EBANO_~1\AppData\Local\Temp\ccdt2GJa.s 			page 4


  37              		.cfi_offset 6, -8
  38              		.cfi_offset 14, -4
 136:../../../../../../Middlewares/Third_Party/LoRaWAN/Mac/LoRaMacConfirmQueue.c ****     ConfirmQueueCtx.Primitives = primitives;
  39              		.loc 1 136 0
  40 0002 0A4C     		ldr	r4, .L3
 137:../../../../../../Middlewares/Third_Party/LoRaWAN/Mac/LoRaMacConfirmQueue.c **** 
 138:../../../../../../Middlewares/Third_Party/LoRaWAN/Mac/LoRaMacConfirmQueue.c ****     // Assign nvm context
 139:../../../../../../Middlewares/Third_Party/LoRaWAN/Mac/LoRaMacConfirmQueue.c ****     ConfirmQueueCtx.ConfirmQueueNvmCtx = &ConfirmQueueNvmCtx;
 140:../../../../../../Middlewares/Third_Party/LoRaWAN/Mac/LoRaMacConfirmQueue.c **** 
 141:../../../../../../Middlewares/Third_Party/LoRaWAN/Mac/LoRaMacConfirmQueue.c ****     // Init counter
 142:../../../../../../Middlewares/Third_Party/LoRaWAN/Mac/LoRaMacConfirmQueue.c ****     ConfirmQueueCtx.ConfirmQueueNvmCtx->MlmeConfirmQueueCnt = 0;
  41              		.loc 1 142 0
  42 0004 2823     		movs	r3, #40
 136:../../../../../../Middlewares/Third_Party/LoRaWAN/Mac/LoRaMacConfirmQueue.c ****     ConfirmQueueCtx.Primitives = primitives;
  43              		.loc 1 136 0
  44 0006 2060     		str	r0, [r4]
  45              		.loc 1 142 0
  46 0008 0022     		movs	r2, #0
 139:../../../../../../Middlewares/Third_Party/LoRaWAN/Mac/LoRaMacConfirmQueue.c **** 
  47              		.loc 1 139 0
  48 000a 2000     		movs	r0, r4
  49              	.LVL1:
 135:../../../../../../Middlewares/Third_Party/LoRaWAN/Mac/LoRaMacConfirmQueue.c ****     ConfirmQueueCtx.Primitives = primitives;
  50              		.loc 1 135 0
  51 000c 0D00     		movs	r5, r1
 139:../../../../../../Middlewares/Third_Party/LoRaWAN/Mac/LoRaMacConfirmQueue.c **** 
  52              		.loc 1 139 0
  53 000e 1430     		adds	r0, r0, #20
  54              		.loc 1 142 0
  55 0010 E254     		strb	r2, [r4, r3]
 143:../../../../../../Middlewares/Third_Party/LoRaWAN/Mac/LoRaMacConfirmQueue.c **** 
 144:../../../../../../Middlewares/Third_Party/LoRaWAN/Mac/LoRaMacConfirmQueue.c ****     // Init buffer
 145:../../../../../../Middlewares/Third_Party/LoRaWAN/Mac/LoRaMacConfirmQueue.c ****     ConfirmQueueCtx.BufferStart = ConfirmQueueCtx.ConfirmQueueNvmCtx->MlmeConfirmQueue;
 146:../../../../../../Middlewares/Third_Party/LoRaWAN/Mac/LoRaMacConfirmQueue.c ****     ConfirmQueueCtx.BufferEnd = ConfirmQueueCtx.ConfirmQueueNvmCtx->MlmeConfirmQueue;
 147:../../../../../../Middlewares/Third_Party/LoRaWAN/Mac/LoRaMacConfirmQueue.c **** 
 148:../../../../../../Middlewares/Third_Party/LoRaWAN/Mac/LoRaMacConfirmQueue.c ****     memset1( ( uint8_t* )ConfirmQueueCtx.ConfirmQueueNvmCtx->MlmeConfirmQueue, 0xFF, sizeof( Confir
  56              		.loc 1 148 0
  57 0012 FF21     		movs	r1, #255
  58              	.LVL2:
  59 0014 1432     		adds	r2, r2, #20
 139:../../../../../../Middlewares/Third_Party/LoRaWAN/Mac/LoRaMacConfirmQueue.c **** 
  60              		.loc 1 139 0
  61 0016 2061     		str	r0, [r4, #16]
 145:../../../../../../Middlewares/Third_Party/LoRaWAN/Mac/LoRaMacConfirmQueue.c ****     ConfirmQueueCtx.BufferEnd = ConfirmQueueCtx.ConfirmQueueNvmCtx->MlmeConfirmQueue;
  62              		.loc 1 145 0
  63 0018 6060     		str	r0, [r4, #4]
 146:../../../../../../Middlewares/Third_Party/LoRaWAN/Mac/LoRaMacConfirmQueue.c **** 
  64              		.loc 1 146 0
  65 001a A060     		str	r0, [r4, #8]
  66              		.loc 1 148 0
  67 001c FFF7FEFF 		bl	memset1
  68              	.LVL3:
 149:../../../../../../Middlewares/Third_Party/LoRaWAN/Mac/LoRaMacConfirmQueue.c **** 
 150:../../../../../../Middlewares/Third_Party/LoRaWAN/Mac/LoRaMacConfirmQueue.c ****     // Common status
 151:../../../../../../Middlewares/Third_Party/LoRaWAN/Mac/LoRaMacConfirmQueue.c ****     ConfirmQueueCtx.ConfirmQueueNvmCtx->CommonStatus = LORAMAC_EVENT_INFO_STATUS_ERROR;
  69              		.loc 1 151 0
  70 0020 0123     		movs	r3, #1
ARM GAS  C:\Users\EBANO_~1\AppData\Local\Temp\ccdt2GJa.s 			page 5


  71 0022 2269     		ldr	r2, [r4, #16]
 152:../../../../../../Middlewares/Third_Party/LoRaWAN/Mac/LoRaMacConfirmQueue.c **** 
 153:../../../../../../Middlewares/Third_Party/LoRaWAN/Mac/LoRaMacConfirmQueue.c ****     // Assign callback
 154:../../../../../../Middlewares/Third_Party/LoRaWAN/Mac/LoRaMacConfirmQueue.c ****     ConfirmQueueCtx.EventNvmCtxChanged = confirmQueueNvmCtxChanged;
  72              		.loc 1 154 0
  73 0024 E560     		str	r5, [r4, #12]
 151:../../../../../../Middlewares/Third_Party/LoRaWAN/Mac/LoRaMacConfirmQueue.c **** 
  74              		.loc 1 151 0
  75 0026 5375     		strb	r3, [r2, #21]
 155:../../../../../../Middlewares/Third_Party/LoRaWAN/Mac/LoRaMacConfirmQueue.c **** }
  76              		.loc 1 155 0
  77              		@ sp needed
  78              	.LVL4:
  79 0028 70BD     		pop	{r4, r5, r6, pc}
  80              	.L4:
  81 002a C046     		.align	2
  82              	.L3:
  83 002c 00000000 		.word	.LANCHOR0
  84              		.cfi_endproc
  85              	.LFE42:
  86              		.size	LoRaMacConfirmQueueInit, .-LoRaMacConfirmQueueInit
  87              		.section	.text.LoRaMacConfirmQueueRestoreNvmCtx,"ax",%progbits
  88              		.align	1
  89              		.p2align 2,,3
  90              		.global	LoRaMacConfirmQueueRestoreNvmCtx
  91              		.syntax unified
  92              		.code	16
  93              		.thumb_func
  94              		.fpu softvfp
  95              		.type	LoRaMacConfirmQueueRestoreNvmCtx, %function
  96              	LoRaMacConfirmQueueRestoreNvmCtx:
  97              	.LFB43:
 156:../../../../../../Middlewares/Third_Party/LoRaWAN/Mac/LoRaMacConfirmQueue.c **** 
 157:../../../../../../Middlewares/Third_Party/LoRaWAN/Mac/LoRaMacConfirmQueue.c **** bool LoRaMacConfirmQueueRestoreNvmCtx( void* confirmQueueNvmCtx )
 158:../../../../../../Middlewares/Third_Party/LoRaWAN/Mac/LoRaMacConfirmQueue.c **** {
  98              		.loc 1 158 0
  99              		.cfi_startproc
 100              		@ args = 0, pretend = 0, frame = 0
 101              		@ frame_needed = 0, uses_anonymous_args = 0
 102              	.LVL5:
 103 0000 10B5     		push	{r4, lr}
 104              	.LCFI1:
 105              		.cfi_def_cfa_offset 8
 106              		.cfi_offset 4, -8
 107              		.cfi_offset 14, -4
 159:../../../../../../Middlewares/Third_Party/LoRaWAN/Mac/LoRaMacConfirmQueue.c ****     // Restore module context
 160:../../../../../../Middlewares/Third_Party/LoRaWAN/Mac/LoRaMacConfirmQueue.c ****     if( confirmQueueNvmCtx != NULL )
 161:../../../../../../Middlewares/Third_Party/LoRaWAN/Mac/LoRaMacConfirmQueue.c ****     {
 162:../../../../../../Middlewares/Third_Party/LoRaWAN/Mac/LoRaMacConfirmQueue.c ****         memcpy1( ( uint8_t* )&ConfirmQueueNvmCtx, ( uint8_t* ) confirmQueueNvmCtx, sizeof( ConfirmQ
 163:../../../../../../Middlewares/Third_Party/LoRaWAN/Mac/LoRaMacConfirmQueue.c ****         return true;
 164:../../../../../../Middlewares/Third_Party/LoRaWAN/Mac/LoRaMacConfirmQueue.c ****     }
 165:../../../../../../Middlewares/Third_Party/LoRaWAN/Mac/LoRaMacConfirmQueue.c ****     else
 166:../../../../../../Middlewares/Third_Party/LoRaWAN/Mac/LoRaMacConfirmQueue.c ****     {
 167:../../../../../../Middlewares/Third_Party/LoRaWAN/Mac/LoRaMacConfirmQueue.c ****         return false;
 108              		.loc 1 167 0
 109 0002 0023     		movs	r3, #0
 160:../../../../../../Middlewares/Third_Party/LoRaWAN/Mac/LoRaMacConfirmQueue.c ****     {
ARM GAS  C:\Users\EBANO_~1\AppData\Local\Temp\ccdt2GJa.s 			page 6


 110              		.loc 1 160 0
 111 0004 0028     		cmp	r0, #0
 112 0006 07D0     		beq	.L6
 162:../../../../../../Middlewares/Third_Party/LoRaWAN/Mac/LoRaMacConfirmQueue.c ****         return true;
 113              		.loc 1 162 0
 114 0008 044B     		ldr	r3, .L9
 115 000a 0100     		movs	r1, r0
 116 000c 1433     		adds	r3, r3, #20
 117 000e 1800     		movs	r0, r3
 118              	.LVL6:
 119 0010 1622     		movs	r2, #22
 120 0012 FFF7FEFF 		bl	memcpy1
 121              	.LVL7:
 163:../../../../../../Middlewares/Third_Party/LoRaWAN/Mac/LoRaMacConfirmQueue.c ****     }
 122              		.loc 1 163 0
 123 0016 0123     		movs	r3, #1
 124              	.L6:
 168:../../../../../../Middlewares/Third_Party/LoRaWAN/Mac/LoRaMacConfirmQueue.c ****     }
 169:../../../../../../Middlewares/Third_Party/LoRaWAN/Mac/LoRaMacConfirmQueue.c **** }
 125              		.loc 1 169 0
 126 0018 1800     		movs	r0, r3
 127              		@ sp needed
 128 001a 10BD     		pop	{r4, pc}
 129              	.L10:
 130              		.align	2
 131              	.L9:
 132 001c 00000000 		.word	.LANCHOR0
 133              		.cfi_endproc
 134              	.LFE43:
 135              		.size	LoRaMacConfirmQueueRestoreNvmCtx, .-LoRaMacConfirmQueueRestoreNvmCtx
 136              		.section	.text.LoRaMacConfirmQueueGetNvmCtx,"ax",%progbits
 137              		.align	1
 138              		.p2align 2,,3
 139              		.global	LoRaMacConfirmQueueGetNvmCtx
 140              		.syntax unified
 141              		.code	16
 142              		.thumb_func
 143              		.fpu softvfp
 144              		.type	LoRaMacConfirmQueueGetNvmCtx, %function
 145              	LoRaMacConfirmQueueGetNvmCtx:
 146              	.LFB44:
 170:../../../../../../Middlewares/Third_Party/LoRaWAN/Mac/LoRaMacConfirmQueue.c **** 
 171:../../../../../../Middlewares/Third_Party/LoRaWAN/Mac/LoRaMacConfirmQueue.c **** void* LoRaMacConfirmQueueGetNvmCtx( size_t* confirmQueueNvmCtxSize )
 172:../../../../../../Middlewares/Third_Party/LoRaWAN/Mac/LoRaMacConfirmQueue.c **** {
 147              		.loc 1 172 0
 148              		.cfi_startproc
 149              		@ args = 0, pretend = 0, frame = 0
 150              		@ frame_needed = 0, uses_anonymous_args = 0
 151              		@ link register save eliminated.
 152              	.LVL8:
 173:../../../../../../Middlewares/Third_Party/LoRaWAN/Mac/LoRaMacConfirmQueue.c ****     *confirmQueueNvmCtxSize = sizeof( ConfirmQueueNvmCtx );
 153              		.loc 1 173 0
 154 0000 1623     		movs	r3, #22
 155 0002 0360     		str	r3, [r0]
 174:../../../../../../Middlewares/Third_Party/LoRaWAN/Mac/LoRaMacConfirmQueue.c ****     return &ConfirmQueueNvmCtx;
 156              		.loc 1 174 0
 157 0004 0148     		ldr	r0, .L12
ARM GAS  C:\Users\EBANO_~1\AppData\Local\Temp\ccdt2GJa.s 			page 7


 158              	.LVL9:
 175:../../../../../../Middlewares/Third_Party/LoRaWAN/Mac/LoRaMacConfirmQueue.c **** }
 159              		.loc 1 175 0
 160              		@ sp needed
 161 0006 1430     		adds	r0, r0, #20
 162 0008 7047     		bx	lr
 163              	.L13:
 164 000a C046     		.align	2
 165              	.L12:
 166 000c 00000000 		.word	.LANCHOR0
 167              		.cfi_endproc
 168              	.LFE44:
 169              		.size	LoRaMacConfirmQueueGetNvmCtx, .-LoRaMacConfirmQueueGetNvmCtx
 170              		.section	.text.LoRaMacConfirmQueueAdd,"ax",%progbits
 171              		.align	1
 172              		.p2align 2,,3
 173              		.global	LoRaMacConfirmQueueAdd
 174              		.syntax unified
 175              		.code	16
 176              		.thumb_func
 177              		.fpu softvfp
 178              		.type	LoRaMacConfirmQueueAdd, %function
 179              	LoRaMacConfirmQueueAdd:
 180              	.LFB45:
 176:../../../../../../Middlewares/Third_Party/LoRaWAN/Mac/LoRaMacConfirmQueue.c **** 
 177:../../../../../../Middlewares/Third_Party/LoRaWAN/Mac/LoRaMacConfirmQueue.c **** bool LoRaMacConfirmQueueAdd( MlmeConfirmQueue_t* mlmeConfirm )
 178:../../../../../../Middlewares/Third_Party/LoRaWAN/Mac/LoRaMacConfirmQueue.c **** {
 181              		.loc 1 178 0
 182              		.cfi_startproc
 183              		@ args = 0, pretend = 0, frame = 0
 184              		@ frame_needed = 0, uses_anonymous_args = 0
 185              	.LVL10:
 186 0000 30B5     		push	{r4, r5, lr}
 187              	.LCFI2:
 188              		.cfi_def_cfa_offset 12
 189              		.cfi_offset 4, -12
 190              		.cfi_offset 5, -8
 191              		.cfi_offset 14, -4
 179:../../../../../../Middlewares/Third_Party/LoRaWAN/Mac/LoRaMacConfirmQueue.c ****     if( ConfirmQueueCtx.ConfirmQueueNvmCtx->MlmeConfirmQueueCnt >= LORA_MAC_MLME_CONFIRM_QUEUE_LEN 
 192              		.loc 1 179 0
 193 0002 0E4C     		ldr	r4, .L20
 180:../../../../../../Middlewares/Third_Party/LoRaWAN/Mac/LoRaMacConfirmQueue.c ****     {
 181:../../../../../../Middlewares/Third_Party/LoRaWAN/Mac/LoRaMacConfirmQueue.c ****         // Protect the buffer against overwrites
 182:../../../../../../Middlewares/Third_Party/LoRaWAN/Mac/LoRaMacConfirmQueue.c ****         return false;
 194              		.loc 1 182 0
 195 0004 0021     		movs	r1, #0
 179:../../../../../../Middlewares/Third_Party/LoRaWAN/Mac/LoRaMacConfirmQueue.c ****     if( ConfirmQueueCtx.ConfirmQueueNvmCtx->MlmeConfirmQueueCnt >= LORA_MAC_MLME_CONFIRM_QUEUE_LEN 
 196              		.loc 1 179 0
 197 0006 2369     		ldr	r3, [r4, #16]
 198 0008 1A7D     		ldrb	r2, [r3, #20]
 199 000a 042A     		cmp	r2, #4
 200 000c 11D8     		bhi	.L15
 183:../../../../../../Middlewares/Third_Party/LoRaWAN/Mac/LoRaMacConfirmQueue.c ****     }
 184:../../../../../../Middlewares/Third_Party/LoRaWAN/Mac/LoRaMacConfirmQueue.c **** 
 185:../../../../../../Middlewares/Third_Party/LoRaWAN/Mac/LoRaMacConfirmQueue.c ****     // Add the element to the ring buffer
 186:../../../../../../Middlewares/Third_Party/LoRaWAN/Mac/LoRaMacConfirmQueue.c ****     ConfirmQueueCtx.BufferEnd->Request = mlmeConfirm->Request;
 201              		.loc 1 186 0
ARM GAS  C:\Users\EBANO_~1\AppData\Local\Temp\ccdt2GJa.s 			page 8


 202 000e 0578     		ldrb	r5, [r0]
 203 0010 A268     		ldr	r2, [r4, #8]
 204 0012 1570     		strb	r5, [r2]
 187:../../../../../../Middlewares/Third_Party/LoRaWAN/Mac/LoRaMacConfirmQueue.c ****     ConfirmQueueCtx.BufferEnd->Status = mlmeConfirm->Status;
 205              		.loc 1 187 0
 206 0014 4578     		ldrb	r5, [r0, #1]
 207 0016 5570     		strb	r5, [r2, #1]
 188:../../../../../../Middlewares/Third_Party/LoRaWAN/Mac/LoRaMacConfirmQueue.c ****     ConfirmQueueCtx.BufferEnd->RestrictCommonReadyToHandle = mlmeConfirm->RestrictCommonReadyToHand
 208              		.loc 1 188 0
 209 0018 C078     		ldrb	r0, [r0, #3]
 210              	.LVL11:
 189:../../../../../../Middlewares/Third_Party/LoRaWAN/Mac/LoRaMacConfirmQueue.c ****     ConfirmQueueCtx.BufferEnd->ReadyToHandle = false;
 211              		.loc 1 189 0
 212 001a 9170     		strb	r1, [r2, #2]
 188:../../../../../../Middlewares/Third_Party/LoRaWAN/Mac/LoRaMacConfirmQueue.c ****     ConfirmQueueCtx.BufferEnd->RestrictCommonReadyToHandle = mlmeConfirm->RestrictCommonReadyToHand
 213              		.loc 1 188 0
 214 001c D070     		strb	r0, [r2, #3]
 190:../../../../../../Middlewares/Third_Party/LoRaWAN/Mac/LoRaMacConfirmQueue.c ****     // Increase counter
 191:../../../../../../Middlewares/Third_Party/LoRaWAN/Mac/LoRaMacConfirmQueue.c ****     ConfirmQueueCtx.ConfirmQueueNvmCtx->MlmeConfirmQueueCnt++;
 215              		.loc 1 191 0
 216 001e 197D     		ldrb	r1, [r3, #20]
 217              	.LBB31:
 218              	.LBB32:
  96:../../../../../../Middlewares/Third_Party/LoRaWAN/Mac/LoRaMacConfirmQueue.c ****     }
 219              		.loc 1 96 0
 220 0020 101D     		adds	r0, r2, #4
 221              	.LBE32:
 222              	.LBE31:
 223              		.loc 1 191 0
 224 0022 0131     		adds	r1, r1, #1
 225 0024 1975     		strb	r1, [r3, #20]
 226              	.LVL12:
 227              	.LBB35:
 228              	.LBB33:
  88:../../../../../../Middlewares/Third_Party/LoRaWAN/Mac/LoRaMacConfirmQueue.c ****     {
 229              		.loc 1 88 0
 230 0026 1900     		movs	r1, r3
 231 0028 1031     		adds	r1, r1, #16
 232 002a 8A42     		cmp	r2, r1
 233 002c 03D0     		beq	.L19
 234              	.LVL13:
 235              	.L17:
 236              	.LBE33:
 237              	.LBE35:
 192:../../../../../../Middlewares/Third_Party/LoRaWAN/Mac/LoRaMacConfirmQueue.c ****     // Update end pointer
 193:../../../../../../Middlewares/Third_Party/LoRaWAN/Mac/LoRaMacConfirmQueue.c ****     ConfirmQueueCtx.BufferEnd = IncreaseBufferPointer( ConfirmQueueCtx.BufferEnd );
 194:../../../../../../Middlewares/Third_Party/LoRaWAN/Mac/LoRaMacConfirmQueue.c **** 
 195:../../../../../../Middlewares/Third_Party/LoRaWAN/Mac/LoRaMacConfirmQueue.c ****     return true;
 238              		.loc 1 195 0
 239 002e 0121     		movs	r1, #1
 193:../../../../../../Middlewares/Third_Party/LoRaWAN/Mac/LoRaMacConfirmQueue.c **** 
 240              		.loc 1 193 0
 241 0030 A060     		str	r0, [r4, #8]
 242              	.L15:
 196:../../../../../../Middlewares/Third_Party/LoRaWAN/Mac/LoRaMacConfirmQueue.c **** }
 243              		.loc 1 196 0
 244 0032 0800     		movs	r0, r1
ARM GAS  C:\Users\EBANO_~1\AppData\Local\Temp\ccdt2GJa.s 			page 9


 245              		@ sp needed
 246 0034 30BD     		pop	{r4, r5, pc}
 247              	.LVL14:
 248              	.L19:
 249              	.LBB36:
 250              	.LBB34:
  91:../../../../../../Middlewares/Third_Party/LoRaWAN/Mac/LoRaMacConfirmQueue.c ****     }
 251              		.loc 1 91 0
 252 0036 1800     		movs	r0, r3
 253              	.LVL15:
 254 0038 F9E7     		b	.L17
 255              	.L21:
 256 003a C046     		.align	2
 257              	.L20:
 258 003c 00000000 		.word	.LANCHOR0
 259              	.LBE34:
 260              	.LBE36:
 261              		.cfi_endproc
 262              	.LFE45:
 263              		.size	LoRaMacConfirmQueueAdd, .-LoRaMacConfirmQueueAdd
 264              		.section	.text.LoRaMacConfirmQueueRemoveLast,"ax",%progbits
 265              		.align	1
 266              		.p2align 2,,3
 267              		.global	LoRaMacConfirmQueueRemoveLast
 268              		.syntax unified
 269              		.code	16
 270              		.thumb_func
 271              		.fpu softvfp
 272              		.type	LoRaMacConfirmQueueRemoveLast, %function
 273              	LoRaMacConfirmQueueRemoveLast:
 274              	.LFB46:
 197:../../../../../../Middlewares/Third_Party/LoRaWAN/Mac/LoRaMacConfirmQueue.c **** 
 198:../../../../../../Middlewares/Third_Party/LoRaWAN/Mac/LoRaMacConfirmQueue.c **** bool LoRaMacConfirmQueueRemoveLast( void )
 199:../../../../../../Middlewares/Third_Party/LoRaWAN/Mac/LoRaMacConfirmQueue.c **** {
 275              		.loc 1 199 0
 276              		.cfi_startproc
 277              		@ args = 0, pretend = 0, frame = 0
 278              		@ frame_needed = 0, uses_anonymous_args = 0
 279              		@ link register save eliminated.
 200:../../../../../../Middlewares/Third_Party/LoRaWAN/Mac/LoRaMacConfirmQueue.c ****     if( ConfirmQueueCtx.ConfirmQueueNvmCtx->MlmeConfirmQueueCnt == 0 )
 280              		.loc 1 200 0
 281 0000 084A     		ldr	r2, .L29
 201:../../../../../../Middlewares/Third_Party/LoRaWAN/Mac/LoRaMacConfirmQueue.c ****     {
 202:../../../../../../Middlewares/Third_Party/LoRaWAN/Mac/LoRaMacConfirmQueue.c ****         return false;
 282              		.loc 1 202 0
 283 0002 0020     		movs	r0, #0
 200:../../../../../../Middlewares/Third_Party/LoRaWAN/Mac/LoRaMacConfirmQueue.c ****     if( ConfirmQueueCtx.ConfirmQueueNvmCtx->MlmeConfirmQueueCnt == 0 )
 284              		.loc 1 200 0
 285 0004 1169     		ldr	r1, [r2, #16]
 286 0006 0B7D     		ldrb	r3, [r1, #20]
 287 0008 002B     		cmp	r3, #0
 288 000a 07D0     		beq	.L23
 203:../../../../../../Middlewares/Third_Party/LoRaWAN/Mac/LoRaMacConfirmQueue.c ****     }
 204:../../../../../../Middlewares/Third_Party/LoRaWAN/Mac/LoRaMacConfirmQueue.c **** 
 205:../../../../../../Middlewares/Third_Party/LoRaWAN/Mac/LoRaMacConfirmQueue.c ****     // Increase counter
 206:../../../../../../Middlewares/Third_Party/LoRaWAN/Mac/LoRaMacConfirmQueue.c ****     ConfirmQueueCtx.ConfirmQueueNvmCtx->MlmeConfirmQueueCnt--;
 289              		.loc 1 206 0
ARM GAS  C:\Users\EBANO_~1\AppData\Local\Temp\ccdt2GJa.s 			page 10


 290 000c 013B     		subs	r3, r3, #1
 291 000e 0B75     		strb	r3, [r1, #20]
 207:../../../../../../Middlewares/Third_Party/LoRaWAN/Mac/LoRaMacConfirmQueue.c ****     // Update start pointer
 208:../../../../../../Middlewares/Third_Party/LoRaWAN/Mac/LoRaMacConfirmQueue.c ****     ConfirmQueueCtx.BufferEnd = DecreaseBufferPointer( ConfirmQueueCtx.BufferEnd );
 292              		.loc 1 208 0
 293 0010 9368     		ldr	r3, [r2, #8]
 294              	.LVL16:
 295              	.LBB37:
 296              	.LBB38:
 110:../../../../../../Middlewares/Third_Party/LoRaWAN/Mac/LoRaMacConfirmQueue.c ****     }
 297              		.loc 1 110 0
 298 0012 181F     		subs	r0, r3, #4
 103:../../../../../../Middlewares/Third_Party/LoRaWAN/Mac/LoRaMacConfirmQueue.c ****     {
 299              		.loc 1 103 0
 300 0014 8B42     		cmp	r3, r1
 301 0016 02D0     		beq	.L28
 302              	.L25:
 303              	.LVL17:
 304              	.LBE38:
 305              	.LBE37:
 306              		.loc 1 208 0
 307 0018 9060     		str	r0, [r2, #8]
 209:../../../../../../Middlewares/Third_Party/LoRaWAN/Mac/LoRaMacConfirmQueue.c **** 
 210:../../../../../../Middlewares/Third_Party/LoRaWAN/Mac/LoRaMacConfirmQueue.c ****     return true;
 308              		.loc 1 210 0
 309 001a 0120     		movs	r0, #1
 310              	.L23:
 211:../../../../../../Middlewares/Third_Party/LoRaWAN/Mac/LoRaMacConfirmQueue.c **** }
 311              		.loc 1 211 0
 312              		@ sp needed
 313 001c 7047     		bx	lr
 314              	.LVL18:
 315              	.L28:
 316              	.LBB40:
 317              	.LBB39:
 106:../../../../../../Middlewares/Third_Party/LoRaWAN/Mac/LoRaMacConfirmQueue.c ****     }
 318              		.loc 1 106 0
 319 001e 1033     		adds	r3, r3, #16
 320              	.LVL19:
 321 0020 1800     		movs	r0, r3
 322              	.LVL20:
 323 0022 F9E7     		b	.L25
 324              	.L30:
 325              		.align	2
 326              	.L29:
 327 0024 00000000 		.word	.LANCHOR0
 328              	.LBE39:
 329              	.LBE40:
 330              		.cfi_endproc
 331              	.LFE46:
 332              		.size	LoRaMacConfirmQueueRemoveLast, .-LoRaMacConfirmQueueRemoveLast
 333              		.section	.text.LoRaMacConfirmQueueRemoveFirst,"ax",%progbits
 334              		.align	1
 335              		.p2align 2,,3
 336              		.global	LoRaMacConfirmQueueRemoveFirst
 337              		.syntax unified
 338              		.code	16
ARM GAS  C:\Users\EBANO_~1\AppData\Local\Temp\ccdt2GJa.s 			page 11


 339              		.thumb_func
 340              		.fpu softvfp
 341              		.type	LoRaMacConfirmQueueRemoveFirst, %function
 342              	LoRaMacConfirmQueueRemoveFirst:
 343              	.LFB47:
 212:../../../../../../Middlewares/Third_Party/LoRaWAN/Mac/LoRaMacConfirmQueue.c **** 
 213:../../../../../../Middlewares/Third_Party/LoRaWAN/Mac/LoRaMacConfirmQueue.c **** bool LoRaMacConfirmQueueRemoveFirst( void )
 214:../../../../../../Middlewares/Third_Party/LoRaWAN/Mac/LoRaMacConfirmQueue.c **** {
 344              		.loc 1 214 0
 345              		.cfi_startproc
 346              		@ args = 0, pretend = 0, frame = 0
 347              		@ frame_needed = 0, uses_anonymous_args = 0
 348 0000 10B5     		push	{r4, lr}
 349              	.LCFI3:
 350              		.cfi_def_cfa_offset 8
 351              		.cfi_offset 4, -8
 352              		.cfi_offset 14, -4
 215:../../../../../../Middlewares/Third_Party/LoRaWAN/Mac/LoRaMacConfirmQueue.c ****     if( ConfirmQueueCtx.ConfirmQueueNvmCtx->MlmeConfirmQueueCnt == 0 )
 353              		.loc 1 215 0
 354 0002 0949     		ldr	r1, .L38
 216:../../../../../../Middlewares/Third_Party/LoRaWAN/Mac/LoRaMacConfirmQueue.c ****     {
 217:../../../../../../Middlewares/Third_Party/LoRaWAN/Mac/LoRaMacConfirmQueue.c ****         return false;
 355              		.loc 1 217 0
 356 0004 0020     		movs	r0, #0
 215:../../../../../../Middlewares/Third_Party/LoRaWAN/Mac/LoRaMacConfirmQueue.c ****     if( ConfirmQueueCtx.ConfirmQueueNvmCtx->MlmeConfirmQueueCnt == 0 )
 357              		.loc 1 215 0
 358 0006 0A69     		ldr	r2, [r1, #16]
 359 0008 137D     		ldrb	r3, [r2, #20]
 360 000a 002B     		cmp	r3, #0
 361 000c 09D0     		beq	.L32
 218:../../../../../../Middlewares/Third_Party/LoRaWAN/Mac/LoRaMacConfirmQueue.c ****     }
 219:../../../../../../Middlewares/Third_Party/LoRaWAN/Mac/LoRaMacConfirmQueue.c **** 
 220:../../../../../../Middlewares/Third_Party/LoRaWAN/Mac/LoRaMacConfirmQueue.c ****     // Increase counter
 221:../../../../../../Middlewares/Third_Party/LoRaWAN/Mac/LoRaMacConfirmQueue.c ****     ConfirmQueueCtx.ConfirmQueueNvmCtx->MlmeConfirmQueueCnt--;
 362              		.loc 1 221 0
 363 000e 013B     		subs	r3, r3, #1
 364 0010 1375     		strb	r3, [r2, #20]
 365              	.LBB41:
 366              	.LBB42:
  88:../../../../../../Middlewares/Third_Party/LoRaWAN/Mac/LoRaMacConfirmQueue.c ****     {
 367              		.loc 1 88 0
 368 0012 1300     		movs	r3, r2
 369              	.LBE42:
 370              	.LBE41:
 222:../../../../../../Middlewares/Third_Party/LoRaWAN/Mac/LoRaMacConfirmQueue.c ****     // Update start pointer
 223:../../../../../../Middlewares/Third_Party/LoRaWAN/Mac/LoRaMacConfirmQueue.c ****     ConfirmQueueCtx.BufferStart = IncreaseBufferPointer( ConfirmQueueCtx.BufferStart );
 371              		.loc 1 223 0
 372 0014 4868     		ldr	r0, [r1, #4]
 373              	.LVL21:
 374              	.LBB45:
 375              	.LBB43:
  88:../../../../../../Middlewares/Third_Party/LoRaWAN/Mac/LoRaMacConfirmQueue.c ****     {
 376              		.loc 1 88 0
 377 0016 1033     		adds	r3, r3, #16
  96:../../../../../../Middlewares/Third_Party/LoRaWAN/Mac/LoRaMacConfirmQueue.c ****     }
 378              		.loc 1 96 0
 379 0018 041D     		adds	r4, r0, #4
ARM GAS  C:\Users\EBANO_~1\AppData\Local\Temp\ccdt2GJa.s 			page 12


  88:../../../../../../Middlewares/Third_Party/LoRaWAN/Mac/LoRaMacConfirmQueue.c ****     {
 380              		.loc 1 88 0
 381 001a 9842     		cmp	r0, r3
 382 001c 02D0     		beq	.L37
 383              	.LVL22:
 384              	.L34:
 385              	.LBE43:
 386              	.LBE45:
 224:../../../../../../Middlewares/Third_Party/LoRaWAN/Mac/LoRaMacConfirmQueue.c **** 
 225:../../../../../../Middlewares/Third_Party/LoRaWAN/Mac/LoRaMacConfirmQueue.c ****     return true;
 387              		.loc 1 225 0
 388 001e 0120     		movs	r0, #1
 223:../../../../../../Middlewares/Third_Party/LoRaWAN/Mac/LoRaMacConfirmQueue.c **** 
 389              		.loc 1 223 0
 390 0020 4C60     		str	r4, [r1, #4]
 391              	.L32:
 226:../../../../../../Middlewares/Third_Party/LoRaWAN/Mac/LoRaMacConfirmQueue.c **** }
 392              		.loc 1 226 0
 393              		@ sp needed
 394 0022 10BD     		pop	{r4, pc}
 395              	.LVL23:
 396              	.L37:
 397              	.LBB46:
 398              	.LBB44:
  91:../../../../../../Middlewares/Third_Party/LoRaWAN/Mac/LoRaMacConfirmQueue.c ****     }
 399              		.loc 1 91 0
 400 0024 1400     		movs	r4, r2
 401              	.LVL24:
 402 0026 FAE7     		b	.L34
 403              	.L39:
 404              		.align	2
 405              	.L38:
 406 0028 00000000 		.word	.LANCHOR0
 407              	.LBE44:
 408              	.LBE46:
 409              		.cfi_endproc
 410              	.LFE47:
 411              		.size	LoRaMacConfirmQueueRemoveFirst, .-LoRaMacConfirmQueueRemoveFirst
 412              		.section	.text.LoRaMacConfirmQueueSetStatus,"ax",%progbits
 413              		.align	1
 414              		.p2align 2,,3
 415              		.global	LoRaMacConfirmQueueSetStatus
 416              		.syntax unified
 417              		.code	16
 418              		.thumb_func
 419              		.fpu softvfp
 420              		.type	LoRaMacConfirmQueueSetStatus, %function
 421              	LoRaMacConfirmQueueSetStatus:
 422              	.LFB48:
 227:../../../../../../Middlewares/Third_Party/LoRaWAN/Mac/LoRaMacConfirmQueue.c **** 
 228:../../../../../../Middlewares/Third_Party/LoRaWAN/Mac/LoRaMacConfirmQueue.c **** void LoRaMacConfirmQueueSetStatus( LoRaMacEventInfoStatus_t status, Mlme_t request )
 229:../../../../../../Middlewares/Third_Party/LoRaWAN/Mac/LoRaMacConfirmQueue.c **** {
 423              		.loc 1 229 0
 424              		.cfi_startproc
 425              		@ args = 0, pretend = 0, frame = 0
 426              		@ frame_needed = 0, uses_anonymous_args = 0
 427              	.LVL25:
ARM GAS  C:\Users\EBANO_~1\AppData\Local\Temp\ccdt2GJa.s 			page 13


 428 0000 70B5     		push	{r4, r5, r6, lr}
 429              	.LCFI4:
 430              		.cfi_def_cfa_offset 16
 431              		.cfi_offset 4, -16
 432              		.cfi_offset 5, -12
 433              		.cfi_offset 6, -8
 434              		.cfi_offset 14, -4
 230:../../../../../../Middlewares/Third_Party/LoRaWAN/Mac/LoRaMacConfirmQueue.c ****     MlmeConfirmQueue_t* element = NULL;
 231:../../../../../../Middlewares/Third_Party/LoRaWAN/Mac/LoRaMacConfirmQueue.c **** 
 232:../../../../../../Middlewares/Third_Party/LoRaWAN/Mac/LoRaMacConfirmQueue.c ****     if( ConfirmQueueCtx.ConfirmQueueNvmCtx->MlmeConfirmQueueCnt > 0 )
 435              		.loc 1 232 0
 436 0002 0F4A     		ldr	r2, .L50
 437 0004 1669     		ldr	r6, [r2, #16]
 438 0006 337D     		ldrb	r3, [r6, #20]
 439 0008 002B     		cmp	r3, #0
 440 000a 14D0     		beq	.L40
 233:../../../../../../Middlewares/Third_Party/LoRaWAN/Mac/LoRaMacConfirmQueue.c ****     {
 234:../../../../../../Middlewares/Third_Party/LoRaWAN/Mac/LoRaMacConfirmQueue.c ****         element = GetElement( request, ConfirmQueueCtx.BufferStart, ConfirmQueueCtx.BufferEnd );
 441              		.loc 1 234 0
 442 000c 5368     		ldr	r3, [r2, #4]
 443 000e 9468     		ldr	r4, [r2, #8]
 444              	.LVL26:
 445              	.LBB47:
 446              	.LBB48:
 119:../../../../../../Middlewares/Third_Party/LoRaWAN/Mac/LoRaMacConfirmQueue.c ****     {
 447              		.loc 1 119 0
 448 0010 A342     		cmp	r3, r4
 449 0012 10D0     		beq	.L40
 121:../../../../../../Middlewares/Third_Party/LoRaWAN/Mac/LoRaMacConfirmQueue.c ****         {
 450              		.loc 1 121 0
 451 0014 1A78     		ldrb	r2, [r3]
 452 0016 8A42     		cmp	r2, r1
 453 0018 0ED0     		beq	.L42
 454 001a 3500     		movs	r5, r6
 455 001c 1035     		adds	r5, r5, #16
 456 001e 05E0     		b	.L43
 457              	.LVL27:
 458              	.L44:
 459              	.LBB49:
 460              	.LBB50:
  96:../../../../../../Middlewares/Third_Party/LoRaWAN/Mac/LoRaMacConfirmQueue.c ****     }
 461              		.loc 1 96 0
 462 0020 0433     		adds	r3, r3, #4
 463              	.LVL28:
 464              	.LBE50:
 465              	.LBE49:
 119:../../../../../../Middlewares/Third_Party/LoRaWAN/Mac/LoRaMacConfirmQueue.c ****     {
 466              		.loc 1 119 0
 467 0022 9C42     		cmp	r4, r3
 468 0024 07D0     		beq	.L40
 469              	.L46:
 121:../../../../../../Middlewares/Third_Party/LoRaWAN/Mac/LoRaMacConfirmQueue.c ****         {
 470              		.loc 1 121 0
 471 0026 1A78     		ldrb	r2, [r3]
 472 0028 8A42     		cmp	r2, r1
 473 002a 05D0     		beq	.L42
 474              	.LVL29:
ARM GAS  C:\Users\EBANO_~1\AppData\Local\Temp\ccdt2GJa.s 			page 14


 475              	.L43:
 476              	.LBB52:
 477              	.LBB51:
  88:../../../../../../Middlewares/Third_Party/LoRaWAN/Mac/LoRaMacConfirmQueue.c ****     {
 478              		.loc 1 88 0
 479 002c 9D42     		cmp	r5, r3
 480 002e F7D1     		bne	.L44
  91:../../../../../../Middlewares/Third_Party/LoRaWAN/Mac/LoRaMacConfirmQueue.c ****     }
 481              		.loc 1 91 0
 482 0030 3300     		movs	r3, r6
 483              	.LVL30:
 484              	.LBE51:
 485              	.LBE52:
 119:../../../../../../Middlewares/Third_Party/LoRaWAN/Mac/LoRaMacConfirmQueue.c ****     {
 486              		.loc 1 119 0
 487 0032 9C42     		cmp	r4, r3
 488 0034 F7D1     		bne	.L46
 489              	.LVL31:
 490              	.L40:
 491              	.LBE48:
 492              	.LBE47:
 235:../../../../../../Middlewares/Third_Party/LoRaWAN/Mac/LoRaMacConfirmQueue.c ****         if( element != NULL )
 236:../../../../../../Middlewares/Third_Party/LoRaWAN/Mac/LoRaMacConfirmQueue.c ****         {
 237:../../../../../../Middlewares/Third_Party/LoRaWAN/Mac/LoRaMacConfirmQueue.c ****             element->Status = status;
 238:../../../../../../Middlewares/Third_Party/LoRaWAN/Mac/LoRaMacConfirmQueue.c ****             element->ReadyToHandle = true;
 239:../../../../../../Middlewares/Third_Party/LoRaWAN/Mac/LoRaMacConfirmQueue.c ****         }
 240:../../../../../../Middlewares/Third_Party/LoRaWAN/Mac/LoRaMacConfirmQueue.c ****     }
 241:../../../../../../Middlewares/Third_Party/LoRaWAN/Mac/LoRaMacConfirmQueue.c **** }
 493              		.loc 1 241 0
 494              		@ sp needed
 495 0036 70BD     		pop	{r4, r5, r6, pc}
 496              	.LVL32:
 497              	.L42:
 238:../../../../../../Middlewares/Third_Party/LoRaWAN/Mac/LoRaMacConfirmQueue.c ****         }
 498              		.loc 1 238 0
 499 0038 0122     		movs	r2, #1
 237:../../../../../../Middlewares/Third_Party/LoRaWAN/Mac/LoRaMacConfirmQueue.c ****             element->ReadyToHandle = true;
 500              		.loc 1 237 0
 501 003a 5870     		strb	r0, [r3, #1]
 238:../../../../../../Middlewares/Third_Party/LoRaWAN/Mac/LoRaMacConfirmQueue.c ****         }
 502              		.loc 1 238 0
 503 003c 9A70     		strb	r2, [r3, #2]
 504 003e FAE7     		b	.L40
 505              	.L51:
 506              		.align	2
 507              	.L50:
 508 0040 00000000 		.word	.LANCHOR0
 509              		.cfi_endproc
 510              	.LFE48:
 511              		.size	LoRaMacConfirmQueueSetStatus, .-LoRaMacConfirmQueueSetStatus
 512              		.section	.text.LoRaMacConfirmQueueGetStatus,"ax",%progbits
 513              		.align	1
 514              		.p2align 2,,3
 515              		.global	LoRaMacConfirmQueueGetStatus
 516              		.syntax unified
 517              		.code	16
 518              		.thumb_func
ARM GAS  C:\Users\EBANO_~1\AppData\Local\Temp\ccdt2GJa.s 			page 15


 519              		.fpu softvfp
 520              		.type	LoRaMacConfirmQueueGetStatus, %function
 521              	LoRaMacConfirmQueueGetStatus:
 522              	.LFB49:
 242:../../../../../../Middlewares/Third_Party/LoRaWAN/Mac/LoRaMacConfirmQueue.c **** 
 243:../../../../../../Middlewares/Third_Party/LoRaWAN/Mac/LoRaMacConfirmQueue.c **** LoRaMacEventInfoStatus_t LoRaMacConfirmQueueGetStatus( Mlme_t request )
 244:../../../../../../Middlewares/Third_Party/LoRaWAN/Mac/LoRaMacConfirmQueue.c **** {
 523              		.loc 1 244 0
 524              		.cfi_startproc
 525              		@ args = 0, pretend = 0, frame = 0
 526              		@ frame_needed = 0, uses_anonymous_args = 0
 527              	.LVL33:
 528 0000 30B5     		push	{r4, r5, lr}
 529              	.LCFI5:
 530              		.cfi_def_cfa_offset 12
 531              		.cfi_offset 4, -12
 532              		.cfi_offset 5, -8
 533              		.cfi_offset 14, -4
 245:../../../../../../Middlewares/Third_Party/LoRaWAN/Mac/LoRaMacConfirmQueue.c ****     MlmeConfirmQueue_t* element = NULL;
 246:../../../../../../Middlewares/Third_Party/LoRaWAN/Mac/LoRaMacConfirmQueue.c **** 
 247:../../../../../../Middlewares/Third_Party/LoRaWAN/Mac/LoRaMacConfirmQueue.c ****     if( ConfirmQueueCtx.ConfirmQueueNvmCtx->MlmeConfirmQueueCnt > 0 )
 534              		.loc 1 247 0
 535 0002 104A     		ldr	r2, .L64
 244:../../../../../../Middlewares/Third_Party/LoRaWAN/Mac/LoRaMacConfirmQueue.c ****     MlmeConfirmQueue_t* element = NULL;
 536              		.loc 1 244 0
 537 0004 0100     		movs	r1, r0
 538              		.loc 1 247 0
 539 0006 1569     		ldr	r5, [r2, #16]
 248:../../../../../../Middlewares/Third_Party/LoRaWAN/Mac/LoRaMacConfirmQueue.c ****     {
 249:../../../../../../Middlewares/Third_Party/LoRaWAN/Mac/LoRaMacConfirmQueue.c ****         element = GetElement( request, ConfirmQueueCtx.BufferStart, ConfirmQueueCtx.BufferEnd );
 250:../../../../../../Middlewares/Third_Party/LoRaWAN/Mac/LoRaMacConfirmQueue.c ****         if( element != NULL )
 251:../../../../../../Middlewares/Third_Party/LoRaWAN/Mac/LoRaMacConfirmQueue.c ****         {
 252:../../../../../../Middlewares/Third_Party/LoRaWAN/Mac/LoRaMacConfirmQueue.c ****             return element->Status;
 253:../../../../../../Middlewares/Third_Party/LoRaWAN/Mac/LoRaMacConfirmQueue.c ****         }
 254:../../../../../../Middlewares/Third_Party/LoRaWAN/Mac/LoRaMacConfirmQueue.c ****     }
 255:../../../../../../Middlewares/Third_Party/LoRaWAN/Mac/LoRaMacConfirmQueue.c ****     return LORAMAC_EVENT_INFO_STATUS_ERROR;
 540              		.loc 1 255 0
 541 0008 0120     		movs	r0, #1
 542              	.LVL34:
 247:../../../../../../Middlewares/Third_Party/LoRaWAN/Mac/LoRaMacConfirmQueue.c ****     {
 543              		.loc 1 247 0
 544 000a 2B7D     		ldrb	r3, [r5, #20]
 545 000c 002B     		cmp	r3, #0
 546 000e 15D0     		beq	.L61
 249:../../../../../../Middlewares/Third_Party/LoRaWAN/Mac/LoRaMacConfirmQueue.c ****         if( element != NULL )
 547              		.loc 1 249 0
 548 0010 5368     		ldr	r3, [r2, #4]
 549 0012 9468     		ldr	r4, [r2, #8]
 550              	.LVL35:
 551              	.LBB53:
 552              	.LBB54:
 119:../../../../../../Middlewares/Third_Party/LoRaWAN/Mac/LoRaMacConfirmQueue.c ****     {
 553              		.loc 1 119 0
 554 0014 A342     		cmp	r3, r4
 555 0016 11D0     		beq	.L61
 121:../../../../../../Middlewares/Third_Party/LoRaWAN/Mac/LoRaMacConfirmQueue.c ****         {
 556              		.loc 1 121 0
ARM GAS  C:\Users\EBANO_~1\AppData\Local\Temp\ccdt2GJa.s 			page 16


 557 0018 1A78     		ldrb	r2, [r3]
 558 001a 8A42     		cmp	r2, r1
 559 001c 0FD0     		beq	.L54
 560 001e 2800     		movs	r0, r5
 561 0020 1030     		adds	r0, r0, #16
 562 0022 05E0     		b	.L55
 563              	.LVL36:
 564              	.L56:
 565              	.LBB55:
 566              	.LBB56:
  96:../../../../../../Middlewares/Third_Party/LoRaWAN/Mac/LoRaMacConfirmQueue.c ****     }
 567              		.loc 1 96 0
 568 0024 0433     		adds	r3, r3, #4
 569              	.LVL37:
 570              	.LBE56:
 571              	.LBE55:
 119:../../../../../../Middlewares/Third_Party/LoRaWAN/Mac/LoRaMacConfirmQueue.c ****     {
 572              		.loc 1 119 0
 573 0026 9C42     		cmp	r4, r3
 574 0028 07D0     		beq	.L63
 575              	.L58:
 121:../../../../../../Middlewares/Third_Party/LoRaWAN/Mac/LoRaMacConfirmQueue.c ****         {
 576              		.loc 1 121 0
 577 002a 1A78     		ldrb	r2, [r3]
 578 002c 8A42     		cmp	r2, r1
 579 002e 06D0     		beq	.L54
 580              	.LVL38:
 581              	.L55:
 582              	.LBB58:
 583              	.LBB57:
  88:../../../../../../Middlewares/Third_Party/LoRaWAN/Mac/LoRaMacConfirmQueue.c ****     {
 584              		.loc 1 88 0
 585 0030 9842     		cmp	r0, r3
 586 0032 F7D1     		bne	.L56
  91:../../../../../../Middlewares/Third_Party/LoRaWAN/Mac/LoRaMacConfirmQueue.c ****     }
 587              		.loc 1 91 0
 588 0034 2B00     		movs	r3, r5
 589              	.LVL39:
 590              	.LBE57:
 591              	.LBE58:
 119:../../../../../../Middlewares/Third_Party/LoRaWAN/Mac/LoRaMacConfirmQueue.c ****     {
 592              		.loc 1 119 0
 593 0036 9C42     		cmp	r4, r3
 594 0038 F7D1     		bne	.L58
 595              	.L63:
 596              	.LBE54:
 597              	.LBE53:
 598              		.loc 1 255 0
 599 003a 0120     		movs	r0, #1
 600              	.LVL40:
 601              	.L61:
 256:../../../../../../Middlewares/Third_Party/LoRaWAN/Mac/LoRaMacConfirmQueue.c **** }
 602              		.loc 1 256 0
 603              		@ sp needed
 604 003c 30BD     		pop	{r4, r5, pc}
 605              	.LVL41:
 606              	.L54:
ARM GAS  C:\Users\EBANO_~1\AppData\Local\Temp\ccdt2GJa.s 			page 17


 252:../../../../../../Middlewares/Third_Party/LoRaWAN/Mac/LoRaMacConfirmQueue.c ****         }
 607              		.loc 1 252 0
 608 003e 5878     		ldrb	r0, [r3, #1]
 609 0040 FCE7     		b	.L61
 610              	.L65:
 611 0042 C046     		.align	2
 612              	.L64:
 613 0044 00000000 		.word	.LANCHOR0
 614              		.cfi_endproc
 615              	.LFE49:
 616              		.size	LoRaMacConfirmQueueGetStatus, .-LoRaMacConfirmQueueGetStatus
 617              		.section	.text.LoRaMacConfirmQueueSetStatusCmn,"ax",%progbits
 618              		.align	1
 619              		.p2align 2,,3
 620              		.global	LoRaMacConfirmQueueSetStatusCmn
 621              		.syntax unified
 622              		.code	16
 623              		.thumb_func
 624              		.fpu softvfp
 625              		.type	LoRaMacConfirmQueueSetStatusCmn, %function
 626              	LoRaMacConfirmQueueSetStatusCmn:
 627              	.LFB50:
 257:../../../../../../Middlewares/Third_Party/LoRaWAN/Mac/LoRaMacConfirmQueue.c **** 
 258:../../../../../../Middlewares/Third_Party/LoRaWAN/Mac/LoRaMacConfirmQueue.c **** void LoRaMacConfirmQueueSetStatusCmn( LoRaMacEventInfoStatus_t status )
 259:../../../../../../Middlewares/Third_Party/LoRaWAN/Mac/LoRaMacConfirmQueue.c **** {
 628              		.loc 1 259 0
 629              		.cfi_startproc
 630              		@ args = 0, pretend = 0, frame = 0
 631              		@ frame_needed = 0, uses_anonymous_args = 0
 632              	.LVL42:
 633 0000 70B5     		push	{r4, r5, r6, lr}
 634              	.LCFI6:
 635              		.cfi_def_cfa_offset 16
 636              		.cfi_offset 4, -16
 637              		.cfi_offset 5, -12
 638              		.cfi_offset 6, -8
 639              		.cfi_offset 14, -4
 260:../../../../../../Middlewares/Third_Party/LoRaWAN/Mac/LoRaMacConfirmQueue.c ****     MlmeConfirmQueue_t* element = ConfirmQueueCtx.BufferStart;
 640              		.loc 1 260 0
 641 0002 0D4A     		ldr	r2, .L76
 261:../../../../../../Middlewares/Third_Party/LoRaWAN/Mac/LoRaMacConfirmQueue.c **** 
 262:../../../../../../Middlewares/Third_Party/LoRaWAN/Mac/LoRaMacConfirmQueue.c ****     ConfirmQueueCtx.ConfirmQueueNvmCtx->CommonStatus = status;
 642              		.loc 1 262 0
 643 0004 1169     		ldr	r1, [r2, #16]
 260:../../../../../../Middlewares/Third_Party/LoRaWAN/Mac/LoRaMacConfirmQueue.c ****     MlmeConfirmQueue_t* element = ConfirmQueueCtx.BufferStart;
 644              		.loc 1 260 0
 645 0006 5368     		ldr	r3, [r2, #4]
 646              	.LVL43:
 263:../../../../../../Middlewares/Third_Party/LoRaWAN/Mac/LoRaMacConfirmQueue.c **** 
 264:../../../../../../Middlewares/Third_Party/LoRaWAN/Mac/LoRaMacConfirmQueue.c ****     if( ConfirmQueueCtx.ConfirmQueueNvmCtx->MlmeConfirmQueueCnt > 0 )
 647              		.loc 1 264 0
 648 0008 0C7D     		ldrb	r4, [r1, #20]
 262:../../../../../../Middlewares/Third_Party/LoRaWAN/Mac/LoRaMacConfirmQueue.c **** 
 649              		.loc 1 262 0
 650 000a 4875     		strb	r0, [r1, #21]
 651              		.loc 1 264 0
 652 000c 002C     		cmp	r4, #0
ARM GAS  C:\Users\EBANO_~1\AppData\Local\Temp\ccdt2GJa.s 			page 18


 653 000e 11D0     		beq	.L66
 654 0010 0C00     		movs	r4, r1
 265:../../../../../../Middlewares/Third_Party/LoRaWAN/Mac/LoRaMacConfirmQueue.c ****     {
 266:../../../../../../Middlewares/Third_Party/LoRaWAN/Mac/LoRaMacConfirmQueue.c ****         do
 267:../../../../../../Middlewares/Third_Party/LoRaWAN/Mac/LoRaMacConfirmQueue.c ****         {
 268:../../../../../../Middlewares/Third_Party/LoRaWAN/Mac/LoRaMacConfirmQueue.c ****             element->Status = status;
 269:../../../../../../Middlewares/Third_Party/LoRaWAN/Mac/LoRaMacConfirmQueue.c ****             // Set the status if it is allowed to set it with a call to
 270:../../../../../../Middlewares/Third_Party/LoRaWAN/Mac/LoRaMacConfirmQueue.c ****             // LoRaMacConfirmQueueSetStatusCmn.
 271:../../../../../../Middlewares/Third_Party/LoRaWAN/Mac/LoRaMacConfirmQueue.c ****             if( element->RestrictCommonReadyToHandle == false )
 272:../../../../../../Middlewares/Third_Party/LoRaWAN/Mac/LoRaMacConfirmQueue.c ****             {
 273:../../../../../../Middlewares/Third_Party/LoRaWAN/Mac/LoRaMacConfirmQueue.c ****                 element->ReadyToHandle = true;
 274:../../../../../../Middlewares/Third_Party/LoRaWAN/Mac/LoRaMacConfirmQueue.c ****             }
 275:../../../../../../Middlewares/Third_Party/LoRaWAN/Mac/LoRaMacConfirmQueue.c ****             element = IncreaseBufferPointer( element );
 276:../../../../../../Middlewares/Third_Party/LoRaWAN/Mac/LoRaMacConfirmQueue.c ****         }while( element != ConfirmQueueCtx.BufferEnd );
 655              		.loc 1 276 0
 656 0012 9568     		ldr	r5, [r2, #8]
 657 0014 1034     		adds	r4, r4, #16
 273:../../../../../../Middlewares/Third_Party/LoRaWAN/Mac/LoRaMacConfirmQueue.c ****             }
 658              		.loc 1 273 0
 659 0016 0126     		movs	r6, #1
 660 0018 02E0     		b	.L71
 661              	.LVL44:
 662              	.L69:
 663              	.LBB59:
 664              	.LBB60:
  96:../../../../../../Middlewares/Third_Party/LoRaWAN/Mac/LoRaMacConfirmQueue.c ****     }
 665              		.loc 1 96 0
 666 001a 0433     		adds	r3, r3, #4
 667              	.LVL45:
 668              	.LBE60:
 669              	.LBE59:
 670              		.loc 1 276 0
 671 001c 9D42     		cmp	r5, r3
 672 001e 09D0     		beq	.L66
 673              	.L71:
 674              	.LVL46:
 271:../../../../../../Middlewares/Third_Party/LoRaWAN/Mac/LoRaMacConfirmQueue.c ****             {
 675              		.loc 1 271 0
 676 0020 DA78     		ldrb	r2, [r3, #3]
 268:../../../../../../Middlewares/Third_Party/LoRaWAN/Mac/LoRaMacConfirmQueue.c ****             // Set the status if it is allowed to set it with a call to
 677              		.loc 1 268 0
 678 0022 5870     		strb	r0, [r3, #1]
 271:../../../../../../Middlewares/Third_Party/LoRaWAN/Mac/LoRaMacConfirmQueue.c ****             {
 679              		.loc 1 271 0
 680 0024 002A     		cmp	r2, #0
 681 0026 00D1     		bne	.L68
 273:../../../../../../Middlewares/Third_Party/LoRaWAN/Mac/LoRaMacConfirmQueue.c ****             }
 682              		.loc 1 273 0
 683 0028 9E70     		strb	r6, [r3, #2]
 684              	.L68:
 685              	.LVL47:
 686              	.LBB62:
 687              	.LBB61:
  88:../../../../../../Middlewares/Third_Party/LoRaWAN/Mac/LoRaMacConfirmQueue.c ****     {
 688              		.loc 1 88 0
 689 002a A342     		cmp	r3, r4
 690 002c F5D1     		bne	.L69
ARM GAS  C:\Users\EBANO_~1\AppData\Local\Temp\ccdt2GJa.s 			page 19


  91:../../../../../../Middlewares/Third_Party/LoRaWAN/Mac/LoRaMacConfirmQueue.c ****     }
 691              		.loc 1 91 0
 692 002e 0B00     		movs	r3, r1
 693              	.LVL48:
 694              	.LBE61:
 695              	.LBE62:
 696              		.loc 1 276 0
 697 0030 9D42     		cmp	r5, r3
 698 0032 F5D1     		bne	.L71
 699              	.L66:
 277:../../../../../../Middlewares/Third_Party/LoRaWAN/Mac/LoRaMacConfirmQueue.c ****     }
 278:../../../../../../Middlewares/Third_Party/LoRaWAN/Mac/LoRaMacConfirmQueue.c **** }
 700              		.loc 1 278 0
 701              		@ sp needed
 702 0034 70BD     		pop	{r4, r5, r6, pc}
 703              	.L77:
 704 0036 C046     		.align	2
 705              	.L76:
 706 0038 00000000 		.word	.LANCHOR0
 707              		.cfi_endproc
 708              	.LFE50:
 709              		.size	LoRaMacConfirmQueueSetStatusCmn, .-LoRaMacConfirmQueueSetStatusCmn
 710              		.section	.text.LoRaMacConfirmQueueGetStatusCmn,"ax",%progbits
 711              		.align	1
 712              		.p2align 2,,3
 713              		.global	LoRaMacConfirmQueueGetStatusCmn
 714              		.syntax unified
 715              		.code	16
 716              		.thumb_func
 717              		.fpu softvfp
 718              		.type	LoRaMacConfirmQueueGetStatusCmn, %function
 719              	LoRaMacConfirmQueueGetStatusCmn:
 720              	.LFB51:
 279:../../../../../../Middlewares/Third_Party/LoRaWAN/Mac/LoRaMacConfirmQueue.c **** 
 280:../../../../../../Middlewares/Third_Party/LoRaWAN/Mac/LoRaMacConfirmQueue.c **** LoRaMacEventInfoStatus_t LoRaMacConfirmQueueGetStatusCmn( void )
 281:../../../../../../Middlewares/Third_Party/LoRaWAN/Mac/LoRaMacConfirmQueue.c **** {
 721              		.loc 1 281 0
 722              		.cfi_startproc
 723              		@ args = 0, pretend = 0, frame = 0
 724              		@ frame_needed = 0, uses_anonymous_args = 0
 725              		@ link register save eliminated.
 282:../../../../../../Middlewares/Third_Party/LoRaWAN/Mac/LoRaMacConfirmQueue.c ****     return ConfirmQueueCtx.ConfirmQueueNvmCtx->CommonStatus;
 726              		.loc 1 282 0
 727 0000 014B     		ldr	r3, .L79
 283:../../../../../../Middlewares/Third_Party/LoRaWAN/Mac/LoRaMacConfirmQueue.c **** }
 728              		.loc 1 283 0
 729              		@ sp needed
 282:../../../../../../Middlewares/Third_Party/LoRaWAN/Mac/LoRaMacConfirmQueue.c ****     return ConfirmQueueCtx.ConfirmQueueNvmCtx->CommonStatus;
 730              		.loc 1 282 0
 731 0002 1B69     		ldr	r3, [r3, #16]
 732 0004 587D     		ldrb	r0, [r3, #21]
 733              		.loc 1 283 0
 734 0006 7047     		bx	lr
 735              	.L80:
 736              		.align	2
 737              	.L79:
 738 0008 00000000 		.word	.LANCHOR0
ARM GAS  C:\Users\EBANO_~1\AppData\Local\Temp\ccdt2GJa.s 			page 20


 739              		.cfi_endproc
 740              	.LFE51:
 741              		.size	LoRaMacConfirmQueueGetStatusCmn, .-LoRaMacConfirmQueueGetStatusCmn
 742              		.section	.text.LoRaMacConfirmQueueIsCmdActive,"ax",%progbits
 743              		.align	1
 744              		.p2align 2,,3
 745              		.global	LoRaMacConfirmQueueIsCmdActive
 746              		.syntax unified
 747              		.code	16
 748              		.thumb_func
 749              		.fpu softvfp
 750              		.type	LoRaMacConfirmQueueIsCmdActive, %function
 751              	LoRaMacConfirmQueueIsCmdActive:
 752              	.LFB52:
 284:../../../../../../Middlewares/Third_Party/LoRaWAN/Mac/LoRaMacConfirmQueue.c **** 
 285:../../../../../../Middlewares/Third_Party/LoRaWAN/Mac/LoRaMacConfirmQueue.c **** bool LoRaMacConfirmQueueIsCmdActive( Mlme_t request )
 286:../../../../../../Middlewares/Third_Party/LoRaWAN/Mac/LoRaMacConfirmQueue.c **** {
 753              		.loc 1 286 0
 754              		.cfi_startproc
 755              		@ args = 0, pretend = 0, frame = 0
 756              		@ frame_needed = 0, uses_anonymous_args = 0
 757              	.LVL49:
 287:../../../../../../Middlewares/Third_Party/LoRaWAN/Mac/LoRaMacConfirmQueue.c ****     if( GetElement( request, ConfirmQueueCtx.BufferStart, ConfirmQueueCtx.BufferEnd ) != NULL )
 758              		.loc 1 287 0
 759 0000 0D4A     		ldr	r2, .L91
 286:../../../../../../Middlewares/Third_Party/LoRaWAN/Mac/LoRaMacConfirmQueue.c ****     if( GetElement( request, ConfirmQueueCtx.BufferStart, ConfirmQueueCtx.BufferEnd ) != NULL )
 760              		.loc 1 286 0
 761 0002 30B5     		push	{r4, r5, lr}
 762              	.LCFI7:
 763              		.cfi_def_cfa_offset 12
 764              		.cfi_offset 4, -12
 765              		.cfi_offset 5, -8
 766              		.cfi_offset 14, -4
 767              		.loc 1 287 0
 768 0004 5368     		ldr	r3, [r2, #4]
 769 0006 9168     		ldr	r1, [r2, #8]
 770              	.LVL50:
 771              	.LBB63:
 772              	.LBB64:
 119:../../../../../../Middlewares/Third_Party/LoRaWAN/Mac/LoRaMacConfirmQueue.c ****     {
 773              		.loc 1 119 0
 774 0008 8B42     		cmp	r3, r1
 775 000a 11D0     		beq	.L86
 121:../../../../../../Middlewares/Third_Party/LoRaWAN/Mac/LoRaMacConfirmQueue.c ****         {
 776              		.loc 1 121 0
 777 000c 1C78     		ldrb	r4, [r3]
 778 000e 8442     		cmp	r4, r0
 779 0010 10D0     		beq	.L88
 780              	.LBB65:
 781              	.LBB66:
  88:../../../../../../Middlewares/Third_Party/LoRaWAN/Mac/LoRaMacConfirmQueue.c ****     {
 782              		.loc 1 88 0
 783 0012 1569     		ldr	r5, [r2, #16]
 784 0014 2C00     		movs	r4, r5
 785 0016 1034     		adds	r4, r4, #16
 786 0018 05E0     		b	.L83
 787              	.LVL51:
ARM GAS  C:\Users\EBANO_~1\AppData\Local\Temp\ccdt2GJa.s 			page 21


 788              	.L90:
  96:../../../../../../Middlewares/Third_Party/LoRaWAN/Mac/LoRaMacConfirmQueue.c ****     }
 789              		.loc 1 96 0
 790 001a 0433     		adds	r3, r3, #4
 791              	.LVL52:
 792              	.LBE66:
 793              	.LBE65:
 119:../../../../../../Middlewares/Third_Party/LoRaWAN/Mac/LoRaMacConfirmQueue.c ****     {
 794              		.loc 1 119 0
 795 001c 9942     		cmp	r1, r3
 796 001e 07D0     		beq	.L86
 797              	.LVL53:
 798              	.L85:
 121:../../../../../../Middlewares/Third_Party/LoRaWAN/Mac/LoRaMacConfirmQueue.c ****         {
 799              		.loc 1 121 0
 800 0020 1A78     		ldrb	r2, [r3]
 801 0022 8242     		cmp	r2, r0
 802 0024 06D0     		beq	.L88
 803              	.L83:
 804              	.LVL54:
 805              	.LBB68:
 806              	.LBB67:
  88:../../../../../../Middlewares/Third_Party/LoRaWAN/Mac/LoRaMacConfirmQueue.c ****     {
 807              		.loc 1 88 0
 808 0026 9C42     		cmp	r4, r3
 809 0028 F7D1     		bne	.L90
  91:../../../../../../Middlewares/Third_Party/LoRaWAN/Mac/LoRaMacConfirmQueue.c ****     }
 810              		.loc 1 91 0
 811 002a 2B00     		movs	r3, r5
 812              	.LVL55:
 813              	.LBE67:
 814              	.LBE68:
 119:../../../../../../Middlewares/Third_Party/LoRaWAN/Mac/LoRaMacConfirmQueue.c ****     {
 815              		.loc 1 119 0
 816 002c 9942     		cmp	r1, r3
 817 002e F7D1     		bne	.L85
 818              	.L86:
 819              	.LBE64:
 820              	.LBE63:
 288:../../../../../../Middlewares/Third_Party/LoRaWAN/Mac/LoRaMacConfirmQueue.c ****     {
 289:../../../../../../Middlewares/Third_Party/LoRaWAN/Mac/LoRaMacConfirmQueue.c ****         return true;
 290:../../../../../../Middlewares/Third_Party/LoRaWAN/Mac/LoRaMacConfirmQueue.c ****     }
 291:../../../../../../Middlewares/Third_Party/LoRaWAN/Mac/LoRaMacConfirmQueue.c ****     return false;
 821              		.loc 1 291 0
 822 0030 0020     		movs	r0, #0
 823              	.LVL56:
 824              	.L82:
 292:../../../../../../Middlewares/Third_Party/LoRaWAN/Mac/LoRaMacConfirmQueue.c **** }
 825              		.loc 1 292 0
 826              		@ sp needed
 827 0032 30BD     		pop	{r4, r5, pc}
 828              	.LVL57:
 829              	.L88:
 289:../../../../../../Middlewares/Third_Party/LoRaWAN/Mac/LoRaMacConfirmQueue.c ****     }
 830              		.loc 1 289 0
 831 0034 0120     		movs	r0, #1
 832              	.LVL58:
ARM GAS  C:\Users\EBANO_~1\AppData\Local\Temp\ccdt2GJa.s 			page 22


 833 0036 FCE7     		b	.L82
 834              	.L92:
 835              		.align	2
 836              	.L91:
 837 0038 00000000 		.word	.LANCHOR0
 838              		.cfi_endproc
 839              	.LFE52:
 840              		.size	LoRaMacConfirmQueueIsCmdActive, .-LoRaMacConfirmQueueIsCmdActive
 841              		.section	.text.LoRaMacConfirmQueueHandleCb,"ax",%progbits
 842              		.align	1
 843              		.p2align 2,,3
 844              		.global	LoRaMacConfirmQueueHandleCb
 845              		.syntax unified
 846              		.code	16
 847              		.thumb_func
 848              		.fpu softvfp
 849              		.type	LoRaMacConfirmQueueHandleCb, %function
 850              	LoRaMacConfirmQueueHandleCb:
 851              	.LFB53:
 293:../../../../../../Middlewares/Third_Party/LoRaWAN/Mac/LoRaMacConfirmQueue.c **** 
 294:../../../../../../Middlewares/Third_Party/LoRaWAN/Mac/LoRaMacConfirmQueue.c **** void LoRaMacConfirmQueueHandleCb( MlmeConfirm_t* mlmeConfirm )
 295:../../../../../../Middlewares/Third_Party/LoRaWAN/Mac/LoRaMacConfirmQueue.c **** {
 852              		.loc 1 295 0
 853              		.cfi_startproc
 854              		@ args = 0, pretend = 0, frame = 8
 855              		@ frame_needed = 0, uses_anonymous_args = 0
 856              	.LVL59:
 857 0000 F0B5     		push	{r4, r5, r6, r7, lr}
 858              	.LCFI8:
 859              		.cfi_def_cfa_offset 20
 860              		.cfi_offset 4, -20
 861              		.cfi_offset 5, -16
 862              		.cfi_offset 6, -12
 863              		.cfi_offset 7, -8
 864              		.cfi_offset 14, -4
 865 0002 4546     		mov	r5, r8
 866 0004 4E46     		mov	r6, r9
 867 0006 DE46     		mov	lr, fp
 868 0008 5746     		mov	r7, r10
 869 000a E0B5     		push	{r5, r6, r7, lr}
 870              	.LCFI9:
 871              		.cfi_def_cfa_offset 36
 872              		.cfi_offset 8, -36
 873              		.cfi_offset 9, -32
 874              		.cfi_offset 10, -28
 875              		.cfi_offset 11, -24
 296:../../../../../../Middlewares/Third_Party/LoRaWAN/Mac/LoRaMacConfirmQueue.c ****     uint8_t nbElements = ConfirmQueueCtx.ConfirmQueueNvmCtx->MlmeConfirmQueueCnt;
 876              		.loc 1 296 0
 877 000c 2E4D     		ldr	r5, .L117
 295:../../../../../../Middlewares/Third_Party/LoRaWAN/Mac/LoRaMacConfirmQueue.c ****     uint8_t nbElements = ConfirmQueueCtx.ConfirmQueueNvmCtx->MlmeConfirmQueueCnt;
 878              		.loc 1 295 0
 879 000e 83B0     		sub	sp, sp, #12
 880              	.LCFI10:
 881              		.cfi_def_cfa_offset 48
 882              		.loc 1 296 0
 883 0010 2B69     		ldr	r3, [r5, #16]
 295:../../../../../../Middlewares/Third_Party/LoRaWAN/Mac/LoRaMacConfirmQueue.c ****     uint8_t nbElements = ConfirmQueueCtx.ConfirmQueueNvmCtx->MlmeConfirmQueueCnt;
ARM GAS  C:\Users\EBANO_~1\AppData\Local\Temp\ccdt2GJa.s 			page 23


 884              		.loc 1 295 0
 885 0012 0600     		movs	r6, r0
 886              		.loc 1 296 0
 887 0014 1B7D     		ldrb	r3, [r3, #20]
 888 0016 9846     		mov	r8, r3
 889              	.LVL60:
 890              	.LBB78:
 297:../../../../../../Middlewares/Third_Party/LoRaWAN/Mac/LoRaMacConfirmQueue.c ****     bool readyToHandle = false;
 298:../../../../../../Middlewares/Third_Party/LoRaWAN/Mac/LoRaMacConfirmQueue.c ****     MlmeConfirmQueue_t mlmeConfirmToStore;
 299:../../../../../../Middlewares/Third_Party/LoRaWAN/Mac/LoRaMacConfirmQueue.c **** 
 300:../../../../../../Middlewares/Third_Party/LoRaWAN/Mac/LoRaMacConfirmQueue.c ****     for( uint8_t i = 0; i < nbElements; i++ )
 891              		.loc 1 300 0
 892 0018 002B     		cmp	r3, #0
 893 001a 2CD0     		beq	.L93
 894              	.LBB79:
 895              	.LBB80:
 189:../../../../../../Middlewares/Third_Party/LoRaWAN/Mac/LoRaMacConfirmQueue.c ****     // Increase counter
 896              		.loc 1 189 0
 897 001c 0023     		movs	r3, #0
 898              	.LVL61:
 899              	.LBE80:
 900              	.LBE79:
 901              		.loc 1 300 0
 902 001e 0024     		movs	r4, #0
 903              	.LBB88:
 904              	.LBB85:
 189:../../../../../../Middlewares/Third_Party/LoRaWAN/Mac/LoRaMacConfirmQueue.c ****     // Increase counter
 905              		.loc 1 189 0
 906 0020 9946     		mov	r9, r3
 907 0022 03E0     		b	.L103
 908              	.LVL62:
 909              	.L96:
 910              	.LBE85:
 911              	.LBE88:
 912              		.loc 1 300 0 discriminator 2
 913 0024 0134     		adds	r4, r4, #1
 914              	.LVL63:
 915 0026 E4B2     		uxtb	r4, r4
 916              	.LVL64:
 917 0028 A045     		cmp	r8, r4
 918 002a 24D0     		beq	.L93
 919              	.LVL65:
 920              	.L103:
 301:../../../../../../Middlewares/Third_Party/LoRaWAN/Mac/LoRaMacConfirmQueue.c ****     {
 302:../../../../../../Middlewares/Third_Party/LoRaWAN/Mac/LoRaMacConfirmQueue.c ****         mlmeConfirm->MlmeRequest = ConfirmQueueCtx.BufferStart->Request;
 921              		.loc 1 302 0
 922 002c 6B68     		ldr	r3, [r5, #4]
 923 002e 1878     		ldrb	r0, [r3]
 924 0030 3070     		strb	r0, [r6]
 303:../../../../../../Middlewares/Third_Party/LoRaWAN/Mac/LoRaMacConfirmQueue.c ****         mlmeConfirm->Status = ConfirmQueueCtx.BufferStart->Status;
 925              		.loc 1 303 0
 926 0032 5A78     		ldrb	r2, [r3, #1]
 927 0034 7270     		strb	r2, [r6, #1]
 304:../../../../../../Middlewares/Third_Party/LoRaWAN/Mac/LoRaMacConfirmQueue.c ****         readyToHandle = ConfirmQueueCtx.BufferStart->ReadyToHandle;
 928              		.loc 1 304 0
 929 0036 9F78     		ldrb	r7, [r3, #2]
 930              	.LVL66:
ARM GAS  C:\Users\EBANO_~1\AppData\Local\Temp\ccdt2GJa.s 			page 24


 303:../../../../../../Middlewares/Third_Party/LoRaWAN/Mac/LoRaMacConfirmQueue.c ****         mlmeConfirm->Status = ConfirmQueueCtx.BufferStart->Status;
 931              		.loc 1 303 0
 932 0038 9446     		mov	ip, r2
 305:../../../../../../Middlewares/Third_Party/LoRaWAN/Mac/LoRaMacConfirmQueue.c **** 
 306:../../../../../../Middlewares/Third_Party/LoRaWAN/Mac/LoRaMacConfirmQueue.c ****         if( readyToHandle == true )
 933              		.loc 1 306 0
 934 003a 002F     		cmp	r7, #0
 935 003c 24D0     		beq	.L95
 307:../../../../../../Middlewares/Third_Party/LoRaWAN/Mac/LoRaMacConfirmQueue.c ****         {
 308:../../../../../../Middlewares/Third_Party/LoRaWAN/Mac/LoRaMacConfirmQueue.c ****             ConfirmQueueCtx.Primitives->MacMlmeConfirm( mlmeConfirm );
 936              		.loc 1 308 0
 937 003e 2B68     		ldr	r3, [r5]
 938 0040 3000     		movs	r0, r6
 939 0042 9B68     		ldr	r3, [r3, #8]
 940 0044 9847     		blx	r3
 941              	.LVL67:
 942              	.LBB89:
 943              	.LBB90:
 215:../../../../../../Middlewares/Third_Party/LoRaWAN/Mac/LoRaMacConfirmQueue.c ****     {
 944              		.loc 1 215 0
 945 0046 2A69     		ldr	r2, [r5, #16]
 946 0048 137D     		ldrb	r3, [r2, #20]
 947 004a 002B     		cmp	r3, #0
 948 004c EAD0     		beq	.L96
 949 004e 1100     		movs	r1, r2
 950 0050 1031     		adds	r1, r1, #16
 951              	.LVL68:
 952              	.L97:
 953              	.LBB91:
 954              	.LBB92:
  96:../../../../../../Middlewares/Third_Party/LoRaWAN/Mac/LoRaMacConfirmQueue.c ****     }
 955              		.loc 1 96 0
 956 0052 6868     		ldr	r0, [r5, #4]
 957              	.LBE92:
 958              	.LBE91:
 221:../../../../../../Middlewares/Third_Party/LoRaWAN/Mac/LoRaMacConfirmQueue.c ****     // Update start pointer
 959              		.loc 1 221 0
 960 0054 013B     		subs	r3, r3, #1
 961              	.LBB96:
 962              	.LBB93:
  96:../../../../../../Middlewares/Third_Party/LoRaWAN/Mac/LoRaMacConfirmQueue.c ****     }
 963              		.loc 1 96 0
 964 0056 0430     		adds	r0, r0, #4
 965 0058 8446     		mov	ip, r0
  88:../../../../../../Middlewares/Third_Party/LoRaWAN/Mac/LoRaMacConfirmQueue.c ****     {
 966              		.loc 1 88 0
 967 005a 6868     		ldr	r0, [r5, #4]
 968              	.LBE93:
 969              	.LBE96:
 221:../../../../../../Middlewares/Third_Party/LoRaWAN/Mac/LoRaMacConfirmQueue.c ****     // Update start pointer
 970              		.loc 1 221 0
 971 005c DBB2     		uxtb	r3, r3
 972 005e 1375     		strb	r3, [r2, #20]
 973              	.LBB97:
 974              	.LBB94:
  88:../../../../../../Middlewares/Third_Party/LoRaWAN/Mac/LoRaMacConfirmQueue.c ****     {
 975              		.loc 1 88 0
ARM GAS  C:\Users\EBANO_~1\AppData\Local\Temp\ccdt2GJa.s 			page 25


 976 0060 8842     		cmp	r0, r1
 977 0062 0FD0     		beq	.L114
 978              	.LVL69:
 979              	.L100:
 980              	.LBE94:
 981              	.LBE97:
 223:../../../../../../Middlewares/Third_Party/LoRaWAN/Mac/LoRaMacConfirmQueue.c **** 
 982              		.loc 1 223 0
 983 0064 6046     		mov	r0, ip
 984 0066 6860     		str	r0, [r5, #4]
 985              	.LBE90:
 986              	.LBE89:
 309:../../../../../../Middlewares/Third_Party/LoRaWAN/Mac/LoRaMacConfirmQueue.c ****         }
 310:../../../../../../Middlewares/Third_Party/LoRaWAN/Mac/LoRaMacConfirmQueue.c ****         else
 311:../../../../../../Middlewares/Third_Party/LoRaWAN/Mac/LoRaMacConfirmQueue.c ****         {
 312:../../../../../../Middlewares/Third_Party/LoRaWAN/Mac/LoRaMacConfirmQueue.c ****             // The request is not processed yet. Store the state.
 313:../../../../../../Middlewares/Third_Party/LoRaWAN/Mac/LoRaMacConfirmQueue.c ****             mlmeConfirmToStore.Request = ConfirmQueueCtx.BufferStart->Request;
 314:../../../../../../Middlewares/Third_Party/LoRaWAN/Mac/LoRaMacConfirmQueue.c ****             mlmeConfirmToStore.Status = ConfirmQueueCtx.BufferStart->Status;
 315:../../../../../../Middlewares/Third_Party/LoRaWAN/Mac/LoRaMacConfirmQueue.c ****             mlmeConfirmToStore.RestrictCommonReadyToHandle = ConfirmQueueCtx.BufferStart->RestrictC
 316:../../../../../../Middlewares/Third_Party/LoRaWAN/Mac/LoRaMacConfirmQueue.c ****         }
 317:../../../../../../Middlewares/Third_Party/LoRaWAN/Mac/LoRaMacConfirmQueue.c **** 
 318:../../../../../../Middlewares/Third_Party/LoRaWAN/Mac/LoRaMacConfirmQueue.c ****         // Increase the pointer afterwards to prevent overwrites
 319:../../../../../../Middlewares/Third_Party/LoRaWAN/Mac/LoRaMacConfirmQueue.c ****         LoRaMacConfirmQueueRemoveFirst( );
 320:../../../../../../Middlewares/Third_Party/LoRaWAN/Mac/LoRaMacConfirmQueue.c **** 
 321:../../../../../../Middlewares/Third_Party/LoRaWAN/Mac/LoRaMacConfirmQueue.c ****         if( readyToHandle == false )
 987              		.loc 1 321 0
 988 0068 002F     		cmp	r7, #0
 989 006a DBD1     		bne	.L96
 990              	.LVL70:
 991              	.LBB101:
 992              	.LBB86:
 179:../../../../../../Middlewares/Third_Party/LoRaWAN/Mac/LoRaMacConfirmQueue.c ****     {
 993              		.loc 1 179 0
 994 006c 042B     		cmp	r3, #4
 995 006e D9D8     		bhi	.L96
 996 0070 0198     		ldr	r0, [sp, #4]
 997 0072 DC46     		mov	ip, fp
 998 0074 10E0     		b	.L98
 999              	.LVL71:
 1000              	.L93:
 1001              	.LBE86:
 1002              	.LBE101:
 1003              	.LBE78:
 322:../../../../../../Middlewares/Third_Party/LoRaWAN/Mac/LoRaMacConfirmQueue.c ****         {
 323:../../../../../../Middlewares/Third_Party/LoRaWAN/Mac/LoRaMacConfirmQueue.c ****             // Add a request which has not been finished again to the queue
 324:../../../../../../Middlewares/Third_Party/LoRaWAN/Mac/LoRaMacConfirmQueue.c ****             LoRaMacConfirmQueueAdd( &mlmeConfirmToStore );
 325:../../../../../../Middlewares/Third_Party/LoRaWAN/Mac/LoRaMacConfirmQueue.c ****         }
 326:../../../../../../Middlewares/Third_Party/LoRaWAN/Mac/LoRaMacConfirmQueue.c ****     }
 327:../../../../../../Middlewares/Third_Party/LoRaWAN/Mac/LoRaMacConfirmQueue.c **** }
 1004              		.loc 1 327 0
 1005 0076 03B0     		add	sp, sp, #12
 1006              		@ sp needed
 1007              	.LVL72:
 1008              	.LVL73:
 1009 0078 3CBC     		pop	{r2, r3, r4, r5}
 1010 007a 9046     		mov	r8, r2
 1011 007c 9946     		mov	r9, r3
ARM GAS  C:\Users\EBANO_~1\AppData\Local\Temp\ccdt2GJa.s 			page 26


 1012 007e A246     		mov	r10, r4
 1013 0080 AB46     		mov	fp, r5
 1014 0082 F0BD     		pop	{r4, r5, r6, r7, pc}
 1015              	.LVL74:
 1016              	.L114:
 1017              	.LBB105:
 1018              	.LBB102:
 1019              	.LBB99:
 1020              	.LBB98:
 1021              	.LBB95:
  91:../../../../../../Middlewares/Third_Party/LoRaWAN/Mac/LoRaMacConfirmQueue.c ****     }
 1022              		.loc 1 91 0
 1023 0084 9446     		mov	ip, r2
 1024              	.LVL75:
 1025 0086 EDE7     		b	.L100
 1026              	.LVL76:
 1027              	.L95:
 1028              	.LBE95:
 1029              	.LBE98:
 215:../../../../../../Middlewares/Third_Party/LoRaWAN/Mac/LoRaMacConfirmQueue.c ****     {
 1030              		.loc 1 215 0
 1031 0088 2A69     		ldr	r2, [r5, #16]
 1032              	.LBE99:
 1033              	.LBE102:
 315:../../../../../../Middlewares/Third_Party/LoRaWAN/Mac/LoRaMacConfirmQueue.c ****         }
 1034              		.loc 1 315 0
 1035 008a DB78     		ldrb	r3, [r3, #3]
 1036 008c 1100     		movs	r1, r2
 1037 008e 9A46     		mov	r10, r3
 1038              	.LVL77:
 1039              	.LBB103:
 1040              	.LBB100:
 215:../../../../../../Middlewares/Third_Party/LoRaWAN/Mac/LoRaMacConfirmQueue.c ****     {
 1041              		.loc 1 215 0
 1042 0090 137D     		ldrb	r3, [r2, #20]
 1043 0092 1031     		adds	r1, r1, #16
 1044 0094 002B     		cmp	r3, #0
 1045 0096 13D1     		bne	.L115
 1046              	.LVL78:
 1047              	.L98:
 1048              	.LBE100:
 1049              	.LBE103:
 1050              	.LBB104:
 1051              	.LBB87:
 187:../../../../../../Middlewares/Third_Party/LoRaWAN/Mac/LoRaMacConfirmQueue.c ****     ConfirmQueueCtx.BufferEnd->RestrictCommonReadyToHandle = mlmeConfirm->RestrictCommonReadyToHand
 1052              		.loc 1 187 0
 1053 0098 6746     		mov	r7, ip
 1054              	.LVL79:
 186:../../../../../../Middlewares/Third_Party/LoRaWAN/Mac/LoRaMacConfirmQueue.c ****     ConfirmQueueCtx.BufferEnd->Status = mlmeConfirm->Status;
 1055              		.loc 1 186 0
 1056 009a AB68     		ldr	r3, [r5, #8]
 187:../../../../../../Middlewares/Third_Party/LoRaWAN/Mac/LoRaMacConfirmQueue.c ****     ConfirmQueueCtx.BufferEnd->RestrictCommonReadyToHandle = mlmeConfirm->RestrictCommonReadyToHand
 1057              		.loc 1 187 0
 1058 009c 5F70     		strb	r7, [r3, #1]
 188:../../../../../../Middlewares/Third_Party/LoRaWAN/Mac/LoRaMacConfirmQueue.c ****     ConfirmQueueCtx.BufferEnd->ReadyToHandle = false;
 1059              		.loc 1 188 0
 1060 009e 5746     		mov	r7, r10
ARM GAS  C:\Users\EBANO_~1\AppData\Local\Temp\ccdt2GJa.s 			page 27


 1061 00a0 DF70     		strb	r7, [r3, #3]
 189:../../../../../../Middlewares/Third_Party/LoRaWAN/Mac/LoRaMacConfirmQueue.c ****     // Increase counter
 1062              		.loc 1 189 0
 1063 00a2 4F46     		mov	r7, r9
 186:../../../../../../Middlewares/Third_Party/LoRaWAN/Mac/LoRaMacConfirmQueue.c ****     ConfirmQueueCtx.BufferEnd->Status = mlmeConfirm->Status;
 1064              		.loc 1 186 0
 1065 00a4 1870     		strb	r0, [r3]
 189:../../../../../../Middlewares/Third_Party/LoRaWAN/Mac/LoRaMacConfirmQueue.c ****     // Increase counter
 1066              		.loc 1 189 0
 1067 00a6 9F70     		strb	r7, [r3, #2]
 191:../../../../../../Middlewares/Third_Party/LoRaWAN/Mac/LoRaMacConfirmQueue.c ****     // Update end pointer
 1068              		.loc 1 191 0
 1069 00a8 177D     		ldrb	r7, [r2, #20]
 1070 00aa 0137     		adds	r7, r7, #1
 1071 00ac 1775     		strb	r7, [r2, #20]
 1072              	.LVL80:
 1073              	.LBB81:
 1074              	.LBB82:
  96:../../../../../../Middlewares/Third_Party/LoRaWAN/Mac/LoRaMacConfirmQueue.c ****     }
 1075              		.loc 1 96 0
 1076 00ae 1F1D     		adds	r7, r3, #4
  88:../../../../../../Middlewares/Third_Party/LoRaWAN/Mac/LoRaMacConfirmQueue.c ****     {
 1077              		.loc 1 88 0
 1078 00b0 8B42     		cmp	r3, r1
 1079 00b2 03D0     		beq	.L116
 1080              	.LVL81:
 1081              	.L102:
 1082              	.LBE82:
 1083              	.LBE81:
 193:../../../../../../Middlewares/Third_Party/LoRaWAN/Mac/LoRaMacConfirmQueue.c **** 
 1084              		.loc 1 193 0
 1085 00b4 AF60     		str	r7, [r5, #8]
 1086 00b6 E346     		mov	fp, ip
 1087 00b8 0190     		str	r0, [sp, #4]
 1088 00ba B3E7     		b	.L96
 1089              	.LVL82:
 1090              	.L116:
 1091              	.LBB84:
 1092              	.LBB83:
  91:../../../../../../Middlewares/Third_Party/LoRaWAN/Mac/LoRaMacConfirmQueue.c ****     }
 1093              		.loc 1 91 0
 1094 00bc 1700     		movs	r7, r2
 1095              	.LVL83:
 1096 00be F9E7     		b	.L102
 1097              	.LVL84:
 1098              	.L115:
 1099              	.LBE83:
 1100              	.LBE84:
 1101              	.LBE87:
 1102              	.LBE104:
 314:../../../../../../Middlewares/Third_Party/LoRaWAN/Mac/LoRaMacConfirmQueue.c ****             mlmeConfirmToStore.RestrictCommonReadyToHandle = ConfirmQueueCtx.BufferStart->RestrictC
 1103              		.loc 1 314 0
 1104 00c0 E346     		mov	fp, ip
 313:../../../../../../Middlewares/Third_Party/LoRaWAN/Mac/LoRaMacConfirmQueue.c ****             mlmeConfirmToStore.Status = ConfirmQueueCtx.BufferStart->Status;
 1105              		.loc 1 313 0
 1106 00c2 0190     		str	r0, [sp, #4]
 1107 00c4 C5E7     		b	.L97
ARM GAS  C:\Users\EBANO_~1\AppData\Local\Temp\ccdt2GJa.s 			page 28


 1108              	.L118:
 1109 00c6 C046     		.align	2
 1110              	.L117:
 1111 00c8 00000000 		.word	.LANCHOR0
 1112              	.LBE105:
 1113              		.cfi_endproc
 1114              	.LFE53:
 1115              		.size	LoRaMacConfirmQueueHandleCb, .-LoRaMacConfirmQueueHandleCb
 1116              		.section	.text.LoRaMacConfirmQueueGetCnt,"ax",%progbits
 1117              		.align	1
 1118              		.p2align 2,,3
 1119              		.global	LoRaMacConfirmQueueGetCnt
 1120              		.syntax unified
 1121              		.code	16
 1122              		.thumb_func
 1123              		.fpu softvfp
 1124              		.type	LoRaMacConfirmQueueGetCnt, %function
 1125              	LoRaMacConfirmQueueGetCnt:
 1126              	.LFB54:
 328:../../../../../../Middlewares/Third_Party/LoRaWAN/Mac/LoRaMacConfirmQueue.c **** 
 329:../../../../../../Middlewares/Third_Party/LoRaWAN/Mac/LoRaMacConfirmQueue.c **** uint8_t LoRaMacConfirmQueueGetCnt( void )
 330:../../../../../../Middlewares/Third_Party/LoRaWAN/Mac/LoRaMacConfirmQueue.c **** {
 1127              		.loc 1 330 0
 1128              		.cfi_startproc
 1129              		@ args = 0, pretend = 0, frame = 0
 1130              		@ frame_needed = 0, uses_anonymous_args = 0
 1131              		@ link register save eliminated.
 331:../../../../../../Middlewares/Third_Party/LoRaWAN/Mac/LoRaMacConfirmQueue.c ****     return ConfirmQueueCtx.ConfirmQueueNvmCtx->MlmeConfirmQueueCnt;
 1132              		.loc 1 331 0
 1133 0000 014B     		ldr	r3, .L120
 332:../../../../../../Middlewares/Third_Party/LoRaWAN/Mac/LoRaMacConfirmQueue.c **** }
 1134              		.loc 1 332 0
 1135              		@ sp needed
 331:../../../../../../Middlewares/Third_Party/LoRaWAN/Mac/LoRaMacConfirmQueue.c ****     return ConfirmQueueCtx.ConfirmQueueNvmCtx->MlmeConfirmQueueCnt;
 1136              		.loc 1 331 0
 1137 0002 1B69     		ldr	r3, [r3, #16]
 1138 0004 187D     		ldrb	r0, [r3, #20]
 1139              		.loc 1 332 0
 1140 0006 7047     		bx	lr
 1141              	.L121:
 1142              		.align	2
 1143              	.L120:
 1144 0008 00000000 		.word	.LANCHOR0
 1145              		.cfi_endproc
 1146              	.LFE54:
 1147              		.size	LoRaMacConfirmQueueGetCnt, .-LoRaMacConfirmQueueGetCnt
 1148              		.section	.text.LoRaMacConfirmQueueIsFull,"ax",%progbits
 1149              		.align	1
 1150              		.p2align 2,,3
 1151              		.global	LoRaMacConfirmQueueIsFull
 1152              		.syntax unified
 1153              		.code	16
 1154              		.thumb_func
 1155              		.fpu softvfp
 1156              		.type	LoRaMacConfirmQueueIsFull, %function
 1157              	LoRaMacConfirmQueueIsFull:
 1158              	.LFB55:
ARM GAS  C:\Users\EBANO_~1\AppData\Local\Temp\ccdt2GJa.s 			page 29


 333:../../../../../../Middlewares/Third_Party/LoRaWAN/Mac/LoRaMacConfirmQueue.c **** 
 334:../../../../../../Middlewares/Third_Party/LoRaWAN/Mac/LoRaMacConfirmQueue.c **** bool LoRaMacConfirmQueueIsFull( void )
 335:../../../../../../Middlewares/Third_Party/LoRaWAN/Mac/LoRaMacConfirmQueue.c **** {
 1159              		.loc 1 335 0
 1160              		.cfi_startproc
 1161              		@ args = 0, pretend = 0, frame = 0
 1162              		@ frame_needed = 0, uses_anonymous_args = 0
 1163              		@ link register save eliminated.
 1164 0000 0420     		movs	r0, #4
 336:../../../../../../Middlewares/Third_Party/LoRaWAN/Mac/LoRaMacConfirmQueue.c ****     if( ConfirmQueueCtx.ConfirmQueueNvmCtx->MlmeConfirmQueueCnt >= LORA_MAC_MLME_CONFIRM_QUEUE_LEN 
 1165              		.loc 1 336 0
 1166 0002 034B     		ldr	r3, .L123
 337:../../../../../../Middlewares/Third_Party/LoRaWAN/Mac/LoRaMacConfirmQueue.c ****     {
 338:../../../../../../Middlewares/Third_Party/LoRaWAN/Mac/LoRaMacConfirmQueue.c ****         return true;
 339:../../../../../../Middlewares/Third_Party/LoRaWAN/Mac/LoRaMacConfirmQueue.c ****     }
 340:../../../../../../Middlewares/Third_Party/LoRaWAN/Mac/LoRaMacConfirmQueue.c ****     else
 341:../../../../../../Middlewares/Third_Party/LoRaWAN/Mac/LoRaMacConfirmQueue.c ****     {
 342:../../../../../../Middlewares/Third_Party/LoRaWAN/Mac/LoRaMacConfirmQueue.c ****         return false;
 343:../../../../../../Middlewares/Third_Party/LoRaWAN/Mac/LoRaMacConfirmQueue.c ****     }
 344:../../../../../../Middlewares/Third_Party/LoRaWAN/Mac/LoRaMacConfirmQueue.c **** }
 1167              		.loc 1 344 0
 1168              		@ sp needed
 336:../../../../../../Middlewares/Third_Party/LoRaWAN/Mac/LoRaMacConfirmQueue.c ****     if( ConfirmQueueCtx.ConfirmQueueNvmCtx->MlmeConfirmQueueCnt >= LORA_MAC_MLME_CONFIRM_QUEUE_LEN 
 1169              		.loc 1 336 0
 1170 0004 1B69     		ldr	r3, [r3, #16]
 1171 0006 1B7D     		ldrb	r3, [r3, #20]
 1172 0008 9842     		cmp	r0, r3
 1173 000a 8041     		sbcs	r0, r0, r0
 1174 000c 4042     		rsbs	r0, r0, #0
 1175              		.loc 1 344 0
 1176 000e 7047     		bx	lr
 1177              	.L124:
 1178              		.align	2
 1179              	.L123:
 1180 0010 00000000 		.word	.LANCHOR0
 1181              		.cfi_endproc
 1182              	.LFE55:
 1183              		.size	LoRaMacConfirmQueueIsFull, .-LoRaMacConfirmQueueIsFull
 1184              		.bss
 1185              		.align	2
 1186              		.set	.LANCHOR0,. + 0
 1187              		.type	ConfirmQueueCtx, %object
 1188              		.size	ConfirmQueueCtx, 20
 1189              	ConfirmQueueCtx:
 1190 0000 00000000 		.space	20
 1190      00000000 
 1190      00000000 
 1190      00000000 
 1190      00000000 
 1191              		.type	ConfirmQueueNvmCtx, %object
 1192              		.size	ConfirmQueueNvmCtx, 22
 1193              	ConfirmQueueNvmCtx:
 1194 0014 00000000 		.space	22
 1194      00000000 
 1194      00000000 
 1194      00000000 
 1194      00000000 
ARM GAS  C:\Users\EBANO_~1\AppData\Local\Temp\ccdt2GJa.s 			page 30


 1195              		.text
 1196              	.Letext0:
 1197              		.file 2 "c:\\program files (x86)\\gnu tools arm embedded\\7 2018-q2-update\\arm-none-eabi\\include
 1198              		.file 3 "c:\\program files (x86)\\gnu tools arm embedded\\7 2018-q2-update\\arm-none-eabi\\include
 1199              		.file 4 "c:\\program files (x86)\\gnu tools arm embedded\\7 2018-q2-update\\lib\\gcc\\arm-none-eab
 1200              		.file 5 "../../../../../../Drivers/CMSIS/Device/ST/STM32L0xx/Include/system_stm32l0xx.h"
 1201              		.file 6 "c:\\program files (x86)\\gnu tools arm embedded\\7 2018-q2-update\\arm-none-eabi\\include
 1202              		.file 7 "c:\\program files (x86)\\gnu tools arm embedded\\7 2018-q2-update\\arm-none-eabi\\include
 1203              		.file 8 "c:\\program files (x86)\\gnu tools arm embedded\\7 2018-q2-update\\arm-none-eabi\\include
 1204              		.file 9 "c:\\program files (x86)\\gnu tools arm embedded\\7 2018-q2-update\\arm-none-eabi\\include
 1205              		.file 10 "../../../../../../Middlewares/Third_Party/LoRaWAN/Utilities/utilities.h"
 1206              		.file 11 "c:\\program files (x86)\\gnu tools arm embedded\\7 2018-q2-update\\arm-none-eabi\\includ
 1207              		.file 12 "../../../../../../Middlewares/Third_Party/LoRaWAN/Phy/radio.h"
 1208              		.file 13 "../../../../../../Middlewares/Third_Party/LoRaWAN/Mac/LoRaMacTypes.h"
 1209              		.file 14 "../../../../../../Middlewares/Third_Party/LoRaWAN/Mac/LoRaMac.h"
 1210              		.file 15 "../../../../../../Middlewares/Third_Party/LoRaWAN/Mac/LoRaMacConfirmQueue.h"