ARM GAS  C:\Users\EBANO_~1\AppData\Local\Temp\ccWJ4OLX.s 			page 1


   1              		.cpu cortex-m0plus
   2              		.eabi_attribute 20, 1
   3              		.eabi_attribute 21, 1
   4              		.eabi_attribute 23, 3
   5              		.eabi_attribute 24, 1
   6              		.eabi_attribute 25, 1
   7              		.eabi_attribute 26, 1
   8              		.eabi_attribute 30, 2
   9              		.eabi_attribute 34, 0
  10              		.eabi_attribute 18, 4
  11              		.file	"LoRaMacParser.c"
  12              		.text
  13              	.Ltext0:
  14              		.cfi_sections	.debug_frame
  15              		.section	.text.LoRaMacParserJoinAccept,"ax",%progbits
  16              		.align	1
  17              		.p2align 2,,3
  18              		.global	LoRaMacParserJoinAccept
  19              		.syntax unified
  20              		.code	16
  21              		.thumb_func
  22              		.fpu softvfp
  23              		.type	LoRaMacParserJoinAccept, %function
  24              	LoRaMacParserJoinAccept:
  25              	.LFB39:
  26              		.file 1 "../../../../../../Middlewares/Third_Party/LoRaWAN/Mac/LoRaMacParser.c"
   1:../../../../../../Middlewares/Third_Party/LoRaWAN/Mac/LoRaMacParser.c **** /*
   2:../../../../../../Middlewares/Third_Party/LoRaWAN/Mac/LoRaMacParser.c ****  / _____)             _              | |
   3:../../../../../../Middlewares/Third_Party/LoRaWAN/Mac/LoRaMacParser.c **** ( (____  _____ ____ _| |_ _____  ____| |__
   4:../../../../../../Middlewares/Third_Party/LoRaWAN/Mac/LoRaMacParser.c ****  \____ \| ___ |    (_   _) ___ |/ ___)  _ \
   5:../../../../../../Middlewares/Third_Party/LoRaWAN/Mac/LoRaMacParser.c ****  _____) ) ____| | | || |_| ____( (___| | | |
   6:../../../../../../Middlewares/Third_Party/LoRaWAN/Mac/LoRaMacParser.c **** (______/|_____)_|_|_| \__)_____)\____)_| |_|
   7:../../../../../../Middlewares/Third_Party/LoRaWAN/Mac/LoRaMacParser.c ****     (C)2013 Semtech
   8:../../../../../../Middlewares/Third_Party/LoRaWAN/Mac/LoRaMacParser.c ****  ___ _____ _   ___ _  _____ ___  ___  ___ ___
   9:../../../../../../Middlewares/Third_Party/LoRaWAN/Mac/LoRaMacParser.c **** / __|_   _/_\ / __| |/ / __/ _ \| _ \/ __| __|
  10:../../../../../../Middlewares/Third_Party/LoRaWAN/Mac/LoRaMacParser.c **** \__ \ | |/ _ \ (__| ' <| _| (_) |   / (__| _|
  11:../../../../../../Middlewares/Third_Party/LoRaWAN/Mac/LoRaMacParser.c **** |___/ |_/_/ \_\___|_|\_\_| \___/|_|_\\___|___|
  12:../../../../../../Middlewares/Third_Party/LoRaWAN/Mac/LoRaMacParser.c **** embedded.connectivity.solutions===============
  13:../../../../../../Middlewares/Third_Party/LoRaWAN/Mac/LoRaMacParser.c **** 
  14:../../../../../../Middlewares/Third_Party/LoRaWAN/Mac/LoRaMacParser.c **** Description: LoRa MAC layer message parser functionality implementation
  15:../../../../../../Middlewares/Third_Party/LoRaWAN/Mac/LoRaMacParser.c **** 
  16:../../../../../../Middlewares/Third_Party/LoRaWAN/Mac/LoRaMacParser.c **** License: Revised BSD License, see LICENSE.TXT file include in the project
  17:../../../../../../Middlewares/Third_Party/LoRaWAN/Mac/LoRaMacParser.c **** 
  18:../../../../../../Middlewares/Third_Party/LoRaWAN/Mac/LoRaMacParser.c **** Maintainer: Miguel Luis ( Semtech ), Gregory Cristian ( Semtech ),
  19:../../../../../../Middlewares/Third_Party/LoRaWAN/Mac/LoRaMacParser.c ****             Daniel Jaeckle ( STACKFORCE ),  Johannes Bruder ( STACKFORCE )
  20:../../../../../../Middlewares/Third_Party/LoRaWAN/Mac/LoRaMacParser.c **** */
  21:../../../../../../Middlewares/Third_Party/LoRaWAN/Mac/LoRaMacParser.c **** #include "LoRaMacParser.h"
  22:../../../../../../Middlewares/Third_Party/LoRaWAN/Mac/LoRaMacParser.c **** #include "utilities.h"
  23:../../../../../../Middlewares/Third_Party/LoRaWAN/Mac/LoRaMacParser.c **** 
  24:../../../../../../Middlewares/Third_Party/LoRaWAN/Mac/LoRaMacParser.c **** LoRaMacParserStatus_t LoRaMacParserJoinAccept( LoRaMacMessageJoinAccept_t* macMsg )
  25:../../../../../../Middlewares/Third_Party/LoRaWAN/Mac/LoRaMacParser.c **** {
  27              		.loc 1 25 0
  28              		.cfi_startproc
  29              		@ args = 0, pretend = 0, frame = 0
  30              		@ frame_needed = 0, uses_anonymous_args = 0
  31              	.LVL0:
  32 0000 70B5     		push	{r4, r5, r6, lr}
ARM GAS  C:\Users\EBANO_~1\AppData\Local\Temp\ccWJ4OLX.s 			page 2


  33              	.LCFI0:
  34              		.cfi_def_cfa_offset 16
  35              		.cfi_offset 4, -16
  36              		.cfi_offset 5, -12
  37              		.cfi_offset 6, -8
  38              		.cfi_offset 14, -4
  39              		.loc 1 25 0
  40 0002 041E     		subs	r4, r0, #0
  26:../../../../../../Middlewares/Third_Party/LoRaWAN/Mac/LoRaMacParser.c ****     if( ( macMsg == 0 ) || ( macMsg->Buffer == 0 ) )
  41              		.loc 1 26 0
  42 0004 3DD0     		beq	.L6
  43              		.loc 1 26 0 is_stmt 0 discriminator 1
  44 0006 0168     		ldr	r1, [r0]
  45 0008 0029     		cmp	r1, #0
  46 000a 3AD0     		beq	.L6
  47              	.LVL1:
  27:../../../../../../Middlewares/Third_Party/LoRaWAN/Mac/LoRaMacParser.c ****     {
  28:../../../../../../Middlewares/Third_Party/LoRaWAN/Mac/LoRaMacParser.c ****         return LORAMAC_PARSER_ERROR_NPE;
  29:../../../../../../Middlewares/Third_Party/LoRaWAN/Mac/LoRaMacParser.c ****     }
  30:../../../../../../Middlewares/Third_Party/LoRaWAN/Mac/LoRaMacParser.c **** 
  31:../../../../../../Middlewares/Third_Party/LoRaWAN/Mac/LoRaMacParser.c ****     uint16_t bufItr = 0;
  32:../../../../../../Middlewares/Third_Party/LoRaWAN/Mac/LoRaMacParser.c **** 
  33:../../../../../../Middlewares/Third_Party/LoRaWAN/Mac/LoRaMacParser.c ****     macMsg->MHDR.Value = macMsg->Buffer[bufItr++];
  48              		.loc 1 33 0 is_stmt 1
  49 000c 0B78     		ldrb	r3, [r1]
  34:../../../../../../Middlewares/Third_Party/LoRaWAN/Mac/LoRaMacParser.c **** 
  35:../../../../../../Middlewares/Third_Party/LoRaWAN/Mac/LoRaMacParser.c ****     memcpy1( macMsg->JoinNonce, &macMsg->Buffer[bufItr], 3 );
  50              		.loc 1 35 0
  51 000e 0322     		movs	r2, #3
  33:../../../../../../Middlewares/Third_Party/LoRaWAN/Mac/LoRaMacParser.c **** 
  52              		.loc 1 33 0
  53 0010 4371     		strb	r3, [r0, #5]
  54              		.loc 1 35 0
  55 0012 0131     		adds	r1, r1, #1
  56 0014 0630     		adds	r0, r0, #6
  57              	.LVL2:
  58 0016 FFF7FEFF 		bl	memcpy1
  59              	.LVL3:
  36:../../../../../../Middlewares/Third_Party/LoRaWAN/Mac/LoRaMacParser.c ****     bufItr = bufItr + 3;
  37:../../../../../../Middlewares/Third_Party/LoRaWAN/Mac/LoRaMacParser.c **** 
  38:../../../../../../Middlewares/Third_Party/LoRaWAN/Mac/LoRaMacParser.c ****     memcpy1( macMsg->NetID, &macMsg->Buffer[bufItr], 3 );
  60              		.loc 1 38 0
  61 001a 2000     		movs	r0, r4
  62 001c 2368     		ldr	r3, [r4]
  63 001e 0322     		movs	r2, #3
  64 0020 191D     		adds	r1, r3, #4
  65 0022 0930     		adds	r0, r0, #9
  66 0024 FFF7FEFF 		bl	memcpy1
  67              	.LVL4:
  39:../../../../../../Middlewares/Third_Party/LoRaWAN/Mac/LoRaMacParser.c ****     bufItr = bufItr + 3;
  40:../../../../../../Middlewares/Third_Party/LoRaWAN/Mac/LoRaMacParser.c **** 
  41:../../../../../../Middlewares/Third_Party/LoRaWAN/Mac/LoRaMacParser.c ****     macMsg->DevAddr = ( uint32_t ) macMsg->Buffer[bufItr++];
  68              		.loc 1 41 0
  69 0028 2168     		ldr	r1, [r4]
  70              	.LVL5:
  71 002a CA79     		ldrb	r2, [r1, #7]
  72 002c E260     		str	r2, [r4, #12]
ARM GAS  C:\Users\EBANO_~1\AppData\Local\Temp\ccWJ4OLX.s 			page 3


  73              	.LVL6:
  42:../../../../../../Middlewares/Third_Party/LoRaWAN/Mac/LoRaMacParser.c ****     macMsg->DevAddr |= ( ( uint32_t ) macMsg->Buffer[bufItr++] << 8 );
  74              		.loc 1 42 0
  75 002e 0B7A     		ldrb	r3, [r1, #8]
  76 0030 1B02     		lsls	r3, r3, #8
  77 0032 1A43     		orrs	r2, r3
  78 0034 E260     		str	r2, [r4, #12]
  79              	.LVL7:
  43:../../../../../../Middlewares/Third_Party/LoRaWAN/Mac/LoRaMacParser.c ****     macMsg->DevAddr |= ( ( uint32_t ) macMsg->Buffer[bufItr++] << 16 );
  80              		.loc 1 43 0
  81 0036 4B7A     		ldrb	r3, [r1, #9]
  82 0038 1B04     		lsls	r3, r3, #16
  83 003a 1343     		orrs	r3, r2
  84 003c E360     		str	r3, [r4, #12]
  85              	.LVL8:
  44:../../../../../../Middlewares/Third_Party/LoRaWAN/Mac/LoRaMacParser.c ****     macMsg->DevAddr |= ( ( uint32_t ) macMsg->Buffer[bufItr++] << 24 );
  86              		.loc 1 44 0
  87 003e 8A7A     		ldrb	r2, [r1, #10]
  88 0040 1206     		lsls	r2, r2, #24
  89 0042 1343     		orrs	r3, r2
  90 0044 E360     		str	r3, [r4, #12]
  91              	.LVL9:
  45:../../../../../../Middlewares/Third_Party/LoRaWAN/Mac/LoRaMacParser.c **** 
  46:../../../../../../Middlewares/Third_Party/LoRaWAN/Mac/LoRaMacParser.c ****     macMsg->DLSettings.Value = macMsg->Buffer[bufItr++];
  92              		.loc 1 46 0
  93 0046 CB7A     		ldrb	r3, [r1, #11]
  94 0048 2374     		strb	r3, [r4, #16]
  95              	.LVL10:
  47:../../../../../../Middlewares/Third_Party/LoRaWAN/Mac/LoRaMacParser.c **** 
  48:../../../../../../Middlewares/Third_Party/LoRaWAN/Mac/LoRaMacParser.c ****     macMsg->RxDelay = macMsg->Buffer[bufItr++];
  96              		.loc 1 48 0
  97 004a 0B7B     		ldrb	r3, [r1, #12]
  98 004c 6374     		strb	r3, [r4, #17]
  49:../../../../../../Middlewares/Third_Party/LoRaWAN/Mac/LoRaMacParser.c **** 
  50:../../../../../../Middlewares/Third_Party/LoRaWAN/Mac/LoRaMacParser.c ****     if( ( macMsg->BufSize - LORAMAC_MIC_FIELD_SIZE - bufItr ) == LORAMAC_C_FLIST_FIELD_SIZE )
  99              		.loc 1 50 0
 100 004e 2379     		ldrb	r3, [r4, #4]
 101 0050 212B     		cmp	r3, #33
 102 0052 18D0     		beq	.L9
  51:../../../../../../Middlewares/Third_Party/LoRaWAN/Mac/LoRaMacParser.c ****     {
  52:../../../../../../Middlewares/Third_Party/LoRaWAN/Mac/LoRaMacParser.c ****         memcpy1( macMsg->CFList, &macMsg->Buffer[bufItr], LORAMAC_C_FLIST_FIELD_SIZE );
  53:../../../../../../Middlewares/Third_Party/LoRaWAN/Mac/LoRaMacParser.c ****         bufItr = bufItr + LORAMAC_C_FLIST_FIELD_SIZE;
  54:../../../../../../Middlewares/Third_Party/LoRaWAN/Mac/LoRaMacParser.c ****     }
  55:../../../../../../Middlewares/Third_Party/LoRaWAN/Mac/LoRaMacParser.c ****     else if( ( macMsg->BufSize - LORAMAC_MIC_FIELD_SIZE - bufItr ) > 0 )
  56:../../../../../../Middlewares/Third_Party/LoRaWAN/Mac/LoRaMacParser.c ****     {
  57:../../../../../../Middlewares/Third_Party/LoRaWAN/Mac/LoRaMacParser.c ****         return LORAMAC_PARSER_FAIL;
 103              		.loc 1 57 0
 104 0054 0120     		movs	r0, #1
  55:../../../../../../Middlewares/Third_Party/LoRaWAN/Mac/LoRaMacParser.c ****     {
 105              		.loc 1 55 0
 106 0056 112B     		cmp	r3, #17
 107 0058 12DC     		bgt	.L2
 108 005a 0F25     		movs	r5, #15
 109 005c 0E23     		movs	r3, #14
 110 005e 0D22     		movs	r2, #13
 111 0060 0F30     		adds	r0, r0, #15
 112              	.LVL11:
ARM GAS  C:\Users\EBANO_~1\AppData\Local\Temp\ccWJ4OLX.s 			page 4


 113              	.L4:
  58:../../../../../../Middlewares/Third_Party/LoRaWAN/Mac/LoRaMacParser.c ****     }
  59:../../../../../../Middlewares/Third_Party/LoRaWAN/Mac/LoRaMacParser.c **** 
  60:../../../../../../Middlewares/Third_Party/LoRaWAN/Mac/LoRaMacParser.c ****     macMsg->MIC = ( uint32_t ) macMsg->Buffer[bufItr++];
 114              		.loc 1 60 0
 115 0062 8A5C     		ldrb	r2, [r1, r2]
 116 0064 6262     		str	r2, [r4, #36]
  61:../../../../../../Middlewares/Third_Party/LoRaWAN/Mac/LoRaMacParser.c ****     macMsg->MIC |= ( ( uint32_t ) macMsg->Buffer[bufItr++] << 8 );
 117              		.loc 1 61 0
 118 0066 CB5C     		ldrb	r3, [r1, r3]
 119 0068 1B02     		lsls	r3, r3, #8
 120 006a 1A43     		orrs	r2, r3
 121 006c 6262     		str	r2, [r4, #36]
  62:../../../../../../Middlewares/Third_Party/LoRaWAN/Mac/LoRaMacParser.c ****     macMsg->MIC |= ( ( uint32_t ) macMsg->Buffer[bufItr++] << 16 );
 122              		.loc 1 62 0
 123 006e 4B5D     		ldrb	r3, [r1, r5]
 124 0070 1B04     		lsls	r3, r3, #16
 125 0072 1343     		orrs	r3, r2
 126 0074 6362     		str	r3, [r4, #36]
  63:../../../../../../Middlewares/Third_Party/LoRaWAN/Mac/LoRaMacParser.c ****     macMsg->MIC |= ( ( uint32_t ) macMsg->Buffer[bufItr++] << 24 );
 127              		.loc 1 63 0
 128 0076 0A5C     		ldrb	r2, [r1, r0]
  64:../../../../../../Middlewares/Third_Party/LoRaWAN/Mac/LoRaMacParser.c **** 
  65:../../../../../../Middlewares/Third_Party/LoRaWAN/Mac/LoRaMacParser.c ****     return LORAMAC_PARSER_SUCCESS;
 129              		.loc 1 65 0
 130 0078 0020     		movs	r0, #0
  63:../../../../../../Middlewares/Third_Party/LoRaWAN/Mac/LoRaMacParser.c ****     macMsg->MIC |= ( ( uint32_t ) macMsg->Buffer[bufItr++] << 24 );
 131              		.loc 1 63 0
 132 007a 1206     		lsls	r2, r2, #24
 133 007c 1343     		orrs	r3, r2
 134 007e 6362     		str	r3, [r4, #36]
 135              	.L2:
  66:../../../../../../Middlewares/Third_Party/LoRaWAN/Mac/LoRaMacParser.c **** }
 136              		.loc 1 66 0
 137              		@ sp needed
 138              	.LVL12:
 139 0080 70BD     		pop	{r4, r5, r6, pc}
 140              	.LVL13:
 141              	.L6:
  28:../../../../../../Middlewares/Third_Party/LoRaWAN/Mac/LoRaMacParser.c ****     }
 142              		.loc 1 28 0
 143 0082 0220     		movs	r0, #2
 144              	.LVL14:
 145 0084 FCE7     		b	.L2
 146              	.LVL15:
 147              	.L9:
  52:../../../../../../Middlewares/Third_Party/LoRaWAN/Mac/LoRaMacParser.c ****         bufItr = bufItr + LORAMAC_C_FLIST_FIELD_SIZE;
 148              		.loc 1 52 0
 149 0086 2000     		movs	r0, r4
 150 0088 0D31     		adds	r1, r1, #13
 151 008a 1022     		movs	r2, #16
 152 008c 1230     		adds	r0, r0, #18
 153 008e FFF7FEFF 		bl	memcpy1
 154              	.LVL16:
 155 0092 1F25     		movs	r5, #31
 156 0094 2168     		ldr	r1, [r4]
 157 0096 2020     		movs	r0, #32
ARM GAS  C:\Users\EBANO_~1\AppData\Local\Temp\ccWJ4OLX.s 			page 5


 158 0098 1E23     		movs	r3, #30
 159 009a 1D22     		movs	r2, #29
 160 009c E1E7     		b	.L4
 161              		.cfi_endproc
 162              	.LFE39:
 163              		.size	LoRaMacParserJoinAccept, .-LoRaMacParserJoinAccept
 164 009e C046     		.section	.text.LoRaMacParserData,"ax",%progbits
 165              		.align	1
 166              		.p2align 2,,3
 167              		.global	LoRaMacParserData
 168              		.syntax unified
 169              		.code	16
 170              		.thumb_func
 171              		.fpu softvfp
 172              		.type	LoRaMacParserData, %function
 173              	LoRaMacParserData:
 174              	.LFB40:
  67:../../../../../../Middlewares/Third_Party/LoRaWAN/Mac/LoRaMacParser.c **** 
  68:../../../../../../Middlewares/Third_Party/LoRaWAN/Mac/LoRaMacParser.c **** LoRaMacParserStatus_t LoRaMacParserData( LoRaMacMessageData_t* macMsg )
  69:../../../../../../Middlewares/Third_Party/LoRaWAN/Mac/LoRaMacParser.c **** {
 175              		.loc 1 69 0
 176              		.cfi_startproc
 177              		@ args = 0, pretend = 0, frame = 0
 178              		@ frame_needed = 0, uses_anonymous_args = 0
 179              	.LVL17:
 180 0000 F8B5     		push	{r3, r4, r5, r6, r7, lr}
 181              	.LCFI1:
 182              		.cfi_def_cfa_offset 24
 183              		.cfi_offset 3, -24
 184              		.cfi_offset 4, -20
 185              		.cfi_offset 5, -16
 186              		.cfi_offset 6, -12
 187              		.cfi_offset 7, -8
 188              		.cfi_offset 14, -4
 189              		.loc 1 69 0
 190 0002 041E     		subs	r4, r0, #0
  70:../../../../../../Middlewares/Third_Party/LoRaWAN/Mac/LoRaMacParser.c ****     if( ( macMsg == 0 ) || ( macMsg->Buffer == 0 ) )
 191              		.loc 1 70 0
 192 0004 46D0     		beq	.L14
 193              		.loc 1 70 0 is_stmt 0 discriminator 1
 194 0006 0168     		ldr	r1, [r0]
 195 0008 0029     		cmp	r1, #0
 196 000a 43D0     		beq	.L14
 197              	.LVL18:
  71:../../../../../../Middlewares/Third_Party/LoRaWAN/Mac/LoRaMacParser.c ****     {
  72:../../../../../../Middlewares/Third_Party/LoRaWAN/Mac/LoRaMacParser.c ****         return LORAMAC_PARSER_ERROR_NPE;
  73:../../../../../../Middlewares/Third_Party/LoRaWAN/Mac/LoRaMacParser.c ****     }
  74:../../../../../../Middlewares/Third_Party/LoRaWAN/Mac/LoRaMacParser.c **** 
  75:../../../../../../Middlewares/Third_Party/LoRaWAN/Mac/LoRaMacParser.c ****     uint16_t bufItr = 0;
  76:../../../../../../Middlewares/Third_Party/LoRaWAN/Mac/LoRaMacParser.c **** 
  77:../../../../../../Middlewares/Third_Party/LoRaWAN/Mac/LoRaMacParser.c ****     macMsg->MHDR.Value = macMsg->Buffer[bufItr++];
 198              		.loc 1 77 0 is_stmt 1
 199 000c 0B78     		ldrb	r3, [r1]
  78:../../../../../../Middlewares/Third_Party/LoRaWAN/Mac/LoRaMacParser.c **** 
  79:../../../../../../Middlewares/Third_Party/LoRaWAN/Mac/LoRaMacParser.c ****     macMsg->FHDR.DevAddr = macMsg->Buffer[bufItr++];
  80:../../../../../../Middlewares/Third_Party/LoRaWAN/Mac/LoRaMacParser.c ****     macMsg->FHDR.DevAddr |= ( ( uint32_t ) macMsg->Buffer[bufItr++] << 8 );
  81:../../../../../../Middlewares/Third_Party/LoRaWAN/Mac/LoRaMacParser.c ****     macMsg->FHDR.DevAddr |= ( ( uint32_t ) macMsg->Buffer[bufItr++] << 16 );
ARM GAS  C:\Users\EBANO_~1\AppData\Local\Temp\ccWJ4OLX.s 			page 6


  82:../../../../../../Middlewares/Third_Party/LoRaWAN/Mac/LoRaMacParser.c ****     macMsg->FHDR.DevAddr |= ( ( uint32_t ) macMsg->Buffer[bufItr++] << 24 );
  83:../../../../../../Middlewares/Third_Party/LoRaWAN/Mac/LoRaMacParser.c **** 
  84:../../../../../../Middlewares/Third_Party/LoRaWAN/Mac/LoRaMacParser.c ****     macMsg->FHDR.FCtrl.Value = macMsg->Buffer[bufItr++];
  85:../../../../../../Middlewares/Third_Party/LoRaWAN/Mac/LoRaMacParser.c **** 
  86:../../../../../../Middlewares/Third_Party/LoRaWAN/Mac/LoRaMacParser.c ****     macMsg->FHDR.FCnt = macMsg->Buffer[bufItr++];
  87:../../../../../../Middlewares/Third_Party/LoRaWAN/Mac/LoRaMacParser.c ****     macMsg->FHDR.FCnt |= macMsg->Buffer[bufItr++] << 8;
  88:../../../../../../Middlewares/Third_Party/LoRaWAN/Mac/LoRaMacParser.c **** 
  89:../../../../../../Middlewares/Third_Party/LoRaWAN/Mac/LoRaMacParser.c ****     if( macMsg->FHDR.FCtrl.Bits.FOptsLen <= 15 )
  90:../../../../../../Middlewares/Third_Party/LoRaWAN/Mac/LoRaMacParser.c ****     {
  91:../../../../../../Middlewares/Third_Party/LoRaWAN/Mac/LoRaMacParser.c ****         memcpy1( macMsg->FHDR.FOpts, &macMsg->Buffer[bufItr], macMsg->FHDR.FCtrl.Bits.FOptsLen );
  92:../../../../../../Middlewares/Third_Party/LoRaWAN/Mac/LoRaMacParser.c ****         bufItr = bufItr + macMsg->FHDR.FCtrl.Bits.FOptsLen;
  93:../../../../../../Middlewares/Third_Party/LoRaWAN/Mac/LoRaMacParser.c ****     }
  94:../../../../../../Middlewares/Third_Party/LoRaWAN/Mac/LoRaMacParser.c ****     else
  95:../../../../../../Middlewares/Third_Party/LoRaWAN/Mac/LoRaMacParser.c ****     {
  96:../../../../../../Middlewares/Third_Party/LoRaWAN/Mac/LoRaMacParser.c ****         return LORAMAC_PARSER_FAIL;
  97:../../../../../../Middlewares/Third_Party/LoRaWAN/Mac/LoRaMacParser.c ****     }
  98:../../../../../../Middlewares/Third_Party/LoRaWAN/Mac/LoRaMacParser.c **** 
  99:../../../../../../Middlewares/Third_Party/LoRaWAN/Mac/LoRaMacParser.c ****     // Initialize anyway with zero.
 100:../../../../../../Middlewares/Third_Party/LoRaWAN/Mac/LoRaMacParser.c ****     macMsg->FPort = 0;
 200              		.loc 1 100 0
 201 000e 2026     		movs	r6, #32
  77:../../../../../../Middlewares/Third_Party/LoRaWAN/Mac/LoRaMacParser.c **** 
 202              		.loc 1 77 0
 203 0010 4371     		strb	r3, [r0, #5]
 204              	.LVL19:
  79:../../../../../../Middlewares/Third_Party/LoRaWAN/Mac/LoRaMacParser.c ****     macMsg->FHDR.DevAddr |= ( ( uint32_t ) macMsg->Buffer[bufItr++] << 8 );
 205              		.loc 1 79 0
 206 0012 4A78     		ldrb	r2, [r1, #1]
 101:../../../../../../Middlewares/Third_Party/LoRaWAN/Mac/LoRaMacParser.c ****     macMsg->FRMPayloadSize = 0;
 207              		.loc 1 101 0
 208 0014 2825     		movs	r5, #40
  79:../../../../../../Middlewares/Third_Party/LoRaWAN/Mac/LoRaMacParser.c ****     macMsg->FHDR.DevAddr |= ( ( uint32_t ) macMsg->Buffer[bufItr++] << 8 );
 209              		.loc 1 79 0
 210 0016 8260     		str	r2, [r0, #8]
 211              	.LVL20:
  80:../../../../../../Middlewares/Third_Party/LoRaWAN/Mac/LoRaMacParser.c ****     macMsg->FHDR.DevAddr |= ( ( uint32_t ) macMsg->Buffer[bufItr++] << 16 );
 212              		.loc 1 80 0
 213 0018 8B78     		ldrb	r3, [r1, #2]
 214 001a 1B02     		lsls	r3, r3, #8
 215 001c 1A43     		orrs	r2, r3
 216 001e 8260     		str	r2, [r0, #8]
 217              	.LVL21:
  81:../../../../../../Middlewares/Third_Party/LoRaWAN/Mac/LoRaMacParser.c ****     macMsg->FHDR.DevAddr |= ( ( uint32_t ) macMsg->Buffer[bufItr++] << 24 );
 218              		.loc 1 81 0
 219 0020 CB78     		ldrb	r3, [r1, #3]
 220 0022 1B04     		lsls	r3, r3, #16
 221 0024 1343     		orrs	r3, r2
 222 0026 8360     		str	r3, [r0, #8]
 223              	.LVL22:
  82:../../../../../../Middlewares/Third_Party/LoRaWAN/Mac/LoRaMacParser.c **** 
 224              		.loc 1 82 0
 225 0028 0A79     		ldrb	r2, [r1, #4]
 226 002a 1206     		lsls	r2, r2, #24
 227 002c 1343     		orrs	r3, r2
 228 002e 8360     		str	r3, [r0, #8]
 229              	.LVL23:
  84:../../../../../../Middlewares/Third_Party/LoRaWAN/Mac/LoRaMacParser.c **** 
ARM GAS  C:\Users\EBANO_~1\AppData\Local\Temp\ccWJ4OLX.s 			page 7


 230              		.loc 1 84 0
 231 0030 4B79     		ldrb	r3, [r1, #5]
 232 0032 0373     		strb	r3, [r0, #12]
 233              	.LVL24:
  86:../../../../../../Middlewares/Third_Party/LoRaWAN/Mac/LoRaMacParser.c ****     macMsg->FHDR.FCnt |= macMsg->Buffer[bufItr++] << 8;
 234              		.loc 1 86 0
 235 0034 8B79     		ldrb	r3, [r1, #6]
 236 0036 C381     		strh	r3, [r0, #14]
 237              	.LVL25:
  87:../../../../../../Middlewares/Third_Party/LoRaWAN/Mac/LoRaMacParser.c **** 
 238              		.loc 1 87 0
 239 0038 CA79     		ldrb	r2, [r1, #7]
  91:../../../../../../Middlewares/Third_Party/LoRaWAN/Mac/LoRaMacParser.c ****         bufItr = bufItr + macMsg->FHDR.FCtrl.Bits.FOptsLen;
 240              		.loc 1 91 0
 241 003a 0831     		adds	r1, r1, #8
  87:../../../../../../Middlewares/Third_Party/LoRaWAN/Mac/LoRaMacParser.c **** 
 242              		.loc 1 87 0
 243 003c 1202     		lsls	r2, r2, #8
 244 003e 1343     		orrs	r3, r2
  91:../../../../../../Middlewares/Third_Party/LoRaWAN/Mac/LoRaMacParser.c ****         bufItr = bufItr + macMsg->FHDR.FCtrl.Bits.FOptsLen;
 245              		.loc 1 91 0
 246 0040 027B     		ldrb	r2, [r0, #12]
  87:../../../../../../Middlewares/Third_Party/LoRaWAN/Mac/LoRaMacParser.c **** 
 247              		.loc 1 87 0
 248 0042 C381     		strh	r3, [r0, #14]
  91:../../../../../../Middlewares/Third_Party/LoRaWAN/Mac/LoRaMacParser.c ****         bufItr = bufItr + macMsg->FHDR.FCtrl.Bits.FOptsLen;
 249              		.loc 1 91 0
 250 0044 1207     		lsls	r2, r2, #28
 251 0046 120F     		lsrs	r2, r2, #28
 252 0048 1030     		adds	r0, r0, #16
 253              	.LVL26:
 254 004a FFF7FEFF 		bl	memcpy1
 255              	.LVL27:
  92:../../../../../../Middlewares/Third_Party/LoRaWAN/Mac/LoRaMacParser.c ****     }
 256              		.loc 1 92 0
 257 004e 227B     		ldrb	r2, [r4, #12]
 100:../../../../../../Middlewares/Third_Party/LoRaWAN/Mac/LoRaMacParser.c ****     macMsg->FRMPayloadSize = 0;
 258              		.loc 1 100 0
 259 0050 0023     		movs	r3, #0
  92:../../../../../../Middlewares/Third_Party/LoRaWAN/Mac/LoRaMacParser.c ****     }
 260              		.loc 1 92 0
 261 0052 1207     		lsls	r2, r2, #28
 262 0054 120F     		lsrs	r2, r2, #28
 263 0056 1700     		movs	r7, r2
 100:../../../../../../Middlewares/Third_Party/LoRaWAN/Mac/LoRaMacParser.c ****     macMsg->FRMPayloadSize = 0;
 264              		.loc 1 100 0
 265 0058 A355     		strb	r3, [r4, r6]
 266              		.loc 1 101 0
 267 005a 6355     		strb	r3, [r4, r5]
 102:../../../../../../Middlewares/Third_Party/LoRaWAN/Mac/LoRaMacParser.c **** 
 103:../../../../../../Middlewares/Third_Party/LoRaWAN/Mac/LoRaMacParser.c ****     if( ( macMsg->BufSize - bufItr - LORAMAC_MIC_FIELD_SIZE ) > 0 )
 268              		.loc 1 103 0
 269 005c 2379     		ldrb	r3, [r4, #4]
  92:../../../../../../Middlewares/Third_Party/LoRaWAN/Mac/LoRaMacParser.c ****     }
 270              		.loc 1 92 0
 271 005e 0837     		adds	r7, r7, #8
 272              	.LVL28:
ARM GAS  C:\Users\EBANO_~1\AppData\Local\Temp\ccWJ4OLX.s 			page 8


 273              		.loc 1 103 0
 274 0060 D91B     		subs	r1, r3, r7
 275 0062 0429     		cmp	r1, #4
 276 0064 18DC     		bgt	.L15
 277              	.LVL29:
 278              	.L12:
 104:../../../../../../Middlewares/Third_Party/LoRaWAN/Mac/LoRaMacParser.c ****     {
 105:../../../../../../Middlewares/Third_Party/LoRaWAN/Mac/LoRaMacParser.c ****         macMsg->FPort = macMsg->Buffer[bufItr++];
 106:../../../../../../Middlewares/Third_Party/LoRaWAN/Mac/LoRaMacParser.c **** 
 107:../../../../../../Middlewares/Third_Party/LoRaWAN/Mac/LoRaMacParser.c ****         macMsg->FRMPayloadSize = ( macMsg->BufSize - bufItr - LORAMAC_MIC_FIELD_SIZE );
 108:../../../../../../Middlewares/Third_Party/LoRaWAN/Mac/LoRaMacParser.c ****         memcpy1( macMsg->FRMPayload, &macMsg->Buffer[bufItr], macMsg->FRMPayloadSize );
 109:../../../../../../Middlewares/Third_Party/LoRaWAN/Mac/LoRaMacParser.c ****         bufItr = bufItr + macMsg->FRMPayloadSize;
 110:../../../../../../Middlewares/Third_Party/LoRaWAN/Mac/LoRaMacParser.c ****     }
 111:../../../../../../Middlewares/Third_Party/LoRaWAN/Mac/LoRaMacParser.c **** 
 112:../../../../../../Middlewares/Third_Party/LoRaWAN/Mac/LoRaMacParser.c ****     macMsg->MIC = ( uint32_t ) macMsg->Buffer[( macMsg->BufSize - LORAMAC_MIC_FIELD_SIZE )];
 279              		.loc 1 112 0
 280 0066 2268     		ldr	r2, [r4]
 113:../../../../../../Middlewares/Third_Party/LoRaWAN/Mac/LoRaMacParser.c ****     macMsg->MIC |= ( ( uint32_t ) macMsg->Buffer[( macMsg->BufSize - LORAMAC_MIC_FIELD_SIZE ) + 1] 
 114:../../../../../../Middlewares/Third_Party/LoRaWAN/Mac/LoRaMacParser.c ****     macMsg->MIC |= ( ( uint32_t ) macMsg->Buffer[( macMsg->BufSize - LORAMAC_MIC_FIELD_SIZE ) + 2] 
 115:../../../../../../Middlewares/Third_Party/LoRaWAN/Mac/LoRaMacParser.c ****     macMsg->MIC |= ( ( uint32_t ) macMsg->Buffer[( macMsg->BufSize - LORAMAC_MIC_FIELD_SIZE ) + 3] 
 116:../../../../../../Middlewares/Third_Party/LoRaWAN/Mac/LoRaMacParser.c **** 
 117:../../../../../../Middlewares/Third_Party/LoRaWAN/Mac/LoRaMacParser.c ****     return LORAMAC_PARSER_SUCCESS;
 281              		.loc 1 117 0
 282 0068 0020     		movs	r0, #0
 112:../../../../../../Middlewares/Third_Party/LoRaWAN/Mac/LoRaMacParser.c ****     macMsg->MIC |= ( ( uint32_t ) macMsg->Buffer[( macMsg->BufSize - LORAMAC_MIC_FIELD_SIZE ) + 1] 
 283              		.loc 1 112 0
 284 006a 9446     		mov	ip, r2
 285 006c 6344     		add	r3, r3, ip
 286 006e 1A1F     		subs	r2, r3, #4
 287 0070 1178     		ldrb	r1, [r2]
 113:../../../../../../Middlewares/Third_Party/LoRaWAN/Mac/LoRaMacParser.c ****     macMsg->MIC |= ( ( uint32_t ) macMsg->Buffer[( macMsg->BufSize - LORAMAC_MIC_FIELD_SIZE ) + 1] 
 288              		.loc 1 113 0
 289 0072 DA1E     		subs	r2, r3, #3
 112:../../../../../../Middlewares/Third_Party/LoRaWAN/Mac/LoRaMacParser.c ****     macMsg->MIC |= ( ( uint32_t ) macMsg->Buffer[( macMsg->BufSize - LORAMAC_MIC_FIELD_SIZE ) + 1] 
 290              		.loc 1 112 0
 291 0074 E162     		str	r1, [r4, #44]
 113:../../../../../../Middlewares/Third_Party/LoRaWAN/Mac/LoRaMacParser.c ****     macMsg->MIC |= ( ( uint32_t ) macMsg->Buffer[( macMsg->BufSize - LORAMAC_MIC_FIELD_SIZE ) + 1] 
 292              		.loc 1 113 0
 293 0076 1278     		ldrb	r2, [r2]
 294 0078 1202     		lsls	r2, r2, #8
 295 007a 1143     		orrs	r1, r2
 296 007c E162     		str	r1, [r4, #44]
 114:../../../../../../Middlewares/Third_Party/LoRaWAN/Mac/LoRaMacParser.c ****     macMsg->MIC |= ( ( uint32_t ) macMsg->Buffer[( macMsg->BufSize - LORAMAC_MIC_FIELD_SIZE ) + 3] 
 297              		.loc 1 114 0
 298 007e 9A1E     		subs	r2, r3, #2
 299 0080 1278     		ldrb	r2, [r2]
 115:../../../../../../Middlewares/Third_Party/LoRaWAN/Mac/LoRaMacParser.c **** 
 300              		.loc 1 115 0
 301 0082 013B     		subs	r3, r3, #1
 114:../../../../../../Middlewares/Third_Party/LoRaWAN/Mac/LoRaMacParser.c ****     macMsg->MIC |= ( ( uint32_t ) macMsg->Buffer[( macMsg->BufSize - LORAMAC_MIC_FIELD_SIZE ) + 3] 
 302              		.loc 1 114 0
 303 0084 1204     		lsls	r2, r2, #16
 304 0086 0A43     		orrs	r2, r1
 305 0088 E262     		str	r2, [r4, #44]
 115:../../../../../../Middlewares/Third_Party/LoRaWAN/Mac/LoRaMacParser.c **** 
 306              		.loc 1 115 0
 307 008a 1B78     		ldrb	r3, [r3]
ARM GAS  C:\Users\EBANO_~1\AppData\Local\Temp\ccWJ4OLX.s 			page 9


 308 008c 1B06     		lsls	r3, r3, #24
 309 008e 1A43     		orrs	r2, r3
 310 0090 E262     		str	r2, [r4, #44]
 311              	.L11:
 118:../../../../../../Middlewares/Third_Party/LoRaWAN/Mac/LoRaMacParser.c **** }
 312              		.loc 1 118 0
 313              		@ sp needed
 314              	.LVL30:
 315 0092 F8BD     		pop	{r3, r4, r5, r6, r7, pc}
 316              	.LVL31:
 317              	.L14:
  72:../../../../../../Middlewares/Third_Party/LoRaWAN/Mac/LoRaMacParser.c ****     }
 318              		.loc 1 72 0
 319 0094 0220     		movs	r0, #2
 320              	.LVL32:
 321 0096 FCE7     		b	.L11
 322              	.LVL33:
 323              	.L15:
 105:../../../../../../Middlewares/Third_Party/LoRaWAN/Mac/LoRaMacParser.c **** 
 324              		.loc 1 105 0
 325 0098 0932     		adds	r2, r2, #9
 326 009a 1100     		movs	r1, r2
 327              	.LVL34:
 328 009c 2068     		ldr	r0, [r4]
 107:../../../../../../Middlewares/Third_Party/LoRaWAN/Mac/LoRaMacParser.c ****         memcpy1( macMsg->FRMPayload, &macMsg->Buffer[bufItr], macMsg->FRMPayloadSize );
 329              		.loc 1 107 0
 330 009e 043B     		subs	r3, r3, #4
 105:../../../../../../Middlewares/Third_Party/LoRaWAN/Mac/LoRaMacParser.c **** 
 331              		.loc 1 105 0
 332 00a0 C25D     		ldrb	r2, [r0, r7]
 107:../../../../../../Middlewares/Third_Party/LoRaWAN/Mac/LoRaMacParser.c ****         memcpy1( macMsg->FRMPayload, &macMsg->Buffer[bufItr], macMsg->FRMPayloadSize );
 333              		.loc 1 107 0
 334 00a2 5B1A     		subs	r3, r3, r1
 335 00a4 DBB2     		uxtb	r3, r3
 105:../../../../../../Middlewares/Third_Party/LoRaWAN/Mac/LoRaMacParser.c **** 
 336              		.loc 1 105 0
 337 00a6 A255     		strb	r2, [r4, r6]
 107:../../../../../../Middlewares/Third_Party/LoRaWAN/Mac/LoRaMacParser.c ****         memcpy1( macMsg->FRMPayload, &macMsg->Buffer[bufItr], macMsg->FRMPayloadSize );
 338              		.loc 1 107 0
 339 00a8 6355     		strb	r3, [r4, r5]
 108:../../../../../../Middlewares/Third_Party/LoRaWAN/Mac/LoRaMacParser.c ****         bufItr = bufItr + macMsg->FRMPayloadSize;
 340              		.loc 1 108 0
 341 00aa 9AB2     		uxth	r2, r3
 342 00ac 4118     		adds	r1, r0, r1
 343              	.LVL35:
 344 00ae 606A     		ldr	r0, [r4, #36]
 345 00b0 FFF7FEFF 		bl	memcpy1
 346              	.LVL36:
 347 00b4 2379     		ldrb	r3, [r4, #4]
 348 00b6 D6E7     		b	.L12
 349              		.cfi_endproc
 350              	.LFE40:
 351              		.size	LoRaMacParserData, .-LoRaMacParserData
 352              		.text
 353              	.Letext0:
 354              		.file 2 "c:\\program files (x86)\\gnu tools arm embedded\\7 2018-q2-update\\arm-none-eabi\\include
 355              		.file 3 "c:\\program files (x86)\\gnu tools arm embedded\\7 2018-q2-update\\arm-none-eabi\\include
ARM GAS  C:\Users\EBANO_~1\AppData\Local\Temp\ccWJ4OLX.s 			page 10


 356              		.file 4 "../../../../../../Middlewares/Third_Party/LoRaWAN/Mac/LoRaMacHeaderTypes.h"
 357              		.file 5 "../../../../../../Middlewares/Third_Party/LoRaWAN/Mac/LoRaMacMessageTypes.h"
 358              		.file 6 "../../../../../../Middlewares/Third_Party/LoRaWAN/Mac/LoRaMacParser.h"
 359              		.file 7 "../../../../../../Drivers/CMSIS/Device/ST/STM32L0xx/Include/system_stm32l0xx.h"
 360              		.file 8 "c:\\program files (x86)\\gnu tools arm embedded\\7 2018-q2-update\\arm-none-eabi\\include
 361              		.file 9 "c:\\program files (x86)\\gnu tools arm embedded\\7 2018-q2-update\\arm-none-eabi\\include
 362              		.file 10 "c:\\program files (x86)\\gnu tools arm embedded\\7 2018-q2-update\\lib\\gcc\\arm-none-ea
 363              		.file 11 "c:\\program files (x86)\\gnu tools arm embedded\\7 2018-q2-update\\arm-none-eabi\\includ
 364              		.file 12 "c:\\program files (x86)\\gnu tools arm embedded\\7 2018-q2-update\\arm-none-eabi\\includ
 365              		.file 13 "../../../../../../Middlewares/Third_Party/LoRaWAN/Utilities/utilities.h"