ARM GAS  C:\Users\EBANO_~1\AppData\Local\Temp\cca1ab55.s 			page 1


   1              		.cpu cortex-m0plus
   2              		.eabi_attribute 20, 1
   3              		.eabi_attribute 21, 1
   4              		.eabi_attribute 23, 3
   5              		.eabi_attribute 24, 1
   6              		.eabi_attribute 25, 1
   7              		.eabi_attribute 26, 1
   8              		.eabi_attribute 30, 2
   9              		.eabi_attribute 34, 0
  10              		.eabi_attribute 18, 4
  11              		.file	"low_power_manager.c"
  12              		.text
  13              	.Ltext0:
  14              		.cfi_sections	.debug_frame
  15              		.section	.text.LPM_SetOffMode,"ax",%progbits
  16              		.align	1
  17              		.p2align 2,,3
  18              		.global	LPM_SetOffMode
  19              		.syntax unified
  20              		.code	16
  21              		.thumb_func
  22              		.fpu softvfp
  23              		.type	LPM_SetOffMode, %function
  24              	LPM_SetOffMode:
  25              	.LFB39:
  26              		.file 1 "../../../../../../Middlewares/Third_Party/LoRaWAN/Utilities/low_power_manager.c"
   1:../../../../../../Middlewares/Third_Party/LoRaWAN/Utilities/low_power_manager.c **** /**
   2:../../../../../../Middlewares/Third_Party/LoRaWAN/Utilities/low_power_manager.c ****   ******************************************************************************
   3:../../../../../../Middlewares/Third_Party/LoRaWAN/Utilities/low_power_manager.c ****   * @file    low_power_manager.c
   4:../../../../../../Middlewares/Third_Party/LoRaWAN/Utilities/low_power_manager.c ****   * @author  MCD Application Team
   5:../../../../../../Middlewares/Third_Party/LoRaWAN/Utilities/low_power_manager.c ****   * @brief   Low Power Manager
   6:../../../../../../Middlewares/Third_Party/LoRaWAN/Utilities/low_power_manager.c ****   ******************************************************************************
   7:../../../../../../Middlewares/Third_Party/LoRaWAN/Utilities/low_power_manager.c ****   * @attention
   8:../../../../../../Middlewares/Third_Party/LoRaWAN/Utilities/low_power_manager.c ****   *
   9:../../../../../../Middlewares/Third_Party/LoRaWAN/Utilities/low_power_manager.c ****   * <h2><center>&copy; Copyright (c) 2018 STMicroelectronics.
  10:../../../../../../Middlewares/Third_Party/LoRaWAN/Utilities/low_power_manager.c ****   * All rights reserved.</center></h2>
  11:../../../../../../Middlewares/Third_Party/LoRaWAN/Utilities/low_power_manager.c ****   *
  12:../../../../../../Middlewares/Third_Party/LoRaWAN/Utilities/low_power_manager.c ****   * This software component is licensed by ST under Ultimate Liberty license
  13:../../../../../../Middlewares/Third_Party/LoRaWAN/Utilities/low_power_manager.c ****   * SLA0044, the "License"; You may not use this file except in compliance with
  14:../../../../../../Middlewares/Third_Party/LoRaWAN/Utilities/low_power_manager.c ****   * the License. You may obtain a copy of the License at:
  15:../../../../../../Middlewares/Third_Party/LoRaWAN/Utilities/low_power_manager.c ****   *                             www.st.com/SLA0044
  16:../../../../../../Middlewares/Third_Party/LoRaWAN/Utilities/low_power_manager.c ****   *
  17:../../../../../../Middlewares/Third_Party/LoRaWAN/Utilities/low_power_manager.c ****   ******************************************************************************
  18:../../../../../../Middlewares/Third_Party/LoRaWAN/Utilities/low_power_manager.c ****   */
  19:../../../../../../Middlewares/Third_Party/LoRaWAN/Utilities/low_power_manager.c **** 
  20:../../../../../../Middlewares/Third_Party/LoRaWAN/Utilities/low_power_manager.c **** /* Includes ------------------------------------------------------------------*/
  21:../../../../../../Middlewares/Third_Party/LoRaWAN/Utilities/low_power_manager.c **** #include "hw.h"
  22:../../../../../../Middlewares/Third_Party/LoRaWAN/Utilities/low_power_manager.c **** #include "low_power_manager.h"
  23:../../../../../../Middlewares/Third_Party/LoRaWAN/Utilities/low_power_manager.c **** 
  24:../../../../../../Middlewares/Third_Party/LoRaWAN/Utilities/low_power_manager.c **** /* Private typedef -----------------------------------------------------------*/
  25:../../../../../../Middlewares/Third_Party/LoRaWAN/Utilities/low_power_manager.c **** /* Private defines -----------------------------------------------------------*/
  26:../../../../../../Middlewares/Third_Party/LoRaWAN/Utilities/low_power_manager.c **** /* Private macros ------------------------------------------------------------*/
  27:../../../../../../Middlewares/Third_Party/LoRaWAN/Utilities/low_power_manager.c **** /* Private variables ---------------------------------------------------------*/
  28:../../../../../../Middlewares/Third_Party/LoRaWAN/Utilities/low_power_manager.c **** static uint32_t StopModeDisable = 0;
  29:../../../../../../Middlewares/Third_Party/LoRaWAN/Utilities/low_power_manager.c **** static uint32_t OffModeDisable = 0;
  30:../../../../../../Middlewares/Third_Party/LoRaWAN/Utilities/low_power_manager.c **** 
  31:../../../../../../Middlewares/Third_Party/LoRaWAN/Utilities/low_power_manager.c **** /* Global variables ----------------------------------------------------------*/
ARM GAS  C:\Users\EBANO_~1\AppData\Local\Temp\cca1ab55.s 			page 2


  32:../../../../../../Middlewares/Third_Party/LoRaWAN/Utilities/low_power_manager.c **** /* Private function prototypes -----------------------------------------------*/
  33:../../../../../../Middlewares/Third_Party/LoRaWAN/Utilities/low_power_manager.c **** /* Functions Definition ------------------------------------------------------*/
  34:../../../../../../Middlewares/Third_Party/LoRaWAN/Utilities/low_power_manager.c **** void LPM_SetOffMode(LPM_Id_t id, LPM_SetMode_t mode)
  35:../../../../../../Middlewares/Third_Party/LoRaWAN/Utilities/low_power_manager.c **** {
  27              		.loc 1 35 0
  28              		.cfi_startproc
  29              		@ args = 0, pretend = 0, frame = 0
  30              		@ frame_needed = 0, uses_anonymous_args = 0
  31              		@ link register save eliminated.
  32              	.LVL0:
  33              	.LBB20:
  34              	.LBB21:
  35              		.file 2 "../../../../../../Drivers/CMSIS/Include/cmsis_gcc.h"
   1:../../../../../../Drivers/CMSIS/Include/cmsis_gcc.h **** /**************************************************************************//**
   2:../../../../../../Drivers/CMSIS/Include/cmsis_gcc.h ****  * @file     cmsis_gcc.h
   3:../../../../../../Drivers/CMSIS/Include/cmsis_gcc.h ****  * @brief    CMSIS compiler GCC header file
   4:../../../../../../Drivers/CMSIS/Include/cmsis_gcc.h ****  * @version  V5.0.1
   5:../../../../../../Drivers/CMSIS/Include/cmsis_gcc.h ****  * @date     02. February 2017
   6:../../../../../../Drivers/CMSIS/Include/cmsis_gcc.h ****  ******************************************************************************/
   7:../../../../../../Drivers/CMSIS/Include/cmsis_gcc.h **** /*
   8:../../../../../../Drivers/CMSIS/Include/cmsis_gcc.h ****  * Copyright (c) 2009-2017 ARM Limited. All rights reserved.
   9:../../../../../../Drivers/CMSIS/Include/cmsis_gcc.h ****  *
  10:../../../../../../Drivers/CMSIS/Include/cmsis_gcc.h ****  * SPDX-License-Identifier: Apache-2.0
  11:../../../../../../Drivers/CMSIS/Include/cmsis_gcc.h ****  *
  12:../../../../../../Drivers/CMSIS/Include/cmsis_gcc.h ****  * Licensed under the Apache License, Version 2.0 (the License); you may
  13:../../../../../../Drivers/CMSIS/Include/cmsis_gcc.h ****  * not use this file except in compliance with the License.
  14:../../../../../../Drivers/CMSIS/Include/cmsis_gcc.h ****  * You may obtain a copy of the License at
  15:../../../../../../Drivers/CMSIS/Include/cmsis_gcc.h ****  *
  16:../../../../../../Drivers/CMSIS/Include/cmsis_gcc.h ****  * www.apache.org/licenses/LICENSE-2.0
  17:../../../../../../Drivers/CMSIS/Include/cmsis_gcc.h ****  *
  18:../../../../../../Drivers/CMSIS/Include/cmsis_gcc.h ****  * Unless required by applicable law or agreed to in writing, software
  19:../../../../../../Drivers/CMSIS/Include/cmsis_gcc.h ****  * distributed under the License is distributed on an AS IS BASIS, WITHOUT
  20:../../../../../../Drivers/CMSIS/Include/cmsis_gcc.h ****  * WARRANTIES OR CONDITIONS OF ANY KIND, either express or implied.
  21:../../../../../../Drivers/CMSIS/Include/cmsis_gcc.h ****  * See the License for the specific language governing permissions and
  22:../../../../../../Drivers/CMSIS/Include/cmsis_gcc.h ****  * limitations under the License.
  23:../../../../../../Drivers/CMSIS/Include/cmsis_gcc.h ****  */
  24:../../../../../../Drivers/CMSIS/Include/cmsis_gcc.h **** 
  25:../../../../../../Drivers/CMSIS/Include/cmsis_gcc.h **** #ifndef __CMSIS_GCC_H
  26:../../../../../../Drivers/CMSIS/Include/cmsis_gcc.h **** #define __CMSIS_GCC_H
  27:../../../../../../Drivers/CMSIS/Include/cmsis_gcc.h **** 
  28:../../../../../../Drivers/CMSIS/Include/cmsis_gcc.h **** /* ignore some GCC warnings */
  29:../../../../../../Drivers/CMSIS/Include/cmsis_gcc.h **** #pragma GCC diagnostic push
  30:../../../../../../Drivers/CMSIS/Include/cmsis_gcc.h **** #pragma GCC diagnostic ignored "-Wsign-conversion"
  31:../../../../../../Drivers/CMSIS/Include/cmsis_gcc.h **** #pragma GCC diagnostic ignored "-Wconversion"
  32:../../../../../../Drivers/CMSIS/Include/cmsis_gcc.h **** #pragma GCC diagnostic ignored "-Wunused-parameter"
  33:../../../../../../Drivers/CMSIS/Include/cmsis_gcc.h **** 
  34:../../../../../../Drivers/CMSIS/Include/cmsis_gcc.h **** /* CMSIS compiler specific defines */
  35:../../../../../../Drivers/CMSIS/Include/cmsis_gcc.h **** #ifndef   __ASM
  36:../../../../../../Drivers/CMSIS/Include/cmsis_gcc.h ****   #define __ASM                     __asm
  37:../../../../../../Drivers/CMSIS/Include/cmsis_gcc.h **** #endif
  38:../../../../../../Drivers/CMSIS/Include/cmsis_gcc.h **** #ifndef   __INLINE
  39:../../../../../../Drivers/CMSIS/Include/cmsis_gcc.h ****   #define __INLINE                  inline
  40:../../../../../../Drivers/CMSIS/Include/cmsis_gcc.h **** #endif
  41:../../../../../../Drivers/CMSIS/Include/cmsis_gcc.h **** #ifndef   __STATIC_INLINE
  42:../../../../../../Drivers/CMSIS/Include/cmsis_gcc.h ****   #define __STATIC_INLINE           static inline
  43:../../../../../../Drivers/CMSIS/Include/cmsis_gcc.h **** #endif
  44:../../../../../../Drivers/CMSIS/Include/cmsis_gcc.h **** #ifndef   __NO_RETURN
ARM GAS  C:\Users\EBANO_~1\AppData\Local\Temp\cca1ab55.s 			page 3


  45:../../../../../../Drivers/CMSIS/Include/cmsis_gcc.h ****   #define __NO_RETURN               __attribute__((noreturn))
  46:../../../../../../Drivers/CMSIS/Include/cmsis_gcc.h **** #endif
  47:../../../../../../Drivers/CMSIS/Include/cmsis_gcc.h **** #ifndef   __USED
  48:../../../../../../Drivers/CMSIS/Include/cmsis_gcc.h ****   #define __USED                    __attribute__((used))
  49:../../../../../../Drivers/CMSIS/Include/cmsis_gcc.h **** #endif
  50:../../../../../../Drivers/CMSIS/Include/cmsis_gcc.h **** #ifndef   __WEAK
  51:../../../../../../Drivers/CMSIS/Include/cmsis_gcc.h ****   #define __WEAK                    __attribute__((weak))
  52:../../../../../../Drivers/CMSIS/Include/cmsis_gcc.h **** #endif
  53:../../../../../../Drivers/CMSIS/Include/cmsis_gcc.h **** #ifndef   __UNALIGNED_UINT32
  54:../../../../../../Drivers/CMSIS/Include/cmsis_gcc.h **** #pragma GCC diagnostic push
  55:../../../../../../Drivers/CMSIS/Include/cmsis_gcc.h **** #pragma GCC diagnostic ignored "-Wpacked"
  56:../../../../../../Drivers/CMSIS/Include/cmsis_gcc.h **** #pragma GCC diagnostic ignored "-Wattributes"
  57:../../../../../../Drivers/CMSIS/Include/cmsis_gcc.h ****   struct __attribute__((packed)) T_UINT32 { uint32_t v; };
  58:../../../../../../Drivers/CMSIS/Include/cmsis_gcc.h **** #pragma GCC diagnostic pop
  59:../../../../../../Drivers/CMSIS/Include/cmsis_gcc.h ****   #define __UNALIGNED_UINT32(x)     (((struct T_UINT32 *)(x))->v)
  60:../../../../../../Drivers/CMSIS/Include/cmsis_gcc.h **** #endif
  61:../../../../../../Drivers/CMSIS/Include/cmsis_gcc.h **** #ifndef   __ALIGNED
  62:../../../../../../Drivers/CMSIS/Include/cmsis_gcc.h ****   #define __ALIGNED(x)              __attribute__((aligned(x)))
  63:../../../../../../Drivers/CMSIS/Include/cmsis_gcc.h **** #endif
  64:../../../../../../Drivers/CMSIS/Include/cmsis_gcc.h **** #ifndef   __PACKED
  65:../../../../../../Drivers/CMSIS/Include/cmsis_gcc.h ****   #define __PACKED                  __attribute__((packed, aligned(1)))
  66:../../../../../../Drivers/CMSIS/Include/cmsis_gcc.h **** #endif
  67:../../../../../../Drivers/CMSIS/Include/cmsis_gcc.h **** #ifndef   __PACKED_STRUCT
  68:../../../../../../Drivers/CMSIS/Include/cmsis_gcc.h ****   #define __PACKED_STRUCT           struct __attribute__((packed, aligned(1)))
  69:../../../../../../Drivers/CMSIS/Include/cmsis_gcc.h **** #endif
  70:../../../../../../Drivers/CMSIS/Include/cmsis_gcc.h **** 
  71:../../../../../../Drivers/CMSIS/Include/cmsis_gcc.h **** 
  72:../../../../../../Drivers/CMSIS/Include/cmsis_gcc.h **** /* ###########################  Core Function Access  ########################### */
  73:../../../../../../Drivers/CMSIS/Include/cmsis_gcc.h **** /** \ingroup  CMSIS_Core_FunctionInterface
  74:../../../../../../Drivers/CMSIS/Include/cmsis_gcc.h ****     \defgroup CMSIS_Core_RegAccFunctions CMSIS Core Register Access Functions
  75:../../../../../../Drivers/CMSIS/Include/cmsis_gcc.h ****   @{
  76:../../../../../../Drivers/CMSIS/Include/cmsis_gcc.h ****  */
  77:../../../../../../Drivers/CMSIS/Include/cmsis_gcc.h **** 
  78:../../../../../../Drivers/CMSIS/Include/cmsis_gcc.h **** /**
  79:../../../../../../Drivers/CMSIS/Include/cmsis_gcc.h ****   \brief   Enable IRQ Interrupts
  80:../../../../../../Drivers/CMSIS/Include/cmsis_gcc.h ****   \details Enables IRQ interrupts by clearing the I-bit in the CPSR.
  81:../../../../../../Drivers/CMSIS/Include/cmsis_gcc.h ****            Can only be executed in Privileged modes.
  82:../../../../../../Drivers/CMSIS/Include/cmsis_gcc.h ****  */
  83:../../../../../../Drivers/CMSIS/Include/cmsis_gcc.h **** __attribute__((always_inline)) __STATIC_INLINE void __enable_irq(void)
  84:../../../../../../Drivers/CMSIS/Include/cmsis_gcc.h **** {
  85:../../../../../../Drivers/CMSIS/Include/cmsis_gcc.h ****   __ASM volatile ("cpsie i" : : : "memory");
  86:../../../../../../Drivers/CMSIS/Include/cmsis_gcc.h **** }
  87:../../../../../../Drivers/CMSIS/Include/cmsis_gcc.h **** 
  88:../../../../../../Drivers/CMSIS/Include/cmsis_gcc.h **** 
  89:../../../../../../Drivers/CMSIS/Include/cmsis_gcc.h **** /**
  90:../../../../../../Drivers/CMSIS/Include/cmsis_gcc.h ****   \brief   Disable IRQ Interrupts
  91:../../../../../../Drivers/CMSIS/Include/cmsis_gcc.h ****   \details Disables IRQ interrupts by setting the I-bit in the CPSR.
  92:../../../../../../Drivers/CMSIS/Include/cmsis_gcc.h ****            Can only be executed in Privileged modes.
  93:../../../../../../Drivers/CMSIS/Include/cmsis_gcc.h ****  */
  94:../../../../../../Drivers/CMSIS/Include/cmsis_gcc.h **** __attribute__((always_inline)) __STATIC_INLINE void __disable_irq(void)
  95:../../../../../../Drivers/CMSIS/Include/cmsis_gcc.h **** {
  96:../../../../../../Drivers/CMSIS/Include/cmsis_gcc.h ****   __ASM volatile ("cpsid i" : : : "memory");
  97:../../../../../../Drivers/CMSIS/Include/cmsis_gcc.h **** }
  98:../../../../../../Drivers/CMSIS/Include/cmsis_gcc.h **** 
  99:../../../../../../Drivers/CMSIS/Include/cmsis_gcc.h **** 
 100:../../../../../../Drivers/CMSIS/Include/cmsis_gcc.h **** /**
 101:../../../../../../Drivers/CMSIS/Include/cmsis_gcc.h ****   \brief   Get Control Register
ARM GAS  C:\Users\EBANO_~1\AppData\Local\Temp\cca1ab55.s 			page 4


 102:../../../../../../Drivers/CMSIS/Include/cmsis_gcc.h ****   \details Returns the content of the Control Register.
 103:../../../../../../Drivers/CMSIS/Include/cmsis_gcc.h ****   \return               Control Register value
 104:../../../../../../Drivers/CMSIS/Include/cmsis_gcc.h ****  */
 105:../../../../../../Drivers/CMSIS/Include/cmsis_gcc.h **** __attribute__((always_inline)) __STATIC_INLINE uint32_t __get_CONTROL(void)
 106:../../../../../../Drivers/CMSIS/Include/cmsis_gcc.h **** {
 107:../../../../../../Drivers/CMSIS/Include/cmsis_gcc.h ****   uint32_t result;
 108:../../../../../../Drivers/CMSIS/Include/cmsis_gcc.h **** 
 109:../../../../../../Drivers/CMSIS/Include/cmsis_gcc.h ****   __ASM volatile ("MRS %0, control" : "=r" (result) );
 110:../../../../../../Drivers/CMSIS/Include/cmsis_gcc.h ****   return(result);
 111:../../../../../../Drivers/CMSIS/Include/cmsis_gcc.h **** }
 112:../../../../../../Drivers/CMSIS/Include/cmsis_gcc.h **** 
 113:../../../../../../Drivers/CMSIS/Include/cmsis_gcc.h **** 
 114:../../../../../../Drivers/CMSIS/Include/cmsis_gcc.h **** #if (defined (__ARM_FEATURE_CMSE ) && (__ARM_FEATURE_CMSE == 3))
 115:../../../../../../Drivers/CMSIS/Include/cmsis_gcc.h **** /**
 116:../../../../../../Drivers/CMSIS/Include/cmsis_gcc.h ****   \brief   Get Control Register (non-secure)
 117:../../../../../../Drivers/CMSIS/Include/cmsis_gcc.h ****   \details Returns the content of the non-secure Control Register when in secure mode.
 118:../../../../../../Drivers/CMSIS/Include/cmsis_gcc.h ****   \return               non-secure Control Register value
 119:../../../../../../Drivers/CMSIS/Include/cmsis_gcc.h ****  */
 120:../../../../../../Drivers/CMSIS/Include/cmsis_gcc.h **** __attribute__((always_inline)) __STATIC_INLINE uint32_t __TZ_get_CONTROL_NS(void)
 121:../../../../../../Drivers/CMSIS/Include/cmsis_gcc.h **** {
 122:../../../../../../Drivers/CMSIS/Include/cmsis_gcc.h ****   uint32_t result;
 123:../../../../../../Drivers/CMSIS/Include/cmsis_gcc.h **** 
 124:../../../../../../Drivers/CMSIS/Include/cmsis_gcc.h ****   __ASM volatile ("MRS %0, control_ns" : "=r" (result) );
 125:../../../../../../Drivers/CMSIS/Include/cmsis_gcc.h ****   return(result);
 126:../../../../../../Drivers/CMSIS/Include/cmsis_gcc.h **** }
 127:../../../../../../Drivers/CMSIS/Include/cmsis_gcc.h **** #endif
 128:../../../../../../Drivers/CMSIS/Include/cmsis_gcc.h **** 
 129:../../../../../../Drivers/CMSIS/Include/cmsis_gcc.h **** 
 130:../../../../../../Drivers/CMSIS/Include/cmsis_gcc.h **** /**
 131:../../../../../../Drivers/CMSIS/Include/cmsis_gcc.h ****   \brief   Set Control Register
 132:../../../../../../Drivers/CMSIS/Include/cmsis_gcc.h ****   \details Writes the given value to the Control Register.
 133:../../../../../../Drivers/CMSIS/Include/cmsis_gcc.h ****   \param [in]    control  Control Register value to set
 134:../../../../../../Drivers/CMSIS/Include/cmsis_gcc.h ****  */
 135:../../../../../../Drivers/CMSIS/Include/cmsis_gcc.h **** __attribute__((always_inline)) __STATIC_INLINE void __set_CONTROL(uint32_t control)
 136:../../../../../../Drivers/CMSIS/Include/cmsis_gcc.h **** {
 137:../../../../../../Drivers/CMSIS/Include/cmsis_gcc.h ****   __ASM volatile ("MSR control, %0" : : "r" (control) : "memory");
 138:../../../../../../Drivers/CMSIS/Include/cmsis_gcc.h **** }
 139:../../../../../../Drivers/CMSIS/Include/cmsis_gcc.h **** 
 140:../../../../../../Drivers/CMSIS/Include/cmsis_gcc.h **** 
 141:../../../../../../Drivers/CMSIS/Include/cmsis_gcc.h **** #if (defined (__ARM_FEATURE_CMSE ) && (__ARM_FEATURE_CMSE == 3))
 142:../../../../../../Drivers/CMSIS/Include/cmsis_gcc.h **** /**
 143:../../../../../../Drivers/CMSIS/Include/cmsis_gcc.h ****   \brief   Set Control Register (non-secure)
 144:../../../../../../Drivers/CMSIS/Include/cmsis_gcc.h ****   \details Writes the given value to the non-secure Control Register when in secure state.
 145:../../../../../../Drivers/CMSIS/Include/cmsis_gcc.h ****   \param [in]    control  Control Register value to set
 146:../../../../../../Drivers/CMSIS/Include/cmsis_gcc.h ****  */
 147:../../../../../../Drivers/CMSIS/Include/cmsis_gcc.h **** __attribute__((always_inline)) __STATIC_INLINE void __TZ_set_CONTROL_NS(uint32_t control)
 148:../../../../../../Drivers/CMSIS/Include/cmsis_gcc.h **** {
 149:../../../../../../Drivers/CMSIS/Include/cmsis_gcc.h ****   __ASM volatile ("MSR control_ns, %0" : : "r" (control) : "memory");
 150:../../../../../../Drivers/CMSIS/Include/cmsis_gcc.h **** }
 151:../../../../../../Drivers/CMSIS/Include/cmsis_gcc.h **** #endif
 152:../../../../../../Drivers/CMSIS/Include/cmsis_gcc.h **** 
 153:../../../../../../Drivers/CMSIS/Include/cmsis_gcc.h **** 
 154:../../../../../../Drivers/CMSIS/Include/cmsis_gcc.h **** /**
 155:../../../../../../Drivers/CMSIS/Include/cmsis_gcc.h ****   \brief   Get IPSR Register
 156:../../../../../../Drivers/CMSIS/Include/cmsis_gcc.h ****   \details Returns the content of the IPSR Register.
 157:../../../../../../Drivers/CMSIS/Include/cmsis_gcc.h ****   \return               IPSR Register value
 158:../../../../../../Drivers/CMSIS/Include/cmsis_gcc.h ****  */
ARM GAS  C:\Users\EBANO_~1\AppData\Local\Temp\cca1ab55.s 			page 5


 159:../../../../../../Drivers/CMSIS/Include/cmsis_gcc.h **** __attribute__((always_inline)) __STATIC_INLINE uint32_t __get_IPSR(void)
 160:../../../../../../Drivers/CMSIS/Include/cmsis_gcc.h **** {
 161:../../../../../../Drivers/CMSIS/Include/cmsis_gcc.h ****   uint32_t result;
 162:../../../../../../Drivers/CMSIS/Include/cmsis_gcc.h **** 
 163:../../../../../../Drivers/CMSIS/Include/cmsis_gcc.h ****   __ASM volatile ("MRS %0, ipsr" : "=r" (result) );
 164:../../../../../../Drivers/CMSIS/Include/cmsis_gcc.h ****   return(result);
 165:../../../../../../Drivers/CMSIS/Include/cmsis_gcc.h **** }
 166:../../../../../../Drivers/CMSIS/Include/cmsis_gcc.h **** 
 167:../../../../../../Drivers/CMSIS/Include/cmsis_gcc.h **** 
 168:../../../../../../Drivers/CMSIS/Include/cmsis_gcc.h **** /**
 169:../../../../../../Drivers/CMSIS/Include/cmsis_gcc.h ****   \brief   Get APSR Register
 170:../../../../../../Drivers/CMSIS/Include/cmsis_gcc.h ****   \details Returns the content of the APSR Register.
 171:../../../../../../Drivers/CMSIS/Include/cmsis_gcc.h ****   \return               APSR Register value
 172:../../../../../../Drivers/CMSIS/Include/cmsis_gcc.h ****  */
 173:../../../../../../Drivers/CMSIS/Include/cmsis_gcc.h **** __attribute__((always_inline)) __STATIC_INLINE uint32_t __get_APSR(void)
 174:../../../../../../Drivers/CMSIS/Include/cmsis_gcc.h **** {
 175:../../../../../../Drivers/CMSIS/Include/cmsis_gcc.h ****   uint32_t result;
 176:../../../../../../Drivers/CMSIS/Include/cmsis_gcc.h **** 
 177:../../../../../../Drivers/CMSIS/Include/cmsis_gcc.h ****   __ASM volatile ("MRS %0, apsr" : "=r" (result) );
 178:../../../../../../Drivers/CMSIS/Include/cmsis_gcc.h ****   return(result);
 179:../../../../../../Drivers/CMSIS/Include/cmsis_gcc.h **** }
 180:../../../../../../Drivers/CMSIS/Include/cmsis_gcc.h **** 
 181:../../../../../../Drivers/CMSIS/Include/cmsis_gcc.h **** 
 182:../../../../../../Drivers/CMSIS/Include/cmsis_gcc.h **** /**
 183:../../../../../../Drivers/CMSIS/Include/cmsis_gcc.h ****   \brief   Get xPSR Register
 184:../../../../../../Drivers/CMSIS/Include/cmsis_gcc.h ****   \details Returns the content of the xPSR Register.
 185:../../../../../../Drivers/CMSIS/Include/cmsis_gcc.h ****   \return               xPSR Register value
 186:../../../../../../Drivers/CMSIS/Include/cmsis_gcc.h ****  */
 187:../../../../../../Drivers/CMSIS/Include/cmsis_gcc.h **** __attribute__((always_inline)) __STATIC_INLINE uint32_t __get_xPSR(void)
 188:../../../../../../Drivers/CMSIS/Include/cmsis_gcc.h **** {
 189:../../../../../../Drivers/CMSIS/Include/cmsis_gcc.h ****   uint32_t result;
 190:../../../../../../Drivers/CMSIS/Include/cmsis_gcc.h **** 
 191:../../../../../../Drivers/CMSIS/Include/cmsis_gcc.h ****   __ASM volatile ("MRS %0, xpsr" : "=r" (result) );
 192:../../../../../../Drivers/CMSIS/Include/cmsis_gcc.h ****   return(result);
 193:../../../../../../Drivers/CMSIS/Include/cmsis_gcc.h **** }
 194:../../../../../../Drivers/CMSIS/Include/cmsis_gcc.h **** 
 195:../../../../../../Drivers/CMSIS/Include/cmsis_gcc.h **** 
 196:../../../../../../Drivers/CMSIS/Include/cmsis_gcc.h **** /**
 197:../../../../../../Drivers/CMSIS/Include/cmsis_gcc.h ****   \brief   Get Process Stack Pointer
 198:../../../../../../Drivers/CMSIS/Include/cmsis_gcc.h ****   \details Returns the current value of the Process Stack Pointer (PSP).
 199:../../../../../../Drivers/CMSIS/Include/cmsis_gcc.h ****   \return               PSP Register value
 200:../../../../../../Drivers/CMSIS/Include/cmsis_gcc.h ****  */
 201:../../../../../../Drivers/CMSIS/Include/cmsis_gcc.h **** __attribute__((always_inline)) __STATIC_INLINE uint32_t __get_PSP(void)
 202:../../../../../../Drivers/CMSIS/Include/cmsis_gcc.h **** {
 203:../../../../../../Drivers/CMSIS/Include/cmsis_gcc.h ****   register uint32_t result;
 204:../../../../../../Drivers/CMSIS/Include/cmsis_gcc.h **** 
 205:../../../../../../Drivers/CMSIS/Include/cmsis_gcc.h ****   __ASM volatile ("MRS %0, psp"  : "=r" (result) );
 206:../../../../../../Drivers/CMSIS/Include/cmsis_gcc.h ****   return(result);
 207:../../../../../../Drivers/CMSIS/Include/cmsis_gcc.h **** }
 208:../../../../../../Drivers/CMSIS/Include/cmsis_gcc.h **** 
 209:../../../../../../Drivers/CMSIS/Include/cmsis_gcc.h **** 
 210:../../../../../../Drivers/CMSIS/Include/cmsis_gcc.h **** #if (defined (__ARM_FEATURE_CMSE ) && (__ARM_FEATURE_CMSE == 3))
 211:../../../../../../Drivers/CMSIS/Include/cmsis_gcc.h **** /**
 212:../../../../../../Drivers/CMSIS/Include/cmsis_gcc.h ****   \brief   Get Process Stack Pointer (non-secure)
 213:../../../../../../Drivers/CMSIS/Include/cmsis_gcc.h ****   \details Returns the current value of the non-secure Process Stack Pointer (PSP) when in secure s
 214:../../../../../../Drivers/CMSIS/Include/cmsis_gcc.h ****   \return               PSP Register value
 215:../../../../../../Drivers/CMSIS/Include/cmsis_gcc.h ****  */
ARM GAS  C:\Users\EBANO_~1\AppData\Local\Temp\cca1ab55.s 			page 6


 216:../../../../../../Drivers/CMSIS/Include/cmsis_gcc.h **** __attribute__((always_inline)) __STATIC_INLINE uint32_t __TZ_get_PSP_NS(void)
 217:../../../../../../Drivers/CMSIS/Include/cmsis_gcc.h **** {
 218:../../../../../../Drivers/CMSIS/Include/cmsis_gcc.h ****   register uint32_t result;
 219:../../../../../../Drivers/CMSIS/Include/cmsis_gcc.h **** 
 220:../../../../../../Drivers/CMSIS/Include/cmsis_gcc.h ****   __ASM volatile ("MRS %0, psp_ns"  : "=r" (result) );
 221:../../../../../../Drivers/CMSIS/Include/cmsis_gcc.h ****   return(result);
 222:../../../../../../Drivers/CMSIS/Include/cmsis_gcc.h **** }
 223:../../../../../../Drivers/CMSIS/Include/cmsis_gcc.h **** #endif
 224:../../../../../../Drivers/CMSIS/Include/cmsis_gcc.h **** 
 225:../../../../../../Drivers/CMSIS/Include/cmsis_gcc.h **** 
 226:../../../../../../Drivers/CMSIS/Include/cmsis_gcc.h **** /**
 227:../../../../../../Drivers/CMSIS/Include/cmsis_gcc.h ****   \brief   Set Process Stack Pointer
 228:../../../../../../Drivers/CMSIS/Include/cmsis_gcc.h ****   \details Assigns the given value to the Process Stack Pointer (PSP).
 229:../../../../../../Drivers/CMSIS/Include/cmsis_gcc.h ****   \param [in]    topOfProcStack  Process Stack Pointer value to set
 230:../../../../../../Drivers/CMSIS/Include/cmsis_gcc.h ****  */
 231:../../../../../../Drivers/CMSIS/Include/cmsis_gcc.h **** __attribute__((always_inline)) __STATIC_INLINE void __set_PSP(uint32_t topOfProcStack)
 232:../../../../../../Drivers/CMSIS/Include/cmsis_gcc.h **** {
 233:../../../../../../Drivers/CMSIS/Include/cmsis_gcc.h ****   __ASM volatile ("MSR psp, %0" : : "r" (topOfProcStack) : );
 234:../../../../../../Drivers/CMSIS/Include/cmsis_gcc.h **** }
 235:../../../../../../Drivers/CMSIS/Include/cmsis_gcc.h **** 
 236:../../../../../../Drivers/CMSIS/Include/cmsis_gcc.h **** 
 237:../../../../../../Drivers/CMSIS/Include/cmsis_gcc.h **** #if (defined (__ARM_FEATURE_CMSE ) && (__ARM_FEATURE_CMSE == 3))
 238:../../../../../../Drivers/CMSIS/Include/cmsis_gcc.h **** /**
 239:../../../../../../Drivers/CMSIS/Include/cmsis_gcc.h ****   \brief   Set Process Stack Pointer (non-secure)
 240:../../../../../../Drivers/CMSIS/Include/cmsis_gcc.h ****   \details Assigns the given value to the non-secure Process Stack Pointer (PSP) when in secure sta
 241:../../../../../../Drivers/CMSIS/Include/cmsis_gcc.h ****   \param [in]    topOfProcStack  Process Stack Pointer value to set
 242:../../../../../../Drivers/CMSIS/Include/cmsis_gcc.h ****  */
 243:../../../../../../Drivers/CMSIS/Include/cmsis_gcc.h **** __attribute__((always_inline)) __STATIC_INLINE void __TZ_set_PSP_NS(uint32_t topOfProcStack)
 244:../../../../../../Drivers/CMSIS/Include/cmsis_gcc.h **** {
 245:../../../../../../Drivers/CMSIS/Include/cmsis_gcc.h ****   __ASM volatile ("MSR psp_ns, %0" : : "r" (topOfProcStack) : );
 246:../../../../../../Drivers/CMSIS/Include/cmsis_gcc.h **** }
 247:../../../../../../Drivers/CMSIS/Include/cmsis_gcc.h **** #endif
 248:../../../../../../Drivers/CMSIS/Include/cmsis_gcc.h **** 
 249:../../../../../../Drivers/CMSIS/Include/cmsis_gcc.h **** 
 250:../../../../../../Drivers/CMSIS/Include/cmsis_gcc.h **** /**
 251:../../../../../../Drivers/CMSIS/Include/cmsis_gcc.h ****   \brief   Get Main Stack Pointer
 252:../../../../../../Drivers/CMSIS/Include/cmsis_gcc.h ****   \details Returns the current value of the Main Stack Pointer (MSP).
 253:../../../../../../Drivers/CMSIS/Include/cmsis_gcc.h ****   \return               MSP Register value
 254:../../../../../../Drivers/CMSIS/Include/cmsis_gcc.h ****  */
 255:../../../../../../Drivers/CMSIS/Include/cmsis_gcc.h **** __attribute__((always_inline)) __STATIC_INLINE uint32_t __get_MSP(void)
 256:../../../../../../Drivers/CMSIS/Include/cmsis_gcc.h **** {
 257:../../../../../../Drivers/CMSIS/Include/cmsis_gcc.h ****   register uint32_t result;
 258:../../../../../../Drivers/CMSIS/Include/cmsis_gcc.h **** 
 259:../../../../../../Drivers/CMSIS/Include/cmsis_gcc.h ****   __ASM volatile ("MRS %0, msp" : "=r" (result) );
 260:../../../../../../Drivers/CMSIS/Include/cmsis_gcc.h ****   return(result);
 261:../../../../../../Drivers/CMSIS/Include/cmsis_gcc.h **** }
 262:../../../../../../Drivers/CMSIS/Include/cmsis_gcc.h **** 
 263:../../../../../../Drivers/CMSIS/Include/cmsis_gcc.h **** 
 264:../../../../../../Drivers/CMSIS/Include/cmsis_gcc.h **** #if (defined (__ARM_FEATURE_CMSE ) && (__ARM_FEATURE_CMSE == 3))
 265:../../../../../../Drivers/CMSIS/Include/cmsis_gcc.h **** /**
 266:../../../../../../Drivers/CMSIS/Include/cmsis_gcc.h ****   \brief   Get Main Stack Pointer (non-secure)
 267:../../../../../../Drivers/CMSIS/Include/cmsis_gcc.h ****   \details Returns the current value of the non-secure Main Stack Pointer (MSP) when in secure stat
 268:../../../../../../Drivers/CMSIS/Include/cmsis_gcc.h ****   \return               MSP Register value
 269:../../../../../../Drivers/CMSIS/Include/cmsis_gcc.h ****  */
 270:../../../../../../Drivers/CMSIS/Include/cmsis_gcc.h **** __attribute__((always_inline)) __STATIC_INLINE uint32_t __TZ_get_MSP_NS(void)
 271:../../../../../../Drivers/CMSIS/Include/cmsis_gcc.h **** {
 272:../../../../../../Drivers/CMSIS/Include/cmsis_gcc.h ****   register uint32_t result;
ARM GAS  C:\Users\EBANO_~1\AppData\Local\Temp\cca1ab55.s 			page 7


 273:../../../../../../Drivers/CMSIS/Include/cmsis_gcc.h **** 
 274:../../../../../../Drivers/CMSIS/Include/cmsis_gcc.h ****   __ASM volatile ("MRS %0, msp_ns" : "=r" (result) );
 275:../../../../../../Drivers/CMSIS/Include/cmsis_gcc.h ****   return(result);
 276:../../../../../../Drivers/CMSIS/Include/cmsis_gcc.h **** }
 277:../../../../../../Drivers/CMSIS/Include/cmsis_gcc.h **** #endif
 278:../../../../../../Drivers/CMSIS/Include/cmsis_gcc.h **** 
 279:../../../../../../Drivers/CMSIS/Include/cmsis_gcc.h **** 
 280:../../../../../../Drivers/CMSIS/Include/cmsis_gcc.h **** /**
 281:../../../../../../Drivers/CMSIS/Include/cmsis_gcc.h ****   \brief   Set Main Stack Pointer
 282:../../../../../../Drivers/CMSIS/Include/cmsis_gcc.h ****   \details Assigns the given value to the Main Stack Pointer (MSP).
 283:../../../../../../Drivers/CMSIS/Include/cmsis_gcc.h ****   \param [in]    topOfMainStack  Main Stack Pointer value to set
 284:../../../../../../Drivers/CMSIS/Include/cmsis_gcc.h ****  */
 285:../../../../../../Drivers/CMSIS/Include/cmsis_gcc.h **** __attribute__((always_inline)) __STATIC_INLINE void __set_MSP(uint32_t topOfMainStack)
 286:../../../../../../Drivers/CMSIS/Include/cmsis_gcc.h **** {
 287:../../../../../../Drivers/CMSIS/Include/cmsis_gcc.h ****   __ASM volatile ("MSR msp, %0" : : "r" (topOfMainStack) : );
 288:../../../../../../Drivers/CMSIS/Include/cmsis_gcc.h **** }
 289:../../../../../../Drivers/CMSIS/Include/cmsis_gcc.h **** 
 290:../../../../../../Drivers/CMSIS/Include/cmsis_gcc.h **** 
 291:../../../../../../Drivers/CMSIS/Include/cmsis_gcc.h **** #if (defined (__ARM_FEATURE_CMSE ) && (__ARM_FEATURE_CMSE == 3))
 292:../../../../../../Drivers/CMSIS/Include/cmsis_gcc.h **** /**
 293:../../../../../../Drivers/CMSIS/Include/cmsis_gcc.h ****   \brief   Set Main Stack Pointer (non-secure)
 294:../../../../../../Drivers/CMSIS/Include/cmsis_gcc.h ****   \details Assigns the given value to the non-secure Main Stack Pointer (MSP) when in secure state.
 295:../../../../../../Drivers/CMSIS/Include/cmsis_gcc.h ****   \param [in]    topOfMainStack  Main Stack Pointer value to set
 296:../../../../../../Drivers/CMSIS/Include/cmsis_gcc.h ****  */
 297:../../../../../../Drivers/CMSIS/Include/cmsis_gcc.h **** __attribute__((always_inline)) __STATIC_INLINE void __TZ_set_MSP_NS(uint32_t topOfMainStack)
 298:../../../../../../Drivers/CMSIS/Include/cmsis_gcc.h **** {
 299:../../../../../../Drivers/CMSIS/Include/cmsis_gcc.h ****   __ASM volatile ("MSR msp_ns, %0" : : "r" (topOfMainStack) : );
 300:../../../../../../Drivers/CMSIS/Include/cmsis_gcc.h **** }
 301:../../../../../../Drivers/CMSIS/Include/cmsis_gcc.h **** #endif
 302:../../../../../../Drivers/CMSIS/Include/cmsis_gcc.h **** 
 303:../../../../../../Drivers/CMSIS/Include/cmsis_gcc.h **** 
 304:../../../../../../Drivers/CMSIS/Include/cmsis_gcc.h **** /**
 305:../../../../../../Drivers/CMSIS/Include/cmsis_gcc.h ****   \brief   Get Priority Mask
 306:../../../../../../Drivers/CMSIS/Include/cmsis_gcc.h ****   \details Returns the current state of the priority mask bit from the Priority Mask Register.
 307:../../../../../../Drivers/CMSIS/Include/cmsis_gcc.h ****   \return               Priority Mask value
 308:../../../../../../Drivers/CMSIS/Include/cmsis_gcc.h ****  */
 309:../../../../../../Drivers/CMSIS/Include/cmsis_gcc.h **** __attribute__((always_inline)) __STATIC_INLINE uint32_t __get_PRIMASK(void)
 310:../../../../../../Drivers/CMSIS/Include/cmsis_gcc.h **** {
 311:../../../../../../Drivers/CMSIS/Include/cmsis_gcc.h ****   uint32_t result;
 312:../../../../../../Drivers/CMSIS/Include/cmsis_gcc.h **** 
 313:../../../../../../Drivers/CMSIS/Include/cmsis_gcc.h ****   __ASM volatile ("MRS %0, primask" : "=r" (result) );
  36              		.loc 2 313 0
  37              		.syntax divided
  38              	@ 313 "../../../../../../Drivers/CMSIS/Include/cmsis_gcc.h" 1
  39 0000 EFF31083 		MRS r3, primask
  40              	@ 0 "" 2
  41              		.thumb
  42              		.syntax unified
  43              	.LBE21:
  44              	.LBE20:
  45              	.LBB22:
  46              	.LBB23:
  96:../../../../../../Drivers/CMSIS/Include/cmsis_gcc.h **** }
  47              		.loc 2 96 0
  48              		.syntax divided
  49              	@ 96 "../../../../../../Drivers/CMSIS/Include/cmsis_gcc.h" 1
  50 0004 72B6     		cpsid i
ARM GAS  C:\Users\EBANO_~1\AppData\Local\Temp\cca1ab55.s 			page 8


  51              	@ 0 "" 2
  52              		.thumb
  53              		.syntax unified
  54              	.LBE23:
  55              	.LBE22:
  36:../../../../../../Middlewares/Third_Party/LoRaWAN/Utilities/low_power_manager.c ****   BACKUP_PRIMASK();
  37:../../../../../../Middlewares/Third_Party/LoRaWAN/Utilities/low_power_manager.c ****   
  38:../../../../../../Middlewares/Third_Party/LoRaWAN/Utilities/low_power_manager.c ****   DISABLE_IRQ( );
  39:../../../../../../Middlewares/Third_Party/LoRaWAN/Utilities/low_power_manager.c ****   
  40:../../../../../../Middlewares/Third_Party/LoRaWAN/Utilities/low_power_manager.c ****   
  41:../../../../../../Middlewares/Third_Party/LoRaWAN/Utilities/low_power_manager.c ****   switch(mode)
  56              		.loc 1 41 0
  57 0006 0029     		cmp	r1, #0
  58 0008 08D0     		beq	.L3
  59 000a 0129     		cmp	r1, #1
  60 000c 03D1     		bne	.L2
  42:../../../../../../Middlewares/Third_Party/LoRaWAN/Utilities/low_power_manager.c ****   {
  43:../../../../../../Middlewares/Third_Party/LoRaWAN/Utilities/low_power_manager.c ****     case LPM_Disable:
  44:../../../../../../Middlewares/Third_Party/LoRaWAN/Utilities/low_power_manager.c ****     {
  45:../../../../../../Middlewares/Third_Party/LoRaWAN/Utilities/low_power_manager.c ****       OffModeDisable |= (uint32_t)id;
  61              		.loc 1 45 0
  62 000e 064A     		ldr	r2, .L6
  63 0010 1168     		ldr	r1, [r2]
  64              	.LVL1:
  65 0012 0843     		orrs	r0, r1
  66              	.LVL2:
  67 0014 1060     		str	r0, [r2]
  68              	.L2:
  69              	.LVL3:
  70              	.LBB24:
  71              	.LBB25:
 314:../../../../../../Drivers/CMSIS/Include/cmsis_gcc.h ****   return(result);
 315:../../../../../../Drivers/CMSIS/Include/cmsis_gcc.h **** }
 316:../../../../../../Drivers/CMSIS/Include/cmsis_gcc.h **** 
 317:../../../../../../Drivers/CMSIS/Include/cmsis_gcc.h **** 
 318:../../../../../../Drivers/CMSIS/Include/cmsis_gcc.h **** #if (defined (__ARM_FEATURE_CMSE ) && (__ARM_FEATURE_CMSE == 3))
 319:../../../../../../Drivers/CMSIS/Include/cmsis_gcc.h **** /**
 320:../../../../../../Drivers/CMSIS/Include/cmsis_gcc.h ****   \brief   Get Priority Mask (non-secure)
 321:../../../../../../Drivers/CMSIS/Include/cmsis_gcc.h ****   \details Returns the current state of the non-secure priority mask bit from the Priority Mask Reg
 322:../../../../../../Drivers/CMSIS/Include/cmsis_gcc.h ****   \return               Priority Mask value
 323:../../../../../../Drivers/CMSIS/Include/cmsis_gcc.h ****  */
 324:../../../../../../Drivers/CMSIS/Include/cmsis_gcc.h **** __attribute__((always_inline)) __STATIC_INLINE uint32_t __TZ_get_PRIMASK_NS(void)
 325:../../../../../../Drivers/CMSIS/Include/cmsis_gcc.h **** {
 326:../../../../../../Drivers/CMSIS/Include/cmsis_gcc.h ****   uint32_t result;
 327:../../../../../../Drivers/CMSIS/Include/cmsis_gcc.h **** 
 328:../../../../../../Drivers/CMSIS/Include/cmsis_gcc.h ****   __ASM volatile ("MRS %0, primask_ns" : "=r" (result) );
 329:../../../../../../Drivers/CMSIS/Include/cmsis_gcc.h ****   return(result);
 330:../../../../../../Drivers/CMSIS/Include/cmsis_gcc.h **** }
 331:../../../../../../Drivers/CMSIS/Include/cmsis_gcc.h **** #endif
 332:../../../../../../Drivers/CMSIS/Include/cmsis_gcc.h **** 
 333:../../../../../../Drivers/CMSIS/Include/cmsis_gcc.h **** 
 334:../../../../../../Drivers/CMSIS/Include/cmsis_gcc.h **** /**
 335:../../../../../../Drivers/CMSIS/Include/cmsis_gcc.h ****   \brief   Set Priority Mask
 336:../../../../../../Drivers/CMSIS/Include/cmsis_gcc.h ****   \details Assigns the given value to the Priority Mask Register.
 337:../../../../../../Drivers/CMSIS/Include/cmsis_gcc.h ****   \param [in]    priMask  Priority Mask
 338:../../../../../../Drivers/CMSIS/Include/cmsis_gcc.h ****  */
 339:../../../../../../Drivers/CMSIS/Include/cmsis_gcc.h **** __attribute__((always_inline)) __STATIC_INLINE void __set_PRIMASK(uint32_t priMask)
ARM GAS  C:\Users\EBANO_~1\AppData\Local\Temp\cca1ab55.s 			page 9


 340:../../../../../../Drivers/CMSIS/Include/cmsis_gcc.h **** {
 341:../../../../../../Drivers/CMSIS/Include/cmsis_gcc.h ****   __ASM volatile ("MSR primask, %0" : : "r" (priMask) : "memory");
  72              		.loc 2 341 0
  73              		.syntax divided
  74              	@ 341 "../../../../../../Drivers/CMSIS/Include/cmsis_gcc.h" 1
  75 0016 83F31088 		MSR primask, r3
  76              	@ 0 "" 2
  77              	.LVL4:
  78              		.thumb
  79              		.syntax unified
  80              	.LBE25:
  81              	.LBE24:
  46:../../../../../../Middlewares/Third_Party/LoRaWAN/Utilities/low_power_manager.c ****       break;
  47:../../../../../../Middlewares/Third_Party/LoRaWAN/Utilities/low_power_manager.c ****     }
  48:../../../../../../Middlewares/Third_Party/LoRaWAN/Utilities/low_power_manager.c ****     case LPM_Enable:
  49:../../../../../../Middlewares/Third_Party/LoRaWAN/Utilities/low_power_manager.c ****     {
  50:../../../../../../Middlewares/Third_Party/LoRaWAN/Utilities/low_power_manager.c ****       OffModeDisable &= ~(uint32_t)id;
  51:../../../../../../Middlewares/Third_Party/LoRaWAN/Utilities/low_power_manager.c ****       break;
  52:../../../../../../Middlewares/Third_Party/LoRaWAN/Utilities/low_power_manager.c ****     }
  53:../../../../../../Middlewares/Third_Party/LoRaWAN/Utilities/low_power_manager.c ****     default:
  54:../../../../../../Middlewares/Third_Party/LoRaWAN/Utilities/low_power_manager.c ****       break;
  55:../../../../../../Middlewares/Third_Party/LoRaWAN/Utilities/low_power_manager.c ****   }
  56:../../../../../../Middlewares/Third_Party/LoRaWAN/Utilities/low_power_manager.c ****   
  57:../../../../../../Middlewares/Third_Party/LoRaWAN/Utilities/low_power_manager.c ****   RESTORE_PRIMASK( );
  58:../../../../../../Middlewares/Third_Party/LoRaWAN/Utilities/low_power_manager.c **** 
  59:../../../../../../Middlewares/Third_Party/LoRaWAN/Utilities/low_power_manager.c ****   return;
  60:../../../../../../Middlewares/Third_Party/LoRaWAN/Utilities/low_power_manager.c **** }
  82              		.loc 1 60 0
  83              		@ sp needed
  84 001a 7047     		bx	lr
  85              	.LVL5:
  86              	.L3:
  50:../../../../../../Middlewares/Third_Party/LoRaWAN/Utilities/low_power_manager.c ****       break;
  87              		.loc 1 50 0
  88 001c 0249     		ldr	r1, .L6
  89              	.LVL6:
  90 001e 0A68     		ldr	r2, [r1]
  91 0020 8243     		bics	r2, r0
  92 0022 0A60     		str	r2, [r1]
  51:../../../../../../Middlewares/Third_Party/LoRaWAN/Utilities/low_power_manager.c ****     }
  93              		.loc 1 51 0
  94 0024 F7E7     		b	.L2
  95              	.L7:
  96 0026 C046     		.align	2
  97              	.L6:
  98 0028 00000000 		.word	.LANCHOR0
  99              		.cfi_endproc
 100              	.LFE39:
 101              		.size	LPM_SetOffMode, .-LPM_SetOffMode
 102              		.section	.text.LPM_SetStopMode,"ax",%progbits
 103              		.align	1
 104              		.p2align 2,,3
 105              		.global	LPM_SetStopMode
 106              		.syntax unified
 107              		.code	16
 108              		.thumb_func
 109              		.fpu softvfp
ARM GAS  C:\Users\EBANO_~1\AppData\Local\Temp\cca1ab55.s 			page 10


 110              		.type	LPM_SetStopMode, %function
 111              	LPM_SetStopMode:
 112              	.LFB40:
  61:../../../../../../Middlewares/Third_Party/LoRaWAN/Utilities/low_power_manager.c **** 
  62:../../../../../../Middlewares/Third_Party/LoRaWAN/Utilities/low_power_manager.c **** void LPM_SetStopMode(LPM_Id_t id, LPM_SetMode_t mode)
  63:../../../../../../Middlewares/Third_Party/LoRaWAN/Utilities/low_power_manager.c **** {
 113              		.loc 1 63 0
 114              		.cfi_startproc
 115              		@ args = 0, pretend = 0, frame = 0
 116              		@ frame_needed = 0, uses_anonymous_args = 0
 117              		@ link register save eliminated.
 118              	.LVL7:
 119              	.LBB26:
 120              	.LBB27:
 313:../../../../../../Drivers/CMSIS/Include/cmsis_gcc.h ****   return(result);
 121              		.loc 2 313 0
 122              		.syntax divided
 123              	@ 313 "../../../../../../Drivers/CMSIS/Include/cmsis_gcc.h" 1
 124 0000 EFF31083 		MRS r3, primask
 125              	@ 0 "" 2
 126              		.thumb
 127              		.syntax unified
 128              	.LBE27:
 129              	.LBE26:
 130              	.LBB28:
 131              	.LBB29:
  96:../../../../../../Drivers/CMSIS/Include/cmsis_gcc.h **** }
 132              		.loc 2 96 0
 133              		.syntax divided
 134              	@ 96 "../../../../../../Drivers/CMSIS/Include/cmsis_gcc.h" 1
 135 0004 72B6     		cpsid i
 136              	@ 0 "" 2
 137              		.thumb
 138              		.syntax unified
 139              	.LBE29:
 140              	.LBE28:
  64:../../../../../../Middlewares/Third_Party/LoRaWAN/Utilities/low_power_manager.c ****   BACKUP_PRIMASK();
  65:../../../../../../Middlewares/Third_Party/LoRaWAN/Utilities/low_power_manager.c ****   
  66:../../../../../../Middlewares/Third_Party/LoRaWAN/Utilities/low_power_manager.c ****   DISABLE_IRQ( );
  67:../../../../../../Middlewares/Third_Party/LoRaWAN/Utilities/low_power_manager.c ****   
  68:../../../../../../Middlewares/Third_Party/LoRaWAN/Utilities/low_power_manager.c ****   
  69:../../../../../../Middlewares/Third_Party/LoRaWAN/Utilities/low_power_manager.c ****   switch(mode)
 141              		.loc 1 69 0
 142 0006 0029     		cmp	r1, #0
 143 0008 08D0     		beq	.L10
 144 000a 0129     		cmp	r1, #1
 145 000c 03D1     		bne	.L9
  70:../../../../../../Middlewares/Third_Party/LoRaWAN/Utilities/low_power_manager.c ****   {
  71:../../../../../../Middlewares/Third_Party/LoRaWAN/Utilities/low_power_manager.c ****     case LPM_Disable:
  72:../../../../../../Middlewares/Third_Party/LoRaWAN/Utilities/low_power_manager.c ****     {
  73:../../../../../../Middlewares/Third_Party/LoRaWAN/Utilities/low_power_manager.c ****       StopModeDisable |= (uint32_t)id;
 146              		.loc 1 73 0
 147 000e 064A     		ldr	r2, .L12
 148 0010 5168     		ldr	r1, [r2, #4]
 149              	.LVL8:
 150 0012 0843     		orrs	r0, r1
 151              	.LVL9:
ARM GAS  C:\Users\EBANO_~1\AppData\Local\Temp\cca1ab55.s 			page 11


 152 0014 5060     		str	r0, [r2, #4]
 153              	.L9:
 154              	.LVL10:
 155              	.LBB30:
 156              	.LBB31:
 157              		.loc 2 341 0
 158              		.syntax divided
 159              	@ 341 "../../../../../../Drivers/CMSIS/Include/cmsis_gcc.h" 1
 160 0016 83F31088 		MSR primask, r3
 161              	@ 0 "" 2
 162              	.LVL11:
 163              		.thumb
 164              		.syntax unified
 165              	.LBE31:
 166              	.LBE30:
  74:../../../../../../Middlewares/Third_Party/LoRaWAN/Utilities/low_power_manager.c ****       break;
  75:../../../../../../Middlewares/Third_Party/LoRaWAN/Utilities/low_power_manager.c ****     }
  76:../../../../../../Middlewares/Third_Party/LoRaWAN/Utilities/low_power_manager.c ****     case LPM_Enable:
  77:../../../../../../Middlewares/Third_Party/LoRaWAN/Utilities/low_power_manager.c ****     {
  78:../../../../../../Middlewares/Third_Party/LoRaWAN/Utilities/low_power_manager.c ****       StopModeDisable &= ~(uint32_t)id;
  79:../../../../../../Middlewares/Third_Party/LoRaWAN/Utilities/low_power_manager.c ****       break;
  80:../../../../../../Middlewares/Third_Party/LoRaWAN/Utilities/low_power_manager.c ****     }
  81:../../../../../../Middlewares/Third_Party/LoRaWAN/Utilities/low_power_manager.c ****     default:
  82:../../../../../../Middlewares/Third_Party/LoRaWAN/Utilities/low_power_manager.c ****       break;
  83:../../../../../../Middlewares/Third_Party/LoRaWAN/Utilities/low_power_manager.c ****   }
  84:../../../../../../Middlewares/Third_Party/LoRaWAN/Utilities/low_power_manager.c ****   RESTORE_PRIMASK( );
  85:../../../../../../Middlewares/Third_Party/LoRaWAN/Utilities/low_power_manager.c **** 
  86:../../../../../../Middlewares/Third_Party/LoRaWAN/Utilities/low_power_manager.c ****   return;
  87:../../../../../../Middlewares/Third_Party/LoRaWAN/Utilities/low_power_manager.c **** }
 167              		.loc 1 87 0
 168              		@ sp needed
 169 001a 7047     		bx	lr
 170              	.LVL12:
 171              	.L10:
  78:../../../../../../Middlewares/Third_Party/LoRaWAN/Utilities/low_power_manager.c ****       break;
 172              		.loc 1 78 0
 173 001c 0249     		ldr	r1, .L12
 174              	.LVL13:
 175 001e 4A68     		ldr	r2, [r1, #4]
 176 0020 8243     		bics	r2, r0
 177 0022 4A60     		str	r2, [r1, #4]
  79:../../../../../../Middlewares/Third_Party/LoRaWAN/Utilities/low_power_manager.c ****     }
 178              		.loc 1 79 0
 179 0024 F7E7     		b	.L9
 180              	.L13:
 181 0026 C046     		.align	2
 182              	.L12:
 183 0028 00000000 		.word	.LANCHOR0
 184              		.cfi_endproc
 185              	.LFE40:
 186              		.size	LPM_SetStopMode, .-LPM_SetStopMode
 187              		.section	.text.LPM_GetMode,"ax",%progbits
 188              		.align	1
 189              		.p2align 2,,3
 190              		.global	LPM_GetMode
 191              		.syntax unified
 192              		.code	16
ARM GAS  C:\Users\EBANO_~1\AppData\Local\Temp\cca1ab55.s 			page 12


 193              		.thumb_func
 194              		.fpu softvfp
 195              		.type	LPM_GetMode, %function
 196              	LPM_GetMode:
 197              	.LFB42:
  88:../../../../../../Middlewares/Third_Party/LoRaWAN/Utilities/low_power_manager.c **** 
  89:../../../../../../Middlewares/Third_Party/LoRaWAN/Utilities/low_power_manager.c **** void LPM_EnterLowPower(void)
  90:../../../../../../Middlewares/Third_Party/LoRaWAN/Utilities/low_power_manager.c **** {
  91:../../../../../../Middlewares/Third_Party/LoRaWAN/Utilities/low_power_manager.c ****   if( StopModeDisable )
  92:../../../../../../Middlewares/Third_Party/LoRaWAN/Utilities/low_power_manager.c ****   {
  93:../../../../../../Middlewares/Third_Party/LoRaWAN/Utilities/low_power_manager.c ****     /**
  94:../../../../../../Middlewares/Third_Party/LoRaWAN/Utilities/low_power_manager.c ****      * SLEEP mode is required
  95:../../../../../../Middlewares/Third_Party/LoRaWAN/Utilities/low_power_manager.c ****      */
  96:../../../../../../Middlewares/Third_Party/LoRaWAN/Utilities/low_power_manager.c ****     LPM_EnterSleepMode();
  97:../../../../../../Middlewares/Third_Party/LoRaWAN/Utilities/low_power_manager.c ****     LPM_ExitSleepMode();
  98:../../../../../../Middlewares/Third_Party/LoRaWAN/Utilities/low_power_manager.c ****   }
  99:../../../../../../Middlewares/Third_Party/LoRaWAN/Utilities/low_power_manager.c ****   else
 100:../../../../../../Middlewares/Third_Party/LoRaWAN/Utilities/low_power_manager.c ****   { 
 101:../../../../../../Middlewares/Third_Party/LoRaWAN/Utilities/low_power_manager.c ****     if( OffModeDisable )
 102:../../../../../../Middlewares/Third_Party/LoRaWAN/Utilities/low_power_manager.c ****     {
 103:../../../../../../Middlewares/Third_Party/LoRaWAN/Utilities/low_power_manager.c ****       /**
 104:../../../../../../Middlewares/Third_Party/LoRaWAN/Utilities/low_power_manager.c ****        * STOP mode is required
 105:../../../../../../Middlewares/Third_Party/LoRaWAN/Utilities/low_power_manager.c ****        */
 106:../../../../../../Middlewares/Third_Party/LoRaWAN/Utilities/low_power_manager.c ****       LPM_EnterStopMode();
 107:../../../../../../Middlewares/Third_Party/LoRaWAN/Utilities/low_power_manager.c ****       LPM_ExitStopMode();
 108:../../../../../../Middlewares/Third_Party/LoRaWAN/Utilities/low_power_manager.c ****     }
 109:../../../../../../Middlewares/Third_Party/LoRaWAN/Utilities/low_power_manager.c ****     else
 110:../../../../../../Middlewares/Third_Party/LoRaWAN/Utilities/low_power_manager.c ****     {
 111:../../../../../../Middlewares/Third_Party/LoRaWAN/Utilities/low_power_manager.c ****       /**
 112:../../../../../../Middlewares/Third_Party/LoRaWAN/Utilities/low_power_manager.c ****        * OFF mode is required
 113:../../../../../../Middlewares/Third_Party/LoRaWAN/Utilities/low_power_manager.c ****        */
 114:../../../../../../Middlewares/Third_Party/LoRaWAN/Utilities/low_power_manager.c ****       LPM_EnterOffMode();
 115:../../../../../../Middlewares/Third_Party/LoRaWAN/Utilities/low_power_manager.c ****       LPM_ExitOffMode();
 116:../../../../../../Middlewares/Third_Party/LoRaWAN/Utilities/low_power_manager.c ****     }
 117:../../../../../../Middlewares/Third_Party/LoRaWAN/Utilities/low_power_manager.c ****   }
 118:../../../../../../Middlewares/Third_Party/LoRaWAN/Utilities/low_power_manager.c **** 
 119:../../../../../../Middlewares/Third_Party/LoRaWAN/Utilities/low_power_manager.c ****   return;
 120:../../../../../../Middlewares/Third_Party/LoRaWAN/Utilities/low_power_manager.c **** }
 121:../../../../../../Middlewares/Third_Party/LoRaWAN/Utilities/low_power_manager.c **** 
 122:../../../../../../Middlewares/Third_Party/LoRaWAN/Utilities/low_power_manager.c **** LPM_GetMode_t LPM_GetMode(void)
 123:../../../../../../Middlewares/Third_Party/LoRaWAN/Utilities/low_power_manager.c **** {
 198              		.loc 1 123 0
 199              		.cfi_startproc
 200              		@ args = 0, pretend = 0, frame = 0
 201              		@ frame_needed = 0, uses_anonymous_args = 0
 202              		@ link register save eliminated.
 203              	.LBB32:
 204              	.LBB33:
 313:../../../../../../Drivers/CMSIS/Include/cmsis_gcc.h ****   return(result);
 205              		.loc 2 313 0
 206              		.syntax divided
 207              	@ 313 "../../../../../../Drivers/CMSIS/Include/cmsis_gcc.h" 1
 208 0000 EFF31082 		MRS r2, primask
 209              	@ 0 "" 2
 210              		.thumb
 211              		.syntax unified
 212              	.LBE33:
ARM GAS  C:\Users\EBANO_~1\AppData\Local\Temp\cca1ab55.s 			page 13


 213              	.LBE32:
 214              	.LBB34:
 215              	.LBB35:
  96:../../../../../../Drivers/CMSIS/Include/cmsis_gcc.h **** }
 216              		.loc 2 96 0
 217              		.syntax divided
 218              	@ 96 "../../../../../../Drivers/CMSIS/Include/cmsis_gcc.h" 1
 219 0004 72B6     		cpsid i
 220              	@ 0 "" 2
 221              		.thumb
 222              		.syntax unified
 223              	.LBE35:
 224              	.LBE34:
 124:../../../../../../Middlewares/Third_Party/LoRaWAN/Utilities/low_power_manager.c ****   LPM_GetMode_t mode_selected;
 125:../../../../../../Middlewares/Third_Party/LoRaWAN/Utilities/low_power_manager.c **** 
 126:../../../../../../Middlewares/Third_Party/LoRaWAN/Utilities/low_power_manager.c ****   BACKUP_PRIMASK();
 127:../../../../../../Middlewares/Third_Party/LoRaWAN/Utilities/low_power_manager.c ****   
 128:../../../../../../Middlewares/Third_Party/LoRaWAN/Utilities/low_power_manager.c ****   DISABLE_IRQ( );
 129:../../../../../../Middlewares/Third_Party/LoRaWAN/Utilities/low_power_manager.c **** 
 130:../../../../../../Middlewares/Third_Party/LoRaWAN/Utilities/low_power_manager.c ****   if(StopModeDisable )
 225              		.loc 1 130 0
 226 0006 064B     		ldr	r3, .L18
 131:../../../../../../Middlewares/Third_Party/LoRaWAN/Utilities/low_power_manager.c ****   {
 132:../../../../../../Middlewares/Third_Party/LoRaWAN/Utilities/low_power_manager.c ****     mode_selected = LPM_SleepMode;
 227              		.loc 1 132 0
 228 0008 0020     		movs	r0, #0
 130:../../../../../../Middlewares/Third_Party/LoRaWAN/Utilities/low_power_manager.c ****   {
 229              		.loc 1 130 0
 230 000a 5968     		ldr	r1, [r3, #4]
 231 000c 0029     		cmp	r1, #0
 232 000e 03D1     		bne	.L15
 133:../../../../../../Middlewares/Third_Party/LoRaWAN/Utilities/low_power_manager.c ****   }
 134:../../../../../../Middlewares/Third_Party/LoRaWAN/Utilities/low_power_manager.c ****   else
 135:../../../../../../Middlewares/Third_Party/LoRaWAN/Utilities/low_power_manager.c ****   {
 136:../../../../../../Middlewares/Third_Party/LoRaWAN/Utilities/low_power_manager.c ****     if(OffModeDisable)
 233              		.loc 1 136 0
 234 0010 1868     		ldr	r0, [r3]
 137:../../../../../../Middlewares/Third_Party/LoRaWAN/Utilities/low_power_manager.c ****     {
 138:../../../../../../Middlewares/Third_Party/LoRaWAN/Utilities/low_power_manager.c ****       mode_selected = LPM_StopMode;
 139:../../../../../../Middlewares/Third_Party/LoRaWAN/Utilities/low_power_manager.c ****     }
 140:../../../../../../Middlewares/Third_Party/LoRaWAN/Utilities/low_power_manager.c ****     else
 141:../../../../../../Middlewares/Third_Party/LoRaWAN/Utilities/low_power_manager.c ****     {
 142:../../../../../../Middlewares/Third_Party/LoRaWAN/Utilities/low_power_manager.c ****       mode_selected = LPM_OffMode;
 235              		.loc 1 142 0
 236 0012 4342     		rsbs	r3, r0, #0
 237 0014 5841     		adcs	r0, r0, r3
 238 0016 0130     		adds	r0, r0, #1
 239              	.L15:
 240              	.LVL14:
 241              	.LBB36:
 242              	.LBB37:
 243              		.loc 2 341 0
 244              		.syntax divided
 245              	@ 341 "../../../../../../Drivers/CMSIS/Include/cmsis_gcc.h" 1
 246 0018 82F31088 		MSR primask, r2
 247              	@ 0 "" 2
 248              	.LVL15:
ARM GAS  C:\Users\EBANO_~1\AppData\Local\Temp\cca1ab55.s 			page 14


 249              		.thumb
 250              		.syntax unified
 251              	.LBE37:
 252              	.LBE36:
 143:../../../../../../Middlewares/Third_Party/LoRaWAN/Utilities/low_power_manager.c ****     }
 144:../../../../../../Middlewares/Third_Party/LoRaWAN/Utilities/low_power_manager.c ****   }
 145:../../../../../../Middlewares/Third_Party/LoRaWAN/Utilities/low_power_manager.c **** 
 146:../../../../../../Middlewares/Third_Party/LoRaWAN/Utilities/low_power_manager.c ****   RESTORE_PRIMASK( );
 147:../../../../../../Middlewares/Third_Party/LoRaWAN/Utilities/low_power_manager.c **** 
 148:../../../../../../Middlewares/Third_Party/LoRaWAN/Utilities/low_power_manager.c ****   return mode_selected;
 149:../../../../../../Middlewares/Third_Party/LoRaWAN/Utilities/low_power_manager.c **** }
 253              		.loc 1 149 0
 254              		@ sp needed
 255 001c 7047     		bx	lr
 256              	.L19:
 257 001e C046     		.align	2
 258              	.L18:
 259 0020 00000000 		.word	.LANCHOR0
 260              		.cfi_endproc
 261              	.LFE42:
 262              		.size	LPM_GetMode, .-LPM_GetMode
 263              		.section	.text.LPM_EnterSleepMode,"ax",%progbits
 264              		.align	1
 265              		.p2align 2,,3
 266              		.weak	LPM_EnterSleepMode
 267              		.syntax unified
 268              		.code	16
 269              		.thumb_func
 270              		.fpu softvfp
 271              		.type	LPM_EnterSleepMode, %function
 272              	LPM_EnterSleepMode:
 273              	.LFB43:
 150:../../../../../../Middlewares/Third_Party/LoRaWAN/Utilities/low_power_manager.c **** 
 151:../../../../../../Middlewares/Third_Party/LoRaWAN/Utilities/low_power_manager.c **** __weak void LPM_EnterSleepMode(void) {}
 274              		.loc 1 151 0
 275              		.cfi_startproc
 276              		@ args = 0, pretend = 0, frame = 0
 277              		@ frame_needed = 0, uses_anonymous_args = 0
 278              		@ link register save eliminated.
 279              		.loc 1 151 0
 280              		@ sp needed
 281 0000 7047     		bx	lr
 282              		.cfi_endproc
 283              	.LFE43:
 284              		.size	LPM_EnterSleepMode, .-LPM_EnterSleepMode
 285 0002 C046     		.section	.text.LPM_ExitSleepMode,"ax",%progbits
 286              		.align	1
 287              		.p2align 2,,3
 288              		.weak	LPM_ExitSleepMode
 289              		.syntax unified
 290              		.code	16
 291              		.thumb_func
 292              		.fpu softvfp
 293              		.type	LPM_ExitSleepMode, %function
 294              	LPM_ExitSleepMode:
 295              	.LFB50:
 296              		.cfi_startproc
ARM GAS  C:\Users\EBANO_~1\AppData\Local\Temp\cca1ab55.s 			page 15


 297              		@ args = 0, pretend = 0, frame = 0
 298              		@ frame_needed = 0, uses_anonymous_args = 0
 299              		@ link register save eliminated.
 300              		@ sp needed
 301 0000 7047     		bx	lr
 302              		.cfi_endproc
 303              	.LFE50:
 304              		.size	LPM_ExitSleepMode, .-LPM_ExitSleepMode
 305 0002 C046     		.section	.text.LPM_EnterStopMode,"ax",%progbits
 306              		.align	1
 307              		.p2align 2,,3
 308              		.weak	LPM_EnterStopMode
 309              		.syntax unified
 310              		.code	16
 311              		.thumb_func
 312              		.fpu softvfp
 313              		.type	LPM_EnterStopMode, %function
 314              	LPM_EnterStopMode:
 315              	.LFB52:
 316              		.cfi_startproc
 317              		@ args = 0, pretend = 0, frame = 0
 318              		@ frame_needed = 0, uses_anonymous_args = 0
 319              		@ link register save eliminated.
 320              		@ sp needed
 321 0000 7047     		bx	lr
 322              		.cfi_endproc
 323              	.LFE52:
 324              		.size	LPM_EnterStopMode, .-LPM_EnterStopMode
 325 0002 C046     		.section	.text.LPM_ExitStopMode,"ax",%progbits
 326              		.align	1
 327              		.p2align 2,,3
 328              		.weak	LPM_ExitStopMode
 329              		.syntax unified
 330              		.code	16
 331              		.thumb_func
 332              		.fpu softvfp
 333              		.type	LPM_ExitStopMode, %function
 334              	LPM_ExitStopMode:
 335              	.LFB54:
 336              		.cfi_startproc
 337              		@ args = 0, pretend = 0, frame = 0
 338              		@ frame_needed = 0, uses_anonymous_args = 0
 339              		@ link register save eliminated.
 340              		@ sp needed
 341 0000 7047     		bx	lr
 342              		.cfi_endproc
 343              	.LFE54:
 344              		.size	LPM_ExitStopMode, .-LPM_ExitStopMode
 345 0002 C046     		.section	.text.LPM_EnterOffMode,"ax",%progbits
 346              		.align	1
 347              		.p2align 2,,3
 348              		.weak	LPM_EnterOffMode
 349              		.syntax unified
 350              		.code	16
 351              		.thumb_func
 352              		.fpu softvfp
 353              		.type	LPM_EnterOffMode, %function
ARM GAS  C:\Users\EBANO_~1\AppData\Local\Temp\cca1ab55.s 			page 16


 354              	LPM_EnterOffMode:
 355              	.LFB56:
 356              		.cfi_startproc
 357              		@ args = 0, pretend = 0, frame = 0
 358              		@ frame_needed = 0, uses_anonymous_args = 0
 359              		@ link register save eliminated.
 360              		@ sp needed
 361 0000 7047     		bx	lr
 362              		.cfi_endproc
 363              	.LFE56:
 364              		.size	LPM_EnterOffMode, .-LPM_EnterOffMode
 365 0002 C046     		.section	.text.LPM_ExitOffMode,"ax",%progbits
 366              		.align	1
 367              		.p2align 2,,3
 368              		.weak	LPM_ExitOffMode
 369              		.syntax unified
 370              		.code	16
 371              		.thumb_func
 372              		.fpu softvfp
 373              		.type	LPM_ExitOffMode, %function
 374              	LPM_ExitOffMode:
 375              	.LFB58:
 376              		.cfi_startproc
 377              		@ args = 0, pretend = 0, frame = 0
 378              		@ frame_needed = 0, uses_anonymous_args = 0
 379              		@ link register save eliminated.
 380              		@ sp needed
 381 0000 7047     		bx	lr
 382              		.cfi_endproc
 383              	.LFE58:
 384              		.size	LPM_ExitOffMode, .-LPM_ExitOffMode
 385 0002 C046     		.section	.text.LPM_EnterLowPower,"ax",%progbits
 386              		.align	1
 387              		.p2align 2,,3
 388              		.global	LPM_EnterLowPower
 389              		.syntax unified
 390              		.code	16
 391              		.thumb_func
 392              		.fpu softvfp
 393              		.type	LPM_EnterLowPower, %function
 394              	LPM_EnterLowPower:
 395              	.LFB41:
  90:../../../../../../Middlewares/Third_Party/LoRaWAN/Utilities/low_power_manager.c ****   if( StopModeDisable )
 396              		.loc 1 90 0
 397              		.cfi_startproc
 398              		@ args = 0, pretend = 0, frame = 0
 399              		@ frame_needed = 0, uses_anonymous_args = 0
  91:../../../../../../Middlewares/Third_Party/LoRaWAN/Utilities/low_power_manager.c ****   {
 400              		.loc 1 91 0
 401 0000 0B4B     		ldr	r3, .L32
  90:../../../../../../Middlewares/Third_Party/LoRaWAN/Utilities/low_power_manager.c ****   if( StopModeDisable )
 402              		.loc 1 90 0
 403 0002 10B5     		push	{r4, lr}
 404              	.LCFI0:
 405              		.cfi_def_cfa_offset 8
 406              		.cfi_offset 4, -8
 407              		.cfi_offset 14, -4
ARM GAS  C:\Users\EBANO_~1\AppData\Local\Temp\cca1ab55.s 			page 17


  91:../../../../../../Middlewares/Third_Party/LoRaWAN/Utilities/low_power_manager.c ****   {
 408              		.loc 1 91 0
 409 0004 5A68     		ldr	r2, [r3, #4]
 410 0006 002A     		cmp	r2, #0
 411 0008 0CD1     		bne	.L30
 101:../../../../../../Middlewares/Third_Party/LoRaWAN/Utilities/low_power_manager.c ****     {
 412              		.loc 1 101 0
 413 000a 1B68     		ldr	r3, [r3]
 414 000c 002B     		cmp	r3, #0
 415 000e 04D1     		bne	.L31
 114:../../../../../../Middlewares/Third_Party/LoRaWAN/Utilities/low_power_manager.c ****       LPM_ExitOffMode();
 416              		.loc 1 114 0
 417 0010 FFF7FEFF 		bl	LPM_EnterOffMode
 418              	.LVL16:
 115:../../../../../../Middlewares/Third_Party/LoRaWAN/Utilities/low_power_manager.c ****     }
 419              		.loc 1 115 0
 420 0014 FFF7FEFF 		bl	LPM_ExitOffMode
 421              	.LVL17:
 422              	.L26:
 120:../../../../../../Middlewares/Third_Party/LoRaWAN/Utilities/low_power_manager.c **** 
 423              		.loc 1 120 0
 424              		@ sp needed
 425 0018 10BD     		pop	{r4, pc}
 426              	.L31:
 106:../../../../../../Middlewares/Third_Party/LoRaWAN/Utilities/low_power_manager.c ****       LPM_ExitStopMode();
 427              		.loc 1 106 0
 428 001a FFF7FEFF 		bl	LPM_EnterStopMode
 429              	.LVL18:
 107:../../../../../../Middlewares/Third_Party/LoRaWAN/Utilities/low_power_manager.c ****     }
 430              		.loc 1 107 0
 431 001e FFF7FEFF 		bl	LPM_ExitStopMode
 432              	.LVL19:
 433 0022 F9E7     		b	.L26
 434              	.L30:
  96:../../../../../../Middlewares/Third_Party/LoRaWAN/Utilities/low_power_manager.c ****     LPM_ExitSleepMode();
 435              		.loc 1 96 0
 436 0024 FFF7FEFF 		bl	LPM_EnterSleepMode
 437              	.LVL20:
  97:../../../../../../Middlewares/Third_Party/LoRaWAN/Utilities/low_power_manager.c ****   }
 438              		.loc 1 97 0
 439 0028 FFF7FEFF 		bl	LPM_ExitSleepMode
 440              	.LVL21:
 441 002c F4E7     		b	.L26
 442              	.L33:
 443 002e C046     		.align	2
 444              	.L32:
 445 0030 00000000 		.word	.LANCHOR0
 446              		.cfi_endproc
 447              	.LFE41:
 448              		.size	LPM_EnterLowPower, .-LPM_EnterLowPower
 449              		.bss
 450              		.align	2
 451              		.set	.LANCHOR0,. + 0
 452              		.type	OffModeDisable, %object
 453              		.size	OffModeDisable, 4
 454              	OffModeDisable:
 455 0000 00000000 		.space	4
ARM GAS  C:\Users\EBANO_~1\AppData\Local\Temp\cca1ab55.s 			page 18


 456              		.type	StopModeDisable, %object
 457              		.size	StopModeDisable, 4
 458              	StopModeDisable:
 459 0004 00000000 		.space	4
 460              		.text
 461              	.Letext0:
 462              		.file 3 "c:\\program files (x86)\\gnu tools arm embedded\\7 2018-q2-update\\arm-none-eabi\\include
 463              		.file 4 "c:\\program files (x86)\\gnu tools arm embedded\\7 2018-q2-update\\arm-none-eabi\\include
 464              		.file 5 "c:\\program files (x86)\\gnu tools arm embedded\\7 2018-q2-update\\arm-none-eabi\\include
 465              		.file 6 "c:\\program files (x86)\\gnu tools arm embedded\\7 2018-q2-update\\lib\\gcc\\arm-none-eab
 466              		.file 7 "c:\\program files (x86)\\gnu tools arm embedded\\7 2018-q2-update\\arm-none-eabi\\include
 467              		.file 8 "c:\\program files (x86)\\gnu tools arm embedded\\7 2018-q2-update\\arm-none-eabi\\include
 468              		.file 9 "c:\\program files (x86)\\gnu tools arm embedded\\7 2018-q2-update\\arm-none-eabi\\include
 469              		.file 10 "../../../../../../Drivers/CMSIS/Device/ST/STM32L0xx/Include/system_stm32l0xx.h"
 470              		.file 11 "c:\\program files (x86)\\gnu tools arm embedded\\7 2018-q2-update\\arm-none-eabi\\includ
 471              		.file 12 "../LoRaWAN/App/inc/utilities_conf.h"
 472              		.file 13 "c:\\program files (x86)\\gnu tools arm embedded\\7 2018-q2-update\\arm-none-eabi\\includ
 473              		.file 14 "../../../../../../Middlewares/Third_Party/LoRaWAN/Utilities/low_power_manager.h"
 474              		.section	.debug_info,"",%progbits
 475              	.Ldebug_info0:
 476 0000 D00D0000 		.4byte	0xdd0
 477 0004 0200     		.2byte	0x2
 478 0006 00000000 		.4byte	.Ldebug_abbrev0
 479 000a 04       		.byte	0x4
 480 000b 01       		.uleb128 0x1
 481 000c C4040000 		.4byte	.LASF168
 482 0010 0C       		.byte	0xc
 483 0011 9D010000 		.4byte	.LASF169
 484 0015 8E070000 		.4byte	.LASF170
 485 0019 00000000 		.4byte	.Ldebug_ranges0+0
 486 001d 00000000 		.4byte	0
 487 0021 00000000 		.4byte	0
 488 0025 00000000 		.4byte	.Ldebug_line0
 489 0029 02       		.uleb128 0x2
 490 002a 04       		.byte	0x4
 491 002b 05       		.byte	0x5
 492 002c 696E7400 		.ascii	"int\000"
 493 0030 03       		.uleb128 0x3
 494 0031 04       		.byte	0x4
 495 0032 07       		.byte	0x7
 496 0033 9E060000 		.4byte	.LASF0
 497 0037 03       		.uleb128 0x3
 498 0038 08       		.byte	0x8
 499 0039 05       		.byte	0x5
 500 003a 57020000 		.4byte	.LASF1
 501 003e 03       		.uleb128 0x3
 502 003f 08       		.byte	0x8
 503 0040 04       		.byte	0x4
 504 0041 72060000 		.4byte	.LASF2
 505 0045 03       		.uleb128 0x3
 506 0046 01       		.byte	0x1
 507 0047 06       		.byte	0x6
 508 0048 7D010000 		.4byte	.LASF3
 509 004c 04       		.uleb128 0x4
 510 004d 4F000000 		.4byte	.LASF8
 511 0051 03       		.byte	0x3
 512 0052 2B       		.byte	0x2b
ARM GAS  C:\Users\EBANO_~1\AppData\Local\Temp\cca1ab55.s 			page 19


 513 0053 57000000 		.4byte	0x57
 514 0057 03       		.uleb128 0x3
 515 0058 01       		.byte	0x1
 516 0059 08       		.byte	0x8
 517 005a 67050000 		.4byte	.LASF4
 518 005e 03       		.uleb128 0x3
 519 005f 02       		.byte	0x2
 520 0060 05       		.byte	0x5
 521 0061 0F000000 		.4byte	.LASF5
 522 0065 03       		.uleb128 0x3
 523 0066 02       		.byte	0x2
 524 0067 07       		.byte	0x7
 525 0068 D2060000 		.4byte	.LASF6
 526 006c 03       		.uleb128 0x3
 527 006d 04       		.byte	0x4
 528 006e 05       		.byte	0x5
 529 006f 20020000 		.4byte	.LASF7
 530 0073 04       		.uleb128 0x4
 531 0074 B3020000 		.4byte	.LASF9
 532 0078 03       		.byte	0x3
 533 0079 4F       		.byte	0x4f
 534 007a 7E000000 		.4byte	0x7e
 535 007e 03       		.uleb128 0x3
 536 007f 04       		.byte	0x4
 537 0080 07       		.byte	0x7
 538 0081 43030000 		.4byte	.LASF10
 539 0085 03       		.uleb128 0x3
 540 0086 08       		.byte	0x8
 541 0087 07       		.byte	0x7
 542 0088 AE000000 		.4byte	.LASF11
 543 008c 04       		.uleb128 0x4
 544 008d C2030000 		.4byte	.LASF12
 545 0091 04       		.byte	0x4
 546 0092 22       		.byte	0x22
 547 0093 97000000 		.4byte	0x97
 548 0097 05       		.uleb128 0x5
 549 0098 04       		.byte	0x4
 550 0099 9D000000 		.4byte	0x9d
 551 009d 06       		.uleb128 0x6
 552 009e 4B060000 		.4byte	.LASF119
 553 00a2 01       		.byte	0x1
 554 00a3 04       		.uleb128 0x4
 555 00a4 6F010000 		.4byte	.LASF13
 556 00a8 05       		.byte	0x5
 557 00a9 2C       		.byte	0x2c
 558 00aa 6C000000 		.4byte	0x6c
 559 00ae 04       		.uleb128 0x4
 560 00af 6A060000 		.4byte	.LASF14
 561 00b3 05       		.byte	0x5
 562 00b4 72       		.byte	0x72
 563 00b5 6C000000 		.4byte	0x6c
 564 00b9 07       		.uleb128 0x7
 565 00ba 87040000 		.4byte	.LASF15
 566 00be 06       		.byte	0x6
 567 00bf 6501     		.2byte	0x165
 568 00c1 30000000 		.4byte	0x30
 569 00c5 08       		.uleb128 0x8
ARM GAS  C:\Users\EBANO_~1\AppData\Local\Temp\cca1ab55.s 			page 20


 570 00c6 04       		.byte	0x4
 571 00c7 05       		.byte	0x5
 572 00c8 A6       		.byte	0xa6
 573 00c9 E4000000 		.4byte	0xe4
 574 00cd 09       		.uleb128 0x9
 575 00ce B5030000 		.4byte	.LASF16
 576 00d2 05       		.byte	0x5
 577 00d3 A8       		.byte	0xa8
 578 00d4 B9000000 		.4byte	0xb9
 579 00d8 09       		.uleb128 0x9
 580 00d9 1C030000 		.4byte	.LASF17
 581 00dd 05       		.byte	0x5
 582 00de A9       		.byte	0xa9
 583 00df E4000000 		.4byte	0xe4
 584 00e3 00       		.byte	0
 585 00e4 0A       		.uleb128 0xa
 586 00e5 57000000 		.4byte	0x57
 587 00e9 F4000000 		.4byte	0xf4
 588 00ed 0B       		.uleb128 0xb
 589 00ee 30000000 		.4byte	0x30
 590 00f2 03       		.byte	0x3
 591 00f3 00       		.byte	0
 592 00f4 0C       		.uleb128 0xc
 593 00f5 08       		.byte	0x8
 594 00f6 05       		.byte	0x5
 595 00f7 A3       		.byte	0xa3
 596 00f8 19010000 		.4byte	0x119
 597 00fc 0D       		.uleb128 0xd
 598 00fd 43060000 		.4byte	.LASF18
 599 0101 05       		.byte	0x5
 600 0102 A5       		.byte	0xa5
 601 0103 29000000 		.4byte	0x29
 602 0107 02       		.byte	0x2
 603 0108 23       		.byte	0x23
 604 0109 00       		.uleb128 0
 605 010a 0D       		.uleb128 0xd
 606 010b 52060000 		.4byte	.LASF19
 607 010f 05       		.byte	0x5
 608 0110 AA       		.byte	0xaa
 609 0111 C5000000 		.4byte	0xc5
 610 0115 02       		.byte	0x2
 611 0116 23       		.byte	0x23
 612 0117 04       		.uleb128 0x4
 613 0118 00       		.byte	0
 614 0119 04       		.uleb128 0x4
 615 011a 1B040000 		.4byte	.LASF20
 616 011e 05       		.byte	0x5
 617 011f AB       		.byte	0xab
 618 0120 F4000000 		.4byte	0xf4
 619 0124 04       		.uleb128 0x4
 620 0125 96050000 		.4byte	.LASF21
 621 0129 05       		.byte	0x5
 622 012a AF       		.byte	0xaf
 623 012b 8C000000 		.4byte	0x8c
 624 012f 0E       		.uleb128 0xe
 625 0130 04       		.byte	0x4
 626 0131 05       		.uleb128 0x5
ARM GAS  C:\Users\EBANO_~1\AppData\Local\Temp\cca1ab55.s 			page 21


 627 0132 04       		.byte	0x4
 628 0133 37010000 		.4byte	0x137
 629 0137 03       		.uleb128 0x3
 630 0138 01       		.byte	0x1
 631 0139 08       		.byte	0x8
 632 013a 85060000 		.4byte	.LASF22
 633 013e 0F       		.uleb128 0xf
 634 013f 37010000 		.4byte	0x137
 635 0143 04       		.uleb128 0x4
 636 0144 EA060000 		.4byte	.LASF23
 637 0148 07       		.byte	0x7
 638 0149 16       		.byte	0x16
 639 014a 7E000000 		.4byte	0x7e
 640 014e 10       		.uleb128 0x10
 641 014f EF020000 		.4byte	.LASF28
 642 0153 18       		.byte	0x18
 643 0154 07       		.byte	0x7
 644 0155 2F       		.byte	0x2f
 645 0156 AD010000 		.4byte	0x1ad
 646 015a 0D       		.uleb128 0xd
 647 015b B6060000 		.4byte	.LASF24
 648 015f 07       		.byte	0x7
 649 0160 31       		.byte	0x31
 650 0161 AD010000 		.4byte	0x1ad
 651 0165 02       		.byte	0x2
 652 0166 23       		.byte	0x23
 653 0167 00       		.uleb128 0
 654 0168 11       		.uleb128 0x11
 655 0169 5F6B00   		.ascii	"_k\000"
 656 016c 07       		.byte	0x7
 657 016d 32       		.byte	0x32
 658 016e 29000000 		.4byte	0x29
 659 0172 02       		.byte	0x2
 660 0173 23       		.byte	0x23
 661 0174 04       		.uleb128 0x4
 662 0175 0D       		.uleb128 0xd
 663 0176 1E060000 		.4byte	.LASF25
 664 017a 07       		.byte	0x7
 665 017b 32       		.byte	0x32
 666 017c 29000000 		.4byte	0x29
 667 0180 02       		.byte	0x2
 668 0181 23       		.byte	0x23
 669 0182 08       		.uleb128 0x8
 670 0183 0D       		.uleb128 0xd
 671 0184 CC020000 		.4byte	.LASF26
 672 0188 07       		.byte	0x7
 673 0189 32       		.byte	0x32
 674 018a 29000000 		.4byte	0x29
 675 018e 02       		.byte	0x2
 676 018f 23       		.byte	0x23
 677 0190 0C       		.uleb128 0xc
 678 0191 0D       		.uleb128 0xd
 679 0192 59070000 		.4byte	.LASF27
 680 0196 07       		.byte	0x7
 681 0197 32       		.byte	0x32
 682 0198 29000000 		.4byte	0x29
 683 019c 02       		.byte	0x2
ARM GAS  C:\Users\EBANO_~1\AppData\Local\Temp\cca1ab55.s 			page 22


 684 019d 23       		.byte	0x23
 685 019e 10       		.uleb128 0x10
 686 019f 11       		.uleb128 0x11
 687 01a0 5F7800   		.ascii	"_x\000"
 688 01a3 07       		.byte	0x7
 689 01a4 33       		.byte	0x33
 690 01a5 B3010000 		.4byte	0x1b3
 691 01a9 02       		.byte	0x2
 692 01aa 23       		.byte	0x23
 693 01ab 14       		.uleb128 0x14
 694 01ac 00       		.byte	0
 695 01ad 05       		.uleb128 0x5
 696 01ae 04       		.byte	0x4
 697 01af 4E010000 		.4byte	0x14e
 698 01b3 0A       		.uleb128 0xa
 699 01b4 43010000 		.4byte	0x143
 700 01b8 C3010000 		.4byte	0x1c3
 701 01bc 0B       		.uleb128 0xb
 702 01bd 30000000 		.4byte	0x30
 703 01c1 00       		.byte	0
 704 01c2 00       		.byte	0
 705 01c3 10       		.uleb128 0x10
 706 01c4 17030000 		.4byte	.LASF29
 707 01c8 24       		.byte	0x24
 708 01c9 07       		.byte	0x7
 709 01ca 37       		.byte	0x37
 710 01cb 4E020000 		.4byte	0x24e
 711 01cf 0D       		.uleb128 0xd
 712 01d0 66010000 		.4byte	.LASF30
 713 01d4 07       		.byte	0x7
 714 01d5 39       		.byte	0x39
 715 01d6 29000000 		.4byte	0x29
 716 01da 02       		.byte	0x2
 717 01db 23       		.byte	0x23
 718 01dc 00       		.uleb128 0
 719 01dd 0D       		.uleb128 0xd
 720 01de 29080000 		.4byte	.LASF31
 721 01e2 07       		.byte	0x7
 722 01e3 3A       		.byte	0x3a
 723 01e4 29000000 		.4byte	0x29
 724 01e8 02       		.byte	0x2
 725 01e9 23       		.byte	0x23
 726 01ea 04       		.uleb128 0x4
 727 01eb 0D       		.uleb128 0xd
 728 01ec F3010000 		.4byte	.LASF32
 729 01f0 07       		.byte	0x7
 730 01f1 3B       		.byte	0x3b
 731 01f2 29000000 		.4byte	0x29
 732 01f6 02       		.byte	0x2
 733 01f7 23       		.byte	0x23
 734 01f8 08       		.uleb128 0x8
 735 01f9 0D       		.uleb128 0xd
 736 01fa 6D080000 		.4byte	.LASF33
 737 01fe 07       		.byte	0x7
 738 01ff 3C       		.byte	0x3c
 739 0200 29000000 		.4byte	0x29
 740 0204 02       		.byte	0x2
ARM GAS  C:\Users\EBANO_~1\AppData\Local\Temp\cca1ab55.s 			page 23


 741 0205 23       		.byte	0x23
 742 0206 0C       		.uleb128 0xc
 743 0207 0D       		.uleb128 0xd
 744 0208 44040000 		.4byte	.LASF34
 745 020c 07       		.byte	0x7
 746 020d 3D       		.byte	0x3d
 747 020e 29000000 		.4byte	0x29
 748 0212 02       		.byte	0x2
 749 0213 23       		.byte	0x23
 750 0214 10       		.uleb128 0x10
 751 0215 0D       		.uleb128 0xd
 752 0216 E2030000 		.4byte	.LASF35
 753 021a 07       		.byte	0x7
 754 021b 3E       		.byte	0x3e
 755 021c 29000000 		.4byte	0x29
 756 0220 02       		.byte	0x2
 757 0221 23       		.byte	0x23
 758 0222 14       		.uleb128 0x14
 759 0223 0D       		.uleb128 0xd
 760 0224 60060000 		.4byte	.LASF36
 761 0228 07       		.byte	0x7
 762 0229 3F       		.byte	0x3f
 763 022a 29000000 		.4byte	0x29
 764 022e 02       		.byte	0x2
 765 022f 23       		.byte	0x23
 766 0230 18       		.uleb128 0x18
 767 0231 0D       		.uleb128 0xd
 768 0232 9F050000 		.4byte	.LASF37
 769 0236 07       		.byte	0x7
 770 0237 40       		.byte	0x40
 771 0238 29000000 		.4byte	0x29
 772 023c 02       		.byte	0x2
 773 023d 23       		.byte	0x23
 774 023e 1C       		.uleb128 0x1c
 775 023f 0D       		.uleb128 0xd
 776 0240 0F080000 		.4byte	.LASF38
 777 0244 07       		.byte	0x7
 778 0245 41       		.byte	0x41
 779 0246 29000000 		.4byte	0x29
 780 024a 02       		.byte	0x2
 781 024b 23       		.byte	0x23
 782 024c 20       		.uleb128 0x20
 783 024d 00       		.byte	0
 784 024e 12       		.uleb128 0x12
 785 024f 02020000 		.4byte	.LASF39
 786 0253 0801     		.2byte	0x108
 787 0255 07       		.byte	0x7
 788 0256 4A       		.byte	0x4a
 789 0257 97020000 		.4byte	0x297
 790 025b 0D       		.uleb128 0xd
 791 025c 19000000 		.4byte	.LASF40
 792 0260 07       		.byte	0x7
 793 0261 4B       		.byte	0x4b
 794 0262 97020000 		.4byte	0x297
 795 0266 02       		.byte	0x2
 796 0267 23       		.byte	0x23
 797 0268 00       		.uleb128 0
ARM GAS  C:\Users\EBANO_~1\AppData\Local\Temp\cca1ab55.s 			page 24


 798 0269 0D       		.uleb128 0xd
 799 026a EF050000 		.4byte	.LASF41
 800 026e 07       		.byte	0x7
 801 026f 4C       		.byte	0x4c
 802 0270 97020000 		.4byte	0x297
 803 0274 03       		.byte	0x3
 804 0275 23       		.byte	0x23
 805 0276 8001     		.uleb128 0x80
 806 0278 0D       		.uleb128 0xd
 807 0279 C9060000 		.4byte	.LASF42
 808 027d 07       		.byte	0x7
 809 027e 4E       		.byte	0x4e
 810 027f 43010000 		.4byte	0x143
 811 0283 03       		.byte	0x3
 812 0284 23       		.byte	0x23
 813 0285 8002     		.uleb128 0x100
 814 0287 0D       		.uleb128 0xd
 815 0288 30020000 		.4byte	.LASF43
 816 028c 07       		.byte	0x7
 817 028d 51       		.byte	0x51
 818 028e 43010000 		.4byte	0x143
 819 0292 03       		.byte	0x3
 820 0293 23       		.byte	0x23
 821 0294 8402     		.uleb128 0x104
 822 0296 00       		.byte	0
 823 0297 0A       		.uleb128 0xa
 824 0298 2F010000 		.4byte	0x12f
 825 029c A7020000 		.4byte	0x2a7
 826 02a0 0B       		.uleb128 0xb
 827 02a1 30000000 		.4byte	0x30
 828 02a5 1F       		.byte	0x1f
 829 02a6 00       		.byte	0
 830 02a7 12       		.uleb128 0x12
 831 02a8 4D040000 		.4byte	.LASF44
 832 02ac 9001     		.2byte	0x190
 833 02ae 07       		.byte	0x7
 834 02af 5D       		.byte	0x5d
 835 02b0 EE020000 		.4byte	0x2ee
 836 02b4 0D       		.uleb128 0xd
 837 02b5 B6060000 		.4byte	.LASF24
 838 02b9 07       		.byte	0x7
 839 02ba 5E       		.byte	0x5e
 840 02bb EE020000 		.4byte	0x2ee
 841 02bf 02       		.byte	0x2
 842 02c0 23       		.byte	0x23
 843 02c1 00       		.uleb128 0
 844 02c2 0D       		.uleb128 0xd
 845 02c3 EA050000 		.4byte	.LASF45
 846 02c7 07       		.byte	0x7
 847 02c8 5F       		.byte	0x5f
 848 02c9 29000000 		.4byte	0x29
 849 02cd 02       		.byte	0x2
 850 02ce 23       		.byte	0x23
 851 02cf 04       		.uleb128 0x4
 852 02d0 0D       		.uleb128 0xd
 853 02d1 AE020000 		.4byte	.LASF46
 854 02d5 07       		.byte	0x7
ARM GAS  C:\Users\EBANO_~1\AppData\Local\Temp\cca1ab55.s 			page 25


 855 02d6 61       		.byte	0x61
 856 02d7 F4020000 		.4byte	0x2f4
 857 02db 02       		.byte	0x2
 858 02dc 23       		.byte	0x23
 859 02dd 08       		.uleb128 0x8
 860 02de 0D       		.uleb128 0xd
 861 02df 02020000 		.4byte	.LASF39
 862 02e3 07       		.byte	0x7
 863 02e4 62       		.byte	0x62
 864 02e5 4E020000 		.4byte	0x24e
 865 02e9 03       		.byte	0x3
 866 02ea 23       		.byte	0x23
 867 02eb 8801     		.uleb128 0x88
 868 02ed 00       		.byte	0
 869 02ee 05       		.uleb128 0x5
 870 02ef 04       		.byte	0x4
 871 02f0 A7020000 		.4byte	0x2a7
 872 02f4 0A       		.uleb128 0xa
 873 02f5 04030000 		.4byte	0x304
 874 02f9 04030000 		.4byte	0x304
 875 02fd 0B       		.uleb128 0xb
 876 02fe 30000000 		.4byte	0x30
 877 0302 1F       		.byte	0x1f
 878 0303 00       		.byte	0
 879 0304 05       		.uleb128 0x5
 880 0305 04       		.byte	0x4
 881 0306 0A030000 		.4byte	0x30a
 882 030a 13       		.uleb128 0x13
 883 030b 01       		.byte	0x1
 884 030c 10       		.uleb128 0x10
 885 030d A9050000 		.4byte	.LASF47
 886 0311 08       		.byte	0x8
 887 0312 07       		.byte	0x7
 888 0313 75       		.byte	0x75
 889 0314 35030000 		.4byte	0x335
 890 0318 0D       		.uleb128 0xd
 891 0319 ED010000 		.4byte	.LASF48
 892 031d 07       		.byte	0x7
 893 031e 76       		.byte	0x76
 894 031f 35030000 		.4byte	0x335
 895 0323 02       		.byte	0x2
 896 0324 23       		.byte	0x23
 897 0325 00       		.uleb128 0
 898 0326 0D       		.uleb128 0xd
 899 0327 98060000 		.4byte	.LASF49
 900 032b 07       		.byte	0x7
 901 032c 77       		.byte	0x77
 902 032d 29000000 		.4byte	0x29
 903 0331 02       		.byte	0x2
 904 0332 23       		.byte	0x23
 905 0333 04       		.uleb128 0x4
 906 0334 00       		.byte	0
 907 0335 05       		.uleb128 0x5
 908 0336 04       		.byte	0x4
 909 0337 57000000 		.4byte	0x57
 910 033b 10       		.uleb128 0x10
 911 033c C7050000 		.4byte	.LASF50
ARM GAS  C:\Users\EBANO_~1\AppData\Local\Temp\cca1ab55.s 			page 26


 912 0340 68       		.byte	0x68
 913 0341 07       		.byte	0x7
 914 0342 B5       		.byte	0xb5
 915 0343 95040000 		.4byte	0x495
 916 0347 11       		.uleb128 0x11
 917 0348 5F7000   		.ascii	"_p\000"
 918 034b 07       		.byte	0x7
 919 034c B6       		.byte	0xb6
 920 034d 35030000 		.4byte	0x335
 921 0351 02       		.byte	0x2
 922 0352 23       		.byte	0x23
 923 0353 00       		.uleb128 0
 924 0354 11       		.uleb128 0x11
 925 0355 5F7200   		.ascii	"_r\000"
 926 0358 07       		.byte	0x7
 927 0359 B7       		.byte	0xb7
 928 035a 29000000 		.4byte	0x29
 929 035e 02       		.byte	0x2
 930 035f 23       		.byte	0x23
 931 0360 04       		.uleb128 0x4
 932 0361 11       		.uleb128 0x11
 933 0362 5F7700   		.ascii	"_w\000"
 934 0365 07       		.byte	0x7
 935 0366 B8       		.byte	0xb8
 936 0367 29000000 		.4byte	0x29
 937 036b 02       		.byte	0x2
 938 036c 23       		.byte	0x23
 939 036d 08       		.uleb128 0x8
 940 036e 0D       		.uleb128 0xd
 941 036f 29020000 		.4byte	.LASF51
 942 0373 07       		.byte	0x7
 943 0374 B9       		.byte	0xb9
 944 0375 5E000000 		.4byte	0x5e
 945 0379 02       		.byte	0x2
 946 037a 23       		.byte	0x23
 947 037b 0C       		.uleb128 0xc
 948 037c 0D       		.uleb128 0xd
 949 037d 55030000 		.4byte	.LASF52
 950 0381 07       		.byte	0x7
 951 0382 BA       		.byte	0xba
 952 0383 5E000000 		.4byte	0x5e
 953 0387 02       		.byte	0x2
 954 0388 23       		.byte	0x23
 955 0389 0E       		.uleb128 0xe
 956 038a 11       		.uleb128 0x11
 957 038b 5F626600 		.ascii	"_bf\000"
 958 038f 07       		.byte	0x7
 959 0390 BB       		.byte	0xbb
 960 0391 0C030000 		.4byte	0x30c
 961 0395 02       		.byte	0x2
 962 0396 23       		.byte	0x23
 963 0397 10       		.uleb128 0x10
 964 0398 0D       		.uleb128 0xd
 965 0399 D4000000 		.4byte	.LASF53
 966 039d 07       		.byte	0x7
 967 039e BC       		.byte	0xbc
 968 039f 29000000 		.4byte	0x29
ARM GAS  C:\Users\EBANO_~1\AppData\Local\Temp\cca1ab55.s 			page 27


 969 03a3 02       		.byte	0x2
 970 03a4 23       		.byte	0x23
 971 03a5 18       		.uleb128 0x18
 972 03a6 0D       		.uleb128 0xd
 973 03a7 10020000 		.4byte	.LASF54
 974 03ab 07       		.byte	0x7
 975 03ac C3       		.byte	0xc3
 976 03ad 2F010000 		.4byte	0x12f
 977 03b1 02       		.byte	0x2
 978 03b2 23       		.byte	0x23
 979 03b3 1C       		.uleb128 0x1c
 980 03b4 0D       		.uleb128 0xd
 981 03b5 05030000 		.4byte	.LASF55
 982 03b9 07       		.byte	0x7
 983 03ba C5       		.byte	0xc5
 984 03bb 1D060000 		.4byte	0x61d
 985 03bf 02       		.byte	0x2
 986 03c0 23       		.byte	0x23
 987 03c1 20       		.uleb128 0x20
 988 03c2 0D       		.uleb128 0xd
 989 03c3 DB030000 		.4byte	.LASF56
 990 03c7 07       		.byte	0x7
 991 03c8 C7       		.byte	0xc7
 992 03c9 48060000 		.4byte	0x648
 993 03cd 02       		.byte	0x2
 994 03ce 23       		.byte	0x23
 995 03cf 24       		.uleb128 0x24
 996 03d0 0D       		.uleb128 0xd
 997 03d1 5A060000 		.4byte	.LASF57
 998 03d5 07       		.byte	0x7
 999 03d6 CA       		.byte	0xca
 1000 03d7 6D060000 		.4byte	0x66d
 1001 03db 02       		.byte	0x2
 1002 03dc 23       		.byte	0x23
 1003 03dd 28       		.uleb128 0x28
 1004 03de 0D       		.uleb128 0xd
 1005 03df 76010000 		.4byte	.LASF58
 1006 03e3 07       		.byte	0x7
 1007 03e4 CB       		.byte	0xcb
 1008 03e5 88060000 		.4byte	0x688
 1009 03e9 02       		.byte	0x2
 1010 03ea 23       		.byte	0x23
 1011 03eb 2C       		.uleb128 0x2c
 1012 03ec 11       		.uleb128 0x11
 1013 03ed 5F756200 		.ascii	"_ub\000"
 1014 03f1 07       		.byte	0x7
 1015 03f2 CE       		.byte	0xce
 1016 03f3 0C030000 		.4byte	0x30c
 1017 03f7 02       		.byte	0x2
 1018 03f8 23       		.byte	0x23
 1019 03f9 30       		.uleb128 0x30
 1020 03fa 11       		.uleb128 0x11
 1021 03fb 5F757000 		.ascii	"_up\000"
 1022 03ff 07       		.byte	0x7
 1023 0400 CF       		.byte	0xcf
 1024 0401 35030000 		.4byte	0x335
 1025 0405 02       		.byte	0x2
ARM GAS  C:\Users\EBANO_~1\AppData\Local\Temp\cca1ab55.s 			page 28


 1026 0406 23       		.byte	0x23
 1027 0407 38       		.uleb128 0x38
 1028 0408 11       		.uleb128 0x11
 1029 0409 5F757200 		.ascii	"_ur\000"
 1030 040d 07       		.byte	0x7
 1031 040e D0       		.byte	0xd0
 1032 040f 29000000 		.4byte	0x29
 1033 0413 02       		.byte	0x2
 1034 0414 23       		.byte	0x23
 1035 0415 3C       		.uleb128 0x3c
 1036 0416 0D       		.uleb128 0xd
 1037 0417 97010000 		.4byte	.LASF59
 1038 041b 07       		.byte	0x7
 1039 041c D3       		.byte	0xd3
 1040 041d 8E060000 		.4byte	0x68e
 1041 0421 02       		.byte	0x2
 1042 0422 23       		.byte	0x23
 1043 0423 40       		.uleb128 0x40
 1044 0424 0D       		.uleb128 0xd
 1045 0425 01080000 		.4byte	.LASF60
 1046 0429 07       		.byte	0x7
 1047 042a D4       		.byte	0xd4
 1048 042b 9E060000 		.4byte	0x69e
 1049 042f 02       		.byte	0x2
 1050 0430 23       		.byte	0x23
 1051 0431 43       		.uleb128 0x43
 1052 0432 11       		.uleb128 0x11
 1053 0433 5F6C6200 		.ascii	"_lb\000"
 1054 0437 07       		.byte	0x7
 1055 0438 D7       		.byte	0xd7
 1056 0439 0C030000 		.4byte	0x30c
 1057 043d 02       		.byte	0x2
 1058 043e 23       		.byte	0x23
 1059 043f 44       		.uleb128 0x44
 1060 0440 0D       		.uleb128 0xd
 1061 0441 8A060000 		.4byte	.LASF61
 1062 0445 07       		.byte	0x7
 1063 0446 DA       		.byte	0xda
 1064 0447 29000000 		.4byte	0x29
 1065 044b 02       		.byte	0x2
 1066 044c 23       		.byte	0x23
 1067 044d 4C       		.uleb128 0x4c
 1068 044e 0D       		.uleb128 0xd
 1069 044f 74020000 		.4byte	.LASF62
 1070 0453 07       		.byte	0x7
 1071 0454 DB       		.byte	0xdb
 1072 0455 A3000000 		.4byte	0xa3
 1073 0459 02       		.byte	0x2
 1074 045a 23       		.byte	0x23
 1075 045b 50       		.uleb128 0x50
 1076 045c 0D       		.uleb128 0xd
 1077 045d 6C030000 		.4byte	.LASF63
 1078 0461 07       		.byte	0x7
 1079 0462 DE       		.byte	0xde
 1080 0463 B4040000 		.4byte	0x4b4
 1081 0467 02       		.byte	0x2
 1082 0468 23       		.byte	0x23
ARM GAS  C:\Users\EBANO_~1\AppData\Local\Temp\cca1ab55.s 			page 29


 1083 0469 54       		.uleb128 0x54
 1084 046a 0D       		.uleb128 0xd
 1085 046b CF030000 		.4byte	.LASF64
 1086 046f 07       		.byte	0x7
 1087 0470 E2       		.byte	0xe2
 1088 0471 24010000 		.4byte	0x124
 1089 0475 02       		.byte	0x2
 1090 0476 23       		.byte	0x23
 1091 0477 58       		.uleb128 0x58
 1092 0478 0D       		.uleb128 0xd
 1093 0479 CF050000 		.4byte	.LASF65
 1094 047d 07       		.byte	0x7
 1095 047e E4       		.byte	0xe4
 1096 047f 19010000 		.4byte	0x119
 1097 0483 02       		.byte	0x2
 1098 0484 23       		.byte	0x23
 1099 0485 5C       		.uleb128 0x5c
 1100 0486 0D       		.uleb128 0xd
 1101 0487 B0050000 		.4byte	.LASF66
 1102 048b 07       		.byte	0x7
 1103 048c E5       		.byte	0xe5
 1104 048d 29000000 		.4byte	0x29
 1105 0491 02       		.byte	0x2
 1106 0492 23       		.byte	0x23
 1107 0493 64       		.uleb128 0x64
 1108 0494 00       		.byte	0
 1109 0495 14       		.uleb128 0x14
 1110 0496 01       		.byte	0x1
 1111 0497 29000000 		.4byte	0x29
 1112 049b B4040000 		.4byte	0x4b4
 1113 049f 15       		.uleb128 0x15
 1114 04a0 B4040000 		.4byte	0x4b4
 1115 04a4 15       		.uleb128 0x15
 1116 04a5 2F010000 		.4byte	0x12f
 1117 04a9 15       		.uleb128 0x15
 1118 04aa 31010000 		.4byte	0x131
 1119 04ae 15       		.uleb128 0x15
 1120 04af 29000000 		.4byte	0x29
 1121 04b3 00       		.byte	0
 1122 04b4 05       		.uleb128 0x5
 1123 04b5 04       		.byte	0x4
 1124 04b6 BF040000 		.4byte	0x4bf
 1125 04ba 0F       		.uleb128 0xf
 1126 04bb B4040000 		.4byte	0x4b4
 1127 04bf 16       		.uleb128 0x16
 1128 04c0 26060000 		.4byte	.LASF67
 1129 04c4 2804     		.2byte	0x428
 1130 04c6 07       		.byte	0x7
 1131 04c7 6002     		.2byte	0x260
 1132 04c9 1D060000 		.4byte	0x61d
 1133 04cd 17       		.uleb128 0x17
 1134 04ce 7E060000 		.4byte	.LASF68
 1135 04d2 07       		.byte	0x7
 1136 04d3 6202     		.2byte	0x262
 1137 04d5 29000000 		.4byte	0x29
 1138 04d9 02       		.byte	0x2
 1139 04da 23       		.byte	0x23
ARM GAS  C:\Users\EBANO_~1\AppData\Local\Temp\cca1ab55.s 			page 30


 1140 04db 00       		.uleb128 0
 1141 04dc 17       		.uleb128 0x17
 1142 04dd 38020000 		.4byte	.LASF69
 1143 04e1 07       		.byte	0x7
 1144 04e2 6702     		.2byte	0x267
 1145 04e4 FB060000 		.4byte	0x6fb
 1146 04e8 02       		.byte	0x2
 1147 04e9 23       		.byte	0x23
 1148 04ea 04       		.uleb128 0x4
 1149 04eb 17       		.uleb128 0x17
 1150 04ec 33030000 		.4byte	.LASF70
 1151 04f0 07       		.byte	0x7
 1152 04f1 6702     		.2byte	0x267
 1153 04f3 FB060000 		.4byte	0x6fb
 1154 04f7 02       		.byte	0x2
 1155 04f8 23       		.byte	0x23
 1156 04f9 08       		.uleb128 0x8
 1157 04fa 17       		.uleb128 0x17
 1158 04fb E7020000 		.4byte	.LASF71
 1159 04ff 07       		.byte	0x7
 1160 0500 6702     		.2byte	0x267
 1161 0502 FB060000 		.4byte	0x6fb
 1162 0506 02       		.byte	0x2
 1163 0507 23       		.byte	0x23
 1164 0508 0C       		.uleb128 0xc
 1165 0509 17       		.uleb128 0x17
 1166 050a E5050000 		.4byte	.LASF72
 1167 050e 07       		.byte	0x7
 1168 050f 6902     		.2byte	0x269
 1169 0511 29000000 		.4byte	0x29
 1170 0515 02       		.byte	0x2
 1171 0516 23       		.byte	0x23
 1172 0517 10       		.uleb128 0x10
 1173 0518 17       		.uleb128 0x17
 1174 0519 AB060000 		.4byte	.LASF73
 1175 051d 07       		.byte	0x7
 1176 051e 6A02     		.2byte	0x26a
 1177 0520 16090000 		.4byte	0x916
 1178 0524 02       		.byte	0x2
 1179 0525 23       		.byte	0x23
 1180 0526 14       		.uleb128 0x14
 1181 0527 17       		.uleb128 0x17
 1182 0528 05060000 		.4byte	.LASF74
 1183 052c 07       		.byte	0x7
 1184 052d 6D02     		.2byte	0x26d
 1185 052f 29000000 		.4byte	0x29
 1186 0533 02       		.byte	0x2
 1187 0534 23       		.byte	0x23
 1188 0535 30       		.uleb128 0x30
 1189 0536 17       		.uleb128 0x17
 1190 0537 55080000 		.4byte	.LASF75
 1191 053b 07       		.byte	0x7
 1192 053c 6E02     		.2byte	0x26e
 1193 053e 2C090000 		.4byte	0x92c
 1194 0542 02       		.byte	0x2
 1195 0543 23       		.byte	0x23
 1196 0544 34       		.uleb128 0x34
ARM GAS  C:\Users\EBANO_~1\AppData\Local\Temp\cca1ab55.s 			page 31


 1197 0545 17       		.uleb128 0x17
 1198 0546 5F040000 		.4byte	.LASF76
 1199 054a 07       		.byte	0x7
 1200 054b 7002     		.2byte	0x270
 1201 054d 29000000 		.4byte	0x29
 1202 0551 02       		.byte	0x2
 1203 0552 23       		.byte	0x23
 1204 0553 38       		.uleb128 0x38
 1205 0554 17       		.uleb128 0x17
 1206 0555 FB050000 		.4byte	.LASF77
 1207 0559 07       		.byte	0x7
 1208 055a 7202     		.2byte	0x272
 1209 055c 3E090000 		.4byte	0x93e
 1210 0560 02       		.byte	0x2
 1211 0561 23       		.byte	0x23
 1212 0562 3C       		.uleb128 0x3c
 1213 0563 17       		.uleb128 0x17
 1214 0564 AD030000 		.4byte	.LASF78
 1215 0568 07       		.byte	0x7
 1216 0569 7502     		.2byte	0x275
 1217 056b AD010000 		.4byte	0x1ad
 1218 056f 02       		.byte	0x2
 1219 0570 23       		.byte	0x23
 1220 0571 40       		.uleb128 0x40
 1221 0572 17       		.uleb128 0x17
 1222 0573 4D020000 		.4byte	.LASF79
 1223 0577 07       		.byte	0x7
 1224 0578 7602     		.2byte	0x276
 1225 057a 29000000 		.4byte	0x29
 1226 057e 02       		.byte	0x2
 1227 057f 23       		.byte	0x23
 1228 0580 44       		.uleb128 0x44
 1229 0581 17       		.uleb128 0x17
 1230 0582 50080000 		.4byte	.LASF80
 1231 0586 07       		.byte	0x7
 1232 0587 7702     		.2byte	0x277
 1233 0589 AD010000 		.4byte	0x1ad
 1234 058d 02       		.byte	0x2
 1235 058e 23       		.byte	0x23
 1236 058f 48       		.uleb128 0x48
 1237 0590 17       		.uleb128 0x17
 1238 0591 94040000 		.4byte	.LASF81
 1239 0595 07       		.byte	0x7
 1240 0596 7802     		.2byte	0x278
 1241 0598 44090000 		.4byte	0x944
 1242 059c 02       		.byte	0x2
 1243 059d 23       		.byte	0x23
 1244 059e 4C       		.uleb128 0x4c
 1245 059f 17       		.uleb128 0x17
 1246 05a0 3B030000 		.4byte	.LASF82
 1247 05a4 07       		.byte	0x7
 1248 05a5 7B02     		.2byte	0x27b
 1249 05a7 29000000 		.4byte	0x29
 1250 05ab 02       		.byte	0x2
 1251 05ac 23       		.byte	0x23
 1252 05ad 50       		.uleb128 0x50
 1253 05ae 17       		.uleb128 0x17
ARM GAS  C:\Users\EBANO_~1\AppData\Local\Temp\cca1ab55.s 			page 32


 1254 05af 6C020000 		.4byte	.LASF83
 1255 05b3 07       		.byte	0x7
 1256 05b4 7C02     		.2byte	0x27c
 1257 05b6 31010000 		.4byte	0x131
 1258 05ba 02       		.byte	0x2
 1259 05bb 23       		.byte	0x23
 1260 05bc 54       		.uleb128 0x54
 1261 05bd 17       		.uleb128 0x17
 1262 05be CA030000 		.4byte	.LASF84
 1263 05c2 07       		.byte	0x7
 1264 05c3 9F02     		.2byte	0x29f
 1265 05c5 F4080000 		.4byte	0x8f4
 1266 05c9 02       		.byte	0x2
 1267 05ca 23       		.byte	0x23
 1268 05cb 58       		.uleb128 0x58
 1269 05cc 17       		.uleb128 0x17
 1270 05cd 4D040000 		.4byte	.LASF44
 1271 05d1 07       		.byte	0x7
 1272 05d2 A302     		.2byte	0x2a3
 1273 05d4 EE020000 		.4byte	0x2ee
 1274 05d8 03       		.byte	0x3
 1275 05d9 23       		.byte	0x23
 1276 05da C802     		.uleb128 0x148
 1277 05dc 17       		.uleb128 0x17
 1278 05dd 73000000 		.4byte	.LASF85
 1279 05e1 07       		.byte	0x7
 1280 05e2 A402     		.2byte	0x2a4
 1281 05e4 A7020000 		.4byte	0x2a7
 1282 05e8 03       		.byte	0x3
 1283 05e9 23       		.byte	0x23
 1284 05ea CC02     		.uleb128 0x14c
 1285 05ec 17       		.uleb128 0x17
 1286 05ed 76070000 		.4byte	.LASF86
 1287 05f1 07       		.byte	0x7
 1288 05f2 A802     		.2byte	0x2a8
 1289 05f4 56090000 		.4byte	0x956
 1290 05f8 03       		.byte	0x3
 1291 05f9 23       		.byte	0x23
 1292 05fa DC05     		.uleb128 0x2dc
 1293 05fc 17       		.uleb128 0x17
 1294 05fd 18020000 		.4byte	.LASF87
 1295 0601 07       		.byte	0x7
 1296 0602 AD02     		.2byte	0x2ad
 1297 0604 BA060000 		.4byte	0x6ba
 1298 0608 03       		.byte	0x3
 1299 0609 23       		.byte	0x23
 1300 060a E005     		.uleb128 0x2e0
 1301 060c 17       		.uleb128 0x17
 1302 060d FD010000 		.4byte	.LASF88
 1303 0611 07       		.byte	0x7
 1304 0612 AF02     		.2byte	0x2af
 1305 0614 62090000 		.4byte	0x962
 1306 0618 03       		.byte	0x3
 1307 0619 23       		.byte	0x23
 1308 061a EC05     		.uleb128 0x2ec
 1309 061c 00       		.byte	0
 1310 061d 05       		.uleb128 0x5
ARM GAS  C:\Users\EBANO_~1\AppData\Local\Temp\cca1ab55.s 			page 33


 1311 061e 04       		.byte	0x4
 1312 061f 95040000 		.4byte	0x495
 1313 0623 14       		.uleb128 0x14
 1314 0624 01       		.byte	0x1
 1315 0625 29000000 		.4byte	0x29
 1316 0629 42060000 		.4byte	0x642
 1317 062d 15       		.uleb128 0x15
 1318 062e B4040000 		.4byte	0x4b4
 1319 0632 15       		.uleb128 0x15
 1320 0633 2F010000 		.4byte	0x12f
 1321 0637 15       		.uleb128 0x15
 1322 0638 42060000 		.4byte	0x642
 1323 063c 15       		.uleb128 0x15
 1324 063d 29000000 		.4byte	0x29
 1325 0641 00       		.byte	0
 1326 0642 05       		.uleb128 0x5
 1327 0643 04       		.byte	0x4
 1328 0644 3E010000 		.4byte	0x13e
 1329 0648 05       		.uleb128 0x5
 1330 0649 04       		.byte	0x4
 1331 064a 23060000 		.4byte	0x623
 1332 064e 14       		.uleb128 0x14
 1333 064f 01       		.byte	0x1
 1334 0650 AE000000 		.4byte	0xae
 1335 0654 6D060000 		.4byte	0x66d
 1336 0658 15       		.uleb128 0x15
 1337 0659 B4040000 		.4byte	0x4b4
 1338 065d 15       		.uleb128 0x15
 1339 065e 2F010000 		.4byte	0x12f
 1340 0662 15       		.uleb128 0x15
 1341 0663 AE000000 		.4byte	0xae
 1342 0667 15       		.uleb128 0x15
 1343 0668 29000000 		.4byte	0x29
 1344 066c 00       		.byte	0
 1345 066d 05       		.uleb128 0x5
 1346 066e 04       		.byte	0x4
 1347 066f 4E060000 		.4byte	0x64e
 1348 0673 14       		.uleb128 0x14
 1349 0674 01       		.byte	0x1
 1350 0675 29000000 		.4byte	0x29
 1351 0679 88060000 		.4byte	0x688
 1352 067d 15       		.uleb128 0x15
 1353 067e B4040000 		.4byte	0x4b4
 1354 0682 15       		.uleb128 0x15
 1355 0683 2F010000 		.4byte	0x12f
 1356 0687 00       		.byte	0
 1357 0688 05       		.uleb128 0x5
 1358 0689 04       		.byte	0x4
 1359 068a 73060000 		.4byte	0x673
 1360 068e 0A       		.uleb128 0xa
 1361 068f 57000000 		.4byte	0x57
 1362 0693 9E060000 		.4byte	0x69e
 1363 0697 0B       		.uleb128 0xb
 1364 0698 30000000 		.4byte	0x30
 1365 069c 02       		.byte	0x2
 1366 069d 00       		.byte	0
 1367 069e 0A       		.uleb128 0xa
ARM GAS  C:\Users\EBANO_~1\AppData\Local\Temp\cca1ab55.s 			page 34


 1368 069f 57000000 		.4byte	0x57
 1369 06a3 AE060000 		.4byte	0x6ae
 1370 06a7 0B       		.uleb128 0xb
 1371 06a8 30000000 		.4byte	0x30
 1372 06ac 00       		.byte	0
 1373 06ad 00       		.byte	0
 1374 06ae 07       		.uleb128 0x7
 1375 06af B8050000 		.4byte	.LASF89
 1376 06b3 07       		.byte	0x7
 1377 06b4 1F01     		.2byte	0x11f
 1378 06b6 3B030000 		.4byte	0x33b
 1379 06ba 18       		.uleb128 0x18
 1380 06bb 5E070000 		.4byte	.LASF90
 1381 06bf 0C       		.byte	0xc
 1382 06c0 07       		.byte	0x7
 1383 06c1 2301     		.2byte	0x123
 1384 06c3 F5060000 		.4byte	0x6f5
 1385 06c7 17       		.uleb128 0x17
 1386 06c8 B6060000 		.4byte	.LASF24
 1387 06cc 07       		.byte	0x7
 1388 06cd 2501     		.2byte	0x125
 1389 06cf F5060000 		.4byte	0x6f5
 1390 06d3 02       		.byte	0x2
 1391 06d4 23       		.byte	0x23
 1392 06d5 00       		.uleb128 0
 1393 06d6 17       		.uleb128 0x17
 1394 06d7 72030000 		.4byte	.LASF91
 1395 06db 07       		.byte	0x7
 1396 06dc 2601     		.2byte	0x126
 1397 06de 29000000 		.4byte	0x29
 1398 06e2 02       		.byte	0x2
 1399 06e3 23       		.byte	0x23
 1400 06e4 04       		.uleb128 0x4
 1401 06e5 17       		.uleb128 0x17
 1402 06e6 87050000 		.4byte	.LASF92
 1403 06ea 07       		.byte	0x7
 1404 06eb 2701     		.2byte	0x127
 1405 06ed FB060000 		.4byte	0x6fb
 1406 06f1 02       		.byte	0x2
 1407 06f2 23       		.byte	0x23
 1408 06f3 08       		.uleb128 0x8
 1409 06f4 00       		.byte	0
 1410 06f5 05       		.uleb128 0x5
 1411 06f6 04       		.byte	0x4
 1412 06f7 BA060000 		.4byte	0x6ba
 1413 06fb 05       		.uleb128 0x5
 1414 06fc 04       		.byte	0x4
 1415 06fd AE060000 		.4byte	0x6ae
 1416 0701 18       		.uleb128 0x18
 1417 0702 21000000 		.4byte	.LASF93
 1418 0706 0E       		.byte	0xe
 1419 0707 07       		.byte	0x7
 1420 0708 3F01     		.2byte	0x13f
 1421 070a 3C070000 		.4byte	0x73c
 1422 070e 17       		.uleb128 0x17
 1423 070f 2D060000 		.4byte	.LASF94
 1424 0713 07       		.byte	0x7
ARM GAS  C:\Users\EBANO_~1\AppData\Local\Temp\cca1ab55.s 			page 35


 1425 0714 4001     		.2byte	0x140
 1426 0716 3C070000 		.4byte	0x73c
 1427 071a 02       		.byte	0x2
 1428 071b 23       		.byte	0x23
 1429 071c 00       		.uleb128 0
 1430 071d 17       		.uleb128 0x17
 1431 071e D5030000 		.4byte	.LASF95
 1432 0722 07       		.byte	0x7
 1433 0723 4101     		.2byte	0x141
 1434 0725 3C070000 		.4byte	0x73c
 1435 0729 02       		.byte	0x2
 1436 072a 23       		.byte	0x23
 1437 072b 06       		.uleb128 0x6
 1438 072c 17       		.uleb128 0x17
 1439 072d E5060000 		.4byte	.LASF96
 1440 0731 07       		.byte	0x7
 1441 0732 4201     		.2byte	0x142
 1442 0734 65000000 		.4byte	0x65
 1443 0738 02       		.byte	0x2
 1444 0739 23       		.byte	0x23
 1445 073a 0C       		.uleb128 0xc
 1446 073b 00       		.byte	0
 1447 073c 0A       		.uleb128 0xa
 1448 073d 65000000 		.4byte	0x65
 1449 0741 4C070000 		.4byte	0x74c
 1450 0745 0B       		.uleb128 0xb
 1451 0746 30000000 		.4byte	0x30
 1452 074a 02       		.byte	0x2
 1453 074b 00       		.byte	0
 1454 074c 19       		.uleb128 0x19
 1455 074d D0       		.byte	0xd0
 1456 074e 07       		.byte	0x7
 1457 074f 8002     		.2byte	0x280
 1458 0751 7C080000 		.4byte	0x87c
 1459 0755 17       		.uleb128 0x17
 1460 0756 4C070000 		.4byte	.LASF97
 1461 075a 07       		.byte	0x7
 1462 075b 8202     		.2byte	0x282
 1463 075d 30000000 		.4byte	0x30
 1464 0761 02       		.byte	0x2
 1465 0762 23       		.byte	0x23
 1466 0763 00       		.uleb128 0
 1467 0764 17       		.uleb128 0x17
 1468 0765 BC060000 		.4byte	.LASF98
 1469 0769 07       		.byte	0x7
 1470 076a 8302     		.2byte	0x283
 1471 076c 31010000 		.4byte	0x131
 1472 0770 02       		.byte	0x2
 1473 0771 23       		.byte	0x23
 1474 0772 04       		.uleb128 0x4
 1475 0773 17       		.uleb128 0x17
 1476 0774 A0030000 		.4byte	.LASF99
 1477 0778 07       		.byte	0x7
 1478 0779 8402     		.2byte	0x284
 1479 077b 7C080000 		.4byte	0x87c
 1480 077f 02       		.byte	0x2
 1481 0780 23       		.byte	0x23
ARM GAS  C:\Users\EBANO_~1\AppData\Local\Temp\cca1ab55.s 			page 36


 1482 0781 08       		.uleb128 0x8
 1483 0782 17       		.uleb128 0x17
 1484 0783 1A080000 		.4byte	.LASF100
 1485 0787 07       		.byte	0x7
 1486 0788 8502     		.2byte	0x285
 1487 078a C3010000 		.4byte	0x1c3
 1488 078e 02       		.byte	0x2
 1489 078f 23       		.byte	0x23
 1490 0790 24       		.uleb128 0x24
 1491 0791 17       		.uleb128 0x17
 1492 0792 6A040000 		.4byte	.LASF101
 1493 0796 07       		.byte	0x7
 1494 0797 8602     		.2byte	0x286
 1495 0799 29000000 		.4byte	0x29
 1496 079d 02       		.byte	0x2
 1497 079e 23       		.byte	0x23
 1498 079f 48       		.uleb128 0x48
 1499 07a0 17       		.uleb128 0x17
 1500 07a1 79030000 		.4byte	.LASF102
 1501 07a5 07       		.byte	0x7
 1502 07a6 8702     		.2byte	0x287
 1503 07a8 85000000 		.4byte	0x85
 1504 07ac 02       		.byte	0x2
 1505 07ad 23       		.byte	0x23
 1506 07ae 50       		.uleb128 0x50
 1507 07af 17       		.uleb128 0x17
 1508 07b0 32080000 		.4byte	.LASF103
 1509 07b4 07       		.byte	0x7
 1510 07b5 8802     		.2byte	0x288
 1511 07b7 01070000 		.4byte	0x701
 1512 07bb 02       		.byte	0x2
 1513 07bc 23       		.byte	0x23
 1514 07bd 58       		.uleb128 0x58
 1515 07be 17       		.uleb128 0x17
 1516 07bf D8050000 		.4byte	.LASF104
 1517 07c3 07       		.byte	0x7
 1518 07c4 8902     		.2byte	0x289
 1519 07c6 19010000 		.4byte	0x119
 1520 07ca 02       		.byte	0x2
 1521 07cb 23       		.byte	0x23
 1522 07cc 68       		.uleb128 0x68
 1523 07cd 17       		.uleb128 0x17
 1524 07ce 42080000 		.4byte	.LASF105
 1525 07d2 07       		.byte	0x7
 1526 07d3 8A02     		.2byte	0x28a
 1527 07d5 19010000 		.4byte	0x119
 1528 07d9 02       		.byte	0x2
 1529 07da 23       		.byte	0x23
 1530 07db 70       		.uleb128 0x70
 1531 07dc 17       		.uleb128 0x17
 1532 07dd B6040000 		.4byte	.LASF106
 1533 07e1 07       		.byte	0x7
 1534 07e2 8B02     		.2byte	0x28b
 1535 07e4 19010000 		.4byte	0x119
 1536 07e8 02       		.byte	0x2
 1537 07e9 23       		.byte	0x23
 1538 07ea 78       		.uleb128 0x78
ARM GAS  C:\Users\EBANO_~1\AppData\Local\Temp\cca1ab55.s 			page 37


 1539 07eb 17       		.uleb128 0x17
 1540 07ec 6C070000 		.4byte	.LASF107
 1541 07f0 07       		.byte	0x7
 1542 07f1 8C02     		.2byte	0x28c
 1543 07f3 8C080000 		.4byte	0x88c
 1544 07f7 03       		.byte	0x3
 1545 07f8 23       		.byte	0x23
 1546 07f9 8001     		.uleb128 0x80
 1547 07fb 17       		.uleb128 0x17
 1548 07fc 94030000 		.4byte	.LASF108
 1549 0800 07       		.byte	0x7
 1550 0801 8D02     		.2byte	0x28d
 1551 0803 9C080000 		.4byte	0x89c
 1552 0807 03       		.byte	0x3
 1553 0808 23       		.byte	0x23
 1554 0809 8801     		.uleb128 0x88
 1555 080b 17       		.uleb128 0x17
 1556 080c F2060000 		.4byte	.LASF109
 1557 0810 07       		.byte	0x7
 1558 0811 8E02     		.2byte	0x28e
 1559 0813 29000000 		.4byte	0x29
 1560 0817 03       		.byte	0x3
 1561 0818 23       		.byte	0x23
 1562 0819 A001     		.uleb128 0xa0
 1563 081b 17       		.uleb128 0x17
 1564 081c A0020000 		.4byte	.LASF110
 1565 0820 07       		.byte	0x7
 1566 0821 8F02     		.2byte	0x28f
 1567 0823 19010000 		.4byte	0x119
 1568 0827 03       		.byte	0x3
 1569 0828 23       		.byte	0x23
 1570 0829 A401     		.uleb128 0xa4
 1571 082b 17       		.uleb128 0x17
 1572 082c 43010000 		.4byte	.LASF111
 1573 0830 07       		.byte	0x7
 1574 0831 9002     		.2byte	0x290
 1575 0833 19010000 		.4byte	0x119
 1576 0837 03       		.byte	0x3
 1577 0838 23       		.byte	0x23
 1578 0839 AC01     		.uleb128 0xac
 1579 083b 17       		.uleb128 0x17
 1580 083c 7C020000 		.4byte	.LASF112
 1581 0840 07       		.byte	0x7
 1582 0841 9102     		.2byte	0x291
 1583 0843 19010000 		.4byte	0x119
 1584 0847 03       		.byte	0x3
 1585 0848 23       		.byte	0x23
 1586 0849 B401     		.uleb128 0xb4
 1587 084b 17       		.uleb128 0x17
 1588 084c 7C000000 		.4byte	.LASF113
 1589 0850 07       		.byte	0x7
 1590 0851 9202     		.2byte	0x292
 1591 0853 19010000 		.4byte	0x119
 1592 0857 03       		.byte	0x3
 1593 0858 23       		.byte	0x23
 1594 0859 BC01     		.uleb128 0xbc
 1595 085b 17       		.uleb128 0x17
ARM GAS  C:\Users\EBANO_~1\AppData\Local\Temp\cca1ab55.s 			page 38


 1596 085c 8B000000 		.4byte	.LASF114
 1597 0860 07       		.byte	0x7
 1598 0861 9302     		.2byte	0x293
 1599 0863 19010000 		.4byte	0x119
 1600 0867 03       		.byte	0x3
 1601 0868 23       		.byte	0x23
 1602 0869 C401     		.uleb128 0xc4
 1603 086b 17       		.uleb128 0x17
 1604 086c 8D050000 		.4byte	.LASF115
 1605 0870 07       		.byte	0x7
 1606 0871 9402     		.2byte	0x294
 1607 0873 29000000 		.4byte	0x29
 1608 0877 03       		.byte	0x3
 1609 0878 23       		.byte	0x23
 1610 0879 CC01     		.uleb128 0xcc
 1611 087b 00       		.byte	0
 1612 087c 0A       		.uleb128 0xa
 1613 087d 37010000 		.4byte	0x137
 1614 0881 8C080000 		.4byte	0x88c
 1615 0885 0B       		.uleb128 0xb
 1616 0886 30000000 		.4byte	0x30
 1617 088a 19       		.byte	0x19
 1618 088b 00       		.byte	0
 1619 088c 0A       		.uleb128 0xa
 1620 088d 37010000 		.4byte	0x137
 1621 0891 9C080000 		.4byte	0x89c
 1622 0895 0B       		.uleb128 0xb
 1623 0896 30000000 		.4byte	0x30
 1624 089a 07       		.byte	0x7
 1625 089b 00       		.byte	0
 1626 089c 0A       		.uleb128 0xa
 1627 089d 37010000 		.4byte	0x137
 1628 08a1 AC080000 		.4byte	0x8ac
 1629 08a5 0B       		.uleb128 0xb
 1630 08a6 30000000 		.4byte	0x30
 1631 08aa 17       		.byte	0x17
 1632 08ab 00       		.byte	0
 1633 08ac 19       		.uleb128 0x19
 1634 08ad F0       		.byte	0xf0
 1635 08ae 07       		.byte	0x7
 1636 08af 9902     		.2byte	0x299
 1637 08b1 D4080000 		.4byte	0x8d4
 1638 08b5 17       		.uleb128 0x17
 1639 08b6 BB030000 		.4byte	.LASF116
 1640 08ba 07       		.byte	0x7
 1641 08bb 9C02     		.2byte	0x29c
 1642 08bd D4080000 		.4byte	0x8d4
 1643 08c1 02       		.byte	0x2
 1644 08c2 23       		.byte	0x23
 1645 08c3 00       		.uleb128 0
 1646 08c4 17       		.uleb128 0x17
 1647 08c5 FB030000 		.4byte	.LASF117
 1648 08c9 07       		.byte	0x7
 1649 08ca 9D02     		.2byte	0x29d
 1650 08cc E4080000 		.4byte	0x8e4
 1651 08d0 02       		.byte	0x2
 1652 08d1 23       		.byte	0x23
ARM GAS  C:\Users\EBANO_~1\AppData\Local\Temp\cca1ab55.s 			page 39


 1653 08d2 78       		.uleb128 0x78
 1654 08d3 00       		.byte	0
 1655 08d4 0A       		.uleb128 0xa
 1656 08d5 35030000 		.4byte	0x335
 1657 08d9 E4080000 		.4byte	0x8e4
 1658 08dd 0B       		.uleb128 0xb
 1659 08de 30000000 		.4byte	0x30
 1660 08e2 1D       		.byte	0x1d
 1661 08e3 00       		.byte	0
 1662 08e4 0A       		.uleb128 0xa
 1663 08e5 30000000 		.4byte	0x30
 1664 08e9 F4080000 		.4byte	0x8f4
 1665 08ed 0B       		.uleb128 0xb
 1666 08ee 30000000 		.4byte	0x30
 1667 08f2 1D       		.byte	0x1d
 1668 08f3 00       		.byte	0
 1669 08f4 1A       		.uleb128 0x1a
 1670 08f5 F0       		.byte	0xf0
 1671 08f6 07       		.byte	0x7
 1672 08f7 7E02     		.2byte	0x27e
 1673 08f9 16090000 		.4byte	0x916
 1674 08fd 1B       		.uleb128 0x1b
 1675 08fe 26060000 		.4byte	.LASF67
 1676 0902 07       		.byte	0x7
 1677 0903 9502     		.2byte	0x295
 1678 0905 4C070000 		.4byte	0x74c
 1679 0909 1B       		.uleb128 0x1b
 1680 090a 07080000 		.4byte	.LASF118
 1681 090e 07       		.byte	0x7
 1682 090f 9E02     		.2byte	0x29e
 1683 0911 AC080000 		.4byte	0x8ac
 1684 0915 00       		.byte	0
 1685 0916 0A       		.uleb128 0xa
 1686 0917 37010000 		.4byte	0x137
 1687 091b 26090000 		.4byte	0x926
 1688 091f 0B       		.uleb128 0xb
 1689 0920 30000000 		.4byte	0x30
 1690 0924 18       		.byte	0x18
 1691 0925 00       		.byte	0
 1692 0926 06       		.uleb128 0x6
 1693 0927 FC000000 		.4byte	.LASF120
 1694 092b 01       		.byte	0x1
 1695 092c 05       		.uleb128 0x5
 1696 092d 04       		.byte	0x4
 1697 092e 26090000 		.4byte	0x926
 1698 0932 1C       		.uleb128 0x1c
 1699 0933 01       		.byte	0x1
 1700 0934 3E090000 		.4byte	0x93e
 1701 0938 15       		.uleb128 0x15
 1702 0939 B4040000 		.4byte	0x4b4
 1703 093d 00       		.byte	0
 1704 093e 05       		.uleb128 0x5
 1705 093f 04       		.byte	0x4
 1706 0940 32090000 		.4byte	0x932
 1707 0944 05       		.uleb128 0x5
 1708 0945 04       		.byte	0x4
 1709 0946 AD010000 		.4byte	0x1ad
ARM GAS  C:\Users\EBANO_~1\AppData\Local\Temp\cca1ab55.s 			page 40


 1710 094a 1C       		.uleb128 0x1c
 1711 094b 01       		.byte	0x1
 1712 094c 56090000 		.4byte	0x956
 1713 0950 15       		.uleb128 0x15
 1714 0951 29000000 		.4byte	0x29
 1715 0955 00       		.byte	0
 1716 0956 05       		.uleb128 0x5
 1717 0957 04       		.byte	0x4
 1718 0958 5C090000 		.4byte	0x95c
 1719 095c 05       		.uleb128 0x5
 1720 095d 04       		.byte	0x4
 1721 095e 4A090000 		.4byte	0x94a
 1722 0962 0A       		.uleb128 0xa
 1723 0963 AE060000 		.4byte	0x6ae
 1724 0967 72090000 		.4byte	0x972
 1725 096b 0B       		.uleb128 0xb
 1726 096c 30000000 		.4byte	0x30
 1727 0970 02       		.byte	0x2
 1728 0971 00       		.byte	0
 1729 0972 1D       		.uleb128 0x1d
 1730 0973 DB020000 		.4byte	.LASF121
 1731 0977 07       		.byte	0x7
 1732 0978 2E03     		.2byte	0x32e
 1733 097a B4040000 		.4byte	0x4b4
 1734 097e 01       		.byte	0x1
 1735 097f 01       		.byte	0x1
 1736 0980 1D       		.uleb128 0x1d
 1737 0981 1C070000 		.4byte	.LASF122
 1738 0985 07       		.byte	0x7
 1739 0986 2F03     		.2byte	0x32f
 1740 0988 BA040000 		.4byte	0x4ba
 1741 098c 01       		.byte	0x1
 1742 098d 01       		.byte	0x1
 1743 098e 03       		.uleb128 0x3
 1744 098f 04       		.byte	0x4
 1745 0990 04       		.byte	0x4
 1746 0991 8E040000 		.4byte	.LASF123
 1747 0995 03       		.uleb128 0x3
 1748 0996 08       		.byte	0x8
 1749 0997 04       		.byte	0x4
 1750 0998 65020000 		.4byte	.LASF124
 1751 099c 1E       		.uleb128 0x1e
 1752 099d 0B070000 		.4byte	.LASF171
 1753 09a1 05       		.byte	0x5
 1754 09a2 01       		.byte	0x1
 1755 09a3 45000000 		.4byte	0x45
 1756 09a7 08       		.byte	0x8
 1757 09a8 8202     		.2byte	0x282
 1758 09aa C7090000 		.4byte	0x9c7
 1759 09ae 1F       		.uleb128 0x1f
 1760 09af 3E070000 		.4byte	.LASF125
 1761 09b3 7F       		.sleb128 -1
 1762 09b4 20       		.uleb128 0x20
 1763 09b5 3F020000 		.4byte	.LASF126
 1764 09b9 00       		.byte	0
 1765 09ba 20       		.uleb128 0x20
 1766 09bb 29000000 		.4byte	.LASF127
ARM GAS  C:\Users\EBANO_~1\AppData\Local\Temp\cca1ab55.s 			page 41


 1767 09bf 01       		.byte	0x1
 1768 09c0 20       		.uleb128 0x20
 1769 09c1 C5000000 		.4byte	.LASF128
 1770 09c5 02       		.byte	0x2
 1771 09c6 00       		.byte	0
 1772 09c7 1D       		.uleb128 0x1d
 1773 09c8 33010000 		.4byte	.LASF129
 1774 09cc 08       		.byte	0x8
 1775 09cd 8D02     		.2byte	0x28d
 1776 09cf 9C090000 		.4byte	0x99c
 1777 09d3 01       		.byte	0x1
 1778 09d4 01       		.byte	0x1
 1779 09d5 04       		.uleb128 0x4
 1780 09d6 64070000 		.4byte	.LASF130
 1781 09da 09       		.byte	0x9
 1782 09db 18       		.byte	0x18
 1783 09dc 4C000000 		.4byte	0x4c
 1784 09e0 0F       		.uleb128 0xf
 1785 09e1 D5090000 		.4byte	0x9d5
 1786 09e5 04       		.uleb128 0x4
 1787 09e6 64080000 		.4byte	.LASF131
 1788 09ea 09       		.byte	0x9
 1789 09eb 30       		.byte	0x30
 1790 09ec 73000000 		.4byte	0x73
 1791 09f0 21       		.uleb128 0x21
 1792 09f1 23030000 		.4byte	.LASF132
 1793 09f5 0A       		.byte	0xa
 1794 09f6 4A       		.byte	0x4a
 1795 09f7 E5090000 		.4byte	0x9e5
 1796 09fb 01       		.byte	0x1
 1797 09fc 01       		.byte	0x1
 1798 09fd 0A       		.uleb128 0xa
 1799 09fe E0090000 		.4byte	0x9e0
 1800 0a02 0D0A0000 		.4byte	0xa0d
 1801 0a06 0B       		.uleb128 0xb
 1802 0a07 30000000 		.4byte	0x30
 1803 0a0b 0F       		.byte	0xf
 1804 0a0c 00       		.byte	0
 1805 0a0d 0F       		.uleb128 0xf
 1806 0a0e FD090000 		.4byte	0x9fd
 1807 0a12 21       		.uleb128 0x21
 1808 0a13 89010000 		.4byte	.LASF133
 1809 0a17 0A       		.byte	0xa
 1810 0a18 4D       		.byte	0x4d
 1811 0a19 0D0A0000 		.4byte	0xa0d
 1812 0a1d 01       		.byte	0x1
 1813 0a1e 01       		.byte	0x1
 1814 0a1f 0A       		.uleb128 0xa
 1815 0a20 E0090000 		.4byte	0x9e0
 1816 0a24 2F0A0000 		.4byte	0xa2f
 1817 0a28 0B       		.uleb128 0xb
 1818 0a29 30000000 		.4byte	0x30
 1819 0a2d 07       		.byte	0x7
 1820 0a2e 00       		.byte	0
 1821 0a2f 0F       		.uleb128 0xf
 1822 0a30 1F0A0000 		.4byte	0xa1f
 1823 0a34 21       		.uleb128 0x21
ARM GAS  C:\Users\EBANO_~1\AppData\Local\Temp\cca1ab55.s 			page 42


 1824 0a35 26040000 		.4byte	.LASF134
 1825 0a39 0A       		.byte	0xa
 1826 0a3a 4E       		.byte	0x4e
 1827 0a3b 2F0A0000 		.4byte	0xa2f
 1828 0a3f 01       		.byte	0x1
 1829 0a40 01       		.byte	0x1
 1830 0a41 0A       		.uleb128 0xa
 1831 0a42 E0090000 		.4byte	0x9e0
 1832 0a46 510A0000 		.4byte	0xa51
 1833 0a4a 0B       		.uleb128 0xb
 1834 0a4b 30000000 		.4byte	0x30
 1835 0a4f 08       		.byte	0x8
 1836 0a50 00       		.byte	0
 1837 0a51 0F       		.uleb128 0xf
 1838 0a52 410A0000 		.4byte	0xa41
 1839 0a56 21       		.uleb128 0x21
 1840 0a57 0F040000 		.4byte	.LASF135
 1841 0a5b 0A       		.byte	0xa
 1842 0a5c 4F       		.byte	0x4f
 1843 0a5d 510A0000 		.4byte	0xa51
 1844 0a61 01       		.byte	0x1
 1845 0a62 01       		.byte	0x1
 1846 0a63 21       		.uleb128 0x21
 1847 0a64 55040000 		.4byte	.LASF136
 1848 0a68 0B       		.byte	0xb
 1849 0a69 63       		.byte	0x63
 1850 0a6a 31010000 		.4byte	0x131
 1851 0a6e 01       		.byte	0x1
 1852 0a6f 01       		.byte	0x1
 1853 0a70 22       		.uleb128 0x22
 1854 0a71 07       		.byte	0x7
 1855 0a72 01       		.byte	0x1
 1856 0a73 57000000 		.4byte	0x57
 1857 0a77 0C       		.byte	0xc
 1858 0a78 1E       		.byte	0x1e
 1859 0a79 A20A0000 		.4byte	0xaa2
 1860 0a7d 20       		.uleb128 0x20
 1861 0a7e 38000000 		.4byte	.LASF137
 1862 0a82 01       		.byte	0x1
 1863 0a83 20       		.uleb128 0x20
 1864 0a84 04040000 		.4byte	.LASF138
 1865 0a88 02       		.byte	0x2
 1866 0a89 20       		.uleb128 0x20
 1867 0a8a 5C050000 		.4byte	.LASF139
 1868 0a8e 04       		.byte	0x4
 1869 0a8f 20       		.uleb128 0x20
 1870 0a90 19010000 		.4byte	.LASF140
 1871 0a94 08       		.byte	0x8
 1872 0a95 20       		.uleb128 0x20
 1873 0a96 2F070000 		.4byte	.LASF141
 1874 0a9a 10       		.byte	0x10
 1875 0a9b 20       		.uleb128 0x20
 1876 0a9c 24010000 		.4byte	.LASF142
 1877 0aa0 20       		.byte	0x20
 1878 0aa1 00       		.byte	0
 1879 0aa2 04       		.uleb128 0x4
 1880 0aa3 D2020000 		.4byte	.LASF143
ARM GAS  C:\Users\EBANO_~1\AppData\Local\Temp\cca1ab55.s 			page 43


 1881 0aa7 0C       		.byte	0xc
 1882 0aa8 25       		.byte	0x25
 1883 0aa9 700A0000 		.4byte	0xa70
 1884 0aad 21       		.uleb128 0x21
 1885 0aae 9E040000 		.4byte	.LASF144
 1886 0ab2 0D       		.byte	0xd
 1887 0ab3 9A       		.byte	0x9a
 1888 0ab4 6C000000 		.4byte	0x6c
 1889 0ab8 01       		.byte	0x1
 1890 0ab9 01       		.byte	0x1
 1891 0aba 21       		.uleb128 0x21
 1892 0abb 45000000 		.4byte	.LASF145
 1893 0abf 0D       		.byte	0xd
 1894 0ac0 9B       		.byte	0x9b
 1895 0ac1 29000000 		.4byte	0x29
 1896 0ac5 01       		.byte	0x1
 1897 0ac6 01       		.byte	0x1
 1898 0ac7 0A       		.uleb128 0xa
 1899 0ac8 31010000 		.4byte	0x131
 1900 0acc D70A0000 		.4byte	0xad7
 1901 0ad0 0B       		.uleb128 0xb
 1902 0ad1 30000000 		.4byte	0x30
 1903 0ad5 01       		.byte	0x1
 1904 0ad6 00       		.byte	0
 1905 0ad7 21       		.uleb128 0x21
 1906 0ad8 52010000 		.4byte	.LASF146
 1907 0adc 0D       		.byte	0xd
 1908 0add 9E       		.byte	0x9e
 1909 0ade C70A0000 		.4byte	0xac7
 1910 0ae2 01       		.byte	0x1
 1911 0ae3 01       		.byte	0x1
 1912 0ae4 22       		.uleb128 0x22
 1913 0ae5 07       		.byte	0x7
 1914 0ae6 01       		.byte	0x1
 1915 0ae7 57000000 		.4byte	0x57
 1916 0aeb 0E       		.byte	0xe
 1917 0aec 23       		.byte	0x23
 1918 0aed FE0A0000 		.4byte	0xafe
 1919 0af1 20       		.uleb128 0x20
 1920 0af2 37080000 		.4byte	.LASF147
 1921 0af6 00       		.byte	0
 1922 0af7 20       		.uleb128 0x20
 1923 0af8 5A010000 		.4byte	.LASF148
 1924 0afc 01       		.byte	0x1
 1925 0afd 00       		.byte	0
 1926 0afe 04       		.uleb128 0x4
 1927 0aff EE000000 		.4byte	.LASF149
 1928 0b03 0E       		.byte	0xe
 1929 0b04 26       		.byte	0x26
 1930 0b05 E40A0000 		.4byte	0xae4
 1931 0b09 22       		.uleb128 0x22
 1932 0b0a 07       		.byte	0x7
 1933 0b0b 01       		.byte	0x1
 1934 0b0c 57000000 		.4byte	0x57
 1935 0b10 0E       		.byte	0xe
 1936 0b11 29       		.byte	0x29
 1937 0b12 290B0000 		.4byte	0xb29
ARM GAS  C:\Users\EBANO_~1\AppData\Local\Temp\cca1ab55.s 			page 44


 1938 0b16 20       		.uleb128 0x20
 1939 0b17 BE020000 		.4byte	.LASF150
 1940 0b1b 00       		.byte	0
 1941 0b1c 20       		.uleb128 0x20
 1942 0b1d 77080000 		.4byte	.LASF151
 1943 0b21 01       		.byte	0x1
 1944 0b22 20       		.uleb128 0x20
 1945 0b23 59000000 		.4byte	.LASF152
 1946 0b27 02       		.byte	0x2
 1947 0b28 00       		.byte	0
 1948 0b29 04       		.uleb128 0x4
 1949 0b2a 80070000 		.4byte	.LASF153
 1950 0b2e 0E       		.byte	0xe
 1951 0b2f 2D       		.byte	0x2d
 1952 0b30 090B0000 		.4byte	0xb09
 1953 0b34 23       		.uleb128 0x23
 1954 0b35 34040000 		.4byte	.LASF154
 1955 0b39 01       		.byte	0x1
 1956 0b3a 1C       		.byte	0x1c
 1957 0b3b E5090000 		.4byte	0x9e5
 1958 0b3f 05       		.byte	0x5
 1959 0b40 03       		.byte	0x3
 1960 0b41 04000000 		.4byte	StopModeDisable
 1961 0b45 23       		.uleb128 0x23
 1962 0b46 00000000 		.4byte	.LASF155
 1963 0b4a 01       		.byte	0x1
 1964 0b4b 1D       		.byte	0x1d
 1965 0b4c E5090000 		.4byte	0x9e5
 1966 0b50 05       		.byte	0x5
 1967 0b51 03       		.byte	0x3
 1968 0b52 00000000 		.4byte	OffModeDisable
 1969 0b56 24       		.uleb128 0x24
 1970 0b57 01       		.byte	0x1
 1971 0b58 33060000 		.4byte	.LASF156
 1972 0b5c 01       		.byte	0x1
 1973 0b5d 9C       		.byte	0x9c
 1974 0b5e 01       		.byte	0x1
 1975 0b5f 24       		.uleb128 0x24
 1976 0b60 01       		.byte	0x1
 1977 0b61 DD000000 		.4byte	.LASF157
 1978 0b65 01       		.byte	0x1
 1979 0b66 9B       		.byte	0x9b
 1980 0b67 01       		.byte	0x1
 1981 0b68 24       		.uleb128 0x24
 1982 0b69 01       		.byte	0x1
 1983 0b6a 5B030000 		.4byte	.LASF158
 1984 0b6e 01       		.byte	0x1
 1985 0b6f 9A       		.byte	0x9a
 1986 0b70 01       		.byte	0x1
 1987 0b71 24       		.uleb128 0x24
 1988 0b72 01       		.byte	0x1
 1989 0b73 07010000 		.4byte	.LASF159
 1990 0b77 01       		.byte	0x1
 1991 0b78 99       		.byte	0x99
 1992 0b79 01       		.byte	0x1
 1993 0b7a 24       		.uleb128 0x24
 1994 0b7b 01       		.byte	0x1
ARM GAS  C:\Users\EBANO_~1\AppData\Local\Temp\cca1ab55.s 			page 45


 1995 0b7c 75050000 		.4byte	.LASF160
 1996 0b80 01       		.byte	0x1
 1997 0b81 98       		.byte	0x98
 1998 0b82 01       		.byte	0x1
 1999 0b83 25       		.uleb128 0x25
 2000 0b84 01       		.byte	0x1
 2001 0b85 8D020000 		.4byte	.LASF172
 2002 0b89 01       		.byte	0x1
 2003 0b8a 97       		.byte	0x97
 2004 0b8b 01       		.byte	0x1
 2005 0b8c 01       		.byte	0x1
 2006 0b8d 26       		.uleb128 0x26
 2007 0b8e 01       		.byte	0x1
 2008 0b8f 0B030000 		.4byte	.LASF173
 2009 0b93 01       		.byte	0x1
 2010 0b94 7A       		.byte	0x7a
 2011 0b95 01       		.byte	0x1
 2012 0b96 290B0000 		.4byte	0xb29
 2013 0b9a 00000000 		.4byte	.LFB42
 2014 0b9e 24000000 		.4byte	.LFE42
 2015 0ba2 02       		.byte	0x2
 2016 0ba3 7D       		.byte	0x7d
 2017 0ba4 00       		.sleb128 0
 2018 0ba5 01       		.byte	0x1
 2019 0ba6 100C0000 		.4byte	0xc10
 2020 0baa 23       		.uleb128 0x23
 2021 0bab 65000000 		.4byte	.LASF161
 2022 0baf 01       		.byte	0x1
 2023 0bb0 7C       		.byte	0x7c
 2024 0bb1 290B0000 		.4byte	0xb29
 2025 0bb5 01       		.byte	0x1
 2026 0bb6 50       		.byte	0x50
 2027 0bb7 27       		.uleb128 0x27
 2028 0bb8 FF060000 		.4byte	.LASF165
 2029 0bbc 01       		.byte	0x1
 2030 0bbd 7E       		.byte	0x7e
 2031 0bbe E5090000 		.4byte	0x9e5
 2032 0bc2 28       		.uleb128 0x28
 2033 0bc3 9A0D0000 		.4byte	0xd9a
 2034 0bc7 00000000 		.4byte	.LBB32
 2035 0bcb 04000000 		.4byte	.LBE32
 2036 0bcf 01       		.byte	0x1
 2037 0bd0 7E       		.byte	0x7e
 2038 0bd1 E70B0000 		.4byte	0xbe7
 2039 0bd5 29       		.uleb128 0x29
 2040 0bd6 00000000 		.4byte	.LBB33
 2041 0bda 04000000 		.4byte	.LBE33
 2042 0bde 2A       		.uleb128 0x2a
 2043 0bdf AC0D0000 		.4byte	0xdac
 2044 0be3 01       		.byte	0x1
 2045 0be4 52       		.byte	0x52
 2046 0be5 00       		.byte	0
 2047 0be6 00       		.byte	0
 2048 0be7 2B       		.uleb128 0x2b
 2049 0be8 B90D0000 		.4byte	0xdb9
 2050 0bec 04000000 		.4byte	.LBB34
 2051 0bf0 06000000 		.4byte	.LBE34
ARM GAS  C:\Users\EBANO_~1\AppData\Local\Temp\cca1ab55.s 			page 46


 2052 0bf4 01       		.byte	0x1
 2053 0bf5 80       		.byte	0x80
 2054 0bf6 2C       		.uleb128 0x2c
 2055 0bf7 7F0D0000 		.4byte	0xd7f
 2056 0bfb 18000000 		.4byte	.LBB36
 2057 0bff 1C000000 		.4byte	.LBE36
 2058 0c03 01       		.byte	0x1
 2059 0c04 92       		.byte	0x92
 2060 0c05 2D       		.uleb128 0x2d
 2061 0c06 8D0D0000 		.4byte	0xd8d
 2062 0c0a 00000000 		.4byte	.LLST6
 2063 0c0e 00       		.byte	0
 2064 0c0f 00       		.byte	0
 2065 0c10 2E       		.uleb128 0x2e
 2066 0c11 01       		.byte	0x1
 2067 0c12 9C000000 		.4byte	.LASF162
 2068 0c16 01       		.byte	0x1
 2069 0c17 59       		.byte	0x59
 2070 0c18 01       		.byte	0x1
 2071 0c19 00000000 		.4byte	.LFB41
 2072 0c1d 34000000 		.4byte	.LFE41
 2073 0c21 13000000 		.4byte	.LLST7
 2074 0c25 01       		.byte	0x1
 2075 0c26 610C0000 		.4byte	0xc61
 2076 0c2a 2F       		.uleb128 0x2f
 2077 0c2b 14000000 		.4byte	.LVL16
 2078 0c2f 5F0B0000 		.4byte	0xb5f
 2079 0c33 2F       		.uleb128 0x2f
 2080 0c34 18000000 		.4byte	.LVL17
 2081 0c38 560B0000 		.4byte	0xb56
 2082 0c3c 2F       		.uleb128 0x2f
 2083 0c3d 1E000000 		.4byte	.LVL18
 2084 0c41 710B0000 		.4byte	0xb71
 2085 0c45 2F       		.uleb128 0x2f
 2086 0c46 22000000 		.4byte	.LVL19
 2087 0c4a 680B0000 		.4byte	0xb68
 2088 0c4e 2F       		.uleb128 0x2f
 2089 0c4f 28000000 		.4byte	.LVL20
 2090 0c53 830B0000 		.4byte	0xb83
 2091 0c57 2F       		.uleb128 0x2f
 2092 0c58 2C000000 		.4byte	.LVL21
 2093 0c5c 7A0B0000 		.4byte	0xb7a
 2094 0c60 00       		.byte	0
 2095 0c61 30       		.uleb128 0x30
 2096 0c62 01       		.byte	0x1
 2097 0c63 84030000 		.4byte	.LASF163
 2098 0c67 01       		.byte	0x1
 2099 0c68 3E       		.byte	0x3e
 2100 0c69 01       		.byte	0x1
 2101 0c6a 00000000 		.4byte	.LFB40
 2102 0c6e 2C000000 		.4byte	.LFE40
 2103 0c72 02       		.byte	0x2
 2104 0c73 7D       		.byte	0x7d
 2105 0c74 00       		.sleb128 0
 2106 0c75 01       		.byte	0x1
 2107 0c76 F00C0000 		.4byte	0xcf0
 2108 0c7a 31       		.uleb128 0x31
ARM GAS  C:\Users\EBANO_~1\AppData\Local\Temp\cca1ab55.s 			page 47


 2109 0c7b 696400   		.ascii	"id\000"
 2110 0c7e 01       		.byte	0x1
 2111 0c7f 3E       		.byte	0x3e
 2112 0c80 A20A0000 		.4byte	0xaa2
 2113 0c84 33000000 		.4byte	.LLST3
 2114 0c88 32       		.uleb128 0x32
 2115 0c89 93060000 		.4byte	.LASF164
 2116 0c8d 01       		.byte	0x1
 2117 0c8e 3E       		.byte	0x3e
 2118 0c8f FE0A0000 		.4byte	0xafe
 2119 0c93 5F000000 		.4byte	.LLST4
 2120 0c97 27       		.uleb128 0x27
 2121 0c98 FF060000 		.4byte	.LASF165
 2122 0c9c 01       		.byte	0x1
 2123 0c9d 40       		.byte	0x40
 2124 0c9e E5090000 		.4byte	0x9e5
 2125 0ca2 28       		.uleb128 0x28
 2126 0ca3 9A0D0000 		.4byte	0xd9a
 2127 0ca7 00000000 		.4byte	.LBB26
 2128 0cab 04000000 		.4byte	.LBE26
 2129 0caf 01       		.byte	0x1
 2130 0cb0 40       		.byte	0x40
 2131 0cb1 C70C0000 		.4byte	0xcc7
 2132 0cb5 29       		.uleb128 0x29
 2133 0cb6 00000000 		.4byte	.LBB27
 2134 0cba 04000000 		.4byte	.LBE27
 2135 0cbe 2A       		.uleb128 0x2a
 2136 0cbf AC0D0000 		.4byte	0xdac
 2137 0cc3 01       		.byte	0x1
 2138 0cc4 53       		.byte	0x53
 2139 0cc5 00       		.byte	0
 2140 0cc6 00       		.byte	0
 2141 0cc7 2B       		.uleb128 0x2b
 2142 0cc8 B90D0000 		.4byte	0xdb9
 2143 0ccc 04000000 		.4byte	.LBB28
 2144 0cd0 06000000 		.4byte	.LBE28
 2145 0cd4 01       		.byte	0x1
 2146 0cd5 42       		.byte	0x42
 2147 0cd6 2C       		.uleb128 0x2c
 2148 0cd7 7F0D0000 		.4byte	0xd7f
 2149 0cdb 16000000 		.4byte	.LBB30
 2150 0cdf 1A000000 		.4byte	.LBE30
 2151 0ce3 01       		.byte	0x1
 2152 0ce4 54       		.byte	0x54
 2153 0ce5 2D       		.uleb128 0x2d
 2154 0ce6 8D0D0000 		.4byte	0xd8d
 2155 0cea 99000000 		.4byte	.LLST5
 2156 0cee 00       		.byte	0
 2157 0cef 00       		.byte	0
 2158 0cf0 30       		.uleb128 0x30
 2159 0cf1 01       		.byte	0x1
 2160 0cf2 EC030000 		.4byte	.LASF166
 2161 0cf6 01       		.byte	0x1
 2162 0cf7 22       		.byte	0x22
 2163 0cf8 01       		.byte	0x1
 2164 0cf9 00000000 		.4byte	.LFB39
 2165 0cfd 2C000000 		.4byte	.LFE39
ARM GAS  C:\Users\EBANO_~1\AppData\Local\Temp\cca1ab55.s 			page 48


 2166 0d01 02       		.byte	0x2
 2167 0d02 7D       		.byte	0x7d
 2168 0d03 00       		.sleb128 0
 2169 0d04 01       		.byte	0x1
 2170 0d05 7F0D0000 		.4byte	0xd7f
 2171 0d09 31       		.uleb128 0x31
 2172 0d0a 696400   		.ascii	"id\000"
 2173 0d0d 01       		.byte	0x1
 2174 0d0e 22       		.byte	0x22
 2175 0d0f A20A0000 		.4byte	0xaa2
 2176 0d13 AC000000 		.4byte	.LLST0
 2177 0d17 32       		.uleb128 0x32
 2178 0d18 93060000 		.4byte	.LASF164
 2179 0d1c 01       		.byte	0x1
 2180 0d1d 22       		.byte	0x22
 2181 0d1e FE0A0000 		.4byte	0xafe
 2182 0d22 D8000000 		.4byte	.LLST1
 2183 0d26 27       		.uleb128 0x27
 2184 0d27 FF060000 		.4byte	.LASF165
 2185 0d2b 01       		.byte	0x1
 2186 0d2c 24       		.byte	0x24
 2187 0d2d E5090000 		.4byte	0x9e5
 2188 0d31 28       		.uleb128 0x28
 2189 0d32 9A0D0000 		.4byte	0xd9a
 2190 0d36 00000000 		.4byte	.LBB20
 2191 0d3a 04000000 		.4byte	.LBE20
 2192 0d3e 01       		.byte	0x1
 2193 0d3f 24       		.byte	0x24
 2194 0d40 560D0000 		.4byte	0xd56
 2195 0d44 29       		.uleb128 0x29
 2196 0d45 00000000 		.4byte	.LBB21
 2197 0d49 04000000 		.4byte	.LBE21
 2198 0d4d 2A       		.uleb128 0x2a
 2199 0d4e AC0D0000 		.4byte	0xdac
 2200 0d52 01       		.byte	0x1
 2201 0d53 53       		.byte	0x53
 2202 0d54 00       		.byte	0
 2203 0d55 00       		.byte	0
 2204 0d56 2B       		.uleb128 0x2b
 2205 0d57 B90D0000 		.4byte	0xdb9
 2206 0d5b 04000000 		.4byte	.LBB22
 2207 0d5f 06000000 		.4byte	.LBE22
 2208 0d63 01       		.byte	0x1
 2209 0d64 26       		.byte	0x26
 2210 0d65 2C       		.uleb128 0x2c
 2211 0d66 7F0D0000 		.4byte	0xd7f
 2212 0d6a 16000000 		.4byte	.LBB24
 2213 0d6e 1A000000 		.4byte	.LBE24
 2214 0d72 01       		.byte	0x1
 2215 0d73 39       		.byte	0x39
 2216 0d74 2D       		.uleb128 0x2d
 2217 0d75 8D0D0000 		.4byte	0xd8d
 2218 0d79 12010000 		.4byte	.LLST2
 2219 0d7d 00       		.byte	0
 2220 0d7e 00       		.byte	0
 2221 0d7f 33       		.uleb128 0x33
 2222 0d80 79040000 		.4byte	.LASF174
ARM GAS  C:\Users\EBANO_~1\AppData\Local\Temp\cca1ab55.s 			page 49


 2223 0d84 02       		.byte	0x2
 2224 0d85 5301     		.2byte	0x153
 2225 0d87 01       		.byte	0x1
 2226 0d88 03       		.byte	0x3
 2227 0d89 9A0D0000 		.4byte	0xd9a
 2228 0d8d 34       		.uleb128 0x34
 2229 0d8e BF050000 		.4byte	.LASF175
 2230 0d92 02       		.byte	0x2
 2231 0d93 5301     		.2byte	0x153
 2232 0d95 E5090000 		.4byte	0x9e5
 2233 0d99 00       		.byte	0
 2234 0d9a 35       		.uleb128 0x35
 2235 0d9b F7020000 		.4byte	.LASF176
 2236 0d9f 02       		.byte	0x2
 2237 0da0 3501     		.2byte	0x135
 2238 0da2 01       		.byte	0x1
 2239 0da3 E5090000 		.4byte	0x9e5
 2240 0da7 03       		.byte	0x3
 2241 0da8 B90D0000 		.4byte	0xdb9
 2242 0dac 36       		.uleb128 0x36
 2243 0dad 5D080000 		.4byte	.LASF167
 2244 0db1 02       		.byte	0x2
 2245 0db2 3701     		.2byte	0x137
 2246 0db4 E5090000 		.4byte	0x9e5
 2247 0db8 00       		.byte	0
 2248 0db9 37       		.uleb128 0x37
 2249 0dba A8040000 		.4byte	.LASF177
 2250 0dbe 02       		.byte	0x2
 2251 0dbf 5E       		.byte	0x5e
 2252 0dc0 01       		.byte	0x1
 2253 0dc1 03       		.byte	0x3
 2254 0dc2 38       		.uleb128 0x38
 2255 0dc3 830B0000 		.4byte	0xb83
 2256 0dc7 00000000 		.4byte	.LFB43
 2257 0dcb 02000000 		.4byte	.LFE43
 2258 0dcf 02       		.byte	0x2
 2259 0dd0 7D       		.byte	0x7d
 2260 0dd1 00       		.sleb128 0
 2261 0dd2 01       		.byte	0x1
 2262 0dd3 00       		.byte	0
 2263              		.section	.debug_abbrev,"",%progbits
 2264              	.Ldebug_abbrev0:
 2265 0000 01       		.uleb128 0x1
 2266 0001 11       		.uleb128 0x11
 2267 0002 01       		.byte	0x1
 2268 0003 25       		.uleb128 0x25
 2269 0004 0E       		.uleb128 0xe
 2270 0005 13       		.uleb128 0x13
 2271 0006 0B       		.uleb128 0xb
 2272 0007 03       		.uleb128 0x3
 2273 0008 0E       		.uleb128 0xe
 2274 0009 1B       		.uleb128 0x1b
 2275 000a 0E       		.uleb128 0xe
 2276 000b 55       		.uleb128 0x55
 2277 000c 06       		.uleb128 0x6
 2278 000d 11       		.uleb128 0x11
 2279 000e 01       		.uleb128 0x1
ARM GAS  C:\Users\EBANO_~1\AppData\Local\Temp\cca1ab55.s 			page 50


 2280 000f 52       		.uleb128 0x52
 2281 0010 01       		.uleb128 0x1
 2282 0011 10       		.uleb128 0x10
 2283 0012 06       		.uleb128 0x6
 2284 0013 00       		.byte	0
 2285 0014 00       		.byte	0
 2286 0015 02       		.uleb128 0x2
 2287 0016 24       		.uleb128 0x24
 2288 0017 00       		.byte	0
 2289 0018 0B       		.uleb128 0xb
 2290 0019 0B       		.uleb128 0xb
 2291 001a 3E       		.uleb128 0x3e
 2292 001b 0B       		.uleb128 0xb
 2293 001c 03       		.uleb128 0x3
 2294 001d 08       		.uleb128 0x8
 2295 001e 00       		.byte	0
 2296 001f 00       		.byte	0
 2297 0020 03       		.uleb128 0x3
 2298 0021 24       		.uleb128 0x24
 2299 0022 00       		.byte	0
 2300 0023 0B       		.uleb128 0xb
 2301 0024 0B       		.uleb128 0xb
 2302 0025 3E       		.uleb128 0x3e
 2303 0026 0B       		.uleb128 0xb
 2304 0027 03       		.uleb128 0x3
 2305 0028 0E       		.uleb128 0xe
 2306 0029 00       		.byte	0
 2307 002a 00       		.byte	0
 2308 002b 04       		.uleb128 0x4
 2309 002c 16       		.uleb128 0x16
 2310 002d 00       		.byte	0
 2311 002e 03       		.uleb128 0x3
 2312 002f 0E       		.uleb128 0xe
 2313 0030 3A       		.uleb128 0x3a
 2314 0031 0B       		.uleb128 0xb
 2315 0032 3B       		.uleb128 0x3b
 2316 0033 0B       		.uleb128 0xb
 2317 0034 49       		.uleb128 0x49
 2318 0035 13       		.uleb128 0x13
 2319 0036 00       		.byte	0
 2320 0037 00       		.byte	0
 2321 0038 05       		.uleb128 0x5
 2322 0039 0F       		.uleb128 0xf
 2323 003a 00       		.byte	0
 2324 003b 0B       		.uleb128 0xb
 2325 003c 0B       		.uleb128 0xb
 2326 003d 49       		.uleb128 0x49
 2327 003e 13       		.uleb128 0x13
 2328 003f 00       		.byte	0
 2329 0040 00       		.byte	0
 2330 0041 06       		.uleb128 0x6
 2331 0042 13       		.uleb128 0x13
 2332 0043 00       		.byte	0
 2333 0044 03       		.uleb128 0x3
 2334 0045 0E       		.uleb128 0xe
 2335 0046 3C       		.uleb128 0x3c
 2336 0047 0C       		.uleb128 0xc
ARM GAS  C:\Users\EBANO_~1\AppData\Local\Temp\cca1ab55.s 			page 51


 2337 0048 00       		.byte	0
 2338 0049 00       		.byte	0
 2339 004a 07       		.uleb128 0x7
 2340 004b 16       		.uleb128 0x16
 2341 004c 00       		.byte	0
 2342 004d 03       		.uleb128 0x3
 2343 004e 0E       		.uleb128 0xe
 2344 004f 3A       		.uleb128 0x3a
 2345 0050 0B       		.uleb128 0xb
 2346 0051 3B       		.uleb128 0x3b
 2347 0052 05       		.uleb128 0x5
 2348 0053 49       		.uleb128 0x49
 2349 0054 13       		.uleb128 0x13
 2350 0055 00       		.byte	0
 2351 0056 00       		.byte	0
 2352 0057 08       		.uleb128 0x8
 2353 0058 17       		.uleb128 0x17
 2354 0059 01       		.byte	0x1
 2355 005a 0B       		.uleb128 0xb
 2356 005b 0B       		.uleb128 0xb
 2357 005c 3A       		.uleb128 0x3a
 2358 005d 0B       		.uleb128 0xb
 2359 005e 3B       		.uleb128 0x3b
 2360 005f 0B       		.uleb128 0xb
 2361 0060 01       		.uleb128 0x1
 2362 0061 13       		.uleb128 0x13
 2363 0062 00       		.byte	0
 2364 0063 00       		.byte	0
 2365 0064 09       		.uleb128 0x9
 2366 0065 0D       		.uleb128 0xd
 2367 0066 00       		.byte	0
 2368 0067 03       		.uleb128 0x3
 2369 0068 0E       		.uleb128 0xe
 2370 0069 3A       		.uleb128 0x3a
 2371 006a 0B       		.uleb128 0xb
 2372 006b 3B       		.uleb128 0x3b
 2373 006c 0B       		.uleb128 0xb
 2374 006d 49       		.uleb128 0x49
 2375 006e 13       		.uleb128 0x13
 2376 006f 00       		.byte	0
 2377 0070 00       		.byte	0
 2378 0071 0A       		.uleb128 0xa
 2379 0072 01       		.uleb128 0x1
 2380 0073 01       		.byte	0x1
 2381 0074 49       		.uleb128 0x49
 2382 0075 13       		.uleb128 0x13
 2383 0076 01       		.uleb128 0x1
 2384 0077 13       		.uleb128 0x13
 2385 0078 00       		.byte	0
 2386 0079 00       		.byte	0
 2387 007a 0B       		.uleb128 0xb
 2388 007b 21       		.uleb128 0x21
 2389 007c 00       		.byte	0
 2390 007d 49       		.uleb128 0x49
 2391 007e 13       		.uleb128 0x13
 2392 007f 2F       		.uleb128 0x2f
 2393 0080 0B       		.uleb128 0xb
ARM GAS  C:\Users\EBANO_~1\AppData\Local\Temp\cca1ab55.s 			page 52


 2394 0081 00       		.byte	0
 2395 0082 00       		.byte	0
 2396 0083 0C       		.uleb128 0xc
 2397 0084 13       		.uleb128 0x13
 2398 0085 01       		.byte	0x1
 2399 0086 0B       		.uleb128 0xb
 2400 0087 0B       		.uleb128 0xb
 2401 0088 3A       		.uleb128 0x3a
 2402 0089 0B       		.uleb128 0xb
 2403 008a 3B       		.uleb128 0x3b
 2404 008b 0B       		.uleb128 0xb
 2405 008c 01       		.uleb128 0x1
 2406 008d 13       		.uleb128 0x13
 2407 008e 00       		.byte	0
 2408 008f 00       		.byte	0
 2409 0090 0D       		.uleb128 0xd
 2410 0091 0D       		.uleb128 0xd
 2411 0092 00       		.byte	0
 2412 0093 03       		.uleb128 0x3
 2413 0094 0E       		.uleb128 0xe
 2414 0095 3A       		.uleb128 0x3a
 2415 0096 0B       		.uleb128 0xb
 2416 0097 3B       		.uleb128 0x3b
 2417 0098 0B       		.uleb128 0xb
 2418 0099 49       		.uleb128 0x49
 2419 009a 13       		.uleb128 0x13
 2420 009b 38       		.uleb128 0x38
 2421 009c 0A       		.uleb128 0xa
 2422 009d 00       		.byte	0
 2423 009e 00       		.byte	0
 2424 009f 0E       		.uleb128 0xe
 2425 00a0 0F       		.uleb128 0xf
 2426 00a1 00       		.byte	0
 2427 00a2 0B       		.uleb128 0xb
 2428 00a3 0B       		.uleb128 0xb
 2429 00a4 00       		.byte	0
 2430 00a5 00       		.byte	0
 2431 00a6 0F       		.uleb128 0xf
 2432 00a7 26       		.uleb128 0x26
 2433 00a8 00       		.byte	0
 2434 00a9 49       		.uleb128 0x49
 2435 00aa 13       		.uleb128 0x13
 2436 00ab 00       		.byte	0
 2437 00ac 00       		.byte	0
 2438 00ad 10       		.uleb128 0x10
 2439 00ae 13       		.uleb128 0x13
 2440 00af 01       		.byte	0x1
 2441 00b0 03       		.uleb128 0x3
 2442 00b1 0E       		.uleb128 0xe
 2443 00b2 0B       		.uleb128 0xb
 2444 00b3 0B       		.uleb128 0xb
 2445 00b4 3A       		.uleb128 0x3a
 2446 00b5 0B       		.uleb128 0xb
 2447 00b6 3B       		.uleb128 0x3b
 2448 00b7 0B       		.uleb128 0xb
 2449 00b8 01       		.uleb128 0x1
 2450 00b9 13       		.uleb128 0x13
ARM GAS  C:\Users\EBANO_~1\AppData\Local\Temp\cca1ab55.s 			page 53


 2451 00ba 00       		.byte	0
 2452 00bb 00       		.byte	0
 2453 00bc 11       		.uleb128 0x11
 2454 00bd 0D       		.uleb128 0xd
 2455 00be 00       		.byte	0
 2456 00bf 03       		.uleb128 0x3
 2457 00c0 08       		.uleb128 0x8
 2458 00c1 3A       		.uleb128 0x3a
 2459 00c2 0B       		.uleb128 0xb
 2460 00c3 3B       		.uleb128 0x3b
 2461 00c4 0B       		.uleb128 0xb
 2462 00c5 49       		.uleb128 0x49
 2463 00c6 13       		.uleb128 0x13
 2464 00c7 38       		.uleb128 0x38
 2465 00c8 0A       		.uleb128 0xa
 2466 00c9 00       		.byte	0
 2467 00ca 00       		.byte	0
 2468 00cb 12       		.uleb128 0x12
 2469 00cc 13       		.uleb128 0x13
 2470 00cd 01       		.byte	0x1
 2471 00ce 03       		.uleb128 0x3
 2472 00cf 0E       		.uleb128 0xe
 2473 00d0 0B       		.uleb128 0xb
 2474 00d1 05       		.uleb128 0x5
 2475 00d2 3A       		.uleb128 0x3a
 2476 00d3 0B       		.uleb128 0xb
 2477 00d4 3B       		.uleb128 0x3b
 2478 00d5 0B       		.uleb128 0xb
 2479 00d6 01       		.uleb128 0x1
 2480 00d7 13       		.uleb128 0x13
 2481 00d8 00       		.byte	0
 2482 00d9 00       		.byte	0
 2483 00da 13       		.uleb128 0x13
 2484 00db 15       		.uleb128 0x15
 2485 00dc 00       		.byte	0
 2486 00dd 27       		.uleb128 0x27
 2487 00de 0C       		.uleb128 0xc
 2488 00df 00       		.byte	0
 2489 00e0 00       		.byte	0
 2490 00e1 14       		.uleb128 0x14
 2491 00e2 15       		.uleb128 0x15
 2492 00e3 01       		.byte	0x1
 2493 00e4 27       		.uleb128 0x27
 2494 00e5 0C       		.uleb128 0xc
 2495 00e6 49       		.uleb128 0x49
 2496 00e7 13       		.uleb128 0x13
 2497 00e8 01       		.uleb128 0x1
 2498 00e9 13       		.uleb128 0x13
 2499 00ea 00       		.byte	0
 2500 00eb 00       		.byte	0
 2501 00ec 15       		.uleb128 0x15
 2502 00ed 05       		.uleb128 0x5
 2503 00ee 00       		.byte	0
 2504 00ef 49       		.uleb128 0x49
 2505 00f0 13       		.uleb128 0x13
 2506 00f1 00       		.byte	0
 2507 00f2 00       		.byte	0
ARM GAS  C:\Users\EBANO_~1\AppData\Local\Temp\cca1ab55.s 			page 54


 2508 00f3 16       		.uleb128 0x16
 2509 00f4 13       		.uleb128 0x13
 2510 00f5 01       		.byte	0x1
 2511 00f6 03       		.uleb128 0x3
 2512 00f7 0E       		.uleb128 0xe
 2513 00f8 0B       		.uleb128 0xb
 2514 00f9 05       		.uleb128 0x5
 2515 00fa 3A       		.uleb128 0x3a
 2516 00fb 0B       		.uleb128 0xb
 2517 00fc 3B       		.uleb128 0x3b
 2518 00fd 05       		.uleb128 0x5
 2519 00fe 01       		.uleb128 0x1
 2520 00ff 13       		.uleb128 0x13
 2521 0100 00       		.byte	0
 2522 0101 00       		.byte	0
 2523 0102 17       		.uleb128 0x17
 2524 0103 0D       		.uleb128 0xd
 2525 0104 00       		.byte	0
 2526 0105 03       		.uleb128 0x3
 2527 0106 0E       		.uleb128 0xe
 2528 0107 3A       		.uleb128 0x3a
 2529 0108 0B       		.uleb128 0xb
 2530 0109 3B       		.uleb128 0x3b
 2531 010a 05       		.uleb128 0x5
 2532 010b 49       		.uleb128 0x49
 2533 010c 13       		.uleb128 0x13
 2534 010d 38       		.uleb128 0x38
 2535 010e 0A       		.uleb128 0xa
 2536 010f 00       		.byte	0
 2537 0110 00       		.byte	0
 2538 0111 18       		.uleb128 0x18
 2539 0112 13       		.uleb128 0x13
 2540 0113 01       		.byte	0x1
 2541 0114 03       		.uleb128 0x3
 2542 0115 0E       		.uleb128 0xe
 2543 0116 0B       		.uleb128 0xb
 2544 0117 0B       		.uleb128 0xb
 2545 0118 3A       		.uleb128 0x3a
 2546 0119 0B       		.uleb128 0xb
 2547 011a 3B       		.uleb128 0x3b
 2548 011b 05       		.uleb128 0x5
 2549 011c 01       		.uleb128 0x1
 2550 011d 13       		.uleb128 0x13
 2551 011e 00       		.byte	0
 2552 011f 00       		.byte	0
 2553 0120 19       		.uleb128 0x19
 2554 0121 13       		.uleb128 0x13
 2555 0122 01       		.byte	0x1
 2556 0123 0B       		.uleb128 0xb
 2557 0124 0B       		.uleb128 0xb
 2558 0125 3A       		.uleb128 0x3a
 2559 0126 0B       		.uleb128 0xb
 2560 0127 3B       		.uleb128 0x3b
 2561 0128 05       		.uleb128 0x5
 2562 0129 01       		.uleb128 0x1
 2563 012a 13       		.uleb128 0x13
 2564 012b 00       		.byte	0
ARM GAS  C:\Users\EBANO_~1\AppData\Local\Temp\cca1ab55.s 			page 55


 2565 012c 00       		.byte	0
 2566 012d 1A       		.uleb128 0x1a
 2567 012e 17       		.uleb128 0x17
 2568 012f 01       		.byte	0x1
 2569 0130 0B       		.uleb128 0xb
 2570 0131 0B       		.uleb128 0xb
 2571 0132 3A       		.uleb128 0x3a
 2572 0133 0B       		.uleb128 0xb
 2573 0134 3B       		.uleb128 0x3b
 2574 0135 05       		.uleb128 0x5
 2575 0136 01       		.uleb128 0x1
 2576 0137 13       		.uleb128 0x13
 2577 0138 00       		.byte	0
 2578 0139 00       		.byte	0
 2579 013a 1B       		.uleb128 0x1b
 2580 013b 0D       		.uleb128 0xd
 2581 013c 00       		.byte	0
 2582 013d 03       		.uleb128 0x3
 2583 013e 0E       		.uleb128 0xe
 2584 013f 3A       		.uleb128 0x3a
 2585 0140 0B       		.uleb128 0xb
 2586 0141 3B       		.uleb128 0x3b
 2587 0142 05       		.uleb128 0x5
 2588 0143 49       		.uleb128 0x49
 2589 0144 13       		.uleb128 0x13
 2590 0145 00       		.byte	0
 2591 0146 00       		.byte	0
 2592 0147 1C       		.uleb128 0x1c
 2593 0148 15       		.uleb128 0x15
 2594 0149 01       		.byte	0x1
 2595 014a 27       		.uleb128 0x27
 2596 014b 0C       		.uleb128 0xc
 2597 014c 01       		.uleb128 0x1
 2598 014d 13       		.uleb128 0x13
 2599 014e 00       		.byte	0
 2600 014f 00       		.byte	0
 2601 0150 1D       		.uleb128 0x1d
 2602 0151 34       		.uleb128 0x34
 2603 0152 00       		.byte	0
 2604 0153 03       		.uleb128 0x3
 2605 0154 0E       		.uleb128 0xe
 2606 0155 3A       		.uleb128 0x3a
 2607 0156 0B       		.uleb128 0xb
 2608 0157 3B       		.uleb128 0x3b
 2609 0158 05       		.uleb128 0x5
 2610 0159 49       		.uleb128 0x49
 2611 015a 13       		.uleb128 0x13
 2612 015b 3F       		.uleb128 0x3f
 2613 015c 0C       		.uleb128 0xc
 2614 015d 3C       		.uleb128 0x3c
 2615 015e 0C       		.uleb128 0xc
 2616 015f 00       		.byte	0
 2617 0160 00       		.byte	0
 2618 0161 1E       		.uleb128 0x1e
 2619 0162 04       		.uleb128 0x4
 2620 0163 01       		.byte	0x1
 2621 0164 03       		.uleb128 0x3
ARM GAS  C:\Users\EBANO_~1\AppData\Local\Temp\cca1ab55.s 			page 56


 2622 0165 0E       		.uleb128 0xe
 2623 0166 3E       		.uleb128 0x3e
 2624 0167 0B       		.uleb128 0xb
 2625 0168 0B       		.uleb128 0xb
 2626 0169 0B       		.uleb128 0xb
 2627 016a 49       		.uleb128 0x49
 2628 016b 13       		.uleb128 0x13
 2629 016c 3A       		.uleb128 0x3a
 2630 016d 0B       		.uleb128 0xb
 2631 016e 3B       		.uleb128 0x3b
 2632 016f 05       		.uleb128 0x5
 2633 0170 01       		.uleb128 0x1
 2634 0171 13       		.uleb128 0x13
 2635 0172 00       		.byte	0
 2636 0173 00       		.byte	0
 2637 0174 1F       		.uleb128 0x1f
 2638 0175 28       		.uleb128 0x28
 2639 0176 00       		.byte	0
 2640 0177 03       		.uleb128 0x3
 2641 0178 0E       		.uleb128 0xe
 2642 0179 1C       		.uleb128 0x1c
 2643 017a 0D       		.uleb128 0xd
 2644 017b 00       		.byte	0
 2645 017c 00       		.byte	0
 2646 017d 20       		.uleb128 0x20
 2647 017e 28       		.uleb128 0x28
 2648 017f 00       		.byte	0
 2649 0180 03       		.uleb128 0x3
 2650 0181 0E       		.uleb128 0xe
 2651 0182 1C       		.uleb128 0x1c
 2652 0183 0B       		.uleb128 0xb
 2653 0184 00       		.byte	0
 2654 0185 00       		.byte	0
 2655 0186 21       		.uleb128 0x21
 2656 0187 34       		.uleb128 0x34
 2657 0188 00       		.byte	0
 2658 0189 03       		.uleb128 0x3
 2659 018a 0E       		.uleb128 0xe
 2660 018b 3A       		.uleb128 0x3a
 2661 018c 0B       		.uleb128 0xb
 2662 018d 3B       		.uleb128 0x3b
 2663 018e 0B       		.uleb128 0xb
 2664 018f 49       		.uleb128 0x49
 2665 0190 13       		.uleb128 0x13
 2666 0191 3F       		.uleb128 0x3f
 2667 0192 0C       		.uleb128 0xc
 2668 0193 3C       		.uleb128 0x3c
 2669 0194 0C       		.uleb128 0xc
 2670 0195 00       		.byte	0
 2671 0196 00       		.byte	0
 2672 0197 22       		.uleb128 0x22
 2673 0198 04       		.uleb128 0x4
 2674 0199 01       		.byte	0x1
 2675 019a 3E       		.uleb128 0x3e
 2676 019b 0B       		.uleb128 0xb
 2677 019c 0B       		.uleb128 0xb
 2678 019d 0B       		.uleb128 0xb
ARM GAS  C:\Users\EBANO_~1\AppData\Local\Temp\cca1ab55.s 			page 57


 2679 019e 49       		.uleb128 0x49
 2680 019f 13       		.uleb128 0x13
 2681 01a0 3A       		.uleb128 0x3a
 2682 01a1 0B       		.uleb128 0xb
 2683 01a2 3B       		.uleb128 0x3b
 2684 01a3 0B       		.uleb128 0xb
 2685 01a4 01       		.uleb128 0x1
 2686 01a5 13       		.uleb128 0x13
 2687 01a6 00       		.byte	0
 2688 01a7 00       		.byte	0
 2689 01a8 23       		.uleb128 0x23
 2690 01a9 34       		.uleb128 0x34
 2691 01aa 00       		.byte	0
 2692 01ab 03       		.uleb128 0x3
 2693 01ac 0E       		.uleb128 0xe
 2694 01ad 3A       		.uleb128 0x3a
 2695 01ae 0B       		.uleb128 0xb
 2696 01af 3B       		.uleb128 0x3b
 2697 01b0 0B       		.uleb128 0xb
 2698 01b1 49       		.uleb128 0x49
 2699 01b2 13       		.uleb128 0x13
 2700 01b3 02       		.uleb128 0x2
 2701 01b4 0A       		.uleb128 0xa
 2702 01b5 00       		.byte	0
 2703 01b6 00       		.byte	0
 2704 01b7 24       		.uleb128 0x24
 2705 01b8 2E       		.uleb128 0x2e
 2706 01b9 00       		.byte	0
 2707 01ba 3F       		.uleb128 0x3f
 2708 01bb 0C       		.uleb128 0xc
 2709 01bc 03       		.uleb128 0x3
 2710 01bd 0E       		.uleb128 0xe
 2711 01be 3A       		.uleb128 0x3a
 2712 01bf 0B       		.uleb128 0xb
 2713 01c0 3B       		.uleb128 0x3b
 2714 01c1 0B       		.uleb128 0xb
 2715 01c2 27       		.uleb128 0x27
 2716 01c3 0C       		.uleb128 0xc
 2717 01c4 00       		.byte	0
 2718 01c5 00       		.byte	0
 2719 01c6 25       		.uleb128 0x25
 2720 01c7 2E       		.uleb128 0x2e
 2721 01c8 00       		.byte	0
 2722 01c9 3F       		.uleb128 0x3f
 2723 01ca 0C       		.uleb128 0xc
 2724 01cb 03       		.uleb128 0x3
 2725 01cc 0E       		.uleb128 0xe
 2726 01cd 3A       		.uleb128 0x3a
 2727 01ce 0B       		.uleb128 0xb
 2728 01cf 3B       		.uleb128 0x3b
 2729 01d0 0B       		.uleb128 0xb
 2730 01d1 27       		.uleb128 0x27
 2731 01d2 0C       		.uleb128 0xc
 2732 01d3 20       		.uleb128 0x20
 2733 01d4 0B       		.uleb128 0xb
 2734 01d5 00       		.byte	0
 2735 01d6 00       		.byte	0
ARM GAS  C:\Users\EBANO_~1\AppData\Local\Temp\cca1ab55.s 			page 58


 2736 01d7 26       		.uleb128 0x26
 2737 01d8 2E       		.uleb128 0x2e
 2738 01d9 01       		.byte	0x1
 2739 01da 3F       		.uleb128 0x3f
 2740 01db 0C       		.uleb128 0xc
 2741 01dc 03       		.uleb128 0x3
 2742 01dd 0E       		.uleb128 0xe
 2743 01de 3A       		.uleb128 0x3a
 2744 01df 0B       		.uleb128 0xb
 2745 01e0 3B       		.uleb128 0x3b
 2746 01e1 0B       		.uleb128 0xb
 2747 01e2 27       		.uleb128 0x27
 2748 01e3 0C       		.uleb128 0xc
 2749 01e4 49       		.uleb128 0x49
 2750 01e5 13       		.uleb128 0x13
 2751 01e6 11       		.uleb128 0x11
 2752 01e7 01       		.uleb128 0x1
 2753 01e8 12       		.uleb128 0x12
 2754 01e9 01       		.uleb128 0x1
 2755 01ea 40       		.uleb128 0x40
 2756 01eb 0A       		.uleb128 0xa
 2757 01ec 9742     		.uleb128 0x2117
 2758 01ee 0C       		.uleb128 0xc
 2759 01ef 01       		.uleb128 0x1
 2760 01f0 13       		.uleb128 0x13
 2761 01f1 00       		.byte	0
 2762 01f2 00       		.byte	0
 2763 01f3 27       		.uleb128 0x27
 2764 01f4 34       		.uleb128 0x34
 2765 01f5 00       		.byte	0
 2766 01f6 03       		.uleb128 0x3
 2767 01f7 0E       		.uleb128 0xe
 2768 01f8 3A       		.uleb128 0x3a
 2769 01f9 0B       		.uleb128 0xb
 2770 01fa 3B       		.uleb128 0x3b
 2771 01fb 0B       		.uleb128 0xb
 2772 01fc 49       		.uleb128 0x49
 2773 01fd 13       		.uleb128 0x13
 2774 01fe 00       		.byte	0
 2775 01ff 00       		.byte	0
 2776 0200 28       		.uleb128 0x28
 2777 0201 1D       		.uleb128 0x1d
 2778 0202 01       		.byte	0x1
 2779 0203 31       		.uleb128 0x31
 2780 0204 13       		.uleb128 0x13
 2781 0205 11       		.uleb128 0x11
 2782 0206 01       		.uleb128 0x1
 2783 0207 12       		.uleb128 0x12
 2784 0208 01       		.uleb128 0x1
 2785 0209 58       		.uleb128 0x58
 2786 020a 0B       		.uleb128 0xb
 2787 020b 59       		.uleb128 0x59
 2788 020c 0B       		.uleb128 0xb
 2789 020d 01       		.uleb128 0x1
 2790 020e 13       		.uleb128 0x13
 2791 020f 00       		.byte	0
 2792 0210 00       		.byte	0
ARM GAS  C:\Users\EBANO_~1\AppData\Local\Temp\cca1ab55.s 			page 59


 2793 0211 29       		.uleb128 0x29
 2794 0212 0B       		.uleb128 0xb
 2795 0213 01       		.byte	0x1
 2796 0214 11       		.uleb128 0x11
 2797 0215 01       		.uleb128 0x1
 2798 0216 12       		.uleb128 0x12
 2799 0217 01       		.uleb128 0x1
 2800 0218 00       		.byte	0
 2801 0219 00       		.byte	0
 2802 021a 2A       		.uleb128 0x2a
 2803 021b 34       		.uleb128 0x34
 2804 021c 00       		.byte	0
 2805 021d 31       		.uleb128 0x31
 2806 021e 13       		.uleb128 0x13
 2807 021f 02       		.uleb128 0x2
 2808 0220 0A       		.uleb128 0xa
 2809 0221 00       		.byte	0
 2810 0222 00       		.byte	0
 2811 0223 2B       		.uleb128 0x2b
 2812 0224 1D       		.uleb128 0x1d
 2813 0225 00       		.byte	0
 2814 0226 31       		.uleb128 0x31
 2815 0227 13       		.uleb128 0x13
 2816 0228 11       		.uleb128 0x11
 2817 0229 01       		.uleb128 0x1
 2818 022a 12       		.uleb128 0x12
 2819 022b 01       		.uleb128 0x1
 2820 022c 58       		.uleb128 0x58
 2821 022d 0B       		.uleb128 0xb
 2822 022e 59       		.uleb128 0x59
 2823 022f 0B       		.uleb128 0xb
 2824 0230 00       		.byte	0
 2825 0231 00       		.byte	0
 2826 0232 2C       		.uleb128 0x2c
 2827 0233 1D       		.uleb128 0x1d
 2828 0234 01       		.byte	0x1
 2829 0235 31       		.uleb128 0x31
 2830 0236 13       		.uleb128 0x13
 2831 0237 11       		.uleb128 0x11
 2832 0238 01       		.uleb128 0x1
 2833 0239 12       		.uleb128 0x12
 2834 023a 01       		.uleb128 0x1
 2835 023b 58       		.uleb128 0x58
 2836 023c 0B       		.uleb128 0xb
 2837 023d 59       		.uleb128 0x59
 2838 023e 0B       		.uleb128 0xb
 2839 023f 00       		.byte	0
 2840 0240 00       		.byte	0
 2841 0241 2D       		.uleb128 0x2d
 2842 0242 05       		.uleb128 0x5
 2843 0243 00       		.byte	0
 2844 0244 31       		.uleb128 0x31
 2845 0245 13       		.uleb128 0x13
 2846 0246 02       		.uleb128 0x2
 2847 0247 06       		.uleb128 0x6
 2848 0248 00       		.byte	0
 2849 0249 00       		.byte	0
ARM GAS  C:\Users\EBANO_~1\AppData\Local\Temp\cca1ab55.s 			page 60


 2850 024a 2E       		.uleb128 0x2e
 2851 024b 2E       		.uleb128 0x2e
 2852 024c 01       		.byte	0x1
 2853 024d 3F       		.uleb128 0x3f
 2854 024e 0C       		.uleb128 0xc
 2855 024f 03       		.uleb128 0x3
 2856 0250 0E       		.uleb128 0xe
 2857 0251 3A       		.uleb128 0x3a
 2858 0252 0B       		.uleb128 0xb
 2859 0253 3B       		.uleb128 0x3b
 2860 0254 0B       		.uleb128 0xb
 2861 0255 27       		.uleb128 0x27
 2862 0256 0C       		.uleb128 0xc
 2863 0257 11       		.uleb128 0x11
 2864 0258 01       		.uleb128 0x1
 2865 0259 12       		.uleb128 0x12
 2866 025a 01       		.uleb128 0x1
 2867 025b 40       		.uleb128 0x40
 2868 025c 06       		.uleb128 0x6
 2869 025d 9742     		.uleb128 0x2117
 2870 025f 0C       		.uleb128 0xc
 2871 0260 01       		.uleb128 0x1
 2872 0261 13       		.uleb128 0x13
 2873 0262 00       		.byte	0
 2874 0263 00       		.byte	0
 2875 0264 2F       		.uleb128 0x2f
 2876 0265 898201   		.uleb128 0x4109
 2877 0268 00       		.byte	0
 2878 0269 11       		.uleb128 0x11
 2879 026a 01       		.uleb128 0x1
 2880 026b 31       		.uleb128 0x31
 2881 026c 13       		.uleb128 0x13
 2882 026d 00       		.byte	0
 2883 026e 00       		.byte	0
 2884 026f 30       		.uleb128 0x30
 2885 0270 2E       		.uleb128 0x2e
 2886 0271 01       		.byte	0x1
 2887 0272 3F       		.uleb128 0x3f
 2888 0273 0C       		.uleb128 0xc
 2889 0274 03       		.uleb128 0x3
 2890 0275 0E       		.uleb128 0xe
 2891 0276 3A       		.uleb128 0x3a
 2892 0277 0B       		.uleb128 0xb
 2893 0278 3B       		.uleb128 0x3b
 2894 0279 0B       		.uleb128 0xb
 2895 027a 27       		.uleb128 0x27
 2896 027b 0C       		.uleb128 0xc
 2897 027c 11       		.uleb128 0x11
 2898 027d 01       		.uleb128 0x1
 2899 027e 12       		.uleb128 0x12
 2900 027f 01       		.uleb128 0x1
 2901 0280 40       		.uleb128 0x40
 2902 0281 0A       		.uleb128 0xa
 2903 0282 9742     		.uleb128 0x2117
 2904 0284 0C       		.uleb128 0xc
 2905 0285 01       		.uleb128 0x1
 2906 0286 13       		.uleb128 0x13
ARM GAS  C:\Users\EBANO_~1\AppData\Local\Temp\cca1ab55.s 			page 61


 2907 0287 00       		.byte	0
 2908 0288 00       		.byte	0
 2909 0289 31       		.uleb128 0x31
 2910 028a 05       		.uleb128 0x5
 2911 028b 00       		.byte	0
 2912 028c 03       		.uleb128 0x3
 2913 028d 08       		.uleb128 0x8
 2914 028e 3A       		.uleb128 0x3a
 2915 028f 0B       		.uleb128 0xb
 2916 0290 3B       		.uleb128 0x3b
 2917 0291 0B       		.uleb128 0xb
 2918 0292 49       		.uleb128 0x49
 2919 0293 13       		.uleb128 0x13
 2920 0294 02       		.uleb128 0x2
 2921 0295 06       		.uleb128 0x6
 2922 0296 00       		.byte	0
 2923 0297 00       		.byte	0
 2924 0298 32       		.uleb128 0x32
 2925 0299 05       		.uleb128 0x5
 2926 029a 00       		.byte	0
 2927 029b 03       		.uleb128 0x3
 2928 029c 0E       		.uleb128 0xe
 2929 029d 3A       		.uleb128 0x3a
 2930 029e 0B       		.uleb128 0xb
 2931 029f 3B       		.uleb128 0x3b
 2932 02a0 0B       		.uleb128 0xb
 2933 02a1 49       		.uleb128 0x49
 2934 02a2 13       		.uleb128 0x13
 2935 02a3 02       		.uleb128 0x2
 2936 02a4 06       		.uleb128 0x6
 2937 02a5 00       		.byte	0
 2938 02a6 00       		.byte	0
 2939 02a7 33       		.uleb128 0x33
 2940 02a8 2E       		.uleb128 0x2e
 2941 02a9 01       		.byte	0x1
 2942 02aa 03       		.uleb128 0x3
 2943 02ab 0E       		.uleb128 0xe
 2944 02ac 3A       		.uleb128 0x3a
 2945 02ad 0B       		.uleb128 0xb
 2946 02ae 3B       		.uleb128 0x3b
 2947 02af 05       		.uleb128 0x5
 2948 02b0 27       		.uleb128 0x27
 2949 02b1 0C       		.uleb128 0xc
 2950 02b2 20       		.uleb128 0x20
 2951 02b3 0B       		.uleb128 0xb
 2952 02b4 01       		.uleb128 0x1
 2953 02b5 13       		.uleb128 0x13
 2954 02b6 00       		.byte	0
 2955 02b7 00       		.byte	0
 2956 02b8 34       		.uleb128 0x34
 2957 02b9 05       		.uleb128 0x5
 2958 02ba 00       		.byte	0
 2959 02bb 03       		.uleb128 0x3
 2960 02bc 0E       		.uleb128 0xe
 2961 02bd 3A       		.uleb128 0x3a
 2962 02be 0B       		.uleb128 0xb
 2963 02bf 3B       		.uleb128 0x3b
ARM GAS  C:\Users\EBANO_~1\AppData\Local\Temp\cca1ab55.s 			page 62


 2964 02c0 05       		.uleb128 0x5
 2965 02c1 49       		.uleb128 0x49
 2966 02c2 13       		.uleb128 0x13
 2967 02c3 00       		.byte	0
 2968 02c4 00       		.byte	0
 2969 02c5 35       		.uleb128 0x35
 2970 02c6 2E       		.uleb128 0x2e
 2971 02c7 01       		.byte	0x1
 2972 02c8 03       		.uleb128 0x3
 2973 02c9 0E       		.uleb128 0xe
 2974 02ca 3A       		.uleb128 0x3a
 2975 02cb 0B       		.uleb128 0xb
 2976 02cc 3B       		.uleb128 0x3b
 2977 02cd 05       		.uleb128 0x5
 2978 02ce 27       		.uleb128 0x27
 2979 02cf 0C       		.uleb128 0xc
 2980 02d0 49       		.uleb128 0x49
 2981 02d1 13       		.uleb128 0x13
 2982 02d2 20       		.uleb128 0x20
 2983 02d3 0B       		.uleb128 0xb
 2984 02d4 01       		.uleb128 0x1
 2985 02d5 13       		.uleb128 0x13
 2986 02d6 00       		.byte	0
 2987 02d7 00       		.byte	0
 2988 02d8 36       		.uleb128 0x36
 2989 02d9 34       		.uleb128 0x34
 2990 02da 00       		.byte	0
 2991 02db 03       		.uleb128 0x3
 2992 02dc 0E       		.uleb128 0xe
 2993 02dd 3A       		.uleb128 0x3a
 2994 02de 0B       		.uleb128 0xb
 2995 02df 3B       		.uleb128 0x3b
 2996 02e0 05       		.uleb128 0x5
 2997 02e1 49       		.uleb128 0x49
 2998 02e2 13       		.uleb128 0x13
 2999 02e3 00       		.byte	0
 3000 02e4 00       		.byte	0
 3001 02e5 37       		.uleb128 0x37
 3002 02e6 2E       		.uleb128 0x2e
 3003 02e7 00       		.byte	0
 3004 02e8 03       		.uleb128 0x3
 3005 02e9 0E       		.uleb128 0xe
 3006 02ea 3A       		.uleb128 0x3a
 3007 02eb 0B       		.uleb128 0xb
 3008 02ec 3B       		.uleb128 0x3b
 3009 02ed 0B       		.uleb128 0xb
 3010 02ee 27       		.uleb128 0x27
 3011 02ef 0C       		.uleb128 0xc
 3012 02f0 20       		.uleb128 0x20
 3013 02f1 0B       		.uleb128 0xb
 3014 02f2 00       		.byte	0
 3015 02f3 00       		.byte	0
 3016 02f4 38       		.uleb128 0x38
 3017 02f5 2E       		.uleb128 0x2e
 3018 02f6 00       		.byte	0
 3019 02f7 31       		.uleb128 0x31
 3020 02f8 13       		.uleb128 0x13
ARM GAS  C:\Users\EBANO_~1\AppData\Local\Temp\cca1ab55.s 			page 63


 3021 02f9 11       		.uleb128 0x11
 3022 02fa 01       		.uleb128 0x1
 3023 02fb 12       		.uleb128 0x12
 3024 02fc 01       		.uleb128 0x1
 3025 02fd 40       		.uleb128 0x40
 3026 02fe 0A       		.uleb128 0xa
 3027 02ff 9742     		.uleb128 0x2117
 3028 0301 0C       		.uleb128 0xc
 3029 0302 00       		.byte	0
 3030 0303 00       		.byte	0
 3031 0304 00       		.byte	0
 3032              		.section	.debug_loc,"",%progbits
 3033              	.Ldebug_loc0:
 3034              	.LLST6:
 3035 0000 18000000 		.4byte	.LVL14
 3036 0004 1C000000 		.4byte	.LVL15
 3037 0008 0100     		.2byte	0x1
 3038 000a 52       		.byte	0x52
 3039 000b 00000000 		.4byte	0
 3040 000f 00000000 		.4byte	0
 3041              	.LLST7:
 3042 0013 00000000 		.4byte	.LFB41
 3043 0017 04000000 		.4byte	.LCFI0
 3044 001b 0200     		.2byte	0x2
 3045 001d 7D       		.byte	0x7d
 3046 001e 00       		.sleb128 0
 3047 001f 04000000 		.4byte	.LCFI0
 3048 0023 34000000 		.4byte	.LFE41
 3049 0027 0200     		.2byte	0x2
 3050 0029 7D       		.byte	0x7d
 3051 002a 08       		.sleb128 8
 3052 002b 00000000 		.4byte	0
 3053 002f 00000000 		.4byte	0
 3054              	.LLST3:
 3055 0033 00000000 		.4byte	.LVL7
 3056 0037 14000000 		.4byte	.LVL9
 3057 003b 0100     		.2byte	0x1
 3058 003d 50       		.byte	0x50
 3059 003e 14000000 		.4byte	.LVL9
 3060 0042 1C000000 		.4byte	.LVL12
 3061 0046 0400     		.2byte	0x4
 3062 0048 F3       		.byte	0xf3
 3063 0049 01       		.uleb128 0x1
 3064 004a 50       		.byte	0x50
 3065 004b 9F       		.byte	0x9f
 3066 004c 1C000000 		.4byte	.LVL12
 3067 0050 2C000000 		.4byte	.LFE40
 3068 0054 0100     		.2byte	0x1
 3069 0056 50       		.byte	0x50
 3070 0057 00000000 		.4byte	0
 3071 005b 00000000 		.4byte	0
 3072              	.LLST4:
 3073 005f 00000000 		.4byte	.LVL7
 3074 0063 12000000 		.4byte	.LVL8
 3075 0067 0100     		.2byte	0x1
 3076 0069 51       		.byte	0x51
 3077 006a 12000000 		.4byte	.LVL8
ARM GAS  C:\Users\EBANO_~1\AppData\Local\Temp\cca1ab55.s 			page 64


 3078 006e 1C000000 		.4byte	.LVL12
 3079 0072 0400     		.2byte	0x4
 3080 0074 F3       		.byte	0xf3
 3081 0075 01       		.uleb128 0x1
 3082 0076 51       		.byte	0x51
 3083 0077 9F       		.byte	0x9f
 3084 0078 1C000000 		.4byte	.LVL12
 3085 007c 1E000000 		.4byte	.LVL13
 3086 0080 0100     		.2byte	0x1
 3087 0082 51       		.byte	0x51
 3088 0083 1E000000 		.4byte	.LVL13
 3089 0087 2C000000 		.4byte	.LFE40
 3090 008b 0400     		.2byte	0x4
 3091 008d F3       		.byte	0xf3
 3092 008e 01       		.uleb128 0x1
 3093 008f 51       		.byte	0x51
 3094 0090 9F       		.byte	0x9f
 3095 0091 00000000 		.4byte	0
 3096 0095 00000000 		.4byte	0
 3097              	.LLST5:
 3098 0099 16000000 		.4byte	.LVL10
 3099 009d 1A000000 		.4byte	.LVL11
 3100 00a1 0100     		.2byte	0x1
 3101 00a3 53       		.byte	0x53
 3102 00a4 00000000 		.4byte	0
 3103 00a8 00000000 		.4byte	0
 3104              	.LLST0:
 3105 00ac 00000000 		.4byte	.LVL0
 3106 00b0 14000000 		.4byte	.LVL2
 3107 00b4 0100     		.2byte	0x1
 3108 00b6 50       		.byte	0x50
 3109 00b7 14000000 		.4byte	.LVL2
 3110 00bb 1C000000 		.4byte	.LVL5
 3111 00bf 0400     		.2byte	0x4
 3112 00c1 F3       		.byte	0xf3
 3113 00c2 01       		.uleb128 0x1
 3114 00c3 50       		.byte	0x50
 3115 00c4 9F       		.byte	0x9f
 3116 00c5 1C000000 		.4byte	.LVL5
 3117 00c9 2C000000 		.4byte	.LFE39
 3118 00cd 0100     		.2byte	0x1
 3119 00cf 50       		.byte	0x50
 3120 00d0 00000000 		.4byte	0
 3121 00d4 00000000 		.4byte	0
 3122              	.LLST1:
 3123 00d8 00000000 		.4byte	.LVL0
 3124 00dc 12000000 		.4byte	.LVL1
 3125 00e0 0100     		.2byte	0x1
 3126 00e2 51       		.byte	0x51
 3127 00e3 12000000 		.4byte	.LVL1
 3128 00e7 1C000000 		.4byte	.LVL5
 3129 00eb 0400     		.2byte	0x4
 3130 00ed F3       		.byte	0xf3
 3131 00ee 01       		.uleb128 0x1
 3132 00ef 51       		.byte	0x51
 3133 00f0 9F       		.byte	0x9f
 3134 00f1 1C000000 		.4byte	.LVL5
ARM GAS  C:\Users\EBANO_~1\AppData\Local\Temp\cca1ab55.s 			page 65


 3135 00f5 1E000000 		.4byte	.LVL6
 3136 00f9 0100     		.2byte	0x1
 3137 00fb 51       		.byte	0x51
 3138 00fc 1E000000 		.4byte	.LVL6
 3139 0100 2C000000 		.4byte	.LFE39
 3140 0104 0400     		.2byte	0x4
 3141 0106 F3       		.byte	0xf3
 3142 0107 01       		.uleb128 0x1
 3143 0108 51       		.byte	0x51
 3144 0109 9F       		.byte	0x9f
 3145 010a 00000000 		.4byte	0
 3146 010e 00000000 		.4byte	0
 3147              	.LLST2:
 3148 0112 16000000 		.4byte	.LVL3
 3149 0116 1A000000 		.4byte	.LVL4
 3150 011a 0100     		.2byte	0x1
 3151 011c 53       		.byte	0x53
 3152 011d 00000000 		.4byte	0
 3153 0121 00000000 		.4byte	0
 3154              		.section	.debug_aranges,"",%progbits
 3155 0000 3C000000 		.4byte	0x3c
 3156 0004 0200     		.2byte	0x2
 3157 0006 00000000 		.4byte	.Ldebug_info0
 3158 000a 04       		.byte	0x4
 3159 000b 00       		.byte	0
 3160 000c 0000     		.2byte	0
 3161 000e 0000     		.2byte	0
 3162 0010 00000000 		.4byte	.LFB39
 3163 0014 2C000000 		.4byte	.LFE39-.LFB39
 3164 0018 00000000 		.4byte	.LFB40
 3165 001c 2C000000 		.4byte	.LFE40-.LFB40
 3166 0020 00000000 		.4byte	.LFB42
 3167 0024 24000000 		.4byte	.LFE42-.LFB42
 3168 0028 00000000 		.4byte	.LFB43
 3169 002c 02000000 		.4byte	.LFE43-.LFB43
 3170 0030 00000000 		.4byte	.LFB41
 3171 0034 34000000 		.4byte	.LFE41-.LFB41
 3172 0038 00000000 		.4byte	0
 3173 003c 00000000 		.4byte	0
 3174              		.section	.debug_ranges,"",%progbits
 3175              	.Ldebug_ranges0:
 3176 0000 00000000 		.4byte	.LFB39
 3177 0004 2C000000 		.4byte	.LFE39
 3178 0008 00000000 		.4byte	.LFB40
 3179 000c 2C000000 		.4byte	.LFE40
 3180 0010 00000000 		.4byte	.LFB42
 3181 0014 24000000 		.4byte	.LFE42
 3182 0018 00000000 		.4byte	.LFB43
 3183 001c 02000000 		.4byte	.LFE43
 3184 0020 00000000 		.4byte	.LFB41
 3185 0024 34000000 		.4byte	.LFE41
 3186 0028 00000000 		.4byte	0
 3187 002c 00000000 		.4byte	0
 3188              		.section	.debug_line,"",%progbits
 3189              	.Ldebug_line0:
 3190 0000 D0030000 		.section	.debug_str,"MS",%progbits,1
 3190      02000903 
ARM GAS  C:\Users\EBANO_~1\AppData\Local\Temp\cca1ab55.s 			page 66


 3190      00000201 
 3190      FB0E0D00 
 3190      01010101 
 3191              	.LASF155:
 3192 0000 4F66664D 		.ascii	"OffModeDisable\000"
 3192      6F646544 
 3192      69736162 
 3192      6C6500
 3193              	.LASF5:
 3194 000f 73686F72 		.ascii	"short int\000"
 3194      7420696E 
 3194      7400
 3195              	.LASF40:
 3196 0019 5F666E61 		.ascii	"_fnargs\000"
 3196      72677300 
 3197              	.LASF93:
 3198 0021 5F72616E 		.ascii	"_rand48\000"
 3198      64343800 
 3199              	.LASF127:
 3200 0029 5F5F6664 		.ascii	"__fdlibm_xopen\000"
 3200      6C69626D 
 3200      5F786F70 
 3200      656E00
 3201              	.LASF137:
 3202 0038 4C504D5F 		.ascii	"LPM_APPLI_Id\000"
 3202      4150504C 
 3202      495F4964 
 3202      00
 3203              	.LASF145:
 3204 0045 5F646179 		.ascii	"_daylight\000"
 3204      6C696768 
 3204      7400
 3205              	.LASF8:
 3206 004f 5F5F7569 		.ascii	"__uint8_t\000"
 3206      6E74385F 
 3206      7400
 3207              	.LASF152:
 3208 0059 4C504D5F 		.ascii	"LPM_OffMode\000"
 3208      4F66664D 
 3208      6F646500 
 3209              	.LASF161:
 3210 0065 6D6F6465 		.ascii	"mode_selected\000"
 3210      5F73656C 
 3210      65637465 
 3210      6400
 3211              	.LASF85:
 3212 0073 5F617465 		.ascii	"_atexit0\000"
 3212      78697430 
 3212      00
 3213              	.LASF113:
 3214 007c 5F776372 		.ascii	"_wcrtomb_state\000"
 3214      746F6D62 
 3214      5F737461 
 3214      746500
 3215              	.LASF114:
 3216 008b 5F776373 		.ascii	"_wcsrtombs_state\000"
 3216      72746F6D 
ARM GAS  C:\Users\EBANO_~1\AppData\Local\Temp\cca1ab55.s 			page 67


 3216      62735F73 
 3216      74617465 
 3216      00
 3217              	.LASF162:
 3218 009c 4C504D5F 		.ascii	"LPM_EnterLowPower\000"
 3218      456E7465 
 3218      724C6F77 
 3218      506F7765 
 3218      7200
 3219              	.LASF11:
 3220 00ae 6C6F6E67 		.ascii	"long long unsigned int\000"
 3220      206C6F6E 
 3220      6720756E 
 3220      7369676E 
 3220      65642069 
 3221              	.LASF128:
 3222 00c5 5F5F6664 		.ascii	"__fdlibm_posix\000"
 3222      6C69626D 
 3222      5F706F73 
 3222      697800
 3223              	.LASF53:
 3224 00d4 5F6C6266 		.ascii	"_lbfsize\000"
 3224      73697A65 
 3224      00
 3225              	.LASF157:
 3226 00dd 4C504D5F 		.ascii	"LPM_EnterOffMode\000"
 3226      456E7465 
 3226      724F6666 
 3226      4D6F6465 
 3226      00
 3227              	.LASF149:
 3228 00ee 4C504D5F 		.ascii	"LPM_SetMode_t\000"
 3228      5365744D 
 3228      6F64655F 
 3228      7400
 3229              	.LASF120:
 3230 00fc 5F5F6C6F 		.ascii	"__locale_t\000"
 3230      63616C65 
 3230      5F7400
 3231              	.LASF159:
 3232 0107 4C504D5F 		.ascii	"LPM_EnterStopMode\000"
 3232      456E7465 
 3232      7253746F 
 3232      704D6F64 
 3232      6500
 3233              	.LASF140:
 3234 0119 4C504D5F 		.ascii	"LPM_GPS_Id\000"
 3234      4750535F 
 3234      496400
 3235              	.LASF142:
 3236 0124 4C504D5F 		.ascii	"LPM_UART_TX_Id\000"
 3236      55415254 
 3236      5F54585F 
 3236      496400
 3237              	.LASF129:
 3238 0133 5F5F6664 		.ascii	"__fdlib_version\000"
 3238      6C69625F 
ARM GAS  C:\Users\EBANO_~1\AppData\Local\Temp\cca1ab55.s 			page 68


 3238      76657273 
 3238      696F6E00 
 3239              	.LASF111:
 3240 0143 5F6D6272 		.ascii	"_mbrtowc_state\000"
 3240      746F7763 
 3240      5F737461 
 3240      746500
 3241              	.LASF146:
 3242 0152 5F747A6E 		.ascii	"_tzname\000"
 3242      616D6500 
 3243              	.LASF148:
 3244 015a 4C504D5F 		.ascii	"LPM_Disable\000"
 3244      44697361 
 3244      626C6500 
 3245              	.LASF30:
 3246 0166 5F5F746D 		.ascii	"__tm_sec\000"
 3246      5F736563 
 3246      00
 3247              	.LASF13:
 3248 016f 5F6F6666 		.ascii	"_off_t\000"
 3248      5F7400
 3249              	.LASF58:
 3250 0176 5F636C6F 		.ascii	"_close\000"
 3250      736500
 3251              	.LASF3:
 3252 017d 7369676E 		.ascii	"signed char\000"
 3252      65642063 
 3252      68617200 
 3253              	.LASF133:
 3254 0189 41484250 		.ascii	"AHBPrescTable\000"
 3254      72657363 
 3254      5461626C 
 3254      6500
 3255              	.LASF59:
 3256 0197 5F756275 		.ascii	"_ubuf\000"
 3256      6600
 3257              	.LASF169:
 3258 019d 2E2E2F2E 		.ascii	"../../../../../../Middlewares/Third_Party/LoRaWAN/U"
 3258      2E2F2E2E 
 3258      2F2E2E2F 
 3258      2E2E2F2E 
 3258      2E2F4D69 
 3259 01d0 74696C69 		.ascii	"tilities/low_power_manager.c\000"
 3259      74696573 
 3259      2F6C6F77 
 3259      5F706F77 
 3259      65725F6D 
 3260              	.LASF48:
 3261 01ed 5F626173 		.ascii	"_base\000"
 3261      6500
 3262              	.LASF32:
 3263 01f3 5F5F746D 		.ascii	"__tm_hour\000"
 3263      5F686F75 
 3263      7200
 3264              	.LASF88:
 3265 01fd 5F5F7366 		.ascii	"__sf\000"
 3265      00
ARM GAS  C:\Users\EBANO_~1\AppData\Local\Temp\cca1ab55.s 			page 69


 3266              	.LASF39:
 3267 0202 5F6F6E5F 		.ascii	"_on_exit_args\000"
 3267      65786974 
 3267      5F617267 
 3267      7300
 3268              	.LASF54:
 3269 0210 5F636F6F 		.ascii	"_cookie\000"
 3269      6B696500 
 3270              	.LASF87:
 3271 0218 5F5F7367 		.ascii	"__sglue\000"
 3271      6C756500 
 3272              	.LASF7:
 3273 0220 6C6F6E67 		.ascii	"long int\000"
 3273      20696E74 
 3273      00
 3274              	.LASF51:
 3275 0229 5F666C61 		.ascii	"_flags\000"
 3275      677300
 3276              	.LASF43:
 3277 0230 5F69735F 		.ascii	"_is_cxa\000"
 3277      63786100 
 3278              	.LASF69:
 3279 0238 5F737464 		.ascii	"_stdin\000"
 3279      696E00
 3280              	.LASF126:
 3281 023f 5F5F6664 		.ascii	"__fdlibm_svid\000"
 3281      6C69626D 
 3281      5F737669 
 3281      6400
 3282              	.LASF79:
 3283 024d 5F726573 		.ascii	"_result_k\000"
 3283      756C745F 
 3283      6B00
 3284              	.LASF1:
 3285 0257 6C6F6E67 		.ascii	"long long int\000"
 3285      206C6F6E 
 3285      6720696E 
 3285      7400
 3286              	.LASF124:
 3287 0265 646F7562 		.ascii	"double\000"
 3287      6C6500
 3288              	.LASF83:
 3289 026c 5F637674 		.ascii	"_cvtbuf\000"
 3289      62756600 
 3290              	.LASF62:
 3291 0274 5F6F6666 		.ascii	"_offset\000"
 3291      73657400 
 3292              	.LASF112:
 3293 027c 5F6D6273 		.ascii	"_mbsrtowcs_state\000"
 3293      72746F77 
 3293      63735F73 
 3293      74617465 
 3293      00
 3294              	.LASF172:
 3295 028d 4C504D5F 		.ascii	"LPM_EnterSleepMode\000"
 3295      456E7465 
 3295      72536C65 
ARM GAS  C:\Users\EBANO_~1\AppData\Local\Temp\cca1ab55.s 			page 70


 3295      65704D6F 
 3295      646500
 3296              	.LASF110:
 3297 02a0 5F6D6272 		.ascii	"_mbrlen_state\000"
 3297      6C656E5F 
 3297      73746174 
 3297      6500
 3298              	.LASF46:
 3299 02ae 5F666E73 		.ascii	"_fns\000"
 3299      00
 3300              	.LASF9:
 3301 02b3 5F5F7569 		.ascii	"__uint32_t\000"
 3301      6E743332 
 3301      5F7400
 3302              	.LASF150:
 3303 02be 4C504D5F 		.ascii	"LPM_SleepMode\000"
 3303      536C6565 
 3303      704D6F64 
 3303      6500
 3304              	.LASF26:
 3305 02cc 5F736967 		.ascii	"_sign\000"
 3305      6E00
 3306              	.LASF143:
 3307 02d2 4C504D5F 		.ascii	"LPM_Id_t\000"
 3307      49645F74 
 3307      00
 3308              	.LASF121:
 3309 02db 5F696D70 		.ascii	"_impure_ptr\000"
 3309      7572655F 
 3309      70747200 
 3310              	.LASF71:
 3311 02e7 5F737464 		.ascii	"_stderr\000"
 3311      65727200 
 3312              	.LASF28:
 3313 02ef 5F426967 		.ascii	"_Bigint\000"
 3313      696E7400 
 3314              	.LASF176:
 3315 02f7 5F5F6765 		.ascii	"__get_PRIMASK\000"
 3315      745F5052 
 3315      494D4153 
 3315      4B00
 3316              	.LASF55:
 3317 0305 5F726561 		.ascii	"_read\000"
 3317      6400
 3318              	.LASF173:
 3319 030b 4C504D5F 		.ascii	"LPM_GetMode\000"
 3319      4765744D 
 3319      6F646500 
 3320              	.LASF29:
 3321 0317 5F5F746D 		.ascii	"__tm\000"
 3321      00
 3322              	.LASF17:
 3323 031c 5F5F7763 		.ascii	"__wchb\000"
 3323      686200
 3324              	.LASF132:
 3325 0323 53797374 		.ascii	"SystemCoreClock\000"
 3325      656D436F 
ARM GAS  C:\Users\EBANO_~1\AppData\Local\Temp\cca1ab55.s 			page 71


 3325      7265436C 
 3325      6F636B00 
 3326              	.LASF70:
 3327 0333 5F737464 		.ascii	"_stdout\000"
 3327      6F757400 
 3328              	.LASF82:
 3329 033b 5F637674 		.ascii	"_cvtlen\000"
 3329      6C656E00 
 3330              	.LASF10:
 3331 0343 6C6F6E67 		.ascii	"long unsigned int\000"
 3331      20756E73 
 3331      69676E65 
 3331      6420696E 
 3331      7400
 3332              	.LASF52:
 3333 0355 5F66696C 		.ascii	"_file\000"
 3333      6500
 3334              	.LASF158:
 3335 035b 4C504D5F 		.ascii	"LPM_ExitStopMode\000"
 3335      45786974 
 3335      53746F70 
 3335      4D6F6465 
 3335      00
 3336              	.LASF63:
 3337 036c 5F646174 		.ascii	"_data\000"
 3337      6100
 3338              	.LASF91:
 3339 0372 5F6E696F 		.ascii	"_niobs\000"
 3339      627300
 3340              	.LASF102:
 3341 0379 5F72616E 		.ascii	"_rand_next\000"
 3341      645F6E65 
 3341      787400
 3342              	.LASF163:
 3343 0384 4C504D5F 		.ascii	"LPM_SetStopMode\000"
 3343      53657453 
 3343      746F704D 
 3343      6F646500 
 3344              	.LASF108:
 3345 0394 5F736967 		.ascii	"_signal_buf\000"
 3345      6E616C5F 
 3345      62756600 
 3346              	.LASF99:
 3347 03a0 5F617363 		.ascii	"_asctime_buf\000"
 3347      74696D65 
 3347      5F627566 
 3347      00
 3348              	.LASF78:
 3349 03ad 5F726573 		.ascii	"_result\000"
 3349      756C7400 
 3350              	.LASF16:
 3351 03b5 5F5F7763 		.ascii	"__wch\000"
 3351      6800
 3352              	.LASF116:
 3353 03bb 5F6E6578 		.ascii	"_nextf\000"
 3353      746600
 3354              	.LASF12:
ARM GAS  C:\Users\EBANO_~1\AppData\Local\Temp\cca1ab55.s 			page 72


 3355 03c2 5F4C4F43 		.ascii	"_LOCK_T\000"
 3355      4B5F5400 
 3356              	.LASF84:
 3357 03ca 5F6E6577 		.ascii	"_new\000"
 3357      00
 3358              	.LASF64:
 3359 03cf 5F6C6F63 		.ascii	"_lock\000"
 3359      6B00
 3360              	.LASF95:
 3361 03d5 5F6D756C 		.ascii	"_mult\000"
 3361      7400
 3362              	.LASF56:
 3363 03db 5F777269 		.ascii	"_write\000"
 3363      746500
 3364              	.LASF35:
 3365 03e2 5F5F746D 		.ascii	"__tm_year\000"
 3365      5F796561 
 3365      7200
 3366              	.LASF166:
 3367 03ec 4C504D5F 		.ascii	"LPM_SetOffMode\000"
 3367      5365744F 
 3367      66664D6F 
 3367      646500
 3368              	.LASF117:
 3369 03fb 5F6E6D61 		.ascii	"_nmalloc\000"
 3369      6C6C6F63 
 3369      00
 3370              	.LASF138:
 3371 0404 4C504D5F 		.ascii	"LPM_LIB_Id\000"
 3371      4C49425F 
 3371      496400
 3372              	.LASF135:
 3373 040f 504C4C4D 		.ascii	"PLLMulTable\000"
 3373      756C5461 
 3373      626C6500 
 3374              	.LASF20:
 3375 041b 5F6D6273 		.ascii	"_mbstate_t\000"
 3375      74617465 
 3375      5F7400
 3376              	.LASF134:
 3377 0426 41504250 		.ascii	"APBPrescTable\000"
 3377      72657363 
 3377      5461626C 
 3377      6500
 3378              	.LASF154:
 3379 0434 53746F70 		.ascii	"StopModeDisable\000"
 3379      4D6F6465 
 3379      44697361 
 3379      626C6500 
 3380              	.LASF34:
 3381 0444 5F5F746D 		.ascii	"__tm_mon\000"
 3381      5F6D6F6E 
 3381      00
 3382              	.LASF44:
 3383 044d 5F617465 		.ascii	"_atexit\000"
 3383      78697400 
 3384              	.LASF136:
ARM GAS  C:\Users\EBANO_~1\AppData\Local\Temp\cca1ab55.s 			page 73


 3385 0455 7375626F 		.ascii	"suboptarg\000"
 3385      70746172 
 3385      6700
 3386              	.LASF76:
 3387 045f 5F5F7364 		.ascii	"__sdidinit\000"
 3387      6964696E 
 3387      697400
 3388              	.LASF101:
 3389 046a 5F67616D 		.ascii	"_gamma_signgam\000"
 3389      6D615F73 
 3389      69676E67 
 3389      616D00
 3390              	.LASF174:
 3391 0479 5F5F7365 		.ascii	"__set_PRIMASK\000"
 3391      745F5052 
 3391      494D4153 
 3391      4B00
 3392              	.LASF15:
 3393 0487 77696E74 		.ascii	"wint_t\000"
 3393      5F7400
 3394              	.LASF123:
 3395 048e 666C6F61 		.ascii	"float\000"
 3395      7400
 3396              	.LASF81:
 3397 0494 5F667265 		.ascii	"_freelist\000"
 3397      656C6973 
 3397      7400
 3398              	.LASF144:
 3399 049e 5F74696D 		.ascii	"_timezone\000"
 3399      657A6F6E 
 3399      6500
 3400              	.LASF177:
 3401 04a8 5F5F6469 		.ascii	"__disable_irq\000"
 3401      7361626C 
 3401      655F6972 
 3401      7100
 3402              	.LASF106:
 3403 04b6 5F776374 		.ascii	"_wctomb_state\000"
 3403      6F6D625F 
 3403      73746174 
 3403      6500
 3404              	.LASF168:
 3405 04c4 474E5520 		.ascii	"GNU C11 7.3.1 20180622 (release) [ARM/embedded-7-br"
 3405      43313120 
 3405      372E332E 
 3405      31203230 
 3405      31383036 
 3406 04f7 616E6368 		.ascii	"anch revision 261907] -mcpu=cortex-m0plus -mthumb -"
 3406      20726576 
 3406      6973696F 
 3406      6E203236 
 3406      31393037 
 3407 052a 6D666C6F 		.ascii	"mfloat-abi=soft -gdwarf-2 -O3 -ffunction-sections\000"
 3407      61742D61 
 3407      62693D73 
 3407      6F667420 
 3407      2D676477 
ARM GAS  C:\Users\EBANO_~1\AppData\Local\Temp\cca1ab55.s 			page 74


 3408              	.LASF139:
 3409 055c 4C504D5F 		.ascii	"LPM_RTC_Id\000"
 3409      5254435F 
 3409      496400
 3410              	.LASF4:
 3411 0567 756E7369 		.ascii	"unsigned char\000"
 3411      676E6564 
 3411      20636861 
 3411      7200
 3412              	.LASF160:
 3413 0575 4C504D5F 		.ascii	"LPM_ExitSleepMode\000"
 3413      45786974 
 3413      536C6565 
 3413      704D6F64 
 3413      6500
 3414              	.LASF92:
 3415 0587 5F696F62 		.ascii	"_iobs\000"
 3415      7300
 3416              	.LASF115:
 3417 058d 5F685F65 		.ascii	"_h_errno\000"
 3417      72726E6F 
 3417      00
 3418              	.LASF21:
 3419 0596 5F666C6F 		.ascii	"_flock_t\000"
 3419      636B5F74 
 3419      00
 3420              	.LASF37:
 3421 059f 5F5F746D 		.ascii	"__tm_yday\000"
 3421      5F796461 
 3421      7900
 3422              	.LASF47:
 3423 05a9 5F5F7362 		.ascii	"__sbuf\000"
 3423      756600
 3424              	.LASF66:
 3425 05b0 5F666C61 		.ascii	"_flags2\000"
 3425      67733200 
 3426              	.LASF89:
 3427 05b8 5F5F4649 		.ascii	"__FILE\000"
 3427      4C4500
 3428              	.LASF175:
 3429 05bf 7072694D 		.ascii	"priMask\000"
 3429      61736B00 
 3430              	.LASF50:
 3431 05c7 5F5F7346 		.ascii	"__sFILE\000"
 3431      494C4500 
 3432              	.LASF65:
 3433 05cf 5F6D6273 		.ascii	"_mbstate\000"
 3433      74617465 
 3433      00
 3434              	.LASF104:
 3435 05d8 5F6D626C 		.ascii	"_mblen_state\000"
 3435      656E5F73 
 3435      74617465 
 3435      00
 3436              	.LASF72:
 3437 05e5 5F696E63 		.ascii	"_inc\000"
 3437      00
ARM GAS  C:\Users\EBANO_~1\AppData\Local\Temp\cca1ab55.s 			page 75


 3438              	.LASF45:
 3439 05ea 5F696E64 		.ascii	"_ind\000"
 3439      00
 3440              	.LASF41:
 3441 05ef 5F64736F 		.ascii	"_dso_handle\000"
 3441      5F68616E 
 3441      646C6500 
 3442              	.LASF77:
 3443 05fb 5F5F636C 		.ascii	"__cleanup\000"
 3443      65616E75 
 3443      7000
 3444              	.LASF74:
 3445 0605 5F756E73 		.ascii	"_unspecified_locale_info\000"
 3445      70656369 
 3445      66696564 
 3445      5F6C6F63 
 3445      616C655F 
 3446              	.LASF25:
 3447 061e 5F6D6178 		.ascii	"_maxwds\000"
 3447      77647300 
 3448              	.LASF67:
 3449 0626 5F726565 		.ascii	"_reent\000"
 3449      6E7400
 3450              	.LASF94:
 3451 062d 5F736565 		.ascii	"_seed\000"
 3451      6400
 3452              	.LASF156:
 3453 0633 4C504D5F 		.ascii	"LPM_ExitOffMode\000"
 3453      45786974 
 3453      4F66664D 
 3453      6F646500 
 3454              	.LASF18:
 3455 0643 5F5F636F 		.ascii	"__count\000"
 3455      756E7400 
 3456              	.LASF119:
 3457 064b 5F5F6C6F 		.ascii	"__lock\000"
 3457      636B00
 3458              	.LASF19:
 3459 0652 5F5F7661 		.ascii	"__value\000"
 3459      6C756500 
 3460              	.LASF57:
 3461 065a 5F736565 		.ascii	"_seek\000"
 3461      6B00
 3462              	.LASF36:
 3463 0660 5F5F746D 		.ascii	"__tm_wday\000"
 3463      5F776461 
 3463      7900
 3464              	.LASF14:
 3465 066a 5F66706F 		.ascii	"_fpos_t\000"
 3465      735F7400 
 3466              	.LASF2:
 3467 0672 6C6F6E67 		.ascii	"long double\000"
 3467      20646F75 
 3467      626C6500 
 3468              	.LASF68:
 3469 067e 5F657272 		.ascii	"_errno\000"
 3469      6E6F00
ARM GAS  C:\Users\EBANO_~1\AppData\Local\Temp\cca1ab55.s 			page 76


 3470              	.LASF22:
 3471 0685 63686172 		.ascii	"char\000"
 3471      00
 3472              	.LASF61:
 3473 068a 5F626C6B 		.ascii	"_blksize\000"
 3473      73697A65 
 3473      00
 3474              	.LASF164:
 3475 0693 6D6F6465 		.ascii	"mode\000"
 3475      00
 3476              	.LASF49:
 3477 0698 5F73697A 		.ascii	"_size\000"
 3477      6500
 3478              	.LASF0:
 3479 069e 756E7369 		.ascii	"unsigned int\000"
 3479      676E6564 
 3479      20696E74 
 3479      00
 3480              	.LASF73:
 3481 06ab 5F656D65 		.ascii	"_emergency\000"
 3481      7267656E 
 3481      637900
 3482              	.LASF24:
 3483 06b6 5F6E6578 		.ascii	"_next\000"
 3483      7400
 3484              	.LASF98:
 3485 06bc 5F737472 		.ascii	"_strtok_last\000"
 3485      746F6B5F 
 3485      6C617374 
 3485      00
 3486              	.LASF42:
 3487 06c9 5F666E74 		.ascii	"_fntypes\000"
 3487      79706573 
 3487      00
 3488              	.LASF6:
 3489 06d2 73686F72 		.ascii	"short unsigned int\000"
 3489      7420756E 
 3489      7369676E 
 3489      65642069 
 3489      6E7400
 3490              	.LASF96:
 3491 06e5 5F616464 		.ascii	"_add\000"
 3491      00
 3492              	.LASF23:
 3493 06ea 5F5F554C 		.ascii	"__ULong\000"
 3493      6F6E6700 
 3494              	.LASF109:
 3495 06f2 5F676574 		.ascii	"_getdate_err\000"
 3495      64617465 
 3495      5F657272 
 3495      00
 3496              	.LASF165:
 3497 06ff 7072696D 		.ascii	"primask_bit\000"
 3497      61736B5F 
 3497      62697400 
 3498              	.LASF171:
 3499 070b 5F5F6664 		.ascii	"__fdlibm_version\000"
ARM GAS  C:\Users\EBANO_~1\AppData\Local\Temp\cca1ab55.s 			page 77


 3499      6C69626D 
 3499      5F766572 
 3499      73696F6E 
 3499      00
 3500              	.LASF122:
 3501 071c 5F676C6F 		.ascii	"_global_impure_ptr\000"
 3501      62616C5F 
 3501      696D7075 
 3501      72655F70 
 3501      747200
 3502              	.LASF141:
 3503 072f 4C504D5F 		.ascii	"LPM_UART_RX_Id\000"
 3503      55415254 
 3503      5F52585F 
 3503      496400
 3504              	.LASF125:
 3505 073e 5F5F6664 		.ascii	"__fdlibm_ieee\000"
 3505      6C69626D 
 3505      5F696565 
 3505      6500
 3506              	.LASF97:
 3507 074c 5F756E75 		.ascii	"_unused_rand\000"
 3507      7365645F 
 3507      72616E64 
 3507      00
 3508              	.LASF27:
 3509 0759 5F776473 		.ascii	"_wds\000"
 3509      00
 3510              	.LASF90:
 3511 075e 5F676C75 		.ascii	"_glue\000"
 3511      6500
 3512              	.LASF130:
 3513 0764 75696E74 		.ascii	"uint8_t\000"
 3513      385F7400 
 3514              	.LASF107:
 3515 076c 5F6C3634 		.ascii	"_l64a_buf\000"
 3515      615F6275 
 3515      6600
 3516              	.LASF86:
 3517 0776 5F736967 		.ascii	"_sig_func\000"
 3517      5F66756E 
 3517      6300
 3518              	.LASF153:
 3519 0780 4C504D5F 		.ascii	"LPM_GetMode_t\000"
 3519      4765744D 
 3519      6F64655F 
 3519      7400
 3520              	.LASF170:
 3521 078e 443A5C67 		.ascii	"D:\\git_pessoal\\keil_gcc\\STM32CubeExpansion_LRWAN"
 3521      69745F70 
 3521      6573736F 
 3521      616C5C6B 
 3521      65696C5F 
 3522 07be 5F56312E 		.ascii	"_V1.2.1\\Projects\\B-L072Z-LRWAN1\\Applications\\Lo"
 3522      322E315C 
 3522      50726F6A 
 3522      65637473 
ARM GAS  C:\Users\EBANO_~1\AppData\Local\Temp\cca1ab55.s 			page 78


 3522      5C422D4C 
 3523 07ed 52615C45 		.ascii	"Ra\\End_Node\\MDK-ARM\000"
 3523      6E645F4E 
 3523      6F64655C 
 3523      4D444B2D 
 3523      41524D00 
 3524              	.LASF60:
 3525 0801 5F6E6275 		.ascii	"_nbuf\000"
 3525      6600
 3526              	.LASF118:
 3527 0807 5F756E75 		.ascii	"_unused\000"
 3527      73656400 
 3528              	.LASF38:
 3529 080f 5F5F746D 		.ascii	"__tm_isdst\000"
 3529      5F697364 
 3529      737400
 3530              	.LASF100:
 3531 081a 5F6C6F63 		.ascii	"_localtime_buf\000"
 3531      616C7469 
 3531      6D655F62 
 3531      756600
 3532              	.LASF31:
 3533 0829 5F5F746D 		.ascii	"__tm_min\000"
 3533      5F6D696E 
 3533      00
 3534              	.LASF103:
 3535 0832 5F723438 		.ascii	"_r48\000"
 3535      00
 3536              	.LASF147:
 3537 0837 4C504D5F 		.ascii	"LPM_Enable\000"
 3537      456E6162 
 3537      6C6500
 3538              	.LASF105:
 3539 0842 5F6D6274 		.ascii	"_mbtowc_state\000"
 3539      6F77635F 
 3539      73746174 
 3539      6500
 3540              	.LASF80:
 3541 0850 5F703573 		.ascii	"_p5s\000"
 3541      00
 3542              	.LASF75:
 3543 0855 5F6C6F63 		.ascii	"_locale\000"
 3543      616C6500 
 3544              	.LASF167:
 3545 085d 72657375 		.ascii	"result\000"
 3545      6C7400
 3546              	.LASF131:
 3547 0864 75696E74 		.ascii	"uint32_t\000"
 3547      33325F74 
 3547      00
 3548              	.LASF33:
 3549 086d 5F5F746D 		.ascii	"__tm_mday\000"
 3549      5F6D6461 
 3549      7900
 3550              	.LASF151:
 3551 0877 4C504D5F 		.ascii	"LPM_StopMode\000"
 3551      53746F70 
ARM GAS  C:\Users\EBANO_~1\AppData\Local\Temp\cca1ab55.s 			page 79


 3551      4D6F6465 
 3551      00
 3552              		.ident	"GCC: (GNU Tools for Arm Embedded Processors 7-2018-q2-update) 7.3.1 20180622 (release) [AR
ARM GAS  C:\Users\EBANO_~1\AppData\Local\Temp\cca1ab55.s 			page 80


DEFINED SYMBOLS
                            *ABS*:00000000 low_power_manager.c
C:\Users\EBANO_~1\AppData\Local\Temp\cca1ab55.s:16     .text.LPM_SetOffMode:00000000 $t
C:\Users\EBANO_~1\AppData\Local\Temp\cca1ab55.s:24     .text.LPM_SetOffMode:00000000 LPM_SetOffMode
C:\Users\EBANO_~1\AppData\Local\Temp\cca1ab55.s:98     .text.LPM_SetOffMode:00000028 $d
C:\Users\EBANO_~1\AppData\Local\Temp\cca1ab55.s:103    .text.LPM_SetStopMode:00000000 $t
C:\Users\EBANO_~1\AppData\Local\Temp\cca1ab55.s:111    .text.LPM_SetStopMode:00000000 LPM_SetStopMode
C:\Users\EBANO_~1\AppData\Local\Temp\cca1ab55.s:183    .text.LPM_SetStopMode:00000028 $d
C:\Users\EBANO_~1\AppData\Local\Temp\cca1ab55.s:188    .text.LPM_GetMode:00000000 $t
C:\Users\EBANO_~1\AppData\Local\Temp\cca1ab55.s:196    .text.LPM_GetMode:00000000 LPM_GetMode
C:\Users\EBANO_~1\AppData\Local\Temp\cca1ab55.s:259    .text.LPM_GetMode:00000020 $d
C:\Users\EBANO_~1\AppData\Local\Temp\cca1ab55.s:264    .text.LPM_EnterSleepMode:00000000 $t
C:\Users\EBANO_~1\AppData\Local\Temp\cca1ab55.s:272    .text.LPM_EnterSleepMode:00000000 LPM_EnterSleepMode
C:\Users\EBANO_~1\AppData\Local\Temp\cca1ab55.s:286    .text.LPM_ExitSleepMode:00000000 $t
C:\Users\EBANO_~1\AppData\Local\Temp\cca1ab55.s:294    .text.LPM_ExitSleepMode:00000000 LPM_ExitSleepMode
C:\Users\EBANO_~1\AppData\Local\Temp\cca1ab55.s:306    .text.LPM_EnterStopMode:00000000 $t
C:\Users\EBANO_~1\AppData\Local\Temp\cca1ab55.s:314    .text.LPM_EnterStopMode:00000000 LPM_EnterStopMode
C:\Users\EBANO_~1\AppData\Local\Temp\cca1ab55.s:326    .text.LPM_ExitStopMode:00000000 $t
C:\Users\EBANO_~1\AppData\Local\Temp\cca1ab55.s:334    .text.LPM_ExitStopMode:00000000 LPM_ExitStopMode
C:\Users\EBANO_~1\AppData\Local\Temp\cca1ab55.s:346    .text.LPM_EnterOffMode:00000000 $t
C:\Users\EBANO_~1\AppData\Local\Temp\cca1ab55.s:354    .text.LPM_EnterOffMode:00000000 LPM_EnterOffMode
C:\Users\EBANO_~1\AppData\Local\Temp\cca1ab55.s:366    .text.LPM_ExitOffMode:00000000 $t
C:\Users\EBANO_~1\AppData\Local\Temp\cca1ab55.s:374    .text.LPM_ExitOffMode:00000000 LPM_ExitOffMode
C:\Users\EBANO_~1\AppData\Local\Temp\cca1ab55.s:386    .text.LPM_EnterLowPower:00000000 $t
C:\Users\EBANO_~1\AppData\Local\Temp\cca1ab55.s:394    .text.LPM_EnterLowPower:00000000 LPM_EnterLowPower
C:\Users\EBANO_~1\AppData\Local\Temp\cca1ab55.s:445    .text.LPM_EnterLowPower:00000030 $d
C:\Users\EBANO_~1\AppData\Local\Temp\cca1ab55.s:450    .bss:00000000 $d
C:\Users\EBANO_~1\AppData\Local\Temp\cca1ab55.s:454    .bss:00000000 OffModeDisable
C:\Users\EBANO_~1\AppData\Local\Temp\cca1ab55.s:458    .bss:00000004 StopModeDisable

NO UNDEFINED SYMBOLS
