ARM GAS  C:\Users\EBANO_~1\AppData\Local\Temp\cca1ab55.s 			page 1


   1              		.cpu cortex-m0plus
   2              		.eabi_attribute 20, 1
   3              		.eabi_attribute 21, 1
   4              		.eabi_attribute 23, 3
   5              		.eabi_attribute 24, 1
   6              		.eabi_attribute 25, 1
   7              		.eabi_attribute 26, 1
   8              		.eabi_attribute 30, 2
   9              		.eabi_attribute 34, 0
  10              		.eabi_attribute 18, 4
  11              		.file	"low_power_manager.c"
  12              		.text
  13              	.Ltext0:
  14              		.cfi_sections	.debug_frame
  15              		.section	.text.LPM_SetOffMode,"ax",%progbits
  16              		.align	1
  17              		.p2align 2,,3
  18              		.global	LPM_SetOffMode
  19              		.syntax unified
  20              		.code	16
  21              		.thumb_func
  22              		.fpu softvfp
  23              		.type	LPM_SetOffMode, %function
  24              	LPM_SetOffMode:
  25              	.LFB39:
  26              		.file 1 "../../../../../../Middlewares/Third_Party/LoRaWAN/Utilities/low_power_manager.c"
   1:../../../../../../Middlewares/Third_Party/LoRaWAN/Utilities/low_power_manager.c **** /**
   2:../../../../../../Middlewares/Third_Party/LoRaWAN/Utilities/low_power_manager.c ****   ******************************************************************************
   3:../../../../../../Middlewares/Third_Party/LoRaWAN/Utilities/low_power_manager.c ****   * @file    low_power_manager.c
   4:../../../../../../Middlewares/Third_Party/LoRaWAN/Utilities/low_power_manager.c ****   * @author  MCD Application Team
   5:../../../../../../Middlewares/Third_Party/LoRaWAN/Utilities/low_power_manager.c ****   * @brief   Low Power Manager
   6:../../../../../../Middlewares/Third_Party/LoRaWAN/Utilities/low_power_manager.c ****   ******************************************************************************
   7:../../../../../../Middlewares/Third_Party/LoRaWAN/Utilities/low_power_manager.c ****   * @attention
   8:../../../../../../Middlewares/Third_Party/LoRaWAN/Utilities/low_power_manager.c ****   *
   9:../../../../../../Middlewares/Third_Party/LoRaWAN/Utilities/low_power_manager.c ****   * <h2><center>&copy; Copyright (c) 2018 STMicroelectronics.
  10:../../../../../../Middlewares/Third_Party/LoRaWAN/Utilities/low_power_manager.c ****   * All rights reserved.</center></h2>
  11:../../../../../../Middlewares/Third_Party/LoRaWAN/Utilities/low_power_manager.c ****   *
  12:../../../../../../Middlewares/Third_Party/LoRaWAN/Utilities/low_power_manager.c ****   * This software component is licensed by ST under Ultimate Liberty license
  13:../../../../../../Middlewares/Third_Party/LoRaWAN/Utilities/low_power_manager.c ****   * SLA0044, the "License"; You may not use this file except in compliance with
  14:../../../../../../Middlewares/Third_Party/LoRaWAN/Utilities/low_power_manager.c ****   * the License. You may obtain a copy of the License at:
  15:../../../../../../Middlewares/Third_Party/LoRaWAN/Utilities/low_power_manager.c ****   *                             www.st.com/SLA0044
  16:../../../../../../Middlewares/Third_Party/LoRaWAN/Utilities/low_power_manager.c ****   *
  17:../../../../../../Middlewares/Third_Party/LoRaWAN/Utilities/low_power_manager.c ****   ******************************************************************************
  18:../../../../../../Middlewares/Third_Party/LoRaWAN/Utilities/low_power_manager.c ****   */
  19:../../../../../../Middlewares/Third_Party/LoRaWAN/Utilities/low_power_manager.c **** 
  20:../../../../../../Middlewares/Third_Party/LoRaWAN/Utilities/low_power_manager.c **** /* Includes ------------------------------------------------------------------*/
  21:../../../../../../Middlewares/Third_Party/LoRaWAN/Utilities/low_power_manager.c **** #include "hw.h"
  22:../../../../../../Middlewares/Third_Party/LoRaWAN/Utilities/low_power_manager.c **** #include "low_power_manager.h"
  23:../../../../../../Middlewares/Third_Party/LoRaWAN/Utilities/low_power_manager.c **** 
  24:../../../../../../Middlewares/Third_Party/LoRaWAN/Utilities/low_power_manager.c **** /* Private typedef -----------------------------------------------------------*/
  25:../../../../../../Middlewares/Third_Party/LoRaWAN/Utilities/low_power_manager.c **** /* Private defines -----------------------------------------------------------*/
  26:../../../../../../Middlewares/Third_Party/LoRaWAN/Utilities/low_power_manager.c **** /* Private macros ------------------------------------------------------------*/
  27:../../../../../../Middlewares/Third_Party/LoRaWAN/Utilities/low_power_manager.c **** /* Private variables ---------------------------------------------------------*/
  28:../../../../../../Middlewares/Third_Party/LoRaWAN/Utilities/low_power_manager.c **** static uint32_t StopModeDisable = 0;
  29:../../../../../../Middlewares/Third_Party/LoRaWAN/Utilities/low_power_manager.c **** static uint32_t OffModeDisable = 0;
  30:../../../../../../Middlewares/Third_Party/LoRaWAN/Utilities/low_power_manager.c **** 
  31:../../../../../../Middlewares/Third_Party/LoRaWAN/Utilities/low_power_manager.c **** /* Global variables ----------------------------------------------------------*/
ARM GAS  C:\Users\EBANO_~1\AppData\Local\Temp\cca1ab55.s 			page 2


  32:../../../../../../Middlewares/Third_Party/LoRaWAN/Utilities/low_power_manager.c **** /* Private function prototypes -----------------------------------------------*/
  33:../../../../../../Middlewares/Third_Party/LoRaWAN/Utilities/low_power_manager.c **** /* Functions Definition ------------------------------------------------------*/
  34:../../../../../../Middlewares/Third_Party/LoRaWAN/Utilities/low_power_manager.c **** void LPM_SetOffMode(LPM_Id_t id, LPM_SetMode_t mode)
  35:../../../../../../Middlewares/Third_Party/LoRaWAN/Utilities/low_power_manager.c **** {
  27              		.loc 1 35 0
  28              		.cfi_startproc
  29              		@ args = 0, pretend = 0, frame = 0
  30              		@ frame_needed = 0, uses_anonymous_args = 0
  31              		@ link register save eliminated.
  32              	.LVL0:
  33              	.LBB20:
  34              	.LBB21:
  35              		.file 2 "../../../../../../Drivers/CMSIS/Include/cmsis_gcc.h"
   1:../../../../../../Drivers/CMSIS/Include/cmsis_gcc.h **** /**************************************************************************//**
   2:../../../../../../Drivers/CMSIS/Include/cmsis_gcc.h ****  * @file     cmsis_gcc.h
   3:../../../../../../Drivers/CMSIS/Include/cmsis_gcc.h ****  * @brief    CMSIS compiler GCC header file
   4:../../../../../../Drivers/CMSIS/Include/cmsis_gcc.h ****  * @version  V5.0.1
   5:../../../../../../Drivers/CMSIS/Include/cmsis_gcc.h ****  * @date     02. February 2017
   6:../../../../../../Drivers/CMSIS/Include/cmsis_gcc.h ****  ******************************************************************************/
   7:../../../../../../Drivers/CMSIS/Include/cmsis_gcc.h **** /*
   8:../../../../../../Drivers/CMSIS/Include/cmsis_gcc.h ****  * Copyright (c) 2009-2017 ARM Limited. All rights reserved.
   9:../../../../../../Drivers/CMSIS/Include/cmsis_gcc.h ****  *
  10:../../../../../../Drivers/CMSIS/Include/cmsis_gcc.h ****  * SPDX-License-Identifier: Apache-2.0
  11:../../../../../../Drivers/CMSIS/Include/cmsis_gcc.h ****  *
  12:../../../../../../Drivers/CMSIS/Include/cmsis_gcc.h ****  * Licensed under the Apache License, Version 2.0 (the License); you may
  13:../../../../../../Drivers/CMSIS/Include/cmsis_gcc.h ****  * not use this file except in compliance with the License.
  14:../../../../../../Drivers/CMSIS/Include/cmsis_gcc.h ****  * You may obtain a copy of the License at
  15:../../../../../../Drivers/CMSIS/Include/cmsis_gcc.h ****  *
  16:../../../../../../Drivers/CMSIS/Include/cmsis_gcc.h ****  * www.apache.org/licenses/LICENSE-2.0
  17:../../../../../../Drivers/CMSIS/Include/cmsis_gcc.h ****  *
  18:../../../../../../Drivers/CMSIS/Include/cmsis_gcc.h ****  * Unless required by applicable law or agreed to in writing, software
  19:../../../../../../Drivers/CMSIS/Include/cmsis_gcc.h ****  * distributed under the License is distributed on an AS IS BASIS, WITHOUT
  20:../../../../../../Drivers/CMSIS/Include/cmsis_gcc.h ****  * WARRANTIES OR CONDITIONS OF ANY KIND, either express or implied.
  21:../../../../../../Drivers/CMSIS/Include/cmsis_gcc.h ****  * See the License for the specific language governing permissions and
  22:../../../../../../Drivers/CMSIS/Include/cmsis_gcc.h ****  * limitations under the License.
  23:../../../../../../Drivers/CMSIS/Include/cmsis_gcc.h ****  */
  24:../../../../../../Drivers/CMSIS/Include/cmsis_gcc.h **** 
  25:../../../../../../Drivers/CMSIS/Include/cmsis_gcc.h **** #ifndef __CMSIS_GCC_H
  26:../../../../../../Drivers/CMSIS/Include/cmsis_gcc.h **** #define __CMSIS_GCC_H
  27:../../../../../../Drivers/CMSIS/Include/cmsis_gcc.h **** 
  28:../../../../../../Drivers/CMSIS/Include/cmsis_gcc.h **** /* ignore some GCC warnings */
  29:../../../../../../Drivers/CMSIS/Include/cmsis_gcc.h **** #pragma GCC diagnostic push
  30:../../../../../../Drivers/CMSIS/Include/cmsis_gcc.h **** #pragma GCC diagnostic ignored "-Wsign-conversion"
  31:../../../../../../Drivers/CMSIS/Include/cmsis_gcc.h **** #pragma GCC diagnostic ignored "-Wconversion"
  32:../../../../../../Drivers/CMSIS/Include/cmsis_gcc.h **** #pragma GCC diagnostic ignored "-Wunused-parameter"
  33:../../../../../../Drivers/CMSIS/Include/cmsis_gcc.h **** 
  34:../../../../../../Drivers/CMSIS/Include/cmsis_gcc.h **** /* CMSIS compiler specific defines */
  35:../../../../../../Drivers/CMSIS/Include/cmsis_gcc.h **** #ifndef   __ASM
  36:../../../../../../Drivers/CMSIS/Include/cmsis_gcc.h ****   #define __ASM                     __asm
  37:../../../../../../Drivers/CMSIS/Include/cmsis_gcc.h **** #endif
  38:../../../../../../Drivers/CMSIS/Include/cmsis_gcc.h **** #ifndef   __INLINE
  39:../../../../../../Drivers/CMSIS/Include/cmsis_gcc.h ****   #define __INLINE                  inline
  40:../../../../../../Drivers/CMSIS/Include/cmsis_gcc.h **** #endif
  41:../../../../../../Drivers/CMSIS/Include/cmsis_gcc.h **** #ifndef   __STATIC_INLINE
  42:../../../../../../Drivers/CMSIS/Include/cmsis_gcc.h ****   #define __STATIC_INLINE           static inline
  43:../../../../../../Drivers/CMSIS/Include/cmsis_gcc.h **** #endif
  44:../../../../../../Drivers/CMSIS/Include/cmsis_gcc.h **** #ifndef   __NO_RETURN
ARM GAS  C:\Users\EBANO_~1\AppData\Local\Temp\cca1ab55.s 			page 3


  45:../../../../../../Drivers/CMSIS/Include/cmsis_gcc.h ****   #define __NO_RETURN               __attribute__((noreturn))
  46:../../../../../../Drivers/CMSIS/Include/cmsis_gcc.h **** #endif
  47:../../../../../../Drivers/CMSIS/Include/cmsis_gcc.h **** #ifndef   __USED
  48:../../../../../../Drivers/CMSIS/Include/cmsis_gcc.h ****   #define __USED                    __attribute__((used))
  49:../../../../../../Drivers/CMSIS/Include/cmsis_gcc.h **** #endif
  50:../../../../../../Drivers/CMSIS/Include/cmsis_gcc.h **** #ifndef   __WEAK
  51:../../../../../../Drivers/CMSIS/Include/cmsis_gcc.h ****   #define __WEAK                    __attribute__((weak))
  52:../../../../../../Drivers/CMSIS/Include/cmsis_gcc.h **** #endif
  53:../../../../../../Drivers/CMSIS/Include/cmsis_gcc.h **** #ifndef   __UNALIGNED_UINT32
  54:../../../../../../Drivers/CMSIS/Include/cmsis_gcc.h **** #pragma GCC diagnostic push
  55:../../../../../../Drivers/CMSIS/Include/cmsis_gcc.h **** #pragma GCC diagnostic ignored "-Wpacked"
  56:../../../../../../Drivers/CMSIS/Include/cmsis_gcc.h **** #pragma GCC diagnostic ignored "-Wattributes"
  57:../../../../../../Drivers/CMSIS/Include/cmsis_gcc.h ****   struct __attribute__((packed)) T_UINT32 { uint32_t v; };
  58:../../../../../../Drivers/CMSIS/Include/cmsis_gcc.h **** #pragma GCC diagnostic pop
  59:../../../../../../Drivers/CMSIS/Include/cmsis_gcc.h ****   #define __UNALIGNED_UINT32(x)     (((struct T_UINT32 *)(x))->v)
  60:../../../../../../Drivers/CMSIS/Include/cmsis_gcc.h **** #endif
  61:../../../../../../Drivers/CMSIS/Include/cmsis_gcc.h **** #ifndef   __ALIGNED
  62:../../../../../../Drivers/CMSIS/Include/cmsis_gcc.h ****   #define __ALIGNED(x)              __attribute__((aligned(x)))
  63:../../../../../../Drivers/CMSIS/Include/cmsis_gcc.h **** #endif
  64:../../../../../../Drivers/CMSIS/Include/cmsis_gcc.h **** #ifndef   __PACKED
  65:../../../../../../Drivers/CMSIS/Include/cmsis_gcc.h ****   #define __PACKED                  __attribute__((packed, aligned(1)))
  66:../../../../../../Drivers/CMSIS/Include/cmsis_gcc.h **** #endif
  67:../../../../../../Drivers/CMSIS/Include/cmsis_gcc.h **** #ifndef   __PACKED_STRUCT
  68:../../../../../../Drivers/CMSIS/Include/cmsis_gcc.h ****   #define __PACKED_STRUCT           struct __attribute__((packed, aligned(1)))
  69:../../../../../../Drivers/CMSIS/Include/cmsis_gcc.h **** #endif
  70:../../../../../../Drivers/CMSIS/Include/cmsis_gcc.h **** 
  71:../../../../../../Drivers/CMSIS/Include/cmsis_gcc.h **** 
  72:../../../../../../Drivers/CMSIS/Include/cmsis_gcc.h **** /* ###########################  Core Function Access  ########################### */
  73:../../../../../../Drivers/CMSIS/Include/cmsis_gcc.h **** /** \ingroup  CMSIS_Core_FunctionInterface
  74:../../../../../../Drivers/CMSIS/Include/cmsis_gcc.h ****     \defgroup CMSIS_Core_RegAccFunctions CMSIS Core Register Access Functions
  75:../../../../../../Drivers/CMSIS/Include/cmsis_gcc.h ****   @{
  76:../../../../../../Drivers/CMSIS/Include/cmsis_gcc.h ****  */
  77:../../../../../../Drivers/CMSIS/Include/cmsis_gcc.h **** 
  78:../../../../../../Drivers/CMSIS/Include/cmsis_gcc.h **** /**
  79:../../../../../../Drivers/CMSIS/Include/cmsis_gcc.h ****   \brief   Enable IRQ Interrupts
  80:../../../../../../Drivers/CMSIS/Include/cmsis_gcc.h ****   \details Enables IRQ interrupts by clearing the I-bit in the CPSR.
  81:../../../../../../Drivers/CMSIS/Include/cmsis_gcc.h ****            Can only be executed in Privileged modes.
  82:../../../../../../Drivers/CMSIS/Include/cmsis_gcc.h ****  */
  83:../../../../../../Drivers/CMSIS/Include/cmsis_gcc.h **** __attribute__((always_inline)) __STATIC_INLINE void __enable_irq(void)
  84:../../../../../../Drivers/CMSIS/Include/cmsis_gcc.h **** {
  85:../../../../../../Drivers/CMSIS/Include/cmsis_gcc.h ****   __ASM volatile ("cpsie i" : : : "memory");
  86:../../../../../../Drivers/CMSIS/Include/cmsis_gcc.h **** }
  87:../../../../../../Drivers/CMSIS/Include/cmsis_gcc.h **** 
  88:../../../../../../Drivers/CMSIS/Include/cmsis_gcc.h **** 
  89:../../../../../../Drivers/CMSIS/Include/cmsis_gcc.h **** /**
  90:../../../../../../Drivers/CMSIS/Include/cmsis_gcc.h ****   \brief   Disable IRQ Interrupts
  91:../../../../../../Drivers/CMSIS/Include/cmsis_gcc.h ****   \details Disables IRQ interrupts by setting the I-bit in the CPSR.
  92:../../../../../../Drivers/CMSIS/Include/cmsis_gcc.h ****            Can only be executed in Privileged modes.
  93:../../../../../../Drivers/CMSIS/Include/cmsis_gcc.h ****  */
  94:../../../../../../Drivers/CMSIS/Include/cmsis_gcc.h **** __attribute__((always_inline)) __STATIC_INLINE void __disable_irq(void)
  95:../../../../../../Drivers/CMSIS/Include/cmsis_gcc.h **** {
  96:../../../../../../Drivers/CMSIS/Include/cmsis_gcc.h ****   __ASM volatile ("cpsid i" : : : "memory");
  97:../../../../../../Drivers/CMSIS/Include/cmsis_gcc.h **** }
  98:../../../../../../Drivers/CMSIS/Include/cmsis_gcc.h **** 
  99:../../../../../../Drivers/CMSIS/Include/cmsis_gcc.h **** 
 100:../../../../../../Drivers/CMSIS/Include/cmsis_gcc.h **** /**
 101:../../../../../../Drivers/CMSIS/Include/cmsis_gcc.h ****   \brief   Get Control Register
ARM GAS  C:\Users\EBANO_~1\AppData\Local\Temp\cca1ab55.s 			page 4


 102:../../../../../../Drivers/CMSIS/Include/cmsis_gcc.h ****   \details Returns the content of the Control Register.
 103:../../../../../../Drivers/CMSIS/Include/cmsis_gcc.h ****   \return               Control Register value
 104:../../../../../../Drivers/CMSIS/Include/cmsis_gcc.h ****  */
 105:../../../../../../Drivers/CMSIS/Include/cmsis_gcc.h **** __attribute__((always_inline)) __STATIC_INLINE uint32_t __get_CONTROL(void)
 106:../../../../../../Drivers/CMSIS/Include/cmsis_gcc.h **** {
 107:../../../../../../Drivers/CMSIS/Include/cmsis_gcc.h ****   uint32_t result;
 108:../../../../../../Drivers/CMSIS/Include/cmsis_gcc.h **** 
 109:../../../../../../Drivers/CMSIS/Include/cmsis_gcc.h ****   __ASM volatile ("MRS %0, control" : "=r" (result) );
 110:../../../../../../Drivers/CMSIS/Include/cmsis_gcc.h ****   return(result);
 111:../../../../../../Drivers/CMSIS/Include/cmsis_gcc.h **** }
 112:../../../../../../Drivers/CMSIS/Include/cmsis_gcc.h **** 
 113:../../../../../../Drivers/CMSIS/Include/cmsis_gcc.h **** 
 114:../../../../../../Drivers/CMSIS/Include/cmsis_gcc.h **** #if (defined (__ARM_FEATURE_CMSE ) && (__ARM_FEATURE_CMSE == 3))
 115:../../../../../../Drivers/CMSIS/Include/cmsis_gcc.h **** /**
 116:../../../../../../Drivers/CMSIS/Include/cmsis_gcc.h ****   \brief   Get Control Register (non-secure)
 117:../../../../../../Drivers/CMSIS/Include/cmsis_gcc.h ****   \details Returns the content of the non-secure Control Register when in secure mode.
 118:../../../../../../Drivers/CMSIS/Include/cmsis_gcc.h ****   \return               non-secure Control Register value
 119:../../../../../../Drivers/CMSIS/Include/cmsis_gcc.h ****  */
 120:../../../../../../Drivers/CMSIS/Include/cmsis_gcc.h **** __attribute__((always_inline)) __STATIC_INLINE uint32_t __TZ_get_CONTROL_NS(void)
 121:../../../../../../Drivers/CMSIS/Include/cmsis_gcc.h **** {
 122:../../../../../../Drivers/CMSIS/Include/cmsis_gcc.h ****   uint32_t result;
 123:../../../../../../Drivers/CMSIS/Include/cmsis_gcc.h **** 
 124:../../../../../../Drivers/CMSIS/Include/cmsis_gcc.h ****   __ASM volatile ("MRS %0, control_ns" : "=r" (result) );
 125:../../../../../../Drivers/CMSIS/Include/cmsis_gcc.h ****   return(result);
 126:../../../../../../Drivers/CMSIS/Include/cmsis_gcc.h **** }
 127:../../../../../../Drivers/CMSIS/Include/cmsis_gcc.h **** #endif
 128:../../../../../../Drivers/CMSIS/Include/cmsis_gcc.h **** 
 129:../../../../../../Drivers/CMSIS/Include/cmsis_gcc.h **** 
 130:../../../../../../Drivers/CMSIS/Include/cmsis_gcc.h **** /**
 131:../../../../../../Drivers/CMSIS/Include/cmsis_gcc.h ****   \brief   Set Control Register
 132:../../../../../../Drivers/CMSIS/Include/cmsis_gcc.h ****   \details Writes the given value to the Control Register.
 133:../../../../../../Drivers/CMSIS/Include/cmsis_gcc.h ****   \param [in]    control  Control Register value to set
 134:../../../../../../Drivers/CMSIS/Include/cmsis_gcc.h ****  */
 135:../../../../../../Drivers/CMSIS/Include/cmsis_gcc.h **** __attribute__((always_inline)) __STATIC_INLINE void __set_CONTROL(uint32_t control)
 136:../../../../../../Drivers/CMSIS/Include/cmsis_gcc.h **** {
 137:../../../../../../Drivers/CMSIS/Include/cmsis_gcc.h ****   __ASM volatile ("MSR control, %0" : : "r" (control) : "memory");
 138:../../../../../../Drivers/CMSIS/Include/cmsis_gcc.h **** }
 139:../../../../../../Drivers/CMSIS/Include/cmsis_gcc.h **** 
 140:../../../../../../Drivers/CMSIS/Include/cmsis_gcc.h **** 
 141:../../../../../../Drivers/CMSIS/Include/cmsis_gcc.h **** #if (defined (__ARM_FEATURE_CMSE ) && (__ARM_FEATURE_CMSE == 3))
 142:../../../../../../Drivers/CMSIS/Include/cmsis_gcc.h **** /**
 143:../../../../../../Drivers/CMSIS/Include/cmsis_gcc.h ****   \brief   Set Control Register (non-secure)
 144:../../../../../../Drivers/CMSIS/Include/cmsis_gcc.h ****   \details Writes the given value to the non-secure Control Register when in secure state.
 145:../../../../../../Drivers/CMSIS/Include/cmsis_gcc.h ****   \param [in]    control  Control Register value to set
 146:../../../../../../Drivers/CMSIS/Include/cmsis_gcc.h ****  */
 147:../../../../../../Drivers/CMSIS/Include/cmsis_gcc.h **** __attribute__((always_inline)) __STATIC_INLINE void __TZ_set_CONTROL_NS(uint32_t control)
 148:../../../../../../Drivers/CMSIS/Include/cmsis_gcc.h **** {
 149:../../../../../../Drivers/CMSIS/Include/cmsis_gcc.h ****   __ASM volatile ("MSR control_ns, %0" : : "r" (control) : "memory");
 150:../../../../../../Drivers/CMSIS/Include/cmsis_gcc.h **** }
 151:../../../../../../Drivers/CMSIS/Include/cmsis_gcc.h **** #endif
 152:../../../../../../Drivers/CMSIS/Include/cmsis_gcc.h **** 
 153:../../../../../../Drivers/CMSIS/Include/cmsis_gcc.h **** 
 154:../../../../../../Drivers/CMSIS/Include/cmsis_gcc.h **** /**
 155:../../../../../../Drivers/CMSIS/Include/cmsis_gcc.h ****   \brief   Get IPSR Register
 156:../../../../../../Drivers/CMSIS/Include/cmsis_gcc.h ****   \details Returns the content of the IPSR Register.
 157:../../../../../../Drivers/CMSIS/Include/cmsis_gcc.h ****   \return               IPSR Register value
 158:../../../../../../Drivers/CMSIS/Include/cmsis_gcc.h ****  */
ARM GAS  C:\Users\EBANO_~1\AppData\Local\Temp\cca1ab55.s 			page 5


 159:../../../../../../Drivers/CMSIS/Include/cmsis_gcc.h **** __attribute__((always_inline)) __STATIC_INLINE uint32_t __get_IPSR(void)
 160:../../../../../../Drivers/CMSIS/Include/cmsis_gcc.h **** {
 161:../../../../../../Drivers/CMSIS/Include/cmsis_gcc.h ****   uint32_t result;
 162:../../../../../../Drivers/CMSIS/Include/cmsis_gcc.h **** 
 163:../../../../../../Drivers/CMSIS/Include/cmsis_gcc.h ****   __ASM volatile ("MRS %0, ipsr" : "=r" (result) );
 164:../../../../../../Drivers/CMSIS/Include/cmsis_gcc.h ****   return(result);
 165:../../../../../../Drivers/CMSIS/Include/cmsis_gcc.h **** }
 166:../../../../../../Drivers/CMSIS/Include/cmsis_gcc.h **** 
 167:../../../../../../Drivers/CMSIS/Include/cmsis_gcc.h **** 
 168:../../../../../../Drivers/CMSIS/Include/cmsis_gcc.h **** /**
 169:../../../../../../Drivers/CMSIS/Include/cmsis_gcc.h ****   \brief   Get APSR Register
 170:../../../../../../Drivers/CMSIS/Include/cmsis_gcc.h ****   \details Returns the content of the APSR Register.
 171:../../../../../../Drivers/CMSIS/Include/cmsis_gcc.h ****   \return               APSR Register value
 172:../../../../../../Drivers/CMSIS/Include/cmsis_gcc.h ****  */
 173:../../../../../../Drivers/CMSIS/Include/cmsis_gcc.h **** __attribute__((always_inline)) __STATIC_INLINE uint32_t __get_APSR(void)
 174:../../../../../../Drivers/CMSIS/Include/cmsis_gcc.h **** {
 175:../../../../../../Drivers/CMSIS/Include/cmsis_gcc.h ****   uint32_t result;
 176:../../../../../../Drivers/CMSIS/Include/cmsis_gcc.h **** 
 177:../../../../../../Drivers/CMSIS/Include/cmsis_gcc.h ****   __ASM volatile ("MRS %0, apsr" : "=r" (result) );
 178:../../../../../../Drivers/CMSIS/Include/cmsis_gcc.h ****   return(result);
 179:../../../../../../Drivers/CMSIS/Include/cmsis_gcc.h **** }
 180:../../../../../../Drivers/CMSIS/Include/cmsis_gcc.h **** 
 181:../../../../../../Drivers/CMSIS/Include/cmsis_gcc.h **** 
 182:../../../../../../Drivers/CMSIS/Include/cmsis_gcc.h **** /**
 183:../../../../../../Drivers/CMSIS/Include/cmsis_gcc.h ****   \brief   Get xPSR Register
 184:../../../../../../Drivers/CMSIS/Include/cmsis_gcc.h ****   \details Returns the content of the xPSR Register.
 185:../../../../../../Drivers/CMSIS/Include/cmsis_gcc.h ****   \return               xPSR Register value
 186:../../../../../../Drivers/CMSIS/Include/cmsis_gcc.h ****  */
 187:../../../../../../Drivers/CMSIS/Include/cmsis_gcc.h **** __attribute__((always_inline)) __STATIC_INLINE uint32_t __get_xPSR(void)
 188:../../../../../../Drivers/CMSIS/Include/cmsis_gcc.h **** {
 189:../../../../../../Drivers/CMSIS/Include/cmsis_gcc.h ****   uint32_t result;
 190:../../../../../../Drivers/CMSIS/Include/cmsis_gcc.h **** 
 191:../../../../../../Drivers/CMSIS/Include/cmsis_gcc.h ****   __ASM volatile ("MRS %0, xpsr" : "=r" (result) );
 192:../../../../../../Drivers/CMSIS/Include/cmsis_gcc.h ****   return(result);
 193:../../../../../../Drivers/CMSIS/Include/cmsis_gcc.h **** }
 194:../../../../../../Drivers/CMSIS/Include/cmsis_gcc.h **** 
 195:../../../../../../Drivers/CMSIS/Include/cmsis_gcc.h **** 
 196:../../../../../../Drivers/CMSIS/Include/cmsis_gcc.h **** /**
 197:../../../../../../Drivers/CMSIS/Include/cmsis_gcc.h ****   \brief   Get Process Stack Pointer
 198:../../../../../../Drivers/CMSIS/Include/cmsis_gcc.h ****   \details Returns the current value of the Process Stack Pointer (PSP).
 199:../../../../../../Drivers/CMSIS/Include/cmsis_gcc.h ****   \return               PSP Register value
 200:../../../../../../Drivers/CMSIS/Include/cmsis_gcc.h ****  */
 201:../../../../../../Drivers/CMSIS/Include/cmsis_gcc.h **** __attribute__((always_inline)) __STATIC_INLINE uint32_t __get_PSP(void)
 202:../../../../../../Drivers/CMSIS/Include/cmsis_gcc.h **** {
 203:../../../../../../Drivers/CMSIS/Include/cmsis_gcc.h ****   register uint32_t result;
 204:../../../../../../Drivers/CMSIS/Include/cmsis_gcc.h **** 
 205:../../../../../../Drivers/CMSIS/Include/cmsis_gcc.h ****   __ASM volatile ("MRS %0, psp"  : "=r" (result) );
 206:../../../../../../Drivers/CMSIS/Include/cmsis_gcc.h ****   return(result);
 207:../../../../../../Drivers/CMSIS/Include/cmsis_gcc.h **** }
 208:../../../../../../Drivers/CMSIS/Include/cmsis_gcc.h **** 
 209:../../../../../../Drivers/CMSIS/Include/cmsis_gcc.h **** 
 210:../../../../../../Drivers/CMSIS/Include/cmsis_gcc.h **** #if (defined (__ARM_FEATURE_CMSE ) && (__ARM_FEATURE_CMSE == 3))
 211:../../../../../../Drivers/CMSIS/Include/cmsis_gcc.h **** /**
 212:../../../../../../Drivers/CMSIS/Include/cmsis_gcc.h ****   \brief   Get Process Stack Pointer (non-secure)
 213:../../../../../../Drivers/CMSIS/Include/cmsis_gcc.h ****   \details Returns the current value of the non-secure Process Stack Pointer (PSP) when in secure s
 214:../../../../../../Drivers/CMSIS/Include/cmsis_gcc.h ****   \return               PSP Register value
 215:../../../../../../Drivers/CMSIS/Include/cmsis_gcc.h ****  */
ARM GAS  C:\Users\EBANO_~1\AppData\Local\Temp\cca1ab55.s 			page 6


 216:../../../../../../Drivers/CMSIS/Include/cmsis_gcc.h **** __attribute__((always_inline)) __STATIC_INLINE uint32_t __TZ_get_PSP_NS(void)
 217:../../../../../../Drivers/CMSIS/Include/cmsis_gcc.h **** {
 218:../../../../../../Drivers/CMSIS/Include/cmsis_gcc.h ****   register uint32_t result;
 219:../../../../../../Drivers/CMSIS/Include/cmsis_gcc.h **** 
 220:../../../../../../Drivers/CMSIS/Include/cmsis_gcc.h ****   __ASM volatile ("MRS %0, psp_ns"  : "=r" (result) );
 221:../../../../../../Drivers/CMSIS/Include/cmsis_gcc.h ****   return(result);
 222:../../../../../../Drivers/CMSIS/Include/cmsis_gcc.h **** }
 223:../../../../../../Drivers/CMSIS/Include/cmsis_gcc.h **** #endif
 224:../../../../../../Drivers/CMSIS/Include/cmsis_gcc.h **** 
 225:../../../../../../Drivers/CMSIS/Include/cmsis_gcc.h **** 
 226:../../../../../../Drivers/CMSIS/Include/cmsis_gcc.h **** /**
 227:../../../../../../Drivers/CMSIS/Include/cmsis_gcc.h ****   \brief   Set Process Stack Pointer
 228:../../../../../../Drivers/CMSIS/Include/cmsis_gcc.h ****   \details Assigns the given value to the Process Stack Pointer (PSP).
 229:../../../../../../Drivers/CMSIS/Include/cmsis_gcc.h ****   \param [in]    topOfProcStack  Process Stack Pointer value to set
 230:../../../../../../Drivers/CMSIS/Include/cmsis_gcc.h ****  */
 231:../../../../../../Drivers/CMSIS/Include/cmsis_gcc.h **** __attribute__((always_inline)) __STATIC_INLINE void __set_PSP(uint32_t topOfProcStack)
 232:../../../../../../Drivers/CMSIS/Include/cmsis_gcc.h **** {
 233:../../../../../../Drivers/CMSIS/Include/cmsis_gcc.h ****   __ASM volatile ("MSR psp, %0" : : "r" (topOfProcStack) : );
 234:../../../../../../Drivers/CMSIS/Include/cmsis_gcc.h **** }
 235:../../../../../../Drivers/CMSIS/Include/cmsis_gcc.h **** 
 236:../../../../../../Drivers/CMSIS/Include/cmsis_gcc.h **** 
 237:../../../../../../Drivers/CMSIS/Include/cmsis_gcc.h **** #if (defined (__ARM_FEATURE_CMSE ) && (__ARM_FEATURE_CMSE == 3))
 238:../../../../../../Drivers/CMSIS/Include/cmsis_gcc.h **** /**
 239:../../../../../../Drivers/CMSIS/Include/cmsis_gcc.h ****   \brief   Set Process Stack Pointer (non-secure)
 240:../../../../../../Drivers/CMSIS/Include/cmsis_gcc.h ****   \details Assigns the given value to the non-secure Process Stack Pointer (PSP) when in secure sta
 241:../../../../../../Drivers/CMSIS/Include/cmsis_gcc.h ****   \param [in]    topOfProcStack  Process Stack Pointer value to set
 242:../../../../../../Drivers/CMSIS/Include/cmsis_gcc.h ****  */
 243:../../../../../../Drivers/CMSIS/Include/cmsis_gcc.h **** __attribute__((always_inline)) __STATIC_INLINE void __TZ_set_PSP_NS(uint32_t topOfProcStack)
 244:../../../../../../Drivers/CMSIS/Include/cmsis_gcc.h **** {
 245:../../../../../../Drivers/CMSIS/Include/cmsis_gcc.h ****   __ASM volatile ("MSR psp_ns, %0" : : "r" (topOfProcStack) : );
 246:../../../../../../Drivers/CMSIS/Include/cmsis_gcc.h **** }
 247:../../../../../../Drivers/CMSIS/Include/cmsis_gcc.h **** #endif
 248:../../../../../../Drivers/CMSIS/Include/cmsis_gcc.h **** 
 249:../../../../../../Drivers/CMSIS/Include/cmsis_gcc.h **** 
 250:../../../../../../Drivers/CMSIS/Include/cmsis_gcc.h **** /**
 251:../../../../../../Drivers/CMSIS/Include/cmsis_gcc.h ****   \brief   Get Main Stack Pointer
 252:../../../../../../Drivers/CMSIS/Include/cmsis_gcc.h ****   \details Returns the current value of the Main Stack Pointer (MSP).
 253:../../../../../../Drivers/CMSIS/Include/cmsis_gcc.h ****   \return               MSP Register value
 254:../../../../../../Drivers/CMSIS/Include/cmsis_gcc.h ****  */
 255:../../../../../../Drivers/CMSIS/Include/cmsis_gcc.h **** __attribute__((always_inline)) __STATIC_INLINE uint32_t __get_MSP(void)
 256:../../../../../../Drivers/CMSIS/Include/cmsis_gcc.h **** {
 257:../../../../../../Drivers/CMSIS/Include/cmsis_gcc.h ****   register uint32_t result;
 258:../../../../../../Drivers/CMSIS/Include/cmsis_gcc.h **** 
 259:../../../../../../Drivers/CMSIS/Include/cmsis_gcc.h ****   __ASM volatile ("MRS %0, msp" : "=r" (result) );
 260:../../../../../../Drivers/CMSIS/Include/cmsis_gcc.h ****   return(result);
 261:../../../../../../Drivers/CMSIS/Include/cmsis_gcc.h **** }
 262:../../../../../../Drivers/CMSIS/Include/cmsis_gcc.h **** 
 263:../../../../../../Drivers/CMSIS/Include/cmsis_gcc.h **** 
 264:../../../../../../Drivers/CMSIS/Include/cmsis_gcc.h **** #if (defined (__ARM_FEATURE_CMSE ) && (__ARM_FEATURE_CMSE == 3))
 265:../../../../../../Drivers/CMSIS/Include/cmsis_gcc.h **** /**
 266:../../../../../../Drivers/CMSIS/Include/cmsis_gcc.h ****   \brief   Get Main Stack Pointer (non-secure)
 267:../../../../../../Drivers/CMSIS/Include/cmsis_gcc.h ****   \details Returns the current value of the non-secure Main Stack Pointer (MSP) when in secure stat
 268:../../../../../../Drivers/CMSIS/Include/cmsis_gcc.h ****   \return               MSP Register value
 269:../../../../../../Drivers/CMSIS/Include/cmsis_gcc.h ****  */
 270:../../../../../../Drivers/CMSIS/Include/cmsis_gcc.h **** __attribute__((always_inline)) __STATIC_INLINE uint32_t __TZ_get_MSP_NS(void)
 271:../../../../../../Drivers/CMSIS/Include/cmsis_gcc.h **** {
 272:../../../../../../Drivers/CMSIS/Include/cmsis_gcc.h ****   register uint32_t result;
ARM GAS  C:\Users\EBANO_~1\AppData\Local\Temp\cca1ab55.s 			page 7


 273:../../../../../../Drivers/CMSIS/Include/cmsis_gcc.h **** 
 274:../../../../../../Drivers/CMSIS/Include/cmsis_gcc.h ****   __ASM volatile ("MRS %0, msp_ns" : "=r" (result) );
 275:../../../../../../Drivers/CMSIS/Include/cmsis_gcc.h ****   return(result);
 276:../../../../../../Drivers/CMSIS/Include/cmsis_gcc.h **** }
 277:../../../../../../Drivers/CMSIS/Include/cmsis_gcc.h **** #endif
 278:../../../../../../Drivers/CMSIS/Include/cmsis_gcc.h **** 
 279:../../../../../../Drivers/CMSIS/Include/cmsis_gcc.h **** 
 280:../../../../../../Drivers/CMSIS/Include/cmsis_gcc.h **** /**
 281:../../../../../../Drivers/CMSIS/Include/cmsis_gcc.h ****   \brief   Set Main Stack Pointer
 282:../../../../../../Drivers/CMSIS/Include/cmsis_gcc.h ****   \details Assigns the given value to the Main Stack Pointer (MSP).
 283:../../../../../../Drivers/CMSIS/Include/cmsis_gcc.h ****   \param [in]    topOfMainStack  Main Stack Pointer value to set
 284:../../../../../../Drivers/CMSIS/Include/cmsis_gcc.h ****  */
 285:../../../../../../Drivers/CMSIS/Include/cmsis_gcc.h **** __attribute__((always_inline)) __STATIC_INLINE void __set_MSP(uint32_t topOfMainStack)
 286:../../../../../../Drivers/CMSIS/Include/cmsis_gcc.h **** {
 287:../../../../../../Drivers/CMSIS/Include/cmsis_gcc.h ****   __ASM volatile ("MSR msp, %0" : : "r" (topOfMainStack) : );
 288:../../../../../../Drivers/CMSIS/Include/cmsis_gcc.h **** }
 289:../../../../../../Drivers/CMSIS/Include/cmsis_gcc.h **** 
 290:../../../../../../Drivers/CMSIS/Include/cmsis_gcc.h **** 
 291:../../../../../../Drivers/CMSIS/Include/cmsis_gcc.h **** #if (defined (__ARM_FEATURE_CMSE ) && (__ARM_FEATURE_CMSE == 3))
 292:../../../../../../Drivers/CMSIS/Include/cmsis_gcc.h **** /**
 293:../../../../../../Drivers/CMSIS/Include/cmsis_gcc.h ****   \brief   Set Main Stack Pointer (non-secure)
 294:../../../../../../Drivers/CMSIS/Include/cmsis_gcc.h ****   \details Assigns the given value to the non-secure Main Stack Pointer (MSP) when in secure state.
 295:../../../../../../Drivers/CMSIS/Include/cmsis_gcc.h ****   \param [in]    topOfMainStack  Main Stack Pointer value to set
 296:../../../../../../Drivers/CMSIS/Include/cmsis_gcc.h ****  */
 297:../../../../../../Drivers/CMSIS/Include/cmsis_gcc.h **** __attribute__((always_inline)) __STATIC_INLINE void __TZ_set_MSP_NS(uint32_t topOfMainStack)
 298:../../../../../../Drivers/CMSIS/Include/cmsis_gcc.h **** {
 299:../../../../../../Drivers/CMSIS/Include/cmsis_gcc.h ****   __ASM volatile ("MSR msp_ns, %0" : : "r" (topOfMainStack) : );
 300:../../../../../../Drivers/CMSIS/Include/cmsis_gcc.h **** }
 301:../../../../../../Drivers/CMSIS/Include/cmsis_gcc.h **** #endif
 302:../../../../../../Drivers/CMSIS/Include/cmsis_gcc.h **** 
 303:../../../../../../Drivers/CMSIS/Include/cmsis_gcc.h **** 
 304:../../../../../../Drivers/CMSIS/Include/cmsis_gcc.h **** /**
 305:../../../../../../Drivers/CMSIS/Include/cmsis_gcc.h ****   \brief   Get Priority Mask
 306:../../../../../../Drivers/CMSIS/Include/cmsis_gcc.h ****   \details Returns the current state of the priority mask bit from the Priority Mask Register.
 307:../../../../../../Drivers/CMSIS/Include/cmsis_gcc.h ****   \return               Priority Mask value
 308:../../../../../../Drivers/CMSIS/Include/cmsis_gcc.h ****  */
 309:../../../../../../Drivers/CMSIS/Include/cmsis_gcc.h **** __attribute__((always_inline)) __STATIC_INLINE uint32_t __get_PRIMASK(void)
 310:../../../../../../Drivers/CMSIS/Include/cmsis_gcc.h **** {
 311:../../../../../../Drivers/CMSIS/Include/cmsis_gcc.h ****   uint32_t result;
 312:../../../../../../Drivers/CMSIS/Include/cmsis_gcc.h **** 
 313:../../../../../../Drivers/CMSIS/Include/cmsis_gcc.h ****   __ASM volatile ("MRS %0, primask" : "=r" (result) );
  36              		.loc 2 313 0
  37              		.syntax divided
  38              	@ 313 "../../../../../../Drivers/CMSIS/Include/cmsis_gcc.h" 1
  39 0000 EFF31083 		MRS r3, primask
  40              	@ 0 "" 2
  41              		.thumb
  42              		.syntax unified
  43              	.LBE21:
  44              	.LBE20:
  45              	.LBB22:
  46              	.LBB23:
  96:../../../../../../Drivers/CMSIS/Include/cmsis_gcc.h **** }
  47              		.loc 2 96 0
  48              		.syntax divided
  49              	@ 96 "../../../../../../Drivers/CMSIS/Include/cmsis_gcc.h" 1
  50 0004 72B6     		cpsid i
ARM GAS  C:\Users\EBANO_~1\AppData\Local\Temp\cca1ab55.s 			page 8


  51              	@ 0 "" 2
  52              		.thumb
  53              		.syntax unified
  54              	.LBE23:
  55              	.LBE22:
  36:../../../../../../Middlewares/Third_Party/LoRaWAN/Utilities/low_power_manager.c ****   BACKUP_PRIMASK();
  37:../../../../../../Middlewares/Third_Party/LoRaWAN/Utilities/low_power_manager.c ****   
  38:../../../../../../Middlewares/Third_Party/LoRaWAN/Utilities/low_power_manager.c ****   DISABLE_IRQ( );
  39:../../../../../../Middlewares/Third_Party/LoRaWAN/Utilities/low_power_manager.c ****   
  40:../../../../../../Middlewares/Third_Party/LoRaWAN/Utilities/low_power_manager.c ****   
  41:../../../../../../Middlewares/Third_Party/LoRaWAN/Utilities/low_power_manager.c ****   switch(mode)
  56              		.loc 1 41 0
  57 0006 0029     		cmp	r1, #0
  58 0008 08D0     		beq	.L3
  59 000a 0129     		cmp	r1, #1
  60 000c 03D1     		bne	.L2
  42:../../../../../../Middlewares/Third_Party/LoRaWAN/Utilities/low_power_manager.c ****   {
  43:../../../../../../Middlewares/Third_Party/LoRaWAN/Utilities/low_power_manager.c ****     case LPM_Disable:
  44:../../../../../../Middlewares/Third_Party/LoRaWAN/Utilities/low_power_manager.c ****     {
  45:../../../../../../Middlewares/Third_Party/LoRaWAN/Utilities/low_power_manager.c ****       OffModeDisable |= (uint32_t)id;
  61              		.loc 1 45 0
  62 000e 064A     		ldr	r2, .L6
  63 0010 1168     		ldr	r1, [r2]
  64              	.LVL1:
  65 0012 0843     		orrs	r0, r1
  66              	.LVL2:
  67 0014 1060     		str	r0, [r2]
  68              	.L2:
  69              	.LVL3:
  70              	.LBB24:
  71              	.LBB25:
 314:../../../../../../Drivers/CMSIS/Include/cmsis_gcc.h ****   return(result);
 315:../../../../../../Drivers/CMSIS/Include/cmsis_gcc.h **** }
 316:../../../../../../Drivers/CMSIS/Include/cmsis_gcc.h **** 
 317:../../../../../../Drivers/CMSIS/Include/cmsis_gcc.h **** 
 318:../../../../../../Drivers/CMSIS/Include/cmsis_gcc.h **** #if (defined (__ARM_FEATURE_CMSE ) && (__ARM_FEATURE_CMSE == 3))
 319:../../../../../../Drivers/CMSIS/Include/cmsis_gcc.h **** /**
 320:../../../../../../Drivers/CMSIS/Include/cmsis_gcc.h ****   \brief   Get Priority Mask (non-secure)
 321:../../../../../../Drivers/CMSIS/Include/cmsis_gcc.h ****   \details Returns the current state of the non-secure priority mask bit from the Priority Mask Reg
 322:../../../../../../Drivers/CMSIS/Include/cmsis_gcc.h ****   \return               Priority Mask value
 323:../../../../../../Drivers/CMSIS/Include/cmsis_gcc.h ****  */
 324:../../../../../../Drivers/CMSIS/Include/cmsis_gcc.h **** __attribute__((always_inline)) __STATIC_INLINE uint32_t __TZ_get_PRIMASK_NS(void)
 325:../../../../../../Drivers/CMSIS/Include/cmsis_gcc.h **** {
 326:../../../../../../Drivers/CMSIS/Include/cmsis_gcc.h ****   uint32_t result;
 327:../../../../../../Drivers/CMSIS/Include/cmsis_gcc.h **** 
 328:../../../../../../Drivers/CMSIS/Include/cmsis_gcc.h ****   __ASM volatile ("MRS %0, primask_ns" : "=r" (result) );
 329:../../../../../../Drivers/CMSIS/Include/cmsis_gcc.h ****   return(result);
 330:../../../../../../Drivers/CMSIS/Include/cmsis_gcc.h **** }
 331:../../../../../../Drivers/CMSIS/Include/cmsis_gcc.h **** #endif
 332:../../../../../../Drivers/CMSIS/Include/cmsis_gcc.h **** 
 333:../../../../../../Drivers/CMSIS/Include/cmsis_gcc.h **** 
 334:../../../../../../Drivers/CMSIS/Include/cmsis_gcc.h **** /**
 335:../../../../../../Drivers/CMSIS/Include/cmsis_gcc.h ****   \brief   Set Priority Mask
 336:../../../../../../Drivers/CMSIS/Include/cmsis_gcc.h ****   \details Assigns the given value to the Priority Mask Register.
 337:../../../../../../Drivers/CMSIS/Include/cmsis_gcc.h ****   \param [in]    priMask  Priority Mask
 338:../../../../../../Drivers/CMSIS/Include/cmsis_gcc.h ****  */
 339:../../../../../../Drivers/CMSIS/Include/cmsis_gcc.h **** __attribute__((always_inline)) __STATIC_INLINE void __set_PRIMASK(uint32_t priMask)
ARM GAS  C:\Users\EBANO_~1\AppData\Local\Temp\cca1ab55.s 			page 9


 340:../../../../../../Drivers/CMSIS/Include/cmsis_gcc.h **** {
 341:../../../../../../Drivers/CMSIS/Include/cmsis_gcc.h ****   __ASM volatile ("MSR primask, %0" : : "r" (priMask) : "memory");
  72              		.loc 2 341 0
  73              		.syntax divided
  74              	@ 341 "../../../../../../Drivers/CMSIS/Include/cmsis_gcc.h" 1
  75 0016 83F31088 		MSR primask, r3
  76              	@ 0 "" 2
  77              	.LVL4:
  78              		.thumb
  79              		.syntax unified
  80              	.LBE25:
  81              	.LBE24:
  46:../../../../../../Middlewares/Third_Party/LoRaWAN/Utilities/low_power_manager.c ****       break;
  47:../../../../../../Middlewares/Third_Party/LoRaWAN/Utilities/low_power_manager.c ****     }
  48:../../../../../../Middlewares/Third_Party/LoRaWAN/Utilities/low_power_manager.c ****     case LPM_Enable:
  49:../../../../../../Middlewares/Third_Party/LoRaWAN/Utilities/low_power_manager.c ****     {
  50:../../../../../../Middlewares/Third_Party/LoRaWAN/Utilities/low_power_manager.c ****       OffModeDisable &= ~(uint32_t)id;
  51:../../../../../../Middlewares/Third_Party/LoRaWAN/Utilities/low_power_manager.c ****       break;
  52:../../../../../../Middlewares/Third_Party/LoRaWAN/Utilities/low_power_manager.c ****     }
  53:../../../../../../Middlewares/Third_Party/LoRaWAN/Utilities/low_power_manager.c ****     default:
  54:../../../../../../Middlewares/Third_Party/LoRaWAN/Utilities/low_power_manager.c ****       break;
  55:../../../../../../Middlewares/Third_Party/LoRaWAN/Utilities/low_power_manager.c ****   }
  56:../../../../../../Middlewares/Third_Party/LoRaWAN/Utilities/low_power_manager.c ****   
  57:../../../../../../Middlewares/Third_Party/LoRaWAN/Utilities/low_power_manager.c ****   RESTORE_PRIMASK( );
  58:../../../../../../Middlewares/Third_Party/LoRaWAN/Utilities/low_power_manager.c **** 
  59:../../../../../../Middlewares/Third_Party/LoRaWAN/Utilities/low_power_manager.c ****   return;
  60:../../../../../../Middlewares/Third_Party/LoRaWAN/Utilities/low_power_manager.c **** }
  82              		.loc 1 60 0
  83              		@ sp needed
  84 001a 7047     		bx	lr
  85              	.LVL5:
  86              	.L3:
  50:../../../../../../Middlewares/Third_Party/LoRaWAN/Utilities/low_power_manager.c ****       break;
  87              		.loc 1 50 0
  88 001c 0249     		ldr	r1, .L6
  89              	.LVL6:
  90 001e 0A68     		ldr	r2, [r1]
  91 0020 8243     		bics	r2, r0
  92 0022 0A60     		str	r2, [r1]
  51:../../../../../../Middlewares/Third_Party/LoRaWAN/Utilities/low_power_manager.c ****     }
  93              		.loc 1 51 0
  94 0024 F7E7     		b	.L2
  95              	.L7:
  96 0026 C046     		.align	2
  97              	.L6:
  98 0028 00000000 		.word	.LANCHOR0
  99              		.cfi_endproc
 100              	.LFE39:
 101              		.size	LPM_SetOffMode, .-LPM_SetOffMode
 102              		.section	.text.LPM_SetStopMode,"ax",%progbits
 103              		.align	1
 104              		.p2align 2,,3
 105              		.global	LPM_SetStopMode
 106              		.syntax unified
 107              		.code	16
 108              		.thumb_func
 109              		.fpu softvfp
ARM GAS  C:\Users\EBANO_~1\AppData\Local\Temp\cca1ab55.s 			page 10


 110              		.type	LPM_SetStopMode, %function
 111              	LPM_SetStopMode:
 112              	.LFB40:
  61:../../../../../../Middlewares/Third_Party/LoRaWAN/Utilities/low_power_manager.c **** 
  62:../../../../../../Middlewares/Third_Party/LoRaWAN/Utilities/low_power_manager.c **** void LPM_SetStopMode(LPM_Id_t id, LPM_SetMode_t mode)
  63:../../../../../../Middlewares/Third_Party/LoRaWAN/Utilities/low_power_manager.c **** {
 113              		.loc 1 63 0
 114              		.cfi_startproc
 115              		@ args = 0, pretend = 0, frame = 0
 116              		@ frame_needed = 0, uses_anonymous_args = 0
 117              		@ link register save eliminated.
 118              	.LVL7:
 119              	.LBB26:
 120              	.LBB27:
 313:../../../../../../Drivers/CMSIS/Include/cmsis_gcc.h ****   return(result);
 121              		.loc 2 313 0
 122              		.syntax divided
 123              	@ 313 "../../../../../../Drivers/CMSIS/Include/cmsis_gcc.h" 1
 124 0000 EFF31083 		MRS r3, primask
 125              	@ 0 "" 2
 126              		.thumb
 127              		.syntax unified
 128              	.LBE27:
 129              	.LBE26:
 130              	.LBB28:
 131              	.LBB29:
  96:../../../../../../Drivers/CMSIS/Include/cmsis_gcc.h **** }
 132              		.loc 2 96 0
 133              		.syntax divided
 134              	@ 96 "../../../../../../Drivers/CMSIS/Include/cmsis_gcc.h" 1
 135 0004 72B6     		cpsid i
 136              	@ 0 "" 2
 137              		.thumb
 138              		.syntax unified
 139              	.LBE29:
 140              	.LBE28:
  64:../../../../../../Middlewares/Third_Party/LoRaWAN/Utilities/low_power_manager.c ****   BACKUP_PRIMASK();
  65:../../../../../../Middlewares/Third_Party/LoRaWAN/Utilities/low_power_manager.c ****   
  66:../../../../../../Middlewares/Third_Party/LoRaWAN/Utilities/low_power_manager.c ****   DISABLE_IRQ( );
  67:../../../../../../Middlewares/Third_Party/LoRaWAN/Utilities/low_power_manager.c ****   
  68:../../../../../../Middlewares/Third_Party/LoRaWAN/Utilities/low_power_manager.c ****   
  69:../../../../../../Middlewares/Third_Party/LoRaWAN/Utilities/low_power_manager.c ****   switch(mode)
 141              		.loc 1 69 0
 142 0006 0029     		cmp	r1, #0
 143 0008 08D0     		beq	.L10
 144 000a 0129     		cmp	r1, #1
 145 000c 03D1     		bne	.L9
  70:../../../../../../Middlewares/Third_Party/LoRaWAN/Utilities/low_power_manager.c ****   {
  71:../../../../../../Middlewares/Third_Party/LoRaWAN/Utilities/low_power_manager.c ****     case LPM_Disable:
  72:../../../../../../Middlewares/Third_Party/LoRaWAN/Utilities/low_power_manager.c ****     {
  73:../../../../../../Middlewares/Third_Party/LoRaWAN/Utilities/low_power_manager.c ****       StopModeDisable |= (uint32_t)id;
 146              		.loc 1 73 0
 147 000e 064A     		ldr	r2, .L12
 148 0010 5168     		ldr	r1, [r2, #4]
 149              	.LVL8:
 150 0012 0843     		orrs	r0, r1
 151              	.LVL9:
ARM GAS  C:\Users\EBANO_~1\AppData\Local\Temp\cca1ab55.s 			page 11


 152 0014 5060     		str	r0, [r2, #4]
 153              	.L9:
 154              	.LVL10:
 155              	.LBB30:
 156              	.LBB31:
 157              		.loc 2 341 0
 158              		.syntax divided
 159              	@ 341 "../../../../../../Drivers/CMSIS/Include/cmsis_gcc.h" 1
 160 0016 83F31088 		MSR primask, r3
 161              	@ 0 "" 2
 162              	.LVL11:
 163              		.thumb
 164              		.syntax unified
 165              	.LBE31:
 166              	.LBE30:
  74:../../../../../../Middlewares/Third_Party/LoRaWAN/Utilities/low_power_manager.c ****       break;
  75:../../../../../../Middlewares/Third_Party/LoRaWAN/Utilities/low_power_manager.c ****     }
  76:../../../../../../Middlewares/Third_Party/LoRaWAN/Utilities/low_power_manager.c ****     case LPM_Enable:
  77:../../../../../../Middlewares/Third_Party/LoRaWAN/Utilities/low_power_manager.c ****     {
  78:../../../../../../Middlewares/Third_Party/LoRaWAN/Utilities/low_power_manager.c ****       StopModeDisable &= ~(uint32_t)id;
  79:../../../../../../Middlewares/Third_Party/LoRaWAN/Utilities/low_power_manager.c ****       break;
  80:../../../../../../Middlewares/Third_Party/LoRaWAN/Utilities/low_power_manager.c ****     }
  81:../../../../../../Middlewares/Third_Party/LoRaWAN/Utilities/low_power_manager.c ****     default:
  82:../../../../../../Middlewares/Third_Party/LoRaWAN/Utilities/low_power_manager.c ****       break;
  83:../../../../../../Middlewares/Third_Party/LoRaWAN/Utilities/low_power_manager.c ****   }
  84:../../../../../../Middlewares/Third_Party/LoRaWAN/Utilities/low_power_manager.c ****   RESTORE_PRIMASK( );
  85:../../../../../../Middlewares/Third_Party/LoRaWAN/Utilities/low_power_manager.c **** 
  86:../../../../../../Middlewares/Third_Party/LoRaWAN/Utilities/low_power_manager.c ****   return;
  87:../../../../../../Middlewares/Third_Party/LoRaWAN/Utilities/low_power_manager.c **** }
 167              		.loc 1 87 0
 168              		@ sp needed
 169 001a 7047     		bx	lr
 170              	.LVL12:
 171              	.L10:
  78:../../../../../../Middlewares/Third_Party/LoRaWAN/Utilities/low_power_manager.c ****       break;
 172              		.loc 1 78 0
 173 001c 0249     		ldr	r1, .L12
 174              	.LVL13:
 175 001e 4A68     		ldr	r2, [r1, #4]
 176 0020 8243     		bics	r2, r0
 177 0022 4A60     		str	r2, [r1, #4]
  79:../../../../../../Middlewares/Third_Party/LoRaWAN/Utilities/low_power_manager.c ****     }
 178              		.loc 1 79 0
 179 0024 F7E7     		b	.L9
 180              	.L13:
 181 0026 C046     		.align	2
 182              	.L12:
 183 0028 00000000 		.word	.LANCHOR0
 184              		.cfi_endproc
 185              	.LFE40:
 186              		.size	LPM_SetStopMode, .-LPM_SetStopMode
 187              		.section	.text.LPM_GetMode,"ax",%progbits
 188              		.align	1
 189              		.p2align 2,,3
 190              		.global	LPM_GetMode
 191              		.syntax unified
 192              		.code	16
ARM GAS  C:\Users\EBANO_~1\AppData\Local\Temp\cca1ab55.s 			page 12


 193              		.thumb_func
 194              		.fpu softvfp
 195              		.type	LPM_GetMode, %function
 196              	LPM_GetMode:
 197              	.LFB42:
  88:../../../../../../Middlewares/Third_Party/LoRaWAN/Utilities/low_power_manager.c **** 
  89:../../../../../../Middlewares/Third_Party/LoRaWAN/Utilities/low_power_manager.c **** void LPM_EnterLowPower(void)
  90:../../../../../../Middlewares/Third_Party/LoRaWAN/Utilities/low_power_manager.c **** {
  91:../../../../../../Middlewares/Third_Party/LoRaWAN/Utilities/low_power_manager.c ****   if( StopModeDisable )
  92:../../../../../../Middlewares/Third_Party/LoRaWAN/Utilities/low_power_manager.c ****   {
  93:../../../../../../Middlewares/Third_Party/LoRaWAN/Utilities/low_power_manager.c ****     /**
  94:../../../../../../Middlewares/Third_Party/LoRaWAN/Utilities/low_power_manager.c ****      * SLEEP mode is required
  95:../../../../../../Middlewares/Third_Party/LoRaWAN/Utilities/low_power_manager.c ****      */
  96:../../../../../../Middlewares/Third_Party/LoRaWAN/Utilities/low_power_manager.c ****     LPM_EnterSleepMode();
  97:../../../../../../Middlewares/Third_Party/LoRaWAN/Utilities/low_power_manager.c ****     LPM_ExitSleepMode();
  98:../../../../../../Middlewares/Third_Party/LoRaWAN/Utilities/low_power_manager.c ****   }
  99:../../../../../../Middlewares/Third_Party/LoRaWAN/Utilities/low_power_manager.c ****   else
 100:../../../../../../Middlewares/Third_Party/LoRaWAN/Utilities/low_power_manager.c ****   { 
 101:../../../../../../Middlewares/Third_Party/LoRaWAN/Utilities/low_power_manager.c ****     if( OffModeDisable )
 102:../../../../../../Middlewares/Third_Party/LoRaWAN/Utilities/low_power_manager.c ****     {
 103:../../../../../../Middlewares/Third_Party/LoRaWAN/Utilities/low_power_manager.c ****       /**
 104:../../../../../../Middlewares/Third_Party/LoRaWAN/Utilities/low_power_manager.c ****        * STOP mode is required
 105:../../../../../../Middlewares/Third_Party/LoRaWAN/Utilities/low_power_manager.c ****        */
 106:../../../../../../Middlewares/Third_Party/LoRaWAN/Utilities/low_power_manager.c ****       LPM_EnterStopMode();
 107:../../../../../../Middlewares/Third_Party/LoRaWAN/Utilities/low_power_manager.c ****       LPM_ExitStopMode();
 108:../../../../../../Middlewares/Third_Party/LoRaWAN/Utilities/low_power_manager.c ****     }
 109:../../../../../../Middlewares/Third_Party/LoRaWAN/Utilities/low_power_manager.c ****     else
 110:../../../../../../Middlewares/Third_Party/LoRaWAN/Utilities/low_power_manager.c ****     {
 111:../../../../../../Middlewares/Third_Party/LoRaWAN/Utilities/low_power_manager.c ****       /**
 112:../../../../../../Middlewares/Third_Party/LoRaWAN/Utilities/low_power_manager.c ****        * OFF mode is required
 113:../../../../../../Middlewares/Third_Party/LoRaWAN/Utilities/low_power_manager.c ****        */
 114:../../../../../../Middlewares/Third_Party/LoRaWAN/Utilities/low_power_manager.c ****       LPM_EnterOffMode();
 115:../../../../../../Middlewares/Third_Party/LoRaWAN/Utilities/low_power_manager.c ****       LPM_ExitOffMode();
 116:../../../../../../Middlewares/Third_Party/LoRaWAN/Utilities/low_power_manager.c ****     }
 117:../../../../../../Middlewares/Third_Party/LoRaWAN/Utilities/low_power_manager.c ****   }
 118:../../../../../../Middlewares/Third_Party/LoRaWAN/Utilities/low_power_manager.c **** 
 119:../../../../../../Middlewares/Third_Party/LoRaWAN/Utilities/low_power_manager.c ****   return;
 120:../../../../../../Middlewares/Third_Party/LoRaWAN/Utilities/low_power_manager.c **** }
 121:../../../../../../Middlewares/Third_Party/LoRaWAN/Utilities/low_power_manager.c **** 
 122:../../../../../../Middlewares/Third_Party/LoRaWAN/Utilities/low_power_manager.c **** LPM_GetMode_t LPM_GetMode(void)
 123:../../../../../../Middlewares/Third_Party/LoRaWAN/Utilities/low_power_manager.c **** {
 198              		.loc 1 123 0
 199              		.cfi_startproc
 200              		@ args = 0, pretend = 0, frame = 0
 201              		@ frame_needed = 0, uses_anonymous_args = 0
 202              		@ link register save eliminated.
 203              	.LBB32:
 204              	.LBB33:
 313:../../../../../../Drivers/CMSIS/Include/cmsis_gcc.h ****   return(result);
 205              		.loc 2 313 0
 206              		.syntax divided
 207              	@ 313 "../../../../../../Drivers/CMSIS/Include/cmsis_gcc.h" 1
 208 0000 EFF31082 		MRS r2, primask
 209              	@ 0 "" 2
 210              		.thumb
 211              		.syntax unified
 212              	.LBE33:
ARM GAS  C:\Users\EBANO_~1\AppData\Local\Temp\cca1ab55.s 			page 13


 213              	.LBE32:
 214              	.LBB34:
 215              	.LBB35:
  96:../../../../../../Drivers/CMSIS/Include/cmsis_gcc.h **** }
 216              		.loc 2 96 0
 217              		.syntax divided
 218              	@ 96 "../../../../../../Drivers/CMSIS/Include/cmsis_gcc.h" 1
 219 0004 72B6     		cpsid i
 220              	@ 0 "" 2
 221              		.thumb
 222              		.syntax unified
 223              	.LBE35:
 224              	.LBE34:
 124:../../../../../../Middlewares/Third_Party/LoRaWAN/Utilities/low_power_manager.c ****   LPM_GetMode_t mode_selected;
 125:../../../../../../Middlewares/Third_Party/LoRaWAN/Utilities/low_power_manager.c **** 
 126:../../../../../../Middlewares/Third_Party/LoRaWAN/Utilities/low_power_manager.c ****   BACKUP_PRIMASK();
 127:../../../../../../Middlewares/Third_Party/LoRaWAN/Utilities/low_power_manager.c ****   
 128:../../../../../../Middlewares/Third_Party/LoRaWAN/Utilities/low_power_manager.c ****   DISABLE_IRQ( );
 129:../../../../../../Middlewares/Third_Party/LoRaWAN/Utilities/low_power_manager.c **** 
 130:../../../../../../Middlewares/Third_Party/LoRaWAN/Utilities/low_power_manager.c ****   if(StopModeDisable )
 225              		.loc 1 130 0
 226 0006 064B     		ldr	r3, .L18
 131:../../../../../../Middlewares/Third_Party/LoRaWAN/Utilities/low_power_manager.c ****   {
 132:../../../../../../Middlewares/Third_Party/LoRaWAN/Utilities/low_power_manager.c ****     mode_selected = LPM_SleepMode;
 227              		.loc 1 132 0
 228 0008 0020     		movs	r0, #0
 130:../../../../../../Middlewares/Third_Party/LoRaWAN/Utilities/low_power_manager.c ****   {
 229              		.loc 1 130 0
 230 000a 5968     		ldr	r1, [r3, #4]
 231 000c 0029     		cmp	r1, #0
 232 000e 03D1     		bne	.L15
 133:../../../../../../Middlewares/Third_Party/LoRaWAN/Utilities/low_power_manager.c ****   }
 134:../../../../../../Middlewares/Third_Party/LoRaWAN/Utilities/low_power_manager.c ****   else
 135:../../../../../../Middlewares/Third_Party/LoRaWAN/Utilities/low_power_manager.c ****   {
 136:../../../../../../Middlewares/Third_Party/LoRaWAN/Utilities/low_power_manager.c ****     if(OffModeDisable)
 233              		.loc 1 136 0
 234 0010 1868     		ldr	r0, [r3]
 137:../../../../../../Middlewares/Third_Party/LoRaWAN/Utilities/low_power_manager.c ****     {
 138:../../../../../../Middlewares/Third_Party/LoRaWAN/Utilities/low_power_manager.c ****       mode_selected = LPM_StopMode;
 139:../../../../../../Middlewares/Third_Party/LoRaWAN/Utilities/low_power_manager.c ****     }
 140:../../../../../../Middlewares/Third_Party/LoRaWAN/Utilities/low_power_manager.c ****     else
 141:../../../../../../Middlewares/Third_Party/LoRaWAN/Utilities/low_power_manager.c ****     {
 142:../../../../../../Middlewares/Third_Party/LoRaWAN/Utilities/low_power_manager.c ****       mode_selected = LPM_OffMode;
 235              		.loc 1 142 0
 236 0012 4342     		rsbs	r3, r0, #0
 237 0014 5841     		adcs	r0, r0, r3
 238 0016 0130     		adds	r0, r0, #1
 239              	.L15:
 240              	.LVL14:
 241              	.LBB36:
 242              	.LBB37:
 243              		.loc 2 341 0
 244              		.syntax divided
 245              	@ 341 "../../../../../../Drivers/CMSIS/Include/cmsis_gcc.h" 1
 246 0018 82F31088 		MSR primask, r2
 247              	@ 0 "" 2
 248              	.LVL15:
ARM GAS  C:\Users\EBANO_~1\AppData\Local\Temp\cca1ab55.s 			page 14


 249              		.thumb
 250              		.syntax unified
 251              	.LBE37:
 252              	.LBE36:
 143:../../../../../../Middlewares/Third_Party/LoRaWAN/Utilities/low_power_manager.c ****     }
 144:../../../../../../Middlewares/Third_Party/LoRaWAN/Utilities/low_power_manager.c ****   }
 145:../../../../../../Middlewares/Third_Party/LoRaWAN/Utilities/low_power_manager.c **** 
 146:../../../../../../Middlewares/Third_Party/LoRaWAN/Utilities/low_power_manager.c ****   RESTORE_PRIMASK( );
 147:../../../../../../Middlewares/Third_Party/LoRaWAN/Utilities/low_power_manager.c **** 
 148:../../../../../../Middlewares/Third_Party/LoRaWAN/Utilities/low_power_manager.c ****   return mode_selected;
 149:../../../../../../Middlewares/Third_Party/LoRaWAN/Utilities/low_power_manager.c **** }
 253              		.loc 1 149 0
 254              		@ sp needed
 255 001c 7047     		bx	lr
 256              	.L19:
 257 001e C046     		.align	2
 258              	.L18:
 259 0020 00000000 		.word	.LANCHOR0
 260              		.cfi_endproc
 261              	.LFE42:
 262              		.size	LPM_GetMode, .-LPM_GetMode
 263              		.section	.text.LPM_EnterSleepMode,"ax",%progbits
 264              		.align	1
 265              		.p2align 2,,3
 266              		.weak	LPM_EnterSleepMode
 267              		.syntax unified
 268              		.code	16
 269              		.thumb_func
 270              		.fpu softvfp
 271              		.type	LPM_EnterSleepMode, %function
 272              	LPM_EnterSleepMode:
 273              	.LFB43:
 150:../../../../../../Middlewares/Third_Party/LoRaWAN/Utilities/low_power_manager.c **** 
 151:../../../../../../Middlewares/Third_Party/LoRaWAN/Utilities/low_power_manager.c **** __weak void LPM_EnterSleepMode(void) {}
 274              		.loc 1 151 0
 275              		.cfi_startproc
 276              		@ args = 0, pretend = 0, frame = 0
 277              		@ frame_needed = 0, uses_anonymous_args = 0
 278              		@ link register save eliminated.
 279              		.loc 1 151 0
 280              		@ sp needed
 281 0000 7047     		bx	lr
 282              		.cfi_endproc
 283              	.LFE43:
 284              		.size	LPM_EnterSleepMode, .-LPM_EnterSleepMode
 285 0002 C046     		.section	.text.LPM_ExitSleepMode,"ax",%progbits
 286              		.align	1
 287              		.p2align 2,,3
 288              		.weak	LPM_ExitSleepMode
 289              		.syntax unified
 290              		.code	16
 291              		.thumb_func
 292              		.fpu softvfp
 293              		.type	LPM_ExitSleepMode, %function
 294              	LPM_ExitSleepMode:
 295              	.LFB50:
 296              		.cfi_startproc
ARM GAS  C:\Users\EBANO_~1\AppData\Local\Temp\cca1ab55.s 			page 15


 297              		@ args = 0, pretend = 0, frame = 0
 298              		@ frame_needed = 0, uses_anonymous_args = 0
 299              		@ link register save eliminated.
 300              		@ sp needed
 301 0000 7047     		bx	lr
 302              		.cfi_endproc
 303              	.LFE50:
 304              		.size	LPM_ExitSleepMode, .-LPM_ExitSleepMode
 305 0002 C046     		.section	.text.LPM_EnterStopMode,"ax",%progbits
 306              		.align	1
 307              		.p2align 2,,3
 308              		.weak	LPM_EnterStopMode
 309              		.syntax unified
 310              		.code	16
 311              		.thumb_func
 312              		.fpu softvfp
 313              		.type	LPM_EnterStopMode, %function
 314              	LPM_EnterStopMode:
 315              	.LFB52:
 316              		.cfi_startproc
 317              		@ args = 0, pretend = 0, frame = 0
 318              		@ frame_needed = 0, uses_anonymous_args = 0
 319              		@ link register save eliminated.
 320              		@ sp needed
 321 0000 7047     		bx	lr
 322              		.cfi_endproc
 323              	.LFE52:
 324              		.size	LPM_EnterStopMode, .-LPM_EnterStopMode
 325 0002 C046     		.section	.text.LPM_ExitStopMode,"ax",%progbits
 326              		.align	1
 327              		.p2align 2,,3
 328              		.weak	LPM_ExitStopMode
 329              		.syntax unified
 330              		.code	16
 331              		.thumb_func
 332              		.fpu softvfp
 333              		.type	LPM_ExitStopMode, %function
 334              	LPM_ExitStopMode:
 335              	.LFB54:
 336              		.cfi_startproc
 337              		@ args = 0, pretend = 0, frame = 0
 338              		@ frame_needed = 0, uses_anonymous_args = 0
 339              		@ link register save eliminated.
 340              		@ sp needed
 341 0000 7047     		bx	lr
 342              		.cfi_endproc
 343              	.LFE54:
 344              		.size	LPM_ExitStopMode, .-LPM_ExitStopMode
 345 0002 C046     		.section	.text.LPM_EnterOffMode,"ax",%progbits
 346              		.align	1
 347              		.p2align 2,,3
 348              		.weak	LPM_EnterOffMode
 349              		.syntax unified
 350              		.code	16
 351              		.thumb_func
 352              		.fpu softvfp
 353              		.type	LPM_EnterOffMode, %function
ARM GAS  C:\Users\EBANO_~1\AppData\Local\Temp\cca1ab55.s 			page 16


 354              	LPM_EnterOffMode:
 355              	.LFB56:
 356              		.cfi_startproc
 357              		@ args = 0, pretend = 0, frame = 0
 358              		@ frame_needed = 0, uses_anonymous_args = 0
 359              		@ link register save eliminated.
 360              		@ sp needed
 361 0000 7047     		bx	lr
 362              		.cfi_endproc
 363              	.LFE56:
 364              		.size	LPM_EnterOffMode, .-LPM_EnterOffMode
 365 0002 C046     		.section	.text.LPM_ExitOffMode,"ax",%progbits
 366              		.align	1
 367              		.p2align 2,,3
 368              		.weak	LPM_ExitOffMode
 369              		.syntax unified
 370              		.code	16
 371              		.thumb_func
 372              		.fpu softvfp
 373              		.type	LPM_ExitOffMode, %function
 374              	LPM_ExitOffMode:
 375              	.LFB58:
 376              		.cfi_startproc
 377              		@ args = 0, pretend = 0, frame = 0
 378              		@ frame_needed = 0, uses_anonymous_args = 0
 379              		@ link register save eliminated.
 380              		@ sp needed
 381 0000 7047     		bx	lr
 382              		.cfi_endproc
 383              	.LFE58:
 384              		.size	LPM_ExitOffMode, .-LPM_ExitOffMode
 385 0002 C046     		.section	.text.LPM_EnterLowPower,"ax",%progbits
 386              		.align	1
 387              		.p2align 2,,3
 388              		.global	LPM_EnterLowPower
 389              		.syntax unified
 390              		.code	16
 391              		.thumb_func
 392              		.fpu softvfp
 393              		.type	LPM_EnterLowPower, %function
 394              	LPM_EnterLowPower:
 395              	.LFB41:
  90:../../../../../../Middlewares/Third_Party/LoRaWAN/Utilities/low_power_manager.c ****   if( StopModeDisable )
 396              		.loc 1 90 0
 397              		.cfi_startproc
 398              		@ args = 0, pretend = 0, frame = 0
 399              		@ frame_needed = 0, uses_anonymous_args = 0
  91:../../../../../../Middlewares/Third_Party/LoRaWAN/Utilities/low_power_manager.c ****   {
 400              		.loc 1 91 0
 401 0000 0B4B     		ldr	r3, .L32
  90:../../../../../../Middlewares/Third_Party/LoRaWAN/Utilities/low_power_manager.c ****   if( StopModeDisable )
 402              		.loc 1 90 0
 403 0002 10B5     		push	{r4, lr}
 404              	.LCFI0:
 405              		.cfi_def_cfa_offset 8
 406              		.cfi_offset 4, -8
 407              		.cfi_offset 14, -4
ARM GAS  C:\Users\EBANO_~1\AppData\Local\Temp\cca1ab55.s 			page 17


  91:../../../../../../Middlewares/Third_Party/LoRaWAN/Utilities/low_power_manager.c ****   {
 408              		.loc 1 91 0
 409 0004 5A68     		ldr	r2, [r3, #4]
 410 0006 002A     		cmp	r2, #0
 411 0008 0CD1     		bne	.L30
 101:../../../../../../Middlewares/Third_Party/LoRaWAN/Utilities/low_power_manager.c ****     {
 412              		.loc 1 101 0
 413 000a 1B68     		ldr	r3, [r3]
 414 000c 002B     		cmp	r3, #0
 415 000e 04D1     		bne	.L31
 114:../../../../../../Middlewares/Third_Party/LoRaWAN/Utilities/low_power_manager.c ****       LPM_ExitOffMode();
 416              		.loc 1 114 0
 417 0010 FFF7FEFF 		bl	LPM_EnterOffMode
 418              	.LVL16:
 115:../../../../../../Middlewares/Third_Party/LoRaWAN/Utilities/low_power_manager.c ****     }
 419              		.loc 1 115 0
 420 0014 FFF7FEFF 		bl	LPM_ExitOffMode
 421              	.LVL17:
 422              	.L26:
 120:../../../../../../Middlewares/Third_Party/LoRaWAN/Utilities/low_power_manager.c **** 
 423              		.loc 1 120 0
 424              		@ sp needed
 425 0018 10BD     		pop	{r4, pc}
 426              	.L31:
 106:../../../../../../Middlewares/Third_Party/LoRaWAN/Utilities/low_power_manager.c ****       LPM_ExitStopMode();
 427              		.loc 1 106 0
 428 001a FFF7FEFF 		bl	LPM_EnterStopMode
 429              	.LVL18:
 107:../../../../../../Middlewares/Third_Party/LoRaWAN/Utilities/low_power_manager.c ****     }
 430              		.loc 1 107 0
 431 001e FFF7FEFF 		bl	LPM_ExitStopMode
 432              	.LVL19:
 433 0022 F9E7     		b	.L26
 434              	.L30:
  96:../../../../../../Middlewares/Third_Party/LoRaWAN/Utilities/low_power_manager.c ****     LPM_ExitSleepMode();
 435              		.loc 1 96 0
 436 0024 FFF7FEFF 		bl	LPM_EnterSleepMode
 437              	.LVL20:
  97:../../../../../../Middlewares/Third_Party/LoRaWAN/Utilities/low_power_manager.c ****   }
 438              		.loc 1 97 0
 439 0028 FFF7FEFF 		bl	LPM_ExitSleepMode
 440              	.LVL21:
 441 002c F4E7     		b	.L26
 442              	.L33:
 443 002e C046     		.align	2
 444              	.L32:
 445 0030 00000000 		.word	.LANCHOR0
 446              		.cfi_endproc
 447              	.LFE41:
 448              		.size	LPM_EnterLowPower, .-LPM_EnterLowPower
 449              		.bss
 450              		.align	2
 451              		.set	.LANCHOR0,. + 0
 452              		.type	OffModeDisable, %object
 453              		.size	OffModeDisable, 4
 454              	OffModeDisable:
 455 0000 00000000 		.space	4
ARM GAS  C:\Users\EBANO_~1\AppData\Local\Temp\cca1ab55.s 			page 18


 456              		.type	StopModeDisable, %object
 457              		.size	StopModeDisable, 4
 458              	StopModeDisable:
 459 0004 00000000 		.space	4
 460              		.text
 461              	.Letext0:
 462              		.file 3 "c:\\program files (x86)\\gnu tools arm embedded\\7 2018-q2-update\\arm-none-eabi\\include
 463              		.file 4 "c:\\program files (x86)\\gnu tools arm embedded\\7 2018-q2-update\\arm-none-eabi\\include
 464              		.file 5 "c:\\program files (x86)\\gnu tools arm embedded\\7 2018-q2-update\\arm-none-eabi\\include
 465              		.file 6 "c:\\program files (x86)\\gnu tools arm embedded\\7 2018-q2-update\\lib\\gcc\\arm-none-eab
 466              		.file 7 "c:\\program files (x86)\\gnu tools arm embedded\\7 2018-q2-update\\arm-none-eabi\\include
 467              		.file 8 "c:\\program files (x86)\\gnu tools arm embedded\\7 2018-q2-update\\arm-none-eabi\\include
 468              		.file 9 "c:\\program files (x86)\\gnu tools arm embedded\\7 2018-q2-update\\arm-none-eabi\\include
 469              		.file 10 "../../../../../../Drivers/CMSIS/Device/ST/STM32L0xx/Include/system_stm32l0xx.h"
 470              		.file 11 "c:\\program files (x86)\\gnu tools arm embedded\\7 2018-q2-update\\arm-none-eabi\\includ
 471              		.file 12 "../LoRaWAN/App/inc/utilities_conf.h"
 472              		.file 13 "c:\\program files (x86)\\gnu tools arm embedded\\7 2018-q2-update\\arm-none-eabi\\includ
 473              		.file 14 "../../../../../../Middlewares/Third_Party/LoRaWAN/Utilities/low_power_manager.h"