ARM GAS  C:\Users\EBANO_~1\AppData\Local\Temp\ccR8xqy1.s 			page 1


   1              		.cpu cortex-m0plus
   2              		.eabi_attribute 20, 1
   3              		.eabi_attribute 21, 1
   4              		.eabi_attribute 23, 3
   5              		.eabi_attribute 24, 1
   6              		.eabi_attribute 25, 1
   7              		.eabi_attribute 26, 1
   8              		.eabi_attribute 30, 2
   9              		.eabi_attribute 34, 0
  10              		.eabi_attribute 18, 4
  11              		.file	"main.c"
  12              		.text
  13              	.Ltext0:
  14              		.cfi_sections	.debug_frame
  15              		.section	.text.LoraMacProcessNotify,"ax",%progbits
  16              		.align	1
  17              		.p2align 2,,3
  18              		.syntax unified
  19              		.code	16
  20              		.thumb_func
  21              		.fpu softvfp
  22              		.type	LoraMacProcessNotify, %function
  23              	LoraMacProcessNotify:
  24              	.LFB40:
  25              		.file 1 "../LoRaWAN/App/src/main.c"
   1:../LoRaWAN/App/src/main.c **** /**
   2:../LoRaWAN/App/src/main.c ****   ******************************************************************************
   3:../LoRaWAN/App/src/main.c ****   * @file    main.c
   4:../LoRaWAN/App/src/main.c ****   * @author  MCD Application Team
   5:../LoRaWAN/App/src/main.c ****   * @brief   this is the main!
   6:../LoRaWAN/App/src/main.c ****   ******************************************************************************
   7:../LoRaWAN/App/src/main.c ****   * @attention
   8:../LoRaWAN/App/src/main.c ****   *
   9:../LoRaWAN/App/src/main.c ****   * <h2><center>&copy; Copyright (c) 2018 STMicroelectronics.
  10:../LoRaWAN/App/src/main.c ****   * All rights reserved.</center></h2>
  11:../LoRaWAN/App/src/main.c ****   *
  12:../LoRaWAN/App/src/main.c ****   * This software component is licensed by ST under Ultimate Liberty license
  13:../LoRaWAN/App/src/main.c ****   * SLA0044, the "License"; You may not use this file except in compliance with
  14:../LoRaWAN/App/src/main.c ****   * the License. You may obtain a copy of the License at:
  15:../LoRaWAN/App/src/main.c ****   *                             www.st.com/SLA0044
  16:../LoRaWAN/App/src/main.c ****   *
  17:../LoRaWAN/App/src/main.c ****   ******************************************************************************
  18:../LoRaWAN/App/src/main.c ****   */
  19:../LoRaWAN/App/src/main.c **** 
  20:../LoRaWAN/App/src/main.c **** /* Includes ------------------------------------------------------------------*/
  21:../LoRaWAN/App/src/main.c **** #include "hw.h"
  22:../LoRaWAN/App/src/main.c **** #include "low_power_manager.h"
  23:../LoRaWAN/App/src/main.c **** #include "lora.h"
  24:../LoRaWAN/App/src/main.c **** #include "bsp.h"
  25:../LoRaWAN/App/src/main.c **** #include "timeServer.h"
  26:../LoRaWAN/App/src/main.c **** #include "vcom.h"
  27:../LoRaWAN/App/src/main.c **** #include "version.h"
  28:../LoRaWAN/App/src/main.c **** 
  29:../LoRaWAN/App/src/main.c **** /* Private typedef -----------------------------------------------------------*/
  30:../LoRaWAN/App/src/main.c **** /* Private define ------------------------------------------------------------*/
  31:../LoRaWAN/App/src/main.c **** 
  32:../LoRaWAN/App/src/main.c **** /*!
ARM GAS  C:\Users\EBANO_~1\AppData\Local\Temp\ccR8xqy1.s 			page 2


  33:../LoRaWAN/App/src/main.c ****  * CAYENNE_LPP is myDevices Application server.
  34:../LoRaWAN/App/src/main.c ****  */
  35:../LoRaWAN/App/src/main.c **** //#define CAYENNE_LPP
  36:../LoRaWAN/App/src/main.c **** #define LPP_DATATYPE_DIGITAL_INPUT  0x0
  37:../LoRaWAN/App/src/main.c **** #define LPP_DATATYPE_DIGITAL_OUTPUT 0x1
  38:../LoRaWAN/App/src/main.c **** #define LPP_DATATYPE_HUMIDITY       0x68
  39:../LoRaWAN/App/src/main.c **** #define LPP_DATATYPE_TEMPERATURE    0x67
  40:../LoRaWAN/App/src/main.c **** #define LPP_DATATYPE_BAROMETER      0x73
  41:../LoRaWAN/App/src/main.c **** #define LPP_APP_PORT 99
  42:../LoRaWAN/App/src/main.c **** /*!
  43:../LoRaWAN/App/src/main.c ****  * Defines the application data transmission duty cycle. 5s, value in [ms].
  44:../LoRaWAN/App/src/main.c ****  */
  45:../LoRaWAN/App/src/main.c **** #define APP_TX_DUTYCYCLE                            10000
  46:../LoRaWAN/App/src/main.c **** /*!
  47:../LoRaWAN/App/src/main.c ****  * LoRaWAN Adaptive Data Rate
  48:../LoRaWAN/App/src/main.c ****  * @note Please note that when ADR is enabled the end-device should be static
  49:../LoRaWAN/App/src/main.c ****  */
  50:../LoRaWAN/App/src/main.c **** #define LORAWAN_ADR_STATE LORAWAN_ADR_ON
  51:../LoRaWAN/App/src/main.c **** /*!
  52:../LoRaWAN/App/src/main.c ****  * LoRaWAN Default data Rate Data Rate
  53:../LoRaWAN/App/src/main.c ****  * @note Please note that LORAWAN_DEFAULT_DATA_RATE is used only when ADR is disabled 
  54:../LoRaWAN/App/src/main.c ****  */
  55:../LoRaWAN/App/src/main.c **** #define LORAWAN_DEFAULT_DATA_RATE DR_0
  56:../LoRaWAN/App/src/main.c **** /*!
  57:../LoRaWAN/App/src/main.c ****  * LoRaWAN application port
  58:../LoRaWAN/App/src/main.c ****  * @note do not use 224. It is reserved for certification
  59:../LoRaWAN/App/src/main.c ****  */
  60:../LoRaWAN/App/src/main.c **** #define LORAWAN_APP_PORT                            2
  61:../LoRaWAN/App/src/main.c **** /*!
  62:../LoRaWAN/App/src/main.c ****  * LoRaWAN default endNode class port
  63:../LoRaWAN/App/src/main.c ****  */
  64:../LoRaWAN/App/src/main.c **** #define LORAWAN_DEFAULT_CLASS                       CLASS_A
  65:../LoRaWAN/App/src/main.c **** /*!
  66:../LoRaWAN/App/src/main.c ****  * LoRaWAN default confirm state
  67:../LoRaWAN/App/src/main.c ****  */
  68:../LoRaWAN/App/src/main.c **** #define LORAWAN_DEFAULT_CONFIRM_MSG_STATE           LORAWAN_UNCONFIRMED_MSG
  69:../LoRaWAN/App/src/main.c **** /*!
  70:../LoRaWAN/App/src/main.c ****  * User application data buffer size
  71:../LoRaWAN/App/src/main.c ****  */
  72:../LoRaWAN/App/src/main.c **** #define LORAWAN_APP_DATA_BUFF_SIZE                           64
  73:../LoRaWAN/App/src/main.c **** /*!
  74:../LoRaWAN/App/src/main.c ****  * User application data
  75:../LoRaWAN/App/src/main.c ****  */
  76:../LoRaWAN/App/src/main.c **** static uint8_t AppDataBuff[LORAWAN_APP_DATA_BUFF_SIZE];
  77:../LoRaWAN/App/src/main.c **** 
  78:../LoRaWAN/App/src/main.c **** /*!
  79:../LoRaWAN/App/src/main.c ****  * User application data structure
  80:../LoRaWAN/App/src/main.c ****  */
  81:../LoRaWAN/App/src/main.c **** //static lora_AppData_t AppData={ AppDataBuff,  0 ,0 };
  82:../LoRaWAN/App/src/main.c **** lora_AppData_t AppData={ AppDataBuff,  0 ,0 };
  83:../LoRaWAN/App/src/main.c **** 
  84:../LoRaWAN/App/src/main.c **** /* Private macro -------------------------------------------------------------*/
  85:../LoRaWAN/App/src/main.c **** /* Private function prototypes -----------------------------------------------*/
  86:../LoRaWAN/App/src/main.c **** 
  87:../LoRaWAN/App/src/main.c **** /* call back when LoRa endNode has received a frame*/
  88:../LoRaWAN/App/src/main.c **** static void LORA_RxData( lora_AppData_t *AppData);
  89:../LoRaWAN/App/src/main.c **** 
ARM GAS  C:\Users\EBANO_~1\AppData\Local\Temp\ccR8xqy1.s 			page 3


  90:../LoRaWAN/App/src/main.c **** /* call back when LoRa endNode has just joined*/
  91:../LoRaWAN/App/src/main.c **** static void LORA_HasJoined( void );
  92:../LoRaWAN/App/src/main.c **** 
  93:../LoRaWAN/App/src/main.c **** /* call back when LoRa endNode has just switch the class*/
  94:../LoRaWAN/App/src/main.c **** static void LORA_ConfirmClass ( DeviceClass_t Class );
  95:../LoRaWAN/App/src/main.c **** 
  96:../LoRaWAN/App/src/main.c **** /* call back when server needs endNode to send a frame*/
  97:../LoRaWAN/App/src/main.c **** static void LORA_TxNeeded ( void );
  98:../LoRaWAN/App/src/main.c **** 
  99:../LoRaWAN/App/src/main.c **** /* LoRa endNode send request*/
 100:../LoRaWAN/App/src/main.c **** static void Send( void* context );
 101:../LoRaWAN/App/src/main.c **** 
 102:../LoRaWAN/App/src/main.c **** /* start the tx process*/
 103:../LoRaWAN/App/src/main.c **** static void LoraStartTx(TxEventType_t EventType);
 104:../LoRaWAN/App/src/main.c **** 
 105:../LoRaWAN/App/src/main.c **** /* tx timer callback function*/
 106:../LoRaWAN/App/src/main.c **** static void OnTxTimerEvent( void* context );
 107:../LoRaWAN/App/src/main.c **** 
 108:../LoRaWAN/App/src/main.c **** /* tx timer callback function*/
 109:../LoRaWAN/App/src/main.c **** static void LoraMacProcessNotify( void );
 110:../LoRaWAN/App/src/main.c **** 
 111:../LoRaWAN/App/src/main.c **** /* Private variables ---------------------------------------------------------*/
 112:../LoRaWAN/App/src/main.c **** /* load Main call backs structure*/
 113:../LoRaWAN/App/src/main.c **** static LoRaMainCallback_t LoRaMainCallbacks = { HW_GetBatteryLevel,
 114:../LoRaWAN/App/src/main.c ****                                                 HW_GetTemperatureLevel,
 115:../LoRaWAN/App/src/main.c ****                                                 HW_GetUniqueId,
 116:../LoRaWAN/App/src/main.c ****                                                 HW_GetRandomSeed,
 117:../LoRaWAN/App/src/main.c ****                                                 LORA_RxData,
 118:../LoRaWAN/App/src/main.c ****                                                 LORA_HasJoined,
 119:../LoRaWAN/App/src/main.c ****                                                 LORA_ConfirmClass,
 120:../LoRaWAN/App/src/main.c ****                                                 LORA_TxNeeded,
 121:../LoRaWAN/App/src/main.c ****                                                 LoraMacProcessNotify};
 122:../LoRaWAN/App/src/main.c **** LoraFlagStatus LoraMacProcessRequest=LORA_RESET;
 123:../LoRaWAN/App/src/main.c **** LoraFlagStatus AppProcessRequest=LORA_RESET;
 124:../LoRaWAN/App/src/main.c **** /*!
 125:../LoRaWAN/App/src/main.c ****  * Specifies the state of the application LED
 126:../LoRaWAN/App/src/main.c ****  */
 127:../LoRaWAN/App/src/main.c **** static uint8_t AppLedStateOn = RESET;
 128:../LoRaWAN/App/src/main.c ****                                                
 129:../LoRaWAN/App/src/main.c **** static TimerEvent_t TxTimer;
 130:../LoRaWAN/App/src/main.c **** 
 131:../LoRaWAN/App/src/main.c **** #ifdef USE_B_L072Z_LRWAN1
 132:../LoRaWAN/App/src/main.c **** /*!
 133:../LoRaWAN/App/src/main.c ****  * Timer to handle the application Tx Led to toggle
 134:../LoRaWAN/App/src/main.c ****  */
 135:../LoRaWAN/App/src/main.c **** static TimerEvent_t TxLedTimer;
 136:../LoRaWAN/App/src/main.c **** static void OnTimerLedEvent( void* context );
 137:../LoRaWAN/App/src/main.c **** #endif
 138:../LoRaWAN/App/src/main.c **** /* !
 139:../LoRaWAN/App/src/main.c ****  *Initialises the Lora Parameters
 140:../LoRaWAN/App/src/main.c ****  */
 141:../LoRaWAN/App/src/main.c **** static  LoRaParam_t LoRaParamInit= {LORAWAN_ADR_STATE,
 142:../LoRaWAN/App/src/main.c ****                                     LORAWAN_DEFAULT_DATA_RATE,  
 143:../LoRaWAN/App/src/main.c ****                                     LORAWAN_PUBLIC_NETWORK};
 144:../LoRaWAN/App/src/main.c **** 
 145:../LoRaWAN/App/src/main.c **** /* Private functions ---------------------------------------------------------*/
 146:../LoRaWAN/App/src/main.c **** 
ARM GAS  C:\Users\EBANO_~1\AppData\Local\Temp\ccR8xqy1.s 			page 4


 147:../LoRaWAN/App/src/main.c **** /**
 148:../LoRaWAN/App/src/main.c ****   * @brief  Main program
 149:../LoRaWAN/App/src/main.c ****   * @param  None
 150:../LoRaWAN/App/src/main.c ****   * @retval None
 151:../LoRaWAN/App/src/main.c ****   */
 152:../LoRaWAN/App/src/main.c **** int main( void )
 153:../LoRaWAN/App/src/main.c **** {
 154:../LoRaWAN/App/src/main.c ****   /* STM32 HAL library initialization*/
 155:../LoRaWAN/App/src/main.c ****   HAL_Init();
 156:../LoRaWAN/App/src/main.c ****   
 157:../LoRaWAN/App/src/main.c ****   /* Configure the system clock*/
 158:../LoRaWAN/App/src/main.c ****   SystemClock_Config();
 159:../LoRaWAN/App/src/main.c ****   
 160:../LoRaWAN/App/src/main.c ****   /* Configure the debug mode*/
 161:../LoRaWAN/App/src/main.c ****   DBG_Init();
 162:../LoRaWAN/App/src/main.c ****   
 163:../LoRaWAN/App/src/main.c ****   /* Configure the hardware*/
 164:../LoRaWAN/App/src/main.c ****   HW_Init();
 165:../LoRaWAN/App/src/main.c ****   
 166:../LoRaWAN/App/src/main.c ****   /* USER CODE BEGIN 1 */
 167:../LoRaWAN/App/src/main.c ****   /* USER CODE END 1 */
 168:../LoRaWAN/App/src/main.c ****   
 169:../LoRaWAN/App/src/main.c ****   /*Disbale Stand-by mode*/
 170:../LoRaWAN/App/src/main.c ****   LPM_SetOffMode(LPM_APPLI_Id , LPM_Disable );
 171:../LoRaWAN/App/src/main.c ****   
 172:../LoRaWAN/App/src/main.c ****   PRINTF("VERSION: %X\n\r", VERSION);
 173:../LoRaWAN/App/src/main.c ****   
 174:../LoRaWAN/App/src/main.c ****   /* Configure the Lora Stack*/
 175:../LoRaWAN/App/src/main.c ****   LORA_Init( &LoRaMainCallbacks, &LoRaParamInit);
 176:../LoRaWAN/App/src/main.c ****   
 177:../LoRaWAN/App/src/main.c ****   LORA_Join();
 178:../LoRaWAN/App/src/main.c ****   
 179:../LoRaWAN/App/src/main.c ****   LoraStartTx( TX_ON_TIMER) ;
 180:../LoRaWAN/App/src/main.c ****   
 181:../LoRaWAN/App/src/main.c ****   while( 1 )
 182:../LoRaWAN/App/src/main.c ****   {
 183:../LoRaWAN/App/src/main.c ****     if (AppProcessRequest==LORA_SET)
 184:../LoRaWAN/App/src/main.c ****     {
 185:../LoRaWAN/App/src/main.c ****       /*reset notification flag*/
 186:../LoRaWAN/App/src/main.c ****       AppProcessRequest=LORA_RESET;
 187:../LoRaWAN/App/src/main.c **** 	  /*Send*/
 188:../LoRaWAN/App/src/main.c ****       Send( NULL );
 189:../LoRaWAN/App/src/main.c ****     }
 190:../LoRaWAN/App/src/main.c **** 	if (LoraMacProcessRequest==LORA_SET)
 191:../LoRaWAN/App/src/main.c ****     {
 192:../LoRaWAN/App/src/main.c ****       /*reset notification flag*/
 193:../LoRaWAN/App/src/main.c ****       LoraMacProcessRequest=LORA_RESET;
 194:../LoRaWAN/App/src/main.c ****       LoRaMacProcess( );
 195:../LoRaWAN/App/src/main.c ****     }
 196:../LoRaWAN/App/src/main.c ****     /*If a flag is set at this point, mcu must not enter low power and must loop*/
 197:../LoRaWAN/App/src/main.c ****     DISABLE_IRQ( );
 198:../LoRaWAN/App/src/main.c ****     
 199:../LoRaWAN/App/src/main.c ****     /* if an interrupt has occurred after DISABLE_IRQ, it is kept pending 
 200:../LoRaWAN/App/src/main.c ****      * and cortex will not enter low power anyway  */
 201:../LoRaWAN/App/src/main.c ****     if ((LoraMacProcessRequest!=LORA_SET) && (AppProcessRequest!=LORA_SET))
 202:../LoRaWAN/App/src/main.c ****     {
 203:../LoRaWAN/App/src/main.c **** #ifndef LOW_POWER_DISABLE
ARM GAS  C:\Users\EBANO_~1\AppData\Local\Temp\ccR8xqy1.s 			page 5


 204:../LoRaWAN/App/src/main.c ****       LPM_EnterLowPower( );
 205:../LoRaWAN/App/src/main.c **** #endif
 206:../LoRaWAN/App/src/main.c ****     }
 207:../LoRaWAN/App/src/main.c **** 
 208:../LoRaWAN/App/src/main.c ****     ENABLE_IRQ();
 209:../LoRaWAN/App/src/main.c ****     
 210:../LoRaWAN/App/src/main.c ****     /* USER CODE BEGIN 2 */
 211:../LoRaWAN/App/src/main.c ****     /* USER CODE END 2 */
 212:../LoRaWAN/App/src/main.c ****   }
 213:../LoRaWAN/App/src/main.c **** }
 214:../LoRaWAN/App/src/main.c **** 
 215:../LoRaWAN/App/src/main.c **** 
 216:../LoRaWAN/App/src/main.c **** void LoraMacProcessNotify(void)
 217:../LoRaWAN/App/src/main.c **** {
  26              		.loc 1 217 0
  27              		.cfi_startproc
  28              		@ args = 0, pretend = 0, frame = 0
  29              		@ frame_needed = 0, uses_anonymous_args = 0
  30              		@ link register save eliminated.
 218:../LoRaWAN/App/src/main.c ****   LoraMacProcessRequest=LORA_SET;
  31              		.loc 1 218 0
  32 0000 0122     		movs	r2, #1
  33 0002 014B     		ldr	r3, .L3
 219:../LoRaWAN/App/src/main.c **** }
  34              		.loc 1 219 0
  35              		@ sp needed
 218:../LoRaWAN/App/src/main.c ****   LoraMacProcessRequest=LORA_SET;
  36              		.loc 1 218 0
  37 0004 1A70     		strb	r2, [r3]
  38              		.loc 1 219 0
  39 0006 7047     		bx	lr
  40              	.L4:
  41              		.align	2
  42              	.L3:
  43 0008 00000000 		.word	.LANCHOR0
  44              		.cfi_endproc
  45              	.LFE40:
  46              		.size	LoraMacProcessNotify, .-LoraMacProcessNotify
  47              		.section	.text.LORA_TxNeeded,"ax",%progbits
  48              		.align	1
  49              		.p2align 2,,3
  50              		.syntax unified
  51              		.code	16
  52              		.thumb_func
  53              		.fpu softvfp
  54              		.type	LORA_TxNeeded, %function
  55              	LORA_TxNeeded:
  56              	.LFB47:
 220:../LoRaWAN/App/src/main.c **** 
 221:../LoRaWAN/App/src/main.c **** 
 222:../LoRaWAN/App/src/main.c **** static void LORA_HasJoined( void )
 223:../LoRaWAN/App/src/main.c **** {
 224:../LoRaWAN/App/src/main.c **** #if( OVER_THE_AIR_ACTIVATION != 0 )
 225:../LoRaWAN/App/src/main.c ****   PRINTF("JOINED\n\r");
 226:../LoRaWAN/App/src/main.c **** #endif
 227:../LoRaWAN/App/src/main.c ****   LORA_RequestClass( LORAWAN_DEFAULT_CLASS );
 228:../LoRaWAN/App/src/main.c **** }
ARM GAS  C:\Users\EBANO_~1\AppData\Local\Temp\ccR8xqy1.s 			page 6


 229:../LoRaWAN/App/src/main.c **** 
 230:../LoRaWAN/App/src/main.c **** static void Send( void* context )
 231:../LoRaWAN/App/src/main.c **** {
 232:../LoRaWAN/App/src/main.c ****   /* USER CODE BEGIN 3 */
 233:../LoRaWAN/App/src/main.c ****   uint16_t pressure = 0;
 234:../LoRaWAN/App/src/main.c ****   int16_t temperature = 0;
 235:../LoRaWAN/App/src/main.c ****   uint16_t humidity = 0;
 236:../LoRaWAN/App/src/main.c ****   uint8_t batteryLevel;
 237:../LoRaWAN/App/src/main.c ****   sensor_t sensor_data;
 238:../LoRaWAN/App/src/main.c ****   
 239:../LoRaWAN/App/src/main.c ****   if ( LORA_JoinStatus () != LORA_SET)
 240:../LoRaWAN/App/src/main.c ****   {
 241:../LoRaWAN/App/src/main.c ****     /*Not joined, try again later*/
 242:../LoRaWAN/App/src/main.c ****     LORA_Join();
 243:../LoRaWAN/App/src/main.c ****     return;
 244:../LoRaWAN/App/src/main.c ****   }
 245:../LoRaWAN/App/src/main.c ****   
 246:../LoRaWAN/App/src/main.c ****   TVL1(PRINTF("SEND REQUEST\n\r");)
 247:../LoRaWAN/App/src/main.c **** #ifndef CAYENNE_LPP
 248:../LoRaWAN/App/src/main.c ****   int32_t latitude, longitude = 0;
 249:../LoRaWAN/App/src/main.c ****   uint16_t altitudeGps = 0;
 250:../LoRaWAN/App/src/main.c **** #endif
 251:../LoRaWAN/App/src/main.c ****   
 252:../LoRaWAN/App/src/main.c **** #ifdef USE_B_L072Z_LRWAN1
 253:../LoRaWAN/App/src/main.c ****   TimerInit( &TxLedTimer, OnTimerLedEvent );
 254:../LoRaWAN/App/src/main.c ****   
 255:../LoRaWAN/App/src/main.c ****   TimerSetValue(  &TxLedTimer, 200);
 256:../LoRaWAN/App/src/main.c ****   
 257:../LoRaWAN/App/src/main.c ****   LED_On( LED_RED1 ) ; 
 258:../LoRaWAN/App/src/main.c ****   
 259:../LoRaWAN/App/src/main.c ****   TimerStart( &TxLedTimer );  
 260:../LoRaWAN/App/src/main.c **** #endif
 261:../LoRaWAN/App/src/main.c **** 
 262:../LoRaWAN/App/src/main.c ****   BSP_sensor_Read( &sensor_data );
 263:../LoRaWAN/App/src/main.c **** 
 264:../LoRaWAN/App/src/main.c **** #ifdef CAYENNE_LPP
 265:../LoRaWAN/App/src/main.c ****   uint8_t cchannel=0;
 266:../LoRaWAN/App/src/main.c ****   temperature = ( int16_t )( sensor_data.temperature * 10 );     /* in °C * 10 */
 267:../LoRaWAN/App/src/main.c ****   pressure    = ( uint16_t )( sensor_data.pressure * 100 / 10 );  /* in hPa / 10 */
 268:../LoRaWAN/App/src/main.c ****   humidity    = ( uint16_t )( sensor_data.humidity * 2 );        /* in %*2     */
 269:../LoRaWAN/App/src/main.c ****   uint32_t i = 0;
 270:../LoRaWAN/App/src/main.c **** 
 271:../LoRaWAN/App/src/main.c ****   batteryLevel = HW_GetBatteryLevel( );                     /* 1 (very low) to 254 (fully charged) 
 272:../LoRaWAN/App/src/main.c **** 
 273:../LoRaWAN/App/src/main.c ****   AppData.Port = LPP_APP_PORT;
 274:../LoRaWAN/App/src/main.c **** 
 275:../LoRaWAN/App/src/main.c ****   AppData.Buff[i++] = cchannel++;
 276:../LoRaWAN/App/src/main.c ****   AppData.Buff[i++] = LPP_DATATYPE_BAROMETER;
 277:../LoRaWAN/App/src/main.c ****   AppData.Buff[i++] = ( pressure >> 8 ) & 0xFF;
 278:../LoRaWAN/App/src/main.c ****   AppData.Buff[i++] = pressure & 0xFF;
 279:../LoRaWAN/App/src/main.c ****   AppData.Buff[i++] = cchannel++;
 280:../LoRaWAN/App/src/main.c ****   AppData.Buff[i++] = LPP_DATATYPE_TEMPERATURE; 
 281:../LoRaWAN/App/src/main.c ****   AppData.Buff[i++] = ( temperature >> 8 ) & 0xFF;
 282:../LoRaWAN/App/src/main.c ****   AppData.Buff[i++] = temperature & 0xFF;
 283:../LoRaWAN/App/src/main.c ****   AppData.Buff[i++] = cchannel++;
 284:../LoRaWAN/App/src/main.c ****   AppData.Buff[i++] = LPP_DATATYPE_HUMIDITY;
 285:../LoRaWAN/App/src/main.c ****   AppData.Buff[i++] = humidity & 0xFF;
ARM GAS  C:\Users\EBANO_~1\AppData\Local\Temp\ccR8xqy1.s 			page 7


 286:../LoRaWAN/App/src/main.c **** #if defined( REGION_US915 ) || defined ( REGION_AU915 )
 287:../LoRaWAN/App/src/main.c ****   /* The maximum payload size does not allow to send more data for lowest DRs */
 288:../LoRaWAN/App/src/main.c **** #else
 289:../LoRaWAN/App/src/main.c ****   AppData.Buff[i++] = cchannel++;
 290:../LoRaWAN/App/src/main.c ****   AppData.Buff[i++] = LPP_DATATYPE_DIGITAL_INPUT; 
 291:../LoRaWAN/App/src/main.c ****   AppData.Buff[i++] = batteryLevel*100/254;
 292:../LoRaWAN/App/src/main.c ****   AppData.Buff[i++] = cchannel++;
 293:../LoRaWAN/App/src/main.c ****   AppData.Buff[i++] = LPP_DATATYPE_DIGITAL_OUTPUT; 
 294:../LoRaWAN/App/src/main.c ****   AppData.Buff[i++] = AppLedStateOn;
 295:../LoRaWAN/App/src/main.c **** #endif  /* REGION_XX915 */
 296:../LoRaWAN/App/src/main.c **** #else  /* not CAYENNE_LPP */
 297:../LoRaWAN/App/src/main.c **** 
 298:../LoRaWAN/App/src/main.c ****   temperature = ( int16_t )( sensor_data.temperature * 100 );     /* in °C * 100 */
 299:../LoRaWAN/App/src/main.c ****   pressure    = ( uint16_t )( sensor_data.pressure * 100 / 10 );  /* in hPa / 10 */
 300:../LoRaWAN/App/src/main.c ****   humidity    = ( uint16_t )( sensor_data.humidity * 10 );        /* in %*10     */
 301:../LoRaWAN/App/src/main.c ****   latitude = sensor_data.latitude;
 302:../LoRaWAN/App/src/main.c ****   longitude= sensor_data.longitude;
 303:../LoRaWAN/App/src/main.c ****   uint32_t i = 0;
 304:../LoRaWAN/App/src/main.c **** 
 305:../LoRaWAN/App/src/main.c ****   batteryLevel = HW_GetBatteryLevel( );                     /* 1 (very low) to 254 (fully charged) 
 306:../LoRaWAN/App/src/main.c **** 
 307:../LoRaWAN/App/src/main.c ****   AppData.Port = LORAWAN_APP_PORT;
 308:../LoRaWAN/App/src/main.c **** 
 309:../LoRaWAN/App/src/main.c **** #if defined( REGION_US915 ) || defined ( REGION_AU915 )
 310:../LoRaWAN/App/src/main.c ****   AppData.Buff[i++] = AppLedStateOn;
 311:../LoRaWAN/App/src/main.c ****   AppData.Buff[i++] = ( pressure >> 8 ) & 0xFF;
 312:../LoRaWAN/App/src/main.c ****   AppData.Buff[i++] = pressure & 0xFF;
 313:../LoRaWAN/App/src/main.c ****   AppData.Buff[i++] = ( temperature >> 8 ) & 0xFF;
 314:../LoRaWAN/App/src/main.c ****   AppData.Buff[i++] = temperature & 0xFF;
 315:../LoRaWAN/App/src/main.c ****   AppData.Buff[i++] = ( humidity >> 8 ) & 0xFF;
 316:../LoRaWAN/App/src/main.c ****   AppData.Buff[i++] = humidity & 0xFF;
 317:../LoRaWAN/App/src/main.c ****   AppData.Buff[i++] = batteryLevel;
 318:../LoRaWAN/App/src/main.c ****   AppData.Buff[i++] = 0;
 319:../LoRaWAN/App/src/main.c ****   AppData.Buff[i++] = 0;
 320:../LoRaWAN/App/src/main.c ****   AppData.Buff[i++] = 0;
 321:../LoRaWAN/App/src/main.c **** #else  /* not REGION_XX915 */
 322:../LoRaWAN/App/src/main.c ****   AppData.Buff[i++] = AppLedStateOn;
 323:../LoRaWAN/App/src/main.c ****   AppData.Buff[i++] = ( pressure >> 8 ) & 0xFF;
 324:../LoRaWAN/App/src/main.c ****   AppData.Buff[i++] = pressure & 0xFF;
 325:../LoRaWAN/App/src/main.c ****   AppData.Buff[i++] = ( temperature >> 8 ) & 0xFF;
 326:../LoRaWAN/App/src/main.c ****   AppData.Buff[i++] = temperature & 0xFF;
 327:../LoRaWAN/App/src/main.c ****   AppData.Buff[i++] = ( humidity >> 8 ) & 0xFF;
 328:../LoRaWAN/App/src/main.c ****   AppData.Buff[i++] = humidity & 0xFF;
 329:../LoRaWAN/App/src/main.c ****   AppData.Buff[i++] = batteryLevel;
 330:../LoRaWAN/App/src/main.c ****   AppData.Buff[i++] = ( latitude >> 16 ) & 0xFF;
 331:../LoRaWAN/App/src/main.c ****   AppData.Buff[i++] = ( latitude >> 8 ) & 0xFF;
 332:../LoRaWAN/App/src/main.c ****   AppData.Buff[i++] = latitude & 0xFF;
 333:../LoRaWAN/App/src/main.c ****   AppData.Buff[i++] = ( longitude >> 16 ) & 0xFF;
 334:../LoRaWAN/App/src/main.c ****   AppData.Buff[i++] = ( longitude >> 8 ) & 0xFF;
 335:../LoRaWAN/App/src/main.c ****   AppData.Buff[i++] = longitude & 0xFF;
 336:../LoRaWAN/App/src/main.c ****   AppData.Buff[i++] = ( altitudeGps >> 8 ) & 0xFF;
 337:../LoRaWAN/App/src/main.c ****   AppData.Buff[i++] = altitudeGps & 0xFF;
 338:../LoRaWAN/App/src/main.c **** #endif  /* REGION_XX915 */
 339:../LoRaWAN/App/src/main.c **** #endif  /* CAYENNE_LPP */
 340:../LoRaWAN/App/src/main.c ****   AppData.BuffSize = i;
 341:../LoRaWAN/App/src/main.c ****   
 342:../LoRaWAN/App/src/main.c ****   LORA_send( &AppData, LORAWAN_DEFAULT_CONFIRM_MSG_STATE);
ARM GAS  C:\Users\EBANO_~1\AppData\Local\Temp\ccR8xqy1.s 			page 8


 343:../LoRaWAN/App/src/main.c ****   
 344:../LoRaWAN/App/src/main.c ****   /* USER CODE END 3 */
 345:../LoRaWAN/App/src/main.c **** }
 346:../LoRaWAN/App/src/main.c **** 
 347:../LoRaWAN/App/src/main.c **** 
 348:../LoRaWAN/App/src/main.c **** static void LORA_RxData( lora_AppData_t *AppData )
 349:../LoRaWAN/App/src/main.c **** {
 350:../LoRaWAN/App/src/main.c ****   /* USER CODE BEGIN 4 */
 351:../LoRaWAN/App/src/main.c ****   PRINTF("PACKET RECEIVED ON PORT %d\n\r", AppData->Port);
 352:../LoRaWAN/App/src/main.c **** 
 353:../LoRaWAN/App/src/main.c ****   switch (AppData->Port)
 354:../LoRaWAN/App/src/main.c ****   {
 355:../LoRaWAN/App/src/main.c ****     case 3:
 356:../LoRaWAN/App/src/main.c ****     /*this port switches the class*/
 357:../LoRaWAN/App/src/main.c ****     if( AppData->BuffSize == 1 )
 358:../LoRaWAN/App/src/main.c ****     {
 359:../LoRaWAN/App/src/main.c ****       switch (  AppData->Buff[0] )
 360:../LoRaWAN/App/src/main.c ****       {
 361:../LoRaWAN/App/src/main.c ****         case 0:
 362:../LoRaWAN/App/src/main.c ****         {
 363:../LoRaWAN/App/src/main.c ****           LORA_RequestClass(CLASS_A);
 364:../LoRaWAN/App/src/main.c ****           break;
 365:../LoRaWAN/App/src/main.c ****         }
 366:../LoRaWAN/App/src/main.c ****         case 1:
 367:../LoRaWAN/App/src/main.c ****         {
 368:../LoRaWAN/App/src/main.c ****           LORA_RequestClass(CLASS_B);
 369:../LoRaWAN/App/src/main.c ****           break;
 370:../LoRaWAN/App/src/main.c ****         }
 371:../LoRaWAN/App/src/main.c ****         case 2:
 372:../LoRaWAN/App/src/main.c ****         {
 373:../LoRaWAN/App/src/main.c ****           LORA_RequestClass(CLASS_C);
 374:../LoRaWAN/App/src/main.c ****           break;
 375:../LoRaWAN/App/src/main.c ****         }
 376:../LoRaWAN/App/src/main.c ****         default:
 377:../LoRaWAN/App/src/main.c ****           break;
 378:../LoRaWAN/App/src/main.c ****       }
 379:../LoRaWAN/App/src/main.c ****     }
 380:../LoRaWAN/App/src/main.c ****     break;
 381:../LoRaWAN/App/src/main.c ****     case LORAWAN_APP_PORT:
 382:../LoRaWAN/App/src/main.c ****     if( AppData->BuffSize == 1 )
 383:../LoRaWAN/App/src/main.c ****     {
 384:../LoRaWAN/App/src/main.c ****       AppLedStateOn = AppData->Buff[0] & 0x01;
 385:../LoRaWAN/App/src/main.c ****       if ( AppLedStateOn == RESET )
 386:../LoRaWAN/App/src/main.c ****       {
 387:../LoRaWAN/App/src/main.c ****         PRINTF("LED OFF\n\r");
 388:../LoRaWAN/App/src/main.c ****         LED_Off( LED_BLUE ) ; 
 389:../LoRaWAN/App/src/main.c ****       }
 390:../LoRaWAN/App/src/main.c ****       else
 391:../LoRaWAN/App/src/main.c ****       {
 392:../LoRaWAN/App/src/main.c ****         PRINTF("LED ON\n\r");
 393:../LoRaWAN/App/src/main.c ****         LED_On( LED_BLUE ) ; 
 394:../LoRaWAN/App/src/main.c ****       }
 395:../LoRaWAN/App/src/main.c ****     }
 396:../LoRaWAN/App/src/main.c ****     break;
 397:../LoRaWAN/App/src/main.c ****   case LPP_APP_PORT:
 398:../LoRaWAN/App/src/main.c ****   {
 399:../LoRaWAN/App/src/main.c ****     AppLedStateOn= (AppData->Buff[2] == 100) ?  0x01 : 0x00;
ARM GAS  C:\Users\EBANO_~1\AppData\Local\Temp\ccR8xqy1.s 			page 9


 400:../LoRaWAN/App/src/main.c ****     if ( AppLedStateOn == RESET )
 401:../LoRaWAN/App/src/main.c ****     {
 402:../LoRaWAN/App/src/main.c ****       PRINTF("LED OFF\n\r");
 403:../LoRaWAN/App/src/main.c ****       LED_Off( LED_BLUE ) ; 
 404:../LoRaWAN/App/src/main.c ****       
 405:../LoRaWAN/App/src/main.c ****     }
 406:../LoRaWAN/App/src/main.c ****     else
 407:../LoRaWAN/App/src/main.c ****     {
 408:../LoRaWAN/App/src/main.c ****       PRINTF("LED ON\n\r");
 409:../LoRaWAN/App/src/main.c ****       LED_On( LED_BLUE ) ; 
 410:../LoRaWAN/App/src/main.c ****     }
 411:../LoRaWAN/App/src/main.c ****     break;
 412:../LoRaWAN/App/src/main.c ****   }
 413:../LoRaWAN/App/src/main.c ****   default:
 414:../LoRaWAN/App/src/main.c ****     break;
 415:../LoRaWAN/App/src/main.c ****   }
 416:../LoRaWAN/App/src/main.c ****   /* USER CODE END 4 */
 417:../LoRaWAN/App/src/main.c **** }
 418:../LoRaWAN/App/src/main.c **** 
 419:../LoRaWAN/App/src/main.c **** static void OnTxTimerEvent( void* context )
 420:../LoRaWAN/App/src/main.c **** {
 421:../LoRaWAN/App/src/main.c ****   /*Wait for next tx slot*/
 422:../LoRaWAN/App/src/main.c ****   TimerStart( &TxTimer);
 423:../LoRaWAN/App/src/main.c ****   
 424:../LoRaWAN/App/src/main.c ****   AppProcessRequest=LORA_SET;
 425:../LoRaWAN/App/src/main.c **** }
 426:../LoRaWAN/App/src/main.c **** 
 427:../LoRaWAN/App/src/main.c **** static void LoraStartTx(TxEventType_t EventType)
 428:../LoRaWAN/App/src/main.c **** {
 429:../LoRaWAN/App/src/main.c ****   if (EventType == TX_ON_TIMER)
 430:../LoRaWAN/App/src/main.c ****   {
 431:../LoRaWAN/App/src/main.c ****     /* send everytime timer elapses */
 432:../LoRaWAN/App/src/main.c ****     TimerInit( &TxTimer, OnTxTimerEvent );
 433:../LoRaWAN/App/src/main.c ****     TimerSetValue( &TxTimer,  APP_TX_DUTYCYCLE); 
 434:../LoRaWAN/App/src/main.c ****     OnTxTimerEvent( NULL );
 435:../LoRaWAN/App/src/main.c ****   }
 436:../LoRaWAN/App/src/main.c ****   else
 437:../LoRaWAN/App/src/main.c ****   {
 438:../LoRaWAN/App/src/main.c ****     /* send everytime button is pushed */
 439:../LoRaWAN/App/src/main.c ****     GPIO_InitTypeDef initStruct={0};
 440:../LoRaWAN/App/src/main.c ****   
 441:../LoRaWAN/App/src/main.c ****     initStruct.Mode =GPIO_MODE_IT_RISING;
 442:../LoRaWAN/App/src/main.c ****     initStruct.Pull = GPIO_PULLUP;
 443:../LoRaWAN/App/src/main.c ****     initStruct.Speed = GPIO_SPEED_HIGH;
 444:../LoRaWAN/App/src/main.c **** 
 445:../LoRaWAN/App/src/main.c ****     HW_GPIO_Init( USER_BUTTON_GPIO_PORT, USER_BUTTON_PIN, &initStruct );
 446:../LoRaWAN/App/src/main.c ****     HW_GPIO_SetIrq( USER_BUTTON_GPIO_PORT, USER_BUTTON_PIN, 0, Send );
 447:../LoRaWAN/App/src/main.c ****   }
 448:../LoRaWAN/App/src/main.c **** }
 449:../LoRaWAN/App/src/main.c **** 
 450:../LoRaWAN/App/src/main.c **** static void LORA_ConfirmClass ( DeviceClass_t Class )
 451:../LoRaWAN/App/src/main.c **** {
 452:../LoRaWAN/App/src/main.c ****   PRINTF("switch to class %c done\n\r","ABC"[Class] );
 453:../LoRaWAN/App/src/main.c **** 
 454:../LoRaWAN/App/src/main.c ****   /*Optionnal*/
 455:../LoRaWAN/App/src/main.c ****   /*informs the server that switch has occurred ASAP*/
 456:../LoRaWAN/App/src/main.c ****   AppData.BuffSize = 0;
ARM GAS  C:\Users\EBANO_~1\AppData\Local\Temp\ccR8xqy1.s 			page 10


 457:../LoRaWAN/App/src/main.c ****   AppData.Port = LORAWAN_APP_PORT;
 458:../LoRaWAN/App/src/main.c ****   
 459:../LoRaWAN/App/src/main.c ****   LORA_send( &AppData, LORAWAN_UNCONFIRMED_MSG);
 460:../LoRaWAN/App/src/main.c **** }
 461:../LoRaWAN/App/src/main.c **** 
 462:../LoRaWAN/App/src/main.c **** static void LORA_TxNeeded ( void )
 463:../LoRaWAN/App/src/main.c **** {
  57              		.loc 1 463 0
  58              		.cfi_startproc
  59              		@ args = 0, pretend = 0, frame = 0
  60              		@ frame_needed = 0, uses_anonymous_args = 0
 464:../LoRaWAN/App/src/main.c ****   AppData.BuffSize = 0;
  61              		.loc 1 464 0
  62 0000 8023     		movs	r3, #128
 463:../LoRaWAN/App/src/main.c ****   AppData.BuffSize = 0;
  63              		.loc 1 463 0
  64 0002 10B5     		push	{r4, lr}
  65              	.LCFI0:
  66              		.cfi_def_cfa_offset 8
  67              		.cfi_offset 4, -8
  68              		.cfi_offset 14, -4
  69              		.loc 1 464 0
  70 0004 0348     		ldr	r0, .L6
  71 0006 9B00     		lsls	r3, r3, #2
  72 0008 8380     		strh	r3, [r0, #4]
 465:../LoRaWAN/App/src/main.c ****   AppData.Port = LORAWAN_APP_PORT;
 466:../LoRaWAN/App/src/main.c ****   
 467:../LoRaWAN/App/src/main.c ****   LORA_send( &AppData, LORAWAN_UNCONFIRMED_MSG);
  73              		.loc 1 467 0
  74 000a 0021     		movs	r1, #0
  75 000c FFF7FEFF 		bl	LORA_send
  76              	.LVL0:
 468:../LoRaWAN/App/src/main.c **** }
  77              		.loc 1 468 0
  78              		@ sp needed
  79 0010 10BD     		pop	{r4, pc}
  80              	.L7:
  81 0012 C046     		.align	2
  82              	.L6:
  83 0014 00000000 		.word	.LANCHOR1
  84              		.cfi_endproc
  85              	.LFE47:
  86              		.size	LORA_TxNeeded, .-LORA_TxNeeded
  87              		.section	.text.LORA_ConfirmClass,"ax",%progbits
  88              		.align	1
  89              		.p2align 2,,3
  90              		.syntax unified
  91              		.code	16
  92              		.thumb_func
  93              		.fpu softvfp
  94              		.type	LORA_ConfirmClass, %function
  95              	LORA_ConfirmClass:
  96              	.LFB46:
 451:../LoRaWAN/App/src/main.c ****   PRINTF("switch to class %c done\n\r","ABC"[Class] );
  97              		.loc 1 451 0
  98              		.cfi_startproc
  99              		@ args = 0, pretend = 0, frame = 0
ARM GAS  C:\Users\EBANO_~1\AppData\Local\Temp\ccR8xqy1.s 			page 11


 100              		@ frame_needed = 0, uses_anonymous_args = 0
 101              	.LVL1:
 452:../LoRaWAN/App/src/main.c **** 
 102              		.loc 1 452 0
 103 0000 064B     		ldr	r3, .L9
 451:../LoRaWAN/App/src/main.c ****   PRINTF("switch to class %c done\n\r","ABC"[Class] );
 104              		.loc 1 451 0
 105 0002 10B5     		push	{r4, lr}
 106              	.LCFI1:
 107              		.cfi_def_cfa_offset 8
 108              		.cfi_offset 4, -8
 109              		.cfi_offset 14, -4
 452:../LoRaWAN/App/src/main.c **** 
 110              		.loc 1 452 0
 111 0004 195C     		ldrb	r1, [r3, r0]
 112 0006 0648     		ldr	r0, .L9+4
 113              	.LVL2:
 114 0008 FFF7FEFF 		bl	TraceSend
 115              	.LVL3:
 456:../LoRaWAN/App/src/main.c ****   AppData.Port = LORAWAN_APP_PORT;
 116              		.loc 1 456 0
 117 000c 8023     		movs	r3, #128
 118 000e 0548     		ldr	r0, .L9+8
 119 0010 9B00     		lsls	r3, r3, #2
 120 0012 8380     		strh	r3, [r0, #4]
 459:../LoRaWAN/App/src/main.c **** }
 121              		.loc 1 459 0
 122 0014 0021     		movs	r1, #0
 123 0016 FFF7FEFF 		bl	LORA_send
 124              	.LVL4:
 460:../LoRaWAN/App/src/main.c **** 
 125              		.loc 1 460 0
 126              		@ sp needed
 127 001a 10BD     		pop	{r4, pc}
 128              	.L10:
 129              		.align	2
 130              	.L9:
 131 001c 1C000000 		.word	.LC2
 132 0020 00000000 		.word	.LC4
 133 0024 00000000 		.word	.LANCHOR1
 134              		.cfi_endproc
 135              	.LFE46:
 136              		.size	LORA_ConfirmClass, .-LORA_ConfirmClass
 137              		.section	.text.LORA_HasJoined,"ax",%progbits
 138              		.align	1
 139              		.p2align 2,,3
 140              		.syntax unified
 141              		.code	16
 142              		.thumb_func
 143              		.fpu softvfp
 144              		.type	LORA_HasJoined, %function
 145              	LORA_HasJoined:
 146              	.LFB41:
 223:../LoRaWAN/App/src/main.c **** #if( OVER_THE_AIR_ACTIVATION != 0 )
 147              		.loc 1 223 0
 148              		.cfi_startproc
 149              		@ args = 0, pretend = 0, frame = 0
ARM GAS  C:\Users\EBANO_~1\AppData\Local\Temp\ccR8xqy1.s 			page 12


 150              		@ frame_needed = 0, uses_anonymous_args = 0
 151 0000 10B5     		push	{r4, lr}
 152              	.LCFI2:
 153              		.cfi_def_cfa_offset 8
 154              		.cfi_offset 4, -8
 155              		.cfi_offset 14, -4
 225:../LoRaWAN/App/src/main.c **** #endif
 156              		.loc 1 225 0
 157 0002 0348     		ldr	r0, .L12
 158 0004 FFF7FEFF 		bl	TraceSend
 159              	.LVL5:
 227:../LoRaWAN/App/src/main.c **** }
 160              		.loc 1 227 0
 161 0008 0020     		movs	r0, #0
 162 000a FFF7FEFF 		bl	LORA_RequestClass
 163              	.LVL6:
 228:../LoRaWAN/App/src/main.c **** 
 164              		.loc 1 228 0
 165              		@ sp needed
 166 000e 10BD     		pop	{r4, pc}
 167              	.L13:
 168              		.align	2
 169              	.L12:
 170 0010 20000000 		.word	.LC7
 171              		.cfi_endproc
 172              	.LFE41:
 173              		.size	LORA_HasJoined, .-LORA_HasJoined
 174              		.section	.text.OnTimerLedEvent,"ax",%progbits
 175              		.align	1
 176              		.p2align 2,,3
 177              		.syntax unified
 178              		.code	16
 179              		.thumb_func
 180              		.fpu softvfp
 181              		.type	OnTimerLedEvent, %function
 182              	OnTimerLedEvent:
 183              	.LFB48:
 469:../LoRaWAN/App/src/main.c **** 
 470:../LoRaWAN/App/src/main.c **** #ifdef USE_B_L072Z_LRWAN1
 471:../LoRaWAN/App/src/main.c **** static void OnTimerLedEvent( void* context )
 472:../LoRaWAN/App/src/main.c **** {
 184              		.loc 1 472 0
 185              		.cfi_startproc
 186              		@ args = 0, pretend = 0, frame = 0
 187              		@ frame_needed = 0, uses_anonymous_args = 0
 188              	.LVL7:
 189 0000 10B5     		push	{r4, lr}
 190              	.LCFI3:
 191              		.cfi_def_cfa_offset 8
 192              		.cfi_offset 4, -8
 193              		.cfi_offset 14, -4
 473:../LoRaWAN/App/src/main.c ****   LED_Off( LED_RED1 ) ; 
 194              		.loc 1 473 0
 195 0002 0120     		movs	r0, #1
 196              	.LVL8:
 197 0004 FFF7FEFF 		bl	BSP_LED_Off
 198              	.LVL9:
ARM GAS  C:\Users\EBANO_~1\AppData\Local\Temp\ccR8xqy1.s 			page 13


 474:../LoRaWAN/App/src/main.c **** }
 199              		.loc 1 474 0
 200              		@ sp needed
 201 0008 10BD     		pop	{r4, pc}
 202              		.cfi_endproc
 203              	.LFE48:
 204              		.size	OnTimerLedEvent, .-OnTimerLedEvent
 205 000a C046     		.section	.text.LORA_RxData,"ax",%progbits
 206              		.align	1
 207              		.p2align 2,,3
 208              		.syntax unified
 209              		.code	16
 210              		.thumb_func
 211              		.fpu softvfp
 212              		.type	LORA_RxData, %function
 213              	LORA_RxData:
 214              	.LFB43:
 349:../LoRaWAN/App/src/main.c ****   /* USER CODE BEGIN 4 */
 215              		.loc 1 349 0
 216              		.cfi_startproc
 217              		@ args = 0, pretend = 0, frame = 0
 218              		@ frame_needed = 0, uses_anonymous_args = 0
 219              	.LVL10:
 220 0000 10B5     		push	{r4, lr}
 221              	.LCFI4:
 222              		.cfi_def_cfa_offset 8
 223              		.cfi_offset 4, -8
 224              		.cfi_offset 14, -4
 349:../LoRaWAN/App/src/main.c ****   /* USER CODE BEGIN 4 */
 225              		.loc 1 349 0
 226 0002 0400     		movs	r4, r0
 351:../LoRaWAN/App/src/main.c **** 
 227              		.loc 1 351 0
 228 0004 4179     		ldrb	r1, [r0, #5]
 229 0006 2148     		ldr	r0, .L26
 230              	.LVL11:
 231 0008 FFF7FEFF 		bl	TraceSend
 232              	.LVL12:
 353:../LoRaWAN/App/src/main.c ****   {
 233              		.loc 1 353 0
 234 000c 6379     		ldrb	r3, [r4, #5]
 235 000e 032B     		cmp	r3, #3
 236 0010 25D0     		beq	.L17
 237 0012 632B     		cmp	r3, #99
 238 0014 12D0     		beq	.L18
 239 0016 022B     		cmp	r3, #2
 240 0018 00D0     		beq	.L25
 241              	.L15:
 417:../LoRaWAN/App/src/main.c **** 
 242              		.loc 1 417 0
 243              		@ sp needed
 244              	.LVL13:
 245 001a 10BD     		pop	{r4, pc}
 246              	.LVL14:
 247              	.L25:
 382:../LoRaWAN/App/src/main.c ****     {
 248              		.loc 1 382 0
ARM GAS  C:\Users\EBANO_~1\AppData\Local\Temp\ccR8xqy1.s 			page 14


 249 001c 2379     		ldrb	r3, [r4, #4]
 250 001e 012B     		cmp	r3, #1
 251 0020 FBD1     		bne	.L15
 384:../LoRaWAN/App/src/main.c ****       if ( AppLedStateOn == RESET )
 252              		.loc 1 384 0
 253 0022 2268     		ldr	r2, [r4]
 254 0024 1278     		ldrb	r2, [r2]
 255 0026 1340     		ands	r3, r2
 256 0028 194A     		ldr	r2, .L26+4
 257 002a 5370     		strb	r3, [r2, #1]
 385:../LoRaWAN/App/src/main.c ****       {
 258              		.loc 1 385 0
 259 002c 10D1     		bne	.L23
 260              	.L24:
 387:../LoRaWAN/App/src/main.c ****         LED_Off( LED_BLUE ) ; 
 261              		.loc 1 387 0
 262 002e 1948     		ldr	r0, .L26+8
 263 0030 FFF7FEFF 		bl	TraceSend
 264              	.LVL15:
 388:../LoRaWAN/App/src/main.c ****       }
 265              		.loc 1 388 0
 266 0034 0220     		movs	r0, #2
 267 0036 FFF7FEFF 		bl	BSP_LED_Off
 268              	.LVL16:
 269 003a EEE7     		b	.L15
 270              	.L18:
 399:../LoRaWAN/App/src/main.c ****     if ( AppLedStateOn == RESET )
 271              		.loc 1 399 0
 272 003c 2368     		ldr	r3, [r4]
 273 003e 9A78     		ldrb	r2, [r3, #2]
 274 0040 1300     		movs	r3, r2
 275 0042 643B     		subs	r3, r3, #100
 276 0044 5942     		rsbs	r1, r3, #0
 277 0046 4B41     		adcs	r3, r3, r1
 278 0048 1149     		ldr	r1, .L26+4
 279 004a 4B70     		strb	r3, [r1, #1]
 400:../LoRaWAN/App/src/main.c ****     {
 280              		.loc 1 400 0
 281 004c 642A     		cmp	r2, #100
 282 004e EED1     		bne	.L24
 283              	.L23:
 392:../LoRaWAN/App/src/main.c ****         LED_On( LED_BLUE ) ; 
 284              		.loc 1 392 0
 285 0050 1148     		ldr	r0, .L26+12
 286 0052 FFF7FEFF 		bl	TraceSend
 287              	.LVL17:
 393:../LoRaWAN/App/src/main.c ****       }
 288              		.loc 1 393 0
 289 0056 0220     		movs	r0, #2
 290 0058 FFF7FEFF 		bl	BSP_LED_On
 291              	.LVL18:
 292 005c DDE7     		b	.L15
 293              	.L17:
 357:../LoRaWAN/App/src/main.c ****     {
 294              		.loc 1 357 0
 295 005e 2379     		ldrb	r3, [r4, #4]
 296 0060 012B     		cmp	r3, #1
ARM GAS  C:\Users\EBANO_~1\AppData\Local\Temp\ccR8xqy1.s 			page 15


 297 0062 DAD1     		bne	.L15
 359:../LoRaWAN/App/src/main.c ****       {
 298              		.loc 1 359 0
 299 0064 2368     		ldr	r3, [r4]
 300 0066 1B78     		ldrb	r3, [r3]
 301 0068 012B     		cmp	r3, #1
 302 006a 0BD0     		beq	.L20
 303 006c 002B     		cmp	r3, #0
 304 006e 05D0     		beq	.L21
 305 0070 022B     		cmp	r3, #2
 306 0072 D2D1     		bne	.L15
 373:../LoRaWAN/App/src/main.c ****           break;
 307              		.loc 1 373 0
 308 0074 0220     		movs	r0, #2
 309 0076 FFF7FEFF 		bl	LORA_RequestClass
 310              	.LVL19:
 374:../LoRaWAN/App/src/main.c ****         }
 311              		.loc 1 374 0
 312 007a CEE7     		b	.L15
 313              	.L21:
 363:../LoRaWAN/App/src/main.c ****           break;
 314              		.loc 1 363 0
 315 007c 0020     		movs	r0, #0
 316 007e FFF7FEFF 		bl	LORA_RequestClass
 317              	.LVL20:
 364:../LoRaWAN/App/src/main.c ****         }
 318              		.loc 1 364 0
 319 0082 CAE7     		b	.L15
 320              	.L20:
 368:../LoRaWAN/App/src/main.c ****           break;
 321              		.loc 1 368 0
 322 0084 0120     		movs	r0, #1
 323 0086 FFF7FEFF 		bl	LORA_RequestClass
 324              	.LVL21:
 369:../LoRaWAN/App/src/main.c ****         }
 325              		.loc 1 369 0
 326 008a C6E7     		b	.L15
 327              	.L27:
 328              		.align	2
 329              	.L26:
 330 008c 2C000000 		.word	.LC9
 331 0090 00000000 		.word	.LANCHOR0
 332 0094 4C000000 		.word	.LC12
 333 0098 58000000 		.word	.LC14
 334              		.cfi_endproc
 335              	.LFE43:
 336              		.size	LORA_RxData, .-LORA_RxData
 337              		.section	.text.OnTxTimerEvent,"ax",%progbits
 338              		.align	1
 339              		.p2align 2,,3
 340              		.syntax unified
 341              		.code	16
 342              		.thumb_func
 343              		.fpu softvfp
 344              		.type	OnTxTimerEvent, %function
 345              	OnTxTimerEvent:
 346              	.LFB44:
ARM GAS  C:\Users\EBANO_~1\AppData\Local\Temp\ccR8xqy1.s 			page 16


 420:../LoRaWAN/App/src/main.c ****   /*Wait for next tx slot*/
 347              		.loc 1 420 0
 348              		.cfi_startproc
 349              		@ args = 0, pretend = 0, frame = 0
 350              		@ frame_needed = 0, uses_anonymous_args = 0
 351              	.LVL22:
 352 0000 10B5     		push	{r4, lr}
 353              	.LCFI5:
 354              		.cfi_def_cfa_offset 8
 355              		.cfi_offset 4, -8
 356              		.cfi_offset 14, -4
 422:../LoRaWAN/App/src/main.c ****   
 357              		.loc 1 422 0
 358 0002 034C     		ldr	r4, .L29
 425:../LoRaWAN/App/src/main.c **** 
 359              		.loc 1 425 0
 360              		@ sp needed
 422:../LoRaWAN/App/src/main.c ****   
 361              		.loc 1 422 0
 362 0004 201D     		adds	r0, r4, #4
 363              	.LVL23:
 364 0006 FFF7FEFF 		bl	TimerStart
 365              	.LVL24:
 424:../LoRaWAN/App/src/main.c **** }
 366              		.loc 1 424 0
 367 000a 0123     		movs	r3, #1
 368 000c 2377     		strb	r3, [r4, #28]
 425:../LoRaWAN/App/src/main.c **** 
 369              		.loc 1 425 0
 370 000e 10BD     		pop	{r4, pc}
 371              	.L30:
 372              		.align	2
 373              	.L29:
 374 0010 00000000 		.word	.LANCHOR0
 375              		.cfi_endproc
 376              	.LFE44:
 377              		.size	OnTxTimerEvent, .-OnTxTimerEvent
 378              		.global	__aeabi_fmul
 379              		.global	__aeabi_f2iz
 380              		.global	__aeabi_fdiv
 381              		.global	__aeabi_f2uiz
 382              		.section	.text.Send.part.0,"ax",%progbits
 383              		.align	1
 384              		.p2align 2,,3
 385              		.syntax unified
 386              		.code	16
 387              		.thumb_func
 388              		.fpu softvfp
 389              		.type	Send.part.0, %function
 390              	Send.part.0:
 391              	.LFB49:
 230:../LoRaWAN/App/src/main.c **** {
 392              		.loc 1 230 0
 393              		.cfi_startproc
 394              		@ args = 0, pretend = 0, frame = 24
 395              		@ frame_needed = 0, uses_anonymous_args = 0
 396              	.LVL25:
ARM GAS  C:\Users\EBANO_~1\AppData\Local\Temp\ccR8xqy1.s 			page 17


 397 0000 F0B5     		push	{r4, r5, r6, r7, lr}
 398              	.LCFI6:
 399              		.cfi_def_cfa_offset 20
 400              		.cfi_offset 4, -20
 401              		.cfi_offset 5, -16
 402              		.cfi_offset 6, -12
 403              		.cfi_offset 7, -8
 404              		.cfi_offset 14, -4
 405 0002 CE46     		mov	lr, r9
 406 0004 4746     		mov	r7, r8
 253:../LoRaWAN/App/src/main.c ****   
 407              		.loc 1 253 0
 408 0006 314B     		ldr	r3, .L32
 230:../LoRaWAN/App/src/main.c **** {
 409              		.loc 1 230 0
 410 0008 80B5     		push	{r7, lr}
 411              	.LCFI7:
 412              		.cfi_def_cfa_offset 28
 413              		.cfi_offset 8, -28
 414              		.cfi_offset 9, -24
 253:../LoRaWAN/App/src/main.c ****   
 415              		.loc 1 253 0
 416 000a 1C00     		movs	r4, r3
 417 000c 2034     		adds	r4, r4, #32
 230:../LoRaWAN/App/src/main.c **** {
 418              		.loc 1 230 0
 419 000e 87B0     		sub	sp, sp, #28
 420              	.LCFI8:
 421              		.cfi_def_cfa_offset 56
 253:../LoRaWAN/App/src/main.c ****   
 422              		.loc 1 253 0
 423 0010 2000     		movs	r0, r4
 424 0012 2F49     		ldr	r1, .L32+4
 425 0014 9946     		mov	r9, r3
 426 0016 FFF7FEFF 		bl	TimerInit
 427              	.LVL26:
 255:../LoRaWAN/App/src/main.c ****   
 428              		.loc 1 255 0
 429 001a C821     		movs	r1, #200
 430 001c 2000     		movs	r0, r4
 431 001e FFF7FEFF 		bl	TimerSetValue
 432              	.LVL27:
 257:../LoRaWAN/App/src/main.c ****   
 433              		.loc 1 257 0
 434 0022 0120     		movs	r0, #1
 435 0024 FFF7FEFF 		bl	BSP_LED_On
 436              	.LVL28:
 259:../LoRaWAN/App/src/main.c **** #endif
 437              		.loc 1 259 0
 438 0028 2000     		movs	r0, r4
 439 002a FFF7FEFF 		bl	TimerStart
 440              	.LVL29:
 262:../LoRaWAN/App/src/main.c **** 
 441              		.loc 1 262 0
 442 002e 6846     		mov	r0, sp
 443 0030 FFF7FEFF 		bl	BSP_sensor_Read
 444              	.LVL30:
ARM GAS  C:\Users\EBANO_~1\AppData\Local\Temp\ccR8xqy1.s 			page 18


 298:../LoRaWAN/App/src/main.c ****   pressure    = ( uint16_t )( sensor_data.pressure * 100 / 10 );  /* in hPa / 10 */
 445              		.loc 1 298 0
 446 0034 2749     		ldr	r1, .L32+8
 447 0036 0198     		ldr	r0, [sp, #4]
 448 0038 FFF7FEFF 		bl	__aeabi_fmul
 449              	.LVL31:
 450 003c FFF7FEFF 		bl	__aeabi_f2iz
 451              	.LVL32:
 299:../LoRaWAN/App/src/main.c ****   humidity    = ( uint16_t )( sensor_data.humidity * 10 );        /* in %*10     */
 452              		.loc 1 299 0
 453 0040 2449     		ldr	r1, .L32+8
 298:../LoRaWAN/App/src/main.c ****   pressure    = ( uint16_t )( sensor_data.pressure * 100 / 10 );  /* in hPa / 10 */
 454              		.loc 1 298 0
 455 0042 05B2     		sxth	r5, r0
 456              	.LVL33:
 299:../LoRaWAN/App/src/main.c ****   humidity    = ( uint16_t )( sensor_data.humidity * 10 );        /* in %*10     */
 457              		.loc 1 299 0
 458 0044 0098     		ldr	r0, [sp]
 459 0046 FFF7FEFF 		bl	__aeabi_fmul
 460              	.LVL34:
 461 004a 2349     		ldr	r1, .L32+12
 462 004c FFF7FEFF 		bl	__aeabi_fdiv
 463              	.LVL35:
 464 0050 FFF7FEFF 		bl	__aeabi_f2uiz
 465              	.LVL36:
 300:../LoRaWAN/App/src/main.c ****   latitude = sensor_data.latitude;
 466              		.loc 1 300 0
 467 0054 2049     		ldr	r1, .L32+12
 299:../LoRaWAN/App/src/main.c ****   humidity    = ( uint16_t )( sensor_data.humidity * 10 );        /* in %*10     */
 468              		.loc 1 299 0
 469 0056 86B2     		uxth	r6, r0
 470              	.LVL37:
 300:../LoRaWAN/App/src/main.c ****   latitude = sensor_data.latitude;
 471              		.loc 1 300 0
 472 0058 0298     		ldr	r0, [sp, #8]
 473 005a FFF7FEFF 		bl	__aeabi_fmul
 474              	.LVL38:
 475 005e FFF7FEFF 		bl	__aeabi_f2uiz
 476              	.LVL39:
 301:../LoRaWAN/App/src/main.c ****   longitude= sensor_data.longitude;
 477              		.loc 1 301 0
 478 0062 039B     		ldr	r3, [sp, #12]
 302:../LoRaWAN/App/src/main.c ****   uint32_t i = 0;
 479              		.loc 1 302 0
 480 0064 049F     		ldr	r7, [sp, #16]
 301:../LoRaWAN/App/src/main.c ****   longitude= sensor_data.longitude;
 481              		.loc 1 301 0
 482 0066 9846     		mov	r8, r3
 300:../LoRaWAN/App/src/main.c ****   latitude = sensor_data.latitude;
 483              		.loc 1 300 0
 484 0068 84B2     		uxth	r4, r0
 485              	.LVL40:
 305:../LoRaWAN/App/src/main.c **** 
 486              		.loc 1 305 0
 487 006a FFF7FEFF 		bl	HW_GetBatteryLevel
 488              	.LVL41:
 307:../LoRaWAN/App/src/main.c **** 
ARM GAS  C:\Users\EBANO_~1\AppData\Local\Temp\ccR8xqy1.s 			page 19


 489              		.loc 1 307 0
 490 006e 0223     		movs	r3, #2
 491 0070 1A4A     		ldr	r2, .L32+16
 492 0072 5371     		strb	r3, [r2, #5]
 322:../LoRaWAN/App/src/main.c ****   AppData.Buff[i++] = ( pressure >> 8 ) & 0xFF;
 493              		.loc 1 322 0
 494 0074 4B46     		mov	r3, r9
 495 0076 1168     		ldr	r1, [r2]
 496 0078 5B78     		ldrb	r3, [r3, #1]
 497 007a 0B70     		strb	r3, [r1]
 323:../LoRaWAN/App/src/main.c ****   AppData.Buff[i++] = pressure & 0xFF;
 498              		.loc 1 323 0
 499 007c 1168     		ldr	r1, [r2]
 500 007e 330A     		lsrs	r3, r6, #8
 501 0080 4B70     		strb	r3, [r1, #1]
 324:../LoRaWAN/App/src/main.c ****   AppData.Buff[i++] = ( temperature >> 8 ) & 0xFF;
 502              		.loc 1 324 0
 503 0082 1368     		ldr	r3, [r2]
 504 0084 9E70     		strb	r6, [r3, #2]
 325:../LoRaWAN/App/src/main.c ****   AppData.Buff[i++] = temperature & 0xFF;
 505              		.loc 1 325 0
 506 0086 1168     		ldr	r1, [r2]
 507 0088 2B12     		asrs	r3, r5, #8
 508 008a CB70     		strb	r3, [r1, #3]
 326:../LoRaWAN/App/src/main.c ****   AppData.Buff[i++] = ( humidity >> 8 ) & 0xFF;
 509              		.loc 1 326 0
 510 008c 1368     		ldr	r3, [r2]
 511              	.LVL42:
 327:../LoRaWAN/App/src/main.c ****   AppData.Buff[i++] = humidity & 0xFF;
 512              		.loc 1 327 0
 513 008e 210A     		lsrs	r1, r4, #8
 514 0090 5971     		strb	r1, [r3, #5]
 330:../LoRaWAN/App/src/main.c ****   AppData.Buff[i++] = ( latitude >> 8 ) & 0xFF;
 515              		.loc 1 330 0
 516 0092 4146     		mov	r1, r8
 517 0094 0914     		asrs	r1, r1, #16
 518 0096 1972     		strb	r1, [r3, #8]
 331:../LoRaWAN/App/src/main.c ****   AppData.Buff[i++] = latitude & 0xFF;
 519              		.loc 1 331 0
 520 0098 4146     		mov	r1, r8
 521 009a 0912     		asrs	r1, r1, #8
 522 009c 5972     		strb	r1, [r3, #9]
 332:../LoRaWAN/App/src/main.c ****   AppData.Buff[i++] = ( longitude >> 16 ) & 0xFF;
 523              		.loc 1 332 0
 524 009e 4146     		mov	r1, r8
 525 00a0 9972     		strb	r1, [r3, #10]
 333:../LoRaWAN/App/src/main.c ****   AppData.Buff[i++] = ( longitude >> 8 ) & 0xFF;
 526              		.loc 1 333 0
 527 00a2 3914     		asrs	r1, r7, #16
 528 00a4 D972     		strb	r1, [r3, #11]
 334:../LoRaWAN/App/src/main.c ****   AppData.Buff[i++] = longitude & 0xFF;
 529              		.loc 1 334 0
 530 00a6 3912     		asrs	r1, r7, #8
 531 00a8 1973     		strb	r1, [r3, #12]
 336:../LoRaWAN/App/src/main.c ****   AppData.Buff[i++] = altitudeGps & 0xFF;
 532              		.loc 1 336 0
 533 00aa 0021     		movs	r1, #0
ARM GAS  C:\Users\EBANO_~1\AppData\Local\Temp\ccR8xqy1.s 			page 20


 326:../LoRaWAN/App/src/main.c ****   AppData.Buff[i++] = ( humidity >> 8 ) & 0xFF;
 534              		.loc 1 326 0
 535 00ac 1D71     		strb	r5, [r3, #4]
 536              	.LVL43:
 328:../LoRaWAN/App/src/main.c ****   AppData.Buff[i++] = batteryLevel;
 537              		.loc 1 328 0
 538 00ae 9C71     		strb	r4, [r3, #6]
 539              	.LVL44:
 329:../LoRaWAN/App/src/main.c ****   AppData.Buff[i++] = ( latitude >> 16 ) & 0xFF;
 540              		.loc 1 329 0
 541 00b0 D871     		strb	r0, [r3, #7]
 542              	.LVL45:
 335:../LoRaWAN/App/src/main.c ****   AppData.Buff[i++] = ( altitudeGps >> 8 ) & 0xFF;
 543              		.loc 1 335 0
 544 00b2 5F73     		strb	r7, [r3, #13]
 545              	.LVL46:
 336:../LoRaWAN/App/src/main.c ****   AppData.Buff[i++] = altitudeGps & 0xFF;
 546              		.loc 1 336 0
 547 00b4 9973     		strb	r1, [r3, #14]
 548              	.LVL47:
 337:../LoRaWAN/App/src/main.c **** #endif  /* REGION_XX915 */
 549              		.loc 1 337 0
 550 00b6 D973     		strb	r1, [r3, #15]
 340:../LoRaWAN/App/src/main.c ****   
 551              		.loc 1 340 0
 552 00b8 1023     		movs	r3, #16
 342:../LoRaWAN/App/src/main.c ****   
 553              		.loc 1 342 0
 554 00ba 1000     		movs	r0, r2
 555              	.LVL48:
 340:../LoRaWAN/App/src/main.c ****   
 556              		.loc 1 340 0
 557 00bc 1371     		strb	r3, [r2, #4]
 342:../LoRaWAN/App/src/main.c ****   
 558              		.loc 1 342 0
 559 00be FFF7FEFF 		bl	LORA_send
 560              	.LVL49:
 345:../LoRaWAN/App/src/main.c **** 
 561              		.loc 1 345 0
 562 00c2 07B0     		add	sp, sp, #28
 563              		@ sp needed
 564              	.LVL50:
 565              	.LVL51:
 566              	.LVL52:
 567              	.LVL53:
 568              	.LVL54:
 569 00c4 0CBC     		pop	{r2, r3}
 570 00c6 9046     		mov	r8, r2
 571 00c8 9946     		mov	r9, r3
 572 00ca F0BD     		pop	{r4, r5, r6, r7, pc}
 573              	.L33:
 574              		.align	2
 575              	.L32:
 576 00cc 00000000 		.word	.LANCHOR0
 577 00d0 00000000 		.word	OnTimerLedEvent
 578 00d4 0000C842 		.word	1120403456
 579 00d8 00002041 		.word	1092616192
ARM GAS  C:\Users\EBANO_~1\AppData\Local\Temp\ccR8xqy1.s 			page 21


 580 00dc 00000000 		.word	.LANCHOR1
 581              		.cfi_endproc
 582              	.LFE49:
 583              		.size	Send.part.0, .-Send.part.0
 584              		.section	.text.Send,"ax",%progbits
 585              		.align	1
 586              		.p2align 2,,3
 587              		.syntax unified
 588              		.code	16
 589              		.thumb_func
 590              		.fpu softvfp
 591              		.type	Send, %function
 592              	Send:
 593              	.LFB42:
 231:../LoRaWAN/App/src/main.c ****   /* USER CODE BEGIN 3 */
 594              		.loc 1 231 0
 595              		.cfi_startproc
 596              		@ args = 0, pretend = 0, frame = 0
 597              		@ frame_needed = 0, uses_anonymous_args = 0
 598              	.LVL55:
 599 0000 10B5     		push	{r4, lr}
 600              	.LCFI9:
 601              		.cfi_def_cfa_offset 8
 602              		.cfi_offset 4, -8
 603              		.cfi_offset 14, -4
 239:../LoRaWAN/App/src/main.c ****   {
 604              		.loc 1 239 0
 605 0002 FFF7FEFF 		bl	LORA_JoinStatus
 606              	.LVL56:
 607 0006 0128     		cmp	r0, #1
 608 0008 02D0     		beq	.L35
 242:../LoRaWAN/App/src/main.c ****     return;
 609              		.loc 1 242 0
 610 000a FFF7FEFF 		bl	LORA_Join
 611              	.LVL57:
 612              	.L34:
 345:../LoRaWAN/App/src/main.c **** 
 613              		.loc 1 345 0
 614              		@ sp needed
 615 000e 10BD     		pop	{r4, pc}
 616              	.L35:
 617 0010 FFF7FEFF 		bl	Send.part.0
 618              	.LVL58:
 619 0014 FBE7     		b	.L34
 620              		.cfi_endproc
 621              	.LFE42:
 622              		.size	Send, .-Send
 623 0016 C046     		.section	.text.startup.main,"ax",%progbits
 624              		.align	1
 625              		.p2align 2,,3
 626              		.global	main
 627              		.syntax unified
 628              		.code	16
 629              		.thumb_func
 630              		.fpu softvfp
 631              		.type	main, %function
 632              	main:
ARM GAS  C:\Users\EBANO_~1\AppData\Local\Temp\ccR8xqy1.s 			page 22


 633              	.LFB39:
 153:../LoRaWAN/App/src/main.c ****   /* STM32 HAL library initialization*/
 634              		.loc 1 153 0
 635              		.cfi_startproc
 636              		@ Volatile: function does not return.
 637              		@ args = 0, pretend = 0, frame = 0
 638              		@ frame_needed = 0, uses_anonymous_args = 0
 639 0000 70B5     		push	{r4, r5, r6, lr}
 640              	.LCFI10:
 641              		.cfi_def_cfa_offset 16
 642              		.cfi_offset 4, -16
 643              		.cfi_offset 5, -12
 644              		.cfi_offset 6, -8
 645              		.cfi_offset 14, -4
 155:../LoRaWAN/App/src/main.c ****   
 646              		.loc 1 155 0
 647 0002 FFF7FEFF 		bl	HAL_Init
 648              	.LVL59:
 158:../LoRaWAN/App/src/main.c ****   
 649              		.loc 1 158 0
 650 0006 FFF7FEFF 		bl	SystemClock_Config
 651              	.LVL60:
 161:../LoRaWAN/App/src/main.c ****   
 652              		.loc 1 161 0
 653 000a FFF7FEFF 		bl	DBG_Init
 654              	.LVL61:
 164:../LoRaWAN/App/src/main.c ****   
 655              		.loc 1 164 0
 656 000e FFF7FEFF 		bl	HW_Init
 657              	.LVL62:
 170:../LoRaWAN/App/src/main.c ****   
 658              		.loc 1 170 0
 659 0012 0121     		movs	r1, #1
 660 0014 0120     		movs	r0, #1
 661 0016 FFF7FEFF 		bl	LPM_SetOffMode
 662              	.LVL63:
 172:../LoRaWAN/App/src/main.c ****   
 663              		.loc 1 172 0
 664 001a 1F49     		ldr	r1, .L50
 665 001c 1F48     		ldr	r0, .L50+4
 666 001e FFF7FEFF 		bl	TraceSend
 667              	.LVL64:
 175:../LoRaWAN/App/src/main.c ****   
 668              		.loc 1 175 0
 669 0022 1F48     		ldr	r0, .L50+8
 670 0024 0100     		movs	r1, r0
 671 0026 0C30     		adds	r0, r0, #12
 672 0028 0831     		adds	r1, r1, #8
 673 002a FFF7FEFF 		bl	LORA_Init
 674              	.LVL65:
 177:../LoRaWAN/App/src/main.c ****   
 675              		.loc 1 177 0
 676 002e FFF7FEFF 		bl	LORA_Join
 677              	.LVL66:
 678              	.LBB23:
 679              	.LBB24:
 432:../LoRaWAN/App/src/main.c ****     TimerSetValue( &TxTimer,  APP_TX_DUTYCYCLE); 
ARM GAS  C:\Users\EBANO_~1\AppData\Local\Temp\ccR8xqy1.s 			page 23


 680              		.loc 1 432 0
 681 0032 1C4C     		ldr	r4, .L50+12
 682 0034 1C49     		ldr	r1, .L50+16
 683 0036 251D     		adds	r5, r4, #4
 684 0038 2800     		movs	r0, r5
 685 003a FFF7FEFF 		bl	TimerInit
 686              	.LVL67:
 433:../LoRaWAN/App/src/main.c ****     OnTxTimerEvent( NULL );
 687              		.loc 1 433 0
 688 003e 2800     		movs	r0, r5
 689 0040 1A49     		ldr	r1, .L50+20
 690 0042 FFF7FEFF 		bl	TimerSetValue
 691              	.LVL68:
 692              	.LBB25:
 693              	.LBB26:
 422:../LoRaWAN/App/src/main.c ****   
 694              		.loc 1 422 0
 695 0046 2800     		movs	r0, r5
 696 0048 FFF7FEFF 		bl	TimerStart
 697              	.LVL69:
 424:../LoRaWAN/App/src/main.c **** }
 698              		.loc 1 424 0
 699 004c 0123     		movs	r3, #1
 700              	.LBE26:
 701              	.LBE25:
 702              	.LBE24:
 703              	.LBE23:
 186:../LoRaWAN/App/src/main.c **** 	  /*Send*/
 704              		.loc 1 186 0
 705 004e 0025     		movs	r5, #0
 706              	.LBB30:
 707              	.LBB29:
 708              	.LBB28:
 709              	.LBB27:
 424:../LoRaWAN/App/src/main.c **** }
 710              		.loc 1 424 0
 711 0050 2377     		strb	r3, [r4, #28]
 712 0052 0DE0     		b	.L42
 713              	.L38:
 714              	.LBE27:
 715              	.LBE28:
 716              	.LBE29:
 717              	.LBE30:
 190:../LoRaWAN/App/src/main.c ****     {
 718              		.loc 1 190 0
 719 0054 2378     		ldrb	r3, [r4]
 720 0056 012B     		cmp	r3, #1
 721 0058 16D0     		beq	.L49
 722              	.L40:
 723              	.LBB31:
 724              	.LBB32:
 725              		.file 2 "../../../../../../Drivers/CMSIS/Include/cmsis_gcc.h"
   1:../../../../../../Drivers/CMSIS/Include/cmsis_gcc.h **** /**************************************************************************//**
   2:../../../../../../Drivers/CMSIS/Include/cmsis_gcc.h ****  * @file     cmsis_gcc.h
   3:../../../../../../Drivers/CMSIS/Include/cmsis_gcc.h ****  * @brief    CMSIS compiler GCC header file
   4:../../../../../../Drivers/CMSIS/Include/cmsis_gcc.h ****  * @version  V5.0.1
   5:../../../../../../Drivers/CMSIS/Include/cmsis_gcc.h ****  * @date     02. February 2017
ARM GAS  C:\Users\EBANO_~1\AppData\Local\Temp\ccR8xqy1.s 			page 24


   6:../../../../../../Drivers/CMSIS/Include/cmsis_gcc.h ****  ******************************************************************************/
   7:../../../../../../Drivers/CMSIS/Include/cmsis_gcc.h **** /*
   8:../../../../../../Drivers/CMSIS/Include/cmsis_gcc.h ****  * Copyright (c) 2009-2017 ARM Limited. All rights reserved.
   9:../../../../../../Drivers/CMSIS/Include/cmsis_gcc.h ****  *
  10:../../../../../../Drivers/CMSIS/Include/cmsis_gcc.h ****  * SPDX-License-Identifier: Apache-2.0
  11:../../../../../../Drivers/CMSIS/Include/cmsis_gcc.h ****  *
  12:../../../../../../Drivers/CMSIS/Include/cmsis_gcc.h ****  * Licensed under the Apache License, Version 2.0 (the License); you may
  13:../../../../../../Drivers/CMSIS/Include/cmsis_gcc.h ****  * not use this file except in compliance with the License.
  14:../../../../../../Drivers/CMSIS/Include/cmsis_gcc.h ****  * You may obtain a copy of the License at
  15:../../../../../../Drivers/CMSIS/Include/cmsis_gcc.h ****  *
  16:../../../../../../Drivers/CMSIS/Include/cmsis_gcc.h ****  * www.apache.org/licenses/LICENSE-2.0
  17:../../../../../../Drivers/CMSIS/Include/cmsis_gcc.h ****  *
  18:../../../../../../Drivers/CMSIS/Include/cmsis_gcc.h ****  * Unless required by applicable law or agreed to in writing, software
  19:../../../../../../Drivers/CMSIS/Include/cmsis_gcc.h ****  * distributed under the License is distributed on an AS IS BASIS, WITHOUT
  20:../../../../../../Drivers/CMSIS/Include/cmsis_gcc.h ****  * WARRANTIES OR CONDITIONS OF ANY KIND, either express or implied.
  21:../../../../../../Drivers/CMSIS/Include/cmsis_gcc.h ****  * See the License for the specific language governing permissions and
  22:../../../../../../Drivers/CMSIS/Include/cmsis_gcc.h ****  * limitations under the License.
  23:../../../../../../Drivers/CMSIS/Include/cmsis_gcc.h ****  */
  24:../../../../../../Drivers/CMSIS/Include/cmsis_gcc.h **** 
  25:../../../../../../Drivers/CMSIS/Include/cmsis_gcc.h **** #ifndef __CMSIS_GCC_H
  26:../../../../../../Drivers/CMSIS/Include/cmsis_gcc.h **** #define __CMSIS_GCC_H
  27:../../../../../../Drivers/CMSIS/Include/cmsis_gcc.h **** 
  28:../../../../../../Drivers/CMSIS/Include/cmsis_gcc.h **** /* ignore some GCC warnings */
  29:../../../../../../Drivers/CMSIS/Include/cmsis_gcc.h **** #pragma GCC diagnostic push
  30:../../../../../../Drivers/CMSIS/Include/cmsis_gcc.h **** #pragma GCC diagnostic ignored "-Wsign-conversion"
  31:../../../../../../Drivers/CMSIS/Include/cmsis_gcc.h **** #pragma GCC diagnostic ignored "-Wconversion"
  32:../../../../../../Drivers/CMSIS/Include/cmsis_gcc.h **** #pragma GCC diagnostic ignored "-Wunused-parameter"
  33:../../../../../../Drivers/CMSIS/Include/cmsis_gcc.h **** 
  34:../../../../../../Drivers/CMSIS/Include/cmsis_gcc.h **** /* CMSIS compiler specific defines */
  35:../../../../../../Drivers/CMSIS/Include/cmsis_gcc.h **** #ifndef   __ASM
  36:../../../../../../Drivers/CMSIS/Include/cmsis_gcc.h ****   #define __ASM                     __asm
  37:../../../../../../Drivers/CMSIS/Include/cmsis_gcc.h **** #endif
  38:../../../../../../Drivers/CMSIS/Include/cmsis_gcc.h **** #ifndef   __INLINE
  39:../../../../../../Drivers/CMSIS/Include/cmsis_gcc.h ****   #define __INLINE                  inline
  40:../../../../../../Drivers/CMSIS/Include/cmsis_gcc.h **** #endif
  41:../../../../../../Drivers/CMSIS/Include/cmsis_gcc.h **** #ifndef   __STATIC_INLINE
  42:../../../../../../Drivers/CMSIS/Include/cmsis_gcc.h ****   #define __STATIC_INLINE           static inline
  43:../../../../../../Drivers/CMSIS/Include/cmsis_gcc.h **** #endif
  44:../../../../../../Drivers/CMSIS/Include/cmsis_gcc.h **** #ifndef   __NO_RETURN
  45:../../../../../../Drivers/CMSIS/Include/cmsis_gcc.h ****   #define __NO_RETURN               __attribute__((noreturn))
  46:../../../../../../Drivers/CMSIS/Include/cmsis_gcc.h **** #endif
  47:../../../../../../Drivers/CMSIS/Include/cmsis_gcc.h **** #ifndef   __USED
  48:../../../../../../Drivers/CMSIS/Include/cmsis_gcc.h ****   #define __USED                    __attribute__((used))
  49:../../../../../../Drivers/CMSIS/Include/cmsis_gcc.h **** #endif
  50:../../../../../../Drivers/CMSIS/Include/cmsis_gcc.h **** #ifndef   __WEAK
  51:../../../../../../Drivers/CMSIS/Include/cmsis_gcc.h ****   #define __WEAK                    __attribute__((weak))
  52:../../../../../../Drivers/CMSIS/Include/cmsis_gcc.h **** #endif
  53:../../../../../../Drivers/CMSIS/Include/cmsis_gcc.h **** #ifndef   __UNALIGNED_UINT32
  54:../../../../../../Drivers/CMSIS/Include/cmsis_gcc.h **** #pragma GCC diagnostic push
  55:../../../../../../Drivers/CMSIS/Include/cmsis_gcc.h **** #pragma GCC diagnostic ignored "-Wpacked"
  56:../../../../../../Drivers/CMSIS/Include/cmsis_gcc.h **** #pragma GCC diagnostic ignored "-Wattributes"
  57:../../../../../../Drivers/CMSIS/Include/cmsis_gcc.h ****   struct __attribute__((packed)) T_UINT32 { uint32_t v; };
  58:../../../../../../Drivers/CMSIS/Include/cmsis_gcc.h **** #pragma GCC diagnostic pop
  59:../../../../../../Drivers/CMSIS/Include/cmsis_gcc.h ****   #define __UNALIGNED_UINT32(x)     (((struct T_UINT32 *)(x))->v)
  60:../../../../../../Drivers/CMSIS/Include/cmsis_gcc.h **** #endif
  61:../../../../../../Drivers/CMSIS/Include/cmsis_gcc.h **** #ifndef   __ALIGNED
  62:../../../../../../Drivers/CMSIS/Include/cmsis_gcc.h ****   #define __ALIGNED(x)              __attribute__((aligned(x)))
ARM GAS  C:\Users\EBANO_~1\AppData\Local\Temp\ccR8xqy1.s 			page 25


  63:../../../../../../Drivers/CMSIS/Include/cmsis_gcc.h **** #endif
  64:../../../../../../Drivers/CMSIS/Include/cmsis_gcc.h **** #ifndef   __PACKED
  65:../../../../../../Drivers/CMSIS/Include/cmsis_gcc.h ****   #define __PACKED                  __attribute__((packed, aligned(1)))
  66:../../../../../../Drivers/CMSIS/Include/cmsis_gcc.h **** #endif
  67:../../../../../../Drivers/CMSIS/Include/cmsis_gcc.h **** #ifndef   __PACKED_STRUCT
  68:../../../../../../Drivers/CMSIS/Include/cmsis_gcc.h ****   #define __PACKED_STRUCT           struct __attribute__((packed, aligned(1)))
  69:../../../../../../Drivers/CMSIS/Include/cmsis_gcc.h **** #endif
  70:../../../../../../Drivers/CMSIS/Include/cmsis_gcc.h **** 
  71:../../../../../../Drivers/CMSIS/Include/cmsis_gcc.h **** 
  72:../../../../../../Drivers/CMSIS/Include/cmsis_gcc.h **** /* ###########################  Core Function Access  ########################### */
  73:../../../../../../Drivers/CMSIS/Include/cmsis_gcc.h **** /** \ingroup  CMSIS_Core_FunctionInterface
  74:../../../../../../Drivers/CMSIS/Include/cmsis_gcc.h ****     \defgroup CMSIS_Core_RegAccFunctions CMSIS Core Register Access Functions
  75:../../../../../../Drivers/CMSIS/Include/cmsis_gcc.h ****   @{
  76:../../../../../../Drivers/CMSIS/Include/cmsis_gcc.h ****  */
  77:../../../../../../Drivers/CMSIS/Include/cmsis_gcc.h **** 
  78:../../../../../../Drivers/CMSIS/Include/cmsis_gcc.h **** /**
  79:../../../../../../Drivers/CMSIS/Include/cmsis_gcc.h ****   \brief   Enable IRQ Interrupts
  80:../../../../../../Drivers/CMSIS/Include/cmsis_gcc.h ****   \details Enables IRQ interrupts by clearing the I-bit in the CPSR.
  81:../../../../../../Drivers/CMSIS/Include/cmsis_gcc.h ****            Can only be executed in Privileged modes.
  82:../../../../../../Drivers/CMSIS/Include/cmsis_gcc.h ****  */
  83:../../../../../../Drivers/CMSIS/Include/cmsis_gcc.h **** __attribute__((always_inline)) __STATIC_INLINE void __enable_irq(void)
  84:../../../../../../Drivers/CMSIS/Include/cmsis_gcc.h **** {
  85:../../../../../../Drivers/CMSIS/Include/cmsis_gcc.h ****   __ASM volatile ("cpsie i" : : : "memory");
  86:../../../../../../Drivers/CMSIS/Include/cmsis_gcc.h **** }
  87:../../../../../../Drivers/CMSIS/Include/cmsis_gcc.h **** 
  88:../../../../../../Drivers/CMSIS/Include/cmsis_gcc.h **** 
  89:../../../../../../Drivers/CMSIS/Include/cmsis_gcc.h **** /**
  90:../../../../../../Drivers/CMSIS/Include/cmsis_gcc.h ****   \brief   Disable IRQ Interrupts
  91:../../../../../../Drivers/CMSIS/Include/cmsis_gcc.h ****   \details Disables IRQ interrupts by setting the I-bit in the CPSR.
  92:../../../../../../Drivers/CMSIS/Include/cmsis_gcc.h ****            Can only be executed in Privileged modes.
  93:../../../../../../Drivers/CMSIS/Include/cmsis_gcc.h ****  */
  94:../../../../../../Drivers/CMSIS/Include/cmsis_gcc.h **** __attribute__((always_inline)) __STATIC_INLINE void __disable_irq(void)
  95:../../../../../../Drivers/CMSIS/Include/cmsis_gcc.h **** {
  96:../../../../../../Drivers/CMSIS/Include/cmsis_gcc.h ****   __ASM volatile ("cpsid i" : : : "memory");
 726              		.loc 2 96 0
 727              		.syntax divided
 728              	@ 96 "../../../../../../Drivers/CMSIS/Include/cmsis_gcc.h" 1
 729 005a 72B6     		cpsid i
 730              	@ 0 "" 2
 731              		.thumb
 732              		.syntax unified
 733              	.LBE32:
 734              	.LBE31:
 201:../LoRaWAN/App/src/main.c ****     {
 735              		.loc 1 201 0
 736 005c 2378     		ldrb	r3, [r4]
 737 005e 012B     		cmp	r3, #1
 738 0060 04D0     		beq	.L41
 201:../LoRaWAN/App/src/main.c ****     {
 739              		.loc 1 201 0 is_stmt 0 discriminator 1
 740 0062 237F     		ldrb	r3, [r4, #28]
 741 0064 012B     		cmp	r3, #1
 742 0066 01D0     		beq	.L41
 204:../LoRaWAN/App/src/main.c **** #endif
 743              		.loc 1 204 0 is_stmt 1
 744 0068 FFF7FEFF 		bl	LPM_EnterLowPower
 745              	.LVL70:
ARM GAS  C:\Users\EBANO_~1\AppData\Local\Temp\ccR8xqy1.s 			page 26


 746              	.L41:
 747              	.LBB33:
 748              	.LBB34:
  85:../../../../../../Drivers/CMSIS/Include/cmsis_gcc.h **** }
 749              		.loc 2 85 0
 750              		.syntax divided
 751              	@ 85 "../../../../../../Drivers/CMSIS/Include/cmsis_gcc.h" 1
 752 006c 62B6     		cpsie i
 753              	@ 0 "" 2
 754              		.thumb
 755              		.syntax unified
 756 006e 237F     		ldrb	r3, [r4, #28]
 757              	.L42:
 758              	.LBE34:
 759              	.LBE33:
 183:../LoRaWAN/App/src/main.c ****     {
 760              		.loc 1 183 0
 761 0070 012B     		cmp	r3, #1
 762 0072 EFD1     		bne	.L38
 186:../LoRaWAN/App/src/main.c **** 	  /*Send*/
 763              		.loc 1 186 0
 764 0074 2577     		strb	r5, [r4, #28]
 765              	.LVL71:
 766              	.LBB35:
 767              	.LBB36:
 239:../LoRaWAN/App/src/main.c ****   {
 768              		.loc 1 239 0
 769 0076 FFF7FEFF 		bl	LORA_JoinStatus
 770              	.LVL72:
 771 007a 0128     		cmp	r0, #1
 772 007c 08D0     		beq	.L39
 242:../LoRaWAN/App/src/main.c ****     return;
 773              		.loc 1 242 0
 774 007e FFF7FEFF 		bl	LORA_Join
 775              	.LVL73:
 776              	.LBE36:
 777              	.LBE35:
 190:../LoRaWAN/App/src/main.c ****     {
 778              		.loc 1 190 0
 779 0082 2378     		ldrb	r3, [r4]
 780 0084 012B     		cmp	r3, #1
 781 0086 E8D1     		bne	.L40
 782              	.LVL74:
 783              	.L49:
 193:../LoRaWAN/App/src/main.c ****       LoRaMacProcess( );
 784              		.loc 1 193 0
 785 0088 2570     		strb	r5, [r4]
 194:../LoRaWAN/App/src/main.c ****     }
 786              		.loc 1 194 0
 787 008a FFF7FEFF 		bl	LoRaMacProcess
 788              	.LVL75:
 789 008e E4E7     		b	.L40
 790              	.LVL76:
 791              	.L39:
 792              	.LBB38:
 793              	.LBB37:
 794 0090 FFF7FEFF 		bl	Send.part.0
ARM GAS  C:\Users\EBANO_~1\AppData\Local\Temp\ccR8xqy1.s 			page 27


 795              	.LVL77:
 796 0094 DEE7     		b	.L38
 797              	.L51:
 798 0096 C046     		.align	2
 799              	.L50:
 800 0098 10122544 		.word	1143280144
 801 009c 64000000 		.word	.LC22
 802 00a0 00000000 		.word	.LANCHOR1
 803 00a4 00000000 		.word	.LANCHOR0
 804 00a8 00000000 		.word	OnTxTimerEvent
 805 00ac 10270000 		.word	10000
 806              	.LBE37:
 807              	.LBE38:
 808              		.cfi_endproc
 809              	.LFE39:
 810              		.size	main, .-main
 811              		.global	AppProcessRequest
 812              		.global	LoraMacProcessRequest
 813              		.global	AppData
 814              		.data
 815              		.align	2
 816              		.set	.LANCHOR1,. + 0
 817              		.type	AppData, %object
 818              		.size	AppData, 8
 819              	AppData:
 820 0000 38000000 		.word	AppDataBuff
 821 0004 00       		.byte	0
 822 0005 00       		.byte	0
 823 0006 0000     		.space	2
 824              		.type	LoRaParamInit, %object
 825              		.size	LoRaParamInit, 3
 826              	LoRaParamInit:
 827 0008 01       		.byte	1
 828 0009 00       		.byte	0
 829 000a 01       		.byte	1
 830 000b 00       		.space	1
 831              		.type	LoRaMainCallbacks, %object
 832              		.size	LoRaMainCallbacks, 36
 833              	LoRaMainCallbacks:
 834 000c 00000000 		.word	HW_GetBatteryLevel
 835 0010 00000000 		.word	HW_GetTemperatureLevel
 836 0014 00000000 		.word	HW_GetUniqueId
 837 0018 00000000 		.word	HW_GetRandomSeed
 838 001c 00000000 		.word	LORA_RxData
 839 0020 00000000 		.word	LORA_HasJoined
 840 0024 00000000 		.word	LORA_ConfirmClass
 841 0028 00000000 		.word	LORA_TxNeeded
 842 002c 00000000 		.word	LoraMacProcessNotify
 843              		.bss
 844              		.align	2
 845              		.set	.LANCHOR0,. + 0
 846              		.type	LoraMacProcessRequest, %object
 847              		.size	LoraMacProcessRequest, 1
 848              	LoraMacProcessRequest:
 849 0000 00       		.space	1
 850              		.type	AppLedStateOn, %object
 851              		.size	AppLedStateOn, 1
ARM GAS  C:\Users\EBANO_~1\AppData\Local\Temp\ccR8xqy1.s 			page 28


 852              	AppLedStateOn:
 853 0001 00       		.space	1
 854 0002 0000     		.space	2
 855              		.type	TxTimer, %object
 856              		.size	TxTimer, 24
 857              	TxTimer:
 858 0004 00000000 		.space	24
 858      00000000 
 858      00000000 
 858      00000000 
 858      00000000 
 859              		.type	AppProcessRequest, %object
 860              		.size	AppProcessRequest, 1
 861              	AppProcessRequest:
 862 001c 00       		.space	1
 863 001d 000000   		.space	3
 864              		.type	TxLedTimer, %object
 865              		.size	TxLedTimer, 24
 866              	TxLedTimer:
 867 0020 00000000 		.space	24
 867      00000000 
 867      00000000 
 867      00000000 
 867      00000000 
 868              		.type	AppDataBuff, %object
 869              		.size	AppDataBuff, 64
 870              	AppDataBuff:
 871 0038 00000000 		.space	64
 871      00000000 
 871      00000000 
 871      00000000 
 871      00000000 
 872              		.section	.rodata.str1.4,"aMS",%progbits,1
 873              		.align	2
 874              	.LC4:
 875 0000 73776974 		.ascii	"switch to class %c done\012\015\000"
 875      63682074 
 875      6F20636C 
 875      61737320 
 875      25632064 
 876 001a 0000     		.space	2
 877              	.LC2:
 878 001c 41424300 		.ascii	"ABC\000"
 879              	.LC7:
 880 0020 4A4F494E 		.ascii	"JOINED\012\015\000"
 880      45440A0D 
 880      00
 881 0029 000000   		.space	3
 882              	.LC9:
 883 002c 5041434B 		.ascii	"PACKET RECEIVED ON PORT %d\012\015\000"
 883      45542052 
 883      45434549 
 883      56454420 
 883      4F4E2050 
 884 0049 000000   		.space	3
 885              	.LC12:
 886 004c 4C454420 		.ascii	"LED OFF\012\015\000"
ARM GAS  C:\Users\EBANO_~1\AppData\Local\Temp\ccR8xqy1.s 			page 29


 886      4F46460A 
 886      0D00
 887 0056 0000     		.space	2
 888              	.LC14:
 889 0058 4C454420 		.ascii	"LED ON\012\015\000"
 889      4F4E0A0D 
 889      00
 890 0061 000000   		.space	3
 891              	.LC22:
 892 0064 56455253 		.ascii	"VERSION: %X\012\015\000"
 892      494F4E3A 
 892      2025580A 
 892      0D00
 893              		.text
 894              	.Letext0:
 895              		.file 3 "c:\\program files (x86)\\gnu tools arm embedded\\7 2018-q2-update\\arm-none-eabi\\include
 896              		.file 4 "c:\\program files (x86)\\gnu tools arm embedded\\7 2018-q2-update\\arm-none-eabi\\include
 897              		.file 5 "c:\\program files (x86)\\gnu tools arm embedded\\7 2018-q2-update\\arm-none-eabi\\include
 898              		.file 6 "c:\\program files (x86)\\gnu tools arm embedded\\7 2018-q2-update\\lib\\gcc\\arm-none-eab
 899              		.file 7 "c:\\program files (x86)\\gnu tools arm embedded\\7 2018-q2-update\\arm-none-eabi\\include
 900              		.file 8 "c:\\program files (x86)\\gnu tools arm embedded\\7 2018-q2-update\\arm-none-eabi\\include
 901              		.file 9 "c:\\program files (x86)\\gnu tools arm embedded\\7 2018-q2-update\\arm-none-eabi\\include
 902              		.file 10 "../../../../../../Drivers/CMSIS/Device/ST/STM32L0xx/Include/system_stm32l0xx.h"
 903              		.file 11 "../../../../../../Drivers/CMSIS/Device/ST/STM32L0xx/Include/stm32l072xx.h"
 904              		.file 12 "../../../../../../Drivers/STM32L0xx_HAL_Driver/Inc/stm32l0xx_hal_gpio.h"
 905              		.file 13 "c:\\program files (x86)\\gnu tools arm embedded\\7 2018-q2-update\\arm-none-eabi\\includ
 906              		.file 14 "../../../../../../Drivers/CMSIS/Device/ST/STM32L0xx/Include/stm32l0xx.h"
 907              		.file 15 "../../../../../../Drivers/BSP/B-L072Z-LRWAN1/b-l072z-lrwan1.h"
 908              		.file 16 "../LoRaWAN/App/inc/utilities_conf.h"
 909              		.file 17 "c:\\program files (x86)\\gnu tools arm embedded\\7 2018-q2-update\\arm-none-eabi\\includ
 910              		.file 18 "../../../../../../Middlewares/Third_Party/LoRaWAN/Utilities/low_power_manager.h"
 911              		.file 19 "../../../../../../Middlewares/Third_Party/LoRaWAN/Utilities/timeServer.h"
 912              		.file 20 "../../../../../../Middlewares/Third_Party/LoRaWAN/Phy/radio.h"
 913              		.file 21 "../../../../../../Middlewares/Third_Party/LoRaWAN/Mac/LoRaMac.h"
 914              		.file 22 "../../../../../../Middlewares/Third_Party/LoRaWAN/Core/lora.h"
 915              		.file 23 "../LoRaWAN/App/inc/bsp.h"
 916              		.file 24 "../../../../../../Middlewares/Third_Party/LoRaWAN/Utilities/trace.h"
 917              		.file 25 "../../../../../../Drivers/STM32L0xx_HAL_Driver/Inc/stm32l0xx_hal.h"
 918              		.file 26 "../LoRaWAN/App/inc/hw_msp.h"
 919              		.file 27 "../LoRaWAN/App/inc/debug.h"