ARM GAS  C:\Users\EBANO_~1\AppData\Local\Temp\ccsZgiNd.s 			page 1


   1              		.cpu cortex-m0plus
   2              		.eabi_attribute 20, 1
   3              		.eabi_attribute 21, 1
   4              		.eabi_attribute 23, 3
   5              		.eabi_attribute 24, 1
   6              		.eabi_attribute 25, 1
   7              		.eabi_attribute 26, 1
   8              		.eabi_attribute 30, 2
   9              		.eabi_attribute 34, 0
  10              		.eabi_attribute 18, 4
  11              		.file	"mlm32l0xx_hw.c"
  12              		.text
  13              	.Ltext0:
  14              		.cfi_sections	.debug_frame
  15              		.section	.text.HW_Init,"ax",%progbits
  16              		.align	1
  17              		.p2align 2,,3
  18              		.global	HW_Init
  19              		.syntax unified
  20              		.code	16
  21              		.thumb_func
  22              		.fpu softvfp
  23              		.type	HW_Init, %function
  24              	HW_Init:
  25              	.LFB39:
  26              		.file 1 "../Core/src/mlm32l0xx_hw.c"
   1:../Core/src/mlm32l0xx_hw.c **** /*
   2:../Core/src/mlm32l0xx_hw.c ****  / _____)             _              | |
   3:../Core/src/mlm32l0xx_hw.c **** ( (____  _____ ____ _| |_ _____  ____| |__
   4:../Core/src/mlm32l0xx_hw.c ****  \____ \| ___ |    (_   _) ___ |/ ___)  _ \
   5:../Core/src/mlm32l0xx_hw.c ****  _____) ) ____| | | || |_| ____( (___| | | |
   6:../Core/src/mlm32l0xx_hw.c **** (______/|_____)_|_|_| \__)_____)\____)_| |_|
   7:../Core/src/mlm32l0xx_hw.c ****     (C)2013 Semtech
   8:../Core/src/mlm32l0xx_hw.c **** 
   9:../Core/src/mlm32l0xx_hw.c **** Description: Target board general functions implementation
  10:../Core/src/mlm32l0xx_hw.c **** 
  11:../Core/src/mlm32l0xx_hw.c **** License: Revised BSD License, see LICENSE.TXT file include in the project
  12:../Core/src/mlm32l0xx_hw.c **** 
  13:../Core/src/mlm32l0xx_hw.c **** Maintainer: Miguel Luis and Gregory Cristian
  14:../Core/src/mlm32l0xx_hw.c **** */
  15:../Core/src/mlm32l0xx_hw.c **** /**
  16:../Core/src/mlm32l0xx_hw.c ****   ******************************************************************************
  17:../Core/src/mlm32l0xx_hw.c ****   * @file    mlm32l0xx_hw.c
  18:../Core/src/mlm32l0xx_hw.c ****   * @author  MCD Application Team
  19:../Core/src/mlm32l0xx_hw.c ****   * @brief   system hardware driver
  20:../Core/src/mlm32l0xx_hw.c ****   ******************************************************************************
  21:../Core/src/mlm32l0xx_hw.c ****   * @attention
  22:../Core/src/mlm32l0xx_hw.c ****   *
  23:../Core/src/mlm32l0xx_hw.c ****   * <h2><center>&copy; Copyright (c) 2018 STMicroelectronics.
  24:../Core/src/mlm32l0xx_hw.c ****   * All rights reserved.</center></h2>
  25:../Core/src/mlm32l0xx_hw.c ****   *
  26:../Core/src/mlm32l0xx_hw.c ****   * This software component is licensed by ST under Ultimate Liberty license
  27:../Core/src/mlm32l0xx_hw.c ****   * SLA0044, the "License"; You may not use this file except in compliance with
  28:../Core/src/mlm32l0xx_hw.c ****   * the License. You may obtain a copy of the License at:
  29:../Core/src/mlm32l0xx_hw.c ****   *                             www.st.com/SLA0044
  30:../Core/src/mlm32l0xx_hw.c ****   *
  31:../Core/src/mlm32l0xx_hw.c ****   ******************************************************************************
ARM GAS  C:\Users\EBANO_~1\AppData\Local\Temp\ccsZgiNd.s 			page 2


  32:../Core/src/mlm32l0xx_hw.c ****   */
  33:../Core/src/mlm32l0xx_hw.c **** 
  34:../Core/src/mlm32l0xx_hw.c **** #include "hw.h"
  35:../Core/src/mlm32l0xx_hw.c **** #include "radio.h"
  36:../Core/src/mlm32l0xx_hw.c **** #include "debug.h"
  37:../Core/src/mlm32l0xx_hw.c **** #include "bsp.h"
  38:../Core/src/mlm32l0xx_hw.c **** #include "vcom.h"
  39:../Core/src/mlm32l0xx_hw.c **** 
  40:../Core/src/mlm32l0xx_hw.c **** /*!
  41:../Core/src/mlm32l0xx_hw.c ****  *  \brief Unique Devices IDs register set ( STM32L0xxx )
  42:../Core/src/mlm32l0xx_hw.c ****  */
  43:../Core/src/mlm32l0xx_hw.c **** #define         ID1                                 ( 0x1FF80050 )
  44:../Core/src/mlm32l0xx_hw.c **** #define         ID2                                 ( 0x1FF80054 )
  45:../Core/src/mlm32l0xx_hw.c **** #define         ID3                                 ( 0x1FF80064 )
  46:../Core/src/mlm32l0xx_hw.c **** 
  47:../Core/src/mlm32l0xx_hw.c **** /*!
  48:../Core/src/mlm32l0xx_hw.c ****  * \brief ADC Vbat measurement constants
  49:../Core/src/mlm32l0xx_hw.c ****  */
  50:../Core/src/mlm32l0xx_hw.c **** 
  51:../Core/src/mlm32l0xx_hw.c ****  /* Internal voltage reference, parameter VREFINT_CAL*/
  52:../Core/src/mlm32l0xx_hw.c **** #define VREFINT_CAL       ((uint16_t*) ((uint32_t) 0x1FF80078))
  53:../Core/src/mlm32l0xx_hw.c **** #define LORAWAN_MAX_BAT   254
  54:../Core/src/mlm32l0xx_hw.c **** 
  55:../Core/src/mlm32l0xx_hw.c **** 
  56:../Core/src/mlm32l0xx_hw.c **** /* Internal temperature sensor: constants data used for indicative values in  */
  57:../Core/src/mlm32l0xx_hw.c **** /* this example. Refer to device datasheet for min/typ/max values.            */
  58:../Core/src/mlm32l0xx_hw.c **** 
  59:../Core/src/mlm32l0xx_hw.c **** /* Internal temperature sensor, parameter TS_CAL1: TS ADC raw data acquired at 
  60:../Core/src/mlm32l0xx_hw.c ****  *a temperature of 110 DegC (+-5 DegC), VDDA = 3.3 V (+-10 mV). */
  61:../Core/src/mlm32l0xx_hw.c **** #define TEMP30_CAL_ADDR   ((uint16_t*) ((uint32_t) 0x1FF8007A))
  62:../Core/src/mlm32l0xx_hw.c **** 
  63:../Core/src/mlm32l0xx_hw.c **** /* Internal temperature sensor, parameter TS_CAL2: TS ADC raw data acquired at 
  64:../Core/src/mlm32l0xx_hw.c ****  *a temperature of  30 DegC (+-5 DegC), VDDA = 3.3 V (+-10 mV). */
  65:../Core/src/mlm32l0xx_hw.c **** #define TEMP110_CAL_ADDR  ((uint16_t*) ((uint32_t) 0x1FF8007E))
  66:../Core/src/mlm32l0xx_hw.c **** 
  67:../Core/src/mlm32l0xx_hw.c **** /* Vdda value with which temperature sensor has been calibrated in production 
  68:../Core/src/mlm32l0xx_hw.c ****    (+-10 mV). */
  69:../Core/src/mlm32l0xx_hw.c **** #define VDDA_TEMP_CAL                  ((uint32_t) 3000)        
  70:../Core/src/mlm32l0xx_hw.c **** 
  71:../Core/src/mlm32l0xx_hw.c **** 
  72:../Core/src/mlm32l0xx_hw.c **** #define COMPUTE_TEMPERATURE(TS_ADC_DATA, VDDA_APPLI)                           \
  73:../Core/src/mlm32l0xx_hw.c ****   ((((( ((int32_t)((TS_ADC_DATA * VDDA_APPLI) / VDDA_TEMP_CAL)                  \
  74:../Core/src/mlm32l0xx_hw.c ****         - (int32_t) *TEMP30_CAL_ADDR)                                          \
  75:../Core/src/mlm32l0xx_hw.c ****      ) * (int32_t)(110 - 30)                                                   \
  76:../Core/src/mlm32l0xx_hw.c ****     )<<8) / (int32_t)(*TEMP110_CAL_ADDR - *TEMP30_CAL_ADDR)                        \
  77:../Core/src/mlm32l0xx_hw.c ****    ) + (30<<8)                                                                      \
  78:../Core/src/mlm32l0xx_hw.c ****   )
  79:../Core/src/mlm32l0xx_hw.c **** 
  80:../Core/src/mlm32l0xx_hw.c **** static ADC_HandleTypeDef hadc;
  81:../Core/src/mlm32l0xx_hw.c **** /*!
  82:../Core/src/mlm32l0xx_hw.c ****  * Flag to indicate if the ADC is Initialized
  83:../Core/src/mlm32l0xx_hw.c ****  */
  84:../Core/src/mlm32l0xx_hw.c **** static bool AdcInitialized = false;
  85:../Core/src/mlm32l0xx_hw.c **** 
  86:../Core/src/mlm32l0xx_hw.c **** /*!
  87:../Core/src/mlm32l0xx_hw.c ****  * Flag to indicate if the MCU is Initialized
  88:../Core/src/mlm32l0xx_hw.c ****  */
ARM GAS  C:\Users\EBANO_~1\AppData\Local\Temp\ccsZgiNd.s 			page 3


  89:../Core/src/mlm32l0xx_hw.c **** static bool McuInitialized = false;
  90:../Core/src/mlm32l0xx_hw.c **** 
  91:../Core/src/mlm32l0xx_hw.c **** /**
  92:../Core/src/mlm32l0xx_hw.c ****   * @brief This function initializes the hardware
  93:../Core/src/mlm32l0xx_hw.c ****   * @param None
  94:../Core/src/mlm32l0xx_hw.c ****   * @retval None
  95:../Core/src/mlm32l0xx_hw.c ****   */
  96:../Core/src/mlm32l0xx_hw.c **** void HW_Init( void )
  97:../Core/src/mlm32l0xx_hw.c **** {
  27              		.loc 1 97 0
  28              		.cfi_startproc
  29              		@ args = 0, pretend = 0, frame = 8
  30              		@ frame_needed = 0, uses_anonymous_args = 0
  31 0000 10B5     		push	{r4, lr}
  32              	.LCFI0:
  33              		.cfi_def_cfa_offset 8
  34              		.cfi_offset 4, -8
  35              		.cfi_offset 14, -4
  98:../Core/src/mlm32l0xx_hw.c ****   if( McuInitialized == false )
  36              		.loc 1 98 0
  37 0002 224C     		ldr	r4, .L6
  97:../Core/src/mlm32l0xx_hw.c ****   if( McuInitialized == false )
  38              		.loc 1 97 0
  39 0004 82B0     		sub	sp, sp, #8
  40              	.LCFI1:
  41              		.cfi_def_cfa_offset 16
  42              		.loc 1 98 0
  43 0006 2378     		ldrb	r3, [r4]
  44 0008 002B     		cmp	r3, #0
  45 000a 1CD1     		bne	.L1
  46              	.LBB26:
  47              	.LBB27:
  99:../Core/src/mlm32l0xx_hw.c ****   {
 100:../Core/src/mlm32l0xx_hw.c **** #if defined( USE_BOOTLOADER )
 101:../Core/src/mlm32l0xx_hw.c ****     /* Set the Vector Table base location at 0x3000 */
 102:../Core/src/mlm32l0xx_hw.c ****     NVIC_SetVectorTable( NVIC_VectTab_FLASH, 0x3000 );
 103:../Core/src/mlm32l0xx_hw.c **** #endif
 104:../Core/src/mlm32l0xx_hw.c **** 
 105:../Core/src/mlm32l0xx_hw.c ****     HW_AdcInit( );
 106:../Core/src/mlm32l0xx_hw.c **** 
 107:../Core/src/mlm32l0xx_hw.c ****     Radio.IoInit( );
 108:../Core/src/mlm32l0xx_hw.c ****     
 109:../Core/src/mlm32l0xx_hw.c ****     HW_SPI_Init( );
 110:../Core/src/mlm32l0xx_hw.c **** 
 111:../Core/src/mlm32l0xx_hw.c ****     HW_RTC_Init( );
 112:../Core/src/mlm32l0xx_hw.c ****     
 113:../Core/src/mlm32l0xx_hw.c ****     TraceInit( );
 114:../Core/src/mlm32l0xx_hw.c ****     
 115:../Core/src/mlm32l0xx_hw.c ****     BSP_sensor_Init( );
 116:../Core/src/mlm32l0xx_hw.c ****             
 117:../Core/src/mlm32l0xx_hw.c ****     BSP_LED_Init( LED1 );
 118:../Core/src/mlm32l0xx_hw.c ****     BSP_LED_Init( LED2 );
 119:../Core/src/mlm32l0xx_hw.c ****     BSP_LED_Init( LED3 );
 120:../Core/src/mlm32l0xx_hw.c ****     BSP_LED_Init( LED4 );
 121:../Core/src/mlm32l0xx_hw.c **** 
 122:../Core/src/mlm32l0xx_hw.c ****     McuInitialized = true;
 123:../Core/src/mlm32l0xx_hw.c ****   }
ARM GAS  C:\Users\EBANO_~1\AppData\Local\Temp\ccsZgiNd.s 			page 4


 124:../Core/src/mlm32l0xx_hw.c **** }
 125:../Core/src/mlm32l0xx_hw.c **** 
 126:../Core/src/mlm32l0xx_hw.c **** /**
 127:../Core/src/mlm32l0xx_hw.c ****   * @brief This function Deinitializes the hardware
 128:../Core/src/mlm32l0xx_hw.c ****   * @param None
 129:../Core/src/mlm32l0xx_hw.c ****   * @retval None
 130:../Core/src/mlm32l0xx_hw.c ****   */
 131:../Core/src/mlm32l0xx_hw.c **** void HW_DeInit( void )
 132:../Core/src/mlm32l0xx_hw.c **** {
 133:../Core/src/mlm32l0xx_hw.c ****   HW_SPI_DeInit( );
 134:../Core/src/mlm32l0xx_hw.c ****   
 135:../Core/src/mlm32l0xx_hw.c ****   Radio.IoDeInit( );
 136:../Core/src/mlm32l0xx_hw.c ****   
 137:../Core/src/mlm32l0xx_hw.c ****   vcom_DeInit( );
 138:../Core/src/mlm32l0xx_hw.c ****    
 139:../Core/src/mlm32l0xx_hw.c ****   McuInitialized = false;
 140:../Core/src/mlm32l0xx_hw.c **** }
 141:../Core/src/mlm32l0xx_hw.c **** 
 142:../Core/src/mlm32l0xx_hw.c **** /**
 143:../Core/src/mlm32l0xx_hw.c ****   * @brief This function Initializes the hardware Ios
 144:../Core/src/mlm32l0xx_hw.c ****   * @param None
 145:../Core/src/mlm32l0xx_hw.c ****   * @retval None
 146:../Core/src/mlm32l0xx_hw.c ****   */
 147:../Core/src/mlm32l0xx_hw.c **** static void HW_IoInit( void )
 148:../Core/src/mlm32l0xx_hw.c **** {
 149:../Core/src/mlm32l0xx_hw.c ****   HW_SPI_IoInit( );
 150:../Core/src/mlm32l0xx_hw.c ****   
 151:../Core/src/mlm32l0xx_hw.c ****   Radio.IoInit( );
 152:../Core/src/mlm32l0xx_hw.c ****   
 153:../Core/src/mlm32l0xx_hw.c ****   vcom_IoInit( );
 154:../Core/src/mlm32l0xx_hw.c **** }
 155:../Core/src/mlm32l0xx_hw.c **** 
 156:../Core/src/mlm32l0xx_hw.c **** /**
 157:../Core/src/mlm32l0xx_hw.c ****   * @brief This function Deinitializes the hardware Ios
 158:../Core/src/mlm32l0xx_hw.c ****   * @param None
 159:../Core/src/mlm32l0xx_hw.c ****   * @retval None
 160:../Core/src/mlm32l0xx_hw.c ****   */
 161:../Core/src/mlm32l0xx_hw.c **** static void HW_IoDeInit( void )
 162:../Core/src/mlm32l0xx_hw.c **** {
 163:../Core/src/mlm32l0xx_hw.c ****   /*  HW_SPI_IoDeInit( );*/
 164:../Core/src/mlm32l0xx_hw.c ****   GPIO_InitTypeDef initStruct={0};
 165:../Core/src/mlm32l0xx_hw.c ****     
 166:../Core/src/mlm32l0xx_hw.c ****   initStruct.Mode =GPIO_MODE_ANALOG;
 167:../Core/src/mlm32l0xx_hw.c ****   initStruct.Pull =GPIO_NOPULL;
 168:../Core/src/mlm32l0xx_hw.c ****   HW_GPIO_Init ( RADIO_MOSI_PORT, RADIO_MOSI_PIN, &initStruct ); 
 169:../Core/src/mlm32l0xx_hw.c ****   HW_GPIO_Init ( RADIO_MISO_PORT, RADIO_MISO_PIN, &initStruct ); 
 170:../Core/src/mlm32l0xx_hw.c ****   HW_GPIO_Init ( RADIO_SCLK_PORT, RADIO_SCLK_PIN, &initStruct ); 
 171:../Core/src/mlm32l0xx_hw.c ****   HW_GPIO_Init ( RADIO_NSS_PORT, RADIO_NSS_PIN , &initStruct ); 
 172:../Core/src/mlm32l0xx_hw.c **** 
 173:../Core/src/mlm32l0xx_hw.c ****   
 174:../Core/src/mlm32l0xx_hw.c ****   Radio.IoDeInit( );
 175:../Core/src/mlm32l0xx_hw.c ****   
 176:../Core/src/mlm32l0xx_hw.c ****   vcom_IoDeInit( );
 177:../Core/src/mlm32l0xx_hw.c **** }
 178:../Core/src/mlm32l0xx_hw.c **** 
 179:../Core/src/mlm32l0xx_hw.c **** 
 180:../Core/src/mlm32l0xx_hw.c **** void HW_GpioInit(void)
ARM GAS  C:\Users\EBANO_~1\AppData\Local\Temp\ccsZgiNd.s 			page 5


 181:../Core/src/mlm32l0xx_hw.c **** {
 182:../Core/src/mlm32l0xx_hw.c ****     GPIO_InitTypeDef GPIO_InitStruct={0};
 183:../Core/src/mlm32l0xx_hw.c **** 
 184:../Core/src/mlm32l0xx_hw.c ****   /* Configure all GPIO as analog to reduce current consumption on non used IOs */
 185:../Core/src/mlm32l0xx_hw.c ****   /* Enable GPIOs clock */
 186:../Core/src/mlm32l0xx_hw.c ****   __HAL_RCC_GPIOA_CLK_ENABLE();
 187:../Core/src/mlm32l0xx_hw.c ****   __HAL_RCC_GPIOB_CLK_ENABLE();
 188:../Core/src/mlm32l0xx_hw.c ****   __HAL_RCC_GPIOC_CLK_ENABLE();
 189:../Core/src/mlm32l0xx_hw.c ****   __HAL_RCC_GPIOH_CLK_ENABLE();
 190:../Core/src/mlm32l0xx_hw.c **** 
 191:../Core/src/mlm32l0xx_hw.c ****   GPIO_InitStruct.Mode = GPIO_MODE_ANALOG;
 192:../Core/src/mlm32l0xx_hw.c ****   GPIO_InitStruct.Pull = GPIO_NOPULL;
 193:../Core/src/mlm32l0xx_hw.c ****   /* All GPIOs except debug pins (SWCLK and SWD) */
 194:../Core/src/mlm32l0xx_hw.c ****   GPIO_InitStruct.Pin = GPIO_PIN_All & (~( GPIO_PIN_13 | GPIO_PIN_14) );
 195:../Core/src/mlm32l0xx_hw.c ****   HAL_GPIO_Init(GPIOA, &GPIO_InitStruct);
 196:../Core/src/mlm32l0xx_hw.c ****   
 197:../Core/src/mlm32l0xx_hw.c ****   /* All GPIOs */
 198:../Core/src/mlm32l0xx_hw.c ****   GPIO_InitStruct.Pin = GPIO_PIN_All;
 199:../Core/src/mlm32l0xx_hw.c ****   HAL_GPIO_Init(GPIOB, &GPIO_InitStruct);
 200:../Core/src/mlm32l0xx_hw.c ****   HAL_GPIO_Init(GPIOC, &GPIO_InitStruct);
 201:../Core/src/mlm32l0xx_hw.c ****   HAL_GPIO_Init(GPIOH, &GPIO_InitStruct);
 202:../Core/src/mlm32l0xx_hw.c **** 
 203:../Core/src/mlm32l0xx_hw.c ****   /* Disable GPIOs clock */
 204:../Core/src/mlm32l0xx_hw.c ****   __HAL_RCC_GPIOA_CLK_DISABLE();
 205:../Core/src/mlm32l0xx_hw.c ****   __HAL_RCC_GPIOB_CLK_DISABLE();
 206:../Core/src/mlm32l0xx_hw.c ****   __HAL_RCC_GPIOC_CLK_DISABLE();
 207:../Core/src/mlm32l0xx_hw.c ****   __HAL_RCC_GPIOH_CLK_DISABLE();
 208:../Core/src/mlm32l0xx_hw.c **** }
 209:../Core/src/mlm32l0xx_hw.c **** 
 210:../Core/src/mlm32l0xx_hw.c **** /**
 211:../Core/src/mlm32l0xx_hw.c ****   * @brief  System Clock Configuration
 212:../Core/src/mlm32l0xx_hw.c ****   *         The system Clock is configured as follow :
 213:../Core/src/mlm32l0xx_hw.c ****   *            System Clock source            = PLL (HSI)
 214:../Core/src/mlm32l0xx_hw.c ****   *            SYSCLK(Hz)                     = 32000000
 215:../Core/src/mlm32l0xx_hw.c ****   *            HCLK(Hz)                       = 32000000
 216:../Core/src/mlm32l0xx_hw.c ****   *            AHB Prescaler                  = 1
 217:../Core/src/mlm32l0xx_hw.c ****   *            APB1 Prescaler                 = 1
 218:../Core/src/mlm32l0xx_hw.c ****   *            APB2 Prescaler                 = 1
 219:../Core/src/mlm32l0xx_hw.c ****   *            HSI Frequency(Hz)              = 16000000
 220:../Core/src/mlm32l0xx_hw.c ****   *            PLLMUL                         = 6
 221:../Core/src/mlm32l0xx_hw.c ****   *            PLLDIV                         = 3
 222:../Core/src/mlm32l0xx_hw.c ****   *            Flash Latency(WS)              = 1
 223:../Core/src/mlm32l0xx_hw.c ****   * @retval None
 224:../Core/src/mlm32l0xx_hw.c ****   */
 225:../Core/src/mlm32l0xx_hw.c **** 
 226:../Core/src/mlm32l0xx_hw.c **** void SystemClock_Config( void )
 227:../Core/src/mlm32l0xx_hw.c **** {
 228:../Core/src/mlm32l0xx_hw.c ****   RCC_ClkInitTypeDef RCC_ClkInitStruct = {0};
 229:../Core/src/mlm32l0xx_hw.c ****   RCC_OscInitTypeDef RCC_OscInitStruct = {0};
 230:../Core/src/mlm32l0xx_hw.c **** 
 231:../Core/src/mlm32l0xx_hw.c ****   /* Enable HSE Oscillator and Activate PLL with HSE as source */
 232:../Core/src/mlm32l0xx_hw.c ****   RCC_OscInitStruct.OscillatorType      = RCC_OSCILLATORTYPE_HSI;
 233:../Core/src/mlm32l0xx_hw.c ****   RCC_OscInitStruct.HSEState            = RCC_HSE_OFF;
 234:../Core/src/mlm32l0xx_hw.c ****   RCC_OscInitStruct.HSIState            = RCC_HSI_ON;
 235:../Core/src/mlm32l0xx_hw.c ****   RCC_OscInitStruct.HSICalibrationValue = RCC_HSICALIBRATION_DEFAULT;
 236:../Core/src/mlm32l0xx_hw.c ****   RCC_OscInitStruct.PLL.PLLState        = RCC_PLL_ON;
 237:../Core/src/mlm32l0xx_hw.c ****   RCC_OscInitStruct.PLL.PLLSource       = RCC_PLLSOURCE_HSI;
ARM GAS  C:\Users\EBANO_~1\AppData\Local\Temp\ccsZgiNd.s 			page 6


 238:../Core/src/mlm32l0xx_hw.c ****   RCC_OscInitStruct.PLL.PLLMUL          = RCC_PLLMUL_6;
 239:../Core/src/mlm32l0xx_hw.c ****   RCC_OscInitStruct.PLL.PLLDIV          = RCC_PLLDIV_3;
 240:../Core/src/mlm32l0xx_hw.c **** 
 241:../Core/src/mlm32l0xx_hw.c ****   if (HAL_RCC_OscConfig(&RCC_OscInitStruct) != HAL_OK)
 242:../Core/src/mlm32l0xx_hw.c ****   {
 243:../Core/src/mlm32l0xx_hw.c ****     Error_Handler();
 244:../Core/src/mlm32l0xx_hw.c ****   }
 245:../Core/src/mlm32l0xx_hw.c **** 
 246:../Core/src/mlm32l0xx_hw.c ****   /* Set Voltage scale1 as MCU will run at 32MHz */
 247:../Core/src/mlm32l0xx_hw.c ****   __HAL_RCC_PWR_CLK_ENABLE();
 248:../Core/src/mlm32l0xx_hw.c ****   __HAL_PWR_VOLTAGESCALING_CONFIG(PWR_REGULATOR_VOLTAGE_SCALE1);
 249:../Core/src/mlm32l0xx_hw.c ****   
 250:../Core/src/mlm32l0xx_hw.c ****   /* Poll VOSF bit of in PWR_CSR. Wait until it is reset to 0 */
 251:../Core/src/mlm32l0xx_hw.c ****   while (__HAL_PWR_GET_FLAG(PWR_FLAG_VOS) != RESET) {};
 252:../Core/src/mlm32l0xx_hw.c **** 
 253:../Core/src/mlm32l0xx_hw.c ****   /* Select PLL as system clock source and configure the HCLK, PCLK1 and PCLK2
 254:../Core/src/mlm32l0xx_hw.c ****   clocks dividers */
 255:../Core/src/mlm32l0xx_hw.c ****   RCC_ClkInitStruct.ClockType = (RCC_CLOCKTYPE_SYSCLK | RCC_CLOCKTYPE_HCLK | RCC_CLOCKTYPE_PCLK1 | 
 256:../Core/src/mlm32l0xx_hw.c ****   RCC_ClkInitStruct.SYSCLKSource = RCC_SYSCLKSOURCE_PLLCLK;
 257:../Core/src/mlm32l0xx_hw.c ****   RCC_ClkInitStruct.AHBCLKDivider = RCC_SYSCLK_DIV1;
 258:../Core/src/mlm32l0xx_hw.c ****   RCC_ClkInitStruct.APB1CLKDivider = RCC_HCLK_DIV1;
 259:../Core/src/mlm32l0xx_hw.c ****   RCC_ClkInitStruct.APB2CLKDivider = RCC_HCLK_DIV1;
 260:../Core/src/mlm32l0xx_hw.c ****   if (HAL_RCC_ClockConfig(&RCC_ClkInitStruct, FLASH_LATENCY_1) != HAL_OK)
 261:../Core/src/mlm32l0xx_hw.c ****   {
 262:../Core/src/mlm32l0xx_hw.c ****     Error_Handler();
 263:../Core/src/mlm32l0xx_hw.c ****   }
 264:../Core/src/mlm32l0xx_hw.c **** }
 265:../Core/src/mlm32l0xx_hw.c **** /**
 266:../Core/src/mlm32l0xx_hw.c ****   * @brief This function return a random seed
 267:../Core/src/mlm32l0xx_hw.c ****   * @note based on the device unique ID
 268:../Core/src/mlm32l0xx_hw.c ****   * @param None
 269:../Core/src/mlm32l0xx_hw.c ****   * @retval see
 270:../Core/src/mlm32l0xx_hw.c ****   */
 271:../Core/src/mlm32l0xx_hw.c **** uint32_t HW_GetRandomSeed( void )
 272:../Core/src/mlm32l0xx_hw.c **** {
 273:../Core/src/mlm32l0xx_hw.c ****   return ( ( *( uint32_t* )ID1 ) ^ ( *( uint32_t* )ID2 ) ^ ( *( uint32_t* )ID3 ) );
 274:../Core/src/mlm32l0xx_hw.c **** }
 275:../Core/src/mlm32l0xx_hw.c **** 
 276:../Core/src/mlm32l0xx_hw.c **** /**
 277:../Core/src/mlm32l0xx_hw.c ****   * @brief This function return a unique ID
 278:../Core/src/mlm32l0xx_hw.c ****   * @param unique ID
 279:../Core/src/mlm32l0xx_hw.c ****   * @retval none
 280:../Core/src/mlm32l0xx_hw.c ****   */
 281:../Core/src/mlm32l0xx_hw.c **** void HW_GetUniqueId( uint8_t *id )
 282:../Core/src/mlm32l0xx_hw.c **** {
 283:../Core/src/mlm32l0xx_hw.c ****     id[7] = ( ( *( uint32_t* )ID1 )+ ( *( uint32_t* )ID3 ) ) >> 24;
 284:../Core/src/mlm32l0xx_hw.c ****     id[6] = ( ( *( uint32_t* )ID1 )+ ( *( uint32_t* )ID3 ) ) >> 16;
 285:../Core/src/mlm32l0xx_hw.c ****     id[5] = ( ( *( uint32_t* )ID1 )+ ( *( uint32_t* )ID3 ) ) >> 8;
 286:../Core/src/mlm32l0xx_hw.c ****     id[4] = ( ( *( uint32_t* )ID1 )+ ( *( uint32_t* )ID3 ) );
 287:../Core/src/mlm32l0xx_hw.c ****     id[3] = ( ( *( uint32_t* )ID2 ) ) >> 24;
 288:../Core/src/mlm32l0xx_hw.c ****     id[2] = ( ( *( uint32_t* )ID2 ) ) >> 16;
 289:../Core/src/mlm32l0xx_hw.c ****     id[1] = ( ( *( uint32_t* )ID2 ) ) >> 8;
 290:../Core/src/mlm32l0xx_hw.c ****     id[0] = ( ( *( uint32_t* )ID2 ) );
 291:../Core/src/mlm32l0xx_hw.c **** }
 292:../Core/src/mlm32l0xx_hw.c **** 
 293:../Core/src/mlm32l0xx_hw.c **** uint16_t HW_GetTemperatureLevel( void ) 
 294:../Core/src/mlm32l0xx_hw.c **** {
ARM GAS  C:\Users\EBANO_~1\AppData\Local\Temp\ccsZgiNd.s 			page 7


 295:../Core/src/mlm32l0xx_hw.c ****   uint16_t measuredLevel =0; 
 296:../Core/src/mlm32l0xx_hw.c ****   uint32_t batteryLevelmV;
 297:../Core/src/mlm32l0xx_hw.c ****   uint16_t temperatureDegreeC;
 298:../Core/src/mlm32l0xx_hw.c **** 
 299:../Core/src/mlm32l0xx_hw.c ****   measuredLevel = HW_AdcReadChannel( ADC_CHANNEL_VREFINT ); 
 300:../Core/src/mlm32l0xx_hw.c **** 
 301:../Core/src/mlm32l0xx_hw.c ****   if (measuredLevel ==0)
 302:../Core/src/mlm32l0xx_hw.c ****   {
 303:../Core/src/mlm32l0xx_hw.c ****     batteryLevelmV =0;
 304:../Core/src/mlm32l0xx_hw.c ****   }
 305:../Core/src/mlm32l0xx_hw.c ****   else
 306:../Core/src/mlm32l0xx_hw.c ****   {
 307:../Core/src/mlm32l0xx_hw.c ****     batteryLevelmV= (( (uint32_t) VDDA_VREFINT_CAL * (*VREFINT_CAL ) )/ measuredLevel);
 308:../Core/src/mlm32l0xx_hw.c ****   }
 309:../Core/src/mlm32l0xx_hw.c **** #if 0  
 310:../Core/src/mlm32l0xx_hw.c ****   PRINTF("VDDA= %d\n\r", batteryLevelmV);
 311:../Core/src/mlm32l0xx_hw.c **** #endif
 312:../Core/src/mlm32l0xx_hw.c ****   
 313:../Core/src/mlm32l0xx_hw.c ****   measuredLevel = HW_AdcReadChannel( ADC_CHANNEL_TEMPSENSOR ); 
 314:../Core/src/mlm32l0xx_hw.c ****   
 315:../Core/src/mlm32l0xx_hw.c ****   temperatureDegreeC = COMPUTE_TEMPERATURE( measuredLevel, batteryLevelmV);
 316:../Core/src/mlm32l0xx_hw.c **** 
 317:../Core/src/mlm32l0xx_hw.c **** #if 0 
 318:../Core/src/mlm32l0xx_hw.c ****   {
 319:../Core/src/mlm32l0xx_hw.c ****     uint16_t temperatureDegreeC_Int= (temperatureDegreeC)>>8;
 320:../Core/src/mlm32l0xx_hw.c ****     uint16_t temperatureDegreeC_Frac= ((temperatureDegreeC-(temperatureDegreeC_Int<<8))*100)>>8;  
 321:../Core/src/mlm32l0xx_hw.c ****     PRINTF("temp= %d, %d,%d\n\r", temperatureDegreeC, temperatureDegreeC_Int, temperatureDegreeC_Fr
 322:../Core/src/mlm32l0xx_hw.c ****   }
 323:../Core/src/mlm32l0xx_hw.c **** #endif
 324:../Core/src/mlm32l0xx_hw.c ****   
 325:../Core/src/mlm32l0xx_hw.c ****   return (uint16_t) temperatureDegreeC;
 326:../Core/src/mlm32l0xx_hw.c **** }
 327:../Core/src/mlm32l0xx_hw.c **** /**
 328:../Core/src/mlm32l0xx_hw.c ****   * @brief This function return the battery level
 329:../Core/src/mlm32l0xx_hw.c ****   * @param none
 330:../Core/src/mlm32l0xx_hw.c ****   * @retval the battery level  1 (very low) to 254 (fully charged)
 331:../Core/src/mlm32l0xx_hw.c ****   */
 332:../Core/src/mlm32l0xx_hw.c **** uint8_t HW_GetBatteryLevel( void ) 
 333:../Core/src/mlm32l0xx_hw.c **** {
 334:../Core/src/mlm32l0xx_hw.c ****   uint8_t batteryLevel = 0;
 335:../Core/src/mlm32l0xx_hw.c ****   uint16_t measuredLevel = 0;
 336:../Core/src/mlm32l0xx_hw.c ****   uint32_t batteryLevelmV;
 337:../Core/src/mlm32l0xx_hw.c **** 
 338:../Core/src/mlm32l0xx_hw.c ****   measuredLevel = HW_AdcReadChannel( ADC_CHANNEL_VREFINT ); 
 339:../Core/src/mlm32l0xx_hw.c **** 
 340:../Core/src/mlm32l0xx_hw.c ****   if (measuredLevel == 0)
 341:../Core/src/mlm32l0xx_hw.c ****   {
 342:../Core/src/mlm32l0xx_hw.c ****     batteryLevelmV = 0;
 343:../Core/src/mlm32l0xx_hw.c ****   }
 344:../Core/src/mlm32l0xx_hw.c ****   else
 345:../Core/src/mlm32l0xx_hw.c ****   {
 346:../Core/src/mlm32l0xx_hw.c ****     batteryLevelmV= (( (uint32_t) VDDA_VREFINT_CAL * (*VREFINT_CAL ) )/ measuredLevel);
 347:../Core/src/mlm32l0xx_hw.c ****   }
 348:../Core/src/mlm32l0xx_hw.c **** 
 349:../Core/src/mlm32l0xx_hw.c ****   if (batteryLevelmV > VDD_BAT)
 350:../Core/src/mlm32l0xx_hw.c ****   {
 351:../Core/src/mlm32l0xx_hw.c ****     batteryLevel = LORAWAN_MAX_BAT;
ARM GAS  C:\Users\EBANO_~1\AppData\Local\Temp\ccsZgiNd.s 			page 8


 352:../Core/src/mlm32l0xx_hw.c ****   }
 353:../Core/src/mlm32l0xx_hw.c ****   else if (batteryLevelmV < VDD_MIN)
 354:../Core/src/mlm32l0xx_hw.c ****   {
 355:../Core/src/mlm32l0xx_hw.c ****     batteryLevel = 0;
 356:../Core/src/mlm32l0xx_hw.c ****   }
 357:../Core/src/mlm32l0xx_hw.c ****   else
 358:../Core/src/mlm32l0xx_hw.c ****   {
 359:../Core/src/mlm32l0xx_hw.c ****     batteryLevel = (( (uint32_t) (batteryLevelmV - VDD_MIN)*LORAWAN_MAX_BAT) /(VDD_BAT-VDD_MIN) ); 
 360:../Core/src/mlm32l0xx_hw.c ****   }
 361:../Core/src/mlm32l0xx_hw.c ****   return batteryLevel;
 362:../Core/src/mlm32l0xx_hw.c **** }
 363:../Core/src/mlm32l0xx_hw.c **** 
 364:../Core/src/mlm32l0xx_hw.c **** /**
 365:../Core/src/mlm32l0xx_hw.c ****   * @brief This function initializes the ADC
 366:../Core/src/mlm32l0xx_hw.c ****   * @param none
 367:../Core/src/mlm32l0xx_hw.c ****   * @retval none
 368:../Core/src/mlm32l0xx_hw.c ****   */
 369:../Core/src/mlm32l0xx_hw.c **** void HW_AdcInit( void )
 370:../Core/src/mlm32l0xx_hw.c **** {
 371:../Core/src/mlm32l0xx_hw.c ****   if( AdcInitialized == false )
  48              		.loc 1 371 0
  49 000c 6378     		ldrb	r3, [r4, #1]
  50 000e 002B     		cmp	r3, #0
  51 0010 1BD0     		beq	.L5
  52              	.L3:
  53              	.LBE27:
  54              	.LBE26:
 107:../Core/src/mlm32l0xx_hw.c ****     
  55              		.loc 1 107 0
  56 0012 1F4B     		ldr	r3, .L6+4
  57 0014 1B68     		ldr	r3, [r3]
  58 0016 0193     		str	r3, [sp, #4]
  59 0018 9847     		blx	r3
  60              	.LVL0:
 109:../Core/src/mlm32l0xx_hw.c **** 
  61              		.loc 1 109 0
  62 001a FFF7FEFF 		bl	HW_SPI_Init
  63              	.LVL1:
 111:../Core/src/mlm32l0xx_hw.c ****     
  64              		.loc 1 111 0
  65 001e FFF7FEFF 		bl	HW_RTC_Init
  66              	.LVL2:
 113:../Core/src/mlm32l0xx_hw.c ****     
  67              		.loc 1 113 0
  68 0022 FFF7FEFF 		bl	TraceInit
  69              	.LVL3:
 115:../Core/src/mlm32l0xx_hw.c ****             
  70              		.loc 1 115 0
  71 0026 FFF7FEFF 		bl	BSP_sensor_Init
  72              	.LVL4:
 117:../Core/src/mlm32l0xx_hw.c ****     BSP_LED_Init( LED2 );
  73              		.loc 1 117 0
  74 002a 0020     		movs	r0, #0
  75 002c FFF7FEFF 		bl	BSP_LED_Init
  76              	.LVL5:
 118:../Core/src/mlm32l0xx_hw.c ****     BSP_LED_Init( LED3 );
  77              		.loc 1 118 0
ARM GAS  C:\Users\EBANO_~1\AppData\Local\Temp\ccsZgiNd.s 			page 9


  78 0030 0120     		movs	r0, #1
  79 0032 FFF7FEFF 		bl	BSP_LED_Init
  80              	.LVL6:
 119:../Core/src/mlm32l0xx_hw.c ****     BSP_LED_Init( LED4 );
  81              		.loc 1 119 0
  82 0036 0220     		movs	r0, #2
  83 0038 FFF7FEFF 		bl	BSP_LED_Init
  84              	.LVL7:
 120:../Core/src/mlm32l0xx_hw.c **** 
  85              		.loc 1 120 0
  86 003c 0320     		movs	r0, #3
  87 003e FFF7FEFF 		bl	BSP_LED_Init
  88              	.LVL8:
 122:../Core/src/mlm32l0xx_hw.c ****   }
  89              		.loc 1 122 0
  90 0042 0123     		movs	r3, #1
  91 0044 2370     		strb	r3, [r4]
  92              	.L1:
 124:../Core/src/mlm32l0xx_hw.c **** 
  93              		.loc 1 124 0
  94 0046 02B0     		add	sp, sp, #8
  95              		@ sp needed
  96 0048 10BD     		pop	{r4, pc}
  97              	.L5:
  98              	.LBB31:
  99              	.LBB30:
 100              	.LBB28:
 101              	.LBB29:
 372:../Core/src/mlm32l0xx_hw.c ****   {
 373:../Core/src/mlm32l0xx_hw.c ****     AdcInitialized = true;
 374:../Core/src/mlm32l0xx_hw.c **** 
 375:../Core/src/mlm32l0xx_hw.c ****     
 376:../Core/src/mlm32l0xx_hw.c ****     hadc.Instance  = ADC1;
 102              		.loc 1 376 0
 103 004a 1249     		ldr	r1, .L6+8
 373:../Core/src/mlm32l0xx_hw.c **** 
 104              		.loc 1 373 0
 105 004c 0122     		movs	r2, #1
 106              		.loc 1 376 0
 107 004e 6160     		str	r1, [r4, #4]
 377:../Core/src/mlm32l0xx_hw.c ****     
 378:../Core/src/mlm32l0xx_hw.c ****     hadc.Init.OversamplingMode      = DISABLE;
 379:../Core/src/mlm32l0xx_hw.c ****   
 380:../Core/src/mlm32l0xx_hw.c ****     hadc.Init.ClockPrescaler        = ADC_CLOCK_SYNC_PCLK_DIV4;
 108              		.loc 1 380 0
 109 0050 8021     		movs	r1, #128
 110 0052 0906     		lsls	r1, r1, #24
 111 0054 A160     		str	r1, [r4, #8]
 381:../Core/src/mlm32l0xx_hw.c ****     hadc.Init.LowPowerAutoPowerOff  = DISABLE;
 382:../Core/src/mlm32l0xx_hw.c ****     hadc.Init.LowPowerFrequencyMode = ENABLE;
 383:../Core/src/mlm32l0xx_hw.c ****     hadc.Init.LowPowerAutoWait      = DISABLE;
 384:../Core/src/mlm32l0xx_hw.c ****     
 385:../Core/src/mlm32l0xx_hw.c ****     hadc.Init.Resolution            = ADC_RESOLUTION_12B;
 386:../Core/src/mlm32l0xx_hw.c ****     hadc.Init.SamplingTime          = ADC_SAMPLETIME_160CYCLES_5;
 112              		.loc 1 386 0
 113 0056 0721     		movs	r1, #7
 378:../Core/src/mlm32l0xx_hw.c ****   
ARM GAS  C:\Users\EBANO_~1\AppData\Local\Temp\ccsZgiNd.s 			page 10


 114              		.loc 1 378 0
 115 0058 6364     		str	r3, [r4, #68]
 381:../Core/src/mlm32l0xx_hw.c ****     hadc.Init.LowPowerAutoPowerOff  = DISABLE;
 116              		.loc 1 381 0
 117 005a 2362     		str	r3, [r4, #32]
 383:../Core/src/mlm32l0xx_hw.c ****     
 118              		.loc 1 383 0
 119 005c E361     		str	r3, [r4, #28]
 385:../Core/src/mlm32l0xx_hw.c ****     hadc.Init.SamplingTime          = ADC_SAMPLETIME_160CYCLES_5;
 120              		.loc 1 385 0
 121 005e E360     		str	r3, [r4, #12]
 387:../Core/src/mlm32l0xx_hw.c ****     hadc.Init.ScanConvMode          = ADC_SCAN_DIRECTION_FORWARD;
 388:../Core/src/mlm32l0xx_hw.c ****     hadc.Init.DataAlign             = ADC_DATAALIGN_RIGHT;
 122              		.loc 1 388 0
 123 0060 2361     		str	r3, [r4, #16]
 389:../Core/src/mlm32l0xx_hw.c ****     hadc.Init.ContinuousConvMode    = DISABLE;
 124              		.loc 1 389 0
 125 0062 6362     		str	r3, [r4, #36]
 390:../Core/src/mlm32l0xx_hw.c ****     hadc.Init.DiscontinuousConvMode = DISABLE;
 126              		.loc 1 390 0
 127 0064 A362     		str	r3, [r4, #40]
 391:../Core/src/mlm32l0xx_hw.c ****     hadc.Init.ExternalTrigConvEdge  = ADC_EXTERNALTRIGCONVEDGE_NONE;
 128              		.loc 1 391 0
 129 0066 2363     		str	r3, [r4, #48]
 392:../Core/src/mlm32l0xx_hw.c ****     hadc.Init.EOCSelection          = ADC_EOC_SINGLE_CONV;
 393:../Core/src/mlm32l0xx_hw.c ****     hadc.Init.DMAContinuousRequests = DISABLE;
 130              		.loc 1 393 0
 131 0068 6363     		str	r3, [r4, #52]
 394:../Core/src/mlm32l0xx_hw.c **** 
 395:../Core/src/mlm32l0xx_hw.c ****     ADCCLK_ENABLE();
 132              		.loc 1 395 0
 133 006a 8023     		movs	r3, #128
 382:../Core/src/mlm32l0xx_hw.c ****     hadc.Init.LowPowerAutoWait      = DISABLE;
 134              		.loc 1 382 0
 135 006c E263     		str	r2, [r4, #60]
 387:../Core/src/mlm32l0xx_hw.c ****     hadc.Init.DataAlign             = ADC_DATAALIGN_RIGHT;
 136              		.loc 1 387 0
 137 006e 6261     		str	r2, [r4, #20]
 373:../Core/src/mlm32l0xx_hw.c **** 
 138              		.loc 1 373 0
 139 0070 6270     		strb	r2, [r4, #1]
 392:../Core/src/mlm32l0xx_hw.c ****     hadc.Init.DMAContinuousRequests = DISABLE;
 140              		.loc 1 392 0
 141 0072 0332     		adds	r2, r2, #3
 142 0074 A261     		str	r2, [r4, #24]
 143              		.loc 1 395 0
 144 0076 084A     		ldr	r2, .L6+12
 386:../Core/src/mlm32l0xx_hw.c ****     hadc.Init.ScanConvMode          = ADC_SCAN_DIRECTION_FORWARD;
 145              		.loc 1 386 0
 146 0078 2164     		str	r1, [r4, #64]
 147              		.loc 1 395 0
 148 007a 516B     		ldr	r1, [r2, #52]
 149 007c 9B00     		lsls	r3, r3, #2
 150 007e 0B43     		orrs	r3, r1
 151 0080 5363     		str	r3, [r2, #52]
 396:../Core/src/mlm32l0xx_hw.c ****     
 397:../Core/src/mlm32l0xx_hw.c **** 
ARM GAS  C:\Users\EBANO_~1\AppData\Local\Temp\ccsZgiNd.s 			page 11


 398:../Core/src/mlm32l0xx_hw.c ****     HAL_ADC_Init( &hadc );
 152              		.loc 1 398 0
 153 0082 201D     		adds	r0, r4, #4
 154 0084 FFF7FEFF 		bl	HAL_ADC_Init
 155              	.LVL9:
 156 0088 C3E7     		b	.L3
 157              	.L7:
 158 008a C046     		.align	2
 159              	.L6:
 160 008c 00000000 		.word	.LANCHOR0
 161 0090 00000000 		.word	Radio
 162 0094 00240140 		.word	1073816576
 163 0098 00100240 		.word	1073876992
 164              	.LBE29:
 165              	.LBE28:
 166              	.LBE30:
 167              	.LBE31:
 168              		.cfi_endproc
 169              	.LFE39:
 170              		.size	HW_Init, .-HW_Init
 171              		.section	.text.HW_DeInit,"ax",%progbits
 172              		.align	1
 173              		.p2align 2,,3
 174              		.global	HW_DeInit
 175              		.syntax unified
 176              		.code	16
 177              		.thumb_func
 178              		.fpu softvfp
 179              		.type	HW_DeInit, %function
 180              	HW_DeInit:
 181              	.LFB40:
 132:../Core/src/mlm32l0xx_hw.c ****   HW_SPI_DeInit( );
 182              		.loc 1 132 0
 183              		.cfi_startproc
 184              		@ args = 0, pretend = 0, frame = 0
 185              		@ frame_needed = 0, uses_anonymous_args = 0
 186 0000 10B5     		push	{r4, lr}
 187              	.LCFI2:
 188              		.cfi_def_cfa_offset 8
 189              		.cfi_offset 4, -8
 190              		.cfi_offset 14, -4
 133:../Core/src/mlm32l0xx_hw.c ****   
 191              		.loc 1 133 0
 192 0002 FFF7FEFF 		bl	HW_SPI_DeInit
 193              	.LVL10:
 135:../Core/src/mlm32l0xx_hw.c ****   
 194              		.loc 1 135 0
 195 0006 044B     		ldr	r3, .L9
 140:../Core/src/mlm32l0xx_hw.c **** 
 196              		.loc 1 140 0
 197              		@ sp needed
 135:../Core/src/mlm32l0xx_hw.c ****   
 198              		.loc 1 135 0
 199 0008 5B68     		ldr	r3, [r3, #4]
 200 000a 9847     		blx	r3
 201              	.LVL11:
 137:../Core/src/mlm32l0xx_hw.c ****    
ARM GAS  C:\Users\EBANO_~1\AppData\Local\Temp\ccsZgiNd.s 			page 12


 202              		.loc 1 137 0
 203 000c FFF7FEFF 		bl	vcom_DeInit
 204              	.LVL12:
 139:../Core/src/mlm32l0xx_hw.c **** }
 205              		.loc 1 139 0
 206 0010 0022     		movs	r2, #0
 207 0012 024B     		ldr	r3, .L9+4
 208 0014 1A70     		strb	r2, [r3]
 140:../Core/src/mlm32l0xx_hw.c **** 
 209              		.loc 1 140 0
 210 0016 10BD     		pop	{r4, pc}
 211              	.L10:
 212              		.align	2
 213              	.L9:
 214 0018 00000000 		.word	Radio
 215 001c 00000000 		.word	.LANCHOR0
 216              		.cfi_endproc
 217              	.LFE40:
 218              		.size	HW_DeInit, .-HW_DeInit
 219              		.section	.text.HW_GpioInit,"ax",%progbits
 220              		.align	1
 221              		.p2align 2,,3
 222              		.global	HW_GpioInit
 223              		.syntax unified
 224              		.code	16
 225              		.thumb_func
 226              		.fpu softvfp
 227              		.type	HW_GpioInit, %function
 228              	HW_GpioInit:
 229              	.LFB43:
 181:../Core/src/mlm32l0xx_hw.c ****     GPIO_InitTypeDef GPIO_InitStruct={0};
 230              		.loc 1 181 0
 231              		.cfi_startproc
 232              		@ args = 0, pretend = 0, frame = 40
 233              		@ frame_needed = 0, uses_anonymous_args = 0
 234 0000 F0B5     		push	{r4, r5, r6, r7, lr}
 235              	.LCFI3:
 236              		.cfi_def_cfa_offset 20
 237              		.cfi_offset 4, -20
 238              		.cfi_offset 5, -16
 239              		.cfi_offset 6, -12
 240              		.cfi_offset 7, -8
 241              		.cfi_offset 14, -4
 242 0002 C646     		mov	lr, r8
 243 0004 00B5     		push	{lr}
 244              	.LCFI4:
 245              		.cfi_def_cfa_offset 24
 246              		.cfi_offset 8, -24
 247 0006 8AB0     		sub	sp, sp, #40
 248              	.LCFI5:
 249              		.cfi_def_cfa_offset 64
 182:../Core/src/mlm32l0xx_hw.c **** 
 250              		.loc 1 182 0
 251 0008 0C22     		movs	r2, #12
 252 000a 0021     		movs	r1, #0
 253 000c 07A8     		add	r0, sp, #28
 254 000e FFF7FEFF 		bl	memset
ARM GAS  C:\Users\EBANO_~1\AppData\Local\Temp\ccsZgiNd.s 			page 13


 255              	.LVL13:
 256              	.LBB32:
 186:../Core/src/mlm32l0xx_hw.c ****   __HAL_RCC_GPIOB_CLK_ENABLE();
 257              		.loc 1 186 0
 258 0012 0122     		movs	r2, #1
 259              	.LBE32:
 260              	.LBB33:
 187:../Core/src/mlm32l0xx_hw.c ****   __HAL_RCC_GPIOC_CLK_ENABLE();
 261              		.loc 1 187 0
 262 0014 0227     		movs	r7, #2
 263              	.LBE33:
 264              	.LBB34:
 188:../Core/src/mlm32l0xx_hw.c ****   __HAL_RCC_GPIOH_CLK_ENABLE();
 265              		.loc 1 188 0
 266 0016 0426     		movs	r6, #4
 267              	.LBE34:
 268              	.LBB35:
 189:../Core/src/mlm32l0xx_hw.c **** 
 269              		.loc 1 189 0
 270 0018 8025     		movs	r5, #128
 271              	.LBE35:
 272              	.LBB36:
 186:../Core/src/mlm32l0xx_hw.c ****   __HAL_RCC_GPIOB_CLK_ENABLE();
 273              		.loc 1 186 0
 274 001a 234C     		ldr	r4, .L12
 275              	.LBE36:
 195:../Core/src/mlm32l0xx_hw.c ****   
 276              		.loc 1 195 0
 277 001c A020     		movs	r0, #160
 278              	.LBB37:
 186:../Core/src/mlm32l0xx_hw.c ****   __HAL_RCC_GPIOB_CLK_ENABLE();
 279              		.loc 1 186 0
 280 001e E36A     		ldr	r3, [r4, #44]
 281 0020 9046     		mov	r8, r2
 282 0022 1343     		orrs	r3, r2
 283 0024 E362     		str	r3, [r4, #44]
 284 0026 E36A     		ldr	r3, [r4, #44]
 285              	.LBE37:
 195:../Core/src/mlm32l0xx_hw.c ****   
 286              		.loc 1 195 0
 287 0028 05A9     		add	r1, sp, #20
 288              	.LBB38:
 186:../Core/src/mlm32l0xx_hw.c ****   __HAL_RCC_GPIOB_CLK_ENABLE();
 289              		.loc 1 186 0
 290 002a 1340     		ands	r3, r2
 291 002c 0193     		str	r3, [sp, #4]
 292 002e 019B     		ldr	r3, [sp, #4]
 293              	.LBE38:
 294              	.LBB39:
 187:../Core/src/mlm32l0xx_hw.c ****   __HAL_RCC_GPIOC_CLK_ENABLE();
 295              		.loc 1 187 0
 296 0030 E36A     		ldr	r3, [r4, #44]
 297              	.LBE39:
 195:../Core/src/mlm32l0xx_hw.c ****   
 298              		.loc 1 195 0
 299 0032 C005     		lsls	r0, r0, #23
 300              	.LBB40:
ARM GAS  C:\Users\EBANO_~1\AppData\Local\Temp\ccsZgiNd.s 			page 14


 187:../Core/src/mlm32l0xx_hw.c ****   __HAL_RCC_GPIOC_CLK_ENABLE();
 301              		.loc 1 187 0
 302 0034 3B43     		orrs	r3, r7
 303 0036 E362     		str	r3, [r4, #44]
 304 0038 E36A     		ldr	r3, [r4, #44]
 305 003a 3B40     		ands	r3, r7
 306 003c 0293     		str	r3, [sp, #8]
 307 003e 029B     		ldr	r3, [sp, #8]
 308              	.LBE40:
 309              	.LBB41:
 188:../Core/src/mlm32l0xx_hw.c ****   __HAL_RCC_GPIOH_CLK_ENABLE();
 310              		.loc 1 188 0
 311 0040 E36A     		ldr	r3, [r4, #44]
 312 0042 3343     		orrs	r3, r6
 313 0044 E362     		str	r3, [r4, #44]
 314 0046 E36A     		ldr	r3, [r4, #44]
 315 0048 3340     		ands	r3, r6
 316 004a 0393     		str	r3, [sp, #12]
 317 004c 039B     		ldr	r3, [sp, #12]
 318              	.LBE41:
 319              	.LBB42:
 189:../Core/src/mlm32l0xx_hw.c **** 
 320              		.loc 1 189 0
 321 004e E36A     		ldr	r3, [r4, #44]
 322 0050 2B43     		orrs	r3, r5
 323 0052 E362     		str	r3, [r4, #44]
 324 0054 E36A     		ldr	r3, [r4, #44]
 325 0056 2B40     		ands	r3, r5
 326 0058 0493     		str	r3, [sp, #16]
 327 005a 049B     		ldr	r3, [sp, #16]
 328              	.LBE42:
 191:../Core/src/mlm32l0xx_hw.c ****   GPIO_InitStruct.Pull = GPIO_NOPULL;
 329              		.loc 1 191 0
 330 005c 0323     		movs	r3, #3
 331 005e 0693     		str	r3, [sp, #24]
 194:../Core/src/mlm32l0xx_hw.c ****   HAL_GPIO_Init(GPIOA, &GPIO_InitStruct);
 332              		.loc 1 194 0
 333 0060 124B     		ldr	r3, .L12+4
 334 0062 0593     		str	r3, [sp, #20]
 195:../Core/src/mlm32l0xx_hw.c ****   
 335              		.loc 1 195 0
 336 0064 FFF7FEFF 		bl	HAL_GPIO_Init
 337              	.LVL14:
 198:../Core/src/mlm32l0xx_hw.c ****   HAL_GPIO_Init(GPIOB, &GPIO_InitStruct);
 338              		.loc 1 198 0
 339 0068 114B     		ldr	r3, .L12+8
 199:../Core/src/mlm32l0xx_hw.c ****   HAL_GPIO_Init(GPIOC, &GPIO_InitStruct);
 340              		.loc 1 199 0
 341 006a 05A9     		add	r1, sp, #20
 342 006c 1148     		ldr	r0, .L12+12
 198:../Core/src/mlm32l0xx_hw.c ****   HAL_GPIO_Init(GPIOB, &GPIO_InitStruct);
 343              		.loc 1 198 0
 344 006e 0593     		str	r3, [sp, #20]
 199:../Core/src/mlm32l0xx_hw.c ****   HAL_GPIO_Init(GPIOC, &GPIO_InitStruct);
 345              		.loc 1 199 0
 346 0070 FFF7FEFF 		bl	HAL_GPIO_Init
 347              	.LVL15:
ARM GAS  C:\Users\EBANO_~1\AppData\Local\Temp\ccsZgiNd.s 			page 15


 200:../Core/src/mlm32l0xx_hw.c ****   HAL_GPIO_Init(GPIOH, &GPIO_InitStruct);
 348              		.loc 1 200 0
 349 0074 05A9     		add	r1, sp, #20
 350 0076 1048     		ldr	r0, .L12+16
 351 0078 FFF7FEFF 		bl	HAL_GPIO_Init
 352              	.LVL16:
 201:../Core/src/mlm32l0xx_hw.c **** 
 353              		.loc 1 201 0
 354 007c 05A9     		add	r1, sp, #20
 355 007e 0F48     		ldr	r0, .L12+20
 356 0080 FFF7FEFF 		bl	HAL_GPIO_Init
 357              	.LVL17:
 204:../Core/src/mlm32l0xx_hw.c ****   __HAL_RCC_GPIOB_CLK_DISABLE();
 358              		.loc 1 204 0
 359 0084 4246     		mov	r2, r8
 360 0086 E36A     		ldr	r3, [r4, #44]
 361 0088 9343     		bics	r3, r2
 362 008a E362     		str	r3, [r4, #44]
 205:../Core/src/mlm32l0xx_hw.c ****   __HAL_RCC_GPIOC_CLK_DISABLE();
 363              		.loc 1 205 0
 364 008c E36A     		ldr	r3, [r4, #44]
 365 008e BB43     		bics	r3, r7
 366 0090 E362     		str	r3, [r4, #44]
 206:../Core/src/mlm32l0xx_hw.c ****   __HAL_RCC_GPIOH_CLK_DISABLE();
 367              		.loc 1 206 0
 368 0092 E36A     		ldr	r3, [r4, #44]
 369 0094 B343     		bics	r3, r6
 370 0096 E362     		str	r3, [r4, #44]
 207:../Core/src/mlm32l0xx_hw.c **** }
 371              		.loc 1 207 0
 372 0098 E36A     		ldr	r3, [r4, #44]
 373 009a AB43     		bics	r3, r5
 374 009c E362     		str	r3, [r4, #44]
 208:../Core/src/mlm32l0xx_hw.c **** 
 375              		.loc 1 208 0
 376 009e 0AB0     		add	sp, sp, #40
 377              		@ sp needed
 378 00a0 04BC     		pop	{r2}
 379 00a2 9046     		mov	r8, r2
 380 00a4 F0BD     		pop	{r4, r5, r6, r7, pc}
 381              	.L13:
 382 00a6 C046     		.align	2
 383              	.L12:
 384 00a8 00100240 		.word	1073876992
 385 00ac FF9F0000 		.word	40959
 386 00b0 FFFF0000 		.word	65535
 387 00b4 00040050 		.word	1342178304
 388 00b8 00080050 		.word	1342179328
 389 00bc 001C0050 		.word	1342184448
 390              		.cfi_endproc
 391              	.LFE43:
 392              		.size	HW_GpioInit, .-HW_GpioInit
 393              		.section	.text.SystemClock_Config,"ax",%progbits
 394              		.align	1
 395              		.p2align 2,,3
 396              		.global	SystemClock_Config
 397              		.syntax unified
ARM GAS  C:\Users\EBANO_~1\AppData\Local\Temp\ccsZgiNd.s 			page 16


 398              		.code	16
 399              		.thumb_func
 400              		.fpu softvfp
 401              		.type	SystemClock_Config, %function
 402              	SystemClock_Config:
 403              	.LFB44:
 227:../Core/src/mlm32l0xx_hw.c ****   RCC_ClkInitTypeDef RCC_ClkInitStruct = {0};
 404              		.loc 1 227 0
 405              		.cfi_startproc
 406              		@ args = 0, pretend = 0, frame = 80
 407              		@ frame_needed = 0, uses_anonymous_args = 0
 408 0000 00B5     		push	{lr}
 409              	.LCFI6:
 410              		.cfi_def_cfa_offset 4
 411              		.cfi_offset 14, -4
 412 0002 95B0     		sub	sp, sp, #84
 413              	.LCFI7:
 414              		.cfi_def_cfa_offset 88
 228:../Core/src/mlm32l0xx_hw.c ****   RCC_OscInitTypeDef RCC_OscInitStruct = {0};
 415              		.loc 1 228 0
 416 0004 1422     		movs	r2, #20
 417 0006 0021     		movs	r1, #0
 418 0008 01A8     		add	r0, sp, #4
 419 000a FFF7FEFF 		bl	memset
 420              	.LVL18:
 229:../Core/src/mlm32l0xx_hw.c **** 
 421              		.loc 1 229 0
 422 000e 2C22     		movs	r2, #44
 423 0010 0021     		movs	r1, #0
 424 0012 07A8     		add	r0, sp, #28
 425 0014 FFF7FEFF 		bl	memset
 426              	.LVL19:
 232:../Core/src/mlm32l0xx_hw.c ****   RCC_OscInitStruct.HSEState            = RCC_HSE_OFF;
 427              		.loc 1 232 0
 428 0018 0223     		movs	r3, #2
 429 001a 0693     		str	r3, [sp, #24]
 236:../Core/src/mlm32l0xx_hw.c ****   RCC_OscInitStruct.PLL.PLLSource       = RCC_PLLSOURCE_HSI;
 430              		.loc 1 236 0
 431 001c 1093     		str	r3, [sp, #64]
 238:../Core/src/mlm32l0xx_hw.c ****   RCC_OscInitStruct.PLL.PLLDIV          = RCC_PLLDIV_3;
 432              		.loc 1 238 0
 433 001e 8023     		movs	r3, #128
 434 0020 1B03     		lsls	r3, r3, #12
 234:../Core/src/mlm32l0xx_hw.c ****   RCC_OscInitStruct.HSICalibrationValue = RCC_HSICALIBRATION_DEFAULT;
 435              		.loc 1 234 0
 436 0022 0122     		movs	r2, #1
 238:../Core/src/mlm32l0xx_hw.c ****   RCC_OscInitStruct.PLL.PLLDIV          = RCC_PLLDIV_3;
 437              		.loc 1 238 0
 438 0024 1293     		str	r3, [sp, #72]
 239:../Core/src/mlm32l0xx_hw.c **** 
 439              		.loc 1 239 0
 440 0026 8023     		movs	r3, #128
 234:../Core/src/mlm32l0xx_hw.c ****   RCC_OscInitStruct.HSICalibrationValue = RCC_HSICALIBRATION_DEFAULT;
 441              		.loc 1 234 0
 442 0028 0992     		str	r2, [sp, #36]
 239:../Core/src/mlm32l0xx_hw.c **** 
 443              		.loc 1 239 0
ARM GAS  C:\Users\EBANO_~1\AppData\Local\Temp\ccsZgiNd.s 			page 17


 444 002a 1B04     		lsls	r3, r3, #16
 235:../Core/src/mlm32l0xx_hw.c ****   RCC_OscInitStruct.PLL.PLLState        = RCC_PLL_ON;
 445              		.loc 1 235 0
 446 002c 0F32     		adds	r2, r2, #15
 241:../Core/src/mlm32l0xx_hw.c ****   {
 447              		.loc 1 241 0
 448 002e 06A8     		add	r0, sp, #24
 235:../Core/src/mlm32l0xx_hw.c ****   RCC_OscInitStruct.PLL.PLLState        = RCC_PLL_ON;
 449              		.loc 1 235 0
 450 0030 0A92     		str	r2, [sp, #40]
 239:../Core/src/mlm32l0xx_hw.c **** 
 451              		.loc 1 239 0
 452 0032 1393     		str	r3, [sp, #76]
 241:../Core/src/mlm32l0xx_hw.c ****   {
 453              		.loc 1 241 0
 454 0034 FFF7FEFF 		bl	HAL_RCC_OscConfig
 455              	.LVL20:
 456 0038 0028     		cmp	r0, #0
 457 003a 22D1     		bne	.L25
 458              	.L15:
 247:../Core/src/mlm32l0xx_hw.c ****   __HAL_PWR_VOLTAGESCALING_CONFIG(PWR_REGULATOR_VOLTAGE_SCALE1);
 459              		.loc 1 247 0
 460 003c 8023     		movs	r3, #128
 461 003e 124A     		ldr	r2, .L26
 462 0040 5B05     		lsls	r3, r3, #21
 463 0042 916B     		ldr	r1, [r2, #56]
 464 0044 0B43     		orrs	r3, r1
 465 0046 9363     		str	r3, [r2, #56]
 248:../Core/src/mlm32l0xx_hw.c ****   
 466              		.loc 1 248 0
 467 0048 104A     		ldr	r2, .L26+4
 468 004a 1149     		ldr	r1, .L26+8
 469 004c 1368     		ldr	r3, [r2]
 470 004e 1940     		ands	r1, r3
 471 0050 8023     		movs	r3, #128
 472 0052 1B01     		lsls	r3, r3, #4
 473 0054 0B43     		orrs	r3, r1
 251:../Core/src/mlm32l0xx_hw.c **** 
 474              		.loc 1 251 0
 475 0056 1021     		movs	r1, #16
 248:../Core/src/mlm32l0xx_hw.c ****   
 476              		.loc 1 248 0
 477 0058 1360     		str	r3, [r2]
 478              	.L16:
 251:../Core/src/mlm32l0xx_hw.c **** 
 479              		.loc 1 251 0 discriminator 1
 480 005a 5368     		ldr	r3, [r2, #4]
 481 005c 0B40     		ands	r3, r1
 482 005e FCD1     		bne	.L16
 255:../Core/src/mlm32l0xx_hw.c ****   RCC_ClkInitStruct.SYSCLKSource = RCC_SYSCLKSOURCE_PLLCLK;
 483              		.loc 1 255 0
 484 0060 0F22     		movs	r2, #15
 260:../Core/src/mlm32l0xx_hw.c ****   {
 485              		.loc 1 260 0
 486 0062 0121     		movs	r1, #1
 255:../Core/src/mlm32l0xx_hw.c ****   RCC_ClkInitStruct.SYSCLKSource = RCC_SYSCLKSOURCE_PLLCLK;
 487              		.loc 1 255 0
ARM GAS  C:\Users\EBANO_~1\AppData\Local\Temp\ccsZgiNd.s 			page 18


 488 0064 0192     		str	r2, [sp, #4]
 260:../Core/src/mlm32l0xx_hw.c ****   {
 489              		.loc 1 260 0
 490 0066 01A8     		add	r0, sp, #4
 256:../Core/src/mlm32l0xx_hw.c ****   RCC_ClkInitStruct.AHBCLKDivider = RCC_SYSCLK_DIV1;
 491              		.loc 1 256 0
 492 0068 0C3A     		subs	r2, r2, #12
 493 006a 0292     		str	r2, [sp, #8]
 257:../Core/src/mlm32l0xx_hw.c ****   RCC_ClkInitStruct.APB1CLKDivider = RCC_HCLK_DIV1;
 494              		.loc 1 257 0
 495 006c 0393     		str	r3, [sp, #12]
 258:../Core/src/mlm32l0xx_hw.c ****   RCC_ClkInitStruct.APB2CLKDivider = RCC_HCLK_DIV1;
 496              		.loc 1 258 0
 497 006e 0493     		str	r3, [sp, #16]
 259:../Core/src/mlm32l0xx_hw.c ****   if (HAL_RCC_ClockConfig(&RCC_ClkInitStruct, FLASH_LATENCY_1) != HAL_OK)
 498              		.loc 1 259 0
 499 0070 0593     		str	r3, [sp, #20]
 260:../Core/src/mlm32l0xx_hw.c ****   {
 500              		.loc 1 260 0
 501 0072 FFF7FEFF 		bl	HAL_RCC_ClockConfig
 502              	.LVL21:
 503 0076 0028     		cmp	r0, #0
 504 0078 01D0     		beq	.L14
 262:../Core/src/mlm32l0xx_hw.c ****   }
 505              		.loc 1 262 0
 506 007a FFF7FEFF 		bl	Error_Handler
 507              	.LVL22:
 508              	.L14:
 264:../Core/src/mlm32l0xx_hw.c **** /**
 509              		.loc 1 264 0
 510 007e 15B0     		add	sp, sp, #84
 511              		@ sp needed
 512 0080 00BD     		pop	{pc}
 513              	.L25:
 243:../Core/src/mlm32l0xx_hw.c ****   }
 514              		.loc 1 243 0
 515 0082 FFF7FEFF 		bl	Error_Handler
 516              	.LVL23:
 517 0086 D9E7     		b	.L15
 518              	.L27:
 519              		.align	2
 520              	.L26:
 521 0088 00100240 		.word	1073876992
 522 008c 00700040 		.word	1073770496
 523 0090 FFE7FFFF 		.word	-6145
 524              		.cfi_endproc
 525              	.LFE44:
 526              		.size	SystemClock_Config, .-SystemClock_Config
 527              		.section	.text.HW_GetRandomSeed,"ax",%progbits
 528              		.align	1
 529              		.p2align 2,,3
 530              		.global	HW_GetRandomSeed
 531              		.syntax unified
 532              		.code	16
 533              		.thumb_func
 534              		.fpu softvfp
 535              		.type	HW_GetRandomSeed, %function
ARM GAS  C:\Users\EBANO_~1\AppData\Local\Temp\ccsZgiNd.s 			page 19


 536              	HW_GetRandomSeed:
 537              	.LFB45:
 272:../Core/src/mlm32l0xx_hw.c ****   return ( ( *( uint32_t* )ID1 ) ^ ( *( uint32_t* )ID2 ) ^ ( *( uint32_t* )ID3 ) );
 538              		.loc 1 272 0
 539              		.cfi_startproc
 540              		@ args = 0, pretend = 0, frame = 0
 541              		@ frame_needed = 0, uses_anonymous_args = 0
 542              		@ link register save eliminated.
 273:../Core/src/mlm32l0xx_hw.c **** }
 543              		.loc 1 273 0
 544 0000 044B     		ldr	r3, .L29
 274:../Core/src/mlm32l0xx_hw.c **** 
 545              		.loc 1 274 0
 546              		@ sp needed
 273:../Core/src/mlm32l0xx_hw.c **** }
 547              		.loc 1 273 0
 548 0002 1868     		ldr	r0, [r3]
 549 0004 044B     		ldr	r3, .L29+4
 550 0006 1B68     		ldr	r3, [r3]
 551 0008 5840     		eors	r0, r3
 552 000a 044B     		ldr	r3, .L29+8
 553 000c 1B68     		ldr	r3, [r3]
 554 000e 5840     		eors	r0, r3
 274:../Core/src/mlm32l0xx_hw.c **** 
 555              		.loc 1 274 0
 556 0010 7047     		bx	lr
 557              	.L30:
 558 0012 C046     		.align	2
 559              	.L29:
 560 0014 5000F81F 		.word	536346704
 561 0018 5400F81F 		.word	536346708
 562 001c 6400F81F 		.word	536346724
 563              		.cfi_endproc
 564              	.LFE45:
 565              		.size	HW_GetRandomSeed, .-HW_GetRandomSeed
 566              		.section	.text.HW_GetUniqueId,"ax",%progbits
 567              		.align	1
 568              		.p2align 2,,3
 569              		.global	HW_GetUniqueId
 570              		.syntax unified
 571              		.code	16
 572              		.thumb_func
 573              		.fpu softvfp
 574              		.type	HW_GetUniqueId, %function
 575              	HW_GetUniqueId:
 576              	.LFB46:
 282:../Core/src/mlm32l0xx_hw.c ****     id[7] = ( ( *( uint32_t* )ID1 )+ ( *( uint32_t* )ID3 ) ) >> 24;
 577              		.loc 1 282 0
 578              		.cfi_startproc
 579              		@ args = 0, pretend = 0, frame = 0
 580              		@ frame_needed = 0, uses_anonymous_args = 0
 581              	.LVL24:
 283:../Core/src/mlm32l0xx_hw.c ****     id[6] = ( ( *( uint32_t* )ID1 )+ ( *( uint32_t* )ID3 ) ) >> 16;
 582              		.loc 1 283 0
 583 0000 1349     		ldr	r1, .L32
 584 0002 144A     		ldr	r2, .L32+4
 585 0004 0B68     		ldr	r3, [r1]
ARM GAS  C:\Users\EBANO_~1\AppData\Local\Temp\ccsZgiNd.s 			page 20


 282:../Core/src/mlm32l0xx_hw.c ****     id[7] = ( ( *( uint32_t* )ID1 )+ ( *( uint32_t* )ID3 ) ) >> 24;
 586              		.loc 1 282 0
 587 0006 10B5     		push	{r4, lr}
 588              	.LCFI8:
 589              		.cfi_def_cfa_offset 8
 590              		.cfi_offset 4, -8
 591              		.cfi_offset 14, -4
 283:../Core/src/mlm32l0xx_hw.c ****     id[6] = ( ( *( uint32_t* )ID1 )+ ( *( uint32_t* )ID3 ) ) >> 16;
 592              		.loc 1 283 0
 593 0008 1C00     		movs	r4, r3
 594 000a 1368     		ldr	r3, [r2]
 291:../Core/src/mlm32l0xx_hw.c **** 
 595              		.loc 1 291 0
 596              		@ sp needed
 283:../Core/src/mlm32l0xx_hw.c ****     id[6] = ( ( *( uint32_t* )ID1 )+ ( *( uint32_t* )ID3 ) ) >> 16;
 597              		.loc 1 283 0
 598 000c 9C46     		mov	ip, r3
 599 000e 6444     		add	r4, r4, ip
 600 0010 230E     		lsrs	r3, r4, #24
 601 0012 C371     		strb	r3, [r0, #7]
 284:../Core/src/mlm32l0xx_hw.c ****     id[5] = ( ( *( uint32_t* )ID1 )+ ( *( uint32_t* )ID3 ) ) >> 8;
 602              		.loc 1 284 0
 603 0014 0B68     		ldr	r3, [r1]
 604 0016 1C00     		movs	r4, r3
 605 0018 1368     		ldr	r3, [r2]
 606 001a 9C46     		mov	ip, r3
 607 001c 6444     		add	r4, r4, ip
 608 001e 230C     		lsrs	r3, r4, #16
 609 0020 8371     		strb	r3, [r0, #6]
 285:../Core/src/mlm32l0xx_hw.c ****     id[4] = ( ( *( uint32_t* )ID1 )+ ( *( uint32_t* )ID3 ) );
 610              		.loc 1 285 0
 611 0022 0B68     		ldr	r3, [r1]
 612 0024 1C00     		movs	r4, r3
 613 0026 1368     		ldr	r3, [r2]
 614 0028 9C46     		mov	ip, r3
 615 002a 6444     		add	r4, r4, ip
 616 002c 230A     		lsrs	r3, r4, #8
 617 002e 4371     		strb	r3, [r0, #5]
 286:../Core/src/mlm32l0xx_hw.c ****     id[3] = ( ( *( uint32_t* )ID2 ) ) >> 24;
 618              		.loc 1 286 0
 619 0030 1268     		ldr	r2, [r2]
 620 0032 0B68     		ldr	r3, [r1]
 621 0034 9B18     		adds	r3, r3, r2
 622 0036 0371     		strb	r3, [r0, #4]
 287:../Core/src/mlm32l0xx_hw.c ****     id[2] = ( ( *( uint32_t* )ID2 ) ) >> 16;
 623              		.loc 1 287 0
 624 0038 074B     		ldr	r3, .L32+8
 625 003a DA78     		ldrb	r2, [r3, #3]
 626 003c C270     		strb	r2, [r0, #3]
 288:../Core/src/mlm32l0xx_hw.c ****     id[1] = ( ( *( uint32_t* )ID2 ) ) >> 8;
 627              		.loc 1 288 0
 628 003e 5A88     		ldrh	r2, [r3, #2]
 629 0040 8270     		strb	r2, [r0, #2]
 289:../Core/src/mlm32l0xx_hw.c ****     id[0] = ( ( *( uint32_t* )ID2 ) );
 630              		.loc 1 289 0
 631 0042 1A68     		ldr	r2, [r3]
 632 0044 120A     		lsrs	r2, r2, #8
ARM GAS  C:\Users\EBANO_~1\AppData\Local\Temp\ccsZgiNd.s 			page 21


 633 0046 4270     		strb	r2, [r0, #1]
 290:../Core/src/mlm32l0xx_hw.c **** }
 634              		.loc 1 290 0
 635 0048 1B68     		ldr	r3, [r3]
 636 004a 0370     		strb	r3, [r0]
 291:../Core/src/mlm32l0xx_hw.c **** 
 637              		.loc 1 291 0
 638 004c 10BD     		pop	{r4, pc}
 639              	.L33:
 640 004e C046     		.align	2
 641              	.L32:
 642 0050 5000F81F 		.word	536346704
 643 0054 6400F81F 		.word	536346724
 644 0058 5400F81F 		.word	536346708
 645              		.cfi_endproc
 646              	.LFE46:
 647              		.size	HW_GetUniqueId, .-HW_GetUniqueId
 648              		.global	__aeabi_uidiv
 649              		.global	__aeabi_idiv
 650              		.section	.text.HW_GetTemperatureLevel,"ax",%progbits
 651              		.align	1
 652              		.p2align 2,,3
 653              		.global	HW_GetTemperatureLevel
 654              		.syntax unified
 655              		.code	16
 656              		.thumb_func
 657              		.fpu softvfp
 658              		.type	HW_GetTemperatureLevel, %function
 659              	HW_GetTemperatureLevel:
 660              	.LFB47:
 294:../Core/src/mlm32l0xx_hw.c ****   uint16_t measuredLevel =0; 
 661              		.loc 1 294 0
 662              		.cfi_startproc
 663              		@ args = 0, pretend = 0, frame = 8
 664              		@ frame_needed = 0, uses_anonymous_args = 0
 665              	.LVL25:
 666 0000 F0B5     		push	{r4, r5, r6, r7, lr}
 667              	.LCFI9:
 668              		.cfi_def_cfa_offset 20
 669              		.cfi_offset 4, -20
 670              		.cfi_offset 5, -16
 671              		.cfi_offset 6, -12
 672              		.cfi_offset 7, -8
 673              		.cfi_offset 14, -4
 674              	.LBB51:
 675              	.LBB52:
 399:../Core/src/mlm32l0xx_hw.c **** 
 400:../Core/src/mlm32l0xx_hw.c ****   }
 401:../Core/src/mlm32l0xx_hw.c **** }
 402:../Core/src/mlm32l0xx_hw.c **** /**
 403:../Core/src/mlm32l0xx_hw.c ****   * @brief This function De-initializes the ADC
 404:../Core/src/mlm32l0xx_hw.c ****   * @param none
 405:../Core/src/mlm32l0xx_hw.c ****   * @retval none
 406:../Core/src/mlm32l0xx_hw.c ****   */
 407:../Core/src/mlm32l0xx_hw.c **** void HW_AdcDeInit( void )
 408:../Core/src/mlm32l0xx_hw.c **** {
 409:../Core/src/mlm32l0xx_hw.c ****   AdcInitialized = false;
ARM GAS  C:\Users\EBANO_~1\AppData\Local\Temp\ccsZgiNd.s 			page 22


 410:../Core/src/mlm32l0xx_hw.c **** }
 411:../Core/src/mlm32l0xx_hw.c **** 
 412:../Core/src/mlm32l0xx_hw.c **** /**
 413:../Core/src/mlm32l0xx_hw.c ****   * @brief This function De-initializes the ADC
 414:../Core/src/mlm32l0xx_hw.c ****   * @param Channel
 415:../Core/src/mlm32l0xx_hw.c ****   * @retval Value
 416:../Core/src/mlm32l0xx_hw.c ****   */
 417:../Core/src/mlm32l0xx_hw.c **** uint16_t HW_AdcReadChannel( uint32_t Channel )
 418:../Core/src/mlm32l0xx_hw.c **** {
 419:../Core/src/mlm32l0xx_hw.c **** 
 420:../Core/src/mlm32l0xx_hw.c ****   ADC_ChannelConfTypeDef adcConf;
 421:../Core/src/mlm32l0xx_hw.c ****   uint16_t adcData = 0;
 422:../Core/src/mlm32l0xx_hw.c ****   
 423:../Core/src/mlm32l0xx_hw.c ****   if( AdcInitialized == true )
 676              		.loc 1 423 0
 677 0002 504C     		ldr	r4, .L51
 678              	.LBE52:
 679              	.LBE51:
 294:../Core/src/mlm32l0xx_hw.c ****   uint16_t measuredLevel =0; 
 680              		.loc 1 294 0
 681 0004 83B0     		sub	sp, sp, #12
 682              	.LCFI10:
 683              		.cfi_def_cfa_offset 32
 684              	.LBB57:
 685              	.LBB55:
 686              		.loc 1 423 0
 687 0006 6378     		ldrb	r3, [r4, #1]
 688 0008 0020     		movs	r0, #0
 689 000a 002B     		cmp	r3, #0
 690 000c 11D1     		bne	.L49
 691              	.LVL26:
 692              	.L35:
 693              	.LBE55:
 694              	.LBE57:
 315:../Core/src/mlm32l0xx_hw.c **** 
 695              		.loc 1 315 0
 696 000e 4E4B     		ldr	r3, .L51+4
 697 0010 1A88     		ldrh	r2, [r3]
 698              	.LVL27:
 699 0012 831A     		subs	r3, r0, r2
 700 0014 9800     		lsls	r0, r3, #2
 701              	.LVL28:
 702 0016 C018     		adds	r0, r0, r3
 703 0018 4C4B     		ldr	r3, .L51+8
 704 001a 0003     		lsls	r0, r0, #12
 705 001c 1988     		ldrh	r1, [r3]
 706 001e 891A     		subs	r1, r1, r2
 707 0020 FFF7FEFF 		bl	__aeabi_idiv
 708              	.LVL29:
 709 0024 F023     		movs	r3, #240
 710 0026 5B01     		lsls	r3, r3, #5
 711 0028 9C46     		mov	ip, r3
 712 002a 6044     		add	r0, r0, ip
 325:../Core/src/mlm32l0xx_hw.c **** }
 713              		.loc 1 325 0
 714 002c 80B2     		uxth	r0, r0
 326:../Core/src/mlm32l0xx_hw.c **** /**
ARM GAS  C:\Users\EBANO_~1\AppData\Local\Temp\ccsZgiNd.s 			page 23


 715              		.loc 1 326 0
 716 002e 03B0     		add	sp, sp, #12
 717              		@ sp needed
 718 0030 F0BD     		pop	{r4, r5, r6, r7, pc}
 719              	.LVL30:
 720              	.L49:
 721              	.LBB58:
 722              	.LBB56:
 723              	.LBB53:
 724              	.LBB54:
 424:../Core/src/mlm32l0xx_hw.c ****   {
 425:../Core/src/mlm32l0xx_hw.c ****     /* wait the the Vrefint used by adc is set */
 426:../Core/src/mlm32l0xx_hw.c ****     while (__HAL_PWR_GET_FLAG(PWR_FLAG_VREFINTRDY) == RESET) {};
 725              		.loc 1 426 0
 726 0032 0822     		movs	r2, #8
 727 0034 4649     		ldr	r1, .L51+12
 728              	.L36:
 729 0036 4B68     		ldr	r3, [r1, #4]
 730 0038 1A42     		tst	r2, r3
 731 003a FCD0     		beq	.L36
 427:../Core/src/mlm32l0xx_hw.c ****       
 428:../Core/src/mlm32l0xx_hw.c ****     ADCCLK_ENABLE();
 732              		.loc 1 428 0
 733 003c 8023     		movs	r3, #128
 734 003e 454E     		ldr	r6, .L51+16
 735 0040 9B00     		lsls	r3, r3, #2
 736 0042 726B     		ldr	r2, [r6, #52]
 429:../Core/src/mlm32l0xx_hw.c ****     
 430:../Core/src/mlm32l0xx_hw.c ****     /*calibrate ADC if any calibraiton hardware*/
 431:../Core/src/mlm32l0xx_hw.c ****     HAL_ADCEx_Calibration_Start(&hadc, ADC_SINGLE_ENDED );
 737              		.loc 1 431 0
 738 0044 251D     		adds	r5, r4, #4
 428:../Core/src/mlm32l0xx_hw.c ****     
 739              		.loc 1 428 0
 740 0046 1343     		orrs	r3, r2
 741 0048 7363     		str	r3, [r6, #52]
 742              		.loc 1 431 0
 743 004a 0021     		movs	r1, #0
 744 004c 2800     		movs	r0, r5
 745 004e FFF7FEFF 		bl	HAL_ADCEx_Calibration_Start
 746              	.LVL31:
 432:../Core/src/mlm32l0xx_hw.c ****     
 433:../Core/src/mlm32l0xx_hw.c ****     /* Deselects all channels*/
 434:../Core/src/mlm32l0xx_hw.c ****     adcConf.Channel = ADC_CHANNEL_MASK;
 747              		.loc 1 434 0
 748 0052 414B     		ldr	r3, .L51+20
 435:../Core/src/mlm32l0xx_hw.c ****     adcConf.Rank = ADC_RANK_NONE; 
 436:../Core/src/mlm32l0xx_hw.c ****     HAL_ADC_ConfigChannel( &hadc, &adcConf);
 749              		.loc 1 436 0
 750 0054 6946     		mov	r1, sp
 434:../Core/src/mlm32l0xx_hw.c ****     adcConf.Rank = ADC_RANK_NONE; 
 751              		.loc 1 434 0
 752 0056 0093     		str	r3, [sp]
 435:../Core/src/mlm32l0xx_hw.c ****     adcConf.Rank = ADC_RANK_NONE; 
 753              		.loc 1 435 0
 754 0058 404B     		ldr	r3, .L51+24
 755              		.loc 1 436 0
ARM GAS  C:\Users\EBANO_~1\AppData\Local\Temp\ccsZgiNd.s 			page 24


 756 005a 2800     		movs	r0, r5
 435:../Core/src/mlm32l0xx_hw.c ****     adcConf.Rank = ADC_RANK_NONE; 
 757              		.loc 1 435 0
 758 005c 0193     		str	r3, [sp, #4]
 759              		.loc 1 436 0
 760 005e FFF7FEFF 		bl	HAL_ADC_ConfigChannel
 761              	.LVL32:
 437:../Core/src/mlm32l0xx_hw.c ****       
 438:../Core/src/mlm32l0xx_hw.c ****     /* configure adc channel */
 439:../Core/src/mlm32l0xx_hw.c ****     adcConf.Channel = Channel;
 762              		.loc 1 439 0
 763 0062 3F4B     		ldr	r3, .L51+28
 440:../Core/src/mlm32l0xx_hw.c ****     adcConf.Rank = ADC_RANK_CHANNEL_NUMBER;
 441:../Core/src/mlm32l0xx_hw.c ****     HAL_ADC_ConfigChannel( &hadc, &adcConf);
 764              		.loc 1 441 0
 765 0064 6946     		mov	r1, sp
 439:../Core/src/mlm32l0xx_hw.c ****     adcConf.Rank = ADC_RANK_CHANNEL_NUMBER;
 766              		.loc 1 439 0
 767 0066 0093     		str	r3, [sp]
 440:../Core/src/mlm32l0xx_hw.c ****     adcConf.Rank = ADC_RANK_CHANNEL_NUMBER;
 768              		.loc 1 440 0
 769 0068 8023     		movs	r3, #128
 770              		.loc 1 441 0
 771 006a 2800     		movs	r0, r5
 440:../Core/src/mlm32l0xx_hw.c ****     adcConf.Rank = ADC_RANK_CHANNEL_NUMBER;
 772              		.loc 1 440 0
 773 006c 5B01     		lsls	r3, r3, #5
 774 006e 0193     		str	r3, [sp, #4]
 775              		.loc 1 441 0
 776 0070 FFF7FEFF 		bl	HAL_ADC_ConfigChannel
 777              	.LVL33:
 442:../Core/src/mlm32l0xx_hw.c **** 
 443:../Core/src/mlm32l0xx_hw.c ****     /* Start the conversion process */
 444:../Core/src/mlm32l0xx_hw.c ****     HAL_ADC_Start( &hadc);
 778              		.loc 1 444 0
 779 0074 2800     		movs	r0, r5
 780 0076 FFF7FEFF 		bl	HAL_ADC_Start
 781              	.LVL34:
 445:../Core/src/mlm32l0xx_hw.c ****       
 446:../Core/src/mlm32l0xx_hw.c ****     /* Wait for the end of conversion */
 447:../Core/src/mlm32l0xx_hw.c ****     HAL_ADC_PollForConversion( &hadc, HAL_MAX_DELAY );
 782              		.loc 1 447 0
 783 007a 0121     		movs	r1, #1
 784 007c 2800     		movs	r0, r5
 785 007e 4942     		rsbs	r1, r1, #0
 786 0080 FFF7FEFF 		bl	HAL_ADC_PollForConversion
 787              	.LVL35:
 448:../Core/src/mlm32l0xx_hw.c ****       
 449:../Core/src/mlm32l0xx_hw.c ****     /* Get the converted value of regular channel */
 450:../Core/src/mlm32l0xx_hw.c ****     adcData = HAL_ADC_GetValue ( &hadc);
 788              		.loc 1 450 0
 789 0084 2800     		movs	r0, r5
 790 0086 FFF7FEFF 		bl	HAL_ADC_GetValue
 791              	.LVL36:
 451:../Core/src/mlm32l0xx_hw.c **** 
 452:../Core/src/mlm32l0xx_hw.c ****     __HAL_ADC_DISABLE( &hadc) ;
 792              		.loc 1 452 0
ARM GAS  C:\Users\EBANO_~1\AppData\Local\Temp\ccsZgiNd.s 			page 25


 793 008a 0221     		movs	r1, #2
 794 008c 6368     		ldr	r3, [r4, #4]
 795 008e 9A68     		ldr	r2, [r3, #8]
 796 0090 0A43     		orrs	r2, r1
 797 0092 9A60     		str	r2, [r3, #8]
 798 0094 0322     		movs	r2, #3
 799 0096 1A60     		str	r2, [r3]
 453:../Core/src/mlm32l0xx_hw.c **** 
 454:../Core/src/mlm32l0xx_hw.c ****     ADCCLK_DISABLE();
 800              		.loc 1 454 0
 801 0098 736B     		ldr	r3, [r6, #52]
 802 009a 324A     		ldr	r2, .L51+32
 803 009c 1340     		ands	r3, r2
 804 009e 7363     		str	r3, [r6, #52]
 805              	.LVL37:
 806              	.LBE54:
 807              	.LBE53:
 808              	.LBE56:
 809              	.LBE58:
 301:../Core/src/mlm32l0xx_hw.c ****   {
 810              		.loc 1 301 0
 811 00a0 83B2     		uxth	r3, r0
 303:../Core/src/mlm32l0xx_hw.c ****   }
 812              		.loc 1 303 0
 813 00a2 0026     		movs	r6, #0
 301:../Core/src/mlm32l0xx_hw.c ****   {
 814              		.loc 1 301 0
 815 00a4 002B     		cmp	r3, #0
 816 00a6 41D1     		bne	.L50
 817              	.L37:
 818              	.LVL38:
 819              	.LBB59:
 820              	.LBB60:
 423:../Core/src/mlm32l0xx_hw.c ****   {
 821              		.loc 1 423 0
 822 00a8 6378     		ldrb	r3, [r4, #1]
 823 00aa 0020     		movs	r0, #0
 824 00ac 002B     		cmp	r3, #0
 825 00ae AED0     		beq	.L35
 826              	.LBB61:
 827              	.LBB62:
 426:../Core/src/mlm32l0xx_hw.c ****       
 828              		.loc 1 426 0
 829 00b0 0822     		movs	r2, #8
 830 00b2 2749     		ldr	r1, .L51+12
 831              	.L38:
 832 00b4 4B68     		ldr	r3, [r1, #4]
 833 00b6 1A42     		tst	r2, r3
 834 00b8 FCD0     		beq	.L38
 428:../Core/src/mlm32l0xx_hw.c ****     
 835              		.loc 1 428 0
 836 00ba 8023     		movs	r3, #128
 837 00bc 254F     		ldr	r7, .L51+16
 838 00be 9B00     		lsls	r3, r3, #2
 839 00c0 7A6B     		ldr	r2, [r7, #52]
 431:../Core/src/mlm32l0xx_hw.c ****     
 840              		.loc 1 431 0
ARM GAS  C:\Users\EBANO_~1\AppData\Local\Temp\ccsZgiNd.s 			page 26


 841 00c2 251D     		adds	r5, r4, #4
 428:../Core/src/mlm32l0xx_hw.c ****     
 842              		.loc 1 428 0
 843 00c4 1343     		orrs	r3, r2
 844 00c6 7B63     		str	r3, [r7, #52]
 431:../Core/src/mlm32l0xx_hw.c ****     
 845              		.loc 1 431 0
 846 00c8 0021     		movs	r1, #0
 847 00ca 2800     		movs	r0, r5
 848 00cc FFF7FEFF 		bl	HAL_ADCEx_Calibration_Start
 849              	.LVL39:
 434:../Core/src/mlm32l0xx_hw.c ****     adcConf.Rank = ADC_RANK_NONE; 
 850              		.loc 1 434 0
 851 00d0 214B     		ldr	r3, .L51+20
 436:../Core/src/mlm32l0xx_hw.c ****       
 852              		.loc 1 436 0
 853 00d2 6946     		mov	r1, sp
 434:../Core/src/mlm32l0xx_hw.c ****     adcConf.Rank = ADC_RANK_NONE; 
 854              		.loc 1 434 0
 855 00d4 0093     		str	r3, [sp]
 435:../Core/src/mlm32l0xx_hw.c ****     HAL_ADC_ConfigChannel( &hadc, &adcConf);
 856              		.loc 1 435 0
 857 00d6 214B     		ldr	r3, .L51+24
 436:../Core/src/mlm32l0xx_hw.c ****       
 858              		.loc 1 436 0
 859 00d8 2800     		movs	r0, r5
 435:../Core/src/mlm32l0xx_hw.c ****     HAL_ADC_ConfigChannel( &hadc, &adcConf);
 860              		.loc 1 435 0
 861 00da 0193     		str	r3, [sp, #4]
 436:../Core/src/mlm32l0xx_hw.c ****       
 862              		.loc 1 436 0
 863 00dc FFF7FEFF 		bl	HAL_ADC_ConfigChannel
 864              	.LVL40:
 439:../Core/src/mlm32l0xx_hw.c ****     adcConf.Rank = ADC_RANK_CHANNEL_NUMBER;
 865              		.loc 1 439 0
 866 00e0 214B     		ldr	r3, .L51+36
 441:../Core/src/mlm32l0xx_hw.c **** 
 867              		.loc 1 441 0
 868 00e2 6946     		mov	r1, sp
 439:../Core/src/mlm32l0xx_hw.c ****     adcConf.Rank = ADC_RANK_CHANNEL_NUMBER;
 869              		.loc 1 439 0
 870 00e4 0093     		str	r3, [sp]
 440:../Core/src/mlm32l0xx_hw.c ****     HAL_ADC_ConfigChannel( &hadc, &adcConf);
 871              		.loc 1 440 0
 872 00e6 8023     		movs	r3, #128
 441:../Core/src/mlm32l0xx_hw.c **** 
 873              		.loc 1 441 0
 874 00e8 2800     		movs	r0, r5
 440:../Core/src/mlm32l0xx_hw.c ****     HAL_ADC_ConfigChannel( &hadc, &adcConf);
 875              		.loc 1 440 0
 876 00ea 5B01     		lsls	r3, r3, #5
 877 00ec 0193     		str	r3, [sp, #4]
 441:../Core/src/mlm32l0xx_hw.c **** 
 878              		.loc 1 441 0
 879 00ee FFF7FEFF 		bl	HAL_ADC_ConfigChannel
 880              	.LVL41:
 444:../Core/src/mlm32l0xx_hw.c ****       
ARM GAS  C:\Users\EBANO_~1\AppData\Local\Temp\ccsZgiNd.s 			page 27


 881              		.loc 1 444 0
 882 00f2 2800     		movs	r0, r5
 883 00f4 FFF7FEFF 		bl	HAL_ADC_Start
 884              	.LVL42:
 447:../Core/src/mlm32l0xx_hw.c ****       
 885              		.loc 1 447 0
 886 00f8 0121     		movs	r1, #1
 887 00fa 2800     		movs	r0, r5
 888 00fc 4942     		rsbs	r1, r1, #0
 889 00fe FFF7FEFF 		bl	HAL_ADC_PollForConversion
 890              	.LVL43:
 450:../Core/src/mlm32l0xx_hw.c **** 
 891              		.loc 1 450 0
 892 0102 2800     		movs	r0, r5
 893 0104 FFF7FEFF 		bl	HAL_ADC_GetValue
 894              	.LVL44:
 452:../Core/src/mlm32l0xx_hw.c **** 
 895              		.loc 1 452 0
 896 0108 0221     		movs	r1, #2
 897 010a 6368     		ldr	r3, [r4, #4]
 898 010c 0004     		lsls	r0, r0, #16
 899              	.LVL45:
 900 010e 9A68     		ldr	r2, [r3, #8]
 901 0110 000C     		lsrs	r0, r0, #16
 902 0112 0A43     		orrs	r2, r1
 903 0114 9A60     		str	r2, [r3, #8]
 904 0116 0322     		movs	r2, #3
 905 0118 1A60     		str	r2, [r3]
 906              		.loc 1 454 0
 907 011a 7B6B     		ldr	r3, [r7, #52]
 908 011c 114A     		ldr	r2, .L51+32
 909 011e 7043     		muls	r0, r6
 910 0120 1340     		ands	r3, r2
 911 0122 7B63     		str	r3, [r7, #52]
 912 0124 1149     		ldr	r1, .L51+40
 913 0126 FFF7FEFF 		bl	__aeabi_uidiv
 914              	.LVL46:
 915 012a 70E7     		b	.L35
 916              	.LVL47:
 917              	.L50:
 918              	.LBE62:
 919              	.LBE61:
 920              	.LBE60:
 921              	.LBE59:
 307:../Core/src/mlm32l0xx_hw.c ****   }
 922              		.loc 1 307 0
 923 012c 104B     		ldr	r3, .L51+44
 924 012e 0104     		lsls	r1, r0, #16
 925 0130 1A88     		ldrh	r2, [r3]
 926 0132 0E4B     		ldr	r3, .L51+40
 927 0134 090C     		lsrs	r1, r1, #16
 928 0136 5343     		muls	r3, r2
 929 0138 1800     		movs	r0, r3
 930 013a FFF7FEFF 		bl	__aeabi_uidiv
 931              	.LVL48:
 932 013e 0600     		movs	r6, r0
 933              	.LVL49:
ARM GAS  C:\Users\EBANO_~1\AppData\Local\Temp\ccsZgiNd.s 			page 28


 934 0140 B2E7     		b	.L37
 935              	.L52:
 936 0142 C046     		.align	2
 937              	.L51:
 938 0144 00000000 		.word	.LANCHOR0
 939 0148 7A00F81F 		.word	536346746
 940 014c 7E00F81F 		.word	536346750
 941 0150 00700040 		.word	1073770496
 942 0154 00100240 		.word	1073876992
 943 0158 FFFF0700 		.word	524287
 944 015c 01100000 		.word	4097
 945 0160 00000244 		.word	1140981760
 946 0164 FFFDFFFF 		.word	-513
 947 0168 00000448 		.word	1208221696
 948 016c B80B0000 		.word	3000
 949 0170 7800F81F 		.word	536346744
 950              		.cfi_endproc
 951              	.LFE47:
 952              		.size	HW_GetTemperatureLevel, .-HW_GetTemperatureLevel
 953              		.section	.text.HW_GetBatteryLevel,"ax",%progbits
 954              		.align	1
 955              		.p2align 2,,3
 956              		.global	HW_GetBatteryLevel
 957              		.syntax unified
 958              		.code	16
 959              		.thumb_func
 960              		.fpu softvfp
 961              		.type	HW_GetBatteryLevel, %function
 962              	HW_GetBatteryLevel:
 963              	.LFB48:
 333:../Core/src/mlm32l0xx_hw.c ****   uint8_t batteryLevel = 0;
 964              		.loc 1 333 0
 965              		.cfi_startproc
 966              		@ args = 0, pretend = 0, frame = 8
 967              		@ frame_needed = 0, uses_anonymous_args = 0
 968              	.LVL50:
 969 0000 70B5     		push	{r4, r5, r6, lr}
 970              	.LCFI11:
 971              		.cfi_def_cfa_offset 16
 972              		.cfi_offset 4, -16
 973              		.cfi_offset 5, -12
 974              		.cfi_offset 6, -8
 975              		.cfi_offset 14, -4
 976              	.LBB67:
 977              	.LBB68:
 423:../Core/src/mlm32l0xx_hw.c ****   {
 978              		.loc 1 423 0
 979 0002 2F4C     		ldr	r4, .L65
 980              	.LBE68:
 981              	.LBE67:
 333:../Core/src/mlm32l0xx_hw.c ****   uint8_t batteryLevel = 0;
 982              		.loc 1 333 0
 983 0004 82B0     		sub	sp, sp, #8
 984              	.LCFI12:
 985              		.cfi_def_cfa_offset 24
 986              	.LBB73:
 987              	.LBB71:
ARM GAS  C:\Users\EBANO_~1\AppData\Local\Temp\ccsZgiNd.s 			page 29


 423:../Core/src/mlm32l0xx_hw.c ****   {
 988              		.loc 1 423 0
 989 0006 6378     		ldrb	r3, [r4, #1]
 990 0008 002B     		cmp	r3, #0
 991 000a 02D1     		bne	.L64
 992              	.LVL51:
 993              	.L56:
 994              	.LBE71:
 995              	.LBE73:
 355:../Core/src/mlm32l0xx_hw.c ****   }
 996              		.loc 1 355 0
 997 000c 0020     		movs	r0, #0
 998              	.LVL52:
 999              	.L55:
 362:../Core/src/mlm32l0xx_hw.c **** 
 1000              		.loc 1 362 0
 1001 000e 02B0     		add	sp, sp, #8
 1002              		@ sp needed
 1003 0010 70BD     		pop	{r4, r5, r6, pc}
 1004              	.LVL53:
 1005              	.L64:
 1006              	.LBB74:
 1007              	.LBB72:
 1008              	.LBB69:
 1009              	.LBB70:
 426:../Core/src/mlm32l0xx_hw.c ****       
 1010              		.loc 1 426 0
 1011 0012 0822     		movs	r2, #8
 1012 0014 2B49     		ldr	r1, .L65+4
 1013              	.L54:
 1014 0016 4B68     		ldr	r3, [r1, #4]
 1015 0018 1A42     		tst	r2, r3
 1016 001a FCD0     		beq	.L54
 428:../Core/src/mlm32l0xx_hw.c ****     
 1017              		.loc 1 428 0
 1018 001c 8023     		movs	r3, #128
 1019 001e 2A4E     		ldr	r6, .L65+8
 1020 0020 9B00     		lsls	r3, r3, #2
 1021 0022 726B     		ldr	r2, [r6, #52]
 431:../Core/src/mlm32l0xx_hw.c ****     
 1022              		.loc 1 431 0
 1023 0024 251D     		adds	r5, r4, #4
 428:../Core/src/mlm32l0xx_hw.c ****     
 1024              		.loc 1 428 0
 1025 0026 1343     		orrs	r3, r2
 1026 0028 7363     		str	r3, [r6, #52]
 431:../Core/src/mlm32l0xx_hw.c ****     
 1027              		.loc 1 431 0
 1028 002a 0021     		movs	r1, #0
 1029 002c 2800     		movs	r0, r5
 1030 002e FFF7FEFF 		bl	HAL_ADCEx_Calibration_Start
 1031              	.LVL54:
 434:../Core/src/mlm32l0xx_hw.c ****     adcConf.Rank = ADC_RANK_NONE; 
 1032              		.loc 1 434 0
 1033 0032 264B     		ldr	r3, .L65+12
 436:../Core/src/mlm32l0xx_hw.c ****       
 1034              		.loc 1 436 0
ARM GAS  C:\Users\EBANO_~1\AppData\Local\Temp\ccsZgiNd.s 			page 30


 1035 0034 6946     		mov	r1, sp
 434:../Core/src/mlm32l0xx_hw.c ****     adcConf.Rank = ADC_RANK_NONE; 
 1036              		.loc 1 434 0
 1037 0036 0093     		str	r3, [sp]
 435:../Core/src/mlm32l0xx_hw.c ****     HAL_ADC_ConfigChannel( &hadc, &adcConf);
 1038              		.loc 1 435 0
 1039 0038 254B     		ldr	r3, .L65+16
 436:../Core/src/mlm32l0xx_hw.c ****       
 1040              		.loc 1 436 0
 1041 003a 2800     		movs	r0, r5
 435:../Core/src/mlm32l0xx_hw.c ****     HAL_ADC_ConfigChannel( &hadc, &adcConf);
 1042              		.loc 1 435 0
 1043 003c 0193     		str	r3, [sp, #4]
 436:../Core/src/mlm32l0xx_hw.c ****       
 1044              		.loc 1 436 0
 1045 003e FFF7FEFF 		bl	HAL_ADC_ConfigChannel
 1046              	.LVL55:
 439:../Core/src/mlm32l0xx_hw.c ****     adcConf.Rank = ADC_RANK_CHANNEL_NUMBER;
 1047              		.loc 1 439 0
 1048 0042 244B     		ldr	r3, .L65+20
 441:../Core/src/mlm32l0xx_hw.c **** 
 1049              		.loc 1 441 0
 1050 0044 6946     		mov	r1, sp
 439:../Core/src/mlm32l0xx_hw.c ****     adcConf.Rank = ADC_RANK_CHANNEL_NUMBER;
 1051              		.loc 1 439 0
 1052 0046 0093     		str	r3, [sp]
 440:../Core/src/mlm32l0xx_hw.c ****     HAL_ADC_ConfigChannel( &hadc, &adcConf);
 1053              		.loc 1 440 0
 1054 0048 8023     		movs	r3, #128
 441:../Core/src/mlm32l0xx_hw.c **** 
 1055              		.loc 1 441 0
 1056 004a 2800     		movs	r0, r5
 440:../Core/src/mlm32l0xx_hw.c ****     HAL_ADC_ConfigChannel( &hadc, &adcConf);
 1057              		.loc 1 440 0
 1058 004c 5B01     		lsls	r3, r3, #5
 1059 004e 0193     		str	r3, [sp, #4]
 441:../Core/src/mlm32l0xx_hw.c **** 
 1060              		.loc 1 441 0
 1061 0050 FFF7FEFF 		bl	HAL_ADC_ConfigChannel
 1062              	.LVL56:
 444:../Core/src/mlm32l0xx_hw.c ****       
 1063              		.loc 1 444 0
 1064 0054 2800     		movs	r0, r5
 1065 0056 FFF7FEFF 		bl	HAL_ADC_Start
 1066              	.LVL57:
 447:../Core/src/mlm32l0xx_hw.c ****       
 1067              		.loc 1 447 0
 1068 005a 0121     		movs	r1, #1
 1069 005c 2800     		movs	r0, r5
 1070 005e 4942     		rsbs	r1, r1, #0
 1071 0060 FFF7FEFF 		bl	HAL_ADC_PollForConversion
 1072              	.LVL58:
 450:../Core/src/mlm32l0xx_hw.c **** 
 1073              		.loc 1 450 0
 1074 0064 2800     		movs	r0, r5
 1075 0066 FFF7FEFF 		bl	HAL_ADC_GetValue
 1076              	.LVL59:
ARM GAS  C:\Users\EBANO_~1\AppData\Local\Temp\ccsZgiNd.s 			page 31


 452:../Core/src/mlm32l0xx_hw.c **** 
 1077              		.loc 1 452 0
 1078 006a 0221     		movs	r1, #2
 1079 006c 6368     		ldr	r3, [r4, #4]
 1080 006e 9A68     		ldr	r2, [r3, #8]
 1081 0070 0A43     		orrs	r2, r1
 1082 0072 9A60     		str	r2, [r3, #8]
 1083 0074 0322     		movs	r2, #3
 1084 0076 1A60     		str	r2, [r3]
 1085              		.loc 1 454 0
 1086 0078 736B     		ldr	r3, [r6, #52]
 1087 007a 174A     		ldr	r2, .L65+24
 1088 007c 1340     		ands	r3, r2
 1089 007e 7363     		str	r3, [r6, #52]
 1090              	.LVL60:
 1091              	.LBE70:
 1092              	.LBE69:
 1093              	.LBE72:
 1094              	.LBE74:
 340:../Core/src/mlm32l0xx_hw.c ****   {
 1095              		.loc 1 340 0
 1096 0080 83B2     		uxth	r3, r0
 1097 0082 002B     		cmp	r3, #0
 1098 0084 C2D0     		beq	.L56
 346:../Core/src/mlm32l0xx_hw.c ****   }
 1099              		.loc 1 346 0
 1100 0086 154B     		ldr	r3, .L65+28
 1101 0088 154C     		ldr	r4, .L65+32
 1102 008a 1B88     		ldrh	r3, [r3]
 1103 008c 0104     		lsls	r1, r0, #16
 1104 008e 6343     		muls	r3, r4
 1105 0090 090C     		lsrs	r1, r1, #16
 1106 0092 1800     		movs	r0, r3
 1107 0094 FFF7FEFF 		bl	__aeabi_uidiv
 1108              	.LVL61:
 1109 0098 0200     		movs	r2, r0
 1110              	.LVL62:
 351:../Core/src/mlm32l0xx_hw.c ****   }
 1111              		.loc 1 351 0
 1112 009a FE20     		movs	r0, #254
 1113              	.LVL63:
 349:../Core/src/mlm32l0xx_hw.c ****   {
 1114              		.loc 1 349 0
 1115 009c A242     		cmp	r2, r4
 1116 009e B6D8     		bhi	.L55
 353:../Core/src/mlm32l0xx_hw.c ****   {
 1117              		.loc 1 353 0
 1118 00a0 104B     		ldr	r3, .L65+36
 1119 00a2 9A42     		cmp	r2, r3
 1120 00a4 B2D9     		bls	.L56
 359:../Core/src/mlm32l0xx_hw.c ****   }
 1121              		.loc 1 359 0
 1122 00a6 104B     		ldr	r3, .L65+40
 1123 00a8 9621     		movs	r1, #150
 1124 00aa 9C46     		mov	ip, r3
 1125 00ac D001     		lsls	r0, r2, #7
 1126 00ae 801A     		subs	r0, r0, r2
ARM GAS  C:\Users\EBANO_~1\AppData\Local\Temp\ccsZgiNd.s 			page 32


 1127 00b0 4000     		lsls	r0, r0, #1
 1128 00b2 6044     		add	r0, r0, ip
 1129 00b4 C900     		lsls	r1, r1, #3
 1130 00b6 FFF7FEFF 		bl	__aeabi_uidiv
 1131              	.LVL64:
 1132 00ba C0B2     		uxtb	r0, r0
 1133              	.LVL65:
 1134 00bc A7E7     		b	.L55
 1135              	.L66:
 1136 00be C046     		.align	2
 1137              	.L65:
 1138 00c0 00000000 		.word	.LANCHOR0
 1139 00c4 00700040 		.word	1073770496
 1140 00c8 00100240 		.word	1073876992
 1141 00cc FFFF0700 		.word	524287
 1142 00d0 01100000 		.word	4097
 1143 00d4 00000244 		.word	1140981760
 1144 00d8 FFFDFFFF 		.word	-513
 1145 00dc 7800F81F 		.word	536346744
 1146 00e0 B80B0000 		.word	3000
 1147 00e4 07070000 		.word	1799
 1148 00e8 1006F9FF 		.word	-457200
 1149              		.cfi_endproc
 1150              	.LFE48:
 1151              		.size	HW_GetBatteryLevel, .-HW_GetBatteryLevel
 1152              		.section	.text.HW_AdcInit,"ax",%progbits
 1153              		.align	1
 1154              		.p2align 2,,3
 1155              		.global	HW_AdcInit
 1156              		.syntax unified
 1157              		.code	16
 1158              		.thumb_func
 1159              		.fpu softvfp
 1160              		.type	HW_AdcInit, %function
 1161              	HW_AdcInit:
 1162              	.LFB49:
 370:../Core/src/mlm32l0xx_hw.c ****   if( AdcInitialized == false )
 1163              		.loc 1 370 0
 1164              		.cfi_startproc
 1165              		@ args = 0, pretend = 0, frame = 0
 1166              		@ frame_needed = 0, uses_anonymous_args = 0
 371:../Core/src/mlm32l0xx_hw.c ****   {
 1167              		.loc 1 371 0
 1168 0000 1248     		ldr	r0, .L69
 370:../Core/src/mlm32l0xx_hw.c ****   if( AdcInitialized == false )
 1169              		.loc 1 370 0
 1170 0002 10B5     		push	{r4, lr}
 1171              	.LCFI13:
 1172              		.cfi_def_cfa_offset 8
 1173              		.cfi_offset 4, -8
 1174              		.cfi_offset 14, -4
 371:../Core/src/mlm32l0xx_hw.c ****   {
 1175              		.loc 1 371 0
 1176 0004 4378     		ldrb	r3, [r0, #1]
 1177 0006 002B     		cmp	r3, #0
 1178 0008 1ED1     		bne	.L67
 1179              	.LBB77:
ARM GAS  C:\Users\EBANO_~1\AppData\Local\Temp\ccsZgiNd.s 			page 33


 1180              	.LBB78:
 376:../Core/src/mlm32l0xx_hw.c ****     
 1181              		.loc 1 376 0
 1182 000a 1149     		ldr	r1, .L69+4
 373:../Core/src/mlm32l0xx_hw.c **** 
 1183              		.loc 1 373 0
 1184 000c 0122     		movs	r2, #1
 376:../Core/src/mlm32l0xx_hw.c ****     
 1185              		.loc 1 376 0
 1186 000e 4160     		str	r1, [r0, #4]
 380:../Core/src/mlm32l0xx_hw.c ****     hadc.Init.LowPowerAutoPowerOff  = DISABLE;
 1187              		.loc 1 380 0
 1188 0010 8021     		movs	r1, #128
 1189 0012 0906     		lsls	r1, r1, #24
 1190 0014 8160     		str	r1, [r0, #8]
 386:../Core/src/mlm32l0xx_hw.c ****     hadc.Init.ScanConvMode          = ADC_SCAN_DIRECTION_FORWARD;
 1191              		.loc 1 386 0
 1192 0016 0721     		movs	r1, #7
 378:../Core/src/mlm32l0xx_hw.c ****   
 1193              		.loc 1 378 0
 1194 0018 4364     		str	r3, [r0, #68]
 381:../Core/src/mlm32l0xx_hw.c ****     hadc.Init.LowPowerFrequencyMode = ENABLE;
 1195              		.loc 1 381 0
 1196 001a 0362     		str	r3, [r0, #32]
 383:../Core/src/mlm32l0xx_hw.c ****     
 1197              		.loc 1 383 0
 1198 001c C361     		str	r3, [r0, #28]
 385:../Core/src/mlm32l0xx_hw.c ****     hadc.Init.SamplingTime          = ADC_SAMPLETIME_160CYCLES_5;
 1199              		.loc 1 385 0
 1200 001e C360     		str	r3, [r0, #12]
 388:../Core/src/mlm32l0xx_hw.c ****     hadc.Init.ContinuousConvMode    = DISABLE;
 1201              		.loc 1 388 0
 1202 0020 0361     		str	r3, [r0, #16]
 389:../Core/src/mlm32l0xx_hw.c ****     hadc.Init.DiscontinuousConvMode = DISABLE;
 1203              		.loc 1 389 0
 1204 0022 4362     		str	r3, [r0, #36]
 390:../Core/src/mlm32l0xx_hw.c ****     hadc.Init.ExternalTrigConvEdge  = ADC_EXTERNALTRIGCONVEDGE_NONE;
 1205              		.loc 1 390 0
 1206 0024 8362     		str	r3, [r0, #40]
 391:../Core/src/mlm32l0xx_hw.c ****     hadc.Init.EOCSelection          = ADC_EOC_SINGLE_CONV;
 1207              		.loc 1 391 0
 1208 0026 0363     		str	r3, [r0, #48]
 393:../Core/src/mlm32l0xx_hw.c **** 
 1209              		.loc 1 393 0
 1210 0028 4363     		str	r3, [r0, #52]
 395:../Core/src/mlm32l0xx_hw.c ****     
 1211              		.loc 1 395 0
 1212 002a 8023     		movs	r3, #128
 382:../Core/src/mlm32l0xx_hw.c ****     hadc.Init.LowPowerAutoWait      = DISABLE;
 1213              		.loc 1 382 0
 1214 002c C263     		str	r2, [r0, #60]
 387:../Core/src/mlm32l0xx_hw.c ****     hadc.Init.DataAlign             = ADC_DATAALIGN_RIGHT;
 1215              		.loc 1 387 0
 1216 002e 4261     		str	r2, [r0, #20]
 373:../Core/src/mlm32l0xx_hw.c **** 
 1217              		.loc 1 373 0
 1218 0030 4270     		strb	r2, [r0, #1]
ARM GAS  C:\Users\EBANO_~1\AppData\Local\Temp\ccsZgiNd.s 			page 34


 392:../Core/src/mlm32l0xx_hw.c ****     hadc.Init.DMAContinuousRequests = DISABLE;
 1219              		.loc 1 392 0
 1220 0032 0332     		adds	r2, r2, #3
 1221 0034 8261     		str	r2, [r0, #24]
 395:../Core/src/mlm32l0xx_hw.c ****     
 1222              		.loc 1 395 0
 1223 0036 074A     		ldr	r2, .L69+8
 386:../Core/src/mlm32l0xx_hw.c ****     hadc.Init.ScanConvMode          = ADC_SCAN_DIRECTION_FORWARD;
 1224              		.loc 1 386 0
 1225 0038 0164     		str	r1, [r0, #64]
 395:../Core/src/mlm32l0xx_hw.c ****     
 1226              		.loc 1 395 0
 1227 003a 516B     		ldr	r1, [r2, #52]
 1228 003c 9B00     		lsls	r3, r3, #2
 1229 003e 0B43     		orrs	r3, r1
 1230 0040 5363     		str	r3, [r2, #52]
 398:../Core/src/mlm32l0xx_hw.c **** 
 1231              		.loc 1 398 0
 1232 0042 0430     		adds	r0, r0, #4
 1233 0044 FFF7FEFF 		bl	HAL_ADC_Init
 1234              	.LVL66:
 1235              	.L67:
 1236              	.LBE78:
 1237              	.LBE77:
 401:../Core/src/mlm32l0xx_hw.c **** /**
 1238              		.loc 1 401 0
 1239              		@ sp needed
 1240 0048 10BD     		pop	{r4, pc}
 1241              	.L70:
 1242 004a C046     		.align	2
 1243              	.L69:
 1244 004c 00000000 		.word	.LANCHOR0
 1245 0050 00240140 		.word	1073816576
 1246 0054 00100240 		.word	1073876992
 1247              		.cfi_endproc
 1248              	.LFE49:
 1249              		.size	HW_AdcInit, .-HW_AdcInit
 1250              		.section	.text.HW_AdcDeInit,"ax",%progbits
 1251              		.align	1
 1252              		.p2align 2,,3
 1253              		.global	HW_AdcDeInit
 1254              		.syntax unified
 1255              		.code	16
 1256              		.thumb_func
 1257              		.fpu softvfp
 1258              		.type	HW_AdcDeInit, %function
 1259              	HW_AdcDeInit:
 1260              	.LFB50:
 408:../Core/src/mlm32l0xx_hw.c ****   AdcInitialized = false;
 1261              		.loc 1 408 0
 1262              		.cfi_startproc
 1263              		@ args = 0, pretend = 0, frame = 0
 1264              		@ frame_needed = 0, uses_anonymous_args = 0
 1265              		@ link register save eliminated.
 409:../Core/src/mlm32l0xx_hw.c **** }
 1266              		.loc 1 409 0
 1267 0000 0022     		movs	r2, #0
ARM GAS  C:\Users\EBANO_~1\AppData\Local\Temp\ccsZgiNd.s 			page 35


 1268 0002 014B     		ldr	r3, .L72
 410:../Core/src/mlm32l0xx_hw.c **** 
 1269              		.loc 1 410 0
 1270              		@ sp needed
 409:../Core/src/mlm32l0xx_hw.c **** }
 1271              		.loc 1 409 0
 1272 0004 5A70     		strb	r2, [r3, #1]
 410:../Core/src/mlm32l0xx_hw.c **** 
 1273              		.loc 1 410 0
 1274 0006 7047     		bx	lr
 1275              	.L73:
 1276              		.align	2
 1277              	.L72:
 1278 0008 00000000 		.word	.LANCHOR0
 1279              		.cfi_endproc
 1280              	.LFE50:
 1281              		.size	HW_AdcDeInit, .-HW_AdcDeInit
 1282              		.section	.text.HW_AdcReadChannel,"ax",%progbits
 1283              		.align	1
 1284              		.p2align 2,,3
 1285              		.global	HW_AdcReadChannel
 1286              		.syntax unified
 1287              		.code	16
 1288              		.thumb_func
 1289              		.fpu softvfp
 1290              		.type	HW_AdcReadChannel, %function
 1291              	HW_AdcReadChannel:
 1292              	.LFB51:
 418:../Core/src/mlm32l0xx_hw.c **** 
 1293              		.loc 1 418 0
 1294              		.cfi_startproc
 1295              		@ args = 0, pretend = 0, frame = 8
 1296              		@ frame_needed = 0, uses_anonymous_args = 0
 1297              	.LVL67:
 1298 0000 F0B5     		push	{r4, r5, r6, r7, lr}
 1299              	.LCFI14:
 1300              		.cfi_def_cfa_offset 20
 1301              		.cfi_offset 4, -20
 1302              		.cfi_offset 5, -16
 1303              		.cfi_offset 6, -12
 1304              		.cfi_offset 7, -8
 1305              		.cfi_offset 14, -4
 423:../Core/src/mlm32l0xx_hw.c ****   {
 1306              		.loc 1 423 0
 1307 0002 204D     		ldr	r5, .L81
 418:../Core/src/mlm32l0xx_hw.c **** 
 1308              		.loc 1 418 0
 1309 0004 0700     		movs	r7, r0
 423:../Core/src/mlm32l0xx_hw.c ****   {
 1310              		.loc 1 423 0
 1311 0006 6B78     		ldrb	r3, [r5, #1]
 418:../Core/src/mlm32l0xx_hw.c **** 
 1312              		.loc 1 418 0
 1313 0008 83B0     		sub	sp, sp, #12
 1314              	.LCFI15:
 1315              		.cfi_def_cfa_offset 32
 421:../Core/src/mlm32l0xx_hw.c ****   
ARM GAS  C:\Users\EBANO_~1\AppData\Local\Temp\ccsZgiNd.s 			page 36


 1316              		.loc 1 421 0
 1317 000a 0020     		movs	r0, #0
 1318              	.LVL68:
 423:../Core/src/mlm32l0xx_hw.c ****   {
 1319              		.loc 1 423 0
 1320 000c 002B     		cmp	r3, #0
 1321 000e 36D0     		beq	.L75
 1322              	.LBB81:
 1323              	.LBB82:
 426:../Core/src/mlm32l0xx_hw.c ****       
 1324              		.loc 1 426 0
 1325 0010 0822     		movs	r2, #8
 1326 0012 1D49     		ldr	r1, .L81+4
 1327              	.L76:
 1328 0014 4B68     		ldr	r3, [r1, #4]
 1329 0016 1A42     		tst	r2, r3
 1330 0018 FCD0     		beq	.L76
 428:../Core/src/mlm32l0xx_hw.c ****     
 1331              		.loc 1 428 0
 1332 001a 8023     		movs	r3, #128
 1333 001c 1B4E     		ldr	r6, .L81+8
 1334 001e 9B00     		lsls	r3, r3, #2
 1335 0020 726B     		ldr	r2, [r6, #52]
 431:../Core/src/mlm32l0xx_hw.c ****     
 1336              		.loc 1 431 0
 1337 0022 2C1D     		adds	r4, r5, #4
 428:../Core/src/mlm32l0xx_hw.c ****     
 1338              		.loc 1 428 0
 1339 0024 1343     		orrs	r3, r2
 1340 0026 7363     		str	r3, [r6, #52]
 431:../Core/src/mlm32l0xx_hw.c ****     
 1341              		.loc 1 431 0
 1342 0028 0021     		movs	r1, #0
 1343 002a 2000     		movs	r0, r4
 1344 002c FFF7FEFF 		bl	HAL_ADCEx_Calibration_Start
 1345              	.LVL69:
 434:../Core/src/mlm32l0xx_hw.c ****     adcConf.Rank = ADC_RANK_NONE; 
 1346              		.loc 1 434 0
 1347 0030 174B     		ldr	r3, .L81+12
 436:../Core/src/mlm32l0xx_hw.c ****       
 1348              		.loc 1 436 0
 1349 0032 6946     		mov	r1, sp
 434:../Core/src/mlm32l0xx_hw.c ****     adcConf.Rank = ADC_RANK_NONE; 
 1350              		.loc 1 434 0
 1351 0034 0093     		str	r3, [sp]
 435:../Core/src/mlm32l0xx_hw.c ****     HAL_ADC_ConfigChannel( &hadc, &adcConf);
 1352              		.loc 1 435 0
 1353 0036 174B     		ldr	r3, .L81+16
 436:../Core/src/mlm32l0xx_hw.c ****       
 1354              		.loc 1 436 0
 1355 0038 2000     		movs	r0, r4
 435:../Core/src/mlm32l0xx_hw.c ****     HAL_ADC_ConfigChannel( &hadc, &adcConf);
 1356              		.loc 1 435 0
 1357 003a 0193     		str	r3, [sp, #4]
 436:../Core/src/mlm32l0xx_hw.c ****       
 1358              		.loc 1 436 0
 1359 003c FFF7FEFF 		bl	HAL_ADC_ConfigChannel
ARM GAS  C:\Users\EBANO_~1\AppData\Local\Temp\ccsZgiNd.s 			page 37


 1360              	.LVL70:
 440:../Core/src/mlm32l0xx_hw.c ****     HAL_ADC_ConfigChannel( &hadc, &adcConf);
 1361              		.loc 1 440 0
 1362 0040 8023     		movs	r3, #128
 441:../Core/src/mlm32l0xx_hw.c **** 
 1363              		.loc 1 441 0
 1364 0042 6946     		mov	r1, sp
 440:../Core/src/mlm32l0xx_hw.c ****     HAL_ADC_ConfigChannel( &hadc, &adcConf);
 1365              		.loc 1 440 0
 1366 0044 5B01     		lsls	r3, r3, #5
 441:../Core/src/mlm32l0xx_hw.c **** 
 1367              		.loc 1 441 0
 1368 0046 2000     		movs	r0, r4
 440:../Core/src/mlm32l0xx_hw.c ****     HAL_ADC_ConfigChannel( &hadc, &adcConf);
 1369              		.loc 1 440 0
 1370 0048 0193     		str	r3, [sp, #4]
 439:../Core/src/mlm32l0xx_hw.c ****     adcConf.Rank = ADC_RANK_CHANNEL_NUMBER;
 1371              		.loc 1 439 0
 1372 004a 0097     		str	r7, [sp]
 441:../Core/src/mlm32l0xx_hw.c **** 
 1373              		.loc 1 441 0
 1374 004c FFF7FEFF 		bl	HAL_ADC_ConfigChannel
 1375              	.LVL71:
 444:../Core/src/mlm32l0xx_hw.c ****       
 1376              		.loc 1 444 0
 1377 0050 2000     		movs	r0, r4
 1378 0052 FFF7FEFF 		bl	HAL_ADC_Start
 1379              	.LVL72:
 447:../Core/src/mlm32l0xx_hw.c ****       
 1380              		.loc 1 447 0
 1381 0056 0121     		movs	r1, #1
 1382 0058 2000     		movs	r0, r4
 1383 005a 4942     		rsbs	r1, r1, #0
 1384 005c FFF7FEFF 		bl	HAL_ADC_PollForConversion
 1385              	.LVL73:
 450:../Core/src/mlm32l0xx_hw.c **** 
 1386              		.loc 1 450 0
 1387 0060 2000     		movs	r0, r4
 1388 0062 FFF7FEFF 		bl	HAL_ADC_GetValue
 1389              	.LVL74:
 452:../Core/src/mlm32l0xx_hw.c **** 
 1390              		.loc 1 452 0
 1391 0066 0221     		movs	r1, #2
 1392 0068 6B68     		ldr	r3, [r5, #4]
 450:../Core/src/mlm32l0xx_hw.c **** 
 1393              		.loc 1 450 0
 1394 006a 80B2     		uxth	r0, r0
 1395              	.LVL75:
 452:../Core/src/mlm32l0xx_hw.c **** 
 1396              		.loc 1 452 0
 1397 006c 9A68     		ldr	r2, [r3, #8]
 1398 006e 0A43     		orrs	r2, r1
 1399 0070 9A60     		str	r2, [r3, #8]
 1400 0072 0322     		movs	r2, #3
 1401 0074 1A60     		str	r2, [r3]
 1402              		.loc 1 454 0
 1403 0076 736B     		ldr	r3, [r6, #52]
ARM GAS  C:\Users\EBANO_~1\AppData\Local\Temp\ccsZgiNd.s 			page 38


 1404 0078 074A     		ldr	r2, .L81+20
 1405 007a 1340     		ands	r3, r2
 1406 007c 7363     		str	r3, [r6, #52]
 1407              	.LVL76:
 1408              	.L75:
 1409              	.LBE82:
 1410              	.LBE81:
 455:../Core/src/mlm32l0xx_hw.c ****   }
 456:../Core/src/mlm32l0xx_hw.c ****   return adcData;
 457:../Core/src/mlm32l0xx_hw.c **** }
 1411              		.loc 1 457 0
 1412 007e 03B0     		add	sp, sp, #12
 1413              		@ sp needed
 1414              	.LVL77:
 1415 0080 F0BD     		pop	{r4, r5, r6, r7, pc}
 1416              	.L82:
 1417 0082 C046     		.align	2
 1418              	.L81:
 1419 0084 00000000 		.word	.LANCHOR0
 1420 0088 00700040 		.word	1073770496
 1421 008c 00100240 		.word	1073876992
 1422 0090 FFFF0700 		.word	524287
 1423 0094 01100000 		.word	4097
 1424 0098 FFFDFFFF 		.word	-513
 1425              		.cfi_endproc
 1426              	.LFE51:
 1427              		.size	HW_AdcReadChannel, .-HW_AdcReadChannel
 1428              		.section	.text.LPM_EnterStopMode,"ax",%progbits
 1429              		.align	1
 1430              		.p2align 2,,3
 1431              		.global	LPM_EnterStopMode
 1432              		.syntax unified
 1433              		.code	16
 1434              		.thumb_func
 1435              		.fpu softvfp
 1436              		.type	LPM_EnterStopMode, %function
 1437              	LPM_EnterStopMode:
 1438              	.LFB52:
 458:../Core/src/mlm32l0xx_hw.c **** 
 459:../Core/src/mlm32l0xx_hw.c **** /**
 460:../Core/src/mlm32l0xx_hw.c ****   * @brief Enters Low Power Stop Mode
 461:../Core/src/mlm32l0xx_hw.c ****   * @note ARM exists the function when waking up
 462:../Core/src/mlm32l0xx_hw.c ****   * @param none
 463:../Core/src/mlm32l0xx_hw.c ****   * @retval none
 464:../Core/src/mlm32l0xx_hw.c ****   */
 465:../Core/src/mlm32l0xx_hw.c **** void LPM_EnterStopMode( void)
 466:../Core/src/mlm32l0xx_hw.c **** {
 1439              		.loc 1 466 0
 1440              		.cfi_startproc
 1441              		@ args = 0, pretend = 0, frame = 24
 1442              		@ frame_needed = 0, uses_anonymous_args = 0
 1443 0000 30B5     		push	{r4, r5, lr}
 1444              	.LCFI16:
 1445              		.cfi_def_cfa_offset 12
 1446              		.cfi_offset 4, -12
 1447              		.cfi_offset 5, -8
 1448              		.cfi_offset 14, -4
ARM GAS  C:\Users\EBANO_~1\AppData\Local\Temp\ccsZgiNd.s 			page 39


 1449 0002 87B0     		sub	sp, sp, #28
 1450              	.LCFI17:
 1451              		.cfi_def_cfa_offset 40
 1452              	.LBB91:
 1453              	.LBB92:
 1454              		.file 2 "../../../../../../Drivers/CMSIS/Include/cmsis_gcc.h"
   1:../../../../../../Drivers/CMSIS/Include/cmsis_gcc.h **** /**************************************************************************//**
   2:../../../../../../Drivers/CMSIS/Include/cmsis_gcc.h ****  * @file     cmsis_gcc.h
   3:../../../../../../Drivers/CMSIS/Include/cmsis_gcc.h ****  * @brief    CMSIS compiler GCC header file
   4:../../../../../../Drivers/CMSIS/Include/cmsis_gcc.h ****  * @version  V5.0.1
   5:../../../../../../Drivers/CMSIS/Include/cmsis_gcc.h ****  * @date     02. February 2017
   6:../../../../../../Drivers/CMSIS/Include/cmsis_gcc.h ****  ******************************************************************************/
   7:../../../../../../Drivers/CMSIS/Include/cmsis_gcc.h **** /*
   8:../../../../../../Drivers/CMSIS/Include/cmsis_gcc.h ****  * Copyright (c) 2009-2017 ARM Limited. All rights reserved.
   9:../../../../../../Drivers/CMSIS/Include/cmsis_gcc.h ****  *
  10:../../../../../../Drivers/CMSIS/Include/cmsis_gcc.h ****  * SPDX-License-Identifier: Apache-2.0
  11:../../../../../../Drivers/CMSIS/Include/cmsis_gcc.h ****  *
  12:../../../../../../Drivers/CMSIS/Include/cmsis_gcc.h ****  * Licensed under the Apache License, Version 2.0 (the License); you may
  13:../../../../../../Drivers/CMSIS/Include/cmsis_gcc.h ****  * not use this file except in compliance with the License.
  14:../../../../../../Drivers/CMSIS/Include/cmsis_gcc.h ****  * You may obtain a copy of the License at
  15:../../../../../../Drivers/CMSIS/Include/cmsis_gcc.h ****  *
  16:../../../../../../Drivers/CMSIS/Include/cmsis_gcc.h ****  * www.apache.org/licenses/LICENSE-2.0
  17:../../../../../../Drivers/CMSIS/Include/cmsis_gcc.h ****  *
  18:../../../../../../Drivers/CMSIS/Include/cmsis_gcc.h ****  * Unless required by applicable law or agreed to in writing, software
  19:../../../../../../Drivers/CMSIS/Include/cmsis_gcc.h ****  * distributed under the License is distributed on an AS IS BASIS, WITHOUT
  20:../../../../../../Drivers/CMSIS/Include/cmsis_gcc.h ****  * WARRANTIES OR CONDITIONS OF ANY KIND, either express or implied.
  21:../../../../../../Drivers/CMSIS/Include/cmsis_gcc.h ****  * See the License for the specific language governing permissions and
  22:../../../../../../Drivers/CMSIS/Include/cmsis_gcc.h ****  * limitations under the License.
  23:../../../../../../Drivers/CMSIS/Include/cmsis_gcc.h ****  */
  24:../../../../../../Drivers/CMSIS/Include/cmsis_gcc.h **** 
  25:../../../../../../Drivers/CMSIS/Include/cmsis_gcc.h **** #ifndef __CMSIS_GCC_H
  26:../../../../../../Drivers/CMSIS/Include/cmsis_gcc.h **** #define __CMSIS_GCC_H
  27:../../../../../../Drivers/CMSIS/Include/cmsis_gcc.h **** 
  28:../../../../../../Drivers/CMSIS/Include/cmsis_gcc.h **** /* ignore some GCC warnings */
  29:../../../../../../Drivers/CMSIS/Include/cmsis_gcc.h **** #pragma GCC diagnostic push
  30:../../../../../../Drivers/CMSIS/Include/cmsis_gcc.h **** #pragma GCC diagnostic ignored "-Wsign-conversion"
  31:../../../../../../Drivers/CMSIS/Include/cmsis_gcc.h **** #pragma GCC diagnostic ignored "-Wconversion"
  32:../../../../../../Drivers/CMSIS/Include/cmsis_gcc.h **** #pragma GCC diagnostic ignored "-Wunused-parameter"
  33:../../../../../../Drivers/CMSIS/Include/cmsis_gcc.h **** 
  34:../../../../../../Drivers/CMSIS/Include/cmsis_gcc.h **** /* CMSIS compiler specific defines */
  35:../../../../../../Drivers/CMSIS/Include/cmsis_gcc.h **** #ifndef   __ASM
  36:../../../../../../Drivers/CMSIS/Include/cmsis_gcc.h ****   #define __ASM                     __asm
  37:../../../../../../Drivers/CMSIS/Include/cmsis_gcc.h **** #endif
  38:../../../../../../Drivers/CMSIS/Include/cmsis_gcc.h **** #ifndef   __INLINE
  39:../../../../../../Drivers/CMSIS/Include/cmsis_gcc.h ****   #define __INLINE                  inline
  40:../../../../../../Drivers/CMSIS/Include/cmsis_gcc.h **** #endif
  41:../../../../../../Drivers/CMSIS/Include/cmsis_gcc.h **** #ifndef   __STATIC_INLINE
  42:../../../../../../Drivers/CMSIS/Include/cmsis_gcc.h ****   #define __STATIC_INLINE           static inline
  43:../../../../../../Drivers/CMSIS/Include/cmsis_gcc.h **** #endif
  44:../../../../../../Drivers/CMSIS/Include/cmsis_gcc.h **** #ifndef   __NO_RETURN
  45:../../../../../../Drivers/CMSIS/Include/cmsis_gcc.h ****   #define __NO_RETURN               __attribute__((noreturn))
  46:../../../../../../Drivers/CMSIS/Include/cmsis_gcc.h **** #endif
  47:../../../../../../Drivers/CMSIS/Include/cmsis_gcc.h **** #ifndef   __USED
  48:../../../../../../Drivers/CMSIS/Include/cmsis_gcc.h ****   #define __USED                    __attribute__((used))
  49:../../../../../../Drivers/CMSIS/Include/cmsis_gcc.h **** #endif
  50:../../../../../../Drivers/CMSIS/Include/cmsis_gcc.h **** #ifndef   __WEAK
  51:../../../../../../Drivers/CMSIS/Include/cmsis_gcc.h ****   #define __WEAK                    __attribute__((weak))
ARM GAS  C:\Users\EBANO_~1\AppData\Local\Temp\ccsZgiNd.s 			page 40


  52:../../../../../../Drivers/CMSIS/Include/cmsis_gcc.h **** #endif
  53:../../../../../../Drivers/CMSIS/Include/cmsis_gcc.h **** #ifndef   __UNALIGNED_UINT32
  54:../../../../../../Drivers/CMSIS/Include/cmsis_gcc.h **** #pragma GCC diagnostic push
  55:../../../../../../Drivers/CMSIS/Include/cmsis_gcc.h **** #pragma GCC diagnostic ignored "-Wpacked"
  56:../../../../../../Drivers/CMSIS/Include/cmsis_gcc.h **** #pragma GCC diagnostic ignored "-Wattributes"
  57:../../../../../../Drivers/CMSIS/Include/cmsis_gcc.h ****   struct __attribute__((packed)) T_UINT32 { uint32_t v; };
  58:../../../../../../Drivers/CMSIS/Include/cmsis_gcc.h **** #pragma GCC diagnostic pop
  59:../../../../../../Drivers/CMSIS/Include/cmsis_gcc.h ****   #define __UNALIGNED_UINT32(x)     (((struct T_UINT32 *)(x))->v)
  60:../../../../../../Drivers/CMSIS/Include/cmsis_gcc.h **** #endif
  61:../../../../../../Drivers/CMSIS/Include/cmsis_gcc.h **** #ifndef   __ALIGNED
  62:../../../../../../Drivers/CMSIS/Include/cmsis_gcc.h ****   #define __ALIGNED(x)              __attribute__((aligned(x)))
  63:../../../../../../Drivers/CMSIS/Include/cmsis_gcc.h **** #endif
  64:../../../../../../Drivers/CMSIS/Include/cmsis_gcc.h **** #ifndef   __PACKED
  65:../../../../../../Drivers/CMSIS/Include/cmsis_gcc.h ****   #define __PACKED                  __attribute__((packed, aligned(1)))
  66:../../../../../../Drivers/CMSIS/Include/cmsis_gcc.h **** #endif
  67:../../../../../../Drivers/CMSIS/Include/cmsis_gcc.h **** #ifndef   __PACKED_STRUCT
  68:../../../../../../Drivers/CMSIS/Include/cmsis_gcc.h ****   #define __PACKED_STRUCT           struct __attribute__((packed, aligned(1)))
  69:../../../../../../Drivers/CMSIS/Include/cmsis_gcc.h **** #endif
  70:../../../../../../Drivers/CMSIS/Include/cmsis_gcc.h **** 
  71:../../../../../../Drivers/CMSIS/Include/cmsis_gcc.h **** 
  72:../../../../../../Drivers/CMSIS/Include/cmsis_gcc.h **** /* ###########################  Core Function Access  ########################### */
  73:../../../../../../Drivers/CMSIS/Include/cmsis_gcc.h **** /** \ingroup  CMSIS_Core_FunctionInterface
  74:../../../../../../Drivers/CMSIS/Include/cmsis_gcc.h ****     \defgroup CMSIS_Core_RegAccFunctions CMSIS Core Register Access Functions
  75:../../../../../../Drivers/CMSIS/Include/cmsis_gcc.h ****   @{
  76:../../../../../../Drivers/CMSIS/Include/cmsis_gcc.h ****  */
  77:../../../../../../Drivers/CMSIS/Include/cmsis_gcc.h **** 
  78:../../../../../../Drivers/CMSIS/Include/cmsis_gcc.h **** /**
  79:../../../../../../Drivers/CMSIS/Include/cmsis_gcc.h ****   \brief   Enable IRQ Interrupts
  80:../../../../../../Drivers/CMSIS/Include/cmsis_gcc.h ****   \details Enables IRQ interrupts by clearing the I-bit in the CPSR.
  81:../../../../../../Drivers/CMSIS/Include/cmsis_gcc.h ****            Can only be executed in Privileged modes.
  82:../../../../../../Drivers/CMSIS/Include/cmsis_gcc.h ****  */
  83:../../../../../../Drivers/CMSIS/Include/cmsis_gcc.h **** __attribute__((always_inline)) __STATIC_INLINE void __enable_irq(void)
  84:../../../../../../Drivers/CMSIS/Include/cmsis_gcc.h **** {
  85:../../../../../../Drivers/CMSIS/Include/cmsis_gcc.h ****   __ASM volatile ("cpsie i" : : : "memory");
  86:../../../../../../Drivers/CMSIS/Include/cmsis_gcc.h **** }
  87:../../../../../../Drivers/CMSIS/Include/cmsis_gcc.h **** 
  88:../../../../../../Drivers/CMSIS/Include/cmsis_gcc.h **** 
  89:../../../../../../Drivers/CMSIS/Include/cmsis_gcc.h **** /**
  90:../../../../../../Drivers/CMSIS/Include/cmsis_gcc.h ****   \brief   Disable IRQ Interrupts
  91:../../../../../../Drivers/CMSIS/Include/cmsis_gcc.h ****   \details Disables IRQ interrupts by setting the I-bit in the CPSR.
  92:../../../../../../Drivers/CMSIS/Include/cmsis_gcc.h ****            Can only be executed in Privileged modes.
  93:../../../../../../Drivers/CMSIS/Include/cmsis_gcc.h ****  */
  94:../../../../../../Drivers/CMSIS/Include/cmsis_gcc.h **** __attribute__((always_inline)) __STATIC_INLINE void __disable_irq(void)
  95:../../../../../../Drivers/CMSIS/Include/cmsis_gcc.h **** {
  96:../../../../../../Drivers/CMSIS/Include/cmsis_gcc.h ****   __ASM volatile ("cpsid i" : : : "memory");
  97:../../../../../../Drivers/CMSIS/Include/cmsis_gcc.h **** }
  98:../../../../../../Drivers/CMSIS/Include/cmsis_gcc.h **** 
  99:../../../../../../Drivers/CMSIS/Include/cmsis_gcc.h **** 
 100:../../../../../../Drivers/CMSIS/Include/cmsis_gcc.h **** /**
 101:../../../../../../Drivers/CMSIS/Include/cmsis_gcc.h ****   \brief   Get Control Register
 102:../../../../../../Drivers/CMSIS/Include/cmsis_gcc.h ****   \details Returns the content of the Control Register.
 103:../../../../../../Drivers/CMSIS/Include/cmsis_gcc.h ****   \return               Control Register value
 104:../../../../../../Drivers/CMSIS/Include/cmsis_gcc.h ****  */
 105:../../../../../../Drivers/CMSIS/Include/cmsis_gcc.h **** __attribute__((always_inline)) __STATIC_INLINE uint32_t __get_CONTROL(void)
 106:../../../../../../Drivers/CMSIS/Include/cmsis_gcc.h **** {
 107:../../../../../../Drivers/CMSIS/Include/cmsis_gcc.h ****   uint32_t result;
 108:../../../../../../Drivers/CMSIS/Include/cmsis_gcc.h **** 
ARM GAS  C:\Users\EBANO_~1\AppData\Local\Temp\ccsZgiNd.s 			page 41


 109:../../../../../../Drivers/CMSIS/Include/cmsis_gcc.h ****   __ASM volatile ("MRS %0, control" : "=r" (result) );
 110:../../../../../../Drivers/CMSIS/Include/cmsis_gcc.h ****   return(result);
 111:../../../../../../Drivers/CMSIS/Include/cmsis_gcc.h **** }
 112:../../../../../../Drivers/CMSIS/Include/cmsis_gcc.h **** 
 113:../../../../../../Drivers/CMSIS/Include/cmsis_gcc.h **** 
 114:../../../../../../Drivers/CMSIS/Include/cmsis_gcc.h **** #if (defined (__ARM_FEATURE_CMSE ) && (__ARM_FEATURE_CMSE == 3))
 115:../../../../../../Drivers/CMSIS/Include/cmsis_gcc.h **** /**
 116:../../../../../../Drivers/CMSIS/Include/cmsis_gcc.h ****   \brief   Get Control Register (non-secure)
 117:../../../../../../Drivers/CMSIS/Include/cmsis_gcc.h ****   \details Returns the content of the non-secure Control Register when in secure mode.
 118:../../../../../../Drivers/CMSIS/Include/cmsis_gcc.h ****   \return               non-secure Control Register value
 119:../../../../../../Drivers/CMSIS/Include/cmsis_gcc.h ****  */
 120:../../../../../../Drivers/CMSIS/Include/cmsis_gcc.h **** __attribute__((always_inline)) __STATIC_INLINE uint32_t __TZ_get_CONTROL_NS(void)
 121:../../../../../../Drivers/CMSIS/Include/cmsis_gcc.h **** {
 122:../../../../../../Drivers/CMSIS/Include/cmsis_gcc.h ****   uint32_t result;
 123:../../../../../../Drivers/CMSIS/Include/cmsis_gcc.h **** 
 124:../../../../../../Drivers/CMSIS/Include/cmsis_gcc.h ****   __ASM volatile ("MRS %0, control_ns" : "=r" (result) );
 125:../../../../../../Drivers/CMSIS/Include/cmsis_gcc.h ****   return(result);
 126:../../../../../../Drivers/CMSIS/Include/cmsis_gcc.h **** }
 127:../../../../../../Drivers/CMSIS/Include/cmsis_gcc.h **** #endif
 128:../../../../../../Drivers/CMSIS/Include/cmsis_gcc.h **** 
 129:../../../../../../Drivers/CMSIS/Include/cmsis_gcc.h **** 
 130:../../../../../../Drivers/CMSIS/Include/cmsis_gcc.h **** /**
 131:../../../../../../Drivers/CMSIS/Include/cmsis_gcc.h ****   \brief   Set Control Register
 132:../../../../../../Drivers/CMSIS/Include/cmsis_gcc.h ****   \details Writes the given value to the Control Register.
 133:../../../../../../Drivers/CMSIS/Include/cmsis_gcc.h ****   \param [in]    control  Control Register value to set
 134:../../../../../../Drivers/CMSIS/Include/cmsis_gcc.h ****  */
 135:../../../../../../Drivers/CMSIS/Include/cmsis_gcc.h **** __attribute__((always_inline)) __STATIC_INLINE void __set_CONTROL(uint32_t control)
 136:../../../../../../Drivers/CMSIS/Include/cmsis_gcc.h **** {
 137:../../../../../../Drivers/CMSIS/Include/cmsis_gcc.h ****   __ASM volatile ("MSR control, %0" : : "r" (control) : "memory");
 138:../../../../../../Drivers/CMSIS/Include/cmsis_gcc.h **** }
 139:../../../../../../Drivers/CMSIS/Include/cmsis_gcc.h **** 
 140:../../../../../../Drivers/CMSIS/Include/cmsis_gcc.h **** 
 141:../../../../../../Drivers/CMSIS/Include/cmsis_gcc.h **** #if (defined (__ARM_FEATURE_CMSE ) && (__ARM_FEATURE_CMSE == 3))
 142:../../../../../../Drivers/CMSIS/Include/cmsis_gcc.h **** /**
 143:../../../../../../Drivers/CMSIS/Include/cmsis_gcc.h ****   \brief   Set Control Register (non-secure)
 144:../../../../../../Drivers/CMSIS/Include/cmsis_gcc.h ****   \details Writes the given value to the non-secure Control Register when in secure state.
 145:../../../../../../Drivers/CMSIS/Include/cmsis_gcc.h ****   \param [in]    control  Control Register value to set
 146:../../../../../../Drivers/CMSIS/Include/cmsis_gcc.h ****  */
 147:../../../../../../Drivers/CMSIS/Include/cmsis_gcc.h **** __attribute__((always_inline)) __STATIC_INLINE void __TZ_set_CONTROL_NS(uint32_t control)
 148:../../../../../../Drivers/CMSIS/Include/cmsis_gcc.h **** {
 149:../../../../../../Drivers/CMSIS/Include/cmsis_gcc.h ****   __ASM volatile ("MSR control_ns, %0" : : "r" (control) : "memory");
 150:../../../../../../Drivers/CMSIS/Include/cmsis_gcc.h **** }
 151:../../../../../../Drivers/CMSIS/Include/cmsis_gcc.h **** #endif
 152:../../../../../../Drivers/CMSIS/Include/cmsis_gcc.h **** 
 153:../../../../../../Drivers/CMSIS/Include/cmsis_gcc.h **** 
 154:../../../../../../Drivers/CMSIS/Include/cmsis_gcc.h **** /**
 155:../../../../../../Drivers/CMSIS/Include/cmsis_gcc.h ****   \brief   Get IPSR Register
 156:../../../../../../Drivers/CMSIS/Include/cmsis_gcc.h ****   \details Returns the content of the IPSR Register.
 157:../../../../../../Drivers/CMSIS/Include/cmsis_gcc.h ****   \return               IPSR Register value
 158:../../../../../../Drivers/CMSIS/Include/cmsis_gcc.h ****  */
 159:../../../../../../Drivers/CMSIS/Include/cmsis_gcc.h **** __attribute__((always_inline)) __STATIC_INLINE uint32_t __get_IPSR(void)
 160:../../../../../../Drivers/CMSIS/Include/cmsis_gcc.h **** {
 161:../../../../../../Drivers/CMSIS/Include/cmsis_gcc.h ****   uint32_t result;
 162:../../../../../../Drivers/CMSIS/Include/cmsis_gcc.h **** 
 163:../../../../../../Drivers/CMSIS/Include/cmsis_gcc.h ****   __ASM volatile ("MRS %0, ipsr" : "=r" (result) );
 164:../../../../../../Drivers/CMSIS/Include/cmsis_gcc.h ****   return(result);
 165:../../../../../../Drivers/CMSIS/Include/cmsis_gcc.h **** }
ARM GAS  C:\Users\EBANO_~1\AppData\Local\Temp\ccsZgiNd.s 			page 42


 166:../../../../../../Drivers/CMSIS/Include/cmsis_gcc.h **** 
 167:../../../../../../Drivers/CMSIS/Include/cmsis_gcc.h **** 
 168:../../../../../../Drivers/CMSIS/Include/cmsis_gcc.h **** /**
 169:../../../../../../Drivers/CMSIS/Include/cmsis_gcc.h ****   \brief   Get APSR Register
 170:../../../../../../Drivers/CMSIS/Include/cmsis_gcc.h ****   \details Returns the content of the APSR Register.
 171:../../../../../../Drivers/CMSIS/Include/cmsis_gcc.h ****   \return               APSR Register value
 172:../../../../../../Drivers/CMSIS/Include/cmsis_gcc.h ****  */
 173:../../../../../../Drivers/CMSIS/Include/cmsis_gcc.h **** __attribute__((always_inline)) __STATIC_INLINE uint32_t __get_APSR(void)
 174:../../../../../../Drivers/CMSIS/Include/cmsis_gcc.h **** {
 175:../../../../../../Drivers/CMSIS/Include/cmsis_gcc.h ****   uint32_t result;
 176:../../../../../../Drivers/CMSIS/Include/cmsis_gcc.h **** 
 177:../../../../../../Drivers/CMSIS/Include/cmsis_gcc.h ****   __ASM volatile ("MRS %0, apsr" : "=r" (result) );
 178:../../../../../../Drivers/CMSIS/Include/cmsis_gcc.h ****   return(result);
 179:../../../../../../Drivers/CMSIS/Include/cmsis_gcc.h **** }
 180:../../../../../../Drivers/CMSIS/Include/cmsis_gcc.h **** 
 181:../../../../../../Drivers/CMSIS/Include/cmsis_gcc.h **** 
 182:../../../../../../Drivers/CMSIS/Include/cmsis_gcc.h **** /**
 183:../../../../../../Drivers/CMSIS/Include/cmsis_gcc.h ****   \brief   Get xPSR Register
 184:../../../../../../Drivers/CMSIS/Include/cmsis_gcc.h ****   \details Returns the content of the xPSR Register.
 185:../../../../../../Drivers/CMSIS/Include/cmsis_gcc.h ****   \return               xPSR Register value
 186:../../../../../../Drivers/CMSIS/Include/cmsis_gcc.h ****  */
 187:../../../../../../Drivers/CMSIS/Include/cmsis_gcc.h **** __attribute__((always_inline)) __STATIC_INLINE uint32_t __get_xPSR(void)
 188:../../../../../../Drivers/CMSIS/Include/cmsis_gcc.h **** {
 189:../../../../../../Drivers/CMSIS/Include/cmsis_gcc.h ****   uint32_t result;
 190:../../../../../../Drivers/CMSIS/Include/cmsis_gcc.h **** 
 191:../../../../../../Drivers/CMSIS/Include/cmsis_gcc.h ****   __ASM volatile ("MRS %0, xpsr" : "=r" (result) );
 192:../../../../../../Drivers/CMSIS/Include/cmsis_gcc.h ****   return(result);
 193:../../../../../../Drivers/CMSIS/Include/cmsis_gcc.h **** }
 194:../../../../../../Drivers/CMSIS/Include/cmsis_gcc.h **** 
 195:../../../../../../Drivers/CMSIS/Include/cmsis_gcc.h **** 
 196:../../../../../../Drivers/CMSIS/Include/cmsis_gcc.h **** /**
 197:../../../../../../Drivers/CMSIS/Include/cmsis_gcc.h ****   \brief   Get Process Stack Pointer
 198:../../../../../../Drivers/CMSIS/Include/cmsis_gcc.h ****   \details Returns the current value of the Process Stack Pointer (PSP).
 199:../../../../../../Drivers/CMSIS/Include/cmsis_gcc.h ****   \return               PSP Register value
 200:../../../../../../Drivers/CMSIS/Include/cmsis_gcc.h ****  */
 201:../../../../../../Drivers/CMSIS/Include/cmsis_gcc.h **** __attribute__((always_inline)) __STATIC_INLINE uint32_t __get_PSP(void)
 202:../../../../../../Drivers/CMSIS/Include/cmsis_gcc.h **** {
 203:../../../../../../Drivers/CMSIS/Include/cmsis_gcc.h ****   register uint32_t result;
 204:../../../../../../Drivers/CMSIS/Include/cmsis_gcc.h **** 
 205:../../../../../../Drivers/CMSIS/Include/cmsis_gcc.h ****   __ASM volatile ("MRS %0, psp"  : "=r" (result) );
 206:../../../../../../Drivers/CMSIS/Include/cmsis_gcc.h ****   return(result);
 207:../../../../../../Drivers/CMSIS/Include/cmsis_gcc.h **** }
 208:../../../../../../Drivers/CMSIS/Include/cmsis_gcc.h **** 
 209:../../../../../../Drivers/CMSIS/Include/cmsis_gcc.h **** 
 210:../../../../../../Drivers/CMSIS/Include/cmsis_gcc.h **** #if (defined (__ARM_FEATURE_CMSE ) && (__ARM_FEATURE_CMSE == 3))
 211:../../../../../../Drivers/CMSIS/Include/cmsis_gcc.h **** /**
 212:../../../../../../Drivers/CMSIS/Include/cmsis_gcc.h ****   \brief   Get Process Stack Pointer (non-secure)
 213:../../../../../../Drivers/CMSIS/Include/cmsis_gcc.h ****   \details Returns the current value of the non-secure Process Stack Pointer (PSP) when in secure s
 214:../../../../../../Drivers/CMSIS/Include/cmsis_gcc.h ****   \return               PSP Register value
 215:../../../../../../Drivers/CMSIS/Include/cmsis_gcc.h ****  */
 216:../../../../../../Drivers/CMSIS/Include/cmsis_gcc.h **** __attribute__((always_inline)) __STATIC_INLINE uint32_t __TZ_get_PSP_NS(void)
 217:../../../../../../Drivers/CMSIS/Include/cmsis_gcc.h **** {
 218:../../../../../../Drivers/CMSIS/Include/cmsis_gcc.h ****   register uint32_t result;
 219:../../../../../../Drivers/CMSIS/Include/cmsis_gcc.h **** 
 220:../../../../../../Drivers/CMSIS/Include/cmsis_gcc.h ****   __ASM volatile ("MRS %0, psp_ns"  : "=r" (result) );
 221:../../../../../../Drivers/CMSIS/Include/cmsis_gcc.h ****   return(result);
 222:../../../../../../Drivers/CMSIS/Include/cmsis_gcc.h **** }
ARM GAS  C:\Users\EBANO_~1\AppData\Local\Temp\ccsZgiNd.s 			page 43


 223:../../../../../../Drivers/CMSIS/Include/cmsis_gcc.h **** #endif
 224:../../../../../../Drivers/CMSIS/Include/cmsis_gcc.h **** 
 225:../../../../../../Drivers/CMSIS/Include/cmsis_gcc.h **** 
 226:../../../../../../Drivers/CMSIS/Include/cmsis_gcc.h **** /**
 227:../../../../../../Drivers/CMSIS/Include/cmsis_gcc.h ****   \brief   Set Process Stack Pointer
 228:../../../../../../Drivers/CMSIS/Include/cmsis_gcc.h ****   \details Assigns the given value to the Process Stack Pointer (PSP).
 229:../../../../../../Drivers/CMSIS/Include/cmsis_gcc.h ****   \param [in]    topOfProcStack  Process Stack Pointer value to set
 230:../../../../../../Drivers/CMSIS/Include/cmsis_gcc.h ****  */
 231:../../../../../../Drivers/CMSIS/Include/cmsis_gcc.h **** __attribute__((always_inline)) __STATIC_INLINE void __set_PSP(uint32_t topOfProcStack)
 232:../../../../../../Drivers/CMSIS/Include/cmsis_gcc.h **** {
 233:../../../../../../Drivers/CMSIS/Include/cmsis_gcc.h ****   __ASM volatile ("MSR psp, %0" : : "r" (topOfProcStack) : );
 234:../../../../../../Drivers/CMSIS/Include/cmsis_gcc.h **** }
 235:../../../../../../Drivers/CMSIS/Include/cmsis_gcc.h **** 
 236:../../../../../../Drivers/CMSIS/Include/cmsis_gcc.h **** 
 237:../../../../../../Drivers/CMSIS/Include/cmsis_gcc.h **** #if (defined (__ARM_FEATURE_CMSE ) && (__ARM_FEATURE_CMSE == 3))
 238:../../../../../../Drivers/CMSIS/Include/cmsis_gcc.h **** /**
 239:../../../../../../Drivers/CMSIS/Include/cmsis_gcc.h ****   \brief   Set Process Stack Pointer (non-secure)
 240:../../../../../../Drivers/CMSIS/Include/cmsis_gcc.h ****   \details Assigns the given value to the non-secure Process Stack Pointer (PSP) when in secure sta
 241:../../../../../../Drivers/CMSIS/Include/cmsis_gcc.h ****   \param [in]    topOfProcStack  Process Stack Pointer value to set
 242:../../../../../../Drivers/CMSIS/Include/cmsis_gcc.h ****  */
 243:../../../../../../Drivers/CMSIS/Include/cmsis_gcc.h **** __attribute__((always_inline)) __STATIC_INLINE void __TZ_set_PSP_NS(uint32_t topOfProcStack)
 244:../../../../../../Drivers/CMSIS/Include/cmsis_gcc.h **** {
 245:../../../../../../Drivers/CMSIS/Include/cmsis_gcc.h ****   __ASM volatile ("MSR psp_ns, %0" : : "r" (topOfProcStack) : );
 246:../../../../../../Drivers/CMSIS/Include/cmsis_gcc.h **** }
 247:../../../../../../Drivers/CMSIS/Include/cmsis_gcc.h **** #endif
 248:../../../../../../Drivers/CMSIS/Include/cmsis_gcc.h **** 
 249:../../../../../../Drivers/CMSIS/Include/cmsis_gcc.h **** 
 250:../../../../../../Drivers/CMSIS/Include/cmsis_gcc.h **** /**
 251:../../../../../../Drivers/CMSIS/Include/cmsis_gcc.h ****   \brief   Get Main Stack Pointer
 252:../../../../../../Drivers/CMSIS/Include/cmsis_gcc.h ****   \details Returns the current value of the Main Stack Pointer (MSP).
 253:../../../../../../Drivers/CMSIS/Include/cmsis_gcc.h ****   \return               MSP Register value
 254:../../../../../../Drivers/CMSIS/Include/cmsis_gcc.h ****  */
 255:../../../../../../Drivers/CMSIS/Include/cmsis_gcc.h **** __attribute__((always_inline)) __STATIC_INLINE uint32_t __get_MSP(void)
 256:../../../../../../Drivers/CMSIS/Include/cmsis_gcc.h **** {
 257:../../../../../../Drivers/CMSIS/Include/cmsis_gcc.h ****   register uint32_t result;
 258:../../../../../../Drivers/CMSIS/Include/cmsis_gcc.h **** 
 259:../../../../../../Drivers/CMSIS/Include/cmsis_gcc.h ****   __ASM volatile ("MRS %0, msp" : "=r" (result) );
 260:../../../../../../Drivers/CMSIS/Include/cmsis_gcc.h ****   return(result);
 261:../../../../../../Drivers/CMSIS/Include/cmsis_gcc.h **** }
 262:../../../../../../Drivers/CMSIS/Include/cmsis_gcc.h **** 
 263:../../../../../../Drivers/CMSIS/Include/cmsis_gcc.h **** 
 264:../../../../../../Drivers/CMSIS/Include/cmsis_gcc.h **** #if (defined (__ARM_FEATURE_CMSE ) && (__ARM_FEATURE_CMSE == 3))
 265:../../../../../../Drivers/CMSIS/Include/cmsis_gcc.h **** /**
 266:../../../../../../Drivers/CMSIS/Include/cmsis_gcc.h ****   \brief   Get Main Stack Pointer (non-secure)
 267:../../../../../../Drivers/CMSIS/Include/cmsis_gcc.h ****   \details Returns the current value of the non-secure Main Stack Pointer (MSP) when in secure stat
 268:../../../../../../Drivers/CMSIS/Include/cmsis_gcc.h ****   \return               MSP Register value
 269:../../../../../../Drivers/CMSIS/Include/cmsis_gcc.h ****  */
 270:../../../../../../Drivers/CMSIS/Include/cmsis_gcc.h **** __attribute__((always_inline)) __STATIC_INLINE uint32_t __TZ_get_MSP_NS(void)
 271:../../../../../../Drivers/CMSIS/Include/cmsis_gcc.h **** {
 272:../../../../../../Drivers/CMSIS/Include/cmsis_gcc.h ****   register uint32_t result;
 273:../../../../../../Drivers/CMSIS/Include/cmsis_gcc.h **** 
 274:../../../../../../Drivers/CMSIS/Include/cmsis_gcc.h ****   __ASM volatile ("MRS %0, msp_ns" : "=r" (result) );
 275:../../../../../../Drivers/CMSIS/Include/cmsis_gcc.h ****   return(result);
 276:../../../../../../Drivers/CMSIS/Include/cmsis_gcc.h **** }
 277:../../../../../../Drivers/CMSIS/Include/cmsis_gcc.h **** #endif
 278:../../../../../../Drivers/CMSIS/Include/cmsis_gcc.h **** 
 279:../../../../../../Drivers/CMSIS/Include/cmsis_gcc.h **** 
ARM GAS  C:\Users\EBANO_~1\AppData\Local\Temp\ccsZgiNd.s 			page 44


 280:../../../../../../Drivers/CMSIS/Include/cmsis_gcc.h **** /**
 281:../../../../../../Drivers/CMSIS/Include/cmsis_gcc.h ****   \brief   Set Main Stack Pointer
 282:../../../../../../Drivers/CMSIS/Include/cmsis_gcc.h ****   \details Assigns the given value to the Main Stack Pointer (MSP).
 283:../../../../../../Drivers/CMSIS/Include/cmsis_gcc.h ****   \param [in]    topOfMainStack  Main Stack Pointer value to set
 284:../../../../../../Drivers/CMSIS/Include/cmsis_gcc.h ****  */
 285:../../../../../../Drivers/CMSIS/Include/cmsis_gcc.h **** __attribute__((always_inline)) __STATIC_INLINE void __set_MSP(uint32_t topOfMainStack)
 286:../../../../../../Drivers/CMSIS/Include/cmsis_gcc.h **** {
 287:../../../../../../Drivers/CMSIS/Include/cmsis_gcc.h ****   __ASM volatile ("MSR msp, %0" : : "r" (topOfMainStack) : );
 288:../../../../../../Drivers/CMSIS/Include/cmsis_gcc.h **** }
 289:../../../../../../Drivers/CMSIS/Include/cmsis_gcc.h **** 
 290:../../../../../../Drivers/CMSIS/Include/cmsis_gcc.h **** 
 291:../../../../../../Drivers/CMSIS/Include/cmsis_gcc.h **** #if (defined (__ARM_FEATURE_CMSE ) && (__ARM_FEATURE_CMSE == 3))
 292:../../../../../../Drivers/CMSIS/Include/cmsis_gcc.h **** /**
 293:../../../../../../Drivers/CMSIS/Include/cmsis_gcc.h ****   \brief   Set Main Stack Pointer (non-secure)
 294:../../../../../../Drivers/CMSIS/Include/cmsis_gcc.h ****   \details Assigns the given value to the non-secure Main Stack Pointer (MSP) when in secure state.
 295:../../../../../../Drivers/CMSIS/Include/cmsis_gcc.h ****   \param [in]    topOfMainStack  Main Stack Pointer value to set
 296:../../../../../../Drivers/CMSIS/Include/cmsis_gcc.h ****  */
 297:../../../../../../Drivers/CMSIS/Include/cmsis_gcc.h **** __attribute__((always_inline)) __STATIC_INLINE void __TZ_set_MSP_NS(uint32_t topOfMainStack)
 298:../../../../../../Drivers/CMSIS/Include/cmsis_gcc.h **** {
 299:../../../../../../Drivers/CMSIS/Include/cmsis_gcc.h ****   __ASM volatile ("MSR msp_ns, %0" : : "r" (topOfMainStack) : );
 300:../../../../../../Drivers/CMSIS/Include/cmsis_gcc.h **** }
 301:../../../../../../Drivers/CMSIS/Include/cmsis_gcc.h **** #endif
 302:../../../../../../Drivers/CMSIS/Include/cmsis_gcc.h **** 
 303:../../../../../../Drivers/CMSIS/Include/cmsis_gcc.h **** 
 304:../../../../../../Drivers/CMSIS/Include/cmsis_gcc.h **** /**
 305:../../../../../../Drivers/CMSIS/Include/cmsis_gcc.h ****   \brief   Get Priority Mask
 306:../../../../../../Drivers/CMSIS/Include/cmsis_gcc.h ****   \details Returns the current state of the priority mask bit from the Priority Mask Register.
 307:../../../../../../Drivers/CMSIS/Include/cmsis_gcc.h ****   \return               Priority Mask value
 308:../../../../../../Drivers/CMSIS/Include/cmsis_gcc.h ****  */
 309:../../../../../../Drivers/CMSIS/Include/cmsis_gcc.h **** __attribute__((always_inline)) __STATIC_INLINE uint32_t __get_PRIMASK(void)
 310:../../../../../../Drivers/CMSIS/Include/cmsis_gcc.h **** {
 311:../../../../../../Drivers/CMSIS/Include/cmsis_gcc.h ****   uint32_t result;
 312:../../../../../../Drivers/CMSIS/Include/cmsis_gcc.h **** 
 313:../../../../../../Drivers/CMSIS/Include/cmsis_gcc.h ****   __ASM volatile ("MRS %0, primask" : "=r" (result) );
 1455              		.loc 2 313 0
 1456              		.syntax divided
 1457              	@ 313 "../../../../../../Drivers/CMSIS/Include/cmsis_gcc.h" 1
 1458 0004 EFF31085 		MRS r5, primask
 1459              	@ 0 "" 2
 1460              		.thumb
 1461              		.syntax unified
 1462              	.LBE92:
 1463              	.LBE91:
 1464              	.LBB93:
 1465              	.LBB94:
  96:../../../../../../Drivers/CMSIS/Include/cmsis_gcc.h **** }
 1466              		.loc 2 96 0
 1467              		.syntax divided
 1468              	@ 96 "../../../../../../Drivers/CMSIS/Include/cmsis_gcc.h" 1
 1469 0008 72B6     		cpsid i
 1470              	@ 0 "" 2
 1471              		.thumb
 1472              		.syntax unified
 1473              	.LBE94:
 1474              	.LBE93:
 1475              	.LBB95:
 1476              	.LBB96:
ARM GAS  C:\Users\EBANO_~1\AppData\Local\Temp\ccsZgiNd.s 			page 45


 168:../Core/src/mlm32l0xx_hw.c ****   HW_GPIO_Init ( RADIO_MISO_PORT, RADIO_MISO_PIN, &initStruct ); 
 1477              		.loc 1 168 0
 1478 000a A024     		movs	r4, #160
 164:../Core/src/mlm32l0xx_hw.c ****     
 1479              		.loc 1 164 0
 1480 000c 1422     		movs	r2, #20
 1481 000e 0021     		movs	r1, #0
 1482 0010 01A8     		add	r0, sp, #4
 1483 0012 FFF7FEFF 		bl	memset
 1484              	.LVL78:
 166:../Core/src/mlm32l0xx_hw.c ****   initStruct.Pull =GPIO_NOPULL;
 1485              		.loc 1 166 0
 1486 0016 0323     		movs	r3, #3
 168:../Core/src/mlm32l0xx_hw.c ****   HW_GPIO_Init ( RADIO_MISO_PORT, RADIO_MISO_PIN, &initStruct ); 
 1487              		.loc 1 168 0
 1488 0018 E405     		lsls	r4, r4, #23
 1489 001a 01AA     		add	r2, sp, #4
 1490 001c 2000     		movs	r0, r4
 1491 001e 8021     		movs	r1, #128
 166:../Core/src/mlm32l0xx_hw.c ****   initStruct.Pull =GPIO_NOPULL;
 1492              		.loc 1 166 0
 1493 0020 0293     		str	r3, [sp, #8]
 168:../Core/src/mlm32l0xx_hw.c ****   HW_GPIO_Init ( RADIO_MISO_PORT, RADIO_MISO_PIN, &initStruct ); 
 1494              		.loc 1 168 0
 1495 0022 FFF7FEFF 		bl	HW_GPIO_Init
 1496              	.LVL79:
 169:../Core/src/mlm32l0xx_hw.c ****   HW_GPIO_Init ( RADIO_SCLK_PORT, RADIO_SCLK_PIN, &initStruct ); 
 1497              		.loc 1 169 0
 1498 0026 01AA     		add	r2, sp, #4
 1499 0028 2000     		movs	r0, r4
 1500 002a 4021     		movs	r1, #64
 1501 002c FFF7FEFF 		bl	HW_GPIO_Init
 1502              	.LVL80:
 170:../Core/src/mlm32l0xx_hw.c ****   HW_GPIO_Init ( RADIO_NSS_PORT, RADIO_NSS_PIN , &initStruct ); 
 1503              		.loc 1 170 0
 1504 0030 01AA     		add	r2, sp, #4
 1505 0032 0821     		movs	r1, #8
 1506 0034 0D48     		ldr	r0, .L84
 1507 0036 FFF7FEFF 		bl	HW_GPIO_Init
 1508              	.LVL81:
 171:../Core/src/mlm32l0xx_hw.c **** 
 1509              		.loc 1 171 0
 1510 003a 8021     		movs	r1, #128
 1511 003c 01AA     		add	r2, sp, #4
 1512 003e 0902     		lsls	r1, r1, #8
 1513 0040 2000     		movs	r0, r4
 1514 0042 FFF7FEFF 		bl	HW_GPIO_Init
 1515              	.LVL82:
 174:../Core/src/mlm32l0xx_hw.c ****   
 1516              		.loc 1 174 0
 1517 0046 0A4B     		ldr	r3, .L84+4
 1518 0048 5B68     		ldr	r3, [r3, #4]
 1519 004a 9847     		blx	r3
 1520              	.LVL83:
 176:../Core/src/mlm32l0xx_hw.c **** }
 1521              		.loc 1 176 0
 1522 004c FFF7FEFF 		bl	vcom_IoDeInit
ARM GAS  C:\Users\EBANO_~1\AppData\Local\Temp\ccsZgiNd.s 			page 46


 1523              	.LVL84:
 1524              	.LBE96:
 1525              	.LBE95:
 467:../Core/src/mlm32l0xx_hw.c ****   BACKUP_PRIMASK();
 468:../Core/src/mlm32l0xx_hw.c **** 
 469:../Core/src/mlm32l0xx_hw.c ****   DISABLE_IRQ( );
 470:../Core/src/mlm32l0xx_hw.c **** 
 471:../Core/src/mlm32l0xx_hw.c ****   HW_IoDeInit( );
 472:../Core/src/mlm32l0xx_hw.c ****   
 473:../Core/src/mlm32l0xx_hw.c ****   /*clear wake up flag*/
 474:../Core/src/mlm32l0xx_hw.c ****   SET_BIT(PWR->CR, PWR_CR_CWUF);
 1526              		.loc 1 474 0
 1527 0050 0421     		movs	r1, #4
 1528 0052 084A     		ldr	r2, .L84+8
 1529 0054 1368     		ldr	r3, [r2]
 1530 0056 0B43     		orrs	r3, r1
 1531 0058 1360     		str	r3, [r2]
 1532              	.LBB97:
 1533              	.LBB98:
 314:../../../../../../Drivers/CMSIS/Include/cmsis_gcc.h ****   return(result);
 315:../../../../../../Drivers/CMSIS/Include/cmsis_gcc.h **** }
 316:../../../../../../Drivers/CMSIS/Include/cmsis_gcc.h **** 
 317:../../../../../../Drivers/CMSIS/Include/cmsis_gcc.h **** 
 318:../../../../../../Drivers/CMSIS/Include/cmsis_gcc.h **** #if (defined (__ARM_FEATURE_CMSE ) && (__ARM_FEATURE_CMSE == 3))
 319:../../../../../../Drivers/CMSIS/Include/cmsis_gcc.h **** /**
 320:../../../../../../Drivers/CMSIS/Include/cmsis_gcc.h ****   \brief   Get Priority Mask (non-secure)
 321:../../../../../../Drivers/CMSIS/Include/cmsis_gcc.h ****   \details Returns the current state of the non-secure priority mask bit from the Priority Mask Reg
 322:../../../../../../Drivers/CMSIS/Include/cmsis_gcc.h ****   \return               Priority Mask value
 323:../../../../../../Drivers/CMSIS/Include/cmsis_gcc.h ****  */
 324:../../../../../../Drivers/CMSIS/Include/cmsis_gcc.h **** __attribute__((always_inline)) __STATIC_INLINE uint32_t __TZ_get_PRIMASK_NS(void)
 325:../../../../../../Drivers/CMSIS/Include/cmsis_gcc.h **** {
 326:../../../../../../Drivers/CMSIS/Include/cmsis_gcc.h ****   uint32_t result;
 327:../../../../../../Drivers/CMSIS/Include/cmsis_gcc.h **** 
 328:../../../../../../Drivers/CMSIS/Include/cmsis_gcc.h ****   __ASM volatile ("MRS %0, primask_ns" : "=r" (result) );
 329:../../../../../../Drivers/CMSIS/Include/cmsis_gcc.h ****   return(result);
 330:../../../../../../Drivers/CMSIS/Include/cmsis_gcc.h **** }
 331:../../../../../../Drivers/CMSIS/Include/cmsis_gcc.h **** #endif
 332:../../../../../../Drivers/CMSIS/Include/cmsis_gcc.h **** 
 333:../../../../../../Drivers/CMSIS/Include/cmsis_gcc.h **** 
 334:../../../../../../Drivers/CMSIS/Include/cmsis_gcc.h **** /**
 335:../../../../../../Drivers/CMSIS/Include/cmsis_gcc.h ****   \brief   Set Priority Mask
 336:../../../../../../Drivers/CMSIS/Include/cmsis_gcc.h ****   \details Assigns the given value to the Priority Mask Register.
 337:../../../../../../Drivers/CMSIS/Include/cmsis_gcc.h ****   \param [in]    priMask  Priority Mask
 338:../../../../../../Drivers/CMSIS/Include/cmsis_gcc.h ****  */
 339:../../../../../../Drivers/CMSIS/Include/cmsis_gcc.h **** __attribute__((always_inline)) __STATIC_INLINE void __set_PRIMASK(uint32_t priMask)
 340:../../../../../../Drivers/CMSIS/Include/cmsis_gcc.h **** {
 341:../../../../../../Drivers/CMSIS/Include/cmsis_gcc.h ****   __ASM volatile ("MSR primask, %0" : : "r" (priMask) : "memory");
 1534              		.loc 2 341 0
 1535              		.syntax divided
 1536              	@ 341 "../../../../../../Drivers/CMSIS/Include/cmsis_gcc.h" 1
 1537 005a 85F31088 		MSR primask, r5
 1538              	@ 0 "" 2
 1539              		.thumb
 1540              		.syntax unified
 1541              	.LBE98:
 1542              	.LBE97:
 475:../Core/src/mlm32l0xx_hw.c ****   
ARM GAS  C:\Users\EBANO_~1\AppData\Local\Temp\ccsZgiNd.s 			page 47


 476:../Core/src/mlm32l0xx_hw.c ****   RESTORE_PRIMASK( );
 477:../Core/src/mlm32l0xx_hw.c **** 
 478:../Core/src/mlm32l0xx_hw.c ****   /* Enter Stop Mode */
 479:../Core/src/mlm32l0xx_hw.c ****   HAL_PWR_EnterSTOPMode ( PWR_LOWPOWERREGULATOR_ON, PWR_STOPENTRY_WFI );
 1543              		.loc 1 479 0
 1544 005e 0120     		movs	r0, #1
 1545 0060 0339     		subs	r1, r1, #3
 1546 0062 FFF7FEFF 		bl	HAL_PWR_EnterSTOPMode
 1547              	.LVL85:
 480:../Core/src/mlm32l0xx_hw.c **** }
 1548              		.loc 1 480 0
 1549 0066 07B0     		add	sp, sp, #28
 1550              		@ sp needed
 1551 0068 30BD     		pop	{r4, r5, pc}
 1552              	.L85:
 1553 006a C046     		.align	2
 1554              	.L84:
 1555 006c 00040050 		.word	1342178304
 1556 0070 00000000 		.word	Radio
 1557 0074 00700040 		.word	1073770496
 1558              		.cfi_endproc
 1559              	.LFE52:
 1560              		.size	LPM_EnterStopMode, .-LPM_EnterStopMode
 1561              		.section	.text.LPM_ExitStopMode,"ax",%progbits
 1562              		.align	1
 1563              		.p2align 2,,3
 1564              		.global	LPM_ExitStopMode
 1565              		.syntax unified
 1566              		.code	16
 1567              		.thumb_func
 1568              		.fpu softvfp
 1569              		.type	LPM_ExitStopMode, %function
 1570              	LPM_ExitStopMode:
 1571              	.LFB53:
 481:../Core/src/mlm32l0xx_hw.c **** /**
 482:../Core/src/mlm32l0xx_hw.c ****   * @brief Exists Low Power Stop Mode
 483:../Core/src/mlm32l0xx_hw.c ****   * @note Enable the pll at 32MHz
 484:../Core/src/mlm32l0xx_hw.c ****   * @param none
 485:../Core/src/mlm32l0xx_hw.c ****   * @retval none
 486:../Core/src/mlm32l0xx_hw.c ****   */
 487:../Core/src/mlm32l0xx_hw.c **** void LPM_ExitStopMode( void)
 488:../Core/src/mlm32l0xx_hw.c **** {
 1572              		.loc 1 488 0
 1573              		.cfi_startproc
 1574              		@ args = 0, pretend = 0, frame = 8
 1575              		@ frame_needed = 0, uses_anonymous_args = 0
 1576 0000 10B5     		push	{r4, lr}
 1577              	.LCFI18:
 1578              		.cfi_def_cfa_offset 8
 1579              		.cfi_offset 4, -8
 1580              		.cfi_offset 14, -4
 1581 0002 82B0     		sub	sp, sp, #8
 1582              	.LCFI19:
 1583              		.cfi_def_cfa_offset 16
 1584              	.LBB107:
 1585              	.LBB108:
 313:../../../../../../Drivers/CMSIS/Include/cmsis_gcc.h ****   return(result);
ARM GAS  C:\Users\EBANO_~1\AppData\Local\Temp\ccsZgiNd.s 			page 48


 1586              		.loc 2 313 0
 1587              		.syntax divided
 1588              	@ 313 "../../../../../../Drivers/CMSIS/Include/cmsis_gcc.h" 1
 1589 0004 EFF31084 		MRS r4, primask
 1590              	@ 0 "" 2
 1591              		.thumb
 1592              		.syntax unified
 1593              	.LBE108:
 1594              	.LBE107:
 1595              	.LBB109:
 1596              	.LBB110:
  96:../../../../../../Drivers/CMSIS/Include/cmsis_gcc.h **** }
 1597              		.loc 2 96 0
 1598              		.syntax divided
 1599              	@ 96 "../../../../../../Drivers/CMSIS/Include/cmsis_gcc.h" 1
 1600 0008 72B6     		cpsid i
 1601              	@ 0 "" 2
 1602              		.thumb
 1603              		.syntax unified
 1604              	.LBE110:
 1605              	.LBE109:
 489:../Core/src/mlm32l0xx_hw.c ****   /* Disable IRQ while the MCU is not running on HSI */
 490:../Core/src/mlm32l0xx_hw.c **** 
 491:../Core/src/mlm32l0xx_hw.c ****   BACKUP_PRIMASK();
 492:../Core/src/mlm32l0xx_hw.c ****   
 493:../Core/src/mlm32l0xx_hw.c ****   DISABLE_IRQ( );
 494:../Core/src/mlm32l0xx_hw.c **** 
 495:../Core/src/mlm32l0xx_hw.c ****   /* After wake-up from STOP reconfigure the system clock */
 496:../Core/src/mlm32l0xx_hw.c ****   /* Enable HSI */
 497:../Core/src/mlm32l0xx_hw.c ****   __HAL_RCC_HSI_ENABLE();
 1606              		.loc 1 497 0
 1607 000a 0121     		movs	r1, #1
 1608 000c 144B     		ldr	r3, .L95
 1609 000e 1A68     		ldr	r2, [r3]
 1610 0010 0A43     		orrs	r2, r1
 1611 0012 1A60     		str	r2, [r3]
 498:../Core/src/mlm32l0xx_hw.c **** 
 499:../Core/src/mlm32l0xx_hw.c ****   /* Wait till HSI is ready */
 500:../Core/src/mlm32l0xx_hw.c ****   while( __HAL_RCC_GET_FLAG(RCC_FLAG_HSIRDY) == RESET ) {}
 1612              		.loc 1 500 0
 1613 0014 0331     		adds	r1, r1, #3
 1614              	.L87:
 1615              		.loc 1 500 0 is_stmt 0 discriminator 1
 1616 0016 1A68     		ldr	r2, [r3]
 1617 0018 1142     		tst	r1, r2
 1618 001a FCD0     		beq	.L87
 501:../Core/src/mlm32l0xx_hw.c ****   
 502:../Core/src/mlm32l0xx_hw.c ****   /* Enable PLL */
 503:../Core/src/mlm32l0xx_hw.c ****   __HAL_RCC_PLL_ENABLE();
 1619              		.loc 1 503 0 is_stmt 1
 1620 001c 8022     		movs	r2, #128
 1621 001e 1968     		ldr	r1, [r3]
 1622 0020 5204     		lsls	r2, r2, #17
 1623 0022 0A43     		orrs	r2, r1
 504:../Core/src/mlm32l0xx_hw.c ****   /* Wait till PLL is ready */
 505:../Core/src/mlm32l0xx_hw.c ****   while( __HAL_RCC_GET_FLAG( RCC_FLAG_PLLRDY ) == RESET ) {}
 1624              		.loc 1 505 0
ARM GAS  C:\Users\EBANO_~1\AppData\Local\Temp\ccsZgiNd.s 			page 49


 1625 0024 8021     		movs	r1, #128
 503:../Core/src/mlm32l0xx_hw.c ****   /* Wait till PLL is ready */
 1626              		.loc 1 503 0
 1627 0026 1A60     		str	r2, [r3]
 1628              		.loc 1 505 0
 1629 0028 0D4A     		ldr	r2, .L95
 1630 002a 8904     		lsls	r1, r1, #18
 1631              	.L88:
 1632              		.loc 1 505 0 is_stmt 0 discriminator 1
 1633 002c 1368     		ldr	r3, [r2]
 1634 002e 0B42     		tst	r3, r1
 1635 0030 FCD0     		beq	.L88
 506:../Core/src/mlm32l0xx_hw.c ****   
 507:../Core/src/mlm32l0xx_hw.c ****   /* Select PLL as system clock source */
 508:../Core/src/mlm32l0xx_hw.c ****   __HAL_RCC_SYSCLK_CONFIG ( RCC_SYSCLKSOURCE_PLLCLK );
 1636              		.loc 1 508 0 is_stmt 1
 1637 0032 0321     		movs	r1, #3
 1638 0034 D368     		ldr	r3, [r2, #12]
 1639 0036 0B43     		orrs	r3, r1
 1640 0038 D360     		str	r3, [r2, #12]
 509:../Core/src/mlm32l0xx_hw.c ****   
 510:../Core/src/mlm32l0xx_hw.c ****   /* Wait till PLL is used as system clock source */ 
 511:../Core/src/mlm32l0xx_hw.c ****   while( __HAL_RCC_GET_SYSCLK_SOURCE( ) != RCC_SYSCLKSOURCE_STATUS_PLLCLK ) {}
 1641              		.loc 1 511 0
 1642 003a 0C22     		movs	r2, #12
 1643 003c 0849     		ldr	r1, .L95
 1644              	.L89:
 1645              		.loc 1 511 0 is_stmt 0 discriminator 1
 1646 003e CB68     		ldr	r3, [r1, #12]
 1647 0040 1340     		ands	r3, r2
 1648 0042 0C2B     		cmp	r3, #12
 1649 0044 FBD1     		bne	.L89
 1650              	.LBB111:
 1651              	.LBB112:
 149:../Core/src/mlm32l0xx_hw.c ****   
 1652              		.loc 1 149 0 is_stmt 1
 1653 0046 FFF7FEFF 		bl	HW_SPI_IoInit
 1654              	.LVL86:
 151:../Core/src/mlm32l0xx_hw.c ****   
 1655              		.loc 1 151 0
 1656 004a 064B     		ldr	r3, .L95+4
 1657 004c 1B68     		ldr	r3, [r3]
 1658 004e 0193     		str	r3, [sp, #4]
 1659 0050 9847     		blx	r3
 1660              	.LVL87:
 153:../Core/src/mlm32l0xx_hw.c **** }
 1661              		.loc 1 153 0
 1662 0052 FFF7FEFF 		bl	vcom_IoInit
 1663              	.LVL88:
 1664              	.LBE112:
 1665              	.LBE111:
 1666              	.LBB113:
 1667              	.LBB114:
 1668              		.loc 2 341 0
 1669              		.syntax divided
 1670              	@ 341 "../../../../../../Drivers/CMSIS/Include/cmsis_gcc.h" 1
 1671 0056 84F31088 		MSR primask, r4
ARM GAS  C:\Users\EBANO_~1\AppData\Local\Temp\ccsZgiNd.s 			page 50


 1672              	@ 0 "" 2
 1673              	.LVL89:
 1674              		.thumb
 1675              		.syntax unified
 1676              	.LBE114:
 1677              	.LBE113:
 512:../Core/src/mlm32l0xx_hw.c ****     
 513:../Core/src/mlm32l0xx_hw.c ****   /*initilizes the peripherals*/
 514:../Core/src/mlm32l0xx_hw.c ****   HW_IoInit( );
 515:../Core/src/mlm32l0xx_hw.c **** 
 516:../Core/src/mlm32l0xx_hw.c ****   RESTORE_PRIMASK( );
 517:../Core/src/mlm32l0xx_hw.c **** }
 1678              		.loc 1 517 0
 1679 005a 02B0     		add	sp, sp, #8
 1680              		@ sp needed
 1681 005c 10BD     		pop	{r4, pc}
 1682              	.L96:
 1683 005e C046     		.align	2
 1684              	.L95:
 1685 0060 00100240 		.word	1073876992
 1686 0064 00000000 		.word	Radio
 1687              		.cfi_endproc
 1688              	.LFE53:
 1689              		.size	LPM_ExitStopMode, .-LPM_ExitStopMode
 1690              		.section	.text.LPM_EnterSleepMode,"ax",%progbits
 1691              		.align	1
 1692              		.p2align 2,,3
 1693              		.global	LPM_EnterSleepMode
 1694              		.syntax unified
 1695              		.code	16
 1696              		.thumb_func
 1697              		.fpu softvfp
 1698              		.type	LPM_EnterSleepMode, %function
 1699              	LPM_EnterSleepMode:
 1700              	.LFB54:
 518:../Core/src/mlm32l0xx_hw.c **** 
 519:../Core/src/mlm32l0xx_hw.c **** /**
 520:../Core/src/mlm32l0xx_hw.c ****   * @brief Enters Low Power Sleep Mode
 521:../Core/src/mlm32l0xx_hw.c ****   * @note ARM exits the function when waking up
 522:../Core/src/mlm32l0xx_hw.c ****   * @param none
 523:../Core/src/mlm32l0xx_hw.c ****   * @retval none
 524:../Core/src/mlm32l0xx_hw.c ****   */
 525:../Core/src/mlm32l0xx_hw.c **** void LPM_EnterSleepMode( void)
 526:../Core/src/mlm32l0xx_hw.c **** {
 1701              		.loc 1 526 0
 1702              		.cfi_startproc
 1703              		@ args = 0, pretend = 0, frame = 0
 1704              		@ frame_needed = 0, uses_anonymous_args = 0
 1705 0000 10B5     		push	{r4, lr}
 1706              	.LCFI20:
 1707              		.cfi_def_cfa_offset 8
 1708              		.cfi_offset 4, -8
 1709              		.cfi_offset 14, -4
 527:../Core/src/mlm32l0xx_hw.c ****     HAL_PWR_EnterSLEEPMode(PWR_MAINREGULATOR_ON, PWR_SLEEPENTRY_WFI);
 1710              		.loc 1 527 0
 1711 0002 0121     		movs	r1, #1
 1712 0004 0020     		movs	r0, #0
ARM GAS  C:\Users\EBANO_~1\AppData\Local\Temp\ccsZgiNd.s 			page 51


 1713 0006 FFF7FEFF 		bl	HAL_PWR_EnterSLEEPMode
 1714              	.LVL90:
 528:../Core/src/mlm32l0xx_hw.c **** }
 1715              		.loc 1 528 0
 1716              		@ sp needed
 1717 000a 10BD     		pop	{r4, pc}
 1718              		.cfi_endproc
 1719              	.LFE54:
 1720              		.size	LPM_EnterSleepMode, .-LPM_EnterSleepMode
 1721              		.bss
 1722              		.align	2
 1723              		.set	.LANCHOR0,. + 0
 1724              		.type	McuInitialized, %object
 1725              		.size	McuInitialized, 1
 1726              	McuInitialized:
 1727 0000 00       		.space	1
 1728              		.type	AdcInitialized, %object
 1729              		.size	AdcInitialized, 1
 1730              	AdcInitialized:
 1731 0001 00       		.space	1
 1732 0002 0000     		.space	2
 1733              		.type	hadc, %object
 1734              		.size	hadc, 96
 1735              	hadc:
 1736 0004 00000000 		.space	96
 1736      00000000 
 1736      00000000 
 1736      00000000 
 1736      00000000 
 1737              		.text
 1738              	.Letext0:
 1739              		.file 3 "c:\\program files (x86)\\gnu tools arm embedded\\7 2018-q2-update\\arm-none-eabi\\include
 1740              		.file 4 "c:\\program files (x86)\\gnu tools arm embedded\\7 2018-q2-update\\arm-none-eabi\\include
 1741              		.file 5 "c:\\program files (x86)\\gnu tools arm embedded\\7 2018-q2-update\\arm-none-eabi\\include
 1742              		.file 6 "c:\\program files (x86)\\gnu tools arm embedded\\7 2018-q2-update\\lib\\gcc\\arm-none-eab
 1743              		.file 7 "c:\\program files (x86)\\gnu tools arm embedded\\7 2018-q2-update\\arm-none-eabi\\include
 1744              		.file 8 "c:\\program files (x86)\\gnu tools arm embedded\\7 2018-q2-update\\arm-none-eabi\\include
 1745              		.file 9 "c:\\program files (x86)\\gnu tools arm embedded\\7 2018-q2-update\\arm-none-eabi\\include
 1746              		.file 10 "../../../../../../Drivers/CMSIS/Device/ST/STM32L0xx/Include/system_stm32l0xx.h"
 1747              		.file 11 "../../../../../../Drivers/CMSIS/Device/ST/STM32L0xx/Include/stm32l072xx.h"
 1748              		.file 12 "../../../../../../Drivers/CMSIS/Device/ST/STM32L0xx/Include/stm32l0xx.h"
 1749              		.file 13 "../../../../../../Drivers/STM32L0xx_HAL_Driver/Inc/stm32l0xx_hal_def.h"
 1750              		.file 14 "../../../../../../Drivers/STM32L0xx_HAL_Driver/Inc/stm32l0xx_hal_rcc.h"
 1751              		.file 15 "../../../../../../Drivers/STM32L0xx_HAL_Driver/Inc/stm32l0xx_hal_gpio.h"
 1752              		.file 16 "../../../../../../Drivers/STM32L0xx_HAL_Driver/Inc/stm32l0xx_hal_dma.h"
 1753              		.file 17 "../../../../../../Drivers/STM32L0xx_HAL_Driver/Inc/stm32l0xx_hal_adc.h"
 1754              		.file 18 "c:\\program files (x86)\\gnu tools arm embedded\\7 2018-q2-update\\arm-none-eabi\\includ
 1755              		.file 19 "../../../../../../Drivers/BSP/B-L072Z-LRWAN1/b-l072z-lrwan1.h"
 1756              		.file 20 "c:\\program files (x86)\\gnu tools arm embedded\\7 2018-q2-update\\arm-none-eabi\\includ
 1757              		.file 21 "../../../../../../Middlewares/Third_Party/LoRaWAN/Phy/radio.h"
 1758              		.file 22 "../../../../../../Drivers/STM32L0xx_HAL_Driver/Inc/stm32l0xx_hal_pwr.h"
 1759              		.file 23 "../LoRaWAN/App/inc/hw_spi.h"
 1760              		.file 24 "../LoRaWAN/App/inc/vcom.h"
 1761              		.file 25 "../LoRaWAN/App/inc/hw_gpio.h"
 1762              		.file 26 "../../../../../../Drivers/STM32L0xx_HAL_Driver/Inc/stm32l0xx_hal_adc_ex.h"
 1763              		.file 27 "../LoRaWAN/App/inc/debug.h"
 1764              		.file 28 "../LoRaWAN/App/inc/hw_rtc.h"
ARM GAS  C:\Users\EBANO_~1\AppData\Local\Temp\ccsZgiNd.s 			page 52


 1765              		.file 29 "../../../../../../Middlewares/Third_Party/LoRaWAN/Utilities/trace.h"
 1766              		.file 30 "../LoRaWAN/App/inc/bsp.h"
 1767              		.file 31 "<built-in>"
 1768              		.section	.debug_info,"",%progbits
 1769              	.Ldebug_info0:
 1770 0000 41250000 		.4byte	0x2541
 1771 0004 0200     		.2byte	0x2
 1772 0006 00000000 		.4byte	.Ldebug_abbrev0
 1773 000a 04       		.byte	0x4
 1774 000b 01       		.uleb128 0x1
 1775 000c 030F0000 		.4byte	.LASF390
 1776 0010 0C       		.byte	0xc
 1777 0011 21080000 		.4byte	.LASF391
 1778 0015 93040000 		.4byte	.LASF392
 1779 0019 D0000000 		.4byte	.Ldebug_ranges0+0xd0
 1780 001d 00000000 		.4byte	0
 1781 0021 00000000 		.4byte	0
 1782 0025 00000000 		.4byte	.Ldebug_line0
 1783 0029 02       		.uleb128 0x2
 1784 002a 04       		.byte	0x4
 1785 002b 05       		.byte	0x5
 1786 002c 696E7400 		.ascii	"int\000"
 1787 0030 03       		.uleb128 0x3
 1788 0031 04       		.byte	0x4
 1789 0032 07       		.byte	0x7
 1790 0033 6E090000 		.4byte	.LASF0
 1791 0037 03       		.uleb128 0x3
 1792 0038 08       		.byte	0x8
 1793 0039 05       		.byte	0x5
 1794 003a 76080000 		.4byte	.LASF1
 1795 003e 03       		.uleb128 0x3
 1796 003f 08       		.byte	0x8
 1797 0040 04       		.byte	0x4
 1798 0041 3B0B0000 		.4byte	.LASF2
 1799 0045 04       		.uleb128 0x4
 1800 0046 F60B0000 		.4byte	.LASF4
 1801 004a 03       		.byte	0x3
 1802 004b 29       		.byte	0x29
 1803 004c 50000000 		.4byte	0x50
 1804 0050 03       		.uleb128 0x3
 1805 0051 01       		.byte	0x1
 1806 0052 06       		.byte	0x6
 1807 0053 33030000 		.4byte	.LASF3
 1808 0057 04       		.uleb128 0x4
 1809 0058 24020000 		.4byte	.LASF5
 1810 005c 03       		.byte	0x3
 1811 005d 2B       		.byte	0x2b
 1812 005e 62000000 		.4byte	0x62
 1813 0062 03       		.uleb128 0x3
 1814 0063 01       		.byte	0x1
 1815 0064 08       		.byte	0x8
 1816 0065 91030000 		.4byte	.LASF6
 1817 0069 04       		.uleb128 0x4
 1818 006a 670D0000 		.4byte	.LASF7
 1819 006e 03       		.byte	0x3
 1820 006f 37       		.byte	0x37
 1821 0070 74000000 		.4byte	0x74
ARM GAS  C:\Users\EBANO_~1\AppData\Local\Temp\ccsZgiNd.s 			page 53


 1822 0074 03       		.uleb128 0x3
 1823 0075 02       		.byte	0x2
 1824 0076 05       		.byte	0x5
 1825 0077 B80E0000 		.4byte	.LASF8
 1826 007b 04       		.uleb128 0x4
 1827 007c 88040000 		.4byte	.LASF9
 1828 0080 03       		.byte	0x3
 1829 0081 39       		.byte	0x39
 1830 0082 86000000 		.4byte	0x86
 1831 0086 03       		.uleb128 0x3
 1832 0087 02       		.byte	0x2
 1833 0088 07       		.byte	0x7
 1834 0089 50110000 		.4byte	.LASF10
 1835 008d 04       		.uleb128 0x4
 1836 008e F6110000 		.4byte	.LASF11
 1837 0092 03       		.byte	0x3
 1838 0093 4D       		.byte	0x4d
 1839 0094 98000000 		.4byte	0x98
 1840 0098 03       		.uleb128 0x3
 1841 0099 04       		.byte	0x4
 1842 009a 05       		.byte	0x5
 1843 009b 80020000 		.4byte	.LASF12
 1844 009f 04       		.uleb128 0x4
 1845 00a0 60080000 		.4byte	.LASF13
 1846 00a4 03       		.byte	0x3
 1847 00a5 4F       		.byte	0x4f
 1848 00a6 AA000000 		.4byte	0xaa
 1849 00aa 03       		.uleb128 0x3
 1850 00ab 04       		.byte	0x4
 1851 00ac 07       		.byte	0x7
 1852 00ad 07070000 		.4byte	.LASF14
 1853 00b1 03       		.uleb128 0x3
 1854 00b2 08       		.byte	0x8
 1855 00b3 07       		.byte	0x7
 1856 00b4 070C0000 		.4byte	.LASF15
 1857 00b8 04       		.uleb128 0x4
 1858 00b9 87100000 		.4byte	.LASF16
 1859 00bd 04       		.byte	0x4
 1860 00be 22       		.byte	0x22
 1861 00bf C3000000 		.4byte	0xc3
 1862 00c3 05       		.uleb128 0x5
 1863 00c4 04       		.byte	0x4
 1864 00c5 C9000000 		.4byte	0xc9
 1865 00c9 06       		.uleb128 0x6
 1866 00ca 03060000 		.4byte	.LASF123
 1867 00ce 01       		.byte	0x1
 1868 00cf 04       		.uleb128 0x4
 1869 00d0 0A110000 		.4byte	.LASF17
 1870 00d4 05       		.byte	0x5
 1871 00d5 2C       		.byte	0x2c
 1872 00d6 98000000 		.4byte	0x98
 1873 00da 04       		.uleb128 0x4
 1874 00db 890B0000 		.4byte	.LASF18
 1875 00df 05       		.byte	0x5
 1876 00e0 72       		.byte	0x72
 1877 00e1 98000000 		.4byte	0x98
 1878 00e5 07       		.uleb128 0x7
ARM GAS  C:\Users\EBANO_~1\AppData\Local\Temp\ccsZgiNd.s 			page 54


 1879 00e6 8F0D0000 		.4byte	.LASF19
 1880 00ea 06       		.byte	0x6
 1881 00eb 6501     		.2byte	0x165
 1882 00ed 30000000 		.4byte	0x30
 1883 00f1 08       		.uleb128 0x8
 1884 00f2 04       		.byte	0x4
 1885 00f3 05       		.byte	0x5
 1886 00f4 A6       		.byte	0xa6
 1887 00f5 10010000 		.4byte	0x110
 1888 00f9 09       		.uleb128 0x9
 1889 00fa 1E020000 		.4byte	.LASF20
 1890 00fe 05       		.byte	0x5
 1891 00ff A8       		.byte	0xa8
 1892 0100 E5000000 		.4byte	0xe5
 1893 0104 09       		.uleb128 0x9
 1894 0105 9A0B0000 		.4byte	.LASF21
 1895 0109 05       		.byte	0x5
 1896 010a A9       		.byte	0xa9
 1897 010b 10010000 		.4byte	0x110
 1898 010f 00       		.byte	0
 1899 0110 0A       		.uleb128 0xa
 1900 0111 62000000 		.4byte	0x62
 1901 0115 20010000 		.4byte	0x120
 1902 0119 0B       		.uleb128 0xb
 1903 011a 30000000 		.4byte	0x30
 1904 011e 03       		.byte	0x3
 1905 011f 00       		.byte	0
 1906 0120 0C       		.uleb128 0xc
 1907 0121 08       		.byte	0x8
 1908 0122 05       		.byte	0x5
 1909 0123 A3       		.byte	0xa3
 1910 0124 45010000 		.4byte	0x145
 1911 0128 0D       		.uleb128 0xd
 1912 0129 EF0A0000 		.4byte	.LASF22
 1913 012d 05       		.byte	0x5
 1914 012e A5       		.byte	0xa5
 1915 012f 29000000 		.4byte	0x29
 1916 0133 02       		.byte	0x2
 1917 0134 23       		.byte	0x23
 1918 0135 00       		.uleb128 0
 1919 0136 0D       		.uleb128 0xd
 1920 0137 48000000 		.4byte	.LASF23
 1921 013b 05       		.byte	0x5
 1922 013c AA       		.byte	0xaa
 1923 013d F1000000 		.4byte	0xf1
 1924 0141 02       		.byte	0x2
 1925 0142 23       		.byte	0x23
 1926 0143 04       		.uleb128 0x4
 1927 0144 00       		.byte	0
 1928 0145 04       		.uleb128 0x4
 1929 0146 770D0000 		.4byte	.LASF24
 1930 014a 05       		.byte	0x5
 1931 014b AB       		.byte	0xab
 1932 014c 20010000 		.4byte	0x120
 1933 0150 04       		.uleb128 0x4
 1934 0151 510D0000 		.4byte	.LASF25
 1935 0155 05       		.byte	0x5
ARM GAS  C:\Users\EBANO_~1\AppData\Local\Temp\ccsZgiNd.s 			page 55


 1936 0156 AF       		.byte	0xaf
 1937 0157 B8000000 		.4byte	0xb8
 1938 015b 0E       		.uleb128 0xe
 1939 015c 04       		.byte	0x4
 1940 015d 05       		.uleb128 0x5
 1941 015e 04       		.byte	0x4
 1942 015f 63010000 		.4byte	0x163
 1943 0163 03       		.uleb128 0x3
 1944 0164 01       		.byte	0x1
 1945 0165 08       		.byte	0x8
 1946 0166 68040000 		.4byte	.LASF26
 1947 016a 0F       		.uleb128 0xf
 1948 016b 63010000 		.4byte	0x163
 1949 016f 04       		.uleb128 0x4
 1950 0170 C1100000 		.4byte	.LASF27
 1951 0174 07       		.byte	0x7
 1952 0175 16       		.byte	0x16
 1953 0176 AA000000 		.4byte	0xaa
 1954 017a 10       		.uleb128 0x10
 1955 017b D9070000 		.4byte	.LASF32
 1956 017f 18       		.byte	0x18
 1957 0180 07       		.byte	0x7
 1958 0181 2F       		.byte	0x2f
 1959 0182 D9010000 		.4byte	0x1d9
 1960 0186 0D       		.uleb128 0xd
 1961 0187 9D0D0000 		.4byte	.LASF28
 1962 018b 07       		.byte	0x7
 1963 018c 31       		.byte	0x31
 1964 018d D9010000 		.4byte	0x1d9
 1965 0191 02       		.byte	0x2
 1966 0192 23       		.byte	0x23
 1967 0193 00       		.uleb128 0
 1968 0194 11       		.uleb128 0x11
 1969 0195 5F6B00   		.ascii	"_k\000"
 1970 0198 07       		.byte	0x7
 1971 0199 32       		.byte	0x32
 1972 019a 29000000 		.4byte	0x29
 1973 019e 02       		.byte	0x2
 1974 019f 23       		.byte	0x23
 1975 01a0 04       		.uleb128 0x4
 1976 01a1 0D       		.uleb128 0xd
 1977 01a2 E1070000 		.4byte	.LASF29
 1978 01a6 07       		.byte	0x7
 1979 01a7 32       		.byte	0x32
 1980 01a8 29000000 		.4byte	0x29
 1981 01ac 02       		.byte	0x2
 1982 01ad 23       		.byte	0x23
 1983 01ae 08       		.uleb128 0x8
 1984 01af 0D       		.uleb128 0xd
 1985 01b0 15090000 		.4byte	.LASF30
 1986 01b4 07       		.byte	0x7
 1987 01b5 32       		.byte	0x32
 1988 01b6 29000000 		.4byte	0x29
 1989 01ba 02       		.byte	0x2
 1990 01bb 23       		.byte	0x23
 1991 01bc 0C       		.uleb128 0xc
 1992 01bd 0D       		.uleb128 0xd
ARM GAS  C:\Users\EBANO_~1\AppData\Local\Temp\ccsZgiNd.s 			page 56


 1993 01be F8050000 		.4byte	.LASF31
 1994 01c2 07       		.byte	0x7
 1995 01c3 32       		.byte	0x32
 1996 01c4 29000000 		.4byte	0x29
 1997 01c8 02       		.byte	0x2
 1998 01c9 23       		.byte	0x23
 1999 01ca 10       		.uleb128 0x10
 2000 01cb 11       		.uleb128 0x11
 2001 01cc 5F7800   		.ascii	"_x\000"
 2002 01cf 07       		.byte	0x7
 2003 01d0 33       		.byte	0x33
 2004 01d1 DF010000 		.4byte	0x1df
 2005 01d5 02       		.byte	0x2
 2006 01d6 23       		.byte	0x23
 2007 01d7 14       		.uleb128 0x14
 2008 01d8 00       		.byte	0
 2009 01d9 05       		.uleb128 0x5
 2010 01da 04       		.byte	0x4
 2011 01db 7A010000 		.4byte	0x17a
 2012 01df 0A       		.uleb128 0xa
 2013 01e0 6F010000 		.4byte	0x16f
 2014 01e4 EF010000 		.4byte	0x1ef
 2015 01e8 0B       		.uleb128 0xb
 2016 01e9 30000000 		.4byte	0x30
 2017 01ed 00       		.byte	0
 2018 01ee 00       		.byte	0
 2019 01ef 10       		.uleb128 0x10
 2020 01f0 06010000 		.4byte	.LASF33
 2021 01f4 24       		.byte	0x24
 2022 01f5 07       		.byte	0x7
 2023 01f6 37       		.byte	0x37
 2024 01f7 7A020000 		.4byte	0x27a
 2025 01fb 0D       		.uleb128 0xd
 2026 01fc 22010000 		.4byte	.LASF34
 2027 0200 07       		.byte	0x7
 2028 0201 39       		.byte	0x39
 2029 0202 29000000 		.4byte	0x29
 2030 0206 02       		.byte	0x2
 2031 0207 23       		.byte	0x23
 2032 0208 00       		.uleb128 0
 2033 0209 0D       		.uleb128 0xd
 2034 020a 66120000 		.4byte	.LASF35
 2035 020e 07       		.byte	0x7
 2036 020f 3A       		.byte	0x3a
 2037 0210 29000000 		.4byte	0x29
 2038 0214 02       		.byte	0x2
 2039 0215 23       		.byte	0x23
 2040 0216 04       		.uleb128 0x4
 2041 0217 0D       		.uleb128 0xd
 2042 0218 72110000 		.4byte	.LASF36
 2043 021c 07       		.byte	0x7
 2044 021d 3B       		.byte	0x3b
 2045 021e 29000000 		.4byte	0x29
 2046 0222 02       		.byte	0x2
 2047 0223 23       		.byte	0x23
 2048 0224 08       		.uleb128 0x8
 2049 0225 0D       		.uleb128 0xd
ARM GAS  C:\Users\EBANO_~1\AppData\Local\Temp\ccsZgiNd.s 			page 57


 2050 0226 0A0A0000 		.4byte	.LASF37
 2051 022a 07       		.byte	0x7
 2052 022b 3C       		.byte	0x3c
 2053 022c 29000000 		.4byte	0x29
 2054 0230 02       		.byte	0x2
 2055 0231 23       		.byte	0x23
 2056 0232 0C       		.uleb128 0xc
 2057 0233 0D       		.uleb128 0xd
 2058 0234 EB020000 		.4byte	.LASF38
 2059 0238 07       		.byte	0x7
 2060 0239 3D       		.byte	0x3d
 2061 023a 29000000 		.4byte	0x29
 2062 023e 02       		.byte	0x2
 2063 023f 23       		.byte	0x23
 2064 0240 10       		.uleb128 0x10
 2065 0241 0D       		.uleb128 0xd
 2066 0242 C70F0000 		.4byte	.LASF39
 2067 0246 07       		.byte	0x7
 2068 0247 3E       		.byte	0x3e
 2069 0248 29000000 		.4byte	0x29
 2070 024c 02       		.byte	0x2
 2071 024d 23       		.byte	0x23
 2072 024e 14       		.uleb128 0x14
 2073 024f 0D       		.uleb128 0xd
 2074 0250 170B0000 		.4byte	.LASF40
 2075 0254 07       		.byte	0x7
 2076 0255 3F       		.byte	0x3f
 2077 0256 29000000 		.4byte	0x29
 2078 025a 02       		.byte	0x2
 2079 025b 23       		.byte	0x23
 2080 025c 18       		.uleb128 0x18
 2081 025d 0D       		.uleb128 0xd
 2082 025e 470B0000 		.4byte	.LASF41
 2083 0262 07       		.byte	0x7
 2084 0263 40       		.byte	0x40
 2085 0264 29000000 		.4byte	0x29
 2086 0268 02       		.byte	0x2
 2087 0269 23       		.byte	0x23
 2088 026a 1C       		.uleb128 0x1c
 2089 026b 0D       		.uleb128 0xd
 2090 026c 2C120000 		.4byte	.LASF42
 2091 0270 07       		.byte	0x7
 2092 0271 41       		.byte	0x41
 2093 0272 29000000 		.4byte	0x29
 2094 0276 02       		.byte	0x2
 2095 0277 23       		.byte	0x23
 2096 0278 20       		.uleb128 0x20
 2097 0279 00       		.byte	0
 2098 027a 12       		.uleb128 0x12
 2099 027b 3B020000 		.4byte	.LASF43
 2100 027f 0801     		.2byte	0x108
 2101 0281 07       		.byte	0x7
 2102 0282 4A       		.byte	0x4a
 2103 0283 C3020000 		.4byte	0x2c3
 2104 0287 0D       		.uleb128 0xd
 2105 0288 24120000 		.4byte	.LASF44
 2106 028c 07       		.byte	0x7
ARM GAS  C:\Users\EBANO_~1\AppData\Local\Temp\ccsZgiNd.s 			page 58


 2107 028d 4B       		.byte	0x4b
 2108 028e C3020000 		.4byte	0x2c3
 2109 0292 02       		.byte	0x2
 2110 0293 23       		.byte	0x23
 2111 0294 00       		.uleb128 0
 2112 0295 0D       		.uleb128 0xd
 2113 0296 4A0C0000 		.4byte	.LASF45
 2114 029a 07       		.byte	0x7
 2115 029b 4C       		.byte	0x4c
 2116 029c C3020000 		.4byte	0x2c3
 2117 02a0 03       		.byte	0x3
 2118 02a1 23       		.byte	0x23
 2119 02a2 8001     		.uleb128 0x80
 2120 02a4 0D       		.uleb128 0xd
 2121 02a5 AD0F0000 		.4byte	.LASF46
 2122 02a9 07       		.byte	0x7
 2123 02aa 4E       		.byte	0x4e
 2124 02ab 6F010000 		.4byte	0x16f
 2125 02af 03       		.byte	0x3
 2126 02b0 23       		.byte	0x23
 2127 02b1 8002     		.uleb128 0x100
 2128 02b3 0D       		.uleb128 0xd
 2129 02b4 7F100000 		.4byte	.LASF47
 2130 02b8 07       		.byte	0x7
 2131 02b9 51       		.byte	0x51
 2132 02ba 6F010000 		.4byte	0x16f
 2133 02be 03       		.byte	0x3
 2134 02bf 23       		.byte	0x23
 2135 02c0 8402     		.uleb128 0x104
 2136 02c2 00       		.byte	0
 2137 02c3 0A       		.uleb128 0xa
 2138 02c4 5B010000 		.4byte	0x15b
 2139 02c8 D3020000 		.4byte	0x2d3
 2140 02cc 0B       		.uleb128 0xb
 2141 02cd 30000000 		.4byte	0x30
 2142 02d1 1F       		.byte	0x1f
 2143 02d2 00       		.byte	0
 2144 02d3 12       		.uleb128 0x12
 2145 02d4 B70A0000 		.4byte	.LASF48
 2146 02d8 9001     		.2byte	0x190
 2147 02da 07       		.byte	0x7
 2148 02db 5D       		.byte	0x5d
 2149 02dc 1A030000 		.4byte	0x31a
 2150 02e0 0D       		.uleb128 0xd
 2151 02e1 9D0D0000 		.4byte	.LASF28
 2152 02e5 07       		.byte	0x7
 2153 02e6 5E       		.byte	0x5e
 2154 02e7 1A030000 		.4byte	0x31a
 2155 02eb 02       		.byte	0x2
 2156 02ec 23       		.byte	0x23
 2157 02ed 00       		.uleb128 0
 2158 02ee 0D       		.uleb128 0xd
 2159 02ef 46100000 		.4byte	.LASF49
 2160 02f3 07       		.byte	0x7
 2161 02f4 5F       		.byte	0x5f
 2162 02f5 29000000 		.4byte	0x29
 2163 02f9 02       		.byte	0x2
ARM GAS  C:\Users\EBANO_~1\AppData\Local\Temp\ccsZgiNd.s 			page 59


 2164 02fa 23       		.byte	0x23
 2165 02fb 04       		.uleb128 0x4
 2166 02fc 0D       		.uleb128 0xd
 2167 02fd 7C040000 		.4byte	.LASF50
 2168 0301 07       		.byte	0x7
 2169 0302 61       		.byte	0x61
 2170 0303 20030000 		.4byte	0x320
 2171 0307 02       		.byte	0x2
 2172 0308 23       		.byte	0x23
 2173 0309 08       		.uleb128 0x8
 2174 030a 0D       		.uleb128 0xd
 2175 030b 3B020000 		.4byte	.LASF43
 2176 030f 07       		.byte	0x7
 2177 0310 62       		.byte	0x62
 2178 0311 7A020000 		.4byte	0x27a
 2179 0315 03       		.byte	0x3
 2180 0316 23       		.byte	0x23
 2181 0317 8801     		.uleb128 0x88
 2182 0319 00       		.byte	0
 2183 031a 05       		.uleb128 0x5
 2184 031b 04       		.byte	0x4
 2185 031c D3020000 		.4byte	0x2d3
 2186 0320 0A       		.uleb128 0xa
 2187 0321 30030000 		.4byte	0x330
 2188 0325 30030000 		.4byte	0x330
 2189 0329 0B       		.uleb128 0xb
 2190 032a 30000000 		.4byte	0x30
 2191 032e 1F       		.byte	0x1f
 2192 032f 00       		.byte	0
 2193 0330 05       		.uleb128 0x5
 2194 0331 04       		.byte	0x4
 2195 0332 36030000 		.4byte	0x336
 2196 0336 13       		.uleb128 0x13
 2197 0337 01       		.byte	0x1
 2198 0338 10       		.uleb128 0x10
 2199 0339 78100000 		.4byte	.LASF51
 2200 033d 08       		.byte	0x8
 2201 033e 07       		.byte	0x7
 2202 033f 75       		.byte	0x75
 2203 0340 61030000 		.4byte	0x361
 2204 0344 0D       		.uleb128 0xd
 2205 0345 FD0C0000 		.4byte	.LASF52
 2206 0349 07       		.byte	0x7
 2207 034a 76       		.byte	0x76
 2208 034b 61030000 		.4byte	0x361
 2209 034f 02       		.byte	0x2
 2210 0350 23       		.byte	0x23
 2211 0351 00       		.uleb128 0
 2212 0352 0D       		.uleb128 0xd
 2213 0353 9F020000 		.4byte	.LASF53
 2214 0357 07       		.byte	0x7
 2215 0358 77       		.byte	0x77
 2216 0359 29000000 		.4byte	0x29
 2217 035d 02       		.byte	0x2
 2218 035e 23       		.byte	0x23
 2219 035f 04       		.uleb128 0x4
 2220 0360 00       		.byte	0
ARM GAS  C:\Users\EBANO_~1\AppData\Local\Temp\ccsZgiNd.s 			page 60


 2221 0361 05       		.uleb128 0x5
 2222 0362 04       		.byte	0x4
 2223 0363 62000000 		.4byte	0x62
 2224 0367 10       		.uleb128 0x10
 2225 0368 51070000 		.4byte	.LASF54
 2226 036c 68       		.byte	0x68
 2227 036d 07       		.byte	0x7
 2228 036e B5       		.byte	0xb5
 2229 036f C1040000 		.4byte	0x4c1
 2230 0373 11       		.uleb128 0x11
 2231 0374 5F7000   		.ascii	"_p\000"
 2232 0377 07       		.byte	0x7
 2233 0378 B6       		.byte	0xb6
 2234 0379 61030000 		.4byte	0x361
 2235 037d 02       		.byte	0x2
 2236 037e 23       		.byte	0x23
 2237 037f 00       		.uleb128 0
 2238 0380 11       		.uleb128 0x11
 2239 0381 5F7200   		.ascii	"_r\000"
 2240 0384 07       		.byte	0x7
 2241 0385 B7       		.byte	0xb7
 2242 0386 29000000 		.4byte	0x29
 2243 038a 02       		.byte	0x2
 2244 038b 23       		.byte	0x23
 2245 038c 04       		.uleb128 0x4
 2246 038d 11       		.uleb128 0x11
 2247 038e 5F7700   		.ascii	"_w\000"
 2248 0391 07       		.byte	0x7
 2249 0392 B8       		.byte	0xb8
 2250 0393 29000000 		.4byte	0x29
 2251 0397 02       		.byte	0x2
 2252 0398 23       		.byte	0x23
 2253 0399 08       		.uleb128 0x8
 2254 039a 0D       		.uleb128 0xd
 2255 039b 840A0000 		.4byte	.LASF55
 2256 039f 07       		.byte	0x7
 2257 03a0 B9       		.byte	0xb9
 2258 03a1 74000000 		.4byte	0x74
 2259 03a5 02       		.byte	0x2
 2260 03a6 23       		.byte	0x23
 2261 03a7 0C       		.uleb128 0xc
 2262 03a8 0D       		.uleb128 0xd
 2263 03a9 2E020000 		.4byte	.LASF56
 2264 03ad 07       		.byte	0x7
 2265 03ae BA       		.byte	0xba
 2266 03af 74000000 		.4byte	0x74
 2267 03b3 02       		.byte	0x2
 2268 03b4 23       		.byte	0x23
 2269 03b5 0E       		.uleb128 0xe
 2270 03b6 11       		.uleb128 0x11
 2271 03b7 5F626600 		.ascii	"_bf\000"
 2272 03bb 07       		.byte	0x7
 2273 03bc BB       		.byte	0xbb
 2274 03bd 38030000 		.4byte	0x338
 2275 03c1 02       		.byte	0x2
 2276 03c2 23       		.byte	0x23
 2277 03c3 10       		.uleb128 0x10
ARM GAS  C:\Users\EBANO_~1\AppData\Local\Temp\ccsZgiNd.s 			page 61


 2278 03c4 0D       		.uleb128 0xd
 2279 03c5 38100000 		.4byte	.LASF57
 2280 03c9 07       		.byte	0x7
 2281 03ca BC       		.byte	0xbc
 2282 03cb 29000000 		.4byte	0x29
 2283 03cf 02       		.byte	0x2
 2284 03d0 23       		.byte	0x23
 2285 03d1 18       		.uleb128 0x18
 2286 03d2 0D       		.uleb128 0xd
 2287 03d3 F0050000 		.4byte	.LASF58
 2288 03d7 07       		.byte	0x7
 2289 03d8 C3       		.byte	0xc3
 2290 03d9 5B010000 		.4byte	0x15b
 2291 03dd 02       		.byte	0x2
 2292 03de 23       		.byte	0x23
 2293 03df 1C       		.uleb128 0x1c
 2294 03e0 0D       		.uleb128 0xd
 2295 03e1 5D000000 		.4byte	.LASF59
 2296 03e5 07       		.byte	0x7
 2297 03e6 C5       		.byte	0xc5
 2298 03e7 49060000 		.4byte	0x649
 2299 03eb 02       		.byte	0x2
 2300 03ec 23       		.byte	0x23
 2301 03ed 20       		.uleb128 0x20
 2302 03ee 0D       		.uleb128 0xd
 2303 03ef B9000000 		.4byte	.LASF60
 2304 03f3 07       		.byte	0x7
 2305 03f4 C7       		.byte	0xc7
 2306 03f5 74060000 		.4byte	0x674
 2307 03f9 02       		.byte	0x2
 2308 03fa 23       		.byte	0x23
 2309 03fb 24       		.uleb128 0x24
 2310 03fc 0D       		.uleb128 0xd
 2311 03fd 830B0000 		.4byte	.LASF61
 2312 0401 07       		.byte	0x7
 2313 0402 CA       		.byte	0xca
 2314 0403 99060000 		.4byte	0x699
 2315 0407 02       		.byte	0x2
 2316 0408 23       		.byte	0x23
 2317 0409 28       		.uleb128 0x28
 2318 040a 0D       		.uleb128 0xd
 2319 040b 81040000 		.4byte	.LASF62
 2320 040f 07       		.byte	0x7
 2321 0410 CB       		.byte	0xcb
 2322 0411 B4060000 		.4byte	0x6b4
 2323 0415 02       		.byte	0x2
 2324 0416 23       		.byte	0x23
 2325 0417 2C       		.uleb128 0x2c
 2326 0418 11       		.uleb128 0x11
 2327 0419 5F756200 		.ascii	"_ub\000"
 2328 041d 07       		.byte	0x7
 2329 041e CE       		.byte	0xce
 2330 041f 38030000 		.4byte	0x338
 2331 0423 02       		.byte	0x2
 2332 0424 23       		.byte	0x23
 2333 0425 30       		.uleb128 0x30
 2334 0426 11       		.uleb128 0x11
ARM GAS  C:\Users\EBANO_~1\AppData\Local\Temp\ccsZgiNd.s 			page 62


 2335 0427 5F757000 		.ascii	"_up\000"
 2336 042b 07       		.byte	0x7
 2337 042c CF       		.byte	0xcf
 2338 042d 61030000 		.4byte	0x361
 2339 0431 02       		.byte	0x2
 2340 0432 23       		.byte	0x23
 2341 0433 38       		.uleb128 0x38
 2342 0434 11       		.uleb128 0x11
 2343 0435 5F757200 		.ascii	"_ur\000"
 2344 0439 07       		.byte	0x7
 2345 043a D0       		.byte	0xd0
 2346 043b 29000000 		.4byte	0x29
 2347 043f 02       		.byte	0x2
 2348 0440 23       		.byte	0x23
 2349 0441 3C       		.uleb128 0x3c
 2350 0442 0D       		.uleb128 0xd
 2351 0443 2C0A0000 		.4byte	.LASF63
 2352 0447 07       		.byte	0x7
 2353 0448 D3       		.byte	0xd3
 2354 0449 BA060000 		.4byte	0x6ba
 2355 044d 02       		.byte	0x2
 2356 044e 23       		.byte	0x23
 2357 044f 40       		.uleb128 0x40
 2358 0450 0D       		.uleb128 0xd
 2359 0451 1C010000 		.4byte	.LASF64
 2360 0455 07       		.byte	0x7
 2361 0456 D4       		.byte	0xd4
 2362 0457 CA060000 		.4byte	0x6ca
 2363 045b 02       		.byte	0x2
 2364 045c 23       		.byte	0x23
 2365 045d 43       		.uleb128 0x43
 2366 045e 11       		.uleb128 0x11
 2367 045f 5F6C6200 		.ascii	"_lb\000"
 2368 0463 07       		.byte	0x7
 2369 0464 D7       		.byte	0xd7
 2370 0465 38030000 		.4byte	0x338
 2371 0469 02       		.byte	0x2
 2372 046a 23       		.byte	0x23
 2373 046b 44       		.uleb128 0x44
 2374 046c 0D       		.uleb128 0xd
 2375 046d CF0C0000 		.4byte	.LASF65
 2376 0471 07       		.byte	0x7
 2377 0472 DA       		.byte	0xda
 2378 0473 29000000 		.4byte	0x29
 2379 0477 02       		.byte	0x2
 2380 0478 23       		.byte	0x23
 2381 0479 4C       		.uleb128 0x4c
 2382 047a 0D       		.uleb128 0xd
 2383 047b 44060000 		.4byte	.LASF66
 2384 047f 07       		.byte	0x7
 2385 0480 DB       		.byte	0xdb
 2386 0481 CF000000 		.4byte	0xcf
 2387 0485 02       		.byte	0x2
 2388 0486 23       		.byte	0x23
 2389 0487 50       		.uleb128 0x50
 2390 0488 0D       		.uleb128 0xd
 2391 0489 BE0D0000 		.4byte	.LASF67
ARM GAS  C:\Users\EBANO_~1\AppData\Local\Temp\ccsZgiNd.s 			page 63


 2392 048d 07       		.byte	0x7
 2393 048e DE       		.byte	0xde
 2394 048f E0040000 		.4byte	0x4e0
 2395 0493 02       		.byte	0x2
 2396 0494 23       		.byte	0x23
 2397 0495 54       		.uleb128 0x54
 2398 0496 0D       		.uleb128 0xd
 2399 0497 7B010000 		.4byte	.LASF68
 2400 049b 07       		.byte	0x7
 2401 049c E2       		.byte	0xe2
 2402 049d 50010000 		.4byte	0x150
 2403 04a1 02       		.byte	0x2
 2404 04a2 23       		.byte	0x23
 2405 04a3 58       		.uleb128 0x58
 2406 04a4 0D       		.uleb128 0xd
 2407 04a5 4D0A0000 		.4byte	.LASF69
 2408 04a9 07       		.byte	0x7
 2409 04aa E4       		.byte	0xe4
 2410 04ab 45010000 		.4byte	0x145
 2411 04af 02       		.byte	0x2
 2412 04b0 23       		.byte	0x23
 2413 04b1 5C       		.uleb128 0x5c
 2414 04b2 0D       		.uleb128 0xd
 2415 04b3 64070000 		.4byte	.LASF70
 2416 04b7 07       		.byte	0x7
 2417 04b8 E5       		.byte	0xe5
 2418 04b9 29000000 		.4byte	0x29
 2419 04bd 02       		.byte	0x2
 2420 04be 23       		.byte	0x23
 2421 04bf 64       		.uleb128 0x64
 2422 04c0 00       		.byte	0
 2423 04c1 14       		.uleb128 0x14
 2424 04c2 01       		.byte	0x1
 2425 04c3 29000000 		.4byte	0x29
 2426 04c7 E0040000 		.4byte	0x4e0
 2427 04cb 15       		.uleb128 0x15
 2428 04cc E0040000 		.4byte	0x4e0
 2429 04d0 15       		.uleb128 0x15
 2430 04d1 5B010000 		.4byte	0x15b
 2431 04d5 15       		.uleb128 0x15
 2432 04d6 5D010000 		.4byte	0x15d
 2433 04da 15       		.uleb128 0x15
 2434 04db 29000000 		.4byte	0x29
 2435 04df 00       		.byte	0
 2436 04e0 05       		.uleb128 0x5
 2437 04e1 04       		.byte	0x4
 2438 04e2 EB040000 		.4byte	0x4eb
 2439 04e6 0F       		.uleb128 0xf
 2440 04e7 E0040000 		.4byte	0x4e0
 2441 04eb 16       		.uleb128 0x16
 2442 04ec 09040000 		.4byte	.LASF71
 2443 04f0 2804     		.2byte	0x428
 2444 04f2 07       		.byte	0x7
 2445 04f3 6002     		.2byte	0x260
 2446 04f5 49060000 		.4byte	0x649
 2447 04f9 17       		.uleb128 0x17
 2448 04fa 97070000 		.4byte	.LASF72
ARM GAS  C:\Users\EBANO_~1\AppData\Local\Temp\ccsZgiNd.s 			page 64


 2449 04fe 07       		.byte	0x7
 2450 04ff 6202     		.2byte	0x262
 2451 0501 29000000 		.4byte	0x29
 2452 0505 02       		.byte	0x2
 2453 0506 23       		.byte	0x23
 2454 0507 00       		.uleb128 0
 2455 0508 17       		.uleb128 0x17
 2456 0509 06050000 		.4byte	.LASF73
 2457 050d 07       		.byte	0x7
 2458 050e 6702     		.2byte	0x267
 2459 0510 27070000 		.4byte	0x727
 2460 0514 02       		.byte	0x2
 2461 0515 23       		.byte	0x23
 2462 0516 04       		.uleb128 0x4
 2463 0517 17       		.uleb128 0x17
 2464 0518 680C0000 		.4byte	.LASF74
 2465 051c 07       		.byte	0x7
 2466 051d 6702     		.2byte	0x267
 2467 051f 27070000 		.4byte	0x727
 2468 0523 02       		.byte	0x2
 2469 0524 23       		.byte	0x23
 2470 0525 08       		.uleb128 0x8
 2471 0526 17       		.uleb128 0x17
 2472 0527 370A0000 		.4byte	.LASF75
 2473 052b 07       		.byte	0x7
 2474 052c 6702     		.2byte	0x267
 2475 052e 27070000 		.4byte	0x727
 2476 0532 02       		.byte	0x2
 2477 0533 23       		.byte	0x23
 2478 0534 0C       		.uleb128 0xc
 2479 0535 17       		.uleb128 0x17
 2480 0536 41100000 		.4byte	.LASF76
 2481 053a 07       		.byte	0x7
 2482 053b 6902     		.2byte	0x269
 2483 053d 29000000 		.4byte	0x29
 2484 0541 02       		.byte	0x2
 2485 0542 23       		.byte	0x23
 2486 0543 10       		.uleb128 0x10
 2487 0544 17       		.uleb128 0x17
 2488 0545 6B080000 		.4byte	.LASF77
 2489 0549 07       		.byte	0x7
 2490 054a 6A02     		.2byte	0x26a
 2491 054c 42090000 		.4byte	0x942
 2492 0550 02       		.byte	0x2
 2493 0551 23       		.byte	0x23
 2494 0552 14       		.uleb128 0x14
 2495 0553 17       		.uleb128 0x17
 2496 0554 F0030000 		.4byte	.LASF78
 2497 0558 07       		.byte	0x7
 2498 0559 6D02     		.2byte	0x26d
 2499 055b 29000000 		.4byte	0x29
 2500 055f 02       		.byte	0x2
 2501 0560 23       		.byte	0x23
 2502 0561 30       		.uleb128 0x30
 2503 0562 17       		.uleb128 0x17
 2504 0563 B9100000 		.4byte	.LASF79
 2505 0567 07       		.byte	0x7
ARM GAS  C:\Users\EBANO_~1\AppData\Local\Temp\ccsZgiNd.s 			page 65


 2506 0568 6E02     		.2byte	0x26e
 2507 056a 58090000 		.4byte	0x958
 2508 056e 02       		.byte	0x2
 2509 056f 23       		.byte	0x23
 2510 0570 34       		.uleb128 0x34
 2511 0571 17       		.uleb128 0x17
 2512 0572 59070000 		.4byte	.LASF80
 2513 0576 07       		.byte	0x7
 2514 0577 7002     		.2byte	0x270
 2515 0579 29000000 		.4byte	0x29
 2516 057d 02       		.byte	0x2
 2517 057e 23       		.byte	0x23
 2518 057f 38       		.uleb128 0x38
 2519 0580 17       		.uleb128 0x17
 2520 0581 04080000 		.4byte	.LASF81
 2521 0585 07       		.byte	0x7
 2522 0586 7202     		.2byte	0x272
 2523 0588 6A090000 		.4byte	0x96a
 2524 058c 02       		.byte	0x2
 2525 058d 23       		.byte	0x23
 2526 058e 3C       		.uleb128 0x3c
 2527 058f 17       		.uleb128 0x17
 2528 0590 DE100000 		.4byte	.LASF82
 2529 0594 07       		.byte	0x7
 2530 0595 7502     		.2byte	0x275
 2531 0597 D9010000 		.4byte	0x1d9
 2532 059b 02       		.byte	0x2
 2533 059c 23       		.byte	0x23
 2534 059d 40       		.uleb128 0x40
 2535 059e 17       		.uleb128 0x17
 2536 059f 95020000 		.4byte	.LASF83
 2537 05a3 07       		.byte	0x7
 2538 05a4 7602     		.2byte	0x276
 2539 05a6 29000000 		.4byte	0x29
 2540 05aa 02       		.byte	0x2
 2541 05ab 23       		.byte	0x23
 2542 05ac 44       		.uleb128 0x44
 2543 05ad 17       		.uleb128 0x17
 2544 05ae 02070000 		.4byte	.LASF84
 2545 05b2 07       		.byte	0x7
 2546 05b3 7702     		.2byte	0x277
 2547 05b5 D9010000 		.4byte	0x1d9
 2548 05b9 02       		.byte	0x2
 2549 05ba 23       		.byte	0x23
 2550 05bb 48       		.uleb128 0x48
 2551 05bc 17       		.uleb128 0x17
 2552 05bd EC080000 		.4byte	.LASF85
 2553 05c1 07       		.byte	0x7
 2554 05c2 7802     		.2byte	0x278
 2555 05c4 70090000 		.4byte	0x970
 2556 05c8 02       		.byte	0x2
 2557 05c9 23       		.byte	0x23
 2558 05ca 4C       		.uleb128 0x4c
 2559 05cb 17       		.uleb128 0x17
 2560 05cc EE000000 		.4byte	.LASF86
 2561 05d0 07       		.byte	0x7
 2562 05d1 7B02     		.2byte	0x27b
ARM GAS  C:\Users\EBANO_~1\AppData\Local\Temp\ccsZgiNd.s 			page 66


 2563 05d3 29000000 		.4byte	0x29
 2564 05d7 02       		.byte	0x2
 2565 05d8 23       		.byte	0x23
 2566 05d9 50       		.uleb128 0x50
 2567 05da 17       		.uleb128 0x17
 2568 05db 62060000 		.4byte	.LASF87
 2569 05df 07       		.byte	0x7
 2570 05e0 7C02     		.2byte	0x27c
 2571 05e2 5D010000 		.4byte	0x15d
 2572 05e6 02       		.byte	0x2
 2573 05e7 23       		.byte	0x23
 2574 05e8 54       		.uleb128 0x54
 2575 05e9 17       		.uleb128 0x17
 2576 05ea 270A0000 		.4byte	.LASF88
 2577 05ee 07       		.byte	0x7
 2578 05ef 9F02     		.2byte	0x29f
 2579 05f1 20090000 		.4byte	0x920
 2580 05f5 02       		.byte	0x2
 2581 05f6 23       		.byte	0x23
 2582 05f7 58       		.uleb128 0x58
 2583 05f8 17       		.uleb128 0x17
 2584 05f9 B70A0000 		.4byte	.LASF48
 2585 05fd 07       		.byte	0x7
 2586 05fe A302     		.2byte	0x2a3
 2587 0600 1A030000 		.4byte	0x31a
 2588 0604 03       		.byte	0x3
 2589 0605 23       		.byte	0x23
 2590 0606 C802     		.uleb128 0x148
 2591 0608 17       		.uleb128 0x17
 2592 0609 0E080000 		.4byte	.LASF89
 2593 060d 07       		.byte	0x7
 2594 060e A402     		.2byte	0x2a4
 2595 0610 D3020000 		.4byte	0x2d3
 2596 0614 03       		.byte	0x3
 2597 0615 23       		.byte	0x23
 2598 0616 CC02     		.uleb128 0x14c
 2599 0618 17       		.uleb128 0x17
 2600 0619 1A060000 		.4byte	.LASF90
 2601 061d 07       		.byte	0x7
 2602 061e A802     		.2byte	0x2a8
 2603 0620 82090000 		.4byte	0x982
 2604 0624 03       		.byte	0x3
 2605 0625 23       		.byte	0x23
 2606 0626 DC05     		.uleb128 0x2dc
 2607 0628 17       		.uleb128 0x17
 2608 0629 9D080000 		.4byte	.LASF91
 2609 062d 07       		.byte	0x7
 2610 062e AD02     		.2byte	0x2ad
 2611 0630 E6060000 		.4byte	0x6e6
 2612 0634 03       		.byte	0x3
 2613 0635 23       		.byte	0x23
 2614 0636 E005     		.uleb128 0x2e0
 2615 0638 17       		.uleb128 0x17
 2616 0639 50000000 		.4byte	.LASF92
 2617 063d 07       		.byte	0x7
 2618 063e AF02     		.2byte	0x2af
 2619 0640 8E090000 		.4byte	0x98e
ARM GAS  C:\Users\EBANO_~1\AppData\Local\Temp\ccsZgiNd.s 			page 67


 2620 0644 03       		.byte	0x3
 2621 0645 23       		.byte	0x23
 2622 0646 EC05     		.uleb128 0x2ec
 2623 0648 00       		.byte	0
 2624 0649 05       		.uleb128 0x5
 2625 064a 04       		.byte	0x4
 2626 064b C1040000 		.4byte	0x4c1
 2627 064f 14       		.uleb128 0x14
 2628 0650 01       		.byte	0x1
 2629 0651 29000000 		.4byte	0x29
 2630 0655 6E060000 		.4byte	0x66e
 2631 0659 15       		.uleb128 0x15
 2632 065a E0040000 		.4byte	0x4e0
 2633 065e 15       		.uleb128 0x15
 2634 065f 5B010000 		.4byte	0x15b
 2635 0663 15       		.uleb128 0x15
 2636 0664 6E060000 		.4byte	0x66e
 2637 0668 15       		.uleb128 0x15
 2638 0669 29000000 		.4byte	0x29
 2639 066d 00       		.byte	0
 2640 066e 05       		.uleb128 0x5
 2641 066f 04       		.byte	0x4
 2642 0670 6A010000 		.4byte	0x16a
 2643 0674 05       		.uleb128 0x5
 2644 0675 04       		.byte	0x4
 2645 0676 4F060000 		.4byte	0x64f
 2646 067a 14       		.uleb128 0x14
 2647 067b 01       		.byte	0x1
 2648 067c DA000000 		.4byte	0xda
 2649 0680 99060000 		.4byte	0x699
 2650 0684 15       		.uleb128 0x15
 2651 0685 E0040000 		.4byte	0x4e0
 2652 0689 15       		.uleb128 0x15
 2653 068a 5B010000 		.4byte	0x15b
 2654 068e 15       		.uleb128 0x15
 2655 068f DA000000 		.4byte	0xda
 2656 0693 15       		.uleb128 0x15
 2657 0694 29000000 		.4byte	0x29
 2658 0698 00       		.byte	0
 2659 0699 05       		.uleb128 0x5
 2660 069a 04       		.byte	0x4
 2661 069b 7A060000 		.4byte	0x67a
 2662 069f 14       		.uleb128 0x14
 2663 06a0 01       		.byte	0x1
 2664 06a1 29000000 		.4byte	0x29
 2665 06a5 B4060000 		.4byte	0x6b4
 2666 06a9 15       		.uleb128 0x15
 2667 06aa E0040000 		.4byte	0x4e0
 2668 06ae 15       		.uleb128 0x15
 2669 06af 5B010000 		.4byte	0x15b
 2670 06b3 00       		.byte	0
 2671 06b4 05       		.uleb128 0x5
 2672 06b5 04       		.byte	0x4
 2673 06b6 9F060000 		.4byte	0x69f
 2674 06ba 0A       		.uleb128 0xa
 2675 06bb 62000000 		.4byte	0x62
 2676 06bf CA060000 		.4byte	0x6ca
ARM GAS  C:\Users\EBANO_~1\AppData\Local\Temp\ccsZgiNd.s 			page 68


 2677 06c3 0B       		.uleb128 0xb
 2678 06c4 30000000 		.4byte	0x30
 2679 06c8 02       		.byte	0x2
 2680 06c9 00       		.byte	0
 2681 06ca 0A       		.uleb128 0xa
 2682 06cb 62000000 		.4byte	0x62
 2683 06cf DA060000 		.4byte	0x6da
 2684 06d3 0B       		.uleb128 0xb
 2685 06d4 30000000 		.4byte	0x30
 2686 06d8 00       		.byte	0
 2687 06d9 00       		.byte	0
 2688 06da 07       		.uleb128 0x7
 2689 06db 600D0000 		.4byte	.LASF93
 2690 06df 07       		.byte	0x7
 2691 06e0 1F01     		.2byte	0x11f
 2692 06e2 67030000 		.4byte	0x367
 2693 06e6 18       		.uleb128 0x18
 2694 06e7 0F090000 		.4byte	.LASF94
 2695 06eb 0C       		.byte	0xc
 2696 06ec 07       		.byte	0x7
 2697 06ed 2301     		.2byte	0x123
 2698 06ef 21070000 		.4byte	0x721
 2699 06f3 17       		.uleb128 0x17
 2700 06f4 9D0D0000 		.4byte	.LASF28
 2701 06f8 07       		.byte	0x7
 2702 06f9 2501     		.2byte	0x125
 2703 06fb 21070000 		.4byte	0x721
 2704 06ff 02       		.byte	0x2
 2705 0700 23       		.byte	0x23
 2706 0701 00       		.uleb128 0
 2707 0702 17       		.uleb128 0x17
 2708 0703 8A080000 		.4byte	.LASF95
 2709 0707 07       		.byte	0x7
 2710 0708 2601     		.2byte	0x126
 2711 070a 29000000 		.4byte	0x29
 2712 070e 02       		.byte	0x2
 2713 070f 23       		.byte	0x23
 2714 0710 04       		.uleb128 0x4
 2715 0711 17       		.uleb128 0x17
 2716 0712 F6080000 		.4byte	.LASF96
 2717 0716 07       		.byte	0x7
 2718 0717 2701     		.2byte	0x127
 2719 0719 27070000 		.4byte	0x727
 2720 071d 02       		.byte	0x2
 2721 071e 23       		.byte	0x23
 2722 071f 08       		.uleb128 0x8
 2723 0720 00       		.byte	0
 2724 0721 05       		.uleb128 0x5
 2725 0722 04       		.byte	0x4
 2726 0723 E6060000 		.4byte	0x6e6
 2727 0727 05       		.uleb128 0x5
 2728 0728 04       		.byte	0x4
 2729 0729 DA060000 		.4byte	0x6da
 2730 072d 18       		.uleb128 0x18
 2731 072e 560C0000 		.4byte	.LASF97
 2732 0732 0E       		.byte	0xe
 2733 0733 07       		.byte	0x7
ARM GAS  C:\Users\EBANO_~1\AppData\Local\Temp\ccsZgiNd.s 			page 69


 2734 0734 3F01     		.2byte	0x13f
 2735 0736 68070000 		.4byte	0x768
 2736 073a 17       		.uleb128 0x17
 2737 073b 730B0000 		.4byte	.LASF98
 2738 073f 07       		.byte	0x7
 2739 0740 4001     		.2byte	0x140
 2740 0742 68070000 		.4byte	0x768
 2741 0746 02       		.byte	0x2
 2742 0747 23       		.byte	0x23
 2743 0748 00       		.uleb128 0
 2744 0749 17       		.uleb128 0x17
 2745 074a CB010000 		.4byte	.LASF99
 2746 074e 07       		.byte	0x7
 2747 074f 4101     		.2byte	0x141
 2748 0751 68070000 		.4byte	0x768
 2749 0755 02       		.byte	0x2
 2750 0756 23       		.byte	0x23
 2751 0757 06       		.uleb128 0x6
 2752 0758 17       		.uleb128 0x17
 2753 0759 31110000 		.4byte	.LASF100
 2754 075d 07       		.byte	0x7
 2755 075e 4201     		.2byte	0x142
 2756 0760 86000000 		.4byte	0x86
 2757 0764 02       		.byte	0x2
 2758 0765 23       		.byte	0x23
 2759 0766 0C       		.uleb128 0xc
 2760 0767 00       		.byte	0
 2761 0768 0A       		.uleb128 0xa
 2762 0769 86000000 		.4byte	0x86
 2763 076d 78070000 		.4byte	0x778
 2764 0771 0B       		.uleb128 0xb
 2765 0772 30000000 		.4byte	0x30
 2766 0776 02       		.byte	0x2
 2767 0777 00       		.byte	0
 2768 0778 19       		.uleb128 0x19
 2769 0779 D0       		.byte	0xd0
 2770 077a 07       		.byte	0x7
 2771 077b 8002     		.2byte	0x280
 2772 077d A8080000 		.4byte	0x8a8
 2773 0781 17       		.uleb128 0x17
 2774 0782 26030000 		.4byte	.LASF101
 2775 0786 07       		.byte	0x7
 2776 0787 8202     		.2byte	0x282
 2777 0789 30000000 		.4byte	0x30
 2778 078d 02       		.byte	0x2
 2779 078e 23       		.byte	0x23
 2780 078f 00       		.uleb128 0
 2781 0790 17       		.uleb128 0x17
 2782 0791 290D0000 		.4byte	.LASF102
 2783 0795 07       		.byte	0x7
 2784 0796 8302     		.2byte	0x283
 2785 0798 5D010000 		.4byte	0x15d
 2786 079c 02       		.byte	0x2
 2787 079d 23       		.byte	0x23
 2788 079e 04       		.uleb128 0x4
 2789 079f 17       		.uleb128 0x17
 2790 07a0 E1000000 		.4byte	.LASF103
ARM GAS  C:\Users\EBANO_~1\AppData\Local\Temp\ccsZgiNd.s 			page 70


 2791 07a4 07       		.byte	0x7
 2792 07a5 8402     		.2byte	0x284
 2793 07a7 A8080000 		.4byte	0x8a8
 2794 07ab 02       		.byte	0x2
 2795 07ac 23       		.byte	0x23
 2796 07ad 08       		.uleb128 0x8
 2797 07ae 17       		.uleb128 0x17
 2798 07af C4020000 		.4byte	.LASF104
 2799 07b3 07       		.byte	0x7
 2800 07b4 8502     		.2byte	0x285
 2801 07b6 EF010000 		.4byte	0x1ef
 2802 07ba 02       		.byte	0x2
 2803 07bb 23       		.byte	0x23
 2804 07bc 24       		.uleb128 0x24
 2805 07bd 17       		.uleb128 0x17
 2806 07be B5080000 		.4byte	.LASF105
 2807 07c2 07       		.byte	0x7
 2808 07c3 8602     		.2byte	0x286
 2809 07c5 29000000 		.4byte	0x29
 2810 07c9 02       		.byte	0x2
 2811 07ca 23       		.byte	0x23
 2812 07cb 48       		.uleb128 0x48
 2813 07cc 17       		.uleb128 0x17
 2814 07cd 790A0000 		.4byte	.LASF106
 2815 07d1 07       		.byte	0x7
 2816 07d2 8702     		.2byte	0x287
 2817 07d4 B1000000 		.4byte	0xb1
 2818 07d8 02       		.byte	0x2
 2819 07d9 23       		.byte	0x23
 2820 07da 50       		.uleb128 0x50
 2821 07db 17       		.uleb128 0x17
 2822 07dc 820D0000 		.4byte	.LASF107
 2823 07e0 07       		.byte	0x7
 2824 07e1 8802     		.2byte	0x288
 2825 07e3 2D070000 		.4byte	0x72d
 2826 07e7 02       		.byte	0x2
 2827 07e8 23       		.byte	0x23
 2828 07e9 58       		.uleb128 0x58
 2829 07ea 17       		.uleb128 0x17
 2830 07eb 930E0000 		.4byte	.LASF108
 2831 07ef 07       		.byte	0x7
 2832 07f0 8902     		.2byte	0x289
 2833 07f2 45010000 		.4byte	0x145
 2834 07f6 02       		.byte	0x2
 2835 07f7 23       		.byte	0x23
 2836 07f8 68       		.uleb128 0x68
 2837 07f9 17       		.uleb128 0x17
 2838 07fa D60B0000 		.4byte	.LASF109
 2839 07fe 07       		.byte	0x7
 2840 07ff 8A02     		.2byte	0x28a
 2841 0801 45010000 		.4byte	0x145
 2842 0805 02       		.byte	0x2
 2843 0806 23       		.byte	0x23
 2844 0807 70       		.uleb128 0x70
 2845 0808 17       		.uleb128 0x17
 2846 0809 3F0A0000 		.4byte	.LASF110
 2847 080d 07       		.byte	0x7
ARM GAS  C:\Users\EBANO_~1\AppData\Local\Temp\ccsZgiNd.s 			page 71


 2848 080e 8B02     		.2byte	0x28b
 2849 0810 45010000 		.4byte	0x145
 2850 0814 02       		.byte	0x2
 2851 0815 23       		.byte	0x23
 2852 0816 78       		.uleb128 0x78
 2853 0817 17       		.uleb128 0x17
 2854 0818 47010000 		.4byte	.LASF111
 2855 081c 07       		.byte	0x7
 2856 081d 8C02     		.2byte	0x28c
 2857 081f B8080000 		.4byte	0x8b8
 2858 0823 03       		.byte	0x3
 2859 0824 23       		.byte	0x23
 2860 0825 8001     		.uleb128 0x80
 2861 0827 17       		.uleb128 0x17
 2862 0828 9E070000 		.4byte	.LASF112
 2863 082c 07       		.byte	0x7
 2864 082d 8D02     		.2byte	0x28d
 2865 082f C8080000 		.4byte	0x8c8
 2866 0833 03       		.byte	0x3
 2867 0834 23       		.byte	0x23
 2868 0835 8801     		.uleb128 0x88
 2869 0837 17       		.uleb128 0x17
 2870 0838 6F120000 		.4byte	.LASF113
 2871 083c 07       		.byte	0x7
 2872 083d 8E02     		.2byte	0x28e
 2873 083f 29000000 		.4byte	0x29
 2874 0843 03       		.byte	0x3
 2875 0844 23       		.byte	0x23
 2876 0845 A001     		.uleb128 0xa0
 2877 0847 17       		.uleb128 0x17
 2878 0848 72020000 		.4byte	.LASF114
 2879 084c 07       		.byte	0x7
 2880 084d 8F02     		.2byte	0x28f
 2881 084f 45010000 		.4byte	0x145
 2882 0853 03       		.byte	0x3
 2883 0854 23       		.byte	0x23
 2884 0855 A401     		.uleb128 0xa4
 2885 0857 17       		.uleb128 0x17
 2886 0858 420D0000 		.4byte	.LASF115
 2887 085c 07       		.byte	0x7
 2888 085d 9002     		.2byte	0x290
 2889 085f 45010000 		.4byte	0x145
 2890 0863 03       		.byte	0x3
 2891 0864 23       		.byte	0x23
 2892 0865 AC01     		.uleb128 0xac
 2893 0867 17       		.uleb128 0x17
 2894 0868 B9110000 		.4byte	.LASF116
 2895 086c 07       		.byte	0x7
 2896 086d 9102     		.2byte	0x291
 2897 086f 45010000 		.4byte	0x145
 2898 0873 03       		.byte	0x3
 2899 0874 23       		.byte	0x23
 2900 0875 B401     		.uleb128 0xb4
 2901 0877 17       		.uleb128 0x17
 2902 0878 F4090000 		.4byte	.LASF117
 2903 087c 07       		.byte	0x7
 2904 087d 9202     		.2byte	0x292
ARM GAS  C:\Users\EBANO_~1\AppData\Local\Temp\ccsZgiNd.s 			page 72


 2905 087f 45010000 		.4byte	0x145
 2906 0883 03       		.byte	0x3
 2907 0884 23       		.byte	0x23
 2908 0885 BC01     		.uleb128 0xbc
 2909 0887 17       		.uleb128 0x17
 2910 0888 0B010000 		.4byte	.LASF118
 2911 088c 07       		.byte	0x7
 2912 088d 9302     		.2byte	0x293
 2913 088f 45010000 		.4byte	0x145
 2914 0893 03       		.byte	0x3
 2915 0894 23       		.byte	0x23
 2916 0895 C401     		.uleb128 0xc4
 2917 0897 17       		.uleb128 0x17
 2918 0898 BB090000 		.4byte	.LASF119
 2919 089c 07       		.byte	0x7
 2920 089d 9402     		.2byte	0x294
 2921 089f 29000000 		.4byte	0x29
 2922 08a3 03       		.byte	0x3
 2923 08a4 23       		.byte	0x23
 2924 08a5 CC01     		.uleb128 0xcc
 2925 08a7 00       		.byte	0
 2926 08a8 0A       		.uleb128 0xa
 2927 08a9 63010000 		.4byte	0x163
 2928 08ad B8080000 		.4byte	0x8b8
 2929 08b1 0B       		.uleb128 0xb
 2930 08b2 30000000 		.4byte	0x30
 2931 08b6 19       		.byte	0x19
 2932 08b7 00       		.byte	0
 2933 08b8 0A       		.uleb128 0xa
 2934 08b9 63010000 		.4byte	0x163
 2935 08bd C8080000 		.4byte	0x8c8
 2936 08c1 0B       		.uleb128 0xb
 2937 08c2 30000000 		.4byte	0x30
 2938 08c6 07       		.byte	0x7
 2939 08c7 00       		.byte	0
 2940 08c8 0A       		.uleb128 0xa
 2941 08c9 63010000 		.4byte	0x163
 2942 08cd D8080000 		.4byte	0x8d8
 2943 08d1 0B       		.uleb128 0xb
 2944 08d2 30000000 		.4byte	0x30
 2945 08d6 17       		.byte	0x17
 2946 08d7 00       		.byte	0
 2947 08d8 19       		.uleb128 0x19
 2948 08d9 F0       		.byte	0xf0
 2949 08da 07       		.byte	0x7
 2950 08db 9902     		.2byte	0x299
 2951 08dd 00090000 		.4byte	0x900
 2952 08e1 17       		.uleb128 0x17
 2953 08e2 97100000 		.4byte	.LASF120
 2954 08e6 07       		.byte	0x7
 2955 08e7 9C02     		.2byte	0x29c
 2956 08e9 00090000 		.4byte	0x900
 2957 08ed 02       		.byte	0x2
 2958 08ee 23       		.byte	0x23
 2959 08ef 00       		.uleb128 0
 2960 08f0 17       		.uleb128 0x17
 2961 08f1 A5080000 		.4byte	.LASF121
ARM GAS  C:\Users\EBANO_~1\AppData\Local\Temp\ccsZgiNd.s 			page 73


 2962 08f5 07       		.byte	0x7
 2963 08f6 9D02     		.2byte	0x29d
 2964 08f8 10090000 		.4byte	0x910
 2965 08fc 02       		.byte	0x2
 2966 08fd 23       		.byte	0x23
 2967 08fe 78       		.uleb128 0x78
 2968 08ff 00       		.byte	0
 2969 0900 0A       		.uleb128 0xa
 2970 0901 61030000 		.4byte	0x361
 2971 0905 10090000 		.4byte	0x910
 2972 0909 0B       		.uleb128 0xb
 2973 090a 30000000 		.4byte	0x30
 2974 090e 1D       		.byte	0x1d
 2975 090f 00       		.byte	0
 2976 0910 0A       		.uleb128 0xa
 2977 0911 30000000 		.4byte	0x30
 2978 0915 20090000 		.4byte	0x920
 2979 0919 0B       		.uleb128 0xb
 2980 091a 30000000 		.4byte	0x30
 2981 091e 1D       		.byte	0x1d
 2982 091f 00       		.byte	0
 2983 0920 1A       		.uleb128 0x1a
 2984 0921 F0       		.byte	0xf0
 2985 0922 07       		.byte	0x7
 2986 0923 7E02     		.2byte	0x27e
 2987 0925 42090000 		.4byte	0x942
 2988 0929 1B       		.uleb128 0x1b
 2989 092a 09040000 		.4byte	.LASF71
 2990 092e 07       		.byte	0x7
 2991 092f 9502     		.2byte	0x295
 2992 0931 78070000 		.4byte	0x778
 2993 0935 1B       		.uleb128 0x1b
 2994 0936 FE000000 		.4byte	.LASF122
 2995 093a 07       		.byte	0x7
 2996 093b 9E02     		.2byte	0x29e
 2997 093d D8080000 		.4byte	0x8d8
 2998 0941 00       		.byte	0
 2999 0942 0A       		.uleb128 0xa
 3000 0943 63010000 		.4byte	0x163
 3001 0947 52090000 		.4byte	0x952
 3002 094b 0B       		.uleb128 0xb
 3003 094c 30000000 		.4byte	0x30
 3004 0950 18       		.byte	0x18
 3005 0951 00       		.byte	0
 3006 0952 06       		.uleb128 0x6
 3007 0953 3D000000 		.4byte	.LASF124
 3008 0957 01       		.byte	0x1
 3009 0958 05       		.uleb128 0x5
 3010 0959 04       		.byte	0x4
 3011 095a 52090000 		.4byte	0x952
 3012 095e 1C       		.uleb128 0x1c
 3013 095f 01       		.byte	0x1
 3014 0960 6A090000 		.4byte	0x96a
 3015 0964 15       		.uleb128 0x15
 3016 0965 E0040000 		.4byte	0x4e0
 3017 0969 00       		.byte	0
 3018 096a 05       		.uleb128 0x5
ARM GAS  C:\Users\EBANO_~1\AppData\Local\Temp\ccsZgiNd.s 			page 74


 3019 096b 04       		.byte	0x4
 3020 096c 5E090000 		.4byte	0x95e
 3021 0970 05       		.uleb128 0x5
 3022 0971 04       		.byte	0x4
 3023 0972 D9010000 		.4byte	0x1d9
 3024 0976 1C       		.uleb128 0x1c
 3025 0977 01       		.byte	0x1
 3026 0978 82090000 		.4byte	0x982
 3027 097c 15       		.uleb128 0x15
 3028 097d 29000000 		.4byte	0x29
 3029 0981 00       		.byte	0
 3030 0982 05       		.uleb128 0x5
 3031 0983 04       		.byte	0x4
 3032 0984 88090000 		.4byte	0x988
 3033 0988 05       		.uleb128 0x5
 3034 0989 04       		.byte	0x4
 3035 098a 76090000 		.4byte	0x976
 3036 098e 0A       		.uleb128 0xa
 3037 098f DA060000 		.4byte	0x6da
 3038 0993 9E090000 		.4byte	0x99e
 3039 0997 0B       		.uleb128 0xb
 3040 0998 30000000 		.4byte	0x30
 3041 099c 02       		.byte	0x2
 3042 099d 00       		.byte	0
 3043 099e 1D       		.uleb128 0x1d
 3044 099f 89020000 		.4byte	.LASF125
 3045 09a3 07       		.byte	0x7
 3046 09a4 2E03     		.2byte	0x32e
 3047 09a6 E0040000 		.4byte	0x4e0
 3048 09aa 01       		.byte	0x1
 3049 09ab 01       		.byte	0x1
 3050 09ac 1D       		.uleb128 0x1d
 3051 09ad 10040000 		.4byte	.LASF126
 3052 09b1 07       		.byte	0x7
 3053 09b2 2F03     		.2byte	0x32f
 3054 09b4 E6040000 		.4byte	0x4e6
 3055 09b8 01       		.byte	0x1
 3056 09b9 01       		.byte	0x1
 3057 09ba 03       		.uleb128 0x3
 3058 09bb 04       		.byte	0x4
 3059 09bc 04       		.byte	0x4
 3060 09bd 1B090000 		.4byte	.LASF127
 3061 09c1 03       		.uleb128 0x3
 3062 09c2 08       		.byte	0x8
 3063 09c3 04       		.byte	0x4
 3064 09c4 AE080000 		.4byte	.LASF128
 3065 09c8 1E       		.uleb128 0x1e
 3066 09c9 9F0C0000 		.4byte	.LASF393
 3067 09cd 05       		.byte	0x5
 3068 09ce 01       		.byte	0x1
 3069 09cf 50000000 		.4byte	0x50
 3070 09d3 08       		.byte	0x8
 3071 09d4 8202     		.2byte	0x282
 3072 09d6 F3090000 		.4byte	0x9f3
 3073 09da 1F       		.uleb128 0x1f
 3074 09db 6A100000 		.4byte	.LASF129
 3075 09df 7F       		.sleb128 -1
ARM GAS  C:\Users\EBANO_~1\AppData\Local\Temp\ccsZgiNd.s 			page 75


 3076 09e0 20       		.uleb128 0x20
 3077 09e1 52080000 		.4byte	.LASF130
 3078 09e5 00       		.byte	0
 3079 09e6 20       		.uleb128 0x20
 3080 09e7 F40E0000 		.4byte	.LASF131
 3081 09eb 01       		.byte	0x1
 3082 09ec 20       		.uleb128 0x20
 3083 09ed 500E0000 		.4byte	.LASF132
 3084 09f1 02       		.byte	0x2
 3085 09f2 00       		.byte	0
 3086 09f3 1D       		.uleb128 0x1d
 3087 09f4 F2060000 		.4byte	.LASF133
 3088 09f8 08       		.byte	0x8
 3089 09f9 8D02     		.2byte	0x28d
 3090 09fb C8090000 		.4byte	0x9c8
 3091 09ff 01       		.byte	0x1
 3092 0a00 01       		.byte	0x1
 3093 0a01 04       		.uleb128 0x4
 3094 0a02 23000000 		.4byte	.LASF134
 3095 0a06 09       		.byte	0x9
 3096 0a07 14       		.byte	0x14
 3097 0a08 45000000 		.4byte	0x45
 3098 0a0c 04       		.uleb128 0x4
 3099 0a0d 3F030000 		.4byte	.LASF135
 3100 0a11 09       		.byte	0x9
 3101 0a12 18       		.byte	0x18
 3102 0a13 57000000 		.4byte	0x57
 3103 0a17 0F       		.uleb128 0xf
 3104 0a18 0C0A0000 		.4byte	0xa0c
 3105 0a1c 04       		.uleb128 0x4
 3106 0a1d 9B0F0000 		.4byte	.LASF136
 3107 0a21 09       		.byte	0x9
 3108 0a22 20       		.byte	0x20
 3109 0a23 69000000 		.4byte	0x69
 3110 0a27 04       		.uleb128 0x4
 3111 0a28 410C0000 		.4byte	.LASF137
 3112 0a2c 09       		.byte	0x9
 3113 0a2d 24       		.byte	0x24
 3114 0a2e 7B000000 		.4byte	0x7b
 3115 0a32 04       		.uleb128 0x4
 3116 0a33 C6000000 		.4byte	.LASF138
 3117 0a37 09       		.byte	0x9
 3118 0a38 2C       		.byte	0x2c
 3119 0a39 8D000000 		.4byte	0x8d
 3120 0a3d 04       		.uleb128 0x4
 3121 0a3e C9100000 		.4byte	.LASF139
 3122 0a42 09       		.byte	0x9
 3123 0a43 30       		.byte	0x30
 3124 0a44 9F000000 		.4byte	0x9f
 3125 0a48 21       		.uleb128 0x21
 3126 0a49 3D0A0000 		.4byte	0xa3d
 3127 0a4d 0A       		.uleb128 0xa
 3128 0a4e 480A0000 		.4byte	0xa48
 3129 0a52 5D0A0000 		.4byte	0xa5d
 3130 0a56 0B       		.uleb128 0xb
 3131 0a57 30000000 		.4byte	0x30
 3132 0a5b 01       		.byte	0x1
ARM GAS  C:\Users\EBANO_~1\AppData\Local\Temp\ccsZgiNd.s 			page 76


 3133 0a5c 00       		.byte	0
 3134 0a5d 21       		.uleb128 0x21
 3135 0a5e 4D0A0000 		.4byte	0xa4d
 3136 0a62 22       		.uleb128 0x22
 3137 0a63 6C070000 		.4byte	.LASF140
 3138 0a67 0A       		.byte	0xa
 3139 0a68 4A       		.byte	0x4a
 3140 0a69 3D0A0000 		.4byte	0xa3d
 3141 0a6d 01       		.byte	0x1
 3142 0a6e 01       		.byte	0x1
 3143 0a6f 0A       		.uleb128 0xa
 3144 0a70 170A0000 		.4byte	0xa17
 3145 0a74 7F0A0000 		.4byte	0xa7f
 3146 0a78 0B       		.uleb128 0xb
 3147 0a79 30000000 		.4byte	0x30
 3148 0a7d 0F       		.byte	0xf
 3149 0a7e 00       		.byte	0
 3150 0a7f 0F       		.uleb128 0xf
 3151 0a80 6F0A0000 		.4byte	0xa6f
 3152 0a84 22       		.uleb128 0x22
 3153 0a85 B50B0000 		.4byte	.LASF141
 3154 0a89 0A       		.byte	0xa
 3155 0a8a 4D       		.byte	0x4d
 3156 0a8b 7F0A0000 		.4byte	0xa7f
 3157 0a8f 01       		.byte	0x1
 3158 0a90 01       		.byte	0x1
 3159 0a91 0A       		.uleb128 0xa
 3160 0a92 170A0000 		.4byte	0xa17
 3161 0a96 A10A0000 		.4byte	0xaa1
 3162 0a9a 0B       		.uleb128 0xb
 3163 0a9b 30000000 		.4byte	0x30
 3164 0a9f 07       		.byte	0x7
 3165 0aa0 00       		.byte	0
 3166 0aa1 0F       		.uleb128 0xf
 3167 0aa2 910A0000 		.4byte	0xa91
 3168 0aa6 22       		.uleb128 0x22
 3169 0aa7 710E0000 		.4byte	.LASF142
 3170 0aab 0A       		.byte	0xa
 3171 0aac 4E       		.byte	0x4e
 3172 0aad A10A0000 		.4byte	0xaa1
 3173 0ab1 01       		.byte	0x1
 3174 0ab2 01       		.byte	0x1
 3175 0ab3 0A       		.uleb128 0xa
 3176 0ab4 170A0000 		.4byte	0xa17
 3177 0ab8 C30A0000 		.4byte	0xac3
 3178 0abc 0B       		.uleb128 0xb
 3179 0abd 30000000 		.4byte	0x30
 3180 0ac1 08       		.byte	0x8
 3181 0ac2 00       		.byte	0
 3182 0ac3 0F       		.uleb128 0xf
 3183 0ac4 B30A0000 		.4byte	0xab3
 3184 0ac8 22       		.uleb128 0x22
 3185 0ac9 56060000 		.4byte	.LASF143
 3186 0acd 0A       		.byte	0xa
 3187 0ace 4F       		.byte	0x4f
 3188 0acf C30A0000 		.4byte	0xac3
 3189 0ad3 01       		.byte	0x1
ARM GAS  C:\Users\EBANO_~1\AppData\Local\Temp\ccsZgiNd.s 			page 77


 3190 0ad4 01       		.byte	0x1
 3191 0ad5 0C       		.uleb128 0xc
 3192 0ad6 B8       		.byte	0xb8
 3193 0ad7 0B       		.byte	0xb
 3194 0ad8 90       		.byte	0x90
 3195 0ad9 AE0B0000 		.4byte	0xbae
 3196 0add 11       		.uleb128 0x11
 3197 0ade 49535200 		.ascii	"ISR\000"
 3198 0ae2 0B       		.byte	0xb
 3199 0ae3 92       		.byte	0x92
 3200 0ae4 480A0000 		.4byte	0xa48
 3201 0ae8 02       		.byte	0x2
 3202 0ae9 23       		.byte	0x23
 3203 0aea 00       		.uleb128 0
 3204 0aeb 11       		.uleb128 0x11
 3205 0aec 49455200 		.ascii	"IER\000"
 3206 0af0 0B       		.byte	0xb
 3207 0af1 93       		.byte	0x93
 3208 0af2 480A0000 		.4byte	0xa48
 3209 0af6 02       		.byte	0x2
 3210 0af7 23       		.byte	0x23
 3211 0af8 04       		.uleb128 0x4
 3212 0af9 11       		.uleb128 0x11
 3213 0afa 435200   		.ascii	"CR\000"
 3214 0afd 0B       		.byte	0xb
 3215 0afe 94       		.byte	0x94
 3216 0aff 480A0000 		.4byte	0xa48
 3217 0b03 02       		.byte	0x2
 3218 0b04 23       		.byte	0x23
 3219 0b05 08       		.uleb128 0x8
 3220 0b06 0D       		.uleb128 0xd
 3221 0b07 DA0A0000 		.4byte	.LASF144
 3222 0b0b 0B       		.byte	0xb
 3223 0b0c 95       		.byte	0x95
 3224 0b0d 480A0000 		.4byte	0xa48
 3225 0b11 02       		.byte	0x2
 3226 0b12 23       		.byte	0x23
 3227 0b13 0C       		.uleb128 0xc
 3228 0b14 0D       		.uleb128 0xd
 3229 0b15 C4090000 		.4byte	.LASF145
 3230 0b19 0B       		.byte	0xb
 3231 0b1a 96       		.byte	0x96
 3232 0b1b 480A0000 		.4byte	0xa48
 3233 0b1f 02       		.byte	0x2
 3234 0b20 23       		.byte	0x23
 3235 0b21 10       		.uleb128 0x10
 3236 0b22 0D       		.uleb128 0xd
 3237 0b23 DC020000 		.4byte	.LASF146
 3238 0b27 0B       		.byte	0xb
 3239 0b28 97       		.byte	0x97
 3240 0b29 480A0000 		.4byte	0xa48
 3241 0b2d 02       		.byte	0x2
 3242 0b2e 23       		.byte	0x23
 3243 0b2f 14       		.uleb128 0x14
 3244 0b30 0D       		.uleb128 0xd
 3245 0b31 87030000 		.4byte	.LASF147
 3246 0b35 0B       		.byte	0xb
ARM GAS  C:\Users\EBANO_~1\AppData\Local\Temp\ccsZgiNd.s 			page 78


 3247 0b36 98       		.byte	0x98
 3248 0b37 3D0A0000 		.4byte	0xa3d
 3249 0b3b 02       		.byte	0x2
 3250 0b3c 23       		.byte	0x23
 3251 0b3d 18       		.uleb128 0x18
 3252 0b3e 0D       		.uleb128 0xd
 3253 0b3f 37040000 		.4byte	.LASF148
 3254 0b43 0B       		.byte	0xb
 3255 0b44 99       		.byte	0x99
 3256 0b45 3D0A0000 		.4byte	0xa3d
 3257 0b49 02       		.byte	0x2
 3258 0b4a 23       		.byte	0x23
 3259 0b4b 1C       		.uleb128 0x1c
 3260 0b4c 11       		.uleb128 0x11
 3261 0b4d 545200   		.ascii	"TR\000"
 3262 0b50 0B       		.byte	0xb
 3263 0b51 9A       		.byte	0x9a
 3264 0b52 480A0000 		.4byte	0xa48
 3265 0b56 02       		.byte	0x2
 3266 0b57 23       		.byte	0x23
 3267 0b58 20       		.uleb128 0x20
 3268 0b59 0D       		.uleb128 0xd
 3269 0b5a 9F030000 		.4byte	.LASF149
 3270 0b5e 0B       		.byte	0xb
 3271 0b5f 9B       		.byte	0x9b
 3272 0b60 3D0A0000 		.4byte	0xa3d
 3273 0b64 02       		.byte	0x2
 3274 0b65 23       		.byte	0x23
 3275 0b66 24       		.uleb128 0x24
 3276 0b67 0D       		.uleb128 0xd
 3277 0b68 11110000 		.4byte	.LASF150
 3278 0b6c 0B       		.byte	0xb
 3279 0b6d 9C       		.byte	0x9c
 3280 0b6e 480A0000 		.4byte	0xa48
 3281 0b72 02       		.byte	0x2
 3282 0b73 23       		.byte	0x23
 3283 0b74 28       		.uleb128 0x28
 3284 0b75 0D       		.uleb128 0xd
 3285 0b76 A9030000 		.4byte	.LASF151
 3286 0b7a 0B       		.byte	0xb
 3287 0b7b 9D       		.byte	0x9d
 3288 0b7c AE0B0000 		.4byte	0xbae
 3289 0b80 02       		.byte	0x2
 3290 0b81 23       		.byte	0x23
 3291 0b82 2C       		.uleb128 0x2c
 3292 0b83 11       		.uleb128 0x11
 3293 0b84 445200   		.ascii	"DR\000"
 3294 0b87 0B       		.byte	0xb
 3295 0b88 9E       		.byte	0x9e
 3296 0b89 480A0000 		.4byte	0xa48
 3297 0b8d 02       		.byte	0x2
 3298 0b8e 23       		.byte	0x23
 3299 0b8f 40       		.uleb128 0x40
 3300 0b90 0D       		.uleb128 0xd
 3301 0b91 B3030000 		.4byte	.LASF152
 3302 0b95 0B       		.byte	0xb
 3303 0b96 9F       		.byte	0x9f
ARM GAS  C:\Users\EBANO_~1\AppData\Local\Temp\ccsZgiNd.s 			page 79


 3304 0b97 BE0B0000 		.4byte	0xbbe
 3305 0b9b 02       		.byte	0x2
 3306 0b9c 23       		.byte	0x23
 3307 0b9d 44       		.uleb128 0x44
 3308 0b9e 0D       		.uleb128 0xd
 3309 0b9f B00E0000 		.4byte	.LASF153
 3310 0ba3 0B       		.byte	0xb
 3311 0ba4 A0       		.byte	0xa0
 3312 0ba5 480A0000 		.4byte	0xa48
 3313 0ba9 03       		.byte	0x3
 3314 0baa 23       		.byte	0x23
 3315 0bab B401     		.uleb128 0xb4
 3316 0bad 00       		.byte	0
 3317 0bae 0A       		.uleb128 0xa
 3318 0baf 3D0A0000 		.4byte	0xa3d
 3319 0bb3 BE0B0000 		.4byte	0xbbe
 3320 0bb7 0B       		.uleb128 0xb
 3321 0bb8 30000000 		.4byte	0x30
 3322 0bbc 04       		.byte	0x4
 3323 0bbd 00       		.byte	0
 3324 0bbe 0A       		.uleb128 0xa
 3325 0bbf 3D0A0000 		.4byte	0xa3d
 3326 0bc3 CE0B0000 		.4byte	0xbce
 3327 0bc7 0B       		.uleb128 0xb
 3328 0bc8 30000000 		.4byte	0x30
 3329 0bcc 1B       		.byte	0x1b
 3330 0bcd 00       		.byte	0
 3331 0bce 04       		.uleb128 0x4
 3332 0bcf D8050000 		.4byte	.LASF154
 3333 0bd3 0B       		.byte	0xb
 3334 0bd4 A1       		.byte	0xa1
 3335 0bd5 D50A0000 		.4byte	0xad5
 3336 0bd9 0C       		.uleb128 0xc
 3337 0bda 10       		.byte	0x10
 3338 0bdb 0B       		.byte	0xb
 3339 0bdc FA       		.byte	0xfa
 3340 0bdd 1A0C0000 		.4byte	0xc1a
 3341 0be1 11       		.uleb128 0x11
 3342 0be2 43435200 		.ascii	"CCR\000"
 3343 0be6 0B       		.byte	0xb
 3344 0be7 FC       		.byte	0xfc
 3345 0be8 480A0000 		.4byte	0xa48
 3346 0bec 02       		.byte	0x2
 3347 0bed 23       		.byte	0x23
 3348 0bee 00       		.uleb128 0
 3349 0bef 0D       		.uleb128 0xd
 3350 0bf0 C5010000 		.4byte	.LASF155
 3351 0bf4 0B       		.byte	0xb
 3352 0bf5 FD       		.byte	0xfd
 3353 0bf6 480A0000 		.4byte	0xa48
 3354 0bfa 02       		.byte	0x2
 3355 0bfb 23       		.byte	0x23
 3356 0bfc 04       		.uleb128 0x4
 3357 0bfd 0D       		.uleb128 0xd
 3358 0bfe 21030000 		.4byte	.LASF156
 3359 0c02 0B       		.byte	0xb
 3360 0c03 FE       		.byte	0xfe
ARM GAS  C:\Users\EBANO_~1\AppData\Local\Temp\ccsZgiNd.s 			page 80


 3361 0c04 480A0000 		.4byte	0xa48
 3362 0c08 02       		.byte	0x2
 3363 0c09 23       		.byte	0x23
 3364 0c0a 08       		.uleb128 0x8
 3365 0c0b 0D       		.uleb128 0xd
 3366 0c0c 320A0000 		.4byte	.LASF157
 3367 0c10 0B       		.byte	0xb
 3368 0c11 FF       		.byte	0xff
 3369 0c12 480A0000 		.4byte	0xa48
 3370 0c16 02       		.byte	0x2
 3371 0c17 23       		.byte	0x23
 3372 0c18 0C       		.uleb128 0xc
 3373 0c19 00       		.byte	0
 3374 0c1a 07       		.uleb128 0x7
 3375 0c1b A10B0000 		.4byte	.LASF158
 3376 0c1f 0B       		.byte	0xb
 3377 0c20 0001     		.2byte	0x100
 3378 0c22 D90B0000 		.4byte	0xbd9
 3379 0c26 19       		.uleb128 0x19
 3380 0c27 2C       		.byte	0x2c
 3381 0c28 0B       		.byte	0xb
 3382 0c29 3F01     		.2byte	0x13f
 3383 0c2b C60C0000 		.4byte	0xcc6
 3384 0c2f 17       		.uleb128 0x17
 3385 0c30 52090000 		.4byte	.LASF159
 3386 0c34 0B       		.byte	0xb
 3387 0c35 4101     		.2byte	0x141
 3388 0c37 480A0000 		.4byte	0xa48
 3389 0c3b 02       		.byte	0x2
 3390 0c3c 23       		.byte	0x23
 3391 0c3d 00       		.uleb128 0
 3392 0c3e 17       		.uleb128 0x17
 3393 0c3f 960D0000 		.4byte	.LASF160
 3394 0c43 0B       		.byte	0xb
 3395 0c44 4201     		.2byte	0x142
 3396 0c46 480A0000 		.4byte	0xa48
 3397 0c4a 02       		.byte	0x2
 3398 0c4b 23       		.byte	0x23
 3399 0c4c 04       		.uleb128 0x4
 3400 0c4d 17       		.uleb128 0x17
 3401 0c4e 55000000 		.4byte	.LASF161
 3402 0c52 0B       		.byte	0xb
 3403 0c53 4301     		.2byte	0x143
 3404 0c55 480A0000 		.4byte	0xa48
 3405 0c59 02       		.byte	0x2
 3406 0c5a 23       		.byte	0x23
 3407 0c5b 08       		.uleb128 0x8
 3408 0c5c 17       		.uleb128 0x17
 3409 0c5d 84080000 		.4byte	.LASF162
 3410 0c61 0B       		.byte	0xb
 3411 0c62 4401     		.2byte	0x144
 3412 0c64 480A0000 		.4byte	0xa48
 3413 0c68 02       		.byte	0x2
 3414 0c69 23       		.byte	0x23
 3415 0c6a 0C       		.uleb128 0xc
 3416 0c6b 23       		.uleb128 0x23
 3417 0c6c 49445200 		.ascii	"IDR\000"
ARM GAS  C:\Users\EBANO_~1\AppData\Local\Temp\ccsZgiNd.s 			page 81


 3418 0c70 0B       		.byte	0xb
 3419 0c71 4501     		.2byte	0x145
 3420 0c73 480A0000 		.4byte	0xa48
 3421 0c77 02       		.byte	0x2
 3422 0c78 23       		.byte	0x23
 3423 0c79 10       		.uleb128 0x10
 3424 0c7a 23       		.uleb128 0x23
 3425 0c7b 4F445200 		.ascii	"ODR\000"
 3426 0c7f 0B       		.byte	0xb
 3427 0c80 4601     		.2byte	0x146
 3428 0c82 480A0000 		.4byte	0xa48
 3429 0c86 02       		.byte	0x2
 3430 0c87 23       		.byte	0x23
 3431 0c88 14       		.uleb128 0x14
 3432 0c89 17       		.uleb128 0x17
 3433 0c8a F50F0000 		.4byte	.LASF163
 3434 0c8e 0B       		.byte	0xb
 3435 0c8f 4701     		.2byte	0x147
 3436 0c91 480A0000 		.4byte	0xa48
 3437 0c95 02       		.byte	0x2
 3438 0c96 23       		.byte	0x23
 3439 0c97 18       		.uleb128 0x18
 3440 0c98 17       		.uleb128 0x17
 3441 0c99 AA070000 		.4byte	.LASF164
 3442 0c9d 0B       		.byte	0xb
 3443 0c9e 4801     		.2byte	0x148
 3444 0ca0 480A0000 		.4byte	0xa48
 3445 0ca4 02       		.byte	0x2
 3446 0ca5 23       		.byte	0x23
 3447 0ca6 1C       		.uleb128 0x1c
 3448 0ca7 23       		.uleb128 0x23
 3449 0ca8 41465200 		.ascii	"AFR\000"
 3450 0cac 0B       		.byte	0xb
 3451 0cad 4901     		.2byte	0x149
 3452 0caf 5D0A0000 		.4byte	0xa5d
 3453 0cb3 02       		.byte	0x2
 3454 0cb4 23       		.byte	0x23
 3455 0cb5 20       		.uleb128 0x20
 3456 0cb6 23       		.uleb128 0x23
 3457 0cb7 42525200 		.ascii	"BRR\000"
 3458 0cbb 0B       		.byte	0xb
 3459 0cbc 4A01     		.2byte	0x14a
 3460 0cbe 480A0000 		.4byte	0xa48
 3461 0cc2 02       		.byte	0x2
 3462 0cc3 23       		.byte	0x23
 3463 0cc4 28       		.uleb128 0x28
 3464 0cc5 00       		.byte	0
 3465 0cc6 07       		.uleb128 0x7
 3466 0cc7 1F100000 		.4byte	.LASF165
 3467 0ccb 0B       		.byte	0xb
 3468 0ccc 4B01     		.2byte	0x14b
 3469 0cce 260C0000 		.4byte	0xc26
 3470 0cd2 19       		.uleb128 0x19
 3471 0cd3 08       		.byte	0x8
 3472 0cd4 0B       		.byte	0xb
 3473 0cd5 9F01     		.2byte	0x19f
 3474 0cd7 F90C0000 		.4byte	0xcf9
ARM GAS  C:\Users\EBANO_~1\AppData\Local\Temp\ccsZgiNd.s 			page 82


 3475 0cdb 23       		.uleb128 0x23
 3476 0cdc 435200   		.ascii	"CR\000"
 3477 0cdf 0B       		.byte	0xb
 3478 0ce0 A101     		.2byte	0x1a1
 3479 0ce2 480A0000 		.4byte	0xa48
 3480 0ce6 02       		.byte	0x2
 3481 0ce7 23       		.byte	0x23
 3482 0ce8 00       		.uleb128 0
 3483 0ce9 23       		.uleb128 0x23
 3484 0cea 43535200 		.ascii	"CSR\000"
 3485 0cee 0B       		.byte	0xb
 3486 0cef A201     		.2byte	0x1a2
 3487 0cf1 480A0000 		.4byte	0xa48
 3488 0cf5 02       		.byte	0x2
 3489 0cf6 23       		.byte	0x23
 3490 0cf7 04       		.uleb128 0x4
 3491 0cf8 00       		.byte	0
 3492 0cf9 07       		.uleb128 0x7
 3493 0cfa F9100000 		.4byte	.LASF166
 3494 0cfe 0B       		.byte	0xb
 3495 0cff A301     		.2byte	0x1a3
 3496 0d01 D20C0000 		.4byte	0xcd2
 3497 0d05 19       		.uleb128 0x19
 3498 0d06 54       		.byte	0x54
 3499 0d07 0B       		.byte	0xb
 3500 0d08 A801     		.2byte	0x1a8
 3501 0d0a 490E0000 		.4byte	0xe49
 3502 0d0e 23       		.uleb128 0x23
 3503 0d0f 435200   		.ascii	"CR\000"
 3504 0d12 0B       		.byte	0xb
 3505 0d13 AA01     		.2byte	0x1aa
 3506 0d15 480A0000 		.4byte	0xa48
 3507 0d19 02       		.byte	0x2
 3508 0d1a 23       		.byte	0x23
 3509 0d1b 00       		.uleb128 0
 3510 0d1c 17       		.uleb128 0x17
 3511 0d1d 5E010000 		.4byte	.LASF167
 3512 0d21 0B       		.byte	0xb
 3513 0d22 AB01     		.2byte	0x1ab
 3514 0d24 480A0000 		.4byte	0xa48
 3515 0d28 02       		.byte	0x2
 3516 0d29 23       		.byte	0x23
 3517 0d2a 04       		.uleb128 0x4
 3518 0d2b 17       		.uleb128 0x17
 3519 0d2c FD050000 		.4byte	.LASF168
 3520 0d30 0B       		.byte	0xb
 3521 0d31 AC01     		.2byte	0x1ac
 3522 0d33 480A0000 		.4byte	0xa48
 3523 0d37 02       		.byte	0x2
 3524 0d38 23       		.byte	0x23
 3525 0d39 08       		.uleb128 0x8
 3526 0d3a 17       		.uleb128 0x17
 3527 0d3b 2B060000 		.4byte	.LASF169
 3528 0d3f 0B       		.byte	0xb
 3529 0d40 AD01     		.2byte	0x1ad
 3530 0d42 480A0000 		.4byte	0xa48
 3531 0d46 02       		.byte	0x2
ARM GAS  C:\Users\EBANO_~1\AppData\Local\Temp\ccsZgiNd.s 			page 83


 3532 0d47 23       		.byte	0x23
 3533 0d48 0C       		.uleb128 0xc
 3534 0d49 17       		.uleb128 0x17
 3535 0d4a 05110000 		.4byte	.LASF170
 3536 0d4e 0B       		.byte	0xb
 3537 0d4f AE01     		.2byte	0x1ae
 3538 0d51 480A0000 		.4byte	0xa48
 3539 0d55 02       		.byte	0x2
 3540 0d56 23       		.byte	0x23
 3541 0d57 10       		.uleb128 0x10
 3542 0d58 17       		.uleb128 0x17
 3543 0d59 F1110000 		.4byte	.LASF171
 3544 0d5d 0B       		.byte	0xb
 3545 0d5e AF01     		.2byte	0x1af
 3546 0d60 480A0000 		.4byte	0xa48
 3547 0d64 02       		.byte	0x2
 3548 0d65 23       		.byte	0x23
 3549 0d66 14       		.uleb128 0x14
 3550 0d67 17       		.uleb128 0x17
 3551 0d68 E10F0000 		.4byte	.LASF172
 3552 0d6c 0B       		.byte	0xb
 3553 0d6d B001     		.2byte	0x1b0
 3554 0d6f 480A0000 		.4byte	0xa48
 3555 0d73 02       		.byte	0x2
 3556 0d74 23       		.byte	0x23
 3557 0d75 18       		.uleb128 0x18
 3558 0d76 17       		.uleb128 0x17
 3559 0d77 48120000 		.4byte	.LASF173
 3560 0d7b 0B       		.byte	0xb
 3561 0d7c B101     		.2byte	0x1b1
 3562 0d7e 480A0000 		.4byte	0xa48
 3563 0d82 02       		.byte	0x2
 3564 0d83 23       		.byte	0x23
 3565 0d84 1C       		.uleb128 0x1c
 3566 0d85 17       		.uleb128 0x17
 3567 0d86 F7070000 		.4byte	.LASF174
 3568 0d8a 0B       		.byte	0xb
 3569 0d8b B201     		.2byte	0x1b2
 3570 0d8d 480A0000 		.4byte	0xa48
 3571 0d91 02       		.byte	0x2
 3572 0d92 23       		.byte	0x23
 3573 0d93 20       		.uleb128 0x20
 3574 0d94 17       		.uleb128 0x17
 3575 0d95 C4080000 		.4byte	.LASF175
 3576 0d99 0B       		.byte	0xb
 3577 0d9a B301     		.2byte	0x1b3
 3578 0d9c 480A0000 		.4byte	0xa48
 3579 0da0 02       		.byte	0x2
 3580 0da1 23       		.byte	0x23
 3581 0da2 24       		.uleb128 0x24
 3582 0da3 17       		.uleb128 0x17
 3583 0da4 50120000 		.4byte	.LASF176
 3584 0da8 0B       		.byte	0xb
 3585 0da9 B401     		.2byte	0x1b4
 3586 0dab 480A0000 		.4byte	0xa48
 3587 0daf 02       		.byte	0x2
 3588 0db0 23       		.byte	0x23
ARM GAS  C:\Users\EBANO_~1\AppData\Local\Temp\ccsZgiNd.s 			page 84


 3589 0db1 28       		.uleb128 0x28
 3590 0db2 17       		.uleb128 0x17
 3591 0db3 110D0000 		.4byte	.LASF177
 3592 0db7 0B       		.byte	0xb
 3593 0db8 B501     		.2byte	0x1b5
 3594 0dba 480A0000 		.4byte	0xa48
 3595 0dbe 02       		.byte	0x2
 3596 0dbf 23       		.byte	0x23
 3597 0dc0 2C       		.uleb128 0x2c
 3598 0dc1 17       		.uleb128 0x17
 3599 0dc2 D10F0000 		.4byte	.LASF178
 3600 0dc6 0B       		.byte	0xb
 3601 0dc7 B601     		.2byte	0x1b6
 3602 0dc9 480A0000 		.4byte	0xa48
 3603 0dcd 02       		.byte	0x2
 3604 0dce 23       		.byte	0x23
 3605 0dcf 30       		.uleb128 0x30
 3606 0dd0 17       		.uleb128 0x17
 3607 0dd1 F4020000 		.4byte	.LASF179
 3608 0dd5 0B       		.byte	0xb
 3609 0dd6 B701     		.2byte	0x1b7
 3610 0dd8 480A0000 		.4byte	0xa48
 3611 0ddc 02       		.byte	0x2
 3612 0ddd 23       		.byte	0x23
 3613 0dde 34       		.uleb128 0x34
 3614 0ddf 17       		.uleb128 0x17
 3615 0de0 C30B0000 		.4byte	.LASF180
 3616 0de4 0B       		.byte	0xb
 3617 0de5 B801     		.2byte	0x1b8
 3618 0de7 480A0000 		.4byte	0xa48
 3619 0deb 02       		.byte	0x2
 3620 0dec 23       		.byte	0x23
 3621 0ded 38       		.uleb128 0x38
 3622 0dee 17       		.uleb128 0x17
 3623 0def 52020000 		.4byte	.LASF181
 3624 0df3 0B       		.byte	0xb
 3625 0df4 B901     		.2byte	0x1b9
 3626 0df6 480A0000 		.4byte	0xa48
 3627 0dfa 02       		.byte	0x2
 3628 0dfb 23       		.byte	0x23
 3629 0dfc 3C       		.uleb128 0x3c
 3630 0dfd 17       		.uleb128 0x17
 3631 0dfe 49020000 		.4byte	.LASF182
 3632 0e02 0B       		.byte	0xb
 3633 0e03 BA01     		.2byte	0x1ba
 3634 0e05 480A0000 		.4byte	0xa48
 3635 0e09 02       		.byte	0x2
 3636 0e0a 23       		.byte	0x23
 3637 0e0b 40       		.uleb128 0x40
 3638 0e0c 17       		.uleb128 0x17
 3639 0e0d AF110000 		.4byte	.LASF183
 3640 0e11 0B       		.byte	0xb
 3641 0e12 BB01     		.2byte	0x1bb
 3642 0e14 480A0000 		.4byte	0xa48
 3643 0e18 02       		.byte	0x2
 3644 0e19 23       		.byte	0x23
 3645 0e1a 44       		.uleb128 0x44
ARM GAS  C:\Users\EBANO_~1\AppData\Local\Temp\ccsZgiNd.s 			page 85


 3646 0e1b 17       		.uleb128 0x17
 3647 0e1c 19000000 		.4byte	.LASF184
 3648 0e20 0B       		.byte	0xb
 3649 0e21 BC01     		.2byte	0x1bc
 3650 0e23 480A0000 		.4byte	0xa48
 3651 0e27 02       		.byte	0x2
 3652 0e28 23       		.byte	0x23
 3653 0e29 48       		.uleb128 0x48
 3654 0e2a 17       		.uleb128 0x17
 3655 0e2b EC060000 		.4byte	.LASF185
 3656 0e2f 0B       		.byte	0xb
 3657 0e30 BD01     		.2byte	0x1bd
 3658 0e32 480A0000 		.4byte	0xa48
 3659 0e36 02       		.byte	0x2
 3660 0e37 23       		.byte	0x23
 3661 0e38 4C       		.uleb128 0x4c
 3662 0e39 23       		.uleb128 0x23
 3663 0e3a 43535200 		.ascii	"CSR\000"
 3664 0e3e 0B       		.byte	0xb
 3665 0e3f BE01     		.2byte	0x1be
 3666 0e41 480A0000 		.4byte	0xa48
 3667 0e45 02       		.byte	0x2
 3668 0e46 23       		.byte	0x23
 3669 0e47 50       		.uleb128 0x50
 3670 0e48 00       		.byte	0
 3671 0e49 07       		.uleb128 0x7
 3672 0e4a 870E0000 		.4byte	.LASF186
 3673 0e4e 0B       		.byte	0xb
 3674 0e4f BF01     		.2byte	0x1bf
 3675 0e51 050D0000 		.4byte	0xd05
 3676 0e55 24       		.uleb128 0x24
 3677 0e56 07       		.byte	0x7
 3678 0e57 01       		.byte	0x1
 3679 0e58 62000000 		.4byte	0x62
 3680 0e5c 0C       		.byte	0xc
 3681 0e5d BE       		.byte	0xbe
 3682 0e5e 6F0E0000 		.4byte	0xe6f
 3683 0e62 20       		.uleb128 0x20
 3684 0e63 710D0000 		.4byte	.LASF187
 3685 0e67 00       		.byte	0
 3686 0e68 25       		.uleb128 0x25
 3687 0e69 53455400 		.ascii	"SET\000"
 3688 0e6d 01       		.byte	0x1
 3689 0e6e 00       		.byte	0
 3690 0e6f 24       		.uleb128 0x24
 3691 0e70 07       		.byte	0x7
 3692 0e71 01       		.byte	0x1
 3693 0e72 62000000 		.4byte	0x62
 3694 0e76 0C       		.byte	0xc
 3695 0e77 C4       		.byte	0xc4
 3696 0e78 890E0000 		.4byte	0xe89
 3697 0e7c 20       		.uleb128 0x20
 3698 0e7d 210B0000 		.4byte	.LASF188
 3699 0e81 00       		.byte	0
 3700 0e82 20       		.uleb128 0x20
 3701 0e83 C00F0000 		.4byte	.LASF189
 3702 0e87 01       		.byte	0x1
ARM GAS  C:\Users\EBANO_~1\AppData\Local\Temp\ccsZgiNd.s 			page 86


 3703 0e88 00       		.byte	0
 3704 0e89 24       		.uleb128 0x24
 3705 0e8a 07       		.byte	0x7
 3706 0e8b 01       		.byte	0x1
 3707 0e8c 62000000 		.4byte	0x62
 3708 0e90 0D       		.byte	0xd
 3709 0e91 38       		.byte	0x38
 3710 0e92 AF0E0000 		.4byte	0xeaf
 3711 0e96 20       		.uleb128 0x20
 3712 0e97 54030000 		.4byte	.LASF190
 3713 0e9b 00       		.byte	0
 3714 0e9c 20       		.uleb128 0x20
 3715 0e9d 5E0C0000 		.4byte	.LASF191
 3716 0ea1 01       		.byte	0x1
 3717 0ea2 20       		.uleb128 0x20
 3718 0ea3 910B0000 		.4byte	.LASF192
 3719 0ea7 02       		.byte	0x2
 3720 0ea8 20       		.uleb128 0x20
 3721 0ea9 36110000 		.4byte	.LASF193
 3722 0ead 03       		.byte	0x3
 3723 0eae 00       		.byte	0
 3724 0eaf 24       		.uleb128 0x24
 3725 0eb0 07       		.byte	0x7
 3726 0eb1 01       		.byte	0x1
 3727 0eb2 62000000 		.4byte	0x62
 3728 0eb6 0D       		.byte	0xd
 3729 0eb7 43       		.byte	0x43
 3730 0eb8 C90E0000 		.4byte	0xec9
 3731 0ebc 20       		.uleb128 0x20
 3732 0ebd B00C0000 		.4byte	.LASF194
 3733 0ec1 00       		.byte	0
 3734 0ec2 20       		.uleb128 0x20
 3735 0ec3 26110000 		.4byte	.LASF195
 3736 0ec7 01       		.byte	0x1
 3737 0ec8 00       		.byte	0
 3738 0ec9 04       		.uleb128 0x4
 3739 0eca 87070000 		.4byte	.LASF196
 3740 0ece 0D       		.byte	0xd
 3741 0ecf 46       		.byte	0x46
 3742 0ed0 AF0E0000 		.4byte	0xeaf
 3743 0ed4 0C       		.uleb128 0xc
 3744 0ed5 10       		.byte	0x10
 3745 0ed6 0E       		.byte	0xe
 3746 0ed7 EC       		.byte	0xec
 3747 0ed8 150F0000 		.4byte	0xf15
 3748 0edc 0D       		.uleb128 0xd
 3749 0edd 81110000 		.4byte	.LASF197
 3750 0ee1 0E       		.byte	0xe
 3751 0ee2 EE       		.byte	0xee
 3752 0ee3 3D0A0000 		.4byte	0xa3d
 3753 0ee7 02       		.byte	0x2
 3754 0ee8 23       		.byte	0x23
 3755 0ee9 00       		.uleb128 0
 3756 0eea 0D       		.uleb128 0xd
 3757 0eeb CC060000 		.4byte	.LASF198
 3758 0eef 0E       		.byte	0xe
 3759 0ef0 F1       		.byte	0xf1
ARM GAS  C:\Users\EBANO_~1\AppData\Local\Temp\ccsZgiNd.s 			page 87


 3760 0ef1 3D0A0000 		.4byte	0xa3d
 3761 0ef5 02       		.byte	0x2
 3762 0ef6 23       		.byte	0x23
 3763 0ef7 04       		.uleb128 0x4
 3764 0ef8 0D       		.uleb128 0xd
 3765 0ef9 37120000 		.4byte	.LASF199
 3766 0efd 0E       		.byte	0xe
 3767 0efe F4       		.byte	0xf4
 3768 0eff 3D0A0000 		.4byte	0xa3d
 3769 0f03 02       		.byte	0x2
 3770 0f04 23       		.byte	0x23
 3771 0f05 08       		.uleb128 0x8
 3772 0f06 0D       		.uleb128 0xd
 3773 0f07 D50D0000 		.4byte	.LASF200
 3774 0f0b 0E       		.byte	0xe
 3775 0f0c F7       		.byte	0xf7
 3776 0f0d 3D0A0000 		.4byte	0xa3d
 3777 0f11 02       		.byte	0x2
 3778 0f12 23       		.byte	0x23
 3779 0f13 0C       		.uleb128 0xc
 3780 0f14 00       		.byte	0
 3781 0f15 04       		.uleb128 0x4
 3782 0f16 8C0C0000 		.4byte	.LASF201
 3783 0f1a 0E       		.byte	0xe
 3784 0f1b F9       		.byte	0xf9
 3785 0f1c D40E0000 		.4byte	0xed4
 3786 0f20 0C       		.uleb128 0xc
 3787 0f21 38       		.byte	0x38
 3788 0f22 0E       		.byte	0xe
 3789 0f23 FE       		.byte	0xfe
 3790 0f24 CE0F0000 		.4byte	0xfce
 3791 0f28 17       		.uleb128 0x17
 3792 0f29 E2110000 		.4byte	.LASF202
 3793 0f2d 0E       		.byte	0xe
 3794 0f2e 0001     		.2byte	0x100
 3795 0f30 3D0A0000 		.4byte	0xa3d
 3796 0f34 02       		.byte	0x2
 3797 0f35 23       		.byte	0x23
 3798 0f36 00       		.uleb128 0
 3799 0f37 17       		.uleb128 0x17
 3800 0f38 7B090000 		.4byte	.LASF203
 3801 0f3c 0E       		.byte	0xe
 3802 0f3d 0301     		.2byte	0x103
 3803 0f3f 3D0A0000 		.4byte	0xa3d
 3804 0f43 02       		.byte	0x2
 3805 0f44 23       		.byte	0x23
 3806 0f45 04       		.uleb128 0x4
 3807 0f46 17       		.uleb128 0x17
 3808 0f47 00020000 		.4byte	.LASF204
 3809 0f4b 0E       		.byte	0xe
 3810 0f4c 0601     		.2byte	0x106
 3811 0f4e 3D0A0000 		.4byte	0xa3d
 3812 0f52 02       		.byte	0x2
 3813 0f53 23       		.byte	0x23
 3814 0f54 08       		.uleb128 0x8
 3815 0f55 17       		.uleb128 0x17
 3816 0f56 B4050000 		.4byte	.LASF205
ARM GAS  C:\Users\EBANO_~1\AppData\Local\Temp\ccsZgiNd.s 			page 88


 3817 0f5a 0E       		.byte	0xe
 3818 0f5b 0901     		.2byte	0x109
 3819 0f5d 3D0A0000 		.4byte	0xa3d
 3820 0f61 02       		.byte	0x2
 3821 0f62 23       		.byte	0x23
 3822 0f63 0C       		.uleb128 0xc
 3823 0f64 17       		.uleb128 0x17
 3824 0f65 A30D0000 		.4byte	.LASF206
 3825 0f69 0E       		.byte	0xe
 3826 0f6a 0C01     		.2byte	0x10c
 3827 0f6c 3D0A0000 		.4byte	0xa3d
 3828 0f70 02       		.byte	0x2
 3829 0f71 23       		.byte	0x23
 3830 0f72 10       		.uleb128 0x10
 3831 0f73 17       		.uleb128 0x17
 3832 0f74 6C030000 		.4byte	.LASF207
 3833 0f78 0E       		.byte	0xe
 3834 0f79 0F01     		.2byte	0x10f
 3835 0f7b 3D0A0000 		.4byte	0xa3d
 3836 0f7f 02       		.byte	0x2
 3837 0f80 23       		.byte	0x23
 3838 0f81 14       		.uleb128 0x14
 3839 0f82 17       		.uleb128 0x17
 3840 0f83 7C070000 		.4byte	.LASF208
 3841 0f87 0E       		.byte	0xe
 3842 0f88 1301     		.2byte	0x113
 3843 0f8a 3D0A0000 		.4byte	0xa3d
 3844 0f8e 02       		.byte	0x2
 3845 0f8f 23       		.byte	0x23
 3846 0f90 18       		.uleb128 0x18
 3847 0f91 17       		.uleb128 0x17
 3848 0f92 D80F0000 		.4byte	.LASF209
 3849 0f96 0E       		.byte	0xe
 3850 0f97 1701     		.2byte	0x117
 3851 0f99 3D0A0000 		.4byte	0xa3d
 3852 0f9d 02       		.byte	0x2
 3853 0f9e 23       		.byte	0x23
 3854 0f9f 1C       		.uleb128 0x1c
 3855 0fa0 17       		.uleb128 0x17
 3856 0fa1 2B090000 		.4byte	.LASF210
 3857 0fa5 0E       		.byte	0xe
 3858 0fa6 1A01     		.2byte	0x11a
 3859 0fa8 3D0A0000 		.4byte	0xa3d
 3860 0fac 02       		.byte	0x2
 3861 0fad 23       		.byte	0x23
 3862 0fae 20       		.uleb128 0x20
 3863 0faf 17       		.uleb128 0x17
 3864 0fb0 16120000 		.4byte	.LASF211
 3865 0fb4 0E       		.byte	0xe
 3866 0fb5 1D01     		.2byte	0x11d
 3867 0fb7 3D0A0000 		.4byte	0xa3d
 3868 0fbb 02       		.byte	0x2
 3869 0fbc 23       		.byte	0x23
 3870 0fbd 24       		.uleb128 0x24
 3871 0fbe 23       		.uleb128 0x23
 3872 0fbf 504C4C00 		.ascii	"PLL\000"
 3873 0fc3 0E       		.byte	0xe
ARM GAS  C:\Users\EBANO_~1\AppData\Local\Temp\ccsZgiNd.s 			page 89


 3874 0fc4 2001     		.2byte	0x120
 3875 0fc6 150F0000 		.4byte	0xf15
 3876 0fca 02       		.byte	0x2
 3877 0fcb 23       		.byte	0x23
 3878 0fcc 28       		.uleb128 0x28
 3879 0fcd 00       		.byte	0
 3880 0fce 07       		.uleb128 0x7
 3881 0fcf 19070000 		.4byte	.LASF212
 3882 0fd3 0E       		.byte	0xe
 3883 0fd4 2201     		.2byte	0x122
 3884 0fd6 200F0000 		.4byte	0xf20
 3885 0fda 19       		.uleb128 0x19
 3886 0fdb 14       		.byte	0x14
 3887 0fdc 0E       		.byte	0xe
 3888 0fdd 2701     		.2byte	0x127
 3889 0fdf 2F100000 		.4byte	0x102f
 3890 0fe3 17       		.uleb128 0x17
 3891 0fe4 B60F0000 		.4byte	.LASF213
 3892 0fe8 0E       		.byte	0xe
 3893 0fe9 2901     		.2byte	0x129
 3894 0feb 3D0A0000 		.4byte	0xa3d
 3895 0fef 02       		.byte	0x2
 3896 0ff0 23       		.byte	0x23
 3897 0ff1 00       		.uleb128 0
 3898 0ff2 17       		.uleb128 0x17
 3899 0ff3 51010000 		.4byte	.LASF214
 3900 0ff7 0E       		.byte	0xe
 3901 0ff8 2C01     		.2byte	0x12c
 3902 0ffa 3D0A0000 		.4byte	0xa3d
 3903 0ffe 02       		.byte	0x2
 3904 0fff 23       		.byte	0x23
 3905 1000 04       		.uleb128 0x4
 3906 1001 17       		.uleb128 0x17
 3907 1002 B7060000 		.4byte	.LASF215
 3908 1006 0E       		.byte	0xe
 3909 1007 2F01     		.2byte	0x12f
 3910 1009 3D0A0000 		.4byte	0xa3d
 3911 100d 02       		.byte	0x2
 3912 100e 23       		.byte	0x23
 3913 100f 08       		.uleb128 0x8
 3914 1010 17       		.uleb128 0x17
 3915 1011 63110000 		.4byte	.LASF216
 3916 1015 0E       		.byte	0xe
 3917 1016 3201     		.2byte	0x132
 3918 1018 3D0A0000 		.4byte	0xa3d
 3919 101c 02       		.byte	0x2
 3920 101d 23       		.byte	0x23
 3921 101e 0C       		.uleb128 0xc
 3922 101f 17       		.uleb128 0x17
 3923 1020 D4030000 		.4byte	.LASF217
 3924 1024 0E       		.byte	0xe
 3925 1025 3501     		.2byte	0x135
 3926 1027 3D0A0000 		.4byte	0xa3d
 3927 102b 02       		.byte	0x2
 3928 102c 23       		.byte	0x23
 3929 102d 10       		.uleb128 0x10
 3930 102e 00       		.byte	0
ARM GAS  C:\Users\EBANO_~1\AppData\Local\Temp\ccsZgiNd.s 			page 90


 3931 102f 07       		.uleb128 0x7
 3932 1030 CE000000 		.4byte	.LASF218
 3933 1034 0E       		.byte	0xe
 3934 1035 3701     		.2byte	0x137
 3935 1037 DA0F0000 		.4byte	0xfda
 3936 103b 0C       		.uleb128 0xc
 3937 103c 14       		.byte	0x14
 3938 103d 0F       		.byte	0xf
 3939 103e 44       		.byte	0x44
 3940 103f 8A100000 		.4byte	0x108a
 3941 1043 11       		.uleb128 0x11
 3942 1044 50696E00 		.ascii	"Pin\000"
 3943 1048 0F       		.byte	0xf
 3944 1049 46       		.byte	0x46
 3945 104a 3D0A0000 		.4byte	0xa3d
 3946 104e 02       		.byte	0x2
 3947 104f 23       		.byte	0x23
 3948 1050 00       		.uleb128 0
 3949 1051 0D       		.uleb128 0xd
 3950 1052 6E0B0000 		.4byte	.LASF219
 3951 1056 0F       		.byte	0xf
 3952 1057 49       		.byte	0x49
 3953 1058 3D0A0000 		.4byte	0xa3d
 3954 105c 02       		.byte	0x2
 3955 105d 23       		.byte	0x23
 3956 105e 04       		.uleb128 0x4
 3957 105f 0D       		.uleb128 0xd
 3958 1060 510B0000 		.4byte	.LASF220
 3959 1064 0F       		.byte	0xf
 3960 1065 4C       		.byte	0x4c
 3961 1066 3D0A0000 		.4byte	0xa3d
 3962 106a 02       		.byte	0x2
 3963 106b 23       		.byte	0x23
 3964 106c 08       		.uleb128 0x8
 3965 106d 0D       		.uleb128 0xd
 3966 106e 13000000 		.4byte	.LASF221
 3967 1072 0F       		.byte	0xf
 3968 1073 4F       		.byte	0x4f
 3969 1074 3D0A0000 		.4byte	0xa3d
 3970 1078 02       		.byte	0x2
 3971 1079 23       		.byte	0x23
 3972 107a 0C       		.uleb128 0xc
 3973 107b 0D       		.uleb128 0xd
 3974 107c 21090000 		.4byte	.LASF222
 3975 1080 0F       		.byte	0xf
 3976 1081 52       		.byte	0x52
 3977 1082 3D0A0000 		.4byte	0xa3d
 3978 1086 02       		.byte	0x2
 3979 1087 23       		.byte	0x23
 3980 1088 10       		.uleb128 0x10
 3981 1089 00       		.byte	0
 3982 108a 04       		.uleb128 0x4
 3983 108b 5B030000 		.4byte	.LASF223
 3984 108f 0F       		.byte	0xf
 3985 1090 54       		.byte	0x54
 3986 1091 3B100000 		.4byte	0x103b
 3987 1095 0C       		.uleb128 0xc
ARM GAS  C:\Users\EBANO_~1\AppData\Local\Temp\ccsZgiNd.s 			page 91


 3988 1096 20       		.byte	0x20
 3989 1097 10       		.byte	0x10
 3990 1098 3F       		.byte	0x3f
 3991 1099 0E110000 		.4byte	0x110e
 3992 109d 0D       		.uleb128 0xd
 3993 109e 1E0C0000 		.4byte	.LASF224
 3994 10a2 10       		.byte	0x10
 3995 10a3 41       		.byte	0x41
 3996 10a4 3D0A0000 		.4byte	0xa3d
 3997 10a8 02       		.byte	0x2
 3998 10a9 23       		.byte	0x23
 3999 10aa 00       		.uleb128 0
 4000 10ab 0D       		.uleb128 0xd
 4001 10ac F30C0000 		.4byte	.LASF225
 4002 10b0 10       		.byte	0x10
 4003 10b1 44       		.byte	0x44
 4004 10b2 3D0A0000 		.4byte	0xa3d
 4005 10b6 02       		.byte	0x2
 4006 10b7 23       		.byte	0x23
 4007 10b8 04       		.uleb128 0x4
 4008 10b9 0D       		.uleb128 0xd
 4009 10ba 8A050000 		.4byte	.LASF226
 4010 10be 10       		.byte	0x10
 4011 10bf 48       		.byte	0x48
 4012 10c0 3D0A0000 		.4byte	0xa3d
 4013 10c4 02       		.byte	0x2
 4014 10c5 23       		.byte	0x23
 4015 10c6 08       		.uleb128 0x8
 4016 10c7 0D       		.uleb128 0xd
 4017 10c8 6E050000 		.4byte	.LASF227
 4018 10cc 10       		.byte	0x10
 4019 10cd 4C       		.byte	0x4c
 4020 10ce 3D0A0000 		.4byte	0xa3d
 4021 10d2 02       		.byte	0x2
 4022 10d3 23       		.byte	0x23
 4023 10d4 0C       		.uleb128 0xc
 4024 10d5 0D       		.uleb128 0xd
 4025 10d6 C4050000 		.4byte	.LASF228
 4026 10da 10       		.byte	0x10
 4027 10db 50       		.byte	0x50
 4028 10dc 3D0A0000 		.4byte	0xa3d
 4029 10e0 02       		.byte	0x2
 4030 10e1 23       		.byte	0x23
 4031 10e2 10       		.uleb128 0x10
 4032 10e3 0D       		.uleb128 0xd
 4033 10e4 41080000 		.4byte	.LASF229
 4034 10e8 10       		.byte	0x10
 4035 10e9 54       		.byte	0x54
 4036 10ea 3D0A0000 		.4byte	0xa3d
 4037 10ee 02       		.byte	0x2
 4038 10ef 23       		.byte	0x23
 4039 10f0 14       		.uleb128 0x14
 4040 10f1 0D       		.uleb128 0xd
 4041 10f2 6E0B0000 		.4byte	.LASF219
 4042 10f6 10       		.byte	0x10
 4043 10f7 58       		.byte	0x58
 4044 10f8 3D0A0000 		.4byte	0xa3d
ARM GAS  C:\Users\EBANO_~1\AppData\Local\Temp\ccsZgiNd.s 			page 92


 4045 10fc 02       		.byte	0x2
 4046 10fd 23       		.byte	0x23
 4047 10fe 18       		.uleb128 0x18
 4048 10ff 0D       		.uleb128 0xd
 4049 1100 D3020000 		.4byte	.LASF230
 4050 1104 10       		.byte	0x10
 4051 1105 5D       		.byte	0x5d
 4052 1106 3D0A0000 		.4byte	0xa3d
 4053 110a 02       		.byte	0x2
 4054 110b 23       		.byte	0x23
 4055 110c 1C       		.uleb128 0x1c
 4056 110d 00       		.byte	0
 4057 110e 04       		.uleb128 0x4
 4058 110f 2E0E0000 		.4byte	.LASF231
 4059 1113 10       		.byte	0x10
 4060 1114 5F       		.byte	0x5f
 4061 1115 95100000 		.4byte	0x1095
 4062 1119 24       		.uleb128 0x24
 4063 111a 07       		.byte	0x7
 4064 111b 01       		.byte	0x1
 4065 111c 62000000 		.4byte	0x62
 4066 1120 10       		.byte	0x10
 4067 1121 6F       		.byte	0x6f
 4068 1122 4B110000 		.4byte	0x114b
 4069 1126 20       		.uleb128 0x20
 4070 1127 560A0000 		.4byte	.LASF232
 4071 112b 00       		.byte	0
 4072 112c 20       		.uleb128 0x20
 4073 112d 8A110000 		.4byte	.LASF233
 4074 1131 01       		.byte	0x1
 4075 1132 20       		.uleb128 0x20
 4076 1133 F30D0000 		.4byte	.LASF234
 4077 1137 02       		.byte	0x2
 4078 1138 20       		.uleb128 0x20
 4079 1139 58090000 		.4byte	.LASF235
 4080 113d 03       		.byte	0x3
 4081 113e 20       		.uleb128 0x20
 4082 113f 1C050000 		.4byte	.LASF236
 4083 1143 04       		.byte	0x4
 4084 1144 20       		.uleb128 0x20
 4085 1145 A0000000 		.4byte	.LASF237
 4086 1149 05       		.byte	0x5
 4087 114a 00       		.byte	0
 4088 114b 04       		.uleb128 0x4
 4089 114c 260C0000 		.4byte	.LASF238
 4090 1150 10       		.byte	0x10
 4091 1151 76       		.byte	0x76
 4092 1152 19110000 		.4byte	0x1119
 4093 1156 21       		.uleb128 0x21
 4094 1157 4B110000 		.4byte	0x114b
 4095 115b 10       		.uleb128 0x10
 4096 115c 30060000 		.4byte	.LASF239
 4097 1160 40       		.byte	0x40
 4098 1161 10       		.byte	0x10
 4099 1162 86       		.byte	0x86
 4100 1163 F4110000 		.4byte	0x11f4
 4101 1167 0D       		.uleb128 0xd
ARM GAS  C:\Users\EBANO_~1\AppData\Local\Temp\ccsZgiNd.s 			page 93


 4102 1168 6A060000 		.4byte	.LASF240
 4103 116c 10       		.byte	0x10
 4104 116d 88       		.byte	0x88
 4105 116e F4110000 		.4byte	0x11f4
 4106 1172 02       		.byte	0x2
 4107 1173 23       		.byte	0x23
 4108 1174 00       		.uleb128 0
 4109 1175 0D       		.uleb128 0xd
 4110 1176 920A0000 		.4byte	.LASF241
 4111 117a 10       		.byte	0x10
 4112 117b 8A       		.byte	0x8a
 4113 117c 0E110000 		.4byte	0x110e
 4114 1180 02       		.byte	0x2
 4115 1181 23       		.byte	0x23
 4116 1182 04       		.uleb128 0x4
 4117 1183 0D       		.uleb128 0xd
 4118 1184 7C110000 		.4byte	.LASF242
 4119 1188 10       		.byte	0x10
 4120 1189 8C       		.byte	0x8c
 4121 118a C90E0000 		.4byte	0xec9
 4122 118e 02       		.byte	0x2
 4123 118f 23       		.byte	0x23
 4124 1190 24       		.uleb128 0x24
 4125 1191 0D       		.uleb128 0xd
 4126 1192 860C0000 		.4byte	.LASF243
 4127 1196 10       		.byte	0x10
 4128 1197 8E       		.byte	0x8e
 4129 1198 56110000 		.4byte	0x1156
 4130 119c 02       		.byte	0x2
 4131 119d 23       		.byte	0x23
 4132 119e 25       		.uleb128 0x25
 4133 119f 0D       		.uleb128 0xd
 4134 11a0 8B0A0000 		.4byte	.LASF244
 4135 11a4 10       		.byte	0x10
 4136 11a5 90       		.byte	0x90
 4137 11a6 5B010000 		.4byte	0x15b
 4138 11aa 02       		.byte	0x2
 4139 11ab 23       		.byte	0x23
 4140 11ac 28       		.uleb128 0x28
 4141 11ad 0D       		.uleb128 0xd
 4142 11ae D80C0000 		.4byte	.LASF245
 4143 11b2 10       		.byte	0x10
 4144 11b3 92       		.byte	0x92
 4145 11b4 0C120000 		.4byte	0x120c
 4146 11b8 02       		.byte	0x2
 4147 11b9 23       		.byte	0x23
 4148 11ba 2C       		.uleb128 0x2c
 4149 11bb 0D       		.uleb128 0xd
 4150 11bc 55100000 		.4byte	.LASF246
 4151 11c0 10       		.byte	0x10
 4152 11c1 94       		.byte	0x94
 4153 11c2 0C120000 		.4byte	0x120c
 4154 11c6 02       		.byte	0x2
 4155 11c7 23       		.byte	0x23
 4156 11c8 30       		.uleb128 0x30
 4157 11c9 0D       		.uleb128 0xd
 4158 11ca 290B0000 		.4byte	.LASF247
ARM GAS  C:\Users\EBANO_~1\AppData\Local\Temp\ccsZgiNd.s 			page 94


 4159 11ce 10       		.byte	0x10
 4160 11cf 96       		.byte	0x96
 4161 11d0 0C120000 		.4byte	0x120c
 4162 11d4 02       		.byte	0x2
 4163 11d5 23       		.byte	0x23
 4164 11d6 34       		.uleb128 0x34
 4165 11d7 0D       		.uleb128 0xd
 4166 11d8 A2050000 		.4byte	.LASF248
 4167 11dc 10       		.byte	0x10
 4168 11dd 98       		.byte	0x98
 4169 11de 0C120000 		.4byte	0x120c
 4170 11e2 02       		.byte	0x2
 4171 11e3 23       		.byte	0x23
 4172 11e4 38       		.uleb128 0x38
 4173 11e5 0D       		.uleb128 0xd
 4174 11e6 E1020000 		.4byte	.LASF249
 4175 11ea 10       		.byte	0x10
 4176 11eb 9A       		.byte	0x9a
 4177 11ec 480A0000 		.4byte	0xa48
 4178 11f0 02       		.byte	0x2
 4179 11f1 23       		.byte	0x23
 4180 11f2 3C       		.uleb128 0x3c
 4181 11f3 00       		.byte	0
 4182 11f4 05       		.uleb128 0x5
 4183 11f5 04       		.byte	0x4
 4184 11f6 1A0C0000 		.4byte	0xc1a
 4185 11fa 1C       		.uleb128 0x1c
 4186 11fb 01       		.byte	0x1
 4187 11fc 06120000 		.4byte	0x1206
 4188 1200 15       		.uleb128 0x15
 4189 1201 06120000 		.4byte	0x1206
 4190 1205 00       		.byte	0
 4191 1206 05       		.uleb128 0x5
 4192 1207 04       		.byte	0x4
 4193 1208 5B110000 		.4byte	0x115b
 4194 120c 05       		.uleb128 0x5
 4195 120d 04       		.byte	0x4
 4196 120e FA110000 		.4byte	0x11fa
 4197 1212 04       		.uleb128 0x4
 4198 1213 BD0C0000 		.4byte	.LASF250
 4199 1217 10       		.byte	0x10
 4200 1218 9C       		.byte	0x9c
 4201 1219 5B110000 		.4byte	0x115b
 4202 121d 0C       		.uleb128 0xc
 4203 121e 0C       		.byte	0xc
 4204 121f 11       		.byte	0x11
 4205 1220 3F       		.byte	0x3f
 4206 1221 50120000 		.4byte	0x1250
 4207 1225 0D       		.uleb128 0xd
 4208 1226 5A0D0000 		.4byte	.LASF251
 4209 122a 11       		.byte	0x11
 4210 122b 41       		.byte	0x41
 4211 122c 3D0A0000 		.4byte	0xa3d
 4212 1230 02       		.byte	0x2
 4213 1231 23       		.byte	0x23
 4214 1232 00       		.uleb128 0
 4215 1233 0D       		.uleb128 0xd
ARM GAS  C:\Users\EBANO_~1\AppData\Local\Temp\ccsZgiNd.s 			page 95


 4216 1234 18110000 		.4byte	.LASF252
 4217 1238 11       		.byte	0x11
 4218 1239 44       		.byte	0x44
 4219 123a 3D0A0000 		.4byte	0xa3d
 4220 123e 02       		.byte	0x2
 4221 123f 23       		.byte	0x23
 4222 1240 04       		.uleb128 0x4
 4223 1241 0D       		.uleb128 0xd
 4224 1242 29040000 		.4byte	.LASF253
 4225 1246 11       		.byte	0x11
 4226 1247 47       		.byte	0x47
 4227 1248 3D0A0000 		.4byte	0xa3d
 4228 124c 02       		.byte	0x2
 4229 124d 23       		.byte	0x23
 4230 124e 08       		.uleb128 0x8
 4231 124f 00       		.byte	0
 4232 1250 04       		.uleb128 0x4
 4233 1251 73060000 		.4byte	.LASF254
 4234 1255 11       		.byte	0x11
 4235 1256 49       		.byte	0x49
 4236 1257 1D120000 		.4byte	0x121d
 4237 125b 0C       		.uleb128 0xc
 4238 125c 4C       		.byte	0x4c
 4239 125d 11       		.byte	0x11
 4240 125e 5A       		.byte	0x5a
 4241 125f 52130000 		.4byte	0x1352
 4242 1263 0D       		.uleb128 0xd
 4243 1264 E60F0000 		.4byte	.LASF255
 4244 1268 11       		.byte	0x11
 4245 1269 5C       		.byte	0x5c
 4246 126a 3D0A0000 		.4byte	0xa3d
 4247 126e 02       		.byte	0x2
 4248 126f 23       		.byte	0x23
 4249 1270 00       		.uleb128 0
 4250 1271 0D       		.uleb128 0xd
 4251 1272 B0090000 		.4byte	.LASF256
 4252 1276 11       		.byte	0x11
 4253 1277 64       		.byte	0x64
 4254 1278 3D0A0000 		.4byte	0xa3d
 4255 127c 02       		.byte	0x2
 4256 127d 23       		.byte	0x23
 4257 127e 04       		.uleb128 0x4
 4258 127f 0D       		.uleb128 0xd
 4259 1280 4B100000 		.4byte	.LASF257
 4260 1284 11       		.byte	0x11
 4261 1285 67       		.byte	0x67
 4262 1286 3D0A0000 		.4byte	0xa3d
 4263 128a 02       		.byte	0x2
 4264 128b 23       		.byte	0x23
 4265 128c 08       		.uleb128 0x8
 4266 128d 0D       		.uleb128 0xd
 4267 128e E3030000 		.4byte	.LASF258
 4268 1292 11       		.byte	0x11
 4269 1293 6B       		.byte	0x6b
 4270 1294 3D0A0000 		.4byte	0xa3d
 4271 1298 02       		.byte	0x2
 4272 1299 23       		.byte	0x23
ARM GAS  C:\Users\EBANO_~1\AppData\Local\Temp\ccsZgiNd.s 			page 96


 4273 129a 0C       		.uleb128 0xc
 4274 129b 0D       		.uleb128 0xd
 4275 129c 060E0000 		.4byte	.LASF259
 4276 12a0 11       		.byte	0x11
 4277 12a1 73       		.byte	0x73
 4278 12a2 3D0A0000 		.4byte	0xa3d
 4279 12a6 02       		.byte	0x2
 4280 12a7 23       		.byte	0x23
 4281 12a8 10       		.uleb128 0x10
 4282 12a9 0D       		.uleb128 0xd
 4283 12aa D1010000 		.4byte	.LASF260
 4284 12ae 11       		.byte	0x11
 4285 12af 76       		.byte	0x76
 4286 12b0 3D0A0000 		.4byte	0xa3d
 4287 12b4 02       		.byte	0x2
 4288 12b5 23       		.byte	0x23
 4289 12b6 14       		.uleb128 0x14
 4290 12b7 0D       		.uleb128 0xd
 4291 12b8 75050000 		.4byte	.LASF261
 4292 12bc 11       		.byte	0x11
 4293 12bd 81       		.byte	0x81
 4294 12be 3D0A0000 		.4byte	0xa3d
 4295 12c2 02       		.byte	0x2
 4296 12c3 23       		.byte	0x23
 4297 12c4 18       		.uleb128 0x18
 4298 12c5 0D       		.uleb128 0xd
 4299 12c6 FC080000 		.4byte	.LASF262
 4300 12ca 11       		.byte	0x11
 4301 12cb 86       		.byte	0x86
 4302 12cc 3D0A0000 		.4byte	0xa3d
 4303 12d0 02       		.byte	0x2
 4304 12d1 23       		.byte	0x23
 4305 12d2 1C       		.uleb128 0x1c
 4306 12d3 0D       		.uleb128 0xd
 4307 12d4 D6060000 		.4byte	.LASF263
 4308 12d8 11       		.byte	0x11
 4309 12d9 8A       		.byte	0x8a
 4310 12da 3D0A0000 		.4byte	0xa3d
 4311 12de 02       		.byte	0x2
 4312 12df 23       		.byte	0x23
 4313 12e0 20       		.uleb128 0x20
 4314 12e1 0D       		.uleb128 0xd
 4315 12e2 C40D0000 		.4byte	.LASF264
 4316 12e6 11       		.byte	0x11
 4317 12e7 91       		.byte	0x91
 4318 12e8 3D0A0000 		.4byte	0xa3d
 4319 12ec 02       		.byte	0x2
 4320 12ed 23       		.byte	0x23
 4321 12ee 24       		.uleb128 0x24
 4322 12ef 0D       		.uleb128 0xd
 4323 12f0 09020000 		.4byte	.LASF265
 4324 12f4 11       		.byte	0x11
 4325 12f5 96       		.byte	0x96
 4326 12f6 3D0A0000 		.4byte	0xa3d
 4327 12fa 02       		.byte	0x2
 4328 12fb 23       		.byte	0x23
 4329 12fc 28       		.uleb128 0x28
ARM GAS  C:\Users\EBANO_~1\AppData\Local\Temp\ccsZgiNd.s 			page 97


 4330 12fd 0D       		.uleb128 0xd
 4331 12fe 970A0000 		.4byte	.LASF266
 4332 1302 11       		.byte	0x11
 4333 1303 9A       		.byte	0x9a
 4334 1304 3D0A0000 		.4byte	0xa3d
 4335 1308 02       		.byte	0x2
 4336 1309 23       		.byte	0x23
 4337 130a 2C       		.uleb128 0x2c
 4338 130b 0D       		.uleb128 0xd
 4339 130c 870D0000 		.4byte	.LASF267
 4340 1310 11       		.byte	0x11
 4341 1311 9F       		.byte	0x9f
 4342 1312 3D0A0000 		.4byte	0xa3d
 4343 1316 02       		.byte	0x2
 4344 1317 23       		.byte	0x23
 4345 1318 30       		.uleb128 0x30
 4346 1319 0D       		.uleb128 0xd
 4347 131a 9A090000 		.4byte	.LASF268
 4348 131e 11       		.byte	0x11
 4349 131f A9       		.byte	0xa9
 4350 1320 3D0A0000 		.4byte	0xa3d
 4351 1324 02       		.byte	0x2
 4352 1325 23       		.byte	0x23
 4353 1326 34       		.uleb128 0x34
 4354 1327 0D       		.uleb128 0xd
 4355 1328 4D040000 		.4byte	.LASF269
 4356 132c 11       		.byte	0x11
 4357 132d AF       		.byte	0xaf
 4358 132e 3D0A0000 		.4byte	0xa3d
 4359 1332 02       		.byte	0x2
 4360 1333 23       		.byte	0x23
 4361 1334 38       		.uleb128 0x38
 4362 1335 0D       		.uleb128 0xd
 4363 1336 180D0000 		.4byte	.LASF270
 4364 133a 11       		.byte	0x11
 4365 133b B4       		.byte	0xb4
 4366 133c 3D0A0000 		.4byte	0xa3d
 4367 1340 02       		.byte	0x2
 4368 1341 23       		.byte	0x23
 4369 1342 3C       		.uleb128 0x3c
 4370 1343 0D       		.uleb128 0xd
 4371 1344 CF0A0000 		.4byte	.LASF271
 4372 1348 11       		.byte	0x11
 4373 1349 B9       		.byte	0xb9
 4374 134a 50120000 		.4byte	0x1250
 4375 134e 02       		.byte	0x2
 4376 134f 23       		.byte	0x23
 4377 1350 40       		.uleb128 0x40
 4378 1351 00       		.byte	0
 4379 1352 04       		.uleb128 0x4
 4380 1353 A00E0000 		.4byte	.LASF272
 4381 1357 11       		.byte	0x11
 4382 1358 BB       		.byte	0xbb
 4383 1359 5B120000 		.4byte	0x125b
 4384 135d 0C       		.uleb128 0xc
 4385 135e 08       		.byte	0x8
 4386 135f 11       		.byte	0x11
ARM GAS  C:\Users\EBANO_~1\AppData\Local\Temp\ccsZgiNd.s 			page 98


 4387 1360 C5       		.byte	0xc5
 4388 1361 82130000 		.4byte	0x1382
 4389 1365 0D       		.uleb128 0xd
 4390 1366 FC020000 		.4byte	.LASF273
 4391 136a 11       		.byte	0x11
 4392 136b C7       		.byte	0xc7
 4393 136c 3D0A0000 		.4byte	0xa3d
 4394 1370 02       		.byte	0x2
 4395 1371 23       		.byte	0x23
 4396 1372 00       		.uleb128 0
 4397 1373 0D       		.uleb128 0xd
 4398 1374 2A000000 		.4byte	.LASF274
 4399 1378 11       		.byte	0x11
 4400 1379 CB       		.byte	0xcb
 4401 137a 3D0A0000 		.4byte	0xa3d
 4402 137e 02       		.byte	0x2
 4403 137f 23       		.byte	0x23
 4404 1380 04       		.uleb128 0x4
 4405 1381 00       		.byte	0
 4406 1382 04       		.uleb128 0x4
 4407 1383 BD030000 		.4byte	.LASF275
 4408 1387 11       		.byte	0x11
 4409 1388 D0       		.byte	0xd0
 4410 1389 5D130000 		.4byte	0x135d
 4411 138d 19       		.uleb128 0x19
 4412 138e 60       		.byte	0x60
 4413 138f 11       		.byte	0x11
 4414 1390 1A01     		.2byte	0x11a
 4415 1392 F1130000 		.4byte	0x13f1
 4416 1396 17       		.uleb128 0x17
 4417 1397 6A060000 		.4byte	.LASF240
 4418 139b 11       		.byte	0x11
 4419 139c 1C01     		.2byte	0x11c
 4420 139e F1130000 		.4byte	0x13f1
 4421 13a2 02       		.byte	0x2
 4422 13a3 23       		.byte	0x23
 4423 13a4 00       		.uleb128 0
 4424 13a5 17       		.uleb128 0x17
 4425 13a6 920A0000 		.4byte	.LASF241
 4426 13aa 11       		.byte	0x11
 4427 13ab 1E01     		.2byte	0x11e
 4428 13ad 52130000 		.4byte	0x1352
 4429 13b1 02       		.byte	0x2
 4430 13b2 23       		.byte	0x23
 4431 13b3 04       		.uleb128 0x4
 4432 13b4 17       		.uleb128 0x17
 4433 13b5 CE070000 		.4byte	.LASF276
 4434 13b9 11       		.byte	0x11
 4435 13ba 2001     		.2byte	0x120
 4436 13bc F7130000 		.4byte	0x13f7
 4437 13c0 02       		.byte	0x2
 4438 13c1 23       		.byte	0x23
 4439 13c2 50       		.uleb128 0x50
 4440 13c3 17       		.uleb128 0x17
 4441 13c4 7C110000 		.4byte	.LASF242
 4442 13c8 11       		.byte	0x11
 4443 13c9 2201     		.2byte	0x122
ARM GAS  C:\Users\EBANO_~1\AppData\Local\Temp\ccsZgiNd.s 			page 99


 4444 13cb C90E0000 		.4byte	0xec9
 4445 13cf 02       		.byte	0x2
 4446 13d0 23       		.byte	0x23
 4447 13d1 54       		.uleb128 0x54
 4448 13d2 17       		.uleb128 0x17
 4449 13d3 860C0000 		.4byte	.LASF243
 4450 13d7 11       		.byte	0x11
 4451 13d8 2401     		.2byte	0x124
 4452 13da 480A0000 		.4byte	0xa48
 4453 13de 02       		.byte	0x2
 4454 13df 23       		.byte	0x23
 4455 13e0 58       		.uleb128 0x58
 4456 13e1 17       		.uleb128 0x17
 4457 13e2 E1020000 		.4byte	.LASF249
 4458 13e6 11       		.byte	0x11
 4459 13e7 2601     		.2byte	0x126
 4460 13e9 480A0000 		.4byte	0xa48
 4461 13ed 02       		.byte	0x2
 4462 13ee 23       		.byte	0x23
 4463 13ef 5C       		.uleb128 0x5c
 4464 13f0 00       		.byte	0
 4465 13f1 05       		.uleb128 0x5
 4466 13f2 04       		.byte	0x4
 4467 13f3 CE0B0000 		.4byte	0xbce
 4468 13f7 05       		.uleb128 0x5
 4469 13f8 04       		.byte	0x4
 4470 13f9 12120000 		.4byte	0x1212
 4471 13fd 07       		.uleb128 0x7
 4472 13fe 3E0E0000 		.4byte	.LASF277
 4473 1402 11       		.byte	0x11
 4474 1403 2701     		.2byte	0x127
 4475 1405 8D130000 		.4byte	0x138d
 4476 1409 05       		.uleb128 0x5
 4477 140a 04       		.byte	0x4
 4478 140b 0C0A0000 		.4byte	0xa0c
 4479 140f 22       		.uleb128 0x22
 4480 1410 A30F0000 		.4byte	.LASF278
 4481 1414 12       		.byte	0x12
 4482 1415 63       		.byte	0x63
 4483 1416 5D010000 		.4byte	0x15d
 4484 141a 01       		.byte	0x1
 4485 141b 01       		.byte	0x1
 4486 141c 24       		.uleb128 0x24
 4487 141d 07       		.byte	0x7
 4488 141e 01       		.byte	0x1
 4489 141f 62000000 		.4byte	0x62
 4490 1423 13       		.byte	0x13
 4491 1424 32       		.byte	0x32
 4492 1425 5A140000 		.4byte	0x145a
 4493 1429 20       		.uleb128 0x20
 4494 142a AD0A0000 		.4byte	.LASF279
 4495 142e 00       		.byte	0
 4496 142f 20       		.uleb128 0x20
 4497 1430 17080000 		.4byte	.LASF280
 4498 1434 00       		.byte	0
 4499 1435 20       		.uleb128 0x20
 4500 1436 B20A0000 		.4byte	.LASF281
ARM GAS  C:\Users\EBANO_~1\AppData\Local\Temp\ccsZgiNd.s 			page 100


 4501 143a 01       		.byte	0x1
 4502 143b 20       		.uleb128 0x20
 4503 143c 04030000 		.4byte	.LASF282
 4504 1440 01       		.byte	0x1
 4505 1441 20       		.uleb128 0x20
 4506 1442 E6100000 		.4byte	.LASF283
 4507 1446 02       		.byte	0x2
 4508 1447 20       		.uleb128 0x20
 4509 1448 7C120000 		.4byte	.LASF284
 4510 144c 02       		.byte	0x2
 4511 144d 20       		.uleb128 0x20
 4512 144e BF0A0000 		.4byte	.LASF285
 4513 1452 03       		.byte	0x3
 4514 1453 20       		.uleb128 0x20
 4515 1454 0D030000 		.4byte	.LASF286
 4516 1458 03       		.byte	0x3
 4517 1459 00       		.byte	0
 4518 145a 22       		.uleb128 0x22
 4519 145b 64050000 		.4byte	.LASF287
 4520 145f 14       		.byte	0x14
 4521 1460 9A       		.byte	0x9a
 4522 1461 98000000 		.4byte	0x98
 4523 1465 01       		.byte	0x1
 4524 1466 01       		.byte	0x1
 4525 1467 22       		.uleb128 0x22
 4526 1468 3E120000 		.4byte	.LASF288
 4527 146c 14       		.byte	0x14
 4528 146d 9B       		.byte	0x9b
 4529 146e 29000000 		.4byte	0x29
 4530 1472 01       		.byte	0x1
 4531 1473 01       		.byte	0x1
 4532 1474 0A       		.uleb128 0xa
 4533 1475 5D010000 		.4byte	0x15d
 4534 1479 84140000 		.4byte	0x1484
 4535 147d 0B       		.uleb128 0xb
 4536 147e 30000000 		.4byte	0x30
 4537 1482 01       		.byte	0x1
 4538 1483 00       		.byte	0
 4539 1484 22       		.uleb128 0x22
 4540 1485 6D040000 		.4byte	.LASF289
 4541 1489 14       		.byte	0x14
 4542 148a 9E       		.byte	0x9e
 4543 148b 74140000 		.4byte	0x1474
 4544 148f 01       		.byte	0x1
 4545 1490 01       		.byte	0x1
 4546 1491 24       		.uleb128 0x24
 4547 1492 07       		.byte	0x7
 4548 1493 01       		.byte	0x1
 4549 1494 62000000 		.4byte	0x62
 4550 1498 15       		.byte	0x15
 4551 1499 21       		.byte	0x21
 4552 149a AB140000 		.4byte	0x14ab
 4553 149e 20       		.uleb128 0x20
 4554 149f AF010000 		.4byte	.LASF290
 4555 14a3 00       		.byte	0
 4556 14a4 20       		.uleb128 0x20
 4557 14a5 CB0B0000 		.4byte	.LASF291
ARM GAS  C:\Users\EBANO_~1\AppData\Local\Temp\ccsZgiNd.s 			page 101


 4558 14a9 01       		.byte	0x1
 4559 14aa 00       		.byte	0
 4560 14ab 04       		.uleb128 0x4
 4561 14ac 8C090000 		.4byte	.LASF292
 4562 14b0 15       		.byte	0x15
 4563 14b1 24       		.byte	0x24
 4564 14b2 91140000 		.4byte	0x1491
 4565 14b6 24       		.uleb128 0x24
 4566 14b7 07       		.byte	0x7
 4567 14b8 01       		.byte	0x1
 4568 14b9 62000000 		.4byte	0x62
 4569 14bd 15       		.byte	0x15
 4570 14be 2A       		.byte	0x2a
 4571 14bf DC140000 		.4byte	0x14dc
 4572 14c3 20       		.uleb128 0x20
 4573 14c4 7F0E0000 		.4byte	.LASF293
 4574 14c8 00       		.byte	0
 4575 14c9 20       		.uleb128 0x20
 4576 14ca 2F000000 		.4byte	.LASF294
 4577 14ce 01       		.byte	0x1
 4578 14cf 20       		.uleb128 0x20
 4579 14d0 600B0000 		.4byte	.LASF295
 4580 14d4 02       		.byte	0x2
 4581 14d5 20       		.uleb128 0x20
 4582 14d6 24060000 		.4byte	.LASF296
 4583 14da 03       		.byte	0x3
 4584 14db 00       		.byte	0
 4585 14dc 04       		.uleb128 0x4
 4586 14dd AC100000 		.4byte	.LASF297
 4587 14e1 15       		.byte	0x15
 4588 14e2 2F       		.byte	0x2f
 4589 14e3 B6140000 		.4byte	0x14b6
 4590 14e7 0C       		.uleb128 0xc
 4591 14e8 1C       		.byte	0x1c
 4592 14e9 15       		.byte	0x15
 4593 14ea 34       		.byte	0x34
 4594 14eb 52150000 		.4byte	0x1552
 4595 14ef 0D       		.uleb128 0xd
 4596 14f0 030A0000 		.4byte	.LASF298
 4597 14f4 15       		.byte	0x15
 4598 14f5 39       		.byte	0x39
 4599 14f6 30030000 		.4byte	0x330
 4600 14fa 02       		.byte	0x2
 4601 14fb 23       		.byte	0x23
 4602 14fc 00       		.uleb128 0
 4603 14fd 0D       		.uleb128 0xd
 4604 14fe 790B0000 		.4byte	.LASF299
 4605 1502 15       		.byte	0x15
 4606 1503 3D       		.byte	0x3d
 4607 1504 30030000 		.4byte	0x330
 4608 1508 02       		.byte	0x2
 4609 1509 23       		.byte	0x23
 4610 150a 04       		.uleb128 0x4
 4611 150b 0D       		.uleb128 0xd
 4612 150c BD050000 		.4byte	.LASF300
 4613 1510 15       		.byte	0x15
 4614 1511 48       		.byte	0x48
ARM GAS  C:\Users\EBANO_~1\AppData\Local\Temp\ccsZgiNd.s 			page 102


 4615 1512 6D150000 		.4byte	0x156d
 4616 1516 02       		.byte	0x2
 4617 1517 23       		.byte	0x23
 4618 1518 08       		.uleb128 0x8
 4619 1519 0D       		.uleb128 0xd
 4620 151a 75030000 		.4byte	.LASF301
 4621 151e 15       		.byte	0x15
 4622 151f 4C       		.byte	0x4c
 4623 1520 30030000 		.4byte	0x330
 4624 1524 02       		.byte	0x2
 4625 1525 23       		.byte	0x23
 4626 1526 0C       		.uleb128 0xc
 4627 1527 0D       		.uleb128 0xd
 4628 1528 7F030000 		.4byte	.LASF302
 4629 152c 15       		.byte	0x15
 4630 152d 50       		.byte	0x50
 4631 152e 30030000 		.4byte	0x330
 4632 1532 02       		.byte	0x2
 4633 1533 23       		.byte	0x23
 4634 1534 10       		.uleb128 0x10
 4635 1535 0D       		.uleb128 0xd
 4636 1536 35070000 		.4byte	.LASF303
 4637 153a 15       		.byte	0x15
 4638 153b 56       		.byte	0x56
 4639 153c 7F150000 		.4byte	0x157f
 4640 1540 02       		.byte	0x2
 4641 1541 23       		.byte	0x23
 4642 1542 14       		.uleb128 0x14
 4643 1543 0D       		.uleb128 0xd
 4644 1544 F6000000 		.4byte	.LASF304
 4645 1548 15       		.byte	0x15
 4646 1549 5D       		.byte	0x5d
 4647 154a 98150000 		.4byte	0x1598
 4648 154e 02       		.byte	0x2
 4649 154f 23       		.byte	0x23
 4650 1550 18       		.uleb128 0x18
 4651 1551 00       		.byte	0
 4652 1552 1C       		.uleb128 0x1c
 4653 1553 01       		.byte	0x1
 4654 1554 6D150000 		.4byte	0x156d
 4655 1558 15       		.uleb128 0x15
 4656 1559 09140000 		.4byte	0x1409
 4657 155d 15       		.uleb128 0x15
 4658 155e 270A0000 		.4byte	0xa27
 4659 1562 15       		.uleb128 0x15
 4660 1563 1C0A0000 		.4byte	0xa1c
 4661 1567 15       		.uleb128 0x15
 4662 1568 010A0000 		.4byte	0xa01
 4663 156c 00       		.byte	0
 4664 156d 05       		.uleb128 0x5
 4665 156e 04       		.byte	0x4
 4666 156f 52150000 		.4byte	0x1552
 4667 1573 1C       		.uleb128 0x1c
 4668 1574 01       		.byte	0x1
 4669 1575 7F150000 		.4byte	0x157f
 4670 1579 15       		.uleb128 0x15
 4671 157a 0C0A0000 		.4byte	0xa0c
ARM GAS  C:\Users\EBANO_~1\AppData\Local\Temp\ccsZgiNd.s 			page 103


 4672 157e 00       		.byte	0
 4673 157f 05       		.uleb128 0x5
 4674 1580 04       		.byte	0x4
 4675 1581 73150000 		.4byte	0x1573
 4676 1585 1C       		.uleb128 0x1c
 4677 1586 01       		.byte	0x1
 4678 1587 91150000 		.4byte	0x1591
 4679 158b 15       		.uleb128 0x15
 4680 158c 91150000 		.4byte	0x1591
 4681 1590 00       		.byte	0
 4682 1591 03       		.uleb128 0x3
 4683 1592 01       		.byte	0x1
 4684 1593 02       		.byte	0x2
 4685 1594 23040000 		.4byte	.LASF305
 4686 1598 05       		.uleb128 0x5
 4687 1599 04       		.byte	0x4
 4688 159a 85150000 		.4byte	0x1585
 4689 159e 04       		.uleb128 0x4
 4690 159f D4090000 		.4byte	.LASF306
 4691 15a3 15       		.byte	0x15
 4692 15a4 5E       		.byte	0x5e
 4693 15a5 E7140000 		.4byte	0x14e7
 4694 15a9 10       		.uleb128 0x10
 4695 15aa 50050000 		.4byte	.LASF307
 4696 15ae 74       		.byte	0x74
 4697 15af 15       		.byte	0x15
 4698 15b0 63       		.byte	0x63
 4699 15b1 5D170000 		.4byte	0x175d
 4700 15b5 0D       		.uleb128 0xd
 4701 15b6 C5060000 		.4byte	.LASF308
 4702 15ba 15       		.byte	0x15
 4703 15bb 68       		.byte	0x68
 4704 15bc 30030000 		.4byte	0x330
 4705 15c0 02       		.byte	0x2
 4706 15c1 23       		.byte	0x23
 4707 15c2 00       		.uleb128 0
 4708 15c3 0D       		.uleb128 0xd
 4709 15c4 3E010000 		.4byte	.LASF309
 4710 15c8 15       		.byte	0x15
 4711 15c9 6C       		.byte	0x6c
 4712 15ca 30030000 		.4byte	0x330
 4713 15ce 02       		.byte	0x2
 4714 15cf 23       		.byte	0x23
 4715 15d0 04       		.uleb128 0x4
 4716 15d1 0D       		.uleb128 0xd
 4717 15d2 920A0000 		.4byte	.LASF241
 4718 15d6 15       		.byte	0x15
 4719 15d7 73       		.byte	0x73
 4720 15d8 78170000 		.4byte	0x1778
 4721 15dc 02       		.byte	0x2
 4722 15dd 23       		.byte	0x23
 4723 15de 08       		.uleb128 0x8
 4724 15df 0D       		.uleb128 0xd
 4725 15e0 4C060000 		.4byte	.LASF310
 4726 15e4 15       		.byte	0x15
 4727 15e5 79       		.byte	0x79
 4728 15e6 84170000 		.4byte	0x1784
ARM GAS  C:\Users\EBANO_~1\AppData\Local\Temp\ccsZgiNd.s 			page 104


 4729 15ea 02       		.byte	0x2
 4730 15eb 23       		.byte	0x23
 4731 15ec 0C       		.uleb128 0xc
 4732 15ed 0D       		.uleb128 0xd
 4733 15ee 2C070000 		.4byte	.LASF311
 4734 15f2 15       		.byte	0x15
 4735 15f3 7F       		.byte	0x7f
 4736 15f4 96170000 		.4byte	0x1796
 4737 15f8 02       		.byte	0x2
 4738 15f9 23       		.byte	0x23
 4739 15fa 10       		.uleb128 0x10
 4740 15fb 0D       		.uleb128 0xd
 4741 15fc DC0E0000 		.4byte	.LASF312
 4742 1600 15       		.byte	0x15
 4743 1601 85       		.byte	0x85
 4744 1602 A8170000 		.4byte	0x17a8
 4745 1606 02       		.byte	0x2
 4746 1607 23       		.byte	0x23
 4747 1608 14       		.uleb128 0x14
 4748 1609 0D       		.uleb128 0xd
 4749 160a 9E100000 		.4byte	.LASF313
 4750 160e 15       		.byte	0x15
 4751 160f 90       		.byte	0x90
 4752 1610 CD170000 		.4byte	0x17cd
 4753 1614 02       		.byte	0x2
 4754 1615 23       		.byte	0x23
 4755 1616 18       		.uleb128 0x18
 4756 1617 0D       		.uleb128 0xd
 4757 1618 00120000 		.4byte	.LASF314
 4758 161c 15       		.byte	0x15
 4759 161d 9B       		.byte	0x9b
 4760 161e D9170000 		.4byte	0x17d9
 4761 1622 02       		.byte	0x2
 4762 1623 23       		.byte	0x23
 4763 1624 1C       		.uleb128 0x1c
 4764 1625 0D       		.uleb128 0xd
 4765 1626 44050000 		.4byte	.LASF315
 4766 162a 15       		.byte	0x15
 4767 162b C3       		.byte	0xc3
 4768 162c 2C180000 		.4byte	0x182c
 4769 1630 02       		.byte	0x2
 4770 1631 23       		.byte	0x23
 4771 1632 20       		.uleb128 0x20
 4772 1633 0D       		.uleb128 0xd
 4773 1634 D2100000 		.4byte	.LASF316
 4774 1638 15       		.byte	0x15
 4775 1639 ED       		.byte	0xed
 4776 163a 7A180000 		.4byte	0x187a
 4777 163e 02       		.byte	0x2
 4778 163f 23       		.byte	0x23
 4779 1640 24       		.uleb128 0x24
 4780 1641 0D       		.uleb128 0xd
 4781 1642 9E110000 		.4byte	.LASF317
 4782 1646 15       		.byte	0x15
 4783 1647 F8       		.byte	0xf8
 4784 1648 90180000 		.4byte	0x1890
 4785 164c 02       		.byte	0x2
ARM GAS  C:\Users\EBANO_~1\AppData\Local\Temp\ccsZgiNd.s 			page 105


 4786 164d 23       		.byte	0x23
 4787 164e 28       		.uleb128 0x28
 4788 164f 17       		.uleb128 0x17
 4789 1650 130E0000 		.4byte	.LASF318
 4790 1654 15       		.byte	0x15
 4791 1655 0301     		.2byte	0x103
 4792 1657 AB180000 		.4byte	0x18ab
 4793 165b 02       		.byte	0x2
 4794 165c 23       		.byte	0x23
 4795 165d 2C       		.uleb128 0x2c
 4796 165e 17       		.uleb128 0x17
 4797 165f 00000000 		.4byte	.LASF319
 4798 1663 15       		.byte	0x15
 4799 1664 0B01     		.2byte	0x10b
 4800 1666 C2180000 		.4byte	0x18c2
 4801 166a 02       		.byte	0x2
 4802 166b 23       		.byte	0x23
 4803 166c 30       		.uleb128 0x30
 4804 166d 17       		.uleb128 0x17
 4805 166e 85120000 		.4byte	.LASF320
 4806 1672 15       		.byte	0x15
 4807 1673 0F01     		.2byte	0x10f
 4808 1675 30030000 		.4byte	0x330
 4809 1679 02       		.byte	0x2
 4810 167a 23       		.byte	0x23
 4811 167b 34       		.uleb128 0x34
 4812 167c 17       		.uleb128 0x17
 4813 167d 8F100000 		.4byte	.LASF321
 4814 1681 15       		.byte	0x15
 4815 1682 1301     		.2byte	0x113
 4816 1684 30030000 		.4byte	0x330
 4817 1688 02       		.byte	0x2
 4818 1689 23       		.byte	0x23
 4819 168a 38       		.uleb128 0x38
 4820 168b 23       		.uleb128 0x23
 4821 168c 527800   		.ascii	"Rx\000"
 4822 168f 15       		.byte	0x15
 4823 1690 1901     		.2byte	0x119
 4824 1692 A8170000 		.4byte	0x17a8
 4825 1696 02       		.byte	0x2
 4826 1697 23       		.byte	0x23
 4827 1698 3C       		.uleb128 0x3c
 4828 1699 17       		.uleb128 0x17
 4829 169a AF070000 		.4byte	.LASF322
 4830 169e 15       		.byte	0x15
 4831 169f 1D01     		.2byte	0x11d
 4832 16a1 30030000 		.4byte	0x330
 4833 16a5 02       		.byte	0x2
 4834 16a6 23       		.byte	0x23
 4835 16a7 40       		.uleb128 0x40
 4836 16a8 17       		.uleb128 0x17
 4837 16a9 CD080000 		.4byte	.LASF323
 4838 16ad 15       		.byte	0x15
 4839 16ae 2501     		.2byte	0x125
 4840 16b0 DE180000 		.4byte	0x18de
 4841 16b4 02       		.byte	0x2
 4842 16b5 23       		.byte	0x23
ARM GAS  C:\Users\EBANO_~1\AppData\Local\Temp\ccsZgiNd.s 			page 106


 4843 16b6 44       		.uleb128 0x44
 4844 16b7 17       		.uleb128 0x17
 4845 16b8 3C080000 		.4byte	.LASF324
 4846 16bc 15       		.byte	0x15
 4847 16bd 2B01     		.2byte	0x12b
 4848 16bf F4180000 		.4byte	0x18f4
 4849 16c3 02       		.byte	0x2
 4850 16c4 23       		.byte	0x23
 4851 16c5 48       		.uleb128 0x48
 4852 16c6 17       		.uleb128 0x17
 4853 16c7 3B0C0000 		.4byte	.LASF325
 4854 16cb 15       		.byte	0x15
 4855 16cc 3201     		.2byte	0x132
 4856 16ce 0B190000 		.4byte	0x190b
 4857 16d2 02       		.byte	0x2
 4858 16d3 23       		.byte	0x23
 4859 16d4 4C       		.uleb128 0x4c
 4860 16d5 17       		.uleb128 0x17
 4861 16d6 64010000 		.4byte	.LASF326
 4862 16da 15       		.byte	0x15
 4863 16db 3901     		.2byte	0x139
 4864 16dd 21190000 		.4byte	0x1921
 4865 16e1 02       		.byte	0x2
 4866 16e2 23       		.byte	0x23
 4867 16e3 50       		.uleb128 0x50
 4868 16e4 17       		.uleb128 0x17
 4869 16e5 98060000 		.4byte	.LASF327
 4870 16e9 15       		.byte	0x15
 4871 16ea 4101     		.2byte	0x141
 4872 16ec 3D190000 		.4byte	0x193d
 4873 16f0 02       		.byte	0x2
 4874 16f1 23       		.byte	0x23
 4875 16f2 54       		.uleb128 0x54
 4876 16f3 17       		.uleb128 0x17
 4877 16f4 E1080000 		.4byte	.LASF328
 4878 16f8 15       		.byte	0x15
 4879 16f9 4901     		.2byte	0x149
 4880 16fb 3D190000 		.4byte	0x193d
 4881 16ff 02       		.byte	0x2
 4882 1700 23       		.byte	0x23
 4883 1701 58       		.uleb128 0x58
 4884 1702 17       		.uleb128 0x17
 4885 1703 30050000 		.4byte	.LASF329
 4886 1707 15       		.byte	0x15
 4887 1708 5001     		.2byte	0x150
 4888 170a 54190000 		.4byte	0x1954
 4889 170e 02       		.byte	0x2
 4890 170f 23       		.byte	0x23
 4891 1710 5C       		.uleb128 0x5c
 4892 1711 17       		.uleb128 0x17
 4893 1712 1D0E0000 		.4byte	.LASF330
 4894 1716 15       		.byte	0x15
 4895 1717 5801     		.2byte	0x158
 4896 1719 98150000 		.4byte	0x1598
 4897 171d 02       		.byte	0x2
 4898 171e 23       		.byte	0x23
 4899 171f 60       		.uleb128 0x60
ARM GAS  C:\Users\EBANO_~1\AppData\Local\Temp\ccsZgiNd.s 			page 107


 4900 1720 17       		.uleb128 0x17
 4901 1721 EB100000 		.4byte	.LASF331
 4902 1725 15       		.byte	0x15
 4903 1726 5E01     		.2byte	0x15e
 4904 1728 D9170000 		.4byte	0x17d9
 4905 172c 02       		.byte	0x2
 4906 172d 23       		.byte	0x23
 4907 172e 64       		.uleb128 0x64
 4908 172f 17       		.uleb128 0x17
 4909 1730 C40A0000 		.4byte	.LASF332
 4910 1734 15       		.byte	0x15
 4911 1735 6201     		.2byte	0x162
 4912 1737 30030000 		.4byte	0x330
 4913 173b 02       		.byte	0x2
 4914 173c 23       		.byte	0x23
 4915 173d 68       		.uleb128 0x68
 4916 173e 17       		.uleb128 0x17
 4917 173f CA090000 		.4byte	.LASF333
 4918 1743 15       		.byte	0x15
 4919 1744 6E01     		.2byte	0x16e
 4920 1746 A8170000 		.4byte	0x17a8
 4921 174a 02       		.byte	0x2
 4922 174b 23       		.byte	0x23
 4923 174c 6C       		.uleb128 0x6c
 4924 174d 17       		.uleb128 0x17
 4925 174e F70A0000 		.4byte	.LASF334
 4926 1752 15       		.byte	0x15
 4927 1753 7701     		.2byte	0x177
 4928 1755 6B190000 		.4byte	0x196b
 4929 1759 02       		.byte	0x2
 4930 175a 23       		.byte	0x23
 4931 175b 70       		.uleb128 0x70
 4932 175c 00       		.byte	0
 4933 175d 0F       		.uleb128 0xf
 4934 175e A9150000 		.4byte	0x15a9
 4935 1762 14       		.uleb128 0x14
 4936 1763 01       		.byte	0x1
 4937 1764 3D0A0000 		.4byte	0xa3d
 4938 1768 72170000 		.4byte	0x1772
 4939 176c 15       		.uleb128 0x15
 4940 176d 72170000 		.4byte	0x1772
 4941 1771 00       		.byte	0
 4942 1772 05       		.uleb128 0x5
 4943 1773 04       		.byte	0x4
 4944 1774 9E150000 		.4byte	0x159e
 4945 1778 05       		.uleb128 0x5
 4946 1779 04       		.byte	0x4
 4947 177a 62170000 		.4byte	0x1762
 4948 177e 26       		.uleb128 0x26
 4949 177f 01       		.byte	0x1
 4950 1780 DC140000 		.4byte	0x14dc
 4951 1784 05       		.uleb128 0x5
 4952 1785 04       		.byte	0x4
 4953 1786 7E170000 		.4byte	0x177e
 4954 178a 1C       		.uleb128 0x1c
 4955 178b 01       		.byte	0x1
 4956 178c 96170000 		.4byte	0x1796
ARM GAS  C:\Users\EBANO_~1\AppData\Local\Temp\ccsZgiNd.s 			page 108


 4957 1790 15       		.uleb128 0x15
 4958 1791 AB140000 		.4byte	0x14ab
 4959 1795 00       		.byte	0
 4960 1796 05       		.uleb128 0x5
 4961 1797 04       		.byte	0x4
 4962 1798 8A170000 		.4byte	0x178a
 4963 179c 1C       		.uleb128 0x1c
 4964 179d 01       		.byte	0x1
 4965 179e A8170000 		.4byte	0x17a8
 4966 17a2 15       		.uleb128 0x15
 4967 17a3 3D0A0000 		.4byte	0xa3d
 4968 17a7 00       		.byte	0
 4969 17a8 05       		.uleb128 0x5
 4970 17a9 04       		.byte	0x4
 4971 17aa 9C170000 		.4byte	0x179c
 4972 17ae 14       		.uleb128 0x14
 4973 17af 01       		.byte	0x1
 4974 17b0 91150000 		.4byte	0x1591
 4975 17b4 CD170000 		.4byte	0x17cd
 4976 17b8 15       		.uleb128 0x15
 4977 17b9 AB140000 		.4byte	0x14ab
 4978 17bd 15       		.uleb128 0x15
 4979 17be 3D0A0000 		.4byte	0xa3d
 4980 17c2 15       		.uleb128 0x15
 4981 17c3 1C0A0000 		.4byte	0xa1c
 4982 17c7 15       		.uleb128 0x15
 4983 17c8 3D0A0000 		.4byte	0xa3d
 4984 17cc 00       		.byte	0
 4985 17cd 05       		.uleb128 0x5
 4986 17ce 04       		.byte	0x4
 4987 17cf AE170000 		.4byte	0x17ae
 4988 17d3 26       		.uleb128 0x26
 4989 17d4 01       		.byte	0x1
 4990 17d5 3D0A0000 		.4byte	0xa3d
 4991 17d9 05       		.uleb128 0x5
 4992 17da 04       		.byte	0x4
 4993 17db D3170000 		.4byte	0x17d3
 4994 17df 1C       		.uleb128 0x1c
 4995 17e0 01       		.byte	0x1
 4996 17e1 2C180000 		.4byte	0x182c
 4997 17e5 15       		.uleb128 0x15
 4998 17e6 AB140000 		.4byte	0x14ab
 4999 17ea 15       		.uleb128 0x15
 5000 17eb 3D0A0000 		.4byte	0xa3d
 5001 17ef 15       		.uleb128 0x15
 5002 17f0 3D0A0000 		.4byte	0xa3d
 5003 17f4 15       		.uleb128 0x15
 5004 17f5 0C0A0000 		.4byte	0xa0c
 5005 17f9 15       		.uleb128 0x15
 5006 17fa 3D0A0000 		.4byte	0xa3d
 5007 17fe 15       		.uleb128 0x15
 5008 17ff 270A0000 		.4byte	0xa27
 5009 1803 15       		.uleb128 0x15
 5010 1804 270A0000 		.4byte	0xa27
 5011 1808 15       		.uleb128 0x15
 5012 1809 91150000 		.4byte	0x1591
 5013 180d 15       		.uleb128 0x15
ARM GAS  C:\Users\EBANO_~1\AppData\Local\Temp\ccsZgiNd.s 			page 109


 5014 180e 0C0A0000 		.4byte	0xa0c
 5015 1812 15       		.uleb128 0x15
 5016 1813 91150000 		.4byte	0x1591
 5017 1817 15       		.uleb128 0x15
 5018 1818 91150000 		.4byte	0x1591
 5019 181c 15       		.uleb128 0x15
 5020 181d 0C0A0000 		.4byte	0xa0c
 5021 1821 15       		.uleb128 0x15
 5022 1822 91150000 		.4byte	0x1591
 5023 1826 15       		.uleb128 0x15
 5024 1827 91150000 		.4byte	0x1591
 5025 182b 00       		.byte	0
 5026 182c 05       		.uleb128 0x5
 5027 182d 04       		.byte	0x4
 5028 182e DF170000 		.4byte	0x17df
 5029 1832 1C       		.uleb128 0x1c
 5030 1833 01       		.byte	0x1
 5031 1834 7A180000 		.4byte	0x187a
 5032 1838 15       		.uleb128 0x15
 5033 1839 AB140000 		.4byte	0x14ab
 5034 183d 15       		.uleb128 0x15
 5035 183e 010A0000 		.4byte	0xa01
 5036 1842 15       		.uleb128 0x15
 5037 1843 3D0A0000 		.4byte	0xa3d
 5038 1847 15       		.uleb128 0x15
 5039 1848 3D0A0000 		.4byte	0xa3d
 5040 184c 15       		.uleb128 0x15
 5041 184d 3D0A0000 		.4byte	0xa3d
 5042 1851 15       		.uleb128 0x15
 5043 1852 0C0A0000 		.4byte	0xa0c
 5044 1856 15       		.uleb128 0x15
 5045 1857 270A0000 		.4byte	0xa27
 5046 185b 15       		.uleb128 0x15
 5047 185c 91150000 		.4byte	0x1591
 5048 1860 15       		.uleb128 0x15
 5049 1861 91150000 		.4byte	0x1591
 5050 1865 15       		.uleb128 0x15
 5051 1866 91150000 		.4byte	0x1591
 5052 186a 15       		.uleb128 0x15
 5053 186b 0C0A0000 		.4byte	0xa0c
 5054 186f 15       		.uleb128 0x15
 5055 1870 91150000 		.4byte	0x1591
 5056 1874 15       		.uleb128 0x15
 5057 1875 3D0A0000 		.4byte	0xa3d
 5058 1879 00       		.byte	0
 5059 187a 05       		.uleb128 0x5
 5060 187b 04       		.byte	0x4
 5061 187c 32180000 		.4byte	0x1832
 5062 1880 14       		.uleb128 0x14
 5063 1881 01       		.byte	0x1
 5064 1882 91150000 		.4byte	0x1591
 5065 1886 90180000 		.4byte	0x1890
 5066 188a 15       		.uleb128 0x15
 5067 188b 3D0A0000 		.4byte	0xa3d
 5068 188f 00       		.byte	0
 5069 1890 05       		.uleb128 0x5
 5070 1891 04       		.byte	0x4
ARM GAS  C:\Users\EBANO_~1\AppData\Local\Temp\ccsZgiNd.s 			page 110


 5071 1892 80180000 		.4byte	0x1880
 5072 1896 14       		.uleb128 0x14
 5073 1897 01       		.byte	0x1
 5074 1898 3D0A0000 		.4byte	0xa3d
 5075 189c AB180000 		.4byte	0x18ab
 5076 18a0 15       		.uleb128 0x15
 5077 18a1 AB140000 		.4byte	0x14ab
 5078 18a5 15       		.uleb128 0x15
 5079 18a6 0C0A0000 		.4byte	0xa0c
 5080 18aa 00       		.byte	0
 5081 18ab 05       		.uleb128 0x5
 5082 18ac 04       		.byte	0x4
 5083 18ad 96180000 		.4byte	0x1896
 5084 18b1 1C       		.uleb128 0x1c
 5085 18b2 01       		.byte	0x1
 5086 18b3 C2180000 		.4byte	0x18c2
 5087 18b7 15       		.uleb128 0x15
 5088 18b8 09140000 		.4byte	0x1409
 5089 18bc 15       		.uleb128 0x15
 5090 18bd 0C0A0000 		.4byte	0xa0c
 5091 18c1 00       		.byte	0
 5092 18c2 05       		.uleb128 0x5
 5093 18c3 04       		.byte	0x4
 5094 18c4 B1180000 		.4byte	0x18b1
 5095 18c8 1C       		.uleb128 0x1c
 5096 18c9 01       		.byte	0x1
 5097 18ca DE180000 		.4byte	0x18de
 5098 18ce 15       		.uleb128 0x15
 5099 18cf 3D0A0000 		.4byte	0xa3d
 5100 18d3 15       		.uleb128 0x15
 5101 18d4 010A0000 		.4byte	0xa01
 5102 18d8 15       		.uleb128 0x15
 5103 18d9 270A0000 		.4byte	0xa27
 5104 18dd 00       		.byte	0
 5105 18de 05       		.uleb128 0x5
 5106 18df 04       		.byte	0x4
 5107 18e0 C8180000 		.4byte	0x18c8
 5108 18e4 14       		.uleb128 0x14
 5109 18e5 01       		.byte	0x1
 5110 18e6 1C0A0000 		.4byte	0xa1c
 5111 18ea F4180000 		.4byte	0x18f4
 5112 18ee 15       		.uleb128 0x15
 5113 18ef AB140000 		.4byte	0x14ab
 5114 18f3 00       		.byte	0
 5115 18f4 05       		.uleb128 0x5
 5116 18f5 04       		.byte	0x4
 5117 18f6 E4180000 		.4byte	0x18e4
 5118 18fa 1C       		.uleb128 0x1c
 5119 18fb 01       		.byte	0x1
 5120 18fc 0B190000 		.4byte	0x190b
 5121 1900 15       		.uleb128 0x15
 5122 1901 270A0000 		.4byte	0xa27
 5123 1905 15       		.uleb128 0x15
 5124 1906 0C0A0000 		.4byte	0xa0c
 5125 190a 00       		.byte	0
 5126 190b 05       		.uleb128 0x5
 5127 190c 04       		.byte	0x4
ARM GAS  C:\Users\EBANO_~1\AppData\Local\Temp\ccsZgiNd.s 			page 111


 5128 190d FA180000 		.4byte	0x18fa
 5129 1911 14       		.uleb128 0x14
 5130 1912 01       		.byte	0x1
 5131 1913 0C0A0000 		.4byte	0xa0c
 5132 1917 21190000 		.4byte	0x1921
 5133 191b 15       		.uleb128 0x15
 5134 191c 270A0000 		.4byte	0xa27
 5135 1920 00       		.byte	0
 5136 1921 05       		.uleb128 0x5
 5137 1922 04       		.byte	0x4
 5138 1923 11190000 		.4byte	0x1911
 5139 1927 1C       		.uleb128 0x1c
 5140 1928 01       		.byte	0x1
 5141 1929 3D190000 		.4byte	0x193d
 5142 192d 15       		.uleb128 0x15
 5143 192e 270A0000 		.4byte	0xa27
 5144 1932 15       		.uleb128 0x15
 5145 1933 09140000 		.4byte	0x1409
 5146 1937 15       		.uleb128 0x15
 5147 1938 0C0A0000 		.4byte	0xa0c
 5148 193c 00       		.byte	0
 5149 193d 05       		.uleb128 0x5
 5150 193e 04       		.byte	0x4
 5151 193f 27190000 		.4byte	0x1927
 5152 1943 1C       		.uleb128 0x1c
 5153 1944 01       		.byte	0x1
 5154 1945 54190000 		.4byte	0x1954
 5155 1949 15       		.uleb128 0x15
 5156 194a AB140000 		.4byte	0x14ab
 5157 194e 15       		.uleb128 0x15
 5158 194f 0C0A0000 		.4byte	0xa0c
 5159 1953 00       		.byte	0
 5160 1954 05       		.uleb128 0x5
 5161 1955 04       		.byte	0x4
 5162 1956 43190000 		.4byte	0x1943
 5163 195a 1C       		.uleb128 0x1c
 5164 195b 01       		.byte	0x1
 5165 195c 6B190000 		.4byte	0x196b
 5166 1960 15       		.uleb128 0x15
 5167 1961 3D0A0000 		.4byte	0xa3d
 5168 1965 15       		.uleb128 0x15
 5169 1966 3D0A0000 		.4byte	0xa3d
 5170 196a 00       		.byte	0
 5171 196b 05       		.uleb128 0x5
 5172 196c 04       		.byte	0x4
 5173 196d 5A190000 		.4byte	0x195a
 5174 1971 1D       		.uleb128 0x1d
 5175 1972 C0000000 		.4byte	.LASF335
 5176 1976 15       		.byte	0x15
 5177 1977 8001     		.2byte	0x180
 5178 1979 5D170000 		.4byte	0x175d
 5179 197d 01       		.byte	0x1
 5180 197e 01       		.byte	0x1
 5181 197f 27       		.uleb128 0x27
 5182 1980 FF070000 		.4byte	.LASF336
 5183 1984 01       		.byte	0x1
 5184 1985 50       		.byte	0x50
ARM GAS  C:\Users\EBANO_~1\AppData\Local\Temp\ccsZgiNd.s 			page 112


 5185 1986 FD130000 		.4byte	0x13fd
 5186 198a 05       		.byte	0x5
 5187 198b 03       		.byte	0x3
 5188 198c 04000000 		.4byte	hadc
 5189 1990 27       		.uleb128 0x27
 5190 1991 E00A0000 		.4byte	.LASF337
 5191 1995 01       		.byte	0x1
 5192 1996 54       		.byte	0x54
 5193 1997 91150000 		.4byte	0x1591
 5194 199b 05       		.byte	0x5
 5195 199c 03       		.byte	0x3
 5196 199d 01000000 		.4byte	AdcInitialized
 5197 19a1 27       		.uleb128 0x27
 5198 19a2 0D050000 		.4byte	.LASF338
 5199 19a6 01       		.byte	0x1
 5200 19a7 59       		.byte	0x59
 5201 19a8 91150000 		.4byte	0x1591
 5202 19ac 05       		.byte	0x5
 5203 19ad 03       		.byte	0x3
 5204 19ae 00000000 		.4byte	McuInitialized
 5205 19b2 28       		.uleb128 0x28
 5206 19b3 01       		.byte	0x1
 5207 19b4 A4060000 		.4byte	.LASF339
 5208 19b8 01       		.byte	0x1
 5209 19b9 0D02     		.2byte	0x20d
 5210 19bb 01       		.byte	0x1
 5211 19bc 00000000 		.4byte	.LFB54
 5212 19c0 0C000000 		.4byte	.LFE54
 5213 19c4 00000000 		.4byte	.LLST29
 5214 19c8 01       		.byte	0x1
 5215 19c9 E2190000 		.4byte	0x19e2
 5216 19cd 29       		.uleb128 0x29
 5217 19ce 0A000000 		.4byte	.LVL90
 5218 19d2 FE230000 		.4byte	0x23fe
 5219 19d6 2A       		.uleb128 0x2a
 5220 19d7 01       		.byte	0x1
 5221 19d8 50       		.byte	0x50
 5222 19d9 01       		.byte	0x1
 5223 19da 30       		.byte	0x30
 5224 19db 2A       		.uleb128 0x2a
 5225 19dc 01       		.byte	0x1
 5226 19dd 51       		.byte	0x51
 5227 19de 01       		.byte	0x1
 5228 19df 31       		.byte	0x31
 5229 19e0 00       		.byte	0
 5230 19e1 00       		.byte	0
 5231 19e2 28       		.uleb128 0x28
 5232 19e3 01       		.byte	0x1
 5233 19e4 060B0000 		.4byte	.LASF340
 5234 19e8 01       		.byte	0x1
 5235 19e9 E701     		.2byte	0x1e7
 5236 19eb 01       		.byte	0x1
 5237 19ec 00000000 		.4byte	.LFB53
 5238 19f0 68000000 		.4byte	.LFE53
 5239 19f4 20000000 		.4byte	.LLST27
 5240 19f8 01       		.byte	0x1
 5241 19f9 861A0000 		.4byte	0x1a86
ARM GAS  C:\Users\EBANO_~1\AppData\Local\Temp\ccsZgiNd.s 			page 113


 5242 19fd 2B       		.uleb128 0x2b
 5243 19fe 2C100000 		.4byte	.LASF342
 5244 1a02 01       		.byte	0x1
 5245 1a03 EB01     		.2byte	0x1eb
 5246 1a05 3D0A0000 		.4byte	0xa3d
 5247 1a09 2C       		.uleb128 0x2c
 5248 1a0a C9220000 		.4byte	0x22c9
 5249 1a0e 04000000 		.4byte	.LBB107
 5250 1a12 08000000 		.4byte	.LBE107
 5251 1a16 01       		.byte	0x1
 5252 1a17 EB01     		.2byte	0x1eb
 5253 1a19 2F1A0000 		.4byte	0x1a2f
 5254 1a1d 2D       		.uleb128 0x2d
 5255 1a1e 04000000 		.4byte	.LBB108
 5256 1a22 08000000 		.4byte	.LBE108
 5257 1a26 2E       		.uleb128 0x2e
 5258 1a27 DB220000 		.4byte	0x22db
 5259 1a2b 01       		.byte	0x1
 5260 1a2c 54       		.byte	0x54
 5261 1a2d 00       		.byte	0
 5262 1a2e 00       		.byte	0
 5263 1a2f 2F       		.uleb128 0x2f
 5264 1a30 E8220000 		.4byte	0x22e8
 5265 1a34 08000000 		.4byte	.LBB109
 5266 1a38 0A000000 		.4byte	.LBE109
 5267 1a3c 01       		.byte	0x1
 5268 1a3d ED01     		.2byte	0x1ed
 5269 1a3f 2C       		.uleb128 0x2c
 5270 1a40 C3210000 		.4byte	0x21c3
 5271 1a44 46000000 		.4byte	.LBB111
 5272 1a48 56000000 		.4byte	.LBE111
 5273 1a4c 01       		.byte	0x1
 5274 1a4d 0202     		.2byte	0x202
 5275 1a4f 6B1A0000 		.4byte	0x1a6b
 5276 1a53 30       		.uleb128 0x30
 5277 1a54 4A000000 		.4byte	.LVL86
 5278 1a58 0C240000 		.4byte	0x240c
 5279 1a5c 31       		.uleb128 0x31
 5280 1a5d 52000000 		.4byte	.LVL87
 5281 1a61 30       		.uleb128 0x30
 5282 1a62 56000000 		.4byte	.LVL88
 5283 1a66 19240000 		.4byte	0x2419
 5284 1a6a 00       		.byte	0
 5285 1a6b 32       		.uleb128 0x32
 5286 1a6c AE220000 		.4byte	0x22ae
 5287 1a70 56000000 		.4byte	.LBB113
 5288 1a74 5A000000 		.4byte	.LBE113
 5289 1a78 01       		.byte	0x1
 5290 1a79 0402     		.2byte	0x204
 5291 1a7b 33       		.uleb128 0x33
 5292 1a7c BC220000 		.4byte	0x22bc
 5293 1a80 4C000000 		.4byte	.LLST28
 5294 1a84 00       		.byte	0
 5295 1a85 00       		.byte	0
 5296 1a86 28       		.uleb128 0x28
 5297 1a87 01       		.byte	0x1
 5298 1a88 69010000 		.4byte	.LASF341
ARM GAS  C:\Users\EBANO_~1\AppData\Local\Temp\ccsZgiNd.s 			page 114


 5299 1a8c 01       		.byte	0x1
 5300 1a8d D101     		.2byte	0x1d1
 5301 1a8f 01       		.byte	0x1
 5302 1a90 00000000 		.4byte	.LFB52
 5303 1a94 78000000 		.4byte	.LFE52
 5304 1a98 5F000000 		.4byte	.LLST26
 5305 1a9c 01       		.byte	0x1
 5306 1a9d E61B0000 		.4byte	0x1be6
 5307 1aa1 2B       		.uleb128 0x2b
 5308 1aa2 2C100000 		.4byte	.LASF342
 5309 1aa6 01       		.byte	0x1
 5310 1aa7 D301     		.2byte	0x1d3
 5311 1aa9 3D0A0000 		.4byte	0xa3d
 5312 1aad 2C       		.uleb128 0x2c
 5313 1aae C9220000 		.4byte	0x22c9
 5314 1ab2 04000000 		.4byte	.LBB91
 5315 1ab6 08000000 		.4byte	.LBE91
 5316 1aba 01       		.byte	0x1
 5317 1abb D301     		.2byte	0x1d3
 5318 1abd D11A0000 		.4byte	0x1ad1
 5319 1ac1 2D       		.uleb128 0x2d
 5320 1ac2 04000000 		.4byte	.LBB92
 5321 1ac6 08000000 		.4byte	.LBE92
 5322 1aca 34       		.uleb128 0x34
 5323 1acb DB220000 		.4byte	0x22db
 5324 1acf 00       		.byte	0
 5325 1ad0 00       		.byte	0
 5326 1ad1 2F       		.uleb128 0x2f
 5327 1ad2 E8220000 		.4byte	0x22e8
 5328 1ad6 08000000 		.4byte	.LBB93
 5329 1ada 0A000000 		.4byte	.LBE93
 5330 1ade 01       		.byte	0x1
 5331 1adf D501     		.2byte	0x1d5
 5332 1ae1 2C       		.uleb128 0x2c
 5333 1ae2 AA210000 		.4byte	0x21aa
 5334 1ae6 0A000000 		.4byte	.LBB95
 5335 1aea 50000000 		.4byte	.LBE95
 5336 1aee 01       		.byte	0x1
 5337 1aef D701     		.2byte	0x1d7
 5338 1af1 B71B0000 		.4byte	0x1bb7
 5339 1af5 2D       		.uleb128 0x2d
 5340 1af6 0A000000 		.4byte	.LBB96
 5341 1afa 50000000 		.4byte	.LBE96
 5342 1afe 2E       		.uleb128 0x2e
 5343 1aff B7210000 		.4byte	0x21b7
 5344 1b03 02       		.byte	0x2
 5345 1b04 91       		.byte	0x91
 5346 1b05 5C       		.sleb128 -36
 5347 1b06 35       		.uleb128 0x35
 5348 1b07 16000000 		.4byte	.LVL78
 5349 1b0b 26240000 		.4byte	0x2426
 5350 1b0f 241B0000 		.4byte	0x1b24
 5351 1b13 2A       		.uleb128 0x2a
 5352 1b14 01       		.byte	0x1
 5353 1b15 50       		.byte	0x50
 5354 1b16 02       		.byte	0x2
 5355 1b17 91       		.byte	0x91
ARM GAS  C:\Users\EBANO_~1\AppData\Local\Temp\ccsZgiNd.s 			page 115


 5356 1b18 5C       		.sleb128 -36
 5357 1b19 2A       		.uleb128 0x2a
 5358 1b1a 01       		.byte	0x1
 5359 1b1b 51       		.byte	0x51
 5360 1b1c 01       		.byte	0x1
 5361 1b1d 30       		.byte	0x30
 5362 1b1e 2A       		.uleb128 0x2a
 5363 1b1f 01       		.byte	0x1
 5364 1b20 52       		.byte	0x52
 5365 1b21 01       		.byte	0x1
 5366 1b22 44       		.byte	0x44
 5367 1b23 00       		.byte	0
 5368 1b24 35       		.uleb128 0x35
 5369 1b25 26000000 		.4byte	.LVL79
 5370 1b29 37240000 		.4byte	0x2437
 5371 1b2d 441B0000 		.4byte	0x1b44
 5372 1b31 2A       		.uleb128 0x2a
 5373 1b32 01       		.byte	0x1
 5374 1b33 50       		.byte	0x50
 5375 1b34 02       		.byte	0x2
 5376 1b35 74       		.byte	0x74
 5377 1b36 00       		.sleb128 0
 5378 1b37 2A       		.uleb128 0x2a
 5379 1b38 01       		.byte	0x1
 5380 1b39 51       		.byte	0x51
 5381 1b3a 02       		.byte	0x2
 5382 1b3b 08       		.byte	0x8
 5383 1b3c 80       		.byte	0x80
 5384 1b3d 2A       		.uleb128 0x2a
 5385 1b3e 01       		.byte	0x1
 5386 1b3f 52       		.byte	0x52
 5387 1b40 02       		.byte	0x2
 5388 1b41 91       		.byte	0x91
 5389 1b42 5C       		.sleb128 -36
 5390 1b43 00       		.byte	0
 5391 1b44 35       		.uleb128 0x35
 5392 1b45 30000000 		.4byte	.LVL80
 5393 1b49 37240000 		.4byte	0x2437
 5394 1b4d 641B0000 		.4byte	0x1b64
 5395 1b51 2A       		.uleb128 0x2a
 5396 1b52 01       		.byte	0x1
 5397 1b53 50       		.byte	0x50
 5398 1b54 02       		.byte	0x2
 5399 1b55 74       		.byte	0x74
 5400 1b56 00       		.sleb128 0
 5401 1b57 2A       		.uleb128 0x2a
 5402 1b58 01       		.byte	0x1
 5403 1b59 51       		.byte	0x51
 5404 1b5a 02       		.byte	0x2
 5405 1b5b 08       		.byte	0x8
 5406 1b5c 40       		.byte	0x40
 5407 1b5d 2A       		.uleb128 0x2a
 5408 1b5e 01       		.byte	0x1
 5409 1b5f 52       		.byte	0x52
 5410 1b60 02       		.byte	0x2
 5411 1b61 91       		.byte	0x91
 5412 1b62 5C       		.sleb128 -36
ARM GAS  C:\Users\EBANO_~1\AppData\Local\Temp\ccsZgiNd.s 			page 116


 5413 1b63 00       		.byte	0
 5414 1b64 35       		.uleb128 0x35
 5415 1b65 3A000000 		.4byte	.LVL81
 5416 1b69 37240000 		.4byte	0x2437
 5417 1b6d 861B0000 		.4byte	0x1b86
 5418 1b71 2A       		.uleb128 0x2a
 5419 1b72 01       		.byte	0x1
 5420 1b73 50       		.byte	0x50
 5421 1b74 05       		.byte	0x5
 5422 1b75 0C       		.byte	0xc
 5423 1b76 00040050 		.4byte	0x50000400
 5424 1b7a 2A       		.uleb128 0x2a
 5425 1b7b 01       		.byte	0x1
 5426 1b7c 51       		.byte	0x51
 5427 1b7d 01       		.byte	0x1
 5428 1b7e 38       		.byte	0x38
 5429 1b7f 2A       		.uleb128 0x2a
 5430 1b80 01       		.byte	0x1
 5431 1b81 52       		.byte	0x52
 5432 1b82 02       		.byte	0x2
 5433 1b83 91       		.byte	0x91
 5434 1b84 5C       		.sleb128 -36
 5435 1b85 00       		.byte	0
 5436 1b86 35       		.uleb128 0x35
 5437 1b87 46000000 		.4byte	.LVL82
 5438 1b8b 37240000 		.4byte	0x2437
 5439 1b8f A71B0000 		.4byte	0x1ba7
 5440 1b93 2A       		.uleb128 0x2a
 5441 1b94 01       		.byte	0x1
 5442 1b95 50       		.byte	0x50
 5443 1b96 02       		.byte	0x2
 5444 1b97 74       		.byte	0x74
 5445 1b98 00       		.sleb128 0
 5446 1b99 2A       		.uleb128 0x2a
 5447 1b9a 01       		.byte	0x1
 5448 1b9b 51       		.byte	0x51
 5449 1b9c 03       		.byte	0x3
 5450 1b9d 0B       		.byte	0xb
 5451 1b9e 0080     		.2byte	0x8000
 5452 1ba0 2A       		.uleb128 0x2a
 5453 1ba1 01       		.byte	0x1
 5454 1ba2 52       		.byte	0x52
 5455 1ba3 02       		.byte	0x2
 5456 1ba4 91       		.byte	0x91
 5457 1ba5 5C       		.sleb128 -36
 5458 1ba6 00       		.byte	0
 5459 1ba7 31       		.uleb128 0x31
 5460 1ba8 4C000000 		.4byte	.LVL83
 5461 1bac 30       		.uleb128 0x30
 5462 1bad 50000000 		.4byte	.LVL84
 5463 1bb1 44240000 		.4byte	0x2444
 5464 1bb5 00       		.byte	0
 5465 1bb6 00       		.byte	0
 5466 1bb7 2C       		.uleb128 0x2c
 5467 1bb8 AE220000 		.4byte	0x22ae
 5468 1bbc 5A000000 		.4byte	.LBB97
 5469 1bc0 5E000000 		.4byte	.LBE97
ARM GAS  C:\Users\EBANO_~1\AppData\Local\Temp\ccsZgiNd.s 			page 117


 5470 1bc4 01       		.byte	0x1
 5471 1bc5 DC01     		.2byte	0x1dc
 5472 1bc7 D11B0000 		.4byte	0x1bd1
 5473 1bcb 36       		.uleb128 0x36
 5474 1bcc BC220000 		.4byte	0x22bc
 5475 1bd0 00       		.byte	0
 5476 1bd1 29       		.uleb128 0x29
 5477 1bd2 66000000 		.4byte	.LVL85
 5478 1bd6 51240000 		.4byte	0x2451
 5479 1bda 2A       		.uleb128 0x2a
 5480 1bdb 01       		.byte	0x1
 5481 1bdc 50       		.byte	0x50
 5482 1bdd 01       		.byte	0x1
 5483 1bde 31       		.byte	0x31
 5484 1bdf 2A       		.uleb128 0x2a
 5485 1be0 01       		.byte	0x1
 5486 1be1 51       		.byte	0x51
 5487 1be2 01       		.byte	0x1
 5488 1be3 31       		.byte	0x31
 5489 1be4 00       		.byte	0
 5490 1be5 00       		.byte	0
 5491 1be6 37       		.uleb128 0x37
 5492 1be7 01       		.byte	0x1
 5493 1be8 E40B0000 		.4byte	.LASF394
 5494 1bec 01       		.byte	0x1
 5495 1bed A101     		.2byte	0x1a1
 5496 1bef 01       		.byte	0x1
 5497 1bf0 270A0000 		.4byte	0xa27
 5498 1bf4 01       		.byte	0x1
 5499 1bf5 1E1C0000 		.4byte	0x1c1e
 5500 1bf9 38       		.uleb128 0x38
 5501 1bfa FC020000 		.4byte	.LASF273
 5502 1bfe 01       		.byte	0x1
 5503 1bff A101     		.2byte	0x1a1
 5504 1c01 3D0A0000 		.4byte	0xa3d
 5505 1c05 2B       		.uleb128 0x2b
 5506 1c06 FF0B0000 		.4byte	.LASF343
 5507 1c0a 01       		.byte	0x1
 5508 1c0b A401     		.2byte	0x1a4
 5509 1c0d 82130000 		.4byte	0x1382
 5510 1c11 2B       		.uleb128 0x2b
 5511 1c12 84090000 		.4byte	.LASF344
 5512 1c16 01       		.byte	0x1
 5513 1c17 A501     		.2byte	0x1a5
 5514 1c19 270A0000 		.4byte	0xa27
 5515 1c1d 00       		.byte	0
 5516 1c1e 39       		.uleb128 0x39
 5517 1c1f 01       		.byte	0x1
 5518 1c20 47030000 		.4byte	.LASF395
 5519 1c24 01       		.byte	0x1
 5520 1c25 9701     		.2byte	0x197
 5521 1c27 01       		.byte	0x1
 5522 1c28 00000000 		.4byte	.LFB50
 5523 1c2c 0C000000 		.4byte	.LFE50
 5524 1c30 02       		.byte	0x2
 5525 1c31 7D       		.byte	0x7d
 5526 1c32 00       		.sleb128 0
ARM GAS  C:\Users\EBANO_~1\AppData\Local\Temp\ccsZgiNd.s 			page 118


 5527 1c33 01       		.byte	0x1
 5528 1c34 3A       		.uleb128 0x3a
 5529 1c35 01       		.byte	0x1
 5530 1c36 CA110000 		.4byte	.LASF396
 5531 1c3a 01       		.byte	0x1
 5532 1c3b 7101     		.2byte	0x171
 5533 1c3d 01       		.byte	0x1
 5534 1c3e 01       		.byte	0x1
 5535 1c3f 3B       		.uleb128 0x3b
 5536 1c40 01       		.byte	0x1
 5537 1c41 140A0000 		.4byte	.LASF348
 5538 1c45 01       		.byte	0x1
 5539 1c46 4C01     		.2byte	0x14c
 5540 1c48 01       		.byte	0x1
 5541 1c49 0C0A0000 		.4byte	0xa0c
 5542 1c4d 00000000 		.4byte	.LFB48
 5543 1c51 EC000000 		.4byte	.LFE48
 5544 1c55 8B000000 		.4byte	.LLST15
 5545 1c59 01       		.byte	0x1
 5546 1c5a 761D0000 		.4byte	0x1d76
 5547 1c5e 3C       		.uleb128 0x3c
 5548 1c5f D5110000 		.4byte	.LASF345
 5549 1c63 01       		.byte	0x1
 5550 1c64 4E01     		.2byte	0x14e
 5551 1c66 0C0A0000 		.4byte	0xa0c
 5552 1c6a B7000000 		.4byte	.LLST16
 5553 1c6e 3C       		.uleb128 0x3c
 5554 1c6f 05000000 		.4byte	.LASF346
 5555 1c73 01       		.byte	0x1
 5556 1c74 4F01     		.2byte	0x14f
 5557 1c76 270A0000 		.4byte	0xa27
 5558 1c7a ED000000 		.4byte	.LLST17
 5559 1c7e 3C       		.uleb128 0x3c
 5560 1c7f 07120000 		.4byte	.LASF347
 5561 1c83 01       		.byte	0x1
 5562 1c84 5001     		.2byte	0x150
 5563 1c86 3D0A0000 		.4byte	0xa3d
 5564 1c8a 0D010000 		.4byte	.LLST18
 5565 1c8e 3D       		.uleb128 0x3d
 5566 1c8f E61B0000 		.4byte	0x1be6
 5567 1c93 02000000 		.4byte	.LBB67
 5568 1c97 B0000000 		.4byte	.Ldebug_ranges0+0xb0
 5569 1c9b 01       		.byte	0x1
 5570 1c9c 5201     		.2byte	0x152
 5571 1c9e 33       		.uleb128 0x33
 5572 1c9f F91B0000 		.4byte	0x1bf9
 5573 1ca3 2B010000 		.4byte	.LLST19
 5574 1ca7 3E       		.uleb128 0x3e
 5575 1ca8 B0000000 		.4byte	.Ldebug_ranges0+0xb0
 5576 1cac 34       		.uleb128 0x34
 5577 1cad 051C0000 		.4byte	0x1c05
 5578 1cb1 3F       		.uleb128 0x3f
 5579 1cb2 111C0000 		.4byte	0x1c11
 5580 1cb6 ED000000 		.4byte	.LLST17
 5581 1cba 40       		.uleb128 0x40
 5582 1cbb E61B0000 		.4byte	0x1be6
 5583 1cbf 12000000 		.4byte	.LBB69
ARM GAS  C:\Users\EBANO_~1\AppData\Local\Temp\ccsZgiNd.s 			page 119


 5584 1cc3 80000000 		.4byte	.LBE69
 5585 1cc7 36       		.uleb128 0x36
 5586 1cc8 F91B0000 		.4byte	0x1bf9
 5587 1ccc 2D       		.uleb128 0x2d
 5588 1ccd 12000000 		.4byte	.LBB70
 5589 1cd1 80000000 		.4byte	.LBE70
 5590 1cd5 2E       		.uleb128 0x2e
 5591 1cd6 051C0000 		.4byte	0x1c05
 5592 1cda 02       		.byte	0x2
 5593 1cdb 91       		.byte	0x91
 5594 1cdc 68       		.sleb128 -24
 5595 1cdd 3F       		.uleb128 0x3f
 5596 1cde 111C0000 		.4byte	0x1c11
 5597 1ce2 53010000 		.4byte	.LLST21
 5598 1ce6 35       		.uleb128 0x35
 5599 1ce7 32000000 		.4byte	.LVL54
 5600 1ceb 5F240000 		.4byte	0x245f
 5601 1cef FF1C0000 		.4byte	0x1cff
 5602 1cf3 2A       		.uleb128 0x2a
 5603 1cf4 01       		.byte	0x1
 5604 1cf5 50       		.byte	0x50
 5605 1cf6 02       		.byte	0x2
 5606 1cf7 75       		.byte	0x75
 5607 1cf8 00       		.sleb128 0
 5608 1cf9 2A       		.uleb128 0x2a
 5609 1cfa 01       		.byte	0x1
 5610 1cfb 51       		.byte	0x51
 5611 1cfc 01       		.byte	0x1
 5612 1cfd 30       		.byte	0x30
 5613 1cfe 00       		.byte	0
 5614 1cff 35       		.uleb128 0x35
 5615 1d00 42000000 		.4byte	.LVL55
 5616 1d04 6C240000 		.4byte	0x246c
 5617 1d08 191D0000 		.4byte	0x1d19
 5618 1d0c 2A       		.uleb128 0x2a
 5619 1d0d 01       		.byte	0x1
 5620 1d0e 50       		.byte	0x50
 5621 1d0f 02       		.byte	0x2
 5622 1d10 75       		.byte	0x75
 5623 1d11 00       		.sleb128 0
 5624 1d12 2A       		.uleb128 0x2a
 5625 1d13 01       		.byte	0x1
 5626 1d14 51       		.byte	0x51
 5627 1d15 02       		.byte	0x2
 5628 1d16 7D       		.byte	0x7d
 5629 1d17 00       		.sleb128 0
 5630 1d18 00       		.byte	0
 5631 1d19 35       		.uleb128 0x35
 5632 1d1a 54000000 		.4byte	.LVL56
 5633 1d1e 6C240000 		.4byte	0x246c
 5634 1d22 331D0000 		.4byte	0x1d33
 5635 1d26 2A       		.uleb128 0x2a
 5636 1d27 01       		.byte	0x1
 5637 1d28 50       		.byte	0x50
 5638 1d29 02       		.byte	0x2
 5639 1d2a 75       		.byte	0x75
 5640 1d2b 00       		.sleb128 0
ARM GAS  C:\Users\EBANO_~1\AppData\Local\Temp\ccsZgiNd.s 			page 120


 5641 1d2c 2A       		.uleb128 0x2a
 5642 1d2d 01       		.byte	0x1
 5643 1d2e 51       		.byte	0x51
 5644 1d2f 02       		.byte	0x2
 5645 1d30 7D       		.byte	0x7d
 5646 1d31 00       		.sleb128 0
 5647 1d32 00       		.byte	0
 5648 1d33 35       		.uleb128 0x35
 5649 1d34 5A000000 		.4byte	.LVL57
 5650 1d38 7A240000 		.4byte	0x247a
 5651 1d3c 471D0000 		.4byte	0x1d47
 5652 1d40 2A       		.uleb128 0x2a
 5653 1d41 01       		.byte	0x1
 5654 1d42 50       		.byte	0x50
 5655 1d43 02       		.byte	0x2
 5656 1d44 75       		.byte	0x75
 5657 1d45 00       		.sleb128 0
 5658 1d46 00       		.byte	0
 5659 1d47 35       		.uleb128 0x35
 5660 1d48 64000000 		.4byte	.LVL58
 5661 1d4c 88240000 		.4byte	0x2488
 5662 1d50 611D0000 		.4byte	0x1d61
 5663 1d54 2A       		.uleb128 0x2a
 5664 1d55 01       		.byte	0x1
 5665 1d56 50       		.byte	0x50
 5666 1d57 02       		.byte	0x2
 5667 1d58 75       		.byte	0x75
 5668 1d59 00       		.sleb128 0
 5669 1d5a 2A       		.uleb128 0x2a
 5670 1d5b 01       		.byte	0x1
 5671 1d5c 51       		.byte	0x51
 5672 1d5d 02       		.byte	0x2
 5673 1d5e 09       		.byte	0x9
 5674 1d5f FF       		.byte	0xff
 5675 1d60 00       		.byte	0
 5676 1d61 29       		.uleb128 0x29
 5677 1d62 6A000000 		.4byte	.LVL59
 5678 1d66 96240000 		.4byte	0x2496
 5679 1d6a 2A       		.uleb128 0x2a
 5680 1d6b 01       		.byte	0x1
 5681 1d6c 50       		.byte	0x50
 5682 1d6d 02       		.byte	0x2
 5683 1d6e 75       		.byte	0x75
 5684 1d6f 00       		.sleb128 0
 5685 1d70 00       		.byte	0
 5686 1d71 00       		.byte	0
 5687 1d72 00       		.byte	0
 5688 1d73 00       		.byte	0
 5689 1d74 00       		.byte	0
 5690 1d75 00       		.byte	0
 5691 1d76 3B       		.uleb128 0x3b
 5692 1d77 01       		.byte	0x1
 5693 1d78 DC0D0000 		.4byte	.LASF349
 5694 1d7c 01       		.byte	0x1
 5695 1d7d 2501     		.2byte	0x125
 5696 1d7f 01       		.byte	0x1
 5697 1d80 270A0000 		.4byte	0xa27
ARM GAS  C:\Users\EBANO_~1\AppData\Local\Temp\ccsZgiNd.s 			page 121


 5698 1d84 00000000 		.4byte	.LFB47
 5699 1d88 74010000 		.4byte	.LFE47
 5700 1d8c 66010000 		.4byte	.LLST5
 5701 1d90 01       		.byte	0x1
 5702 1d91 9C1F0000 		.4byte	0x1f9c
 5703 1d95 3C       		.uleb128 0x3c
 5704 1d96 05000000 		.4byte	.LASF346
 5705 1d9a 01       		.byte	0x1
 5706 1d9b 2701     		.2byte	0x127
 5707 1d9d 270A0000 		.4byte	0xa27
 5708 1da1 92010000 		.4byte	.LLST6
 5709 1da5 3C       		.uleb128 0x3c
 5710 1da6 07120000 		.4byte	.LASF347
 5711 1daa 01       		.byte	0x1
 5712 1dab 2801     		.2byte	0x128
 5713 1dad 3D0A0000 		.4byte	0xa3d
 5714 1db1 B2010000 		.4byte	.LLST7
 5715 1db5 3C       		.uleb128 0x3c
 5716 1db6 2B010000 		.4byte	.LASF350
 5717 1dba 01       		.byte	0x1
 5718 1dbb 2901     		.2byte	0x129
 5719 1dbd 270A0000 		.4byte	0xa27
 5720 1dc1 D0010000 		.4byte	.LLST8
 5721 1dc5 41       		.uleb128 0x41
 5722 1dc6 E61B0000 		.4byte	0x1be6
 5723 1dca 02000000 		.4byte	.LBB51
 5724 1dce 90000000 		.4byte	.Ldebug_ranges0+0x90
 5725 1dd2 01       		.byte	0x1
 5726 1dd3 2B01     		.2byte	0x12b
 5727 1dd5 B01E0000 		.4byte	0x1eb0
 5728 1dd9 33       		.uleb128 0x33
 5729 1dda F91B0000 		.4byte	0x1bf9
 5730 1dde FF010000 		.4byte	.LLST9
 5731 1de2 3E       		.uleb128 0x3e
 5732 1de3 90000000 		.4byte	.Ldebug_ranges0+0x90
 5733 1de7 34       		.uleb128 0x34
 5734 1de8 051C0000 		.4byte	0x1c05
 5735 1dec 3F       		.uleb128 0x3f
 5736 1ded 111C0000 		.4byte	0x1c11
 5737 1df1 92010000 		.4byte	.LLST6
 5738 1df5 40       		.uleb128 0x40
 5739 1df6 E61B0000 		.4byte	0x1be6
 5740 1dfa 32000000 		.4byte	.LBB53
 5741 1dfe A0000000 		.4byte	.LBE53
 5742 1e02 36       		.uleb128 0x36
 5743 1e03 F91B0000 		.4byte	0x1bf9
 5744 1e07 2D       		.uleb128 0x2d
 5745 1e08 32000000 		.4byte	.LBB54
 5746 1e0c A0000000 		.4byte	.LBE54
 5747 1e10 2E       		.uleb128 0x2e
 5748 1e11 051C0000 		.4byte	0x1c05
 5749 1e15 02       		.byte	0x2
 5750 1e16 91       		.byte	0x91
 5751 1e17 60       		.sleb128 -32
 5752 1e18 3F       		.uleb128 0x3f
 5753 1e19 111C0000 		.4byte	0x1c11
 5754 1e1d 27020000 		.4byte	.LLST11
ARM GAS  C:\Users\EBANO_~1\AppData\Local\Temp\ccsZgiNd.s 			page 122


 5755 1e21 35       		.uleb128 0x35
 5756 1e22 52000000 		.4byte	.LVL31
 5757 1e26 5F240000 		.4byte	0x245f
 5758 1e2a 3A1E0000 		.4byte	0x1e3a
 5759 1e2e 2A       		.uleb128 0x2a
 5760 1e2f 01       		.byte	0x1
 5761 1e30 50       		.byte	0x50
 5762 1e31 02       		.byte	0x2
 5763 1e32 75       		.byte	0x75
 5764 1e33 00       		.sleb128 0
 5765 1e34 2A       		.uleb128 0x2a
 5766 1e35 01       		.byte	0x1
 5767 1e36 51       		.byte	0x51
 5768 1e37 01       		.byte	0x1
 5769 1e38 30       		.byte	0x30
 5770 1e39 00       		.byte	0
 5771 1e3a 35       		.uleb128 0x35
 5772 1e3b 62000000 		.4byte	.LVL32
 5773 1e3f 6C240000 		.4byte	0x246c
 5774 1e43 541E0000 		.4byte	0x1e54
 5775 1e47 2A       		.uleb128 0x2a
 5776 1e48 01       		.byte	0x1
 5777 1e49 50       		.byte	0x50
 5778 1e4a 02       		.byte	0x2
 5779 1e4b 75       		.byte	0x75
 5780 1e4c 00       		.sleb128 0
 5781 1e4d 2A       		.uleb128 0x2a
 5782 1e4e 01       		.byte	0x1
 5783 1e4f 51       		.byte	0x51
 5784 1e50 02       		.byte	0x2
 5785 1e51 7D       		.byte	0x7d
 5786 1e52 00       		.sleb128 0
 5787 1e53 00       		.byte	0
 5788 1e54 35       		.uleb128 0x35
 5789 1e55 74000000 		.4byte	.LVL33
 5790 1e59 6C240000 		.4byte	0x246c
 5791 1e5d 6E1E0000 		.4byte	0x1e6e
 5792 1e61 2A       		.uleb128 0x2a
 5793 1e62 01       		.byte	0x1
 5794 1e63 50       		.byte	0x50
 5795 1e64 02       		.byte	0x2
 5796 1e65 75       		.byte	0x75
 5797 1e66 00       		.sleb128 0
 5798 1e67 2A       		.uleb128 0x2a
 5799 1e68 01       		.byte	0x1
 5800 1e69 51       		.byte	0x51
 5801 1e6a 02       		.byte	0x2
 5802 1e6b 7D       		.byte	0x7d
 5803 1e6c 00       		.sleb128 0
 5804 1e6d 00       		.byte	0
 5805 1e6e 35       		.uleb128 0x35
 5806 1e6f 7A000000 		.4byte	.LVL34
 5807 1e73 7A240000 		.4byte	0x247a
 5808 1e77 821E0000 		.4byte	0x1e82
 5809 1e7b 2A       		.uleb128 0x2a
 5810 1e7c 01       		.byte	0x1
 5811 1e7d 50       		.byte	0x50
ARM GAS  C:\Users\EBANO_~1\AppData\Local\Temp\ccsZgiNd.s 			page 123


 5812 1e7e 02       		.byte	0x2
 5813 1e7f 75       		.byte	0x75
 5814 1e80 00       		.sleb128 0
 5815 1e81 00       		.byte	0
 5816 1e82 35       		.uleb128 0x35
 5817 1e83 84000000 		.4byte	.LVL35
 5818 1e87 88240000 		.4byte	0x2488
 5819 1e8b 9C1E0000 		.4byte	0x1e9c
 5820 1e8f 2A       		.uleb128 0x2a
 5821 1e90 01       		.byte	0x1
 5822 1e91 50       		.byte	0x50
 5823 1e92 02       		.byte	0x2
 5824 1e93 75       		.byte	0x75
 5825 1e94 00       		.sleb128 0
 5826 1e95 2A       		.uleb128 0x2a
 5827 1e96 01       		.byte	0x1
 5828 1e97 51       		.byte	0x51
 5829 1e98 02       		.byte	0x2
 5830 1e99 09       		.byte	0x9
 5831 1e9a FF       		.byte	0xff
 5832 1e9b 00       		.byte	0
 5833 1e9c 29       		.uleb128 0x29
 5834 1e9d 8A000000 		.4byte	.LVL36
 5835 1ea1 96240000 		.4byte	0x2496
 5836 1ea5 2A       		.uleb128 0x2a
 5837 1ea6 01       		.byte	0x1
 5838 1ea7 50       		.byte	0x50
 5839 1ea8 02       		.byte	0x2
 5840 1ea9 75       		.byte	0x75
 5841 1eaa 00       		.sleb128 0
 5842 1eab 00       		.byte	0
 5843 1eac 00       		.byte	0
 5844 1ead 00       		.byte	0
 5845 1eae 00       		.byte	0
 5846 1eaf 00       		.byte	0
 5847 1eb0 32       		.uleb128 0x32
 5848 1eb1 E61B0000 		.4byte	0x1be6
 5849 1eb5 A8000000 		.4byte	.LBB59
 5850 1eb9 2C010000 		.4byte	.LBE59
 5851 1ebd 01       		.byte	0x1
 5852 1ebe 3901     		.2byte	0x139
 5853 1ec0 33       		.uleb128 0x33
 5854 1ec1 F91B0000 		.4byte	0x1bf9
 5855 1ec5 3A020000 		.4byte	.LLST12
 5856 1ec9 2D       		.uleb128 0x2d
 5857 1eca A8000000 		.4byte	.LBB60
 5858 1ece 2C010000 		.4byte	.LBE60
 5859 1ed2 34       		.uleb128 0x34
 5860 1ed3 051C0000 		.4byte	0x1c05
 5861 1ed7 3F       		.uleb128 0x3f
 5862 1ed8 111C0000 		.4byte	0x1c11
 5863 1edc 52020000 		.4byte	.LLST13
 5864 1ee0 40       		.uleb128 0x40
 5865 1ee1 E61B0000 		.4byte	0x1be6
 5866 1ee5 B0000000 		.4byte	.LBB61
 5867 1ee9 2C010000 		.4byte	.LBE61
 5868 1eed 36       		.uleb128 0x36
ARM GAS  C:\Users\EBANO_~1\AppData\Local\Temp\ccsZgiNd.s 			page 124


 5869 1eee F91B0000 		.4byte	0x1bf9
 5870 1ef2 2D       		.uleb128 0x2d
 5871 1ef3 B0000000 		.4byte	.LBB62
 5872 1ef7 2C010000 		.4byte	.LBE62
 5873 1efb 2E       		.uleb128 0x2e
 5874 1efc 051C0000 		.4byte	0x1c05
 5875 1f00 02       		.byte	0x2
 5876 1f01 91       		.byte	0x91
 5877 1f02 60       		.sleb128 -32
 5878 1f03 3F       		.uleb128 0x3f
 5879 1f04 111C0000 		.4byte	0x1c11
 5880 1f08 66020000 		.4byte	.LLST14
 5881 1f0c 35       		.uleb128 0x35
 5882 1f0d D0000000 		.4byte	.LVL39
 5883 1f11 5F240000 		.4byte	0x245f
 5884 1f15 251F0000 		.4byte	0x1f25
 5885 1f19 2A       		.uleb128 0x2a
 5886 1f1a 01       		.byte	0x1
 5887 1f1b 50       		.byte	0x50
 5888 1f1c 02       		.byte	0x2
 5889 1f1d 75       		.byte	0x75
 5890 1f1e 00       		.sleb128 0
 5891 1f1f 2A       		.uleb128 0x2a
 5892 1f20 01       		.byte	0x1
 5893 1f21 51       		.byte	0x51
 5894 1f22 01       		.byte	0x1
 5895 1f23 30       		.byte	0x30
 5896 1f24 00       		.byte	0
 5897 1f25 35       		.uleb128 0x35
 5898 1f26 E0000000 		.4byte	.LVL40
 5899 1f2a 6C240000 		.4byte	0x246c
 5900 1f2e 3F1F0000 		.4byte	0x1f3f
 5901 1f32 2A       		.uleb128 0x2a
 5902 1f33 01       		.byte	0x1
 5903 1f34 50       		.byte	0x50
 5904 1f35 02       		.byte	0x2
 5905 1f36 75       		.byte	0x75
 5906 1f37 00       		.sleb128 0
 5907 1f38 2A       		.uleb128 0x2a
 5908 1f39 01       		.byte	0x1
 5909 1f3a 51       		.byte	0x51
 5910 1f3b 02       		.byte	0x2
 5911 1f3c 7D       		.byte	0x7d
 5912 1f3d 00       		.sleb128 0
 5913 1f3e 00       		.byte	0
 5914 1f3f 35       		.uleb128 0x35
 5915 1f40 F2000000 		.4byte	.LVL41
 5916 1f44 6C240000 		.4byte	0x246c
 5917 1f48 591F0000 		.4byte	0x1f59
 5918 1f4c 2A       		.uleb128 0x2a
 5919 1f4d 01       		.byte	0x1
 5920 1f4e 50       		.byte	0x50
 5921 1f4f 02       		.byte	0x2
 5922 1f50 75       		.byte	0x75
 5923 1f51 00       		.sleb128 0
 5924 1f52 2A       		.uleb128 0x2a
 5925 1f53 01       		.byte	0x1
ARM GAS  C:\Users\EBANO_~1\AppData\Local\Temp\ccsZgiNd.s 			page 125


 5926 1f54 51       		.byte	0x51
 5927 1f55 02       		.byte	0x2
 5928 1f56 7D       		.byte	0x7d
 5929 1f57 00       		.sleb128 0
 5930 1f58 00       		.byte	0
 5931 1f59 35       		.uleb128 0x35
 5932 1f5a F8000000 		.4byte	.LVL42
 5933 1f5e 7A240000 		.4byte	0x247a
 5934 1f62 6D1F0000 		.4byte	0x1f6d
 5935 1f66 2A       		.uleb128 0x2a
 5936 1f67 01       		.byte	0x1
 5937 1f68 50       		.byte	0x50
 5938 1f69 02       		.byte	0x2
 5939 1f6a 75       		.byte	0x75
 5940 1f6b 00       		.sleb128 0
 5941 1f6c 00       		.byte	0
 5942 1f6d 35       		.uleb128 0x35
 5943 1f6e 02010000 		.4byte	.LVL43
 5944 1f72 88240000 		.4byte	0x2488
 5945 1f76 871F0000 		.4byte	0x1f87
 5946 1f7a 2A       		.uleb128 0x2a
 5947 1f7b 01       		.byte	0x1
 5948 1f7c 50       		.byte	0x50
 5949 1f7d 02       		.byte	0x2
 5950 1f7e 75       		.byte	0x75
 5951 1f7f 00       		.sleb128 0
 5952 1f80 2A       		.uleb128 0x2a
 5953 1f81 01       		.byte	0x1
 5954 1f82 51       		.byte	0x51
 5955 1f83 02       		.byte	0x2
 5956 1f84 09       		.byte	0x9
 5957 1f85 FF       		.byte	0xff
 5958 1f86 00       		.byte	0
 5959 1f87 29       		.uleb128 0x29
 5960 1f88 08010000 		.4byte	.LVL44
 5961 1f8c 96240000 		.4byte	0x2496
 5962 1f90 2A       		.uleb128 0x2a
 5963 1f91 01       		.byte	0x1
 5964 1f92 50       		.byte	0x50
 5965 1f93 02       		.byte	0x2
 5966 1f94 75       		.byte	0x75
 5967 1f95 00       		.sleb128 0
 5968 1f96 00       		.byte	0
 5969 1f97 00       		.byte	0
 5970 1f98 00       		.byte	0
 5971 1f99 00       		.byte	0
 5972 1f9a 00       		.byte	0
 5973 1f9b 00       		.byte	0
 5974 1f9c 28       		.uleb128 0x28
 5975 1f9d 01       		.byte	0x1
 5976 1f9e 6A0A0000 		.4byte	.LASF351
 5977 1fa2 01       		.byte	0x1
 5978 1fa3 1901     		.2byte	0x119
 5979 1fa5 01       		.byte	0x1
 5980 1fa6 00000000 		.4byte	.LFB46
 5981 1faa 5C000000 		.4byte	.LFE46
 5982 1fae 79020000 		.4byte	.LLST4
ARM GAS  C:\Users\EBANO_~1\AppData\Local\Temp\ccsZgiNd.s 			page 126


 5983 1fb2 01       		.byte	0x1
 5984 1fb3 C51F0000 		.4byte	0x1fc5
 5985 1fb7 42       		.uleb128 0x42
 5986 1fb8 696400   		.ascii	"id\000"
 5987 1fbb 01       		.byte	0x1
 5988 1fbc 1901     		.2byte	0x119
 5989 1fbe 09140000 		.4byte	0x1409
 5990 1fc2 01       		.byte	0x1
 5991 1fc3 50       		.byte	0x50
 5992 1fc4 00       		.byte	0
 5993 1fc5 43       		.uleb128 0x43
 5994 1fc6 01       		.byte	0x1
 5995 1fc7 73000000 		.4byte	.LASF397
 5996 1fcb 01       		.byte	0x1
 5997 1fcc 0F01     		.2byte	0x10f
 5998 1fce 01       		.byte	0x1
 5999 1fcf 3D0A0000 		.4byte	0xa3d
 6000 1fd3 00000000 		.4byte	.LFB45
 6001 1fd7 20000000 		.4byte	.LFE45
 6002 1fdb 02       		.byte	0x2
 6003 1fdc 7D       		.byte	0x7d
 6004 1fdd 00       		.sleb128 0
 6005 1fde 01       		.byte	0x1
 6006 1fdf 44       		.uleb128 0x44
 6007 1fe0 01       		.byte	0x1
 6008 1fe1 3F090000 		.4byte	.LASF352
 6009 1fe5 01       		.byte	0x1
 6010 1fe6 E2       		.byte	0xe2
 6011 1fe7 01       		.byte	0x1
 6012 1fe8 00000000 		.4byte	.LFB44
 6013 1fec 94000000 		.4byte	.LFE44
 6014 1ff0 99020000 		.4byte	.LLST3
 6015 1ff4 01       		.byte	0x1
 6016 1ff5 95200000 		.4byte	0x2095
 6017 1ff9 27       		.uleb128 0x27
 6018 1ffa E2090000 		.4byte	.LASF353
 6019 1ffe 01       		.byte	0x1
 6020 1fff E4       		.byte	0xe4
 6021 2000 2F100000 		.4byte	0x102f
 6022 2004 03       		.byte	0x3
 6023 2005 91       		.byte	0x91
 6024 2006 AC7F     		.sleb128 -84
 6025 2008 27       		.uleb128 0x27
 6026 2009 5F0E0000 		.4byte	.LASF354
 6027 200d 01       		.byte	0x1
 6028 200e E5       		.byte	0xe5
 6029 200f CE0F0000 		.4byte	0xfce
 6030 2013 02       		.byte	0x2
 6031 2014 91       		.byte	0x91
 6032 2015 40       		.sleb128 -64
 6033 2016 35       		.uleb128 0x35
 6034 2017 0E000000 		.4byte	.LVL18
 6035 201b 26240000 		.4byte	0x2426
 6036 201f 35200000 		.4byte	0x2035
 6037 2023 2A       		.uleb128 0x2a
 6038 2024 01       		.byte	0x1
 6039 2025 50       		.byte	0x50
ARM GAS  C:\Users\EBANO_~1\AppData\Local\Temp\ccsZgiNd.s 			page 127


 6040 2026 03       		.byte	0x3
 6041 2027 91       		.byte	0x91
 6042 2028 AC7F     		.sleb128 -84
 6043 202a 2A       		.uleb128 0x2a
 6044 202b 01       		.byte	0x1
 6045 202c 51       		.byte	0x51
 6046 202d 01       		.byte	0x1
 6047 202e 30       		.byte	0x30
 6048 202f 2A       		.uleb128 0x2a
 6049 2030 01       		.byte	0x1
 6050 2031 52       		.byte	0x52
 6051 2032 01       		.byte	0x1
 6052 2033 44       		.byte	0x44
 6053 2034 00       		.byte	0
 6054 2035 35       		.uleb128 0x35
 6055 2036 18000000 		.4byte	.LVL19
 6056 203a 26240000 		.4byte	0x2426
 6057 203e 54200000 		.4byte	0x2054
 6058 2042 2A       		.uleb128 0x2a
 6059 2043 01       		.byte	0x1
 6060 2044 50       		.byte	0x50
 6061 2045 02       		.byte	0x2
 6062 2046 91       		.byte	0x91
 6063 2047 44       		.sleb128 -60
 6064 2048 2A       		.uleb128 0x2a
 6065 2049 01       		.byte	0x1
 6066 204a 51       		.byte	0x51
 6067 204b 01       		.byte	0x1
 6068 204c 30       		.byte	0x30
 6069 204d 2A       		.uleb128 0x2a
 6070 204e 01       		.byte	0x1
 6071 204f 52       		.byte	0x52
 6072 2050 02       		.byte	0x2
 6073 2051 08       		.byte	0x8
 6074 2052 2C       		.byte	0x2c
 6075 2053 00       		.byte	0
 6076 2054 35       		.uleb128 0x35
 6077 2055 38000000 		.4byte	.LVL20
 6078 2059 A4240000 		.4byte	0x24a4
 6079 205d 68200000 		.4byte	0x2068
 6080 2061 2A       		.uleb128 0x2a
 6081 2062 01       		.byte	0x1
 6082 2063 50       		.byte	0x50
 6083 2064 02       		.byte	0x2
 6084 2065 91       		.byte	0x91
 6085 2066 40       		.sleb128 -64
 6086 2067 00       		.byte	0
 6087 2068 35       		.uleb128 0x35
 6088 2069 76000000 		.4byte	.LVL21
 6089 206d B2240000 		.4byte	0x24b2
 6090 2071 82200000 		.4byte	0x2082
 6091 2075 2A       		.uleb128 0x2a
 6092 2076 01       		.byte	0x1
 6093 2077 50       		.byte	0x50
 6094 2078 03       		.byte	0x3
 6095 2079 91       		.byte	0x91
 6096 207a AC7F     		.sleb128 -84
ARM GAS  C:\Users\EBANO_~1\AppData\Local\Temp\ccsZgiNd.s 			page 128


 6097 207c 2A       		.uleb128 0x2a
 6098 207d 01       		.byte	0x1
 6099 207e 51       		.byte	0x51
 6100 207f 01       		.byte	0x1
 6101 2080 31       		.byte	0x31
 6102 2081 00       		.byte	0
 6103 2082 30       		.uleb128 0x30
 6104 2083 7E000000 		.4byte	.LVL22
 6105 2087 C0240000 		.4byte	0x24c0
 6106 208b 30       		.uleb128 0x30
 6107 208c 86000000 		.4byte	.LVL23
 6108 2090 C0240000 		.4byte	0x24c0
 6109 2094 00       		.byte	0
 6110 2095 44       		.uleb128 0x44
 6111 2096 01       		.byte	0x1
 6112 2097 58050000 		.4byte	.LASF355
 6113 209b 01       		.byte	0x1
 6114 209c B4       		.byte	0xb4
 6115 209d 01       		.byte	0x1
 6116 209e 00000000 		.4byte	.LFB43
 6117 20a2 C0000000 		.4byte	.LFE43
 6118 20a6 C6020000 		.4byte	.LLST2
 6119 20aa 01       		.byte	0x1
 6120 20ab AA210000 		.4byte	0x21aa
 6121 20af 27       		.uleb128 0x27
 6122 20b0 63000000 		.4byte	.LASF356
 6123 20b4 01       		.byte	0x1
 6124 20b5 B6       		.byte	0xb6
 6125 20b6 8A100000 		.4byte	0x108a
 6126 20ba 02       		.byte	0x2
 6127 20bb 91       		.byte	0x91
 6128 20bc 54       		.sleb128 -44
 6129 20bd 45       		.uleb128 0x45
 6130 20be 18000000 		.4byte	.Ldebug_ranges0+0x18
 6131 20c2 D5200000 		.4byte	0x20d5
 6132 20c6 27       		.uleb128 0x27
 6133 20c7 B70D0000 		.4byte	.LASF357
 6134 20cb 01       		.byte	0x1
 6135 20cc BA       		.byte	0xba
 6136 20cd 480A0000 		.4byte	0xa48
 6137 20d1 02       		.byte	0x2
 6138 20d2 91       		.byte	0x91
 6139 20d3 44       		.sleb128 -60
 6140 20d4 00       		.byte	0
 6141 20d5 45       		.uleb128 0x45
 6142 20d6 40000000 		.4byte	.Ldebug_ranges0+0x40
 6143 20da ED200000 		.4byte	0x20ed
 6144 20de 27       		.uleb128 0x27
 6145 20df B70D0000 		.4byte	.LASF357
 6146 20e3 01       		.byte	0x1
 6147 20e4 BB       		.byte	0xbb
 6148 20e5 480A0000 		.4byte	0xa48
 6149 20e9 02       		.byte	0x2
 6150 20ea 91       		.byte	0x91
 6151 20eb 48       		.sleb128 -56
 6152 20ec 00       		.byte	0
 6153 20ed 45       		.uleb128 0x45
ARM GAS  C:\Users\EBANO_~1\AppData\Local\Temp\ccsZgiNd.s 			page 129


 6154 20ee 60000000 		.4byte	.Ldebug_ranges0+0x60
 6155 20f2 05210000 		.4byte	0x2105
 6156 20f6 27       		.uleb128 0x27
 6157 20f7 B70D0000 		.4byte	.LASF357
 6158 20fb 01       		.byte	0x1
 6159 20fc BC       		.byte	0xbc
 6160 20fd 480A0000 		.4byte	0xa48
 6161 2101 02       		.byte	0x2
 6162 2102 91       		.byte	0x91
 6163 2103 4C       		.sleb128 -52
 6164 2104 00       		.byte	0
 6165 2105 45       		.uleb128 0x45
 6166 2106 78000000 		.4byte	.Ldebug_ranges0+0x78
 6167 210a 1D210000 		.4byte	0x211d
 6168 210e 27       		.uleb128 0x27
 6169 210f B70D0000 		.4byte	.LASF357
 6170 2113 01       		.byte	0x1
 6171 2114 BD       		.byte	0xbd
 6172 2115 480A0000 		.4byte	0xa48
 6173 2119 02       		.byte	0x2
 6174 211a 91       		.byte	0x91
 6175 211b 50       		.sleb128 -48
 6176 211c 00       		.byte	0
 6177 211d 35       		.uleb128 0x35
 6178 211e 12000000 		.4byte	.LVL13
 6179 2122 26240000 		.4byte	0x2426
 6180 2126 3B210000 		.4byte	0x213b
 6181 212a 2A       		.uleb128 0x2a
 6182 212b 01       		.byte	0x1
 6183 212c 50       		.byte	0x50
 6184 212d 02       		.byte	0x2
 6185 212e 91       		.byte	0x91
 6186 212f 5C       		.sleb128 -36
 6187 2130 2A       		.uleb128 0x2a
 6188 2131 01       		.byte	0x1
 6189 2132 51       		.byte	0x51
 6190 2133 01       		.byte	0x1
 6191 2134 30       		.byte	0x30
 6192 2135 2A       		.uleb128 0x2a
 6193 2136 01       		.byte	0x1
 6194 2137 52       		.byte	0x52
 6195 2138 01       		.byte	0x1
 6196 2139 3C       		.byte	0x3c
 6197 213a 00       		.byte	0
 6198 213b 35       		.uleb128 0x35
 6199 213c 68000000 		.4byte	.LVL14
 6200 2140 CD240000 		.4byte	0x24cd
 6201 2144 56210000 		.4byte	0x2156
 6202 2148 2A       		.uleb128 0x2a
 6203 2149 01       		.byte	0x1
 6204 214a 50       		.byte	0x50
 6205 214b 03       		.byte	0x3
 6206 214c 44       		.byte	0x44
 6207 214d 4A       		.byte	0x4a
 6208 214e 24       		.byte	0x24
 6209 214f 2A       		.uleb128 0x2a
 6210 2150 01       		.byte	0x1
ARM GAS  C:\Users\EBANO_~1\AppData\Local\Temp\ccsZgiNd.s 			page 130


 6211 2151 51       		.byte	0x51
 6212 2152 02       		.byte	0x2
 6213 2153 91       		.byte	0x91
 6214 2154 54       		.sleb128 -44
 6215 2155 00       		.byte	0
 6216 2156 35       		.uleb128 0x35
 6217 2157 74000000 		.4byte	.LVL15
 6218 215b CD240000 		.4byte	0x24cd
 6219 215f 73210000 		.4byte	0x2173
 6220 2163 2A       		.uleb128 0x2a
 6221 2164 01       		.byte	0x1
 6222 2165 50       		.byte	0x50
 6223 2166 05       		.byte	0x5
 6224 2167 0C       		.byte	0xc
 6225 2168 00040050 		.4byte	0x50000400
 6226 216c 2A       		.uleb128 0x2a
 6227 216d 01       		.byte	0x1
 6228 216e 51       		.byte	0x51
 6229 216f 02       		.byte	0x2
 6230 2170 91       		.byte	0x91
 6231 2171 54       		.sleb128 -44
 6232 2172 00       		.byte	0
 6233 2173 35       		.uleb128 0x35
 6234 2174 7C000000 		.4byte	.LVL16
 6235 2178 CD240000 		.4byte	0x24cd
 6236 217c 90210000 		.4byte	0x2190
 6237 2180 2A       		.uleb128 0x2a
 6238 2181 01       		.byte	0x1
 6239 2182 50       		.byte	0x50
 6240 2183 05       		.byte	0x5
 6241 2184 0C       		.byte	0xc
 6242 2185 00080050 		.4byte	0x50000800
 6243 2189 2A       		.uleb128 0x2a
 6244 218a 01       		.byte	0x1
 6245 218b 51       		.byte	0x51
 6246 218c 02       		.byte	0x2
 6247 218d 91       		.byte	0x91
 6248 218e 54       		.sleb128 -44
 6249 218f 00       		.byte	0
 6250 2190 29       		.uleb128 0x29
 6251 2191 84000000 		.4byte	.LVL17
 6252 2195 CD240000 		.4byte	0x24cd
 6253 2199 2A       		.uleb128 0x2a
 6254 219a 01       		.byte	0x1
 6255 219b 50       		.byte	0x50
 6256 219c 05       		.byte	0x5
 6257 219d 0C       		.byte	0xc
 6258 219e 001C0050 		.4byte	0x50001c00
 6259 21a2 2A       		.uleb128 0x2a
 6260 21a3 01       		.byte	0x1
 6261 21a4 51       		.byte	0x51
 6262 21a5 02       		.byte	0x2
 6263 21a6 91       		.byte	0x91
 6264 21a7 54       		.sleb128 -44
 6265 21a8 00       		.byte	0
 6266 21a9 00       		.byte	0
 6267 21aa 46       		.uleb128 0x46
ARM GAS  C:\Users\EBANO_~1\AppData\Local\Temp\ccsZgiNd.s 			page 131


 6268 21ab E4050000 		.4byte	.LASF361
 6269 21af 01       		.byte	0x1
 6270 21b0 A1       		.byte	0xa1
 6271 21b1 01       		.byte	0x1
 6272 21b2 01       		.byte	0x1
 6273 21b3 C3210000 		.4byte	0x21c3
 6274 21b7 47       		.uleb128 0x47
 6275 21b8 16030000 		.4byte	.LASF358
 6276 21bc 01       		.byte	0x1
 6277 21bd A4       		.byte	0xa4
 6278 21be 8A100000 		.4byte	0x108a
 6279 21c2 00       		.byte	0
 6280 21c3 48       		.uleb128 0x48
 6281 21c4 E90C0000 		.4byte	.LASF365
 6282 21c8 01       		.byte	0x1
 6283 21c9 93       		.byte	0x93
 6284 21ca 01       		.byte	0x1
 6285 21cb 01       		.byte	0x1
 6286 21cc 44       		.uleb128 0x44
 6287 21cd 01       		.byte	0x1
 6288 21ce 47070000 		.4byte	.LASF359
 6289 21d2 01       		.byte	0x1
 6290 21d3 83       		.byte	0x83
 6291 21d4 01       		.byte	0x1
 6292 21d5 00000000 		.4byte	.LFB40
 6293 21d9 20000000 		.4byte	.LFE40
 6294 21dd FF020000 		.4byte	.LLST1
 6295 21e1 01       		.byte	0x1
 6296 21e2 FE210000 		.4byte	0x21fe
 6297 21e6 30       		.uleb128 0x30
 6298 21e7 06000000 		.4byte	.LVL10
 6299 21eb DB240000 		.4byte	0x24db
 6300 21ef 31       		.uleb128 0x31
 6301 21f0 0C000000 		.4byte	.LVL11
 6302 21f4 30       		.uleb128 0x30
 6303 21f5 10000000 		.4byte	.LVL12
 6304 21f9 E8240000 		.4byte	0x24e8
 6305 21fd 00       		.byte	0
 6306 21fe 44       		.uleb128 0x44
 6307 21ff 01       		.byte	0x1
 6308 2200 F8010000 		.4byte	.LASF360
 6309 2204 01       		.byte	0x1
 6310 2205 60       		.byte	0x60
 6311 2206 01       		.byte	0x1
 6312 2207 00000000 		.4byte	.LFB39
 6313 220b 9C000000 		.4byte	.LFE39
 6314 220f 1F030000 		.4byte	.LLST0
 6315 2213 01       		.byte	0x1
 6316 2214 AE220000 		.4byte	0x22ae
 6317 2218 49       		.uleb128 0x49
 6318 2219 341C0000 		.4byte	0x1c34
 6319 221d 0C000000 		.4byte	.LBB26
 6320 2221 00000000 		.4byte	.Ldebug_ranges0+0
 6321 2225 01       		.byte	0x1
 6322 2226 69       		.byte	0x69
 6323 2227 3C220000 		.4byte	0x223c
 6324 222b 29       		.uleb128 0x29
ARM GAS  C:\Users\EBANO_~1\AppData\Local\Temp\ccsZgiNd.s 			page 132


 6325 222c 88000000 		.4byte	.LVL9
 6326 2230 F5240000 		.4byte	0x24f5
 6327 2234 2A       		.uleb128 0x2a
 6328 2235 01       		.byte	0x1
 6329 2236 50       		.byte	0x50
 6330 2237 02       		.byte	0x2
 6331 2238 74       		.byte	0x74
 6332 2239 04       		.sleb128 4
 6333 223a 00       		.byte	0
 6334 223b 00       		.byte	0
 6335 223c 31       		.uleb128 0x31
 6336 223d 1A000000 		.4byte	.LVL0
 6337 2241 30       		.uleb128 0x30
 6338 2242 1E000000 		.4byte	.LVL1
 6339 2246 03250000 		.4byte	0x2503
 6340 224a 30       		.uleb128 0x30
 6341 224b 22000000 		.4byte	.LVL2
 6342 224f 10250000 		.4byte	0x2510
 6343 2253 30       		.uleb128 0x30
 6344 2254 26000000 		.4byte	.LVL3
 6345 2258 1D250000 		.4byte	0x251d
 6346 225c 30       		.uleb128 0x30
 6347 225d 2A000000 		.4byte	.LVL4
 6348 2261 2A250000 		.4byte	0x252a
 6349 2265 35       		.uleb128 0x35
 6350 2266 30000000 		.4byte	.LVL5
 6351 226a 37250000 		.4byte	0x2537
 6352 226e 78220000 		.4byte	0x2278
 6353 2272 2A       		.uleb128 0x2a
 6354 2273 01       		.byte	0x1
 6355 2274 50       		.byte	0x50
 6356 2275 01       		.byte	0x1
 6357 2276 30       		.byte	0x30
 6358 2277 00       		.byte	0
 6359 2278 35       		.uleb128 0x35
 6360 2279 36000000 		.4byte	.LVL6
 6361 227d 37250000 		.4byte	0x2537
 6362 2281 8B220000 		.4byte	0x228b
 6363 2285 2A       		.uleb128 0x2a
 6364 2286 01       		.byte	0x1
 6365 2287 50       		.byte	0x50
 6366 2288 01       		.byte	0x1
 6367 2289 31       		.byte	0x31
 6368 228a 00       		.byte	0
 6369 228b 35       		.uleb128 0x35
 6370 228c 3C000000 		.4byte	.LVL7
 6371 2290 37250000 		.4byte	0x2537
 6372 2294 9E220000 		.4byte	0x229e
 6373 2298 2A       		.uleb128 0x2a
 6374 2299 01       		.byte	0x1
 6375 229a 50       		.byte	0x50
 6376 229b 01       		.byte	0x1
 6377 229c 32       		.byte	0x32
 6378 229d 00       		.byte	0
 6379 229e 29       		.uleb128 0x29
 6380 229f 42000000 		.4byte	.LVL8
 6381 22a3 37250000 		.4byte	0x2537
ARM GAS  C:\Users\EBANO_~1\AppData\Local\Temp\ccsZgiNd.s 			page 133


 6382 22a7 2A       		.uleb128 0x2a
 6383 22a8 01       		.byte	0x1
 6384 22a9 50       		.byte	0x50
 6385 22aa 01       		.byte	0x1
 6386 22ab 33       		.byte	0x33
 6387 22ac 00       		.byte	0
 6388 22ad 00       		.byte	0
 6389 22ae 4A       		.uleb128 0x4a
 6390 22af B8070000 		.4byte	.LASF362
 6391 22b3 02       		.byte	0x2
 6392 22b4 5301     		.2byte	0x153
 6393 22b6 01       		.byte	0x1
 6394 22b7 03       		.byte	0x3
 6395 22b8 C9220000 		.4byte	0x22c9
 6396 22bc 38       		.uleb128 0x38
 6397 22bd C6070000 		.4byte	.LASF363
 6398 22c1 02       		.byte	0x2
 6399 22c2 5301     		.2byte	0x153
 6400 22c4 3D0A0000 		.4byte	0xa3d
 6401 22c8 00       		.byte	0
 6402 22c9 4B       		.uleb128 0x4b
 6403 22ca 030D0000 		.4byte	.LASF398
 6404 22ce 02       		.byte	0x2
 6405 22cf 3501     		.2byte	0x135
 6406 22d1 01       		.byte	0x1
 6407 22d2 3D0A0000 		.4byte	0xa3d
 6408 22d6 03       		.byte	0x3
 6409 22d7 E8220000 		.4byte	0x22e8
 6410 22db 2B       		.uleb128 0x2b
 6411 22dc 34020000 		.4byte	.LASF364
 6412 22e0 02       		.byte	0x2
 6413 22e1 3701     		.2byte	0x137
 6414 22e3 3D0A0000 		.4byte	0xa3d
 6415 22e7 00       		.byte	0
 6416 22e8 48       		.uleb128 0x48
 6417 22e9 E9070000 		.4byte	.LASF366
 6418 22ed 02       		.byte	0x2
 6419 22ee 5E       		.byte	0x5e
 6420 22ef 01       		.byte	0x1
 6421 22f0 03       		.byte	0x3
 6422 22f1 4C       		.uleb128 0x4c
 6423 22f2 341C0000 		.4byte	0x1c34
 6424 22f6 00000000 		.4byte	.LFB49
 6425 22fa 58000000 		.4byte	.LFE49
 6426 22fe 4B030000 		.4byte	.LLST22
 6427 2302 01       		.byte	0x1
 6428 2303 1B230000 		.4byte	0x231b
 6429 2307 29       		.uleb128 0x29
 6430 2308 48000000 		.4byte	.LVL66
 6431 230c F5240000 		.4byte	0x24f5
 6432 2310 2A       		.uleb128 0x2a
 6433 2311 01       		.byte	0x1
 6434 2312 50       		.byte	0x50
 6435 2313 05       		.byte	0x5
 6436 2314 03       		.byte	0x3
 6437 2315 04000000 		.4byte	.LANCHOR0+4
 6438 2319 00       		.byte	0
ARM GAS  C:\Users\EBANO_~1\AppData\Local\Temp\ccsZgiNd.s 			page 134


 6439 231a 00       		.byte	0
 6440 231b 4C       		.uleb128 0x4c
 6441 231c E61B0000 		.4byte	0x1be6
 6442 2320 00000000 		.4byte	.LFB51
 6443 2324 9C000000 		.4byte	.LFE51
 6444 2328 6B030000 		.4byte	.LLST23
 6445 232c 01       		.byte	0x1
 6446 232d FE230000 		.4byte	0x23fe
 6447 2331 33       		.uleb128 0x33
 6448 2332 F91B0000 		.4byte	0x1bf9
 6449 2336 97030000 		.4byte	.LLST24
 6450 233a 34       		.uleb128 0x34
 6451 233b 051C0000 		.4byte	0x1c05
 6452 233f 3F       		.uleb128 0x3f
 6453 2340 111C0000 		.4byte	0x1c11
 6454 2344 C3030000 		.4byte	.LLST25
 6455 2348 40       		.uleb128 0x40
 6456 2349 E61B0000 		.4byte	0x1be6
 6457 234d 10000000 		.4byte	.LBB81
 6458 2351 7E000000 		.4byte	.LBE81
 6459 2355 36       		.uleb128 0x36
 6460 2356 F91B0000 		.4byte	0x1bf9
 6461 235a 2D       		.uleb128 0x2d
 6462 235b 10000000 		.4byte	.LBB82
 6463 235f 7E000000 		.4byte	.LBE82
 6464 2363 2E       		.uleb128 0x2e
 6465 2364 3A230000 		.4byte	0x233a
 6466 2368 02       		.byte	0x2
 6467 2369 91       		.byte	0x91
 6468 236a 60       		.sleb128 -32
 6469 236b 34       		.uleb128 0x34
 6470 236c 3F230000 		.4byte	0x233f
 6471 2370 35       		.uleb128 0x35
 6472 2371 30000000 		.4byte	.LVL69
 6473 2375 5F240000 		.4byte	0x245f
 6474 2379 89230000 		.4byte	0x2389
 6475 237d 2A       		.uleb128 0x2a
 6476 237e 01       		.byte	0x1
 6477 237f 50       		.byte	0x50
 6478 2380 02       		.byte	0x2
 6479 2381 74       		.byte	0x74
 6480 2382 00       		.sleb128 0
 6481 2383 2A       		.uleb128 0x2a
 6482 2384 01       		.byte	0x1
 6483 2385 51       		.byte	0x51
 6484 2386 01       		.byte	0x1
 6485 2387 30       		.byte	0x30
 6486 2388 00       		.byte	0
 6487 2389 35       		.uleb128 0x35
 6488 238a 40000000 		.4byte	.LVL70
 6489 238e 6C240000 		.4byte	0x246c
 6490 2392 A3230000 		.4byte	0x23a3
 6491 2396 2A       		.uleb128 0x2a
 6492 2397 01       		.byte	0x1
 6493 2398 50       		.byte	0x50
 6494 2399 02       		.byte	0x2
 6495 239a 74       		.byte	0x74
ARM GAS  C:\Users\EBANO_~1\AppData\Local\Temp\ccsZgiNd.s 			page 135


 6496 239b 00       		.sleb128 0
 6497 239c 2A       		.uleb128 0x2a
 6498 239d 01       		.byte	0x1
 6499 239e 51       		.byte	0x51
 6500 239f 02       		.byte	0x2
 6501 23a0 7D       		.byte	0x7d
 6502 23a1 00       		.sleb128 0
 6503 23a2 00       		.byte	0
 6504 23a3 35       		.uleb128 0x35
 6505 23a4 50000000 		.4byte	.LVL71
 6506 23a8 6C240000 		.4byte	0x246c
 6507 23ac BD230000 		.4byte	0x23bd
 6508 23b0 2A       		.uleb128 0x2a
 6509 23b1 01       		.byte	0x1
 6510 23b2 50       		.byte	0x50
 6511 23b3 02       		.byte	0x2
 6512 23b4 74       		.byte	0x74
 6513 23b5 00       		.sleb128 0
 6514 23b6 2A       		.uleb128 0x2a
 6515 23b7 01       		.byte	0x1
 6516 23b8 51       		.byte	0x51
 6517 23b9 02       		.byte	0x2
 6518 23ba 7D       		.byte	0x7d
 6519 23bb 00       		.sleb128 0
 6520 23bc 00       		.byte	0
 6521 23bd 35       		.uleb128 0x35
 6522 23be 56000000 		.4byte	.LVL72
 6523 23c2 7A240000 		.4byte	0x247a
 6524 23c6 D1230000 		.4byte	0x23d1
 6525 23ca 2A       		.uleb128 0x2a
 6526 23cb 01       		.byte	0x1
 6527 23cc 50       		.byte	0x50
 6528 23cd 02       		.byte	0x2
 6529 23ce 74       		.byte	0x74
 6530 23cf 00       		.sleb128 0
 6531 23d0 00       		.byte	0
 6532 23d1 35       		.uleb128 0x35
 6533 23d2 60000000 		.4byte	.LVL73
 6534 23d6 88240000 		.4byte	0x2488
 6535 23da EB230000 		.4byte	0x23eb
 6536 23de 2A       		.uleb128 0x2a
 6537 23df 01       		.byte	0x1
 6538 23e0 50       		.byte	0x50
 6539 23e1 02       		.byte	0x2
 6540 23e2 74       		.byte	0x74
 6541 23e3 00       		.sleb128 0
 6542 23e4 2A       		.uleb128 0x2a
 6543 23e5 01       		.byte	0x1
 6544 23e6 51       		.byte	0x51
 6545 23e7 02       		.byte	0x2
 6546 23e8 09       		.byte	0x9
 6547 23e9 FF       		.byte	0xff
 6548 23ea 00       		.byte	0
 6549 23eb 29       		.uleb128 0x29
 6550 23ec 66000000 		.4byte	.LVL74
 6551 23f0 96240000 		.4byte	0x2496
 6552 23f4 2A       		.uleb128 0x2a
ARM GAS  C:\Users\EBANO_~1\AppData\Local\Temp\ccsZgiNd.s 			page 136


 6553 23f5 01       		.byte	0x1
 6554 23f6 50       		.byte	0x50
 6555 23f7 02       		.byte	0x2
 6556 23f8 74       		.byte	0x74
 6557 23f9 00       		.sleb128 0
 6558 23fa 00       		.byte	0
 6559 23fb 00       		.byte	0
 6560 23fc 00       		.byte	0
 6561 23fd 00       		.byte	0
 6562 23fe 4D       		.uleb128 0x4d
 6563 23ff 01       		.byte	0x1
 6564 2400 01       		.byte	0x1
 6565 2401 5B020000 		.4byte	.LASF367
 6566 2405 5B020000 		.4byte	.LASF367
 6567 2409 16       		.byte	0x16
 6568 240a AE01     		.2byte	0x1ae
 6569 240c 4E       		.uleb128 0x4e
 6570 240d 01       		.byte	0x1
 6571 240e 01       		.byte	0x1
 6572 240f 93010000 		.4byte	.LASF368
 6573 2413 93010000 		.4byte	.LASF368
 6574 2417 17       		.byte	0x17
 6575 2418 43       		.byte	0x43
 6576 2419 4E       		.uleb128 0x4e
 6577 241a 01       		.byte	0x1
 6578 241b 01       		.byte	0x1
 6579 241c 41040000 		.4byte	.LASF369
 6580 2420 41040000 		.4byte	.LASF369
 6581 2424 18       		.byte	0x18
 6582 2425 3D       		.byte	0x3d
 6583 2426 4F       		.uleb128 0x4f
 6584 2427 01       		.byte	0x1
 6585 2428 01       		.byte	0x1
 6586 2429 75040000 		.4byte	.LASF399
 6587 242d B3020000 		.4byte	.LASF400
 6588 2431 1F       		.byte	0x1f
 6589 2432 00       		.byte	0
 6590 2433 75040000 		.4byte	.LASF399
 6591 2437 4E       		.uleb128 0x4e
 6592 2438 01       		.byte	0x1
 6593 2439 01       		.byte	0x1
 6594 243a 59120000 		.4byte	.LASF370
 6595 243e 59120000 		.4byte	.LASF370
 6596 2442 19       		.byte	0x19
 6597 2443 48       		.byte	0x48
 6598 2444 4E       		.uleb128 0x4e
 6599 2445 01       		.byte	0x1
 6600 2446 01       		.byte	0x1
 6601 2447 42110000 		.4byte	.LASF371
 6602 244b 42110000 		.4byte	.LASF371
 6603 244f 18       		.byte	0x18
 6604 2450 44       		.byte	0x44
 6605 2451 4D       		.uleb128 0x4d
 6606 2452 01       		.byte	0x1
 6607 2453 01       		.byte	0x1
 6608 2454 E2010000 		.4byte	.LASF372
 6609 2458 E2010000 		.4byte	.LASF372
ARM GAS  C:\Users\EBANO_~1\AppData\Local\Temp\ccsZgiNd.s 			page 137


 6610 245c 16       		.byte	0x16
 6611 245d AD01     		.2byte	0x1ad
 6612 245f 4E       		.uleb128 0x4e
 6613 2460 01       		.byte	0x1
 6614 2461 01       		.byte	0x1
 6615 2462 84000000 		.4byte	.LASF373
 6616 2466 84000000 		.4byte	.LASF373
 6617 246a 1A       		.byte	0x1a
 6618 246b C8       		.byte	0xc8
 6619 246c 4D       		.uleb128 0x4d
 6620 246d 01       		.byte	0x1
 6621 246e 01       		.byte	0x1
 6622 246f 700C0000 		.4byte	.LASF374
 6623 2473 700C0000 		.4byte	.LASF374
 6624 2477 11       		.byte	0x11
 6625 2478 5F04     		.2byte	0x45f
 6626 247a 4D       		.uleb128 0x4d
 6627 247b 01       		.byte	0x1
 6628 247c 01       		.byte	0x1
 6629 247d A1010000 		.4byte	.LASF375
 6630 2481 A1010000 		.4byte	.LASF375
 6631 2485 11       		.byte	0x11
 6632 2486 4004     		.2byte	0x440
 6633 2488 4D       		.uleb128 0x4d
 6634 2489 01       		.byte	0x1
 6635 248a 01       		.byte	0x1
 6636 248b C20E0000 		.4byte	.LASF376
 6637 248f C20E0000 		.4byte	.LASF376
 6638 2493 11       		.byte	0x11
 6639 2494 4204     		.2byte	0x442
 6640 2496 4D       		.uleb128 0x4d
 6641 2497 01       		.byte	0x1
 6642 2498 01       		.byte	0x1
 6643 2499 FA0F0000 		.4byte	.LASF377
 6644 249d FA0F0000 		.4byte	.LASF377
 6645 24a1 11       		.byte	0x11
 6646 24a2 4E04     		.2byte	0x44e
 6647 24a4 4D       		.uleb128 0x4d
 6648 24a5 01       		.byte	0x1
 6649 24a6 01       		.byte	0x1
 6650 24a7 81010000 		.4byte	.LASF378
 6651 24ab 81010000 		.4byte	.LASF378
 6652 24af 0E       		.byte	0xe
 6653 24b0 A706     		.2byte	0x6a7
 6654 24b2 4D       		.uleb128 0x4d
 6655 24b3 01       		.byte	0x1
 6656 24b4 01       		.byte	0x1
 6657 24b5 0B100000 		.4byte	.LASF379
 6658 24b9 0B100000 		.4byte	.LASF379
 6659 24bd 0E       		.byte	0xe
 6660 24be A806     		.2byte	0x6a8
 6661 24c0 4E       		.uleb128 0x4e
 6662 24c1 01       		.byte	0x1
 6663 24c2 01       		.byte	0x1
 6664 24c3 94050000 		.4byte	.LASF380
 6665 24c7 94050000 		.4byte	.LASF380
 6666 24cb 1B       		.byte	0x1b
ARM GAS  C:\Users\EBANO_~1\AppData\Local\Temp\ccsZgiNd.s 			page 138


 6667 24cc 2C       		.byte	0x2c
 6668 24cd 4D       		.uleb128 0x4d
 6669 24ce 01       		.byte	0x1
 6670 24cf 01       		.byte	0x1
 6671 24d0 5A040000 		.4byte	.LASF381
 6672 24d4 5A040000 		.4byte	.LASF381
 6673 24d8 0F       		.byte	0xf
 6674 24d9 2401     		.2byte	0x124
 6675 24db 4E       		.uleb128 0x4e
 6676 24dc 01       		.byte	0x1
 6677 24dd 01       		.byte	0x1
 6678 24de A5020000 		.4byte	.LASF382
 6679 24e2 A5020000 		.4byte	.LASF382
 6680 24e6 17       		.byte	0x17
 6681 24e7 3C       		.byte	0x3c
 6682 24e8 4E       		.uleb128 0x4e
 6683 24e9 01       		.byte	0x1
 6684 24ea 01       		.byte	0x1
 6685 24eb B9010000 		.4byte	.LASF383
 6686 24ef B9010000 		.4byte	.LASF383
 6687 24f3 18       		.byte	0x18
 6688 24f4 36       		.byte	0x36
 6689 24f5 4D       		.uleb128 0x4d
 6690 24f6 01       		.byte	0x1
 6691 24f7 01       		.byte	0x1
 6692 24f8 E70E0000 		.4byte	.LASF384
 6693 24fc E70E0000 		.4byte	.LASF384
 6694 2500 11       		.byte	0x11
 6695 2501 3104     		.2byte	0x431
 6696 2503 4E       		.uleb128 0x4e
 6697 2504 01       		.byte	0x1
 6698 2505 01       		.byte	0x1
 6699 2506 91080000 		.4byte	.LASF385
 6700 250a 91080000 		.4byte	.LASF385
 6701 250e 17       		.byte	0x17
 6702 250f 35       		.byte	0x35
 6703 2510 4E       		.uleb128 0x4e
 6704 2511 01       		.byte	0x1
 6705 2512 01       		.byte	0x1
 6706 2513 360D0000 		.4byte	.LASF386
 6707 2517 360D0000 		.4byte	.LASF386
 6708 251b 1C       		.byte	0x1c
 6709 251c 4B       		.byte	0x4b
 6710 251d 4E       		.uleb128 0x4e
 6711 251e 01       		.byte	0x1
 6712 251f 01       		.byte	0x1
 6713 2520 560B0000 		.4byte	.LASF387
 6714 2524 560B0000 		.4byte	.LASF387
 6715 2528 1D       		.byte	0x1d
 6716 2529 2A       		.byte	0x2a
 6717 252a 4E       		.uleb128 0x4e
 6718 252b 01       		.byte	0x1
 6719 252c 01       		.byte	0x1
 6720 252d 0A060000 		.4byte	.LASF388
 6721 2531 0A060000 		.4byte	.LASF388
 6722 2535 1E       		.byte	0x1e
 6723 2536 42       		.byte	0x42
ARM GAS  C:\Users\EBANO_~1\AppData\Local\Temp\ccsZgiNd.s 			page 139


 6724 2537 4E       		.uleb128 0x4e
 6725 2538 01       		.byte	0x1
 6726 2539 01       		.byte	0x1
 6727 253a 8B060000 		.4byte	.LASF389
 6728 253e 8B060000 		.4byte	.LASF389
 6729 2542 13       		.byte	0x13
 6730 2543 BA       		.byte	0xba
 6731 2544 00       		.byte	0
 6732              		.section	.debug_abbrev,"",%progbits
 6733              	.Ldebug_abbrev0:
 6734 0000 01       		.uleb128 0x1
 6735 0001 11       		.uleb128 0x11
 6736 0002 01       		.byte	0x1
 6737 0003 25       		.uleb128 0x25
 6738 0004 0E       		.uleb128 0xe
 6739 0005 13       		.uleb128 0x13
 6740 0006 0B       		.uleb128 0xb
 6741 0007 03       		.uleb128 0x3
 6742 0008 0E       		.uleb128 0xe
 6743 0009 1B       		.uleb128 0x1b
 6744 000a 0E       		.uleb128 0xe
 6745 000b 55       		.uleb128 0x55
 6746 000c 06       		.uleb128 0x6
 6747 000d 11       		.uleb128 0x11
 6748 000e 01       		.uleb128 0x1
 6749 000f 52       		.uleb128 0x52
 6750 0010 01       		.uleb128 0x1
 6751 0011 10       		.uleb128 0x10
 6752 0012 06       		.uleb128 0x6
 6753 0013 00       		.byte	0
 6754 0014 00       		.byte	0
 6755 0015 02       		.uleb128 0x2
 6756 0016 24       		.uleb128 0x24
 6757 0017 00       		.byte	0
 6758 0018 0B       		.uleb128 0xb
 6759 0019 0B       		.uleb128 0xb
 6760 001a 3E       		.uleb128 0x3e
 6761 001b 0B       		.uleb128 0xb
 6762 001c 03       		.uleb128 0x3
 6763 001d 08       		.uleb128 0x8
 6764 001e 00       		.byte	0
 6765 001f 00       		.byte	0
 6766 0020 03       		.uleb128 0x3
 6767 0021 24       		.uleb128 0x24
 6768 0022 00       		.byte	0
 6769 0023 0B       		.uleb128 0xb
 6770 0024 0B       		.uleb128 0xb
 6771 0025 3E       		.uleb128 0x3e
 6772 0026 0B       		.uleb128 0xb
 6773 0027 03       		.uleb128 0x3
 6774 0028 0E       		.uleb128 0xe
 6775 0029 00       		.byte	0
 6776 002a 00       		.byte	0
 6777 002b 04       		.uleb128 0x4
 6778 002c 16       		.uleb128 0x16
 6779 002d 00       		.byte	0
 6780 002e 03       		.uleb128 0x3
ARM GAS  C:\Users\EBANO_~1\AppData\Local\Temp\ccsZgiNd.s 			page 140


 6781 002f 0E       		.uleb128 0xe
 6782 0030 3A       		.uleb128 0x3a
 6783 0031 0B       		.uleb128 0xb
 6784 0032 3B       		.uleb128 0x3b
 6785 0033 0B       		.uleb128 0xb
 6786 0034 49       		.uleb128 0x49
 6787 0035 13       		.uleb128 0x13
 6788 0036 00       		.byte	0
 6789 0037 00       		.byte	0
 6790 0038 05       		.uleb128 0x5
 6791 0039 0F       		.uleb128 0xf
 6792 003a 00       		.byte	0
 6793 003b 0B       		.uleb128 0xb
 6794 003c 0B       		.uleb128 0xb
 6795 003d 49       		.uleb128 0x49
 6796 003e 13       		.uleb128 0x13
 6797 003f 00       		.byte	0
 6798 0040 00       		.byte	0
 6799 0041 06       		.uleb128 0x6
 6800 0042 13       		.uleb128 0x13
 6801 0043 00       		.byte	0
 6802 0044 03       		.uleb128 0x3
 6803 0045 0E       		.uleb128 0xe
 6804 0046 3C       		.uleb128 0x3c
 6805 0047 0C       		.uleb128 0xc
 6806 0048 00       		.byte	0
 6807 0049 00       		.byte	0
 6808 004a 07       		.uleb128 0x7
 6809 004b 16       		.uleb128 0x16
 6810 004c 00       		.byte	0
 6811 004d 03       		.uleb128 0x3
 6812 004e 0E       		.uleb128 0xe
 6813 004f 3A       		.uleb128 0x3a
 6814 0050 0B       		.uleb128 0xb
 6815 0051 3B       		.uleb128 0x3b
 6816 0052 05       		.uleb128 0x5
 6817 0053 49       		.uleb128 0x49
 6818 0054 13       		.uleb128 0x13
 6819 0055 00       		.byte	0
 6820 0056 00       		.byte	0
 6821 0057 08       		.uleb128 0x8
 6822 0058 17       		.uleb128 0x17
 6823 0059 01       		.byte	0x1
 6824 005a 0B       		.uleb128 0xb
 6825 005b 0B       		.uleb128 0xb
 6826 005c 3A       		.uleb128 0x3a
 6827 005d 0B       		.uleb128 0xb
 6828 005e 3B       		.uleb128 0x3b
 6829 005f 0B       		.uleb128 0xb
 6830 0060 01       		.uleb128 0x1
 6831 0061 13       		.uleb128 0x13
 6832 0062 00       		.byte	0
 6833 0063 00       		.byte	0
 6834 0064 09       		.uleb128 0x9
 6835 0065 0D       		.uleb128 0xd
 6836 0066 00       		.byte	0
 6837 0067 03       		.uleb128 0x3
ARM GAS  C:\Users\EBANO_~1\AppData\Local\Temp\ccsZgiNd.s 			page 141


 6838 0068 0E       		.uleb128 0xe
 6839 0069 3A       		.uleb128 0x3a
 6840 006a 0B       		.uleb128 0xb
 6841 006b 3B       		.uleb128 0x3b
 6842 006c 0B       		.uleb128 0xb
 6843 006d 49       		.uleb128 0x49
 6844 006e 13       		.uleb128 0x13
 6845 006f 00       		.byte	0
 6846 0070 00       		.byte	0
 6847 0071 0A       		.uleb128 0xa
 6848 0072 01       		.uleb128 0x1
 6849 0073 01       		.byte	0x1
 6850 0074 49       		.uleb128 0x49
 6851 0075 13       		.uleb128 0x13
 6852 0076 01       		.uleb128 0x1
 6853 0077 13       		.uleb128 0x13
 6854 0078 00       		.byte	0
 6855 0079 00       		.byte	0
 6856 007a 0B       		.uleb128 0xb
 6857 007b 21       		.uleb128 0x21
 6858 007c 00       		.byte	0
 6859 007d 49       		.uleb128 0x49
 6860 007e 13       		.uleb128 0x13
 6861 007f 2F       		.uleb128 0x2f
 6862 0080 0B       		.uleb128 0xb
 6863 0081 00       		.byte	0
 6864 0082 00       		.byte	0
 6865 0083 0C       		.uleb128 0xc
 6866 0084 13       		.uleb128 0x13
 6867 0085 01       		.byte	0x1
 6868 0086 0B       		.uleb128 0xb
 6869 0087 0B       		.uleb128 0xb
 6870 0088 3A       		.uleb128 0x3a
 6871 0089 0B       		.uleb128 0xb
 6872 008a 3B       		.uleb128 0x3b
 6873 008b 0B       		.uleb128 0xb
 6874 008c 01       		.uleb128 0x1
 6875 008d 13       		.uleb128 0x13
 6876 008e 00       		.byte	0
 6877 008f 00       		.byte	0
 6878 0090 0D       		.uleb128 0xd
 6879 0091 0D       		.uleb128 0xd
 6880 0092 00       		.byte	0
 6881 0093 03       		.uleb128 0x3
 6882 0094 0E       		.uleb128 0xe
 6883 0095 3A       		.uleb128 0x3a
 6884 0096 0B       		.uleb128 0xb
 6885 0097 3B       		.uleb128 0x3b
 6886 0098 0B       		.uleb128 0xb
 6887 0099 49       		.uleb128 0x49
 6888 009a 13       		.uleb128 0x13
 6889 009b 38       		.uleb128 0x38
 6890 009c 0A       		.uleb128 0xa
 6891 009d 00       		.byte	0
 6892 009e 00       		.byte	0
 6893 009f 0E       		.uleb128 0xe
 6894 00a0 0F       		.uleb128 0xf
ARM GAS  C:\Users\EBANO_~1\AppData\Local\Temp\ccsZgiNd.s 			page 142


 6895 00a1 00       		.byte	0
 6896 00a2 0B       		.uleb128 0xb
 6897 00a3 0B       		.uleb128 0xb
 6898 00a4 00       		.byte	0
 6899 00a5 00       		.byte	0
 6900 00a6 0F       		.uleb128 0xf
 6901 00a7 26       		.uleb128 0x26
 6902 00a8 00       		.byte	0
 6903 00a9 49       		.uleb128 0x49
 6904 00aa 13       		.uleb128 0x13
 6905 00ab 00       		.byte	0
 6906 00ac 00       		.byte	0
 6907 00ad 10       		.uleb128 0x10
 6908 00ae 13       		.uleb128 0x13
 6909 00af 01       		.byte	0x1
 6910 00b0 03       		.uleb128 0x3
 6911 00b1 0E       		.uleb128 0xe
 6912 00b2 0B       		.uleb128 0xb
 6913 00b3 0B       		.uleb128 0xb
 6914 00b4 3A       		.uleb128 0x3a
 6915 00b5 0B       		.uleb128 0xb
 6916 00b6 3B       		.uleb128 0x3b
 6917 00b7 0B       		.uleb128 0xb
 6918 00b8 01       		.uleb128 0x1
 6919 00b9 13       		.uleb128 0x13
 6920 00ba 00       		.byte	0
 6921 00bb 00       		.byte	0
 6922 00bc 11       		.uleb128 0x11
 6923 00bd 0D       		.uleb128 0xd
 6924 00be 00       		.byte	0
 6925 00bf 03       		.uleb128 0x3
 6926 00c0 08       		.uleb128 0x8
 6927 00c1 3A       		.uleb128 0x3a
 6928 00c2 0B       		.uleb128 0xb
 6929 00c3 3B       		.uleb128 0x3b
 6930 00c4 0B       		.uleb128 0xb
 6931 00c5 49       		.uleb128 0x49
 6932 00c6 13       		.uleb128 0x13
 6933 00c7 38       		.uleb128 0x38
 6934 00c8 0A       		.uleb128 0xa
 6935 00c9 00       		.byte	0
 6936 00ca 00       		.byte	0
 6937 00cb 12       		.uleb128 0x12
 6938 00cc 13       		.uleb128 0x13
 6939 00cd 01       		.byte	0x1
 6940 00ce 03       		.uleb128 0x3
 6941 00cf 0E       		.uleb128 0xe
 6942 00d0 0B       		.uleb128 0xb
 6943 00d1 05       		.uleb128 0x5
 6944 00d2 3A       		.uleb128 0x3a
 6945 00d3 0B       		.uleb128 0xb
 6946 00d4 3B       		.uleb128 0x3b
 6947 00d5 0B       		.uleb128 0xb
 6948 00d6 01       		.uleb128 0x1
 6949 00d7 13       		.uleb128 0x13
 6950 00d8 00       		.byte	0
 6951 00d9 00       		.byte	0
ARM GAS  C:\Users\EBANO_~1\AppData\Local\Temp\ccsZgiNd.s 			page 143


 6952 00da 13       		.uleb128 0x13
 6953 00db 15       		.uleb128 0x15
 6954 00dc 00       		.byte	0
 6955 00dd 27       		.uleb128 0x27
 6956 00de 0C       		.uleb128 0xc
 6957 00df 00       		.byte	0
 6958 00e0 00       		.byte	0
 6959 00e1 14       		.uleb128 0x14
 6960 00e2 15       		.uleb128 0x15
 6961 00e3 01       		.byte	0x1
 6962 00e4 27       		.uleb128 0x27
 6963 00e5 0C       		.uleb128 0xc
 6964 00e6 49       		.uleb128 0x49
 6965 00e7 13       		.uleb128 0x13
 6966 00e8 01       		.uleb128 0x1
 6967 00e9 13       		.uleb128 0x13
 6968 00ea 00       		.byte	0
 6969 00eb 00       		.byte	0
 6970 00ec 15       		.uleb128 0x15
 6971 00ed 05       		.uleb128 0x5
 6972 00ee 00       		.byte	0
 6973 00ef 49       		.uleb128 0x49
 6974 00f0 13       		.uleb128 0x13
 6975 00f1 00       		.byte	0
 6976 00f2 00       		.byte	0
 6977 00f3 16       		.uleb128 0x16
 6978 00f4 13       		.uleb128 0x13
 6979 00f5 01       		.byte	0x1
 6980 00f6 03       		.uleb128 0x3
 6981 00f7 0E       		.uleb128 0xe
 6982 00f8 0B       		.uleb128 0xb
 6983 00f9 05       		.uleb128 0x5
 6984 00fa 3A       		.uleb128 0x3a
 6985 00fb 0B       		.uleb128 0xb
 6986 00fc 3B       		.uleb128 0x3b
 6987 00fd 05       		.uleb128 0x5
 6988 00fe 01       		.uleb128 0x1
 6989 00ff 13       		.uleb128 0x13
 6990 0100 00       		.byte	0
 6991 0101 00       		.byte	0
 6992 0102 17       		.uleb128 0x17
 6993 0103 0D       		.uleb128 0xd
 6994 0104 00       		.byte	0
 6995 0105 03       		.uleb128 0x3
 6996 0106 0E       		.uleb128 0xe
 6997 0107 3A       		.uleb128 0x3a
 6998 0108 0B       		.uleb128 0xb
 6999 0109 3B       		.uleb128 0x3b
 7000 010a 05       		.uleb128 0x5
 7001 010b 49       		.uleb128 0x49
 7002 010c 13       		.uleb128 0x13
 7003 010d 38       		.uleb128 0x38
 7004 010e 0A       		.uleb128 0xa
 7005 010f 00       		.byte	0
 7006 0110 00       		.byte	0
 7007 0111 18       		.uleb128 0x18
 7008 0112 13       		.uleb128 0x13
ARM GAS  C:\Users\EBANO_~1\AppData\Local\Temp\ccsZgiNd.s 			page 144


 7009 0113 01       		.byte	0x1
 7010 0114 03       		.uleb128 0x3
 7011 0115 0E       		.uleb128 0xe
 7012 0116 0B       		.uleb128 0xb
 7013 0117 0B       		.uleb128 0xb
 7014 0118 3A       		.uleb128 0x3a
 7015 0119 0B       		.uleb128 0xb
 7016 011a 3B       		.uleb128 0x3b
 7017 011b 05       		.uleb128 0x5
 7018 011c 01       		.uleb128 0x1
 7019 011d 13       		.uleb128 0x13
 7020 011e 00       		.byte	0
 7021 011f 00       		.byte	0
 7022 0120 19       		.uleb128 0x19
 7023 0121 13       		.uleb128 0x13
 7024 0122 01       		.byte	0x1
 7025 0123 0B       		.uleb128 0xb
 7026 0124 0B       		.uleb128 0xb
 7027 0125 3A       		.uleb128 0x3a
 7028 0126 0B       		.uleb128 0xb
 7029 0127 3B       		.uleb128 0x3b
 7030 0128 05       		.uleb128 0x5
 7031 0129 01       		.uleb128 0x1
 7032 012a 13       		.uleb128 0x13
 7033 012b 00       		.byte	0
 7034 012c 00       		.byte	0
 7035 012d 1A       		.uleb128 0x1a
 7036 012e 17       		.uleb128 0x17
 7037 012f 01       		.byte	0x1
 7038 0130 0B       		.uleb128 0xb
 7039 0131 0B       		.uleb128 0xb
 7040 0132 3A       		.uleb128 0x3a
 7041 0133 0B       		.uleb128 0xb
 7042 0134 3B       		.uleb128 0x3b
 7043 0135 05       		.uleb128 0x5
 7044 0136 01       		.uleb128 0x1
 7045 0137 13       		.uleb128 0x13
 7046 0138 00       		.byte	0
 7047 0139 00       		.byte	0
 7048 013a 1B       		.uleb128 0x1b
 7049 013b 0D       		.uleb128 0xd
 7050 013c 00       		.byte	0
 7051 013d 03       		.uleb128 0x3
 7052 013e 0E       		.uleb128 0xe
 7053 013f 3A       		.uleb128 0x3a
 7054 0140 0B       		.uleb128 0xb
 7055 0141 3B       		.uleb128 0x3b
 7056 0142 05       		.uleb128 0x5
 7057 0143 49       		.uleb128 0x49
 7058 0144 13       		.uleb128 0x13
 7059 0145 00       		.byte	0
 7060 0146 00       		.byte	0
 7061 0147 1C       		.uleb128 0x1c
 7062 0148 15       		.uleb128 0x15
 7063 0149 01       		.byte	0x1
 7064 014a 27       		.uleb128 0x27
 7065 014b 0C       		.uleb128 0xc
ARM GAS  C:\Users\EBANO_~1\AppData\Local\Temp\ccsZgiNd.s 			page 145


 7066 014c 01       		.uleb128 0x1
 7067 014d 13       		.uleb128 0x13
 7068 014e 00       		.byte	0
 7069 014f 00       		.byte	0
 7070 0150 1D       		.uleb128 0x1d
 7071 0151 34       		.uleb128 0x34
 7072 0152 00       		.byte	0
 7073 0153 03       		.uleb128 0x3
 7074 0154 0E       		.uleb128 0xe
 7075 0155 3A       		.uleb128 0x3a
 7076 0156 0B       		.uleb128 0xb
 7077 0157 3B       		.uleb128 0x3b
 7078 0158 05       		.uleb128 0x5
 7079 0159 49       		.uleb128 0x49
 7080 015a 13       		.uleb128 0x13
 7081 015b 3F       		.uleb128 0x3f
 7082 015c 0C       		.uleb128 0xc
 7083 015d 3C       		.uleb128 0x3c
 7084 015e 0C       		.uleb128 0xc
 7085 015f 00       		.byte	0
 7086 0160 00       		.byte	0
 7087 0161 1E       		.uleb128 0x1e
 7088 0162 04       		.uleb128 0x4
 7089 0163 01       		.byte	0x1
 7090 0164 03       		.uleb128 0x3
 7091 0165 0E       		.uleb128 0xe
 7092 0166 3E       		.uleb128 0x3e
 7093 0167 0B       		.uleb128 0xb
 7094 0168 0B       		.uleb128 0xb
 7095 0169 0B       		.uleb128 0xb
 7096 016a 49       		.uleb128 0x49
 7097 016b 13       		.uleb128 0x13
 7098 016c 3A       		.uleb128 0x3a
 7099 016d 0B       		.uleb128 0xb
 7100 016e 3B       		.uleb128 0x3b
 7101 016f 05       		.uleb128 0x5
 7102 0170 01       		.uleb128 0x1
 7103 0171 13       		.uleb128 0x13
 7104 0172 00       		.byte	0
 7105 0173 00       		.byte	0
 7106 0174 1F       		.uleb128 0x1f
 7107 0175 28       		.uleb128 0x28
 7108 0176 00       		.byte	0
 7109 0177 03       		.uleb128 0x3
 7110 0178 0E       		.uleb128 0xe
 7111 0179 1C       		.uleb128 0x1c
 7112 017a 0D       		.uleb128 0xd
 7113 017b 00       		.byte	0
 7114 017c 00       		.byte	0
 7115 017d 20       		.uleb128 0x20
 7116 017e 28       		.uleb128 0x28
 7117 017f 00       		.byte	0
 7118 0180 03       		.uleb128 0x3
 7119 0181 0E       		.uleb128 0xe
 7120 0182 1C       		.uleb128 0x1c
 7121 0183 0B       		.uleb128 0xb
 7122 0184 00       		.byte	0
ARM GAS  C:\Users\EBANO_~1\AppData\Local\Temp\ccsZgiNd.s 			page 146


 7123 0185 00       		.byte	0
 7124 0186 21       		.uleb128 0x21
 7125 0187 35       		.uleb128 0x35
 7126 0188 00       		.byte	0
 7127 0189 49       		.uleb128 0x49
 7128 018a 13       		.uleb128 0x13
 7129 018b 00       		.byte	0
 7130 018c 00       		.byte	0
 7131 018d 22       		.uleb128 0x22
 7132 018e 34       		.uleb128 0x34
 7133 018f 00       		.byte	0
 7134 0190 03       		.uleb128 0x3
 7135 0191 0E       		.uleb128 0xe
 7136 0192 3A       		.uleb128 0x3a
 7137 0193 0B       		.uleb128 0xb
 7138 0194 3B       		.uleb128 0x3b
 7139 0195 0B       		.uleb128 0xb
 7140 0196 49       		.uleb128 0x49
 7141 0197 13       		.uleb128 0x13
 7142 0198 3F       		.uleb128 0x3f
 7143 0199 0C       		.uleb128 0xc
 7144 019a 3C       		.uleb128 0x3c
 7145 019b 0C       		.uleb128 0xc
 7146 019c 00       		.byte	0
 7147 019d 00       		.byte	0
 7148 019e 23       		.uleb128 0x23
 7149 019f 0D       		.uleb128 0xd
 7150 01a0 00       		.byte	0
 7151 01a1 03       		.uleb128 0x3
 7152 01a2 08       		.uleb128 0x8
 7153 01a3 3A       		.uleb128 0x3a
 7154 01a4 0B       		.uleb128 0xb
 7155 01a5 3B       		.uleb128 0x3b
 7156 01a6 05       		.uleb128 0x5
 7157 01a7 49       		.uleb128 0x49
 7158 01a8 13       		.uleb128 0x13
 7159 01a9 38       		.uleb128 0x38
 7160 01aa 0A       		.uleb128 0xa
 7161 01ab 00       		.byte	0
 7162 01ac 00       		.byte	0
 7163 01ad 24       		.uleb128 0x24
 7164 01ae 04       		.uleb128 0x4
 7165 01af 01       		.byte	0x1
 7166 01b0 3E       		.uleb128 0x3e
 7167 01b1 0B       		.uleb128 0xb
 7168 01b2 0B       		.uleb128 0xb
 7169 01b3 0B       		.uleb128 0xb
 7170 01b4 49       		.uleb128 0x49
 7171 01b5 13       		.uleb128 0x13
 7172 01b6 3A       		.uleb128 0x3a
 7173 01b7 0B       		.uleb128 0xb
 7174 01b8 3B       		.uleb128 0x3b
 7175 01b9 0B       		.uleb128 0xb
 7176 01ba 01       		.uleb128 0x1
 7177 01bb 13       		.uleb128 0x13
 7178 01bc 00       		.byte	0
 7179 01bd 00       		.byte	0
ARM GAS  C:\Users\EBANO_~1\AppData\Local\Temp\ccsZgiNd.s 			page 147


 7180 01be 25       		.uleb128 0x25
 7181 01bf 28       		.uleb128 0x28
 7182 01c0 00       		.byte	0
 7183 01c1 03       		.uleb128 0x3
 7184 01c2 08       		.uleb128 0x8
 7185 01c3 1C       		.uleb128 0x1c
 7186 01c4 0B       		.uleb128 0xb
 7187 01c5 00       		.byte	0
 7188 01c6 00       		.byte	0
 7189 01c7 26       		.uleb128 0x26
 7190 01c8 15       		.uleb128 0x15
 7191 01c9 00       		.byte	0
 7192 01ca 27       		.uleb128 0x27
 7193 01cb 0C       		.uleb128 0xc
 7194 01cc 49       		.uleb128 0x49
 7195 01cd 13       		.uleb128 0x13
 7196 01ce 00       		.byte	0
 7197 01cf 00       		.byte	0
 7198 01d0 27       		.uleb128 0x27
 7199 01d1 34       		.uleb128 0x34
 7200 01d2 00       		.byte	0
 7201 01d3 03       		.uleb128 0x3
 7202 01d4 0E       		.uleb128 0xe
 7203 01d5 3A       		.uleb128 0x3a
 7204 01d6 0B       		.uleb128 0xb
 7205 01d7 3B       		.uleb128 0x3b
 7206 01d8 0B       		.uleb128 0xb
 7207 01d9 49       		.uleb128 0x49
 7208 01da 13       		.uleb128 0x13
 7209 01db 02       		.uleb128 0x2
 7210 01dc 0A       		.uleb128 0xa
 7211 01dd 00       		.byte	0
 7212 01de 00       		.byte	0
 7213 01df 28       		.uleb128 0x28
 7214 01e0 2E       		.uleb128 0x2e
 7215 01e1 01       		.byte	0x1
 7216 01e2 3F       		.uleb128 0x3f
 7217 01e3 0C       		.uleb128 0xc
 7218 01e4 03       		.uleb128 0x3
 7219 01e5 0E       		.uleb128 0xe
 7220 01e6 3A       		.uleb128 0x3a
 7221 01e7 0B       		.uleb128 0xb
 7222 01e8 3B       		.uleb128 0x3b
 7223 01e9 05       		.uleb128 0x5
 7224 01ea 27       		.uleb128 0x27
 7225 01eb 0C       		.uleb128 0xc
 7226 01ec 11       		.uleb128 0x11
 7227 01ed 01       		.uleb128 0x1
 7228 01ee 12       		.uleb128 0x12
 7229 01ef 01       		.uleb128 0x1
 7230 01f0 40       		.uleb128 0x40
 7231 01f1 06       		.uleb128 0x6
 7232 01f2 9742     		.uleb128 0x2117
 7233 01f4 0C       		.uleb128 0xc
 7234 01f5 01       		.uleb128 0x1
 7235 01f6 13       		.uleb128 0x13
 7236 01f7 00       		.byte	0
ARM GAS  C:\Users\EBANO_~1\AppData\Local\Temp\ccsZgiNd.s 			page 148


 7237 01f8 00       		.byte	0
 7238 01f9 29       		.uleb128 0x29
 7239 01fa 898201   		.uleb128 0x4109
 7240 01fd 01       		.byte	0x1
 7241 01fe 11       		.uleb128 0x11
 7242 01ff 01       		.uleb128 0x1
 7243 0200 31       		.uleb128 0x31
 7244 0201 13       		.uleb128 0x13
 7245 0202 00       		.byte	0
 7246 0203 00       		.byte	0
 7247 0204 2A       		.uleb128 0x2a
 7248 0205 8A8201   		.uleb128 0x410a
 7249 0208 00       		.byte	0
 7250 0209 02       		.uleb128 0x2
 7251 020a 0A       		.uleb128 0xa
 7252 020b 9142     		.uleb128 0x2111
 7253 020d 0A       		.uleb128 0xa
 7254 020e 00       		.byte	0
 7255 020f 00       		.byte	0
 7256 0210 2B       		.uleb128 0x2b
 7257 0211 34       		.uleb128 0x34
 7258 0212 00       		.byte	0
 7259 0213 03       		.uleb128 0x3
 7260 0214 0E       		.uleb128 0xe
 7261 0215 3A       		.uleb128 0x3a
 7262 0216 0B       		.uleb128 0xb
 7263 0217 3B       		.uleb128 0x3b
 7264 0218 05       		.uleb128 0x5
 7265 0219 49       		.uleb128 0x49
 7266 021a 13       		.uleb128 0x13
 7267 021b 00       		.byte	0
 7268 021c 00       		.byte	0
 7269 021d 2C       		.uleb128 0x2c
 7270 021e 1D       		.uleb128 0x1d
 7271 021f 01       		.byte	0x1
 7272 0220 31       		.uleb128 0x31
 7273 0221 13       		.uleb128 0x13
 7274 0222 11       		.uleb128 0x11
 7275 0223 01       		.uleb128 0x1
 7276 0224 12       		.uleb128 0x12
 7277 0225 01       		.uleb128 0x1
 7278 0226 58       		.uleb128 0x58
 7279 0227 0B       		.uleb128 0xb
 7280 0228 59       		.uleb128 0x59
 7281 0229 05       		.uleb128 0x5
 7282 022a 01       		.uleb128 0x1
 7283 022b 13       		.uleb128 0x13
 7284 022c 00       		.byte	0
 7285 022d 00       		.byte	0
 7286 022e 2D       		.uleb128 0x2d
 7287 022f 0B       		.uleb128 0xb
 7288 0230 01       		.byte	0x1
 7289 0231 11       		.uleb128 0x11
 7290 0232 01       		.uleb128 0x1
 7291 0233 12       		.uleb128 0x12
 7292 0234 01       		.uleb128 0x1
 7293 0235 00       		.byte	0
ARM GAS  C:\Users\EBANO_~1\AppData\Local\Temp\ccsZgiNd.s 			page 149


 7294 0236 00       		.byte	0
 7295 0237 2E       		.uleb128 0x2e
 7296 0238 34       		.uleb128 0x34
 7297 0239 00       		.byte	0
 7298 023a 31       		.uleb128 0x31
 7299 023b 13       		.uleb128 0x13
 7300 023c 02       		.uleb128 0x2
 7301 023d 0A       		.uleb128 0xa
 7302 023e 00       		.byte	0
 7303 023f 00       		.byte	0
 7304 0240 2F       		.uleb128 0x2f
 7305 0241 1D       		.uleb128 0x1d
 7306 0242 00       		.byte	0
 7307 0243 31       		.uleb128 0x31
 7308 0244 13       		.uleb128 0x13
 7309 0245 11       		.uleb128 0x11
 7310 0246 01       		.uleb128 0x1
 7311 0247 12       		.uleb128 0x12
 7312 0248 01       		.uleb128 0x1
 7313 0249 58       		.uleb128 0x58
 7314 024a 0B       		.uleb128 0xb
 7315 024b 59       		.uleb128 0x59
 7316 024c 05       		.uleb128 0x5
 7317 024d 00       		.byte	0
 7318 024e 00       		.byte	0
 7319 024f 30       		.uleb128 0x30
 7320 0250 898201   		.uleb128 0x4109
 7321 0253 00       		.byte	0
 7322 0254 11       		.uleb128 0x11
 7323 0255 01       		.uleb128 0x1
 7324 0256 31       		.uleb128 0x31
 7325 0257 13       		.uleb128 0x13
 7326 0258 00       		.byte	0
 7327 0259 00       		.byte	0
 7328 025a 31       		.uleb128 0x31
 7329 025b 898201   		.uleb128 0x4109
 7330 025e 00       		.byte	0
 7331 025f 11       		.uleb128 0x11
 7332 0260 01       		.uleb128 0x1
 7333 0261 00       		.byte	0
 7334 0262 00       		.byte	0
 7335 0263 32       		.uleb128 0x32
 7336 0264 1D       		.uleb128 0x1d
 7337 0265 01       		.byte	0x1
 7338 0266 31       		.uleb128 0x31
 7339 0267 13       		.uleb128 0x13
 7340 0268 11       		.uleb128 0x11
 7341 0269 01       		.uleb128 0x1
 7342 026a 12       		.uleb128 0x12
 7343 026b 01       		.uleb128 0x1
 7344 026c 58       		.uleb128 0x58
 7345 026d 0B       		.uleb128 0xb
 7346 026e 59       		.uleb128 0x59
 7347 026f 05       		.uleb128 0x5
 7348 0270 00       		.byte	0
 7349 0271 00       		.byte	0
 7350 0272 33       		.uleb128 0x33
ARM GAS  C:\Users\EBANO_~1\AppData\Local\Temp\ccsZgiNd.s 			page 150


 7351 0273 05       		.uleb128 0x5
 7352 0274 00       		.byte	0
 7353 0275 31       		.uleb128 0x31
 7354 0276 13       		.uleb128 0x13
 7355 0277 02       		.uleb128 0x2
 7356 0278 06       		.uleb128 0x6
 7357 0279 00       		.byte	0
 7358 027a 00       		.byte	0
 7359 027b 34       		.uleb128 0x34
 7360 027c 34       		.uleb128 0x34
 7361 027d 00       		.byte	0
 7362 027e 31       		.uleb128 0x31
 7363 027f 13       		.uleb128 0x13
 7364 0280 00       		.byte	0
 7365 0281 00       		.byte	0
 7366 0282 35       		.uleb128 0x35
 7367 0283 898201   		.uleb128 0x4109
 7368 0286 01       		.byte	0x1
 7369 0287 11       		.uleb128 0x11
 7370 0288 01       		.uleb128 0x1
 7371 0289 31       		.uleb128 0x31
 7372 028a 13       		.uleb128 0x13
 7373 028b 01       		.uleb128 0x1
 7374 028c 13       		.uleb128 0x13
 7375 028d 00       		.byte	0
 7376 028e 00       		.byte	0
 7377 028f 36       		.uleb128 0x36
 7378 0290 05       		.uleb128 0x5
 7379 0291 00       		.byte	0
 7380 0292 31       		.uleb128 0x31
 7381 0293 13       		.uleb128 0x13
 7382 0294 00       		.byte	0
 7383 0295 00       		.byte	0
 7384 0296 37       		.uleb128 0x37
 7385 0297 2E       		.uleb128 0x2e
 7386 0298 01       		.byte	0x1
 7387 0299 3F       		.uleb128 0x3f
 7388 029a 0C       		.uleb128 0xc
 7389 029b 03       		.uleb128 0x3
 7390 029c 0E       		.uleb128 0xe
 7391 029d 3A       		.uleb128 0x3a
 7392 029e 0B       		.uleb128 0xb
 7393 029f 3B       		.uleb128 0x3b
 7394 02a0 05       		.uleb128 0x5
 7395 02a1 27       		.uleb128 0x27
 7396 02a2 0C       		.uleb128 0xc
 7397 02a3 49       		.uleb128 0x49
 7398 02a4 13       		.uleb128 0x13
 7399 02a5 20       		.uleb128 0x20
 7400 02a6 0B       		.uleb128 0xb
 7401 02a7 01       		.uleb128 0x1
 7402 02a8 13       		.uleb128 0x13
 7403 02a9 00       		.byte	0
 7404 02aa 00       		.byte	0
 7405 02ab 38       		.uleb128 0x38
 7406 02ac 05       		.uleb128 0x5
 7407 02ad 00       		.byte	0
ARM GAS  C:\Users\EBANO_~1\AppData\Local\Temp\ccsZgiNd.s 			page 151


 7408 02ae 03       		.uleb128 0x3
 7409 02af 0E       		.uleb128 0xe
 7410 02b0 3A       		.uleb128 0x3a
 7411 02b1 0B       		.uleb128 0xb
 7412 02b2 3B       		.uleb128 0x3b
 7413 02b3 05       		.uleb128 0x5
 7414 02b4 49       		.uleb128 0x49
 7415 02b5 13       		.uleb128 0x13
 7416 02b6 00       		.byte	0
 7417 02b7 00       		.byte	0
 7418 02b8 39       		.uleb128 0x39
 7419 02b9 2E       		.uleb128 0x2e
 7420 02ba 00       		.byte	0
 7421 02bb 3F       		.uleb128 0x3f
 7422 02bc 0C       		.uleb128 0xc
 7423 02bd 03       		.uleb128 0x3
 7424 02be 0E       		.uleb128 0xe
 7425 02bf 3A       		.uleb128 0x3a
 7426 02c0 0B       		.uleb128 0xb
 7427 02c1 3B       		.uleb128 0x3b
 7428 02c2 05       		.uleb128 0x5
 7429 02c3 27       		.uleb128 0x27
 7430 02c4 0C       		.uleb128 0xc
 7431 02c5 11       		.uleb128 0x11
 7432 02c6 01       		.uleb128 0x1
 7433 02c7 12       		.uleb128 0x12
 7434 02c8 01       		.uleb128 0x1
 7435 02c9 40       		.uleb128 0x40
 7436 02ca 0A       		.uleb128 0xa
 7437 02cb 9742     		.uleb128 0x2117
 7438 02cd 0C       		.uleb128 0xc
 7439 02ce 00       		.byte	0
 7440 02cf 00       		.byte	0
 7441 02d0 3A       		.uleb128 0x3a
 7442 02d1 2E       		.uleb128 0x2e
 7443 02d2 00       		.byte	0
 7444 02d3 3F       		.uleb128 0x3f
 7445 02d4 0C       		.uleb128 0xc
 7446 02d5 03       		.uleb128 0x3
 7447 02d6 0E       		.uleb128 0xe
 7448 02d7 3A       		.uleb128 0x3a
 7449 02d8 0B       		.uleb128 0xb
 7450 02d9 3B       		.uleb128 0x3b
 7451 02da 05       		.uleb128 0x5
 7452 02db 27       		.uleb128 0x27
 7453 02dc 0C       		.uleb128 0xc
 7454 02dd 20       		.uleb128 0x20
 7455 02de 0B       		.uleb128 0xb
 7456 02df 00       		.byte	0
 7457 02e0 00       		.byte	0
 7458 02e1 3B       		.uleb128 0x3b
 7459 02e2 2E       		.uleb128 0x2e
 7460 02e3 01       		.byte	0x1
 7461 02e4 3F       		.uleb128 0x3f
 7462 02e5 0C       		.uleb128 0xc
 7463 02e6 03       		.uleb128 0x3
 7464 02e7 0E       		.uleb128 0xe
ARM GAS  C:\Users\EBANO_~1\AppData\Local\Temp\ccsZgiNd.s 			page 152


 7465 02e8 3A       		.uleb128 0x3a
 7466 02e9 0B       		.uleb128 0xb
 7467 02ea 3B       		.uleb128 0x3b
 7468 02eb 05       		.uleb128 0x5
 7469 02ec 27       		.uleb128 0x27
 7470 02ed 0C       		.uleb128 0xc
 7471 02ee 49       		.uleb128 0x49
 7472 02ef 13       		.uleb128 0x13
 7473 02f0 11       		.uleb128 0x11
 7474 02f1 01       		.uleb128 0x1
 7475 02f2 12       		.uleb128 0x12
 7476 02f3 01       		.uleb128 0x1
 7477 02f4 40       		.uleb128 0x40
 7478 02f5 06       		.uleb128 0x6
 7479 02f6 9642     		.uleb128 0x2116
 7480 02f8 0C       		.uleb128 0xc
 7481 02f9 01       		.uleb128 0x1
 7482 02fa 13       		.uleb128 0x13
 7483 02fb 00       		.byte	0
 7484 02fc 00       		.byte	0
 7485 02fd 3C       		.uleb128 0x3c
 7486 02fe 34       		.uleb128 0x34
 7487 02ff 00       		.byte	0
 7488 0300 03       		.uleb128 0x3
 7489 0301 0E       		.uleb128 0xe
 7490 0302 3A       		.uleb128 0x3a
 7491 0303 0B       		.uleb128 0xb
 7492 0304 3B       		.uleb128 0x3b
 7493 0305 05       		.uleb128 0x5
 7494 0306 49       		.uleb128 0x49
 7495 0307 13       		.uleb128 0x13
 7496 0308 02       		.uleb128 0x2
 7497 0309 06       		.uleb128 0x6
 7498 030a 00       		.byte	0
 7499 030b 00       		.byte	0
 7500 030c 3D       		.uleb128 0x3d
 7501 030d 1D       		.uleb128 0x1d
 7502 030e 01       		.byte	0x1
 7503 030f 31       		.uleb128 0x31
 7504 0310 13       		.uleb128 0x13
 7505 0311 52       		.uleb128 0x52
 7506 0312 01       		.uleb128 0x1
 7507 0313 55       		.uleb128 0x55
 7508 0314 06       		.uleb128 0x6
 7509 0315 58       		.uleb128 0x58
 7510 0316 0B       		.uleb128 0xb
 7511 0317 59       		.uleb128 0x59
 7512 0318 05       		.uleb128 0x5
 7513 0319 00       		.byte	0
 7514 031a 00       		.byte	0
 7515 031b 3E       		.uleb128 0x3e
 7516 031c 0B       		.uleb128 0xb
 7517 031d 01       		.byte	0x1
 7518 031e 55       		.uleb128 0x55
 7519 031f 06       		.uleb128 0x6
 7520 0320 00       		.byte	0
 7521 0321 00       		.byte	0
ARM GAS  C:\Users\EBANO_~1\AppData\Local\Temp\ccsZgiNd.s 			page 153


 7522 0322 3F       		.uleb128 0x3f
 7523 0323 34       		.uleb128 0x34
 7524 0324 00       		.byte	0
 7525 0325 31       		.uleb128 0x31
 7526 0326 13       		.uleb128 0x13
 7527 0327 02       		.uleb128 0x2
 7528 0328 06       		.uleb128 0x6
 7529 0329 00       		.byte	0
 7530 032a 00       		.byte	0
 7531 032b 40       		.uleb128 0x40
 7532 032c 0B       		.uleb128 0xb
 7533 032d 01       		.byte	0x1
 7534 032e 31       		.uleb128 0x31
 7535 032f 13       		.uleb128 0x13
 7536 0330 11       		.uleb128 0x11
 7537 0331 01       		.uleb128 0x1
 7538 0332 12       		.uleb128 0x12
 7539 0333 01       		.uleb128 0x1
 7540 0334 00       		.byte	0
 7541 0335 00       		.byte	0
 7542 0336 41       		.uleb128 0x41
 7543 0337 1D       		.uleb128 0x1d
 7544 0338 01       		.byte	0x1
 7545 0339 31       		.uleb128 0x31
 7546 033a 13       		.uleb128 0x13
 7547 033b 52       		.uleb128 0x52
 7548 033c 01       		.uleb128 0x1
 7549 033d 55       		.uleb128 0x55
 7550 033e 06       		.uleb128 0x6
 7551 033f 58       		.uleb128 0x58
 7552 0340 0B       		.uleb128 0xb
 7553 0341 59       		.uleb128 0x59
 7554 0342 05       		.uleb128 0x5
 7555 0343 01       		.uleb128 0x1
 7556 0344 13       		.uleb128 0x13
 7557 0345 00       		.byte	0
 7558 0346 00       		.byte	0
 7559 0347 42       		.uleb128 0x42
 7560 0348 05       		.uleb128 0x5
 7561 0349 00       		.byte	0
 7562 034a 03       		.uleb128 0x3
 7563 034b 08       		.uleb128 0x8
 7564 034c 3A       		.uleb128 0x3a
 7565 034d 0B       		.uleb128 0xb
 7566 034e 3B       		.uleb128 0x3b
 7567 034f 05       		.uleb128 0x5
 7568 0350 49       		.uleb128 0x49
 7569 0351 13       		.uleb128 0x13
 7570 0352 02       		.uleb128 0x2
 7571 0353 0A       		.uleb128 0xa
 7572 0354 00       		.byte	0
 7573 0355 00       		.byte	0
 7574 0356 43       		.uleb128 0x43
 7575 0357 2E       		.uleb128 0x2e
 7576 0358 00       		.byte	0
 7577 0359 3F       		.uleb128 0x3f
 7578 035a 0C       		.uleb128 0xc
ARM GAS  C:\Users\EBANO_~1\AppData\Local\Temp\ccsZgiNd.s 			page 154


 7579 035b 03       		.uleb128 0x3
 7580 035c 0E       		.uleb128 0xe
 7581 035d 3A       		.uleb128 0x3a
 7582 035e 0B       		.uleb128 0xb
 7583 035f 3B       		.uleb128 0x3b
 7584 0360 05       		.uleb128 0x5
 7585 0361 27       		.uleb128 0x27
 7586 0362 0C       		.uleb128 0xc
 7587 0363 49       		.uleb128 0x49
 7588 0364 13       		.uleb128 0x13
 7589 0365 11       		.uleb128 0x11
 7590 0366 01       		.uleb128 0x1
 7591 0367 12       		.uleb128 0x12
 7592 0368 01       		.uleb128 0x1
 7593 0369 40       		.uleb128 0x40
 7594 036a 0A       		.uleb128 0xa
 7595 036b 9742     		.uleb128 0x2117
 7596 036d 0C       		.uleb128 0xc
 7597 036e 00       		.byte	0
 7598 036f 00       		.byte	0
 7599 0370 44       		.uleb128 0x44
 7600 0371 2E       		.uleb128 0x2e
 7601 0372 01       		.byte	0x1
 7602 0373 3F       		.uleb128 0x3f
 7603 0374 0C       		.uleb128 0xc
 7604 0375 03       		.uleb128 0x3
 7605 0376 0E       		.uleb128 0xe
 7606 0377 3A       		.uleb128 0x3a
 7607 0378 0B       		.uleb128 0xb
 7608 0379 3B       		.uleb128 0x3b
 7609 037a 0B       		.uleb128 0xb
 7610 037b 27       		.uleb128 0x27
 7611 037c 0C       		.uleb128 0xc
 7612 037d 11       		.uleb128 0x11
 7613 037e 01       		.uleb128 0x1
 7614 037f 12       		.uleb128 0x12
 7615 0380 01       		.uleb128 0x1
 7616 0381 40       		.uleb128 0x40
 7617 0382 06       		.uleb128 0x6
 7618 0383 9742     		.uleb128 0x2117
 7619 0385 0C       		.uleb128 0xc
 7620 0386 01       		.uleb128 0x1
 7621 0387 13       		.uleb128 0x13
 7622 0388 00       		.byte	0
 7623 0389 00       		.byte	0
 7624 038a 45       		.uleb128 0x45
 7625 038b 0B       		.uleb128 0xb
 7626 038c 01       		.byte	0x1
 7627 038d 55       		.uleb128 0x55
 7628 038e 06       		.uleb128 0x6
 7629 038f 01       		.uleb128 0x1
 7630 0390 13       		.uleb128 0x13
 7631 0391 00       		.byte	0
 7632 0392 00       		.byte	0
 7633 0393 46       		.uleb128 0x46
 7634 0394 2E       		.uleb128 0x2e
 7635 0395 01       		.byte	0x1
ARM GAS  C:\Users\EBANO_~1\AppData\Local\Temp\ccsZgiNd.s 			page 155


 7636 0396 03       		.uleb128 0x3
 7637 0397 0E       		.uleb128 0xe
 7638 0398 3A       		.uleb128 0x3a
 7639 0399 0B       		.uleb128 0xb
 7640 039a 3B       		.uleb128 0x3b
 7641 039b 0B       		.uleb128 0xb
 7642 039c 27       		.uleb128 0x27
 7643 039d 0C       		.uleb128 0xc
 7644 039e 20       		.uleb128 0x20
 7645 039f 0B       		.uleb128 0xb
 7646 03a0 01       		.uleb128 0x1
 7647 03a1 13       		.uleb128 0x13
 7648 03a2 00       		.byte	0
 7649 03a3 00       		.byte	0
 7650 03a4 47       		.uleb128 0x47
 7651 03a5 34       		.uleb128 0x34
 7652 03a6 00       		.byte	0
 7653 03a7 03       		.uleb128 0x3
 7654 03a8 0E       		.uleb128 0xe
 7655 03a9 3A       		.uleb128 0x3a
 7656 03aa 0B       		.uleb128 0xb
 7657 03ab 3B       		.uleb128 0x3b
 7658 03ac 0B       		.uleb128 0xb
 7659 03ad 49       		.uleb128 0x49
 7660 03ae 13       		.uleb128 0x13
 7661 03af 00       		.byte	0
 7662 03b0 00       		.byte	0
 7663 03b1 48       		.uleb128 0x48
 7664 03b2 2E       		.uleb128 0x2e
 7665 03b3 00       		.byte	0
 7666 03b4 03       		.uleb128 0x3
 7667 03b5 0E       		.uleb128 0xe
 7668 03b6 3A       		.uleb128 0x3a
 7669 03b7 0B       		.uleb128 0xb
 7670 03b8 3B       		.uleb128 0x3b
 7671 03b9 0B       		.uleb128 0xb
 7672 03ba 27       		.uleb128 0x27
 7673 03bb 0C       		.uleb128 0xc
 7674 03bc 20       		.uleb128 0x20
 7675 03bd 0B       		.uleb128 0xb
 7676 03be 00       		.byte	0
 7677 03bf 00       		.byte	0
 7678 03c0 49       		.uleb128 0x49
 7679 03c1 1D       		.uleb128 0x1d
 7680 03c2 01       		.byte	0x1
 7681 03c3 31       		.uleb128 0x31
 7682 03c4 13       		.uleb128 0x13
 7683 03c5 52       		.uleb128 0x52
 7684 03c6 01       		.uleb128 0x1
 7685 03c7 55       		.uleb128 0x55
 7686 03c8 06       		.uleb128 0x6
 7687 03c9 58       		.uleb128 0x58
 7688 03ca 0B       		.uleb128 0xb
 7689 03cb 59       		.uleb128 0x59
 7690 03cc 0B       		.uleb128 0xb
 7691 03cd 01       		.uleb128 0x1
 7692 03ce 13       		.uleb128 0x13
ARM GAS  C:\Users\EBANO_~1\AppData\Local\Temp\ccsZgiNd.s 			page 156


 7693 03cf 00       		.byte	0
 7694 03d0 00       		.byte	0
 7695 03d1 4A       		.uleb128 0x4a
 7696 03d2 2E       		.uleb128 0x2e
 7697 03d3 01       		.byte	0x1
 7698 03d4 03       		.uleb128 0x3
 7699 03d5 0E       		.uleb128 0xe
 7700 03d6 3A       		.uleb128 0x3a
 7701 03d7 0B       		.uleb128 0xb
 7702 03d8 3B       		.uleb128 0x3b
 7703 03d9 05       		.uleb128 0x5
 7704 03da 27       		.uleb128 0x27
 7705 03db 0C       		.uleb128 0xc
 7706 03dc 20       		.uleb128 0x20
 7707 03dd 0B       		.uleb128 0xb
 7708 03de 01       		.uleb128 0x1
 7709 03df 13       		.uleb128 0x13
 7710 03e0 00       		.byte	0
 7711 03e1 00       		.byte	0
 7712 03e2 4B       		.uleb128 0x4b
 7713 03e3 2E       		.uleb128 0x2e
 7714 03e4 01       		.byte	0x1
 7715 03e5 03       		.uleb128 0x3
 7716 03e6 0E       		.uleb128 0xe
 7717 03e7 3A       		.uleb128 0x3a
 7718 03e8 0B       		.uleb128 0xb
 7719 03e9 3B       		.uleb128 0x3b
 7720 03ea 05       		.uleb128 0x5
 7721 03eb 27       		.uleb128 0x27
 7722 03ec 0C       		.uleb128 0xc
 7723 03ed 49       		.uleb128 0x49
 7724 03ee 13       		.uleb128 0x13
 7725 03ef 20       		.uleb128 0x20
 7726 03f0 0B       		.uleb128 0xb
 7727 03f1 01       		.uleb128 0x1
 7728 03f2 13       		.uleb128 0x13
 7729 03f3 00       		.byte	0
 7730 03f4 00       		.byte	0
 7731 03f5 4C       		.uleb128 0x4c
 7732 03f6 2E       		.uleb128 0x2e
 7733 03f7 01       		.byte	0x1
 7734 03f8 31       		.uleb128 0x31
 7735 03f9 13       		.uleb128 0x13
 7736 03fa 11       		.uleb128 0x11
 7737 03fb 01       		.uleb128 0x1
 7738 03fc 12       		.uleb128 0x12
 7739 03fd 01       		.uleb128 0x1
 7740 03fe 40       		.uleb128 0x40
 7741 03ff 06       		.uleb128 0x6
 7742 0400 9742     		.uleb128 0x2117
 7743 0402 0C       		.uleb128 0xc
 7744 0403 01       		.uleb128 0x1
 7745 0404 13       		.uleb128 0x13
 7746 0405 00       		.byte	0
 7747 0406 00       		.byte	0
 7748 0407 4D       		.uleb128 0x4d
 7749 0408 2E       		.uleb128 0x2e
ARM GAS  C:\Users\EBANO_~1\AppData\Local\Temp\ccsZgiNd.s 			page 157


 7750 0409 00       		.byte	0
 7751 040a 3F       		.uleb128 0x3f
 7752 040b 0C       		.uleb128 0xc
 7753 040c 3C       		.uleb128 0x3c
 7754 040d 0C       		.uleb128 0xc
 7755 040e 8740     		.uleb128 0x2007
 7756 0410 0E       		.uleb128 0xe
 7757 0411 03       		.uleb128 0x3
 7758 0412 0E       		.uleb128 0xe
 7759 0413 3A       		.uleb128 0x3a
 7760 0414 0B       		.uleb128 0xb
 7761 0415 3B       		.uleb128 0x3b
 7762 0416 05       		.uleb128 0x5
 7763 0417 00       		.byte	0
 7764 0418 00       		.byte	0
 7765 0419 4E       		.uleb128 0x4e
 7766 041a 2E       		.uleb128 0x2e
 7767 041b 00       		.byte	0
 7768 041c 3F       		.uleb128 0x3f
 7769 041d 0C       		.uleb128 0xc
 7770 041e 3C       		.uleb128 0x3c
 7771 041f 0C       		.uleb128 0xc
 7772 0420 8740     		.uleb128 0x2007
 7773 0422 0E       		.uleb128 0xe
 7774 0423 03       		.uleb128 0x3
 7775 0424 0E       		.uleb128 0xe
 7776 0425 3A       		.uleb128 0x3a
 7777 0426 0B       		.uleb128 0xb
 7778 0427 3B       		.uleb128 0x3b
 7779 0428 0B       		.uleb128 0xb
 7780 0429 00       		.byte	0
 7781 042a 00       		.byte	0
 7782 042b 4F       		.uleb128 0x4f
 7783 042c 2E       		.uleb128 0x2e
 7784 042d 00       		.byte	0
 7785 042e 3F       		.uleb128 0x3f
 7786 042f 0C       		.uleb128 0xc
 7787 0430 3C       		.uleb128 0x3c
 7788 0431 0C       		.uleb128 0xc
 7789 0432 8740     		.uleb128 0x2007
 7790 0434 0E       		.uleb128 0xe
 7791 0435 03       		.uleb128 0x3
 7792 0436 0E       		.uleb128 0xe
 7793 0437 3A       		.uleb128 0x3a
 7794 0438 0B       		.uleb128 0xb
 7795 0439 3B       		.uleb128 0x3b
 7796 043a 0B       		.uleb128 0xb
 7797 043b 8740     		.uleb128 0x2007
 7798 043d 0E       		.uleb128 0xe
 7799 043e 00       		.byte	0
 7800 043f 00       		.byte	0
 7801 0440 00       		.byte	0
 7802              		.section	.debug_loc,"",%progbits
 7803              	.Ldebug_loc0:
 7804              	.LLST29:
 7805 0000 00000000 		.4byte	.LFB54
 7806 0004 02000000 		.4byte	.LCFI20
ARM GAS  C:\Users\EBANO_~1\AppData\Local\Temp\ccsZgiNd.s 			page 158


 7807 0008 0200     		.2byte	0x2
 7808 000a 7D       		.byte	0x7d
 7809 000b 00       		.sleb128 0
 7810 000c 02000000 		.4byte	.LCFI20
 7811 0010 0C000000 		.4byte	.LFE54
 7812 0014 0200     		.2byte	0x2
 7813 0016 7D       		.byte	0x7d
 7814 0017 08       		.sleb128 8
 7815 0018 00000000 		.4byte	0
 7816 001c 00000000 		.4byte	0
 7817              	.LLST27:
 7818 0020 00000000 		.4byte	.LFB53
 7819 0024 02000000 		.4byte	.LCFI18
 7820 0028 0200     		.2byte	0x2
 7821 002a 7D       		.byte	0x7d
 7822 002b 00       		.sleb128 0
 7823 002c 02000000 		.4byte	.LCFI18
 7824 0030 04000000 		.4byte	.LCFI19
 7825 0034 0200     		.2byte	0x2
 7826 0036 7D       		.byte	0x7d
 7827 0037 08       		.sleb128 8
 7828 0038 04000000 		.4byte	.LCFI19
 7829 003c 68000000 		.4byte	.LFE53
 7830 0040 0200     		.2byte	0x2
 7831 0042 7D       		.byte	0x7d
 7832 0043 10       		.sleb128 16
 7833 0044 00000000 		.4byte	0
 7834 0048 00000000 		.4byte	0
 7835              	.LLST28:
 7836 004c 56000000 		.4byte	.LVL88
 7837 0050 5A000000 		.4byte	.LVL89
 7838 0054 0100     		.2byte	0x1
 7839 0056 54       		.byte	0x54
 7840 0057 00000000 		.4byte	0
 7841 005b 00000000 		.4byte	0
 7842              	.LLST26:
 7843 005f 00000000 		.4byte	.LFB52
 7844 0063 02000000 		.4byte	.LCFI16
 7845 0067 0200     		.2byte	0x2
 7846 0069 7D       		.byte	0x7d
 7847 006a 00       		.sleb128 0
 7848 006b 02000000 		.4byte	.LCFI16
 7849 006f 04000000 		.4byte	.LCFI17
 7850 0073 0200     		.2byte	0x2
 7851 0075 7D       		.byte	0x7d
 7852 0076 0C       		.sleb128 12
 7853 0077 04000000 		.4byte	.LCFI17
 7854 007b 78000000 		.4byte	.LFE52
 7855 007f 0200     		.2byte	0x2
 7856 0081 7D       		.byte	0x7d
 7857 0082 28       		.sleb128 40
 7858 0083 00000000 		.4byte	0
 7859 0087 00000000 		.4byte	0
 7860              	.LLST15:
 7861 008b 00000000 		.4byte	.LFB48
 7862 008f 02000000 		.4byte	.LCFI11
 7863 0093 0200     		.2byte	0x2
ARM GAS  C:\Users\EBANO_~1\AppData\Local\Temp\ccsZgiNd.s 			page 159


 7864 0095 7D       		.byte	0x7d
 7865 0096 00       		.sleb128 0
 7866 0097 02000000 		.4byte	.LCFI11
 7867 009b 06000000 		.4byte	.LCFI12
 7868 009f 0200     		.2byte	0x2
 7869 00a1 7D       		.byte	0x7d
 7870 00a2 10       		.sleb128 16
 7871 00a3 06000000 		.4byte	.LCFI12
 7872 00a7 EC000000 		.4byte	.LFE48
 7873 00ab 0200     		.2byte	0x2
 7874 00ad 7D       		.byte	0x7d
 7875 00ae 18       		.sleb128 24
 7876 00af 00000000 		.4byte	0
 7877 00b3 00000000 		.4byte	0
 7878              	.LLST16:
 7879 00b7 00000000 		.4byte	.LVL50
 7880 00bb 0E000000 		.4byte	.LVL52
 7881 00bf 0200     		.2byte	0x2
 7882 00c1 30       		.byte	0x30
 7883 00c2 9F       		.byte	0x9f
 7884 00c3 0E000000 		.4byte	.LVL52
 7885 00c7 12000000 		.4byte	.LVL53
 7886 00cb 0100     		.2byte	0x1
 7887 00cd 50       		.byte	0x50
 7888 00ce 12000000 		.4byte	.LVL53
 7889 00d2 BC000000 		.4byte	.LVL65
 7890 00d6 0200     		.2byte	0x2
 7891 00d8 30       		.byte	0x30
 7892 00d9 9F       		.byte	0x9f
 7893 00da BC000000 		.4byte	.LVL65
 7894 00de EC000000 		.4byte	.LFE48
 7895 00e2 0100     		.2byte	0x1
 7896 00e4 50       		.byte	0x50
 7897 00e5 00000000 		.4byte	0
 7898 00e9 00000000 		.4byte	0
 7899              	.LLST17:
 7900 00ed 00000000 		.4byte	.LVL50
 7901 00f1 0C000000 		.4byte	.LVL51
 7902 00f5 0200     		.2byte	0x2
 7903 00f7 30       		.byte	0x30
 7904 00f8 9F       		.byte	0x9f
 7905 00f9 12000000 		.4byte	.LVL53
 7906 00fd 80000000 		.4byte	.LVL60
 7907 0101 0200     		.2byte	0x2
 7908 0103 30       		.byte	0x30
 7909 0104 9F       		.byte	0x9f
 7910 0105 00000000 		.4byte	0
 7911 0109 00000000 		.4byte	0
 7912              	.LLST18:
 7913 010d 9A000000 		.4byte	.LVL62
 7914 0111 9C000000 		.4byte	.LVL63
 7915 0115 0100     		.2byte	0x1
 7916 0117 50       		.byte	0x50
 7917 0118 9C000000 		.4byte	.LVL63
 7918 011c B9000000 		.4byte	.LVL64-1
 7919 0120 0100     		.2byte	0x1
 7920 0122 52       		.byte	0x52
ARM GAS  C:\Users\EBANO_~1\AppData\Local\Temp\ccsZgiNd.s 			page 160


 7921 0123 00000000 		.4byte	0
 7922 0127 00000000 		.4byte	0
 7923              	.LLST19:
 7924 012b 00000000 		.4byte	.LVL50
 7925 012f 0C000000 		.4byte	.LVL51
 7926 0133 0600     		.2byte	0x6
 7927 0135 0C       		.byte	0xc
 7928 0136 00000244 		.4byte	0x44020000
 7929 013a 9F       		.byte	0x9f
 7930 013b 12000000 		.4byte	.LVL53
 7931 013f 80000000 		.4byte	.LVL60
 7932 0143 0600     		.2byte	0x6
 7933 0145 0C       		.byte	0xc
 7934 0146 00000244 		.4byte	0x44020000
 7935 014a 9F       		.byte	0x9f
 7936 014b 00000000 		.4byte	0
 7937 014f 00000000 		.4byte	0
 7938              	.LLST21:
 7939 0153 6A000000 		.4byte	.LVL59
 7940 0157 80000000 		.4byte	.LVL60
 7941 015b 0100     		.2byte	0x1
 7942 015d 50       		.byte	0x50
 7943 015e 00000000 		.4byte	0
 7944 0162 00000000 		.4byte	0
 7945              	.LLST5:
 7946 0166 00000000 		.4byte	.LFB47
 7947 016a 02000000 		.4byte	.LCFI9
 7948 016e 0200     		.2byte	0x2
 7949 0170 7D       		.byte	0x7d
 7950 0171 00       		.sleb128 0
 7951 0172 02000000 		.4byte	.LCFI9
 7952 0176 06000000 		.4byte	.LCFI10
 7953 017a 0200     		.2byte	0x2
 7954 017c 7D       		.byte	0x7d
 7955 017d 14       		.sleb128 20
 7956 017e 06000000 		.4byte	.LCFI10
 7957 0182 74010000 		.4byte	.LFE47
 7958 0186 0200     		.2byte	0x2
 7959 0188 7D       		.byte	0x7d
 7960 0189 20       		.sleb128 32
 7961 018a 00000000 		.4byte	0
 7962 018e 00000000 		.4byte	0
 7963              	.LLST6:
 7964 0192 00000000 		.4byte	.LVL25
 7965 0196 0E000000 		.4byte	.LVL26
 7966 019a 0200     		.2byte	0x2
 7967 019c 30       		.byte	0x30
 7968 019d 9F       		.byte	0x9f
 7969 019e 32000000 		.4byte	.LVL30
 7970 01a2 A0000000 		.4byte	.LVL37
 7971 01a6 0200     		.2byte	0x2
 7972 01a8 30       		.byte	0x30
 7973 01a9 9F       		.byte	0x9f
 7974 01aa 00000000 		.4byte	0
 7975 01ae 00000000 		.4byte	0
 7976              	.LLST7:
 7977 01b2 A8000000 		.4byte	.LVL38
ARM GAS  C:\Users\EBANO_~1\AppData\Local\Temp\ccsZgiNd.s 			page 161


 7978 01b6 2C010000 		.4byte	.LVL47
 7979 01ba 0100     		.2byte	0x1
 7980 01bc 56       		.byte	0x56
 7981 01bd 40010000 		.4byte	.LVL49
 7982 01c1 74010000 		.4byte	.LFE47
 7983 01c5 0100     		.2byte	0x1
 7984 01c7 50       		.byte	0x50
 7985 01c8 00000000 		.4byte	0
 7986 01cc 00000000 		.4byte	0
 7987              	.LLST8:
 7988 01d0 12000000 		.4byte	.LVL27
 7989 01d4 16000000 		.4byte	.LVL28
 7990 01d8 1D00     		.2byte	0x1d
 7991 01da 70       		.byte	0x70
 7992 01db 00       		.sleb128 0
 7993 01dc 72       		.byte	0x72
 7994 01dd 00       		.sleb128 0
 7995 01de 1C       		.byte	0x1c
 7996 01df 08       		.byte	0x8
 7997 01e0 50       		.byte	0x50
 7998 01e1 1E       		.byte	0x1e
 7999 01e2 38       		.byte	0x38
 8000 01e3 24       		.byte	0x24
 8001 01e4 0C       		.byte	0xc
 8002 01e5 7E00F81F 		.4byte	0x1ff8007e
 8003 01e9 94       		.byte	0x94
 8004 01ea 02       		.byte	0x2
 8005 01eb 0A       		.byte	0xa
 8006 01ec FFFF     		.2byte	0xffff
 8007 01ee 1A       		.byte	0x1a
 8008 01ef 72       		.byte	0x72
 8009 01f0 00       		.sleb128 0
 8010 01f1 1C       		.byte	0x1c
 8011 01f2 1B       		.byte	0x1b
 8012 01f3 23       		.byte	0x23
 8013 01f4 803C     		.uleb128 0x1e00
 8014 01f6 9F       		.byte	0x9f
 8015 01f7 00000000 		.4byte	0
 8016 01fb 00000000 		.4byte	0
 8017              	.LLST9:
 8018 01ff 00000000 		.4byte	.LVL25
 8019 0203 0E000000 		.4byte	.LVL26
 8020 0207 0600     		.2byte	0x6
 8021 0209 0C       		.byte	0xc
 8022 020a 00000244 		.4byte	0x44020000
 8023 020e 9F       		.byte	0x9f
 8024 020f 32000000 		.4byte	.LVL30
 8025 0213 A0000000 		.4byte	.LVL37
 8026 0217 0600     		.2byte	0x6
 8027 0219 0C       		.byte	0xc
 8028 021a 00000244 		.4byte	0x44020000
 8029 021e 9F       		.byte	0x9f
 8030 021f 00000000 		.4byte	0
 8031 0223 00000000 		.4byte	0
 8032              	.LLST11:
 8033 0227 8A000000 		.4byte	.LVL36
 8034 022b A0000000 		.4byte	.LVL37
ARM GAS  C:\Users\EBANO_~1\AppData\Local\Temp\ccsZgiNd.s 			page 162


 8035 022f 0100     		.2byte	0x1
 8036 0231 50       		.byte	0x50
 8037 0232 00000000 		.4byte	0
 8038 0236 00000000 		.4byte	0
 8039              	.LLST12:
 8040 023a A8000000 		.4byte	.LVL38
 8041 023e 2C010000 		.4byte	.LVL47
 8042 0242 0600     		.2byte	0x6
 8043 0244 0C       		.byte	0xc
 8044 0245 00000448 		.4byte	0x48040000
 8045 0249 9F       		.byte	0x9f
 8046 024a 00000000 		.4byte	0
 8047 024e 00000000 		.4byte	0
 8048              	.LLST13:
 8049 0252 A8000000 		.4byte	.LVL38
 8050 0256 2C010000 		.4byte	.LVL47
 8051 025a 0200     		.2byte	0x2
 8052 025c 30       		.byte	0x30
 8053 025d 9F       		.byte	0x9f
 8054 025e 00000000 		.4byte	0
 8055 0262 00000000 		.4byte	0
 8056              	.LLST14:
 8057 0266 08010000 		.4byte	.LVL44
 8058 026a 0E010000 		.4byte	.LVL45
 8059 026e 0100     		.2byte	0x1
 8060 0270 50       		.byte	0x50
 8061 0271 00000000 		.4byte	0
 8062 0275 00000000 		.4byte	0
 8063              	.LLST4:
 8064 0279 00000000 		.4byte	.LFB46
 8065 027d 08000000 		.4byte	.LCFI8
 8066 0281 0200     		.2byte	0x2
 8067 0283 7D       		.byte	0x7d
 8068 0284 00       		.sleb128 0
 8069 0285 08000000 		.4byte	.LCFI8
 8070 0289 5C000000 		.4byte	.LFE46
 8071 028d 0200     		.2byte	0x2
 8072 028f 7D       		.byte	0x7d
 8073 0290 08       		.sleb128 8
 8074 0291 00000000 		.4byte	0
 8075 0295 00000000 		.4byte	0
 8076              	.LLST3:
 8077 0299 00000000 		.4byte	.LFB44
 8078 029d 02000000 		.4byte	.LCFI6
 8079 02a1 0200     		.2byte	0x2
 8080 02a3 7D       		.byte	0x7d
 8081 02a4 00       		.sleb128 0
 8082 02a5 02000000 		.4byte	.LCFI6
 8083 02a9 04000000 		.4byte	.LCFI7
 8084 02ad 0200     		.2byte	0x2
 8085 02af 7D       		.byte	0x7d
 8086 02b0 04       		.sleb128 4
 8087 02b1 04000000 		.4byte	.LCFI7
 8088 02b5 94000000 		.4byte	.LFE44
 8089 02b9 0300     		.2byte	0x3
 8090 02bb 7D       		.byte	0x7d
 8091 02bc D800     		.sleb128 88
ARM GAS  C:\Users\EBANO_~1\AppData\Local\Temp\ccsZgiNd.s 			page 163


 8092 02be 00000000 		.4byte	0
 8093 02c2 00000000 		.4byte	0
 8094              	.LLST2:
 8095 02c6 00000000 		.4byte	.LFB43
 8096 02ca 02000000 		.4byte	.LCFI3
 8097 02ce 0200     		.2byte	0x2
 8098 02d0 7D       		.byte	0x7d
 8099 02d1 00       		.sleb128 0
 8100 02d2 02000000 		.4byte	.LCFI3
 8101 02d6 06000000 		.4byte	.LCFI4
 8102 02da 0200     		.2byte	0x2
 8103 02dc 7D       		.byte	0x7d
 8104 02dd 14       		.sleb128 20
 8105 02de 06000000 		.4byte	.LCFI4
 8106 02e2 08000000 		.4byte	.LCFI5
 8107 02e6 0200     		.2byte	0x2
 8108 02e8 7D       		.byte	0x7d
 8109 02e9 18       		.sleb128 24
 8110 02ea 08000000 		.4byte	.LCFI5
 8111 02ee C0000000 		.4byte	.LFE43
 8112 02f2 0300     		.2byte	0x3
 8113 02f4 7D       		.byte	0x7d
 8114 02f5 C000     		.sleb128 64
 8115 02f7 00000000 		.4byte	0
 8116 02fb 00000000 		.4byte	0
 8117              	.LLST1:
 8118 02ff 00000000 		.4byte	.LFB40
 8119 0303 02000000 		.4byte	.LCFI2
 8120 0307 0200     		.2byte	0x2
 8121 0309 7D       		.byte	0x7d
 8122 030a 00       		.sleb128 0
 8123 030b 02000000 		.4byte	.LCFI2
 8124 030f 20000000 		.4byte	.LFE40
 8125 0313 0200     		.2byte	0x2
 8126 0315 7D       		.byte	0x7d
 8127 0316 08       		.sleb128 8
 8128 0317 00000000 		.4byte	0
 8129 031b 00000000 		.4byte	0
 8130              	.LLST0:
 8131 031f 00000000 		.4byte	.LFB39
 8132 0323 02000000 		.4byte	.LCFI0
 8133 0327 0200     		.2byte	0x2
 8134 0329 7D       		.byte	0x7d
 8135 032a 00       		.sleb128 0
 8136 032b 02000000 		.4byte	.LCFI0
 8137 032f 06000000 		.4byte	.LCFI1
 8138 0333 0200     		.2byte	0x2
 8139 0335 7D       		.byte	0x7d
 8140 0336 08       		.sleb128 8
 8141 0337 06000000 		.4byte	.LCFI1
 8142 033b 9C000000 		.4byte	.LFE39
 8143 033f 0200     		.2byte	0x2
 8144 0341 7D       		.byte	0x7d
 8145 0342 10       		.sleb128 16
 8146 0343 00000000 		.4byte	0
 8147 0347 00000000 		.4byte	0
 8148              	.LLST22:
ARM GAS  C:\Users\EBANO_~1\AppData\Local\Temp\ccsZgiNd.s 			page 164


 8149 034b 00000000 		.4byte	.LFB49
 8150 034f 04000000 		.4byte	.LCFI13
 8151 0353 0200     		.2byte	0x2
 8152 0355 7D       		.byte	0x7d
 8153 0356 00       		.sleb128 0
 8154 0357 04000000 		.4byte	.LCFI13
 8155 035b 58000000 		.4byte	.LFE49
 8156 035f 0200     		.2byte	0x2
 8157 0361 7D       		.byte	0x7d
 8158 0362 08       		.sleb128 8
 8159 0363 00000000 		.4byte	0
 8160 0367 00000000 		.4byte	0
 8161              	.LLST23:
 8162 036b 00000000 		.4byte	.LFB51
 8163 036f 02000000 		.4byte	.LCFI14
 8164 0373 0200     		.2byte	0x2
 8165 0375 7D       		.byte	0x7d
 8166 0376 00       		.sleb128 0
 8167 0377 02000000 		.4byte	.LCFI14
 8168 037b 0A000000 		.4byte	.LCFI15
 8169 037f 0200     		.2byte	0x2
 8170 0381 7D       		.byte	0x7d
 8171 0382 14       		.sleb128 20
 8172 0383 0A000000 		.4byte	.LCFI15
 8173 0387 9C000000 		.4byte	.LFE51
 8174 038b 0200     		.2byte	0x2
 8175 038d 7D       		.byte	0x7d
 8176 038e 20       		.sleb128 32
 8177 038f 00000000 		.4byte	0
 8178 0393 00000000 		.4byte	0
 8179              	.LLST24:
 8180 0397 00000000 		.4byte	.LVL67
 8181 039b 0C000000 		.4byte	.LVL68
 8182 039f 0100     		.2byte	0x1
 8183 03a1 50       		.byte	0x50
 8184 03a2 0C000000 		.4byte	.LVL68
 8185 03a6 80000000 		.4byte	.LVL77
 8186 03aa 0100     		.2byte	0x1
 8187 03ac 57       		.byte	0x57
 8188 03ad 80000000 		.4byte	.LVL77
 8189 03b1 9C000000 		.4byte	.LFE51
 8190 03b5 0400     		.2byte	0x4
 8191 03b7 F3       		.byte	0xf3
 8192 03b8 01       		.uleb128 0x1
 8193 03b9 50       		.byte	0x50
 8194 03ba 9F       		.byte	0x9f
 8195 03bb 00000000 		.4byte	0
 8196 03bf 00000000 		.4byte	0
 8197              	.LLST25:
 8198 03c3 00000000 		.4byte	.LVL67
 8199 03c7 7E000000 		.4byte	.LVL76
 8200 03cb 0200     		.2byte	0x2
 8201 03cd 30       		.byte	0x30
 8202 03ce 9F       		.byte	0x9f
 8203 03cf 7E000000 		.4byte	.LVL76
 8204 03d3 9C000000 		.4byte	.LFE51
 8205 03d7 0100     		.2byte	0x1
ARM GAS  C:\Users\EBANO_~1\AppData\Local\Temp\ccsZgiNd.s 			page 165


 8206 03d9 50       		.byte	0x50
 8207 03da 00000000 		.4byte	0
 8208 03de 00000000 		.4byte	0
 8209              		.section	.debug_aranges,"",%progbits
 8210 0000 84000000 		.4byte	0x84
 8211 0004 0200     		.2byte	0x2
 8212 0006 00000000 		.4byte	.Ldebug_info0
 8213 000a 04       		.byte	0x4
 8214 000b 00       		.byte	0
 8215 000c 0000     		.2byte	0
 8216 000e 0000     		.2byte	0
 8217 0010 00000000 		.4byte	.LFB39
 8218 0014 9C000000 		.4byte	.LFE39-.LFB39
 8219 0018 00000000 		.4byte	.LFB40
 8220 001c 20000000 		.4byte	.LFE40-.LFB40
 8221 0020 00000000 		.4byte	.LFB43
 8222 0024 C0000000 		.4byte	.LFE43-.LFB43
 8223 0028 00000000 		.4byte	.LFB44
 8224 002c 94000000 		.4byte	.LFE44-.LFB44
 8225 0030 00000000 		.4byte	.LFB45
 8226 0034 20000000 		.4byte	.LFE45-.LFB45
 8227 0038 00000000 		.4byte	.LFB46
 8228 003c 5C000000 		.4byte	.LFE46-.LFB46
 8229 0040 00000000 		.4byte	.LFB47
 8230 0044 74010000 		.4byte	.LFE47-.LFB47
 8231 0048 00000000 		.4byte	.LFB48
 8232 004c EC000000 		.4byte	.LFE48-.LFB48
 8233 0050 00000000 		.4byte	.LFB49
 8234 0054 58000000 		.4byte	.LFE49-.LFB49
 8235 0058 00000000 		.4byte	.LFB50
 8236 005c 0C000000 		.4byte	.LFE50-.LFB50
 8237 0060 00000000 		.4byte	.LFB51
 8238 0064 9C000000 		.4byte	.LFE51-.LFB51
 8239 0068 00000000 		.4byte	.LFB52
 8240 006c 78000000 		.4byte	.LFE52-.LFB52
 8241 0070 00000000 		.4byte	.LFB53
 8242 0074 68000000 		.4byte	.LFE53-.LFB53
 8243 0078 00000000 		.4byte	.LFB54
 8244 007c 0C000000 		.4byte	.LFE54-.LFB54
 8245 0080 00000000 		.4byte	0
 8246 0084 00000000 		.4byte	0
 8247              		.section	.debug_ranges,"",%progbits
 8248              	.Ldebug_ranges0:
 8249 0000 0C000000 		.4byte	.LBB26
 8250 0004 12000000 		.4byte	.LBE26
 8251 0008 4A000000 		.4byte	.LBB31
 8252 000c 9C000000 		.4byte	.LBE31
 8253 0010 00000000 		.4byte	0
 8254 0014 00000000 		.4byte	0
 8255 0018 12000000 		.4byte	.LBB32
 8256 001c 14000000 		.4byte	.LBE32
 8257 0020 1A000000 		.4byte	.LBB36
 8258 0024 1C000000 		.4byte	.LBE36
 8259 0028 1E000000 		.4byte	.LBB37
 8260 002c 28000000 		.4byte	.LBE37
 8261 0030 2A000000 		.4byte	.LBB38
 8262 0034 30000000 		.4byte	.LBE38
ARM GAS  C:\Users\EBANO_~1\AppData\Local\Temp\ccsZgiNd.s 			page 166


 8263 0038 00000000 		.4byte	0
 8264 003c 00000000 		.4byte	0
 8265 0040 14000000 		.4byte	.LBB33
 8266 0044 16000000 		.4byte	.LBE33
 8267 0048 30000000 		.4byte	.LBB39
 8268 004c 32000000 		.4byte	.LBE39
 8269 0050 34000000 		.4byte	.LBB40
 8270 0054 40000000 		.4byte	.LBE40
 8271 0058 00000000 		.4byte	0
 8272 005c 00000000 		.4byte	0
 8273 0060 16000000 		.4byte	.LBB34
 8274 0064 18000000 		.4byte	.LBE34
 8275 0068 40000000 		.4byte	.LBB41
 8276 006c 4E000000 		.4byte	.LBE41
 8277 0070 00000000 		.4byte	0
 8278 0074 00000000 		.4byte	0
 8279 0078 18000000 		.4byte	.LBB35
 8280 007c 1A000000 		.4byte	.LBE35
 8281 0080 4E000000 		.4byte	.LBB42
 8282 0084 5C000000 		.4byte	.LBE42
 8283 0088 00000000 		.4byte	0
 8284 008c 00000000 		.4byte	0
 8285 0090 02000000 		.4byte	.LBB51
 8286 0094 04000000 		.4byte	.LBE51
 8287 0098 06000000 		.4byte	.LBB57
 8288 009c 0E000000 		.4byte	.LBE57
 8289 00a0 32000000 		.4byte	.LBB58
 8290 00a4 A0000000 		.4byte	.LBE58
 8291 00a8 00000000 		.4byte	0
 8292 00ac 00000000 		.4byte	0
 8293 00b0 02000000 		.4byte	.LBB67
 8294 00b4 04000000 		.4byte	.LBE67
 8295 00b8 06000000 		.4byte	.LBB73
 8296 00bc 0C000000 		.4byte	.LBE73
 8297 00c0 12000000 		.4byte	.LBB74
 8298 00c4 80000000 		.4byte	.LBE74
 8299 00c8 00000000 		.4byte	0
 8300 00cc 00000000 		.4byte	0
 8301 00d0 00000000 		.4byte	.LFB39
 8302 00d4 9C000000 		.4byte	.LFE39
 8303 00d8 00000000 		.4byte	.LFB40
 8304 00dc 20000000 		.4byte	.LFE40
 8305 00e0 00000000 		.4byte	.LFB43
 8306 00e4 C0000000 		.4byte	.LFE43
 8307 00e8 00000000 		.4byte	.LFB44
 8308 00ec 94000000 		.4byte	.LFE44
 8309 00f0 00000000 		.4byte	.LFB45
 8310 00f4 20000000 		.4byte	.LFE45
 8311 00f8 00000000 		.4byte	.LFB46
 8312 00fc 5C000000 		.4byte	.LFE46
 8313 0100 00000000 		.4byte	.LFB47
 8314 0104 74010000 		.4byte	.LFE47
 8315 0108 00000000 		.4byte	.LFB48
 8316 010c EC000000 		.4byte	.LFE48
 8317 0110 00000000 		.4byte	.LFB49
 8318 0114 58000000 		.4byte	.LFE49
 8319 0118 00000000 		.4byte	.LFB50
ARM GAS  C:\Users\EBANO_~1\AppData\Local\Temp\ccsZgiNd.s 			page 167


 8320 011c 0C000000 		.4byte	.LFE50
 8321 0120 00000000 		.4byte	.LFB51
 8322 0124 9C000000 		.4byte	.LFE51
 8323 0128 00000000 		.4byte	.LFB52
 8324 012c 78000000 		.4byte	.LFE52
 8325 0130 00000000 		.4byte	.LFB53
 8326 0134 68000000 		.4byte	.LFE53
 8327 0138 00000000 		.4byte	.LFB54
 8328 013c 0C000000 		.4byte	.LFE54
 8329 0140 00000000 		.4byte	0
 8330 0144 00000000 		.4byte	0
 8331              		.section	.debug_line,"",%progbits
 8332              	.Ldebug_line0:
 8333 0000 85070000 		.section	.debug_str,"MS",%progbits,1
 8333      0200BB04 
 8333      00000201 
 8333      FB0E0D00 
 8333      01010101 
 8334              	.LASF319:
 8335 0000 53656E64 		.ascii	"Send\000"
 8335      00
 8336              	.LASF346:
 8337 0005 6D656173 		.ascii	"measuredLevel\000"
 8337      75726564 
 8337      4C657665 
 8337      6C00
 8338              	.LASF221:
 8339 0013 53706565 		.ascii	"Speed\000"
 8339      6400
 8340              	.LASF184:
 8341 0019 41504231 		.ascii	"APB1SMENR\000"
 8341      534D454E 
 8341      5200
 8342              	.LASF134:
 8343 0023 696E7438 		.ascii	"int8_t\000"
 8343      5F7400
 8344              	.LASF274:
 8345 002a 52616E6B 		.ascii	"Rank\000"
 8345      00
 8346              	.LASF294:
 8347 002f 52465F52 		.ascii	"RF_RX_RUNNING\000"
 8347      585F5255 
 8347      4E4E494E 
 8347      4700
 8348              	.LASF124:
 8349 003d 5F5F6C6F 		.ascii	"__locale_t\000"
 8349      63616C65 
 8349      5F7400
 8350              	.LASF23:
 8351 0048 5F5F7661 		.ascii	"__value\000"
 8351      6C756500 
 8352              	.LASF92:
 8353 0050 5F5F7366 		.ascii	"__sf\000"
 8353      00
 8354              	.LASF161:
 8355 0055 4F535045 		.ascii	"OSPEEDR\000"
 8355      45445200 
ARM GAS  C:\Users\EBANO_~1\AppData\Local\Temp\ccsZgiNd.s 			page 168


 8356              	.LASF59:
 8357 005d 5F726561 		.ascii	"_read\000"
 8357      6400
 8358              	.LASF356:
 8359 0063 4750494F 		.ascii	"GPIO_InitStruct\000"
 8359      5F496E69 
 8359      74537472 
 8359      75637400 
 8360              	.LASF397:
 8361 0073 48575F47 		.ascii	"HW_GetRandomSeed\000"
 8361      65745261 
 8361      6E646F6D 
 8361      53656564 
 8361      00
 8362              	.LASF373:
 8363 0084 48414C5F 		.ascii	"HAL_ADCEx_Calibration_Start\000"
 8363      41444345 
 8363      785F4361 
 8363      6C696272 
 8363      6174696F 
 8364              	.LASF237:
 8365 00a0 48414C5F 		.ascii	"HAL_DMA_STATE_READY_HALF\000"
 8365      444D415F 
 8365      53544154 
 8365      455F5245 
 8365      4144595F 
 8366              	.LASF60:
 8367 00b9 5F777269 		.ascii	"_write\000"
 8367      746500
 8368              	.LASF335:
 8369 00c0 52616469 		.ascii	"Radio\000"
 8369      6F00
 8370              	.LASF138:
 8371 00c6 696E7433 		.ascii	"int32_t\000"
 8371      325F7400 
 8372              	.LASF218:
 8373 00ce 5243435F 		.ascii	"RCC_ClkInitTypeDef\000"
 8373      436C6B49 
 8373      6E697454 
 8373      79706544 
 8373      656600
 8374              	.LASF103:
 8375 00e1 5F617363 		.ascii	"_asctime_buf\000"
 8375      74696D65 
 8375      5F627566 
 8375      00
 8376              	.LASF86:
 8377 00ee 5F637674 		.ascii	"_cvtlen\000"
 8377      6C656E00 
 8378              	.LASF304:
 8379 00f6 43616444 		.ascii	"CadDone\000"
 8379      6F6E6500 
 8380              	.LASF122:
 8381 00fe 5F756E75 		.ascii	"_unused\000"
 8381      73656400 
 8382              	.LASF33:
 8383 0106 5F5F746D 		.ascii	"__tm\000"
ARM GAS  C:\Users\EBANO_~1\AppData\Local\Temp\ccsZgiNd.s 			page 169


 8383      00
 8384              	.LASF118:
 8385 010b 5F776373 		.ascii	"_wcsrtombs_state\000"
 8385      72746F6D 
 8385      62735F73 
 8385      74617465 
 8385      00
 8386              	.LASF64:
 8387 011c 5F6E6275 		.ascii	"_nbuf\000"
 8387      6600
 8388              	.LASF34:
 8389 0122 5F5F746D 		.ascii	"__tm_sec\000"
 8389      5F736563 
 8389      00
 8390              	.LASF350:
 8391 012b 74656D70 		.ascii	"temperatureDegreeC\000"
 8391      65726174 
 8391      75726544 
 8391      65677265 
 8391      654300
 8392              	.LASF309:
 8393 013e 496F4465 		.ascii	"IoDeInit\000"
 8393      496E6974 
 8393      00
 8394              	.LASF111:
 8395 0147 5F6C3634 		.ascii	"_l64a_buf\000"
 8395      615F6275 
 8395      6600
 8396              	.LASF214:
 8397 0151 53595343 		.ascii	"SYSCLKSource\000"
 8397      4C4B536F 
 8397      75726365 
 8397      00
 8398              	.LASF167:
 8399 015e 49435343 		.ascii	"ICSCR\000"
 8399      5200
 8400              	.LASF326:
 8401 0164 52656164 		.ascii	"Read\000"
 8401      00
 8402              	.LASF341:
 8403 0169 4C504D5F 		.ascii	"LPM_EnterStopMode\000"
 8403      456E7465 
 8403      7253746F 
 8403      704D6F64 
 8403      6500
 8404              	.LASF68:
 8405 017b 5F6C6F63 		.ascii	"_lock\000"
 8405      6B00
 8406              	.LASF378:
 8407 0181 48414C5F 		.ascii	"HAL_RCC_OscConfig\000"
 8407      5243435F 
 8407      4F736343 
 8407      6F6E6669 
 8407      6700
 8408              	.LASF368:
 8409 0193 48575F53 		.ascii	"HW_SPI_IoInit\000"
 8409      50495F49 
ARM GAS  C:\Users\EBANO_~1\AppData\Local\Temp\ccsZgiNd.s 			page 170


 8409      6F496E69 
 8409      7400
 8410              	.LASF375:
 8411 01a1 48414C5F 		.ascii	"HAL_ADC_Start\000"
 8411      4144435F 
 8411      53746172 
 8411      7400
 8412              	.LASF290:
 8413 01af 4D4F4445 		.ascii	"MODEM_FSK\000"
 8413      4D5F4653 
 8413      4B00
 8414              	.LASF383:
 8415 01b9 76636F6D 		.ascii	"vcom_DeInit\000"
 8415      5F446549 
 8415      6E697400 
 8416              	.LASF155:
 8417 01c5 434E4454 		.ascii	"CNDTR\000"
 8417      5200
 8418              	.LASF99:
 8419 01cb 5F6D756C 		.ascii	"_mult\000"
 8419      7400
 8420              	.LASF260:
 8421 01d1 4C6F7750 		.ascii	"LowPowerAutoWait\000"
 8421      6F776572 
 8421      4175746F 
 8421      57616974 
 8421      00
 8422              	.LASF372:
 8423 01e2 48414C5F 		.ascii	"HAL_PWR_EnterSTOPMode\000"
 8423      5057525F 
 8423      456E7465 
 8423      7253544F 
 8423      504D6F64 
 8424              	.LASF360:
 8425 01f8 48575F49 		.ascii	"HW_Init\000"
 8425      6E697400 
 8426              	.LASF204:
 8427 0200 4C534553 		.ascii	"LSEState\000"
 8427      74617465 
 8427      00
 8428              	.LASF265:
 8429 0209 45787465 		.ascii	"ExternalTrigConvEdge\000"
 8429      726E616C 
 8429      54726967 
 8429      436F6E76 
 8429      45646765 
 8430              	.LASF20:
 8431 021e 5F5F7763 		.ascii	"__wch\000"
 8431      6800
 8432              	.LASF5:
 8433 0224 5F5F7569 		.ascii	"__uint8_t\000"
 8433      6E74385F 
 8433      7400
 8434              	.LASF56:
 8435 022e 5F66696C 		.ascii	"_file\000"
 8435      6500
 8436              	.LASF364:
ARM GAS  C:\Users\EBANO_~1\AppData\Local\Temp\ccsZgiNd.s 			page 171


 8437 0234 72657375 		.ascii	"result\000"
 8437      6C7400
 8438              	.LASF43:
 8439 023b 5F6F6E5F 		.ascii	"_on_exit_args\000"
 8439      65786974 
 8439      5F617267 
 8439      7300
 8440              	.LASF182:
 8441 0249 41484253 		.ascii	"AHBSMENR\000"
 8441      4D454E52 
 8441      00
 8442              	.LASF181:
 8443 0252 494F5053 		.ascii	"IOPSMENR\000"
 8443      4D454E52 
 8443      00
 8444              	.LASF367:
 8445 025b 48414C5F 		.ascii	"HAL_PWR_EnterSLEEPMode\000"
 8445      5057525F 
 8445      456E7465 
 8445      72534C45 
 8445      45504D6F 
 8446              	.LASF114:
 8447 0272 5F6D6272 		.ascii	"_mbrlen_state\000"
 8447      6C656E5F 
 8447      73746174 
 8447      6500
 8448              	.LASF12:
 8449 0280 6C6F6E67 		.ascii	"long int\000"
 8449      20696E74 
 8449      00
 8450              	.LASF125:
 8451 0289 5F696D70 		.ascii	"_impure_ptr\000"
 8451      7572655F 
 8451      70747200 
 8452              	.LASF83:
 8453 0295 5F726573 		.ascii	"_result_k\000"
 8453      756C745F 
 8453      6B00
 8454              	.LASF53:
 8455 029f 5F73697A 		.ascii	"_size\000"
 8455      6500
 8456              	.LASF382:
 8457 02a5 48575F53 		.ascii	"HW_SPI_DeInit\000"
 8457      50495F44 
 8457      65496E69 
 8457      7400
 8458              	.LASF400:
 8459 02b3 5F5F6275 		.ascii	"__builtin_memset\000"
 8459      696C7469 
 8459      6E5F6D65 
 8459      6D736574 
 8459      00
 8460              	.LASF104:
 8461 02c4 5F6C6F63 		.ascii	"_localtime_buf\000"
 8461      616C7469 
 8461      6D655F62 
 8461      756600
ARM GAS  C:\Users\EBANO_~1\AppData\Local\Temp\ccsZgiNd.s 			page 172


 8462              	.LASF230:
 8463 02d3 5072696F 		.ascii	"Priority\000"
 8463      72697479 
 8463      00
 8464              	.LASF146:
 8465 02dc 534D5052 		.ascii	"SMPR\000"
 8465      00
 8466              	.LASF249:
 8467 02e1 4572726F 		.ascii	"ErrorCode\000"
 8467      72436F64 
 8467      6500
 8468              	.LASF38:
 8469 02eb 5F5F746D 		.ascii	"__tm_mon\000"
 8469      5F6D6F6E 
 8469      00
 8470              	.LASF179:
 8471 02f4 41504232 		.ascii	"APB2ENR\000"
 8471      454E5200 
 8472              	.LASF273:
 8473 02fc 4368616E 		.ascii	"Channel\000"
 8473      6E656C00 
 8474              	.LASF282:
 8475 0304 4C45445F 		.ascii	"LED_RED1\000"
 8475      52454431 
 8475      00
 8476              	.LASF286:
 8477 030d 4C45445F 		.ascii	"LED_RED2\000"
 8477      52454432 
 8477      00
 8478              	.LASF358:
 8479 0316 696E6974 		.ascii	"initStruct\000"
 8479      53747275 
 8479      637400
 8480              	.LASF156:
 8481 0321 43504152 		.ascii	"CPAR\000"
 8481      00
 8482              	.LASF101:
 8483 0326 5F756E75 		.ascii	"_unused_rand\000"
 8483      7365645F 
 8483      72616E64 
 8483      00
 8484              	.LASF3:
 8485 0333 7369676E 		.ascii	"signed char\000"
 8485      65642063 
 8485      68617200 
 8486              	.LASF135:
 8487 033f 75696E74 		.ascii	"uint8_t\000"
 8487      385F7400 
 8488              	.LASF395:
 8489 0347 48575F41 		.ascii	"HW_AdcDeInit\000"
 8489      64634465 
 8489      496E6974 
 8489      00
 8490              	.LASF190:
 8491 0354 48414C5F 		.ascii	"HAL_OK\000"
 8491      4F4B00
 8492              	.LASF223:
ARM GAS  C:\Users\EBANO_~1\AppData\Local\Temp\ccsZgiNd.s 			page 173


 8493 035b 4750494F 		.ascii	"GPIO_InitTypeDef\000"
 8493      5F496E69 
 8493      74547970 
 8493      65446566 
 8493      00
 8494              	.LASF207:
 8495 036c 4C534953 		.ascii	"LSIState\000"
 8495      74617465 
 8495      00
 8496              	.LASF301:
 8497 0375 52785469 		.ascii	"RxTimeout\000"
 8497      6D656F75 
 8497      7400
 8498              	.LASF302:
 8499 037f 52784572 		.ascii	"RxError\000"
 8499      726F7200 
 8500              	.LASF147:
 8501 0387 52455345 		.ascii	"RESERVED1\000"
 8501      52564544 
 8501      3100
 8502              	.LASF6:
 8503 0391 756E7369 		.ascii	"unsigned char\000"
 8503      676E6564 
 8503      20636861 
 8503      7200
 8504              	.LASF149:
 8505 039f 52455345 		.ascii	"RESERVED3\000"
 8505      52564544 
 8505      3300
 8506              	.LASF151:
 8507 03a9 52455345 		.ascii	"RESERVED4\000"
 8507      52564544 
 8507      3400
 8508              	.LASF152:
 8509 03b3 52455345 		.ascii	"RESERVED5\000"
 8509      52564544 
 8509      3500
 8510              	.LASF275:
 8511 03bd 4144435F 		.ascii	"ADC_ChannelConfTypeDef\000"
 8511      4368616E 
 8511      6E656C43 
 8511      6F6E6654 
 8511      79706544 
 8512              	.LASF217:
 8513 03d4 41504232 		.ascii	"APB2CLKDivider\000"
 8513      434C4B44 
 8513      69766964 
 8513      657200
 8514              	.LASF258:
 8515 03e3 5363616E 		.ascii	"ScanConvMode\000"
 8515      436F6E76 
 8515      4D6F6465 
 8515      00
 8516              	.LASF78:
 8517 03f0 5F756E73 		.ascii	"_unspecified_locale_info\000"
 8517      70656369 
 8517      66696564 
ARM GAS  C:\Users\EBANO_~1\AppData\Local\Temp\ccsZgiNd.s 			page 174


 8517      5F6C6F63 
 8517      616C655F 
 8518              	.LASF71:
 8519 0409 5F726565 		.ascii	"_reent\000"
 8519      6E7400
 8520              	.LASF126:
 8521 0410 5F676C6F 		.ascii	"_global_impure_ptr\000"
 8521      62616C5F 
 8521      696D7075 
 8521      72655F70 
 8521      747200
 8522              	.LASF305:
 8523 0423 5F426F6F 		.ascii	"_Bool\000"
 8523      6C00
 8524              	.LASF253:
 8525 0429 54726967 		.ascii	"TriggeredMode\000"
 8525      67657265 
 8525      644D6F64 
 8525      6500
 8526              	.LASF148:
 8527 0437 52455345 		.ascii	"RESERVED2\000"
 8527      52564544 
 8527      3200
 8528              	.LASF369:
 8529 0441 76636F6D 		.ascii	"vcom_IoInit\000"
 8529      5F496F49 
 8529      6E697400 
 8530              	.LASF269:
 8531 044d 53616D70 		.ascii	"SamplingTime\000"
 8531      6C696E67 
 8531      54696D65 
 8531      00
 8532              	.LASF381:
 8533 045a 48414C5F 		.ascii	"HAL_GPIO_Init\000"
 8533      4750494F 
 8533      5F496E69 
 8533      7400
 8534              	.LASF26:
 8535 0468 63686172 		.ascii	"char\000"
 8535      00
 8536              	.LASF289:
 8537 046d 5F747A6E 		.ascii	"_tzname\000"
 8537      616D6500 
 8538              	.LASF399:
 8539 0475 6D656D73 		.ascii	"memset\000"
 8539      657400
 8540              	.LASF50:
 8541 047c 5F666E73 		.ascii	"_fns\000"
 8541      00
 8542              	.LASF62:
 8543 0481 5F636C6F 		.ascii	"_close\000"
 8543      736500
 8544              	.LASF9:
 8545 0488 5F5F7569 		.ascii	"__uint16_t\000"
 8545      6E743136 
 8545      5F7400
 8546              	.LASF392:
ARM GAS  C:\Users\EBANO_~1\AppData\Local\Temp\ccsZgiNd.s 			page 175


 8547 0493 443A5C67 		.ascii	"D:\\git_pessoal\\keil_gcc\\STM32CubeExpansion_LRWAN"
 8547      69745F70 
 8547      6573736F 
 8547      616C5C6B 
 8547      65696C5F 
 8548 04c3 5F56312E 		.ascii	"_V1.2.1\\Projects\\B-L072Z-LRWAN1\\Applications\\Lo"
 8548      322E315C 
 8548      50726F6A 
 8548      65637473 
 8548      5C422D4C 
 8549 04f2 52615C45 		.ascii	"Ra\\End_Node\\MDK-ARM\000"
 8549      6E645F4E 
 8549      6F64655C 
 8549      4D444B2D 
 8549      41524D00 
 8550              	.LASF73:
 8551 0506 5F737464 		.ascii	"_stdin\000"
 8551      696E00
 8552              	.LASF338:
 8553 050d 4D637549 		.ascii	"McuInitialized\000"
 8553      6E697469 
 8553      616C697A 
 8553      656400
 8554              	.LASF236:
 8555 051c 48414C5F 		.ascii	"HAL_DMA_STATE_ERROR\000"
 8555      444D415F 
 8555      53544154 
 8555      455F4552 
 8555      524F5200 
 8556              	.LASF329:
 8557 0530 5365744D 		.ascii	"SetMaxPayloadLength\000"
 8557      61785061 
 8557      796C6F61 
 8557      644C656E 
 8557      67746800 
 8558              	.LASF315:
 8559 0544 53657452 		.ascii	"SetRxConfig\000"
 8559      78436F6E 
 8559      66696700 
 8560              	.LASF307:
 8561 0550 52616469 		.ascii	"Radio_s\000"
 8561      6F5F7300 
 8562              	.LASF355:
 8563 0558 48575F47 		.ascii	"HW_GpioInit\000"
 8563      70696F49 
 8563      6E697400 
 8564              	.LASF287:
 8565 0564 5F74696D 		.ascii	"_timezone\000"
 8565      657A6F6E 
 8565      6500
 8566              	.LASF227:
 8567 056e 4D656D49 		.ascii	"MemInc\000"
 8567      6E6300
 8568              	.LASF261:
 8569 0575 4C6F7750 		.ascii	"LowPowerAutoPowerOff\000"
 8569      6F776572 
 8569      4175746F 
ARM GAS  C:\Users\EBANO_~1\AppData\Local\Temp\ccsZgiNd.s 			page 176


 8569      506F7765 
 8569      724F6666 
 8570              	.LASF226:
 8571 058a 50657269 		.ascii	"PeriphInc\000"
 8571      7068496E 
 8571      6300
 8572              	.LASF380:
 8573 0594 4572726F 		.ascii	"Error_Handler\000"
 8573      725F4861 
 8573      6E646C65 
 8573      7200
 8574              	.LASF248:
 8575 05a2 58666572 		.ascii	"XferAbortCallback\000"
 8575      41626F72 
 8575      7443616C 
 8575      6C626163 
 8575      6B00
 8576              	.LASF205:
 8577 05b4 48534953 		.ascii	"HSIState\000"
 8577      74617465 
 8577      00
 8578              	.LASF300:
 8579 05bd 5278446F 		.ascii	"RxDone\000"
 8579      6E6500
 8580              	.LASF228:
 8581 05c4 50657269 		.ascii	"PeriphDataAlignment\000"
 8581      70684461 
 8581      7461416C 
 8581      69676E6D 
 8581      656E7400 
 8582              	.LASF154:
 8583 05d8 4144435F 		.ascii	"ADC_TypeDef\000"
 8583      54797065 
 8583      44656600 
 8584              	.LASF361:
 8585 05e4 48575F49 		.ascii	"HW_IoDeInit\000"
 8585      6F446549 
 8585      6E697400 
 8586              	.LASF58:
 8587 05f0 5F636F6F 		.ascii	"_cookie\000"
 8587      6B696500 
 8588              	.LASF31:
 8589 05f8 5F776473 		.ascii	"_wds\000"
 8589      00
 8590              	.LASF168:
 8591 05fd 43525243 		.ascii	"CRRCR\000"
 8591      5200
 8592              	.LASF123:
 8593 0603 5F5F6C6F 		.ascii	"__lock\000"
 8593      636B00
 8594              	.LASF388:
 8595 060a 4253505F 		.ascii	"BSP_sensor_Init\000"
 8595      73656E73 
 8595      6F725F49 
 8595      6E697400 
 8596              	.LASF90:
 8597 061a 5F736967 		.ascii	"_sig_func\000"
ARM GAS  C:\Users\EBANO_~1\AppData\Local\Temp\ccsZgiNd.s 			page 177


 8597      5F66756E 
 8597      6300
 8598              	.LASF296:
 8599 0624 52465F43 		.ascii	"RF_CAD\000"
 8599      414400
 8600              	.LASF169:
 8601 062b 43464752 		.ascii	"CFGR\000"
 8601      00
 8602              	.LASF239:
 8603 0630 5F5F444D 		.ascii	"__DMA_HandleTypeDef\000"
 8603      415F4861 
 8603      6E646C65 
 8603      54797065 
 8603      44656600 
 8604              	.LASF66:
 8605 0644 5F6F6666 		.ascii	"_offset\000"
 8605      73657400 
 8606              	.LASF310:
 8607 064c 47657453 		.ascii	"GetStatus\000"
 8607      74617475 
 8607      7300
 8608              	.LASF143:
 8609 0656 504C4C4D 		.ascii	"PLLMulTable\000"
 8609      756C5461 
 8609      626C6500 
 8610              	.LASF87:
 8611 0662 5F637674 		.ascii	"_cvtbuf\000"
 8611      62756600 
 8612              	.LASF240:
 8613 066a 496E7374 		.ascii	"Instance\000"
 8613      616E6365 
 8613      00
 8614              	.LASF254:
 8615 0673 4144435F 		.ascii	"ADC_OversamplingTypeDef\000"
 8615      4F766572 
 8615      73616D70 
 8615      6C696E67 
 8615      54797065 
 8616              	.LASF389:
 8617 068b 4253505F 		.ascii	"BSP_LED_Init\000"
 8617      4C45445F 
 8617      496E6974 
 8617      00
 8618              	.LASF327:
 8619 0698 57726974 		.ascii	"WriteBuffer\000"
 8619      65427566 
 8619      66657200 
 8620              	.LASF339:
 8621 06a4 4C504D5F 		.ascii	"LPM_EnterSleepMode\000"
 8621      456E7465 
 8621      72536C65 
 8621      65704D6F 
 8621      646500
 8622              	.LASF215:
 8623 06b7 41484243 		.ascii	"AHBCLKDivider\000"
 8623      4C4B4469 
 8623      76696465 
ARM GAS  C:\Users\EBANO_~1\AppData\Local\Temp\ccsZgiNd.s 			page 178


 8623      7200
 8624              	.LASF308:
 8625 06c5 496F496E 		.ascii	"IoInit\000"
 8625      697400
 8626              	.LASF198:
 8627 06cc 504C4C53 		.ascii	"PLLSource\000"
 8627      6F757263 
 8627      6500
 8628              	.LASF263:
 8629 06d6 44697363 		.ascii	"DiscontinuousConvMode\000"
 8629      6F6E7469 
 8629      6E756F75 
 8629      73436F6E 
 8629      764D6F64 
 8630              	.LASF185:
 8631 06ec 43434950 		.ascii	"CCIPR\000"
 8631      5200
 8632              	.LASF133:
 8633 06f2 5F5F6664 		.ascii	"__fdlib_version\000"
 8633      6C69625F 
 8633      76657273 
 8633      696F6E00 
 8634              	.LASF84:
 8635 0702 5F703573 		.ascii	"_p5s\000"
 8635      00
 8636              	.LASF14:
 8637 0707 6C6F6E67 		.ascii	"long unsigned int\000"
 8637      20756E73 
 8637      69676E65 
 8637      6420696E 
 8637      7400
 8638              	.LASF212:
 8639 0719 5243435F 		.ascii	"RCC_OscInitTypeDef\000"
 8639      4F736349 
 8639      6E697454 
 8639      79706544 
 8639      656600
 8640              	.LASF311:
 8641 072c 5365744D 		.ascii	"SetModem\000"
 8641      6F64656D 
 8641      00
 8642              	.LASF303:
 8643 0735 46687373 		.ascii	"FhssChangeChannel\000"
 8643      4368616E 
 8643      67654368 
 8643      616E6E65 
 8643      6C00
 8644              	.LASF359:
 8645 0747 48575F44 		.ascii	"HW_DeInit\000"
 8645      65496E69 
 8645      7400
 8646              	.LASF54:
 8647 0751 5F5F7346 		.ascii	"__sFILE\000"
 8647      494C4500 
 8648              	.LASF80:
 8649 0759 5F5F7364 		.ascii	"__sdidinit\000"
 8649      6964696E 
ARM GAS  C:\Users\EBANO_~1\AppData\Local\Temp\ccsZgiNd.s 			page 179


 8649      697400
 8650              	.LASF70:
 8651 0764 5F666C61 		.ascii	"_flags2\000"
 8651      67733200 
 8652              	.LASF140:
 8653 076c 53797374 		.ascii	"SystemCoreClock\000"
 8653      656D436F 
 8653      7265436C 
 8653      6F636B00 
 8654              	.LASF208:
 8655 077c 48534934 		.ascii	"HSI48State\000"
 8655      38537461 
 8655      746500
 8656              	.LASF196:
 8657 0787 48414C5F 		.ascii	"HAL_LockTypeDef\000"
 8657      4C6F636B 
 8657      54797065 
 8657      44656600 
 8658              	.LASF72:
 8659 0797 5F657272 		.ascii	"_errno\000"
 8659      6E6F00
 8660              	.LASF112:
 8661 079e 5F736967 		.ascii	"_signal_buf\000"
 8661      6E616C5F 
 8661      62756600 
 8662              	.LASF164:
 8663 07aa 4C434B52 		.ascii	"LCKR\000"
 8663      00
 8664              	.LASF322:
 8665 07af 53746172 		.ascii	"StartCad\000"
 8665      74436164 
 8665      00
 8666              	.LASF362:
 8667 07b8 5F5F7365 		.ascii	"__set_PRIMASK\000"
 8667      745F5052 
 8667      494D4153 
 8667      4B00
 8668              	.LASF363:
 8669 07c6 7072694D 		.ascii	"priMask\000"
 8669      61736B00 
 8670              	.LASF276:
 8671 07ce 444D415F 		.ascii	"DMA_Handle\000"
 8671      48616E64 
 8671      6C6500
 8672              	.LASF32:
 8673 07d9 5F426967 		.ascii	"_Bigint\000"
 8673      696E7400 
 8674              	.LASF29:
 8675 07e1 5F6D6178 		.ascii	"_maxwds\000"
 8675      77647300 
 8676              	.LASF366:
 8677 07e9 5F5F6469 		.ascii	"__disable_irq\000"
 8677      7361626C 
 8677      655F6972 
 8677      7100
 8678              	.LASF174:
 8679 07f7 41484252 		.ascii	"AHBRSTR\000"
ARM GAS  C:\Users\EBANO_~1\AppData\Local\Temp\ccsZgiNd.s 			page 180


 8679      53545200 
 8680              	.LASF336:
 8681 07ff 68616463 		.ascii	"hadc\000"
 8681      00
 8682              	.LASF81:
 8683 0804 5F5F636C 		.ascii	"__cleanup\000"
 8683      65616E75 
 8683      7000
 8684              	.LASF89:
 8685 080e 5F617465 		.ascii	"_atexit0\000"
 8685      78697430 
 8685      00
 8686              	.LASF280:
 8687 0817 4C45445F 		.ascii	"LED_GREEN\000"
 8687      47524545 
 8687      4E00
 8688              	.LASF391:
 8689 0821 2E2E2F43 		.ascii	"../Core/src/mlm32l0xx_hw.c\000"
 8689      6F72652F 
 8689      7372632F 
 8689      6D6C6D33 
 8689      326C3078 
 8690              	.LASF324:
 8691 083c 52737369 		.ascii	"Rssi\000"
 8691      00
 8692              	.LASF229:
 8693 0841 4D656D44 		.ascii	"MemDataAlignment\000"
 8693      61746141 
 8693      6C69676E 
 8693      6D656E74 
 8693      00
 8694              	.LASF130:
 8695 0852 5F5F6664 		.ascii	"__fdlibm_svid\000"
 8695      6C69626D 
 8695      5F737669 
 8695      6400
 8696              	.LASF13:
 8697 0860 5F5F7569 		.ascii	"__uint32_t\000"
 8697      6E743332 
 8697      5F7400
 8698              	.LASF77:
 8699 086b 5F656D65 		.ascii	"_emergency\000"
 8699      7267656E 
 8699      637900
 8700              	.LASF1:
 8701 0876 6C6F6E67 		.ascii	"long long int\000"
 8701      206C6F6E 
 8701      6720696E 
 8701      7400
 8702              	.LASF162:
 8703 0884 50555044 		.ascii	"PUPDR\000"
 8703      5200
 8704              	.LASF95:
 8705 088a 5F6E696F 		.ascii	"_niobs\000"
 8705      627300
 8706              	.LASF385:
 8707 0891 48575F53 		.ascii	"HW_SPI_Init\000"
ARM GAS  C:\Users\EBANO_~1\AppData\Local\Temp\ccsZgiNd.s 			page 181


 8707      50495F49 
 8707      6E697400 
 8708              	.LASF91:
 8709 089d 5F5F7367 		.ascii	"__sglue\000"
 8709      6C756500 
 8710              	.LASF121:
 8711 08a5 5F6E6D61 		.ascii	"_nmalloc\000"
 8711      6C6C6F63 
 8711      00
 8712              	.LASF128:
 8713 08ae 646F7562 		.ascii	"double\000"
 8713      6C6500
 8714              	.LASF105:
 8715 08b5 5F67616D 		.ascii	"_gamma_signgam\000"
 8715      6D615F73 
 8715      69676E67 
 8715      616D00
 8716              	.LASF175:
 8717 08c4 41504232 		.ascii	"APB2RSTR\000"
 8717      52535452 
 8717      00
 8718              	.LASF323:
 8719 08cd 53657454 		.ascii	"SetTxContinuousWave\000"
 8719      78436F6E 
 8719      74696E75 
 8719      6F757357 
 8719      61766500 
 8720              	.LASF328:
 8721 08e1 52656164 		.ascii	"ReadBuffer\000"
 8721      42756666 
 8721      657200
 8722              	.LASF85:
 8723 08ec 5F667265 		.ascii	"_freelist\000"
 8723      656C6973 
 8723      7400
 8724              	.LASF96:
 8725 08f6 5F696F62 		.ascii	"_iobs\000"
 8725      7300
 8726              	.LASF262:
 8727 08fc 436F6E74 		.ascii	"ContinuousConvMode\000"
 8727      696E756F 
 8727      7573436F 
 8727      6E764D6F 
 8727      646500
 8728              	.LASF94:
 8729 090f 5F676C75 		.ascii	"_glue\000"
 8729      6500
 8730              	.LASF30:
 8731 0915 5F736967 		.ascii	"_sign\000"
 8731      6E00
 8732              	.LASF127:
 8733 091b 666C6F61 		.ascii	"float\000"
 8733      7400
 8734              	.LASF222:
 8735 0921 416C7465 		.ascii	"Alternate\000"
 8735      726E6174 
 8735      6500
ARM GAS  C:\Users\EBANO_~1\AppData\Local\Temp\ccsZgiNd.s 			page 182


 8736              	.LASF210:
 8737 092b 4D534943 		.ascii	"MSICalibrationValue\000"
 8737      616C6962 
 8737      72617469 
 8737      6F6E5661 
 8737      6C756500 
 8738              	.LASF352:
 8739 093f 53797374 		.ascii	"SystemClock_Config\000"
 8739      656D436C 
 8739      6F636B5F 
 8739      436F6E66 
 8739      696700
 8740              	.LASF159:
 8741 0952 4D4F4445 		.ascii	"MODER\000"
 8741      5200
 8742              	.LASF235:
 8743 0958 48414C5F 		.ascii	"HAL_DMA_STATE_TIMEOUT\000"
 8743      444D415F 
 8743      53544154 
 8743      455F5449 
 8743      4D454F55 
 8744              	.LASF0:
 8745 096e 756E7369 		.ascii	"unsigned int\000"
 8745      676E6564 
 8745      20696E74 
 8745      00
 8746              	.LASF203:
 8747 097b 48534553 		.ascii	"HSEState\000"
 8747      74617465 
 8747      00
 8748              	.LASF344:
 8749 0984 61646344 		.ascii	"adcData\000"
 8749      61746100 
 8750              	.LASF292:
 8751 098c 52616469 		.ascii	"RadioModems_t\000"
 8751      6F4D6F64 
 8751      656D735F 
 8751      7400
 8752              	.LASF268:
 8753 099a 4C6F7750 		.ascii	"LowPowerFrequencyMode\000"
 8753      6F776572 
 8753      46726571 
 8753      75656E63 
 8753      794D6F64 
 8754              	.LASF256:
 8755 09b0 5265736F 		.ascii	"Resolution\000"
 8755      6C757469 
 8755      6F6E00
 8756              	.LASF119:
 8757 09bb 5F685F65 		.ascii	"_h_errno\000"
 8757      72726E6F 
 8757      00
 8758              	.LASF145:
 8759 09c4 43464752 		.ascii	"CFGR2\000"
 8759      3200
 8760              	.LASF333:
 8761 09ca 5278426F 		.ascii	"RxBoosted\000"
ARM GAS  C:\Users\EBANO_~1\AppData\Local\Temp\ccsZgiNd.s 			page 183


 8761      6F737465 
 8761      6400
 8762              	.LASF306:
 8763 09d4 52616469 		.ascii	"RadioEvents_t\000"
 8763      6F457665 
 8763      6E74735F 
 8763      7400
 8764              	.LASF353:
 8765 09e2 5243435F 		.ascii	"RCC_ClkInitStruct\000"
 8765      436C6B49 
 8765      6E697453 
 8765      74727563 
 8765      7400
 8766              	.LASF117:
 8767 09f4 5F776372 		.ascii	"_wcrtomb_state\000"
 8767      746F6D62 
 8767      5F737461 
 8767      746500
 8768              	.LASF298:
 8769 0a03 5478446F 		.ascii	"TxDone\000"
 8769      6E6500
 8770              	.LASF37:
 8771 0a0a 5F5F746D 		.ascii	"__tm_mday\000"
 8771      5F6D6461 
 8771      7900
 8772              	.LASF348:
 8773 0a14 48575F47 		.ascii	"HW_GetBatteryLevel\000"
 8773      65744261 
 8773      74746572 
 8773      794C6576 
 8773      656C00
 8774              	.LASF88:
 8775 0a27 5F6E6577 		.ascii	"_new\000"
 8775      00
 8776              	.LASF63:
 8777 0a2c 5F756275 		.ascii	"_ubuf\000"
 8777      6600
 8778              	.LASF157:
 8779 0a32 434D4152 		.ascii	"CMAR\000"
 8779      00
 8780              	.LASF75:
 8781 0a37 5F737464 		.ascii	"_stderr\000"
 8781      65727200 
 8782              	.LASF110:
 8783 0a3f 5F776374 		.ascii	"_wctomb_state\000"
 8783      6F6D625F 
 8783      73746174 
 8783      6500
 8784              	.LASF69:
 8785 0a4d 5F6D6273 		.ascii	"_mbstate\000"
 8785      74617465 
 8785      00
 8786              	.LASF232:
 8787 0a56 48414C5F 		.ascii	"HAL_DMA_STATE_RESET\000"
 8787      444D415F 
 8787      53544154 
 8787      455F5245 
ARM GAS  C:\Users\EBANO_~1\AppData\Local\Temp\ccsZgiNd.s 			page 184


 8787      53455400 
 8788              	.LASF351:
 8789 0a6a 48575F47 		.ascii	"HW_GetUniqueId\000"
 8789      6574556E 
 8789      69717565 
 8789      496400
 8790              	.LASF106:
 8791 0a79 5F72616E 		.ascii	"_rand_next\000"
 8791      645F6E65 
 8791      787400
 8792              	.LASF55:
 8793 0a84 5F666C61 		.ascii	"_flags\000"
 8793      677300
 8794              	.LASF244:
 8795 0a8b 50617265 		.ascii	"Parent\000"
 8795      6E7400
 8796              	.LASF241:
 8797 0a92 496E6974 		.ascii	"Init\000"
 8797      00
 8798              	.LASF266:
 8799 0a97 444D4143 		.ascii	"DMAContinuousRequests\000"
 8799      6F6E7469 
 8799      6E756F75 
 8799      73526571 
 8799      75657374 
 8800              	.LASF279:
 8801 0aad 4C454431 		.ascii	"LED1\000"
 8801      00
 8802              	.LASF281:
 8803 0ab2 4C454432 		.ascii	"LED2\000"
 8803      00
 8804              	.LASF48:
 8805 0ab7 5F617465 		.ascii	"_atexit\000"
 8805      78697400 
 8806              	.LASF285:
 8807 0abf 4C454434 		.ascii	"LED4\000"
 8807      00
 8808              	.LASF332:
 8809 0ac4 49727150 		.ascii	"IrqProcess\000"
 8809      726F6365 
 8809      737300
 8810              	.LASF271:
 8811 0acf 4F766572 		.ascii	"Oversample\000"
 8811      73616D70 
 8811      6C6500
 8812              	.LASF144:
 8813 0ada 43464752 		.ascii	"CFGR1\000"
 8813      3100
 8814              	.LASF337:
 8815 0ae0 41646349 		.ascii	"AdcInitialized\000"
 8815      6E697469 
 8815      616C697A 
 8815      656400
 8816              	.LASF22:
 8817 0aef 5F5F636F 		.ascii	"__count\000"
 8817      756E7400 
 8818              	.LASF334:
ARM GAS  C:\Users\EBANO_~1\AppData\Local\Temp\ccsZgiNd.s 			page 185


 8819 0af7 53657452 		.ascii	"SetRxDutyCycle\000"
 8819      78447574 
 8819      79437963 
 8819      6C6500
 8820              	.LASF340:
 8821 0b06 4C504D5F 		.ascii	"LPM_ExitStopMode\000"
 8821      45786974 
 8821      53746F70 
 8821      4D6F6465 
 8821      00
 8822              	.LASF40:
 8823 0b17 5F5F746D 		.ascii	"__tm_wday\000"
 8823      5F776461 
 8823      7900
 8824              	.LASF188:
 8825 0b21 44495341 		.ascii	"DISABLE\000"
 8825      424C4500 
 8826              	.LASF247:
 8827 0b29 58666572 		.ascii	"XferErrorCallback\000"
 8827      4572726F 
 8827      7243616C 
 8827      6C626163 
 8827      6B00
 8828              	.LASF2:
 8829 0b3b 6C6F6E67 		.ascii	"long double\000"
 8829      20646F75 
 8829      626C6500 
 8830              	.LASF41:
 8831 0b47 5F5F746D 		.ascii	"__tm_yday\000"
 8831      5F796461 
 8831      7900
 8832              	.LASF220:
 8833 0b51 50756C6C 		.ascii	"Pull\000"
 8833      00
 8834              	.LASF387:
 8835 0b56 54726163 		.ascii	"TraceInit\000"
 8835      65496E69 
 8835      7400
 8836              	.LASF295:
 8837 0b60 52465F54 		.ascii	"RF_TX_RUNNING\000"
 8837      585F5255 
 8837      4E4E494E 
 8837      4700
 8838              	.LASF219:
 8839 0b6e 4D6F6465 		.ascii	"Mode\000"
 8839      00
 8840              	.LASF98:
 8841 0b73 5F736565 		.ascii	"_seed\000"
 8841      6400
 8842              	.LASF299:
 8843 0b79 54785469 		.ascii	"TxTimeout\000"
 8843      6D656F75 
 8843      7400
 8844              	.LASF61:
 8845 0b83 5F736565 		.ascii	"_seek\000"
 8845      6B00
 8846              	.LASF18:
ARM GAS  C:\Users\EBANO_~1\AppData\Local\Temp\ccsZgiNd.s 			page 186


 8847 0b89 5F66706F 		.ascii	"_fpos_t\000"
 8847      735F7400 
 8848              	.LASF192:
 8849 0b91 48414C5F 		.ascii	"HAL_BUSY\000"
 8849      42555359 
 8849      00
 8850              	.LASF21:
 8851 0b9a 5F5F7763 		.ascii	"__wchb\000"
 8851      686200
 8852              	.LASF158:
 8853 0ba1 444D415F 		.ascii	"DMA_Channel_TypeDef\000"
 8853      4368616E 
 8853      6E656C5F 
 8853      54797065 
 8853      44656600 
 8854              	.LASF141:
 8855 0bb5 41484250 		.ascii	"AHBPrescTable\000"
 8855      72657363 
 8855      5461626C 
 8855      6500
 8856              	.LASF180:
 8857 0bc3 41504231 		.ascii	"APB1ENR\000"
 8857      454E5200 
 8858              	.LASF291:
 8859 0bcb 4D4F4445 		.ascii	"MODEM_LORA\000"
 8859      4D5F4C4F 
 8859      524100
 8860              	.LASF109:
 8861 0bd6 5F6D6274 		.ascii	"_mbtowc_state\000"
 8861      6F77635F 
 8861      73746174 
 8861      6500
 8862              	.LASF394:
 8863 0be4 48575F41 		.ascii	"HW_AdcReadChannel\000"
 8863      64635265 
 8863      61644368 
 8863      616E6E65 
 8863      6C00
 8864              	.LASF4:
 8865 0bf6 5F5F696E 		.ascii	"__int8_t\000"
 8865      74385F74 
 8865      00
 8866              	.LASF343:
 8867 0bff 61646343 		.ascii	"adcConf\000"
 8867      6F6E6600 
 8868              	.LASF15:
 8869 0c07 6C6F6E67 		.ascii	"long long unsigned int\000"
 8869      206C6F6E 
 8869      6720756E 
 8869      7369676E 
 8869      65642069 
 8870              	.LASF224:
 8871 0c1e 52657175 		.ascii	"Request\000"
 8871      65737400 
 8872              	.LASF238:
 8873 0c26 48414C5F 		.ascii	"HAL_DMA_StateTypeDef\000"
 8873      444D415F 
ARM GAS  C:\Users\EBANO_~1\AppData\Local\Temp\ccsZgiNd.s 			page 187


 8873      53746174 
 8873      65547970 
 8873      65446566 
 8874              	.LASF325:
 8875 0c3b 57726974 		.ascii	"Write\000"
 8875      6500
 8876              	.LASF137:
 8877 0c41 75696E74 		.ascii	"uint16_t\000"
 8877      31365F74 
 8877      00
 8878              	.LASF45:
 8879 0c4a 5F64736F 		.ascii	"_dso_handle\000"
 8879      5F68616E 
 8879      646C6500 
 8880              	.LASF97:
 8881 0c56 5F72616E 		.ascii	"_rand48\000"
 8881      64343800 
 8882              	.LASF191:
 8883 0c5e 48414C5F 		.ascii	"HAL_ERROR\000"
 8883      4552524F 
 8883      5200
 8884              	.LASF74:
 8885 0c68 5F737464 		.ascii	"_stdout\000"
 8885      6F757400 
 8886              	.LASF374:
 8887 0c70 48414C5F 		.ascii	"HAL_ADC_ConfigChannel\000"
 8887      4144435F 
 8887      436F6E66 
 8887      69674368 
 8887      616E6E65 
 8888              	.LASF243:
 8889 0c86 53746174 		.ascii	"State\000"
 8889      6500
 8890              	.LASF201:
 8891 0c8c 5243435F 		.ascii	"RCC_PLLInitTypeDef\000"
 8891      504C4C49 
 8891      6E697454 
 8891      79706544 
 8891      656600
 8892              	.LASF393:
 8893 0c9f 5F5F6664 		.ascii	"__fdlibm_version\000"
 8893      6C69626D 
 8893      5F766572 
 8893      73696F6E 
 8893      00
 8894              	.LASF194:
 8895 0cb0 48414C5F 		.ascii	"HAL_UNLOCKED\000"
 8895      554E4C4F 
 8895      434B4544 
 8895      00
 8896              	.LASF250:
 8897 0cbd 444D415F 		.ascii	"DMA_HandleTypeDef\000"
 8897      48616E64 
 8897      6C655479 
 8897      70654465 
 8897      6600
 8898              	.LASF65:
ARM GAS  C:\Users\EBANO_~1\AppData\Local\Temp\ccsZgiNd.s 			page 188


 8899 0ccf 5F626C6B 		.ascii	"_blksize\000"
 8899      73697A65 
 8899      00
 8900              	.LASF245:
 8901 0cd8 58666572 		.ascii	"XferCpltCallback\000"
 8901      43706C74 
 8901      43616C6C 
 8901      6261636B 
 8901      00
 8902              	.LASF365:
 8903 0ce9 48575F49 		.ascii	"HW_IoInit\000"
 8903      6F496E69 
 8903      7400
 8904              	.LASF225:
 8905 0cf3 44697265 		.ascii	"Direction\000"
 8905      6374696F 
 8905      6E00
 8906              	.LASF52:
 8907 0cfd 5F626173 		.ascii	"_base\000"
 8907      6500
 8908              	.LASF398:
 8909 0d03 5F5F6765 		.ascii	"__get_PRIMASK\000"
 8909      745F5052 
 8909      494D4153 
 8909      4B00
 8910              	.LASF177:
 8911 0d11 494F5045 		.ascii	"IOPENR\000"
 8911      4E5200
 8912              	.LASF270:
 8913 0d18 4F766572 		.ascii	"OversamplingMode\000"
 8913      73616D70 
 8913      6C696E67 
 8913      4D6F6465 
 8913      00
 8914              	.LASF102:
 8915 0d29 5F737472 		.ascii	"_strtok_last\000"
 8915      746F6B5F 
 8915      6C617374 
 8915      00
 8916              	.LASF386:
 8917 0d36 48575F52 		.ascii	"HW_RTC_Init\000"
 8917      54435F49 
 8917      6E697400 
 8918              	.LASF115:
 8919 0d42 5F6D6272 		.ascii	"_mbrtowc_state\000"
 8919      746F7763 
 8919      5F737461 
 8919      746500
 8920              	.LASF25:
 8921 0d51 5F666C6F 		.ascii	"_flock_t\000"
 8921      636B5F74 
 8921      00
 8922              	.LASF251:
 8923 0d5a 52617469 		.ascii	"Ratio\000"
 8923      6F00
 8924              	.LASF93:
 8925 0d60 5F5F4649 		.ascii	"__FILE\000"
ARM GAS  C:\Users\EBANO_~1\AppData\Local\Temp\ccsZgiNd.s 			page 189


 8925      4C4500
 8926              	.LASF7:
 8927 0d67 5F5F696E 		.ascii	"__int16_t\000"
 8927      7431365F 
 8927      7400
 8928              	.LASF187:
 8929 0d71 52455345 		.ascii	"RESET\000"
 8929      5400
 8930              	.LASF24:
 8931 0d77 5F6D6273 		.ascii	"_mbstate_t\000"
 8931      74617465 
 8931      5F7400
 8932              	.LASF107:
 8933 0d82 5F723438 		.ascii	"_r48\000"
 8933      00
 8934              	.LASF267:
 8935 0d87 4F766572 		.ascii	"Overrun\000"
 8935      72756E00 
 8936              	.LASF19:
 8937 0d8f 77696E74 		.ascii	"wint_t\000"
 8937      5F7400
 8938              	.LASF160:
 8939 0d96 4F545950 		.ascii	"OTYPER\000"
 8939      455200
 8940              	.LASF28:
 8941 0d9d 5F6E6578 		.ascii	"_next\000"
 8941      7400
 8942              	.LASF206:
 8943 0da3 48534943 		.ascii	"HSICalibrationValue\000"
 8943      616C6962 
 8943      72617469 
 8943      6F6E5661 
 8943      6C756500 
 8944              	.LASF357:
 8945 0db7 746D7072 		.ascii	"tmpreg\000"
 8945      656700
 8946              	.LASF67:
 8947 0dbe 5F646174 		.ascii	"_data\000"
 8947      6100
 8948              	.LASF264:
 8949 0dc4 45787465 		.ascii	"ExternalTrigConv\000"
 8949      726E616C 
 8949      54726967 
 8949      436F6E76 
 8949      00
 8950              	.LASF200:
 8951 0dd5 504C4C44 		.ascii	"PLLDIV\000"
 8951      495600
 8952              	.LASF349:
 8953 0ddc 48575F47 		.ascii	"HW_GetTemperatureLevel\000"
 8953      65745465 
 8953      6D706572 
 8953      61747572 
 8953      654C6576 
 8954              	.LASF234:
 8955 0df3 48414C5F 		.ascii	"HAL_DMA_STATE_BUSY\000"
 8955      444D415F 
ARM GAS  C:\Users\EBANO_~1\AppData\Local\Temp\ccsZgiNd.s 			page 190


 8955      53544154 
 8955      455F4255 
 8955      535900
 8956              	.LASF259:
 8957 0e06 454F4353 		.ascii	"EOCSelection\000"
 8957      656C6563 
 8957      74696F6E 
 8957      00
 8958              	.LASF318:
 8959 0e13 54696D65 		.ascii	"TimeOnAir\000"
 8959      4F6E4169 
 8959      7200
 8960              	.LASF330:
 8961 0e1d 53657450 		.ascii	"SetPublicNetwork\000"
 8961      75626C69 
 8961      634E6574 
 8961      776F726B 
 8961      00
 8962              	.LASF231:
 8963 0e2e 444D415F 		.ascii	"DMA_InitTypeDef\000"
 8963      496E6974 
 8963      54797065 
 8963      44656600 
 8964              	.LASF277:
 8965 0e3e 4144435F 		.ascii	"ADC_HandleTypeDef\000"
 8965      48616E64 
 8965      6C655479 
 8965      70654465 
 8965      6600
 8966              	.LASF132:
 8967 0e50 5F5F6664 		.ascii	"__fdlibm_posix\000"
 8967      6C69626D 
 8967      5F706F73 
 8967      697800
 8968              	.LASF354:
 8969 0e5f 5243435F 		.ascii	"RCC_OscInitStruct\000"
 8969      4F736349 
 8969      6E697453 
 8969      74727563 
 8969      7400
 8970              	.LASF142:
 8971 0e71 41504250 		.ascii	"APBPrescTable\000"
 8971      72657363 
 8971      5461626C 
 8971      6500
 8972              	.LASF293:
 8973 0e7f 52465F49 		.ascii	"RF_IDLE\000"
 8973      444C4500 
 8974              	.LASF186:
 8975 0e87 5243435F 		.ascii	"RCC_TypeDef\000"
 8975      54797065 
 8975      44656600 
 8976              	.LASF108:
 8977 0e93 5F6D626C 		.ascii	"_mblen_state\000"
 8977      656E5F73 
 8977      74617465 
 8977      00
ARM GAS  C:\Users\EBANO_~1\AppData\Local\Temp\ccsZgiNd.s 			page 191


 8978              	.LASF272:
 8979 0ea0 4144435F 		.ascii	"ADC_InitTypeDef\000"
 8979      496E6974 
 8979      54797065 
 8979      44656600 
 8980              	.LASF153:
 8981 0eb0 43414C46 		.ascii	"CALFACT\000"
 8981      41435400 
 8982              	.LASF8:
 8983 0eb8 73686F72 		.ascii	"short int\000"
 8983      7420696E 
 8983      7400
 8984              	.LASF376:
 8985 0ec2 48414C5F 		.ascii	"HAL_ADC_PollForConversion\000"
 8985      4144435F 
 8985      506F6C6C 
 8985      466F7243 
 8985      6F6E7665 
 8986              	.LASF312:
 8987 0edc 53657443 		.ascii	"SetChannel\000"
 8987      68616E6E 
 8987      656C00
 8988              	.LASF384:
 8989 0ee7 48414C5F 		.ascii	"HAL_ADC_Init\000"
 8989      4144435F 
 8989      496E6974 
 8989      00
 8990              	.LASF131:
 8991 0ef4 5F5F6664 		.ascii	"__fdlibm_xopen\000"
 8991      6C69626D 
 8991      5F786F70 
 8991      656E00
 8992              	.LASF390:
 8993 0f03 474E5520 		.ascii	"GNU C11 7.3.1 20180622 (release) [ARM/embedded-7-br"
 8993      43313120 
 8993      372E332E 
 8993      31203230 
 8993      31383036 
 8994 0f36 616E6368 		.ascii	"anch revision 261907] -mcpu=cortex-m0plus -mthumb -"
 8994      20726576 
 8994      6973696F 
 8994      6E203236 
 8994      31393037 
 8995 0f69 6D666C6F 		.ascii	"mfloat-abi=soft -gdwarf-2 -O3 -ffunction-sections\000"
 8995      61742D61 
 8995      62693D73 
 8995      6F667420 
 8995      2D676477 
 8996              	.LASF136:
 8997 0f9b 696E7431 		.ascii	"int16_t\000"
 8997      365F7400 
 8998              	.LASF278:
 8999 0fa3 7375626F 		.ascii	"suboptarg\000"
 8999      70746172 
 8999      6700
 9000              	.LASF46:
 9001 0fad 5F666E74 		.ascii	"_fntypes\000"
ARM GAS  C:\Users\EBANO_~1\AppData\Local\Temp\ccsZgiNd.s 			page 192


 9001      79706573 
 9001      00
 9002              	.LASF213:
 9003 0fb6 436C6F63 		.ascii	"ClockType\000"
 9003      6B547970 
 9003      6500
 9004              	.LASF189:
 9005 0fc0 454E4142 		.ascii	"ENABLE\000"
 9005      4C4500
 9006              	.LASF39:
 9007 0fc7 5F5F746D 		.ascii	"__tm_year\000"
 9007      5F796561 
 9007      7200
 9008              	.LASF178:
 9009 0fd1 41484245 		.ascii	"AHBENR\000"
 9009      4E5200
 9010              	.LASF209:
 9011 0fd8 4D534953 		.ascii	"MSIState\000"
 9011      74617465 
 9011      00
 9012              	.LASF172:
 9013 0fe1 43494352 		.ascii	"CICR\000"
 9013      00
 9014              	.LASF255:
 9015 0fe6 436C6F63 		.ascii	"ClockPrescaler\000"
 9015      6B507265 
 9015      7363616C 
 9015      657200
 9016              	.LASF163:
 9017 0ff5 42535252 		.ascii	"BSRR\000"
 9017      00
 9018              	.LASF377:
 9019 0ffa 48414C5F 		.ascii	"HAL_ADC_GetValue\000"
 9019      4144435F 
 9019      47657456 
 9019      616C7565 
 9019      00
 9020              	.LASF379:
 9021 100b 48414C5F 		.ascii	"HAL_RCC_ClockConfig\000"
 9021      5243435F 
 9021      436C6F63 
 9021      6B436F6E 
 9021      66696700 
 9022              	.LASF165:
 9023 101f 4750494F 		.ascii	"GPIO_TypeDef\000"
 9023      5F547970 
 9023      65446566 
 9023      00
 9024              	.LASF342:
 9025 102c 7072696D 		.ascii	"primask_bit\000"
 9025      61736B5F 
 9025      62697400 
 9026              	.LASF57:
 9027 1038 5F6C6266 		.ascii	"_lbfsize\000"
 9027      73697A65 
 9027      00
 9028              	.LASF76:
ARM GAS  C:\Users\EBANO_~1\AppData\Local\Temp\ccsZgiNd.s 			page 193


 9029 1041 5F696E63 		.ascii	"_inc\000"
 9029      00
 9030              	.LASF49:
 9031 1046 5F696E64 		.ascii	"_ind\000"
 9031      00
 9032              	.LASF257:
 9033 104b 44617461 		.ascii	"DataAlign\000"
 9033      416C6967 
 9033      6E00
 9034              	.LASF246:
 9035 1055 58666572 		.ascii	"XferHalfCpltCallback\000"
 9035      48616C66 
 9035      43706C74 
 9035      43616C6C 
 9035      6261636B 
 9036              	.LASF129:
 9037 106a 5F5F6664 		.ascii	"__fdlibm_ieee\000"
 9037      6C69626D 
 9037      5F696565 
 9037      6500
 9038              	.LASF51:
 9039 1078 5F5F7362 		.ascii	"__sbuf\000"
 9039      756600
 9040              	.LASF47:
 9041 107f 5F69735F 		.ascii	"_is_cxa\000"
 9041      63786100 
 9042              	.LASF16:
 9043 1087 5F4C4F43 		.ascii	"_LOCK_T\000"
 9043      4B5F5400 
 9044              	.LASF321:
 9045 108f 5374616E 		.ascii	"Standby\000"
 9045      64627900 
 9046              	.LASF120:
 9047 1097 5F6E6578 		.ascii	"_nextf\000"
 9047      746600
 9048              	.LASF313:
 9049 109e 49734368 		.ascii	"IsChannelFree\000"
 9049      616E6E65 
 9049      6C467265 
 9049      6500
 9050              	.LASF297:
 9051 10ac 52616469 		.ascii	"RadioState_t\000"
 9051      6F537461 
 9051      74655F74 
 9051      00
 9052              	.LASF79:
 9053 10b9 5F6C6F63 		.ascii	"_locale\000"
 9053      616C6500 
 9054              	.LASF27:
 9055 10c1 5F5F554C 		.ascii	"__ULong\000"
 9055      6F6E6700 
 9056              	.LASF139:
 9057 10c9 75696E74 		.ascii	"uint32_t\000"
 9057      33325F74 
 9057      00
 9058              	.LASF316:
 9059 10d2 53657454 		.ascii	"SetTxConfig\000"
ARM GAS  C:\Users\EBANO_~1\AppData\Local\Temp\ccsZgiNd.s 			page 194


 9059      78436F6E 
 9059      66696700 
 9060              	.LASF82:
 9061 10de 5F726573 		.ascii	"_result\000"
 9061      756C7400 
 9062              	.LASF283:
 9063 10e6 4C454433 		.ascii	"LED3\000"
 9063      00
 9064              	.LASF331:
 9065 10eb 47657457 		.ascii	"GetWakeupTime\000"
 9065      616B6575 
 9065      7054696D 
 9065      6500
 9066              	.LASF166:
 9067 10f9 5057525F 		.ascii	"PWR_TypeDef\000"
 9067      54797065 
 9067      44656600 
 9068              	.LASF170:
 9069 1105 43494552 		.ascii	"CIER\000"
 9069      00
 9070              	.LASF17:
 9071 110a 5F6F6666 		.ascii	"_off_t\000"
 9071      5F7400
 9072              	.LASF150:
 9073 1111 43485345 		.ascii	"CHSELR\000"
 9073      4C5200
 9074              	.LASF252:
 9075 1118 52696768 		.ascii	"RightBitShift\000"
 9075      74426974 
 9075      53686966 
 9075      7400
 9076              	.LASF195:
 9077 1126 48414C5F 		.ascii	"HAL_LOCKED\000"
 9077      4C4F434B 
 9077      454400
 9078              	.LASF100:
 9079 1131 5F616464 		.ascii	"_add\000"
 9079      00
 9080              	.LASF193:
 9081 1136 48414C5F 		.ascii	"HAL_TIMEOUT\000"
 9081      54494D45 
 9081      4F555400 
 9082              	.LASF371:
 9083 1142 76636F6D 		.ascii	"vcom_IoDeInit\000"
 9083      5F496F44 
 9083      65496E69 
 9083      7400
 9084              	.LASF10:
 9085 1150 73686F72 		.ascii	"short unsigned int\000"
 9085      7420756E 
 9085      7369676E 
 9085      65642069 
 9085      6E7400
 9086              	.LASF216:
 9087 1163 41504231 		.ascii	"APB1CLKDivider\000"
 9087      434C4B44 
 9087      69766964 
ARM GAS  C:\Users\EBANO_~1\AppData\Local\Temp\ccsZgiNd.s 			page 195


 9087      657200
 9088              	.LASF36:
 9089 1172 5F5F746D 		.ascii	"__tm_hour\000"
 9089      5F686F75 
 9089      7200
 9090              	.LASF242:
 9091 117c 4C6F636B 		.ascii	"Lock\000"
 9091      00
 9092              	.LASF197:
 9093 1181 504C4C53 		.ascii	"PLLState\000"
 9093      74617465 
 9093      00
 9094              	.LASF233:
 9095 118a 48414C5F 		.ascii	"HAL_DMA_STATE_READY\000"
 9095      444D415F 
 9095      53544154 
 9095      455F5245 
 9095      41445900 
 9096              	.LASF317:
 9097 119e 43686563 		.ascii	"CheckRfFrequency\000"
 9097      6B526646 
 9097      72657175 
 9097      656E6379 
 9097      00
 9098              	.LASF183:
 9099 11af 41504232 		.ascii	"APB2SMENR\000"
 9099      534D454E 
 9099      5200
 9100              	.LASF116:
 9101 11b9 5F6D6273 		.ascii	"_mbsrtowcs_state\000"
 9101      72746F77 
 9101      63735F73 
 9101      74617465 
 9101      00
 9102              	.LASF396:
 9103 11ca 48575F41 		.ascii	"HW_AdcInit\000"
 9103      6463496E 
 9103      697400
 9104              	.LASF345:
 9105 11d5 62617474 		.ascii	"batteryLevel\000"
 9105      6572794C 
 9105      6576656C 
 9105      00
 9106              	.LASF202:
 9107 11e2 4F736369 		.ascii	"OscillatorType\000"
 9107      6C6C6174 
 9107      6F725479 
 9107      706500
 9108              	.LASF171:
 9109 11f1 43494652 		.ascii	"CIFR\000"
 9109      00
 9110              	.LASF11:
 9111 11f6 5F5F696E 		.ascii	"__int32_t\000"
 9111      7433325F 
 9111      7400
 9112              	.LASF314:
 9113 1200 52616E64 		.ascii	"Random\000"
ARM GAS  C:\Users\EBANO_~1\AppData\Local\Temp\ccsZgiNd.s 			page 196


 9113      6F6D00
 9114              	.LASF347:
 9115 1207 62617474 		.ascii	"batteryLevelmV\000"
 9115      6572794C 
 9115      6576656C 
 9115      6D5600
 9116              	.LASF211:
 9117 1216 4D534943 		.ascii	"MSIClockRange\000"
 9117      6C6F636B 
 9117      52616E67 
 9117      6500
 9118              	.LASF44:
 9119 1224 5F666E61 		.ascii	"_fnargs\000"
 9119      72677300 
 9120              	.LASF42:
 9121 122c 5F5F746D 		.ascii	"__tm_isdst\000"
 9121      5F697364 
 9121      737400
 9122              	.LASF199:
 9123 1237 504C4C4D 		.ascii	"PLLMUL\000"
 9123      554C00
 9124              	.LASF288:
 9125 123e 5F646179 		.ascii	"_daylight\000"
 9125      6C696768 
 9125      7400
 9126              	.LASF173:
 9127 1248 494F5052 		.ascii	"IOPRSTR\000"
 9127      53545200 
 9128              	.LASF176:
 9129 1250 41504231 		.ascii	"APB1RSTR\000"
 9129      52535452 
 9129      00
 9130              	.LASF370:
 9131 1259 48575F47 		.ascii	"HW_GPIO_Init\000"
 9131      50494F5F 
 9131      496E6974 
 9131      00
 9132              	.LASF35:
 9133 1266 5F5F746D 		.ascii	"__tm_min\000"
 9133      5F6D696E 
 9133      00
 9134              	.LASF113:
 9135 126f 5F676574 		.ascii	"_getdate_err\000"
 9135      64617465 
 9135      5F657272 
 9135      00
 9136              	.LASF284:
 9137 127c 4C45445F 		.ascii	"LED_BLUE\000"
 9137      424C5545 
 9137      00
 9138              	.LASF320:
 9139 1285 536C6565 		.ascii	"Sleep\000"
 9139      7000
 9140              		.ident	"GCC: (GNU Tools for Arm Embedded Processors 7-2018-q2-update) 7.3.1 20180622 (release) [AR
ARM GAS  C:\Users\EBANO_~1\AppData\Local\Temp\ccsZgiNd.s 			page 197


DEFINED SYMBOLS
                            *ABS*:00000000 mlm32l0xx_hw.c
C:\Users\EBANO_~1\AppData\Local\Temp\ccsZgiNd.s:16     .text.HW_Init:00000000 $t
C:\Users\EBANO_~1\AppData\Local\Temp\ccsZgiNd.s:24     .text.HW_Init:00000000 HW_Init
C:\Users\EBANO_~1\AppData\Local\Temp\ccsZgiNd.s:160    .text.HW_Init:0000008c $d
C:\Users\EBANO_~1\AppData\Local\Temp\ccsZgiNd.s:172    .text.HW_DeInit:00000000 $t
C:\Users\EBANO_~1\AppData\Local\Temp\ccsZgiNd.s:180    .text.HW_DeInit:00000000 HW_DeInit
C:\Users\EBANO_~1\AppData\Local\Temp\ccsZgiNd.s:214    .text.HW_DeInit:00000018 $d
C:\Users\EBANO_~1\AppData\Local\Temp\ccsZgiNd.s:220    .text.HW_GpioInit:00000000 $t
C:\Users\EBANO_~1\AppData\Local\Temp\ccsZgiNd.s:228    .text.HW_GpioInit:00000000 HW_GpioInit
C:\Users\EBANO_~1\AppData\Local\Temp\ccsZgiNd.s:384    .text.HW_GpioInit:000000a8 $d
C:\Users\EBANO_~1\AppData\Local\Temp\ccsZgiNd.s:394    .text.SystemClock_Config:00000000 $t
C:\Users\EBANO_~1\AppData\Local\Temp\ccsZgiNd.s:402    .text.SystemClock_Config:00000000 SystemClock_Config
C:\Users\EBANO_~1\AppData\Local\Temp\ccsZgiNd.s:521    .text.SystemClock_Config:00000088 $d
C:\Users\EBANO_~1\AppData\Local\Temp\ccsZgiNd.s:528    .text.HW_GetRandomSeed:00000000 $t
C:\Users\EBANO_~1\AppData\Local\Temp\ccsZgiNd.s:536    .text.HW_GetRandomSeed:00000000 HW_GetRandomSeed
C:\Users\EBANO_~1\AppData\Local\Temp\ccsZgiNd.s:560    .text.HW_GetRandomSeed:00000014 $d
C:\Users\EBANO_~1\AppData\Local\Temp\ccsZgiNd.s:567    .text.HW_GetUniqueId:00000000 $t
C:\Users\EBANO_~1\AppData\Local\Temp\ccsZgiNd.s:575    .text.HW_GetUniqueId:00000000 HW_GetUniqueId
C:\Users\EBANO_~1\AppData\Local\Temp\ccsZgiNd.s:642    .text.HW_GetUniqueId:00000050 $d
C:\Users\EBANO_~1\AppData\Local\Temp\ccsZgiNd.s:651    .text.HW_GetTemperatureLevel:00000000 $t
C:\Users\EBANO_~1\AppData\Local\Temp\ccsZgiNd.s:659    .text.HW_GetTemperatureLevel:00000000 HW_GetTemperatureLevel
C:\Users\EBANO_~1\AppData\Local\Temp\ccsZgiNd.s:938    .text.HW_GetTemperatureLevel:00000144 $d
C:\Users\EBANO_~1\AppData\Local\Temp\ccsZgiNd.s:954    .text.HW_GetBatteryLevel:00000000 $t
C:\Users\EBANO_~1\AppData\Local\Temp\ccsZgiNd.s:962    .text.HW_GetBatteryLevel:00000000 HW_GetBatteryLevel
C:\Users\EBANO_~1\AppData\Local\Temp\ccsZgiNd.s:1138   .text.HW_GetBatteryLevel:000000c0 $d
C:\Users\EBANO_~1\AppData\Local\Temp\ccsZgiNd.s:1153   .text.HW_AdcInit:00000000 $t
C:\Users\EBANO_~1\AppData\Local\Temp\ccsZgiNd.s:1161   .text.HW_AdcInit:00000000 HW_AdcInit
C:\Users\EBANO_~1\AppData\Local\Temp\ccsZgiNd.s:1244   .text.HW_AdcInit:0000004c $d
C:\Users\EBANO_~1\AppData\Local\Temp\ccsZgiNd.s:1251   .text.HW_AdcDeInit:00000000 $t
C:\Users\EBANO_~1\AppData\Local\Temp\ccsZgiNd.s:1259   .text.HW_AdcDeInit:00000000 HW_AdcDeInit
C:\Users\EBANO_~1\AppData\Local\Temp\ccsZgiNd.s:1278   .text.HW_AdcDeInit:00000008 $d
C:\Users\EBANO_~1\AppData\Local\Temp\ccsZgiNd.s:1283   .text.HW_AdcReadChannel:00000000 $t
C:\Users\EBANO_~1\AppData\Local\Temp\ccsZgiNd.s:1291   .text.HW_AdcReadChannel:00000000 HW_AdcReadChannel
C:\Users\EBANO_~1\AppData\Local\Temp\ccsZgiNd.s:1419   .text.HW_AdcReadChannel:00000084 $d
C:\Users\EBANO_~1\AppData\Local\Temp\ccsZgiNd.s:1429   .text.LPM_EnterStopMode:00000000 $t
C:\Users\EBANO_~1\AppData\Local\Temp\ccsZgiNd.s:1437   .text.LPM_EnterStopMode:00000000 LPM_EnterStopMode
C:\Users\EBANO_~1\AppData\Local\Temp\ccsZgiNd.s:1555   .text.LPM_EnterStopMode:0000006c $d
C:\Users\EBANO_~1\AppData\Local\Temp\ccsZgiNd.s:1562   .text.LPM_ExitStopMode:00000000 $t
C:\Users\EBANO_~1\AppData\Local\Temp\ccsZgiNd.s:1570   .text.LPM_ExitStopMode:00000000 LPM_ExitStopMode
C:\Users\EBANO_~1\AppData\Local\Temp\ccsZgiNd.s:1685   .text.LPM_ExitStopMode:00000060 $d
C:\Users\EBANO_~1\AppData\Local\Temp\ccsZgiNd.s:1691   .text.LPM_EnterSleepMode:00000000 $t
C:\Users\EBANO_~1\AppData\Local\Temp\ccsZgiNd.s:1699   .text.LPM_EnterSleepMode:00000000 LPM_EnterSleepMode
C:\Users\EBANO_~1\AppData\Local\Temp\ccsZgiNd.s:1722   .bss:00000000 $d
C:\Users\EBANO_~1\AppData\Local\Temp\ccsZgiNd.s:1726   .bss:00000000 McuInitialized
C:\Users\EBANO_~1\AppData\Local\Temp\ccsZgiNd.s:1730   .bss:00000001 AdcInitialized
C:\Users\EBANO_~1\AppData\Local\Temp\ccsZgiNd.s:1735   .bss:00000004 hadc

UNDEFINED SYMBOLS
HW_SPI_Init
HW_RTC_Init
TraceInit
BSP_sensor_Init
BSP_LED_Init
HAL_ADC_Init
Radio
HW_SPI_DeInit
ARM GAS  C:\Users\EBANO_~1\AppData\Local\Temp\ccsZgiNd.s 			page 198


vcom_DeInit
memset
HAL_GPIO_Init
HAL_RCC_OscConfig
HAL_RCC_ClockConfig
Error_Handler
__aeabi_uidiv
__aeabi_idiv
HAL_ADCEx_Calibration_Start
HAL_ADC_ConfigChannel
HAL_ADC_Start
HAL_ADC_PollForConversion
HAL_ADC_GetValue
HW_GPIO_Init
vcom_IoDeInit
HAL_PWR_EnterSTOPMode
HW_SPI_IoInit
vcom_IoInit
HAL_PWR_EnterSLEEPMode
