ARM GAS  C:\Users\EBANO_~1\AppData\Local\Temp\ccsZgiNd.s 			page 1


   1              		.cpu cortex-m0plus
   2              		.eabi_attribute 20, 1
   3              		.eabi_attribute 21, 1
   4              		.eabi_attribute 23, 3
   5              		.eabi_attribute 24, 1
   6              		.eabi_attribute 25, 1
   7              		.eabi_attribute 26, 1
   8              		.eabi_attribute 30, 2
   9              		.eabi_attribute 34, 0
  10              		.eabi_attribute 18, 4
  11              		.file	"mlm32l0xx_hw.c"
  12              		.text
  13              	.Ltext0:
  14              		.cfi_sections	.debug_frame
  15              		.section	.text.HW_Init,"ax",%progbits
  16              		.align	1
  17              		.p2align 2,,3
  18              		.global	HW_Init
  19              		.syntax unified
  20              		.code	16
  21              		.thumb_func
  22              		.fpu softvfp
  23              		.type	HW_Init, %function
  24              	HW_Init:
  25              	.LFB39:
  26              		.file 1 "../Core/src/mlm32l0xx_hw.c"
   1:../Core/src/mlm32l0xx_hw.c **** /*
   2:../Core/src/mlm32l0xx_hw.c ****  / _____)             _              | |
   3:../Core/src/mlm32l0xx_hw.c **** ( (____  _____ ____ _| |_ _____  ____| |__
   4:../Core/src/mlm32l0xx_hw.c ****  \____ \| ___ |    (_   _) ___ |/ ___)  _ \
   5:../Core/src/mlm32l0xx_hw.c ****  _____) ) ____| | | || |_| ____( (___| | | |
   6:../Core/src/mlm32l0xx_hw.c **** (______/|_____)_|_|_| \__)_____)\____)_| |_|
   7:../Core/src/mlm32l0xx_hw.c ****     (C)2013 Semtech
   8:../Core/src/mlm32l0xx_hw.c **** 
   9:../Core/src/mlm32l0xx_hw.c **** Description: Target board general functions implementation
  10:../Core/src/mlm32l0xx_hw.c **** 
  11:../Core/src/mlm32l0xx_hw.c **** License: Revised BSD License, see LICENSE.TXT file include in the project
  12:../Core/src/mlm32l0xx_hw.c **** 
  13:../Core/src/mlm32l0xx_hw.c **** Maintainer: Miguel Luis and Gregory Cristian
  14:../Core/src/mlm32l0xx_hw.c **** */
  15:../Core/src/mlm32l0xx_hw.c **** /**
  16:../Core/src/mlm32l0xx_hw.c ****   ******************************************************************************
  17:../Core/src/mlm32l0xx_hw.c ****   * @file    mlm32l0xx_hw.c
  18:../Core/src/mlm32l0xx_hw.c ****   * @author  MCD Application Team
  19:../Core/src/mlm32l0xx_hw.c ****   * @brief   system hardware driver
  20:../Core/src/mlm32l0xx_hw.c ****   ******************************************************************************
  21:../Core/src/mlm32l0xx_hw.c ****   * @attention
  22:../Core/src/mlm32l0xx_hw.c ****   *
  23:../Core/src/mlm32l0xx_hw.c ****   * <h2><center>&copy; Copyright (c) 2018 STMicroelectronics.
  24:../Core/src/mlm32l0xx_hw.c ****   * All rights reserved.</center></h2>
  25:../Core/src/mlm32l0xx_hw.c ****   *
  26:../Core/src/mlm32l0xx_hw.c ****   * This software component is licensed by ST under Ultimate Liberty license
  27:../Core/src/mlm32l0xx_hw.c ****   * SLA0044, the "License"; You may not use this file except in compliance with
  28:../Core/src/mlm32l0xx_hw.c ****   * the License. You may obtain a copy of the License at:
  29:../Core/src/mlm32l0xx_hw.c ****   *                             www.st.com/SLA0044
  30:../Core/src/mlm32l0xx_hw.c ****   *
  31:../Core/src/mlm32l0xx_hw.c ****   ******************************************************************************
ARM GAS  C:\Users\EBANO_~1\AppData\Local\Temp\ccsZgiNd.s 			page 2


  32:../Core/src/mlm32l0xx_hw.c ****   */
  33:../Core/src/mlm32l0xx_hw.c **** 
  34:../Core/src/mlm32l0xx_hw.c **** #include "hw.h"
  35:../Core/src/mlm32l0xx_hw.c **** #include "radio.h"
  36:../Core/src/mlm32l0xx_hw.c **** #include "debug.h"
  37:../Core/src/mlm32l0xx_hw.c **** #include "bsp.h"
  38:../Core/src/mlm32l0xx_hw.c **** #include "vcom.h"
  39:../Core/src/mlm32l0xx_hw.c **** 
  40:../Core/src/mlm32l0xx_hw.c **** /*!
  41:../Core/src/mlm32l0xx_hw.c ****  *  \brief Unique Devices IDs register set ( STM32L0xxx )
  42:../Core/src/mlm32l0xx_hw.c ****  */
  43:../Core/src/mlm32l0xx_hw.c **** #define         ID1                                 ( 0x1FF80050 )
  44:../Core/src/mlm32l0xx_hw.c **** #define         ID2                                 ( 0x1FF80054 )
  45:../Core/src/mlm32l0xx_hw.c **** #define         ID3                                 ( 0x1FF80064 )
  46:../Core/src/mlm32l0xx_hw.c **** 
  47:../Core/src/mlm32l0xx_hw.c **** /*!
  48:../Core/src/mlm32l0xx_hw.c ****  * \brief ADC Vbat measurement constants
  49:../Core/src/mlm32l0xx_hw.c ****  */
  50:../Core/src/mlm32l0xx_hw.c **** 
  51:../Core/src/mlm32l0xx_hw.c ****  /* Internal voltage reference, parameter VREFINT_CAL*/
  52:../Core/src/mlm32l0xx_hw.c **** #define VREFINT_CAL       ((uint16_t*) ((uint32_t) 0x1FF80078))
  53:../Core/src/mlm32l0xx_hw.c **** #define LORAWAN_MAX_BAT   254
  54:../Core/src/mlm32l0xx_hw.c **** 
  55:../Core/src/mlm32l0xx_hw.c **** 
  56:../Core/src/mlm32l0xx_hw.c **** /* Internal temperature sensor: constants data used for indicative values in  */
  57:../Core/src/mlm32l0xx_hw.c **** /* this example. Refer to device datasheet for min/typ/max values.            */
  58:../Core/src/mlm32l0xx_hw.c **** 
  59:../Core/src/mlm32l0xx_hw.c **** /* Internal temperature sensor, parameter TS_CAL1: TS ADC raw data acquired at 
  60:../Core/src/mlm32l0xx_hw.c ****  *a temperature of 110 DegC (+-5 DegC), VDDA = 3.3 V (+-10 mV). */
  61:../Core/src/mlm32l0xx_hw.c **** #define TEMP30_CAL_ADDR   ((uint16_t*) ((uint32_t) 0x1FF8007A))
  62:../Core/src/mlm32l0xx_hw.c **** 
  63:../Core/src/mlm32l0xx_hw.c **** /* Internal temperature sensor, parameter TS_CAL2: TS ADC raw data acquired at 
  64:../Core/src/mlm32l0xx_hw.c ****  *a temperature of  30 DegC (+-5 DegC), VDDA = 3.3 V (+-10 mV). */
  65:../Core/src/mlm32l0xx_hw.c **** #define TEMP110_CAL_ADDR  ((uint16_t*) ((uint32_t) 0x1FF8007E))
  66:../Core/src/mlm32l0xx_hw.c **** 
  67:../Core/src/mlm32l0xx_hw.c **** /* Vdda value with which temperature sensor has been calibrated in production 
  68:../Core/src/mlm32l0xx_hw.c ****    (+-10 mV). */
  69:../Core/src/mlm32l0xx_hw.c **** #define VDDA_TEMP_CAL                  ((uint32_t) 3000)        
  70:../Core/src/mlm32l0xx_hw.c **** 
  71:../Core/src/mlm32l0xx_hw.c **** 
  72:../Core/src/mlm32l0xx_hw.c **** #define COMPUTE_TEMPERATURE(TS_ADC_DATA, VDDA_APPLI)                           \
  73:../Core/src/mlm32l0xx_hw.c ****   ((((( ((int32_t)((TS_ADC_DATA * VDDA_APPLI) / VDDA_TEMP_CAL)                  \
  74:../Core/src/mlm32l0xx_hw.c ****         - (int32_t) *TEMP30_CAL_ADDR)                                          \
  75:../Core/src/mlm32l0xx_hw.c ****      ) * (int32_t)(110 - 30)                                                   \
  76:../Core/src/mlm32l0xx_hw.c ****     )<<8) / (int32_t)(*TEMP110_CAL_ADDR - *TEMP30_CAL_ADDR)                        \
  77:../Core/src/mlm32l0xx_hw.c ****    ) + (30<<8)                                                                      \
  78:../Core/src/mlm32l0xx_hw.c ****   )
  79:../Core/src/mlm32l0xx_hw.c **** 
  80:../Core/src/mlm32l0xx_hw.c **** static ADC_HandleTypeDef hadc;
  81:../Core/src/mlm32l0xx_hw.c **** /*!
  82:../Core/src/mlm32l0xx_hw.c ****  * Flag to indicate if the ADC is Initialized
  83:../Core/src/mlm32l0xx_hw.c ****  */
  84:../Core/src/mlm32l0xx_hw.c **** static bool AdcInitialized = false;
  85:../Core/src/mlm32l0xx_hw.c **** 
  86:../Core/src/mlm32l0xx_hw.c **** /*!
  87:../Core/src/mlm32l0xx_hw.c ****  * Flag to indicate if the MCU is Initialized
  88:../Core/src/mlm32l0xx_hw.c ****  */
ARM GAS  C:\Users\EBANO_~1\AppData\Local\Temp\ccsZgiNd.s 			page 3


  89:../Core/src/mlm32l0xx_hw.c **** static bool McuInitialized = false;
  90:../Core/src/mlm32l0xx_hw.c **** 
  91:../Core/src/mlm32l0xx_hw.c **** /**
  92:../Core/src/mlm32l0xx_hw.c ****   * @brief This function initializes the hardware
  93:../Core/src/mlm32l0xx_hw.c ****   * @param None
  94:../Core/src/mlm32l0xx_hw.c ****   * @retval None
  95:../Core/src/mlm32l0xx_hw.c ****   */
  96:../Core/src/mlm32l0xx_hw.c **** void HW_Init( void )
  97:../Core/src/mlm32l0xx_hw.c **** {
  27              		.loc 1 97 0
  28              		.cfi_startproc
  29              		@ args = 0, pretend = 0, frame = 8
  30              		@ frame_needed = 0, uses_anonymous_args = 0
  31 0000 10B5     		push	{r4, lr}
  32              	.LCFI0:
  33              		.cfi_def_cfa_offset 8
  34              		.cfi_offset 4, -8
  35              		.cfi_offset 14, -4
  98:../Core/src/mlm32l0xx_hw.c ****   if( McuInitialized == false )
  36              		.loc 1 98 0
  37 0002 224C     		ldr	r4, .L6
  97:../Core/src/mlm32l0xx_hw.c ****   if( McuInitialized == false )
  38              		.loc 1 97 0
  39 0004 82B0     		sub	sp, sp, #8
  40              	.LCFI1:
  41              		.cfi_def_cfa_offset 16
  42              		.loc 1 98 0
  43 0006 2378     		ldrb	r3, [r4]
  44 0008 002B     		cmp	r3, #0
  45 000a 1CD1     		bne	.L1
  46              	.LBB26:
  47              	.LBB27:
  99:../Core/src/mlm32l0xx_hw.c ****   {
 100:../Core/src/mlm32l0xx_hw.c **** #if defined( USE_BOOTLOADER )
 101:../Core/src/mlm32l0xx_hw.c ****     /* Set the Vector Table base location at 0x3000 */
 102:../Core/src/mlm32l0xx_hw.c ****     NVIC_SetVectorTable( NVIC_VectTab_FLASH, 0x3000 );
 103:../Core/src/mlm32l0xx_hw.c **** #endif
 104:../Core/src/mlm32l0xx_hw.c **** 
 105:../Core/src/mlm32l0xx_hw.c ****     HW_AdcInit( );
 106:../Core/src/mlm32l0xx_hw.c **** 
 107:../Core/src/mlm32l0xx_hw.c ****     Radio.IoInit( );
 108:../Core/src/mlm32l0xx_hw.c ****     
 109:../Core/src/mlm32l0xx_hw.c ****     HW_SPI_Init( );
 110:../Core/src/mlm32l0xx_hw.c **** 
 111:../Core/src/mlm32l0xx_hw.c ****     HW_RTC_Init( );
 112:../Core/src/mlm32l0xx_hw.c ****     
 113:../Core/src/mlm32l0xx_hw.c ****     TraceInit( );
 114:../Core/src/mlm32l0xx_hw.c ****     
 115:../Core/src/mlm32l0xx_hw.c ****     BSP_sensor_Init( );
 116:../Core/src/mlm32l0xx_hw.c ****             
 117:../Core/src/mlm32l0xx_hw.c ****     BSP_LED_Init( LED1 );
 118:../Core/src/mlm32l0xx_hw.c ****     BSP_LED_Init( LED2 );
 119:../Core/src/mlm32l0xx_hw.c ****     BSP_LED_Init( LED3 );
 120:../Core/src/mlm32l0xx_hw.c ****     BSP_LED_Init( LED4 );
 121:../Core/src/mlm32l0xx_hw.c **** 
 122:../Core/src/mlm32l0xx_hw.c ****     McuInitialized = true;
 123:../Core/src/mlm32l0xx_hw.c ****   }
ARM GAS  C:\Users\EBANO_~1\AppData\Local\Temp\ccsZgiNd.s 			page 4


 124:../Core/src/mlm32l0xx_hw.c **** }
 125:../Core/src/mlm32l0xx_hw.c **** 
 126:../Core/src/mlm32l0xx_hw.c **** /**
 127:../Core/src/mlm32l0xx_hw.c ****   * @brief This function Deinitializes the hardware
 128:../Core/src/mlm32l0xx_hw.c ****   * @param None
 129:../Core/src/mlm32l0xx_hw.c ****   * @retval None
 130:../Core/src/mlm32l0xx_hw.c ****   */
 131:../Core/src/mlm32l0xx_hw.c **** void HW_DeInit( void )
 132:../Core/src/mlm32l0xx_hw.c **** {
 133:../Core/src/mlm32l0xx_hw.c ****   HW_SPI_DeInit( );
 134:../Core/src/mlm32l0xx_hw.c ****   
 135:../Core/src/mlm32l0xx_hw.c ****   Radio.IoDeInit( );
 136:../Core/src/mlm32l0xx_hw.c ****   
 137:../Core/src/mlm32l0xx_hw.c ****   vcom_DeInit( );
 138:../Core/src/mlm32l0xx_hw.c ****    
 139:../Core/src/mlm32l0xx_hw.c ****   McuInitialized = false;
 140:../Core/src/mlm32l0xx_hw.c **** }
 141:../Core/src/mlm32l0xx_hw.c **** 
 142:../Core/src/mlm32l0xx_hw.c **** /**
 143:../Core/src/mlm32l0xx_hw.c ****   * @brief This function Initializes the hardware Ios
 144:../Core/src/mlm32l0xx_hw.c ****   * @param None
 145:../Core/src/mlm32l0xx_hw.c ****   * @retval None
 146:../Core/src/mlm32l0xx_hw.c ****   */
 147:../Core/src/mlm32l0xx_hw.c **** static void HW_IoInit( void )
 148:../Core/src/mlm32l0xx_hw.c **** {
 149:../Core/src/mlm32l0xx_hw.c ****   HW_SPI_IoInit( );
 150:../Core/src/mlm32l0xx_hw.c ****   
 151:../Core/src/mlm32l0xx_hw.c ****   Radio.IoInit( );
 152:../Core/src/mlm32l0xx_hw.c ****   
 153:../Core/src/mlm32l0xx_hw.c ****   vcom_IoInit( );
 154:../Core/src/mlm32l0xx_hw.c **** }
 155:../Core/src/mlm32l0xx_hw.c **** 
 156:../Core/src/mlm32l0xx_hw.c **** /**
 157:../Core/src/mlm32l0xx_hw.c ****   * @brief This function Deinitializes the hardware Ios
 158:../Core/src/mlm32l0xx_hw.c ****   * @param None
 159:../Core/src/mlm32l0xx_hw.c ****   * @retval None
 160:../Core/src/mlm32l0xx_hw.c ****   */
 161:../Core/src/mlm32l0xx_hw.c **** static void HW_IoDeInit( void )
 162:../Core/src/mlm32l0xx_hw.c **** {
 163:../Core/src/mlm32l0xx_hw.c ****   /*  HW_SPI_IoDeInit( );*/
 164:../Core/src/mlm32l0xx_hw.c ****   GPIO_InitTypeDef initStruct={0};
 165:../Core/src/mlm32l0xx_hw.c ****     
 166:../Core/src/mlm32l0xx_hw.c ****   initStruct.Mode =GPIO_MODE_ANALOG;
 167:../Core/src/mlm32l0xx_hw.c ****   initStruct.Pull =GPIO_NOPULL;
 168:../Core/src/mlm32l0xx_hw.c ****   HW_GPIO_Init ( RADIO_MOSI_PORT, RADIO_MOSI_PIN, &initStruct ); 
 169:../Core/src/mlm32l0xx_hw.c ****   HW_GPIO_Init ( RADIO_MISO_PORT, RADIO_MISO_PIN, &initStruct ); 
 170:../Core/src/mlm32l0xx_hw.c ****   HW_GPIO_Init ( RADIO_SCLK_PORT, RADIO_SCLK_PIN, &initStruct ); 
 171:../Core/src/mlm32l0xx_hw.c ****   HW_GPIO_Init ( RADIO_NSS_PORT, RADIO_NSS_PIN , &initStruct ); 
 172:../Core/src/mlm32l0xx_hw.c **** 
 173:../Core/src/mlm32l0xx_hw.c ****   
 174:../Core/src/mlm32l0xx_hw.c ****   Radio.IoDeInit( );
 175:../Core/src/mlm32l0xx_hw.c ****   
 176:../Core/src/mlm32l0xx_hw.c ****   vcom_IoDeInit( );
 177:../Core/src/mlm32l0xx_hw.c **** }
 178:../Core/src/mlm32l0xx_hw.c **** 
 179:../Core/src/mlm32l0xx_hw.c **** 
 180:../Core/src/mlm32l0xx_hw.c **** void HW_GpioInit(void)
ARM GAS  C:\Users\EBANO_~1\AppData\Local\Temp\ccsZgiNd.s 			page 5


 181:../Core/src/mlm32l0xx_hw.c **** {
 182:../Core/src/mlm32l0xx_hw.c ****     GPIO_InitTypeDef GPIO_InitStruct={0};
 183:../Core/src/mlm32l0xx_hw.c **** 
 184:../Core/src/mlm32l0xx_hw.c ****   /* Configure all GPIO as analog to reduce current consumption on non used IOs */
 185:../Core/src/mlm32l0xx_hw.c ****   /* Enable GPIOs clock */
 186:../Core/src/mlm32l0xx_hw.c ****   __HAL_RCC_GPIOA_CLK_ENABLE();
 187:../Core/src/mlm32l0xx_hw.c ****   __HAL_RCC_GPIOB_CLK_ENABLE();
 188:../Core/src/mlm32l0xx_hw.c ****   __HAL_RCC_GPIOC_CLK_ENABLE();
 189:../Core/src/mlm32l0xx_hw.c ****   __HAL_RCC_GPIOH_CLK_ENABLE();
 190:../Core/src/mlm32l0xx_hw.c **** 
 191:../Core/src/mlm32l0xx_hw.c ****   GPIO_InitStruct.Mode = GPIO_MODE_ANALOG;
 192:../Core/src/mlm32l0xx_hw.c ****   GPIO_InitStruct.Pull = GPIO_NOPULL;
 193:../Core/src/mlm32l0xx_hw.c ****   /* All GPIOs except debug pins (SWCLK and SWD) */
 194:../Core/src/mlm32l0xx_hw.c ****   GPIO_InitStruct.Pin = GPIO_PIN_All & (~( GPIO_PIN_13 | GPIO_PIN_14) );
 195:../Core/src/mlm32l0xx_hw.c ****   HAL_GPIO_Init(GPIOA, &GPIO_InitStruct);
 196:../Core/src/mlm32l0xx_hw.c ****   
 197:../Core/src/mlm32l0xx_hw.c ****   /* All GPIOs */
 198:../Core/src/mlm32l0xx_hw.c ****   GPIO_InitStruct.Pin = GPIO_PIN_All;
 199:../Core/src/mlm32l0xx_hw.c ****   HAL_GPIO_Init(GPIOB, &GPIO_InitStruct);
 200:../Core/src/mlm32l0xx_hw.c ****   HAL_GPIO_Init(GPIOC, &GPIO_InitStruct);
 201:../Core/src/mlm32l0xx_hw.c ****   HAL_GPIO_Init(GPIOH, &GPIO_InitStruct);
 202:../Core/src/mlm32l0xx_hw.c **** 
 203:../Core/src/mlm32l0xx_hw.c ****   /* Disable GPIOs clock */
 204:../Core/src/mlm32l0xx_hw.c ****   __HAL_RCC_GPIOA_CLK_DISABLE();
 205:../Core/src/mlm32l0xx_hw.c ****   __HAL_RCC_GPIOB_CLK_DISABLE();
 206:../Core/src/mlm32l0xx_hw.c ****   __HAL_RCC_GPIOC_CLK_DISABLE();
 207:../Core/src/mlm32l0xx_hw.c ****   __HAL_RCC_GPIOH_CLK_DISABLE();
 208:../Core/src/mlm32l0xx_hw.c **** }
 209:../Core/src/mlm32l0xx_hw.c **** 
 210:../Core/src/mlm32l0xx_hw.c **** /**
 211:../Core/src/mlm32l0xx_hw.c ****   * @brief  System Clock Configuration
 212:../Core/src/mlm32l0xx_hw.c ****   *         The system Clock is configured as follow :
 213:../Core/src/mlm32l0xx_hw.c ****   *            System Clock source            = PLL (HSI)
 214:../Core/src/mlm32l0xx_hw.c ****   *            SYSCLK(Hz)                     = 32000000
 215:../Core/src/mlm32l0xx_hw.c ****   *            HCLK(Hz)                       = 32000000
 216:../Core/src/mlm32l0xx_hw.c ****   *            AHB Prescaler                  = 1
 217:../Core/src/mlm32l0xx_hw.c ****   *            APB1 Prescaler                 = 1
 218:../Core/src/mlm32l0xx_hw.c ****   *            APB2 Prescaler                 = 1
 219:../Core/src/mlm32l0xx_hw.c ****   *            HSI Frequency(Hz)              = 16000000
 220:../Core/src/mlm32l0xx_hw.c ****   *            PLLMUL                         = 6
 221:../Core/src/mlm32l0xx_hw.c ****   *            PLLDIV                         = 3
 222:../Core/src/mlm32l0xx_hw.c ****   *            Flash Latency(WS)              = 1
 223:../Core/src/mlm32l0xx_hw.c ****   * @retval None
 224:../Core/src/mlm32l0xx_hw.c ****   */
 225:../Core/src/mlm32l0xx_hw.c **** 
 226:../Core/src/mlm32l0xx_hw.c **** void SystemClock_Config( void )
 227:../Core/src/mlm32l0xx_hw.c **** {
 228:../Core/src/mlm32l0xx_hw.c ****   RCC_ClkInitTypeDef RCC_ClkInitStruct = {0};
 229:../Core/src/mlm32l0xx_hw.c ****   RCC_OscInitTypeDef RCC_OscInitStruct = {0};
 230:../Core/src/mlm32l0xx_hw.c **** 
 231:../Core/src/mlm32l0xx_hw.c ****   /* Enable HSE Oscillator and Activate PLL with HSE as source */
 232:../Core/src/mlm32l0xx_hw.c ****   RCC_OscInitStruct.OscillatorType      = RCC_OSCILLATORTYPE_HSI;
 233:../Core/src/mlm32l0xx_hw.c ****   RCC_OscInitStruct.HSEState            = RCC_HSE_OFF;
 234:../Core/src/mlm32l0xx_hw.c ****   RCC_OscInitStruct.HSIState            = RCC_HSI_ON;
 235:../Core/src/mlm32l0xx_hw.c ****   RCC_OscInitStruct.HSICalibrationValue = RCC_HSICALIBRATION_DEFAULT;
 236:../Core/src/mlm32l0xx_hw.c ****   RCC_OscInitStruct.PLL.PLLState        = RCC_PLL_ON;
 237:../Core/src/mlm32l0xx_hw.c ****   RCC_OscInitStruct.PLL.PLLSource       = RCC_PLLSOURCE_HSI;
ARM GAS  C:\Users\EBANO_~1\AppData\Local\Temp\ccsZgiNd.s 			page 6


 238:../Core/src/mlm32l0xx_hw.c ****   RCC_OscInitStruct.PLL.PLLMUL          = RCC_PLLMUL_6;
 239:../Core/src/mlm32l0xx_hw.c ****   RCC_OscInitStruct.PLL.PLLDIV          = RCC_PLLDIV_3;
 240:../Core/src/mlm32l0xx_hw.c **** 
 241:../Core/src/mlm32l0xx_hw.c ****   if (HAL_RCC_OscConfig(&RCC_OscInitStruct) != HAL_OK)
 242:../Core/src/mlm32l0xx_hw.c ****   {
 243:../Core/src/mlm32l0xx_hw.c ****     Error_Handler();
 244:../Core/src/mlm32l0xx_hw.c ****   }
 245:../Core/src/mlm32l0xx_hw.c **** 
 246:../Core/src/mlm32l0xx_hw.c ****   /* Set Voltage scale1 as MCU will run at 32MHz */
 247:../Core/src/mlm32l0xx_hw.c ****   __HAL_RCC_PWR_CLK_ENABLE();
 248:../Core/src/mlm32l0xx_hw.c ****   __HAL_PWR_VOLTAGESCALING_CONFIG(PWR_REGULATOR_VOLTAGE_SCALE1);
 249:../Core/src/mlm32l0xx_hw.c ****   
 250:../Core/src/mlm32l0xx_hw.c ****   /* Poll VOSF bit of in PWR_CSR. Wait until it is reset to 0 */
 251:../Core/src/mlm32l0xx_hw.c ****   while (__HAL_PWR_GET_FLAG(PWR_FLAG_VOS) != RESET) {};
 252:../Core/src/mlm32l0xx_hw.c **** 
 253:../Core/src/mlm32l0xx_hw.c ****   /* Select PLL as system clock source and configure the HCLK, PCLK1 and PCLK2
 254:../Core/src/mlm32l0xx_hw.c ****   clocks dividers */
 255:../Core/src/mlm32l0xx_hw.c ****   RCC_ClkInitStruct.ClockType = (RCC_CLOCKTYPE_SYSCLK | RCC_CLOCKTYPE_HCLK | RCC_CLOCKTYPE_PCLK1 | 
 256:../Core/src/mlm32l0xx_hw.c ****   RCC_ClkInitStruct.SYSCLKSource = RCC_SYSCLKSOURCE_PLLCLK;
 257:../Core/src/mlm32l0xx_hw.c ****   RCC_ClkInitStruct.AHBCLKDivider = RCC_SYSCLK_DIV1;
 258:../Core/src/mlm32l0xx_hw.c ****   RCC_ClkInitStruct.APB1CLKDivider = RCC_HCLK_DIV1;
 259:../Core/src/mlm32l0xx_hw.c ****   RCC_ClkInitStruct.APB2CLKDivider = RCC_HCLK_DIV1;
 260:../Core/src/mlm32l0xx_hw.c ****   if (HAL_RCC_ClockConfig(&RCC_ClkInitStruct, FLASH_LATENCY_1) != HAL_OK)
 261:../Core/src/mlm32l0xx_hw.c ****   {
 262:../Core/src/mlm32l0xx_hw.c ****     Error_Handler();
 263:../Core/src/mlm32l0xx_hw.c ****   }
 264:../Core/src/mlm32l0xx_hw.c **** }
 265:../Core/src/mlm32l0xx_hw.c **** /**
 266:../Core/src/mlm32l0xx_hw.c ****   * @brief This function return a random seed
 267:../Core/src/mlm32l0xx_hw.c ****   * @note based on the device unique ID
 268:../Core/src/mlm32l0xx_hw.c ****   * @param None
 269:../Core/src/mlm32l0xx_hw.c ****   * @retval see
 270:../Core/src/mlm32l0xx_hw.c ****   */
 271:../Core/src/mlm32l0xx_hw.c **** uint32_t HW_GetRandomSeed( void )
 272:../Core/src/mlm32l0xx_hw.c **** {
 273:../Core/src/mlm32l0xx_hw.c ****   return ( ( *( uint32_t* )ID1 ) ^ ( *( uint32_t* )ID2 ) ^ ( *( uint32_t* )ID3 ) );
 274:../Core/src/mlm32l0xx_hw.c **** }
 275:../Core/src/mlm32l0xx_hw.c **** 
 276:../Core/src/mlm32l0xx_hw.c **** /**
 277:../Core/src/mlm32l0xx_hw.c ****   * @brief This function return a unique ID
 278:../Core/src/mlm32l0xx_hw.c ****   * @param unique ID
 279:../Core/src/mlm32l0xx_hw.c ****   * @retval none
 280:../Core/src/mlm32l0xx_hw.c ****   */
 281:../Core/src/mlm32l0xx_hw.c **** void HW_GetUniqueId( uint8_t *id )
 282:../Core/src/mlm32l0xx_hw.c **** {
 283:../Core/src/mlm32l0xx_hw.c ****     id[7] = ( ( *( uint32_t* )ID1 )+ ( *( uint32_t* )ID3 ) ) >> 24;
 284:../Core/src/mlm32l0xx_hw.c ****     id[6] = ( ( *( uint32_t* )ID1 )+ ( *( uint32_t* )ID3 ) ) >> 16;
 285:../Core/src/mlm32l0xx_hw.c ****     id[5] = ( ( *( uint32_t* )ID1 )+ ( *( uint32_t* )ID3 ) ) >> 8;
 286:../Core/src/mlm32l0xx_hw.c ****     id[4] = ( ( *( uint32_t* )ID1 )+ ( *( uint32_t* )ID3 ) );
 287:../Core/src/mlm32l0xx_hw.c ****     id[3] = ( ( *( uint32_t* )ID2 ) ) >> 24;
 288:../Core/src/mlm32l0xx_hw.c ****     id[2] = ( ( *( uint32_t* )ID2 ) ) >> 16;
 289:../Core/src/mlm32l0xx_hw.c ****     id[1] = ( ( *( uint32_t* )ID2 ) ) >> 8;
 290:../Core/src/mlm32l0xx_hw.c ****     id[0] = ( ( *( uint32_t* )ID2 ) );
 291:../Core/src/mlm32l0xx_hw.c **** }
 292:../Core/src/mlm32l0xx_hw.c **** 
 293:../Core/src/mlm32l0xx_hw.c **** uint16_t HW_GetTemperatureLevel( void ) 
 294:../Core/src/mlm32l0xx_hw.c **** {
ARM GAS  C:\Users\EBANO_~1\AppData\Local\Temp\ccsZgiNd.s 			page 7


 295:../Core/src/mlm32l0xx_hw.c ****   uint16_t measuredLevel =0; 
 296:../Core/src/mlm32l0xx_hw.c ****   uint32_t batteryLevelmV;
 297:../Core/src/mlm32l0xx_hw.c ****   uint16_t temperatureDegreeC;
 298:../Core/src/mlm32l0xx_hw.c **** 
 299:../Core/src/mlm32l0xx_hw.c ****   measuredLevel = HW_AdcReadChannel( ADC_CHANNEL_VREFINT ); 
 300:../Core/src/mlm32l0xx_hw.c **** 
 301:../Core/src/mlm32l0xx_hw.c ****   if (measuredLevel ==0)
 302:../Core/src/mlm32l0xx_hw.c ****   {
 303:../Core/src/mlm32l0xx_hw.c ****     batteryLevelmV =0;
 304:../Core/src/mlm32l0xx_hw.c ****   }
 305:../Core/src/mlm32l0xx_hw.c ****   else
 306:../Core/src/mlm32l0xx_hw.c ****   {
 307:../Core/src/mlm32l0xx_hw.c ****     batteryLevelmV= (( (uint32_t) VDDA_VREFINT_CAL * (*VREFINT_CAL ) )/ measuredLevel);
 308:../Core/src/mlm32l0xx_hw.c ****   }
 309:../Core/src/mlm32l0xx_hw.c **** #if 0  
 310:../Core/src/mlm32l0xx_hw.c ****   PRINTF("VDDA= %d\n\r", batteryLevelmV);
 311:../Core/src/mlm32l0xx_hw.c **** #endif
 312:../Core/src/mlm32l0xx_hw.c ****   
 313:../Core/src/mlm32l0xx_hw.c ****   measuredLevel = HW_AdcReadChannel( ADC_CHANNEL_TEMPSENSOR ); 
 314:../Core/src/mlm32l0xx_hw.c ****   
 315:../Core/src/mlm32l0xx_hw.c ****   temperatureDegreeC = COMPUTE_TEMPERATURE( measuredLevel, batteryLevelmV);
 316:../Core/src/mlm32l0xx_hw.c **** 
 317:../Core/src/mlm32l0xx_hw.c **** #if 0 
 318:../Core/src/mlm32l0xx_hw.c ****   {
 319:../Core/src/mlm32l0xx_hw.c ****     uint16_t temperatureDegreeC_Int= (temperatureDegreeC)>>8;
 320:../Core/src/mlm32l0xx_hw.c ****     uint16_t temperatureDegreeC_Frac= ((temperatureDegreeC-(temperatureDegreeC_Int<<8))*100)>>8;  
 321:../Core/src/mlm32l0xx_hw.c ****     PRINTF("temp= %d, %d,%d\n\r", temperatureDegreeC, temperatureDegreeC_Int, temperatureDegreeC_Fr
 322:../Core/src/mlm32l0xx_hw.c ****   }
 323:../Core/src/mlm32l0xx_hw.c **** #endif
 324:../Core/src/mlm32l0xx_hw.c ****   
 325:../Core/src/mlm32l0xx_hw.c ****   return (uint16_t) temperatureDegreeC;
 326:../Core/src/mlm32l0xx_hw.c **** }
 327:../Core/src/mlm32l0xx_hw.c **** /**
 328:../Core/src/mlm32l0xx_hw.c ****   * @brief This function return the battery level
 329:../Core/src/mlm32l0xx_hw.c ****   * @param none
 330:../Core/src/mlm32l0xx_hw.c ****   * @retval the battery level  1 (very low) to 254 (fully charged)
 331:../Core/src/mlm32l0xx_hw.c ****   */
 332:../Core/src/mlm32l0xx_hw.c **** uint8_t HW_GetBatteryLevel( void ) 
 333:../Core/src/mlm32l0xx_hw.c **** {
 334:../Core/src/mlm32l0xx_hw.c ****   uint8_t batteryLevel = 0;
 335:../Core/src/mlm32l0xx_hw.c ****   uint16_t measuredLevel = 0;
 336:../Core/src/mlm32l0xx_hw.c ****   uint32_t batteryLevelmV;
 337:../Core/src/mlm32l0xx_hw.c **** 
 338:../Core/src/mlm32l0xx_hw.c ****   measuredLevel = HW_AdcReadChannel( ADC_CHANNEL_VREFINT ); 
 339:../Core/src/mlm32l0xx_hw.c **** 
 340:../Core/src/mlm32l0xx_hw.c ****   if (measuredLevel == 0)
 341:../Core/src/mlm32l0xx_hw.c ****   {
 342:../Core/src/mlm32l0xx_hw.c ****     batteryLevelmV = 0;
 343:../Core/src/mlm32l0xx_hw.c ****   }
 344:../Core/src/mlm32l0xx_hw.c ****   else
 345:../Core/src/mlm32l0xx_hw.c ****   {
 346:../Core/src/mlm32l0xx_hw.c ****     batteryLevelmV= (( (uint32_t) VDDA_VREFINT_CAL * (*VREFINT_CAL ) )/ measuredLevel);
 347:../Core/src/mlm32l0xx_hw.c ****   }
 348:../Core/src/mlm32l0xx_hw.c **** 
 349:../Core/src/mlm32l0xx_hw.c ****   if (batteryLevelmV > VDD_BAT)
 350:../Core/src/mlm32l0xx_hw.c ****   {
 351:../Core/src/mlm32l0xx_hw.c ****     batteryLevel = LORAWAN_MAX_BAT;
ARM GAS  C:\Users\EBANO_~1\AppData\Local\Temp\ccsZgiNd.s 			page 8


 352:../Core/src/mlm32l0xx_hw.c ****   }
 353:../Core/src/mlm32l0xx_hw.c ****   else if (batteryLevelmV < VDD_MIN)
 354:../Core/src/mlm32l0xx_hw.c ****   {
 355:../Core/src/mlm32l0xx_hw.c ****     batteryLevel = 0;
 356:../Core/src/mlm32l0xx_hw.c ****   }
 357:../Core/src/mlm32l0xx_hw.c ****   else
 358:../Core/src/mlm32l0xx_hw.c ****   {
 359:../Core/src/mlm32l0xx_hw.c ****     batteryLevel = (( (uint32_t) (batteryLevelmV - VDD_MIN)*LORAWAN_MAX_BAT) /(VDD_BAT-VDD_MIN) ); 
 360:../Core/src/mlm32l0xx_hw.c ****   }
 361:../Core/src/mlm32l0xx_hw.c ****   return batteryLevel;
 362:../Core/src/mlm32l0xx_hw.c **** }
 363:../Core/src/mlm32l0xx_hw.c **** 
 364:../Core/src/mlm32l0xx_hw.c **** /**
 365:../Core/src/mlm32l0xx_hw.c ****   * @brief This function initializes the ADC
 366:../Core/src/mlm32l0xx_hw.c ****   * @param none
 367:../Core/src/mlm32l0xx_hw.c ****   * @retval none
 368:../Core/src/mlm32l0xx_hw.c ****   */
 369:../Core/src/mlm32l0xx_hw.c **** void HW_AdcInit( void )
 370:../Core/src/mlm32l0xx_hw.c **** {
 371:../Core/src/mlm32l0xx_hw.c ****   if( AdcInitialized == false )
  48              		.loc 1 371 0
  49 000c 6378     		ldrb	r3, [r4, #1]
  50 000e 002B     		cmp	r3, #0
  51 0010 1BD0     		beq	.L5
  52              	.L3:
  53              	.LBE27:
  54              	.LBE26:
 107:../Core/src/mlm32l0xx_hw.c ****     
  55              		.loc 1 107 0
  56 0012 1F4B     		ldr	r3, .L6+4
  57 0014 1B68     		ldr	r3, [r3]
  58 0016 0193     		str	r3, [sp, #4]
  59 0018 9847     		blx	r3
  60              	.LVL0:
 109:../Core/src/mlm32l0xx_hw.c **** 
  61              		.loc 1 109 0
  62 001a FFF7FEFF 		bl	HW_SPI_Init
  63              	.LVL1:
 111:../Core/src/mlm32l0xx_hw.c ****     
  64              		.loc 1 111 0
  65 001e FFF7FEFF 		bl	HW_RTC_Init
  66              	.LVL2:
 113:../Core/src/mlm32l0xx_hw.c ****     
  67              		.loc 1 113 0
  68 0022 FFF7FEFF 		bl	TraceInit
  69              	.LVL3:
 115:../Core/src/mlm32l0xx_hw.c ****             
  70              		.loc 1 115 0
  71 0026 FFF7FEFF 		bl	BSP_sensor_Init
  72              	.LVL4:
 117:../Core/src/mlm32l0xx_hw.c ****     BSP_LED_Init( LED2 );
  73              		.loc 1 117 0
  74 002a 0020     		movs	r0, #0
  75 002c FFF7FEFF 		bl	BSP_LED_Init
  76              	.LVL5:
 118:../Core/src/mlm32l0xx_hw.c ****     BSP_LED_Init( LED3 );
  77              		.loc 1 118 0
ARM GAS  C:\Users\EBANO_~1\AppData\Local\Temp\ccsZgiNd.s 			page 9


  78 0030 0120     		movs	r0, #1
  79 0032 FFF7FEFF 		bl	BSP_LED_Init
  80              	.LVL6:
 119:../Core/src/mlm32l0xx_hw.c ****     BSP_LED_Init( LED4 );
  81              		.loc 1 119 0
  82 0036 0220     		movs	r0, #2
  83 0038 FFF7FEFF 		bl	BSP_LED_Init
  84              	.LVL7:
 120:../Core/src/mlm32l0xx_hw.c **** 
  85              		.loc 1 120 0
  86 003c 0320     		movs	r0, #3
  87 003e FFF7FEFF 		bl	BSP_LED_Init
  88              	.LVL8:
 122:../Core/src/mlm32l0xx_hw.c ****   }
  89              		.loc 1 122 0
  90 0042 0123     		movs	r3, #1
  91 0044 2370     		strb	r3, [r4]
  92              	.L1:
 124:../Core/src/mlm32l0xx_hw.c **** 
  93              		.loc 1 124 0
  94 0046 02B0     		add	sp, sp, #8
  95              		@ sp needed
  96 0048 10BD     		pop	{r4, pc}
  97              	.L5:
  98              	.LBB31:
  99              	.LBB30:
 100              	.LBB28:
 101              	.LBB29:
 372:../Core/src/mlm32l0xx_hw.c ****   {
 373:../Core/src/mlm32l0xx_hw.c ****     AdcInitialized = true;
 374:../Core/src/mlm32l0xx_hw.c **** 
 375:../Core/src/mlm32l0xx_hw.c ****     
 376:../Core/src/mlm32l0xx_hw.c ****     hadc.Instance  = ADC1;
 102              		.loc 1 376 0
 103 004a 1249     		ldr	r1, .L6+8
 373:../Core/src/mlm32l0xx_hw.c **** 
 104              		.loc 1 373 0
 105 004c 0122     		movs	r2, #1
 106              		.loc 1 376 0
 107 004e 6160     		str	r1, [r4, #4]
 377:../Core/src/mlm32l0xx_hw.c ****     
 378:../Core/src/mlm32l0xx_hw.c ****     hadc.Init.OversamplingMode      = DISABLE;
 379:../Core/src/mlm32l0xx_hw.c ****   
 380:../Core/src/mlm32l0xx_hw.c ****     hadc.Init.ClockPrescaler        = ADC_CLOCK_SYNC_PCLK_DIV4;
 108              		.loc 1 380 0
 109 0050 8021     		movs	r1, #128
 110 0052 0906     		lsls	r1, r1, #24
 111 0054 A160     		str	r1, [r4, #8]
 381:../Core/src/mlm32l0xx_hw.c ****     hadc.Init.LowPowerAutoPowerOff  = DISABLE;
 382:../Core/src/mlm32l0xx_hw.c ****     hadc.Init.LowPowerFrequencyMode = ENABLE;
 383:../Core/src/mlm32l0xx_hw.c ****     hadc.Init.LowPowerAutoWait      = DISABLE;
 384:../Core/src/mlm32l0xx_hw.c ****     
 385:../Core/src/mlm32l0xx_hw.c ****     hadc.Init.Resolution            = ADC_RESOLUTION_12B;
 386:../Core/src/mlm32l0xx_hw.c ****     hadc.Init.SamplingTime          = ADC_SAMPLETIME_160CYCLES_5;
 112              		.loc 1 386 0
 113 0056 0721     		movs	r1, #7
 378:../Core/src/mlm32l0xx_hw.c ****   
ARM GAS  C:\Users\EBANO_~1\AppData\Local\Temp\ccsZgiNd.s 			page 10


 114              		.loc 1 378 0
 115 0058 6364     		str	r3, [r4, #68]
 381:../Core/src/mlm32l0xx_hw.c ****     hadc.Init.LowPowerAutoPowerOff  = DISABLE;
 116              		.loc 1 381 0
 117 005a 2362     		str	r3, [r4, #32]
 383:../Core/src/mlm32l0xx_hw.c ****     
 118              		.loc 1 383 0
 119 005c E361     		str	r3, [r4, #28]
 385:../Core/src/mlm32l0xx_hw.c ****     hadc.Init.SamplingTime          = ADC_SAMPLETIME_160CYCLES_5;
 120              		.loc 1 385 0
 121 005e E360     		str	r3, [r4, #12]
 387:../Core/src/mlm32l0xx_hw.c ****     hadc.Init.ScanConvMode          = ADC_SCAN_DIRECTION_FORWARD;
 388:../Core/src/mlm32l0xx_hw.c ****     hadc.Init.DataAlign             = ADC_DATAALIGN_RIGHT;
 122              		.loc 1 388 0
 123 0060 2361     		str	r3, [r4, #16]
 389:../Core/src/mlm32l0xx_hw.c ****     hadc.Init.ContinuousConvMode    = DISABLE;
 124              		.loc 1 389 0
 125 0062 6362     		str	r3, [r4, #36]
 390:../Core/src/mlm32l0xx_hw.c ****     hadc.Init.DiscontinuousConvMode = DISABLE;
 126              		.loc 1 390 0
 127 0064 A362     		str	r3, [r4, #40]
 391:../Core/src/mlm32l0xx_hw.c ****     hadc.Init.ExternalTrigConvEdge  = ADC_EXTERNALTRIGCONVEDGE_NONE;
 128              		.loc 1 391 0
 129 0066 2363     		str	r3, [r4, #48]
 392:../Core/src/mlm32l0xx_hw.c ****     hadc.Init.EOCSelection          = ADC_EOC_SINGLE_CONV;
 393:../Core/src/mlm32l0xx_hw.c ****     hadc.Init.DMAContinuousRequests = DISABLE;
 130              		.loc 1 393 0
 131 0068 6363     		str	r3, [r4, #52]
 394:../Core/src/mlm32l0xx_hw.c **** 
 395:../Core/src/mlm32l0xx_hw.c ****     ADCCLK_ENABLE();
 132              		.loc 1 395 0
 133 006a 8023     		movs	r3, #128
 382:../Core/src/mlm32l0xx_hw.c ****     hadc.Init.LowPowerAutoWait      = DISABLE;
 134              		.loc 1 382 0
 135 006c E263     		str	r2, [r4, #60]
 387:../Core/src/mlm32l0xx_hw.c ****     hadc.Init.DataAlign             = ADC_DATAALIGN_RIGHT;
 136              		.loc 1 387 0
 137 006e 6261     		str	r2, [r4, #20]
 373:../Core/src/mlm32l0xx_hw.c **** 
 138              		.loc 1 373 0
 139 0070 6270     		strb	r2, [r4, #1]
 392:../Core/src/mlm32l0xx_hw.c ****     hadc.Init.DMAContinuousRequests = DISABLE;
 140              		.loc 1 392 0
 141 0072 0332     		adds	r2, r2, #3
 142 0074 A261     		str	r2, [r4, #24]
 143              		.loc 1 395 0
 144 0076 084A     		ldr	r2, .L6+12
 386:../Core/src/mlm32l0xx_hw.c ****     hadc.Init.ScanConvMode          = ADC_SCAN_DIRECTION_FORWARD;
 145              		.loc 1 386 0
 146 0078 2164     		str	r1, [r4, #64]
 147              		.loc 1 395 0
 148 007a 516B     		ldr	r1, [r2, #52]
 149 007c 9B00     		lsls	r3, r3, #2
 150 007e 0B43     		orrs	r3, r1
 151 0080 5363     		str	r3, [r2, #52]
 396:../Core/src/mlm32l0xx_hw.c ****     
 397:../Core/src/mlm32l0xx_hw.c **** 
ARM GAS  C:\Users\EBANO_~1\AppData\Local\Temp\ccsZgiNd.s 			page 11


 398:../Core/src/mlm32l0xx_hw.c ****     HAL_ADC_Init( &hadc );
 152              		.loc 1 398 0
 153 0082 201D     		adds	r0, r4, #4
 154 0084 FFF7FEFF 		bl	HAL_ADC_Init
 155              	.LVL9:
 156 0088 C3E7     		b	.L3
 157              	.L7:
 158 008a C046     		.align	2
 159              	.L6:
 160 008c 00000000 		.word	.LANCHOR0
 161 0090 00000000 		.word	Radio
 162 0094 00240140 		.word	1073816576
 163 0098 00100240 		.word	1073876992
 164              	.LBE29:
 165              	.LBE28:
 166              	.LBE30:
 167              	.LBE31:
 168              		.cfi_endproc
 169              	.LFE39:
 170              		.size	HW_Init, .-HW_Init
 171              		.section	.text.HW_DeInit,"ax",%progbits
 172              		.align	1
 173              		.p2align 2,,3
 174              		.global	HW_DeInit
 175              		.syntax unified
 176              		.code	16
 177              		.thumb_func
 178              		.fpu softvfp
 179              		.type	HW_DeInit, %function
 180              	HW_DeInit:
 181              	.LFB40:
 132:../Core/src/mlm32l0xx_hw.c ****   HW_SPI_DeInit( );
 182              		.loc 1 132 0
 183              		.cfi_startproc
 184              		@ args = 0, pretend = 0, frame = 0
 185              		@ frame_needed = 0, uses_anonymous_args = 0
 186 0000 10B5     		push	{r4, lr}
 187              	.LCFI2:
 188              		.cfi_def_cfa_offset 8
 189              		.cfi_offset 4, -8
 190              		.cfi_offset 14, -4
 133:../Core/src/mlm32l0xx_hw.c ****   
 191              		.loc 1 133 0
 192 0002 FFF7FEFF 		bl	HW_SPI_DeInit
 193              	.LVL10:
 135:../Core/src/mlm32l0xx_hw.c ****   
 194              		.loc 1 135 0
 195 0006 044B     		ldr	r3, .L9
 140:../Core/src/mlm32l0xx_hw.c **** 
 196              		.loc 1 140 0
 197              		@ sp needed
 135:../Core/src/mlm32l0xx_hw.c ****   
 198              		.loc 1 135 0
 199 0008 5B68     		ldr	r3, [r3, #4]
 200 000a 9847     		blx	r3
 201              	.LVL11:
 137:../Core/src/mlm32l0xx_hw.c ****    
ARM GAS  C:\Users\EBANO_~1\AppData\Local\Temp\ccsZgiNd.s 			page 12


 202              		.loc 1 137 0
 203 000c FFF7FEFF 		bl	vcom_DeInit
 204              	.LVL12:
 139:../Core/src/mlm32l0xx_hw.c **** }
 205              		.loc 1 139 0
 206 0010 0022     		movs	r2, #0
 207 0012 024B     		ldr	r3, .L9+4
 208 0014 1A70     		strb	r2, [r3]
 140:../Core/src/mlm32l0xx_hw.c **** 
 209              		.loc 1 140 0
 210 0016 10BD     		pop	{r4, pc}
 211              	.L10:
 212              		.align	2
 213              	.L9:
 214 0018 00000000 		.word	Radio
 215 001c 00000000 		.word	.LANCHOR0
 216              		.cfi_endproc
 217              	.LFE40:
 218              		.size	HW_DeInit, .-HW_DeInit
 219              		.section	.text.HW_GpioInit,"ax",%progbits
 220              		.align	1
 221              		.p2align 2,,3
 222              		.global	HW_GpioInit
 223              		.syntax unified
 224              		.code	16
 225              		.thumb_func
 226              		.fpu softvfp
 227              		.type	HW_GpioInit, %function
 228              	HW_GpioInit:
 229              	.LFB43:
 181:../Core/src/mlm32l0xx_hw.c ****     GPIO_InitTypeDef GPIO_InitStruct={0};
 230              		.loc 1 181 0
 231              		.cfi_startproc
 232              		@ args = 0, pretend = 0, frame = 40
 233              		@ frame_needed = 0, uses_anonymous_args = 0
 234 0000 F0B5     		push	{r4, r5, r6, r7, lr}
 235              	.LCFI3:
 236              		.cfi_def_cfa_offset 20
 237              		.cfi_offset 4, -20
 238              		.cfi_offset 5, -16
 239              		.cfi_offset 6, -12
 240              		.cfi_offset 7, -8
 241              		.cfi_offset 14, -4
 242 0002 C646     		mov	lr, r8
 243 0004 00B5     		push	{lr}
 244              	.LCFI4:
 245              		.cfi_def_cfa_offset 24
 246              		.cfi_offset 8, -24
 247 0006 8AB0     		sub	sp, sp, #40
 248              	.LCFI5:
 249              		.cfi_def_cfa_offset 64
 182:../Core/src/mlm32l0xx_hw.c **** 
 250              		.loc 1 182 0
 251 0008 0C22     		movs	r2, #12
 252 000a 0021     		movs	r1, #0
 253 000c 07A8     		add	r0, sp, #28
 254 000e FFF7FEFF 		bl	memset
ARM GAS  C:\Users\EBANO_~1\AppData\Local\Temp\ccsZgiNd.s 			page 13


 255              	.LVL13:
 256              	.LBB32:
 186:../Core/src/mlm32l0xx_hw.c ****   __HAL_RCC_GPIOB_CLK_ENABLE();
 257              		.loc 1 186 0
 258 0012 0122     		movs	r2, #1
 259              	.LBE32:
 260              	.LBB33:
 187:../Core/src/mlm32l0xx_hw.c ****   __HAL_RCC_GPIOC_CLK_ENABLE();
 261              		.loc 1 187 0
 262 0014 0227     		movs	r7, #2
 263              	.LBE33:
 264              	.LBB34:
 188:../Core/src/mlm32l0xx_hw.c ****   __HAL_RCC_GPIOH_CLK_ENABLE();
 265              		.loc 1 188 0
 266 0016 0426     		movs	r6, #4
 267              	.LBE34:
 268              	.LBB35:
 189:../Core/src/mlm32l0xx_hw.c **** 
 269              		.loc 1 189 0
 270 0018 8025     		movs	r5, #128
 271              	.LBE35:
 272              	.LBB36:
 186:../Core/src/mlm32l0xx_hw.c ****   __HAL_RCC_GPIOB_CLK_ENABLE();
 273              		.loc 1 186 0
 274 001a 234C     		ldr	r4, .L12
 275              	.LBE36:
 195:../Core/src/mlm32l0xx_hw.c ****   
 276              		.loc 1 195 0
 277 001c A020     		movs	r0, #160
 278              	.LBB37:
 186:../Core/src/mlm32l0xx_hw.c ****   __HAL_RCC_GPIOB_CLK_ENABLE();
 279              		.loc 1 186 0
 280 001e E36A     		ldr	r3, [r4, #44]
 281 0020 9046     		mov	r8, r2
 282 0022 1343     		orrs	r3, r2
 283 0024 E362     		str	r3, [r4, #44]
 284 0026 E36A     		ldr	r3, [r4, #44]
 285              	.LBE37:
 195:../Core/src/mlm32l0xx_hw.c ****   
 286              		.loc 1 195 0
 287 0028 05A9     		add	r1, sp, #20
 288              	.LBB38:
 186:../Core/src/mlm32l0xx_hw.c ****   __HAL_RCC_GPIOB_CLK_ENABLE();
 289              		.loc 1 186 0
 290 002a 1340     		ands	r3, r2
 291 002c 0193     		str	r3, [sp, #4]
 292 002e 019B     		ldr	r3, [sp, #4]
 293              	.LBE38:
 294              	.LBB39:
 187:../Core/src/mlm32l0xx_hw.c ****   __HAL_RCC_GPIOC_CLK_ENABLE();
 295              		.loc 1 187 0
 296 0030 E36A     		ldr	r3, [r4, #44]
 297              	.LBE39:
 195:../Core/src/mlm32l0xx_hw.c ****   
 298              		.loc 1 195 0
 299 0032 C005     		lsls	r0, r0, #23
 300              	.LBB40:
ARM GAS  C:\Users\EBANO_~1\AppData\Local\Temp\ccsZgiNd.s 			page 14


 187:../Core/src/mlm32l0xx_hw.c ****   __HAL_RCC_GPIOC_CLK_ENABLE();
 301              		.loc 1 187 0
 302 0034 3B43     		orrs	r3, r7
 303 0036 E362     		str	r3, [r4, #44]
 304 0038 E36A     		ldr	r3, [r4, #44]
 305 003a 3B40     		ands	r3, r7
 306 003c 0293     		str	r3, [sp, #8]
 307 003e 029B     		ldr	r3, [sp, #8]
 308              	.LBE40:
 309              	.LBB41:
 188:../Core/src/mlm32l0xx_hw.c ****   __HAL_RCC_GPIOH_CLK_ENABLE();
 310              		.loc 1 188 0
 311 0040 E36A     		ldr	r3, [r4, #44]
 312 0042 3343     		orrs	r3, r6
 313 0044 E362     		str	r3, [r4, #44]
 314 0046 E36A     		ldr	r3, [r4, #44]
 315 0048 3340     		ands	r3, r6
 316 004a 0393     		str	r3, [sp, #12]
 317 004c 039B     		ldr	r3, [sp, #12]
 318              	.LBE41:
 319              	.LBB42:
 189:../Core/src/mlm32l0xx_hw.c **** 
 320              		.loc 1 189 0
 321 004e E36A     		ldr	r3, [r4, #44]
 322 0050 2B43     		orrs	r3, r5
 323 0052 E362     		str	r3, [r4, #44]
 324 0054 E36A     		ldr	r3, [r4, #44]
 325 0056 2B40     		ands	r3, r5
 326 0058 0493     		str	r3, [sp, #16]
 327 005a 049B     		ldr	r3, [sp, #16]
 328              	.LBE42:
 191:../Core/src/mlm32l0xx_hw.c ****   GPIO_InitStruct.Pull = GPIO_NOPULL;
 329              		.loc 1 191 0
 330 005c 0323     		movs	r3, #3
 331 005e 0693     		str	r3, [sp, #24]
 194:../Core/src/mlm32l0xx_hw.c ****   HAL_GPIO_Init(GPIOA, &GPIO_InitStruct);
 332              		.loc 1 194 0
 333 0060 124B     		ldr	r3, .L12+4
 334 0062 0593     		str	r3, [sp, #20]
 195:../Core/src/mlm32l0xx_hw.c ****   
 335              		.loc 1 195 0
 336 0064 FFF7FEFF 		bl	HAL_GPIO_Init
 337              	.LVL14:
 198:../Core/src/mlm32l0xx_hw.c ****   HAL_GPIO_Init(GPIOB, &GPIO_InitStruct);
 338              		.loc 1 198 0
 339 0068 114B     		ldr	r3, .L12+8
 199:../Core/src/mlm32l0xx_hw.c ****   HAL_GPIO_Init(GPIOC, &GPIO_InitStruct);
 340              		.loc 1 199 0
 341 006a 05A9     		add	r1, sp, #20
 342 006c 1148     		ldr	r0, .L12+12
 198:../Core/src/mlm32l0xx_hw.c ****   HAL_GPIO_Init(GPIOB, &GPIO_InitStruct);
 343              		.loc 1 198 0
 344 006e 0593     		str	r3, [sp, #20]
 199:../Core/src/mlm32l0xx_hw.c ****   HAL_GPIO_Init(GPIOC, &GPIO_InitStruct);
 345              		.loc 1 199 0
 346 0070 FFF7FEFF 		bl	HAL_GPIO_Init
 347              	.LVL15:
ARM GAS  C:\Users\EBANO_~1\AppData\Local\Temp\ccsZgiNd.s 			page 15


 200:../Core/src/mlm32l0xx_hw.c ****   HAL_GPIO_Init(GPIOH, &GPIO_InitStruct);
 348              		.loc 1 200 0
 349 0074 05A9     		add	r1, sp, #20
 350 0076 1048     		ldr	r0, .L12+16
 351 0078 FFF7FEFF 		bl	HAL_GPIO_Init
 352              	.LVL16:
 201:../Core/src/mlm32l0xx_hw.c **** 
 353              		.loc 1 201 0
 354 007c 05A9     		add	r1, sp, #20
 355 007e 0F48     		ldr	r0, .L12+20
 356 0080 FFF7FEFF 		bl	HAL_GPIO_Init
 357              	.LVL17:
 204:../Core/src/mlm32l0xx_hw.c ****   __HAL_RCC_GPIOB_CLK_DISABLE();
 358              		.loc 1 204 0
 359 0084 4246     		mov	r2, r8
 360 0086 E36A     		ldr	r3, [r4, #44]
 361 0088 9343     		bics	r3, r2
 362 008a E362     		str	r3, [r4, #44]
 205:../Core/src/mlm32l0xx_hw.c ****   __HAL_RCC_GPIOC_CLK_DISABLE();
 363              		.loc 1 205 0
 364 008c E36A     		ldr	r3, [r4, #44]
 365 008e BB43     		bics	r3, r7
 366 0090 E362     		str	r3, [r4, #44]
 206:../Core/src/mlm32l0xx_hw.c ****   __HAL_RCC_GPIOH_CLK_DISABLE();
 367              		.loc 1 206 0
 368 0092 E36A     		ldr	r3, [r4, #44]
 369 0094 B343     		bics	r3, r6
 370 0096 E362     		str	r3, [r4, #44]
 207:../Core/src/mlm32l0xx_hw.c **** }
 371              		.loc 1 207 0
 372 0098 E36A     		ldr	r3, [r4, #44]
 373 009a AB43     		bics	r3, r5
 374 009c E362     		str	r3, [r4, #44]
 208:../Core/src/mlm32l0xx_hw.c **** 
 375              		.loc 1 208 0
 376 009e 0AB0     		add	sp, sp, #40
 377              		@ sp needed
 378 00a0 04BC     		pop	{r2}
 379 00a2 9046     		mov	r8, r2
 380 00a4 F0BD     		pop	{r4, r5, r6, r7, pc}
 381              	.L13:
 382 00a6 C046     		.align	2
 383              	.L12:
 384 00a8 00100240 		.word	1073876992
 385 00ac FF9F0000 		.word	40959
 386 00b0 FFFF0000 		.word	65535
 387 00b4 00040050 		.word	1342178304
 388 00b8 00080050 		.word	1342179328
 389 00bc 001C0050 		.word	1342184448
 390              		.cfi_endproc
 391              	.LFE43:
 392              		.size	HW_GpioInit, .-HW_GpioInit
 393              		.section	.text.SystemClock_Config,"ax",%progbits
 394              		.align	1
 395              		.p2align 2,,3
 396              		.global	SystemClock_Config
 397              		.syntax unified
ARM GAS  C:\Users\EBANO_~1\AppData\Local\Temp\ccsZgiNd.s 			page 16


 398              		.code	16
 399              		.thumb_func
 400              		.fpu softvfp
 401              		.type	SystemClock_Config, %function
 402              	SystemClock_Config:
 403              	.LFB44:
 227:../Core/src/mlm32l0xx_hw.c ****   RCC_ClkInitTypeDef RCC_ClkInitStruct = {0};
 404              		.loc 1 227 0
 405              		.cfi_startproc
 406              		@ args = 0, pretend = 0, frame = 80
 407              		@ frame_needed = 0, uses_anonymous_args = 0
 408 0000 00B5     		push	{lr}
 409              	.LCFI6:
 410              		.cfi_def_cfa_offset 4
 411              		.cfi_offset 14, -4
 412 0002 95B0     		sub	sp, sp, #84
 413              	.LCFI7:
 414              		.cfi_def_cfa_offset 88
 228:../Core/src/mlm32l0xx_hw.c ****   RCC_OscInitTypeDef RCC_OscInitStruct = {0};
 415              		.loc 1 228 0
 416 0004 1422     		movs	r2, #20
 417 0006 0021     		movs	r1, #0
 418 0008 01A8     		add	r0, sp, #4
 419 000a FFF7FEFF 		bl	memset
 420              	.LVL18:
 229:../Core/src/mlm32l0xx_hw.c **** 
 421              		.loc 1 229 0
 422 000e 2C22     		movs	r2, #44
 423 0010 0021     		movs	r1, #0
 424 0012 07A8     		add	r0, sp, #28
 425 0014 FFF7FEFF 		bl	memset
 426              	.LVL19:
 232:../Core/src/mlm32l0xx_hw.c ****   RCC_OscInitStruct.HSEState            = RCC_HSE_OFF;
 427              		.loc 1 232 0
 428 0018 0223     		movs	r3, #2
 429 001a 0693     		str	r3, [sp, #24]
 236:../Core/src/mlm32l0xx_hw.c ****   RCC_OscInitStruct.PLL.PLLSource       = RCC_PLLSOURCE_HSI;
 430              		.loc 1 236 0
 431 001c 1093     		str	r3, [sp, #64]
 238:../Core/src/mlm32l0xx_hw.c ****   RCC_OscInitStruct.PLL.PLLDIV          = RCC_PLLDIV_3;
 432              		.loc 1 238 0
 433 001e 8023     		movs	r3, #128
 434 0020 1B03     		lsls	r3, r3, #12
 234:../Core/src/mlm32l0xx_hw.c ****   RCC_OscInitStruct.HSICalibrationValue = RCC_HSICALIBRATION_DEFAULT;
 435              		.loc 1 234 0
 436 0022 0122     		movs	r2, #1
 238:../Core/src/mlm32l0xx_hw.c ****   RCC_OscInitStruct.PLL.PLLDIV          = RCC_PLLDIV_3;
 437              		.loc 1 238 0
 438 0024 1293     		str	r3, [sp, #72]
 239:../Core/src/mlm32l0xx_hw.c **** 
 439              		.loc 1 239 0
 440 0026 8023     		movs	r3, #128
 234:../Core/src/mlm32l0xx_hw.c ****   RCC_OscInitStruct.HSICalibrationValue = RCC_HSICALIBRATION_DEFAULT;
 441              		.loc 1 234 0
 442 0028 0992     		str	r2, [sp, #36]
 239:../Core/src/mlm32l0xx_hw.c **** 
 443              		.loc 1 239 0
ARM GAS  C:\Users\EBANO_~1\AppData\Local\Temp\ccsZgiNd.s 			page 17


 444 002a 1B04     		lsls	r3, r3, #16
 235:../Core/src/mlm32l0xx_hw.c ****   RCC_OscInitStruct.PLL.PLLState        = RCC_PLL_ON;
 445              		.loc 1 235 0
 446 002c 0F32     		adds	r2, r2, #15
 241:../Core/src/mlm32l0xx_hw.c ****   {
 447              		.loc 1 241 0
 448 002e 06A8     		add	r0, sp, #24
 235:../Core/src/mlm32l0xx_hw.c ****   RCC_OscInitStruct.PLL.PLLState        = RCC_PLL_ON;
 449              		.loc 1 235 0
 450 0030 0A92     		str	r2, [sp, #40]
 239:../Core/src/mlm32l0xx_hw.c **** 
 451              		.loc 1 239 0
 452 0032 1393     		str	r3, [sp, #76]
 241:../Core/src/mlm32l0xx_hw.c ****   {
 453              		.loc 1 241 0
 454 0034 FFF7FEFF 		bl	HAL_RCC_OscConfig
 455              	.LVL20:
 456 0038 0028     		cmp	r0, #0
 457 003a 22D1     		bne	.L25
 458              	.L15:
 247:../Core/src/mlm32l0xx_hw.c ****   __HAL_PWR_VOLTAGESCALING_CONFIG(PWR_REGULATOR_VOLTAGE_SCALE1);
 459              		.loc 1 247 0
 460 003c 8023     		movs	r3, #128
 461 003e 124A     		ldr	r2, .L26
 462 0040 5B05     		lsls	r3, r3, #21
 463 0042 916B     		ldr	r1, [r2, #56]
 464 0044 0B43     		orrs	r3, r1
 465 0046 9363     		str	r3, [r2, #56]
 248:../Core/src/mlm32l0xx_hw.c ****   
 466              		.loc 1 248 0
 467 0048 104A     		ldr	r2, .L26+4
 468 004a 1149     		ldr	r1, .L26+8
 469 004c 1368     		ldr	r3, [r2]
 470 004e 1940     		ands	r1, r3
 471 0050 8023     		movs	r3, #128
 472 0052 1B01     		lsls	r3, r3, #4
 473 0054 0B43     		orrs	r3, r1
 251:../Core/src/mlm32l0xx_hw.c **** 
 474              		.loc 1 251 0
 475 0056 1021     		movs	r1, #16
 248:../Core/src/mlm32l0xx_hw.c ****   
 476              		.loc 1 248 0
 477 0058 1360     		str	r3, [r2]
 478              	.L16:
 251:../Core/src/mlm32l0xx_hw.c **** 
 479              		.loc 1 251 0 discriminator 1
 480 005a 5368     		ldr	r3, [r2, #4]
 481 005c 0B40     		ands	r3, r1
 482 005e FCD1     		bne	.L16
 255:../Core/src/mlm32l0xx_hw.c ****   RCC_ClkInitStruct.SYSCLKSource = RCC_SYSCLKSOURCE_PLLCLK;
 483              		.loc 1 255 0
 484 0060 0F22     		movs	r2, #15
 260:../Core/src/mlm32l0xx_hw.c ****   {
 485              		.loc 1 260 0
 486 0062 0121     		movs	r1, #1
 255:../Core/src/mlm32l0xx_hw.c ****   RCC_ClkInitStruct.SYSCLKSource = RCC_SYSCLKSOURCE_PLLCLK;
 487              		.loc 1 255 0
ARM GAS  C:\Users\EBANO_~1\AppData\Local\Temp\ccsZgiNd.s 			page 18


 488 0064 0192     		str	r2, [sp, #4]
 260:../Core/src/mlm32l0xx_hw.c ****   {
 489              		.loc 1 260 0
 490 0066 01A8     		add	r0, sp, #4
 256:../Core/src/mlm32l0xx_hw.c ****   RCC_ClkInitStruct.AHBCLKDivider = RCC_SYSCLK_DIV1;
 491              		.loc 1 256 0
 492 0068 0C3A     		subs	r2, r2, #12
 493 006a 0292     		str	r2, [sp, #8]
 257:../Core/src/mlm32l0xx_hw.c ****   RCC_ClkInitStruct.APB1CLKDivider = RCC_HCLK_DIV1;
 494              		.loc 1 257 0
 495 006c 0393     		str	r3, [sp, #12]
 258:../Core/src/mlm32l0xx_hw.c ****   RCC_ClkInitStruct.APB2CLKDivider = RCC_HCLK_DIV1;
 496              		.loc 1 258 0
 497 006e 0493     		str	r3, [sp, #16]
 259:../Core/src/mlm32l0xx_hw.c ****   if (HAL_RCC_ClockConfig(&RCC_ClkInitStruct, FLASH_LATENCY_1) != HAL_OK)
 498              		.loc 1 259 0
 499 0070 0593     		str	r3, [sp, #20]
 260:../Core/src/mlm32l0xx_hw.c ****   {
 500              		.loc 1 260 0
 501 0072 FFF7FEFF 		bl	HAL_RCC_ClockConfig
 502              	.LVL21:
 503 0076 0028     		cmp	r0, #0
 504 0078 01D0     		beq	.L14
 262:../Core/src/mlm32l0xx_hw.c ****   }
 505              		.loc 1 262 0
 506 007a FFF7FEFF 		bl	Error_Handler
 507              	.LVL22:
 508              	.L14:
 264:../Core/src/mlm32l0xx_hw.c **** /**
 509              		.loc 1 264 0
 510 007e 15B0     		add	sp, sp, #84
 511              		@ sp needed
 512 0080 00BD     		pop	{pc}
 513              	.L25:
 243:../Core/src/mlm32l0xx_hw.c ****   }
 514              		.loc 1 243 0
 515 0082 FFF7FEFF 		bl	Error_Handler
 516              	.LVL23:
 517 0086 D9E7     		b	.L15
 518              	.L27:
 519              		.align	2
 520              	.L26:
 521 0088 00100240 		.word	1073876992
 522 008c 00700040 		.word	1073770496
 523 0090 FFE7FFFF 		.word	-6145
 524              		.cfi_endproc
 525              	.LFE44:
 526              		.size	SystemClock_Config, .-SystemClock_Config
 527              		.section	.text.HW_GetRandomSeed,"ax",%progbits
 528              		.align	1
 529              		.p2align 2,,3
 530              		.global	HW_GetRandomSeed
 531              		.syntax unified
 532              		.code	16
 533              		.thumb_func
 534              		.fpu softvfp
 535              		.type	HW_GetRandomSeed, %function
ARM GAS  C:\Users\EBANO_~1\AppData\Local\Temp\ccsZgiNd.s 			page 19


 536              	HW_GetRandomSeed:
 537              	.LFB45:
 272:../Core/src/mlm32l0xx_hw.c ****   return ( ( *( uint32_t* )ID1 ) ^ ( *( uint32_t* )ID2 ) ^ ( *( uint32_t* )ID3 ) );
 538              		.loc 1 272 0
 539              		.cfi_startproc
 540              		@ args = 0, pretend = 0, frame = 0
 541              		@ frame_needed = 0, uses_anonymous_args = 0
 542              		@ link register save eliminated.
 273:../Core/src/mlm32l0xx_hw.c **** }
 543              		.loc 1 273 0
 544 0000 044B     		ldr	r3, .L29
 274:../Core/src/mlm32l0xx_hw.c **** 
 545              		.loc 1 274 0
 546              		@ sp needed
 273:../Core/src/mlm32l0xx_hw.c **** }
 547              		.loc 1 273 0
 548 0002 1868     		ldr	r0, [r3]
 549 0004 044B     		ldr	r3, .L29+4
 550 0006 1B68     		ldr	r3, [r3]
 551 0008 5840     		eors	r0, r3
 552 000a 044B     		ldr	r3, .L29+8
 553 000c 1B68     		ldr	r3, [r3]
 554 000e 5840     		eors	r0, r3
 274:../Core/src/mlm32l0xx_hw.c **** 
 555              		.loc 1 274 0
 556 0010 7047     		bx	lr
 557              	.L30:
 558 0012 C046     		.align	2
 559              	.L29:
 560 0014 5000F81F 		.word	536346704
 561 0018 5400F81F 		.word	536346708
 562 001c 6400F81F 		.word	536346724
 563              		.cfi_endproc
 564              	.LFE45:
 565              		.size	HW_GetRandomSeed, .-HW_GetRandomSeed
 566              		.section	.text.HW_GetUniqueId,"ax",%progbits
 567              		.align	1
 568              		.p2align 2,,3
 569              		.global	HW_GetUniqueId
 570              		.syntax unified
 571              		.code	16
 572              		.thumb_func
 573              		.fpu softvfp
 574              		.type	HW_GetUniqueId, %function
 575              	HW_GetUniqueId:
 576              	.LFB46:
 282:../Core/src/mlm32l0xx_hw.c ****     id[7] = ( ( *( uint32_t* )ID1 )+ ( *( uint32_t* )ID3 ) ) >> 24;
 577              		.loc 1 282 0
 578              		.cfi_startproc
 579              		@ args = 0, pretend = 0, frame = 0
 580              		@ frame_needed = 0, uses_anonymous_args = 0
 581              	.LVL24:
 283:../Core/src/mlm32l0xx_hw.c ****     id[6] = ( ( *( uint32_t* )ID1 )+ ( *( uint32_t* )ID3 ) ) >> 16;
 582              		.loc 1 283 0
 583 0000 1349     		ldr	r1, .L32
 584 0002 144A     		ldr	r2, .L32+4
 585 0004 0B68     		ldr	r3, [r1]
ARM GAS  C:\Users\EBANO_~1\AppData\Local\Temp\ccsZgiNd.s 			page 20


 282:../Core/src/mlm32l0xx_hw.c ****     id[7] = ( ( *( uint32_t* )ID1 )+ ( *( uint32_t* )ID3 ) ) >> 24;
 586              		.loc 1 282 0
 587 0006 10B5     		push	{r4, lr}
 588              	.LCFI8:
 589              		.cfi_def_cfa_offset 8
 590              		.cfi_offset 4, -8
 591              		.cfi_offset 14, -4
 283:../Core/src/mlm32l0xx_hw.c ****     id[6] = ( ( *( uint32_t* )ID1 )+ ( *( uint32_t* )ID3 ) ) >> 16;
 592              		.loc 1 283 0
 593 0008 1C00     		movs	r4, r3
 594 000a 1368     		ldr	r3, [r2]
 291:../Core/src/mlm32l0xx_hw.c **** 
 595              		.loc 1 291 0
 596              		@ sp needed
 283:../Core/src/mlm32l0xx_hw.c ****     id[6] = ( ( *( uint32_t* )ID1 )+ ( *( uint32_t* )ID3 ) ) >> 16;
 597              		.loc 1 283 0
 598 000c 9C46     		mov	ip, r3
 599 000e 6444     		add	r4, r4, ip
 600 0010 230E     		lsrs	r3, r4, #24
 601 0012 C371     		strb	r3, [r0, #7]
 284:../Core/src/mlm32l0xx_hw.c ****     id[5] = ( ( *( uint32_t* )ID1 )+ ( *( uint32_t* )ID3 ) ) >> 8;
 602              		.loc 1 284 0
 603 0014 0B68     		ldr	r3, [r1]
 604 0016 1C00     		movs	r4, r3
 605 0018 1368     		ldr	r3, [r2]
 606 001a 9C46     		mov	ip, r3
 607 001c 6444     		add	r4, r4, ip
 608 001e 230C     		lsrs	r3, r4, #16
 609 0020 8371     		strb	r3, [r0, #6]
 285:../Core/src/mlm32l0xx_hw.c ****     id[4] = ( ( *( uint32_t* )ID1 )+ ( *( uint32_t* )ID3 ) );
 610              		.loc 1 285 0
 611 0022 0B68     		ldr	r3, [r1]
 612 0024 1C00     		movs	r4, r3
 613 0026 1368     		ldr	r3, [r2]
 614 0028 9C46     		mov	ip, r3
 615 002a 6444     		add	r4, r4, ip
 616 002c 230A     		lsrs	r3, r4, #8
 617 002e 4371     		strb	r3, [r0, #5]
 286:../Core/src/mlm32l0xx_hw.c ****     id[3] = ( ( *( uint32_t* )ID2 ) ) >> 24;
 618              		.loc 1 286 0
 619 0030 1268     		ldr	r2, [r2]
 620 0032 0B68     		ldr	r3, [r1]
 621 0034 9B18     		adds	r3, r3, r2
 622 0036 0371     		strb	r3, [r0, #4]
 287:../Core/src/mlm32l0xx_hw.c ****     id[2] = ( ( *( uint32_t* )ID2 ) ) >> 16;
 623              		.loc 1 287 0
 624 0038 074B     		ldr	r3, .L32+8
 625 003a DA78     		ldrb	r2, [r3, #3]
 626 003c C270     		strb	r2, [r0, #3]
 288:../Core/src/mlm32l0xx_hw.c ****     id[1] = ( ( *( uint32_t* )ID2 ) ) >> 8;
 627              		.loc 1 288 0
 628 003e 5A88     		ldrh	r2, [r3, #2]
 629 0040 8270     		strb	r2, [r0, #2]
 289:../Core/src/mlm32l0xx_hw.c ****     id[0] = ( ( *( uint32_t* )ID2 ) );
 630              		.loc 1 289 0
 631 0042 1A68     		ldr	r2, [r3]
 632 0044 120A     		lsrs	r2, r2, #8
ARM GAS  C:\Users\EBANO_~1\AppData\Local\Temp\ccsZgiNd.s 			page 21


 633 0046 4270     		strb	r2, [r0, #1]
 290:../Core/src/mlm32l0xx_hw.c **** }
 634              		.loc 1 290 0
 635 0048 1B68     		ldr	r3, [r3]
 636 004a 0370     		strb	r3, [r0]
 291:../Core/src/mlm32l0xx_hw.c **** 
 637              		.loc 1 291 0
 638 004c 10BD     		pop	{r4, pc}
 639              	.L33:
 640 004e C046     		.align	2
 641              	.L32:
 642 0050 5000F81F 		.word	536346704
 643 0054 6400F81F 		.word	536346724
 644 0058 5400F81F 		.word	536346708
 645              		.cfi_endproc
 646              	.LFE46:
 647              		.size	HW_GetUniqueId, .-HW_GetUniqueId
 648              		.global	__aeabi_uidiv
 649              		.global	__aeabi_idiv
 650              		.section	.text.HW_GetTemperatureLevel,"ax",%progbits
 651              		.align	1
 652              		.p2align 2,,3
 653              		.global	HW_GetTemperatureLevel
 654              		.syntax unified
 655              		.code	16
 656              		.thumb_func
 657              		.fpu softvfp
 658              		.type	HW_GetTemperatureLevel, %function
 659              	HW_GetTemperatureLevel:
 660              	.LFB47:
 294:../Core/src/mlm32l0xx_hw.c ****   uint16_t measuredLevel =0; 
 661              		.loc 1 294 0
 662              		.cfi_startproc
 663              		@ args = 0, pretend = 0, frame = 8
 664              		@ frame_needed = 0, uses_anonymous_args = 0
 665              	.LVL25:
 666 0000 F0B5     		push	{r4, r5, r6, r7, lr}
 667              	.LCFI9:
 668              		.cfi_def_cfa_offset 20
 669              		.cfi_offset 4, -20
 670              		.cfi_offset 5, -16
 671              		.cfi_offset 6, -12
 672              		.cfi_offset 7, -8
 673              		.cfi_offset 14, -4
 674              	.LBB51:
 675              	.LBB52:
 399:../Core/src/mlm32l0xx_hw.c **** 
 400:../Core/src/mlm32l0xx_hw.c ****   }
 401:../Core/src/mlm32l0xx_hw.c **** }
 402:../Core/src/mlm32l0xx_hw.c **** /**
 403:../Core/src/mlm32l0xx_hw.c ****   * @brief This function De-initializes the ADC
 404:../Core/src/mlm32l0xx_hw.c ****   * @param none
 405:../Core/src/mlm32l0xx_hw.c ****   * @retval none
 406:../Core/src/mlm32l0xx_hw.c ****   */
 407:../Core/src/mlm32l0xx_hw.c **** void HW_AdcDeInit( void )
 408:../Core/src/mlm32l0xx_hw.c **** {
 409:../Core/src/mlm32l0xx_hw.c ****   AdcInitialized = false;
ARM GAS  C:\Users\EBANO_~1\AppData\Local\Temp\ccsZgiNd.s 			page 22


 410:../Core/src/mlm32l0xx_hw.c **** }
 411:../Core/src/mlm32l0xx_hw.c **** 
 412:../Core/src/mlm32l0xx_hw.c **** /**
 413:../Core/src/mlm32l0xx_hw.c ****   * @brief This function De-initializes the ADC
 414:../Core/src/mlm32l0xx_hw.c ****   * @param Channel
 415:../Core/src/mlm32l0xx_hw.c ****   * @retval Value
 416:../Core/src/mlm32l0xx_hw.c ****   */
 417:../Core/src/mlm32l0xx_hw.c **** uint16_t HW_AdcReadChannel( uint32_t Channel )
 418:../Core/src/mlm32l0xx_hw.c **** {
 419:../Core/src/mlm32l0xx_hw.c **** 
 420:../Core/src/mlm32l0xx_hw.c ****   ADC_ChannelConfTypeDef adcConf;
 421:../Core/src/mlm32l0xx_hw.c ****   uint16_t adcData = 0;
 422:../Core/src/mlm32l0xx_hw.c ****   
 423:../Core/src/mlm32l0xx_hw.c ****   if( AdcInitialized == true )
 676              		.loc 1 423 0
 677 0002 504C     		ldr	r4, .L51
 678              	.LBE52:
 679              	.LBE51:
 294:../Core/src/mlm32l0xx_hw.c ****   uint16_t measuredLevel =0; 
 680              		.loc 1 294 0
 681 0004 83B0     		sub	sp, sp, #12
 682              	.LCFI10:
 683              		.cfi_def_cfa_offset 32
 684              	.LBB57:
 685              	.LBB55:
 686              		.loc 1 423 0
 687 0006 6378     		ldrb	r3, [r4, #1]
 688 0008 0020     		movs	r0, #0
 689 000a 002B     		cmp	r3, #0
 690 000c 11D1     		bne	.L49
 691              	.LVL26:
 692              	.L35:
 693              	.LBE55:
 694              	.LBE57:
 315:../Core/src/mlm32l0xx_hw.c **** 
 695              		.loc 1 315 0
 696 000e 4E4B     		ldr	r3, .L51+4
 697 0010 1A88     		ldrh	r2, [r3]
 698              	.LVL27:
 699 0012 831A     		subs	r3, r0, r2
 700 0014 9800     		lsls	r0, r3, #2
 701              	.LVL28:
 702 0016 C018     		adds	r0, r0, r3
 703 0018 4C4B     		ldr	r3, .L51+8
 704 001a 0003     		lsls	r0, r0, #12
 705 001c 1988     		ldrh	r1, [r3]
 706 001e 891A     		subs	r1, r1, r2
 707 0020 FFF7FEFF 		bl	__aeabi_idiv
 708              	.LVL29:
 709 0024 F023     		movs	r3, #240
 710 0026 5B01     		lsls	r3, r3, #5
 711 0028 9C46     		mov	ip, r3
 712 002a 6044     		add	r0, r0, ip
 325:../Core/src/mlm32l0xx_hw.c **** }
 713              		.loc 1 325 0
 714 002c 80B2     		uxth	r0, r0
 326:../Core/src/mlm32l0xx_hw.c **** /**
ARM GAS  C:\Users\EBANO_~1\AppData\Local\Temp\ccsZgiNd.s 			page 23


 715              		.loc 1 326 0
 716 002e 03B0     		add	sp, sp, #12
 717              		@ sp needed
 718 0030 F0BD     		pop	{r4, r5, r6, r7, pc}
 719              	.LVL30:
 720              	.L49:
 721              	.LBB58:
 722              	.LBB56:
 723              	.LBB53:
 724              	.LBB54:
 424:../Core/src/mlm32l0xx_hw.c ****   {
 425:../Core/src/mlm32l0xx_hw.c ****     /* wait the the Vrefint used by adc is set */
 426:../Core/src/mlm32l0xx_hw.c ****     while (__HAL_PWR_GET_FLAG(PWR_FLAG_VREFINTRDY) == RESET) {};
 725              		.loc 1 426 0
 726 0032 0822     		movs	r2, #8
 727 0034 4649     		ldr	r1, .L51+12
 728              	.L36:
 729 0036 4B68     		ldr	r3, [r1, #4]
 730 0038 1A42     		tst	r2, r3
 731 003a FCD0     		beq	.L36
 427:../Core/src/mlm32l0xx_hw.c ****       
 428:../Core/src/mlm32l0xx_hw.c ****     ADCCLK_ENABLE();
 732              		.loc 1 428 0
 733 003c 8023     		movs	r3, #128
 734 003e 454E     		ldr	r6, .L51+16
 735 0040 9B00     		lsls	r3, r3, #2
 736 0042 726B     		ldr	r2, [r6, #52]
 429:../Core/src/mlm32l0xx_hw.c ****     
 430:../Core/src/mlm32l0xx_hw.c ****     /*calibrate ADC if any calibraiton hardware*/
 431:../Core/src/mlm32l0xx_hw.c ****     HAL_ADCEx_Calibration_Start(&hadc, ADC_SINGLE_ENDED );
 737              		.loc 1 431 0
 738 0044 251D     		adds	r5, r4, #4
 428:../Core/src/mlm32l0xx_hw.c ****     
 739              		.loc 1 428 0
 740 0046 1343     		orrs	r3, r2
 741 0048 7363     		str	r3, [r6, #52]
 742              		.loc 1 431 0
 743 004a 0021     		movs	r1, #0
 744 004c 2800     		movs	r0, r5
 745 004e FFF7FEFF 		bl	HAL_ADCEx_Calibration_Start
 746              	.LVL31:
 432:../Core/src/mlm32l0xx_hw.c ****     
 433:../Core/src/mlm32l0xx_hw.c ****     /* Deselects all channels*/
 434:../Core/src/mlm32l0xx_hw.c ****     adcConf.Channel = ADC_CHANNEL_MASK;
 747              		.loc 1 434 0
 748 0052 414B     		ldr	r3, .L51+20
 435:../Core/src/mlm32l0xx_hw.c ****     adcConf.Rank = ADC_RANK_NONE; 
 436:../Core/src/mlm32l0xx_hw.c ****     HAL_ADC_ConfigChannel( &hadc, &adcConf);
 749              		.loc 1 436 0
 750 0054 6946     		mov	r1, sp
 434:../Core/src/mlm32l0xx_hw.c ****     adcConf.Rank = ADC_RANK_NONE; 
 751              		.loc 1 434 0
 752 0056 0093     		str	r3, [sp]
 435:../Core/src/mlm32l0xx_hw.c ****     adcConf.Rank = ADC_RANK_NONE; 
 753              		.loc 1 435 0
 754 0058 404B     		ldr	r3, .L51+24
 755              		.loc 1 436 0
ARM GAS  C:\Users\EBANO_~1\AppData\Local\Temp\ccsZgiNd.s 			page 24


 756 005a 2800     		movs	r0, r5
 435:../Core/src/mlm32l0xx_hw.c ****     adcConf.Rank = ADC_RANK_NONE; 
 757              		.loc 1 435 0
 758 005c 0193     		str	r3, [sp, #4]
 759              		.loc 1 436 0
 760 005e FFF7FEFF 		bl	HAL_ADC_ConfigChannel
 761              	.LVL32:
 437:../Core/src/mlm32l0xx_hw.c ****       
 438:../Core/src/mlm32l0xx_hw.c ****     /* configure adc channel */
 439:../Core/src/mlm32l0xx_hw.c ****     adcConf.Channel = Channel;
 762              		.loc 1 439 0
 763 0062 3F4B     		ldr	r3, .L51+28
 440:../Core/src/mlm32l0xx_hw.c ****     adcConf.Rank = ADC_RANK_CHANNEL_NUMBER;
 441:../Core/src/mlm32l0xx_hw.c ****     HAL_ADC_ConfigChannel( &hadc, &adcConf);
 764              		.loc 1 441 0
 765 0064 6946     		mov	r1, sp
 439:../Core/src/mlm32l0xx_hw.c ****     adcConf.Rank = ADC_RANK_CHANNEL_NUMBER;
 766              		.loc 1 439 0
 767 0066 0093     		str	r3, [sp]
 440:../Core/src/mlm32l0xx_hw.c ****     adcConf.Rank = ADC_RANK_CHANNEL_NUMBER;
 768              		.loc 1 440 0
 769 0068 8023     		movs	r3, #128
 770              		.loc 1 441 0
 771 006a 2800     		movs	r0, r5
 440:../Core/src/mlm32l0xx_hw.c ****     adcConf.Rank = ADC_RANK_CHANNEL_NUMBER;
 772              		.loc 1 440 0
 773 006c 5B01     		lsls	r3, r3, #5
 774 006e 0193     		str	r3, [sp, #4]
 775              		.loc 1 441 0
 776 0070 FFF7FEFF 		bl	HAL_ADC_ConfigChannel
 777              	.LVL33:
 442:../Core/src/mlm32l0xx_hw.c **** 
 443:../Core/src/mlm32l0xx_hw.c ****     /* Start the conversion process */
 444:../Core/src/mlm32l0xx_hw.c ****     HAL_ADC_Start( &hadc);
 778              		.loc 1 444 0
 779 0074 2800     		movs	r0, r5
 780 0076 FFF7FEFF 		bl	HAL_ADC_Start
 781              	.LVL34:
 445:../Core/src/mlm32l0xx_hw.c ****       
 446:../Core/src/mlm32l0xx_hw.c ****     /* Wait for the end of conversion */
 447:../Core/src/mlm32l0xx_hw.c ****     HAL_ADC_PollForConversion( &hadc, HAL_MAX_DELAY );
 782              		.loc 1 447 0
 783 007a 0121     		movs	r1, #1
 784 007c 2800     		movs	r0, r5
 785 007e 4942     		rsbs	r1, r1, #0
 786 0080 FFF7FEFF 		bl	HAL_ADC_PollForConversion
 787              	.LVL35:
 448:../Core/src/mlm32l0xx_hw.c ****       
 449:../Core/src/mlm32l0xx_hw.c ****     /* Get the converted value of regular channel */
 450:../Core/src/mlm32l0xx_hw.c ****     adcData = HAL_ADC_GetValue ( &hadc);
 788              		.loc 1 450 0
 789 0084 2800     		movs	r0, r5
 790 0086 FFF7FEFF 		bl	HAL_ADC_GetValue
 791              	.LVL36:
 451:../Core/src/mlm32l0xx_hw.c **** 
 452:../Core/src/mlm32l0xx_hw.c ****     __HAL_ADC_DISABLE( &hadc) ;
 792              		.loc 1 452 0
ARM GAS  C:\Users\EBANO_~1\AppData\Local\Temp\ccsZgiNd.s 			page 25


 793 008a 0221     		movs	r1, #2
 794 008c 6368     		ldr	r3, [r4, #4]
 795 008e 9A68     		ldr	r2, [r3, #8]
 796 0090 0A43     		orrs	r2, r1
 797 0092 9A60     		str	r2, [r3, #8]
 798 0094 0322     		movs	r2, #3
 799 0096 1A60     		str	r2, [r3]
 453:../Core/src/mlm32l0xx_hw.c **** 
 454:../Core/src/mlm32l0xx_hw.c ****     ADCCLK_DISABLE();
 800              		.loc 1 454 0
 801 0098 736B     		ldr	r3, [r6, #52]
 802 009a 324A     		ldr	r2, .L51+32
 803 009c 1340     		ands	r3, r2
 804 009e 7363     		str	r3, [r6, #52]
 805              	.LVL37:
 806              	.LBE54:
 807              	.LBE53:
 808              	.LBE56:
 809              	.LBE58:
 301:../Core/src/mlm32l0xx_hw.c ****   {
 810              		.loc 1 301 0
 811 00a0 83B2     		uxth	r3, r0
 303:../Core/src/mlm32l0xx_hw.c ****   }
 812              		.loc 1 303 0
 813 00a2 0026     		movs	r6, #0
 301:../Core/src/mlm32l0xx_hw.c ****   {
 814              		.loc 1 301 0
 815 00a4 002B     		cmp	r3, #0
 816 00a6 41D1     		bne	.L50
 817              	.L37:
 818              	.LVL38:
 819              	.LBB59:
 820              	.LBB60:
 423:../Core/src/mlm32l0xx_hw.c ****   {
 821              		.loc 1 423 0
 822 00a8 6378     		ldrb	r3, [r4, #1]
 823 00aa 0020     		movs	r0, #0
 824 00ac 002B     		cmp	r3, #0
 825 00ae AED0     		beq	.L35
 826              	.LBB61:
 827              	.LBB62:
 426:../Core/src/mlm32l0xx_hw.c ****       
 828              		.loc 1 426 0
 829 00b0 0822     		movs	r2, #8
 830 00b2 2749     		ldr	r1, .L51+12
 831              	.L38:
 832 00b4 4B68     		ldr	r3, [r1, #4]
 833 00b6 1A42     		tst	r2, r3
 834 00b8 FCD0     		beq	.L38
 428:../Core/src/mlm32l0xx_hw.c ****     
 835              		.loc 1 428 0
 836 00ba 8023     		movs	r3, #128
 837 00bc 254F     		ldr	r7, .L51+16
 838 00be 9B00     		lsls	r3, r3, #2
 839 00c0 7A6B     		ldr	r2, [r7, #52]
 431:../Core/src/mlm32l0xx_hw.c ****     
 840              		.loc 1 431 0
ARM GAS  C:\Users\EBANO_~1\AppData\Local\Temp\ccsZgiNd.s 			page 26


 841 00c2 251D     		adds	r5, r4, #4
 428:../Core/src/mlm32l0xx_hw.c ****     
 842              		.loc 1 428 0
 843 00c4 1343     		orrs	r3, r2
 844 00c6 7B63     		str	r3, [r7, #52]
 431:../Core/src/mlm32l0xx_hw.c ****     
 845              		.loc 1 431 0
 846 00c8 0021     		movs	r1, #0
 847 00ca 2800     		movs	r0, r5
 848 00cc FFF7FEFF 		bl	HAL_ADCEx_Calibration_Start
 849              	.LVL39:
 434:../Core/src/mlm32l0xx_hw.c ****     adcConf.Rank = ADC_RANK_NONE; 
 850              		.loc 1 434 0
 851 00d0 214B     		ldr	r3, .L51+20
 436:../Core/src/mlm32l0xx_hw.c ****       
 852              		.loc 1 436 0
 853 00d2 6946     		mov	r1, sp
 434:../Core/src/mlm32l0xx_hw.c ****     adcConf.Rank = ADC_RANK_NONE; 
 854              		.loc 1 434 0
 855 00d4 0093     		str	r3, [sp]
 435:../Core/src/mlm32l0xx_hw.c ****     HAL_ADC_ConfigChannel( &hadc, &adcConf);
 856              		.loc 1 435 0
 857 00d6 214B     		ldr	r3, .L51+24
 436:../Core/src/mlm32l0xx_hw.c ****       
 858              		.loc 1 436 0
 859 00d8 2800     		movs	r0, r5
 435:../Core/src/mlm32l0xx_hw.c ****     HAL_ADC_ConfigChannel( &hadc, &adcConf);
 860              		.loc 1 435 0
 861 00da 0193     		str	r3, [sp, #4]
 436:../Core/src/mlm32l0xx_hw.c ****       
 862              		.loc 1 436 0
 863 00dc FFF7FEFF 		bl	HAL_ADC_ConfigChannel
 864              	.LVL40:
 439:../Core/src/mlm32l0xx_hw.c ****     adcConf.Rank = ADC_RANK_CHANNEL_NUMBER;
 865              		.loc 1 439 0
 866 00e0 214B     		ldr	r3, .L51+36
 441:../Core/src/mlm32l0xx_hw.c **** 
 867              		.loc 1 441 0
 868 00e2 6946     		mov	r1, sp
 439:../Core/src/mlm32l0xx_hw.c ****     adcConf.Rank = ADC_RANK_CHANNEL_NUMBER;
 869              		.loc 1 439 0
 870 00e4 0093     		str	r3, [sp]
 440:../Core/src/mlm32l0xx_hw.c ****     HAL_ADC_ConfigChannel( &hadc, &adcConf);
 871              		.loc 1 440 0
 872 00e6 8023     		movs	r3, #128
 441:../Core/src/mlm32l0xx_hw.c **** 
 873              		.loc 1 441 0
 874 00e8 2800     		movs	r0, r5
 440:../Core/src/mlm32l0xx_hw.c ****     HAL_ADC_ConfigChannel( &hadc, &adcConf);
 875              		.loc 1 440 0
 876 00ea 5B01     		lsls	r3, r3, #5
 877 00ec 0193     		str	r3, [sp, #4]
 441:../Core/src/mlm32l0xx_hw.c **** 
 878              		.loc 1 441 0
 879 00ee FFF7FEFF 		bl	HAL_ADC_ConfigChannel
 880              	.LVL41:
 444:../Core/src/mlm32l0xx_hw.c ****       
ARM GAS  C:\Users\EBANO_~1\AppData\Local\Temp\ccsZgiNd.s 			page 27


 881              		.loc 1 444 0
 882 00f2 2800     		movs	r0, r5
 883 00f4 FFF7FEFF 		bl	HAL_ADC_Start
 884              	.LVL42:
 447:../Core/src/mlm32l0xx_hw.c ****       
 885              		.loc 1 447 0
 886 00f8 0121     		movs	r1, #1
 887 00fa 2800     		movs	r0, r5
 888 00fc 4942     		rsbs	r1, r1, #0
 889 00fe FFF7FEFF 		bl	HAL_ADC_PollForConversion
 890              	.LVL43:
 450:../Core/src/mlm32l0xx_hw.c **** 
 891              		.loc 1 450 0
 892 0102 2800     		movs	r0, r5
 893 0104 FFF7FEFF 		bl	HAL_ADC_GetValue
 894              	.LVL44:
 452:../Core/src/mlm32l0xx_hw.c **** 
 895              		.loc 1 452 0
 896 0108 0221     		movs	r1, #2
 897 010a 6368     		ldr	r3, [r4, #4]
 898 010c 0004     		lsls	r0, r0, #16
 899              	.LVL45:
 900 010e 9A68     		ldr	r2, [r3, #8]
 901 0110 000C     		lsrs	r0, r0, #16
 902 0112 0A43     		orrs	r2, r1
 903 0114 9A60     		str	r2, [r3, #8]
 904 0116 0322     		movs	r2, #3
 905 0118 1A60     		str	r2, [r3]
 906              		.loc 1 454 0
 907 011a 7B6B     		ldr	r3, [r7, #52]
 908 011c 114A     		ldr	r2, .L51+32
 909 011e 7043     		muls	r0, r6
 910 0120 1340     		ands	r3, r2
 911 0122 7B63     		str	r3, [r7, #52]
 912 0124 1149     		ldr	r1, .L51+40
 913 0126 FFF7FEFF 		bl	__aeabi_uidiv
 914              	.LVL46:
 915 012a 70E7     		b	.L35
 916              	.LVL47:
 917              	.L50:
 918              	.LBE62:
 919              	.LBE61:
 920              	.LBE60:
 921              	.LBE59:
 307:../Core/src/mlm32l0xx_hw.c ****   }
 922              		.loc 1 307 0
 923 012c 104B     		ldr	r3, .L51+44
 924 012e 0104     		lsls	r1, r0, #16
 925 0130 1A88     		ldrh	r2, [r3]
 926 0132 0E4B     		ldr	r3, .L51+40
 927 0134 090C     		lsrs	r1, r1, #16
 928 0136 5343     		muls	r3, r2
 929 0138 1800     		movs	r0, r3
 930 013a FFF7FEFF 		bl	__aeabi_uidiv
 931              	.LVL48:
 932 013e 0600     		movs	r6, r0
 933              	.LVL49:
ARM GAS  C:\Users\EBANO_~1\AppData\Local\Temp\ccsZgiNd.s 			page 28


 934 0140 B2E7     		b	.L37
 935              	.L52:
 936 0142 C046     		.align	2
 937              	.L51:
 938 0144 00000000 		.word	.LANCHOR0
 939 0148 7A00F81F 		.word	536346746
 940 014c 7E00F81F 		.word	536346750
 941 0150 00700040 		.word	1073770496
 942 0154 00100240 		.word	1073876992
 943 0158 FFFF0700 		.word	524287
 944 015c 01100000 		.word	4097
 945 0160 00000244 		.word	1140981760
 946 0164 FFFDFFFF 		.word	-513
 947 0168 00000448 		.word	1208221696
 948 016c B80B0000 		.word	3000
 949 0170 7800F81F 		.word	536346744
 950              		.cfi_endproc
 951              	.LFE47:
 952              		.size	HW_GetTemperatureLevel, .-HW_GetTemperatureLevel
 953              		.section	.text.HW_GetBatteryLevel,"ax",%progbits
 954              		.align	1
 955              		.p2align 2,,3
 956              		.global	HW_GetBatteryLevel
 957              		.syntax unified
 958              		.code	16
 959              		.thumb_func
 960              		.fpu softvfp
 961              		.type	HW_GetBatteryLevel, %function
 962              	HW_GetBatteryLevel:
 963              	.LFB48:
 333:../Core/src/mlm32l0xx_hw.c ****   uint8_t batteryLevel = 0;
 964              		.loc 1 333 0
 965              		.cfi_startproc
 966              		@ args = 0, pretend = 0, frame = 8
 967              		@ frame_needed = 0, uses_anonymous_args = 0
 968              	.LVL50:
 969 0000 70B5     		push	{r4, r5, r6, lr}
 970              	.LCFI11:
 971              		.cfi_def_cfa_offset 16
 972              		.cfi_offset 4, -16
 973              		.cfi_offset 5, -12
 974              		.cfi_offset 6, -8
 975              		.cfi_offset 14, -4
 976              	.LBB67:
 977              	.LBB68:
 423:../Core/src/mlm32l0xx_hw.c ****   {
 978              		.loc 1 423 0
 979 0002 2F4C     		ldr	r4, .L65
 980              	.LBE68:
 981              	.LBE67:
 333:../Core/src/mlm32l0xx_hw.c ****   uint8_t batteryLevel = 0;
 982              		.loc 1 333 0
 983 0004 82B0     		sub	sp, sp, #8
 984              	.LCFI12:
 985              		.cfi_def_cfa_offset 24
 986              	.LBB73:
 987              	.LBB71:
ARM GAS  C:\Users\EBANO_~1\AppData\Local\Temp\ccsZgiNd.s 			page 29


 423:../Core/src/mlm32l0xx_hw.c ****   {
 988              		.loc 1 423 0
 989 0006 6378     		ldrb	r3, [r4, #1]
 990 0008 002B     		cmp	r3, #0
 991 000a 02D1     		bne	.L64
 992              	.LVL51:
 993              	.L56:
 994              	.LBE71:
 995              	.LBE73:
 355:../Core/src/mlm32l0xx_hw.c ****   }
 996              		.loc 1 355 0
 997 000c 0020     		movs	r0, #0
 998              	.LVL52:
 999              	.L55:
 362:../Core/src/mlm32l0xx_hw.c **** 
 1000              		.loc 1 362 0
 1001 000e 02B0     		add	sp, sp, #8
 1002              		@ sp needed
 1003 0010 70BD     		pop	{r4, r5, r6, pc}
 1004              	.LVL53:
 1005              	.L64:
 1006              	.LBB74:
 1007              	.LBB72:
 1008              	.LBB69:
 1009              	.LBB70:
 426:../Core/src/mlm32l0xx_hw.c ****       
 1010              		.loc 1 426 0
 1011 0012 0822     		movs	r2, #8
 1012 0014 2B49     		ldr	r1, .L65+4
 1013              	.L54:
 1014 0016 4B68     		ldr	r3, [r1, #4]
 1015 0018 1A42     		tst	r2, r3
 1016 001a FCD0     		beq	.L54
 428:../Core/src/mlm32l0xx_hw.c ****     
 1017              		.loc 1 428 0
 1018 001c 8023     		movs	r3, #128
 1019 001e 2A4E     		ldr	r6, .L65+8
 1020 0020 9B00     		lsls	r3, r3, #2
 1021 0022 726B     		ldr	r2, [r6, #52]
 431:../Core/src/mlm32l0xx_hw.c ****     
 1022              		.loc 1 431 0
 1023 0024 251D     		adds	r5, r4, #4
 428:../Core/src/mlm32l0xx_hw.c ****     
 1024              		.loc 1 428 0
 1025 0026 1343     		orrs	r3, r2
 1026 0028 7363     		str	r3, [r6, #52]
 431:../Core/src/mlm32l0xx_hw.c ****     
 1027              		.loc 1 431 0
 1028 002a 0021     		movs	r1, #0
 1029 002c 2800     		movs	r0, r5
 1030 002e FFF7FEFF 		bl	HAL_ADCEx_Calibration_Start
 1031              	.LVL54:
 434:../Core/src/mlm32l0xx_hw.c ****     adcConf.Rank = ADC_RANK_NONE; 
 1032              		.loc 1 434 0
 1033 0032 264B     		ldr	r3, .L65+12
 436:../Core/src/mlm32l0xx_hw.c ****       
 1034              		.loc 1 436 0
ARM GAS  C:\Users\EBANO_~1\AppData\Local\Temp\ccsZgiNd.s 			page 30


 1035 0034 6946     		mov	r1, sp
 434:../Core/src/mlm32l0xx_hw.c ****     adcConf.Rank = ADC_RANK_NONE; 
 1036              		.loc 1 434 0
 1037 0036 0093     		str	r3, [sp]
 435:../Core/src/mlm32l0xx_hw.c ****     HAL_ADC_ConfigChannel( &hadc, &adcConf);
 1038              		.loc 1 435 0
 1039 0038 254B     		ldr	r3, .L65+16
 436:../Core/src/mlm32l0xx_hw.c ****       
 1040              		.loc 1 436 0
 1041 003a 2800     		movs	r0, r5
 435:../Core/src/mlm32l0xx_hw.c ****     HAL_ADC_ConfigChannel( &hadc, &adcConf);
 1042              		.loc 1 435 0
 1043 003c 0193     		str	r3, [sp, #4]
 436:../Core/src/mlm32l0xx_hw.c ****       
 1044              		.loc 1 436 0
 1045 003e FFF7FEFF 		bl	HAL_ADC_ConfigChannel
 1046              	.LVL55:
 439:../Core/src/mlm32l0xx_hw.c ****     adcConf.Rank = ADC_RANK_CHANNEL_NUMBER;
 1047              		.loc 1 439 0
 1048 0042 244B     		ldr	r3, .L65+20
 441:../Core/src/mlm32l0xx_hw.c **** 
 1049              		.loc 1 441 0
 1050 0044 6946     		mov	r1, sp
 439:../Core/src/mlm32l0xx_hw.c ****     adcConf.Rank = ADC_RANK_CHANNEL_NUMBER;
 1051              		.loc 1 439 0
 1052 0046 0093     		str	r3, [sp]
 440:../Core/src/mlm32l0xx_hw.c ****     HAL_ADC_ConfigChannel( &hadc, &adcConf);
 1053              		.loc 1 440 0
 1054 0048 8023     		movs	r3, #128
 441:../Core/src/mlm32l0xx_hw.c **** 
 1055              		.loc 1 441 0
 1056 004a 2800     		movs	r0, r5
 440:../Core/src/mlm32l0xx_hw.c ****     HAL_ADC_ConfigChannel( &hadc, &adcConf);
 1057              		.loc 1 440 0
 1058 004c 5B01     		lsls	r3, r3, #5
 1059 004e 0193     		str	r3, [sp, #4]
 441:../Core/src/mlm32l0xx_hw.c **** 
 1060              		.loc 1 441 0
 1061 0050 FFF7FEFF 		bl	HAL_ADC_ConfigChannel
 1062              	.LVL56:
 444:../Core/src/mlm32l0xx_hw.c ****       
 1063              		.loc 1 444 0
 1064 0054 2800     		movs	r0, r5
 1065 0056 FFF7FEFF 		bl	HAL_ADC_Start
 1066              	.LVL57:
 447:../Core/src/mlm32l0xx_hw.c ****       
 1067              		.loc 1 447 0
 1068 005a 0121     		movs	r1, #1
 1069 005c 2800     		movs	r0, r5
 1070 005e 4942     		rsbs	r1, r1, #0
 1071 0060 FFF7FEFF 		bl	HAL_ADC_PollForConversion
 1072              	.LVL58:
 450:../Core/src/mlm32l0xx_hw.c **** 
 1073              		.loc 1 450 0
 1074 0064 2800     		movs	r0, r5
 1075 0066 FFF7FEFF 		bl	HAL_ADC_GetValue
 1076              	.LVL59:
ARM GAS  C:\Users\EBANO_~1\AppData\Local\Temp\ccsZgiNd.s 			page 31


 452:../Core/src/mlm32l0xx_hw.c **** 
 1077              		.loc 1 452 0
 1078 006a 0221     		movs	r1, #2
 1079 006c 6368     		ldr	r3, [r4, #4]
 1080 006e 9A68     		ldr	r2, [r3, #8]
 1081 0070 0A43     		orrs	r2, r1
 1082 0072 9A60     		str	r2, [r3, #8]
 1083 0074 0322     		movs	r2, #3
 1084 0076 1A60     		str	r2, [r3]
 1085              		.loc 1 454 0
 1086 0078 736B     		ldr	r3, [r6, #52]
 1087 007a 174A     		ldr	r2, .L65+24
 1088 007c 1340     		ands	r3, r2
 1089 007e 7363     		str	r3, [r6, #52]
 1090              	.LVL60:
 1091              	.LBE70:
 1092              	.LBE69:
 1093              	.LBE72:
 1094              	.LBE74:
 340:../Core/src/mlm32l0xx_hw.c ****   {
 1095              		.loc 1 340 0
 1096 0080 83B2     		uxth	r3, r0
 1097 0082 002B     		cmp	r3, #0
 1098 0084 C2D0     		beq	.L56
 346:../Core/src/mlm32l0xx_hw.c ****   }
 1099              		.loc 1 346 0
 1100 0086 154B     		ldr	r3, .L65+28
 1101 0088 154C     		ldr	r4, .L65+32
 1102 008a 1B88     		ldrh	r3, [r3]
 1103 008c 0104     		lsls	r1, r0, #16
 1104 008e 6343     		muls	r3, r4
 1105 0090 090C     		lsrs	r1, r1, #16
 1106 0092 1800     		movs	r0, r3
 1107 0094 FFF7FEFF 		bl	__aeabi_uidiv
 1108              	.LVL61:
 1109 0098 0200     		movs	r2, r0
 1110              	.LVL62:
 351:../Core/src/mlm32l0xx_hw.c ****   }
 1111              		.loc 1 351 0
 1112 009a FE20     		movs	r0, #254
 1113              	.LVL63:
 349:../Core/src/mlm32l0xx_hw.c ****   {
 1114              		.loc 1 349 0
 1115 009c A242     		cmp	r2, r4
 1116 009e B6D8     		bhi	.L55
 353:../Core/src/mlm32l0xx_hw.c ****   {
 1117              		.loc 1 353 0
 1118 00a0 104B     		ldr	r3, .L65+36
 1119 00a2 9A42     		cmp	r2, r3
 1120 00a4 B2D9     		bls	.L56
 359:../Core/src/mlm32l0xx_hw.c ****   }
 1121              		.loc 1 359 0
 1122 00a6 104B     		ldr	r3, .L65+40
 1123 00a8 9621     		movs	r1, #150
 1124 00aa 9C46     		mov	ip, r3
 1125 00ac D001     		lsls	r0, r2, #7
 1126 00ae 801A     		subs	r0, r0, r2
ARM GAS  C:\Users\EBANO_~1\AppData\Local\Temp\ccsZgiNd.s 			page 32


 1127 00b0 4000     		lsls	r0, r0, #1
 1128 00b2 6044     		add	r0, r0, ip
 1129 00b4 C900     		lsls	r1, r1, #3
 1130 00b6 FFF7FEFF 		bl	__aeabi_uidiv
 1131              	.LVL64:
 1132 00ba C0B2     		uxtb	r0, r0
 1133              	.LVL65:
 1134 00bc A7E7     		b	.L55
 1135              	.L66:
 1136 00be C046     		.align	2
 1137              	.L65:
 1138 00c0 00000000 		.word	.LANCHOR0
 1139 00c4 00700040 		.word	1073770496
 1140 00c8 00100240 		.word	1073876992
 1141 00cc FFFF0700 		.word	524287
 1142 00d0 01100000 		.word	4097
 1143 00d4 00000244 		.word	1140981760
 1144 00d8 FFFDFFFF 		.word	-513
 1145 00dc 7800F81F 		.word	536346744
 1146 00e0 B80B0000 		.word	3000
 1147 00e4 07070000 		.word	1799
 1148 00e8 1006F9FF 		.word	-457200
 1149              		.cfi_endproc
 1150              	.LFE48:
 1151              		.size	HW_GetBatteryLevel, .-HW_GetBatteryLevel
 1152              		.section	.text.HW_AdcInit,"ax",%progbits
 1153              		.align	1
 1154              		.p2align 2,,3
 1155              		.global	HW_AdcInit
 1156              		.syntax unified
 1157              		.code	16
 1158              		.thumb_func
 1159              		.fpu softvfp
 1160              		.type	HW_AdcInit, %function
 1161              	HW_AdcInit:
 1162              	.LFB49:
 370:../Core/src/mlm32l0xx_hw.c ****   if( AdcInitialized == false )
 1163              		.loc 1 370 0
 1164              		.cfi_startproc
 1165              		@ args = 0, pretend = 0, frame = 0
 1166              		@ frame_needed = 0, uses_anonymous_args = 0
 371:../Core/src/mlm32l0xx_hw.c ****   {
 1167              		.loc 1 371 0
 1168 0000 1248     		ldr	r0, .L69
 370:../Core/src/mlm32l0xx_hw.c ****   if( AdcInitialized == false )
 1169              		.loc 1 370 0
 1170 0002 10B5     		push	{r4, lr}
 1171              	.LCFI13:
 1172              		.cfi_def_cfa_offset 8
 1173              		.cfi_offset 4, -8
 1174              		.cfi_offset 14, -4
 371:../Core/src/mlm32l0xx_hw.c ****   {
 1175              		.loc 1 371 0
 1176 0004 4378     		ldrb	r3, [r0, #1]
 1177 0006 002B     		cmp	r3, #0
 1178 0008 1ED1     		bne	.L67
 1179              	.LBB77:
ARM GAS  C:\Users\EBANO_~1\AppData\Local\Temp\ccsZgiNd.s 			page 33


 1180              	.LBB78:
 376:../Core/src/mlm32l0xx_hw.c ****     
 1181              		.loc 1 376 0
 1182 000a 1149     		ldr	r1, .L69+4
 373:../Core/src/mlm32l0xx_hw.c **** 
 1183              		.loc 1 373 0
 1184 000c 0122     		movs	r2, #1
 376:../Core/src/mlm32l0xx_hw.c ****     
 1185              		.loc 1 376 0
 1186 000e 4160     		str	r1, [r0, #4]
 380:../Core/src/mlm32l0xx_hw.c ****     hadc.Init.LowPowerAutoPowerOff  = DISABLE;
 1187              		.loc 1 380 0
 1188 0010 8021     		movs	r1, #128
 1189 0012 0906     		lsls	r1, r1, #24
 1190 0014 8160     		str	r1, [r0, #8]
 386:../Core/src/mlm32l0xx_hw.c ****     hadc.Init.ScanConvMode          = ADC_SCAN_DIRECTION_FORWARD;
 1191              		.loc 1 386 0
 1192 0016 0721     		movs	r1, #7
 378:../Core/src/mlm32l0xx_hw.c ****   
 1193              		.loc 1 378 0
 1194 0018 4364     		str	r3, [r0, #68]
 381:../Core/src/mlm32l0xx_hw.c ****     hadc.Init.LowPowerFrequencyMode = ENABLE;
 1195              		.loc 1 381 0
 1196 001a 0362     		str	r3, [r0, #32]
 383:../Core/src/mlm32l0xx_hw.c ****     
 1197              		.loc 1 383 0
 1198 001c C361     		str	r3, [r0, #28]
 385:../Core/src/mlm32l0xx_hw.c ****     hadc.Init.SamplingTime          = ADC_SAMPLETIME_160CYCLES_5;
 1199              		.loc 1 385 0
 1200 001e C360     		str	r3, [r0, #12]
 388:../Core/src/mlm32l0xx_hw.c ****     hadc.Init.ContinuousConvMode    = DISABLE;
 1201              		.loc 1 388 0
 1202 0020 0361     		str	r3, [r0, #16]
 389:../Core/src/mlm32l0xx_hw.c ****     hadc.Init.DiscontinuousConvMode = DISABLE;
 1203              		.loc 1 389 0
 1204 0022 4362     		str	r3, [r0, #36]
 390:../Core/src/mlm32l0xx_hw.c ****     hadc.Init.ExternalTrigConvEdge  = ADC_EXTERNALTRIGCONVEDGE_NONE;
 1205              		.loc 1 390 0
 1206 0024 8362     		str	r3, [r0, #40]
 391:../Core/src/mlm32l0xx_hw.c ****     hadc.Init.EOCSelection          = ADC_EOC_SINGLE_CONV;
 1207              		.loc 1 391 0
 1208 0026 0363     		str	r3, [r0, #48]
 393:../Core/src/mlm32l0xx_hw.c **** 
 1209              		.loc 1 393 0
 1210 0028 4363     		str	r3, [r0, #52]
 395:../Core/src/mlm32l0xx_hw.c ****     
 1211              		.loc 1 395 0
 1212 002a 8023     		movs	r3, #128
 382:../Core/src/mlm32l0xx_hw.c ****     hadc.Init.LowPowerAutoWait      = DISABLE;
 1213              		.loc 1 382 0
 1214 002c C263     		str	r2, [r0, #60]
 387:../Core/src/mlm32l0xx_hw.c ****     hadc.Init.DataAlign             = ADC_DATAALIGN_RIGHT;
 1215              		.loc 1 387 0
 1216 002e 4261     		str	r2, [r0, #20]
 373:../Core/src/mlm32l0xx_hw.c **** 
 1217              		.loc 1 373 0
 1218 0030 4270     		strb	r2, [r0, #1]
ARM GAS  C:\Users\EBANO_~1\AppData\Local\Temp\ccsZgiNd.s 			page 34


 392:../Core/src/mlm32l0xx_hw.c ****     hadc.Init.DMAContinuousRequests = DISABLE;
 1219              		.loc 1 392 0
 1220 0032 0332     		adds	r2, r2, #3
 1221 0034 8261     		str	r2, [r0, #24]
 395:../Core/src/mlm32l0xx_hw.c ****     
 1222              		.loc 1 395 0
 1223 0036 074A     		ldr	r2, .L69+8
 386:../Core/src/mlm32l0xx_hw.c ****     hadc.Init.ScanConvMode          = ADC_SCAN_DIRECTION_FORWARD;
 1224              		.loc 1 386 0
 1225 0038 0164     		str	r1, [r0, #64]
 395:../Core/src/mlm32l0xx_hw.c ****     
 1226              		.loc 1 395 0
 1227 003a 516B     		ldr	r1, [r2, #52]
 1228 003c 9B00     		lsls	r3, r3, #2
 1229 003e 0B43     		orrs	r3, r1
 1230 0040 5363     		str	r3, [r2, #52]
 398:../Core/src/mlm32l0xx_hw.c **** 
 1231              		.loc 1 398 0
 1232 0042 0430     		adds	r0, r0, #4
 1233 0044 FFF7FEFF 		bl	HAL_ADC_Init
 1234              	.LVL66:
 1235              	.L67:
 1236              	.LBE78:
 1237              	.LBE77:
 401:../Core/src/mlm32l0xx_hw.c **** /**
 1238              		.loc 1 401 0
 1239              		@ sp needed
 1240 0048 10BD     		pop	{r4, pc}
 1241              	.L70:
 1242 004a C046     		.align	2
 1243              	.L69:
 1244 004c 00000000 		.word	.LANCHOR0
 1245 0050 00240140 		.word	1073816576
 1246 0054 00100240 		.word	1073876992
 1247              		.cfi_endproc
 1248              	.LFE49:
 1249              		.size	HW_AdcInit, .-HW_AdcInit
 1250              		.section	.text.HW_AdcDeInit,"ax",%progbits
 1251              		.align	1
 1252              		.p2align 2,,3
 1253              		.global	HW_AdcDeInit
 1254              		.syntax unified
 1255              		.code	16
 1256              		.thumb_func
 1257              		.fpu softvfp
 1258              		.type	HW_AdcDeInit, %function
 1259              	HW_AdcDeInit:
 1260              	.LFB50:
 408:../Core/src/mlm32l0xx_hw.c ****   AdcInitialized = false;
 1261              		.loc 1 408 0
 1262              		.cfi_startproc
 1263              		@ args = 0, pretend = 0, frame = 0
 1264              		@ frame_needed = 0, uses_anonymous_args = 0
 1265              		@ link register save eliminated.
 409:../Core/src/mlm32l0xx_hw.c **** }
 1266              		.loc 1 409 0
 1267 0000 0022     		movs	r2, #0
ARM GAS  C:\Users\EBANO_~1\AppData\Local\Temp\ccsZgiNd.s 			page 35


 1268 0002 014B     		ldr	r3, .L72
 410:../Core/src/mlm32l0xx_hw.c **** 
 1269              		.loc 1 410 0
 1270              		@ sp needed
 409:../Core/src/mlm32l0xx_hw.c **** }
 1271              		.loc 1 409 0
 1272 0004 5A70     		strb	r2, [r3, #1]
 410:../Core/src/mlm32l0xx_hw.c **** 
 1273              		.loc 1 410 0
 1274 0006 7047     		bx	lr
 1275              	.L73:
 1276              		.align	2
 1277              	.L72:
 1278 0008 00000000 		.word	.LANCHOR0
 1279              		.cfi_endproc
 1280              	.LFE50:
 1281              		.size	HW_AdcDeInit, .-HW_AdcDeInit
 1282              		.section	.text.HW_AdcReadChannel,"ax",%progbits
 1283              		.align	1
 1284              		.p2align 2,,3
 1285              		.global	HW_AdcReadChannel
 1286              		.syntax unified
 1287              		.code	16
 1288              		.thumb_func
 1289              		.fpu softvfp
 1290              		.type	HW_AdcReadChannel, %function
 1291              	HW_AdcReadChannel:
 1292              	.LFB51:
 418:../Core/src/mlm32l0xx_hw.c **** 
 1293              		.loc 1 418 0
 1294              		.cfi_startproc
 1295              		@ args = 0, pretend = 0, frame = 8
 1296              		@ frame_needed = 0, uses_anonymous_args = 0
 1297              	.LVL67:
 1298 0000 F0B5     		push	{r4, r5, r6, r7, lr}
 1299              	.LCFI14:
 1300              		.cfi_def_cfa_offset 20
 1301              		.cfi_offset 4, -20
 1302              		.cfi_offset 5, -16
 1303              		.cfi_offset 6, -12
 1304              		.cfi_offset 7, -8
 1305              		.cfi_offset 14, -4
 423:../Core/src/mlm32l0xx_hw.c ****   {
 1306              		.loc 1 423 0
 1307 0002 204D     		ldr	r5, .L81
 418:../Core/src/mlm32l0xx_hw.c **** 
 1308              		.loc 1 418 0
 1309 0004 0700     		movs	r7, r0
 423:../Core/src/mlm32l0xx_hw.c ****   {
 1310              		.loc 1 423 0
 1311 0006 6B78     		ldrb	r3, [r5, #1]
 418:../Core/src/mlm32l0xx_hw.c **** 
 1312              		.loc 1 418 0
 1313 0008 83B0     		sub	sp, sp, #12
 1314              	.LCFI15:
 1315              		.cfi_def_cfa_offset 32
 421:../Core/src/mlm32l0xx_hw.c ****   
ARM GAS  C:\Users\EBANO_~1\AppData\Local\Temp\ccsZgiNd.s 			page 36


 1316              		.loc 1 421 0
 1317 000a 0020     		movs	r0, #0
 1318              	.LVL68:
 423:../Core/src/mlm32l0xx_hw.c ****   {
 1319              		.loc 1 423 0
 1320 000c 002B     		cmp	r3, #0
 1321 000e 36D0     		beq	.L75
 1322              	.LBB81:
 1323              	.LBB82:
 426:../Core/src/mlm32l0xx_hw.c ****       
 1324              		.loc 1 426 0
 1325 0010 0822     		movs	r2, #8
 1326 0012 1D49     		ldr	r1, .L81+4
 1327              	.L76:
 1328 0014 4B68     		ldr	r3, [r1, #4]
 1329 0016 1A42     		tst	r2, r3
 1330 0018 FCD0     		beq	.L76
 428:../Core/src/mlm32l0xx_hw.c ****     
 1331              		.loc 1 428 0
 1332 001a 8023     		movs	r3, #128
 1333 001c 1B4E     		ldr	r6, .L81+8
 1334 001e 9B00     		lsls	r3, r3, #2
 1335 0020 726B     		ldr	r2, [r6, #52]
 431:../Core/src/mlm32l0xx_hw.c ****     
 1336              		.loc 1 431 0
 1337 0022 2C1D     		adds	r4, r5, #4
 428:../Core/src/mlm32l0xx_hw.c ****     
 1338              		.loc 1 428 0
 1339 0024 1343     		orrs	r3, r2
 1340 0026 7363     		str	r3, [r6, #52]
 431:../Core/src/mlm32l0xx_hw.c ****     
 1341              		.loc 1 431 0
 1342 0028 0021     		movs	r1, #0
 1343 002a 2000     		movs	r0, r4
 1344 002c FFF7FEFF 		bl	HAL_ADCEx_Calibration_Start
 1345              	.LVL69:
 434:../Core/src/mlm32l0xx_hw.c ****     adcConf.Rank = ADC_RANK_NONE; 
 1346              		.loc 1 434 0
 1347 0030 174B     		ldr	r3, .L81+12
 436:../Core/src/mlm32l0xx_hw.c ****       
 1348              		.loc 1 436 0
 1349 0032 6946     		mov	r1, sp
 434:../Core/src/mlm32l0xx_hw.c ****     adcConf.Rank = ADC_RANK_NONE; 
 1350              		.loc 1 434 0
 1351 0034 0093     		str	r3, [sp]
 435:../Core/src/mlm32l0xx_hw.c ****     HAL_ADC_ConfigChannel( &hadc, &adcConf);
 1352              		.loc 1 435 0
 1353 0036 174B     		ldr	r3, .L81+16
 436:../Core/src/mlm32l0xx_hw.c ****       
 1354              		.loc 1 436 0
 1355 0038 2000     		movs	r0, r4
 435:../Core/src/mlm32l0xx_hw.c ****     HAL_ADC_ConfigChannel( &hadc, &adcConf);
 1356              		.loc 1 435 0
 1357 003a 0193     		str	r3, [sp, #4]
 436:../Core/src/mlm32l0xx_hw.c ****       
 1358              		.loc 1 436 0
 1359 003c FFF7FEFF 		bl	HAL_ADC_ConfigChannel
ARM GAS  C:\Users\EBANO_~1\AppData\Local\Temp\ccsZgiNd.s 			page 37


 1360              	.LVL70:
 440:../Core/src/mlm32l0xx_hw.c ****     HAL_ADC_ConfigChannel( &hadc, &adcConf);
 1361              		.loc 1 440 0
 1362 0040 8023     		movs	r3, #128
 441:../Core/src/mlm32l0xx_hw.c **** 
 1363              		.loc 1 441 0
 1364 0042 6946     		mov	r1, sp
 440:../Core/src/mlm32l0xx_hw.c ****     HAL_ADC_ConfigChannel( &hadc, &adcConf);
 1365              		.loc 1 440 0
 1366 0044 5B01     		lsls	r3, r3, #5
 441:../Core/src/mlm32l0xx_hw.c **** 
 1367              		.loc 1 441 0
 1368 0046 2000     		movs	r0, r4
 440:../Core/src/mlm32l0xx_hw.c ****     HAL_ADC_ConfigChannel( &hadc, &adcConf);
 1369              		.loc 1 440 0
 1370 0048 0193     		str	r3, [sp, #4]
 439:../Core/src/mlm32l0xx_hw.c ****     adcConf.Rank = ADC_RANK_CHANNEL_NUMBER;
 1371              		.loc 1 439 0
 1372 004a 0097     		str	r7, [sp]
 441:../Core/src/mlm32l0xx_hw.c **** 
 1373              		.loc 1 441 0
 1374 004c FFF7FEFF 		bl	HAL_ADC_ConfigChannel
 1375              	.LVL71:
 444:../Core/src/mlm32l0xx_hw.c ****       
 1376              		.loc 1 444 0
 1377 0050 2000     		movs	r0, r4
 1378 0052 FFF7FEFF 		bl	HAL_ADC_Start
 1379              	.LVL72:
 447:../Core/src/mlm32l0xx_hw.c ****       
 1380              		.loc 1 447 0
 1381 0056 0121     		movs	r1, #1
 1382 0058 2000     		movs	r0, r4
 1383 005a 4942     		rsbs	r1, r1, #0
 1384 005c FFF7FEFF 		bl	HAL_ADC_PollForConversion
 1385              	.LVL73:
 450:../Core/src/mlm32l0xx_hw.c **** 
 1386              		.loc 1 450 0
 1387 0060 2000     		movs	r0, r4
 1388 0062 FFF7FEFF 		bl	HAL_ADC_GetValue
 1389              	.LVL74:
 452:../Core/src/mlm32l0xx_hw.c **** 
 1390              		.loc 1 452 0
 1391 0066 0221     		movs	r1, #2
 1392 0068 6B68     		ldr	r3, [r5, #4]
 450:../Core/src/mlm32l0xx_hw.c **** 
 1393              		.loc 1 450 0
 1394 006a 80B2     		uxth	r0, r0
 1395              	.LVL75:
 452:../Core/src/mlm32l0xx_hw.c **** 
 1396              		.loc 1 452 0
 1397 006c 9A68     		ldr	r2, [r3, #8]
 1398 006e 0A43     		orrs	r2, r1
 1399 0070 9A60     		str	r2, [r3, #8]
 1400 0072 0322     		movs	r2, #3
 1401 0074 1A60     		str	r2, [r3]
 1402              		.loc 1 454 0
 1403 0076 736B     		ldr	r3, [r6, #52]
ARM GAS  C:\Users\EBANO_~1\AppData\Local\Temp\ccsZgiNd.s 			page 38


 1404 0078 074A     		ldr	r2, .L81+20
 1405 007a 1340     		ands	r3, r2
 1406 007c 7363     		str	r3, [r6, #52]
 1407              	.LVL76:
 1408              	.L75:
 1409              	.LBE82:
 1410              	.LBE81:
 455:../Core/src/mlm32l0xx_hw.c ****   }
 456:../Core/src/mlm32l0xx_hw.c ****   return adcData;
 457:../Core/src/mlm32l0xx_hw.c **** }
 1411              		.loc 1 457 0
 1412 007e 03B0     		add	sp, sp, #12
 1413              		@ sp needed
 1414              	.LVL77:
 1415 0080 F0BD     		pop	{r4, r5, r6, r7, pc}
 1416              	.L82:
 1417 0082 C046     		.align	2
 1418              	.L81:
 1419 0084 00000000 		.word	.LANCHOR0
 1420 0088 00700040 		.word	1073770496
 1421 008c 00100240 		.word	1073876992
 1422 0090 FFFF0700 		.word	524287
 1423 0094 01100000 		.word	4097
 1424 0098 FFFDFFFF 		.word	-513
 1425              		.cfi_endproc
 1426              	.LFE51:
 1427              		.size	HW_AdcReadChannel, .-HW_AdcReadChannel
 1428              		.section	.text.LPM_EnterStopMode,"ax",%progbits
 1429              		.align	1
 1430              		.p2align 2,,3
 1431              		.global	LPM_EnterStopMode
 1432              		.syntax unified
 1433              		.code	16
 1434              		.thumb_func
 1435              		.fpu softvfp
 1436              		.type	LPM_EnterStopMode, %function
 1437              	LPM_EnterStopMode:
 1438              	.LFB52:
 458:../Core/src/mlm32l0xx_hw.c **** 
 459:../Core/src/mlm32l0xx_hw.c **** /**
 460:../Core/src/mlm32l0xx_hw.c ****   * @brief Enters Low Power Stop Mode
 461:../Core/src/mlm32l0xx_hw.c ****   * @note ARM exists the function when waking up
 462:../Core/src/mlm32l0xx_hw.c ****   * @param none
 463:../Core/src/mlm32l0xx_hw.c ****   * @retval none
 464:../Core/src/mlm32l0xx_hw.c ****   */
 465:../Core/src/mlm32l0xx_hw.c **** void LPM_EnterStopMode( void)
 466:../Core/src/mlm32l0xx_hw.c **** {
 1439              		.loc 1 466 0
 1440              		.cfi_startproc
 1441              		@ args = 0, pretend = 0, frame = 24
 1442              		@ frame_needed = 0, uses_anonymous_args = 0
 1443 0000 30B5     		push	{r4, r5, lr}
 1444              	.LCFI16:
 1445              		.cfi_def_cfa_offset 12
 1446              		.cfi_offset 4, -12
 1447              		.cfi_offset 5, -8
 1448              		.cfi_offset 14, -4
ARM GAS  C:\Users\EBANO_~1\AppData\Local\Temp\ccsZgiNd.s 			page 39


 1449 0002 87B0     		sub	sp, sp, #28
 1450              	.LCFI17:
 1451              		.cfi_def_cfa_offset 40
 1452              	.LBB91:
 1453              	.LBB92:
 1454              		.file 2 "../../../../../../Drivers/CMSIS/Include/cmsis_gcc.h"
   1:../../../../../../Drivers/CMSIS/Include/cmsis_gcc.h **** /**************************************************************************//**
   2:../../../../../../Drivers/CMSIS/Include/cmsis_gcc.h ****  * @file     cmsis_gcc.h
   3:../../../../../../Drivers/CMSIS/Include/cmsis_gcc.h ****  * @brief    CMSIS compiler GCC header file
   4:../../../../../../Drivers/CMSIS/Include/cmsis_gcc.h ****  * @version  V5.0.1
   5:../../../../../../Drivers/CMSIS/Include/cmsis_gcc.h ****  * @date     02. February 2017
   6:../../../../../../Drivers/CMSIS/Include/cmsis_gcc.h ****  ******************************************************************************/
   7:../../../../../../Drivers/CMSIS/Include/cmsis_gcc.h **** /*
   8:../../../../../../Drivers/CMSIS/Include/cmsis_gcc.h ****  * Copyright (c) 2009-2017 ARM Limited. All rights reserved.
   9:../../../../../../Drivers/CMSIS/Include/cmsis_gcc.h ****  *
  10:../../../../../../Drivers/CMSIS/Include/cmsis_gcc.h ****  * SPDX-License-Identifier: Apache-2.0
  11:../../../../../../Drivers/CMSIS/Include/cmsis_gcc.h ****  *
  12:../../../../../../Drivers/CMSIS/Include/cmsis_gcc.h ****  * Licensed under the Apache License, Version 2.0 (the License); you may
  13:../../../../../../Drivers/CMSIS/Include/cmsis_gcc.h ****  * not use this file except in compliance with the License.
  14:../../../../../../Drivers/CMSIS/Include/cmsis_gcc.h ****  * You may obtain a copy of the License at
  15:../../../../../../Drivers/CMSIS/Include/cmsis_gcc.h ****  *
  16:../../../../../../Drivers/CMSIS/Include/cmsis_gcc.h ****  * www.apache.org/licenses/LICENSE-2.0
  17:../../../../../../Drivers/CMSIS/Include/cmsis_gcc.h ****  *
  18:../../../../../../Drivers/CMSIS/Include/cmsis_gcc.h ****  * Unless required by applicable law or agreed to in writing, software
  19:../../../../../../Drivers/CMSIS/Include/cmsis_gcc.h ****  * distributed under the License is distributed on an AS IS BASIS, WITHOUT
  20:../../../../../../Drivers/CMSIS/Include/cmsis_gcc.h ****  * WARRANTIES OR CONDITIONS OF ANY KIND, either express or implied.
  21:../../../../../../Drivers/CMSIS/Include/cmsis_gcc.h ****  * See the License for the specific language governing permissions and
  22:../../../../../../Drivers/CMSIS/Include/cmsis_gcc.h ****  * limitations under the License.
  23:../../../../../../Drivers/CMSIS/Include/cmsis_gcc.h ****  */
  24:../../../../../../Drivers/CMSIS/Include/cmsis_gcc.h **** 
  25:../../../../../../Drivers/CMSIS/Include/cmsis_gcc.h **** #ifndef __CMSIS_GCC_H
  26:../../../../../../Drivers/CMSIS/Include/cmsis_gcc.h **** #define __CMSIS_GCC_H
  27:../../../../../../Drivers/CMSIS/Include/cmsis_gcc.h **** 
  28:../../../../../../Drivers/CMSIS/Include/cmsis_gcc.h **** /* ignore some GCC warnings */
  29:../../../../../../Drivers/CMSIS/Include/cmsis_gcc.h **** #pragma GCC diagnostic push
  30:../../../../../../Drivers/CMSIS/Include/cmsis_gcc.h **** #pragma GCC diagnostic ignored "-Wsign-conversion"
  31:../../../../../../Drivers/CMSIS/Include/cmsis_gcc.h **** #pragma GCC diagnostic ignored "-Wconversion"
  32:../../../../../../Drivers/CMSIS/Include/cmsis_gcc.h **** #pragma GCC diagnostic ignored "-Wunused-parameter"
  33:../../../../../../Drivers/CMSIS/Include/cmsis_gcc.h **** 
  34:../../../../../../Drivers/CMSIS/Include/cmsis_gcc.h **** /* CMSIS compiler specific defines */
  35:../../../../../../Drivers/CMSIS/Include/cmsis_gcc.h **** #ifndef   __ASM
  36:../../../../../../Drivers/CMSIS/Include/cmsis_gcc.h ****   #define __ASM                     __asm
  37:../../../../../../Drivers/CMSIS/Include/cmsis_gcc.h **** #endif
  38:../../../../../../Drivers/CMSIS/Include/cmsis_gcc.h **** #ifndef   __INLINE
  39:../../../../../../Drivers/CMSIS/Include/cmsis_gcc.h ****   #define __INLINE                  inline
  40:../../../../../../Drivers/CMSIS/Include/cmsis_gcc.h **** #endif
  41:../../../../../../Drivers/CMSIS/Include/cmsis_gcc.h **** #ifndef   __STATIC_INLINE
  42:../../../../../../Drivers/CMSIS/Include/cmsis_gcc.h ****   #define __STATIC_INLINE           static inline
  43:../../../../../../Drivers/CMSIS/Include/cmsis_gcc.h **** #endif
  44:../../../../../../Drivers/CMSIS/Include/cmsis_gcc.h **** #ifndef   __NO_RETURN
  45:../../../../../../Drivers/CMSIS/Include/cmsis_gcc.h ****   #define __NO_RETURN               __attribute__((noreturn))
  46:../../../../../../Drivers/CMSIS/Include/cmsis_gcc.h **** #endif
  47:../../../../../../Drivers/CMSIS/Include/cmsis_gcc.h **** #ifndef   __USED
  48:../../../../../../Drivers/CMSIS/Include/cmsis_gcc.h ****   #define __USED                    __attribute__((used))
  49:../../../../../../Drivers/CMSIS/Include/cmsis_gcc.h **** #endif
  50:../../../../../../Drivers/CMSIS/Include/cmsis_gcc.h **** #ifndef   __WEAK
  51:../../../../../../Drivers/CMSIS/Include/cmsis_gcc.h ****   #define __WEAK                    __attribute__((weak))
ARM GAS  C:\Users\EBANO_~1\AppData\Local\Temp\ccsZgiNd.s 			page 40


  52:../../../../../../Drivers/CMSIS/Include/cmsis_gcc.h **** #endif
  53:../../../../../../Drivers/CMSIS/Include/cmsis_gcc.h **** #ifndef   __UNALIGNED_UINT32
  54:../../../../../../Drivers/CMSIS/Include/cmsis_gcc.h **** #pragma GCC diagnostic push
  55:../../../../../../Drivers/CMSIS/Include/cmsis_gcc.h **** #pragma GCC diagnostic ignored "-Wpacked"
  56:../../../../../../Drivers/CMSIS/Include/cmsis_gcc.h **** #pragma GCC diagnostic ignored "-Wattributes"
  57:../../../../../../Drivers/CMSIS/Include/cmsis_gcc.h ****   struct __attribute__((packed)) T_UINT32 { uint32_t v; };
  58:../../../../../../Drivers/CMSIS/Include/cmsis_gcc.h **** #pragma GCC diagnostic pop
  59:../../../../../../Drivers/CMSIS/Include/cmsis_gcc.h ****   #define __UNALIGNED_UINT32(x)     (((struct T_UINT32 *)(x))->v)
  60:../../../../../../Drivers/CMSIS/Include/cmsis_gcc.h **** #endif
  61:../../../../../../Drivers/CMSIS/Include/cmsis_gcc.h **** #ifndef   __ALIGNED
  62:../../../../../../Drivers/CMSIS/Include/cmsis_gcc.h ****   #define __ALIGNED(x)              __attribute__((aligned(x)))
  63:../../../../../../Drivers/CMSIS/Include/cmsis_gcc.h **** #endif
  64:../../../../../../Drivers/CMSIS/Include/cmsis_gcc.h **** #ifndef   __PACKED
  65:../../../../../../Drivers/CMSIS/Include/cmsis_gcc.h ****   #define __PACKED                  __attribute__((packed, aligned(1)))
  66:../../../../../../Drivers/CMSIS/Include/cmsis_gcc.h **** #endif
  67:../../../../../../Drivers/CMSIS/Include/cmsis_gcc.h **** #ifndef   __PACKED_STRUCT
  68:../../../../../../Drivers/CMSIS/Include/cmsis_gcc.h ****   #define __PACKED_STRUCT           struct __attribute__((packed, aligned(1)))
  69:../../../../../../Drivers/CMSIS/Include/cmsis_gcc.h **** #endif
  70:../../../../../../Drivers/CMSIS/Include/cmsis_gcc.h **** 
  71:../../../../../../Drivers/CMSIS/Include/cmsis_gcc.h **** 
  72:../../../../../../Drivers/CMSIS/Include/cmsis_gcc.h **** /* ###########################  Core Function Access  ########################### */
  73:../../../../../../Drivers/CMSIS/Include/cmsis_gcc.h **** /** \ingroup  CMSIS_Core_FunctionInterface
  74:../../../../../../Drivers/CMSIS/Include/cmsis_gcc.h ****     \defgroup CMSIS_Core_RegAccFunctions CMSIS Core Register Access Functions
  75:../../../../../../Drivers/CMSIS/Include/cmsis_gcc.h ****   @{
  76:../../../../../../Drivers/CMSIS/Include/cmsis_gcc.h ****  */
  77:../../../../../../Drivers/CMSIS/Include/cmsis_gcc.h **** 
  78:../../../../../../Drivers/CMSIS/Include/cmsis_gcc.h **** /**
  79:../../../../../../Drivers/CMSIS/Include/cmsis_gcc.h ****   \brief   Enable IRQ Interrupts
  80:../../../../../../Drivers/CMSIS/Include/cmsis_gcc.h ****   \details Enables IRQ interrupts by clearing the I-bit in the CPSR.
  81:../../../../../../Drivers/CMSIS/Include/cmsis_gcc.h ****            Can only be executed in Privileged modes.
  82:../../../../../../Drivers/CMSIS/Include/cmsis_gcc.h ****  */
  83:../../../../../../Drivers/CMSIS/Include/cmsis_gcc.h **** __attribute__((always_inline)) __STATIC_INLINE void __enable_irq(void)
  84:../../../../../../Drivers/CMSIS/Include/cmsis_gcc.h **** {
  85:../../../../../../Drivers/CMSIS/Include/cmsis_gcc.h ****   __ASM volatile ("cpsie i" : : : "memory");
  86:../../../../../../Drivers/CMSIS/Include/cmsis_gcc.h **** }
  87:../../../../../../Drivers/CMSIS/Include/cmsis_gcc.h **** 
  88:../../../../../../Drivers/CMSIS/Include/cmsis_gcc.h **** 
  89:../../../../../../Drivers/CMSIS/Include/cmsis_gcc.h **** /**
  90:../../../../../../Drivers/CMSIS/Include/cmsis_gcc.h ****   \brief   Disable IRQ Interrupts
  91:../../../../../../Drivers/CMSIS/Include/cmsis_gcc.h ****   \details Disables IRQ interrupts by setting the I-bit in the CPSR.
  92:../../../../../../Drivers/CMSIS/Include/cmsis_gcc.h ****            Can only be executed in Privileged modes.
  93:../../../../../../Drivers/CMSIS/Include/cmsis_gcc.h ****  */
  94:../../../../../../Drivers/CMSIS/Include/cmsis_gcc.h **** __attribute__((always_inline)) __STATIC_INLINE void __disable_irq(void)
  95:../../../../../../Drivers/CMSIS/Include/cmsis_gcc.h **** {
  96:../../../../../../Drivers/CMSIS/Include/cmsis_gcc.h ****   __ASM volatile ("cpsid i" : : : "memory");
  97:../../../../../../Drivers/CMSIS/Include/cmsis_gcc.h **** }
  98:../../../../../../Drivers/CMSIS/Include/cmsis_gcc.h **** 
  99:../../../../../../Drivers/CMSIS/Include/cmsis_gcc.h **** 
 100:../../../../../../Drivers/CMSIS/Include/cmsis_gcc.h **** /**
 101:../../../../../../Drivers/CMSIS/Include/cmsis_gcc.h ****   \brief   Get Control Register
 102:../../../../../../Drivers/CMSIS/Include/cmsis_gcc.h ****   \details Returns the content of the Control Register.
 103:../../../../../../Drivers/CMSIS/Include/cmsis_gcc.h ****   \return               Control Register value
 104:../../../../../../Drivers/CMSIS/Include/cmsis_gcc.h ****  */
 105:../../../../../../Drivers/CMSIS/Include/cmsis_gcc.h **** __attribute__((always_inline)) __STATIC_INLINE uint32_t __get_CONTROL(void)
 106:../../../../../../Drivers/CMSIS/Include/cmsis_gcc.h **** {
 107:../../../../../../Drivers/CMSIS/Include/cmsis_gcc.h ****   uint32_t result;
 108:../../../../../../Drivers/CMSIS/Include/cmsis_gcc.h **** 
ARM GAS  C:\Users\EBANO_~1\AppData\Local\Temp\ccsZgiNd.s 			page 41


 109:../../../../../../Drivers/CMSIS/Include/cmsis_gcc.h ****   __ASM volatile ("MRS %0, control" : "=r" (result) );
 110:../../../../../../Drivers/CMSIS/Include/cmsis_gcc.h ****   return(result);
 111:../../../../../../Drivers/CMSIS/Include/cmsis_gcc.h **** }
 112:../../../../../../Drivers/CMSIS/Include/cmsis_gcc.h **** 
 113:../../../../../../Drivers/CMSIS/Include/cmsis_gcc.h **** 
 114:../../../../../../Drivers/CMSIS/Include/cmsis_gcc.h **** #if (defined (__ARM_FEATURE_CMSE ) && (__ARM_FEATURE_CMSE == 3))
 115:../../../../../../Drivers/CMSIS/Include/cmsis_gcc.h **** /**
 116:../../../../../../Drivers/CMSIS/Include/cmsis_gcc.h ****   \brief   Get Control Register (non-secure)
 117:../../../../../../Drivers/CMSIS/Include/cmsis_gcc.h ****   \details Returns the content of the non-secure Control Register when in secure mode.
 118:../../../../../../Drivers/CMSIS/Include/cmsis_gcc.h ****   \return               non-secure Control Register value
 119:../../../../../../Drivers/CMSIS/Include/cmsis_gcc.h ****  */
 120:../../../../../../Drivers/CMSIS/Include/cmsis_gcc.h **** __attribute__((always_inline)) __STATIC_INLINE uint32_t __TZ_get_CONTROL_NS(void)
 121:../../../../../../Drivers/CMSIS/Include/cmsis_gcc.h **** {
 122:../../../../../../Drivers/CMSIS/Include/cmsis_gcc.h ****   uint32_t result;
 123:../../../../../../Drivers/CMSIS/Include/cmsis_gcc.h **** 
 124:../../../../../../Drivers/CMSIS/Include/cmsis_gcc.h ****   __ASM volatile ("MRS %0, control_ns" : "=r" (result) );
 125:../../../../../../Drivers/CMSIS/Include/cmsis_gcc.h ****   return(result);
 126:../../../../../../Drivers/CMSIS/Include/cmsis_gcc.h **** }
 127:../../../../../../Drivers/CMSIS/Include/cmsis_gcc.h **** #endif
 128:../../../../../../Drivers/CMSIS/Include/cmsis_gcc.h **** 
 129:../../../../../../Drivers/CMSIS/Include/cmsis_gcc.h **** 
 130:../../../../../../Drivers/CMSIS/Include/cmsis_gcc.h **** /**
 131:../../../../../../Drivers/CMSIS/Include/cmsis_gcc.h ****   \brief   Set Control Register
 132:../../../../../../Drivers/CMSIS/Include/cmsis_gcc.h ****   \details Writes the given value to the Control Register.
 133:../../../../../../Drivers/CMSIS/Include/cmsis_gcc.h ****   \param [in]    control  Control Register value to set
 134:../../../../../../Drivers/CMSIS/Include/cmsis_gcc.h ****  */
 135:../../../../../../Drivers/CMSIS/Include/cmsis_gcc.h **** __attribute__((always_inline)) __STATIC_INLINE void __set_CONTROL(uint32_t control)
 136:../../../../../../Drivers/CMSIS/Include/cmsis_gcc.h **** {
 137:../../../../../../Drivers/CMSIS/Include/cmsis_gcc.h ****   __ASM volatile ("MSR control, %0" : : "r" (control) : "memory");
 138:../../../../../../Drivers/CMSIS/Include/cmsis_gcc.h **** }
 139:../../../../../../Drivers/CMSIS/Include/cmsis_gcc.h **** 
 140:../../../../../../Drivers/CMSIS/Include/cmsis_gcc.h **** 
 141:../../../../../../Drivers/CMSIS/Include/cmsis_gcc.h **** #if (defined (__ARM_FEATURE_CMSE ) && (__ARM_FEATURE_CMSE == 3))
 142:../../../../../../Drivers/CMSIS/Include/cmsis_gcc.h **** /**
 143:../../../../../../Drivers/CMSIS/Include/cmsis_gcc.h ****   \brief   Set Control Register (non-secure)
 144:../../../../../../Drivers/CMSIS/Include/cmsis_gcc.h ****   \details Writes the given value to the non-secure Control Register when in secure state.
 145:../../../../../../Drivers/CMSIS/Include/cmsis_gcc.h ****   \param [in]    control  Control Register value to set
 146:../../../../../../Drivers/CMSIS/Include/cmsis_gcc.h ****  */
 147:../../../../../../Drivers/CMSIS/Include/cmsis_gcc.h **** __attribute__((always_inline)) __STATIC_INLINE void __TZ_set_CONTROL_NS(uint32_t control)
 148:../../../../../../Drivers/CMSIS/Include/cmsis_gcc.h **** {
 149:../../../../../../Drivers/CMSIS/Include/cmsis_gcc.h ****   __ASM volatile ("MSR control_ns, %0" : : "r" (control) : "memory");
 150:../../../../../../Drivers/CMSIS/Include/cmsis_gcc.h **** }
 151:../../../../../../Drivers/CMSIS/Include/cmsis_gcc.h **** #endif
 152:../../../../../../Drivers/CMSIS/Include/cmsis_gcc.h **** 
 153:../../../../../../Drivers/CMSIS/Include/cmsis_gcc.h **** 
 154:../../../../../../Drivers/CMSIS/Include/cmsis_gcc.h **** /**
 155:../../../../../../Drivers/CMSIS/Include/cmsis_gcc.h ****   \brief   Get IPSR Register
 156:../../../../../../Drivers/CMSIS/Include/cmsis_gcc.h ****   \details Returns the content of the IPSR Register.
 157:../../../../../../Drivers/CMSIS/Include/cmsis_gcc.h ****   \return               IPSR Register value
 158:../../../../../../Drivers/CMSIS/Include/cmsis_gcc.h ****  */
 159:../../../../../../Drivers/CMSIS/Include/cmsis_gcc.h **** __attribute__((always_inline)) __STATIC_INLINE uint32_t __get_IPSR(void)
 160:../../../../../../Drivers/CMSIS/Include/cmsis_gcc.h **** {
 161:../../../../../../Drivers/CMSIS/Include/cmsis_gcc.h ****   uint32_t result;
 162:../../../../../../Drivers/CMSIS/Include/cmsis_gcc.h **** 
 163:../../../../../../Drivers/CMSIS/Include/cmsis_gcc.h ****   __ASM volatile ("MRS %0, ipsr" : "=r" (result) );
 164:../../../../../../Drivers/CMSIS/Include/cmsis_gcc.h ****   return(result);
 165:../../../../../../Drivers/CMSIS/Include/cmsis_gcc.h **** }
ARM GAS  C:\Users\EBANO_~1\AppData\Local\Temp\ccsZgiNd.s 			page 42


 166:../../../../../../Drivers/CMSIS/Include/cmsis_gcc.h **** 
 167:../../../../../../Drivers/CMSIS/Include/cmsis_gcc.h **** 
 168:../../../../../../Drivers/CMSIS/Include/cmsis_gcc.h **** /**
 169:../../../../../../Drivers/CMSIS/Include/cmsis_gcc.h ****   \brief   Get APSR Register
 170:../../../../../../Drivers/CMSIS/Include/cmsis_gcc.h ****   \details Returns the content of the APSR Register.
 171:../../../../../../Drivers/CMSIS/Include/cmsis_gcc.h ****   \return               APSR Register value
 172:../../../../../../Drivers/CMSIS/Include/cmsis_gcc.h ****  */
 173:../../../../../../Drivers/CMSIS/Include/cmsis_gcc.h **** __attribute__((always_inline)) __STATIC_INLINE uint32_t __get_APSR(void)
 174:../../../../../../Drivers/CMSIS/Include/cmsis_gcc.h **** {
 175:../../../../../../Drivers/CMSIS/Include/cmsis_gcc.h ****   uint32_t result;
 176:../../../../../../Drivers/CMSIS/Include/cmsis_gcc.h **** 
 177:../../../../../../Drivers/CMSIS/Include/cmsis_gcc.h ****   __ASM volatile ("MRS %0, apsr" : "=r" (result) );
 178:../../../../../../Drivers/CMSIS/Include/cmsis_gcc.h ****   return(result);
 179:../../../../../../Drivers/CMSIS/Include/cmsis_gcc.h **** }
 180:../../../../../../Drivers/CMSIS/Include/cmsis_gcc.h **** 
 181:../../../../../../Drivers/CMSIS/Include/cmsis_gcc.h **** 
 182:../../../../../../Drivers/CMSIS/Include/cmsis_gcc.h **** /**
 183:../../../../../../Drivers/CMSIS/Include/cmsis_gcc.h ****   \brief   Get xPSR Register
 184:../../../../../../Drivers/CMSIS/Include/cmsis_gcc.h ****   \details Returns the content of the xPSR Register.
 185:../../../../../../Drivers/CMSIS/Include/cmsis_gcc.h ****   \return               xPSR Register value
 186:../../../../../../Drivers/CMSIS/Include/cmsis_gcc.h ****  */
 187:../../../../../../Drivers/CMSIS/Include/cmsis_gcc.h **** __attribute__((always_inline)) __STATIC_INLINE uint32_t __get_xPSR(void)
 188:../../../../../../Drivers/CMSIS/Include/cmsis_gcc.h **** {
 189:../../../../../../Drivers/CMSIS/Include/cmsis_gcc.h ****   uint32_t result;
 190:../../../../../../Drivers/CMSIS/Include/cmsis_gcc.h **** 
 191:../../../../../../Drivers/CMSIS/Include/cmsis_gcc.h ****   __ASM volatile ("MRS %0, xpsr" : "=r" (result) );
 192:../../../../../../Drivers/CMSIS/Include/cmsis_gcc.h ****   return(result);
 193:../../../../../../Drivers/CMSIS/Include/cmsis_gcc.h **** }
 194:../../../../../../Drivers/CMSIS/Include/cmsis_gcc.h **** 
 195:../../../../../../Drivers/CMSIS/Include/cmsis_gcc.h **** 
 196:../../../../../../Drivers/CMSIS/Include/cmsis_gcc.h **** /**
 197:../../../../../../Drivers/CMSIS/Include/cmsis_gcc.h ****   \brief   Get Process Stack Pointer
 198:../../../../../../Drivers/CMSIS/Include/cmsis_gcc.h ****   \details Returns the current value of the Process Stack Pointer (PSP).
 199:../../../../../../Drivers/CMSIS/Include/cmsis_gcc.h ****   \return               PSP Register value
 200:../../../../../../Drivers/CMSIS/Include/cmsis_gcc.h ****  */
 201:../../../../../../Drivers/CMSIS/Include/cmsis_gcc.h **** __attribute__((always_inline)) __STATIC_INLINE uint32_t __get_PSP(void)
 202:../../../../../../Drivers/CMSIS/Include/cmsis_gcc.h **** {
 203:../../../../../../Drivers/CMSIS/Include/cmsis_gcc.h ****   register uint32_t result;
 204:../../../../../../Drivers/CMSIS/Include/cmsis_gcc.h **** 
 205:../../../../../../Drivers/CMSIS/Include/cmsis_gcc.h ****   __ASM volatile ("MRS %0, psp"  : "=r" (result) );
 206:../../../../../../Drivers/CMSIS/Include/cmsis_gcc.h ****   return(result);
 207:../../../../../../Drivers/CMSIS/Include/cmsis_gcc.h **** }
 208:../../../../../../Drivers/CMSIS/Include/cmsis_gcc.h **** 
 209:../../../../../../Drivers/CMSIS/Include/cmsis_gcc.h **** 
 210:../../../../../../Drivers/CMSIS/Include/cmsis_gcc.h **** #if (defined (__ARM_FEATURE_CMSE ) && (__ARM_FEATURE_CMSE == 3))
 211:../../../../../../Drivers/CMSIS/Include/cmsis_gcc.h **** /**
 212:../../../../../../Drivers/CMSIS/Include/cmsis_gcc.h ****   \brief   Get Process Stack Pointer (non-secure)
 213:../../../../../../Drivers/CMSIS/Include/cmsis_gcc.h ****   \details Returns the current value of the non-secure Process Stack Pointer (PSP) when in secure s
 214:../../../../../../Drivers/CMSIS/Include/cmsis_gcc.h ****   \return               PSP Register value
 215:../../../../../../Drivers/CMSIS/Include/cmsis_gcc.h ****  */
 216:../../../../../../Drivers/CMSIS/Include/cmsis_gcc.h **** __attribute__((always_inline)) __STATIC_INLINE uint32_t __TZ_get_PSP_NS(void)
 217:../../../../../../Drivers/CMSIS/Include/cmsis_gcc.h **** {
 218:../../../../../../Drivers/CMSIS/Include/cmsis_gcc.h ****   register uint32_t result;
 219:../../../../../../Drivers/CMSIS/Include/cmsis_gcc.h **** 
 220:../../../../../../Drivers/CMSIS/Include/cmsis_gcc.h ****   __ASM volatile ("MRS %0, psp_ns"  : "=r" (result) );
 221:../../../../../../Drivers/CMSIS/Include/cmsis_gcc.h ****   return(result);
 222:../../../../../../Drivers/CMSIS/Include/cmsis_gcc.h **** }
ARM GAS  C:\Users\EBANO_~1\AppData\Local\Temp\ccsZgiNd.s 			page 43


 223:../../../../../../Drivers/CMSIS/Include/cmsis_gcc.h **** #endif
 224:../../../../../../Drivers/CMSIS/Include/cmsis_gcc.h **** 
 225:../../../../../../Drivers/CMSIS/Include/cmsis_gcc.h **** 
 226:../../../../../../Drivers/CMSIS/Include/cmsis_gcc.h **** /**
 227:../../../../../../Drivers/CMSIS/Include/cmsis_gcc.h ****   \brief   Set Process Stack Pointer
 228:../../../../../../Drivers/CMSIS/Include/cmsis_gcc.h ****   \details Assigns the given value to the Process Stack Pointer (PSP).
 229:../../../../../../Drivers/CMSIS/Include/cmsis_gcc.h ****   \param [in]    topOfProcStack  Process Stack Pointer value to set
 230:../../../../../../Drivers/CMSIS/Include/cmsis_gcc.h ****  */
 231:../../../../../../Drivers/CMSIS/Include/cmsis_gcc.h **** __attribute__((always_inline)) __STATIC_INLINE void __set_PSP(uint32_t topOfProcStack)
 232:../../../../../../Drivers/CMSIS/Include/cmsis_gcc.h **** {
 233:../../../../../../Drivers/CMSIS/Include/cmsis_gcc.h ****   __ASM volatile ("MSR psp, %0" : : "r" (topOfProcStack) : );
 234:../../../../../../Drivers/CMSIS/Include/cmsis_gcc.h **** }
 235:../../../../../../Drivers/CMSIS/Include/cmsis_gcc.h **** 
 236:../../../../../../Drivers/CMSIS/Include/cmsis_gcc.h **** 
 237:../../../../../../Drivers/CMSIS/Include/cmsis_gcc.h **** #if (defined (__ARM_FEATURE_CMSE ) && (__ARM_FEATURE_CMSE == 3))
 238:../../../../../../Drivers/CMSIS/Include/cmsis_gcc.h **** /**
 239:../../../../../../Drivers/CMSIS/Include/cmsis_gcc.h ****   \brief   Set Process Stack Pointer (non-secure)
 240:../../../../../../Drivers/CMSIS/Include/cmsis_gcc.h ****   \details Assigns the given value to the non-secure Process Stack Pointer (PSP) when in secure sta
 241:../../../../../../Drivers/CMSIS/Include/cmsis_gcc.h ****   \param [in]    topOfProcStack  Process Stack Pointer value to set
 242:../../../../../../Drivers/CMSIS/Include/cmsis_gcc.h ****  */
 243:../../../../../../Drivers/CMSIS/Include/cmsis_gcc.h **** __attribute__((always_inline)) __STATIC_INLINE void __TZ_set_PSP_NS(uint32_t topOfProcStack)
 244:../../../../../../Drivers/CMSIS/Include/cmsis_gcc.h **** {
 245:../../../../../../Drivers/CMSIS/Include/cmsis_gcc.h ****   __ASM volatile ("MSR psp_ns, %0" : : "r" (topOfProcStack) : );
 246:../../../../../../Drivers/CMSIS/Include/cmsis_gcc.h **** }
 247:../../../../../../Drivers/CMSIS/Include/cmsis_gcc.h **** #endif
 248:../../../../../../Drivers/CMSIS/Include/cmsis_gcc.h **** 
 249:../../../../../../Drivers/CMSIS/Include/cmsis_gcc.h **** 
 250:../../../../../../Drivers/CMSIS/Include/cmsis_gcc.h **** /**
 251:../../../../../../Drivers/CMSIS/Include/cmsis_gcc.h ****   \brief   Get Main Stack Pointer
 252:../../../../../../Drivers/CMSIS/Include/cmsis_gcc.h ****   \details Returns the current value of the Main Stack Pointer (MSP).
 253:../../../../../../Drivers/CMSIS/Include/cmsis_gcc.h ****   \return               MSP Register value
 254:../../../../../../Drivers/CMSIS/Include/cmsis_gcc.h ****  */
 255:../../../../../../Drivers/CMSIS/Include/cmsis_gcc.h **** __attribute__((always_inline)) __STATIC_INLINE uint32_t __get_MSP(void)
 256:../../../../../../Drivers/CMSIS/Include/cmsis_gcc.h **** {
 257:../../../../../../Drivers/CMSIS/Include/cmsis_gcc.h ****   register uint32_t result;
 258:../../../../../../Drivers/CMSIS/Include/cmsis_gcc.h **** 
 259:../../../../../../Drivers/CMSIS/Include/cmsis_gcc.h ****   __ASM volatile ("MRS %0, msp" : "=r" (result) );
 260:../../../../../../Drivers/CMSIS/Include/cmsis_gcc.h ****   return(result);
 261:../../../../../../Drivers/CMSIS/Include/cmsis_gcc.h **** }
 262:../../../../../../Drivers/CMSIS/Include/cmsis_gcc.h **** 
 263:../../../../../../Drivers/CMSIS/Include/cmsis_gcc.h **** 
 264:../../../../../../Drivers/CMSIS/Include/cmsis_gcc.h **** #if (defined (__ARM_FEATURE_CMSE ) && (__ARM_FEATURE_CMSE == 3))
 265:../../../../../../Drivers/CMSIS/Include/cmsis_gcc.h **** /**
 266:../../../../../../Drivers/CMSIS/Include/cmsis_gcc.h ****   \brief   Get Main Stack Pointer (non-secure)
 267:../../../../../../Drivers/CMSIS/Include/cmsis_gcc.h ****   \details Returns the current value of the non-secure Main Stack Pointer (MSP) when in secure stat
 268:../../../../../../Drivers/CMSIS/Include/cmsis_gcc.h ****   \return               MSP Register value
 269:../../../../../../Drivers/CMSIS/Include/cmsis_gcc.h ****  */
 270:../../../../../../Drivers/CMSIS/Include/cmsis_gcc.h **** __attribute__((always_inline)) __STATIC_INLINE uint32_t __TZ_get_MSP_NS(void)
 271:../../../../../../Drivers/CMSIS/Include/cmsis_gcc.h **** {
 272:../../../../../../Drivers/CMSIS/Include/cmsis_gcc.h ****   register uint32_t result;
 273:../../../../../../Drivers/CMSIS/Include/cmsis_gcc.h **** 
 274:../../../../../../Drivers/CMSIS/Include/cmsis_gcc.h ****   __ASM volatile ("MRS %0, msp_ns" : "=r" (result) );
 275:../../../../../../Drivers/CMSIS/Include/cmsis_gcc.h ****   return(result);
 276:../../../../../../Drivers/CMSIS/Include/cmsis_gcc.h **** }
 277:../../../../../../Drivers/CMSIS/Include/cmsis_gcc.h **** #endif
 278:../../../../../../Drivers/CMSIS/Include/cmsis_gcc.h **** 
 279:../../../../../../Drivers/CMSIS/Include/cmsis_gcc.h **** 
ARM GAS  C:\Users\EBANO_~1\AppData\Local\Temp\ccsZgiNd.s 			page 44


 280:../../../../../../Drivers/CMSIS/Include/cmsis_gcc.h **** /**
 281:../../../../../../Drivers/CMSIS/Include/cmsis_gcc.h ****   \brief   Set Main Stack Pointer
 282:../../../../../../Drivers/CMSIS/Include/cmsis_gcc.h ****   \details Assigns the given value to the Main Stack Pointer (MSP).
 283:../../../../../../Drivers/CMSIS/Include/cmsis_gcc.h ****   \param [in]    topOfMainStack  Main Stack Pointer value to set
 284:../../../../../../Drivers/CMSIS/Include/cmsis_gcc.h ****  */
 285:../../../../../../Drivers/CMSIS/Include/cmsis_gcc.h **** __attribute__((always_inline)) __STATIC_INLINE void __set_MSP(uint32_t topOfMainStack)
 286:../../../../../../Drivers/CMSIS/Include/cmsis_gcc.h **** {
 287:../../../../../../Drivers/CMSIS/Include/cmsis_gcc.h ****   __ASM volatile ("MSR msp, %0" : : "r" (topOfMainStack) : );
 288:../../../../../../Drivers/CMSIS/Include/cmsis_gcc.h **** }
 289:../../../../../../Drivers/CMSIS/Include/cmsis_gcc.h **** 
 290:../../../../../../Drivers/CMSIS/Include/cmsis_gcc.h **** 
 291:../../../../../../Drivers/CMSIS/Include/cmsis_gcc.h **** #if (defined (__ARM_FEATURE_CMSE ) && (__ARM_FEATURE_CMSE == 3))
 292:../../../../../../Drivers/CMSIS/Include/cmsis_gcc.h **** /**
 293:../../../../../../Drivers/CMSIS/Include/cmsis_gcc.h ****   \brief   Set Main Stack Pointer (non-secure)
 294:../../../../../../Drivers/CMSIS/Include/cmsis_gcc.h ****   \details Assigns the given value to the non-secure Main Stack Pointer (MSP) when in secure state.
 295:../../../../../../Drivers/CMSIS/Include/cmsis_gcc.h ****   \param [in]    topOfMainStack  Main Stack Pointer value to set
 296:../../../../../../Drivers/CMSIS/Include/cmsis_gcc.h ****  */
 297:../../../../../../Drivers/CMSIS/Include/cmsis_gcc.h **** __attribute__((always_inline)) __STATIC_INLINE void __TZ_set_MSP_NS(uint32_t topOfMainStack)
 298:../../../../../../Drivers/CMSIS/Include/cmsis_gcc.h **** {
 299:../../../../../../Drivers/CMSIS/Include/cmsis_gcc.h ****   __ASM volatile ("MSR msp_ns, %0" : : "r" (topOfMainStack) : );
 300:../../../../../../Drivers/CMSIS/Include/cmsis_gcc.h **** }
 301:../../../../../../Drivers/CMSIS/Include/cmsis_gcc.h **** #endif
 302:../../../../../../Drivers/CMSIS/Include/cmsis_gcc.h **** 
 303:../../../../../../Drivers/CMSIS/Include/cmsis_gcc.h **** 
 304:../../../../../../Drivers/CMSIS/Include/cmsis_gcc.h **** /**
 305:../../../../../../Drivers/CMSIS/Include/cmsis_gcc.h ****   \brief   Get Priority Mask
 306:../../../../../../Drivers/CMSIS/Include/cmsis_gcc.h ****   \details Returns the current state of the priority mask bit from the Priority Mask Register.
 307:../../../../../../Drivers/CMSIS/Include/cmsis_gcc.h ****   \return               Priority Mask value
 308:../../../../../../Drivers/CMSIS/Include/cmsis_gcc.h ****  */
 309:../../../../../../Drivers/CMSIS/Include/cmsis_gcc.h **** __attribute__((always_inline)) __STATIC_INLINE uint32_t __get_PRIMASK(void)
 310:../../../../../../Drivers/CMSIS/Include/cmsis_gcc.h **** {
 311:../../../../../../Drivers/CMSIS/Include/cmsis_gcc.h ****   uint32_t result;
 312:../../../../../../Drivers/CMSIS/Include/cmsis_gcc.h **** 
 313:../../../../../../Drivers/CMSIS/Include/cmsis_gcc.h ****   __ASM volatile ("MRS %0, primask" : "=r" (result) );
 1455              		.loc 2 313 0
 1456              		.syntax divided
 1457              	@ 313 "../../../../../../Drivers/CMSIS/Include/cmsis_gcc.h" 1
 1458 0004 EFF31085 		MRS r5, primask
 1459              	@ 0 "" 2
 1460              		.thumb
 1461              		.syntax unified
 1462              	.LBE92:
 1463              	.LBE91:
 1464              	.LBB93:
 1465              	.LBB94:
  96:../../../../../../Drivers/CMSIS/Include/cmsis_gcc.h **** }
 1466              		.loc 2 96 0
 1467              		.syntax divided
 1468              	@ 96 "../../../../../../Drivers/CMSIS/Include/cmsis_gcc.h" 1
 1469 0008 72B6     		cpsid i
 1470              	@ 0 "" 2
 1471              		.thumb
 1472              		.syntax unified
 1473              	.LBE94:
 1474              	.LBE93:
 1475              	.LBB95:
 1476              	.LBB96:
ARM GAS  C:\Users\EBANO_~1\AppData\Local\Temp\ccsZgiNd.s 			page 45


 168:../Core/src/mlm32l0xx_hw.c ****   HW_GPIO_Init ( RADIO_MISO_PORT, RADIO_MISO_PIN, &initStruct ); 
 1477              		.loc 1 168 0
 1478 000a A024     		movs	r4, #160
 164:../Core/src/mlm32l0xx_hw.c ****     
 1479              		.loc 1 164 0
 1480 000c 1422     		movs	r2, #20
 1481 000e 0021     		movs	r1, #0
 1482 0010 01A8     		add	r0, sp, #4
 1483 0012 FFF7FEFF 		bl	memset
 1484              	.LVL78:
 166:../Core/src/mlm32l0xx_hw.c ****   initStruct.Pull =GPIO_NOPULL;
 1485              		.loc 1 166 0
 1486 0016 0323     		movs	r3, #3
 168:../Core/src/mlm32l0xx_hw.c ****   HW_GPIO_Init ( RADIO_MISO_PORT, RADIO_MISO_PIN, &initStruct ); 
 1487              		.loc 1 168 0
 1488 0018 E405     		lsls	r4, r4, #23
 1489 001a 01AA     		add	r2, sp, #4
 1490 001c 2000     		movs	r0, r4
 1491 001e 8021     		movs	r1, #128
 166:../Core/src/mlm32l0xx_hw.c ****   initStruct.Pull =GPIO_NOPULL;
 1492              		.loc 1 166 0
 1493 0020 0293     		str	r3, [sp, #8]
 168:../Core/src/mlm32l0xx_hw.c ****   HW_GPIO_Init ( RADIO_MISO_PORT, RADIO_MISO_PIN, &initStruct ); 
 1494              		.loc 1 168 0
 1495 0022 FFF7FEFF 		bl	HW_GPIO_Init
 1496              	.LVL79:
 169:../Core/src/mlm32l0xx_hw.c ****   HW_GPIO_Init ( RADIO_SCLK_PORT, RADIO_SCLK_PIN, &initStruct ); 
 1497              		.loc 1 169 0
 1498 0026 01AA     		add	r2, sp, #4
 1499 0028 2000     		movs	r0, r4
 1500 002a 4021     		movs	r1, #64
 1501 002c FFF7FEFF 		bl	HW_GPIO_Init
 1502              	.LVL80:
 170:../Core/src/mlm32l0xx_hw.c ****   HW_GPIO_Init ( RADIO_NSS_PORT, RADIO_NSS_PIN , &initStruct ); 
 1503              		.loc 1 170 0
 1504 0030 01AA     		add	r2, sp, #4
 1505 0032 0821     		movs	r1, #8
 1506 0034 0D48     		ldr	r0, .L84
 1507 0036 FFF7FEFF 		bl	HW_GPIO_Init
 1508              	.LVL81:
 171:../Core/src/mlm32l0xx_hw.c **** 
 1509              		.loc 1 171 0
 1510 003a 8021     		movs	r1, #128
 1511 003c 01AA     		add	r2, sp, #4
 1512 003e 0902     		lsls	r1, r1, #8
 1513 0040 2000     		movs	r0, r4
 1514 0042 FFF7FEFF 		bl	HW_GPIO_Init
 1515              	.LVL82:
 174:../Core/src/mlm32l0xx_hw.c ****   
 1516              		.loc 1 174 0
 1517 0046 0A4B     		ldr	r3, .L84+4
 1518 0048 5B68     		ldr	r3, [r3, #4]
 1519 004a 9847     		blx	r3
 1520              	.LVL83:
 176:../Core/src/mlm32l0xx_hw.c **** }
 1521              		.loc 1 176 0
 1522 004c FFF7FEFF 		bl	vcom_IoDeInit
ARM GAS  C:\Users\EBANO_~1\AppData\Local\Temp\ccsZgiNd.s 			page 46


 1523              	.LVL84:
 1524              	.LBE96:
 1525              	.LBE95:
 467:../Core/src/mlm32l0xx_hw.c ****   BACKUP_PRIMASK();
 468:../Core/src/mlm32l0xx_hw.c **** 
 469:../Core/src/mlm32l0xx_hw.c ****   DISABLE_IRQ( );
 470:../Core/src/mlm32l0xx_hw.c **** 
 471:../Core/src/mlm32l0xx_hw.c ****   HW_IoDeInit( );
 472:../Core/src/mlm32l0xx_hw.c ****   
 473:../Core/src/mlm32l0xx_hw.c ****   /*clear wake up flag*/
 474:../Core/src/mlm32l0xx_hw.c ****   SET_BIT(PWR->CR, PWR_CR_CWUF);
 1526              		.loc 1 474 0
 1527 0050 0421     		movs	r1, #4
 1528 0052 084A     		ldr	r2, .L84+8
 1529 0054 1368     		ldr	r3, [r2]
 1530 0056 0B43     		orrs	r3, r1
 1531 0058 1360     		str	r3, [r2]
 1532              	.LBB97:
 1533              	.LBB98:
 314:../../../../../../Drivers/CMSIS/Include/cmsis_gcc.h ****   return(result);
 315:../../../../../../Drivers/CMSIS/Include/cmsis_gcc.h **** }
 316:../../../../../../Drivers/CMSIS/Include/cmsis_gcc.h **** 
 317:../../../../../../Drivers/CMSIS/Include/cmsis_gcc.h **** 
 318:../../../../../../Drivers/CMSIS/Include/cmsis_gcc.h **** #if (defined (__ARM_FEATURE_CMSE ) && (__ARM_FEATURE_CMSE == 3))
 319:../../../../../../Drivers/CMSIS/Include/cmsis_gcc.h **** /**
 320:../../../../../../Drivers/CMSIS/Include/cmsis_gcc.h ****   \brief   Get Priority Mask (non-secure)
 321:../../../../../../Drivers/CMSIS/Include/cmsis_gcc.h ****   \details Returns the current state of the non-secure priority mask bit from the Priority Mask Reg
 322:../../../../../../Drivers/CMSIS/Include/cmsis_gcc.h ****   \return               Priority Mask value
 323:../../../../../../Drivers/CMSIS/Include/cmsis_gcc.h ****  */
 324:../../../../../../Drivers/CMSIS/Include/cmsis_gcc.h **** __attribute__((always_inline)) __STATIC_INLINE uint32_t __TZ_get_PRIMASK_NS(void)
 325:../../../../../../Drivers/CMSIS/Include/cmsis_gcc.h **** {
 326:../../../../../../Drivers/CMSIS/Include/cmsis_gcc.h ****   uint32_t result;
 327:../../../../../../Drivers/CMSIS/Include/cmsis_gcc.h **** 
 328:../../../../../../Drivers/CMSIS/Include/cmsis_gcc.h ****   __ASM volatile ("MRS %0, primask_ns" : "=r" (result) );
 329:../../../../../../Drivers/CMSIS/Include/cmsis_gcc.h ****   return(result);
 330:../../../../../../Drivers/CMSIS/Include/cmsis_gcc.h **** }
 331:../../../../../../Drivers/CMSIS/Include/cmsis_gcc.h **** #endif
 332:../../../../../../Drivers/CMSIS/Include/cmsis_gcc.h **** 
 333:../../../../../../Drivers/CMSIS/Include/cmsis_gcc.h **** 
 334:../../../../../../Drivers/CMSIS/Include/cmsis_gcc.h **** /**
 335:../../../../../../Drivers/CMSIS/Include/cmsis_gcc.h ****   \brief   Set Priority Mask
 336:../../../../../../Drivers/CMSIS/Include/cmsis_gcc.h ****   \details Assigns the given value to the Priority Mask Register.
 337:../../../../../../Drivers/CMSIS/Include/cmsis_gcc.h ****   \param [in]    priMask  Priority Mask
 338:../../../../../../Drivers/CMSIS/Include/cmsis_gcc.h ****  */
 339:../../../../../../Drivers/CMSIS/Include/cmsis_gcc.h **** __attribute__((always_inline)) __STATIC_INLINE void __set_PRIMASK(uint32_t priMask)
 340:../../../../../../Drivers/CMSIS/Include/cmsis_gcc.h **** {
 341:../../../../../../Drivers/CMSIS/Include/cmsis_gcc.h ****   __ASM volatile ("MSR primask, %0" : : "r" (priMask) : "memory");
 1534              		.loc 2 341 0
 1535              		.syntax divided
 1536              	@ 341 "../../../../../../Drivers/CMSIS/Include/cmsis_gcc.h" 1
 1537 005a 85F31088 		MSR primask, r5
 1538              	@ 0 "" 2
 1539              		.thumb
 1540              		.syntax unified
 1541              	.LBE98:
 1542              	.LBE97:
 475:../Core/src/mlm32l0xx_hw.c ****   
ARM GAS  C:\Users\EBANO_~1\AppData\Local\Temp\ccsZgiNd.s 			page 47


 476:../Core/src/mlm32l0xx_hw.c ****   RESTORE_PRIMASK( );
 477:../Core/src/mlm32l0xx_hw.c **** 
 478:../Core/src/mlm32l0xx_hw.c ****   /* Enter Stop Mode */
 479:../Core/src/mlm32l0xx_hw.c ****   HAL_PWR_EnterSTOPMode ( PWR_LOWPOWERREGULATOR_ON, PWR_STOPENTRY_WFI );
 1543              		.loc 1 479 0
 1544 005e 0120     		movs	r0, #1
 1545 0060 0339     		subs	r1, r1, #3
 1546 0062 FFF7FEFF 		bl	HAL_PWR_EnterSTOPMode
 1547              	.LVL85:
 480:../Core/src/mlm32l0xx_hw.c **** }
 1548              		.loc 1 480 0
 1549 0066 07B0     		add	sp, sp, #28
 1550              		@ sp needed
 1551 0068 30BD     		pop	{r4, r5, pc}
 1552              	.L85:
 1553 006a C046     		.align	2
 1554              	.L84:
 1555 006c 00040050 		.word	1342178304
 1556 0070 00000000 		.word	Radio
 1557 0074 00700040 		.word	1073770496
 1558              		.cfi_endproc
 1559              	.LFE52:
 1560              		.size	LPM_EnterStopMode, .-LPM_EnterStopMode
 1561              		.section	.text.LPM_ExitStopMode,"ax",%progbits
 1562              		.align	1
 1563              		.p2align 2,,3
 1564              		.global	LPM_ExitStopMode
 1565              		.syntax unified
 1566              		.code	16
 1567              		.thumb_func
 1568              		.fpu softvfp
 1569              		.type	LPM_ExitStopMode, %function
 1570              	LPM_ExitStopMode:
 1571              	.LFB53:
 481:../Core/src/mlm32l0xx_hw.c **** /**
 482:../Core/src/mlm32l0xx_hw.c ****   * @brief Exists Low Power Stop Mode
 483:../Core/src/mlm32l0xx_hw.c ****   * @note Enable the pll at 32MHz
 484:../Core/src/mlm32l0xx_hw.c ****   * @param none
 485:../Core/src/mlm32l0xx_hw.c ****   * @retval none
 486:../Core/src/mlm32l0xx_hw.c ****   */
 487:../Core/src/mlm32l0xx_hw.c **** void LPM_ExitStopMode( void)
 488:../Core/src/mlm32l0xx_hw.c **** {
 1572              		.loc 1 488 0
 1573              		.cfi_startproc
 1574              		@ args = 0, pretend = 0, frame = 8
 1575              		@ frame_needed = 0, uses_anonymous_args = 0
 1576 0000 10B5     		push	{r4, lr}
 1577              	.LCFI18:
 1578              		.cfi_def_cfa_offset 8
 1579              		.cfi_offset 4, -8
 1580              		.cfi_offset 14, -4
 1581 0002 82B0     		sub	sp, sp, #8
 1582              	.LCFI19:
 1583              		.cfi_def_cfa_offset 16
 1584              	.LBB107:
 1585              	.LBB108:
 313:../../../../../../Drivers/CMSIS/Include/cmsis_gcc.h ****   return(result);
ARM GAS  C:\Users\EBANO_~1\AppData\Local\Temp\ccsZgiNd.s 			page 48


 1586              		.loc 2 313 0
 1587              		.syntax divided
 1588              	@ 313 "../../../../../../Drivers/CMSIS/Include/cmsis_gcc.h" 1
 1589 0004 EFF31084 		MRS r4, primask
 1590              	@ 0 "" 2
 1591              		.thumb
 1592              		.syntax unified
 1593              	.LBE108:
 1594              	.LBE107:
 1595              	.LBB109:
 1596              	.LBB110:
  96:../../../../../../Drivers/CMSIS/Include/cmsis_gcc.h **** }
 1597              		.loc 2 96 0
 1598              		.syntax divided
 1599              	@ 96 "../../../../../../Drivers/CMSIS/Include/cmsis_gcc.h" 1
 1600 0008 72B6     		cpsid i
 1601              	@ 0 "" 2
 1602              		.thumb
 1603              		.syntax unified
 1604              	.LBE110:
 1605              	.LBE109:
 489:../Core/src/mlm32l0xx_hw.c ****   /* Disable IRQ while the MCU is not running on HSI */
 490:../Core/src/mlm32l0xx_hw.c **** 
 491:../Core/src/mlm32l0xx_hw.c ****   BACKUP_PRIMASK();
 492:../Core/src/mlm32l0xx_hw.c ****   
 493:../Core/src/mlm32l0xx_hw.c ****   DISABLE_IRQ( );
 494:../Core/src/mlm32l0xx_hw.c **** 
 495:../Core/src/mlm32l0xx_hw.c ****   /* After wake-up from STOP reconfigure the system clock */
 496:../Core/src/mlm32l0xx_hw.c ****   /* Enable HSI */
 497:../Core/src/mlm32l0xx_hw.c ****   __HAL_RCC_HSI_ENABLE();
 1606              		.loc 1 497 0
 1607 000a 0121     		movs	r1, #1
 1608 000c 144B     		ldr	r3, .L95
 1609 000e 1A68     		ldr	r2, [r3]
 1610 0010 0A43     		orrs	r2, r1
 1611 0012 1A60     		str	r2, [r3]
 498:../Core/src/mlm32l0xx_hw.c **** 
 499:../Core/src/mlm32l0xx_hw.c ****   /* Wait till HSI is ready */
 500:../Core/src/mlm32l0xx_hw.c ****   while( __HAL_RCC_GET_FLAG(RCC_FLAG_HSIRDY) == RESET ) {}
 1612              		.loc 1 500 0
 1613 0014 0331     		adds	r1, r1, #3
 1614              	.L87:
 1615              		.loc 1 500 0 is_stmt 0 discriminator 1
 1616 0016 1A68     		ldr	r2, [r3]
 1617 0018 1142     		tst	r1, r2
 1618 001a FCD0     		beq	.L87
 501:../Core/src/mlm32l0xx_hw.c ****   
 502:../Core/src/mlm32l0xx_hw.c ****   /* Enable PLL */
 503:../Core/src/mlm32l0xx_hw.c ****   __HAL_RCC_PLL_ENABLE();
 1619              		.loc 1 503 0 is_stmt 1
 1620 001c 8022     		movs	r2, #128
 1621 001e 1968     		ldr	r1, [r3]
 1622 0020 5204     		lsls	r2, r2, #17
 1623 0022 0A43     		orrs	r2, r1
 504:../Core/src/mlm32l0xx_hw.c ****   /* Wait till PLL is ready */
 505:../Core/src/mlm32l0xx_hw.c ****   while( __HAL_RCC_GET_FLAG( RCC_FLAG_PLLRDY ) == RESET ) {}
 1624              		.loc 1 505 0
ARM GAS  C:\Users\EBANO_~1\AppData\Local\Temp\ccsZgiNd.s 			page 49


 1625 0024 8021     		movs	r1, #128
 503:../Core/src/mlm32l0xx_hw.c ****   /* Wait till PLL is ready */
 1626              		.loc 1 503 0
 1627 0026 1A60     		str	r2, [r3]
 1628              		.loc 1 505 0
 1629 0028 0D4A     		ldr	r2, .L95
 1630 002a 8904     		lsls	r1, r1, #18
 1631              	.L88:
 1632              		.loc 1 505 0 is_stmt 0 discriminator 1
 1633 002c 1368     		ldr	r3, [r2]
 1634 002e 0B42     		tst	r3, r1
 1635 0030 FCD0     		beq	.L88
 506:../Core/src/mlm32l0xx_hw.c ****   
 507:../Core/src/mlm32l0xx_hw.c ****   /* Select PLL as system clock source */
 508:../Core/src/mlm32l0xx_hw.c ****   __HAL_RCC_SYSCLK_CONFIG ( RCC_SYSCLKSOURCE_PLLCLK );
 1636              		.loc 1 508 0 is_stmt 1
 1637 0032 0321     		movs	r1, #3
 1638 0034 D368     		ldr	r3, [r2, #12]
 1639 0036 0B43     		orrs	r3, r1
 1640 0038 D360     		str	r3, [r2, #12]
 509:../Core/src/mlm32l0xx_hw.c ****   
 510:../Core/src/mlm32l0xx_hw.c ****   /* Wait till PLL is used as system clock source */ 
 511:../Core/src/mlm32l0xx_hw.c ****   while( __HAL_RCC_GET_SYSCLK_SOURCE( ) != RCC_SYSCLKSOURCE_STATUS_PLLCLK ) {}
 1641              		.loc 1 511 0
 1642 003a 0C22     		movs	r2, #12
 1643 003c 0849     		ldr	r1, .L95
 1644              	.L89:
 1645              		.loc 1 511 0 is_stmt 0 discriminator 1
 1646 003e CB68     		ldr	r3, [r1, #12]
 1647 0040 1340     		ands	r3, r2
 1648 0042 0C2B     		cmp	r3, #12
 1649 0044 FBD1     		bne	.L89
 1650              	.LBB111:
 1651              	.LBB112:
 149:../Core/src/mlm32l0xx_hw.c ****   
 1652              		.loc 1 149 0 is_stmt 1
 1653 0046 FFF7FEFF 		bl	HW_SPI_IoInit
 1654              	.LVL86:
 151:../Core/src/mlm32l0xx_hw.c ****   
 1655              		.loc 1 151 0
 1656 004a 064B     		ldr	r3, .L95+4
 1657 004c 1B68     		ldr	r3, [r3]
 1658 004e 0193     		str	r3, [sp, #4]
 1659 0050 9847     		blx	r3
 1660              	.LVL87:
 153:../Core/src/mlm32l0xx_hw.c **** }
 1661              		.loc 1 153 0
 1662 0052 FFF7FEFF 		bl	vcom_IoInit
 1663              	.LVL88:
 1664              	.LBE112:
 1665              	.LBE111:
 1666              	.LBB113:
 1667              	.LBB114:
 1668              		.loc 2 341 0
 1669              		.syntax divided
 1670              	@ 341 "../../../../../../Drivers/CMSIS/Include/cmsis_gcc.h" 1
 1671 0056 84F31088 		MSR primask, r4
ARM GAS  C:\Users\EBANO_~1\AppData\Local\Temp\ccsZgiNd.s 			page 50


 1672              	@ 0 "" 2
 1673              	.LVL89:
 1674              		.thumb
 1675              		.syntax unified
 1676              	.LBE114:
 1677              	.LBE113:
 512:../Core/src/mlm32l0xx_hw.c ****     
 513:../Core/src/mlm32l0xx_hw.c ****   /*initilizes the peripherals*/
 514:../Core/src/mlm32l0xx_hw.c ****   HW_IoInit( );
 515:../Core/src/mlm32l0xx_hw.c **** 
 516:../Core/src/mlm32l0xx_hw.c ****   RESTORE_PRIMASK( );
 517:../Core/src/mlm32l0xx_hw.c **** }
 1678              		.loc 1 517 0
 1679 005a 02B0     		add	sp, sp, #8
 1680              		@ sp needed
 1681 005c 10BD     		pop	{r4, pc}
 1682              	.L96:
 1683 005e C046     		.align	2
 1684              	.L95:
 1685 0060 00100240 		.word	1073876992
 1686 0064 00000000 		.word	Radio
 1687              		.cfi_endproc
 1688              	.LFE53:
 1689              		.size	LPM_ExitStopMode, .-LPM_ExitStopMode
 1690              		.section	.text.LPM_EnterSleepMode,"ax",%progbits
 1691              		.align	1
 1692              		.p2align 2,,3
 1693              		.global	LPM_EnterSleepMode
 1694              		.syntax unified
 1695              		.code	16
 1696              		.thumb_func
 1697              		.fpu softvfp
 1698              		.type	LPM_EnterSleepMode, %function
 1699              	LPM_EnterSleepMode:
 1700              	.LFB54:
 518:../Core/src/mlm32l0xx_hw.c **** 
 519:../Core/src/mlm32l0xx_hw.c **** /**
 520:../Core/src/mlm32l0xx_hw.c ****   * @brief Enters Low Power Sleep Mode
 521:../Core/src/mlm32l0xx_hw.c ****   * @note ARM exits the function when waking up
 522:../Core/src/mlm32l0xx_hw.c ****   * @param none
 523:../Core/src/mlm32l0xx_hw.c ****   * @retval none
 524:../Core/src/mlm32l0xx_hw.c ****   */
 525:../Core/src/mlm32l0xx_hw.c **** void LPM_EnterSleepMode( void)
 526:../Core/src/mlm32l0xx_hw.c **** {
 1701              		.loc 1 526 0
 1702              		.cfi_startproc
 1703              		@ args = 0, pretend = 0, frame = 0
 1704              		@ frame_needed = 0, uses_anonymous_args = 0
 1705 0000 10B5     		push	{r4, lr}
 1706              	.LCFI20:
 1707              		.cfi_def_cfa_offset 8
 1708              		.cfi_offset 4, -8
 1709              		.cfi_offset 14, -4
 527:../Core/src/mlm32l0xx_hw.c ****     HAL_PWR_EnterSLEEPMode(PWR_MAINREGULATOR_ON, PWR_SLEEPENTRY_WFI);
 1710              		.loc 1 527 0
 1711 0002 0121     		movs	r1, #1
 1712 0004 0020     		movs	r0, #0
ARM GAS  C:\Users\EBANO_~1\AppData\Local\Temp\ccsZgiNd.s 			page 51


 1713 0006 FFF7FEFF 		bl	HAL_PWR_EnterSLEEPMode
 1714              	.LVL90:
 528:../Core/src/mlm32l0xx_hw.c **** }
 1715              		.loc 1 528 0
 1716              		@ sp needed
 1717 000a 10BD     		pop	{r4, pc}
 1718              		.cfi_endproc
 1719              	.LFE54:
 1720              		.size	LPM_EnterSleepMode, .-LPM_EnterSleepMode
 1721              		.bss
 1722              		.align	2
 1723              		.set	.LANCHOR0,. + 0
 1724              		.type	McuInitialized, %object
 1725              		.size	McuInitialized, 1
 1726              	McuInitialized:
 1727 0000 00       		.space	1
 1728              		.type	AdcInitialized, %object
 1729              		.size	AdcInitialized, 1
 1730              	AdcInitialized:
 1731 0001 00       		.space	1
 1732 0002 0000     		.space	2
 1733              		.type	hadc, %object
 1734              		.size	hadc, 96
 1735              	hadc:
 1736 0004 00000000 		.space	96
 1736      00000000 
 1736      00000000 
 1736      00000000 
 1736      00000000 
 1737              		.text
 1738              	.Letext0:
 1739              		.file 3 "c:\\program files (x86)\\gnu tools arm embedded\\7 2018-q2-update\\arm-none-eabi\\include
 1740              		.file 4 "c:\\program files (x86)\\gnu tools arm embedded\\7 2018-q2-update\\arm-none-eabi\\include
 1741              		.file 5 "c:\\program files (x86)\\gnu tools arm embedded\\7 2018-q2-update\\arm-none-eabi\\include
 1742              		.file 6 "c:\\program files (x86)\\gnu tools arm embedded\\7 2018-q2-update\\lib\\gcc\\arm-none-eab
 1743              		.file 7 "c:\\program files (x86)\\gnu tools arm embedded\\7 2018-q2-update\\arm-none-eabi\\include
 1744              		.file 8 "c:\\program files (x86)\\gnu tools arm embedded\\7 2018-q2-update\\arm-none-eabi\\include
 1745              		.file 9 "c:\\program files (x86)\\gnu tools arm embedded\\7 2018-q2-update\\arm-none-eabi\\include
 1746              		.file 10 "../../../../../../Drivers/CMSIS/Device/ST/STM32L0xx/Include/system_stm32l0xx.h"
 1747              		.file 11 "../../../../../../Drivers/CMSIS/Device/ST/STM32L0xx/Include/stm32l072xx.h"
 1748              		.file 12 "../../../../../../Drivers/CMSIS/Device/ST/STM32L0xx/Include/stm32l0xx.h"
 1749              		.file 13 "../../../../../../Drivers/STM32L0xx_HAL_Driver/Inc/stm32l0xx_hal_def.h"
 1750              		.file 14 "../../../../../../Drivers/STM32L0xx_HAL_Driver/Inc/stm32l0xx_hal_rcc.h"
 1751              		.file 15 "../../../../../../Drivers/STM32L0xx_HAL_Driver/Inc/stm32l0xx_hal_gpio.h"
 1752              		.file 16 "../../../../../../Drivers/STM32L0xx_HAL_Driver/Inc/stm32l0xx_hal_dma.h"
 1753              		.file 17 "../../../../../../Drivers/STM32L0xx_HAL_Driver/Inc/stm32l0xx_hal_adc.h"
 1754              		.file 18 "c:\\program files (x86)\\gnu tools arm embedded\\7 2018-q2-update\\arm-none-eabi\\includ
 1755              		.file 19 "../../../../../../Drivers/BSP/B-L072Z-LRWAN1/b-l072z-lrwan1.h"
 1756              		.file 20 "c:\\program files (x86)\\gnu tools arm embedded\\7 2018-q2-update\\arm-none-eabi\\includ
 1757              		.file 21 "../../../../../../Middlewares/Third_Party/LoRaWAN/Phy/radio.h"
 1758              		.file 22 "../../../../../../Drivers/STM32L0xx_HAL_Driver/Inc/stm32l0xx_hal_pwr.h"
 1759              		.file 23 "../LoRaWAN/App/inc/hw_spi.h"
 1760              		.file 24 "../LoRaWAN/App/inc/vcom.h"
 1761              		.file 25 "../LoRaWAN/App/inc/hw_gpio.h"
 1762              		.file 26 "../../../../../../Drivers/STM32L0xx_HAL_Driver/Inc/stm32l0xx_hal_adc_ex.h"
 1763              		.file 27 "../LoRaWAN/App/inc/debug.h"
 1764              		.file 28 "../LoRaWAN/App/inc/hw_rtc.h"
ARM GAS  C:\Users\EBANO_~1\AppData\Local\Temp\ccsZgiNd.s 			page 52


 1765              		.file 29 "../../../../../../Middlewares/Third_Party/LoRaWAN/Utilities/trace.h"
 1766              		.file 30 "../LoRaWAN/App/inc/bsp.h"
 1767              		.file 31 "<built-in>"