ARM GAS  C:\Users\EBANO_~1\AppData\Local\Temp\ccBx8b8i.s 			page 1


   1              		.cpu cortex-m0plus
   2              		.eabi_attribute 20, 1
   3              		.eabi_attribute 21, 1
   4              		.eabi_attribute 23, 3
   5              		.eabi_attribute 24, 1
   6              		.eabi_attribute 25, 1
   7              		.eabi_attribute 26, 1
   8              		.eabi_attribute 30, 2
   9              		.eabi_attribute 34, 0
  10              		.eabi_attribute 18, 4
  11              		.file	"mlm32l0xx_it.c"
  12              		.text
  13              	.Ltext0:
  14              		.cfi_sections	.debug_frame
  15              		.section	.text.NMI_Handler,"ax",%progbits
  16              		.align	1
  17              		.p2align 2,,3
  18              		.global	NMI_Handler
  19              		.syntax unified
  20              		.code	16
  21              		.thumb_func
  22              		.fpu softvfp
  23              		.type	NMI_Handler, %function
  24              	NMI_Handler:
  25              	.LFB39:
  26              		.file 1 "../Core/src/mlm32l0xx_it.c"
   1:../Core/src/mlm32l0xx_it.c **** /*
   2:../Core/src/mlm32l0xx_it.c ****  / _____)             _              | |
   3:../Core/src/mlm32l0xx_it.c **** ( (____  _____ ____ _| |_ _____  ____| |__
   4:../Core/src/mlm32l0xx_it.c ****  \____ \| ___ |    (_   _) ___ |/ ___)  _ \
   5:../Core/src/mlm32l0xx_it.c ****  _____) ) ____| | | || |_| ____( (___| | | |
   6:../Core/src/mlm32l0xx_it.c **** (______/|_____)_|_|_| \__)_____)\____)_| |_|
   7:../Core/src/mlm32l0xx_it.c ****     (C)2013 Semtech
   8:../Core/src/mlm32l0xx_it.c **** 
   9:../Core/src/mlm32l0xx_it.c **** Description: Bleeper board GPIO driver implementation
  10:../Core/src/mlm32l0xx_it.c **** 
  11:../Core/src/mlm32l0xx_it.c **** License: Revised BSD License, see LICENSE.TXT file include in the project
  12:../Core/src/mlm32l0xx_it.c **** 
  13:../Core/src/mlm32l0xx_it.c **** Maintainer: Miguel Luis and Gregory Cristian
  14:../Core/src/mlm32l0xx_it.c **** */
  15:../Core/src/mlm32l0xx_it.c **** /**
  16:../Core/src/mlm32l0xx_it.c ****   ******************************************************************************
  17:../Core/src/mlm32l0xx_it.c ****   * @file    mlm32l0xx_it.c
  18:../Core/src/mlm32l0xx_it.c ****   * @author  MCD Application Team
  19:../Core/src/mlm32l0xx_it.c ****   * @brief   manages interupt
  20:../Core/src/mlm32l0xx_it.c ****   ******************************************************************************
  21:../Core/src/mlm32l0xx_it.c ****   * @attention
  22:../Core/src/mlm32l0xx_it.c ****   *
  23:../Core/src/mlm32l0xx_it.c ****   * <h2><center>&copy; Copyright (c) 2018 STMicroelectronics.
  24:../Core/src/mlm32l0xx_it.c ****   * All rights reserved.</center></h2>
  25:../Core/src/mlm32l0xx_it.c ****   *
  26:../Core/src/mlm32l0xx_it.c ****   * This software component is licensed by ST under Ultimate Liberty license
  27:../Core/src/mlm32l0xx_it.c ****   * SLA0044, the "License"; You may not use this file except in compliance with
  28:../Core/src/mlm32l0xx_it.c ****   * the License. You may obtain a copy of the License at:
  29:../Core/src/mlm32l0xx_it.c ****   *                             www.st.com/SLA0044
  30:../Core/src/mlm32l0xx_it.c ****   *
  31:../Core/src/mlm32l0xx_it.c ****   ******************************************************************************
ARM GAS  C:\Users\EBANO_~1\AppData\Local\Temp\ccBx8b8i.s 			page 2


  32:../Core/src/mlm32l0xx_it.c ****   */
  33:../Core/src/mlm32l0xx_it.c **** 
  34:../Core/src/mlm32l0xx_it.c **** /* Includes ------------------------------------------------------------------*/
  35:../Core/src/mlm32l0xx_it.c **** #include "hw.h"
  36:../Core/src/mlm32l0xx_it.c **** #include "vcom.h"
  37:../Core/src/mlm32l0xx_it.c **** #include "mlm32l0xx_it.h"
  38:../Core/src/mlm32l0xx_it.c **** 
  39:../Core/src/mlm32l0xx_it.c **** 
  40:../Core/src/mlm32l0xx_it.c **** /** @addtogroup STM32L1xx_HAL_Examples
  41:../Core/src/mlm32l0xx_it.c ****   * @{
  42:../Core/src/mlm32l0xx_it.c ****   */
  43:../Core/src/mlm32l0xx_it.c **** 
  44:../Core/src/mlm32l0xx_it.c **** /** @addtogroup SPI_FullDuplex_ComPolling
  45:../Core/src/mlm32l0xx_it.c ****   * @{
  46:../Core/src/mlm32l0xx_it.c ****   */
  47:../Core/src/mlm32l0xx_it.c **** 
  48:../Core/src/mlm32l0xx_it.c **** /* Private typedef -----------------------------------------------------------*/
  49:../Core/src/mlm32l0xx_it.c **** /* Private define ------------------------------------------------------------*/
  50:../Core/src/mlm32l0xx_it.c **** /* Private macro -------------------------------------------------------------*/
  51:../Core/src/mlm32l0xx_it.c **** /* Private variables ---------------------------------------------------------*/
  52:../Core/src/mlm32l0xx_it.c **** /* Private function prototypes -----------------------------------------------*/
  53:../Core/src/mlm32l0xx_it.c **** /* Private functions ---------------------------------------------------------*/
  54:../Core/src/mlm32l0xx_it.c **** 
  55:../Core/src/mlm32l0xx_it.c **** /******************************************************************************/
  56:../Core/src/mlm32l0xx_it.c **** /*            Cortex-M3 Processor Exceptions Handlers                         */
  57:../Core/src/mlm32l0xx_it.c **** /******************************************************************************/
  58:../Core/src/mlm32l0xx_it.c **** 
  59:../Core/src/mlm32l0xx_it.c **** /**
  60:../Core/src/mlm32l0xx_it.c ****   * @brief   This function handles NMI exception.
  61:../Core/src/mlm32l0xx_it.c ****   * @param  None
  62:../Core/src/mlm32l0xx_it.c ****   * @retval None
  63:../Core/src/mlm32l0xx_it.c ****   */
  64:../Core/src/mlm32l0xx_it.c **** 
  65:../Core/src/mlm32l0xx_it.c **** void NMI_Handler(void)
  66:../Core/src/mlm32l0xx_it.c **** {
  27              		.loc 1 66 0
  28              		.cfi_startproc
  29              		@ args = 0, pretend = 0, frame = 0
  30              		@ frame_needed = 0, uses_anonymous_args = 0
  31              		@ link register save eliminated.
  67:../Core/src/mlm32l0xx_it.c **** }
  32              		.loc 1 67 0
  33              		@ sp needed
  34 0000 7047     		bx	lr
  35              		.cfi_endproc
  36              	.LFE39:
  37              		.size	NMI_Handler, .-NMI_Handler
  38 0002 C046     		.section	.text.HardFault_Handler,"ax",%progbits
  39              		.align	1
  40              		.p2align 2,,3
  41              		.global	HardFault_Handler
  42              		.syntax unified
  43              		.code	16
  44              		.thumb_func
  45              		.fpu softvfp
  46              		.type	HardFault_Handler, %function
  47              	HardFault_Handler:
ARM GAS  C:\Users\EBANO_~1\AppData\Local\Temp\ccBx8b8i.s 			page 3


  48              	.LFB40:
  68:../Core/src/mlm32l0xx_it.c **** 
  69:../Core/src/mlm32l0xx_it.c **** 
  70:../Core/src/mlm32l0xx_it.c **** /**
  71:../Core/src/mlm32l0xx_it.c ****   * @brief  This function handles Hard Fault exception.
  72:../Core/src/mlm32l0xx_it.c ****   * @param  None
  73:../Core/src/mlm32l0xx_it.c ****   * @retval None
  74:../Core/src/mlm32l0xx_it.c ****   */
  75:../Core/src/mlm32l0xx_it.c **** 
  76:../Core/src/mlm32l0xx_it.c **** 
  77:../Core/src/mlm32l0xx_it.c **** void HardFault_Handler(void)
  78:../Core/src/mlm32l0xx_it.c **** {
  49              		.loc 1 78 0
  50              		.cfi_startproc
  51              		@ Volatile: function does not return.
  52              		@ args = 0, pretend = 0, frame = 0
  53              		@ frame_needed = 0, uses_anonymous_args = 0
  54              		@ link register save eliminated.
  55              	.L4:
  79:../Core/src/mlm32l0xx_it.c ****   while(1)
  80:../Core/src/mlm32l0xx_it.c ****   {
  81:../Core/src/mlm32l0xx_it.c ****     __NOP();
  56              		.loc 1 81 0 discriminator 1
  57              		.syntax divided
  58              	@ 81 "../Core/src/mlm32l0xx_it.c" 1
  59 0000 C046     		nop
  60              	@ 0 "" 2
  61              		.thumb
  62              		.syntax unified
  63 0002 FDE7     		b	.L4
  64              		.cfi_endproc
  65              	.LFE40:
  66              		.size	HardFault_Handler, .-HardFault_Handler
  67              		.section	.text.MemManage_Handler,"ax",%progbits
  68              		.align	1
  69              		.p2align 2,,3
  70              		.global	MemManage_Handler
  71              		.syntax unified
  72              		.code	16
  73              		.thumb_func
  74              		.fpu softvfp
  75              		.type	MemManage_Handler, %function
  76              	MemManage_Handler:
  77              	.LFB41:
  82:../Core/src/mlm32l0xx_it.c ****   }
  83:../Core/src/mlm32l0xx_it.c **** 
  84:../Core/src/mlm32l0xx_it.c **** }
  85:../Core/src/mlm32l0xx_it.c **** 
  86:../Core/src/mlm32l0xx_it.c **** 
  87:../Core/src/mlm32l0xx_it.c **** /**
  88:../Core/src/mlm32l0xx_it.c ****   * @brief  This function handles Memory Manage exception.
  89:../Core/src/mlm32l0xx_it.c ****   * @param  None
  90:../Core/src/mlm32l0xx_it.c ****   * @retval None
  91:../Core/src/mlm32l0xx_it.c ****   */
  92:../Core/src/mlm32l0xx_it.c **** void MemManage_Handler(void)
  93:../Core/src/mlm32l0xx_it.c **** {
  78              		.loc 1 93 0
ARM GAS  C:\Users\EBANO_~1\AppData\Local\Temp\ccBx8b8i.s 			page 4


  79              		.cfi_startproc
  80              		@ Volatile: function does not return.
  81              		@ args = 0, pretend = 0, frame = 0
  82              		@ frame_needed = 0, uses_anonymous_args = 0
  83              		@ link register save eliminated.
  84              	.L6:
  85 0000 FEE7     		b	.L6
  86              		.cfi_endproc
  87              	.LFE41:
  88              		.size	MemManage_Handler, .-MemManage_Handler
  89 0002 C046     		.section	.text.BusFault_Handler,"ax",%progbits
  90              		.align	1
  91              		.p2align 2,,3
  92              		.global	BusFault_Handler
  93              		.syntax unified
  94              		.code	16
  95              		.thumb_func
  96              		.fpu softvfp
  97              		.type	BusFault_Handler, %function
  98              	BusFault_Handler:
  99              	.LFB42:
  94:../Core/src/mlm32l0xx_it.c ****   /* Go to infinite loop when Memory Manage exception occurs */
  95:../Core/src/mlm32l0xx_it.c ****   while (1)
  96:../Core/src/mlm32l0xx_it.c ****   {
  97:../Core/src/mlm32l0xx_it.c ****   }
  98:../Core/src/mlm32l0xx_it.c **** }
  99:../Core/src/mlm32l0xx_it.c **** 
 100:../Core/src/mlm32l0xx_it.c **** /**
 101:../Core/src/mlm32l0xx_it.c ****   * @brief  This function handles Bus Fault exception.
 102:../Core/src/mlm32l0xx_it.c ****   * @param  None
 103:../Core/src/mlm32l0xx_it.c ****   * @retval None
 104:../Core/src/mlm32l0xx_it.c ****   */
 105:../Core/src/mlm32l0xx_it.c **** void BusFault_Handler(void)
 106:../Core/src/mlm32l0xx_it.c **** {
 100              		.loc 1 106 0
 101              		.cfi_startproc
 102              		@ Volatile: function does not return.
 103              		@ args = 0, pretend = 0, frame = 0
 104              		@ frame_needed = 0, uses_anonymous_args = 0
 105              		@ link register save eliminated.
 106              	.L8:
 107 0000 FEE7     		b	.L8
 108              		.cfi_endproc
 109              	.LFE42:
 110              		.size	BusFault_Handler, .-BusFault_Handler
 111 0002 C046     		.section	.text.UsageFault_Handler,"ax",%progbits
 112              		.align	1
 113              		.p2align 2,,3
 114              		.global	UsageFault_Handler
 115              		.syntax unified
 116              		.code	16
 117              		.thumb_func
 118              		.fpu softvfp
 119              		.type	UsageFault_Handler, %function
 120              	UsageFault_Handler:
 121              	.LFB43:
 107:../Core/src/mlm32l0xx_it.c ****   /* Go to infinite loop when Bus Fault exception occurs */
ARM GAS  C:\Users\EBANO_~1\AppData\Local\Temp\ccBx8b8i.s 			page 5


 108:../Core/src/mlm32l0xx_it.c ****   while (1)
 109:../Core/src/mlm32l0xx_it.c ****   {
 110:../Core/src/mlm32l0xx_it.c ****   }
 111:../Core/src/mlm32l0xx_it.c **** }
 112:../Core/src/mlm32l0xx_it.c **** 
 113:../Core/src/mlm32l0xx_it.c **** /**
 114:../Core/src/mlm32l0xx_it.c ****   * @brief  This function handles Usage Fault exception.
 115:../Core/src/mlm32l0xx_it.c ****   * @param  None
 116:../Core/src/mlm32l0xx_it.c ****   * @retval None
 117:../Core/src/mlm32l0xx_it.c ****   */
 118:../Core/src/mlm32l0xx_it.c **** void UsageFault_Handler(void)
 119:../Core/src/mlm32l0xx_it.c **** {
 122              		.loc 1 119 0
 123              		.cfi_startproc
 124              		@ Volatile: function does not return.
 125              		@ args = 0, pretend = 0, frame = 0
 126              		@ frame_needed = 0, uses_anonymous_args = 0
 127              		@ link register save eliminated.
 128              	.L10:
 129 0000 FEE7     		b	.L10
 130              		.cfi_endproc
 131              	.LFE43:
 132              		.size	UsageFault_Handler, .-UsageFault_Handler
 133 0002 C046     		.section	.text.SVC_Handler,"ax",%progbits
 134              		.align	1
 135              		.p2align 2,,3
 136              		.global	SVC_Handler
 137              		.syntax unified
 138              		.code	16
 139              		.thumb_func
 140              		.fpu softvfp
 141              		.type	SVC_Handler, %function
 142              	SVC_Handler:
 143              	.LFB55:
 144              		.cfi_startproc
 145              		@ args = 0, pretend = 0, frame = 0
 146              		@ frame_needed = 0, uses_anonymous_args = 0
 147              		@ link register save eliminated.
 148              		@ sp needed
 149 0000 7047     		bx	lr
 150              		.cfi_endproc
 151              	.LFE55:
 152              		.size	SVC_Handler, .-SVC_Handler
 153 0002 C046     		.section	.text.DebugMon_Handler,"ax",%progbits
 154              		.align	1
 155              		.p2align 2,,3
 156              		.global	DebugMon_Handler
 157              		.syntax unified
 158              		.code	16
 159              		.thumb_func
 160              		.fpu softvfp
 161              		.type	DebugMon_Handler, %function
 162              	DebugMon_Handler:
 163              	.LFB57:
 164              		.cfi_startproc
 165              		@ args = 0, pretend = 0, frame = 0
 166              		@ frame_needed = 0, uses_anonymous_args = 0
ARM GAS  C:\Users\EBANO_~1\AppData\Local\Temp\ccBx8b8i.s 			page 6


 167              		@ link register save eliminated.
 168              		@ sp needed
 169 0000 7047     		bx	lr
 170              		.cfi_endproc
 171              	.LFE57:
 172              		.size	DebugMon_Handler, .-DebugMon_Handler
 173 0002 C046     		.section	.text.PendSV_Handler,"ax",%progbits
 174              		.align	1
 175              		.p2align 2,,3
 176              		.global	PendSV_Handler
 177              		.syntax unified
 178              		.code	16
 179              		.thumb_func
 180              		.fpu softvfp
 181              		.type	PendSV_Handler, %function
 182              	PendSV_Handler:
 183              	.LFB59:
 184              		.cfi_startproc
 185              		@ args = 0, pretend = 0, frame = 0
 186              		@ frame_needed = 0, uses_anonymous_args = 0
 187              		@ link register save eliminated.
 188              		@ sp needed
 189 0000 7047     		bx	lr
 190              		.cfi_endproc
 191              	.LFE59:
 192              		.size	PendSV_Handler, .-PendSV_Handler
 193 0002 C046     		.section	.text.SysTick_Handler,"ax",%progbits
 194              		.align	1
 195              		.p2align 2,,3
 196              		.global	SysTick_Handler
 197              		.syntax unified
 198              		.code	16
 199              		.thumb_func
 200              		.fpu softvfp
 201              		.type	SysTick_Handler, %function
 202              	SysTick_Handler:
 203              	.LFB47:
 120:../Core/src/mlm32l0xx_it.c ****   /* Go to infinite loop when Usage Fault exception occurs */
 121:../Core/src/mlm32l0xx_it.c ****   while (1)
 122:../Core/src/mlm32l0xx_it.c ****   {
 123:../Core/src/mlm32l0xx_it.c ****   }
 124:../Core/src/mlm32l0xx_it.c **** }
 125:../Core/src/mlm32l0xx_it.c **** 
 126:../Core/src/mlm32l0xx_it.c **** /**
 127:../Core/src/mlm32l0xx_it.c ****   * @brief  This function handles SVCall exception.
 128:../Core/src/mlm32l0xx_it.c ****   * @param  None
 129:../Core/src/mlm32l0xx_it.c ****   * @retval None
 130:../Core/src/mlm32l0xx_it.c ****   */
 131:../Core/src/mlm32l0xx_it.c **** void SVC_Handler(void)
 132:../Core/src/mlm32l0xx_it.c **** {
 133:../Core/src/mlm32l0xx_it.c **** }
 134:../Core/src/mlm32l0xx_it.c **** 
 135:../Core/src/mlm32l0xx_it.c **** /**
 136:../Core/src/mlm32l0xx_it.c ****   * @brief  This function handles Debug Monitor exception.
 137:../Core/src/mlm32l0xx_it.c ****   * @param  None
 138:../Core/src/mlm32l0xx_it.c ****   * @retval None
 139:../Core/src/mlm32l0xx_it.c ****   */
ARM GAS  C:\Users\EBANO_~1\AppData\Local\Temp\ccBx8b8i.s 			page 7


 140:../Core/src/mlm32l0xx_it.c **** void DebugMon_Handler(void)
 141:../Core/src/mlm32l0xx_it.c **** {
 142:../Core/src/mlm32l0xx_it.c **** }
 143:../Core/src/mlm32l0xx_it.c **** 
 144:../Core/src/mlm32l0xx_it.c **** /**
 145:../Core/src/mlm32l0xx_it.c ****   * @brief  This function handles PendSVC exception.
 146:../Core/src/mlm32l0xx_it.c ****   * @param  None
 147:../Core/src/mlm32l0xx_it.c ****   * @retval None
 148:../Core/src/mlm32l0xx_it.c ****   */
 149:../Core/src/mlm32l0xx_it.c **** void PendSV_Handler(void)
 150:../Core/src/mlm32l0xx_it.c **** {
 151:../Core/src/mlm32l0xx_it.c **** }
 152:../Core/src/mlm32l0xx_it.c **** 
 153:../Core/src/mlm32l0xx_it.c **** /**
 154:../Core/src/mlm32l0xx_it.c ****   * @brief  This function handles SysTick Handler.
 155:../Core/src/mlm32l0xx_it.c ****   * @param  None
 156:../Core/src/mlm32l0xx_it.c ****   * @retval None
 157:../Core/src/mlm32l0xx_it.c ****   */
 158:../Core/src/mlm32l0xx_it.c **** void SysTick_Handler(void)
 159:../Core/src/mlm32l0xx_it.c **** {
 204              		.loc 1 159 0
 205              		.cfi_startproc
 206              		@ args = 0, pretend = 0, frame = 0
 207              		@ frame_needed = 0, uses_anonymous_args = 0
 208              		.loc 1 159 0
 209 0000 10B5     		push	{r4, lr}
 210              	.LCFI0:
 211              		.cfi_def_cfa_offset 8
 212              		.cfi_offset 4, -8
 213              		.cfi_offset 14, -4
 160:../Core/src/mlm32l0xx_it.c ****   HAL_IncTick();
 214              		.loc 1 160 0
 215 0002 FFF7FEFF 		bl	HAL_IncTick
 216              	.LVL0:
 161:../Core/src/mlm32l0xx_it.c **** }
 217              		.loc 1 161 0
 218              		@ sp needed
 219 0006 10BD     		pop	{r4, pc}
 220              		.cfi_endproc
 221              	.LFE47:
 222              		.size	SysTick_Handler, .-SysTick_Handler
 223              		.section	.text.USART2_IRQHandler,"ax",%progbits
 224              		.align	1
 225              		.p2align 2,,3
 226              		.global	USART2_IRQHandler
 227              		.syntax unified
 228              		.code	16
 229              		.thumb_func
 230              		.fpu softvfp
 231              		.type	USART2_IRQHandler, %function
 232              	USART2_IRQHandler:
 233              	.LFB48:
 162:../Core/src/mlm32l0xx_it.c **** 
 163:../Core/src/mlm32l0xx_it.c **** /******************************************************************************/
 164:../Core/src/mlm32l0xx_it.c **** /*                 STM32L1xx Peripherals Interrupt Handlers                   */
 165:../Core/src/mlm32l0xx_it.c **** /*  Add here the Interrupt Handler for the used peripheral(s) (PPP), for the  */
 166:../Core/src/mlm32l0xx_it.c **** /*  available peripheral interrupt handler's name please refer to the startup */
ARM GAS  C:\Users\EBANO_~1\AppData\Local\Temp\ccBx8b8i.s 			page 8


 167:../Core/src/mlm32l0xx_it.c **** /*  file (startup_stm32l1xx.s).                                               */
 168:../Core/src/mlm32l0xx_it.c **** /******************************************************************************/
 169:../Core/src/mlm32l0xx_it.c **** 
 170:../Core/src/mlm32l0xx_it.c **** /**
 171:../Core/src/mlm32l0xx_it.c ****   * @brief  This function handles PPP interrupt request.
 172:../Core/src/mlm32l0xx_it.c ****   * @param  None
 173:../Core/src/mlm32l0xx_it.c ****   * @retval None
 174:../Core/src/mlm32l0xx_it.c ****   */
 175:../Core/src/mlm32l0xx_it.c **** /*void PPP_IRQHandler(void)
 176:../Core/src/mlm32l0xx_it.c **** {
 177:../Core/src/mlm32l0xx_it.c **** }*/
 178:../Core/src/mlm32l0xx_it.c **** void USARTx_IRQHandler( void )
 179:../Core/src/mlm32l0xx_it.c **** {
 234              		.loc 1 179 0
 235              		.cfi_startproc
 236              		@ args = 0, pretend = 0, frame = 0
 237              		@ frame_needed = 0, uses_anonymous_args = 0
 238 0000 10B5     		push	{r4, lr}
 239              	.LCFI1:
 240              		.cfi_def_cfa_offset 8
 241              		.cfi_offset 4, -8
 242              		.cfi_offset 14, -4
 180:../Core/src/mlm32l0xx_it.c ****   vcom_IRQHandler();
 243              		.loc 1 180 0
 244 0002 FFF7FEFF 		bl	vcom_IRQHandler
 245              	.LVL1:
 181:../Core/src/mlm32l0xx_it.c **** }
 246              		.loc 1 181 0
 247              		@ sp needed
 248 0006 10BD     		pop	{r4, pc}
 249              		.cfi_endproc
 250              	.LFE48:
 251              		.size	USART2_IRQHandler, .-USART2_IRQHandler
 252              		.section	.text.DMA1_Channel4_5_6_7_IRQHandler,"ax",%progbits
 253              		.align	1
 254              		.p2align 2,,3
 255              		.global	DMA1_Channel4_5_6_7_IRQHandler
 256              		.syntax unified
 257              		.code	16
 258              		.thumb_func
 259              		.fpu softvfp
 260              		.type	DMA1_Channel4_5_6_7_IRQHandler, %function
 261              	DMA1_Channel4_5_6_7_IRQHandler:
 262              	.LFB49:
 182:../Core/src/mlm32l0xx_it.c **** 
 183:../Core/src/mlm32l0xx_it.c **** void USARTx_DMA_TX_IRQHandler( void )
 184:../Core/src/mlm32l0xx_it.c **** {
 263              		.loc 1 184 0
 264              		.cfi_startproc
 265              		@ args = 0, pretend = 0, frame = 0
 266              		@ frame_needed = 0, uses_anonymous_args = 0
 267 0000 10B5     		push	{r4, lr}
 268              	.LCFI2:
 269              		.cfi_def_cfa_offset 8
 270              		.cfi_offset 4, -8
 271              		.cfi_offset 14, -4
 185:../Core/src/mlm32l0xx_it.c ****   vcom_DMA_TX_IRQHandler();
ARM GAS  C:\Users\EBANO_~1\AppData\Local\Temp\ccBx8b8i.s 			page 9


 272              		.loc 1 185 0
 273 0002 FFF7FEFF 		bl	vcom_DMA_TX_IRQHandler
 274              	.LVL2:
 186:../Core/src/mlm32l0xx_it.c **** }
 275              		.loc 1 186 0
 276              		@ sp needed
 277 0006 10BD     		pop	{r4, pc}
 278              		.cfi_endproc
 279              	.LFE49:
 280              		.size	DMA1_Channel4_5_6_7_IRQHandler, .-DMA1_Channel4_5_6_7_IRQHandler
 281              		.section	.text.RTC_IRQHandler,"ax",%progbits
 282              		.align	1
 283              		.p2align 2,,3
 284              		.global	RTC_IRQHandler
 285              		.syntax unified
 286              		.code	16
 287              		.thumb_func
 288              		.fpu softvfp
 289              		.type	RTC_IRQHandler, %function
 290              	RTC_IRQHandler:
 291              	.LFB50:
 187:../Core/src/mlm32l0xx_it.c **** 
 188:../Core/src/mlm32l0xx_it.c **** void RTC_IRQHandler( void )
 189:../Core/src/mlm32l0xx_it.c **** {
 292              		.loc 1 189 0
 293              		.cfi_startproc
 294              		@ args = 0, pretend = 0, frame = 0
 295              		@ frame_needed = 0, uses_anonymous_args = 0
 296 0000 10B5     		push	{r4, lr}
 297              	.LCFI3:
 298              		.cfi_def_cfa_offset 8
 299              		.cfi_offset 4, -8
 300              		.cfi_offset 14, -4
 190:../Core/src/mlm32l0xx_it.c ****   HW_RTC_IrqHandler ( );
 301              		.loc 1 190 0
 302 0002 FFF7FEFF 		bl	HW_RTC_IrqHandler
 303              	.LVL3:
 191:../Core/src/mlm32l0xx_it.c **** }
 304              		.loc 1 191 0
 305              		@ sp needed
 306 0006 10BD     		pop	{r4, pc}
 307              		.cfi_endproc
 308              	.LFE50:
 309              		.size	RTC_IRQHandler, .-RTC_IRQHandler
 310              		.section	.text.EXTI0_1_IRQHandler,"ax",%progbits
 311              		.align	1
 312              		.p2align 2,,3
 313              		.global	EXTI0_1_IRQHandler
 314              		.syntax unified
 315              		.code	16
 316              		.thumb_func
 317              		.fpu softvfp
 318              		.type	EXTI0_1_IRQHandler, %function
 319              	EXTI0_1_IRQHandler:
 320              	.LFB51:
 192:../Core/src/mlm32l0xx_it.c **** 
 193:../Core/src/mlm32l0xx_it.c **** void EXTI0_1_IRQHandler( void )
ARM GAS  C:\Users\EBANO_~1\AppData\Local\Temp\ccBx8b8i.s 			page 10


 194:../Core/src/mlm32l0xx_it.c **** {
 321              		.loc 1 194 0
 322              		.cfi_startproc
 323              		@ args = 0, pretend = 0, frame = 0
 324              		@ frame_needed = 0, uses_anonymous_args = 0
 325 0000 10B5     		push	{r4, lr}
 326              	.LCFI4:
 327              		.cfi_def_cfa_offset 8
 328              		.cfi_offset 4, -8
 329              		.cfi_offset 14, -4
 195:../Core/src/mlm32l0xx_it.c ****   HAL_GPIO_EXTI_IRQHandler( GPIO_PIN_0 );
 330              		.loc 1 195 0
 331 0002 0120     		movs	r0, #1
 332 0004 FFF7FEFF 		bl	HAL_GPIO_EXTI_IRQHandler
 333              	.LVL4:
 196:../Core/src/mlm32l0xx_it.c **** 
 197:../Core/src/mlm32l0xx_it.c ****   HAL_GPIO_EXTI_IRQHandler( GPIO_PIN_1 );
 334              		.loc 1 197 0
 335 0008 0220     		movs	r0, #2
 336 000a FFF7FEFF 		bl	HAL_GPIO_EXTI_IRQHandler
 337              	.LVL5:
 198:../Core/src/mlm32l0xx_it.c **** }
 338              		.loc 1 198 0
 339              		@ sp needed
 340 000e 10BD     		pop	{r4, pc}
 341              		.cfi_endproc
 342              	.LFE51:
 343              		.size	EXTI0_1_IRQHandler, .-EXTI0_1_IRQHandler
 344              		.section	.text.EXTI2_3_IRQHandler,"ax",%progbits
 345              		.align	1
 346              		.p2align 2,,3
 347              		.global	EXTI2_3_IRQHandler
 348              		.syntax unified
 349              		.code	16
 350              		.thumb_func
 351              		.fpu softvfp
 352              		.type	EXTI2_3_IRQHandler, %function
 353              	EXTI2_3_IRQHandler:
 354              	.LFB52:
 199:../Core/src/mlm32l0xx_it.c **** 
 200:../Core/src/mlm32l0xx_it.c **** void EXTI2_3_IRQHandler( void )
 201:../Core/src/mlm32l0xx_it.c **** {
 355              		.loc 1 201 0
 356              		.cfi_startproc
 357              		@ args = 0, pretend = 0, frame = 0
 358              		@ frame_needed = 0, uses_anonymous_args = 0
 359 0000 10B5     		push	{r4, lr}
 360              	.LCFI5:
 361              		.cfi_def_cfa_offset 8
 362              		.cfi_offset 4, -8
 363              		.cfi_offset 14, -4
 202:../Core/src/mlm32l0xx_it.c ****   HAL_GPIO_EXTI_IRQHandler( GPIO_PIN_2 );
 364              		.loc 1 202 0
 365 0002 0420     		movs	r0, #4
 366 0004 FFF7FEFF 		bl	HAL_GPIO_EXTI_IRQHandler
 367              	.LVL6:
 203:../Core/src/mlm32l0xx_it.c **** 
ARM GAS  C:\Users\EBANO_~1\AppData\Local\Temp\ccBx8b8i.s 			page 11


 204:../Core/src/mlm32l0xx_it.c ****   HAL_GPIO_EXTI_IRQHandler( GPIO_PIN_3 );
 368              		.loc 1 204 0
 369 0008 0820     		movs	r0, #8
 370 000a FFF7FEFF 		bl	HAL_GPIO_EXTI_IRQHandler
 371              	.LVL7:
 205:../Core/src/mlm32l0xx_it.c **** }
 372              		.loc 1 205 0
 373              		@ sp needed
 374 000e 10BD     		pop	{r4, pc}
 375              		.cfi_endproc
 376              	.LFE52:
 377              		.size	EXTI2_3_IRQHandler, .-EXTI2_3_IRQHandler
 378              		.section	.text.EXTI4_15_IRQHandler,"ax",%progbits
 379              		.align	1
 380              		.p2align 2,,3
 381              		.global	EXTI4_15_IRQHandler
 382              		.syntax unified
 383              		.code	16
 384              		.thumb_func
 385              		.fpu softvfp
 386              		.type	EXTI4_15_IRQHandler, %function
 387              	EXTI4_15_IRQHandler:
 388              	.LFB53:
 206:../Core/src/mlm32l0xx_it.c **** 
 207:../Core/src/mlm32l0xx_it.c **** 
 208:../Core/src/mlm32l0xx_it.c **** void EXTI4_15_IRQHandler( void )
 209:../Core/src/mlm32l0xx_it.c **** {
 389              		.loc 1 209 0
 390              		.cfi_startproc
 391              		@ args = 0, pretend = 0, frame = 0
 392              		@ frame_needed = 0, uses_anonymous_args = 0
 393 0000 10B5     		push	{r4, lr}
 394              	.LCFI6:
 395              		.cfi_def_cfa_offset 8
 396              		.cfi_offset 4, -8
 397              		.cfi_offset 14, -4
 210:../Core/src/mlm32l0xx_it.c ****   HAL_GPIO_EXTI_IRQHandler( GPIO_PIN_4 );
 398              		.loc 1 210 0
 399 0002 1020     		movs	r0, #16
 400 0004 FFF7FEFF 		bl	HAL_GPIO_EXTI_IRQHandler
 401              	.LVL8:
 211:../Core/src/mlm32l0xx_it.c ****   
 212:../Core/src/mlm32l0xx_it.c ****   HAL_GPIO_EXTI_IRQHandler( GPIO_PIN_5 );
 402              		.loc 1 212 0
 403 0008 2020     		movs	r0, #32
 404 000a FFF7FEFF 		bl	HAL_GPIO_EXTI_IRQHandler
 405              	.LVL9:
 213:../Core/src/mlm32l0xx_it.c **** 
 214:../Core/src/mlm32l0xx_it.c ****   HAL_GPIO_EXTI_IRQHandler( GPIO_PIN_6 );
 406              		.loc 1 214 0
 407 000e 4020     		movs	r0, #64
 408 0010 FFF7FEFF 		bl	HAL_GPIO_EXTI_IRQHandler
 409              	.LVL10:
 215:../Core/src/mlm32l0xx_it.c ****   
 216:../Core/src/mlm32l0xx_it.c ****   HAL_GPIO_EXTI_IRQHandler( GPIO_PIN_7 );
 410              		.loc 1 216 0
 411 0014 8020     		movs	r0, #128
ARM GAS  C:\Users\EBANO_~1\AppData\Local\Temp\ccBx8b8i.s 			page 12


 412 0016 FFF7FEFF 		bl	HAL_GPIO_EXTI_IRQHandler
 413              	.LVL11:
 217:../Core/src/mlm32l0xx_it.c **** 
 218:../Core/src/mlm32l0xx_it.c ****   HAL_GPIO_EXTI_IRQHandler( GPIO_PIN_8 );
 414              		.loc 1 218 0
 415 001a 8020     		movs	r0, #128
 416 001c 4000     		lsls	r0, r0, #1
 417 001e FFF7FEFF 		bl	HAL_GPIO_EXTI_IRQHandler
 418              	.LVL12:
 219:../Core/src/mlm32l0xx_it.c **** 
 220:../Core/src/mlm32l0xx_it.c ****   HAL_GPIO_EXTI_IRQHandler( GPIO_PIN_9 );
 419              		.loc 1 220 0
 420 0022 8020     		movs	r0, #128
 421 0024 8000     		lsls	r0, r0, #2
 422 0026 FFF7FEFF 		bl	HAL_GPIO_EXTI_IRQHandler
 423              	.LVL13:
 221:../Core/src/mlm32l0xx_it.c ****   
 222:../Core/src/mlm32l0xx_it.c ****   HAL_GPIO_EXTI_IRQHandler( GPIO_PIN_10 );
 424              		.loc 1 222 0
 425 002a 8020     		movs	r0, #128
 426 002c C000     		lsls	r0, r0, #3
 427 002e FFF7FEFF 		bl	HAL_GPIO_EXTI_IRQHandler
 428              	.LVL14:
 223:../Core/src/mlm32l0xx_it.c ****   
 224:../Core/src/mlm32l0xx_it.c ****   HAL_GPIO_EXTI_IRQHandler( GPIO_PIN_11 );
 429              		.loc 1 224 0
 430 0032 8020     		movs	r0, #128
 431 0034 0001     		lsls	r0, r0, #4
 432 0036 FFF7FEFF 		bl	HAL_GPIO_EXTI_IRQHandler
 433              	.LVL15:
 225:../Core/src/mlm32l0xx_it.c **** 
 226:../Core/src/mlm32l0xx_it.c ****   HAL_GPIO_EXTI_IRQHandler( GPIO_PIN_12 );
 434              		.loc 1 226 0
 435 003a 8020     		movs	r0, #128
 436 003c 4001     		lsls	r0, r0, #5
 437 003e FFF7FEFF 		bl	HAL_GPIO_EXTI_IRQHandler
 438              	.LVL16:
 227:../Core/src/mlm32l0xx_it.c **** 
 228:../Core/src/mlm32l0xx_it.c ****   HAL_GPIO_EXTI_IRQHandler( GPIO_PIN_13 );
 439              		.loc 1 228 0
 440 0042 8020     		movs	r0, #128
 441 0044 8001     		lsls	r0, r0, #6
 442 0046 FFF7FEFF 		bl	HAL_GPIO_EXTI_IRQHandler
 443              	.LVL17:
 229:../Core/src/mlm32l0xx_it.c **** 
 230:../Core/src/mlm32l0xx_it.c ****   HAL_GPIO_EXTI_IRQHandler( GPIO_PIN_14 );
 444              		.loc 1 230 0
 445 004a 8020     		movs	r0, #128
 446 004c C001     		lsls	r0, r0, #7
 447 004e FFF7FEFF 		bl	HAL_GPIO_EXTI_IRQHandler
 448              	.LVL18:
 231:../Core/src/mlm32l0xx_it.c **** 
 232:../Core/src/mlm32l0xx_it.c ****   HAL_GPIO_EXTI_IRQHandler( GPIO_PIN_15 );
 449              		.loc 1 232 0
 450 0052 8020     		movs	r0, #128
 451 0054 0002     		lsls	r0, r0, #8
 452 0056 FFF7FEFF 		bl	HAL_GPIO_EXTI_IRQHandler
ARM GAS  C:\Users\EBANO_~1\AppData\Local\Temp\ccBx8b8i.s 			page 13


 453              	.LVL19:
 233:../Core/src/mlm32l0xx_it.c **** }
 454              		.loc 1 233 0
 455              		@ sp needed
 456 005a 10BD     		pop	{r4, pc}
 457              		.cfi_endproc
 458              	.LFE53:
 459              		.size	EXTI4_15_IRQHandler, .-EXTI4_15_IRQHandler
 460              		.text
 461              	.Letext0:
 462              		.file 2 "c:\\program files (x86)\\gnu tools arm embedded\\7 2018-q2-update\\arm-none-eabi\\include
 463              		.file 3 "c:\\program files (x86)\\gnu tools arm embedded\\7 2018-q2-update\\arm-none-eabi\\include
 464              		.file 4 "c:\\program files (x86)\\gnu tools arm embedded\\7 2018-q2-update\\arm-none-eabi\\include
 465              		.file 5 "c:\\program files (x86)\\gnu tools arm embedded\\7 2018-q2-update\\lib\\gcc\\arm-none-eab
 466              		.file 6 "c:\\program files (x86)\\gnu tools arm embedded\\7 2018-q2-update\\arm-none-eabi\\include
 467              		.file 7 "c:\\program files (x86)\\gnu tools arm embedded\\7 2018-q2-update\\arm-none-eabi\\include
 468              		.file 8 "c:\\program files (x86)\\gnu tools arm embedded\\7 2018-q2-update\\arm-none-eabi\\include
 469              		.file 9 "../../../../../../Drivers/CMSIS/Device/ST/STM32L0xx/Include/system_stm32l0xx.h"
 470              		.file 10 "c:\\program files (x86)\\gnu tools arm embedded\\7 2018-q2-update\\arm-none-eabi\\includ
 471              		.file 11 "c:\\program files (x86)\\gnu tools arm embedded\\7 2018-q2-update\\arm-none-eabi\\includ
 472              		.file 12 "../../../../../../Drivers/STM32L0xx_HAL_Driver/Inc/stm32l0xx_hal_gpio.h"
 473              		.file 13 "../LoRaWAN/App/inc/hw_rtc.h"
 474              		.file 14 "../LoRaWAN/App/inc/vcom.h"
 475              		.file 15 "../../../../../../Drivers/STM32L0xx_HAL_Driver/Inc/stm32l0xx_hal.h"