ARM GAS  C:\Users\EBANO_~1\AppData\Local\Temp\ccmgacVt.s 			page 1


   1              		.cpu cortex-m0plus
   2              		.eabi_attribute 20, 1
   3              		.eabi_attribute 21, 1
   4              		.eabi_attribute 23, 3
   5              		.eabi_attribute 24, 1
   6              		.eabi_attribute 25, 1
   7              		.eabi_attribute 26, 1
   8              		.eabi_attribute 30, 2
   9              		.eabi_attribute 34, 0
  10              		.eabi_attribute 18, 4
  11              		.file	"mlm32l07x01.c"
  12              		.text
  13              	.Ltext0:
  14              		.cfi_sections	.debug_frame
  15              		.section	.text.SX1276GetWakeTime,"ax",%progbits
  16              		.align	1
  17              		.p2align 2,,3
  18              		.global	SX1276GetWakeTime
  19              		.syntax unified
  20              		.code	16
  21              		.thumb_func
  22              		.fpu softvfp
  23              		.type	SX1276GetWakeTime, %function
  24              	SX1276GetWakeTime:
  25              	.LFB39:
  26              		.file 1 "../../../../../../Drivers/BSP/CMWX1ZZABZ-0xx/mlm32l07x01.c"
   1:../../../../../../Drivers/BSP/CMWX1ZZABZ-0xx/mlm32l07x01.c **** /*
   2:../../../../../../Drivers/BSP/CMWX1ZZABZ-0xx/mlm32l07x01.c ****  / _____)             _              | |
   3:../../../../../../Drivers/BSP/CMWX1ZZABZ-0xx/mlm32l07x01.c **** ( (____  _____ ____ _| |_ _____  ____| |__
   4:../../../../../../Drivers/BSP/CMWX1ZZABZ-0xx/mlm32l07x01.c ****  \____ \| ___ |    (_   _) ___ |/ ___)  _ \
   5:../../../../../../Drivers/BSP/CMWX1ZZABZ-0xx/mlm32l07x01.c ****  _____) ) ____| | | || |_| ____( (___| | | |
   6:../../../../../../Drivers/BSP/CMWX1ZZABZ-0xx/mlm32l07x01.c **** (______/|_____)_|_|_| \__)_____)\____)_| |_|
   7:../../../../../../Drivers/BSP/CMWX1ZZABZ-0xx/mlm32l07x01.c ****     (C)2013 Semtech
   8:../../../../../../Drivers/BSP/CMWX1ZZABZ-0xx/mlm32l07x01.c **** 
   9:../../../../../../Drivers/BSP/CMWX1ZZABZ-0xx/mlm32l07x01.c **** Description: SX1276 driver specific target board functions implementation
  10:../../../../../../Drivers/BSP/CMWX1ZZABZ-0xx/mlm32l07x01.c **** 
  11:../../../../../../Drivers/BSP/CMWX1ZZABZ-0xx/mlm32l07x01.c **** License: Revised BSD License, see LICENSE.TXT file include in the project
  12:../../../../../../Drivers/BSP/CMWX1ZZABZ-0xx/mlm32l07x01.c **** 
  13:../../../../../../Drivers/BSP/CMWX1ZZABZ-0xx/mlm32l07x01.c **** Maintainer: Miguel Luis and Gregory Cristian
  14:../../../../../../Drivers/BSP/CMWX1ZZABZ-0xx/mlm32l07x01.c **** */
  15:../../../../../../Drivers/BSP/CMWX1ZZABZ-0xx/mlm32l07x01.c **** /**
  16:../../../../../../Drivers/BSP/CMWX1ZZABZ-0xx/mlm32l07x01.c ****   *******************************************************************************
  17:../../../../../../Drivers/BSP/CMWX1ZZABZ-0xx/mlm32l07x01.c ****   * @file    mlm32l07x01.c
  18:../../../../../../Drivers/BSP/CMWX1ZZABZ-0xx/mlm32l07x01.c ****   * @author  MCD Application Team
  19:../../../../../../Drivers/BSP/CMWX1ZZABZ-0xx/mlm32l07x01.c ****   * @brief   driver LoRa module murata cmwx1zzabz-078
  20:../../../../../../Drivers/BSP/CMWX1ZZABZ-0xx/mlm32l07x01.c ****   ******************************************************************************
  21:../../../../../../Drivers/BSP/CMWX1ZZABZ-0xx/mlm32l07x01.c ****   * @attention
  22:../../../../../../Drivers/BSP/CMWX1ZZABZ-0xx/mlm32l07x01.c ****   *
  23:../../../../../../Drivers/BSP/CMWX1ZZABZ-0xx/mlm32l07x01.c ****   * <h2><center>&copy; Copyright (c) 2018 STMicroelectronics.
  24:../../../../../../Drivers/BSP/CMWX1ZZABZ-0xx/mlm32l07x01.c ****   * All rights reserved.</center></h2>
  25:../../../../../../Drivers/BSP/CMWX1ZZABZ-0xx/mlm32l07x01.c ****   *
  26:../../../../../../Drivers/BSP/CMWX1ZZABZ-0xx/mlm32l07x01.c ****   * This software component is licensed by ST under BSD 3-Clause license,
  27:../../../../../../Drivers/BSP/CMWX1ZZABZ-0xx/mlm32l07x01.c ****   * the "License"; You may not use this file except in compliance with the
  28:../../../../../../Drivers/BSP/CMWX1ZZABZ-0xx/mlm32l07x01.c ****   * License. You may obtain a copy of the License at:
  29:../../../../../../Drivers/BSP/CMWX1ZZABZ-0xx/mlm32l07x01.c ****   *                        opensource.org/licenses/BSD-3-Clause
  30:../../../../../../Drivers/BSP/CMWX1ZZABZ-0xx/mlm32l07x01.c ****   *
  31:../../../../../../Drivers/BSP/CMWX1ZZABZ-0xx/mlm32l07x01.c ****   ******************************************************************************
ARM GAS  C:\Users\EBANO_~1\AppData\Local\Temp\ccmgacVt.s 			page 2


  32:../../../../../../Drivers/BSP/CMWX1ZZABZ-0xx/mlm32l07x01.c ****   */
  33:../../../../../../Drivers/BSP/CMWX1ZZABZ-0xx/mlm32l07x01.c ****   
  34:../../../../../../Drivers/BSP/CMWX1ZZABZ-0xx/mlm32l07x01.c **** /* Includes ------------------------------------------------------------------*/
  35:../../../../../../Drivers/BSP/CMWX1ZZABZ-0xx/mlm32l07x01.c **** 
  36:../../../../../../Drivers/BSP/CMWX1ZZABZ-0xx/mlm32l07x01.c **** #include "hw.h"
  37:../../../../../../Drivers/BSP/CMWX1ZZABZ-0xx/mlm32l07x01.c **** #include "radio.h"
  38:../../../../../../Drivers/BSP/CMWX1ZZABZ-0xx/mlm32l07x01.c **** #include "sx1276.h"
  39:../../../../../../Drivers/BSP/CMWX1ZZABZ-0xx/mlm32l07x01.c **** #include "mlm32l07x01.h"
  40:../../../../../../Drivers/BSP/CMWX1ZZABZ-0xx/mlm32l07x01.c **** 
  41:../../../../../../Drivers/BSP/CMWX1ZZABZ-0xx/mlm32l07x01.c **** 
  42:../../../../../../Drivers/BSP/CMWX1ZZABZ-0xx/mlm32l07x01.c **** #define IRQ_HIGH_PRIORITY  0
  43:../../../../../../Drivers/BSP/CMWX1ZZABZ-0xx/mlm32l07x01.c **** 
  44:../../../../../../Drivers/BSP/CMWX1ZZABZ-0xx/mlm32l07x01.c **** #define TCXO_ON()   HW_GPIO_Write( RADIO_TCXO_VCC_PORT, RADIO_TCXO_VCC_PIN, 1) 
  45:../../../../../../Drivers/BSP/CMWX1ZZABZ-0xx/mlm32l07x01.c **** 
  46:../../../../../../Drivers/BSP/CMWX1ZZABZ-0xx/mlm32l07x01.c **** #define TCXO_OFF()  HW_GPIO_Write( RADIO_TCXO_VCC_PORT, RADIO_TCXO_VCC_PIN, 0) 
  47:../../../../../../Drivers/BSP/CMWX1ZZABZ-0xx/mlm32l07x01.c **** 
  48:../../../../../../Drivers/BSP/CMWX1ZZABZ-0xx/mlm32l07x01.c **** static void SX1276AntSwInit( void );
  49:../../../../../../Drivers/BSP/CMWX1ZZABZ-0xx/mlm32l07x01.c **** 
  50:../../../../../../Drivers/BSP/CMWX1ZZABZ-0xx/mlm32l07x01.c **** static void SX1276AntSwDeInit( void );
  51:../../../../../../Drivers/BSP/CMWX1ZZABZ-0xx/mlm32l07x01.c **** 
  52:../../../../../../Drivers/BSP/CMWX1ZZABZ-0xx/mlm32l07x01.c **** void SX1276SetXO( uint8_t state );
  53:../../../../../../Drivers/BSP/CMWX1ZZABZ-0xx/mlm32l07x01.c **** 
  54:../../../../../../Drivers/BSP/CMWX1ZZABZ-0xx/mlm32l07x01.c **** uint32_t SX1276GetWakeTime( void );
  55:../../../../../../Drivers/BSP/CMWX1ZZABZ-0xx/mlm32l07x01.c **** 
  56:../../../../../../Drivers/BSP/CMWX1ZZABZ-0xx/mlm32l07x01.c **** void SX1276IoIrqInit( DioIrqHandler **irqHandlers );
  57:../../../../../../Drivers/BSP/CMWX1ZZABZ-0xx/mlm32l07x01.c **** 
  58:../../../../../../Drivers/BSP/CMWX1ZZABZ-0xx/mlm32l07x01.c **** uint8_t SX1276GetPaSelect( uint8_t power );
  59:../../../../../../Drivers/BSP/CMWX1ZZABZ-0xx/mlm32l07x01.c **** 
  60:../../../../../../Drivers/BSP/CMWX1ZZABZ-0xx/mlm32l07x01.c **** void SX1276SetAntSwLowPower( bool status );
  61:../../../../../../Drivers/BSP/CMWX1ZZABZ-0xx/mlm32l07x01.c **** 
  62:../../../../../../Drivers/BSP/CMWX1ZZABZ-0xx/mlm32l07x01.c **** void SX1276SetAntSw( uint8_t opMode );
  63:../../../../../../Drivers/BSP/CMWX1ZZABZ-0xx/mlm32l07x01.c **** /*!
  64:../../../../../../Drivers/BSP/CMWX1ZZABZ-0xx/mlm32l07x01.c ****  * \brief Controls the antena switch if necessary.
  65:../../../../../../Drivers/BSP/CMWX1ZZABZ-0xx/mlm32l07x01.c ****  *
  66:../../../../../../Drivers/BSP/CMWX1ZZABZ-0xx/mlm32l07x01.c ****  * \remark see errata note
  67:../../../../../../Drivers/BSP/CMWX1ZZABZ-0xx/mlm32l07x01.c ****  *
  68:../../../../../../Drivers/BSP/CMWX1ZZABZ-0xx/mlm32l07x01.c ****  * \param [IN] opMode Current radio operating mode
  69:../../../../../../Drivers/BSP/CMWX1ZZABZ-0xx/mlm32l07x01.c ****  */
  70:../../../../../../Drivers/BSP/CMWX1ZZABZ-0xx/mlm32l07x01.c **** static LoRaBoardCallback_t BoardCallbacks = { SX1276SetXO,
  71:../../../../../../Drivers/BSP/CMWX1ZZABZ-0xx/mlm32l07x01.c ****                                               SX1276GetWakeTime,
  72:../../../../../../Drivers/BSP/CMWX1ZZABZ-0xx/mlm32l07x01.c ****                                               SX1276IoIrqInit,
  73:../../../../../../Drivers/BSP/CMWX1ZZABZ-0xx/mlm32l07x01.c ****                                               SX1276SetRfTxPower,
  74:../../../../../../Drivers/BSP/CMWX1ZZABZ-0xx/mlm32l07x01.c ****                                               SX1276SetAntSwLowPower,
  75:../../../../../../Drivers/BSP/CMWX1ZZABZ-0xx/mlm32l07x01.c ****                                               SX1276SetAntSw};
  76:../../../../../../Drivers/BSP/CMWX1ZZABZ-0xx/mlm32l07x01.c **** 
  77:../../../../../../Drivers/BSP/CMWX1ZZABZ-0xx/mlm32l07x01.c **** /*!
  78:../../../../../../Drivers/BSP/CMWX1ZZABZ-0xx/mlm32l07x01.c ****  * Radio driver structure initialization
  79:../../../../../../Drivers/BSP/CMWX1ZZABZ-0xx/mlm32l07x01.c ****  */
  80:../../../../../../Drivers/BSP/CMWX1ZZABZ-0xx/mlm32l07x01.c **** const struct Radio_s Radio =
  81:../../../../../../Drivers/BSP/CMWX1ZZABZ-0xx/mlm32l07x01.c **** {
  82:../../../../../../Drivers/BSP/CMWX1ZZABZ-0xx/mlm32l07x01.c ****     SX1276IoInit,
  83:../../../../../../Drivers/BSP/CMWX1ZZABZ-0xx/mlm32l07x01.c ****     SX1276IoDeInit,
  84:../../../../../../Drivers/BSP/CMWX1ZZABZ-0xx/mlm32l07x01.c ****     SX1276Init,
  85:../../../../../../Drivers/BSP/CMWX1ZZABZ-0xx/mlm32l07x01.c ****     SX1276GetStatus,
  86:../../../../../../Drivers/BSP/CMWX1ZZABZ-0xx/mlm32l07x01.c ****     SX1276SetModem,
  87:../../../../../../Drivers/BSP/CMWX1ZZABZ-0xx/mlm32l07x01.c ****     SX1276SetChannel,
  88:../../../../../../Drivers/BSP/CMWX1ZZABZ-0xx/mlm32l07x01.c ****     SX1276IsChannelFree,
ARM GAS  C:\Users\EBANO_~1\AppData\Local\Temp\ccmgacVt.s 			page 3


  89:../../../../../../Drivers/BSP/CMWX1ZZABZ-0xx/mlm32l07x01.c ****     SX1276Random,
  90:../../../../../../Drivers/BSP/CMWX1ZZABZ-0xx/mlm32l07x01.c ****     SX1276SetRxConfig,
  91:../../../../../../Drivers/BSP/CMWX1ZZABZ-0xx/mlm32l07x01.c ****     SX1276SetTxConfig,
  92:../../../../../../Drivers/BSP/CMWX1ZZABZ-0xx/mlm32l07x01.c ****     SX1276CheckRfFrequency,
  93:../../../../../../Drivers/BSP/CMWX1ZZABZ-0xx/mlm32l07x01.c ****     SX1276GetTimeOnAir,
  94:../../../../../../Drivers/BSP/CMWX1ZZABZ-0xx/mlm32l07x01.c ****     SX1276Send,
  95:../../../../../../Drivers/BSP/CMWX1ZZABZ-0xx/mlm32l07x01.c ****     SX1276SetSleep,
  96:../../../../../../Drivers/BSP/CMWX1ZZABZ-0xx/mlm32l07x01.c ****     SX1276SetStby,
  97:../../../../../../Drivers/BSP/CMWX1ZZABZ-0xx/mlm32l07x01.c ****     SX1276SetRx,
  98:../../../../../../Drivers/BSP/CMWX1ZZABZ-0xx/mlm32l07x01.c ****     SX1276StartCad,
  99:../../../../../../Drivers/BSP/CMWX1ZZABZ-0xx/mlm32l07x01.c ****     SX1276SetTxContinuousWave,
 100:../../../../../../Drivers/BSP/CMWX1ZZABZ-0xx/mlm32l07x01.c ****     SX1276ReadRssi,
 101:../../../../../../Drivers/BSP/CMWX1ZZABZ-0xx/mlm32l07x01.c ****     SX1276Write,
 102:../../../../../../Drivers/BSP/CMWX1ZZABZ-0xx/mlm32l07x01.c ****     SX1276Read,
 103:../../../../../../Drivers/BSP/CMWX1ZZABZ-0xx/mlm32l07x01.c ****     SX1276WriteBuffer,
 104:../../../../../../Drivers/BSP/CMWX1ZZABZ-0xx/mlm32l07x01.c ****     SX1276ReadBuffer,
 105:../../../../../../Drivers/BSP/CMWX1ZZABZ-0xx/mlm32l07x01.c ****     SX1276SetMaxPayloadLength,
 106:../../../../../../Drivers/BSP/CMWX1ZZABZ-0xx/mlm32l07x01.c ****     SX1276SetPublicNetwork,
 107:../../../../../../Drivers/BSP/CMWX1ZZABZ-0xx/mlm32l07x01.c ****     SX1276GetWakeupTime
 108:../../../../../../Drivers/BSP/CMWX1ZZABZ-0xx/mlm32l07x01.c **** };
 109:../../../../../../Drivers/BSP/CMWX1ZZABZ-0xx/mlm32l07x01.c **** 
 110:../../../../../../Drivers/BSP/CMWX1ZZABZ-0xx/mlm32l07x01.c **** uint32_t SX1276GetWakeTime( void )
 111:../../../../../../Drivers/BSP/CMWX1ZZABZ-0xx/mlm32l07x01.c **** {
  27              		.loc 1 111 0
  28              		.cfi_startproc
  29              		@ args = 0, pretend = 0, frame = 0
  30              		@ frame_needed = 0, uses_anonymous_args = 0
  31              		@ link register save eliminated.
 112:../../../../../../Drivers/BSP/CMWX1ZZABZ-0xx/mlm32l07x01.c ****   return  BOARD_WAKEUP_TIME;
 113:../../../../../../Drivers/BSP/CMWX1ZZABZ-0xx/mlm32l07x01.c **** }
  32              		.loc 1 113 0
  33 0000 0520     		movs	r0, #5
  34              		@ sp needed
  35 0002 7047     		bx	lr
  36              		.cfi_endproc
  37              	.LFE39:
  38              		.size	SX1276GetWakeTime, .-SX1276GetWakeTime
  39              		.section	.text.SX1276CheckRfFrequency,"ax",%progbits
  40              		.align	1
  41              		.p2align 2,,3
  42              		.global	SX1276CheckRfFrequency
  43              		.syntax unified
  44              		.code	16
  45              		.thumb_func
  46              		.fpu softvfp
  47              		.type	SX1276CheckRfFrequency, %function
  48              	SX1276CheckRfFrequency:
  49              	.LFB50:
 114:../../../../../../Drivers/BSP/CMWX1ZZABZ-0xx/mlm32l07x01.c **** 
 115:../../../../../../Drivers/BSP/CMWX1ZZABZ-0xx/mlm32l07x01.c **** void SX1276SetXO( uint8_t state )
 116:../../../../../../Drivers/BSP/CMWX1ZZABZ-0xx/mlm32l07x01.c **** {
 117:../../../../../../Drivers/BSP/CMWX1ZZABZ-0xx/mlm32l07x01.c **** 
 118:../../../../../../Drivers/BSP/CMWX1ZZABZ-0xx/mlm32l07x01.c ****   if (state == SET )
 119:../../../../../../Drivers/BSP/CMWX1ZZABZ-0xx/mlm32l07x01.c ****   {
 120:../../../../../../Drivers/BSP/CMWX1ZZABZ-0xx/mlm32l07x01.c ****     TCXO_ON(); 
 121:../../../../../../Drivers/BSP/CMWX1ZZABZ-0xx/mlm32l07x01.c ****     
 122:../../../../../../Drivers/BSP/CMWX1ZZABZ-0xx/mlm32l07x01.c ****     DelayMs( BOARD_WAKEUP_TIME ); //start up time of TCXO
ARM GAS  C:\Users\EBANO_~1\AppData\Local\Temp\ccmgacVt.s 			page 4


 123:../../../../../../Drivers/BSP/CMWX1ZZABZ-0xx/mlm32l07x01.c ****   }
 124:../../../../../../Drivers/BSP/CMWX1ZZABZ-0xx/mlm32l07x01.c ****   else
 125:../../../../../../Drivers/BSP/CMWX1ZZABZ-0xx/mlm32l07x01.c ****   {
 126:../../../../../../Drivers/BSP/CMWX1ZZABZ-0xx/mlm32l07x01.c ****     TCXO_OFF(); 
 127:../../../../../../Drivers/BSP/CMWX1ZZABZ-0xx/mlm32l07x01.c ****   }
 128:../../../../../../Drivers/BSP/CMWX1ZZABZ-0xx/mlm32l07x01.c **** }
 129:../../../../../../Drivers/BSP/CMWX1ZZABZ-0xx/mlm32l07x01.c **** void SX1276IoInit( void )
 130:../../../../../../Drivers/BSP/CMWX1ZZABZ-0xx/mlm32l07x01.c **** {
 131:../../../../../../Drivers/BSP/CMWX1ZZABZ-0xx/mlm32l07x01.c ****   GPIO_InitTypeDef initStruct={0};
 132:../../../../../../Drivers/BSP/CMWX1ZZABZ-0xx/mlm32l07x01.c ****   
 133:../../../../../../Drivers/BSP/CMWX1ZZABZ-0xx/mlm32l07x01.c ****   SX1276BoardInit( &BoardCallbacks );
 134:../../../../../../Drivers/BSP/CMWX1ZZABZ-0xx/mlm32l07x01.c ****   
 135:../../../../../../Drivers/BSP/CMWX1ZZABZ-0xx/mlm32l07x01.c ****   initStruct.Mode =GPIO_MODE_IT_RISING;
 136:../../../../../../Drivers/BSP/CMWX1ZZABZ-0xx/mlm32l07x01.c ****   initStruct.Pull = GPIO_PULLDOWN;
 137:../../../../../../Drivers/BSP/CMWX1ZZABZ-0xx/mlm32l07x01.c ****   initStruct.Speed = GPIO_SPEED_HIGH;
 138:../../../../../../Drivers/BSP/CMWX1ZZABZ-0xx/mlm32l07x01.c **** 
 139:../../../../../../Drivers/BSP/CMWX1ZZABZ-0xx/mlm32l07x01.c ****   HW_GPIO_Init( RADIO_DIO_0_PORT, RADIO_DIO_0_PIN, &initStruct );
 140:../../../../../../Drivers/BSP/CMWX1ZZABZ-0xx/mlm32l07x01.c ****   HW_GPIO_Init( RADIO_DIO_1_PORT, RADIO_DIO_1_PIN, &initStruct );
 141:../../../../../../Drivers/BSP/CMWX1ZZABZ-0xx/mlm32l07x01.c ****   HW_GPIO_Init( RADIO_DIO_2_PORT, RADIO_DIO_2_PIN, &initStruct );
 142:../../../../../../Drivers/BSP/CMWX1ZZABZ-0xx/mlm32l07x01.c ****   HW_GPIO_Init( RADIO_DIO_3_PORT, RADIO_DIO_3_PIN, &initStruct );
 143:../../../../../../Drivers/BSP/CMWX1ZZABZ-0xx/mlm32l07x01.c **** #ifdef RADIO_DIO_4
 144:../../../../../../Drivers/BSP/CMWX1ZZABZ-0xx/mlm32l07x01.c ****   HW_GPIO_Init( RADIO_DIO_4_PORT, RADIO_DIO_4_PIN, &initStruct );
 145:../../../../../../Drivers/BSP/CMWX1ZZABZ-0xx/mlm32l07x01.c **** #endif
 146:../../../../../../Drivers/BSP/CMWX1ZZABZ-0xx/mlm32l07x01.c **** #ifdef RADIO_DIO_5
 147:../../../../../../Drivers/BSP/CMWX1ZZABZ-0xx/mlm32l07x01.c ****   HW_GPIO_Init( RADIO_DIO_5_PORT, RADIO_DIO_5_PIN, &initStruct );
 148:../../../../../../Drivers/BSP/CMWX1ZZABZ-0xx/mlm32l07x01.c **** #endif
 149:../../../../../../Drivers/BSP/CMWX1ZZABZ-0xx/mlm32l07x01.c ****   initStruct.Mode =GPIO_MODE_OUTPUT_PP;
 150:../../../../../../Drivers/BSP/CMWX1ZZABZ-0xx/mlm32l07x01.c ****   initStruct.Pull = GPIO_NOPULL;  
 151:../../../../../../Drivers/BSP/CMWX1ZZABZ-0xx/mlm32l07x01.c ****   HW_GPIO_Init( RADIO_TCXO_VCC_PORT, RADIO_TCXO_VCC_PIN, &initStruct );
 152:../../../../../../Drivers/BSP/CMWX1ZZABZ-0xx/mlm32l07x01.c **** }
 153:../../../../../../Drivers/BSP/CMWX1ZZABZ-0xx/mlm32l07x01.c **** 
 154:../../../../../../Drivers/BSP/CMWX1ZZABZ-0xx/mlm32l07x01.c **** void SX1276IoIrqInit( DioIrqHandler **irqHandlers )
 155:../../../../../../Drivers/BSP/CMWX1ZZABZ-0xx/mlm32l07x01.c **** {
 156:../../../../../../Drivers/BSP/CMWX1ZZABZ-0xx/mlm32l07x01.c ****   HW_GPIO_SetIrq( RADIO_DIO_0_PORT, RADIO_DIO_0_PIN, IRQ_HIGH_PRIORITY, irqHandlers[0] );
 157:../../../../../../Drivers/BSP/CMWX1ZZABZ-0xx/mlm32l07x01.c ****   HW_GPIO_SetIrq( RADIO_DIO_1_PORT, RADIO_DIO_1_PIN, IRQ_HIGH_PRIORITY, irqHandlers[1] );
 158:../../../../../../Drivers/BSP/CMWX1ZZABZ-0xx/mlm32l07x01.c ****   HW_GPIO_SetIrq( RADIO_DIO_2_PORT, RADIO_DIO_2_PIN, IRQ_HIGH_PRIORITY, irqHandlers[2] );
 159:../../../../../../Drivers/BSP/CMWX1ZZABZ-0xx/mlm32l07x01.c ****   HW_GPIO_SetIrq( RADIO_DIO_3_PORT, RADIO_DIO_3_PIN, IRQ_HIGH_PRIORITY, irqHandlers[3] );
 160:../../../../../../Drivers/BSP/CMWX1ZZABZ-0xx/mlm32l07x01.c **** }
 161:../../../../../../Drivers/BSP/CMWX1ZZABZ-0xx/mlm32l07x01.c **** 
 162:../../../../../../Drivers/BSP/CMWX1ZZABZ-0xx/mlm32l07x01.c **** void SX1276IoDeInit( void )
 163:../../../../../../Drivers/BSP/CMWX1ZZABZ-0xx/mlm32l07x01.c **** {
 164:../../../../../../Drivers/BSP/CMWX1ZZABZ-0xx/mlm32l07x01.c ****   GPIO_InitTypeDef initStruct={0};
 165:../../../../../../Drivers/BSP/CMWX1ZZABZ-0xx/mlm32l07x01.c **** 
 166:../../../../../../Drivers/BSP/CMWX1ZZABZ-0xx/mlm32l07x01.c ****   initStruct.Mode = GPIO_MODE_IT_RISING ; //GPIO_MODE_ANALOG;
 167:../../../../../../Drivers/BSP/CMWX1ZZABZ-0xx/mlm32l07x01.c ****   initStruct.Pull = GPIO_PULLDOWN;
 168:../../../../../../Drivers/BSP/CMWX1ZZABZ-0xx/mlm32l07x01.c ****   
 169:../../../../../../Drivers/BSP/CMWX1ZZABZ-0xx/mlm32l07x01.c ****   HW_GPIO_Init( RADIO_DIO_0_PORT, RADIO_DIO_0_PIN, &initStruct );
 170:../../../../../../Drivers/BSP/CMWX1ZZABZ-0xx/mlm32l07x01.c ****   HW_GPIO_Init( RADIO_DIO_1_PORT, RADIO_DIO_1_PIN, &initStruct );
 171:../../../../../../Drivers/BSP/CMWX1ZZABZ-0xx/mlm32l07x01.c ****   HW_GPIO_Init( RADIO_DIO_2_PORT, RADIO_DIO_2_PIN, &initStruct );
 172:../../../../../../Drivers/BSP/CMWX1ZZABZ-0xx/mlm32l07x01.c ****   HW_GPIO_Init( RADIO_DIO_3_PORT, RADIO_DIO_3_PIN, &initStruct );
 173:../../../../../../Drivers/BSP/CMWX1ZZABZ-0xx/mlm32l07x01.c ****   
 174:../../../../../../Drivers/BSP/CMWX1ZZABZ-0xx/mlm32l07x01.c **** #ifdef RADIO_DIO_4
 175:../../../../../../Drivers/BSP/CMWX1ZZABZ-0xx/mlm32l07x01.c ****   HW_GPIO_Init( RADIO_DIO_4_PORT, RADIO_DIO_4_PIN, &initStruct );
 176:../../../../../../Drivers/BSP/CMWX1ZZABZ-0xx/mlm32l07x01.c **** #endif
 177:../../../../../../Drivers/BSP/CMWX1ZZABZ-0xx/mlm32l07x01.c **** #ifdef RADIO_DIO_5
 178:../../../../../../Drivers/BSP/CMWX1ZZABZ-0xx/mlm32l07x01.c ****   HW_GPIO_Init( RADIO_DIO_5_PORT, RADIO_DIO_5_PIN, &initStruct );
 179:../../../../../../Drivers/BSP/CMWX1ZZABZ-0xx/mlm32l07x01.c **** #endif
ARM GAS  C:\Users\EBANO_~1\AppData\Local\Temp\ccmgacVt.s 			page 5


 180:../../../../../../Drivers/BSP/CMWX1ZZABZ-0xx/mlm32l07x01.c **** }
 181:../../../../../../Drivers/BSP/CMWX1ZZABZ-0xx/mlm32l07x01.c **** 
 182:../../../../../../Drivers/BSP/CMWX1ZZABZ-0xx/mlm32l07x01.c **** void SX1276SetRfTxPower( int8_t power )
 183:../../../../../../Drivers/BSP/CMWX1ZZABZ-0xx/mlm32l07x01.c **** {
 184:../../../../../../Drivers/BSP/CMWX1ZZABZ-0xx/mlm32l07x01.c ****     uint8_t paConfig = 0;
 185:../../../../../../Drivers/BSP/CMWX1ZZABZ-0xx/mlm32l07x01.c ****     uint8_t paDac = 0;
 186:../../../../../../Drivers/BSP/CMWX1ZZABZ-0xx/mlm32l07x01.c **** 
 187:../../../../../../Drivers/BSP/CMWX1ZZABZ-0xx/mlm32l07x01.c ****     paConfig = SX1276Read( REG_PACONFIG );
 188:../../../../../../Drivers/BSP/CMWX1ZZABZ-0xx/mlm32l07x01.c ****     paDac = SX1276Read( REG_PADAC );
 189:../../../../../../Drivers/BSP/CMWX1ZZABZ-0xx/mlm32l07x01.c **** 
 190:../../../../../../Drivers/BSP/CMWX1ZZABZ-0xx/mlm32l07x01.c ****     paConfig = ( paConfig & RF_PACONFIG_PASELECT_MASK ) | SX1276GetPaSelect( power );
 191:../../../../../../Drivers/BSP/CMWX1ZZABZ-0xx/mlm32l07x01.c ****     paConfig = ( paConfig & RF_PACONFIG_MAX_POWER_MASK ) | 0x70;
 192:../../../../../../Drivers/BSP/CMWX1ZZABZ-0xx/mlm32l07x01.c **** 
 193:../../../../../../Drivers/BSP/CMWX1ZZABZ-0xx/mlm32l07x01.c ****     if( ( paConfig & RF_PACONFIG_PASELECT_PABOOST ) == RF_PACONFIG_PASELECT_PABOOST )
 194:../../../../../../Drivers/BSP/CMWX1ZZABZ-0xx/mlm32l07x01.c ****     {
 195:../../../../../../Drivers/BSP/CMWX1ZZABZ-0xx/mlm32l07x01.c ****         if( power > 17 )
 196:../../../../../../Drivers/BSP/CMWX1ZZABZ-0xx/mlm32l07x01.c ****         {
 197:../../../../../../Drivers/BSP/CMWX1ZZABZ-0xx/mlm32l07x01.c ****             paDac = ( paDac & RF_PADAC_20DBM_MASK ) | RF_PADAC_20DBM_ON;
 198:../../../../../../Drivers/BSP/CMWX1ZZABZ-0xx/mlm32l07x01.c ****         }
 199:../../../../../../Drivers/BSP/CMWX1ZZABZ-0xx/mlm32l07x01.c ****         else
 200:../../../../../../Drivers/BSP/CMWX1ZZABZ-0xx/mlm32l07x01.c ****         {
 201:../../../../../../Drivers/BSP/CMWX1ZZABZ-0xx/mlm32l07x01.c ****             paDac = ( paDac & RF_PADAC_20DBM_MASK ) | RF_PADAC_20DBM_OFF;
 202:../../../../../../Drivers/BSP/CMWX1ZZABZ-0xx/mlm32l07x01.c ****         }
 203:../../../../../../Drivers/BSP/CMWX1ZZABZ-0xx/mlm32l07x01.c ****         if( ( paDac & RF_PADAC_20DBM_ON ) == RF_PADAC_20DBM_ON )
 204:../../../../../../Drivers/BSP/CMWX1ZZABZ-0xx/mlm32l07x01.c ****         {
 205:../../../../../../Drivers/BSP/CMWX1ZZABZ-0xx/mlm32l07x01.c ****             if( power < 5 )
 206:../../../../../../Drivers/BSP/CMWX1ZZABZ-0xx/mlm32l07x01.c ****             {
 207:../../../../../../Drivers/BSP/CMWX1ZZABZ-0xx/mlm32l07x01.c ****                 power = 5;
 208:../../../../../../Drivers/BSP/CMWX1ZZABZ-0xx/mlm32l07x01.c ****             }
 209:../../../../../../Drivers/BSP/CMWX1ZZABZ-0xx/mlm32l07x01.c ****             if( power > 20 )
 210:../../../../../../Drivers/BSP/CMWX1ZZABZ-0xx/mlm32l07x01.c ****             {
 211:../../../../../../Drivers/BSP/CMWX1ZZABZ-0xx/mlm32l07x01.c ****                 power = 20;
 212:../../../../../../Drivers/BSP/CMWX1ZZABZ-0xx/mlm32l07x01.c ****             }
 213:../../../../../../Drivers/BSP/CMWX1ZZABZ-0xx/mlm32l07x01.c ****             paConfig = ( paConfig & RF_PACONFIG_OUTPUTPOWER_MASK ) | ( uint8_t )( ( uint16_t )( pow
 214:../../../../../../Drivers/BSP/CMWX1ZZABZ-0xx/mlm32l07x01.c ****         }
 215:../../../../../../Drivers/BSP/CMWX1ZZABZ-0xx/mlm32l07x01.c ****         else
 216:../../../../../../Drivers/BSP/CMWX1ZZABZ-0xx/mlm32l07x01.c ****         {
 217:../../../../../../Drivers/BSP/CMWX1ZZABZ-0xx/mlm32l07x01.c ****             if( power < 2 )
 218:../../../../../../Drivers/BSP/CMWX1ZZABZ-0xx/mlm32l07x01.c ****             {
 219:../../../../../../Drivers/BSP/CMWX1ZZABZ-0xx/mlm32l07x01.c ****                 power = 2;
 220:../../../../../../Drivers/BSP/CMWX1ZZABZ-0xx/mlm32l07x01.c ****             }
 221:../../../../../../Drivers/BSP/CMWX1ZZABZ-0xx/mlm32l07x01.c ****             if( power > 17 )
 222:../../../../../../Drivers/BSP/CMWX1ZZABZ-0xx/mlm32l07x01.c ****             {
 223:../../../../../../Drivers/BSP/CMWX1ZZABZ-0xx/mlm32l07x01.c ****                 power = 17;
 224:../../../../../../Drivers/BSP/CMWX1ZZABZ-0xx/mlm32l07x01.c ****             }
 225:../../../../../../Drivers/BSP/CMWX1ZZABZ-0xx/mlm32l07x01.c ****             paConfig = ( paConfig & RF_PACONFIG_OUTPUTPOWER_MASK ) | ( uint8_t )( ( uint16_t )( pow
 226:../../../../../../Drivers/BSP/CMWX1ZZABZ-0xx/mlm32l07x01.c ****         }
 227:../../../../../../Drivers/BSP/CMWX1ZZABZ-0xx/mlm32l07x01.c ****     }
 228:../../../../../../Drivers/BSP/CMWX1ZZABZ-0xx/mlm32l07x01.c ****     else
 229:../../../../../../Drivers/BSP/CMWX1ZZABZ-0xx/mlm32l07x01.c ****     {
 230:../../../../../../Drivers/BSP/CMWX1ZZABZ-0xx/mlm32l07x01.c ****         if( power < -1 )
 231:../../../../../../Drivers/BSP/CMWX1ZZABZ-0xx/mlm32l07x01.c ****         {
 232:../../../../../../Drivers/BSP/CMWX1ZZABZ-0xx/mlm32l07x01.c ****             power = -1;
 233:../../../../../../Drivers/BSP/CMWX1ZZABZ-0xx/mlm32l07x01.c ****         }
 234:../../../../../../Drivers/BSP/CMWX1ZZABZ-0xx/mlm32l07x01.c ****         if( power > 14 )
 235:../../../../../../Drivers/BSP/CMWX1ZZABZ-0xx/mlm32l07x01.c ****         {
 236:../../../../../../Drivers/BSP/CMWX1ZZABZ-0xx/mlm32l07x01.c ****             power = 14;
ARM GAS  C:\Users\EBANO_~1\AppData\Local\Temp\ccmgacVt.s 			page 6


 237:../../../../../../Drivers/BSP/CMWX1ZZABZ-0xx/mlm32l07x01.c ****         }
 238:../../../../../../Drivers/BSP/CMWX1ZZABZ-0xx/mlm32l07x01.c ****         paConfig = ( paConfig & RF_PACONFIG_OUTPUTPOWER_MASK ) | ( uint8_t )( ( uint16_t )( power +
 239:../../../../../../Drivers/BSP/CMWX1ZZABZ-0xx/mlm32l07x01.c ****     }
 240:../../../../../../Drivers/BSP/CMWX1ZZABZ-0xx/mlm32l07x01.c ****     SX1276Write( REG_PACONFIG, paConfig );
 241:../../../../../../Drivers/BSP/CMWX1ZZABZ-0xx/mlm32l07x01.c ****     SX1276Write( REG_PADAC, paDac );
 242:../../../../../../Drivers/BSP/CMWX1ZZABZ-0xx/mlm32l07x01.c **** }
 243:../../../../../../Drivers/BSP/CMWX1ZZABZ-0xx/mlm32l07x01.c **** 
 244:../../../../../../Drivers/BSP/CMWX1ZZABZ-0xx/mlm32l07x01.c **** uint8_t SX1276GetPaSelect( uint8_t power )
 245:../../../../../../Drivers/BSP/CMWX1ZZABZ-0xx/mlm32l07x01.c **** {
 246:../../../../../../Drivers/BSP/CMWX1ZZABZ-0xx/mlm32l07x01.c ****     if (power >14)
 247:../../../../../../Drivers/BSP/CMWX1ZZABZ-0xx/mlm32l07x01.c ****     {
 248:../../../../../../Drivers/BSP/CMWX1ZZABZ-0xx/mlm32l07x01.c ****         return RF_PACONFIG_PASELECT_PABOOST;
 249:../../../../../../Drivers/BSP/CMWX1ZZABZ-0xx/mlm32l07x01.c ****     }
 250:../../../../../../Drivers/BSP/CMWX1ZZABZ-0xx/mlm32l07x01.c ****     else
 251:../../../../../../Drivers/BSP/CMWX1ZZABZ-0xx/mlm32l07x01.c ****     {
 252:../../../../../../Drivers/BSP/CMWX1ZZABZ-0xx/mlm32l07x01.c ****         return RF_PACONFIG_PASELECT_RFO;
 253:../../../../../../Drivers/BSP/CMWX1ZZABZ-0xx/mlm32l07x01.c ****     }
 254:../../../../../../Drivers/BSP/CMWX1ZZABZ-0xx/mlm32l07x01.c **** }
 255:../../../../../../Drivers/BSP/CMWX1ZZABZ-0xx/mlm32l07x01.c **** 
 256:../../../../../../Drivers/BSP/CMWX1ZZABZ-0xx/mlm32l07x01.c **** void SX1276SetAntSwLowPower( bool status )
 257:../../../../../../Drivers/BSP/CMWX1ZZABZ-0xx/mlm32l07x01.c **** {
 258:../../../../../../Drivers/BSP/CMWX1ZZABZ-0xx/mlm32l07x01.c ****     if( status == false )
 259:../../../../../../Drivers/BSP/CMWX1ZZABZ-0xx/mlm32l07x01.c ****     {
 260:../../../../../../Drivers/BSP/CMWX1ZZABZ-0xx/mlm32l07x01.c ****       SX1276AntSwInit( );
 261:../../../../../../Drivers/BSP/CMWX1ZZABZ-0xx/mlm32l07x01.c ****     }
 262:../../../../../../Drivers/BSP/CMWX1ZZABZ-0xx/mlm32l07x01.c ****     else 
 263:../../../../../../Drivers/BSP/CMWX1ZZABZ-0xx/mlm32l07x01.c ****     {
 264:../../../../../../Drivers/BSP/CMWX1ZZABZ-0xx/mlm32l07x01.c ****       SX1276AntSwDeInit( );
 265:../../../../../../Drivers/BSP/CMWX1ZZABZ-0xx/mlm32l07x01.c ****     }
 266:../../../../../../Drivers/BSP/CMWX1ZZABZ-0xx/mlm32l07x01.c **** }
 267:../../../../../../Drivers/BSP/CMWX1ZZABZ-0xx/mlm32l07x01.c **** 
 268:../../../../../../Drivers/BSP/CMWX1ZZABZ-0xx/mlm32l07x01.c **** static void SX1276AntSwInit( void )
 269:../../../../../../Drivers/BSP/CMWX1ZZABZ-0xx/mlm32l07x01.c **** {
 270:../../../../../../Drivers/BSP/CMWX1ZZABZ-0xx/mlm32l07x01.c ****   GPIO_InitTypeDef initStruct={0};
 271:../../../../../../Drivers/BSP/CMWX1ZZABZ-0xx/mlm32l07x01.c **** 
 272:../../../../../../Drivers/BSP/CMWX1ZZABZ-0xx/mlm32l07x01.c ****   initStruct.Mode =GPIO_MODE_OUTPUT_PP;
 273:../../../../../../Drivers/BSP/CMWX1ZZABZ-0xx/mlm32l07x01.c ****   initStruct.Pull = GPIO_NOPULL; 
 274:../../../../../../Drivers/BSP/CMWX1ZZABZ-0xx/mlm32l07x01.c ****   initStruct.Speed = GPIO_SPEED_HIGH;
 275:../../../../../../Drivers/BSP/CMWX1ZZABZ-0xx/mlm32l07x01.c ****   
 276:../../../../../../Drivers/BSP/CMWX1ZZABZ-0xx/mlm32l07x01.c ****   HW_GPIO_Init( RADIO_ANT_SWITCH_PORT_RX, RADIO_ANT_SWITCH_PIN_RX, &initStruct  ); 
 277:../../../../../../Drivers/BSP/CMWX1ZZABZ-0xx/mlm32l07x01.c ****   HW_GPIO_Write( RADIO_ANT_SWITCH_PORT_RX, RADIO_ANT_SWITCH_PIN_RX, 0);
 278:../../../../../../Drivers/BSP/CMWX1ZZABZ-0xx/mlm32l07x01.c ****   
 279:../../../../../../Drivers/BSP/CMWX1ZZABZ-0xx/mlm32l07x01.c ****   HW_GPIO_Init( RADIO_ANT_SWITCH_PORT_TX_BOOST, RADIO_ANT_SWITCH_PIN_TX_BOOST, &initStruct  ); 
 280:../../../../../../Drivers/BSP/CMWX1ZZABZ-0xx/mlm32l07x01.c ****   HW_GPIO_Write( RADIO_ANT_SWITCH_PORT_TX_BOOST, RADIO_ANT_SWITCH_PIN_TX_BOOST, 0);
 281:../../../../../../Drivers/BSP/CMWX1ZZABZ-0xx/mlm32l07x01.c ****   
 282:../../../../../../Drivers/BSP/CMWX1ZZABZ-0xx/mlm32l07x01.c ****   HW_GPIO_Init( RADIO_ANT_SWITCH_PORT_TX_RFO, RADIO_ANT_SWITCH_PIN_TX_RFO, &initStruct  ); 
 283:../../../../../../Drivers/BSP/CMWX1ZZABZ-0xx/mlm32l07x01.c ****   HW_GPIO_Write( RADIO_ANT_SWITCH_PORT_TX_RFO, RADIO_ANT_SWITCH_PIN_TX_RFO, 0);
 284:../../../../../../Drivers/BSP/CMWX1ZZABZ-0xx/mlm32l07x01.c **** }
 285:../../../../../../Drivers/BSP/CMWX1ZZABZ-0xx/mlm32l07x01.c **** 
 286:../../../../../../Drivers/BSP/CMWX1ZZABZ-0xx/mlm32l07x01.c **** static void SX1276AntSwDeInit( void )
 287:../../../../../../Drivers/BSP/CMWX1ZZABZ-0xx/mlm32l07x01.c **** {
 288:../../../../../../Drivers/BSP/CMWX1ZZABZ-0xx/mlm32l07x01.c ****   GPIO_InitTypeDef initStruct={0};
 289:../../../../../../Drivers/BSP/CMWX1ZZABZ-0xx/mlm32l07x01.c **** 
 290:../../../../../../Drivers/BSP/CMWX1ZZABZ-0xx/mlm32l07x01.c ****   initStruct.Mode = GPIO_MODE_ANALOG ;
 291:../../../../../../Drivers/BSP/CMWX1ZZABZ-0xx/mlm32l07x01.c ****   
 292:../../../../../../Drivers/BSP/CMWX1ZZABZ-0xx/mlm32l07x01.c ****   initStruct.Pull = GPIO_NOPULL;
 293:../../../../../../Drivers/BSP/CMWX1ZZABZ-0xx/mlm32l07x01.c ****   initStruct.Speed = GPIO_SPEED_HIGH;
ARM GAS  C:\Users\EBANO_~1\AppData\Local\Temp\ccmgacVt.s 			page 7


 294:../../../../../../Drivers/BSP/CMWX1ZZABZ-0xx/mlm32l07x01.c **** 
 295:../../../../../../Drivers/BSP/CMWX1ZZABZ-0xx/mlm32l07x01.c ****   HW_GPIO_Init( RADIO_ANT_SWITCH_PORT_RX, RADIO_ANT_SWITCH_PIN_RX, &initStruct  ); 
 296:../../../../../../Drivers/BSP/CMWX1ZZABZ-0xx/mlm32l07x01.c ****   HW_GPIO_Write( RADIO_ANT_SWITCH_PORT_RX, RADIO_ANT_SWITCH_PIN_RX, 0);
 297:../../../../../../Drivers/BSP/CMWX1ZZABZ-0xx/mlm32l07x01.c ****   
 298:../../../../../../Drivers/BSP/CMWX1ZZABZ-0xx/mlm32l07x01.c ****   HW_GPIO_Init( RADIO_ANT_SWITCH_PORT_TX_BOOST, RADIO_ANT_SWITCH_PIN_TX_BOOST, &initStruct  ); 
 299:../../../../../../Drivers/BSP/CMWX1ZZABZ-0xx/mlm32l07x01.c ****   HW_GPIO_Write( RADIO_ANT_SWITCH_PORT_TX_BOOST, RADIO_ANT_SWITCH_PIN_TX_BOOST, 0);
 300:../../../../../../Drivers/BSP/CMWX1ZZABZ-0xx/mlm32l07x01.c ****   
 301:../../../../../../Drivers/BSP/CMWX1ZZABZ-0xx/mlm32l07x01.c ****   HW_GPIO_Init( RADIO_ANT_SWITCH_PORT_TX_RFO, RADIO_ANT_SWITCH_PIN_TX_RFO, &initStruct  ); 
 302:../../../../../../Drivers/BSP/CMWX1ZZABZ-0xx/mlm32l07x01.c ****   HW_GPIO_Write( RADIO_ANT_SWITCH_PORT_TX_RFO, RADIO_ANT_SWITCH_PIN_TX_RFO, 0);
 303:../../../../../../Drivers/BSP/CMWX1ZZABZ-0xx/mlm32l07x01.c **** }
 304:../../../../../../Drivers/BSP/CMWX1ZZABZ-0xx/mlm32l07x01.c **** 
 305:../../../../../../Drivers/BSP/CMWX1ZZABZ-0xx/mlm32l07x01.c **** void SX1276SetAntSw( uint8_t opMode )
 306:../../../../../../Drivers/BSP/CMWX1ZZABZ-0xx/mlm32l07x01.c **** {
 307:../../../../../../Drivers/BSP/CMWX1ZZABZ-0xx/mlm32l07x01.c ****  uint8_t paConfig =  SX1276Read( REG_PACONFIG );
 308:../../../../../../Drivers/BSP/CMWX1ZZABZ-0xx/mlm32l07x01.c ****     switch( opMode )
 309:../../../../../../Drivers/BSP/CMWX1ZZABZ-0xx/mlm32l07x01.c ****     {
 310:../../../../../../Drivers/BSP/CMWX1ZZABZ-0xx/mlm32l07x01.c ****     case RFLR_OPMODE_TRANSMITTER:
 311:../../../../../../Drivers/BSP/CMWX1ZZABZ-0xx/mlm32l07x01.c ****       if( ( paConfig & RF_PACONFIG_PASELECT_PABOOST ) == RF_PACONFIG_PASELECT_PABOOST )
 312:../../../../../../Drivers/BSP/CMWX1ZZABZ-0xx/mlm32l07x01.c ****       {
 313:../../../../../../Drivers/BSP/CMWX1ZZABZ-0xx/mlm32l07x01.c ****         HW_GPIO_Write( RADIO_ANT_SWITCH_PORT_TX_BOOST, RADIO_ANT_SWITCH_PIN_TX_BOOST, 1 );
 314:../../../../../../Drivers/BSP/CMWX1ZZABZ-0xx/mlm32l07x01.c ****       }
 315:../../../../../../Drivers/BSP/CMWX1ZZABZ-0xx/mlm32l07x01.c ****       else
 316:../../../../../../Drivers/BSP/CMWX1ZZABZ-0xx/mlm32l07x01.c ****       {
 317:../../../../../../Drivers/BSP/CMWX1ZZABZ-0xx/mlm32l07x01.c ****         HW_GPIO_Write( RADIO_ANT_SWITCH_PORT_TX_RFO, RADIO_ANT_SWITCH_PIN_TX_RFO, 1 );
 318:../../../../../../Drivers/BSP/CMWX1ZZABZ-0xx/mlm32l07x01.c ****       }
 319:../../../../../../Drivers/BSP/CMWX1ZZABZ-0xx/mlm32l07x01.c ****       SX1276.RxTx = 1;
 320:../../../../../../Drivers/BSP/CMWX1ZZABZ-0xx/mlm32l07x01.c ****         break;
 321:../../../../../../Drivers/BSP/CMWX1ZZABZ-0xx/mlm32l07x01.c ****     case RFLR_OPMODE_RECEIVER:
 322:../../../../../../Drivers/BSP/CMWX1ZZABZ-0xx/mlm32l07x01.c ****     case RFLR_OPMODE_RECEIVER_SINGLE:
 323:../../../../../../Drivers/BSP/CMWX1ZZABZ-0xx/mlm32l07x01.c ****     case RFLR_OPMODE_CAD:
 324:../../../../../../Drivers/BSP/CMWX1ZZABZ-0xx/mlm32l07x01.c ****     default:
 325:../../../../../../Drivers/BSP/CMWX1ZZABZ-0xx/mlm32l07x01.c ****      SX1276.RxTx = 0;
 326:../../../../../../Drivers/BSP/CMWX1ZZABZ-0xx/mlm32l07x01.c ****      HW_GPIO_Write( RADIO_ANT_SWITCH_PORT_RX, RADIO_ANT_SWITCH_PIN_RX, 1 );
 327:../../../../../../Drivers/BSP/CMWX1ZZABZ-0xx/mlm32l07x01.c ****      break;
 328:../../../../../../Drivers/BSP/CMWX1ZZABZ-0xx/mlm32l07x01.c ****     }
 329:../../../../../../Drivers/BSP/CMWX1ZZABZ-0xx/mlm32l07x01.c **** }
 330:../../../../../../Drivers/BSP/CMWX1ZZABZ-0xx/mlm32l07x01.c **** 
 331:../../../../../../Drivers/BSP/CMWX1ZZABZ-0xx/mlm32l07x01.c **** bool SX1276CheckRfFrequency( uint32_t frequency )
 332:../../../../../../Drivers/BSP/CMWX1ZZABZ-0xx/mlm32l07x01.c **** {
  50              		.loc 1 332 0
  51              		.cfi_startproc
  52              		@ args = 0, pretend = 0, frame = 0
  53              		@ frame_needed = 0, uses_anonymous_args = 0
  54              		@ link register save eliminated.
  55              	.LVL0:
 333:../../../../../../Drivers/BSP/CMWX1ZZABZ-0xx/mlm32l07x01.c ****     // Implement check. Currently all frequencies are supported
 334:../../../../../../Drivers/BSP/CMWX1ZZABZ-0xx/mlm32l07x01.c ****     return true;
 335:../../../../../../Drivers/BSP/CMWX1ZZABZ-0xx/mlm32l07x01.c **** }
  56              		.loc 1 335 0
  57 0000 0120     		movs	r0, #1
  58              	.LVL1:
  59              		@ sp needed
  60 0002 7047     		bx	lr
  61              		.cfi_endproc
  62              	.LFE50:
  63              		.size	SX1276CheckRfFrequency, .-SX1276CheckRfFrequency
  64              		.section	.text.SX1276SetRfTxPower,"ax",%progbits
ARM GAS  C:\Users\EBANO_~1\AppData\Local\Temp\ccmgacVt.s 			page 8


  65              		.align	1
  66              		.p2align 2,,3
  67              		.global	SX1276SetRfTxPower
  68              		.syntax unified
  69              		.code	16
  70              		.thumb_func
  71              		.fpu softvfp
  72              		.type	SX1276SetRfTxPower, %function
  73              	SX1276SetRfTxPower:
  74              	.LFB44:
 183:../../../../../../Drivers/BSP/CMWX1ZZABZ-0xx/mlm32l07x01.c ****     uint8_t paConfig = 0;
  75              		.loc 1 183 0
  76              		.cfi_startproc
  77              		@ args = 0, pretend = 0, frame = 0
  78              		@ frame_needed = 0, uses_anonymous_args = 0
  79              	.LVL2:
  80 0000 70B5     		push	{r4, r5, r6, lr}
  81              	.LCFI0:
  82              		.cfi_def_cfa_offset 16
  83              		.cfi_offset 4, -16
  84              		.cfi_offset 5, -12
  85              		.cfi_offset 6, -8
  86              		.cfi_offset 14, -4
 183:../../../../../../Drivers/BSP/CMWX1ZZABZ-0xx/mlm32l07x01.c ****     uint8_t paConfig = 0;
  87              		.loc 1 183 0
  88 0002 0500     		movs	r5, r0
 187:../../../../../../Drivers/BSP/CMWX1ZZABZ-0xx/mlm32l07x01.c ****     paDac = SX1276Read( REG_PADAC );
  89              		.loc 1 187 0
  90 0004 0920     		movs	r0, #9
  91              	.LVL3:
  92 0006 FFF7FEFF 		bl	SX1276Read
  93              	.LVL4:
  94 000a 0600     		movs	r6, r0
  95              	.LVL5:
 188:../../../../../../Drivers/BSP/CMWX1ZZABZ-0xx/mlm32l07x01.c **** 
  96              		.loc 1 188 0
  97 000c 4D20     		movs	r0, #77
  98 000e FFF7FEFF 		bl	SX1276Read
  99              	.LVL6:
 190:../../../../../../Drivers/BSP/CMWX1ZZABZ-0xx/mlm32l07x01.c ****     paConfig = ( paConfig & RF_PACONFIG_MAX_POWER_MASK ) | 0x70;
 100              		.loc 1 190 0
 101 0012 7F23     		movs	r3, #127
 102              	.LBB4:
 103              	.LBB5:
 246:../../../../../../Drivers/BSP/CMWX1ZZABZ-0xx/mlm32l07x01.c ****     {
 104              		.loc 1 246 0
 105 0014 EAB2     		uxtb	r2, r5
 106              	.LBE5:
 107              	.LBE4:
 188:../../../../../../Drivers/BSP/CMWX1ZZABZ-0xx/mlm32l07x01.c **** 
 108              		.loc 1 188 0
 109 0016 0400     		movs	r4, r0
 110              	.LVL7:
 190:../../../../../../Drivers/BSP/CMWX1ZZABZ-0xx/mlm32l07x01.c ****     paConfig = ( paConfig & RF_PACONFIG_MAX_POWER_MASK ) | 0x70;
 111              		.loc 1 190 0
 112 0018 3340     		ands	r3, r6
 113              	.LVL8:
ARM GAS  C:\Users\EBANO_~1\AppData\Local\Temp\ccmgacVt.s 			page 9


 114              	.LBB7:
 115              	.LBB6:
 246:../../../../../../Drivers/BSP/CMWX1ZZABZ-0xx/mlm32l07x01.c ****     {
 116              		.loc 1 246 0
 117 001a 0E2A     		cmp	r2, #14
 118 001c 02D9     		bls	.L5
 119 001e 8022     		movs	r2, #128
 120 0020 5242     		rsbs	r2, r2, #0
 121 0022 1343     		orrs	r3, r2
 122              	.L5:
 123              	.LVL9:
 124              	.LBE6:
 125              	.LBE7:
 191:../../../../../../Drivers/BSP/CMWX1ZZABZ-0xx/mlm32l07x01.c **** 
 126              		.loc 1 191 0
 127 0024 7021     		movs	r1, #112
 128 0026 0B43     		orrs	r3, r1
 129              	.LVL10:
 193:../../../../../../Drivers/BSP/CMWX1ZZABZ-0xx/mlm32l07x01.c ****     {
 130              		.loc 1 193 0
 131 0028 5BB2     		sxtb	r3, r3
 132 002a 002B     		cmp	r3, #0
 133 002c 16DB     		blt	.L16
 134 002e 291C     		adds	r1, r5, #0
 135 0030 0E2D     		cmp	r5, #14
 136 0032 0DDC     		bgt	.L17
 137              	.LVL11:
 238:../../../../../../Drivers/BSP/CMWX1ZZABZ-0xx/mlm32l07x01.c ****     }
 138              		.loc 1 238 0
 139 0034 0B06     		lsls	r3, r1, #24
 140 0036 0ED4     		bmi	.L18
 141              	.LVL12:
 142              	.L15:
 143 0038 7023     		movs	r3, #112
 144 003a 0131     		adds	r1, r1, #1
 145 003c 1943     		orrs	r1, r3
 146 003e C9B2     		uxtb	r1, r1
 147              	.LVL13:
 148              	.L12:
 240:../../../../../../Drivers/BSP/CMWX1ZZABZ-0xx/mlm32l07x01.c ****     SX1276Write( REG_PADAC, paDac );
 149              		.loc 1 240 0
 150 0040 0920     		movs	r0, #9
 151 0042 FFF7FEFF 		bl	SX1276Write
 152              	.LVL14:
 241:../../../../../../Drivers/BSP/CMWX1ZZABZ-0xx/mlm32l07x01.c **** }
 153              		.loc 1 241 0
 154 0046 2100     		movs	r1, r4
 155 0048 4D20     		movs	r0, #77
 156 004a FFF7FEFF 		bl	SX1276Write
 157              	.LVL15:
 242:../../../../../../Drivers/BSP/CMWX1ZZABZ-0xx/mlm32l07x01.c **** 
 158              		.loc 1 242 0
 159              		@ sp needed
 160              	.LVL16:
 161 004e 70BD     		pop	{r4, r5, r6, pc}
 162              	.LVL17:
 163              	.L17:
ARM GAS  C:\Users\EBANO_~1\AppData\Local\Temp\ccmgacVt.s 			page 10


 164 0050 0E21     		movs	r1, #14
 165              	.LVL18:
 238:../../../../../../Drivers/BSP/CMWX1ZZABZ-0xx/mlm32l07x01.c ****     }
 166              		.loc 1 238 0
 167 0052 0B06     		lsls	r3, r1, #24
 168 0054 F0D5     		bpl	.L15
 169              	.LVL19:
 170              	.L18:
 171 0056 FF23     		movs	r3, #255
 172 0058 191C     		adds	r1, r3, #0
 173 005a EDE7     		b	.L15
 174              	.LVL20:
 175              	.L16:
 195:../../../../../../Drivers/BSP/CMWX1ZZABZ-0xx/mlm32l07x01.c ****         {
 176              		.loc 1 195 0
 177 005c 112D     		cmp	r5, #17
 178 005e 10DD     		ble	.L7
 197:../../../../../../Drivers/BSP/CMWX1ZZABZ-0xx/mlm32l07x01.c ****         }
 179              		.loc 1 197 0
 180 0060 0724     		movs	r4, #7
 181 0062 0F22     		movs	r2, #15
 182 0064 0443     		orrs	r4, r0
 183 0066 E4B2     		uxtb	r4, r4
 184              	.LVL21:
 185 0068 9343     		bics	r3, r2
 186              	.L8:
 187 006a 291C     		adds	r1, r5, #0
 188 006c 142D     		cmp	r5, #20
 189 006e 00DD     		ble	.L10
 190 0070 1421     		movs	r1, #20
 191              	.L10:
 192              	.LVL22:
 213:../../../../../../Drivers/BSP/CMWX1ZZABZ-0xx/mlm32l07x01.c ****         }
 193              		.loc 1 213 0
 194 0072 4AB2     		sxtb	r2, r1
 195 0074 052A     		cmp	r2, #5
 196 0076 00DA     		bge	.L11
 197 0078 0521     		movs	r1, #5
 198              	.LVL23:
 199              	.L11:
 200 007a 0539     		subs	r1, r1, #5
 201 007c 1943     		orrs	r1, r3
 202 007e C9B2     		uxtb	r1, r1
 203              	.LVL24:
 204 0080 DEE7     		b	.L12
 205              	.LVL25:
 206              	.L7:
 201:../../../../../../Drivers/BSP/CMWX1ZZABZ-0xx/mlm32l07x01.c ****         }
 207              		.loc 1 201 0
 208 0082 0722     		movs	r2, #7
 209 0084 0424     		movs	r4, #4
 210 0086 0F21     		movs	r1, #15
 211 0088 9043     		bics	r0, r2
 212              	.LVL26:
 213 008a 0443     		orrs	r4, r0
 214 008c E4B2     		uxtb	r4, r4
 215              	.LVL27:
ARM GAS  C:\Users\EBANO_~1\AppData\Local\Temp\ccmgacVt.s 			page 11


 216 008e 8B43     		bics	r3, r1
 203:../../../../../../Drivers/BSP/CMWX1ZZABZ-0xx/mlm32l07x01.c ****         {
 217              		.loc 1 203 0
 218 0090 2240     		ands	r2, r4
 219 0092 072A     		cmp	r2, #7
 220 0094 E9D0     		beq	.L8
 221              	.LVL28:
 225:../../../../../../Drivers/BSP/CMWX1ZZABZ-0xx/mlm32l07x01.c ****         }
 222              		.loc 1 225 0
 223 0096 291C     		adds	r1, r5, #0
 224 0098 022D     		cmp	r5, #2
 225 009a 00DA     		bge	.L13
 226              	.LVL29:
 227 009c 0221     		movs	r1, #2
 228              	.LVL30:
 229              	.L13:
 230 009e 0239     		subs	r1, r1, #2
 231 00a0 1943     		orrs	r1, r3
 232 00a2 C9B2     		uxtb	r1, r1
 233              	.LVL31:
 234 00a4 CCE7     		b	.L12
 235              		.cfi_endproc
 236              	.LFE44:
 237              		.size	SX1276SetRfTxPower, .-SX1276SetRfTxPower
 238 00a6 C046     		.section	.text.SX1276IoInit,"ax",%progbits
 239              		.align	1
 240              		.p2align 2,,3
 241              		.global	SX1276IoInit
 242              		.syntax unified
 243              		.code	16
 244              		.thumb_func
 245              		.fpu softvfp
 246              		.type	SX1276IoInit, %function
 247              	SX1276IoInit:
 248              	.LFB41:
 130:../../../../../../Drivers/BSP/CMWX1ZZABZ-0xx/mlm32l07x01.c ****   GPIO_InitTypeDef initStruct={0};
 249              		.loc 1 130 0
 250              		.cfi_startproc
 251              		@ args = 0, pretend = 0, frame = 24
 252              		@ frame_needed = 0, uses_anonymous_args = 0
 253 0000 10B5     		push	{r4, lr}
 254              	.LCFI1:
 255              		.cfi_def_cfa_offset 8
 256              		.cfi_offset 4, -8
 257              		.cfi_offset 14, -4
 258 0002 86B0     		sub	sp, sp, #24
 259              	.LCFI2:
 260              		.cfi_def_cfa_offset 32
 131:../../../../../../Drivers/BSP/CMWX1ZZABZ-0xx/mlm32l07x01.c ****   
 261              		.loc 1 131 0
 262 0004 1422     		movs	r2, #20
 263 0006 0021     		movs	r1, #0
 264 0008 01A8     		add	r0, sp, #4
 265 000a FFF7FEFF 		bl	memset
 266              	.LVL32:
 133:../../../../../../Drivers/BSP/CMWX1ZZABZ-0xx/mlm32l07x01.c ****   
 267              		.loc 1 133 0
ARM GAS  C:\Users\EBANO_~1\AppData\Local\Temp\ccmgacVt.s 			page 12


 268 000e 1648     		ldr	r0, .L20
 269 0010 FFF7FEFF 		bl	SX1276BoardInit
 270              	.LVL33:
 135:../../../../../../Drivers/BSP/CMWX1ZZABZ-0xx/mlm32l07x01.c ****   initStruct.Pull = GPIO_PULLDOWN;
 271              		.loc 1 135 0
 272 0014 154B     		ldr	r3, .L20+4
 139:../../../../../../Drivers/BSP/CMWX1ZZABZ-0xx/mlm32l07x01.c ****   HW_GPIO_Init( RADIO_DIO_1_PORT, RADIO_DIO_1_PIN, &initStruct );
 273              		.loc 1 139 0
 274 0016 164C     		ldr	r4, .L20+8
 135:../../../../../../Drivers/BSP/CMWX1ZZABZ-0xx/mlm32l07x01.c ****   initStruct.Pull = GPIO_PULLDOWN;
 275              		.loc 1 135 0
 276 0018 0293     		str	r3, [sp, #8]
 136:../../../../../../Drivers/BSP/CMWX1ZZABZ-0xx/mlm32l07x01.c ****   initStruct.Speed = GPIO_SPEED_HIGH;
 277              		.loc 1 136 0
 278 001a 0223     		movs	r3, #2
 139:../../../../../../Drivers/BSP/CMWX1ZZABZ-0xx/mlm32l07x01.c ****   HW_GPIO_Init( RADIO_DIO_1_PORT, RADIO_DIO_1_PIN, &initStruct );
 279              		.loc 1 139 0
 280 001c 01AA     		add	r2, sp, #4
 136:../../../../../../Drivers/BSP/CMWX1ZZABZ-0xx/mlm32l07x01.c ****   initStruct.Speed = GPIO_SPEED_HIGH;
 281              		.loc 1 136 0
 282 001e 0393     		str	r3, [sp, #12]
 139:../../../../../../Drivers/BSP/CMWX1ZZABZ-0xx/mlm32l07x01.c ****   HW_GPIO_Init( RADIO_DIO_1_PORT, RADIO_DIO_1_PIN, &initStruct );
 283              		.loc 1 139 0
 284 0020 2000     		movs	r0, r4
 137:../../../../../../Drivers/BSP/CMWX1ZZABZ-0xx/mlm32l07x01.c **** 
 285              		.loc 1 137 0
 286 0022 0133     		adds	r3, r3, #1
 139:../../../../../../Drivers/BSP/CMWX1ZZABZ-0xx/mlm32l07x01.c ****   HW_GPIO_Init( RADIO_DIO_1_PORT, RADIO_DIO_1_PIN, &initStruct );
 287              		.loc 1 139 0
 288 0024 1021     		movs	r1, #16
 137:../../../../../../Drivers/BSP/CMWX1ZZABZ-0xx/mlm32l07x01.c **** 
 289              		.loc 1 137 0
 290 0026 0493     		str	r3, [sp, #16]
 139:../../../../../../Drivers/BSP/CMWX1ZZABZ-0xx/mlm32l07x01.c ****   HW_GPIO_Init( RADIO_DIO_1_PORT, RADIO_DIO_1_PIN, &initStruct );
 291              		.loc 1 139 0
 292 0028 FFF7FEFF 		bl	HW_GPIO_Init
 293              	.LVL34:
 140:../../../../../../Drivers/BSP/CMWX1ZZABZ-0xx/mlm32l07x01.c ****   HW_GPIO_Init( RADIO_DIO_2_PORT, RADIO_DIO_2_PIN, &initStruct );
 294              		.loc 1 140 0
 295 002c 01AA     		add	r2, sp, #4
 296 002e 2000     		movs	r0, r4
 297 0030 0221     		movs	r1, #2
 298 0032 FFF7FEFF 		bl	HW_GPIO_Init
 299              	.LVL35:
 141:../../../../../../Drivers/BSP/CMWX1ZZABZ-0xx/mlm32l07x01.c ****   HW_GPIO_Init( RADIO_DIO_3_PORT, RADIO_DIO_3_PIN, &initStruct );
 300              		.loc 1 141 0
 301 0036 01AA     		add	r2, sp, #4
 302 0038 2000     		movs	r0, r4
 303 003a 0121     		movs	r1, #1
 304 003c FFF7FEFF 		bl	HW_GPIO_Init
 305              	.LVL36:
 142:../../../../../../Drivers/BSP/CMWX1ZZABZ-0xx/mlm32l07x01.c **** #ifdef RADIO_DIO_4
 306              		.loc 1 142 0
 307 0040 8021     		movs	r1, #128
 308 0042 01AA     		add	r2, sp, #4
 309 0044 8901     		lsls	r1, r1, #6
 310 0046 0B48     		ldr	r0, .L20+12
ARM GAS  C:\Users\EBANO_~1\AppData\Local\Temp\ccmgacVt.s 			page 13


 311 0048 FFF7FEFF 		bl	HW_GPIO_Init
 312              	.LVL37:
 149:../../../../../../Drivers/BSP/CMWX1ZZABZ-0xx/mlm32l07x01.c ****   initStruct.Pull = GPIO_NOPULL;  
 313              		.loc 1 149 0
 314 004c 0123     		movs	r3, #1
 151:../../../../../../Drivers/BSP/CMWX1ZZABZ-0xx/mlm32l07x01.c **** }
 315              		.loc 1 151 0
 316 004e 8021     		movs	r1, #128
 317 0050 A020     		movs	r0, #160
 149:../../../../../../Drivers/BSP/CMWX1ZZABZ-0xx/mlm32l07x01.c ****   initStruct.Pull = GPIO_NOPULL;  
 318              		.loc 1 149 0
 319 0052 0293     		str	r3, [sp, #8]
 150:../../../../../../Drivers/BSP/CMWX1ZZABZ-0xx/mlm32l07x01.c ****   HW_GPIO_Init( RADIO_TCXO_VCC_PORT, RADIO_TCXO_VCC_PIN, &initStruct );
 320              		.loc 1 150 0
 321 0054 0023     		movs	r3, #0
 151:../../../../../../Drivers/BSP/CMWX1ZZABZ-0xx/mlm32l07x01.c **** }
 322              		.loc 1 151 0
 323 0056 01AA     		add	r2, sp, #4
 324 0058 4901     		lsls	r1, r1, #5
 325 005a C005     		lsls	r0, r0, #23
 150:../../../../../../Drivers/BSP/CMWX1ZZABZ-0xx/mlm32l07x01.c ****   HW_GPIO_Init( RADIO_TCXO_VCC_PORT, RADIO_TCXO_VCC_PIN, &initStruct );
 326              		.loc 1 150 0
 327 005c 0393     		str	r3, [sp, #12]
 151:../../../../../../Drivers/BSP/CMWX1ZZABZ-0xx/mlm32l07x01.c **** }
 328              		.loc 1 151 0
 329 005e FFF7FEFF 		bl	HW_GPIO_Init
 330              	.LVL38:
 152:../../../../../../Drivers/BSP/CMWX1ZZABZ-0xx/mlm32l07x01.c **** 
 331              		.loc 1 152 0
 332 0062 06B0     		add	sp, sp, #24
 333              		@ sp needed
 334 0064 10BD     		pop	{r4, pc}
 335              	.L21:
 336 0066 C046     		.align	2
 337              	.L20:
 338 0068 00000000 		.word	.LANCHOR0
 339 006c 00001110 		.word	269549568
 340 0070 00040050 		.word	1342178304
 341 0074 00080050 		.word	1342179328
 342              		.cfi_endproc
 343              	.LFE41:
 344              		.size	SX1276IoInit, .-SX1276IoInit
 345              		.section	.text.SX1276IoDeInit,"ax",%progbits
 346              		.align	1
 347              		.p2align 2,,3
 348              		.global	SX1276IoDeInit
 349              		.syntax unified
 350              		.code	16
 351              		.thumb_func
 352              		.fpu softvfp
 353              		.type	SX1276IoDeInit, %function
 354              	SX1276IoDeInit:
 355              	.LFB43:
 163:../../../../../../Drivers/BSP/CMWX1ZZABZ-0xx/mlm32l07x01.c ****   GPIO_InitTypeDef initStruct={0};
 356              		.loc 1 163 0
 357              		.cfi_startproc
 358              		@ args = 0, pretend = 0, frame = 24
ARM GAS  C:\Users\EBANO_~1\AppData\Local\Temp\ccmgacVt.s 			page 14


 359              		@ frame_needed = 0, uses_anonymous_args = 0
 360 0000 10B5     		push	{r4, lr}
 361              	.LCFI3:
 362              		.cfi_def_cfa_offset 8
 363              		.cfi_offset 4, -8
 364              		.cfi_offset 14, -4
 365 0002 86B0     		sub	sp, sp, #24
 366              	.LCFI4:
 367              		.cfi_def_cfa_offset 32
 164:../../../../../../Drivers/BSP/CMWX1ZZABZ-0xx/mlm32l07x01.c **** 
 368              		.loc 1 164 0
 369 0004 1422     		movs	r2, #20
 370 0006 0021     		movs	r1, #0
 371 0008 01A8     		add	r0, sp, #4
 372 000a FFF7FEFF 		bl	memset
 373              	.LVL39:
 166:../../../../../../Drivers/BSP/CMWX1ZZABZ-0xx/mlm32l07x01.c ****   initStruct.Pull = GPIO_PULLDOWN;
 374              		.loc 1 166 0
 375 000e 0E4B     		ldr	r3, .L23
 169:../../../../../../Drivers/BSP/CMWX1ZZABZ-0xx/mlm32l07x01.c ****   HW_GPIO_Init( RADIO_DIO_1_PORT, RADIO_DIO_1_PIN, &initStruct );
 376              		.loc 1 169 0
 377 0010 0E4C     		ldr	r4, .L23+4
 166:../../../../../../Drivers/BSP/CMWX1ZZABZ-0xx/mlm32l07x01.c ****   initStruct.Pull = GPIO_PULLDOWN;
 378              		.loc 1 166 0
 379 0012 0293     		str	r3, [sp, #8]
 167:../../../../../../Drivers/BSP/CMWX1ZZABZ-0xx/mlm32l07x01.c ****   
 380              		.loc 1 167 0
 381 0014 0223     		movs	r3, #2
 169:../../../../../../Drivers/BSP/CMWX1ZZABZ-0xx/mlm32l07x01.c ****   HW_GPIO_Init( RADIO_DIO_1_PORT, RADIO_DIO_1_PIN, &initStruct );
 382              		.loc 1 169 0
 383 0016 01AA     		add	r2, sp, #4
 384 0018 2000     		movs	r0, r4
 385 001a 1021     		movs	r1, #16
 167:../../../../../../Drivers/BSP/CMWX1ZZABZ-0xx/mlm32l07x01.c ****   
 386              		.loc 1 167 0
 387 001c 0393     		str	r3, [sp, #12]
 169:../../../../../../Drivers/BSP/CMWX1ZZABZ-0xx/mlm32l07x01.c ****   HW_GPIO_Init( RADIO_DIO_1_PORT, RADIO_DIO_1_PIN, &initStruct );
 388              		.loc 1 169 0
 389 001e FFF7FEFF 		bl	HW_GPIO_Init
 390              	.LVL40:
 170:../../../../../../Drivers/BSP/CMWX1ZZABZ-0xx/mlm32l07x01.c ****   HW_GPIO_Init( RADIO_DIO_2_PORT, RADIO_DIO_2_PIN, &initStruct );
 391              		.loc 1 170 0
 392 0022 01AA     		add	r2, sp, #4
 393 0024 2000     		movs	r0, r4
 394 0026 0221     		movs	r1, #2
 395 0028 FFF7FEFF 		bl	HW_GPIO_Init
 396              	.LVL41:
 171:../../../../../../Drivers/BSP/CMWX1ZZABZ-0xx/mlm32l07x01.c ****   HW_GPIO_Init( RADIO_DIO_3_PORT, RADIO_DIO_3_PIN, &initStruct );
 397              		.loc 1 171 0
 398 002c 01AA     		add	r2, sp, #4
 399 002e 2000     		movs	r0, r4
 400 0030 0121     		movs	r1, #1
 401 0032 FFF7FEFF 		bl	HW_GPIO_Init
 402              	.LVL42:
 172:../../../../../../Drivers/BSP/CMWX1ZZABZ-0xx/mlm32l07x01.c ****   
 403              		.loc 1 172 0
 404 0036 8021     		movs	r1, #128
ARM GAS  C:\Users\EBANO_~1\AppData\Local\Temp\ccmgacVt.s 			page 15


 405 0038 01AA     		add	r2, sp, #4
 406 003a 8901     		lsls	r1, r1, #6
 407 003c 0448     		ldr	r0, .L23+8
 408 003e FFF7FEFF 		bl	HW_GPIO_Init
 409              	.LVL43:
 180:../../../../../../Drivers/BSP/CMWX1ZZABZ-0xx/mlm32l07x01.c **** 
 410              		.loc 1 180 0
 411 0042 06B0     		add	sp, sp, #24
 412              		@ sp needed
 413 0044 10BD     		pop	{r4, pc}
 414              	.L24:
 415 0046 C046     		.align	2
 416              	.L23:
 417 0048 00001110 		.word	269549568
 418 004c 00040050 		.word	1342178304
 419 0050 00080050 		.word	1342179328
 420              		.cfi_endproc
 421              	.LFE43:
 422              		.size	SX1276IoDeInit, .-SX1276IoDeInit
 423              		.section	.text.SX1276SetAntSwLowPower,"ax",%progbits
 424              		.align	1
 425              		.p2align 2,,3
 426              		.global	SX1276SetAntSwLowPower
 427              		.syntax unified
 428              		.code	16
 429              		.thumb_func
 430              		.fpu softvfp
 431              		.type	SX1276SetAntSwLowPower, %function
 432              	SX1276SetAntSwLowPower:
 433              	.LFB46:
 257:../../../../../../Drivers/BSP/CMWX1ZZABZ-0xx/mlm32l07x01.c ****     if( status == false )
 434              		.loc 1 257 0
 435              		.cfi_startproc
 436              		@ args = 0, pretend = 0, frame = 24
 437              		@ frame_needed = 0, uses_anonymous_args = 0
 438              	.LVL44:
 439 0000 00B5     		push	{lr}
 440              	.LCFI5:
 441              		.cfi_def_cfa_offset 4
 442              		.cfi_offset 14, -4
 443              	.LBB12:
 444              	.LBB13:
 270:../../../../../../Drivers/BSP/CMWX1ZZABZ-0xx/mlm32l07x01.c **** 
 445              		.loc 1 270 0
 446 0002 1422     		movs	r2, #20
 447              	.LBE13:
 448              	.LBE12:
 257:../../../../../../Drivers/BSP/CMWX1ZZABZ-0xx/mlm32l07x01.c ****     if( status == false )
 449              		.loc 1 257 0
 450 0004 87B0     		sub	sp, sp, #28
 451              	.LCFI6:
 452              		.cfi_def_cfa_offset 32
 453              	.LBB16:
 454              	.LBB14:
 270:../../../../../../Drivers/BSP/CMWX1ZZABZ-0xx/mlm32l07x01.c **** 
 455              		.loc 1 270 0
 456 0006 0021     		movs	r1, #0
ARM GAS  C:\Users\EBANO_~1\AppData\Local\Temp\ccmgacVt.s 			page 16


 457              	.LBE14:
 458              	.LBE16:
 258:../../../../../../Drivers/BSP/CMWX1ZZABZ-0xx/mlm32l07x01.c ****     {
 459              		.loc 1 258 0
 460 0008 0028     		cmp	r0, #0
 461 000a 27D0     		beq	.L29
 462              	.LBB17:
 463              	.LBB18:
 288:../../../../../../Drivers/BSP/CMWX1ZZABZ-0xx/mlm32l07x01.c **** 
 464              		.loc 1 288 0
 465 000c 01A8     		add	r0, sp, #4
 466              	.LVL45:
 467 000e FFF7FEFF 		bl	memset
 468              	.LVL46:
 290:../../../../../../Drivers/BSP/CMWX1ZZABZ-0xx/mlm32l07x01.c ****   
 469              		.loc 1 290 0
 470 0012 0323     		movs	r3, #3
 471 0014 0293     		str	r3, [sp, #8]
 472              	.L28:
 295:../../../../../../Drivers/BSP/CMWX1ZZABZ-0xx/mlm32l07x01.c ****   HW_GPIO_Write( RADIO_ANT_SWITCH_PORT_RX, RADIO_ANT_SWITCH_PIN_RX, 0);
 473              		.loc 1 295 0
 474 0016 A020     		movs	r0, #160
 475 0018 01AA     		add	r2, sp, #4
 476 001a 0221     		movs	r1, #2
 477 001c C005     		lsls	r0, r0, #23
 293:../../../../../../Drivers/BSP/CMWX1ZZABZ-0xx/mlm32l07x01.c **** 
 478              		.loc 1 293 0
 479 001e 0493     		str	r3, [sp, #16]
 295:../../../../../../Drivers/BSP/CMWX1ZZABZ-0xx/mlm32l07x01.c ****   HW_GPIO_Write( RADIO_ANT_SWITCH_PORT_RX, RADIO_ANT_SWITCH_PIN_RX, 0);
 480              		.loc 1 295 0
 481 0020 FFF7FEFF 		bl	HW_GPIO_Init
 482              	.LVL47:
 296:../../../../../../Drivers/BSP/CMWX1ZZABZ-0xx/mlm32l07x01.c ****   
 483              		.loc 1 296 0
 484 0024 A020     		movs	r0, #160
 485 0026 0022     		movs	r2, #0
 486 0028 0221     		movs	r1, #2
 487 002a C005     		lsls	r0, r0, #23
 488 002c FFF7FEFF 		bl	HW_GPIO_Write
 489              	.LVL48:
 298:../../../../../../Drivers/BSP/CMWX1ZZABZ-0xx/mlm32l07x01.c ****   HW_GPIO_Write( RADIO_ANT_SWITCH_PORT_TX_BOOST, RADIO_ANT_SWITCH_PIN_TX_BOOST, 0);
 490              		.loc 1 298 0
 491 0030 01AA     		add	r2, sp, #4
 492 0032 0221     		movs	r1, #2
 493 0034 0D48     		ldr	r0, .L30
 494 0036 FFF7FEFF 		bl	HW_GPIO_Init
 495              	.LVL49:
 299:../../../../../../Drivers/BSP/CMWX1ZZABZ-0xx/mlm32l07x01.c ****   
 496              		.loc 1 299 0
 497 003a 0022     		movs	r2, #0
 498 003c 0221     		movs	r1, #2
 499 003e 0B48     		ldr	r0, .L30
 500 0040 FFF7FEFF 		bl	HW_GPIO_Write
 501              	.LVL50:
 301:../../../../../../Drivers/BSP/CMWX1ZZABZ-0xx/mlm32l07x01.c ****   HW_GPIO_Write( RADIO_ANT_SWITCH_PORT_TX_RFO, RADIO_ANT_SWITCH_PIN_TX_RFO, 0);
 502              		.loc 1 301 0
 503 0044 01AA     		add	r2, sp, #4
ARM GAS  C:\Users\EBANO_~1\AppData\Local\Temp\ccmgacVt.s 			page 17


 504 0046 0421     		movs	r1, #4
 505 0048 0848     		ldr	r0, .L30
 506 004a FFF7FEFF 		bl	HW_GPIO_Init
 507              	.LVL51:
 302:../../../../../../Drivers/BSP/CMWX1ZZABZ-0xx/mlm32l07x01.c **** }
 508              		.loc 1 302 0
 509 004e 0022     		movs	r2, #0
 510 0050 0421     		movs	r1, #4
 511 0052 0648     		ldr	r0, .L30
 512 0054 FFF7FEFF 		bl	HW_GPIO_Write
 513              	.LVL52:
 514              	.LBE18:
 515              	.LBE17:
 266:../../../../../../Drivers/BSP/CMWX1ZZABZ-0xx/mlm32l07x01.c **** 
 516              		.loc 1 266 0
 517 0058 07B0     		add	sp, sp, #28
 518              		@ sp needed
 519 005a 00BD     		pop	{pc}
 520              	.LVL53:
 521              	.L29:
 522              	.LBB19:
 523              	.LBB15:
 270:../../../../../../Drivers/BSP/CMWX1ZZABZ-0xx/mlm32l07x01.c **** 
 524              		.loc 1 270 0
 525 005c 01A8     		add	r0, sp, #4
 526              	.LVL54:
 527 005e FFF7FEFF 		bl	memset
 528              	.LVL55:
 272:../../../../../../Drivers/BSP/CMWX1ZZABZ-0xx/mlm32l07x01.c ****   initStruct.Pull = GPIO_NOPULL; 
 529              		.loc 1 272 0
 530 0062 0123     		movs	r3, #1
 531 0064 0293     		str	r3, [sp, #8]
 274:../../../../../../Drivers/BSP/CMWX1ZZABZ-0xx/mlm32l07x01.c ****   
 532              		.loc 1 274 0
 533 0066 0233     		adds	r3, r3, #2
 534 0068 D5E7     		b	.L28
 535              	.L31:
 536 006a C046     		.align	2
 537              	.L30:
 538 006c 00080050 		.word	1342179328
 539              	.LBE15:
 540              	.LBE19:
 541              		.cfi_endproc
 542              	.LFE46:
 543              		.size	SX1276SetAntSwLowPower, .-SX1276SetAntSwLowPower
 544              		.section	.text.SX1276IoIrqInit,"ax",%progbits
 545              		.align	1
 546              		.p2align 2,,3
 547              		.global	SX1276IoIrqInit
 548              		.syntax unified
 549              		.code	16
 550              		.thumb_func
 551              		.fpu softvfp
 552              		.type	SX1276IoIrqInit, %function
 553              	SX1276IoIrqInit:
 554              	.LFB42:
 155:../../../../../../Drivers/BSP/CMWX1ZZABZ-0xx/mlm32l07x01.c ****   HW_GPIO_SetIrq( RADIO_DIO_0_PORT, RADIO_DIO_0_PIN, IRQ_HIGH_PRIORITY, irqHandlers[0] );
ARM GAS  C:\Users\EBANO_~1\AppData\Local\Temp\ccmgacVt.s 			page 18


 555              		.loc 1 155 0
 556              		.cfi_startproc
 557              		@ args = 0, pretend = 0, frame = 0
 558              		@ frame_needed = 0, uses_anonymous_args = 0
 559              	.LVL56:
 560 0000 70B5     		push	{r4, r5, r6, lr}
 561              	.LCFI7:
 562              		.cfi_def_cfa_offset 16
 563              		.cfi_offset 4, -16
 564              		.cfi_offset 5, -12
 565              		.cfi_offset 6, -8
 566              		.cfi_offset 14, -4
 155:../../../../../../Drivers/BSP/CMWX1ZZABZ-0xx/mlm32l07x01.c ****   HW_GPIO_SetIrq( RADIO_DIO_0_PORT, RADIO_DIO_0_PIN, IRQ_HIGH_PRIORITY, irqHandlers[0] );
 567              		.loc 1 155 0
 568 0002 0400     		movs	r4, r0
 156:../../../../../../Drivers/BSP/CMWX1ZZABZ-0xx/mlm32l07x01.c ****   HW_GPIO_SetIrq( RADIO_DIO_1_PORT, RADIO_DIO_1_PIN, IRQ_HIGH_PRIORITY, irqHandlers[1] );
 569              		.loc 1 156 0
 570 0004 0D4D     		ldr	r5, .L33
 571 0006 0368     		ldr	r3, [r0]
 572 0008 0022     		movs	r2, #0
 573 000a 2800     		movs	r0, r5
 574              	.LVL57:
 575 000c 1021     		movs	r1, #16
 576 000e FFF7FEFF 		bl	HW_GPIO_SetIrq
 577              	.LVL58:
 157:../../../../../../Drivers/BSP/CMWX1ZZABZ-0xx/mlm32l07x01.c ****   HW_GPIO_SetIrq( RADIO_DIO_2_PORT, RADIO_DIO_2_PIN, IRQ_HIGH_PRIORITY, irqHandlers[2] );
 578              		.loc 1 157 0
 579 0012 2800     		movs	r0, r5
 580 0014 6368     		ldr	r3, [r4, #4]
 581 0016 0022     		movs	r2, #0
 582 0018 0221     		movs	r1, #2
 583 001a FFF7FEFF 		bl	HW_GPIO_SetIrq
 584              	.LVL59:
 158:../../../../../../Drivers/BSP/CMWX1ZZABZ-0xx/mlm32l07x01.c ****   HW_GPIO_SetIrq( RADIO_DIO_3_PORT, RADIO_DIO_3_PIN, IRQ_HIGH_PRIORITY, irqHandlers[3] );
 585              		.loc 1 158 0
 586 001e 2800     		movs	r0, r5
 587 0020 A368     		ldr	r3, [r4, #8]
 588 0022 0022     		movs	r2, #0
 589 0024 0121     		movs	r1, #1
 590 0026 FFF7FEFF 		bl	HW_GPIO_SetIrq
 591              	.LVL60:
 159:../../../../../../Drivers/BSP/CMWX1ZZABZ-0xx/mlm32l07x01.c **** }
 592              		.loc 1 159 0
 593 002a 8021     		movs	r1, #128
 594 002c E368     		ldr	r3, [r4, #12]
 595 002e 0022     		movs	r2, #0
 596 0030 8901     		lsls	r1, r1, #6
 597 0032 0348     		ldr	r0, .L33+4
 598 0034 FFF7FEFF 		bl	HW_GPIO_SetIrq
 599              	.LVL61:
 160:../../../../../../Drivers/BSP/CMWX1ZZABZ-0xx/mlm32l07x01.c **** 
 600              		.loc 1 160 0
 601              		@ sp needed
 602              	.LVL62:
 603 0038 70BD     		pop	{r4, r5, r6, pc}
 604              	.L34:
 605 003a C046     		.align	2
ARM GAS  C:\Users\EBANO_~1\AppData\Local\Temp\ccmgacVt.s 			page 19


 606              	.L33:
 607 003c 00040050 		.word	1342178304
 608 0040 00080050 		.word	1342179328
 609              		.cfi_endproc
 610              	.LFE42:
 611              		.size	SX1276IoIrqInit, .-SX1276IoIrqInit
 612              		.section	.text.SX1276SetAntSw,"ax",%progbits
 613              		.align	1
 614              		.p2align 2,,3
 615              		.global	SX1276SetAntSw
 616              		.syntax unified
 617              		.code	16
 618              		.thumb_func
 619              		.fpu softvfp
 620              		.type	SX1276SetAntSw, %function
 621              	SX1276SetAntSw:
 622              	.LFB49:
 306:../../../../../../Drivers/BSP/CMWX1ZZABZ-0xx/mlm32l07x01.c ****  uint8_t paConfig =  SX1276Read( REG_PACONFIG );
 623              		.loc 1 306 0
 624              		.cfi_startproc
 625              		@ args = 0, pretend = 0, frame = 0
 626              		@ frame_needed = 0, uses_anonymous_args = 0
 627              	.LVL63:
 628 0000 10B5     		push	{r4, lr}
 629              	.LCFI8:
 630              		.cfi_def_cfa_offset 8
 631              		.cfi_offset 4, -8
 632              		.cfi_offset 14, -4
 306:../../../../../../Drivers/BSP/CMWX1ZZABZ-0xx/mlm32l07x01.c ****  uint8_t paConfig =  SX1276Read( REG_PACONFIG );
 633              		.loc 1 306 0
 634 0002 0400     		movs	r4, r0
 307:../../../../../../Drivers/BSP/CMWX1ZZABZ-0xx/mlm32l07x01.c ****     switch( opMode )
 635              		.loc 1 307 0
 636 0004 0920     		movs	r0, #9
 637              	.LVL64:
 638 0006 FFF7FEFF 		bl	SX1276Read
 639              	.LVL65:
 308:../../../../../../Drivers/BSP/CMWX1ZZABZ-0xx/mlm32l07x01.c ****     {
 640              		.loc 1 308 0
 641 000a 032C     		cmp	r4, #3
 642 000c 0FD1     		bne	.L41
 313:../../../../../../Drivers/BSP/CMWX1ZZABZ-0xx/mlm32l07x01.c ****       }
 643              		.loc 1 313 0
 644 000e 0122     		movs	r2, #1
 311:../../../../../../Drivers/BSP/CMWX1ZZABZ-0xx/mlm32l07x01.c ****       {
 645              		.loc 1 311 0
 646 0010 0306     		lsls	r3, r0, #24
 647 0012 07D4     		bmi	.L42
 317:../../../../../../Drivers/BSP/CMWX1ZZABZ-0xx/mlm32l07x01.c ****       }
 648              		.loc 1 317 0
 649 0014 0421     		movs	r1, #4
 650 0016 0B48     		ldr	r0, .L43
 651              	.LVL66:
 652 0018 FFF7FEFF 		bl	HW_GPIO_Write
 653              	.LVL67:
 654              	.L39:
 319:../../../../../../Drivers/BSP/CMWX1ZZABZ-0xx/mlm32l07x01.c ****         break;
ARM GAS  C:\Users\EBANO_~1\AppData\Local\Temp\ccmgacVt.s 			page 20


 655              		.loc 1 319 0
 656 001c 0122     		movs	r2, #1
 657 001e 0A4B     		ldr	r3, .L43+4
 658 0020 1A70     		strb	r2, [r3]
 659              	.L35:
 329:../../../../../../Drivers/BSP/CMWX1ZZABZ-0xx/mlm32l07x01.c **** 
 660              		.loc 1 329 0
 661              		@ sp needed
 662 0022 10BD     		pop	{r4, pc}
 663              	.LVL68:
 664              	.L42:
 313:../../../../../../Drivers/BSP/CMWX1ZZABZ-0xx/mlm32l07x01.c ****       }
 665              		.loc 1 313 0
 666 0024 0221     		movs	r1, #2
 667 0026 0748     		ldr	r0, .L43
 668              	.LVL69:
 669 0028 FFF7FEFF 		bl	HW_GPIO_Write
 670              	.LVL70:
 671 002c F6E7     		b	.L39
 672              	.LVL71:
 673              	.L41:
 674              	.LBB22:
 675              	.LBB23:
 325:../../../../../../Drivers/BSP/CMWX1ZZABZ-0xx/mlm32l07x01.c ****      HW_GPIO_Write( RADIO_ANT_SWITCH_PORT_RX, RADIO_ANT_SWITCH_PIN_RX, 1 );
 676              		.loc 1 325 0
 677 002e 0022     		movs	r2, #0
 326:../../../../../../Drivers/BSP/CMWX1ZZABZ-0xx/mlm32l07x01.c ****      break;
 678              		.loc 1 326 0
 679 0030 A020     		movs	r0, #160
 680              	.LVL72:
 325:../../../../../../Drivers/BSP/CMWX1ZZABZ-0xx/mlm32l07x01.c ****      HW_GPIO_Write( RADIO_ANT_SWITCH_PORT_RX, RADIO_ANT_SWITCH_PIN_RX, 1 );
 681              		.loc 1 325 0
 682 0032 054B     		ldr	r3, .L43+4
 326:../../../../../../Drivers/BSP/CMWX1ZZABZ-0xx/mlm32l07x01.c ****      break;
 683              		.loc 1 326 0
 684 0034 0221     		movs	r1, #2
 325:../../../../../../Drivers/BSP/CMWX1ZZABZ-0xx/mlm32l07x01.c ****      HW_GPIO_Write( RADIO_ANT_SWITCH_PORT_RX, RADIO_ANT_SWITCH_PIN_RX, 1 );
 685              		.loc 1 325 0
 686 0036 1A70     		strb	r2, [r3]
 326:../../../../../../Drivers/BSP/CMWX1ZZABZ-0xx/mlm32l07x01.c ****      break;
 687              		.loc 1 326 0
 688 0038 C005     		lsls	r0, r0, #23
 689 003a 0132     		adds	r2, r2, #1
 690 003c FFF7FEFF 		bl	HW_GPIO_Write
 691              	.LVL73:
 692              	.LBE23:
 693              	.LBE22:
 329:../../../../../../Drivers/BSP/CMWX1ZZABZ-0xx/mlm32l07x01.c **** 
 694              		.loc 1 329 0
 695 0040 EFE7     		b	.L35
 696              	.L44:
 697 0042 C046     		.align	2
 698              	.L43:
 699 0044 00080050 		.word	1342179328
 700 0048 00000000 		.word	SX1276
 701              		.cfi_endproc
 702              	.LFE49:
ARM GAS  C:\Users\EBANO_~1\AppData\Local\Temp\ccmgacVt.s 			page 21


 703              		.size	SX1276SetAntSw, .-SX1276SetAntSw
 704              		.section	.text.SX1276SetXO,"ax",%progbits
 705              		.align	1
 706              		.p2align 2,,3
 707              		.global	SX1276SetXO
 708              		.syntax unified
 709              		.code	16
 710              		.thumb_func
 711              		.fpu softvfp
 712              		.type	SX1276SetXO, %function
 713              	SX1276SetXO:
 714              	.LFB40:
 116:../../../../../../Drivers/BSP/CMWX1ZZABZ-0xx/mlm32l07x01.c **** 
 715              		.loc 1 116 0
 716              		.cfi_startproc
 717              		@ args = 0, pretend = 0, frame = 0
 718              		@ frame_needed = 0, uses_anonymous_args = 0
 719              	.LVL74:
 720 0000 10B5     		push	{r4, lr}
 721              	.LCFI9:
 722              		.cfi_def_cfa_offset 8
 723              		.cfi_offset 4, -8
 724              		.cfi_offset 14, -4
 118:../../../../../../Drivers/BSP/CMWX1ZZABZ-0xx/mlm32l07x01.c ****   {
 725              		.loc 1 118 0
 726 0002 0128     		cmp	r0, #1
 727 0004 07D0     		beq	.L48
 126:../../../../../../Drivers/BSP/CMWX1ZZABZ-0xx/mlm32l07x01.c ****   }
 728              		.loc 1 126 0
 729 0006 8021     		movs	r1, #128
 730 0008 A020     		movs	r0, #160
 731              	.LVL75:
 732 000a 0022     		movs	r2, #0
 733 000c 4901     		lsls	r1, r1, #5
 734 000e C005     		lsls	r0, r0, #23
 735 0010 FFF7FEFF 		bl	HW_GPIO_Write
 736              	.LVL76:
 737              	.L45:
 128:../../../../../../Drivers/BSP/CMWX1ZZABZ-0xx/mlm32l07x01.c **** void SX1276IoInit( void )
 738              		.loc 1 128 0
 739              		@ sp needed
 740 0014 10BD     		pop	{r4, pc}
 741              	.LVL77:
 742              	.L48:
 743              	.LBB26:
 744              	.LBB27:
 120:../../../../../../Drivers/BSP/CMWX1ZZABZ-0xx/mlm32l07x01.c ****     
 745              		.loc 1 120 0
 746 0016 8021     		movs	r1, #128
 747 0018 A020     		movs	r0, #160
 748              	.LVL78:
 749 001a 0122     		movs	r2, #1
 750 001c 4901     		lsls	r1, r1, #5
 751 001e C005     		lsls	r0, r0, #23
 752 0020 FFF7FEFF 		bl	HW_GPIO_Write
 753              	.LVL79:
 122:../../../../../../Drivers/BSP/CMWX1ZZABZ-0xx/mlm32l07x01.c ****   }
ARM GAS  C:\Users\EBANO_~1\AppData\Local\Temp\ccmgacVt.s 			page 22


 754              		.loc 1 122 0
 755 0024 0520     		movs	r0, #5
 756 0026 FFF7FEFF 		bl	HAL_Delay
 757              	.LVL80:
 758 002a F3E7     		b	.L45
 759              	.LBE27:
 760              	.LBE26:
 761              		.cfi_endproc
 762              	.LFE40:
 763              		.size	SX1276SetXO, .-SX1276SetXO
 764              		.section	.text.SX1276GetPaSelect,"ax",%progbits
 765              		.align	1
 766              		.p2align 2,,3
 767              		.global	SX1276GetPaSelect
 768              		.syntax unified
 769              		.code	16
 770              		.thumb_func
 771              		.fpu softvfp
 772              		.type	SX1276GetPaSelect, %function
 773              	SX1276GetPaSelect:
 774              	.LFB45:
 245:../../../../../../Drivers/BSP/CMWX1ZZABZ-0xx/mlm32l07x01.c ****     if (power >14)
 775              		.loc 1 245 0
 776              		.cfi_startproc
 777              		@ args = 0, pretend = 0, frame = 0
 778              		@ frame_needed = 0, uses_anonymous_args = 0
 779              		@ link register save eliminated.
 780              	.LVL81:
 252:../../../../../../Drivers/BSP/CMWX1ZZABZ-0xx/mlm32l07x01.c ****     }
 781              		.loc 1 252 0
 782 0000 0E23     		movs	r3, #14
 783 0002 8342     		cmp	r3, r0
 784 0004 8041     		sbcs	r0, r0, r0
 785              	.LVL82:
 786 0006 4042     		rsbs	r0, r0, #0
 787 0008 C001     		lsls	r0, r0, #7
 254:../../../../../../Drivers/BSP/CMWX1ZZABZ-0xx/mlm32l07x01.c **** 
 788              		.loc 1 254 0
 789              		@ sp needed
 790 000a 7047     		bx	lr
 791              		.cfi_endproc
 792              	.LFE45:
 793              		.size	SX1276GetPaSelect, .-SX1276GetPaSelect
 794              		.global	Radio
 795              		.section	.rodata
 796              		.align	2
 797              		.type	Radio, %object
 798              		.size	Radio, 116
 799              	Radio:
 800 0000 00000000 		.word	SX1276IoInit
 801 0004 00000000 		.word	SX1276IoDeInit
 802 0008 00000000 		.word	SX1276Init
 803 000c 00000000 		.word	SX1276GetStatus
 804 0010 00000000 		.word	SX1276SetModem
 805 0014 00000000 		.word	SX1276SetChannel
 806 0018 00000000 		.word	SX1276IsChannelFree
 807 001c 00000000 		.word	SX1276Random
ARM GAS  C:\Users\EBANO_~1\AppData\Local\Temp\ccmgacVt.s 			page 23


 808 0020 00000000 		.word	SX1276SetRxConfig
 809 0024 00000000 		.word	SX1276SetTxConfig
 810 0028 00000000 		.word	SX1276CheckRfFrequency
 811 002c 00000000 		.word	SX1276GetTimeOnAir
 812 0030 00000000 		.word	SX1276Send
 813 0034 00000000 		.word	SX1276SetSleep
 814 0038 00000000 		.word	SX1276SetStby
 815 003c 00000000 		.word	SX1276SetRx
 816 0040 00000000 		.word	SX1276StartCad
 817 0044 00000000 		.word	SX1276SetTxContinuousWave
 818 0048 00000000 		.word	SX1276ReadRssi
 819 004c 00000000 		.word	SX1276Write
 820 0050 00000000 		.word	SX1276Read
 821 0054 00000000 		.word	SX1276WriteBuffer
 822 0058 00000000 		.word	SX1276ReadBuffer
 823 005c 00000000 		.word	SX1276SetMaxPayloadLength
 824 0060 00000000 		.word	SX1276SetPublicNetwork
 825 0064 00000000 		.word	SX1276GetWakeupTime
 826 0068 00000000 		.space	12
 826      00000000 
 826      00000000 
 827              		.data
 828              		.align	2
 829              		.set	.LANCHOR0,. + 0
 830              		.type	BoardCallbacks, %object
 831              		.size	BoardCallbacks, 24
 832              	BoardCallbacks:
 833 0000 00000000 		.word	SX1276SetXO
 834 0004 00000000 		.word	SX1276GetWakeTime
 835 0008 00000000 		.word	SX1276IoIrqInit
 836 000c 00000000 		.word	SX1276SetRfTxPower
 837 0010 00000000 		.word	SX1276SetAntSwLowPower
 838 0014 00000000 		.word	SX1276SetAntSw
 839              		.text
 840              	.Letext0:
 841              		.file 2 "c:\\program files (x86)\\gnu tools arm embedded\\7 2018-q2-update\\arm-none-eabi\\include
 842              		.file 3 "c:\\program files (x86)\\gnu tools arm embedded\\7 2018-q2-update\\arm-none-eabi\\include
 843              		.file 4 "c:\\program files (x86)\\gnu tools arm embedded\\7 2018-q2-update\\arm-none-eabi\\include
 844              		.file 5 "c:\\program files (x86)\\gnu tools arm embedded\\7 2018-q2-update\\lib\\gcc\\arm-none-eab
 845              		.file 6 "c:\\program files (x86)\\gnu tools arm embedded\\7 2018-q2-update\\arm-none-eabi\\include
 846              		.file 7 "c:\\program files (x86)\\gnu tools arm embedded\\7 2018-q2-update\\arm-none-eabi\\include
 847              		.file 8 "c:\\program files (x86)\\gnu tools arm embedded\\7 2018-q2-update\\arm-none-eabi\\include
 848              		.file 9 "../../../../../../Drivers/CMSIS/Device/ST/STM32L0xx/Include/system_stm32l0xx.h"
 849              		.file 10 "../../../../../../Drivers/CMSIS/Device/ST/STM32L0xx/Include/stm32l072xx.h"
 850              		.file 11 "../../../../../../Drivers/STM32L0xx_HAL_Driver/Inc/stm32l0xx_hal_gpio.h"
 851              		.file 12 "c:\\program files (x86)\\gnu tools arm embedded\\7 2018-q2-update\\arm-none-eabi\\includ
 852              		.file 13 "c:\\program files (x86)\\gnu tools arm embedded\\7 2018-q2-update\\arm-none-eabi\\includ
 853              		.file 14 "../../../../../../Drivers/CMSIS/Device/ST/STM32L0xx/Include/stm32l0xx.h"
 854              		.file 15 "../../../../../../Middlewares/Third_Party/LoRaWAN/Phy/radio.h"
 855              		.file 16 "../../../../../../Drivers/BSP/Components/sx1276/sx1276.h"
 856              		.file 17 "../LoRaWAN/App/inc/hw_gpio.h"
 857              		.file 18 "../../../../../../Drivers/STM32L0xx_HAL_Driver/Inc/stm32l0xx_hal.h"
 858              		.file 19 "<built-in>"