ARM GAS  C:\Users\EBANO_~1\AppData\Local\Temp\ccBx8b8i.s 			page 1


   1              		.cpu cortex-m0plus
   2              		.eabi_attribute 20, 1
   3              		.eabi_attribute 21, 1
   4              		.eabi_attribute 23, 3
   5              		.eabi_attribute 24, 1
   6              		.eabi_attribute 25, 1
   7              		.eabi_attribute 26, 1
   8              		.eabi_attribute 30, 2
   9              		.eabi_attribute 34, 0
  10              		.eabi_attribute 18, 4
  11              		.file	"mlm32l0xx_it.c"
  12              		.text
  13              	.Ltext0:
  14              		.cfi_sections	.debug_frame
  15              		.section	.text.NMI_Handler,"ax",%progbits
  16              		.align	1
  17              		.p2align 2,,3
  18              		.global	NMI_Handler
  19              		.syntax unified
  20              		.code	16
  21              		.thumb_func
  22              		.fpu softvfp
  23              		.type	NMI_Handler, %function
  24              	NMI_Handler:
  25              	.LFB39:
  26              		.file 1 "../Core/src/mlm32l0xx_it.c"
   1:../Core/src/mlm32l0xx_it.c **** /*
   2:../Core/src/mlm32l0xx_it.c ****  / _____)             _              | |
   3:../Core/src/mlm32l0xx_it.c **** ( (____  _____ ____ _| |_ _____  ____| |__
   4:../Core/src/mlm32l0xx_it.c ****  \____ \| ___ |    (_   _) ___ |/ ___)  _ \
   5:../Core/src/mlm32l0xx_it.c ****  _____) ) ____| | | || |_| ____( (___| | | |
   6:../Core/src/mlm32l0xx_it.c **** (______/|_____)_|_|_| \__)_____)\____)_| |_|
   7:../Core/src/mlm32l0xx_it.c ****     (C)2013 Semtech
   8:../Core/src/mlm32l0xx_it.c **** 
   9:../Core/src/mlm32l0xx_it.c **** Description: Bleeper board GPIO driver implementation
  10:../Core/src/mlm32l0xx_it.c **** 
  11:../Core/src/mlm32l0xx_it.c **** License: Revised BSD License, see LICENSE.TXT file include in the project
  12:../Core/src/mlm32l0xx_it.c **** 
  13:../Core/src/mlm32l0xx_it.c **** Maintainer: Miguel Luis and Gregory Cristian
  14:../Core/src/mlm32l0xx_it.c **** */
  15:../Core/src/mlm32l0xx_it.c **** /**
  16:../Core/src/mlm32l0xx_it.c ****   ******************************************************************************
  17:../Core/src/mlm32l0xx_it.c ****   * @file    mlm32l0xx_it.c
  18:../Core/src/mlm32l0xx_it.c ****   * @author  MCD Application Team
  19:../Core/src/mlm32l0xx_it.c ****   * @brief   manages interupt
  20:../Core/src/mlm32l0xx_it.c ****   ******************************************************************************
  21:../Core/src/mlm32l0xx_it.c ****   * @attention
  22:../Core/src/mlm32l0xx_it.c ****   *
  23:../Core/src/mlm32l0xx_it.c ****   * <h2><center>&copy; Copyright (c) 2018 STMicroelectronics.
  24:../Core/src/mlm32l0xx_it.c ****   * All rights reserved.</center></h2>
  25:../Core/src/mlm32l0xx_it.c ****   *
  26:../Core/src/mlm32l0xx_it.c ****   * This software component is licensed by ST under Ultimate Liberty license
  27:../Core/src/mlm32l0xx_it.c ****   * SLA0044, the "License"; You may not use this file except in compliance with
  28:../Core/src/mlm32l0xx_it.c ****   * the License. You may obtain a copy of the License at:
  29:../Core/src/mlm32l0xx_it.c ****   *                             www.st.com/SLA0044
  30:../Core/src/mlm32l0xx_it.c ****   *
  31:../Core/src/mlm32l0xx_it.c ****   ******************************************************************************
ARM GAS  C:\Users\EBANO_~1\AppData\Local\Temp\ccBx8b8i.s 			page 2


  32:../Core/src/mlm32l0xx_it.c ****   */
  33:../Core/src/mlm32l0xx_it.c **** 
  34:../Core/src/mlm32l0xx_it.c **** /* Includes ------------------------------------------------------------------*/
  35:../Core/src/mlm32l0xx_it.c **** #include "hw.h"
  36:../Core/src/mlm32l0xx_it.c **** #include "vcom.h"
  37:../Core/src/mlm32l0xx_it.c **** #include "mlm32l0xx_it.h"
  38:../Core/src/mlm32l0xx_it.c **** 
  39:../Core/src/mlm32l0xx_it.c **** 
  40:../Core/src/mlm32l0xx_it.c **** /** @addtogroup STM32L1xx_HAL_Examples
  41:../Core/src/mlm32l0xx_it.c ****   * @{
  42:../Core/src/mlm32l0xx_it.c ****   */
  43:../Core/src/mlm32l0xx_it.c **** 
  44:../Core/src/mlm32l0xx_it.c **** /** @addtogroup SPI_FullDuplex_ComPolling
  45:../Core/src/mlm32l0xx_it.c ****   * @{
  46:../Core/src/mlm32l0xx_it.c ****   */
  47:../Core/src/mlm32l0xx_it.c **** 
  48:../Core/src/mlm32l0xx_it.c **** /* Private typedef -----------------------------------------------------------*/
  49:../Core/src/mlm32l0xx_it.c **** /* Private define ------------------------------------------------------------*/
  50:../Core/src/mlm32l0xx_it.c **** /* Private macro -------------------------------------------------------------*/
  51:../Core/src/mlm32l0xx_it.c **** /* Private variables ---------------------------------------------------------*/
  52:../Core/src/mlm32l0xx_it.c **** /* Private function prototypes -----------------------------------------------*/
  53:../Core/src/mlm32l0xx_it.c **** /* Private functions ---------------------------------------------------------*/
  54:../Core/src/mlm32l0xx_it.c **** 
  55:../Core/src/mlm32l0xx_it.c **** /******************************************************************************/
  56:../Core/src/mlm32l0xx_it.c **** /*            Cortex-M3 Processor Exceptions Handlers                         */
  57:../Core/src/mlm32l0xx_it.c **** /******************************************************************************/
  58:../Core/src/mlm32l0xx_it.c **** 
  59:../Core/src/mlm32l0xx_it.c **** /**
  60:../Core/src/mlm32l0xx_it.c ****   * @brief   This function handles NMI exception.
  61:../Core/src/mlm32l0xx_it.c ****   * @param  None
  62:../Core/src/mlm32l0xx_it.c ****   * @retval None
  63:../Core/src/mlm32l0xx_it.c ****   */
  64:../Core/src/mlm32l0xx_it.c **** 
  65:../Core/src/mlm32l0xx_it.c **** void NMI_Handler(void)
  66:../Core/src/mlm32l0xx_it.c **** {
  27              		.loc 1 66 0
  28              		.cfi_startproc
  29              		@ args = 0, pretend = 0, frame = 0
  30              		@ frame_needed = 0, uses_anonymous_args = 0
  31              		@ link register save eliminated.
  67:../Core/src/mlm32l0xx_it.c **** }
  32              		.loc 1 67 0
  33              		@ sp needed
  34 0000 7047     		bx	lr
  35              		.cfi_endproc
  36              	.LFE39:
  37              		.size	NMI_Handler, .-NMI_Handler
  38 0002 C046     		.section	.text.HardFault_Handler,"ax",%progbits
  39              		.align	1
  40              		.p2align 2,,3
  41              		.global	HardFault_Handler
  42              		.syntax unified
  43              		.code	16
  44              		.thumb_func
  45              		.fpu softvfp
  46              		.type	HardFault_Handler, %function
  47              	HardFault_Handler:
ARM GAS  C:\Users\EBANO_~1\AppData\Local\Temp\ccBx8b8i.s 			page 3


  48              	.LFB40:
  68:../Core/src/mlm32l0xx_it.c **** 
  69:../Core/src/mlm32l0xx_it.c **** 
  70:../Core/src/mlm32l0xx_it.c **** /**
  71:../Core/src/mlm32l0xx_it.c ****   * @brief  This function handles Hard Fault exception.
  72:../Core/src/mlm32l0xx_it.c ****   * @param  None
  73:../Core/src/mlm32l0xx_it.c ****   * @retval None
  74:../Core/src/mlm32l0xx_it.c ****   */
  75:../Core/src/mlm32l0xx_it.c **** 
  76:../Core/src/mlm32l0xx_it.c **** 
  77:../Core/src/mlm32l0xx_it.c **** void HardFault_Handler(void)
  78:../Core/src/mlm32l0xx_it.c **** {
  49              		.loc 1 78 0
  50              		.cfi_startproc
  51              		@ Volatile: function does not return.
  52              		@ args = 0, pretend = 0, frame = 0
  53              		@ frame_needed = 0, uses_anonymous_args = 0
  54              		@ link register save eliminated.
  55              	.L4:
  79:../Core/src/mlm32l0xx_it.c ****   while(1)
  80:../Core/src/mlm32l0xx_it.c ****   {
  81:../Core/src/mlm32l0xx_it.c ****     __NOP();
  56              		.loc 1 81 0 discriminator 1
  57              		.syntax divided
  58              	@ 81 "../Core/src/mlm32l0xx_it.c" 1
  59 0000 C046     		nop
  60              	@ 0 "" 2
  61              		.thumb
  62              		.syntax unified
  63 0002 FDE7     		b	.L4
  64              		.cfi_endproc
  65              	.LFE40:
  66              		.size	HardFault_Handler, .-HardFault_Handler
  67              		.section	.text.MemManage_Handler,"ax",%progbits
  68              		.align	1
  69              		.p2align 2,,3
  70              		.global	MemManage_Handler
  71              		.syntax unified
  72              		.code	16
  73              		.thumb_func
  74              		.fpu softvfp
  75              		.type	MemManage_Handler, %function
  76              	MemManage_Handler:
  77              	.LFB41:
  82:../Core/src/mlm32l0xx_it.c ****   }
  83:../Core/src/mlm32l0xx_it.c **** 
  84:../Core/src/mlm32l0xx_it.c **** }
  85:../Core/src/mlm32l0xx_it.c **** 
  86:../Core/src/mlm32l0xx_it.c **** 
  87:../Core/src/mlm32l0xx_it.c **** /**
  88:../Core/src/mlm32l0xx_it.c ****   * @brief  This function handles Memory Manage exception.
  89:../Core/src/mlm32l0xx_it.c ****   * @param  None
  90:../Core/src/mlm32l0xx_it.c ****   * @retval None
  91:../Core/src/mlm32l0xx_it.c ****   */
  92:../Core/src/mlm32l0xx_it.c **** void MemManage_Handler(void)
  93:../Core/src/mlm32l0xx_it.c **** {
  78              		.loc 1 93 0
ARM GAS  C:\Users\EBANO_~1\AppData\Local\Temp\ccBx8b8i.s 			page 4


  79              		.cfi_startproc
  80              		@ Volatile: function does not return.
  81              		@ args = 0, pretend = 0, frame = 0
  82              		@ frame_needed = 0, uses_anonymous_args = 0
  83              		@ link register save eliminated.
  84              	.L6:
  85 0000 FEE7     		b	.L6
  86              		.cfi_endproc
  87              	.LFE41:
  88              		.size	MemManage_Handler, .-MemManage_Handler
  89 0002 C046     		.section	.text.BusFault_Handler,"ax",%progbits
  90              		.align	1
  91              		.p2align 2,,3
  92              		.global	BusFault_Handler
  93              		.syntax unified
  94              		.code	16
  95              		.thumb_func
  96              		.fpu softvfp
  97              		.type	BusFault_Handler, %function
  98              	BusFault_Handler:
  99              	.LFB42:
  94:../Core/src/mlm32l0xx_it.c ****   /* Go to infinite loop when Memory Manage exception occurs */
  95:../Core/src/mlm32l0xx_it.c ****   while (1)
  96:../Core/src/mlm32l0xx_it.c ****   {
  97:../Core/src/mlm32l0xx_it.c ****   }
  98:../Core/src/mlm32l0xx_it.c **** }
  99:../Core/src/mlm32l0xx_it.c **** 
 100:../Core/src/mlm32l0xx_it.c **** /**
 101:../Core/src/mlm32l0xx_it.c ****   * @brief  This function handles Bus Fault exception.
 102:../Core/src/mlm32l0xx_it.c ****   * @param  None
 103:../Core/src/mlm32l0xx_it.c ****   * @retval None
 104:../Core/src/mlm32l0xx_it.c ****   */
 105:../Core/src/mlm32l0xx_it.c **** void BusFault_Handler(void)
 106:../Core/src/mlm32l0xx_it.c **** {
 100              		.loc 1 106 0
 101              		.cfi_startproc
 102              		@ Volatile: function does not return.
 103              		@ args = 0, pretend = 0, frame = 0
 104              		@ frame_needed = 0, uses_anonymous_args = 0
 105              		@ link register save eliminated.
 106              	.L8:
 107 0000 FEE7     		b	.L8
 108              		.cfi_endproc
 109              	.LFE42:
 110              		.size	BusFault_Handler, .-BusFault_Handler
 111 0002 C046     		.section	.text.UsageFault_Handler,"ax",%progbits
 112              		.align	1
 113              		.p2align 2,,3
 114              		.global	UsageFault_Handler
 115              		.syntax unified
 116              		.code	16
 117              		.thumb_func
 118              		.fpu softvfp
 119              		.type	UsageFault_Handler, %function
 120              	UsageFault_Handler:
 121              	.LFB43:
 107:../Core/src/mlm32l0xx_it.c ****   /* Go to infinite loop when Bus Fault exception occurs */
ARM GAS  C:\Users\EBANO_~1\AppData\Local\Temp\ccBx8b8i.s 			page 5


 108:../Core/src/mlm32l0xx_it.c ****   while (1)
 109:../Core/src/mlm32l0xx_it.c ****   {
 110:../Core/src/mlm32l0xx_it.c ****   }
 111:../Core/src/mlm32l0xx_it.c **** }
 112:../Core/src/mlm32l0xx_it.c **** 
 113:../Core/src/mlm32l0xx_it.c **** /**
 114:../Core/src/mlm32l0xx_it.c ****   * @brief  This function handles Usage Fault exception.
 115:../Core/src/mlm32l0xx_it.c ****   * @param  None
 116:../Core/src/mlm32l0xx_it.c ****   * @retval None
 117:../Core/src/mlm32l0xx_it.c ****   */
 118:../Core/src/mlm32l0xx_it.c **** void UsageFault_Handler(void)
 119:../Core/src/mlm32l0xx_it.c **** {
 122              		.loc 1 119 0
 123              		.cfi_startproc
 124              		@ Volatile: function does not return.
 125              		@ args = 0, pretend = 0, frame = 0
 126              		@ frame_needed = 0, uses_anonymous_args = 0
 127              		@ link register save eliminated.
 128              	.L10:
 129 0000 FEE7     		b	.L10
 130              		.cfi_endproc
 131              	.LFE43:
 132              		.size	UsageFault_Handler, .-UsageFault_Handler
 133 0002 C046     		.section	.text.SVC_Handler,"ax",%progbits
 134              		.align	1
 135              		.p2align 2,,3
 136              		.global	SVC_Handler
 137              		.syntax unified
 138              		.code	16
 139              		.thumb_func
 140              		.fpu softvfp
 141              		.type	SVC_Handler, %function
 142              	SVC_Handler:
 143              	.LFB55:
 144              		.cfi_startproc
 145              		@ args = 0, pretend = 0, frame = 0
 146              		@ frame_needed = 0, uses_anonymous_args = 0
 147              		@ link register save eliminated.
 148              		@ sp needed
 149 0000 7047     		bx	lr
 150              		.cfi_endproc
 151              	.LFE55:
 152              		.size	SVC_Handler, .-SVC_Handler
 153 0002 C046     		.section	.text.DebugMon_Handler,"ax",%progbits
 154              		.align	1
 155              		.p2align 2,,3
 156              		.global	DebugMon_Handler
 157              		.syntax unified
 158              		.code	16
 159              		.thumb_func
 160              		.fpu softvfp
 161              		.type	DebugMon_Handler, %function
 162              	DebugMon_Handler:
 163              	.LFB57:
 164              		.cfi_startproc
 165              		@ args = 0, pretend = 0, frame = 0
 166              		@ frame_needed = 0, uses_anonymous_args = 0
ARM GAS  C:\Users\EBANO_~1\AppData\Local\Temp\ccBx8b8i.s 			page 6


 167              		@ link register save eliminated.
 168              		@ sp needed
 169 0000 7047     		bx	lr
 170              		.cfi_endproc
 171              	.LFE57:
 172              		.size	DebugMon_Handler, .-DebugMon_Handler
 173 0002 C046     		.section	.text.PendSV_Handler,"ax",%progbits
 174              		.align	1
 175              		.p2align 2,,3
 176              		.global	PendSV_Handler
 177              		.syntax unified
 178              		.code	16
 179              		.thumb_func
 180              		.fpu softvfp
 181              		.type	PendSV_Handler, %function
 182              	PendSV_Handler:
 183              	.LFB59:
 184              		.cfi_startproc
 185              		@ args = 0, pretend = 0, frame = 0
 186              		@ frame_needed = 0, uses_anonymous_args = 0
 187              		@ link register save eliminated.
 188              		@ sp needed
 189 0000 7047     		bx	lr
 190              		.cfi_endproc
 191              	.LFE59:
 192              		.size	PendSV_Handler, .-PendSV_Handler
 193 0002 C046     		.section	.text.SysTick_Handler,"ax",%progbits
 194              		.align	1
 195              		.p2align 2,,3
 196              		.global	SysTick_Handler
 197              		.syntax unified
 198              		.code	16
 199              		.thumb_func
 200              		.fpu softvfp
 201              		.type	SysTick_Handler, %function
 202              	SysTick_Handler:
 203              	.LFB47:
 120:../Core/src/mlm32l0xx_it.c ****   /* Go to infinite loop when Usage Fault exception occurs */
 121:../Core/src/mlm32l0xx_it.c ****   while (1)
 122:../Core/src/mlm32l0xx_it.c ****   {
 123:../Core/src/mlm32l0xx_it.c ****   }
 124:../Core/src/mlm32l0xx_it.c **** }
 125:../Core/src/mlm32l0xx_it.c **** 
 126:../Core/src/mlm32l0xx_it.c **** /**
 127:../Core/src/mlm32l0xx_it.c ****   * @brief  This function handles SVCall exception.
 128:../Core/src/mlm32l0xx_it.c ****   * @param  None
 129:../Core/src/mlm32l0xx_it.c ****   * @retval None
 130:../Core/src/mlm32l0xx_it.c ****   */
 131:../Core/src/mlm32l0xx_it.c **** void SVC_Handler(void)
 132:../Core/src/mlm32l0xx_it.c **** {
 133:../Core/src/mlm32l0xx_it.c **** }
 134:../Core/src/mlm32l0xx_it.c **** 
 135:../Core/src/mlm32l0xx_it.c **** /**
 136:../Core/src/mlm32l0xx_it.c ****   * @brief  This function handles Debug Monitor exception.
 137:../Core/src/mlm32l0xx_it.c ****   * @param  None
 138:../Core/src/mlm32l0xx_it.c ****   * @retval None
 139:../Core/src/mlm32l0xx_it.c ****   */
ARM GAS  C:\Users\EBANO_~1\AppData\Local\Temp\ccBx8b8i.s 			page 7


 140:../Core/src/mlm32l0xx_it.c **** void DebugMon_Handler(void)
 141:../Core/src/mlm32l0xx_it.c **** {
 142:../Core/src/mlm32l0xx_it.c **** }
 143:../Core/src/mlm32l0xx_it.c **** 
 144:../Core/src/mlm32l0xx_it.c **** /**
 145:../Core/src/mlm32l0xx_it.c ****   * @brief  This function handles PendSVC exception.
 146:../Core/src/mlm32l0xx_it.c ****   * @param  None
 147:../Core/src/mlm32l0xx_it.c ****   * @retval None
 148:../Core/src/mlm32l0xx_it.c ****   */
 149:../Core/src/mlm32l0xx_it.c **** void PendSV_Handler(void)
 150:../Core/src/mlm32l0xx_it.c **** {
 151:../Core/src/mlm32l0xx_it.c **** }
 152:../Core/src/mlm32l0xx_it.c **** 
 153:../Core/src/mlm32l0xx_it.c **** /**
 154:../Core/src/mlm32l0xx_it.c ****   * @brief  This function handles SysTick Handler.
 155:../Core/src/mlm32l0xx_it.c ****   * @param  None
 156:../Core/src/mlm32l0xx_it.c ****   * @retval None
 157:../Core/src/mlm32l0xx_it.c ****   */
 158:../Core/src/mlm32l0xx_it.c **** void SysTick_Handler(void)
 159:../Core/src/mlm32l0xx_it.c **** {
 204              		.loc 1 159 0
 205              		.cfi_startproc
 206              		@ args = 0, pretend = 0, frame = 0
 207              		@ frame_needed = 0, uses_anonymous_args = 0
 208              		.loc 1 159 0
 209 0000 10B5     		push	{r4, lr}
 210              	.LCFI0:
 211              		.cfi_def_cfa_offset 8
 212              		.cfi_offset 4, -8
 213              		.cfi_offset 14, -4
 160:../Core/src/mlm32l0xx_it.c ****   HAL_IncTick();
 214              		.loc 1 160 0
 215 0002 FFF7FEFF 		bl	HAL_IncTick
 216              	.LVL0:
 161:../Core/src/mlm32l0xx_it.c **** }
 217              		.loc 1 161 0
 218              		@ sp needed
 219 0006 10BD     		pop	{r4, pc}
 220              		.cfi_endproc
 221              	.LFE47:
 222              		.size	SysTick_Handler, .-SysTick_Handler
 223              		.section	.text.USART2_IRQHandler,"ax",%progbits
 224              		.align	1
 225              		.p2align 2,,3
 226              		.global	USART2_IRQHandler
 227              		.syntax unified
 228              		.code	16
 229              		.thumb_func
 230              		.fpu softvfp
 231              		.type	USART2_IRQHandler, %function
 232              	USART2_IRQHandler:
 233              	.LFB48:
 162:../Core/src/mlm32l0xx_it.c **** 
 163:../Core/src/mlm32l0xx_it.c **** /******************************************************************************/
 164:../Core/src/mlm32l0xx_it.c **** /*                 STM32L1xx Peripherals Interrupt Handlers                   */
 165:../Core/src/mlm32l0xx_it.c **** /*  Add here the Interrupt Handler for the used peripheral(s) (PPP), for the  */
 166:../Core/src/mlm32l0xx_it.c **** /*  available peripheral interrupt handler's name please refer to the startup */
ARM GAS  C:\Users\EBANO_~1\AppData\Local\Temp\ccBx8b8i.s 			page 8


 167:../Core/src/mlm32l0xx_it.c **** /*  file (startup_stm32l1xx.s).                                               */
 168:../Core/src/mlm32l0xx_it.c **** /******************************************************************************/
 169:../Core/src/mlm32l0xx_it.c **** 
 170:../Core/src/mlm32l0xx_it.c **** /**
 171:../Core/src/mlm32l0xx_it.c ****   * @brief  This function handles PPP interrupt request.
 172:../Core/src/mlm32l0xx_it.c ****   * @param  None
 173:../Core/src/mlm32l0xx_it.c ****   * @retval None
 174:../Core/src/mlm32l0xx_it.c ****   */
 175:../Core/src/mlm32l0xx_it.c **** /*void PPP_IRQHandler(void)
 176:../Core/src/mlm32l0xx_it.c **** {
 177:../Core/src/mlm32l0xx_it.c **** }*/
 178:../Core/src/mlm32l0xx_it.c **** void USARTx_IRQHandler( void )
 179:../Core/src/mlm32l0xx_it.c **** {
 234              		.loc 1 179 0
 235              		.cfi_startproc
 236              		@ args = 0, pretend = 0, frame = 0
 237              		@ frame_needed = 0, uses_anonymous_args = 0
 238 0000 10B5     		push	{r4, lr}
 239              	.LCFI1:
 240              		.cfi_def_cfa_offset 8
 241              		.cfi_offset 4, -8
 242              		.cfi_offset 14, -4
 180:../Core/src/mlm32l0xx_it.c ****   vcom_IRQHandler();
 243              		.loc 1 180 0
 244 0002 FFF7FEFF 		bl	vcom_IRQHandler
 245              	.LVL1:
 181:../Core/src/mlm32l0xx_it.c **** }
 246              		.loc 1 181 0
 247              		@ sp needed
 248 0006 10BD     		pop	{r4, pc}
 249              		.cfi_endproc
 250              	.LFE48:
 251              		.size	USART2_IRQHandler, .-USART2_IRQHandler
 252              		.section	.text.DMA1_Channel4_5_6_7_IRQHandler,"ax",%progbits
 253              		.align	1
 254              		.p2align 2,,3
 255              		.global	DMA1_Channel4_5_6_7_IRQHandler
 256              		.syntax unified
 257              		.code	16
 258              		.thumb_func
 259              		.fpu softvfp
 260              		.type	DMA1_Channel4_5_6_7_IRQHandler, %function
 261              	DMA1_Channel4_5_6_7_IRQHandler:
 262              	.LFB49:
 182:../Core/src/mlm32l0xx_it.c **** 
 183:../Core/src/mlm32l0xx_it.c **** void USARTx_DMA_TX_IRQHandler( void )
 184:../Core/src/mlm32l0xx_it.c **** {
 263              		.loc 1 184 0
 264              		.cfi_startproc
 265              		@ args = 0, pretend = 0, frame = 0
 266              		@ frame_needed = 0, uses_anonymous_args = 0
 267 0000 10B5     		push	{r4, lr}
 268              	.LCFI2:
 269              		.cfi_def_cfa_offset 8
 270              		.cfi_offset 4, -8
 271              		.cfi_offset 14, -4
 185:../Core/src/mlm32l0xx_it.c ****   vcom_DMA_TX_IRQHandler();
ARM GAS  C:\Users\EBANO_~1\AppData\Local\Temp\ccBx8b8i.s 			page 9


 272              		.loc 1 185 0
 273 0002 FFF7FEFF 		bl	vcom_DMA_TX_IRQHandler
 274              	.LVL2:
 186:../Core/src/mlm32l0xx_it.c **** }
 275              		.loc 1 186 0
 276              		@ sp needed
 277 0006 10BD     		pop	{r4, pc}
 278              		.cfi_endproc
 279              	.LFE49:
 280              		.size	DMA1_Channel4_5_6_7_IRQHandler, .-DMA1_Channel4_5_6_7_IRQHandler
 281              		.section	.text.RTC_IRQHandler,"ax",%progbits
 282              		.align	1
 283              		.p2align 2,,3
 284              		.global	RTC_IRQHandler
 285              		.syntax unified
 286              		.code	16
 287              		.thumb_func
 288              		.fpu softvfp
 289              		.type	RTC_IRQHandler, %function
 290              	RTC_IRQHandler:
 291              	.LFB50:
 187:../Core/src/mlm32l0xx_it.c **** 
 188:../Core/src/mlm32l0xx_it.c **** void RTC_IRQHandler( void )
 189:../Core/src/mlm32l0xx_it.c **** {
 292              		.loc 1 189 0
 293              		.cfi_startproc
 294              		@ args = 0, pretend = 0, frame = 0
 295              		@ frame_needed = 0, uses_anonymous_args = 0
 296 0000 10B5     		push	{r4, lr}
 297              	.LCFI3:
 298              		.cfi_def_cfa_offset 8
 299              		.cfi_offset 4, -8
 300              		.cfi_offset 14, -4
 190:../Core/src/mlm32l0xx_it.c ****   HW_RTC_IrqHandler ( );
 301              		.loc 1 190 0
 302 0002 FFF7FEFF 		bl	HW_RTC_IrqHandler
 303              	.LVL3:
 191:../Core/src/mlm32l0xx_it.c **** }
 304              		.loc 1 191 0
 305              		@ sp needed
 306 0006 10BD     		pop	{r4, pc}
 307              		.cfi_endproc
 308              	.LFE50:
 309              		.size	RTC_IRQHandler, .-RTC_IRQHandler
 310              		.section	.text.EXTI0_1_IRQHandler,"ax",%progbits
 311              		.align	1
 312              		.p2align 2,,3
 313              		.global	EXTI0_1_IRQHandler
 314              		.syntax unified
 315              		.code	16
 316              		.thumb_func
 317              		.fpu softvfp
 318              		.type	EXTI0_1_IRQHandler, %function
 319              	EXTI0_1_IRQHandler:
 320              	.LFB51:
 192:../Core/src/mlm32l0xx_it.c **** 
 193:../Core/src/mlm32l0xx_it.c **** void EXTI0_1_IRQHandler( void )
ARM GAS  C:\Users\EBANO_~1\AppData\Local\Temp\ccBx8b8i.s 			page 10


 194:../Core/src/mlm32l0xx_it.c **** {
 321              		.loc 1 194 0
 322              		.cfi_startproc
 323              		@ args = 0, pretend = 0, frame = 0
 324              		@ frame_needed = 0, uses_anonymous_args = 0
 325 0000 10B5     		push	{r4, lr}
 326              	.LCFI4:
 327              		.cfi_def_cfa_offset 8
 328              		.cfi_offset 4, -8
 329              		.cfi_offset 14, -4
 195:../Core/src/mlm32l0xx_it.c ****   HAL_GPIO_EXTI_IRQHandler( GPIO_PIN_0 );
 330              		.loc 1 195 0
 331 0002 0120     		movs	r0, #1
 332 0004 FFF7FEFF 		bl	HAL_GPIO_EXTI_IRQHandler
 333              	.LVL4:
 196:../Core/src/mlm32l0xx_it.c **** 
 197:../Core/src/mlm32l0xx_it.c ****   HAL_GPIO_EXTI_IRQHandler( GPIO_PIN_1 );
 334              		.loc 1 197 0
 335 0008 0220     		movs	r0, #2
 336 000a FFF7FEFF 		bl	HAL_GPIO_EXTI_IRQHandler
 337              	.LVL5:
 198:../Core/src/mlm32l0xx_it.c **** }
 338              		.loc 1 198 0
 339              		@ sp needed
 340 000e 10BD     		pop	{r4, pc}
 341              		.cfi_endproc
 342              	.LFE51:
 343              		.size	EXTI0_1_IRQHandler, .-EXTI0_1_IRQHandler
 344              		.section	.text.EXTI2_3_IRQHandler,"ax",%progbits
 345              		.align	1
 346              		.p2align 2,,3
 347              		.global	EXTI2_3_IRQHandler
 348              		.syntax unified
 349              		.code	16
 350              		.thumb_func
 351              		.fpu softvfp
 352              		.type	EXTI2_3_IRQHandler, %function
 353              	EXTI2_3_IRQHandler:
 354              	.LFB52:
 199:../Core/src/mlm32l0xx_it.c **** 
 200:../Core/src/mlm32l0xx_it.c **** void EXTI2_3_IRQHandler( void )
 201:../Core/src/mlm32l0xx_it.c **** {
 355              		.loc 1 201 0
 356              		.cfi_startproc
 357              		@ args = 0, pretend = 0, frame = 0
 358              		@ frame_needed = 0, uses_anonymous_args = 0
 359 0000 10B5     		push	{r4, lr}
 360              	.LCFI5:
 361              		.cfi_def_cfa_offset 8
 362              		.cfi_offset 4, -8
 363              		.cfi_offset 14, -4
 202:../Core/src/mlm32l0xx_it.c ****   HAL_GPIO_EXTI_IRQHandler( GPIO_PIN_2 );
 364              		.loc 1 202 0
 365 0002 0420     		movs	r0, #4
 366 0004 FFF7FEFF 		bl	HAL_GPIO_EXTI_IRQHandler
 367              	.LVL6:
 203:../Core/src/mlm32l0xx_it.c **** 
ARM GAS  C:\Users\EBANO_~1\AppData\Local\Temp\ccBx8b8i.s 			page 11


 204:../Core/src/mlm32l0xx_it.c ****   HAL_GPIO_EXTI_IRQHandler( GPIO_PIN_3 );
 368              		.loc 1 204 0
 369 0008 0820     		movs	r0, #8
 370 000a FFF7FEFF 		bl	HAL_GPIO_EXTI_IRQHandler
 371              	.LVL7:
 205:../Core/src/mlm32l0xx_it.c **** }
 372              		.loc 1 205 0
 373              		@ sp needed
 374 000e 10BD     		pop	{r4, pc}
 375              		.cfi_endproc
 376              	.LFE52:
 377              		.size	EXTI2_3_IRQHandler, .-EXTI2_3_IRQHandler
 378              		.section	.text.EXTI4_15_IRQHandler,"ax",%progbits
 379              		.align	1
 380              		.p2align 2,,3
 381              		.global	EXTI4_15_IRQHandler
 382              		.syntax unified
 383              		.code	16
 384              		.thumb_func
 385              		.fpu softvfp
 386              		.type	EXTI4_15_IRQHandler, %function
 387              	EXTI4_15_IRQHandler:
 388              	.LFB53:
 206:../Core/src/mlm32l0xx_it.c **** 
 207:../Core/src/mlm32l0xx_it.c **** 
 208:../Core/src/mlm32l0xx_it.c **** void EXTI4_15_IRQHandler( void )
 209:../Core/src/mlm32l0xx_it.c **** {
 389              		.loc 1 209 0
 390              		.cfi_startproc
 391              		@ args = 0, pretend = 0, frame = 0
 392              		@ frame_needed = 0, uses_anonymous_args = 0
 393 0000 10B5     		push	{r4, lr}
 394              	.LCFI6:
 395              		.cfi_def_cfa_offset 8
 396              		.cfi_offset 4, -8
 397              		.cfi_offset 14, -4
 210:../Core/src/mlm32l0xx_it.c ****   HAL_GPIO_EXTI_IRQHandler( GPIO_PIN_4 );
 398              		.loc 1 210 0
 399 0002 1020     		movs	r0, #16
 400 0004 FFF7FEFF 		bl	HAL_GPIO_EXTI_IRQHandler
 401              	.LVL8:
 211:../Core/src/mlm32l0xx_it.c ****   
 212:../Core/src/mlm32l0xx_it.c ****   HAL_GPIO_EXTI_IRQHandler( GPIO_PIN_5 );
 402              		.loc 1 212 0
 403 0008 2020     		movs	r0, #32
 404 000a FFF7FEFF 		bl	HAL_GPIO_EXTI_IRQHandler
 405              	.LVL9:
 213:../Core/src/mlm32l0xx_it.c **** 
 214:../Core/src/mlm32l0xx_it.c ****   HAL_GPIO_EXTI_IRQHandler( GPIO_PIN_6 );
 406              		.loc 1 214 0
 407 000e 4020     		movs	r0, #64
 408 0010 FFF7FEFF 		bl	HAL_GPIO_EXTI_IRQHandler
 409              	.LVL10:
 215:../Core/src/mlm32l0xx_it.c ****   
 216:../Core/src/mlm32l0xx_it.c ****   HAL_GPIO_EXTI_IRQHandler( GPIO_PIN_7 );
 410              		.loc 1 216 0
 411 0014 8020     		movs	r0, #128
ARM GAS  C:\Users\EBANO_~1\AppData\Local\Temp\ccBx8b8i.s 			page 12


 412 0016 FFF7FEFF 		bl	HAL_GPIO_EXTI_IRQHandler
 413              	.LVL11:
 217:../Core/src/mlm32l0xx_it.c **** 
 218:../Core/src/mlm32l0xx_it.c ****   HAL_GPIO_EXTI_IRQHandler( GPIO_PIN_8 );
 414              		.loc 1 218 0
 415 001a 8020     		movs	r0, #128
 416 001c 4000     		lsls	r0, r0, #1
 417 001e FFF7FEFF 		bl	HAL_GPIO_EXTI_IRQHandler
 418              	.LVL12:
 219:../Core/src/mlm32l0xx_it.c **** 
 220:../Core/src/mlm32l0xx_it.c ****   HAL_GPIO_EXTI_IRQHandler( GPIO_PIN_9 );
 419              		.loc 1 220 0
 420 0022 8020     		movs	r0, #128
 421 0024 8000     		lsls	r0, r0, #2
 422 0026 FFF7FEFF 		bl	HAL_GPIO_EXTI_IRQHandler
 423              	.LVL13:
 221:../Core/src/mlm32l0xx_it.c ****   
 222:../Core/src/mlm32l0xx_it.c ****   HAL_GPIO_EXTI_IRQHandler( GPIO_PIN_10 );
 424              		.loc 1 222 0
 425 002a 8020     		movs	r0, #128
 426 002c C000     		lsls	r0, r0, #3
 427 002e FFF7FEFF 		bl	HAL_GPIO_EXTI_IRQHandler
 428              	.LVL14:
 223:../Core/src/mlm32l0xx_it.c ****   
 224:../Core/src/mlm32l0xx_it.c ****   HAL_GPIO_EXTI_IRQHandler( GPIO_PIN_11 );
 429              		.loc 1 224 0
 430 0032 8020     		movs	r0, #128
 431 0034 0001     		lsls	r0, r0, #4
 432 0036 FFF7FEFF 		bl	HAL_GPIO_EXTI_IRQHandler
 433              	.LVL15:
 225:../Core/src/mlm32l0xx_it.c **** 
 226:../Core/src/mlm32l0xx_it.c ****   HAL_GPIO_EXTI_IRQHandler( GPIO_PIN_12 );
 434              		.loc 1 226 0
 435 003a 8020     		movs	r0, #128
 436 003c 4001     		lsls	r0, r0, #5
 437 003e FFF7FEFF 		bl	HAL_GPIO_EXTI_IRQHandler
 438              	.LVL16:
 227:../Core/src/mlm32l0xx_it.c **** 
 228:../Core/src/mlm32l0xx_it.c ****   HAL_GPIO_EXTI_IRQHandler( GPIO_PIN_13 );
 439              		.loc 1 228 0
 440 0042 8020     		movs	r0, #128
 441 0044 8001     		lsls	r0, r0, #6
 442 0046 FFF7FEFF 		bl	HAL_GPIO_EXTI_IRQHandler
 443              	.LVL17:
 229:../Core/src/mlm32l0xx_it.c **** 
 230:../Core/src/mlm32l0xx_it.c ****   HAL_GPIO_EXTI_IRQHandler( GPIO_PIN_14 );
 444              		.loc 1 230 0
 445 004a 8020     		movs	r0, #128
 446 004c C001     		lsls	r0, r0, #7
 447 004e FFF7FEFF 		bl	HAL_GPIO_EXTI_IRQHandler
 448              	.LVL18:
 231:../Core/src/mlm32l0xx_it.c **** 
 232:../Core/src/mlm32l0xx_it.c ****   HAL_GPIO_EXTI_IRQHandler( GPIO_PIN_15 );
 449              		.loc 1 232 0
 450 0052 8020     		movs	r0, #128
 451 0054 0002     		lsls	r0, r0, #8
 452 0056 FFF7FEFF 		bl	HAL_GPIO_EXTI_IRQHandler
ARM GAS  C:\Users\EBANO_~1\AppData\Local\Temp\ccBx8b8i.s 			page 13


 453              	.LVL19:
 233:../Core/src/mlm32l0xx_it.c **** }
 454              		.loc 1 233 0
 455              		@ sp needed
 456 005a 10BD     		pop	{r4, pc}
 457              		.cfi_endproc
 458              	.LFE53:
 459              		.size	EXTI4_15_IRQHandler, .-EXTI4_15_IRQHandler
 460              		.text
 461              	.Letext0:
 462              		.file 2 "c:\\program files (x86)\\gnu tools arm embedded\\7 2018-q2-update\\arm-none-eabi\\include
 463              		.file 3 "c:\\program files (x86)\\gnu tools arm embedded\\7 2018-q2-update\\arm-none-eabi\\include
 464              		.file 4 "c:\\program files (x86)\\gnu tools arm embedded\\7 2018-q2-update\\arm-none-eabi\\include
 465              		.file 5 "c:\\program files (x86)\\gnu tools arm embedded\\7 2018-q2-update\\lib\\gcc\\arm-none-eab
 466              		.file 6 "c:\\program files (x86)\\gnu tools arm embedded\\7 2018-q2-update\\arm-none-eabi\\include
 467              		.file 7 "c:\\program files (x86)\\gnu tools arm embedded\\7 2018-q2-update\\arm-none-eabi\\include
 468              		.file 8 "c:\\program files (x86)\\gnu tools arm embedded\\7 2018-q2-update\\arm-none-eabi\\include
 469              		.file 9 "../../../../../../Drivers/CMSIS/Device/ST/STM32L0xx/Include/system_stm32l0xx.h"
 470              		.file 10 "c:\\program files (x86)\\gnu tools arm embedded\\7 2018-q2-update\\arm-none-eabi\\includ
 471              		.file 11 "c:\\program files (x86)\\gnu tools arm embedded\\7 2018-q2-update\\arm-none-eabi\\includ
 472              		.file 12 "../../../../../../Drivers/STM32L0xx_HAL_Driver/Inc/stm32l0xx_hal_gpio.h"
 473              		.file 13 "../LoRaWAN/App/inc/hw_rtc.h"
 474              		.file 14 "../LoRaWAN/App/inc/vcom.h"
 475              		.file 15 "../../../../../../Drivers/STM32L0xx_HAL_Driver/Inc/stm32l0xx_hal.h"
 476              		.section	.debug_info,"",%progbits
 477              	.Ldebug_info0:
 478 0000 9F0D0000 		.4byte	0xd9f
 479 0004 0200     		.2byte	0x2
 480 0006 00000000 		.4byte	.Ldebug_abbrev0
 481 000a 04       		.byte	0x4
 482 000b 01       		.uleb128 0x1
 483 000c 0F040000 		.4byte	.LASF161
 484 0010 0C       		.byte	0xc
 485 0011 67030000 		.4byte	.LASF162
 486 0015 21070000 		.4byte	.LASF163
 487 0019 00000000 		.4byte	.Ldebug_ranges0+0
 488 001d 00000000 		.4byte	0
 489 0021 00000000 		.4byte	0
 490 0025 00000000 		.4byte	.Ldebug_line0
 491 0029 02       		.uleb128 0x2
 492 002a 04       		.byte	0x4
 493 002b 05       		.byte	0x5
 494 002c 696E7400 		.ascii	"int\000"
 495 0030 03       		.uleb128 0x3
 496 0031 04       		.byte	0x4
 497 0032 07       		.byte	0x7
 498 0033 04060000 		.4byte	.LASF0
 499 0037 03       		.uleb128 0x3
 500 0038 08       		.byte	0x8
 501 0039 05       		.byte	0x5
 502 003a CF010000 		.4byte	.LASF1
 503 003e 03       		.uleb128 0x3
 504 003f 08       		.byte	0x8
 505 0040 04       		.byte	0x4
 506 0041 DD050000 		.4byte	.LASF2
 507 0045 03       		.uleb128 0x3
 508 0046 01       		.byte	0x1
ARM GAS  C:\Users\EBANO_~1\AppData\Local\Temp\ccBx8b8i.s 			page 14


 509 0047 06       		.byte	0x6
 510 0048 33010000 		.4byte	.LASF3
 511 004c 04       		.uleb128 0x4
 512 004d 70000000 		.4byte	.LASF6
 513 0051 02       		.byte	0x2
 514 0052 2B       		.byte	0x2b
 515 0053 57000000 		.4byte	0x57
 516 0057 03       		.uleb128 0x3
 517 0058 01       		.byte	0x1
 518 0059 08       		.byte	0x8
 519 005a A7040000 		.4byte	.LASF4
 520 005e 03       		.uleb128 0x3
 521 005f 02       		.byte	0x2
 522 0060 05       		.byte	0x5
 523 0061 0C000000 		.4byte	.LASF5
 524 0065 04       		.uleb128 0x4
 525 0066 11060000 		.4byte	.LASF7
 526 006a 02       		.byte	0x2
 527 006b 39       		.byte	0x39
 528 006c 70000000 		.4byte	0x70
 529 0070 03       		.uleb128 0x3
 530 0071 02       		.byte	0x2
 531 0072 07       		.byte	0x7
 532 0073 58060000 		.4byte	.LASF8
 533 0077 03       		.uleb128 0x3
 534 0078 04       		.byte	0x4
 535 0079 05       		.byte	0x5
 536 007a 8B010000 		.4byte	.LASF9
 537 007e 04       		.uleb128 0x4
 538 007f 21020000 		.4byte	.LASF10
 539 0083 02       		.byte	0x2
 540 0084 4F       		.byte	0x4f
 541 0085 89000000 		.4byte	0x89
 542 0089 03       		.uleb128 0x3
 543 008a 04       		.byte	0x4
 544 008b 07       		.byte	0x7
 545 008c BF020000 		.4byte	.LASF11
 546 0090 03       		.uleb128 0x3
 547 0091 08       		.byte	0x8
 548 0092 07       		.byte	0x7
 549 0093 A3000000 		.4byte	.LASF12
 550 0097 04       		.uleb128 0x4
 551 0098 39030000 		.4byte	.LASF13
 552 009c 03       		.byte	0x3
 553 009d 22       		.byte	0x22
 554 009e A2000000 		.4byte	0xa2
 555 00a2 05       		.uleb128 0x5
 556 00a3 04       		.byte	0x4
 557 00a4 A8000000 		.4byte	0xa8
 558 00a8 06       		.uleb128 0x6
 559 00a9 93050000 		.4byte	.LASF120
 560 00ad 01       		.byte	0x1
 561 00ae 04       		.uleb128 0x4
 562 00af 25010000 		.4byte	.LASF14
 563 00b3 04       		.byte	0x4
 564 00b4 2C       		.byte	0x2c
 565 00b5 77000000 		.4byte	0x77
ARM GAS  C:\Users\EBANO_~1\AppData\Local\Temp\ccBx8b8i.s 			page 15


 566 00b9 04       		.uleb128 0x4
 567 00ba C2050000 		.4byte	.LASF15
 568 00be 04       		.byte	0x4
 569 00bf 72       		.byte	0x72
 570 00c0 77000000 		.4byte	0x77
 571 00c4 07       		.uleb128 0x7
 572 00c5 D0030000 		.4byte	.LASF16
 573 00c9 05       		.byte	0x5
 574 00ca 6501     		.2byte	0x165
 575 00cc 30000000 		.4byte	0x30
 576 00d0 08       		.uleb128 0x8
 577 00d1 04       		.byte	0x4
 578 00d2 04       		.byte	0x4
 579 00d3 A6       		.byte	0xa6
 580 00d4 EF000000 		.4byte	0xef
 581 00d8 09       		.uleb128 0x9
 582 00d9 10030000 		.4byte	.LASF17
 583 00dd 04       		.byte	0x4
 584 00de A8       		.byte	0xa8
 585 00df C4000000 		.4byte	0xc4
 586 00e3 09       		.uleb128 0x9
 587 00e4 98020000 		.4byte	.LASF18
 588 00e8 04       		.byte	0x4
 589 00e9 A9       		.byte	0xa9
 590 00ea EF000000 		.4byte	0xef
 591 00ee 00       		.byte	0
 592 00ef 0A       		.uleb128 0xa
 593 00f0 57000000 		.4byte	0x57
 594 00f4 FF000000 		.4byte	0xff
 595 00f8 0B       		.uleb128 0xb
 596 00f9 30000000 		.4byte	0x30
 597 00fd 03       		.byte	0x3
 598 00fe 00       		.byte	0
 599 00ff 0C       		.uleb128 0xc
 600 0100 08       		.byte	0x8
 601 0101 04       		.byte	0x4
 602 0102 A3       		.byte	0xa3
 603 0103 24010000 		.4byte	0x124
 604 0107 0D       		.uleb128 0xd
 605 0108 8B050000 		.4byte	.LASF19
 606 010c 04       		.byte	0x4
 607 010d A5       		.byte	0xa5
 608 010e 29000000 		.4byte	0x29
 609 0112 02       		.byte	0x2
 610 0113 23       		.byte	0x23
 611 0114 00       		.uleb128 0
 612 0115 0D       		.uleb128 0xd
 613 0116 9A050000 		.4byte	.LASF20
 614 011a 04       		.byte	0x4
 615 011b AA       		.byte	0xaa
 616 011c D0000000 		.4byte	0xd0
 617 0120 02       		.byte	0x2
 618 0121 23       		.byte	0x23
 619 0122 04       		.uleb128 0x4
 620 0123 00       		.byte	0
 621 0124 04       		.uleb128 0x4
 622 0125 06050000 		.4byte	.LASF21
ARM GAS  C:\Users\EBANO_~1\AppData\Local\Temp\ccBx8b8i.s 			page 16


 623 0129 04       		.byte	0x4
 624 012a AB       		.byte	0xab
 625 012b FF000000 		.4byte	0xff
 626 012f 04       		.uleb128 0x4
 627 0130 C4040000 		.4byte	.LASF22
 628 0134 04       		.byte	0x4
 629 0135 AF       		.byte	0xaf
 630 0136 97000000 		.4byte	0x97
 631 013a 0E       		.uleb128 0xe
 632 013b 04       		.byte	0x4
 633 013c 05       		.uleb128 0x5
 634 013d 04       		.byte	0x4
 635 013e 42010000 		.4byte	0x142
 636 0142 03       		.uleb128 0x3
 637 0143 01       		.byte	0x1
 638 0144 08       		.byte	0x8
 639 0145 F0050000 		.4byte	.LASF23
 640 0149 0F       		.uleb128 0xf
 641 014a 42010000 		.4byte	0x142
 642 014e 04       		.uleb128 0x4
 643 014f 70060000 		.4byte	.LASF24
 644 0153 06       		.byte	0x6
 645 0154 16       		.byte	0x16
 646 0155 89000000 		.4byte	0x89
 647 0159 10       		.uleb128 0x10
 648 015a 65020000 		.4byte	.LASF29
 649 015e 18       		.byte	0x18
 650 015f 06       		.byte	0x6
 651 0160 2F       		.byte	0x2f
 652 0161 B8010000 		.4byte	0x1b8
 653 0165 0D       		.uleb128 0xd
 654 0166 3C060000 		.4byte	.LASF25
 655 016a 06       		.byte	0x6
 656 016b 31       		.byte	0x31
 657 016c B8010000 		.4byte	0x1b8
 658 0170 02       		.byte	0x2
 659 0171 23       		.byte	0x23
 660 0172 00       		.uleb128 0
 661 0173 11       		.uleb128 0x11
 662 0174 5F6B00   		.ascii	"_k\000"
 663 0177 06       		.byte	0x6
 664 0178 32       		.byte	0x32
 665 0179 29000000 		.4byte	0x29
 666 017d 02       		.byte	0x2
 667 017e 23       		.byte	0x23
 668 017f 04       		.uleb128 0x4
 669 0180 0D       		.uleb128 0xd
 670 0181 76050000 		.4byte	.LASF26
 671 0185 06       		.byte	0x6
 672 0186 32       		.byte	0x32
 673 0187 29000000 		.4byte	0x29
 674 018b 02       		.byte	0x2
 675 018c 23       		.byte	0x23
 676 018d 08       		.uleb128 0x8
 677 018e 0D       		.uleb128 0xd
 678 018f 2C020000 		.4byte	.LASF27
 679 0193 06       		.byte	0x6
ARM GAS  C:\Users\EBANO_~1\AppData\Local\Temp\ccBx8b8i.s 			page 17


 680 0194 32       		.byte	0x32
 681 0195 29000000 		.4byte	0x29
 682 0199 02       		.byte	0x2
 683 019a 23       		.byte	0x23
 684 019b 0C       		.uleb128 0xc
 685 019c 0D       		.uleb128 0xd
 686 019d E3060000 		.4byte	.LASF28
 687 01a1 06       		.byte	0x6
 688 01a2 32       		.byte	0x32
 689 01a3 29000000 		.4byte	0x29
 690 01a7 02       		.byte	0x2
 691 01a8 23       		.byte	0x23
 692 01a9 10       		.uleb128 0x10
 693 01aa 11       		.uleb128 0x11
 694 01ab 5F7800   		.ascii	"_x\000"
 695 01ae 06       		.byte	0x6
 696 01af 33       		.byte	0x33
 697 01b0 BE010000 		.4byte	0x1be
 698 01b4 02       		.byte	0x2
 699 01b5 23       		.byte	0x23
 700 01b6 14       		.uleb128 0x14
 701 01b7 00       		.byte	0
 702 01b8 05       		.uleb128 0x5
 703 01b9 04       		.byte	0x4
 704 01ba 59010000 		.4byte	0x159
 705 01be 0A       		.uleb128 0xa
 706 01bf 4E010000 		.4byte	0x14e
 707 01c3 CE010000 		.4byte	0x1ce
 708 01c7 0B       		.uleb128 0xb
 709 01c8 30000000 		.4byte	0x30
 710 01cc 00       		.byte	0
 711 01cd 00       		.byte	0
 712 01ce 10       		.uleb128 0x10
 713 01cf 81020000 		.4byte	.LASF30
 714 01d3 24       		.byte	0x24
 715 01d4 06       		.byte	0x6
 716 01d5 37       		.byte	0x37
 717 01d6 59020000 		.4byte	0x259
 718 01da 0D       		.uleb128 0xd
 719 01db 1C010000 		.4byte	.LASF31
 720 01df 06       		.byte	0x6
 721 01e0 39       		.byte	0x39
 722 01e1 29000000 		.4byte	0x29
 723 01e5 02       		.byte	0x2
 724 01e6 23       		.byte	0x23
 725 01e7 00       		.uleb128 0
 726 01e8 0D       		.uleb128 0xd
 727 01e9 BC070000 		.4byte	.LASF32
 728 01ed 06       		.byte	0x6
 729 01ee 3A       		.byte	0x3a
 730 01ef 29000000 		.4byte	0x29
 731 01f3 02       		.byte	0x2
 732 01f4 23       		.byte	0x23
 733 01f5 04       		.uleb128 0x4
 734 01f6 0D       		.uleb128 0xd
 735 01f7 4B010000 		.4byte	.LASF33
 736 01fb 06       		.byte	0x6
ARM GAS  C:\Users\EBANO_~1\AppData\Local\Temp\ccBx8b8i.s 			page 18


 737 01fc 3B       		.byte	0x3b
 738 01fd 29000000 		.4byte	0x29
 739 0201 02       		.byte	0x2
 740 0202 23       		.byte	0x23
 741 0203 08       		.uleb128 0x8
 742 0204 0D       		.uleb128 0xd
 743 0205 F5070000 		.4byte	.LASF34
 744 0209 06       		.byte	0x6
 745 020a 3C       		.byte	0x3c
 746 020b 29000000 		.4byte	0x29
 747 020f 02       		.byte	0x2
 748 0210 23       		.byte	0x23
 749 0211 0C       		.uleb128 0xc
 750 0212 0D       		.uleb128 0xd
 751 0213 9B030000 		.4byte	.LASF35
 752 0217 06       		.byte	0x6
 753 0218 3D       		.byte	0x3d
 754 0219 29000000 		.4byte	0x29
 755 021d 02       		.byte	0x2
 756 021e 23       		.byte	0x23
 757 021f 10       		.uleb128 0x10
 758 0220 0D       		.uleb128 0xd
 759 0221 48030000 		.4byte	.LASF36
 760 0225 06       		.byte	0x6
 761 0226 3E       		.byte	0x3e
 762 0227 29000000 		.4byte	0x29
 763 022b 02       		.byte	0x2
 764 022c 23       		.byte	0x23
 765 022d 14       		.uleb128 0x14
 766 022e 0D       		.uleb128 0xd
 767 022f B8050000 		.4byte	.LASF37
 768 0233 06       		.byte	0x6
 769 0234 3F       		.byte	0x3f
 770 0235 29000000 		.4byte	0x29
 771 0239 02       		.byte	0x2
 772 023a 23       		.byte	0x23
 773 023b 18       		.uleb128 0x18
 774 023c 0D       		.uleb128 0xd
 775 023d CD040000 		.4byte	.LASF38
 776 0241 06       		.byte	0x6
 777 0242 40       		.byte	0x40
 778 0243 29000000 		.4byte	0x29
 779 0247 02       		.byte	0x2
 780 0248 23       		.byte	0x23
 781 0249 1C       		.uleb128 0x1c
 782 024a 0D       		.uleb128 0xd
 783 024b A2070000 		.4byte	.LASF39
 784 024f 06       		.byte	0x6
 785 0250 41       		.byte	0x41
 786 0251 29000000 		.4byte	0x29
 787 0255 02       		.byte	0x2
 788 0256 23       		.byte	0x23
 789 0257 20       		.uleb128 0x20
 790 0258 00       		.byte	0
 791 0259 12       		.uleb128 0x12
 792 025a 5A010000 		.4byte	.LASF40
 793 025e 0801     		.2byte	0x108
ARM GAS  C:\Users\EBANO_~1\AppData\Local\Temp\ccBx8b8i.s 			page 19


 794 0260 06       		.byte	0x6
 795 0261 4A       		.byte	0x4a
 796 0262 A2020000 		.4byte	0x2a2
 797 0266 0D       		.uleb128 0xd
 798 0267 22000000 		.4byte	.LASF41
 799 026b 06       		.byte	0x6
 800 026c 4B       		.byte	0x4b
 801 026d A2020000 		.4byte	0x2a2
 802 0271 02       		.byte	0x2
 803 0272 23       		.byte	0x23
 804 0273 00       		.uleb128 0
 805 0274 0D       		.uleb128 0xd
 806 0275 00000000 		.4byte	.LASF42
 807 0279 06       		.byte	0x6
 808 027a 4C       		.byte	0x4c
 809 027b A2020000 		.4byte	0x2a2
 810 027f 03       		.byte	0x3
 811 0280 23       		.byte	0x23
 812 0281 8001     		.uleb128 0x80
 813 0283 0D       		.uleb128 0xd
 814 0284 4F060000 		.4byte	.LASF43
 815 0288 06       		.byte	0x6
 816 0289 4E       		.byte	0x4e
 817 028a 4E010000 		.4byte	0x14e
 818 028e 03       		.byte	0x3
 819 028f 23       		.byte	0x23
 820 0290 8002     		.uleb128 0x100
 821 0292 0D       		.uleb128 0xd
 822 0293 9B010000 		.4byte	.LASF44
 823 0297 06       		.byte	0x6
 824 0298 51       		.byte	0x51
 825 0299 4E010000 		.4byte	0x14e
 826 029d 03       		.byte	0x3
 827 029e 23       		.byte	0x23
 828 029f 8402     		.uleb128 0x104
 829 02a1 00       		.byte	0
 830 02a2 0A       		.uleb128 0xa
 831 02a3 3A010000 		.4byte	0x13a
 832 02a7 B2020000 		.4byte	0x2b2
 833 02ab 0B       		.uleb128 0xb
 834 02ac 30000000 		.4byte	0x30
 835 02b0 1F       		.byte	0x1f
 836 02b1 00       		.byte	0
 837 02b2 12       		.uleb128 0x12
 838 02b3 A4030000 		.4byte	.LASF45
 839 02b7 9001     		.2byte	0x190
 840 02b9 06       		.byte	0x6
 841 02ba 5D       		.byte	0x5d
 842 02bb F9020000 		.4byte	0x2f9
 843 02bf 0D       		.uleb128 0xd
 844 02c0 3C060000 		.4byte	.LASF25
 845 02c4 06       		.byte	0x6
 846 02c5 5E       		.byte	0x5e
 847 02c6 F9020000 		.4byte	0x2f9
 848 02ca 02       		.byte	0x2
 849 02cb 23       		.byte	0x23
 850 02cc 00       		.uleb128 0
ARM GAS  C:\Users\EBANO_~1\AppData\Local\Temp\ccBx8b8i.s 			page 20


 851 02cd 0D       		.uleb128 0xd
 852 02ce 3A050000 		.4byte	.LASF46
 853 02d2 06       		.byte	0x6
 854 02d3 5F       		.byte	0x5f
 855 02d4 29000000 		.4byte	0x29
 856 02d8 02       		.byte	0x2
 857 02d9 23       		.byte	0x23
 858 02da 04       		.uleb128 0x4
 859 02db 0D       		.uleb128 0xd
 860 02dc 1C020000 		.4byte	.LASF47
 861 02e0 06       		.byte	0x6
 862 02e1 61       		.byte	0x61
 863 02e2 FF020000 		.4byte	0x2ff
 864 02e6 02       		.byte	0x2
 865 02e7 23       		.byte	0x23
 866 02e8 08       		.uleb128 0x8
 867 02e9 0D       		.uleb128 0xd
 868 02ea 5A010000 		.4byte	.LASF40
 869 02ee 06       		.byte	0x6
 870 02ef 62       		.byte	0x62
 871 02f0 59020000 		.4byte	0x259
 872 02f4 03       		.byte	0x3
 873 02f5 23       		.byte	0x23
 874 02f6 8801     		.uleb128 0x88
 875 02f8 00       		.byte	0
 876 02f9 05       		.uleb128 0x5
 877 02fa 04       		.byte	0x4
 878 02fb B2020000 		.4byte	0x2b2
 879 02ff 0A       		.uleb128 0xa
 880 0300 0F030000 		.4byte	0x30f
 881 0304 0F030000 		.4byte	0x30f
 882 0308 0B       		.uleb128 0xb
 883 0309 30000000 		.4byte	0x30
 884 030d 1F       		.byte	0x1f
 885 030e 00       		.byte	0
 886 030f 05       		.uleb128 0x5
 887 0310 04       		.byte	0x4
 888 0311 15030000 		.4byte	0x315
 889 0315 13       		.uleb128 0x13
 890 0316 01       		.byte	0x1
 891 0317 10       		.uleb128 0x10
 892 0318 D7040000 		.4byte	.LASF48
 893 031c 08       		.byte	0x8
 894 031d 06       		.byte	0x6
 895 031e 75       		.byte	0x75
 896 031f 40030000 		.4byte	0x340
 897 0323 0D       		.uleb128 0xd
 898 0324 45010000 		.4byte	.LASF49
 899 0328 06       		.byte	0x6
 900 0329 76       		.byte	0x76
 901 032a 40030000 		.4byte	0x340
 902 032e 02       		.byte	0x2
 903 032f 23       		.byte	0x23
 904 0330 00       		.uleb128 0
 905 0331 0D       		.uleb128 0xd
 906 0332 FE050000 		.4byte	.LASF50
 907 0336 06       		.byte	0x6
ARM GAS  C:\Users\EBANO_~1\AppData\Local\Temp\ccBx8b8i.s 			page 21


 908 0337 77       		.byte	0x77
 909 0338 29000000 		.4byte	0x29
 910 033c 02       		.byte	0x2
 911 033d 23       		.byte	0x23
 912 033e 04       		.uleb128 0x4
 913 033f 00       		.byte	0
 914 0340 05       		.uleb128 0x5
 915 0341 04       		.byte	0x4
 916 0342 57000000 		.4byte	0x57
 917 0346 10       		.uleb128 0x10
 918 0347 11050000 		.4byte	.LASF51
 919 034b 68       		.byte	0x68
 920 034c 06       		.byte	0x6
 921 034d B5       		.byte	0xb5
 922 034e A0040000 		.4byte	0x4a0
 923 0352 11       		.uleb128 0x11
 924 0353 5F7000   		.ascii	"_p\000"
 925 0356 06       		.byte	0x6
 926 0357 B6       		.byte	0xb6
 927 0358 40030000 		.4byte	0x340
 928 035c 02       		.byte	0x2
 929 035d 23       		.byte	0x23
 930 035e 00       		.uleb128 0
 931 035f 11       		.uleb128 0x11
 932 0360 5F7200   		.ascii	"_r\000"
 933 0363 06       		.byte	0x6
 934 0364 B7       		.byte	0xb7
 935 0365 29000000 		.4byte	0x29
 936 0369 02       		.byte	0x2
 937 036a 23       		.byte	0x23
 938 036b 04       		.uleb128 0x4
 939 036c 11       		.uleb128 0x11
 940 036d 5F7700   		.ascii	"_w\000"
 941 0370 06       		.byte	0x6
 942 0371 B8       		.byte	0xb8
 943 0372 29000000 		.4byte	0x29
 944 0376 02       		.byte	0x2
 945 0377 23       		.byte	0x23
 946 0378 08       		.uleb128 0x8
 947 0379 0D       		.uleb128 0xd
 948 037a 94010000 		.4byte	.LASF52
 949 037e 06       		.byte	0x6
 950 037f B9       		.byte	0xb9
 951 0380 5E000000 		.4byte	0x5e
 952 0384 02       		.byte	0x2
 953 0385 23       		.byte	0x23
 954 0386 0C       		.uleb128 0xc
 955 0387 0D       		.uleb128 0xd
 956 0388 D1020000 		.4byte	.LASF53
 957 038c 06       		.byte	0x6
 958 038d BA       		.byte	0xba
 959 038e 5E000000 		.4byte	0x5e
 960 0392 02       		.byte	0x2
 961 0393 23       		.byte	0x23
 962 0394 0E       		.uleb128 0xe
 963 0395 11       		.uleb128 0x11
 964 0396 5F626600 		.ascii	"_bf\000"
ARM GAS  C:\Users\EBANO_~1\AppData\Local\Temp\ccBx8b8i.s 			page 22


 965 039a 06       		.byte	0x6
 966 039b BB       		.byte	0xbb
 967 039c 17030000 		.4byte	0x317
 968 03a0 02       		.byte	0x2
 969 03a1 23       		.byte	0x23
 970 03a2 10       		.uleb128 0x10
 971 03a3 0D       		.uleb128 0xd
 972 03a4 C9000000 		.4byte	.LASF54
 973 03a8 06       		.byte	0x6
 974 03a9 BC       		.byte	0xbc
 975 03aa 29000000 		.4byte	0x29
 976 03ae 02       		.byte	0x2
 977 03af 23       		.byte	0x23
 978 03b0 18       		.uleb128 0x18
 979 03b1 0D       		.uleb128 0xd
 980 03b2 68010000 		.4byte	.LASF55
 981 03b6 06       		.byte	0x6
 982 03b7 C3       		.byte	0xc3
 983 03b8 3A010000 		.4byte	0x13a
 984 03bc 02       		.byte	0x2
 985 03bd 23       		.byte	0x23
 986 03be 1C       		.uleb128 0x1c
 987 03bf 0D       		.uleb128 0xd
 988 03c0 7B020000 		.4byte	.LASF56
 989 03c4 06       		.byte	0x6
 990 03c5 C5       		.byte	0xc5
 991 03c6 28060000 		.4byte	0x628
 992 03ca 02       		.byte	0x2
 993 03cb 23       		.byte	0x23
 994 03cc 20       		.uleb128 0x20
 995 03cd 0D       		.uleb128 0xd
 996 03ce 41030000 		.4byte	.LASF57
 997 03d2 06       		.byte	0x6
 998 03d3 C7       		.byte	0xc7
 999 03d4 53060000 		.4byte	0x653
 1000 03d8 02       		.byte	0x2
 1001 03d9 23       		.byte	0x23
 1002 03da 24       		.uleb128 0x24
 1003 03db 0D       		.uleb128 0xd
 1004 03dc A2050000 		.4byte	.LASF58
 1005 03e0 06       		.byte	0x6
 1006 03e1 CA       		.byte	0xca
 1007 03e2 78060000 		.4byte	0x678
 1008 03e6 02       		.byte	0x2
 1009 03e7 23       		.byte	0x23
 1010 03e8 28       		.uleb128 0x28
 1011 03e9 0D       		.uleb128 0xd
 1012 03ea 2C010000 		.4byte	.LASF59
 1013 03ee 06       		.byte	0x6
 1014 03ef CB       		.byte	0xcb
 1015 03f0 93060000 		.4byte	0x693
 1016 03f4 02       		.byte	0x2
 1017 03f5 23       		.byte	0x23
 1018 03f6 2C       		.uleb128 0x2c
 1019 03f7 11       		.uleb128 0x11
 1020 03f8 5F756200 		.ascii	"_ub\000"
 1021 03fc 06       		.byte	0x6
ARM GAS  C:\Users\EBANO_~1\AppData\Local\Temp\ccBx8b8i.s 			page 23


 1022 03fd CE       		.byte	0xce
 1023 03fe 17030000 		.4byte	0x317
 1024 0402 02       		.byte	0x2
 1025 0403 23       		.byte	0x23
 1026 0404 30       		.uleb128 0x30
 1027 0405 11       		.uleb128 0x11
 1028 0406 5F757000 		.ascii	"_up\000"
 1029 040a 06       		.byte	0x6
 1030 040b CF       		.byte	0xcf
 1031 040c 40030000 		.4byte	0x340
 1032 0410 02       		.byte	0x2
 1033 0411 23       		.byte	0x23
 1034 0412 38       		.uleb128 0x38
 1035 0413 11       		.uleb128 0x11
 1036 0414 5F757200 		.ascii	"_ur\000"
 1037 0418 06       		.byte	0x6
 1038 0419 D0       		.byte	0xd0
 1039 041a 29000000 		.4byte	0x29
 1040 041e 02       		.byte	0x2
 1041 041f 23       		.byte	0x23
 1042 0420 3C       		.uleb128 0x3c
 1043 0421 0D       		.uleb128 0xd
 1044 0422 3F010000 		.4byte	.LASF60
 1045 0426 06       		.byte	0x6
 1046 0427 D3       		.byte	0xd3
 1047 0428 99060000 		.4byte	0x699
 1048 042c 02       		.byte	0x2
 1049 042d 23       		.byte	0x23
 1050 042e 40       		.uleb128 0x40
 1051 042f 0D       		.uleb128 0xd
 1052 0430 94070000 		.4byte	.LASF61
 1053 0434 06       		.byte	0x6
 1054 0435 D4       		.byte	0xd4
 1055 0436 A9060000 		.4byte	0x6a9
 1056 043a 02       		.byte	0x2
 1057 043b 23       		.byte	0x23
 1058 043c 43       		.uleb128 0x43
 1059 043d 11       		.uleb128 0x11
 1060 043e 5F6C6200 		.ascii	"_lb\000"
 1061 0442 06       		.byte	0x6
 1062 0443 D7       		.byte	0xd7
 1063 0444 17030000 		.4byte	0x317
 1064 0448 02       		.byte	0x2
 1065 0449 23       		.byte	0x23
 1066 044a 44       		.uleb128 0x44
 1067 044b 0D       		.uleb128 0xd
 1068 044c F5050000 		.4byte	.LASF62
 1069 0450 06       		.byte	0x6
 1070 0451 DA       		.byte	0xda
 1071 0452 29000000 		.4byte	0x29
 1072 0456 02       		.byte	0x2
 1073 0457 23       		.byte	0x23
 1074 0458 4C       		.uleb128 0x4c
 1075 0459 0D       		.uleb128 0xd
 1076 045a F5010000 		.4byte	.LASF63
 1077 045e 06       		.byte	0x6
 1078 045f DB       		.byte	0xdb
ARM GAS  C:\Users\EBANO_~1\AppData\Local\Temp\ccBx8b8i.s 			page 24


 1079 0460 AE000000 		.4byte	0xae
 1080 0464 02       		.byte	0x2
 1081 0465 23       		.byte	0x23
 1082 0466 50       		.uleb128 0x50
 1083 0467 0D       		.uleb128 0xd
 1084 0468 D7020000 		.4byte	.LASF64
 1085 046c 06       		.byte	0x6
 1086 046d DE       		.byte	0xde
 1087 046e BF040000 		.4byte	0x4bf
 1088 0472 02       		.byte	0x2
 1089 0473 23       		.byte	0x23
 1090 0474 54       		.uleb128 0x54
 1091 0475 0D       		.uleb128 0xd
 1092 0476 2D030000 		.4byte	.LASF65
 1093 047a 06       		.byte	0x6
 1094 047b E2       		.byte	0xe2
 1095 047c 2F010000 		.4byte	0x12f
 1096 0480 02       		.byte	0x2
 1097 0481 23       		.byte	0x23
 1098 0482 58       		.uleb128 0x58
 1099 0483 0D       		.uleb128 0xd
 1100 0484 67000000 		.4byte	.LASF66
 1101 0488 06       		.byte	0x6
 1102 0489 E4       		.byte	0xe4
 1103 048a 24010000 		.4byte	0x124
 1104 048e 02       		.byte	0x2
 1105 048f 23       		.byte	0x23
 1106 0490 5C       		.uleb128 0x5c
 1107 0491 0D       		.uleb128 0xd
 1108 0492 DE040000 		.4byte	.LASF67
 1109 0496 06       		.byte	0x6
 1110 0497 E5       		.byte	0xe5
 1111 0498 29000000 		.4byte	0x29
 1112 049c 02       		.byte	0x2
 1113 049d 23       		.byte	0x23
 1114 049e 64       		.uleb128 0x64
 1115 049f 00       		.byte	0
 1116 04a0 14       		.uleb128 0x14
 1117 04a1 01       		.byte	0x1
 1118 04a2 29000000 		.4byte	0x29
 1119 04a6 BF040000 		.4byte	0x4bf
 1120 04aa 15       		.uleb128 0x15
 1121 04ab BF040000 		.4byte	0x4bf
 1122 04af 15       		.uleb128 0x15
 1123 04b0 3A010000 		.4byte	0x13a
 1124 04b4 15       		.uleb128 0x15
 1125 04b5 3C010000 		.4byte	0x13c
 1126 04b9 15       		.uleb128 0x15
 1127 04ba 29000000 		.4byte	0x29
 1128 04be 00       		.byte	0
 1129 04bf 05       		.uleb128 0x5
 1130 04c0 04       		.byte	0x4
 1131 04c1 CA040000 		.4byte	0x4ca
 1132 04c5 0F       		.uleb128 0xf
 1133 04c6 BF040000 		.4byte	0x4bf
 1134 04ca 16       		.uleb128 0x16
 1135 04cb 7E050000 		.4byte	.LASF68
ARM GAS  C:\Users\EBANO_~1\AppData\Local\Temp\ccBx8b8i.s 			page 25


 1136 04cf 2804     		.2byte	0x428
 1137 04d1 06       		.byte	0x6
 1138 04d2 6002     		.2byte	0x260
 1139 04d4 28060000 		.4byte	0x628
 1140 04d8 17       		.uleb128 0x17
 1141 04d9 E9050000 		.4byte	.LASF69
 1142 04dd 06       		.byte	0x6
 1143 04de 6202     		.2byte	0x262
 1144 04e0 29000000 		.4byte	0x29
 1145 04e4 02       		.byte	0x2
 1146 04e5 23       		.byte	0x23
 1147 04e6 00       		.uleb128 0
 1148 04e7 17       		.uleb128 0x17
 1149 04e8 EE060000 		.4byte	.LASF70
 1150 04ec 06       		.byte	0x6
 1151 04ed 6702     		.2byte	0x267
 1152 04ef 06070000 		.4byte	0x706
 1153 04f3 02       		.byte	0x2
 1154 04f4 23       		.byte	0x23
 1155 04f5 04       		.uleb128 0x4
 1156 04f6 17       		.uleb128 0x17
 1157 04f7 AF020000 		.4byte	.LASF71
 1158 04fb 06       		.byte	0x6
 1159 04fc 6702     		.2byte	0x267
 1160 04fe 06070000 		.4byte	0x706
 1161 0502 02       		.byte	0x2
 1162 0503 23       		.byte	0x23
 1163 0504 08       		.uleb128 0x8
 1164 0505 17       		.uleb128 0x17
 1165 0506 5D020000 		.4byte	.LASF72
 1166 050a 06       		.byte	0x6
 1167 050b 6702     		.2byte	0x267
 1168 050d 06070000 		.4byte	0x706
 1169 0511 02       		.byte	0x2
 1170 0512 23       		.byte	0x23
 1171 0513 0C       		.uleb128 0xc
 1172 0514 17       		.uleb128 0x17
 1173 0515 35050000 		.4byte	.LASF73
 1174 0519 06       		.byte	0x6
 1175 051a 6902     		.2byte	0x269
 1176 051c 29000000 		.4byte	0x29
 1177 0520 02       		.byte	0x2
 1178 0521 23       		.byte	0x23
 1179 0522 10       		.uleb128 0x10
 1180 0523 17       		.uleb128 0x17
 1181 0524 52000000 		.4byte	.LASF74
 1182 0528 06       		.byte	0x6
 1183 0529 6A02     		.2byte	0x26a
 1184 052b 21090000 		.4byte	0x921
 1185 052f 02       		.byte	0x2
 1186 0530 23       		.byte	0x23
 1187 0531 14       		.uleb128 0x14
 1188 0532 17       		.uleb128 0x17
 1189 0533 5D050000 		.4byte	.LASF75
 1190 0537 06       		.byte	0x6
 1191 0538 6D02     		.2byte	0x26d
 1192 053a 29000000 		.4byte	0x29
ARM GAS  C:\Users\EBANO_~1\AppData\Local\Temp\ccBx8b8i.s 			page 26


 1193 053e 02       		.byte	0x2
 1194 053f 23       		.byte	0x23
 1195 0540 30       		.uleb128 0x30
 1196 0541 17       		.uleb128 0x17
 1197 0542 4B050000 		.4byte	.LASF76
 1198 0546 06       		.byte	0x6
 1199 0547 6E02     		.2byte	0x26e
 1200 0549 37090000 		.4byte	0x937
 1201 054d 02       		.byte	0x2
 1202 054e 23       		.byte	0x23
 1203 054f 34       		.uleb128 0x34
 1204 0550 17       		.uleb128 0x17
 1205 0551 B6030000 		.4byte	.LASF77
 1206 0555 06       		.byte	0x6
 1207 0556 7002     		.2byte	0x270
 1208 0558 29000000 		.4byte	0x29
 1209 055c 02       		.byte	0x2
 1210 055d 23       		.byte	0x23
 1211 055e 38       		.uleb128 0x38
 1212 055f 17       		.uleb128 0x17
 1213 0560 53050000 		.4byte	.LASF78
 1214 0564 06       		.byte	0x6
 1215 0565 7202     		.2byte	0x272
 1216 0567 49090000 		.4byte	0x949
 1217 056b 02       		.byte	0x2
 1218 056c 23       		.byte	0x23
 1219 056d 3C       		.uleb128 0x3c
 1220 056e 17       		.uleb128 0x17
 1221 056f 08030000 		.4byte	.LASF79
 1222 0573 06       		.byte	0x6
 1223 0574 7502     		.2byte	0x275
 1224 0576 B8010000 		.4byte	0x1b8
 1225 057a 02       		.byte	0x2
 1226 057b 23       		.byte	0x23
 1227 057c 40       		.uleb128 0x40
 1228 057d 17       		.uleb128 0x17
 1229 057e C5010000 		.4byte	.LASF80
 1230 0582 06       		.byte	0x6
 1231 0583 7602     		.2byte	0x276
 1232 0585 29000000 		.4byte	0x29
 1233 0589 02       		.byte	0x2
 1234 058a 23       		.byte	0x23
 1235 058b 44       		.uleb128 0x44
 1236 058c 17       		.uleb128 0x17
 1237 058d E7070000 		.4byte	.LASF81
 1238 0591 06       		.byte	0x6
 1239 0592 7702     		.2byte	0x277
 1240 0594 B8010000 		.4byte	0x1b8
 1241 0598 02       		.byte	0x2
 1242 0599 23       		.byte	0x23
 1243 059a 48       		.uleb128 0x48
 1244 059b 17       		.uleb128 0x17
 1245 059c DD030000 		.4byte	.LASF82
 1246 05a0 06       		.byte	0x6
 1247 05a1 7802     		.2byte	0x278
 1248 05a3 4F090000 		.4byte	0x94f
 1249 05a7 02       		.byte	0x2
ARM GAS  C:\Users\EBANO_~1\AppData\Local\Temp\ccBx8b8i.s 			page 27


 1250 05a8 23       		.byte	0x23
 1251 05a9 4C       		.uleb128 0x4c
 1252 05aa 17       		.uleb128 0x17
 1253 05ab B7020000 		.4byte	.LASF83
 1254 05af 06       		.byte	0x6
 1255 05b0 7B02     		.2byte	0x27b
 1256 05b2 29000000 		.4byte	0x29
 1257 05b6 02       		.byte	0x2
 1258 05b7 23       		.byte	0x23
 1259 05b8 50       		.uleb128 0x50
 1260 05b9 17       		.uleb128 0x17
 1261 05ba ED010000 		.4byte	.LASF84
 1262 05be 06       		.byte	0x6
 1263 05bf 7C02     		.2byte	0x27c
 1264 05c1 3C010000 		.4byte	0x13c
 1265 05c5 02       		.byte	0x2
 1266 05c6 23       		.byte	0x23
 1267 05c7 54       		.uleb128 0x54
 1268 05c8 17       		.uleb128 0x17
 1269 05c9 28030000 		.4byte	.LASF85
 1270 05cd 06       		.byte	0x6
 1271 05ce 9F02     		.2byte	0x29f
 1272 05d0 FF080000 		.4byte	0x8ff
 1273 05d4 02       		.byte	0x2
 1274 05d5 23       		.byte	0x23
 1275 05d6 58       		.uleb128 0x58
 1276 05d7 17       		.uleb128 0x17
 1277 05d8 A4030000 		.4byte	.LASF45
 1278 05dc 06       		.byte	0x6
 1279 05dd A302     		.2byte	0x2a3
 1280 05df F9020000 		.4byte	0x2f9
 1281 05e3 03       		.byte	0x3
 1282 05e4 23       		.byte	0x23
 1283 05e5 C802     		.uleb128 0x148
 1284 05e7 17       		.uleb128 0x17
 1285 05e8 7A000000 		.4byte	.LASF86
 1286 05ec 06       		.byte	0x6
 1287 05ed A402     		.2byte	0x2a4
 1288 05ef B2020000 		.4byte	0x2b2
 1289 05f3 03       		.byte	0x3
 1290 05f4 23       		.byte	0x23
 1291 05f5 CC02     		.uleb128 0x14c
 1292 05f7 17       		.uleb128 0x17
 1293 05f8 17070000 		.4byte	.LASF87
 1294 05fc 06       		.byte	0x6
 1295 05fd A802     		.2byte	0x2a8
 1296 05ff 61090000 		.4byte	0x961
 1297 0603 03       		.byte	0x3
 1298 0604 23       		.byte	0x23
 1299 0605 DC05     		.uleb128 0x2dc
 1300 0607 17       		.uleb128 0x17
 1301 0608 83010000 		.4byte	.LASF88
 1302 060c 06       		.byte	0x6
 1303 060d AD02     		.2byte	0x2ad
 1304 060f C5060000 		.4byte	0x6c5
 1305 0613 03       		.byte	0x3
 1306 0614 23       		.byte	0x23
ARM GAS  C:\Users\EBANO_~1\AppData\Local\Temp\ccBx8b8i.s 			page 28


 1307 0615 E005     		.uleb128 0x2e0
 1308 0617 17       		.uleb128 0x17
 1309 0618 55010000 		.4byte	.LASF89
 1310 061c 06       		.byte	0x6
 1311 061d AF02     		.2byte	0x2af
 1312 061f 6D090000 		.4byte	0x96d
 1313 0623 03       		.byte	0x3
 1314 0624 23       		.byte	0x23
 1315 0625 EC05     		.uleb128 0x2ec
 1316 0627 00       		.byte	0
 1317 0628 05       		.uleb128 0x5
 1318 0629 04       		.byte	0x4
 1319 062a A0040000 		.4byte	0x4a0
 1320 062e 14       		.uleb128 0x14
 1321 062f 01       		.byte	0x1
 1322 0630 29000000 		.4byte	0x29
 1323 0634 4D060000 		.4byte	0x64d
 1324 0638 15       		.uleb128 0x15
 1325 0639 BF040000 		.4byte	0x4bf
 1326 063d 15       		.uleb128 0x15
 1327 063e 3A010000 		.4byte	0x13a
 1328 0642 15       		.uleb128 0x15
 1329 0643 4D060000 		.4byte	0x64d
 1330 0647 15       		.uleb128 0x15
 1331 0648 29000000 		.4byte	0x29
 1332 064c 00       		.byte	0
 1333 064d 05       		.uleb128 0x5
 1334 064e 04       		.byte	0x4
 1335 064f 49010000 		.4byte	0x149
 1336 0653 05       		.uleb128 0x5
 1337 0654 04       		.byte	0x4
 1338 0655 2E060000 		.4byte	0x62e
 1339 0659 14       		.uleb128 0x14
 1340 065a 01       		.byte	0x1
 1341 065b B9000000 		.4byte	0xb9
 1342 065f 78060000 		.4byte	0x678
 1343 0663 15       		.uleb128 0x15
 1344 0664 BF040000 		.4byte	0x4bf
 1345 0668 15       		.uleb128 0x15
 1346 0669 3A010000 		.4byte	0x13a
 1347 066d 15       		.uleb128 0x15
 1348 066e B9000000 		.4byte	0xb9
 1349 0672 15       		.uleb128 0x15
 1350 0673 29000000 		.4byte	0x29
 1351 0677 00       		.byte	0
 1352 0678 05       		.uleb128 0x5
 1353 0679 04       		.byte	0x4
 1354 067a 59060000 		.4byte	0x659
 1355 067e 14       		.uleb128 0x14
 1356 067f 01       		.byte	0x1
 1357 0680 29000000 		.4byte	0x29
 1358 0684 93060000 		.4byte	0x693
 1359 0688 15       		.uleb128 0x15
 1360 0689 BF040000 		.4byte	0x4bf
 1361 068d 15       		.uleb128 0x15
 1362 068e 3A010000 		.4byte	0x13a
 1363 0692 00       		.byte	0
ARM GAS  C:\Users\EBANO_~1\AppData\Local\Temp\ccBx8b8i.s 			page 29


 1364 0693 05       		.uleb128 0x5
 1365 0694 04       		.byte	0x4
 1366 0695 7E060000 		.4byte	0x67e
 1367 0699 0A       		.uleb128 0xa
 1368 069a 57000000 		.4byte	0x57
 1369 069e A9060000 		.4byte	0x6a9
 1370 06a2 0B       		.uleb128 0xb
 1371 06a3 30000000 		.4byte	0x30
 1372 06a7 02       		.byte	0x2
 1373 06a8 00       		.byte	0
 1374 06a9 0A       		.uleb128 0xa
 1375 06aa 57000000 		.4byte	0x57
 1376 06ae B9060000 		.4byte	0x6b9
 1377 06b2 0B       		.uleb128 0xb
 1378 06b3 30000000 		.4byte	0x30
 1379 06b7 00       		.byte	0
 1380 06b8 00       		.byte	0
 1381 06b9 07       		.uleb128 0x7
 1382 06ba FF040000 		.4byte	.LASF90
 1383 06be 06       		.byte	0x6
 1384 06bf 1F01     		.2byte	0x11f
 1385 06c1 46030000 		.4byte	0x346
 1386 06c5 18       		.uleb128 0x18
 1387 06c6 E8060000 		.4byte	.LASF91
 1388 06ca 0C       		.byte	0xc
 1389 06cb 06       		.byte	0x6
 1390 06cc 2301     		.2byte	0x123
 1391 06ce 00070000 		.4byte	0x700
 1392 06d2 17       		.uleb128 0x17
 1393 06d3 3C060000 		.4byte	.LASF25
 1394 06d7 06       		.byte	0x6
 1395 06d8 2501     		.2byte	0x125
 1396 06da 00070000 		.4byte	0x700
 1397 06de 02       		.byte	0x2
 1398 06df 23       		.byte	0x23
 1399 06e0 00       		.uleb128 0
 1400 06e1 17       		.uleb128 0x17
 1401 06e2 DD020000 		.4byte	.LASF92
 1402 06e6 06       		.byte	0x6
 1403 06e7 2601     		.2byte	0x126
 1404 06e9 29000000 		.4byte	0x29
 1405 06ed 02       		.byte	0x2
 1406 06ee 23       		.byte	0x23
 1407 06ef 04       		.uleb128 0x4
 1408 06f0 17       		.uleb128 0x17
 1409 06f1 B5040000 		.4byte	.LASF93
 1410 06f5 06       		.byte	0x6
 1411 06f6 2701     		.2byte	0x127
 1412 06f8 06070000 		.4byte	0x706
 1413 06fc 02       		.byte	0x2
 1414 06fd 23       		.byte	0x23
 1415 06fe 08       		.uleb128 0x8
 1416 06ff 00       		.byte	0
 1417 0700 05       		.uleb128 0x5
 1418 0701 04       		.byte	0x4
 1419 0702 C5060000 		.4byte	0x6c5
 1420 0706 05       		.uleb128 0x5
ARM GAS  C:\Users\EBANO_~1\AppData\Local\Temp\ccBx8b8i.s 			page 30


 1421 0707 04       		.byte	0x4
 1422 0708 B9060000 		.4byte	0x6b9
 1423 070c 18       		.uleb128 0x18
 1424 070d 3B000000 		.4byte	.LASF94
 1425 0711 0E       		.byte	0xe
 1426 0712 06       		.byte	0x6
 1427 0713 3F01     		.2byte	0x13f
 1428 0715 47070000 		.4byte	0x747
 1429 0719 17       		.uleb128 0x17
 1430 071a 85050000 		.4byte	.LASF95
 1431 071e 06       		.byte	0x6
 1432 071f 4001     		.2byte	0x140
 1433 0721 47070000 		.4byte	0x747
 1434 0725 02       		.byte	0x2
 1435 0726 23       		.byte	0x23
 1436 0727 00       		.uleb128 0
 1437 0728 17       		.uleb128 0x17
 1438 0729 33030000 		.4byte	.LASF96
 1439 072d 06       		.byte	0x6
 1440 072e 4101     		.2byte	0x141
 1441 0730 47070000 		.4byte	0x747
 1442 0734 02       		.byte	0x2
 1443 0735 23       		.byte	0x23
 1444 0736 06       		.uleb128 0x6
 1445 0737 17       		.uleb128 0x17
 1446 0738 6B060000 		.4byte	.LASF97
 1447 073c 06       		.byte	0x6
 1448 073d 4201     		.2byte	0x142
 1449 073f 70000000 		.4byte	0x70
 1450 0743 02       		.byte	0x2
 1451 0744 23       		.byte	0x23
 1452 0745 0C       		.uleb128 0xc
 1453 0746 00       		.byte	0
 1454 0747 0A       		.uleb128 0xa
 1455 0748 70000000 		.4byte	0x70
 1456 074c 57070000 		.4byte	0x757
 1457 0750 0B       		.uleb128 0xb
 1458 0751 30000000 		.4byte	0x30
 1459 0755 02       		.byte	0x2
 1460 0756 00       		.byte	0
 1461 0757 19       		.uleb128 0x19
 1462 0758 D0       		.byte	0xd0
 1463 0759 06       		.byte	0x6
 1464 075a 8002     		.2byte	0x280
 1465 075c 87080000 		.4byte	0x887
 1466 0760 17       		.uleb128 0x17
 1467 0761 C3060000 		.4byte	.LASF98
 1468 0765 06       		.byte	0x6
 1469 0766 8202     		.2byte	0x282
 1470 0768 30000000 		.4byte	0x30
 1471 076c 02       		.byte	0x2
 1472 076d 23       		.byte	0x23
 1473 076e 00       		.uleb128 0
 1474 076f 17       		.uleb128 0x17
 1475 0770 42060000 		.4byte	.LASF99
 1476 0774 06       		.byte	0x6
 1477 0775 8302     		.2byte	0x283
ARM GAS  C:\Users\EBANO_~1\AppData\Local\Temp\ccBx8b8i.s 			page 31


 1478 0777 3C010000 		.4byte	0x13c
 1479 077b 02       		.byte	0x2
 1480 077c 23       		.byte	0x23
 1481 077d 04       		.uleb128 0x4
 1482 077e 17       		.uleb128 0x17
 1483 077f FB020000 		.4byte	.LASF100
 1484 0783 06       		.byte	0x6
 1485 0784 8402     		.2byte	0x284
 1486 0786 87080000 		.4byte	0x887
 1487 078a 02       		.byte	0x2
 1488 078b 23       		.byte	0x23
 1489 078c 08       		.uleb128 0x8
 1490 078d 17       		.uleb128 0x17
 1491 078e AD070000 		.4byte	.LASF101
 1492 0792 06       		.byte	0x6
 1493 0793 8502     		.2byte	0x285
 1494 0795 CE010000 		.4byte	0x1ce
 1495 0799 02       		.byte	0x2
 1496 079a 23       		.byte	0x23
 1497 079b 24       		.uleb128 0x24
 1498 079c 17       		.uleb128 0x17
 1499 079d C1030000 		.4byte	.LASF102
 1500 07a1 06       		.byte	0x6
 1501 07a2 8602     		.2byte	0x286
 1502 07a4 29000000 		.4byte	0x29
 1503 07a8 02       		.byte	0x2
 1504 07a9 23       		.byte	0x23
 1505 07aa 48       		.uleb128 0x48
 1506 07ab 17       		.uleb128 0x17
 1507 07ac E4020000 		.4byte	.LASF103
 1508 07b0 06       		.byte	0x6
 1509 07b1 8702     		.2byte	0x287
 1510 07b3 90000000 		.4byte	0x90
 1511 07b7 02       		.byte	0x2
 1512 07b8 23       		.byte	0x23
 1513 07b9 50       		.uleb128 0x50
 1514 07ba 17       		.uleb128 0x17
 1515 07bb C5070000 		.4byte	.LASF104
 1516 07bf 06       		.byte	0x6
 1517 07c0 8802     		.2byte	0x288
 1518 07c2 0C070000 		.4byte	0x70c
 1519 07c6 02       		.byte	0x2
 1520 07c7 23       		.byte	0x23
 1521 07c8 58       		.uleb128 0x58
 1522 07c9 17       		.uleb128 0x17
 1523 07ca 28050000 		.4byte	.LASF105
 1524 07ce 06       		.byte	0x6
 1525 07cf 8902     		.2byte	0x289
 1526 07d1 24010000 		.4byte	0x124
 1527 07d5 02       		.byte	0x2
 1528 07d6 23       		.byte	0x23
 1529 07d7 68       		.uleb128 0x68
 1530 07d8 17       		.uleb128 0x17
 1531 07d9 CA070000 		.4byte	.LASF106
 1532 07dd 06       		.byte	0x6
 1533 07de 8A02     		.2byte	0x28a
 1534 07e0 24010000 		.4byte	0x124
ARM GAS  C:\Users\EBANO_~1\AppData\Local\Temp\ccBx8b8i.s 			page 32


 1535 07e4 02       		.byte	0x2
 1536 07e5 23       		.byte	0x23
 1537 07e6 70       		.uleb128 0x70
 1538 07e7 17       		.uleb128 0x17
 1539 07e8 01040000 		.4byte	.LASF107
 1540 07ec 06       		.byte	0x6
 1541 07ed 8B02     		.2byte	0x28b
 1542 07ef 24010000 		.4byte	0x124
 1543 07f3 02       		.byte	0x2
 1544 07f4 23       		.byte	0x23
 1545 07f5 78       		.uleb128 0x78
 1546 07f6 17       		.uleb128 0x17
 1547 07f7 0D070000 		.4byte	.LASF108
 1548 07fb 06       		.byte	0x6
 1549 07fc 8C02     		.2byte	0x28c
 1550 07fe 97080000 		.4byte	0x897
 1551 0802 03       		.byte	0x3
 1552 0803 23       		.byte	0x23
 1553 0804 8001     		.uleb128 0x80
 1554 0806 17       		.uleb128 0x17
 1555 0807 EF020000 		.4byte	.LASF109
 1556 080b 06       		.byte	0x6
 1557 080c 8D02     		.2byte	0x28d
 1558 080e A7080000 		.4byte	0x8a7
 1559 0812 03       		.byte	0x3
 1560 0813 23       		.byte	0x23
 1561 0814 8801     		.uleb128 0x88
 1562 0816 17       		.uleb128 0x17
 1563 0817 78060000 		.4byte	.LASF110
 1564 081b 06       		.byte	0x6
 1565 081c 8E02     		.2byte	0x28e
 1566 081e 29000000 		.4byte	0x29
 1567 0822 03       		.byte	0x3
 1568 0823 23       		.byte	0x23
 1569 0824 A001     		.uleb128 0xa0
 1570 0826 17       		.uleb128 0x17
 1571 0827 0E020000 		.4byte	.LASF111
 1572 082b 06       		.byte	0x6
 1573 082c 8F02     		.2byte	0x28f
 1574 082e 24010000 		.4byte	0x124
 1575 0832 03       		.byte	0x3
 1576 0833 23       		.byte	0x23
 1577 0834 A401     		.uleb128 0xa4
 1578 0836 17       		.uleb128 0x17
 1579 0837 05010000 		.4byte	.LASF112
 1580 083b 06       		.byte	0x6
 1581 083c 9002     		.2byte	0x290
 1582 083e 24010000 		.4byte	0x124
 1583 0842 03       		.byte	0x3
 1584 0843 23       		.byte	0x23
 1585 0844 AC01     		.uleb128 0xac
 1586 0846 17       		.uleb128 0x17
 1587 0847 FD010000 		.4byte	.LASF113
 1588 084b 06       		.byte	0x6
 1589 084c 9102     		.2byte	0x291
 1590 084e 24010000 		.4byte	0x124
 1591 0852 03       		.byte	0x3
ARM GAS  C:\Users\EBANO_~1\AppData\Local\Temp\ccBx8b8i.s 			page 33


 1592 0853 23       		.byte	0x23
 1593 0854 B401     		.uleb128 0xb4
 1594 0856 17       		.uleb128 0x17
 1595 0857 83000000 		.4byte	.LASF114
 1596 085b 06       		.byte	0x6
 1597 085c 9202     		.2byte	0x292
 1598 085e 24010000 		.4byte	0x124
 1599 0862 03       		.byte	0x3
 1600 0863 23       		.byte	0x23
 1601 0864 BC01     		.uleb128 0xbc
 1602 0866 17       		.uleb128 0x17
 1603 0867 92000000 		.4byte	.LASF115
 1604 086b 06       		.byte	0x6
 1605 086c 9302     		.2byte	0x293
 1606 086e 24010000 		.4byte	0x124
 1607 0872 03       		.byte	0x3
 1608 0873 23       		.byte	0x23
 1609 0874 C401     		.uleb128 0xc4
 1610 0876 17       		.uleb128 0x17
 1611 0877 BB040000 		.4byte	.LASF116
 1612 087b 06       		.byte	0x6
 1613 087c 9402     		.2byte	0x294
 1614 087e 29000000 		.4byte	0x29
 1615 0882 03       		.byte	0x3
 1616 0883 23       		.byte	0x23
 1617 0884 CC01     		.uleb128 0xcc
 1618 0886 00       		.byte	0
 1619 0887 0A       		.uleb128 0xa
 1620 0888 42010000 		.4byte	0x142
 1621 088c 97080000 		.4byte	0x897
 1622 0890 0B       		.uleb128 0xb
 1623 0891 30000000 		.4byte	0x30
 1624 0895 19       		.byte	0x19
 1625 0896 00       		.byte	0
 1626 0897 0A       		.uleb128 0xa
 1627 0898 42010000 		.4byte	0x142
 1628 089c A7080000 		.4byte	0x8a7
 1629 08a0 0B       		.uleb128 0xb
 1630 08a1 30000000 		.4byte	0x30
 1631 08a5 07       		.byte	0x7
 1632 08a6 00       		.byte	0
 1633 08a7 0A       		.uleb128 0xa
 1634 08a8 42010000 		.4byte	0x142
 1635 08ac B7080000 		.4byte	0x8b7
 1636 08b0 0B       		.uleb128 0xb
 1637 08b1 30000000 		.4byte	0x30
 1638 08b5 17       		.byte	0x17
 1639 08b6 00       		.byte	0
 1640 08b7 19       		.uleb128 0x19
 1641 08b8 F0       		.byte	0xf0
 1642 08b9 06       		.byte	0x6
 1643 08ba 9902     		.2byte	0x299
 1644 08bc DF080000 		.4byte	0x8df
 1645 08c0 17       		.uleb128 0x17
 1646 08c1 82030000 		.4byte	.LASF117
 1647 08c5 06       		.byte	0x6
 1648 08c6 9C02     		.2byte	0x29c
ARM GAS  C:\Users\EBANO_~1\AppData\Local\Temp\ccBx8b8i.s 			page 34


 1649 08c8 DF080000 		.4byte	0x8df
 1650 08cc 02       		.byte	0x2
 1651 08cd 23       		.byte	0x23
 1652 08ce 00       		.uleb128 0
 1653 08cf 17       		.uleb128 0x17
 1654 08d0 52030000 		.4byte	.LASF118
 1655 08d4 06       		.byte	0x6
 1656 08d5 9D02     		.2byte	0x29d
 1657 08d7 EF080000 		.4byte	0x8ef
 1658 08db 02       		.byte	0x2
 1659 08dc 23       		.byte	0x23
 1660 08dd 78       		.uleb128 0x78
 1661 08de 00       		.byte	0
 1662 08df 0A       		.uleb128 0xa
 1663 08e0 40030000 		.4byte	0x340
 1664 08e4 EF080000 		.4byte	0x8ef
 1665 08e8 0B       		.uleb128 0xb
 1666 08e9 30000000 		.4byte	0x30
 1667 08ed 1D       		.byte	0x1d
 1668 08ee 00       		.byte	0
 1669 08ef 0A       		.uleb128 0xa
 1670 08f0 30000000 		.4byte	0x30
 1671 08f4 FF080000 		.4byte	0x8ff
 1672 08f8 0B       		.uleb128 0xb
 1673 08f9 30000000 		.4byte	0x30
 1674 08fd 1D       		.byte	0x1d
 1675 08fe 00       		.byte	0
 1676 08ff 1A       		.uleb128 0x1a
 1677 0900 F0       		.byte	0xf0
 1678 0901 06       		.byte	0x6
 1679 0902 7E02     		.2byte	0x27e
 1680 0904 21090000 		.4byte	0x921
 1681 0908 1B       		.uleb128 0x1b
 1682 0909 7E050000 		.4byte	.LASF68
 1683 090d 06       		.byte	0x6
 1684 090e 9502     		.2byte	0x295
 1685 0910 57070000 		.4byte	0x757
 1686 0914 1B       		.uleb128 0x1b
 1687 0915 9A070000 		.4byte	.LASF119
 1688 0919 06       		.byte	0x6
 1689 091a 9E02     		.2byte	0x29e
 1690 091c B7080000 		.4byte	0x8b7
 1691 0920 00       		.byte	0
 1692 0921 0A       		.uleb128 0xa
 1693 0922 42010000 		.4byte	0x142
 1694 0926 31090000 		.4byte	0x931
 1695 092a 0B       		.uleb128 0xb
 1696 092b 30000000 		.4byte	0x30
 1697 092f 18       		.byte	0x18
 1698 0930 00       		.byte	0
 1699 0931 06       		.uleb128 0x6
 1700 0932 D2000000 		.4byte	.LASF121
 1701 0936 01       		.byte	0x1
 1702 0937 05       		.uleb128 0x5
 1703 0938 04       		.byte	0x4
 1704 0939 31090000 		.4byte	0x931
 1705 093d 1C       		.uleb128 0x1c
ARM GAS  C:\Users\EBANO_~1\AppData\Local\Temp\ccBx8b8i.s 			page 35


 1706 093e 01       		.byte	0x1
 1707 093f 49090000 		.4byte	0x949
 1708 0943 15       		.uleb128 0x15
 1709 0944 BF040000 		.4byte	0x4bf
 1710 0948 00       		.byte	0
 1711 0949 05       		.uleb128 0x5
 1712 094a 04       		.byte	0x4
 1713 094b 3D090000 		.4byte	0x93d
 1714 094f 05       		.uleb128 0x5
 1715 0950 04       		.byte	0x4
 1716 0951 B8010000 		.4byte	0x1b8
 1717 0955 1C       		.uleb128 0x1c
 1718 0956 01       		.byte	0x1
 1719 0957 61090000 		.4byte	0x961
 1720 095b 15       		.uleb128 0x15
 1721 095c 29000000 		.4byte	0x29
 1722 0960 00       		.byte	0
 1723 0961 05       		.uleb128 0x5
 1724 0962 04       		.byte	0x4
 1725 0963 67090000 		.4byte	0x967
 1726 0967 05       		.uleb128 0x5
 1727 0968 04       		.byte	0x4
 1728 0969 55090000 		.4byte	0x955
 1729 096d 0A       		.uleb128 0xa
 1730 096e B9060000 		.4byte	0x6b9
 1731 0972 7D090000 		.4byte	0x97d
 1732 0976 0B       		.uleb128 0xb
 1733 0977 30000000 		.4byte	0x30
 1734 097b 02       		.byte	0x2
 1735 097c 00       		.byte	0
 1736 097d 1D       		.uleb128 0x1d
 1737 097e 51020000 		.4byte	.LASF122
 1738 0982 06       		.byte	0x6
 1739 0983 2E03     		.2byte	0x32e
 1740 0985 BF040000 		.4byte	0x4bf
 1741 0989 01       		.byte	0x1
 1742 098a 01       		.byte	0x1
 1743 098b 1D       		.uleb128 0x1d
 1744 098c A2060000 		.4byte	.LASF123
 1745 0990 06       		.byte	0x6
 1746 0991 2F03     		.2byte	0x32f
 1747 0993 C5040000 		.4byte	0x4c5
 1748 0997 01       		.byte	0x1
 1749 0998 01       		.byte	0x1
 1750 0999 03       		.uleb128 0x3
 1751 099a 04       		.byte	0x4
 1752 099b 04       		.byte	0x4
 1753 099c D7030000 		.4byte	.LASF124
 1754 09a0 03       		.uleb128 0x3
 1755 09a1 08       		.byte	0x8
 1756 09a2 04       		.byte	0x4
 1757 09a3 E6010000 		.4byte	.LASF125
 1758 09a7 1E       		.uleb128 0x1e
 1759 09a8 85060000 		.4byte	.LASF164
 1760 09ac 05       		.byte	0x5
 1761 09ad 01       		.byte	0x1
 1762 09ae 45000000 		.4byte	0x45
ARM GAS  C:\Users\EBANO_~1\AppData\Local\Temp\ccBx8b8i.s 			page 36


 1763 09b2 07       		.byte	0x7
 1764 09b3 8202     		.2byte	0x282
 1765 09b5 D2090000 		.4byte	0x9d2
 1766 09b9 1F       		.uleb128 0x1f
 1767 09ba B5060000 		.4byte	.LASF126
 1768 09be 7F       		.sleb128 -1
 1769 09bf 20       		.uleb128 0x20
 1770 09c0 B7010000 		.4byte	.LASF127
 1771 09c4 00       		.byte	0
 1772 09c5 20       		.uleb128 0x20
 1773 09c6 43000000 		.4byte	.LASF128
 1774 09ca 01       		.byte	0x1
 1775 09cb 20       		.uleb128 0x20
 1776 09cc BA000000 		.4byte	.LASF129
 1777 09d0 02       		.byte	0x2
 1778 09d1 00       		.byte	0
 1779 09d2 1D       		.uleb128 0x1d
 1780 09d3 F5060000 		.4byte	.LASF130
 1781 09d7 07       		.byte	0x7
 1782 09d8 8D02     		.2byte	0x28d
 1783 09da A7090000 		.4byte	0x9a7
 1784 09de 01       		.byte	0x1
 1785 09df 01       		.byte	0x1
 1786 09e0 04       		.uleb128 0x4
 1787 09e1 05070000 		.4byte	.LASF131
 1788 09e5 08       		.byte	0x8
 1789 09e6 18       		.byte	0x18
 1790 09e7 4C000000 		.4byte	0x4c
 1791 09eb 0F       		.uleb128 0xf
 1792 09ec E0090000 		.4byte	0x9e0
 1793 09f0 04       		.uleb128 0x4
 1794 09f1 DD010000 		.4byte	.LASF132
 1795 09f5 08       		.byte	0x8
 1796 09f6 24       		.byte	0x24
 1797 09f7 65000000 		.4byte	0x65
 1798 09fb 04       		.uleb128 0x4
 1799 09fc EC070000 		.4byte	.LASF133
 1800 0a00 08       		.byte	0x8
 1801 0a01 30       		.byte	0x30
 1802 0a02 7E000000 		.4byte	0x7e
 1803 0a06 21       		.uleb128 0x21
 1804 0a07 9F020000 		.4byte	.LASF134
 1805 0a0b 09       		.byte	0x9
 1806 0a0c 4A       		.byte	0x4a
 1807 0a0d FB090000 		.4byte	0x9fb
 1808 0a11 01       		.byte	0x1
 1809 0a12 01       		.byte	0x1
 1810 0a13 0A       		.uleb128 0xa
 1811 0a14 EB090000 		.4byte	0x9eb
 1812 0a18 230A0000 		.4byte	0xa23
 1813 0a1c 0B       		.uleb128 0xb
 1814 0a1d 30000000 		.4byte	0x30
 1815 0a21 0F       		.byte	0xf
 1816 0a22 00       		.byte	0
 1817 0a23 0F       		.uleb128 0xf
 1818 0a24 130A0000 		.4byte	0xa13
 1819 0a28 21       		.uleb128 0x21
ARM GAS  C:\Users\EBANO_~1\AppData\Local\Temp\ccBx8b8i.s 			page 37


 1820 0a29 2E060000 		.4byte	.LASF135
 1821 0a2d 09       		.byte	0x9
 1822 0a2e 4D       		.byte	0x4d
 1823 0a2f 230A0000 		.4byte	0xa23
 1824 0a33 01       		.byte	0x1
 1825 0a34 01       		.byte	0x1
 1826 0a35 0A       		.uleb128 0xa
 1827 0a36 EB090000 		.4byte	0x9eb
 1828 0a3a 450A0000 		.4byte	0xa45
 1829 0a3e 0B       		.uleb128 0xb
 1830 0a3f 30000000 		.4byte	0x30
 1831 0a43 07       		.byte	0x7
 1832 0a44 00       		.byte	0
 1833 0a45 0F       		.uleb128 0xf
 1834 0a46 350A0000 		.4byte	0xa35
 1835 0a4a 21       		.uleb128 0x21
 1836 0a4b 6D020000 		.4byte	.LASF136
 1837 0a4f 09       		.byte	0x9
 1838 0a50 4E       		.byte	0x4e
 1839 0a51 450A0000 		.4byte	0xa45
 1840 0a55 01       		.byte	0x1
 1841 0a56 01       		.byte	0x1
 1842 0a57 0A       		.uleb128 0xa
 1843 0a58 EB090000 		.4byte	0x9eb
 1844 0a5c 670A0000 		.4byte	0xa67
 1845 0a60 0B       		.uleb128 0xb
 1846 0a61 30000000 		.4byte	0x30
 1847 0a65 08       		.byte	0x8
 1848 0a66 00       		.byte	0
 1849 0a67 0F       		.uleb128 0xf
 1850 0a68 570A0000 		.4byte	0xa57
 1851 0a6c 21       		.uleb128 0x21
 1852 0a6d 5B030000 		.4byte	.LASF137
 1853 0a71 09       		.byte	0x9
 1854 0a72 4F       		.byte	0x4f
 1855 0a73 670A0000 		.4byte	0xa67
 1856 0a77 01       		.byte	0x1
 1857 0a78 01       		.byte	0x1
 1858 0a79 21       		.uleb128 0x21
 1859 0a7a AC030000 		.4byte	.LASF138
 1860 0a7e 0A       		.byte	0xa
 1861 0a7f 63       		.byte	0x63
 1862 0a80 3C010000 		.4byte	0x13c
 1863 0a84 01       		.byte	0x1
 1864 0a85 01       		.byte	0x1
 1865 0a86 21       		.uleb128 0x21
 1866 0a87 F7030000 		.4byte	.LASF139
 1867 0a8b 0B       		.byte	0xb
 1868 0a8c 9A       		.byte	0x9a
 1869 0a8d 77000000 		.4byte	0x77
 1870 0a91 01       		.byte	0x1
 1871 0a92 01       		.byte	0x1
 1872 0a93 21       		.uleb128 0x21
 1873 0a94 5D000000 		.4byte	.LASF140
 1874 0a98 0B       		.byte	0xb
 1875 0a99 9B       		.byte	0x9b
 1876 0a9a 29000000 		.4byte	0x29
ARM GAS  C:\Users\EBANO_~1\AppData\Local\Temp\ccBx8b8i.s 			page 38


 1877 0a9e 01       		.byte	0x1
 1878 0a9f 01       		.byte	0x1
 1879 0aa0 0A       		.uleb128 0xa
 1880 0aa1 3C010000 		.4byte	0x13c
 1881 0aa5 B00A0000 		.4byte	0xab0
 1882 0aa9 0B       		.uleb128 0xb
 1883 0aaa 30000000 		.4byte	0x30
 1884 0aae 01       		.byte	0x1
 1885 0aaf 00       		.byte	0
 1886 0ab0 21       		.uleb128 0x21
 1887 0ab1 14010000 		.4byte	.LASF141
 1888 0ab5 0B       		.byte	0xb
 1889 0ab6 9E       		.byte	0x9e
 1890 0ab7 A00A0000 		.4byte	0xaa0
 1891 0abb 01       		.byte	0x1
 1892 0abc 01       		.byte	0x1
 1893 0abd 22       		.uleb128 0x22
 1894 0abe 01       		.byte	0x1
 1895 0abf A3010000 		.4byte	.LASF142
 1896 0ac3 01       		.byte	0x1
 1897 0ac4 D0       		.byte	0xd0
 1898 0ac5 01       		.byte	0x1
 1899 0ac6 00000000 		.4byte	.LFB53
 1900 0aca 5C000000 		.4byte	.LFE53
 1901 0ace 00000000 		.4byte	.LLST6
 1902 0ad2 01       		.byte	0x1
 1903 0ad3 CB0B0000 		.4byte	0xbcb
 1904 0ad7 23       		.uleb128 0x23
 1905 0ad8 08000000 		.4byte	.LVL8
 1906 0adc 5F0D0000 		.4byte	0xd5f
 1907 0ae0 EA0A0000 		.4byte	0xaea
 1908 0ae4 24       		.uleb128 0x24
 1909 0ae5 01       		.byte	0x1
 1910 0ae6 50       		.byte	0x50
 1911 0ae7 01       		.byte	0x1
 1912 0ae8 40       		.byte	0x40
 1913 0ae9 00       		.byte	0
 1914 0aea 23       		.uleb128 0x23
 1915 0aeb 0E000000 		.4byte	.LVL9
 1916 0aef 5F0D0000 		.4byte	0xd5f
 1917 0af3 FE0A0000 		.4byte	0xafe
 1918 0af7 24       		.uleb128 0x24
 1919 0af8 01       		.byte	0x1
 1920 0af9 50       		.byte	0x50
 1921 0afa 02       		.byte	0x2
 1922 0afb 08       		.byte	0x8
 1923 0afc 20       		.byte	0x20
 1924 0afd 00       		.byte	0
 1925 0afe 23       		.uleb128 0x23
 1926 0aff 14000000 		.4byte	.LVL10
 1927 0b03 5F0D0000 		.4byte	0xd5f
 1928 0b07 120B0000 		.4byte	0xb12
 1929 0b0b 24       		.uleb128 0x24
 1930 0b0c 01       		.byte	0x1
 1931 0b0d 50       		.byte	0x50
 1932 0b0e 02       		.byte	0x2
 1933 0b0f 08       		.byte	0x8
ARM GAS  C:\Users\EBANO_~1\AppData\Local\Temp\ccBx8b8i.s 			page 39


 1934 0b10 40       		.byte	0x40
 1935 0b11 00       		.byte	0
 1936 0b12 23       		.uleb128 0x23
 1937 0b13 1A000000 		.4byte	.LVL11
 1938 0b17 5F0D0000 		.4byte	0xd5f
 1939 0b1b 260B0000 		.4byte	0xb26
 1940 0b1f 24       		.uleb128 0x24
 1941 0b20 01       		.byte	0x1
 1942 0b21 50       		.byte	0x50
 1943 0b22 02       		.byte	0x2
 1944 0b23 08       		.byte	0x8
 1945 0b24 80       		.byte	0x80
 1946 0b25 00       		.byte	0
 1947 0b26 23       		.uleb128 0x23
 1948 0b27 22000000 		.4byte	.LVL12
 1949 0b2b 5F0D0000 		.4byte	0xd5f
 1950 0b2f 3B0B0000 		.4byte	0xb3b
 1951 0b33 24       		.uleb128 0x24
 1952 0b34 01       		.byte	0x1
 1953 0b35 50       		.byte	0x50
 1954 0b36 03       		.byte	0x3
 1955 0b37 0A       		.byte	0xa
 1956 0b38 0001     		.2byte	0x100
 1957 0b3a 00       		.byte	0
 1958 0b3b 23       		.uleb128 0x23
 1959 0b3c 2A000000 		.4byte	.LVL13
 1960 0b40 5F0D0000 		.4byte	0xd5f
 1961 0b44 500B0000 		.4byte	0xb50
 1962 0b48 24       		.uleb128 0x24
 1963 0b49 01       		.byte	0x1
 1964 0b4a 50       		.byte	0x50
 1965 0b4b 03       		.byte	0x3
 1966 0b4c 0A       		.byte	0xa
 1967 0b4d 0002     		.2byte	0x200
 1968 0b4f 00       		.byte	0
 1969 0b50 23       		.uleb128 0x23
 1970 0b51 32000000 		.4byte	.LVL14
 1971 0b55 5F0D0000 		.4byte	0xd5f
 1972 0b59 650B0000 		.4byte	0xb65
 1973 0b5d 24       		.uleb128 0x24
 1974 0b5e 01       		.byte	0x1
 1975 0b5f 50       		.byte	0x50
 1976 0b60 03       		.byte	0x3
 1977 0b61 0A       		.byte	0xa
 1978 0b62 0004     		.2byte	0x400
 1979 0b64 00       		.byte	0
 1980 0b65 23       		.uleb128 0x23
 1981 0b66 3A000000 		.4byte	.LVL15
 1982 0b6a 5F0D0000 		.4byte	0xd5f
 1983 0b6e 7A0B0000 		.4byte	0xb7a
 1984 0b72 24       		.uleb128 0x24
 1985 0b73 01       		.byte	0x1
 1986 0b74 50       		.byte	0x50
 1987 0b75 03       		.byte	0x3
 1988 0b76 0A       		.byte	0xa
 1989 0b77 0008     		.2byte	0x800
 1990 0b79 00       		.byte	0
ARM GAS  C:\Users\EBANO_~1\AppData\Local\Temp\ccBx8b8i.s 			page 40


 1991 0b7a 23       		.uleb128 0x23
 1992 0b7b 42000000 		.4byte	.LVL16
 1993 0b7f 5F0D0000 		.4byte	0xd5f
 1994 0b83 8F0B0000 		.4byte	0xb8f
 1995 0b87 24       		.uleb128 0x24
 1996 0b88 01       		.byte	0x1
 1997 0b89 50       		.byte	0x50
 1998 0b8a 03       		.byte	0x3
 1999 0b8b 0A       		.byte	0xa
 2000 0b8c 0010     		.2byte	0x1000
 2001 0b8e 00       		.byte	0
 2002 0b8f 23       		.uleb128 0x23
 2003 0b90 4A000000 		.4byte	.LVL17
 2004 0b94 5F0D0000 		.4byte	0xd5f
 2005 0b98 A40B0000 		.4byte	0xba4
 2006 0b9c 24       		.uleb128 0x24
 2007 0b9d 01       		.byte	0x1
 2008 0b9e 50       		.byte	0x50
 2009 0b9f 03       		.byte	0x3
 2010 0ba0 0A       		.byte	0xa
 2011 0ba1 0020     		.2byte	0x2000
 2012 0ba3 00       		.byte	0
 2013 0ba4 23       		.uleb128 0x23
 2014 0ba5 52000000 		.4byte	.LVL18
 2015 0ba9 5F0D0000 		.4byte	0xd5f
 2016 0bad B90B0000 		.4byte	0xbb9
 2017 0bb1 24       		.uleb128 0x24
 2018 0bb2 01       		.byte	0x1
 2019 0bb3 50       		.byte	0x50
 2020 0bb4 03       		.byte	0x3
 2021 0bb5 0A       		.byte	0xa
 2022 0bb6 0040     		.2byte	0x4000
 2023 0bb8 00       		.byte	0
 2024 0bb9 25       		.uleb128 0x25
 2025 0bba 5A000000 		.4byte	.LVL19
 2026 0bbe 5F0D0000 		.4byte	0xd5f
 2027 0bc2 24       		.uleb128 0x24
 2028 0bc3 01       		.byte	0x1
 2029 0bc4 50       		.byte	0x50
 2030 0bc5 03       		.byte	0x3
 2031 0bc6 0B       		.byte	0xb
 2032 0bc7 0080     		.2byte	0x8000
 2033 0bc9 00       		.byte	0
 2034 0bca 00       		.byte	0
 2035 0bcb 22       		.uleb128 0x22
 2036 0bcc 01       		.byte	0x1
 2037 0bcd D0060000 		.4byte	.LASF143
 2038 0bd1 01       		.byte	0x1
 2039 0bd2 C8       		.byte	0xc8
 2040 0bd3 01       		.byte	0x1
 2041 0bd4 00000000 		.4byte	.LFB52
 2042 0bd8 10000000 		.4byte	.LFE52
 2043 0bdc 20000000 		.4byte	.LLST5
 2044 0be0 01       		.byte	0x1
 2045 0be1 080C0000 		.4byte	0xc08
 2046 0be5 23       		.uleb128 0x23
 2047 0be6 08000000 		.4byte	.LVL6
ARM GAS  C:\Users\EBANO_~1\AppData\Local\Temp\ccBx8b8i.s 			page 41


 2048 0bea 5F0D0000 		.4byte	0xd5f
 2049 0bee F80B0000 		.4byte	0xbf8
 2050 0bf2 24       		.uleb128 0x24
 2051 0bf3 01       		.byte	0x1
 2052 0bf4 50       		.byte	0x50
 2053 0bf5 01       		.byte	0x1
 2054 0bf6 34       		.byte	0x34
 2055 0bf7 00       		.byte	0
 2056 0bf8 25       		.uleb128 0x25
 2057 0bf9 0E000000 		.4byte	.LVL7
 2058 0bfd 5F0D0000 		.4byte	0xd5f
 2059 0c01 24       		.uleb128 0x24
 2060 0c02 01       		.byte	0x1
 2061 0c03 50       		.byte	0x50
 2062 0c04 01       		.byte	0x1
 2063 0c05 38       		.byte	0x38
 2064 0c06 00       		.byte	0
 2065 0c07 00       		.byte	0
 2066 0c08 22       		.uleb128 0x22
 2067 0c09 01       		.byte	0x1
 2068 0c0a CA050000 		.4byte	.LASF144
 2069 0c0e 01       		.byte	0x1
 2070 0c0f C1       		.byte	0xc1
 2071 0c10 01       		.byte	0x1
 2072 0c11 00000000 		.4byte	.LFB51
 2073 0c15 10000000 		.4byte	.LFE51
 2074 0c19 40000000 		.4byte	.LLST4
 2075 0c1d 01       		.byte	0x1
 2076 0c1e 450C0000 		.4byte	0xc45
 2077 0c22 23       		.uleb128 0x23
 2078 0c23 08000000 		.4byte	.LVL4
 2079 0c27 5F0D0000 		.4byte	0xd5f
 2080 0c2b 350C0000 		.4byte	0xc35
 2081 0c2f 24       		.uleb128 0x24
 2082 0c30 01       		.byte	0x1
 2083 0c31 50       		.byte	0x50
 2084 0c32 01       		.byte	0x1
 2085 0c33 31       		.byte	0x31
 2086 0c34 00       		.byte	0
 2087 0c35 25       		.uleb128 0x25
 2088 0c36 0E000000 		.4byte	.LVL5
 2089 0c3a 5F0D0000 		.4byte	0xd5f
 2090 0c3e 24       		.uleb128 0x24
 2091 0c3f 01       		.byte	0x1
 2092 0c40 50       		.byte	0x50
 2093 0c41 01       		.byte	0x1
 2094 0c42 32       		.byte	0x32
 2095 0c43 00       		.byte	0
 2096 0c44 00       		.byte	0
 2097 0c45 22       		.uleb128 0x22
 2098 0c46 01       		.byte	0x1
 2099 0c47 19050000 		.4byte	.LASF145
 2100 0c4b 01       		.byte	0x1
 2101 0c4c BC       		.byte	0xbc
 2102 0c4d 01       		.byte	0x1
 2103 0c4e 00000000 		.4byte	.LFB50
 2104 0c52 08000000 		.4byte	.LFE50
ARM GAS  C:\Users\EBANO_~1\AppData\Local\Temp\ccBx8b8i.s 			page 42


 2105 0c56 60000000 		.4byte	.LLST3
 2106 0c5a 01       		.byte	0x1
 2107 0c5b 690C0000 		.4byte	0xc69
 2108 0c5f 26       		.uleb128 0x26
 2109 0c60 06000000 		.4byte	.LVL3
 2110 0c64 6D0D0000 		.4byte	0xd6d
 2111 0c68 00       		.byte	0
 2112 0c69 22       		.uleb128 0x22
 2113 0c6a 01       		.byte	0x1
 2114 0c6b 32020000 		.4byte	.LASF146
 2115 0c6f 01       		.byte	0x1
 2116 0c70 B7       		.byte	0xb7
 2117 0c71 01       		.byte	0x1
 2118 0c72 00000000 		.4byte	.LFB49
 2119 0c76 08000000 		.4byte	.LFE49
 2120 0c7a 80000000 		.4byte	.LLST2
 2121 0c7e 01       		.byte	0x1
 2122 0c7f 8D0C0000 		.4byte	0xc8d
 2123 0c83 26       		.uleb128 0x26
 2124 0c84 06000000 		.4byte	.LVL2
 2125 0c88 7A0D0000 		.4byte	0xd7a
 2126 0c8c 00       		.byte	0
 2127 0c8d 22       		.uleb128 0x22
 2128 0c8e 01       		.byte	0x1
 2129 0c8f 89030000 		.4byte	.LASF147
 2130 0c93 01       		.byte	0x1
 2131 0c94 B2       		.byte	0xb2
 2132 0c95 01       		.byte	0x1
 2133 0c96 00000000 		.4byte	.LFB48
 2134 0c9a 08000000 		.4byte	.LFE48
 2135 0c9e A0000000 		.4byte	.LLST1
 2136 0ca2 01       		.byte	0x1
 2137 0ca3 B10C0000 		.4byte	0xcb1
 2138 0ca7 26       		.uleb128 0x26
 2139 0ca8 06000000 		.4byte	.LVL1
 2140 0cac 870D0000 		.4byte	0xd87
 2141 0cb0 00       		.byte	0
 2142 0cb1 22       		.uleb128 0x22
 2143 0cb2 01       		.byte	0x1
 2144 0cb3 A8050000 		.4byte	.LASF148
 2145 0cb7 01       		.byte	0x1
 2146 0cb8 9E       		.byte	0x9e
 2147 0cb9 01       		.byte	0x1
 2148 0cba 00000000 		.4byte	.LFB47
 2149 0cbe 08000000 		.4byte	.LFE47
 2150 0cc2 C0000000 		.4byte	.LLST0
 2151 0cc6 01       		.byte	0x1
 2152 0cc7 D50C0000 		.4byte	0xcd5
 2153 0ccb 26       		.uleb128 0x26
 2154 0ccc 06000000 		.4byte	.LVL0
 2155 0cd0 940D0000 		.4byte	0xd94
 2156 0cd4 00       		.byte	0
 2157 0cd5 27       		.uleb128 0x27
 2158 0cd6 01       		.byte	0x1
 2159 0cd7 D8070000 		.4byte	.LASF149
 2160 0cdb 01       		.byte	0x1
 2161 0cdc 95       		.byte	0x95
ARM GAS  C:\Users\EBANO_~1\AppData\Local\Temp\ccBx8b8i.s 			page 43


 2162 0cdd 01       		.byte	0x1
 2163 0cde 27       		.uleb128 0x27
 2164 0cdf 01       		.byte	0x1
 2165 0ce0 2A000000 		.4byte	.LASF150
 2166 0ce4 01       		.byte	0x1
 2167 0ce5 8C       		.byte	0x8c
 2168 0ce6 01       		.byte	0x1
 2169 0ce7 27       		.uleb128 0x27
 2170 0ce8 01       		.byte	0x1
 2171 0ce9 3F050000 		.4byte	.LASF151
 2172 0ced 01       		.byte	0x1
 2173 0cee 83       		.byte	0x83
 2174 0cef 01       		.byte	0x1
 2175 0cf0 28       		.uleb128 0x28
 2176 0cf1 01       		.byte	0x1
 2177 0cf2 70010000 		.4byte	.LASF152
 2178 0cf6 01       		.byte	0x1
 2179 0cf7 76       		.byte	0x76
 2180 0cf8 01       		.byte	0x1
 2181 0cf9 00000000 		.4byte	.LFB43
 2182 0cfd 02000000 		.4byte	.LFE43
 2183 0d01 02       		.byte	0x2
 2184 0d02 7D       		.byte	0x7d
 2185 0d03 00       		.sleb128 0
 2186 0d04 01       		.byte	0x1
 2187 0d05 28       		.uleb128 0x28
 2188 0d06 01       		.byte	0x1
 2189 0d07 DD000000 		.4byte	.LASF153
 2190 0d0b 01       		.byte	0x1
 2191 0d0c 69       		.byte	0x69
 2192 0d0d 01       		.byte	0x1
 2193 0d0e 00000000 		.4byte	.LFB42
 2194 0d12 02000000 		.4byte	.LFE42
 2195 0d16 02       		.byte	0x2
 2196 0d17 7D       		.byte	0x7d
 2197 0d18 00       		.sleb128 0
 2198 0d19 01       		.byte	0x1
 2199 0d1a 28       		.uleb128 0x28
 2200 0d1b 01       		.byte	0x1
 2201 0d1c 86020000 		.4byte	.LASF154
 2202 0d20 01       		.byte	0x1
 2203 0d21 5C       		.byte	0x5c
 2204 0d22 01       		.byte	0x1
 2205 0d23 00000000 		.4byte	.LFB41
 2206 0d27 02000000 		.4byte	.LFE41
 2207 0d2b 02       		.byte	0x2
 2208 0d2c 7D       		.byte	0x7d
 2209 0d2d 00       		.sleb128 0
 2210 0d2e 01       		.byte	0x1
 2211 0d2f 28       		.uleb128 0x28
 2212 0d30 01       		.byte	0x1
 2213 0d31 16030000 		.4byte	.LASF155
 2214 0d35 01       		.byte	0x1
 2215 0d36 4D       		.byte	0x4d
 2216 0d37 01       		.byte	0x1
 2217 0d38 00000000 		.4byte	.LFB40
 2218 0d3c 04000000 		.4byte	.LFE40
ARM GAS  C:\Users\EBANO_~1\AppData\Local\Temp\ccBx8b8i.s 			page 44


 2219 0d40 02       		.byte	0x2
 2220 0d41 7D       		.byte	0x7d
 2221 0d42 00       		.sleb128 0
 2222 0d43 01       		.byte	0x1
 2223 0d44 29       		.uleb128 0x29
 2224 0d45 01       		.byte	0x1
 2225 0d46 16000000 		.4byte	.LASF165
 2226 0d4a 01       		.byte	0x1
 2227 0d4b 41       		.byte	0x41
 2228 0d4c 01       		.byte	0x1
 2229 0d4d 01       		.byte	0x1
 2230 0d4e 2A       		.uleb128 0x2a
 2231 0d4f 440D0000 		.4byte	0xd44
 2232 0d53 00000000 		.4byte	.LFB39
 2233 0d57 02000000 		.4byte	.LFE39
 2234 0d5b 02       		.byte	0x2
 2235 0d5c 7D       		.byte	0x7d
 2236 0d5d 00       		.sleb128 0
 2237 0d5e 01       		.byte	0x1
 2238 0d5f 2B       		.uleb128 0x2b
 2239 0d60 01       		.byte	0x1
 2240 0d61 01       		.byte	0x1
 2241 0d62 E6040000 		.4byte	.LASF156
 2242 0d66 E6040000 		.4byte	.LASF156
 2243 0d6a 0C       		.byte	0xc
 2244 0d6b 3201     		.2byte	0x132
 2245 0d6d 2C       		.uleb128 0x2c
 2246 0d6e 01       		.byte	0x1
 2247 0d6f 01       		.byte	0x1
 2248 0d70 1C060000 		.4byte	.LASF157
 2249 0d74 1C060000 		.4byte	.LASF157
 2250 0d78 0D       		.byte	0xd
 2251 0d79 7E       		.byte	0x7e
 2252 0d7a 2C       		.uleb128 0x2c
 2253 0d7b 01       		.byte	0x1
 2254 0d7c 01       		.byte	0x1
 2255 0d7d EE000000 		.4byte	.LASF158
 2256 0d81 EE000000 		.4byte	.LASF158
 2257 0d85 0E       		.byte	0xe
 2258 0d86 52       		.byte	0x52
 2259 0d87 2C       		.uleb128 0x2c
 2260 0d88 01       		.byte	0x1
 2261 0d89 01       		.byte	0x1
 2262 0d8a E7030000 		.4byte	.LASF159
 2263 0d8e E7030000 		.4byte	.LASF159
 2264 0d92 0E       		.byte	0xe
 2265 0d93 4B       		.byte	0x4b
 2266 0d94 2B       		.uleb128 0x2b
 2267 0d95 01       		.byte	0x1
 2268 0d96 01       		.byte	0x1
 2269 0d97 96060000 		.4byte	.LASF160
 2270 0d9b 96060000 		.4byte	.LASF160
 2271 0d9f 0F       		.byte	0xf
 2272 0da0 8201     		.2byte	0x182
 2273 0da2 00       		.byte	0
 2274              		.section	.debug_abbrev,"",%progbits
 2275              	.Ldebug_abbrev0:
ARM GAS  C:\Users\EBANO_~1\AppData\Local\Temp\ccBx8b8i.s 			page 45


 2276 0000 01       		.uleb128 0x1
 2277 0001 11       		.uleb128 0x11
 2278 0002 01       		.byte	0x1
 2279 0003 25       		.uleb128 0x25
 2280 0004 0E       		.uleb128 0xe
 2281 0005 13       		.uleb128 0x13
 2282 0006 0B       		.uleb128 0xb
 2283 0007 03       		.uleb128 0x3
 2284 0008 0E       		.uleb128 0xe
 2285 0009 1B       		.uleb128 0x1b
 2286 000a 0E       		.uleb128 0xe
 2287 000b 55       		.uleb128 0x55
 2288 000c 06       		.uleb128 0x6
 2289 000d 11       		.uleb128 0x11
 2290 000e 01       		.uleb128 0x1
 2291 000f 52       		.uleb128 0x52
 2292 0010 01       		.uleb128 0x1
 2293 0011 10       		.uleb128 0x10
 2294 0012 06       		.uleb128 0x6
 2295 0013 00       		.byte	0
 2296 0014 00       		.byte	0
 2297 0015 02       		.uleb128 0x2
 2298 0016 24       		.uleb128 0x24
 2299 0017 00       		.byte	0
 2300 0018 0B       		.uleb128 0xb
 2301 0019 0B       		.uleb128 0xb
 2302 001a 3E       		.uleb128 0x3e
 2303 001b 0B       		.uleb128 0xb
 2304 001c 03       		.uleb128 0x3
 2305 001d 08       		.uleb128 0x8
 2306 001e 00       		.byte	0
 2307 001f 00       		.byte	0
 2308 0020 03       		.uleb128 0x3
 2309 0021 24       		.uleb128 0x24
 2310 0022 00       		.byte	0
 2311 0023 0B       		.uleb128 0xb
 2312 0024 0B       		.uleb128 0xb
 2313 0025 3E       		.uleb128 0x3e
 2314 0026 0B       		.uleb128 0xb
 2315 0027 03       		.uleb128 0x3
 2316 0028 0E       		.uleb128 0xe
 2317 0029 00       		.byte	0
 2318 002a 00       		.byte	0
 2319 002b 04       		.uleb128 0x4
 2320 002c 16       		.uleb128 0x16
 2321 002d 00       		.byte	0
 2322 002e 03       		.uleb128 0x3
 2323 002f 0E       		.uleb128 0xe
 2324 0030 3A       		.uleb128 0x3a
 2325 0031 0B       		.uleb128 0xb
 2326 0032 3B       		.uleb128 0x3b
 2327 0033 0B       		.uleb128 0xb
 2328 0034 49       		.uleb128 0x49
 2329 0035 13       		.uleb128 0x13
 2330 0036 00       		.byte	0
 2331 0037 00       		.byte	0
 2332 0038 05       		.uleb128 0x5
ARM GAS  C:\Users\EBANO_~1\AppData\Local\Temp\ccBx8b8i.s 			page 46


 2333 0039 0F       		.uleb128 0xf
 2334 003a 00       		.byte	0
 2335 003b 0B       		.uleb128 0xb
 2336 003c 0B       		.uleb128 0xb
 2337 003d 49       		.uleb128 0x49
 2338 003e 13       		.uleb128 0x13
 2339 003f 00       		.byte	0
 2340 0040 00       		.byte	0
 2341 0041 06       		.uleb128 0x6
 2342 0042 13       		.uleb128 0x13
 2343 0043 00       		.byte	0
 2344 0044 03       		.uleb128 0x3
 2345 0045 0E       		.uleb128 0xe
 2346 0046 3C       		.uleb128 0x3c
 2347 0047 0C       		.uleb128 0xc
 2348 0048 00       		.byte	0
 2349 0049 00       		.byte	0
 2350 004a 07       		.uleb128 0x7
 2351 004b 16       		.uleb128 0x16
 2352 004c 00       		.byte	0
 2353 004d 03       		.uleb128 0x3
 2354 004e 0E       		.uleb128 0xe
 2355 004f 3A       		.uleb128 0x3a
 2356 0050 0B       		.uleb128 0xb
 2357 0051 3B       		.uleb128 0x3b
 2358 0052 05       		.uleb128 0x5
 2359 0053 49       		.uleb128 0x49
 2360 0054 13       		.uleb128 0x13
 2361 0055 00       		.byte	0
 2362 0056 00       		.byte	0
 2363 0057 08       		.uleb128 0x8
 2364 0058 17       		.uleb128 0x17
 2365 0059 01       		.byte	0x1
 2366 005a 0B       		.uleb128 0xb
 2367 005b 0B       		.uleb128 0xb
 2368 005c 3A       		.uleb128 0x3a
 2369 005d 0B       		.uleb128 0xb
 2370 005e 3B       		.uleb128 0x3b
 2371 005f 0B       		.uleb128 0xb
 2372 0060 01       		.uleb128 0x1
 2373 0061 13       		.uleb128 0x13
 2374 0062 00       		.byte	0
 2375 0063 00       		.byte	0
 2376 0064 09       		.uleb128 0x9
 2377 0065 0D       		.uleb128 0xd
 2378 0066 00       		.byte	0
 2379 0067 03       		.uleb128 0x3
 2380 0068 0E       		.uleb128 0xe
 2381 0069 3A       		.uleb128 0x3a
 2382 006a 0B       		.uleb128 0xb
 2383 006b 3B       		.uleb128 0x3b
 2384 006c 0B       		.uleb128 0xb
 2385 006d 49       		.uleb128 0x49
 2386 006e 13       		.uleb128 0x13
 2387 006f 00       		.byte	0
 2388 0070 00       		.byte	0
 2389 0071 0A       		.uleb128 0xa
ARM GAS  C:\Users\EBANO_~1\AppData\Local\Temp\ccBx8b8i.s 			page 47


 2390 0072 01       		.uleb128 0x1
 2391 0073 01       		.byte	0x1
 2392 0074 49       		.uleb128 0x49
 2393 0075 13       		.uleb128 0x13
 2394 0076 01       		.uleb128 0x1
 2395 0077 13       		.uleb128 0x13
 2396 0078 00       		.byte	0
 2397 0079 00       		.byte	0
 2398 007a 0B       		.uleb128 0xb
 2399 007b 21       		.uleb128 0x21
 2400 007c 00       		.byte	0
 2401 007d 49       		.uleb128 0x49
 2402 007e 13       		.uleb128 0x13
 2403 007f 2F       		.uleb128 0x2f
 2404 0080 0B       		.uleb128 0xb
 2405 0081 00       		.byte	0
 2406 0082 00       		.byte	0
 2407 0083 0C       		.uleb128 0xc
 2408 0084 13       		.uleb128 0x13
 2409 0085 01       		.byte	0x1
 2410 0086 0B       		.uleb128 0xb
 2411 0087 0B       		.uleb128 0xb
 2412 0088 3A       		.uleb128 0x3a
 2413 0089 0B       		.uleb128 0xb
 2414 008a 3B       		.uleb128 0x3b
 2415 008b 0B       		.uleb128 0xb
 2416 008c 01       		.uleb128 0x1
 2417 008d 13       		.uleb128 0x13
 2418 008e 00       		.byte	0
 2419 008f 00       		.byte	0
 2420 0090 0D       		.uleb128 0xd
 2421 0091 0D       		.uleb128 0xd
 2422 0092 00       		.byte	0
 2423 0093 03       		.uleb128 0x3
 2424 0094 0E       		.uleb128 0xe
 2425 0095 3A       		.uleb128 0x3a
 2426 0096 0B       		.uleb128 0xb
 2427 0097 3B       		.uleb128 0x3b
 2428 0098 0B       		.uleb128 0xb
 2429 0099 49       		.uleb128 0x49
 2430 009a 13       		.uleb128 0x13
 2431 009b 38       		.uleb128 0x38
 2432 009c 0A       		.uleb128 0xa
 2433 009d 00       		.byte	0
 2434 009e 00       		.byte	0
 2435 009f 0E       		.uleb128 0xe
 2436 00a0 0F       		.uleb128 0xf
 2437 00a1 00       		.byte	0
 2438 00a2 0B       		.uleb128 0xb
 2439 00a3 0B       		.uleb128 0xb
 2440 00a4 00       		.byte	0
 2441 00a5 00       		.byte	0
 2442 00a6 0F       		.uleb128 0xf
 2443 00a7 26       		.uleb128 0x26
 2444 00a8 00       		.byte	0
 2445 00a9 49       		.uleb128 0x49
 2446 00aa 13       		.uleb128 0x13
ARM GAS  C:\Users\EBANO_~1\AppData\Local\Temp\ccBx8b8i.s 			page 48


 2447 00ab 00       		.byte	0
 2448 00ac 00       		.byte	0
 2449 00ad 10       		.uleb128 0x10
 2450 00ae 13       		.uleb128 0x13
 2451 00af 01       		.byte	0x1
 2452 00b0 03       		.uleb128 0x3
 2453 00b1 0E       		.uleb128 0xe
 2454 00b2 0B       		.uleb128 0xb
 2455 00b3 0B       		.uleb128 0xb
 2456 00b4 3A       		.uleb128 0x3a
 2457 00b5 0B       		.uleb128 0xb
 2458 00b6 3B       		.uleb128 0x3b
 2459 00b7 0B       		.uleb128 0xb
 2460 00b8 01       		.uleb128 0x1
 2461 00b9 13       		.uleb128 0x13
 2462 00ba 00       		.byte	0
 2463 00bb 00       		.byte	0
 2464 00bc 11       		.uleb128 0x11
 2465 00bd 0D       		.uleb128 0xd
 2466 00be 00       		.byte	0
 2467 00bf 03       		.uleb128 0x3
 2468 00c0 08       		.uleb128 0x8
 2469 00c1 3A       		.uleb128 0x3a
 2470 00c2 0B       		.uleb128 0xb
 2471 00c3 3B       		.uleb128 0x3b
 2472 00c4 0B       		.uleb128 0xb
 2473 00c5 49       		.uleb128 0x49
 2474 00c6 13       		.uleb128 0x13
 2475 00c7 38       		.uleb128 0x38
 2476 00c8 0A       		.uleb128 0xa
 2477 00c9 00       		.byte	0
 2478 00ca 00       		.byte	0
 2479 00cb 12       		.uleb128 0x12
 2480 00cc 13       		.uleb128 0x13
 2481 00cd 01       		.byte	0x1
 2482 00ce 03       		.uleb128 0x3
 2483 00cf 0E       		.uleb128 0xe
 2484 00d0 0B       		.uleb128 0xb
 2485 00d1 05       		.uleb128 0x5
 2486 00d2 3A       		.uleb128 0x3a
 2487 00d3 0B       		.uleb128 0xb
 2488 00d4 3B       		.uleb128 0x3b
 2489 00d5 0B       		.uleb128 0xb
 2490 00d6 01       		.uleb128 0x1
 2491 00d7 13       		.uleb128 0x13
 2492 00d8 00       		.byte	0
 2493 00d9 00       		.byte	0
 2494 00da 13       		.uleb128 0x13
 2495 00db 15       		.uleb128 0x15
 2496 00dc 00       		.byte	0
 2497 00dd 27       		.uleb128 0x27
 2498 00de 0C       		.uleb128 0xc
 2499 00df 00       		.byte	0
 2500 00e0 00       		.byte	0
 2501 00e1 14       		.uleb128 0x14
 2502 00e2 15       		.uleb128 0x15
 2503 00e3 01       		.byte	0x1
ARM GAS  C:\Users\EBANO_~1\AppData\Local\Temp\ccBx8b8i.s 			page 49


 2504 00e4 27       		.uleb128 0x27
 2505 00e5 0C       		.uleb128 0xc
 2506 00e6 49       		.uleb128 0x49
 2507 00e7 13       		.uleb128 0x13
 2508 00e8 01       		.uleb128 0x1
 2509 00e9 13       		.uleb128 0x13
 2510 00ea 00       		.byte	0
 2511 00eb 00       		.byte	0
 2512 00ec 15       		.uleb128 0x15
 2513 00ed 05       		.uleb128 0x5
 2514 00ee 00       		.byte	0
 2515 00ef 49       		.uleb128 0x49
 2516 00f0 13       		.uleb128 0x13
 2517 00f1 00       		.byte	0
 2518 00f2 00       		.byte	0
 2519 00f3 16       		.uleb128 0x16
 2520 00f4 13       		.uleb128 0x13
 2521 00f5 01       		.byte	0x1
 2522 00f6 03       		.uleb128 0x3
 2523 00f7 0E       		.uleb128 0xe
 2524 00f8 0B       		.uleb128 0xb
 2525 00f9 05       		.uleb128 0x5
 2526 00fa 3A       		.uleb128 0x3a
 2527 00fb 0B       		.uleb128 0xb
 2528 00fc 3B       		.uleb128 0x3b
 2529 00fd 05       		.uleb128 0x5
 2530 00fe 01       		.uleb128 0x1
 2531 00ff 13       		.uleb128 0x13
 2532 0100 00       		.byte	0
 2533 0101 00       		.byte	0
 2534 0102 17       		.uleb128 0x17
 2535 0103 0D       		.uleb128 0xd
 2536 0104 00       		.byte	0
 2537 0105 03       		.uleb128 0x3
 2538 0106 0E       		.uleb128 0xe
 2539 0107 3A       		.uleb128 0x3a
 2540 0108 0B       		.uleb128 0xb
 2541 0109 3B       		.uleb128 0x3b
 2542 010a 05       		.uleb128 0x5
 2543 010b 49       		.uleb128 0x49
 2544 010c 13       		.uleb128 0x13
 2545 010d 38       		.uleb128 0x38
 2546 010e 0A       		.uleb128 0xa
 2547 010f 00       		.byte	0
 2548 0110 00       		.byte	0
 2549 0111 18       		.uleb128 0x18
 2550 0112 13       		.uleb128 0x13
 2551 0113 01       		.byte	0x1
 2552 0114 03       		.uleb128 0x3
 2553 0115 0E       		.uleb128 0xe
 2554 0116 0B       		.uleb128 0xb
 2555 0117 0B       		.uleb128 0xb
 2556 0118 3A       		.uleb128 0x3a
 2557 0119 0B       		.uleb128 0xb
 2558 011a 3B       		.uleb128 0x3b
 2559 011b 05       		.uleb128 0x5
 2560 011c 01       		.uleb128 0x1
ARM GAS  C:\Users\EBANO_~1\AppData\Local\Temp\ccBx8b8i.s 			page 50


 2561 011d 13       		.uleb128 0x13
 2562 011e 00       		.byte	0
 2563 011f 00       		.byte	0
 2564 0120 19       		.uleb128 0x19
 2565 0121 13       		.uleb128 0x13
 2566 0122 01       		.byte	0x1
 2567 0123 0B       		.uleb128 0xb
 2568 0124 0B       		.uleb128 0xb
 2569 0125 3A       		.uleb128 0x3a
 2570 0126 0B       		.uleb128 0xb
 2571 0127 3B       		.uleb128 0x3b
 2572 0128 05       		.uleb128 0x5
 2573 0129 01       		.uleb128 0x1
 2574 012a 13       		.uleb128 0x13
 2575 012b 00       		.byte	0
 2576 012c 00       		.byte	0
 2577 012d 1A       		.uleb128 0x1a
 2578 012e 17       		.uleb128 0x17
 2579 012f 01       		.byte	0x1
 2580 0130 0B       		.uleb128 0xb
 2581 0131 0B       		.uleb128 0xb
 2582 0132 3A       		.uleb128 0x3a
 2583 0133 0B       		.uleb128 0xb
 2584 0134 3B       		.uleb128 0x3b
 2585 0135 05       		.uleb128 0x5
 2586 0136 01       		.uleb128 0x1
 2587 0137 13       		.uleb128 0x13
 2588 0138 00       		.byte	0
 2589 0139 00       		.byte	0
 2590 013a 1B       		.uleb128 0x1b
 2591 013b 0D       		.uleb128 0xd
 2592 013c 00       		.byte	0
 2593 013d 03       		.uleb128 0x3
 2594 013e 0E       		.uleb128 0xe
 2595 013f 3A       		.uleb128 0x3a
 2596 0140 0B       		.uleb128 0xb
 2597 0141 3B       		.uleb128 0x3b
 2598 0142 05       		.uleb128 0x5
 2599 0143 49       		.uleb128 0x49
 2600 0144 13       		.uleb128 0x13
 2601 0145 00       		.byte	0
 2602 0146 00       		.byte	0
 2603 0147 1C       		.uleb128 0x1c
 2604 0148 15       		.uleb128 0x15
 2605 0149 01       		.byte	0x1
 2606 014a 27       		.uleb128 0x27
 2607 014b 0C       		.uleb128 0xc
 2608 014c 01       		.uleb128 0x1
 2609 014d 13       		.uleb128 0x13
 2610 014e 00       		.byte	0
 2611 014f 00       		.byte	0
 2612 0150 1D       		.uleb128 0x1d
 2613 0151 34       		.uleb128 0x34
 2614 0152 00       		.byte	0
 2615 0153 03       		.uleb128 0x3
 2616 0154 0E       		.uleb128 0xe
 2617 0155 3A       		.uleb128 0x3a
ARM GAS  C:\Users\EBANO_~1\AppData\Local\Temp\ccBx8b8i.s 			page 51


 2618 0156 0B       		.uleb128 0xb
 2619 0157 3B       		.uleb128 0x3b
 2620 0158 05       		.uleb128 0x5
 2621 0159 49       		.uleb128 0x49
 2622 015a 13       		.uleb128 0x13
 2623 015b 3F       		.uleb128 0x3f
 2624 015c 0C       		.uleb128 0xc
 2625 015d 3C       		.uleb128 0x3c
 2626 015e 0C       		.uleb128 0xc
 2627 015f 00       		.byte	0
 2628 0160 00       		.byte	0
 2629 0161 1E       		.uleb128 0x1e
 2630 0162 04       		.uleb128 0x4
 2631 0163 01       		.byte	0x1
 2632 0164 03       		.uleb128 0x3
 2633 0165 0E       		.uleb128 0xe
 2634 0166 3E       		.uleb128 0x3e
 2635 0167 0B       		.uleb128 0xb
 2636 0168 0B       		.uleb128 0xb
 2637 0169 0B       		.uleb128 0xb
 2638 016a 49       		.uleb128 0x49
 2639 016b 13       		.uleb128 0x13
 2640 016c 3A       		.uleb128 0x3a
 2641 016d 0B       		.uleb128 0xb
 2642 016e 3B       		.uleb128 0x3b
 2643 016f 05       		.uleb128 0x5
 2644 0170 01       		.uleb128 0x1
 2645 0171 13       		.uleb128 0x13
 2646 0172 00       		.byte	0
 2647 0173 00       		.byte	0
 2648 0174 1F       		.uleb128 0x1f
 2649 0175 28       		.uleb128 0x28
 2650 0176 00       		.byte	0
 2651 0177 03       		.uleb128 0x3
 2652 0178 0E       		.uleb128 0xe
 2653 0179 1C       		.uleb128 0x1c
 2654 017a 0D       		.uleb128 0xd
 2655 017b 00       		.byte	0
 2656 017c 00       		.byte	0
 2657 017d 20       		.uleb128 0x20
 2658 017e 28       		.uleb128 0x28
 2659 017f 00       		.byte	0
 2660 0180 03       		.uleb128 0x3
 2661 0181 0E       		.uleb128 0xe
 2662 0182 1C       		.uleb128 0x1c
 2663 0183 0B       		.uleb128 0xb
 2664 0184 00       		.byte	0
 2665 0185 00       		.byte	0
 2666 0186 21       		.uleb128 0x21
 2667 0187 34       		.uleb128 0x34
 2668 0188 00       		.byte	0
 2669 0189 03       		.uleb128 0x3
 2670 018a 0E       		.uleb128 0xe
 2671 018b 3A       		.uleb128 0x3a
 2672 018c 0B       		.uleb128 0xb
 2673 018d 3B       		.uleb128 0x3b
 2674 018e 0B       		.uleb128 0xb
ARM GAS  C:\Users\EBANO_~1\AppData\Local\Temp\ccBx8b8i.s 			page 52


 2675 018f 49       		.uleb128 0x49
 2676 0190 13       		.uleb128 0x13
 2677 0191 3F       		.uleb128 0x3f
 2678 0192 0C       		.uleb128 0xc
 2679 0193 3C       		.uleb128 0x3c
 2680 0194 0C       		.uleb128 0xc
 2681 0195 00       		.byte	0
 2682 0196 00       		.byte	0
 2683 0197 22       		.uleb128 0x22
 2684 0198 2E       		.uleb128 0x2e
 2685 0199 01       		.byte	0x1
 2686 019a 3F       		.uleb128 0x3f
 2687 019b 0C       		.uleb128 0xc
 2688 019c 03       		.uleb128 0x3
 2689 019d 0E       		.uleb128 0xe
 2690 019e 3A       		.uleb128 0x3a
 2691 019f 0B       		.uleb128 0xb
 2692 01a0 3B       		.uleb128 0x3b
 2693 01a1 0B       		.uleb128 0xb
 2694 01a2 27       		.uleb128 0x27
 2695 01a3 0C       		.uleb128 0xc
 2696 01a4 11       		.uleb128 0x11
 2697 01a5 01       		.uleb128 0x1
 2698 01a6 12       		.uleb128 0x12
 2699 01a7 01       		.uleb128 0x1
 2700 01a8 40       		.uleb128 0x40
 2701 01a9 06       		.uleb128 0x6
 2702 01aa 9742     		.uleb128 0x2117
 2703 01ac 0C       		.uleb128 0xc
 2704 01ad 01       		.uleb128 0x1
 2705 01ae 13       		.uleb128 0x13
 2706 01af 00       		.byte	0
 2707 01b0 00       		.byte	0
 2708 01b1 23       		.uleb128 0x23
 2709 01b2 898201   		.uleb128 0x4109
 2710 01b5 01       		.byte	0x1
 2711 01b6 11       		.uleb128 0x11
 2712 01b7 01       		.uleb128 0x1
 2713 01b8 31       		.uleb128 0x31
 2714 01b9 13       		.uleb128 0x13
 2715 01ba 01       		.uleb128 0x1
 2716 01bb 13       		.uleb128 0x13
 2717 01bc 00       		.byte	0
 2718 01bd 00       		.byte	0
 2719 01be 24       		.uleb128 0x24
 2720 01bf 8A8201   		.uleb128 0x410a
 2721 01c2 00       		.byte	0
 2722 01c3 02       		.uleb128 0x2
 2723 01c4 0A       		.uleb128 0xa
 2724 01c5 9142     		.uleb128 0x2111
 2725 01c7 0A       		.uleb128 0xa
 2726 01c8 00       		.byte	0
 2727 01c9 00       		.byte	0
 2728 01ca 25       		.uleb128 0x25
 2729 01cb 898201   		.uleb128 0x4109
 2730 01ce 01       		.byte	0x1
 2731 01cf 11       		.uleb128 0x11
ARM GAS  C:\Users\EBANO_~1\AppData\Local\Temp\ccBx8b8i.s 			page 53


 2732 01d0 01       		.uleb128 0x1
 2733 01d1 31       		.uleb128 0x31
 2734 01d2 13       		.uleb128 0x13
 2735 01d3 00       		.byte	0
 2736 01d4 00       		.byte	0
 2737 01d5 26       		.uleb128 0x26
 2738 01d6 898201   		.uleb128 0x4109
 2739 01d9 00       		.byte	0
 2740 01da 11       		.uleb128 0x11
 2741 01db 01       		.uleb128 0x1
 2742 01dc 31       		.uleb128 0x31
 2743 01dd 13       		.uleb128 0x13
 2744 01de 00       		.byte	0
 2745 01df 00       		.byte	0
 2746 01e0 27       		.uleb128 0x27
 2747 01e1 2E       		.uleb128 0x2e
 2748 01e2 00       		.byte	0
 2749 01e3 3F       		.uleb128 0x3f
 2750 01e4 0C       		.uleb128 0xc
 2751 01e5 03       		.uleb128 0x3
 2752 01e6 0E       		.uleb128 0xe
 2753 01e7 3A       		.uleb128 0x3a
 2754 01e8 0B       		.uleb128 0xb
 2755 01e9 3B       		.uleb128 0x3b
 2756 01ea 0B       		.uleb128 0xb
 2757 01eb 27       		.uleb128 0x27
 2758 01ec 0C       		.uleb128 0xc
 2759 01ed 00       		.byte	0
 2760 01ee 00       		.byte	0
 2761 01ef 28       		.uleb128 0x28
 2762 01f0 2E       		.uleb128 0x2e
 2763 01f1 00       		.byte	0
 2764 01f2 3F       		.uleb128 0x3f
 2765 01f3 0C       		.uleb128 0xc
 2766 01f4 03       		.uleb128 0x3
 2767 01f5 0E       		.uleb128 0xe
 2768 01f6 3A       		.uleb128 0x3a
 2769 01f7 0B       		.uleb128 0xb
 2770 01f8 3B       		.uleb128 0x3b
 2771 01f9 0B       		.uleb128 0xb
 2772 01fa 27       		.uleb128 0x27
 2773 01fb 0C       		.uleb128 0xc
 2774 01fc 11       		.uleb128 0x11
 2775 01fd 01       		.uleb128 0x1
 2776 01fe 12       		.uleb128 0x12
 2777 01ff 01       		.uleb128 0x1
 2778 0200 40       		.uleb128 0x40
 2779 0201 0A       		.uleb128 0xa
 2780 0202 9742     		.uleb128 0x2117
 2781 0204 0C       		.uleb128 0xc
 2782 0205 00       		.byte	0
 2783 0206 00       		.byte	0
 2784 0207 29       		.uleb128 0x29
 2785 0208 2E       		.uleb128 0x2e
 2786 0209 00       		.byte	0
 2787 020a 3F       		.uleb128 0x3f
 2788 020b 0C       		.uleb128 0xc
ARM GAS  C:\Users\EBANO_~1\AppData\Local\Temp\ccBx8b8i.s 			page 54


 2789 020c 03       		.uleb128 0x3
 2790 020d 0E       		.uleb128 0xe
 2791 020e 3A       		.uleb128 0x3a
 2792 020f 0B       		.uleb128 0xb
 2793 0210 3B       		.uleb128 0x3b
 2794 0211 0B       		.uleb128 0xb
 2795 0212 27       		.uleb128 0x27
 2796 0213 0C       		.uleb128 0xc
 2797 0214 20       		.uleb128 0x20
 2798 0215 0B       		.uleb128 0xb
 2799 0216 00       		.byte	0
 2800 0217 00       		.byte	0
 2801 0218 2A       		.uleb128 0x2a
 2802 0219 2E       		.uleb128 0x2e
 2803 021a 00       		.byte	0
 2804 021b 31       		.uleb128 0x31
 2805 021c 13       		.uleb128 0x13
 2806 021d 11       		.uleb128 0x11
 2807 021e 01       		.uleb128 0x1
 2808 021f 12       		.uleb128 0x12
 2809 0220 01       		.uleb128 0x1
 2810 0221 40       		.uleb128 0x40
 2811 0222 0A       		.uleb128 0xa
 2812 0223 9742     		.uleb128 0x2117
 2813 0225 0C       		.uleb128 0xc
 2814 0226 00       		.byte	0
 2815 0227 00       		.byte	0
 2816 0228 2B       		.uleb128 0x2b
 2817 0229 2E       		.uleb128 0x2e
 2818 022a 00       		.byte	0
 2819 022b 3F       		.uleb128 0x3f
 2820 022c 0C       		.uleb128 0xc
 2821 022d 3C       		.uleb128 0x3c
 2822 022e 0C       		.uleb128 0xc
 2823 022f 8740     		.uleb128 0x2007
 2824 0231 0E       		.uleb128 0xe
 2825 0232 03       		.uleb128 0x3
 2826 0233 0E       		.uleb128 0xe
 2827 0234 3A       		.uleb128 0x3a
 2828 0235 0B       		.uleb128 0xb
 2829 0236 3B       		.uleb128 0x3b
 2830 0237 05       		.uleb128 0x5
 2831 0238 00       		.byte	0
 2832 0239 00       		.byte	0
 2833 023a 2C       		.uleb128 0x2c
 2834 023b 2E       		.uleb128 0x2e
 2835 023c 00       		.byte	0
 2836 023d 3F       		.uleb128 0x3f
 2837 023e 0C       		.uleb128 0xc
 2838 023f 3C       		.uleb128 0x3c
 2839 0240 0C       		.uleb128 0xc
 2840 0241 8740     		.uleb128 0x2007
 2841 0243 0E       		.uleb128 0xe
 2842 0244 03       		.uleb128 0x3
 2843 0245 0E       		.uleb128 0xe
 2844 0246 3A       		.uleb128 0x3a
 2845 0247 0B       		.uleb128 0xb
ARM GAS  C:\Users\EBANO_~1\AppData\Local\Temp\ccBx8b8i.s 			page 55


 2846 0248 3B       		.uleb128 0x3b
 2847 0249 0B       		.uleb128 0xb
 2848 024a 00       		.byte	0
 2849 024b 00       		.byte	0
 2850 024c 00       		.byte	0
 2851              		.section	.debug_loc,"",%progbits
 2852              	.Ldebug_loc0:
 2853              	.LLST6:
 2854 0000 00000000 		.4byte	.LFB53
 2855 0004 02000000 		.4byte	.LCFI6
 2856 0008 0200     		.2byte	0x2
 2857 000a 7D       		.byte	0x7d
 2858 000b 00       		.sleb128 0
 2859 000c 02000000 		.4byte	.LCFI6
 2860 0010 5C000000 		.4byte	.LFE53
 2861 0014 0200     		.2byte	0x2
 2862 0016 7D       		.byte	0x7d
 2863 0017 08       		.sleb128 8
 2864 0018 00000000 		.4byte	0
 2865 001c 00000000 		.4byte	0
 2866              	.LLST5:
 2867 0020 00000000 		.4byte	.LFB52
 2868 0024 02000000 		.4byte	.LCFI5
 2869 0028 0200     		.2byte	0x2
 2870 002a 7D       		.byte	0x7d
 2871 002b 00       		.sleb128 0
 2872 002c 02000000 		.4byte	.LCFI5
 2873 0030 10000000 		.4byte	.LFE52
 2874 0034 0200     		.2byte	0x2
 2875 0036 7D       		.byte	0x7d
 2876 0037 08       		.sleb128 8
 2877 0038 00000000 		.4byte	0
 2878 003c 00000000 		.4byte	0
 2879              	.LLST4:
 2880 0040 00000000 		.4byte	.LFB51
 2881 0044 02000000 		.4byte	.LCFI4
 2882 0048 0200     		.2byte	0x2
 2883 004a 7D       		.byte	0x7d
 2884 004b 00       		.sleb128 0
 2885 004c 02000000 		.4byte	.LCFI4
 2886 0050 10000000 		.4byte	.LFE51
 2887 0054 0200     		.2byte	0x2
 2888 0056 7D       		.byte	0x7d
 2889 0057 08       		.sleb128 8
 2890 0058 00000000 		.4byte	0
 2891 005c 00000000 		.4byte	0
 2892              	.LLST3:
 2893 0060 00000000 		.4byte	.LFB50
 2894 0064 02000000 		.4byte	.LCFI3
 2895 0068 0200     		.2byte	0x2
 2896 006a 7D       		.byte	0x7d
 2897 006b 00       		.sleb128 0
 2898 006c 02000000 		.4byte	.LCFI3
 2899 0070 08000000 		.4byte	.LFE50
 2900 0074 0200     		.2byte	0x2
 2901 0076 7D       		.byte	0x7d
 2902 0077 08       		.sleb128 8
ARM GAS  C:\Users\EBANO_~1\AppData\Local\Temp\ccBx8b8i.s 			page 56


 2903 0078 00000000 		.4byte	0
 2904 007c 00000000 		.4byte	0
 2905              	.LLST2:
 2906 0080 00000000 		.4byte	.LFB49
 2907 0084 02000000 		.4byte	.LCFI2
 2908 0088 0200     		.2byte	0x2
 2909 008a 7D       		.byte	0x7d
 2910 008b 00       		.sleb128 0
 2911 008c 02000000 		.4byte	.LCFI2
 2912 0090 08000000 		.4byte	.LFE49
 2913 0094 0200     		.2byte	0x2
 2914 0096 7D       		.byte	0x7d
 2915 0097 08       		.sleb128 8
 2916 0098 00000000 		.4byte	0
 2917 009c 00000000 		.4byte	0
 2918              	.LLST1:
 2919 00a0 00000000 		.4byte	.LFB48
 2920 00a4 02000000 		.4byte	.LCFI1
 2921 00a8 0200     		.2byte	0x2
 2922 00aa 7D       		.byte	0x7d
 2923 00ab 00       		.sleb128 0
 2924 00ac 02000000 		.4byte	.LCFI1
 2925 00b0 08000000 		.4byte	.LFE48
 2926 00b4 0200     		.2byte	0x2
 2927 00b6 7D       		.byte	0x7d
 2928 00b7 08       		.sleb128 8
 2929 00b8 00000000 		.4byte	0
 2930 00bc 00000000 		.4byte	0
 2931              	.LLST0:
 2932 00c0 00000000 		.4byte	.LFB47
 2933 00c4 02000000 		.4byte	.LCFI0
 2934 00c8 0200     		.2byte	0x2
 2935 00ca 7D       		.byte	0x7d
 2936 00cb 00       		.sleb128 0
 2937 00cc 02000000 		.4byte	.LCFI0
 2938 00d0 08000000 		.4byte	.LFE47
 2939 00d4 0200     		.2byte	0x2
 2940 00d6 7D       		.byte	0x7d
 2941 00d7 08       		.sleb128 8
 2942 00d8 00000000 		.4byte	0
 2943 00dc 00000000 		.4byte	0
 2944              		.section	.debug_aranges,"",%progbits
 2945 0000 74000000 		.4byte	0x74
 2946 0004 0200     		.2byte	0x2
 2947 0006 00000000 		.4byte	.Ldebug_info0
 2948 000a 04       		.byte	0x4
 2949 000b 00       		.byte	0
 2950 000c 0000     		.2byte	0
 2951 000e 0000     		.2byte	0
 2952 0010 00000000 		.4byte	.LFB39
 2953 0014 02000000 		.4byte	.LFE39-.LFB39
 2954 0018 00000000 		.4byte	.LFB40
 2955 001c 04000000 		.4byte	.LFE40-.LFB40
 2956 0020 00000000 		.4byte	.LFB41
 2957 0024 02000000 		.4byte	.LFE41-.LFB41
 2958 0028 00000000 		.4byte	.LFB42
 2959 002c 02000000 		.4byte	.LFE42-.LFB42
ARM GAS  C:\Users\EBANO_~1\AppData\Local\Temp\ccBx8b8i.s 			page 57


 2960 0030 00000000 		.4byte	.LFB43
 2961 0034 02000000 		.4byte	.LFE43-.LFB43
 2962 0038 00000000 		.4byte	.LFB47
 2963 003c 08000000 		.4byte	.LFE47-.LFB47
 2964 0040 00000000 		.4byte	.LFB48
 2965 0044 08000000 		.4byte	.LFE48-.LFB48
 2966 0048 00000000 		.4byte	.LFB49
 2967 004c 08000000 		.4byte	.LFE49-.LFB49
 2968 0050 00000000 		.4byte	.LFB50
 2969 0054 08000000 		.4byte	.LFE50-.LFB50
 2970 0058 00000000 		.4byte	.LFB51
 2971 005c 10000000 		.4byte	.LFE51-.LFB51
 2972 0060 00000000 		.4byte	.LFB52
 2973 0064 10000000 		.4byte	.LFE52-.LFB52
 2974 0068 00000000 		.4byte	.LFB53
 2975 006c 5C000000 		.4byte	.LFE53-.LFB53
 2976 0070 00000000 		.4byte	0
 2977 0074 00000000 		.4byte	0
 2978              		.section	.debug_ranges,"",%progbits
 2979              	.Ldebug_ranges0:
 2980 0000 00000000 		.4byte	.LFB39
 2981 0004 02000000 		.4byte	.LFE39
 2982 0008 00000000 		.4byte	.LFB40
 2983 000c 04000000 		.4byte	.LFE40
 2984 0010 00000000 		.4byte	.LFB41
 2985 0014 02000000 		.4byte	.LFE41
 2986 0018 00000000 		.4byte	.LFB42
 2987 001c 02000000 		.4byte	.LFE42
 2988 0020 00000000 		.4byte	.LFB43
 2989 0024 02000000 		.4byte	.LFE43
 2990 0028 00000000 		.4byte	.LFB47
 2991 002c 08000000 		.4byte	.LFE47
 2992 0030 00000000 		.4byte	.LFB48
 2993 0034 08000000 		.4byte	.LFE48
 2994 0038 00000000 		.4byte	.LFB49
 2995 003c 08000000 		.4byte	.LFE49
 2996 0040 00000000 		.4byte	.LFB50
 2997 0044 08000000 		.4byte	.LFE50
 2998 0048 00000000 		.4byte	.LFB51
 2999 004c 10000000 		.4byte	.LFE51
 3000 0050 00000000 		.4byte	.LFB52
 3001 0054 10000000 		.4byte	.LFE52
 3002 0058 00000000 		.4byte	.LFB53
 3003 005c 5C000000 		.4byte	.LFE53
 3004 0060 00000000 		.4byte	0
 3005 0064 00000000 		.4byte	0
 3006              		.section	.debug_line,"",%progbits
 3007              	.Ldebug_line0:
 3008 0000 CE030000 		.section	.debug_str,"MS",%progbits,1
 3008      0200E602 
 3008      00000201 
 3008      FB0E0D00 
 3008      01010101 
 3009              	.LASF42:
 3010 0000 5F64736F 		.ascii	"_dso_handle\000"
 3010      5F68616E 
 3010      646C6500 
ARM GAS  C:\Users\EBANO_~1\AppData\Local\Temp\ccBx8b8i.s 			page 58


 3011              	.LASF5:
 3012 000c 73686F72 		.ascii	"short int\000"
 3012      7420696E 
 3012      7400
 3013              	.LASF165:
 3014 0016 4E4D495F 		.ascii	"NMI_Handler\000"
 3014      48616E64 
 3014      6C657200 
 3015              	.LASF41:
 3016 0022 5F666E61 		.ascii	"_fnargs\000"
 3016      72677300 
 3017              	.LASF150:
 3018 002a 44656275 		.ascii	"DebugMon_Handler\000"
 3018      674D6F6E 
 3018      5F48616E 
 3018      646C6572 
 3018      00
 3019              	.LASF94:
 3020 003b 5F72616E 		.ascii	"_rand48\000"
 3020      64343800 
 3021              	.LASF128:
 3022 0043 5F5F6664 		.ascii	"__fdlibm_xopen\000"
 3022      6C69626D 
 3022      5F786F70 
 3022      656E00
 3023              	.LASF74:
 3024 0052 5F656D65 		.ascii	"_emergency\000"
 3024      7267656E 
 3024      637900
 3025              	.LASF140:
 3026 005d 5F646179 		.ascii	"_daylight\000"
 3026      6C696768 
 3026      7400
 3027              	.LASF66:
 3028 0067 5F6D6273 		.ascii	"_mbstate\000"
 3028      74617465 
 3028      00
 3029              	.LASF6:
 3030 0070 5F5F7569 		.ascii	"__uint8_t\000"
 3030      6E74385F 
 3030      7400
 3031              	.LASF86:
 3032 007a 5F617465 		.ascii	"_atexit0\000"
 3032      78697430 
 3032      00
 3033              	.LASF114:
 3034 0083 5F776372 		.ascii	"_wcrtomb_state\000"
 3034      746F6D62 
 3034      5F737461 
 3034      746500
 3035              	.LASF115:
 3036 0092 5F776373 		.ascii	"_wcsrtombs_state\000"
 3036      72746F6D 
 3036      62735F73 
 3036      74617465 
 3036      00
 3037              	.LASF12:
ARM GAS  C:\Users\EBANO_~1\AppData\Local\Temp\ccBx8b8i.s 			page 59


 3038 00a3 6C6F6E67 		.ascii	"long long unsigned int\000"
 3038      206C6F6E 
 3038      6720756E 
 3038      7369676E 
 3038      65642069 
 3039              	.LASF129:
 3040 00ba 5F5F6664 		.ascii	"__fdlibm_posix\000"
 3040      6C69626D 
 3040      5F706F73 
 3040      697800
 3041              	.LASF54:
 3042 00c9 5F6C6266 		.ascii	"_lbfsize\000"
 3042      73697A65 
 3042      00
 3043              	.LASF121:
 3044 00d2 5F5F6C6F 		.ascii	"__locale_t\000"
 3044      63616C65 
 3044      5F7400
 3045              	.LASF153:
 3046 00dd 42757346 		.ascii	"BusFault_Handler\000"
 3046      61756C74 
 3046      5F48616E 
 3046      646C6572 
 3046      00
 3047              	.LASF158:
 3048 00ee 76636F6D 		.ascii	"vcom_DMA_TX_IRQHandler\000"
 3048      5F444D41 
 3048      5F54585F 
 3048      49525148 
 3048      616E646C 
 3049              	.LASF112:
 3050 0105 5F6D6272 		.ascii	"_mbrtowc_state\000"
 3050      746F7763 
 3050      5F737461 
 3050      746500
 3051              	.LASF141:
 3052 0114 5F747A6E 		.ascii	"_tzname\000"
 3052      616D6500 
 3053              	.LASF31:
 3054 011c 5F5F746D 		.ascii	"__tm_sec\000"
 3054      5F736563 
 3054      00
 3055              	.LASF14:
 3056 0125 5F6F6666 		.ascii	"_off_t\000"
 3056      5F7400
 3057              	.LASF59:
 3058 012c 5F636C6F 		.ascii	"_close\000"
 3058      736500
 3059              	.LASF3:
 3060 0133 7369676E 		.ascii	"signed char\000"
 3060      65642063 
 3060      68617200 
 3061              	.LASF60:
 3062 013f 5F756275 		.ascii	"_ubuf\000"
 3062      6600
 3063              	.LASF49:
 3064 0145 5F626173 		.ascii	"_base\000"
ARM GAS  C:\Users\EBANO_~1\AppData\Local\Temp\ccBx8b8i.s 			page 60


 3064      6500
 3065              	.LASF33:
 3066 014b 5F5F746D 		.ascii	"__tm_hour\000"
 3066      5F686F75 
 3066      7200
 3067              	.LASF89:
 3068 0155 5F5F7366 		.ascii	"__sf\000"
 3068      00
 3069              	.LASF40:
 3070 015a 5F6F6E5F 		.ascii	"_on_exit_args\000"
 3070      65786974 
 3070      5F617267 
 3070      7300
 3071              	.LASF55:
 3072 0168 5F636F6F 		.ascii	"_cookie\000"
 3072      6B696500 
 3073              	.LASF152:
 3074 0170 55736167 		.ascii	"UsageFault_Handler\000"
 3074      65466175 
 3074      6C745F48 
 3074      616E646C 
 3074      657200
 3075              	.LASF88:
 3076 0183 5F5F7367 		.ascii	"__sglue\000"
 3076      6C756500 
 3077              	.LASF9:
 3078 018b 6C6F6E67 		.ascii	"long int\000"
 3078      20696E74 
 3078      00
 3079              	.LASF52:
 3080 0194 5F666C61 		.ascii	"_flags\000"
 3080      677300
 3081              	.LASF44:
 3082 019b 5F69735F 		.ascii	"_is_cxa\000"
 3082      63786100 
 3083              	.LASF142:
 3084 01a3 45585449 		.ascii	"EXTI4_15_IRQHandler\000"
 3084      345F3135 
 3084      5F495251 
 3084      48616E64 
 3084      6C657200 
 3085              	.LASF127:
 3086 01b7 5F5F6664 		.ascii	"__fdlibm_svid\000"
 3086      6C69626D 
 3086      5F737669 
 3086      6400
 3087              	.LASF80:
 3088 01c5 5F726573 		.ascii	"_result_k\000"
 3088      756C745F 
 3088      6B00
 3089              	.LASF1:
 3090 01cf 6C6F6E67 		.ascii	"long long int\000"
 3090      206C6F6E 
 3090      6720696E 
 3090      7400
 3091              	.LASF132:
 3092 01dd 75696E74 		.ascii	"uint16_t\000"
ARM GAS  C:\Users\EBANO_~1\AppData\Local\Temp\ccBx8b8i.s 			page 61


 3092      31365F74 
 3092      00
 3093              	.LASF125:
 3094 01e6 646F7562 		.ascii	"double\000"
 3094      6C6500
 3095              	.LASF84:
 3096 01ed 5F637674 		.ascii	"_cvtbuf\000"
 3096      62756600 
 3097              	.LASF63:
 3098 01f5 5F6F6666 		.ascii	"_offset\000"
 3098      73657400 
 3099              	.LASF113:
 3100 01fd 5F6D6273 		.ascii	"_mbsrtowcs_state\000"
 3100      72746F77 
 3100      63735F73 
 3100      74617465 
 3100      00
 3101              	.LASF111:
 3102 020e 5F6D6272 		.ascii	"_mbrlen_state\000"
 3102      6C656E5F 
 3102      73746174 
 3102      6500
 3103              	.LASF47:
 3104 021c 5F666E73 		.ascii	"_fns\000"
 3104      00
 3105              	.LASF10:
 3106 0221 5F5F7569 		.ascii	"__uint32_t\000"
 3106      6E743332 
 3106      5F7400
 3107              	.LASF27:
 3108 022c 5F736967 		.ascii	"_sign\000"
 3108      6E00
 3109              	.LASF146:
 3110 0232 444D4131 		.ascii	"DMA1_Channel4_5_6_7_IRQHandler\000"
 3110      5F436861 
 3110      6E6E656C 
 3110      345F355F 
 3110      365F375F 
 3111              	.LASF122:
 3112 0251 5F696D70 		.ascii	"_impure_ptr\000"
 3112      7572655F 
 3112      70747200 
 3113              	.LASF72:
 3114 025d 5F737464 		.ascii	"_stderr\000"
 3114      65727200 
 3115              	.LASF29:
 3116 0265 5F426967 		.ascii	"_Bigint\000"
 3116      696E7400 
 3117              	.LASF136:
 3118 026d 41504250 		.ascii	"APBPrescTable\000"
 3118      72657363 
 3118      5461626C 
 3118      6500
 3119              	.LASF56:
 3120 027b 5F726561 		.ascii	"_read\000"
 3120      6400
 3121              	.LASF30:
ARM GAS  C:\Users\EBANO_~1\AppData\Local\Temp\ccBx8b8i.s 			page 62


 3122 0281 5F5F746D 		.ascii	"__tm\000"
 3122      00
 3123              	.LASF154:
 3124 0286 4D656D4D 		.ascii	"MemManage_Handler\000"
 3124      616E6167 
 3124      655F4861 
 3124      6E646C65 
 3124      7200
 3125              	.LASF18:
 3126 0298 5F5F7763 		.ascii	"__wchb\000"
 3126      686200
 3127              	.LASF134:
 3128 029f 53797374 		.ascii	"SystemCoreClock\000"
 3128      656D436F 
 3128      7265436C 
 3128      6F636B00 
 3129              	.LASF71:
 3130 02af 5F737464 		.ascii	"_stdout\000"
 3130      6F757400 
 3131              	.LASF83:
 3132 02b7 5F637674 		.ascii	"_cvtlen\000"
 3132      6C656E00 
 3133              	.LASF11:
 3134 02bf 6C6F6E67 		.ascii	"long unsigned int\000"
 3134      20756E73 
 3134      69676E65 
 3134      6420696E 
 3134      7400
 3135              	.LASF53:
 3136 02d1 5F66696C 		.ascii	"_file\000"
 3136      6500
 3137              	.LASF64:
 3138 02d7 5F646174 		.ascii	"_data\000"
 3138      6100
 3139              	.LASF92:
 3140 02dd 5F6E696F 		.ascii	"_niobs\000"
 3140      627300
 3141              	.LASF103:
 3142 02e4 5F72616E 		.ascii	"_rand_next\000"
 3142      645F6E65 
 3142      787400
 3143              	.LASF109:
 3144 02ef 5F736967 		.ascii	"_signal_buf\000"
 3144      6E616C5F 
 3144      62756600 
 3145              	.LASF100:
 3146 02fb 5F617363 		.ascii	"_asctime_buf\000"
 3146      74696D65 
 3146      5F627566 
 3146      00
 3147              	.LASF79:
 3148 0308 5F726573 		.ascii	"_result\000"
 3148      756C7400 
 3149              	.LASF17:
 3150 0310 5F5F7763 		.ascii	"__wch\000"
 3150      6800
 3151              	.LASF155:
ARM GAS  C:\Users\EBANO_~1\AppData\Local\Temp\ccBx8b8i.s 			page 63


 3152 0316 48617264 		.ascii	"HardFault_Handler\000"
 3152      4661756C 
 3152      745F4861 
 3152      6E646C65 
 3152      7200
 3153              	.LASF85:
 3154 0328 5F6E6577 		.ascii	"_new\000"
 3154      00
 3155              	.LASF65:
 3156 032d 5F6C6F63 		.ascii	"_lock\000"
 3156      6B00
 3157              	.LASF96:
 3158 0333 5F6D756C 		.ascii	"_mult\000"
 3158      7400
 3159              	.LASF13:
 3160 0339 5F4C4F43 		.ascii	"_LOCK_T\000"
 3160      4B5F5400 
 3161              	.LASF57:
 3162 0341 5F777269 		.ascii	"_write\000"
 3162      746500
 3163              	.LASF36:
 3164 0348 5F5F746D 		.ascii	"__tm_year\000"
 3164      5F796561 
 3164      7200
 3165              	.LASF118:
 3166 0352 5F6E6D61 		.ascii	"_nmalloc\000"
 3166      6C6C6F63 
 3166      00
 3167              	.LASF137:
 3168 035b 504C4C4D 		.ascii	"PLLMulTable\000"
 3168      756C5461 
 3168      626C6500 
 3169              	.LASF162:
 3170 0367 2E2E2F43 		.ascii	"../Core/src/mlm32l0xx_it.c\000"
 3170      6F72652F 
 3170      7372632F 
 3170      6D6C6D33 
 3170      326C3078 
 3171              	.LASF117:
 3172 0382 5F6E6578 		.ascii	"_nextf\000"
 3172      746600
 3173              	.LASF147:
 3174 0389 55534152 		.ascii	"USART2_IRQHandler\000"
 3174      54325F49 
 3174      52514861 
 3174      6E646C65 
 3174      7200
 3175              	.LASF35:
 3176 039b 5F5F746D 		.ascii	"__tm_mon\000"
 3176      5F6D6F6E 
 3176      00
 3177              	.LASF45:
 3178 03a4 5F617465 		.ascii	"_atexit\000"
 3178      78697400 
 3179              	.LASF138:
 3180 03ac 7375626F 		.ascii	"suboptarg\000"
 3180      70746172 
ARM GAS  C:\Users\EBANO_~1\AppData\Local\Temp\ccBx8b8i.s 			page 64


 3180      6700
 3181              	.LASF77:
 3182 03b6 5F5F7364 		.ascii	"__sdidinit\000"
 3182      6964696E 
 3182      697400
 3183              	.LASF102:
 3184 03c1 5F67616D 		.ascii	"_gamma_signgam\000"
 3184      6D615F73 
 3184      69676E67 
 3184      616D00
 3185              	.LASF16:
 3186 03d0 77696E74 		.ascii	"wint_t\000"
 3186      5F7400
 3187              	.LASF124:
 3188 03d7 666C6F61 		.ascii	"float\000"
 3188      7400
 3189              	.LASF82:
 3190 03dd 5F667265 		.ascii	"_freelist\000"
 3190      656C6973 
 3190      7400
 3191              	.LASF159:
 3192 03e7 76636F6D 		.ascii	"vcom_IRQHandler\000"
 3192      5F495251 
 3192      48616E64 
 3192      6C657200 
 3193              	.LASF139:
 3194 03f7 5F74696D 		.ascii	"_timezone\000"
 3194      657A6F6E 
 3194      6500
 3195              	.LASF107:
 3196 0401 5F776374 		.ascii	"_wctomb_state\000"
 3196      6F6D625F 
 3196      73746174 
 3196      6500
 3197              	.LASF161:
 3198 040f 474E5520 		.ascii	"GNU C11 7.3.1 20180622 (release) [ARM/embedded-7-br"
 3198      43313120 
 3198      372E332E 
 3198      31203230 
 3198      31383036 
 3199 0442 616E6368 		.ascii	"anch revision 261907] -mcpu=cortex-m0plus -mthumb -"
 3199      20726576 
 3199      6973696F 
 3199      6E203236 
 3199      31393037 
 3200 0475 6D666C6F 		.ascii	"mfloat-abi=soft -gdwarf-2 -O3 -ffunction-sections\000"
 3200      61742D61 
 3200      62693D73 
 3200      6F667420 
 3200      2D676477 
 3201              	.LASF4:
 3202 04a7 756E7369 		.ascii	"unsigned char\000"
 3202      676E6564 
 3202      20636861 
 3202      7200
 3203              	.LASF93:
 3204 04b5 5F696F62 		.ascii	"_iobs\000"
ARM GAS  C:\Users\EBANO_~1\AppData\Local\Temp\ccBx8b8i.s 			page 65


 3204      7300
 3205              	.LASF116:
 3206 04bb 5F685F65 		.ascii	"_h_errno\000"
 3206      72726E6F 
 3206      00
 3207              	.LASF22:
 3208 04c4 5F666C6F 		.ascii	"_flock_t\000"
 3208      636B5F74 
 3208      00
 3209              	.LASF38:
 3210 04cd 5F5F746D 		.ascii	"__tm_yday\000"
 3210      5F796461 
 3210      7900
 3211              	.LASF48:
 3212 04d7 5F5F7362 		.ascii	"__sbuf\000"
 3212      756600
 3213              	.LASF67:
 3214 04de 5F666C61 		.ascii	"_flags2\000"
 3214      67733200 
 3215              	.LASF156:
 3216 04e6 48414C5F 		.ascii	"HAL_GPIO_EXTI_IRQHandler\000"
 3216      4750494F 
 3216      5F455854 
 3216      495F4952 
 3216      5148616E 
 3217              	.LASF90:
 3218 04ff 5F5F4649 		.ascii	"__FILE\000"
 3218      4C4500
 3219              	.LASF21:
 3220 0506 5F6D6273 		.ascii	"_mbstate_t\000"
 3220      74617465 
 3220      5F7400
 3221              	.LASF51:
 3222 0511 5F5F7346 		.ascii	"__sFILE\000"
 3222      494C4500 
 3223              	.LASF145:
 3224 0519 5254435F 		.ascii	"RTC_IRQHandler\000"
 3224      49525148 
 3224      616E646C 
 3224      657200
 3225              	.LASF105:
 3226 0528 5F6D626C 		.ascii	"_mblen_state\000"
 3226      656E5F73 
 3226      74617465 
 3226      00
 3227              	.LASF73:
 3228 0535 5F696E63 		.ascii	"_inc\000"
 3228      00
 3229              	.LASF46:
 3230 053a 5F696E64 		.ascii	"_ind\000"
 3230      00
 3231              	.LASF151:
 3232 053f 5356435F 		.ascii	"SVC_Handler\000"
 3232      48616E64 
 3232      6C657200 
 3233              	.LASF76:
 3234 054b 5F6C6F63 		.ascii	"_locale\000"
ARM GAS  C:\Users\EBANO_~1\AppData\Local\Temp\ccBx8b8i.s 			page 66


 3234      616C6500 
 3235              	.LASF78:
 3236 0553 5F5F636C 		.ascii	"__cleanup\000"
 3236      65616E75 
 3236      7000
 3237              	.LASF75:
 3238 055d 5F756E73 		.ascii	"_unspecified_locale_info\000"
 3238      70656369 
 3238      66696564 
 3238      5F6C6F63 
 3238      616C655F 
 3239              	.LASF26:
 3240 0576 5F6D6178 		.ascii	"_maxwds\000"
 3240      77647300 
 3241              	.LASF68:
 3242 057e 5F726565 		.ascii	"_reent\000"
 3242      6E7400
 3243              	.LASF95:
 3244 0585 5F736565 		.ascii	"_seed\000"
 3244      6400
 3245              	.LASF19:
 3246 058b 5F5F636F 		.ascii	"__count\000"
 3246      756E7400 
 3247              	.LASF120:
 3248 0593 5F5F6C6F 		.ascii	"__lock\000"
 3248      636B00
 3249              	.LASF20:
 3250 059a 5F5F7661 		.ascii	"__value\000"
 3250      6C756500 
 3251              	.LASF58:
 3252 05a2 5F736565 		.ascii	"_seek\000"
 3252      6B00
 3253              	.LASF148:
 3254 05a8 53797354 		.ascii	"SysTick_Handler\000"
 3254      69636B5F 
 3254      48616E64 
 3254      6C657200 
 3255              	.LASF37:
 3256 05b8 5F5F746D 		.ascii	"__tm_wday\000"
 3256      5F776461 
 3256      7900
 3257              	.LASF15:
 3258 05c2 5F66706F 		.ascii	"_fpos_t\000"
 3258      735F7400 
 3259              	.LASF144:
 3260 05ca 45585449 		.ascii	"EXTI0_1_IRQHandler\000"
 3260      305F315F 
 3260      49525148 
 3260      616E646C 
 3260      657200
 3261              	.LASF2:
 3262 05dd 6C6F6E67 		.ascii	"long double\000"
 3262      20646F75 
 3262      626C6500 
 3263              	.LASF69:
 3264 05e9 5F657272 		.ascii	"_errno\000"
 3264      6E6F00
ARM GAS  C:\Users\EBANO_~1\AppData\Local\Temp\ccBx8b8i.s 			page 67


 3265              	.LASF23:
 3266 05f0 63686172 		.ascii	"char\000"
 3266      00
 3267              	.LASF62:
 3268 05f5 5F626C6B 		.ascii	"_blksize\000"
 3268      73697A65 
 3268      00
 3269              	.LASF50:
 3270 05fe 5F73697A 		.ascii	"_size\000"
 3270      6500
 3271              	.LASF0:
 3272 0604 756E7369 		.ascii	"unsigned int\000"
 3272      676E6564 
 3272      20696E74 
 3272      00
 3273              	.LASF7:
 3274 0611 5F5F7569 		.ascii	"__uint16_t\000"
 3274      6E743136 
 3274      5F7400
 3275              	.LASF157:
 3276 061c 48575F52 		.ascii	"HW_RTC_IrqHandler\000"
 3276      54435F49 
 3276      72714861 
 3276      6E646C65 
 3276      7200
 3277              	.LASF135:
 3278 062e 41484250 		.ascii	"AHBPrescTable\000"
 3278      72657363 
 3278      5461626C 
 3278      6500
 3279              	.LASF25:
 3280 063c 5F6E6578 		.ascii	"_next\000"
 3280      7400
 3281              	.LASF99:
 3282 0642 5F737472 		.ascii	"_strtok_last\000"
 3282      746F6B5F 
 3282      6C617374 
 3282      00
 3283              	.LASF43:
 3284 064f 5F666E74 		.ascii	"_fntypes\000"
 3284      79706573 
 3284      00
 3285              	.LASF8:
 3286 0658 73686F72 		.ascii	"short unsigned int\000"
 3286      7420756E 
 3286      7369676E 
 3286      65642069 
 3286      6E7400
 3287              	.LASF97:
 3288 066b 5F616464 		.ascii	"_add\000"
 3288      00
 3289              	.LASF24:
 3290 0670 5F5F554C 		.ascii	"__ULong\000"
 3290      6F6E6700 
 3291              	.LASF110:
 3292 0678 5F676574 		.ascii	"_getdate_err\000"
 3292      64617465 
ARM GAS  C:\Users\EBANO_~1\AppData\Local\Temp\ccBx8b8i.s 			page 68


 3292      5F657272 
 3292      00
 3293              	.LASF164:
 3294 0685 5F5F6664 		.ascii	"__fdlibm_version\000"
 3294      6C69626D 
 3294      5F766572 
 3294      73696F6E 
 3294      00
 3295              	.LASF160:
 3296 0696 48414C5F 		.ascii	"HAL_IncTick\000"
 3296      496E6354 
 3296      69636B00 
 3297              	.LASF123:
 3298 06a2 5F676C6F 		.ascii	"_global_impure_ptr\000"
 3298      62616C5F 
 3298      696D7075 
 3298      72655F70 
 3298      747200
 3299              	.LASF126:
 3300 06b5 5F5F6664 		.ascii	"__fdlibm_ieee\000"
 3300      6C69626D 
 3300      5F696565 
 3300      6500
 3301              	.LASF98:
 3302 06c3 5F756E75 		.ascii	"_unused_rand\000"
 3302      7365645F 
 3302      72616E64 
 3302      00
 3303              	.LASF143:
 3304 06d0 45585449 		.ascii	"EXTI2_3_IRQHandler\000"
 3304      325F335F 
 3304      49525148 
 3304      616E646C 
 3304      657200
 3305              	.LASF28:
 3306 06e3 5F776473 		.ascii	"_wds\000"
 3306      00
 3307              	.LASF91:
 3308 06e8 5F676C75 		.ascii	"_glue\000"
 3308      6500
 3309              	.LASF70:
 3310 06ee 5F737464 		.ascii	"_stdin\000"
 3310      696E00
 3311              	.LASF130:
 3312 06f5 5F5F6664 		.ascii	"__fdlib_version\000"
 3312      6C69625F 
 3312      76657273 
 3312      696F6E00 
 3313              	.LASF131:
 3314 0705 75696E74 		.ascii	"uint8_t\000"
 3314      385F7400 
 3315              	.LASF108:
 3316 070d 5F6C3634 		.ascii	"_l64a_buf\000"
 3316      615F6275 
 3316      6600
 3317              	.LASF87:
 3318 0717 5F736967 		.ascii	"_sig_func\000"
ARM GAS  C:\Users\EBANO_~1\AppData\Local\Temp\ccBx8b8i.s 			page 69


 3318      5F66756E 
 3318      6300
 3319              	.LASF163:
 3320 0721 443A5C67 		.ascii	"D:\\git_pessoal\\keil_gcc\\STM32CubeExpansion_LRWAN"
 3320      69745F70 
 3320      6573736F 
 3320      616C5C6B 
 3320      65696C5F 
 3321 0751 5F56312E 		.ascii	"_V1.2.1\\Projects\\B-L072Z-LRWAN1\\Applications\\Lo"
 3321      322E315C 
 3321      50726F6A 
 3321      65637473 
 3321      5C422D4C 
 3322 0780 52615C45 		.ascii	"Ra\\End_Node\\MDK-ARM\000"
 3322      6E645F4E 
 3322      6F64655C 
 3322      4D444B2D 
 3322      41524D00 
 3323              	.LASF61:
 3324 0794 5F6E6275 		.ascii	"_nbuf\000"
 3324      6600
 3325              	.LASF119:
 3326 079a 5F756E75 		.ascii	"_unused\000"
 3326      73656400 
 3327              	.LASF39:
 3328 07a2 5F5F746D 		.ascii	"__tm_isdst\000"
 3328      5F697364 
 3328      737400
 3329              	.LASF101:
 3330 07ad 5F6C6F63 		.ascii	"_localtime_buf\000"
 3330      616C7469 
 3330      6D655F62 
 3330      756600
 3331              	.LASF32:
 3332 07bc 5F5F746D 		.ascii	"__tm_min\000"
 3332      5F6D696E 
 3332      00
 3333              	.LASF104:
 3334 07c5 5F723438 		.ascii	"_r48\000"
 3334      00
 3335              	.LASF106:
 3336 07ca 5F6D6274 		.ascii	"_mbtowc_state\000"
 3336      6F77635F 
 3336      73746174 
 3336      6500
 3337              	.LASF149:
 3338 07d8 50656E64 		.ascii	"PendSV_Handler\000"
 3338      53565F48 
 3338      616E646C 
 3338      657200
 3339              	.LASF81:
 3340 07e7 5F703573 		.ascii	"_p5s\000"
 3340      00
 3341              	.LASF133:
 3342 07ec 75696E74 		.ascii	"uint32_t\000"
 3342      33325F74 
 3342      00
ARM GAS  C:\Users\EBANO_~1\AppData\Local\Temp\ccBx8b8i.s 			page 70


 3343              	.LASF34:
 3344 07f5 5F5F746D 		.ascii	"__tm_mday\000"
 3344      5F6D6461 
 3344      7900
 3345              		.ident	"GCC: (GNU Tools for Arm Embedded Processors 7-2018-q2-update) 7.3.1 20180622 (release) [AR
ARM GAS  C:\Users\EBANO_~1\AppData\Local\Temp\ccBx8b8i.s 			page 71


DEFINED SYMBOLS
                            *ABS*:00000000 mlm32l0xx_it.c
C:\Users\EBANO_~1\AppData\Local\Temp\ccBx8b8i.s:16     .text.NMI_Handler:00000000 $t
C:\Users\EBANO_~1\AppData\Local\Temp\ccBx8b8i.s:24     .text.NMI_Handler:00000000 NMI_Handler
C:\Users\EBANO_~1\AppData\Local\Temp\ccBx8b8i.s:39     .text.HardFault_Handler:00000000 $t
C:\Users\EBANO_~1\AppData\Local\Temp\ccBx8b8i.s:47     .text.HardFault_Handler:00000000 HardFault_Handler
C:\Users\EBANO_~1\AppData\Local\Temp\ccBx8b8i.s:68     .text.MemManage_Handler:00000000 $t
C:\Users\EBANO_~1\AppData\Local\Temp\ccBx8b8i.s:76     .text.MemManage_Handler:00000000 MemManage_Handler
C:\Users\EBANO_~1\AppData\Local\Temp\ccBx8b8i.s:90     .text.BusFault_Handler:00000000 $t
C:\Users\EBANO_~1\AppData\Local\Temp\ccBx8b8i.s:98     .text.BusFault_Handler:00000000 BusFault_Handler
C:\Users\EBANO_~1\AppData\Local\Temp\ccBx8b8i.s:112    .text.UsageFault_Handler:00000000 $t
C:\Users\EBANO_~1\AppData\Local\Temp\ccBx8b8i.s:120    .text.UsageFault_Handler:00000000 UsageFault_Handler
C:\Users\EBANO_~1\AppData\Local\Temp\ccBx8b8i.s:134    .text.SVC_Handler:00000000 $t
C:\Users\EBANO_~1\AppData\Local\Temp\ccBx8b8i.s:142    .text.SVC_Handler:00000000 SVC_Handler
C:\Users\EBANO_~1\AppData\Local\Temp\ccBx8b8i.s:154    .text.DebugMon_Handler:00000000 $t
C:\Users\EBANO_~1\AppData\Local\Temp\ccBx8b8i.s:162    .text.DebugMon_Handler:00000000 DebugMon_Handler
C:\Users\EBANO_~1\AppData\Local\Temp\ccBx8b8i.s:174    .text.PendSV_Handler:00000000 $t
C:\Users\EBANO_~1\AppData\Local\Temp\ccBx8b8i.s:182    .text.PendSV_Handler:00000000 PendSV_Handler
C:\Users\EBANO_~1\AppData\Local\Temp\ccBx8b8i.s:194    .text.SysTick_Handler:00000000 $t
C:\Users\EBANO_~1\AppData\Local\Temp\ccBx8b8i.s:202    .text.SysTick_Handler:00000000 SysTick_Handler
C:\Users\EBANO_~1\AppData\Local\Temp\ccBx8b8i.s:224    .text.USART2_IRQHandler:00000000 $t
C:\Users\EBANO_~1\AppData\Local\Temp\ccBx8b8i.s:232    .text.USART2_IRQHandler:00000000 USART2_IRQHandler
C:\Users\EBANO_~1\AppData\Local\Temp\ccBx8b8i.s:253    .text.DMA1_Channel4_5_6_7_IRQHandler:00000000 $t
C:\Users\EBANO_~1\AppData\Local\Temp\ccBx8b8i.s:261    .text.DMA1_Channel4_5_6_7_IRQHandler:00000000 DMA1_Channel4_5_6_7_IRQHandler
C:\Users\EBANO_~1\AppData\Local\Temp\ccBx8b8i.s:282    .text.RTC_IRQHandler:00000000 $t
C:\Users\EBANO_~1\AppData\Local\Temp\ccBx8b8i.s:290    .text.RTC_IRQHandler:00000000 RTC_IRQHandler
C:\Users\EBANO_~1\AppData\Local\Temp\ccBx8b8i.s:311    .text.EXTI0_1_IRQHandler:00000000 $t
C:\Users\EBANO_~1\AppData\Local\Temp\ccBx8b8i.s:319    .text.EXTI0_1_IRQHandler:00000000 EXTI0_1_IRQHandler
C:\Users\EBANO_~1\AppData\Local\Temp\ccBx8b8i.s:345    .text.EXTI2_3_IRQHandler:00000000 $t
C:\Users\EBANO_~1\AppData\Local\Temp\ccBx8b8i.s:353    .text.EXTI2_3_IRQHandler:00000000 EXTI2_3_IRQHandler
C:\Users\EBANO_~1\AppData\Local\Temp\ccBx8b8i.s:379    .text.EXTI4_15_IRQHandler:00000000 $t
C:\Users\EBANO_~1\AppData\Local\Temp\ccBx8b8i.s:387    .text.EXTI4_15_IRQHandler:00000000 EXTI4_15_IRQHandler

UNDEFINED SYMBOLS
HAL_IncTick
vcom_IRQHandler
vcom_DMA_TX_IRQHandler
HW_RTC_IrqHandler
HAL_GPIO_EXTI_IRQHandler
