ARM GAS  C:\Users\EBANO_~1\AppData\Local\Temp\cca8j2GX.s 			page 1


   1              		.cpu cortex-m0plus
   2              		.eabi_attribute 20, 1
   3              		.eabi_attribute 21, 1
   4              		.eabi_attribute 23, 3
   5              		.eabi_attribute 24, 1
   6              		.eabi_attribute 25, 1
   7              		.eabi_attribute 26, 1
   8              		.eabi_attribute 30, 2
   9              		.eabi_attribute 34, 0
  10              		.eabi_attribute 18, 4
  11              		.file	"mlm32l0xx_hal_msp.c"
  12              		.text
  13              	.Ltext0:
  14              		.cfi_sections	.debug_frame
  15              		.section	.text.HAL_InitTick,"ax",%progbits
  16              		.align	1
  17              		.p2align 2,,3
  18              		.global	HAL_InitTick
  19              		.syntax unified
  20              		.code	16
  21              		.thumb_func
  22              		.fpu softvfp
  23              		.type	HAL_InitTick, %function
  24              	HAL_InitTick:
  25              	.LFB39:
  26              		.file 1 "../Core/src/mlm32l0xx_hal_msp.c"
   1:../Core/src/mlm32l0xx_hal_msp.c **** /**
   2:../Core/src/mlm32l0xx_hal_msp.c ****   ******************************************************************************
   3:../Core/src/mlm32l0xx_hal_msp.c ****   * @file    mlm32l0xx_hal_msp.c
   4:../Core/src/mlm32l0xx_hal_msp.c ****   * @author  MCD Application Team
   5:../Core/src/mlm32l0xx_hal_msp.c ****   * @brief   msp file for HAL
   6:../Core/src/mlm32l0xx_hal_msp.c ****   ******************************************************************************
   7:../Core/src/mlm32l0xx_hal_msp.c ****   * @attention
   8:../Core/src/mlm32l0xx_hal_msp.c ****   *
   9:../Core/src/mlm32l0xx_hal_msp.c ****   * <h2><center>&copy; Copyright (c) 2018 STMicroelectronics.
  10:../Core/src/mlm32l0xx_hal_msp.c ****   * All rights reserved.</center></h2>
  11:../Core/src/mlm32l0xx_hal_msp.c ****   *
  12:../Core/src/mlm32l0xx_hal_msp.c ****   * This software component is licensed by ST under Ultimate Liberty license
  13:../Core/src/mlm32l0xx_hal_msp.c ****   * SLA0044, the "License"; You may not use this file except in compliance with
  14:../Core/src/mlm32l0xx_hal_msp.c ****   * the License. You may obtain a copy of the License at:
  15:../Core/src/mlm32l0xx_hal_msp.c ****   *                             www.st.com/SLA0044
  16:../Core/src/mlm32l0xx_hal_msp.c ****   *
  17:../Core/src/mlm32l0xx_hal_msp.c ****   ******************************************************************************
  18:../Core/src/mlm32l0xx_hal_msp.c ****   */
  19:../Core/src/mlm32l0xx_hal_msp.c **** 
  20:../Core/src/mlm32l0xx_hal_msp.c **** /* Includes ------------------------------------------------------------------*/
  21:../Core/src/mlm32l0xx_hal_msp.c **** #include "hw.h"
  22:../Core/src/mlm32l0xx_hal_msp.c **** #include "timeServer.h"
  23:../Core/src/mlm32l0xx_hal_msp.c **** /* when fast wake up is enabled, the mcu wakes up in ~20us  * and 
  24:../Core/src/mlm32l0xx_hal_msp.c ****  * does not wait for the VREFINT to be settled. THis is ok for 
  25:../Core/src/mlm32l0xx_hal_msp.c ****  * most of the case except when adc must be used in this case before 
  26:../Core/src/mlm32l0xx_hal_msp.c ****  *starting the adc, you must make sure VREFINT is settled*/
  27:../Core/src/mlm32l0xx_hal_msp.c **** #define ENABLE_FAST_WAKEUP
  28:../Core/src/mlm32l0xx_hal_msp.c **** 
  29:../Core/src/mlm32l0xx_hal_msp.c **** /* Private typedef -----------------------------------------------------------*/
  30:../Core/src/mlm32l0xx_hal_msp.c **** /* Private define ------------------------------------------------------------*/
  31:../Core/src/mlm32l0xx_hal_msp.c **** /* Private macro -------------------------------------------------------------*/
ARM GAS  C:\Users\EBANO_~1\AppData\Local\Temp\cca8j2GX.s 			page 2


  32:../Core/src/mlm32l0xx_hal_msp.c **** /* Private variables ---------------------------------------------------------*/
  33:../Core/src/mlm32l0xx_hal_msp.c **** /* Private function prototypes -----------------------------------------------*/
  34:../Core/src/mlm32l0xx_hal_msp.c **** /* Private functions ---------------------------------------------------------*/
  35:../Core/src/mlm32l0xx_hal_msp.c **** 
  36:../Core/src/mlm32l0xx_hal_msp.c **** /**
  37:../Core/src/mlm32l0xx_hal_msp.c ****   * @brief This function configures the source of the time base.
  38:../Core/src/mlm32l0xx_hal_msp.c ****   * @brief  don't enable systick
  39:../Core/src/mlm32l0xx_hal_msp.c ****   * @param TickPriority: Tick interrupt priority.
  40:../Core/src/mlm32l0xx_hal_msp.c ****   * @retval HAL status
  41:../Core/src/mlm32l0xx_hal_msp.c ****   */
  42:../Core/src/mlm32l0xx_hal_msp.c **** HAL_StatusTypeDef HAL_InitTick(uint32_t TickPriority)
  43:../Core/src/mlm32l0xx_hal_msp.c **** {
  27              		.loc 1 43 0
  28              		.cfi_startproc
  29              		@ args = 0, pretend = 0, frame = 0
  30              		@ frame_needed = 0, uses_anonymous_args = 0
  31              		@ link register save eliminated.
  32              	.LVL0:
  44:../Core/src/mlm32l0xx_hal_msp.c ****    /* Return function status */
  45:../Core/src/mlm32l0xx_hal_msp.c ****   return HAL_OK;
  46:../Core/src/mlm32l0xx_hal_msp.c **** }
  33              		.loc 1 46 0
  34 0000 0020     		movs	r0, #0
  35              	.LVL1:
  36              		@ sp needed
  37 0002 7047     		bx	lr
  38              		.cfi_endproc
  39              	.LFE39:
  40              		.size	HAL_InitTick, .-HAL_InitTick
  41              		.section	.text.HAL_Delay,"ax",%progbits
  42              		.align	1
  43              		.p2align 2,,3
  44              		.global	HAL_Delay
  45              		.syntax unified
  46              		.code	16
  47              		.thumb_func
  48              		.fpu softvfp
  49              		.type	HAL_Delay, %function
  50              	HAL_Delay:
  51              	.LFB40:
  47:../Core/src/mlm32l0xx_hal_msp.c **** 
  48:../Core/src/mlm32l0xx_hal_msp.c **** /**
  49:../Core/src/mlm32l0xx_hal_msp.c ****   * @brief This function provides delay (in ms)
  50:../Core/src/mlm32l0xx_hal_msp.c ****   * @param Delay: specifies the delay time length, in milliseconds.
  51:../Core/src/mlm32l0xx_hal_msp.c ****   * @retval None
  52:../Core/src/mlm32l0xx_hal_msp.c ****   */
  53:../Core/src/mlm32l0xx_hal_msp.c **** void HAL_Delay(__IO uint32_t Delay)
  54:../Core/src/mlm32l0xx_hal_msp.c **** {
  52              		.loc 1 54 0
  53              		.cfi_startproc
  54              		@ args = 0, pretend = 0, frame = 8
  55              		@ frame_needed = 0, uses_anonymous_args = 0
  56              	.LVL2:
  57 0000 00B5     		push	{lr}
  58              	.LCFI0:
  59              		.cfi_def_cfa_offset 4
  60              		.cfi_offset 14, -4
ARM GAS  C:\Users\EBANO_~1\AppData\Local\Temp\cca8j2GX.s 			page 3


  61 0002 83B0     		sub	sp, sp, #12
  62              	.LCFI1:
  63              		.cfi_def_cfa_offset 16
  64              		.loc 1 54 0
  65 0004 0190     		str	r0, [sp, #4]
  55:../Core/src/mlm32l0xx_hal_msp.c ****   HW_RTC_DelayMs( Delay ); /* based on RTC */
  66              		.loc 1 55 0
  67 0006 0198     		ldr	r0, [sp, #4]
  68              	.LVL3:
  69 0008 FFF7FEFF 		bl	HW_RTC_DelayMs
  70              	.LVL4:
  56:../Core/src/mlm32l0xx_hal_msp.c **** }
  71              		.loc 1 56 0
  72 000c 03B0     		add	sp, sp, #12
  73              		@ sp needed
  74 000e 00BD     		pop	{pc}
  75              		.cfi_endproc
  76              	.LFE40:
  77              		.size	HAL_Delay, .-HAL_Delay
  78              		.section	.text.HAL_MspInit,"ax",%progbits
  79              		.align	1
  80              		.p2align 2,,3
  81              		.global	HAL_MspInit
  82              		.syntax unified
  83              		.code	16
  84              		.thumb_func
  85              		.fpu softvfp
  86              		.type	HAL_MspInit, %function
  87              	HAL_MspInit:
  88              	.LFB41:
  57:../Core/src/mlm32l0xx_hal_msp.c **** 
  58:../Core/src/mlm32l0xx_hal_msp.c **** /**
  59:../Core/src/mlm32l0xx_hal_msp.c ****   * @brief  Initializes the MSP.
  60:../Core/src/mlm32l0xx_hal_msp.c ****   * @retval None
  61:../Core/src/mlm32l0xx_hal_msp.c ****   */
  62:../Core/src/mlm32l0xx_hal_msp.c **** void HAL_MspInit(void)
  63:../Core/src/mlm32l0xx_hal_msp.c **** {
  89              		.loc 1 63 0
  90              		.cfi_startproc
  91              		@ args = 0, pretend = 0, frame = 0
  92              		@ frame_needed = 0, uses_anonymous_args = 0
  64:../Core/src/mlm32l0xx_hal_msp.c ****   __HAL_RCC_PWR_CLK_ENABLE();
  93              		.loc 1 64 0
  94 0000 8023     		movs	r3, #128
  95 0002 0A4A     		ldr	r2, .L5
  96 0004 5B05     		lsls	r3, r3, #21
  97 0006 916B     		ldr	r1, [r2, #56]
  63:../Core/src/mlm32l0xx_hal_msp.c ****   __HAL_RCC_PWR_CLK_ENABLE();
  98              		.loc 1 63 0
  99 0008 10B5     		push	{r4, lr}
 100              	.LCFI2:
 101              		.cfi_def_cfa_offset 8
 102              		.cfi_offset 4, -8
 103              		.cfi_offset 14, -4
 104              		.loc 1 64 0
 105 000a 0B43     		orrs	r3, r1
 106 000c 9363     		str	r3, [r2, #56]
ARM GAS  C:\Users\EBANO_~1\AppData\Local\Temp\cca8j2GX.s 			page 4


  65:../Core/src/mlm32l0xx_hal_msp.c ****   
  66:../Core/src/mlm32l0xx_hal_msp.c ****   /* Disable the Power Voltage Detector */
  67:../Core/src/mlm32l0xx_hal_msp.c ****   HAL_PWR_DisablePVD( ); 
 107              		.loc 1 67 0
 108 000e FFF7FEFF 		bl	HAL_PWR_DisablePVD
 109              	.LVL5:
  68:../Core/src/mlm32l0xx_hal_msp.c **** 
  69:../Core/src/mlm32l0xx_hal_msp.c ****   /* Enables the Ultra Low Power mode */
  70:../Core/src/mlm32l0xx_hal_msp.c ****   HAL_PWREx_EnableUltraLowPower( );
 110              		.loc 1 70 0
 111 0012 FFF7FEFF 		bl	HAL_PWREx_EnableUltraLowPower
 112              	.LVL6:
  71:../Core/src/mlm32l0xx_hal_msp.c ****   
  72:../Core/src/mlm32l0xx_hal_msp.c ****   __HAL_FLASH_SLEEP_POWERDOWN_ENABLE();
 113              		.loc 1 72 0
 114 0016 0821     		movs	r1, #8
 115 0018 054A     		ldr	r2, .L5+4
  73:../Core/src/mlm32l0xx_hal_msp.c ****   
  74:../Core/src/mlm32l0xx_hal_msp.c ****   /*In debug mode, e.g. when DBGMCU is activated, Arm core has always clocks
  75:../Core/src/mlm32l0xx_hal_msp.c ****    * And will not wait that the FLACH is ready to be read. It can miss in this 
  76:../Core/src/mlm32l0xx_hal_msp.c ****    * case the first instruction. To overcome this issue, the flash remain clcoked during sleep mode
  77:../Core/src/mlm32l0xx_hal_msp.c ****    */
  78:../Core/src/mlm32l0xx_hal_msp.c ****   DBG( __HAL_FLASH_SLEEP_POWERDOWN_DISABLE(); );
  79:../Core/src/mlm32l0xx_hal_msp.c ****   
  80:../Core/src/mlm32l0xx_hal_msp.c **** #ifdef ENABLE_FAST_WAKEUP
  81:../Core/src/mlm32l0xx_hal_msp.c ****   /*Enable fast wakeUp*/  
  82:../Core/src/mlm32l0xx_hal_msp.c ****   HAL_PWREx_EnableFastWakeUp( );
  83:../Core/src/mlm32l0xx_hal_msp.c **** #else  
  84:../Core/src/mlm32l0xx_hal_msp.c ****   HAL_PWREx_DisableFastWakeUp( );
  85:../Core/src/mlm32l0xx_hal_msp.c **** #endif
  86:../Core/src/mlm32l0xx_hal_msp.c **** 
  87:../Core/src/mlm32l0xx_hal_msp.c ****   HW_GpioInit( );
  88:../Core/src/mlm32l0xx_hal_msp.c **** }
 116              		.loc 1 88 0
 117              		@ sp needed
  72:../Core/src/mlm32l0xx_hal_msp.c ****   
 118              		.loc 1 72 0
 119 001a 1368     		ldr	r3, [r2]
 120 001c 0B43     		orrs	r3, r1
 121 001e 1360     		str	r3, [r2]
  82:../Core/src/mlm32l0xx_hal_msp.c **** #else  
 122              		.loc 1 82 0
 123 0020 FFF7FEFF 		bl	HAL_PWREx_EnableFastWakeUp
 124              	.LVL7:
  87:../Core/src/mlm32l0xx_hal_msp.c **** }
 125              		.loc 1 87 0
 126 0024 FFF7FEFF 		bl	HW_GpioInit
 127              	.LVL8:
 128              		.loc 1 88 0
 129 0028 10BD     		pop	{r4, pc}
 130              	.L6:
 131 002a C046     		.align	2
 132              	.L5:
 133 002c 00100240 		.word	1073876992
 134 0030 00200240 		.word	1073881088
 135              		.cfi_endproc
 136              	.LFE41:
ARM GAS  C:\Users\EBANO_~1\AppData\Local\Temp\cca8j2GX.s 			page 5


 137              		.size	HAL_MspInit, .-HAL_MspInit
 138              		.section	.text.HAL_RTC_MspInit,"ax",%progbits
 139              		.align	1
 140              		.p2align 2,,3
 141              		.global	HAL_RTC_MspInit
 142              		.syntax unified
 143              		.code	16
 144              		.thumb_func
 145              		.fpu softvfp
 146              		.type	HAL_RTC_MspInit, %function
 147              	HAL_RTC_MspInit:
 148              	.LFB42:
  89:../Core/src/mlm32l0xx_hal_msp.c **** 
  90:../Core/src/mlm32l0xx_hal_msp.c **** /**
  91:../Core/src/mlm32l0xx_hal_msp.c ****   * @brief RTC MSP Initialization
  92:../Core/src/mlm32l0xx_hal_msp.c ****   *        This function configures the hardware resources used in this example:
  93:../Core/src/mlm32l0xx_hal_msp.c ****   *           - Peripheral's clock enable
  94:../Core/src/mlm32l0xx_hal_msp.c ****   * @param hrtc: RTC handle pointer
  95:../Core/src/mlm32l0xx_hal_msp.c ****   * @note  Care must be taken when HAL_RCCEx_PeriphCLKConfig() is used to select 
  96:../Core/src/mlm32l0xx_hal_msp.c ****   *        the RTC clock source; in this case the Backup domain will be reset in  
  97:../Core/src/mlm32l0xx_hal_msp.c ****   *        order to modify the RTC Clock source, as consequence RTC registers (including 
  98:../Core/src/mlm32l0xx_hal_msp.c ****   *        the backup registers) and RCC_CSR register are set to their reset values.  
  99:../Core/src/mlm32l0xx_hal_msp.c ****   * @retval None
 100:../Core/src/mlm32l0xx_hal_msp.c ****   */
 101:../Core/src/mlm32l0xx_hal_msp.c **** void HAL_RTC_MspInit(RTC_HandleTypeDef *hrtc)
 102:../Core/src/mlm32l0xx_hal_msp.c **** {
 149              		.loc 1 102 0
 150              		.cfi_startproc
 151              		@ args = 0, pretend = 0, frame = 96
 152              		@ frame_needed = 0, uses_anonymous_args = 0
 153              	.LVL9:
 103:../Core/src/mlm32l0xx_hal_msp.c ****   RCC_OscInitTypeDef RCC_OscInitStruct;
 104:../Core/src/mlm32l0xx_hal_msp.c ****   RCC_PeriphCLKInitTypeDef  PeriphClkInitStruct;
 105:../Core/src/mlm32l0xx_hal_msp.c **** 
 106:../Core/src/mlm32l0xx_hal_msp.c ****   /*##-1- Configue the RTC clock soucre ######################################*/
 107:../Core/src/mlm32l0xx_hal_msp.c ****   /* -a- Enable LSE Oscillator */
 108:../Core/src/mlm32l0xx_hal_msp.c ****   RCC_OscInitStruct.OscillatorType =  RCC_OSCILLATORTYPE_LSE;
 154              		.loc 1 108 0
 155 0000 0423     		movs	r3, #4
 102:../Core/src/mlm32l0xx_hal_msp.c ****   RCC_OscInitTypeDef RCC_OscInitStruct;
 156              		.loc 1 102 0
 157 0002 00B5     		push	{lr}
 158              	.LCFI3:
 159              		.cfi_def_cfa_offset 4
 160              		.cfi_offset 14, -4
 161 0004 99B0     		sub	sp, sp, #100
 162              	.LCFI4:
 163              		.cfi_def_cfa_offset 104
 164              		.loc 1 108 0
 165 0006 0A93     		str	r3, [sp, #40]
 109:../Core/src/mlm32l0xx_hal_msp.c ****   RCC_OscInitStruct.PLL.PLLState = RCC_PLL_NONE;
 166              		.loc 1 109 0
 167 0008 0023     		movs	r3, #0
 168 000a 1493     		str	r3, [sp, #80]
 110:../Core/src/mlm32l0xx_hal_msp.c ****   RCC_OscInitStruct.LSEState = RCC_LSE_ON;
 169              		.loc 1 110 0
 170 000c 0133     		adds	r3, r3, #1
ARM GAS  C:\Users\EBANO_~1\AppData\Local\Temp\cca8j2GX.s 			page 6


 171 000e FF33     		adds	r3, r3, #255
 111:../Core/src/mlm32l0xx_hal_msp.c ****   if(HAL_RCC_OscConfig(&RCC_OscInitStruct) != HAL_OK)
 172              		.loc 1 111 0
 173 0010 0AA8     		add	r0, sp, #40
 174              	.LVL10:
 110:../Core/src/mlm32l0xx_hal_msp.c ****   RCC_OscInitStruct.LSEState = RCC_LSE_ON;
 175              		.loc 1 110 0
 176 0012 0C93     		str	r3, [sp, #48]
 177              		.loc 1 111 0
 178 0014 FFF7FEFF 		bl	HAL_RCC_OscConfig
 179              	.LVL11:
 180 0018 0028     		cmp	r0, #0
 181 001a 1BD1     		bne	.L16
 182              	.L8:
 112:../Core/src/mlm32l0xx_hal_msp.c ****   {
 113:../Core/src/mlm32l0xx_hal_msp.c ****     Error_Handler();
 114:../Core/src/mlm32l0xx_hal_msp.c ****   }
 115:../Core/src/mlm32l0xx_hal_msp.c **** 
 116:../Core/src/mlm32l0xx_hal_msp.c ****   /* -b- Select LSI as RTC clock source */
 117:../Core/src/mlm32l0xx_hal_msp.c ****   PeriphClkInitStruct.PeriphClockSelection = RCC_PERIPHCLK_RTC;
 183              		.loc 1 117 0
 184 001c 2023     		movs	r3, #32
 185 001e 0193     		str	r3, [sp, #4]
 118:../Core/src/mlm32l0xx_hal_msp.c ****   PeriphClkInitStruct.RTCClockSelection = RCC_RTCCLKSOURCE_LSE;
 186              		.loc 1 118 0
 187 0020 8023     		movs	r3, #128
 119:../Core/src/mlm32l0xx_hal_msp.c ****   if(HAL_RCCEx_PeriphCLKConfig(&PeriphClkInitStruct) != HAL_OK)
 188              		.loc 1 119 0
 189 0022 01A8     		add	r0, sp, #4
 118:../Core/src/mlm32l0xx_hal_msp.c ****   PeriphClkInitStruct.RTCClockSelection = RCC_RTCCLKSOURCE_LSE;
 190              		.loc 1 118 0
 191 0024 5B02     		lsls	r3, r3, #9
 192 0026 0293     		str	r3, [sp, #8]
 193              		.loc 1 119 0
 194 0028 FFF7FEFF 		bl	HAL_RCCEx_PeriphCLKConfig
 195              	.LVL12:
 196 002c 0028     		cmp	r0, #0
 197 002e 01D0     		beq	.L9
 120:../Core/src/mlm32l0xx_hal_msp.c ****   { 
 121:../Core/src/mlm32l0xx_hal_msp.c ****     Error_Handler();
 198              		.loc 1 121 0
 199 0030 FFF7FEFF 		bl	Error_Handler
 200              	.LVL13:
 201              	.L9:
 122:../Core/src/mlm32l0xx_hal_msp.c ****   }
 123:../Core/src/mlm32l0xx_hal_msp.c **** 
 124:../Core/src/mlm32l0xx_hal_msp.c ****   /*##-2- Enable the RTC peripheral Clock ####################################*/
 125:../Core/src/mlm32l0xx_hal_msp.c ****   /* Enable RTC Clock */
 126:../Core/src/mlm32l0xx_hal_msp.c ****   __HAL_RCC_RTC_ENABLE();
 202              		.loc 1 126 0
 203 0034 8023     		movs	r3, #128
 204 0036 094A     		ldr	r2, .L17
 205 0038 DB02     		lsls	r3, r3, #11
 206 003a 116D     		ldr	r1, [r2, #80]
 127:../Core/src/mlm32l0xx_hal_msp.c ****   
 128:../Core/src/mlm32l0xx_hal_msp.c ****   /*##-3- Configure the NVIC for RTC Alarm ###################################*/
 129:../Core/src/mlm32l0xx_hal_msp.c ****   HAL_NVIC_SetPriority(RTC_Alarm_IRQn, 0x0, 0);
ARM GAS  C:\Users\EBANO_~1\AppData\Local\Temp\cca8j2GX.s 			page 7


 207              		.loc 1 129 0
 208 003c 0220     		movs	r0, #2
 126:../Core/src/mlm32l0xx_hal_msp.c ****   
 209              		.loc 1 126 0
 210 003e 0B43     		orrs	r3, r1
 211 0040 1365     		str	r3, [r2, #80]
 212              		.loc 1 129 0
 213 0042 0021     		movs	r1, #0
 214 0044 0022     		movs	r2, #0
 215 0046 FFF7FEFF 		bl	HAL_NVIC_SetPriority
 216              	.LVL14:
 130:../Core/src/mlm32l0xx_hal_msp.c ****   HAL_NVIC_EnableIRQ(RTC_Alarm_IRQn);
 217              		.loc 1 130 0
 218 004a 0220     		movs	r0, #2
 219 004c FFF7FEFF 		bl	HAL_NVIC_EnableIRQ
 220              	.LVL15:
 131:../Core/src/mlm32l0xx_hal_msp.c **** }
 221              		.loc 1 131 0
 222 0050 19B0     		add	sp, sp, #100
 223              		@ sp needed
 224 0052 00BD     		pop	{pc}
 225              	.L16:
 113:../Core/src/mlm32l0xx_hal_msp.c ****   }
 226              		.loc 1 113 0
 227 0054 FFF7FEFF 		bl	Error_Handler
 228              	.LVL16:
 229 0058 E0E7     		b	.L8
 230              	.L18:
 231 005a C046     		.align	2
 232              	.L17:
 233 005c 00100240 		.word	1073876992
 234              		.cfi_endproc
 235              	.LFE42:
 236              		.size	HAL_RTC_MspInit, .-HAL_RTC_MspInit
 237              		.section	.text.HAL_RTC_MspDeInit,"ax",%progbits
 238              		.align	1
 239              		.p2align 2,,3
 240              		.global	HAL_RTC_MspDeInit
 241              		.syntax unified
 242              		.code	16
 243              		.thumb_func
 244              		.fpu softvfp
 245              		.type	HAL_RTC_MspDeInit, %function
 246              	HAL_RTC_MspDeInit:
 247              	.LFB43:
 132:../Core/src/mlm32l0xx_hal_msp.c **** 
 133:../Core/src/mlm32l0xx_hal_msp.c **** /**
 134:../Core/src/mlm32l0xx_hal_msp.c ****   * @brief RTC MSP De-Initialization 
 135:../Core/src/mlm32l0xx_hal_msp.c ****   *        This function freeze the hardware resources used in this example:
 136:../Core/src/mlm32l0xx_hal_msp.c ****   *          - Disable the Peripheral's clock
 137:../Core/src/mlm32l0xx_hal_msp.c ****   * @param hrtc: RTC handle pointer
 138:../Core/src/mlm32l0xx_hal_msp.c ****   * @retval None
 139:../Core/src/mlm32l0xx_hal_msp.c ****   */
 140:../Core/src/mlm32l0xx_hal_msp.c **** void HAL_RTC_MspDeInit(RTC_HandleTypeDef *hrtc)
 141:../Core/src/mlm32l0xx_hal_msp.c **** {
 248              		.loc 1 141 0
 249              		.cfi_startproc
ARM GAS  C:\Users\EBANO_~1\AppData\Local\Temp\cca8j2GX.s 			page 8


 250              		@ args = 0, pretend = 0, frame = 0
 251              		@ frame_needed = 0, uses_anonymous_args = 0
 252              		@ link register save eliminated.
 253              	.LVL17:
 142:../Core/src/mlm32l0xx_hal_msp.c ****   /* Reset peripherals */
 143:../Core/src/mlm32l0xx_hal_msp.c ****   __HAL_RCC_RTC_DISABLE();
 254              		.loc 1 143 0
 255 0000 024A     		ldr	r2, .L20
 256 0002 0349     		ldr	r1, .L20+4
 257 0004 136D     		ldr	r3, [r2, #80]
 144:../Core/src/mlm32l0xx_hal_msp.c **** }
 258              		.loc 1 144 0
 259              		@ sp needed
 143:../Core/src/mlm32l0xx_hal_msp.c **** }
 260              		.loc 1 143 0
 261 0006 0B40     		ands	r3, r1
 262 0008 1365     		str	r3, [r2, #80]
 263              		.loc 1 144 0
 264 000a 7047     		bx	lr
 265              	.L21:
 266              		.align	2
 267              	.L20:
 268 000c 00100240 		.word	1073876992
 269 0010 FFFFFBFF 		.word	-262145
 270              		.cfi_endproc
 271              	.LFE43:
 272              		.size	HAL_RTC_MspDeInit, .-HAL_RTC_MspDeInit
 273              		.section	.text.HAL_RTC_AlarmAEventCallback,"ax",%progbits
 274              		.align	1
 275              		.p2align 2,,3
 276              		.global	HAL_RTC_AlarmAEventCallback
 277              		.syntax unified
 278              		.code	16
 279              		.thumb_func
 280              		.fpu softvfp
 281              		.type	HAL_RTC_AlarmAEventCallback, %function
 282              	HAL_RTC_AlarmAEventCallback:
 283              	.LFB44:
 145:../Core/src/mlm32l0xx_hal_msp.c **** 
 146:../Core/src/mlm32l0xx_hal_msp.c **** 
 147:../Core/src/mlm32l0xx_hal_msp.c **** /**
 148:../Core/src/mlm32l0xx_hal_msp.c ****   * @brief  Alarm A callback.
 149:../Core/src/mlm32l0xx_hal_msp.c ****   * @param  hrtc: RTC handle
 150:../Core/src/mlm32l0xx_hal_msp.c ****   * @retval None
 151:../Core/src/mlm32l0xx_hal_msp.c ****   */
 152:../Core/src/mlm32l0xx_hal_msp.c **** void HAL_RTC_AlarmAEventCallback(RTC_HandleTypeDef *hrtc)
 153:../Core/src/mlm32l0xx_hal_msp.c **** {
 284              		.loc 1 153 0
 285              		.cfi_startproc
 286              		@ args = 0, pretend = 0, frame = 0
 287              		@ frame_needed = 0, uses_anonymous_args = 0
 288              	.LVL18:
 289 0000 10B5     		push	{r4, lr}
 290              	.LCFI5:
 291              		.cfi_def_cfa_offset 8
 292              		.cfi_offset 4, -8
 293              		.cfi_offset 14, -4
ARM GAS  C:\Users\EBANO_~1\AppData\Local\Temp\cca8j2GX.s 			page 9


 154:../Core/src/mlm32l0xx_hal_msp.c ****   TimerIrqHandler( );
 294              		.loc 1 154 0
 295 0002 FFF7FEFF 		bl	TimerIrqHandler
 296              	.LVL19:
 155:../Core/src/mlm32l0xx_hal_msp.c **** }
 297              		.loc 1 155 0
 298              		@ sp needed
 299 0006 10BD     		pop	{r4, pc}
 300              		.cfi_endproc
 301              	.LFE44:
 302              		.size	HAL_RTC_AlarmAEventCallback, .-HAL_RTC_AlarmAEventCallback
 303              		.section	.text.HAL_GPIO_EXTI_Callback,"ax",%progbits
 304              		.align	1
 305              		.p2align 2,,3
 306              		.global	HAL_GPIO_EXTI_Callback
 307              		.syntax unified
 308              		.code	16
 309              		.thumb_func
 310              		.fpu softvfp
 311              		.type	HAL_GPIO_EXTI_Callback, %function
 312              	HAL_GPIO_EXTI_Callback:
 313              	.LFB45:
 156:../Core/src/mlm32l0xx_hal_msp.c **** 
 157:../Core/src/mlm32l0xx_hal_msp.c **** /**
 158:../Core/src/mlm32l0xx_hal_msp.c ****   * @brief  EXTI line detection callbacks.
 159:../Core/src/mlm32l0xx_hal_msp.c ****   * @param  GPIO_Pin: Specifies the pins connected to the EXTI line.
 160:../Core/src/mlm32l0xx_hal_msp.c ****   * @retval None
 161:../Core/src/mlm32l0xx_hal_msp.c ****   */
 162:../Core/src/mlm32l0xx_hal_msp.c **** void HAL_GPIO_EXTI_Callback(uint16_t GPIO_Pin)
 163:../Core/src/mlm32l0xx_hal_msp.c **** {
 314              		.loc 1 163 0
 315              		.cfi_startproc
 316              		@ args = 0, pretend = 0, frame = 0
 317              		@ frame_needed = 0, uses_anonymous_args = 0
 318              	.LVL20:
 319 0000 10B5     		push	{r4, lr}
 320              	.LCFI6:
 321              		.cfi_def_cfa_offset 8
 322              		.cfi_offset 4, -8
 323              		.cfi_offset 14, -4
 164:../Core/src/mlm32l0xx_hal_msp.c ****   HW_GPIO_IrqHandler( GPIO_Pin );
 324              		.loc 1 164 0
 325 0002 FFF7FEFF 		bl	HW_GPIO_IrqHandler
 326              	.LVL21:
 165:../Core/src/mlm32l0xx_hal_msp.c **** }
 327              		.loc 1 165 0
 328              		@ sp needed
 329 0006 10BD     		pop	{r4, pc}
 330              		.cfi_endproc
 331              	.LFE45:
 332              		.size	HAL_GPIO_EXTI_Callback, .-HAL_GPIO_EXTI_Callback
 333              		.section	.text.MSP_GetIRQn,"ax",%progbits
 334              		.align	1
 335              		.p2align 2,,3
 336              		.global	MSP_GetIRQn
 337              		.syntax unified
 338              		.code	16
ARM GAS  C:\Users\EBANO_~1\AppData\Local\Temp\cca8j2GX.s 			page 10


 339              		.thumb_func
 340              		.fpu softvfp
 341              		.type	MSP_GetIRQn, %function
 342              	MSP_GetIRQn:
 343              	.LFB46:
 166:../Core/src/mlm32l0xx_hal_msp.c **** 
 167:../Core/src/mlm32l0xx_hal_msp.c **** /**
 168:../Core/src/mlm32l0xx_hal_msp.c ****   * @brief  Gets IRQ number as a function of the GPIO_Pin.
 169:../Core/src/mlm32l0xx_hal_msp.c ****   * @param  GPIO_Pin: Specifies the pins connected to the EXTI line.
 170:../Core/src/mlm32l0xx_hal_msp.c ****   * @retval IRQ number
 171:../Core/src/mlm32l0xx_hal_msp.c ****   */
 172:../Core/src/mlm32l0xx_hal_msp.c **** IRQn_Type MSP_GetIRQn( uint16_t GPIO_Pin)
 173:../Core/src/mlm32l0xx_hal_msp.c **** {
 344              		.loc 1 173 0
 345              		.cfi_startproc
 346              		@ args = 0, pretend = 0, frame = 0
 347              		@ frame_needed = 0, uses_anonymous_args = 0
 348              		@ link register save eliminated.
 349              	.LVL22:
 174:../Core/src/mlm32l0xx_hal_msp.c ****   switch( GPIO_Pin )
 350              		.loc 1 174 0
 351 0000 0428     		cmp	r0, #4
 352 0002 09D0     		beq	.L26
 353 0004 04D8     		bhi	.L27
 354 0006 0138     		subs	r0, r0, #1
 355              	.LVL23:
 356 0008 0128     		cmp	r0, #1
 357 000a 03D8     		bhi	.L25
 175:../Core/src/mlm32l0xx_hal_msp.c ****   {
 176:../Core/src/mlm32l0xx_hal_msp.c ****     case GPIO_PIN_0:  
 177:../Core/src/mlm32l0xx_hal_msp.c ****     case GPIO_PIN_1:  return EXTI0_1_IRQn;
 358              		.loc 1 177 0
 359 000c 0520     		movs	r0, #5
 360              	.L28:
 178:../Core/src/mlm32l0xx_hal_msp.c ****     case GPIO_PIN_2: 
 179:../Core/src/mlm32l0xx_hal_msp.c ****     case GPIO_PIN_3:  return EXTI2_3_IRQn;
 180:../Core/src/mlm32l0xx_hal_msp.c ****     case GPIO_PIN_4:  
 181:../Core/src/mlm32l0xx_hal_msp.c ****     case GPIO_PIN_5:  
 182:../Core/src/mlm32l0xx_hal_msp.c ****     case GPIO_PIN_6:
 183:../Core/src/mlm32l0xx_hal_msp.c ****     case GPIO_PIN_7:
 184:../Core/src/mlm32l0xx_hal_msp.c ****     case GPIO_PIN_8:
 185:../Core/src/mlm32l0xx_hal_msp.c ****     case GPIO_PIN_9:  
 186:../Core/src/mlm32l0xx_hal_msp.c ****     case GPIO_PIN_10:
 187:../Core/src/mlm32l0xx_hal_msp.c ****     case GPIO_PIN_11:
 188:../Core/src/mlm32l0xx_hal_msp.c ****     case GPIO_PIN_12:
 189:../Core/src/mlm32l0xx_hal_msp.c ****     case GPIO_PIN_13:
 190:../Core/src/mlm32l0xx_hal_msp.c ****     case GPIO_PIN_14:
 191:../Core/src/mlm32l0xx_hal_msp.c ****     case GPIO_PIN_15: 
 192:../Core/src/mlm32l0xx_hal_msp.c ****     default: return EXTI4_15_IRQn;
 193:../Core/src/mlm32l0xx_hal_msp.c ****   }
 194:../Core/src/mlm32l0xx_hal_msp.c **** }
 361              		.loc 1 194 0
 362              		@ sp needed
 363 000e 7047     		bx	lr
 364              	.LVL24:
 365              	.L27:
 174:../Core/src/mlm32l0xx_hal_msp.c ****   {
ARM GAS  C:\Users\EBANO_~1\AppData\Local\Temp\cca8j2GX.s 			page 11


 366              		.loc 1 174 0
 367 0010 0828     		cmp	r0, #8
 368 0012 01D0     		beq	.L26
 369              	.LVL25:
 370              	.L25:
 192:../Core/src/mlm32l0xx_hal_msp.c ****   }
 371              		.loc 1 192 0
 372 0014 0720     		movs	r0, #7
 373 0016 FAE7     		b	.L28
 374              	.LVL26:
 375              	.L26:
 179:../Core/src/mlm32l0xx_hal_msp.c ****     case GPIO_PIN_4:  
 376              		.loc 1 179 0
 377 0018 0620     		movs	r0, #6
 378              	.LVL27:
 379 001a F8E7     		b	.L28
 380              		.cfi_endproc
 381              	.LFE46:
 382              		.size	MSP_GetIRQn, .-MSP_GetIRQn
 383              		.text
 384              	.Letext0:
 385              		.file 2 "c:\\program files (x86)\\gnu tools arm embedded\\7 2018-q2-update\\arm-none-eabi\\include
 386              		.file 3 "c:\\program files (x86)\\gnu tools arm embedded\\7 2018-q2-update\\arm-none-eabi\\include
 387              		.file 4 "c:\\program files (x86)\\gnu tools arm embedded\\7 2018-q2-update\\arm-none-eabi\\include
 388              		.file 5 "c:\\program files (x86)\\gnu tools arm embedded\\7 2018-q2-update\\lib\\gcc\\arm-none-eab
 389              		.file 6 "c:\\program files (x86)\\gnu tools arm embedded\\7 2018-q2-update\\arm-none-eabi\\include
 390              		.file 7 "c:\\program files (x86)\\gnu tools arm embedded\\7 2018-q2-update\\arm-none-eabi\\include
 391              		.file 8 "c:\\program files (x86)\\gnu tools arm embedded\\7 2018-q2-update\\arm-none-eabi\\include
 392              		.file 9 "../../../../../../Drivers/CMSIS/Device/ST/STM32L0xx/Include/stm32l072xx.h"
 393              		.file 10 "../../../../../../Drivers/CMSIS/Device/ST/STM32L0xx/Include/system_stm32l0xx.h"
 394              		.file 11 "../../../../../../Drivers/STM32L0xx_HAL_Driver/Inc/stm32l0xx_hal_def.h"
 395              		.file 12 "../../../../../../Drivers/STM32L0xx_HAL_Driver/Inc/stm32l0xx_hal_rcc.h"
 396              		.file 13 "../../../../../../Drivers/STM32L0xx_HAL_Driver/Inc/stm32l0xx_hal_rcc_ex.h"
 397              		.file 14 "../../../../../../Drivers/STM32L0xx_HAL_Driver/Inc/stm32l0xx_hal_rtc.h"
 398              		.file 15 "c:\\program files (x86)\\gnu tools arm embedded\\7 2018-q2-update\\arm-none-eabi\\includ
 399              		.file 16 "c:\\program files (x86)\\gnu tools arm embedded\\7 2018-q2-update\\arm-none-eabi\\includ
 400              		.file 17 "../LoRaWAN/App/inc/hw_gpio.h"
 401              		.file 18 "../../../../../../Middlewares/Third_Party/LoRaWAN/Utilities/timeServer.h"
 402              		.file 19 "../LoRaWAN/App/inc/debug.h"
 403              		.file 20 "../../../../../../Drivers/STM32L0xx_HAL_Driver/Inc/stm32l0xx_hal_cortex.h"
 404              		.file 21 "../../../../../../Drivers/STM32L0xx_HAL_Driver/Inc/stm32l0xx_hal_pwr.h"
 405              		.file 22 "../../../../../../Drivers/STM32L0xx_HAL_Driver/Inc/stm32l0xx_hal_pwr_ex.h"
 406              		.file 23 "../LoRaWAN/App/inc/hw_msp.h"
 407              		.file 24 "../LoRaWAN/App/inc/hw_rtc.h"
 408              		.section	.debug_info,"",%progbits
 409              	.Ldebug_info0:
 410 0000 FE140000 		.4byte	0x14fe
 411 0004 0200     		.2byte	0x2
 412 0006 00000000 		.4byte	.Ldebug_abbrev0
 413 000a 04       		.byte	0x4
 414 000b 01       		.uleb128 0x1
 415 000c C50B0000 		.4byte	.LASF307
 416 0010 0C       		.byte	0xc
 417 0011 33050000 		.4byte	.LASF308
 418 0015 07040000 		.4byte	.LASF309
 419 0019 00000000 		.4byte	.Ldebug_ranges0+0
 420 001d 00000000 		.4byte	0
ARM GAS  C:\Users\EBANO_~1\AppData\Local\Temp\cca8j2GX.s 			page 12


 421 0021 00000000 		.4byte	0
 422 0025 00000000 		.4byte	.Ldebug_line0
 423 0029 02       		.uleb128 0x2
 424 002a 04       		.byte	0x4
 425 002b 05       		.byte	0x5
 426 002c 696E7400 		.ascii	"int\000"
 427 0030 03       		.uleb128 0x3
 428 0031 04       		.byte	0x4
 429 0032 07       		.byte	0x7
 430 0033 01080000 		.4byte	.LASF0
 431 0037 03       		.uleb128 0x3
 432 0038 08       		.byte	0x8
 433 0039 05       		.byte	0x5
 434 003a 21070000 		.4byte	.LASF1
 435 003e 03       		.uleb128 0x3
 436 003f 08       		.byte	0x8
 437 0040 04       		.byte	0x4
 438 0041 E6080000 		.4byte	.LASF2
 439 0045 03       		.uleb128 0x3
 440 0046 01       		.byte	0x1
 441 0047 06       		.byte	0x6
 442 0048 BE020000 		.4byte	.LASF3
 443 004c 04       		.uleb128 0x4
 444 004d 9B010000 		.4byte	.LASF6
 445 0051 02       		.byte	0x2
 446 0052 2B       		.byte	0x2b
 447 0053 57000000 		.4byte	0x57
 448 0057 03       		.uleb128 0x3
 449 0058 01       		.byte	0x1
 450 0059 08       		.byte	0x8
 451 005a 13030000 		.4byte	.LASF4
 452 005e 03       		.uleb128 0x3
 453 005f 02       		.byte	0x2
 454 0060 05       		.byte	0x5
 455 0061 990B0000 		.4byte	.LASF5
 456 0065 04       		.uleb128 0x4
 457 0066 F0030000 		.4byte	.LASF7
 458 006a 02       		.byte	0x2
 459 006b 39       		.byte	0x39
 460 006c 70000000 		.4byte	0x70
 461 0070 03       		.uleb128 0x3
 462 0071 02       		.byte	0x2
 463 0072 07       		.byte	0x7
 464 0073 790D0000 		.4byte	.LASF8
 465 0077 03       		.uleb128 0x3
 466 0078 04       		.byte	0x4
 467 0079 05       		.byte	0x5
 468 007a F5010000 		.4byte	.LASF9
 469 007e 04       		.uleb128 0x4
 470 007f FA060000 		.4byte	.LASF10
 471 0083 02       		.byte	0x2
 472 0084 4F       		.byte	0x4f
 473 0085 89000000 		.4byte	0x89
 474 0089 03       		.uleb128 0x3
 475 008a 04       		.byte	0x4
 476 008b 07       		.byte	0x7
 477 008c FC050000 		.4byte	.LASF11
ARM GAS  C:\Users\EBANO_~1\AppData\Local\Temp\cca8j2GX.s 			page 13


 478 0090 03       		.uleb128 0x3
 479 0091 08       		.byte	0x8
 480 0092 07       		.byte	0x7
 481 0093 52090000 		.4byte	.LASF12
 482 0097 04       		.uleb128 0x4
 483 0098 EB0C0000 		.4byte	.LASF13
 484 009c 03       		.byte	0x3
 485 009d 22       		.byte	0x22
 486 009e A2000000 		.4byte	0xa2
 487 00a2 05       		.uleb128 0x5
 488 00a3 04       		.byte	0x4
 489 00a4 A8000000 		.4byte	0xa8
 490 00a8 06       		.uleb128 0x6
 491 00a9 80050000 		.4byte	.LASF120
 492 00ad 01       		.byte	0x1
 493 00ae 04       		.uleb128 0x4
 494 00af 560D0000 		.4byte	.LASF14
 495 00b3 04       		.byte	0x4
 496 00b4 2C       		.byte	0x2c
 497 00b5 77000000 		.4byte	0x77
 498 00b9 04       		.uleb128 0x4
 499 00ba 08090000 		.4byte	.LASF15
 500 00be 04       		.byte	0x4
 501 00bf 72       		.byte	0x72
 502 00c0 77000000 		.4byte	0x77
 503 00c4 07       		.uleb128 0x7
 504 00c5 A50A0000 		.4byte	.LASF16
 505 00c9 05       		.byte	0x5
 506 00ca 6501     		.2byte	0x165
 507 00cc 30000000 		.4byte	0x30
 508 00d0 08       		.uleb128 0x8
 509 00d1 04       		.byte	0x4
 510 00d2 04       		.byte	0x4
 511 00d3 A6       		.byte	0xa6
 512 00d4 EF000000 		.4byte	0xef
 513 00d8 09       		.uleb128 0x9
 514 00d9 90010000 		.4byte	.LASF17
 515 00dd 04       		.byte	0x4
 516 00de A8       		.byte	0xa8
 517 00df C4000000 		.4byte	0xc4
 518 00e3 09       		.uleb128 0x9
 519 00e4 19090000 		.4byte	.LASF18
 520 00e8 04       		.byte	0x4
 521 00e9 A9       		.byte	0xa9
 522 00ea EF000000 		.4byte	0xef
 523 00ee 00       		.byte	0
 524 00ef 0A       		.uleb128 0xa
 525 00f0 57000000 		.4byte	0x57
 526 00f4 FF000000 		.4byte	0xff
 527 00f8 0B       		.uleb128 0xb
 528 00f9 30000000 		.4byte	0x30
 529 00fd 03       		.byte	0x3
 530 00fe 00       		.byte	0
 531 00ff 0C       		.uleb128 0xc
 532 0100 08       		.byte	0x8
 533 0101 04       		.byte	0x4
 534 0102 A3       		.byte	0xa3
ARM GAS  C:\Users\EBANO_~1\AppData\Local\Temp\cca8j2GX.s 			page 14


 535 0103 24010000 		.4byte	0x124
 536 0107 0D       		.uleb128 0xd
 537 0108 C4080000 		.4byte	.LASF19
 538 010c 04       		.byte	0x4
 539 010d A5       		.byte	0xa5
 540 010e 29000000 		.4byte	0x29
 541 0112 02       		.byte	0x2
 542 0113 23       		.byte	0x23
 543 0114 00       		.uleb128 0
 544 0115 0D       		.uleb128 0xd
 545 0116 1A000000 		.4byte	.LASF20
 546 011a 04       		.byte	0x4
 547 011b AA       		.byte	0xaa
 548 011c D0000000 		.4byte	0xd0
 549 0120 02       		.byte	0x2
 550 0121 23       		.byte	0x23
 551 0122 04       		.uleb128 0x4
 552 0123 00       		.byte	0
 553 0124 04       		.uleb128 0x4
 554 0125 8C0A0000 		.4byte	.LASF21
 555 0129 04       		.byte	0x4
 556 012a AB       		.byte	0xab
 557 012b FF000000 		.4byte	0xff
 558 012f 04       		.uleb128 0x4
 559 0130 7C0A0000 		.4byte	.LASF22
 560 0134 04       		.byte	0x4
 561 0135 AF       		.byte	0xaf
 562 0136 97000000 		.4byte	0x97
 563 013a 0E       		.uleb128 0xe
 564 013b 04       		.byte	0x4
 565 013c 05       		.uleb128 0x5
 566 013d 04       		.byte	0x4
 567 013e 42010000 		.4byte	0x142
 568 0142 03       		.uleb128 0x3
 569 0143 01       		.byte	0x1
 570 0144 08       		.byte	0x8
 571 0145 C1030000 		.4byte	.LASF23
 572 0149 0F       		.uleb128 0xf
 573 014a 42010000 		.4byte	0x142
 574 014e 04       		.uleb128 0x4
 575 014f 1C0D0000 		.4byte	.LASF24
 576 0153 06       		.byte	0x6
 577 0154 16       		.byte	0x16
 578 0155 89000000 		.4byte	0x89
 579 0159 10       		.uleb128 0x10
 580 015a B3060000 		.4byte	.LASF29
 581 015e 18       		.byte	0x18
 582 015f 06       		.byte	0x6
 583 0160 2F       		.byte	0x2f
 584 0161 B8010000 		.4byte	0x1b8
 585 0165 0D       		.uleb128 0xd
 586 0166 AC0A0000 		.4byte	.LASF25
 587 016a 06       		.byte	0x6
 588 016b 31       		.byte	0x31
 589 016c B8010000 		.4byte	0x1b8
 590 0170 02       		.byte	0x2
 591 0171 23       		.byte	0x23
ARM GAS  C:\Users\EBANO_~1\AppData\Local\Temp\cca8j2GX.s 			page 15


 592 0172 00       		.uleb128 0
 593 0173 11       		.uleb128 0x11
 594 0174 5F6B00   		.ascii	"_k\000"
 595 0177 06       		.byte	0x6
 596 0178 32       		.byte	0x32
 597 0179 29000000 		.4byte	0x29
 598 017d 02       		.byte	0x2
 599 017e 23       		.byte	0x23
 600 017f 04       		.uleb128 0x4
 601 0180 0D       		.uleb128 0xd
 602 0181 BB060000 		.4byte	.LASF26
 603 0185 06       		.byte	0x6
 604 0186 32       		.byte	0x32
 605 0187 29000000 		.4byte	0x29
 606 018b 02       		.byte	0x2
 607 018c 23       		.byte	0x23
 608 018d 08       		.uleb128 0x8
 609 018e 0D       		.uleb128 0xd
 610 018f C2070000 		.4byte	.LASF27
 611 0193 06       		.byte	0x6
 612 0194 32       		.byte	0x32
 613 0195 29000000 		.4byte	0x29
 614 0199 02       		.byte	0x2
 615 019a 23       		.byte	0x23
 616 019b 0C       		.uleb128 0xc
 617 019c 0D       		.uleb128 0xd
 618 019d 68050000 		.4byte	.LASF28
 619 01a1 06       		.byte	0x6
 620 01a2 32       		.byte	0x32
 621 01a3 29000000 		.4byte	0x29
 622 01a7 02       		.byte	0x2
 623 01a8 23       		.byte	0x23
 624 01a9 10       		.uleb128 0x10
 625 01aa 11       		.uleb128 0x11
 626 01ab 5F7800   		.ascii	"_x\000"
 627 01ae 06       		.byte	0x6
 628 01af 33       		.byte	0x33
 629 01b0 BE010000 		.4byte	0x1be
 630 01b4 02       		.byte	0x2
 631 01b5 23       		.byte	0x23
 632 01b6 14       		.uleb128 0x14
 633 01b7 00       		.byte	0
 634 01b8 05       		.uleb128 0x5
 635 01b9 04       		.byte	0x4
 636 01ba 59010000 		.4byte	0x159
 637 01be 0A       		.uleb128 0xa
 638 01bf 4E010000 		.4byte	0x14e
 639 01c3 CE010000 		.4byte	0x1ce
 640 01c7 0B       		.uleb128 0xb
 641 01c8 30000000 		.4byte	0x30
 642 01cc 00       		.byte	0
 643 01cd 00       		.byte	0
 644 01ce 10       		.uleb128 0x10
 645 01cf 98000000 		.4byte	.LASF30
 646 01d3 24       		.byte	0x24
 647 01d4 06       		.byte	0x6
 648 01d5 37       		.byte	0x37
ARM GAS  C:\Users\EBANO_~1\AppData\Local\Temp\cca8j2GX.s 			page 16


 649 01d6 59020000 		.4byte	0x259
 650 01da 0D       		.uleb128 0xd
 651 01db B4000000 		.4byte	.LASF31
 652 01df 06       		.byte	0x6
 653 01e0 39       		.byte	0x39
 654 01e1 29000000 		.4byte	0x29
 655 01e5 02       		.byte	0x2
 656 01e6 23       		.byte	0x23
 657 01e7 00       		.uleb128 0
 658 01e8 0D       		.uleb128 0xd
 659 01e9 400E0000 		.4byte	.LASF32
 660 01ed 06       		.byte	0x6
 661 01ee 3A       		.byte	0x3a
 662 01ef 29000000 		.4byte	0x29
 663 01f3 02       		.byte	0x2
 664 01f4 23       		.byte	0x23
 665 01f5 04       		.uleb128 0x4
 666 01f6 0D       		.uleb128 0xd
 667 01f7 8C0D0000 		.4byte	.LASF33
 668 01fb 06       		.byte	0x6
 669 01fc 3B       		.byte	0x3b
 670 01fd 29000000 		.4byte	0x29
 671 0201 02       		.byte	0x2
 672 0202 23       		.byte	0x23
 673 0203 08       		.uleb128 0x8
 674 0204 0D       		.uleb128 0xd
 675 0205 40080000 		.4byte	.LASF34
 676 0209 06       		.byte	0x6
 677 020a 3C       		.byte	0x3c
 678 020b 29000000 		.4byte	0x29
 679 020f 02       		.byte	0x2
 680 0210 23       		.byte	0x23
 681 0211 0C       		.uleb128 0xc
 682 0212 0D       		.uleb128 0xd
 683 0213 68020000 		.4byte	.LASF35
 684 0217 06       		.byte	0x6
 685 0218 3D       		.byte	0x3d
 686 0219 29000000 		.4byte	0x29
 687 021d 02       		.byte	0x2
 688 021e 23       		.byte	0x23
 689 021f 10       		.uleb128 0x10
 690 0220 0D       		.uleb128 0xd
 691 0221 830C0000 		.4byte	.LASF36
 692 0225 06       		.byte	0x6
 693 0226 3E       		.byte	0x3e
 694 0227 29000000 		.4byte	0x29
 695 022b 02       		.byte	0x2
 696 022c 23       		.byte	0x23
 697 022d 14       		.uleb128 0x14
 698 022e 0D       		.uleb128 0xd
 699 022f DC080000 		.4byte	.LASF37
 700 0233 06       		.byte	0x6
 701 0234 3F       		.byte	0x3f
 702 0235 29000000 		.4byte	0x29
 703 0239 02       		.byte	0x2
 704 023a 23       		.byte	0x23
 705 023b 18       		.uleb128 0x18
ARM GAS  C:\Users\EBANO_~1\AppData\Local\Temp\cca8j2GX.s 			page 17


 706 023c 0D       		.uleb128 0xd
 707 023d F2080000 		.4byte	.LASF38
 708 0241 06       		.byte	0x6
 709 0242 40       		.byte	0x40
 710 0243 29000000 		.4byte	0x29
 711 0247 02       		.byte	0x2
 712 0248 23       		.byte	0x23
 713 0249 1C       		.uleb128 0x1c
 714 024a 0D       		.uleb128 0xd
 715 024b 110E0000 		.4byte	.LASF39
 716 024f 06       		.byte	0x6
 717 0250 41       		.byte	0x41
 718 0251 29000000 		.4byte	0x29
 719 0255 02       		.byte	0x2
 720 0256 23       		.byte	0x23
 721 0257 20       		.uleb128 0x20
 722 0258 00       		.byte	0
 723 0259 12       		.uleb128 0x12
 724 025a B5010000 		.4byte	.LASF40
 725 025e 0801     		.2byte	0x108
 726 0260 06       		.byte	0x6
 727 0261 4A       		.byte	0x4a
 728 0262 A2020000 		.4byte	0x2a2
 729 0266 0D       		.uleb128 0xd
 730 0267 030E0000 		.4byte	.LASF41
 731 026b 06       		.byte	0x6
 732 026c 4B       		.byte	0x4b
 733 026d A2020000 		.4byte	0x2a2
 734 0271 02       		.byte	0x2
 735 0272 23       		.byte	0x23
 736 0273 00       		.uleb128 0
 737 0274 0D       		.uleb128 0xd
 738 0275 9B090000 		.4byte	.LASF42
 739 0279 06       		.byte	0x6
 740 027a 4C       		.byte	0x4c
 741 027b A2020000 		.4byte	0x2a2
 742 027f 03       		.byte	0x3
 743 0280 23       		.byte	0x23
 744 0281 8001     		.uleb128 0x80
 745 0283 0D       		.uleb128 0xd
 746 0284 7A0C0000 		.4byte	.LASF43
 747 0288 06       		.byte	0x6
 748 0289 4E       		.byte	0x4e
 749 028a 4E010000 		.4byte	0x14e
 750 028e 03       		.byte	0x3
 751 028f 23       		.byte	0x23
 752 0290 8002     		.uleb128 0x100
 753 0292 0D       		.uleb128 0xd
 754 0293 E30C0000 		.4byte	.LASF44
 755 0297 06       		.byte	0x6
 756 0298 51       		.byte	0x51
 757 0299 4E010000 		.4byte	0x14e
 758 029d 03       		.byte	0x3
 759 029e 23       		.byte	0x23
 760 029f 8402     		.uleb128 0x104
 761 02a1 00       		.byte	0
 762 02a2 0A       		.uleb128 0xa
ARM GAS  C:\Users\EBANO_~1\AppData\Local\Temp\cca8j2GX.s 			page 18


 763 02a3 3A010000 		.4byte	0x13a
 764 02a7 B2020000 		.4byte	0x2b2
 765 02ab 0B       		.uleb128 0xb
 766 02ac 30000000 		.4byte	0x30
 767 02b0 1F       		.byte	0x1f
 768 02b1 00       		.byte	0
 769 02b2 12       		.uleb128 0x12
 770 02b3 A0080000 		.4byte	.LASF45
 771 02b7 9001     		.2byte	0x190
 772 02b9 06       		.byte	0x6
 773 02ba 5D       		.byte	0x5d
 774 02bb F9020000 		.4byte	0x2f9
 775 02bf 0D       		.uleb128 0xd
 776 02c0 AC0A0000 		.4byte	.LASF25
 777 02c4 06       		.byte	0x6
 778 02c5 5E       		.byte	0x5e
 779 02c6 F9020000 		.4byte	0x2f9
 780 02ca 02       		.byte	0x2
 781 02cb 23       		.byte	0x23
 782 02cc 00       		.uleb128 0
 783 02cd 0D       		.uleb128 0xd
 784 02ce BB0C0000 		.4byte	.LASF46
 785 02d2 06       		.byte	0x6
 786 02d3 5F       		.byte	0x5f
 787 02d4 29000000 		.4byte	0x29
 788 02d8 02       		.byte	0x2
 789 02d9 23       		.byte	0x23
 790 02da 04       		.uleb128 0x4
 791 02db 0D       		.uleb128 0xd
 792 02dc C6030000 		.4byte	.LASF47
 793 02e0 06       		.byte	0x6
 794 02e1 61       		.byte	0x61
 795 02e2 FF020000 		.4byte	0x2ff
 796 02e6 02       		.byte	0x2
 797 02e7 23       		.byte	0x23
 798 02e8 08       		.uleb128 0x8
 799 02e9 0D       		.uleb128 0xd
 800 02ea B5010000 		.4byte	.LASF40
 801 02ee 06       		.byte	0x6
 802 02ef 62       		.byte	0x62
 803 02f0 59020000 		.4byte	0x259
 804 02f4 03       		.byte	0x3
 805 02f5 23       		.byte	0x23
 806 02f6 8801     		.uleb128 0x88
 807 02f8 00       		.byte	0
 808 02f9 05       		.uleb128 0x5
 809 02fa 04       		.byte	0x4
 810 02fb B2020000 		.4byte	0x2b2
 811 02ff 0A       		.uleb128 0xa
 812 0300 0F030000 		.4byte	0x30f
 813 0304 0F030000 		.4byte	0x30f
 814 0308 0B       		.uleb128 0xb
 815 0309 30000000 		.4byte	0x30
 816 030d 1F       		.byte	0x1f
 817 030e 00       		.byte	0
 818 030f 05       		.uleb128 0x5
 819 0310 04       		.byte	0x4
ARM GAS  C:\Users\EBANO_~1\AppData\Local\Temp\cca8j2GX.s 			page 19


 820 0311 15030000 		.4byte	0x315
 821 0315 13       		.uleb128 0x13
 822 0316 01       		.byte	0x1
 823 0317 10       		.uleb128 0x10
 824 0318 DC0C0000 		.4byte	.LASF48
 825 031c 08       		.byte	0x8
 826 031d 06       		.byte	0x6
 827 031e 75       		.byte	0x75
 828 031f 40030000 		.4byte	0x340
 829 0323 0D       		.uleb128 0xd
 830 0324 530A0000 		.4byte	.LASF49
 831 0328 06       		.byte	0x6
 832 0329 76       		.byte	0x76
 833 032a 40030000 		.4byte	0x340
 834 032e 02       		.byte	0x2
 835 032f 23       		.byte	0x23
 836 0330 00       		.uleb128 0
 837 0331 0D       		.uleb128 0xd
 838 0332 29020000 		.4byte	.LASF50
 839 0336 06       		.byte	0x6
 840 0337 77       		.byte	0x77
 841 0338 29000000 		.4byte	0x29
 842 033c 02       		.byte	0x2
 843 033d 23       		.byte	0x23
 844 033e 04       		.uleb128 0x4
 845 033f 00       		.byte	0
 846 0340 05       		.uleb128 0x5
 847 0341 04       		.byte	0x4
 848 0342 57000000 		.4byte	0x57
 849 0346 10       		.uleb128 0x10
 850 0347 22060000 		.4byte	.LASF51
 851 034b 68       		.byte	0x68
 852 034c 06       		.byte	0x6
 853 034d B5       		.byte	0xb5
 854 034e A0040000 		.4byte	0x4a0
 855 0352 11       		.uleb128 0x11
 856 0353 5F7000   		.ascii	"_p\000"
 857 0356 06       		.byte	0x6
 858 0357 B6       		.byte	0xb6
 859 0358 40030000 		.4byte	0x340
 860 035c 02       		.byte	0x2
 861 035d 23       		.byte	0x23
 862 035e 00       		.uleb128 0
 863 035f 11       		.uleb128 0x11
 864 0360 5F7200   		.ascii	"_r\000"
 865 0363 06       		.byte	0x6
 866 0364 B7       		.byte	0xb7
 867 0365 29000000 		.4byte	0x29
 868 0369 02       		.byte	0x2
 869 036a 23       		.byte	0x23
 870 036b 04       		.uleb128 0x4
 871 036c 11       		.uleb128 0x11
 872 036d 5F7700   		.ascii	"_w\000"
 873 0370 06       		.byte	0x6
 874 0371 B8       		.byte	0xb8
 875 0372 29000000 		.4byte	0x29
 876 0376 02       		.byte	0x2
ARM GAS  C:\Users\EBANO_~1\AppData\Local\Temp\cca8j2GX.s 			page 20


 877 0377 23       		.byte	0x23
 878 0378 08       		.uleb128 0x8
 879 0379 0D       		.uleb128 0xd
 880 037a 94080000 		.4byte	.LASF52
 881 037e 06       		.byte	0x6
 882 037f B9       		.byte	0xb9
 883 0380 5E000000 		.4byte	0x5e
 884 0384 02       		.byte	0x2
 885 0385 23       		.byte	0x23
 886 0386 0C       		.uleb128 0xc
 887 0387 0D       		.uleb128 0xd
 888 0388 AF010000 		.4byte	.LASF53
 889 038c 06       		.byte	0x6
 890 038d BA       		.byte	0xba
 891 038e 5E000000 		.4byte	0x5e
 892 0392 02       		.byte	0x2
 893 0393 23       		.byte	0x23
 894 0394 0E       		.uleb128 0xe
 895 0395 11       		.uleb128 0x11
 896 0396 5F626600 		.ascii	"_bf\000"
 897 039a 06       		.byte	0x6
 898 039b BB       		.byte	0xbb
 899 039c 17030000 		.4byte	0x317
 900 03a0 02       		.byte	0x2
 901 03a1 23       		.byte	0x23
 902 03a2 10       		.uleb128 0x10
 903 03a3 0D       		.uleb128 0xd
 904 03a4 AD0C0000 		.4byte	.LASF54
 905 03a8 06       		.byte	0x6
 906 03a9 BC       		.byte	0xbc
 907 03aa 29000000 		.4byte	0x29
 908 03ae 02       		.byte	0x2
 909 03af 23       		.byte	0x23
 910 03b0 18       		.uleb128 0x18
 911 03b1 0D       		.uleb128 0xd
 912 03b2 2B050000 		.4byte	.LASF55
 913 03b6 06       		.byte	0x6
 914 03b7 C3       		.byte	0xc3
 915 03b8 3A010000 		.4byte	0x13a
 916 03bc 02       		.byte	0x2
 917 03bd 23       		.byte	0x23
 918 03be 1C       		.uleb128 0x1c
 919 03bf 0D       		.uleb128 0xd
 920 03c0 39000000 		.4byte	.LASF56
 921 03c4 06       		.byte	0x6
 922 03c5 C5       		.byte	0xc5
 923 03c6 28060000 		.4byte	0x628
 924 03ca 02       		.byte	0x2
 925 03cb 23       		.byte	0x23
 926 03cc 20       		.uleb128 0x20
 927 03cd 0D       		.uleb128 0xd
 928 03ce 5E000000 		.4byte	.LASF57
 929 03d2 06       		.byte	0x6
 930 03d3 C7       		.byte	0xc7
 931 03d4 53060000 		.4byte	0x653
 932 03d8 02       		.byte	0x2
 933 03d9 23       		.byte	0x23
ARM GAS  C:\Users\EBANO_~1\AppData\Local\Temp\cca8j2GX.s 			page 21


 934 03da 24       		.uleb128 0x24
 935 03db 0D       		.uleb128 0xd
 936 03dc 02090000 		.4byte	.LASF58
 937 03e0 06       		.byte	0x6
 938 03e1 CA       		.byte	0xca
 939 03e2 78060000 		.4byte	0x678
 940 03e6 02       		.byte	0x2
 941 03e7 23       		.byte	0x23
 942 03e8 28       		.uleb128 0x28
 943 03e9 0D       		.uleb128 0xd
 944 03ea CB030000 		.4byte	.LASF59
 945 03ee 06       		.byte	0x6
 946 03ef CB       		.byte	0xcb
 947 03f0 93060000 		.4byte	0x693
 948 03f4 02       		.byte	0x2
 949 03f5 23       		.byte	0x23
 950 03f6 2C       		.uleb128 0x2c
 951 03f7 11       		.uleb128 0x11
 952 03f8 5F756200 		.ascii	"_ub\000"
 953 03fc 06       		.byte	0x6
 954 03fd CE       		.byte	0xce
 955 03fe 17030000 		.4byte	0x317
 956 0402 02       		.byte	0x2
 957 0403 23       		.byte	0x23
 958 0404 30       		.uleb128 0x30
 959 0405 11       		.uleb128 0x11
 960 0406 5F757000 		.ascii	"_up\000"
 961 040a 06       		.byte	0x6
 962 040b CF       		.byte	0xcf
 963 040c 40030000 		.4byte	0x340
 964 0410 02       		.byte	0x2
 965 0411 23       		.byte	0x23
 966 0412 38       		.uleb128 0x38
 967 0413 11       		.uleb128 0x11
 968 0414 5F757200 		.ascii	"_ur\000"
 969 0418 06       		.byte	0x6
 970 0419 D0       		.byte	0xd0
 971 041a 29000000 		.4byte	0x29
 972 041e 02       		.byte	0x2
 973 041f 23       		.byte	0x23
 974 0420 3C       		.uleb128 0x3c
 975 0421 0D       		.uleb128 0xd
 976 0422 64080000 		.4byte	.LASF60
 977 0426 06       		.byte	0x6
 978 0427 D3       		.byte	0xd3
 979 0428 99060000 		.4byte	0x699
 980 042c 02       		.byte	0x2
 981 042d 23       		.byte	0x23
 982 042e 40       		.uleb128 0x40
 983 042f 0D       		.uleb128 0xd
 984 0430 AE000000 		.4byte	.LASF61
 985 0434 06       		.byte	0x6
 986 0435 D4       		.byte	0xd4
 987 0436 A9060000 		.4byte	0x6a9
 988 043a 02       		.byte	0x2
 989 043b 23       		.byte	0x23
 990 043c 43       		.uleb128 0x43
ARM GAS  C:\Users\EBANO_~1\AppData\Local\Temp\cca8j2GX.s 			page 22


 991 043d 11       		.uleb128 0x11
 992 043e 5F6C6200 		.ascii	"_lb\000"
 993 0442 06       		.byte	0x6
 994 0443 D7       		.byte	0xd7
 995 0444 17030000 		.4byte	0x317
 996 0448 02       		.byte	0x2
 997 0449 23       		.byte	0x23
 998 044a 44       		.uleb128 0x44
 999 044b 0D       		.uleb128 0xd
 1000 044c 270A0000 		.4byte	.LASF62
 1001 0450 06       		.byte	0x6
 1002 0451 DA       		.byte	0xda
 1003 0452 29000000 		.4byte	0x29
 1004 0456 02       		.byte	0x2
 1005 0457 23       		.byte	0x23
 1006 0458 4C       		.uleb128 0x4c
 1007 0459 0D       		.uleb128 0xd
 1008 045a 96050000 		.4byte	.LASF63
 1009 045e 06       		.byte	0x6
 1010 045f DB       		.byte	0xdb
 1011 0460 AE000000 		.4byte	0xae
 1012 0464 02       		.byte	0x2
 1013 0465 23       		.byte	0x23
 1014 0466 50       		.uleb128 0x50
 1015 0467 0D       		.uleb128 0xd
 1016 0468 C60A0000 		.4byte	.LASF64
 1017 046c 06       		.byte	0x6
 1018 046d DE       		.byte	0xde
 1019 046e BF040000 		.4byte	0x4bf
 1020 0472 02       		.byte	0x2
 1021 0473 23       		.byte	0x23
 1022 0474 54       		.uleb128 0x54
 1023 0475 0D       		.uleb128 0xd
 1024 0476 2C010000 		.4byte	.LASF65
 1025 047a 06       		.byte	0x6
 1026 047b E2       		.byte	0xe2
 1027 047c 2F010000 		.4byte	0x12f
 1028 0480 02       		.byte	0x2
 1029 0481 23       		.byte	0x23
 1030 0482 58       		.uleb128 0x58
 1031 0483 0D       		.uleb128 0xd
 1032 0484 80080000 		.4byte	.LASF66
 1033 0488 06       		.byte	0x6
 1034 0489 E4       		.byte	0xe4
 1035 048a 24010000 		.4byte	0x124
 1036 048e 02       		.byte	0x2
 1037 048f 23       		.byte	0x23
 1038 0490 5C       		.uleb128 0x5c
 1039 0491 0D       		.uleb128 0xd
 1040 0492 35060000 		.4byte	.LASF67
 1041 0496 06       		.byte	0x6
 1042 0497 E5       		.byte	0xe5
 1043 0498 29000000 		.4byte	0x29
 1044 049c 02       		.byte	0x2
 1045 049d 23       		.byte	0x23
 1046 049e 64       		.uleb128 0x64
 1047 049f 00       		.byte	0
ARM GAS  C:\Users\EBANO_~1\AppData\Local\Temp\cca8j2GX.s 			page 23


 1048 04a0 14       		.uleb128 0x14
 1049 04a1 01       		.byte	0x1
 1050 04a2 29000000 		.4byte	0x29
 1051 04a6 BF040000 		.4byte	0x4bf
 1052 04aa 15       		.uleb128 0x15
 1053 04ab BF040000 		.4byte	0x4bf
 1054 04af 15       		.uleb128 0x15
 1055 04b0 3A010000 		.4byte	0x13a
 1056 04b4 15       		.uleb128 0x15
 1057 04b5 3C010000 		.4byte	0x13c
 1058 04b9 15       		.uleb128 0x15
 1059 04ba 29000000 		.4byte	0x29
 1060 04be 00       		.byte	0
 1061 04bf 05       		.uleb128 0x5
 1062 04c0 04       		.byte	0x4
 1063 04c1 CA040000 		.4byte	0x4ca
 1064 04c5 0F       		.uleb128 0xf
 1065 04c6 BF040000 		.4byte	0x4bf
 1066 04ca 16       		.uleb128 0x16
 1067 04cb 6F030000 		.4byte	.LASF68
 1068 04cf 2804     		.2byte	0x428
 1069 04d1 06       		.byte	0x6
 1070 04d2 6002     		.2byte	0x260
 1071 04d4 28060000 		.4byte	0x628
 1072 04d8 17       		.uleb128 0x17
 1073 04d9 77060000 		.4byte	.LASF69
 1074 04dd 06       		.byte	0x6
 1075 04de 6202     		.2byte	0x262
 1076 04e0 29000000 		.4byte	0x29
 1077 04e4 02       		.byte	0x2
 1078 04e5 23       		.byte	0x23
 1079 04e6 00       		.uleb128 0
 1080 04e7 17       		.uleb128 0x17
 1081 04e8 7A040000 		.4byte	.LASF70
 1082 04ec 06       		.byte	0x6
 1083 04ed 6702     		.2byte	0x267
 1084 04ef 06070000 		.4byte	0x706
 1085 04f3 02       		.byte	0x2
 1086 04f4 23       		.byte	0x23
 1087 04f5 04       		.uleb128 0x4
 1088 04f6 17       		.uleb128 0x17
 1089 04f7 DC090000 		.4byte	.LASF71
 1090 04fb 06       		.byte	0x6
 1091 04fc 6702     		.2byte	0x267
 1092 04fe 06070000 		.4byte	0x706
 1093 0502 02       		.byte	0x2
 1094 0503 23       		.byte	0x23
 1095 0504 08       		.uleb128 0x8
 1096 0505 17       		.uleb128 0x17
 1097 0506 6A080000 		.4byte	.LASF72
 1098 050a 06       		.byte	0x6
 1099 050b 6702     		.2byte	0x267
 1100 050d 06070000 		.4byte	0x706
 1101 0511 02       		.byte	0x2
 1102 0512 23       		.byte	0x23
 1103 0513 0C       		.uleb128 0xc
 1104 0514 17       		.uleb128 0x17
ARM GAS  C:\Users\EBANO_~1\AppData\Local\Temp\cca8j2GX.s 			page 24


 1105 0515 B60C0000 		.4byte	.LASF73
 1106 0519 06       		.byte	0x6
 1107 051a 6902     		.2byte	0x269
 1108 051c 29000000 		.4byte	0x29
 1109 0520 02       		.byte	0x2
 1110 0521 23       		.byte	0x23
 1111 0522 10       		.uleb128 0x10
 1112 0523 17       		.uleb128 0x17
 1113 0524 05070000 		.4byte	.LASF74
 1114 0528 06       		.byte	0x6
 1115 0529 6A02     		.2byte	0x26a
 1116 052b 21090000 		.4byte	0x921
 1117 052f 02       		.byte	0x2
 1118 0530 23       		.byte	0x23
 1119 0531 14       		.uleb128 0x14
 1120 0532 17       		.uleb128 0x17
 1121 0533 3B030000 		.4byte	.LASF75
 1122 0537 06       		.byte	0x6
 1123 0538 6D02     		.2byte	0x26d
 1124 053a 29000000 		.4byte	0x29
 1125 053e 02       		.byte	0x2
 1126 053f 23       		.byte	0x23
 1127 0540 30       		.uleb128 0x30
 1128 0541 17       		.uleb128 0x17
 1129 0542 140D0000 		.4byte	.LASF76
 1130 0546 06       		.byte	0x6
 1131 0547 6E02     		.2byte	0x26e
 1132 0549 37090000 		.4byte	0x937
 1133 054d 02       		.byte	0x2
 1134 054e 23       		.byte	0x23
 1135 054f 34       		.uleb128 0x34
 1136 0550 17       		.uleb128 0x17
 1137 0551 2A060000 		.4byte	.LASF77
 1138 0555 06       		.byte	0x6
 1139 0556 7002     		.2byte	0x270
 1140 0558 29000000 		.4byte	0x29
 1141 055c 02       		.byte	0x2
 1142 055d 23       		.byte	0x23
 1143 055e 38       		.uleb128 0x38
 1144 055f 17       		.uleb128 0x17
 1145 0560 CB060000 		.4byte	.LASF78
 1146 0564 06       		.byte	0x6
 1147 0565 7202     		.2byte	0x272
 1148 0567 49090000 		.4byte	0x949
 1149 056b 02       		.byte	0x2
 1150 056c 23       		.byte	0x23
 1151 056d 3C       		.uleb128 0x3c
 1152 056e 17       		.uleb128 0x17
 1153 056f 3C0D0000 		.4byte	.LASF79
 1154 0573 06       		.byte	0x6
 1155 0574 7502     		.2byte	0x275
 1156 0576 B8010000 		.4byte	0x1b8
 1157 057a 02       		.byte	0x2
 1158 057b 23       		.byte	0x23
 1159 057c 40       		.uleb128 0x40
 1160 057d 17       		.uleb128 0x17
 1161 057e 0A020000 		.4byte	.LASF80
ARM GAS  C:\Users\EBANO_~1\AppData\Local\Temp\cca8j2GX.s 			page 25


 1162 0582 06       		.byte	0x6
 1163 0583 7602     		.2byte	0x276
 1164 0585 29000000 		.4byte	0x29
 1165 0589 02       		.byte	0x2
 1166 058a 23       		.byte	0x23
 1167 058b 44       		.uleb128 0x44
 1168 058c 17       		.uleb128 0x17
 1169 058d F7050000 		.4byte	.LASF81
 1170 0591 06       		.byte	0x6
 1171 0592 7702     		.2byte	0x277
 1172 0594 B8010000 		.4byte	0x1b8
 1173 0598 02       		.byte	0x2
 1174 0599 23       		.byte	0x23
 1175 059a 48       		.uleb128 0x48
 1176 059b 17       		.uleb128 0x17
 1177 059c A7070000 		.4byte	.LASF82
 1178 05a0 06       		.byte	0x6
 1179 05a1 7802     		.2byte	0x278
 1180 05a3 4F090000 		.4byte	0x94f
 1181 05a7 02       		.byte	0x2
 1182 05a8 23       		.byte	0x23
 1183 05a9 4C       		.uleb128 0x4c
 1184 05aa 17       		.uleb128 0x17
 1185 05ab 72000000 		.4byte	.LASF83
 1186 05af 06       		.byte	0x6
 1187 05b0 7B02     		.2byte	0x27b
 1188 05b2 29000000 		.4byte	0x29
 1189 05b6 02       		.byte	0x2
 1190 05b7 23       		.byte	0x23
 1191 05b8 50       		.uleb128 0x50
 1192 05b9 17       		.uleb128 0x17
 1193 05ba AA050000 		.4byte	.LASF84
 1194 05be 06       		.byte	0x6
 1195 05bf 7C02     		.2byte	0x27c
 1196 05c1 3C010000 		.4byte	0x13c
 1197 05c5 02       		.byte	0x2
 1198 05c6 23       		.byte	0x23
 1199 05c7 54       		.uleb128 0x54
 1200 05c8 17       		.uleb128 0x17
 1201 05c9 5F080000 		.4byte	.LASF85
 1202 05cd 06       		.byte	0x6
 1203 05ce 9F02     		.2byte	0x29f
 1204 05d0 FF080000 		.4byte	0x8ff
 1205 05d4 02       		.byte	0x2
 1206 05d5 23       		.byte	0x23
 1207 05d6 58       		.uleb128 0x58
 1208 05d7 17       		.uleb128 0x17
 1209 05d8 A0080000 		.4byte	.LASF45
 1210 05dc 06       		.byte	0x6
 1211 05dd A302     		.2byte	0x2a3
 1212 05df F9020000 		.4byte	0x2f9
 1213 05e3 03       		.byte	0x3
 1214 05e4 23       		.byte	0x23
 1215 05e5 C802     		.uleb128 0x148
 1216 05e7 17       		.uleb128 0x17
 1217 05e8 D5060000 		.4byte	.LASF86
 1218 05ec 06       		.byte	0x6
ARM GAS  C:\Users\EBANO_~1\AppData\Local\Temp\cca8j2GX.s 			page 26


 1219 05ed A402     		.2byte	0x2a4
 1220 05ef B2020000 		.4byte	0x2b2
 1221 05f3 03       		.byte	0x3
 1222 05f4 23       		.byte	0x23
 1223 05f5 CC02     		.uleb128 0x14c
 1224 05f7 17       		.uleb128 0x17
 1225 05f8 87050000 		.4byte	.LASF87
 1226 05fc 06       		.byte	0x6
 1227 05fd A802     		.2byte	0x2a8
 1228 05ff 61090000 		.4byte	0x961
 1229 0603 03       		.byte	0x3
 1230 0604 23       		.byte	0x23
 1231 0605 DC05     		.uleb128 0x2dc
 1232 0607 17       		.uleb128 0x17
 1233 0608 70070000 		.4byte	.LASF88
 1234 060c 06       		.byte	0x6
 1235 060d AD02     		.2byte	0x2ad
 1236 060f C5060000 		.4byte	0x6c5
 1237 0613 03       		.byte	0x3
 1238 0614 23       		.byte	0x23
 1239 0615 E005     		.uleb128 0x2e0
 1240 0617 17       		.uleb128 0x17
 1241 0618 22000000 		.4byte	.LASF89
 1242 061c 06       		.byte	0x6
 1243 061d AF02     		.2byte	0x2af
 1244 061f 6D090000 		.4byte	0x96d
 1245 0623 03       		.byte	0x3
 1246 0624 23       		.byte	0x23
 1247 0625 EC05     		.uleb128 0x2ec
 1248 0627 00       		.byte	0
 1249 0628 05       		.uleb128 0x5
 1250 0629 04       		.byte	0x4
 1251 062a A0040000 		.4byte	0x4a0
 1252 062e 14       		.uleb128 0x14
 1253 062f 01       		.byte	0x1
 1254 0630 29000000 		.4byte	0x29
 1255 0634 4D060000 		.4byte	0x64d
 1256 0638 15       		.uleb128 0x15
 1257 0639 BF040000 		.4byte	0x4bf
 1258 063d 15       		.uleb128 0x15
 1259 063e 3A010000 		.4byte	0x13a
 1260 0642 15       		.uleb128 0x15
 1261 0643 4D060000 		.4byte	0x64d
 1262 0647 15       		.uleb128 0x15
 1263 0648 29000000 		.4byte	0x29
 1264 064c 00       		.byte	0
 1265 064d 05       		.uleb128 0x5
 1266 064e 04       		.byte	0x4
 1267 064f 49010000 		.4byte	0x149
 1268 0653 05       		.uleb128 0x5
 1269 0654 04       		.byte	0x4
 1270 0655 2E060000 		.4byte	0x62e
 1271 0659 14       		.uleb128 0x14
 1272 065a 01       		.byte	0x1
 1273 065b B9000000 		.4byte	0xb9
 1274 065f 78060000 		.4byte	0x678
 1275 0663 15       		.uleb128 0x15
ARM GAS  C:\Users\EBANO_~1\AppData\Local\Temp\cca8j2GX.s 			page 27


 1276 0664 BF040000 		.4byte	0x4bf
 1277 0668 15       		.uleb128 0x15
 1278 0669 3A010000 		.4byte	0x13a
 1279 066d 15       		.uleb128 0x15
 1280 066e B9000000 		.4byte	0xb9
 1281 0672 15       		.uleb128 0x15
 1282 0673 29000000 		.4byte	0x29
 1283 0677 00       		.byte	0
 1284 0678 05       		.uleb128 0x5
 1285 0679 04       		.byte	0x4
 1286 067a 59060000 		.4byte	0x659
 1287 067e 14       		.uleb128 0x14
 1288 067f 01       		.byte	0x1
 1289 0680 29000000 		.4byte	0x29
 1290 0684 93060000 		.4byte	0x693
 1291 0688 15       		.uleb128 0x15
 1292 0689 BF040000 		.4byte	0x4bf
 1293 068d 15       		.uleb128 0x15
 1294 068e 3A010000 		.4byte	0x13a
 1295 0692 00       		.byte	0
 1296 0693 05       		.uleb128 0x5
 1297 0694 04       		.byte	0x4
 1298 0695 7E060000 		.4byte	0x67e
 1299 0699 0A       		.uleb128 0xa
 1300 069a 57000000 		.4byte	0x57
 1301 069e A9060000 		.4byte	0x6a9
 1302 06a2 0B       		.uleb128 0xb
 1303 06a3 30000000 		.4byte	0x30
 1304 06a7 02       		.byte	0x2
 1305 06a8 00       		.byte	0
 1306 06a9 0A       		.uleb128 0xa
 1307 06aa 57000000 		.4byte	0x57
 1308 06ae B9060000 		.4byte	0x6b9
 1309 06b2 0B       		.uleb128 0xb
 1310 06b3 30000000 		.4byte	0x30
 1311 06b7 00       		.byte	0
 1312 06b8 00       		.byte	0
 1313 06b9 07       		.uleb128 0x7
 1314 06ba 850A0000 		.4byte	.LASF90
 1315 06be 06       		.byte	0x6
 1316 06bf 1F01     		.2byte	0x11f
 1317 06c1 46030000 		.4byte	0x346
 1318 06c5 18       		.uleb128 0x18
 1319 06c6 B7070000 		.4byte	.LASF91
 1320 06ca 0C       		.byte	0xc
 1321 06cb 06       		.byte	0x6
 1322 06cc 2301     		.2byte	0x123
 1323 06ce 00070000 		.4byte	0x700
 1324 06d2 17       		.uleb128 0x17
 1325 06d3 AC0A0000 		.4byte	.LASF25
 1326 06d7 06       		.byte	0x6
 1327 06d8 2501     		.2byte	0x125
 1328 06da 00070000 		.4byte	0x700
 1329 06de 02       		.byte	0x2
 1330 06df 23       		.byte	0x23
 1331 06e0 00       		.uleb128 0
 1332 06e1 17       		.uleb128 0x17
ARM GAS  C:\Users\EBANO_~1\AppData\Local\Temp\cca8j2GX.s 			page 28


 1333 06e2 43070000 		.4byte	.LASF92
 1334 06e6 06       		.byte	0x6
 1335 06e7 2601     		.2byte	0x126
 1336 06e9 29000000 		.4byte	0x29
 1337 06ed 02       		.byte	0x2
 1338 06ee 23       		.byte	0x23
 1339 06ef 04       		.uleb128 0x4
 1340 06f0 17       		.uleb128 0x17
 1341 06f1 B1070000 		.4byte	.LASF93
 1342 06f5 06       		.byte	0x6
 1343 06f6 2701     		.2byte	0x127
 1344 06f8 06070000 		.4byte	0x706
 1345 06fc 02       		.byte	0x2
 1346 06fd 23       		.byte	0x23
 1347 06fe 08       		.uleb128 0x8
 1348 06ff 00       		.byte	0
 1349 0700 05       		.uleb128 0x5
 1350 0701 04       		.byte	0x4
 1351 0702 C5060000 		.4byte	0x6c5
 1352 0706 05       		.uleb128 0x5
 1353 0707 04       		.byte	0x4
 1354 0708 B9060000 		.4byte	0x6b9
 1355 070c 18       		.uleb128 0x18
 1356 070d C0090000 		.4byte	.LASF94
 1357 0711 0E       		.byte	0xe
 1358 0712 06       		.byte	0x6
 1359 0713 3F01     		.2byte	0x13f
 1360 0715 47070000 		.4byte	0x747
 1361 0719 17       		.uleb128 0x17
 1362 071a FC080000 		.4byte	.LASF95
 1363 071e 06       		.byte	0x6
 1364 071f 4001     		.2byte	0x140
 1365 0721 47070000 		.4byte	0x747
 1366 0725 02       		.byte	0x2
 1367 0726 23       		.byte	0x23
 1368 0727 00       		.uleb128 0
 1369 0728 17       		.uleb128 0x17
 1370 0729 51010000 		.4byte	.LASF96
 1371 072d 06       		.byte	0x6
 1372 072e 4101     		.2byte	0x141
 1373 0730 47070000 		.4byte	0x747
 1374 0734 02       		.byte	0x2
 1375 0735 23       		.byte	0x23
 1376 0736 06       		.uleb128 0x6
 1377 0737 17       		.uleb128 0x17
 1378 0738 680D0000 		.4byte	.LASF97
 1379 073c 06       		.byte	0x6
 1380 073d 4201     		.2byte	0x142
 1381 073f 70000000 		.4byte	0x70
 1382 0743 02       		.byte	0x2
 1383 0744 23       		.byte	0x23
 1384 0745 0C       		.uleb128 0xc
 1385 0746 00       		.byte	0
 1386 0747 0A       		.uleb128 0xa
 1387 0748 70000000 		.4byte	0x70
 1388 074c 57070000 		.4byte	0x757
 1389 0750 0B       		.uleb128 0xb
ARM GAS  C:\Users\EBANO_~1\AppData\Local\Temp\cca8j2GX.s 			page 29


 1390 0751 30000000 		.4byte	0x30
 1391 0755 02       		.byte	0x2
 1392 0756 00       		.byte	0
 1393 0757 19       		.uleb128 0x19
 1394 0758 D0       		.byte	0xd0
 1395 0759 06       		.byte	0x6
 1396 075a 8002     		.2byte	0x280
 1397 075c 87080000 		.4byte	0x887
 1398 0760 17       		.uleb128 0x17
 1399 0761 B1020000 		.4byte	.LASF98
 1400 0765 06       		.byte	0x6
 1401 0766 8202     		.2byte	0x282
 1402 0768 30000000 		.4byte	0x30
 1403 076c 02       		.byte	0x2
 1404 076d 23       		.byte	0x23
 1405 076e 00       		.uleb128 0
 1406 076f 17       		.uleb128 0x17
 1407 0770 600A0000 		.4byte	.LASF99
 1408 0774 06       		.byte	0x6
 1409 0775 8302     		.2byte	0x283
 1410 0777 3C010000 		.4byte	0x13c
 1411 077b 02       		.byte	0x2
 1412 077c 23       		.byte	0x23
 1413 077d 04       		.uleb128 0x4
 1414 077e 17       		.uleb128 0x17
 1415 077f 65000000 		.4byte	.LASF100
 1416 0783 06       		.byte	0x6
 1417 0784 8402     		.2byte	0x284
 1418 0786 87080000 		.4byte	0x887
 1419 078a 02       		.byte	0x2
 1420 078b 23       		.byte	0x23
 1421 078c 08       		.uleb128 0x8
 1422 078d 17       		.uleb128 0x17
 1423 078e 2F020000 		.4byte	.LASF101
 1424 0792 06       		.byte	0x6
 1425 0793 8502     		.2byte	0x285
 1426 0795 CE010000 		.4byte	0x1ce
 1427 0799 02       		.byte	0x2
 1428 079a 23       		.byte	0x23
 1429 079b 24       		.uleb128 0x24
 1430 079c 17       		.uleb128 0x17
 1431 079d 88070000 		.4byte	.LASF102
 1432 07a1 06       		.byte	0x6
 1433 07a2 8602     		.2byte	0x286
 1434 07a4 29000000 		.4byte	0x29
 1435 07a8 02       		.byte	0x2
 1436 07a9 23       		.byte	0x23
 1437 07aa 48       		.uleb128 0x48
 1438 07ab 17       		.uleb128 0x17
 1439 07ac 89080000 		.4byte	.LASF103
 1440 07b0 06       		.byte	0x6
 1441 07b1 8702     		.2byte	0x287
 1442 07b3 90000000 		.4byte	0x90
 1443 07b7 02       		.byte	0x2
 1444 07b8 23       		.byte	0x23
 1445 07b9 50       		.uleb128 0x50
 1446 07ba 17       		.uleb128 0x17
ARM GAS  C:\Users\EBANO_~1\AppData\Local\Temp\cca8j2GX.s 			page 30


 1447 07bb 970A0000 		.4byte	.LASF104
 1448 07bf 06       		.byte	0x6
 1449 07c0 8802     		.2byte	0x288
 1450 07c2 0C070000 		.4byte	0x70c
 1451 07c6 02       		.byte	0x2
 1452 07c7 23       		.byte	0x23
 1453 07c8 58       		.uleb128 0x58
 1454 07c9 17       		.uleb128 0x17
 1455 07ca 8C0B0000 		.4byte	.LASF105
 1456 07ce 06       		.byte	0x6
 1457 07cf 8902     		.2byte	0x289
 1458 07d1 24010000 		.4byte	0x124
 1459 07d5 02       		.byte	0x2
 1460 07d6 23       		.byte	0x23
 1461 07d7 68       		.uleb128 0x68
 1462 07d8 17       		.uleb128 0x17
 1463 07d9 44090000 		.4byte	.LASF106
 1464 07dd 06       		.byte	0x6
 1465 07de 8A02     		.2byte	0x28a
 1466 07e0 24010000 		.4byte	0x124
 1467 07e4 02       		.byte	0x2
 1468 07e5 23       		.byte	0x23
 1469 07e6 70       		.uleb128 0x70
 1470 07e7 17       		.uleb128 0x17
 1471 07e8 72080000 		.4byte	.LASF107
 1472 07ec 06       		.byte	0x6
 1473 07ed 8B02     		.2byte	0x28b
 1474 07ef 24010000 		.4byte	0x124
 1475 07f3 02       		.byte	0x2
 1476 07f4 23       		.byte	0x23
 1477 07f5 78       		.uleb128 0x78
 1478 07f6 17       		.uleb128 0x17
 1479 07f7 D3000000 		.4byte	.LASF108
 1480 07fb 06       		.byte	0x6
 1481 07fc 8C02     		.2byte	0x28c
 1482 07fe 97080000 		.4byte	0x897
 1483 0802 03       		.byte	0x3
 1484 0803 23       		.byte	0x23
 1485 0804 8001     		.uleb128 0x80
 1486 0806 17       		.uleb128 0x17
 1487 0807 A7060000 		.4byte	.LASF109
 1488 080b 06       		.byte	0x6
 1489 080c 8D02     		.2byte	0x28d
 1490 080e A7080000 		.4byte	0x8a7
 1491 0812 03       		.byte	0x3
 1492 0813 23       		.byte	0x23
 1493 0814 8801     		.uleb128 0x88
 1494 0816 17       		.uleb128 0x17
 1495 0817 590E0000 		.4byte	.LASF110
 1496 081b 06       		.byte	0x6
 1497 081c 8E02     		.2byte	0x28e
 1498 081e 29000000 		.4byte	0x29
 1499 0822 03       		.byte	0x3
 1500 0823 23       		.byte	0x23
 1501 0824 A001     		.uleb128 0xa0
 1502 0826 17       		.uleb128 0x17
 1503 0827 E7010000 		.4byte	.LASF111
ARM GAS  C:\Users\EBANO_~1\AppData\Local\Temp\cca8j2GX.s 			page 31


 1504 082b 06       		.byte	0x6
 1505 082c 8F02     		.2byte	0x28f
 1506 082e 24010000 		.4byte	0x124
 1507 0832 03       		.byte	0x3
 1508 0833 23       		.byte	0x23
 1509 0834 A401     		.uleb128 0xa4
 1510 0836 17       		.uleb128 0x17
 1511 0837 6D0A0000 		.4byte	.LASF112
 1512 083b 06       		.byte	0x6
 1513 083c 9002     		.2byte	0x290
 1514 083e 24010000 		.4byte	0x124
 1515 0842 03       		.byte	0x3
 1516 0843 23       		.byte	0x23
 1517 0844 AC01     		.uleb128 0xac
 1518 0846 17       		.uleb128 0x17
 1519 0847 BA0D0000 		.4byte	.LASF113
 1520 084b 06       		.byte	0x6
 1521 084c 9102     		.2byte	0x291
 1522 084e 24010000 		.4byte	0x124
 1523 0852 03       		.byte	0x3
 1524 0853 23       		.byte	0x23
 1525 0854 B401     		.uleb128 0xb4
 1526 0856 17       		.uleb128 0x17
 1527 0857 31080000 		.4byte	.LASF114
 1528 085b 06       		.byte	0x6
 1529 085c 9202     		.2byte	0x292
 1530 085e 24010000 		.4byte	0x124
 1531 0862 03       		.byte	0x3
 1532 0863 23       		.byte	0x23
 1533 0864 BC01     		.uleb128 0xbc
 1534 0866 17       		.uleb128 0x17
 1535 0867 9D000000 		.4byte	.LASF115
 1536 086b 06       		.byte	0x6
 1537 086c 9302     		.2byte	0x293
 1538 086e 24010000 		.4byte	0x124
 1539 0872 03       		.byte	0x3
 1540 0873 23       		.byte	0x23
 1541 0874 C401     		.uleb128 0xc4
 1542 0876 17       		.uleb128 0x17
 1543 0877 28080000 		.4byte	.LASF116
 1544 087b 06       		.byte	0x6
 1545 087c 9402     		.2byte	0x294
 1546 087e 29000000 		.4byte	0x29
 1547 0882 03       		.byte	0x3
 1548 0883 23       		.byte	0x23
 1549 0884 CC01     		.uleb128 0xcc
 1550 0886 00       		.byte	0
 1551 0887 0A       		.uleb128 0xa
 1552 0888 42010000 		.4byte	0x142
 1553 088c 97080000 		.4byte	0x897
 1554 0890 0B       		.uleb128 0xb
 1555 0891 30000000 		.4byte	0x30
 1556 0895 19       		.byte	0x19
 1557 0896 00       		.byte	0
 1558 0897 0A       		.uleb128 0xa
 1559 0898 42010000 		.4byte	0x142
 1560 089c A7080000 		.4byte	0x8a7
ARM GAS  C:\Users\EBANO_~1\AppData\Local\Temp\cca8j2GX.s 			page 32


 1561 08a0 0B       		.uleb128 0xb
 1562 08a1 30000000 		.4byte	0x30
 1563 08a5 07       		.byte	0x7
 1564 08a6 00       		.byte	0
 1565 08a7 0A       		.uleb128 0xa
 1566 08a8 42010000 		.4byte	0x142
 1567 08ac B7080000 		.4byte	0x8b7
 1568 08b0 0B       		.uleb128 0xb
 1569 08b1 30000000 		.4byte	0x30
 1570 08b5 17       		.byte	0x17
 1571 08b6 00       		.byte	0
 1572 08b7 19       		.uleb128 0x19
 1573 08b8 F0       		.byte	0xf0
 1574 08b9 06       		.byte	0x6
 1575 08ba 9902     		.2byte	0x299
 1576 08bc DF080000 		.4byte	0x8df
 1577 08c0 17       		.uleb128 0x17
 1578 08c1 FA0C0000 		.4byte	.LASF117
 1579 08c5 06       		.byte	0x6
 1580 08c6 9C02     		.2byte	0x29c
 1581 08c8 DF080000 		.4byte	0x8df
 1582 08cc 02       		.byte	0x2
 1583 08cd 23       		.byte	0x23
 1584 08ce 00       		.uleb128 0
 1585 08cf 17       		.uleb128 0x17
 1586 08d0 78070000 		.4byte	.LASF118
 1587 08d4 06       		.byte	0x6
 1588 08d5 9D02     		.2byte	0x29d
 1589 08d7 EF080000 		.4byte	0x8ef
 1590 08db 02       		.byte	0x2
 1591 08dc 23       		.byte	0x23
 1592 08dd 78       		.uleb128 0x78
 1593 08de 00       		.byte	0
 1594 08df 0A       		.uleb128 0xa
 1595 08e0 40030000 		.4byte	0x340
 1596 08e4 EF080000 		.4byte	0x8ef
 1597 08e8 0B       		.uleb128 0xb
 1598 08e9 30000000 		.4byte	0x30
 1599 08ed 1D       		.byte	0x1d
 1600 08ee 00       		.byte	0
 1601 08ef 0A       		.uleb128 0xa
 1602 08f0 30000000 		.4byte	0x30
 1603 08f4 FF080000 		.4byte	0x8ff
 1604 08f8 0B       		.uleb128 0xb
 1605 08f9 30000000 		.4byte	0x30
 1606 08fd 1D       		.byte	0x1d
 1607 08fe 00       		.byte	0
 1608 08ff 1A       		.uleb128 0x1a
 1609 0900 F0       		.byte	0xf0
 1610 0901 06       		.byte	0x6
 1611 0902 7E02     		.2byte	0x27e
 1612 0904 21090000 		.4byte	0x921
 1613 0908 1B       		.uleb128 0x1b
 1614 0909 6F030000 		.4byte	.LASF68
 1615 090d 06       		.byte	0x6
 1616 090e 9502     		.2byte	0x295
 1617 0910 57070000 		.4byte	0x757
ARM GAS  C:\Users\EBANO_~1\AppData\Local\Temp\cca8j2GX.s 			page 33


 1618 0914 1B       		.uleb128 0x1b
 1619 0915 90000000 		.4byte	.LASF119
 1620 0919 06       		.byte	0x6
 1621 091a 9E02     		.2byte	0x29e
 1622 091c B7080000 		.4byte	0x8b7
 1623 0920 00       		.byte	0
 1624 0921 0A       		.uleb128 0xa
 1625 0922 42010000 		.4byte	0x142
 1626 0926 31090000 		.4byte	0x931
 1627 092a 0B       		.uleb128 0xb
 1628 092b 30000000 		.4byte	0x30
 1629 092f 18       		.byte	0x18
 1630 0930 00       		.byte	0
 1631 0931 06       		.uleb128 0x6
 1632 0932 0A000000 		.4byte	.LASF121
 1633 0936 01       		.byte	0x1
 1634 0937 05       		.uleb128 0x5
 1635 0938 04       		.byte	0x4
 1636 0939 31090000 		.4byte	0x931
 1637 093d 1C       		.uleb128 0x1c
 1638 093e 01       		.byte	0x1
 1639 093f 49090000 		.4byte	0x949
 1640 0943 15       		.uleb128 0x15
 1641 0944 BF040000 		.4byte	0x4bf
 1642 0948 00       		.byte	0
 1643 0949 05       		.uleb128 0x5
 1644 094a 04       		.byte	0x4
 1645 094b 3D090000 		.4byte	0x93d
 1646 094f 05       		.uleb128 0x5
 1647 0950 04       		.byte	0x4
 1648 0951 B8010000 		.4byte	0x1b8
 1649 0955 1C       		.uleb128 0x1c
 1650 0956 01       		.byte	0x1
 1651 0957 61090000 		.4byte	0x961
 1652 095b 15       		.uleb128 0x15
 1653 095c 29000000 		.4byte	0x29
 1654 0960 00       		.byte	0
 1655 0961 05       		.uleb128 0x5
 1656 0962 04       		.byte	0x4
 1657 0963 67090000 		.4byte	0x967
 1658 0967 05       		.uleb128 0x5
 1659 0968 04       		.byte	0x4
 1660 0969 55090000 		.4byte	0x955
 1661 096d 0A       		.uleb128 0xa
 1662 096e B9060000 		.4byte	0x6b9
 1663 0972 7D090000 		.4byte	0x97d
 1664 0976 0B       		.uleb128 0xb
 1665 0977 30000000 		.4byte	0x30
 1666 097b 02       		.byte	0x2
 1667 097c 00       		.byte	0
 1668 097d 1D       		.uleb128 0x1d
 1669 097e FE010000 		.4byte	.LASF122
 1670 0982 06       		.byte	0x6
 1671 0983 2E03     		.2byte	0x32e
 1672 0985 BF040000 		.4byte	0x4bf
 1673 0989 01       		.byte	0x1
 1674 098a 01       		.byte	0x1
ARM GAS  C:\Users\EBANO_~1\AppData\Local\Temp\cca8j2GX.s 			page 34


 1675 098b 1D       		.uleb128 0x1d
 1676 098c 76030000 		.4byte	.LASF123
 1677 0990 06       		.byte	0x6
 1678 0991 2F03     		.2byte	0x32f
 1679 0993 C5040000 		.4byte	0x4c5
 1680 0997 01       		.byte	0x1
 1681 0998 01       		.byte	0x1
 1682 0999 03       		.uleb128 0x3
 1683 099a 04       		.byte	0x4
 1684 099b 04       		.byte	0x4
 1685 099c E7070000 		.4byte	.LASF124
 1686 09a0 03       		.uleb128 0x3
 1687 09a1 08       		.byte	0x8
 1688 09a2 04       		.byte	0x4
 1689 09a3 81070000 		.4byte	.LASF125
 1690 09a7 1E       		.uleb128 0x1e
 1691 09a8 090A0000 		.4byte	.LASF310
 1692 09ac 05       		.byte	0x5
 1693 09ad 01       		.byte	0x1
 1694 09ae 45000000 		.4byte	0x45
 1695 09b2 07       		.byte	0x7
 1696 09b3 8202     		.2byte	0x282
 1697 09b5 D2090000 		.4byte	0x9d2
 1698 09b9 1F       		.uleb128 0x1f
 1699 09ba CE0C0000 		.4byte	.LASF126
 1700 09be 7F       		.sleb128 -1
 1701 09bf 20       		.uleb128 0x20
 1702 09c0 DE060000 		.4byte	.LASF127
 1703 09c4 00       		.byte	0
 1704 09c5 20       		.uleb128 0x20
 1705 09c6 A30B0000 		.4byte	.LASF128
 1706 09ca 01       		.byte	0x1
 1707 09cb 20       		.uleb128 0x20
 1708 09cc 3B0B0000 		.4byte	.LASF129
 1709 09d0 02       		.byte	0x2
 1710 09d1 00       		.byte	0
 1711 09d2 1D       		.uleb128 0x1d
 1712 09d3 DD050000 		.4byte	.LASF130
 1713 09d7 07       		.byte	0x7
 1714 09d8 8D02     		.2byte	0x28d
 1715 09da A7090000 		.4byte	0x9a7
 1716 09de 01       		.byte	0x1
 1717 09df 01       		.byte	0x1
 1718 09e0 04       		.uleb128 0x4
 1719 09e1 CA020000 		.4byte	.LASF131
 1720 09e5 08       		.byte	0x8
 1721 09e6 18       		.byte	0x18
 1722 09e7 4C000000 		.4byte	0x4c
 1723 09eb 0F       		.uleb128 0xf
 1724 09ec E0090000 		.4byte	0x9e0
 1725 09f0 04       		.uleb128 0x4
 1726 09f1 80090000 		.4byte	.LASF132
 1727 09f5 08       		.byte	0x8
 1728 09f6 24       		.byte	0x24
 1729 09f7 65000000 		.4byte	0x65
 1730 09fb 04       		.uleb128 0x4
 1731 09fc 330D0000 		.4byte	.LASF133
ARM GAS  C:\Users\EBANO_~1\AppData\Local\Temp\cca8j2GX.s 			page 35


 1732 0a00 08       		.byte	0x8
 1733 0a01 30       		.byte	0x30
 1734 0a02 7E000000 		.4byte	0x7e
 1735 0a06 21       		.uleb128 0x21
 1736 0a07 FB090000 		.4byte	0x9fb
 1737 0a0b 22       		.uleb128 0x22
 1738 0a0c 05       		.byte	0x5
 1739 0a0d 01       		.byte	0x1
 1740 0a0e 45000000 		.4byte	0x45
 1741 0a12 09       		.byte	0x9
 1742 0a13 57       		.byte	0x57
 1743 0a14 EB0A0000 		.4byte	0xaeb
 1744 0a18 1F       		.uleb128 0x1f
 1745 0a19 C3050000 		.4byte	.LASF134
 1746 0a1d 72       		.sleb128 -14
 1747 0a1e 1F       		.uleb128 0x1f
 1748 0a1f 1D010000 		.4byte	.LASF135
 1749 0a23 73       		.sleb128 -13
 1750 0a24 1F       		.uleb128 0x1f
 1751 0a25 7A000000 		.4byte	.LASF136
 1752 0a29 7B       		.sleb128 -5
 1753 0a2a 1F       		.uleb128 0x1f
 1754 0a2b AE0D0000 		.4byte	.LASF137
 1755 0a2f 7E       		.sleb128 -2
 1756 0a30 1F       		.uleb128 0x1f
 1757 0a31 8C020000 		.4byte	.LASF138
 1758 0a35 7F       		.sleb128 -1
 1759 0a36 20       		.uleb128 0x20
 1760 0a37 ED050000 		.4byte	.LASF139
 1761 0a3b 00       		.byte	0
 1762 0a3c 20       		.uleb128 0x20
 1763 0a3d 9C0A0000 		.4byte	.LASF140
 1764 0a41 01       		.byte	0x1
 1765 0a42 20       		.uleb128 0x20
 1766 0a43 660E0000 		.4byte	.LASF141
 1767 0a47 02       		.byte	0x2
 1768 0a48 20       		.uleb128 0x20
 1769 0a49 F3000000 		.4byte	.LASF142
 1770 0a4d 03       		.byte	0x3
 1771 0a4e 20       		.uleb128 0x20
 1772 0a4f 83000000 		.4byte	.LASF143
 1773 0a53 04       		.byte	0x4
 1774 0a54 20       		.uleb128 0x20
 1775 0a55 44010000 		.4byte	.LASF144
 1776 0a59 05       		.byte	0x5
 1777 0a5a 20       		.uleb128 0x20
 1778 0a5b 440D0000 		.4byte	.LASF145
 1779 0a5f 06       		.byte	0x6
 1780 0a60 20       		.uleb128 0x20
 1781 0a61 FB020000 		.4byte	.LASF146
 1782 0a65 07       		.byte	0x7
 1783 0a66 20       		.uleb128 0x20
 1784 0a67 C8070000 		.4byte	.LASF147
 1785 0a6b 08       		.byte	0x8
 1786 0a6c 20       		.uleb128 0x20
 1787 0a6d 9C030000 		.4byte	.LASF148
 1788 0a71 09       		.byte	0x9
ARM GAS  C:\Users\EBANO_~1\AppData\Local\Temp\cca8j2GX.s 			page 36


 1789 0a72 20       		.uleb128 0x20
 1790 0a73 4A080000 		.4byte	.LASF149
 1791 0a77 0A       		.byte	0xa
 1792 0a78 20       		.uleb128 0x20
 1793 0a79 A7090000 		.4byte	.LASF150
 1794 0a7d 0B       		.byte	0xb
 1795 0a7e 20       		.uleb128 0x20
 1796 0a7f 7D0B0000 		.4byte	.LASF151
 1797 0a83 0C       		.byte	0xc
 1798 0a84 20       		.uleb128 0x20
 1799 0a85 B5030000 		.4byte	.LASF152
 1800 0a89 0D       		.byte	0xd
 1801 0a8a 20       		.uleb128 0x20
 1802 0a8b C00C0000 		.4byte	.LASF153
 1803 0a8f 0E       		.byte	0xe
 1804 0a90 20       		.uleb128 0x20
 1805 0a91 57010000 		.4byte	.LASF154
 1806 0a95 0F       		.byte	0xf
 1807 0a96 20       		.uleb128 0x20
 1808 0a97 C8090000 		.4byte	.LASF155
 1809 0a9b 10       		.byte	0x10
 1810 0a9c 20       		.uleb128 0x20
 1811 0a9d 0E080000 		.4byte	.LASF156
 1812 0aa1 11       		.byte	0x11
 1813 0aa2 20       		.uleb128 0x20
 1814 0aa3 17070000 		.4byte	.LASF157
 1815 0aa7 12       		.byte	0x12
 1816 0aa8 20       		.uleb128 0x20
 1817 0aa9 1C0B0000 		.4byte	.LASF158
 1818 0aad 14       		.byte	0x14
 1819 0aae 20       		.uleb128 0x20
 1820 0aaf 4A020000 		.4byte	.LASF159
 1821 0ab3 15       		.byte	0x15
 1822 0ab4 20       		.uleb128 0x20
 1823 0ab5 230E0000 		.4byte	.LASF160
 1824 0ab9 16       		.byte	0x16
 1825 0aba 20       		.uleb128 0x20
 1826 0abb BA080000 		.4byte	.LASF161
 1827 0abf 17       		.byte	0x17
 1828 0ac0 20       		.uleb128 0x20
 1829 0ac1 28030000 		.4byte	.LASF162
 1830 0ac5 18       		.byte	0x18
 1831 0ac6 20       		.uleb128 0x20
 1832 0ac7 66070000 		.4byte	.LASF163
 1833 0acb 19       		.byte	0x19
 1834 0acc 20       		.uleb128 0x20
 1835 0acd A5010000 		.4byte	.LASF164
 1836 0ad1 1A       		.byte	0x1a
 1837 0ad2 20       		.uleb128 0x20
 1838 0ad3 E4090000 		.4byte	.LASF165
 1839 0ad7 1B       		.byte	0x1b
 1840 0ad8 20       		.uleb128 0x20
 1841 0ad9 C1040000 		.4byte	.LASF166
 1842 0add 1C       		.byte	0x1c
 1843 0ade 20       		.uleb128 0x20
 1844 0adf 47000000 		.4byte	.LASF167
 1845 0ae3 1D       		.byte	0x1d
ARM GAS  C:\Users\EBANO_~1\AppData\Local\Temp\cca8j2GX.s 			page 37


 1846 0ae4 20       		.uleb128 0x20
 1847 0ae5 32030000 		.4byte	.LASF168
 1848 0ae9 1F       		.byte	0x1f
 1849 0aea 00       		.byte	0
 1850 0aeb 04       		.uleb128 0x4
 1851 0aec 5D060000 		.4byte	.LASF169
 1852 0af0 09       		.byte	0x9
 1853 0af1 7E       		.byte	0x7e
 1854 0af2 0B0A0000 		.4byte	0xa0b
 1855 0af6 23       		.uleb128 0x23
 1856 0af7 42060000 		.4byte	.LASF170
 1857 0afb 0A       		.byte	0xa
 1858 0afc 4A       		.byte	0x4a
 1859 0afd FB090000 		.4byte	0x9fb
 1860 0b01 01       		.byte	0x1
 1861 0b02 01       		.byte	0x1
 1862 0b03 0A       		.uleb128 0xa
 1863 0b04 EB090000 		.4byte	0x9eb
 1864 0b08 130B0000 		.4byte	0xb13
 1865 0b0c 0B       		.uleb128 0xb
 1866 0b0d 30000000 		.4byte	0x30
 1867 0b11 0F       		.byte	0xf
 1868 0b12 00       		.byte	0
 1869 0b13 0F       		.uleb128 0xf
 1870 0b14 030B0000 		.4byte	0xb03
 1871 0b18 23       		.uleb128 0x23
 1872 0b19 36090000 		.4byte	.LASF171
 1873 0b1d 0A       		.byte	0xa
 1874 0b1e 4D       		.byte	0x4d
 1875 0b1f 130B0000 		.4byte	0xb13
 1876 0b23 01       		.byte	0x1
 1877 0b24 01       		.byte	0x1
 1878 0b25 0A       		.uleb128 0xa
 1879 0b26 EB090000 		.4byte	0x9eb
 1880 0b2a 350B0000 		.4byte	0xb35
 1881 0b2e 0B       		.uleb128 0xb
 1882 0b2f 30000000 		.4byte	0x30
 1883 0b33 07       		.byte	0x7
 1884 0b34 00       		.byte	0
 1885 0b35 0F       		.uleb128 0xf
 1886 0b36 250B0000 		.4byte	0xb25
 1887 0b3a 23       		.uleb128 0x23
 1888 0b3b 630B0000 		.4byte	.LASF172
 1889 0b3f 0A       		.byte	0xa
 1890 0b40 4E       		.byte	0x4e
 1891 0b41 350B0000 		.4byte	0xb35
 1892 0b45 01       		.byte	0x1
 1893 0b46 01       		.byte	0x1
 1894 0b47 0A       		.uleb128 0xa
 1895 0b48 EB090000 		.4byte	0x9eb
 1896 0b4c 570B0000 		.4byte	0xb57
 1897 0b50 0B       		.uleb128 0xb
 1898 0b51 30000000 		.4byte	0x30
 1899 0b55 08       		.byte	0x8
 1900 0b56 00       		.byte	0
 1901 0b57 0F       		.uleb128 0xf
 1902 0b58 470B0000 		.4byte	0xb47
ARM GAS  C:\Users\EBANO_~1\AppData\Local\Temp\cca8j2GX.s 			page 38


 1903 0b5c 23       		.uleb128 0x23
 1904 0b5d 9E050000 		.4byte	.LASF173
 1905 0b61 0A       		.byte	0xa
 1906 0b62 4F       		.byte	0x4f
 1907 0b63 570B0000 		.4byte	0xb57
 1908 0b67 01       		.byte	0x1
 1909 0b68 01       		.byte	0x1
 1910 0b69 19       		.uleb128 0x19
 1911 0b6a 84       		.byte	0x84
 1912 0b6b 09       		.byte	0x9
 1913 0b6c 1E01     		.2byte	0x11e
 1914 0b6e 180C0000 		.4byte	0xc18
 1915 0b72 24       		.uleb128 0x24
 1916 0b73 41435200 		.ascii	"ACR\000"
 1917 0b77 09       		.byte	0x9
 1918 0b78 2001     		.2byte	0x120
 1919 0b7a 060A0000 		.4byte	0xa06
 1920 0b7e 02       		.byte	0x2
 1921 0b7f 23       		.byte	0x23
 1922 0b80 00       		.uleb128 0
 1923 0b81 17       		.uleb128 0x17
 1924 0b82 A8080000 		.4byte	.LASF174
 1925 0b86 09       		.byte	0x9
 1926 0b87 2101     		.2byte	0x121
 1927 0b89 060A0000 		.4byte	0xa06
 1928 0b8d 02       		.byte	0x2
 1929 0b8e 23       		.byte	0x23
 1930 0b8f 04       		.uleb128 0x4
 1931 0b90 17       		.uleb128 0x17
 1932 0b91 21030000 		.4byte	.LASF175
 1933 0b95 09       		.byte	0x9
 1934 0b96 2201     		.2byte	0x122
 1935 0b98 060A0000 		.4byte	0xa06
 1936 0b9c 02       		.byte	0x2
 1937 0b9d 23       		.byte	0x23
 1938 0b9e 08       		.uleb128 0x8
 1939 0b9f 17       		.uleb128 0x17
 1940 0ba0 04010000 		.4byte	.LASF176
 1941 0ba4 09       		.byte	0x9
 1942 0ba5 2301     		.2byte	0x123
 1943 0ba7 060A0000 		.4byte	0xa06
 1944 0bab 02       		.byte	0x2
 1945 0bac 23       		.byte	0x23
 1946 0bad 0C       		.uleb128 0xc
 1947 0bae 17       		.uleb128 0x17
 1948 0baf 3F000000 		.4byte	.LASF177
 1949 0bb3 09       		.byte	0x9
 1950 0bb4 2401     		.2byte	0x124
 1951 0bb6 060A0000 		.4byte	0xa06
 1952 0bba 02       		.byte	0x2
 1953 0bbb 23       		.byte	0x23
 1954 0bbc 10       		.uleb128 0x10
 1955 0bbd 17       		.uleb128 0x17
 1956 0bbe BB050000 		.4byte	.LASF178
 1957 0bc2 09       		.byte	0x9
 1958 0bc3 2501     		.2byte	0x125
 1959 0bc5 060A0000 		.4byte	0xa06
ARM GAS  C:\Users\EBANO_~1\AppData\Local\Temp\cca8j2GX.s 			page 39


 1960 0bc9 02       		.byte	0x2
 1961 0bca 23       		.byte	0x23
 1962 0bcb 14       		.uleb128 0x14
 1963 0bcc 24       		.uleb128 0x24
 1964 0bcd 535200   		.ascii	"SR\000"
 1965 0bd0 09       		.byte	0x9
 1966 0bd1 2601     		.2byte	0x126
 1967 0bd3 060A0000 		.4byte	0xa06
 1968 0bd7 02       		.byte	0x2
 1969 0bd8 23       		.byte	0x23
 1970 0bd9 18       		.uleb128 0x18
 1971 0bda 17       		.uleb128 0x17
 1972 0bdb 010D0000 		.4byte	.LASF179
 1973 0bdf 09       		.byte	0x9
 1974 0be0 2701     		.2byte	0x127
 1975 0be2 060A0000 		.4byte	0xa06
 1976 0be6 02       		.byte	0x2
 1977 0be7 23       		.byte	0x23
 1978 0be8 1C       		.uleb128 0x1c
 1979 0be9 17       		.uleb128 0x17
 1980 0bea 99020000 		.4byte	.LASF180
 1981 0bee 09       		.byte	0x9
 1982 0bef 2801     		.2byte	0x128
 1983 0bf1 060A0000 		.4byte	0xa06
 1984 0bf5 02       		.byte	0x2
 1985 0bf6 23       		.byte	0x23
 1986 0bf7 20       		.uleb128 0x20
 1987 0bf8 17       		.uleb128 0x17
 1988 0bf9 09030000 		.4byte	.LASF181
 1989 0bfd 09       		.byte	0x9
 1990 0bfe 2901     		.2byte	0x129
 1991 0c00 280C0000 		.4byte	0xc28
 1992 0c04 02       		.byte	0x2
 1993 0c05 23       		.byte	0x23
 1994 0c06 24       		.uleb128 0x24
 1995 0c07 17       		.uleb128 0x17
 1996 0c08 F9040000 		.4byte	.LASF182
 1997 0c0c 09       		.byte	0x9
 1998 0c0d 2A01     		.2byte	0x12a
 1999 0c0f 060A0000 		.4byte	0xa06
 2000 0c13 03       		.byte	0x3
 2001 0c14 23       		.byte	0x23
 2002 0c15 8001     		.uleb128 0x80
 2003 0c17 00       		.byte	0
 2004 0c18 0A       		.uleb128 0xa
 2005 0c19 060A0000 		.4byte	0xa06
 2006 0c1d 280C0000 		.4byte	0xc28
 2007 0c21 0B       		.uleb128 0xb
 2008 0c22 30000000 		.4byte	0x30
 2009 0c26 16       		.byte	0x16
 2010 0c27 00       		.byte	0
 2011 0c28 21       		.uleb128 0x21
 2012 0c29 180C0000 		.4byte	0xc18
 2013 0c2d 07       		.uleb128 0x7
 2014 0c2e 060D0000 		.4byte	.LASF183
 2015 0c32 09       		.byte	0x9
 2016 0c33 2B01     		.2byte	0x12b
ARM GAS  C:\Users\EBANO_~1\AppData\Local\Temp\cca8j2GX.s 			page 40


 2017 0c35 690B0000 		.4byte	0xb69
 2018 0c39 19       		.uleb128 0x19
 2019 0c3a 54       		.byte	0x54
 2020 0c3b 09       		.byte	0x9
 2021 0c3c A801     		.2byte	0x1a8
 2022 0c3e 7D0D0000 		.4byte	0xd7d
 2023 0c42 24       		.uleb128 0x24
 2024 0c43 435200   		.ascii	"CR\000"
 2025 0c46 09       		.byte	0x9
 2026 0c47 AA01     		.2byte	0x1aa
 2027 0c49 060A0000 		.4byte	0xa06
 2028 0c4d 02       		.byte	0x2
 2029 0c4e 23       		.byte	0x23
 2030 0c4f 00       		.uleb128 0
 2031 0c50 17       		.uleb128 0x17
 2032 0c51 FE000000 		.4byte	.LASF184
 2033 0c55 09       		.byte	0x9
 2034 0c56 AB01     		.2byte	0x1ab
 2035 0c58 060A0000 		.4byte	0xa06
 2036 0c5c 02       		.byte	0x2
 2037 0c5d 23       		.byte	0x23
 2038 0c5e 04       		.uleb128 0x4
 2039 0c5f 17       		.uleb128 0x17
 2040 0c60 7A050000 		.4byte	.LASF185
 2041 0c64 09       		.byte	0x9
 2042 0c65 AC01     		.2byte	0x1ac
 2043 0c67 060A0000 		.4byte	0xa06
 2044 0c6b 02       		.byte	0x2
 2045 0c6c 23       		.byte	0x23
 2046 0c6d 08       		.uleb128 0x8
 2047 0c6e 17       		.uleb128 0x17
 2048 0c6f 91050000 		.4byte	.LASF186
 2049 0c73 09       		.byte	0x9
 2050 0c74 AD01     		.2byte	0x1ad
 2051 0c76 060A0000 		.4byte	0xa06
 2052 0c7a 02       		.byte	0x2
 2053 0c7b 23       		.byte	0x23
 2054 0c7c 0C       		.uleb128 0xc
 2055 0c7d 17       		.uleb128 0x17
 2056 0c7e 510D0000 		.4byte	.LASF187
 2057 0c82 09       		.byte	0x9
 2058 0c83 AE01     		.2byte	0x1ae
 2059 0c85 060A0000 		.4byte	0xa06
 2060 0c89 02       		.byte	0x2
 2061 0c8a 23       		.byte	0x23
 2062 0c8b 10       		.uleb128 0x10
 2063 0c8c 17       		.uleb128 0x17
 2064 0c8d DA0D0000 		.4byte	.LASF188
 2065 0c91 09       		.byte	0x9
 2066 0c92 AF01     		.2byte	0x1af
 2067 0c94 060A0000 		.4byte	0xa06
 2068 0c98 02       		.byte	0x2
 2069 0c99 23       		.byte	0x23
 2070 0c9a 14       		.uleb128 0x14
 2071 0c9b 17       		.uleb128 0x17
 2072 0c9c A80C0000 		.4byte	.LASF189
 2073 0ca0 09       		.byte	0x9
ARM GAS  C:\Users\EBANO_~1\AppData\Local\Temp\cca8j2GX.s 			page 41


 2074 0ca1 B001     		.2byte	0x1b0
 2075 0ca3 060A0000 		.4byte	0xa06
 2076 0ca7 02       		.byte	0x2
 2077 0ca8 23       		.byte	0x23
 2078 0ca9 18       		.uleb128 0x18
 2079 0caa 17       		.uleb128 0x17
 2080 0cab 380E0000 		.4byte	.LASF190
 2081 0caf 09       		.byte	0x9
 2082 0cb0 B101     		.2byte	0x1b1
 2083 0cb2 060A0000 		.4byte	0xa06
 2084 0cb6 02       		.byte	0x2
 2085 0cb7 23       		.byte	0x23
 2086 0cb8 1C       		.uleb128 0x1c
 2087 0cb9 17       		.uleb128 0x17
 2088 0cba C3060000 		.4byte	.LASF191
 2089 0cbe 09       		.byte	0x9
 2090 0cbf B201     		.2byte	0x1b2
 2091 0cc1 060A0000 		.4byte	0xa06
 2092 0cc5 02       		.byte	0x2
 2093 0cc6 23       		.byte	0x23
 2094 0cc7 20       		.uleb128 0x20
 2095 0cc8 17       		.uleb128 0x17
 2096 0cc9 97070000 		.4byte	.LASF192
 2097 0ccd 09       		.byte	0x9
 2098 0cce B301     		.2byte	0x1b3
 2099 0cd0 060A0000 		.4byte	0xa06
 2100 0cd4 02       		.byte	0x2
 2101 0cd5 23       		.byte	0x23
 2102 0cd6 24       		.uleb128 0x24
 2103 0cd7 17       		.uleb128 0x17
 2104 0cd8 20090000 		.4byte	.LASF193
 2105 0cdc 09       		.byte	0x9
 2106 0cdd B401     		.2byte	0x1b4
 2107 0cdf 060A0000 		.4byte	0xa06
 2108 0ce3 02       		.byte	0x2
 2109 0ce4 23       		.byte	0x23
 2110 0ce5 28       		.uleb128 0x28
 2111 0ce6 17       		.uleb128 0x17
 2112 0ce7 590A0000 		.4byte	.LASF194
 2113 0ceb 09       		.byte	0x9
 2114 0cec B501     		.2byte	0x1b5
 2115 0cee 060A0000 		.4byte	0xa06
 2116 0cf2 02       		.byte	0x2
 2117 0cf3 23       		.byte	0x23
 2118 0cf4 2C       		.uleb128 0x2c
 2119 0cf5 17       		.uleb128 0x17
 2120 0cf6 8D0C0000 		.4byte	.LASF195
 2121 0cfa 09       		.byte	0x9
 2122 0cfb B601     		.2byte	0x1b6
 2123 0cfd 060A0000 		.4byte	0xa06
 2124 0d01 02       		.byte	0x2
 2125 0d02 23       		.byte	0x23
 2126 0d03 30       		.uleb128 0x30
 2127 0d04 17       		.uleb128 0x17
 2128 0d05 71020000 		.4byte	.LASF196
 2129 0d09 09       		.byte	0x9
 2130 0d0a B701     		.2byte	0x1b7
ARM GAS  C:\Users\EBANO_~1\AppData\Local\Temp\cca8j2GX.s 			page 42


 2131 0d0c 060A0000 		.4byte	0xa06
 2132 0d10 02       		.byte	0x2
 2133 0d11 23       		.byte	0x23
 2134 0d12 34       		.uleb128 0x34
 2135 0d13 17       		.uleb128 0x17
 2136 0d14 0E060000 		.4byte	.LASF197
 2137 0d18 09       		.byte	0x9
 2138 0d19 B801     		.2byte	0x1b8
 2139 0d1b 060A0000 		.4byte	0xa06
 2140 0d1f 02       		.byte	0x2
 2141 0d20 23       		.byte	0x23
 2142 0d21 38       		.uleb128 0x38
 2143 0d22 17       		.uleb128 0x17
 2144 0d23 CC010000 		.4byte	.LASF198
 2145 0d27 09       		.byte	0x9
 2146 0d28 B901     		.2byte	0x1b9
 2147 0d2a 060A0000 		.4byte	0xa06
 2148 0d2e 02       		.byte	0x2
 2149 0d2f 23       		.byte	0x23
 2150 0d30 3C       		.uleb128 0x3c
 2151 0d31 17       		.uleb128 0x17
 2152 0d32 C3010000 		.4byte	.LASF199
 2153 0d36 09       		.byte	0x9
 2154 0d37 BA01     		.2byte	0x1ba
 2155 0d39 060A0000 		.4byte	0xa06
 2156 0d3d 02       		.byte	0x2
 2157 0d3e 23       		.byte	0x23
 2158 0d3f 40       		.uleb128 0x40
 2159 0d40 17       		.uleb128 0x17
 2160 0d41 A40D0000 		.4byte	.LASF200
 2161 0d45 09       		.byte	0x9
 2162 0d46 BB01     		.2byte	0x1bb
 2163 0d48 060A0000 		.4byte	0xa06
 2164 0d4c 02       		.byte	0x2
 2165 0d4d 23       		.byte	0x23
 2166 0d4e 44       		.uleb128 0x44
 2167 0d4f 17       		.uleb128 0x17
 2168 0d50 00000000 		.4byte	.LASF201
 2169 0d54 09       		.byte	0x9
 2170 0d55 BC01     		.2byte	0x1bc
 2171 0d57 060A0000 		.4byte	0xa06
 2172 0d5b 02       		.byte	0x2
 2173 0d5c 23       		.byte	0x23
 2174 0d5d 48       		.uleb128 0x48
 2175 0d5e 17       		.uleb128 0x17
 2176 0d5f D7050000 		.4byte	.LASF202
 2177 0d63 09       		.byte	0x9
 2178 0d64 BD01     		.2byte	0x1bd
 2179 0d66 060A0000 		.4byte	0xa06
 2180 0d6a 02       		.byte	0x2
 2181 0d6b 23       		.byte	0x23
 2182 0d6c 4C       		.uleb128 0x4c
 2183 0d6d 24       		.uleb128 0x24
 2184 0d6e 43535200 		.ascii	"CSR\000"
 2185 0d72 09       		.byte	0x9
 2186 0d73 BE01     		.2byte	0x1be
 2187 0d75 060A0000 		.4byte	0xa06
ARM GAS  C:\Users\EBANO_~1\AppData\Local\Temp\cca8j2GX.s 			page 43


 2188 0d79 02       		.byte	0x2
 2189 0d7a 23       		.byte	0x23
 2190 0d7b 50       		.uleb128 0x50
 2191 0d7c 00       		.byte	0
 2192 0d7d 07       		.uleb128 0x7
 2193 0d7e 710B0000 		.4byte	.LASF203
 2194 0d82 09       		.byte	0x9
 2195 0d83 BF01     		.2byte	0x1bf
 2196 0d85 390C0000 		.4byte	0xc39
 2197 0d89 19       		.uleb128 0x19
 2198 0d8a 64       		.byte	0x64
 2199 0d8b 09       		.byte	0x9
 2200 0d8c CE01     		.2byte	0x1ce
 2201 0d8e 060F0000 		.4byte	0xf06
 2202 0d92 24       		.uleb128 0x24
 2203 0d93 545200   		.ascii	"TR\000"
 2204 0d96 09       		.byte	0x9
 2205 0d97 D001     		.2byte	0x1d0
 2206 0d99 060A0000 		.4byte	0xa06
 2207 0d9d 02       		.byte	0x2
 2208 0d9e 23       		.byte	0x23
 2209 0d9f 00       		.uleb128 0
 2210 0da0 24       		.uleb128 0x24
 2211 0da1 445200   		.ascii	"DR\000"
 2212 0da4 09       		.byte	0x9
 2213 0da5 D101     		.2byte	0x1d1
 2214 0da7 060A0000 		.4byte	0xa06
 2215 0dab 02       		.byte	0x2
 2216 0dac 23       		.byte	0x23
 2217 0dad 04       		.uleb128 0x4
 2218 0dae 24       		.uleb128 0x24
 2219 0daf 435200   		.ascii	"CR\000"
 2220 0db2 09       		.byte	0x9
 2221 0db3 D201     		.2byte	0x1d2
 2222 0db5 060A0000 		.4byte	0xa06
 2223 0db9 02       		.byte	0x2
 2224 0dba 23       		.byte	0x23
 2225 0dbb 08       		.uleb128 0x8
 2226 0dbc 24       		.uleb128 0x24
 2227 0dbd 49535200 		.ascii	"ISR\000"
 2228 0dc1 09       		.byte	0x9
 2229 0dc2 D301     		.2byte	0x1d3
 2230 0dc4 060A0000 		.4byte	0xa06
 2231 0dc8 02       		.byte	0x2
 2232 0dc9 23       		.byte	0x23
 2233 0dca 0C       		.uleb128 0xc
 2234 0dcb 17       		.uleb128 0x17
 2235 0dcc 81040000 		.4byte	.LASF204
 2236 0dd0 09       		.byte	0x9
 2237 0dd1 D401     		.2byte	0x1d4
 2238 0dd3 060A0000 		.4byte	0xa06
 2239 0dd7 02       		.byte	0x2
 2240 0dd8 23       		.byte	0x23
 2241 0dd9 10       		.uleb128 0x10
 2242 0dda 17       		.uleb128 0x17
 2243 0ddb 960D0000 		.4byte	.LASF205
 2244 0ddf 09       		.byte	0x9
ARM GAS  C:\Users\EBANO_~1\AppData\Local\Temp\cca8j2GX.s 			page 44


 2245 0de0 D501     		.2byte	0x1d5
 2246 0de2 060A0000 		.4byte	0xa06
 2247 0de6 02       		.byte	0x2
 2248 0de7 23       		.byte	0x23
 2249 0de8 14       		.uleb128 0x14
 2250 0de9 17       		.uleb128 0x17
 2251 0dea 22050000 		.4byte	.LASF206
 2252 0dee 09       		.byte	0x9
 2253 0def D601     		.2byte	0x1d6
 2254 0df1 FB090000 		.4byte	0x9fb
 2255 0df5 02       		.byte	0x2
 2256 0df6 23       		.byte	0x23
 2257 0df7 18       		.uleb128 0x18
 2258 0df8 17       		.uleb128 0x17
 2259 0df9 10070000 		.4byte	.LASF207
 2260 0dfd 09       		.byte	0x9
 2261 0dfe D701     		.2byte	0x1d7
 2262 0e00 060A0000 		.4byte	0xa06
 2263 0e04 02       		.byte	0x2
 2264 0e05 23       		.byte	0x23
 2265 0e06 1C       		.uleb128 0x1c
 2266 0e07 17       		.uleb128 0x17
 2267 0e08 A0070000 		.4byte	.LASF208
 2268 0e0c 09       		.byte	0x9
 2269 0e0d D801     		.2byte	0x1d8
 2270 0e0f 060A0000 		.4byte	0xa06
 2271 0e13 02       		.byte	0x2
 2272 0e14 23       		.byte	0x23
 2273 0e15 20       		.uleb128 0x20
 2274 0e16 24       		.uleb128 0x24
 2275 0e17 57505200 		.ascii	"WPR\000"
 2276 0e1b 09       		.byte	0x9
 2277 0e1c D901     		.2byte	0x1d9
 2278 0e1e 060A0000 		.4byte	0xa06
 2279 0e22 02       		.byte	0x2
 2280 0e23 23       		.byte	0x23
 2281 0e24 24       		.uleb128 0x24
 2282 0e25 24       		.uleb128 0x24
 2283 0e26 53535200 		.ascii	"SSR\000"
 2284 0e2a 09       		.byte	0x9
 2285 0e2b DA01     		.2byte	0x1da
 2286 0e2d 060A0000 		.4byte	0xa06
 2287 0e31 02       		.byte	0x2
 2288 0e32 23       		.byte	0x23
 2289 0e33 28       		.uleb128 0x28
 2290 0e34 17       		.uleb128 0x17
 2291 0e35 5C0B0000 		.4byte	.LASF209
 2292 0e39 09       		.byte	0x9
 2293 0e3a DB01     		.2byte	0x1db
 2294 0e3c 060A0000 		.4byte	0xa06
 2295 0e40 02       		.byte	0x2
 2296 0e41 23       		.byte	0x23
 2297 0e42 2C       		.uleb128 0x2c
 2298 0e43 17       		.uleb128 0x17
 2299 0e44 15000000 		.4byte	.LASF210
 2300 0e48 09       		.byte	0x9
 2301 0e49 DC01     		.2byte	0x1dc
ARM GAS  C:\Users\EBANO_~1\AppData\Local\Temp\cca8j2GX.s 			page 45


 2302 0e4b 060A0000 		.4byte	0xa06
 2303 0e4f 02       		.byte	0x2
 2304 0e50 23       		.byte	0x23
 2305 0e51 30       		.uleb128 0x30
 2306 0e52 17       		.uleb128 0x17
 2307 0e53 EC060000 		.4byte	.LASF211
 2308 0e57 09       		.byte	0x9
 2309 0e58 DD01     		.2byte	0x1dd
 2310 0e5a 060A0000 		.4byte	0xa06
 2311 0e5e 02       		.byte	0x2
 2312 0e5f 23       		.byte	0x23
 2313 0e60 34       		.uleb128 0x34
 2314 0e61 17       		.uleb128 0x17
 2315 0e62 0B0E0000 		.4byte	.LASF212
 2316 0e66 09       		.byte	0x9
 2317 0e67 DE01     		.2byte	0x1de
 2318 0e69 060A0000 		.4byte	0xa06
 2319 0e6d 02       		.byte	0x2
 2320 0e6e 23       		.byte	0x23
 2321 0e6f 38       		.uleb128 0x38
 2322 0e70 17       		.uleb128 0x17
 2323 0e71 BD070000 		.4byte	.LASF213
 2324 0e75 09       		.byte	0x9
 2325 0e76 DF01     		.2byte	0x1df
 2326 0e78 060A0000 		.4byte	0xa06
 2327 0e7c 02       		.byte	0x2
 2328 0e7d 23       		.byte	0x23
 2329 0e7e 3C       		.uleb128 0x3c
 2330 0e7f 17       		.uleb128 0x17
 2331 0e80 520E0000 		.4byte	.LASF214
 2332 0e84 09       		.byte	0x9
 2333 0e85 E001     		.2byte	0x1e0
 2334 0e87 060A0000 		.4byte	0xa06
 2335 0e8b 02       		.byte	0x2
 2336 0e8c 23       		.byte	0x23
 2337 0e8d 40       		.uleb128 0x40
 2338 0e8e 17       		.uleb128 0x17
 2339 0e8f 490E0000 		.4byte	.LASF215
 2340 0e93 09       		.byte	0x9
 2341 0e94 E101     		.2byte	0x1e1
 2342 0e96 060A0000 		.4byte	0xa06
 2343 0e9a 02       		.byte	0x2
 2344 0e9b 23       		.byte	0x23
 2345 0e9c 44       		.uleb128 0x44
 2346 0e9d 17       		.uleb128 0x17
 2347 0e9e F1060000 		.4byte	.LASF216
 2348 0ea2 09       		.byte	0x9
 2349 0ea3 E201     		.2byte	0x1e2
 2350 0ea5 060A0000 		.4byte	0xa06
 2351 0ea9 02       		.byte	0x2
 2352 0eaa 23       		.byte	0x23
 2353 0eab 48       		.uleb128 0x48
 2354 0eac 24       		.uleb128 0x24
 2355 0ead 4F5200   		.ascii	"OR\000"
 2356 0eb0 09       		.byte	0x9
 2357 0eb1 E301     		.2byte	0x1e3
 2358 0eb3 060A0000 		.4byte	0xa06
ARM GAS  C:\Users\EBANO_~1\AppData\Local\Temp\cca8j2GX.s 			page 46


 2359 0eb7 02       		.byte	0x2
 2360 0eb8 23       		.byte	0x23
 2361 0eb9 4C       		.uleb128 0x4c
 2362 0eba 17       		.uleb128 0x17
 2363 0ebb FD0D0000 		.4byte	.LASF217
 2364 0ebf 09       		.byte	0x9
 2365 0ec0 E401     		.2byte	0x1e4
 2366 0ec2 060A0000 		.4byte	0xa06
 2367 0ec6 02       		.byte	0x2
 2368 0ec7 23       		.byte	0x23
 2369 0ec8 50       		.uleb128 0x50
 2370 0ec9 17       		.uleb128 0x17
 2371 0eca 6F0E0000 		.4byte	.LASF218
 2372 0ece 09       		.byte	0x9
 2373 0ecf E501     		.2byte	0x1e5
 2374 0ed1 060A0000 		.4byte	0xa06
 2375 0ed5 02       		.byte	0x2
 2376 0ed6 23       		.byte	0x23
 2377 0ed7 54       		.uleb128 0x54
 2378 0ed8 17       		.uleb128 0x17
 2379 0ed9 58000000 		.4byte	.LASF219
 2380 0edd 09       		.byte	0x9
 2381 0ede E601     		.2byte	0x1e6
 2382 0ee0 060A0000 		.4byte	0xa06
 2383 0ee4 02       		.byte	0x2
 2384 0ee5 23       		.byte	0x23
 2385 0ee6 58       		.uleb128 0x58
 2386 0ee7 17       		.uleb128 0x17
 2387 0ee8 E3000000 		.4byte	.LASF220
 2388 0eec 09       		.byte	0x9
 2389 0eed E701     		.2byte	0x1e7
 2390 0eef 060A0000 		.4byte	0xa06
 2391 0ef3 02       		.byte	0x2
 2392 0ef4 23       		.byte	0x23
 2393 0ef5 5C       		.uleb128 0x5c
 2394 0ef6 17       		.uleb128 0x17
 2395 0ef7 61010000 		.4byte	.LASF221
 2396 0efb 09       		.byte	0x9
 2397 0efc E801     		.2byte	0x1e8
 2398 0efe 060A0000 		.4byte	0xa06
 2399 0f02 02       		.byte	0x2
 2400 0f03 23       		.byte	0x23
 2401 0f04 60       		.uleb128 0x60
 2402 0f05 00       		.byte	0
 2403 0f06 07       		.uleb128 0x7
 2404 0f07 16060000 		.4byte	.LASF222
 2405 0f0b 09       		.byte	0x9
 2406 0f0c E901     		.2byte	0x1e9
 2407 0f0e 890D0000 		.4byte	0xd89
 2408 0f12 22       		.uleb128 0x22
 2409 0f13 07       		.byte	0x7
 2410 0f14 01       		.byte	0x1
 2411 0f15 57000000 		.4byte	0x57
 2412 0f19 0B       		.byte	0xb
 2413 0f1a 38       		.byte	0x38
 2414 0f1b 380F0000 		.4byte	0xf38
 2415 0f1f 20       		.uleb128 0x20
ARM GAS  C:\Users\EBANO_~1\AppData\Local\Temp\cca8j2GX.s 			page 47


 2416 0f20 EB020000 		.4byte	.LASF223
 2417 0f24 00       		.byte	0
 2418 0f25 20       		.uleb128 0x20
 2419 0f26 D2090000 		.4byte	.LASF224
 2420 0f2a 01       		.byte	0x1
 2421 0f2b 20       		.uleb128 0x20
 2422 0f2c 10090000 		.4byte	.LASF225
 2423 0f30 02       		.byte	0x2
 2424 0f31 20       		.uleb128 0x20
 2425 0f32 6D0D0000 		.4byte	.LASF226
 2426 0f36 03       		.byte	0x3
 2427 0f37 00       		.byte	0
 2428 0f38 04       		.uleb128 0x4
 2429 0f39 27000000 		.4byte	.LASF227
 2430 0f3d 0B       		.byte	0xb
 2431 0f3e 3D       		.byte	0x3d
 2432 0f3f 120F0000 		.4byte	0xf12
 2433 0f43 22       		.uleb128 0x22
 2434 0f44 07       		.byte	0x7
 2435 0f45 01       		.byte	0x1
 2436 0f46 57000000 		.4byte	0x57
 2437 0f4a 0B       		.byte	0xb
 2438 0f4b 43       		.byte	0x43
 2439 0f4c 5D0F0000 		.4byte	0xf5d
 2440 0f50 20       		.uleb128 0x20
 2441 0f51 1A0A0000 		.4byte	.LASF228
 2442 0f55 00       		.byte	0
 2443 0f56 20       		.uleb128 0x20
 2444 0f57 5D0D0000 		.4byte	.LASF229
 2445 0f5b 01       		.byte	0x1
 2446 0f5c 00       		.byte	0
 2447 0f5d 04       		.uleb128 0x4
 2448 0f5e 67060000 		.4byte	.LASF230
 2449 0f62 0B       		.byte	0xb
 2450 0f63 46       		.byte	0x46
 2451 0f64 430F0000 		.4byte	0xf43
 2452 0f68 0C       		.uleb128 0xc
 2453 0f69 10       		.byte	0x10
 2454 0f6a 0C       		.byte	0xc
 2455 0f6b EC       		.byte	0xec
 2456 0f6c A90F0000 		.4byte	0xfa9
 2457 0f70 0D       		.uleb128 0xd
 2458 0f71 9B0D0000 		.4byte	.LASF231
 2459 0f75 0C       		.byte	0xc
 2460 0f76 EE       		.byte	0xee
 2461 0f77 FB090000 		.4byte	0x9fb
 2462 0f7b 02       		.byte	0x2
 2463 0f7c 23       		.byte	0x23
 2464 0f7d 00       		.uleb128 0
 2465 0f7e 0D       		.uleb128 0xd
 2466 0f7f E9000000 		.4byte	.LASF232
 2467 0f83 0C       		.byte	0xc
 2468 0f84 F1       		.byte	0xf1
 2469 0f85 FB090000 		.4byte	0x9fb
 2470 0f89 02       		.byte	0x2
 2471 0f8a 23       		.byte	0x23
 2472 0f8b 04       		.uleb128 0x4
ARM GAS  C:\Users\EBANO_~1\AppData\Local\Temp\cca8j2GX.s 			page 48


 2473 0f8c 0D       		.uleb128 0xd
 2474 0f8d 1C0E0000 		.4byte	.LASF233
 2475 0f91 0C       		.byte	0xc
 2476 0f92 F4       		.byte	0xf4
 2477 0f93 FB090000 		.4byte	0x9fb
 2478 0f97 02       		.byte	0x2
 2479 0f98 23       		.byte	0x23
 2480 0f99 08       		.uleb128 0x8
 2481 0f9a 0D       		.uleb128 0xd
 2482 0f9b CC0A0000 		.4byte	.LASF234
 2483 0f9f 0C       		.byte	0xc
 2484 0fa0 F7       		.byte	0xf7
 2485 0fa1 FB090000 		.4byte	0x9fb
 2486 0fa5 02       		.byte	0x2
 2487 0fa6 23       		.byte	0x23
 2488 0fa7 0C       		.uleb128 0xc
 2489 0fa8 00       		.byte	0
 2490 0fa9 04       		.uleb128 0x4
 2491 0faa F6090000 		.4byte	.LASF235
 2492 0fae 0C       		.byte	0xc
 2493 0faf F9       		.byte	0xf9
 2494 0fb0 680F0000 		.4byte	0xf68
 2495 0fb4 0C       		.uleb128 0xc
 2496 0fb5 38       		.byte	0x38
 2497 0fb6 0C       		.byte	0xc
 2498 0fb7 FE       		.byte	0xfe
 2499 0fb8 62100000 		.4byte	0x1062
 2500 0fbc 17       		.uleb128 0x17
 2501 0fbd CB0D0000 		.4byte	.LASF236
 2502 0fc1 0C       		.byte	0xc
 2503 0fc2 0001     		.2byte	0x100
 2504 0fc4 FB090000 		.4byte	0x9fb
 2505 0fc8 02       		.byte	0x2
 2506 0fc9 23       		.byte	0x23
 2507 0fca 00       		.uleb128 0
 2508 0fcb 17       		.uleb128 0x17
 2509 0fcc DB040000 		.4byte	.LASF237
 2510 0fd0 0C       		.byte	0xc
 2511 0fd1 0301     		.2byte	0x103
 2512 0fd3 FB090000 		.4byte	0x9fb
 2513 0fd7 02       		.byte	0x2
 2514 0fd8 23       		.byte	0x23
 2515 0fd9 04       		.uleb128 0x4
 2516 0fda 17       		.uleb128 0x17
 2517 0fdb 7B010000 		.4byte	.LASF238
 2518 0fdf 0C       		.byte	0xc
 2519 0fe0 0601     		.2byte	0x106
 2520 0fe2 FB090000 		.4byte	0x9fb
 2521 0fe6 02       		.byte	0x2
 2522 0fe7 23       		.byte	0x23
 2523 0fe8 08       		.uleb128 0x8
 2524 0fe9 17       		.uleb128 0x17
 2525 0fea FF040000 		.4byte	.LASF239
 2526 0fee 0C       		.byte	0xc
 2527 0fef 0901     		.2byte	0x109
 2528 0ff1 FB090000 		.4byte	0x9fb
 2529 0ff5 02       		.byte	0x2
ARM GAS  C:\Users\EBANO_~1\AppData\Local\Temp\cca8j2GX.s 			page 49


 2530 0ff6 23       		.byte	0x23
 2531 0ff7 0C       		.uleb128 0xc
 2532 0ff8 17       		.uleb128 0x17
 2533 0ff9 B20A0000 		.4byte	.LASF240
 2534 0ffd 0C       		.byte	0xc
 2535 0ffe 0C01     		.2byte	0x10c
 2536 1000 FB090000 		.4byte	0x9fb
 2537 1004 02       		.byte	0x2
 2538 1005 23       		.byte	0x23
 2539 1006 10       		.uleb128 0x10
 2540 1007 17       		.uleb128 0x17
 2541 1008 F2020000 		.4byte	.LASF241
 2542 100c 0C       		.byte	0xc
 2543 100d 0F01     		.2byte	0x10f
 2544 100f FB090000 		.4byte	0x9fb
 2545 1013 02       		.byte	0x2
 2546 1014 23       		.byte	0x23
 2547 1015 14       		.uleb128 0x14
 2548 1016 17       		.uleb128 0x17
 2549 1017 52060000 		.4byte	.LASF242
 2550 101b 0C       		.byte	0xc
 2551 101c 1301     		.2byte	0x113
 2552 101e FB090000 		.4byte	0x9fb
 2553 1022 02       		.byte	0x2
 2554 1023 23       		.byte	0x23
 2555 1024 18       		.uleb128 0x18
 2556 1025 17       		.uleb128 0x17
 2557 1026 9F0C0000 		.4byte	.LASF243
 2558 102a 0C       		.byte	0xc
 2559 102b 1701     		.2byte	0x117
 2560 102d FB090000 		.4byte	0x9fb
 2561 1031 02       		.byte	0x2
 2562 1032 23       		.byte	0x23
 2563 1033 1C       		.uleb128 0x1c
 2564 1034 17       		.uleb128 0x17
 2565 1035 ED070000 		.4byte	.LASF244
 2566 1039 0C       		.byte	0xc
 2567 103a 1A01     		.2byte	0x11a
 2568 103c FB090000 		.4byte	0x9fb
 2569 1040 02       		.byte	0x2
 2570 1041 23       		.byte	0x23
 2571 1042 20       		.uleb128 0x20
 2572 1043 17       		.uleb128 0x17
 2573 1044 EF0D0000 		.4byte	.LASF245
 2574 1048 0C       		.byte	0xc
 2575 1049 1D01     		.2byte	0x11d
 2576 104b FB090000 		.4byte	0x9fb
 2577 104f 02       		.byte	0x2
 2578 1050 23       		.byte	0x23
 2579 1051 24       		.uleb128 0x24
 2580 1052 24       		.uleb128 0x24
 2581 1053 504C4C00 		.ascii	"PLL\000"
 2582 1057 0C       		.byte	0xc
 2583 1058 2001     		.2byte	0x120
 2584 105a A90F0000 		.4byte	0xfa9
 2585 105e 02       		.byte	0x2
 2586 105f 23       		.byte	0x23
ARM GAS  C:\Users\EBANO_~1\AppData\Local\Temp\cca8j2GX.s 			page 50


 2587 1060 28       		.uleb128 0x28
 2588 1061 00       		.byte	0
 2589 1062 07       		.uleb128 0x7
 2590 1063 89030000 		.4byte	.LASF246
 2591 1067 0C       		.byte	0xc
 2592 1068 2201     		.2byte	0x122
 2593 106a B40F0000 		.4byte	0xfb4
 2594 106e 0C       		.uleb128 0xc
 2595 106f 24       		.byte	0x24
 2596 1070 0D       		.byte	0xd
 2597 1071 BF       		.byte	0xbf
 2598 1072 F5100000 		.4byte	0x10f5
 2599 1076 0D       		.uleb128 0xd
 2600 1077 53050000 		.4byte	.LASF247
 2601 107b 0D       		.byte	0xd
 2602 107c C1       		.byte	0xc1
 2603 107d FB090000 		.4byte	0x9fb
 2604 1081 02       		.byte	0x2
 2605 1082 23       		.byte	0x23
 2606 1083 00       		.uleb128 0
 2607 1084 0D       		.uleb128 0xd
 2608 1085 D5010000 		.4byte	.LASF248
 2609 1089 0D       		.byte	0xd
 2610 108a C4       		.byte	0xc4
 2611 108b FB090000 		.4byte	0x9fb
 2612 108f 02       		.byte	0x2
 2613 1090 23       		.byte	0x23
 2614 1091 04       		.uleb128 0x4
 2615 1092 0D       		.uleb128 0xd
 2616 1093 92060000 		.4byte	.LASF249
 2617 1097 0D       		.byte	0xd
 2618 1098 CE       		.byte	0xce
 2619 1099 FB090000 		.4byte	0x9fb
 2620 109d 02       		.byte	0x2
 2621 109e 23       		.byte	0x23
 2622 109f 08       		.uleb128 0x8
 2623 10a0 0D       		.uleb128 0xd
 2624 10a1 14020000 		.4byte	.LASF250
 2625 10a5 0D       		.byte	0xd
 2626 10a6 D1       		.byte	0xd1
 2627 10a7 FB090000 		.4byte	0x9fb
 2628 10ab 02       		.byte	0x2
 2629 10ac 23       		.byte	0x23
 2630 10ad 0C       		.uleb128 0xc
 2631 10ae 0D       		.uleb128 0xd
 2632 10af BD000000 		.4byte	.LASF251
 2633 10b3 0D       		.byte	0xd
 2634 10b4 D4       		.byte	0xd4
 2635 10b5 FB090000 		.4byte	0x9fb
 2636 10b9 02       		.byte	0x2
 2637 10ba 23       		.byte	0x23
 2638 10bb 10       		.uleb128 0x10
 2639 10bc 0D       		.uleb128 0xd
 2640 10bd 000B0000 		.4byte	.LASF252
 2641 10c1 0D       		.byte	0xd
 2642 10c2 D7       		.byte	0xd7
 2643 10c3 FB090000 		.4byte	0x9fb
ARM GAS  C:\Users\EBANO_~1\AppData\Local\Temp\cca8j2GX.s 			page 51


 2644 10c7 02       		.byte	0x2
 2645 10c8 23       		.byte	0x23
 2646 10c9 14       		.uleb128 0x14
 2647 10ca 0D       		.uleb128 0xd
 2648 10cb 79020000 		.4byte	.LASF253
 2649 10cf 0D       		.byte	0xd
 2650 10d0 DB       		.byte	0xdb
 2651 10d1 FB090000 		.4byte	0x9fb
 2652 10d5 02       		.byte	0x2
 2653 10d6 23       		.byte	0x23
 2654 10d7 18       		.uleb128 0x18
 2655 10d8 0D       		.uleb128 0xd
 2656 10d9 270B0000 		.4byte	.LASF254
 2657 10dd 0D       		.byte	0xd
 2658 10de DE       		.byte	0xde
 2659 10df FB090000 		.4byte	0x9fb
 2660 10e3 02       		.byte	0x2
 2661 10e4 23       		.byte	0x23
 2662 10e5 1C       		.uleb128 0x1c
 2663 10e6 0D       		.uleb128 0xd
 2664 10e7 08050000 		.4byte	.LASF255
 2665 10eb 0D       		.byte	0xd
 2666 10ec E1       		.byte	0xe1
 2667 10ed FB090000 		.4byte	0x9fb
 2668 10f1 02       		.byte	0x2
 2669 10f2 23       		.byte	0x23
 2670 10f3 20       		.uleb128 0x20
 2671 10f4 00       		.byte	0
 2672 10f5 04       		.uleb128 0x4
 2673 10f6 D2020000 		.4byte	.LASF256
 2674 10fa 0D       		.byte	0xd
 2675 10fb E4       		.byte	0xe4
 2676 10fc 6E100000 		.4byte	0x106e
 2677 1100 22       		.uleb128 0x22
 2678 1101 07       		.byte	0x7
 2679 1102 01       		.byte	0x1
 2680 1103 57000000 		.4byte	0x57
 2681 1107 0E       		.byte	0xe
 2682 1108 40       		.byte	0x40
 2683 1109 2C110000 		.4byte	0x112c
 2684 110d 20       		.uleb128 0x20
 2685 110e 67010000 		.4byte	.LASF257
 2686 1112 00       		.byte	0
 2687 1113 20       		.uleb128 0x20
 2688 1114 7E060000 		.4byte	.LASF258
 2689 1118 01       		.byte	0x1
 2690 1119 20       		.uleb128 0x20
 2691 111a B20B0000 		.4byte	.LASF259
 2692 111e 02       		.byte	0x2
 2693 111f 20       		.uleb128 0x20
 2694 1120 D1070000 		.4byte	.LASF260
 2695 1124 03       		.byte	0x3
 2696 1125 20       		.uleb128 0x20
 2697 1126 300A0000 		.4byte	.LASF261
 2698 112a 04       		.byte	0x4
 2699 112b 00       		.byte	0
 2700 112c 04       		.uleb128 0x4
ARM GAS  C:\Users\EBANO_~1\AppData\Local\Temp\cca8j2GX.s 			page 52


 2701 112d 2F070000 		.4byte	.LASF262
 2702 1131 0E       		.byte	0xe
 2703 1132 47       		.byte	0x47
 2704 1133 00110000 		.4byte	0x1100
 2705 1137 21       		.uleb128 0x21
 2706 1138 2C110000 		.4byte	0x112c
 2707 113c 0C       		.uleb128 0xc
 2708 113d 1C       		.byte	0x1c
 2709 113e 0E       		.byte	0xe
 2710 113f 4C       		.byte	0x4c
 2711 1140 A7110000 		.4byte	0x11a7
 2712 1144 0D       		.uleb128 0xd
 2713 1145 A0040000 		.4byte	.LASF263
 2714 1149 0E       		.byte	0xe
 2715 114a 4E       		.byte	0x4e
 2716 114b FB090000 		.4byte	0x9fb
 2717 114f 02       		.byte	0x2
 2718 1150 23       		.byte	0x23
 2719 1151 00       		.uleb128 0
 2720 1152 0D       		.uleb128 0xd
 2721 1153 6D050000 		.4byte	.LASF264
 2722 1157 0E       		.byte	0xe
 2723 1158 51       		.byte	0x51
 2724 1159 FB090000 		.4byte	0x9fb
 2725 115d 02       		.byte	0x2
 2726 115e 23       		.byte	0x23
 2727 115f 04       		.uleb128 0x4
 2728 1160 0D       		.uleb128 0xd
 2729 1161 FB030000 		.4byte	.LASF265
 2730 1165 0E       		.byte	0xe
 2731 1166 54       		.byte	0x54
 2732 1167 FB090000 		.4byte	0x9fb
 2733 116b 02       		.byte	0x2
 2734 116c 23       		.byte	0x23
 2735 116d 08       		.uleb128 0x8
 2736 116e 0D       		.uleb128 0xd
 2737 116f F30C0000 		.4byte	.LASF266
 2738 1173 0E       		.byte	0xe
 2739 1174 57       		.byte	0x57
 2740 1175 FB090000 		.4byte	0x9fb
 2741 1179 02       		.byte	0x2
 2742 117a 23       		.byte	0x23
 2743 117b 0C       		.uleb128 0xc
 2744 117c 0D       		.uleb128 0xd
 2745 117d 1C080000 		.4byte	.LASF267
 2746 1181 0E       		.byte	0xe
 2747 1182 5A       		.byte	0x5a
 2748 1183 FB090000 		.4byte	0x9fb
 2749 1187 02       		.byte	0x2
 2750 1188 23       		.byte	0x23
 2751 1189 10       		.uleb128 0x10
 2752 118a 0D       		.uleb128 0xd
 2753 118b 440A0000 		.4byte	.LASF268
 2754 118f 0E       		.byte	0xe
 2755 1190 5D       		.byte	0x5d
 2756 1191 FB090000 		.4byte	0x9fb
 2757 1195 02       		.byte	0x2
ARM GAS  C:\Users\EBANO_~1\AppData\Local\Temp\cca8j2GX.s 			page 53


 2758 1196 23       		.byte	0x23
 2759 1197 14       		.uleb128 0x14
 2760 1198 0D       		.uleb128 0xd
 2761 1199 940C0000 		.4byte	.LASF269
 2762 119d 0E       		.byte	0xe
 2763 119e 60       		.byte	0x60
 2764 119f FB090000 		.4byte	0x9fb
 2765 11a3 02       		.byte	0x2
 2766 11a4 23       		.byte	0x23
 2767 11a5 18       		.uleb128 0x18
 2768 11a6 00       		.byte	0
 2769 11a7 04       		.uleb128 0x4
 2770 11a8 86040000 		.4byte	.LASF270
 2771 11ac 0E       		.byte	0xe
 2772 11ad 62       		.byte	0x62
 2773 11ae 3C110000 		.4byte	0x113c
 2774 11b2 0C       		.uleb128 0xc
 2775 11b3 24       		.byte	0x24
 2776 11b4 0E       		.byte	0xe
 2777 11b5 B6       		.byte	0xb6
 2778 11b6 F3110000 		.4byte	0x11f3
 2779 11ba 0D       		.uleb128 0xd
 2780 11bb B2050000 		.4byte	.LASF271
 2781 11bf 0E       		.byte	0xe
 2782 11c0 B8       		.byte	0xb8
 2783 11c1 F3110000 		.4byte	0x11f3
 2784 11c5 02       		.byte	0x2
 2785 11c6 23       		.byte	0x23
 2786 11c7 00       		.uleb128 0
 2787 11c8 0D       		.uleb128 0xd
 2788 11c9 9B080000 		.4byte	.LASF272
 2789 11cd 0E       		.byte	0xe
 2790 11ce BA       		.byte	0xba
 2791 11cf A7110000 		.4byte	0x11a7
 2792 11d3 02       		.byte	0x2
 2793 11d4 23       		.byte	0x23
 2794 11d5 04       		.uleb128 0x4
 2795 11d6 0D       		.uleb128 0xd
 2796 11d7 96010000 		.4byte	.LASF273
 2797 11db 0E       		.byte	0xe
 2798 11dc BC       		.byte	0xbc
 2799 11dd 5D0F0000 		.4byte	0xf5d
 2800 11e1 02       		.byte	0x2
 2801 11e2 23       		.byte	0x23
 2802 11e3 20       		.uleb128 0x20
 2803 11e4 0D       		.uleb128 0xd
 2804 11e5 F0090000 		.4byte	.LASF274
 2805 11e9 0E       		.byte	0xe
 2806 11ea BE       		.byte	0xbe
 2807 11eb 37110000 		.4byte	0x1137
 2808 11ef 02       		.byte	0x2
 2809 11f0 23       		.byte	0x23
 2810 11f1 21       		.uleb128 0x21
 2811 11f2 00       		.byte	0
 2812 11f3 05       		.uleb128 0x5
 2813 11f4 04       		.byte	0x4
 2814 11f5 060F0000 		.4byte	0xf06
ARM GAS  C:\Users\EBANO_~1\AppData\Local\Temp\cca8j2GX.s 			page 54


 2815 11f9 04       		.uleb128 0x4
 2816 11fa 89090000 		.4byte	.LASF275
 2817 11fe 0E       		.byte	0xe
 2818 11ff C0       		.byte	0xc0
 2819 1200 B2110000 		.4byte	0x11b2
 2820 1204 23       		.uleb128 0x23
 2821 1205 700C0000 		.4byte	.LASF276
 2822 1209 0F       		.byte	0xf
 2823 120a 63       		.byte	0x63
 2824 120b 3C010000 		.4byte	0x13c
 2825 120f 01       		.byte	0x1
 2826 1210 01       		.byte	0x1
 2827 1211 23       		.uleb128 0x23
 2828 1212 B7040000 		.4byte	.LASF277
 2829 1216 10       		.byte	0x10
 2830 1217 9A       		.byte	0x9a
 2831 1218 77000000 		.4byte	0x77
 2832 121c 01       		.byte	0x1
 2833 121d 01       		.byte	0x1
 2834 121e 23       		.uleb128 0x23
 2835 121f 2E0E0000 		.4byte	.LASF278
 2836 1223 10       		.byte	0x10
 2837 1224 9B       		.byte	0x9b
 2838 1225 29000000 		.4byte	0x29
 2839 1229 01       		.byte	0x1
 2840 122a 01       		.byte	0x1
 2841 122b 0A       		.uleb128 0xa
 2842 122c 3C010000 		.4byte	0x13c
 2843 1230 3B120000 		.4byte	0x123b
 2844 1234 0B       		.uleb128 0xb
 2845 1235 30000000 		.4byte	0x30
 2846 1239 01       		.byte	0x1
 2847 123a 00       		.byte	0
 2848 123b 23       		.uleb128 0x23
 2849 123c 1A050000 		.4byte	.LASF279
 2850 1240 10       		.byte	0x10
 2851 1241 9E       		.byte	0x9e
 2852 1242 2B120000 		.4byte	0x122b
 2853 1246 01       		.byte	0x1
 2854 1247 01       		.byte	0x1
 2855 1248 03       		.uleb128 0x3
 2856 1249 01       		.byte	0x1
 2857 124a 02       		.byte	0x2
 2858 124b AF030000 		.4byte	.LASF280
 2859 124f 25       		.uleb128 0x25
 2860 1250 01       		.byte	0x1
 2861 1251 84010000 		.4byte	.LASF292
 2862 1255 01       		.byte	0x1
 2863 1256 AC       		.byte	0xac
 2864 1257 01       		.byte	0x1
 2865 1258 EB0A0000 		.4byte	0xaeb
 2866 125c 00000000 		.4byte	.LFB46
 2867 1260 1C000000 		.4byte	.LFE46
 2868 1264 02       		.byte	0x2
 2869 1265 7D       		.byte	0x7d
 2870 1266 00       		.sleb128 0
 2871 1267 01       		.byte	0x1
ARM GAS  C:\Users\EBANO_~1\AppData\Local\Temp\cca8j2GX.s 			page 55


 2872 1268 7C120000 		.4byte	0x127c
 2873 126c 26       		.uleb128 0x26
 2874 126d 130B0000 		.4byte	.LASF281
 2875 1271 01       		.byte	0x1
 2876 1272 AC       		.byte	0xac
 2877 1273 F0090000 		.4byte	0x9f0
 2878 1277 00000000 		.4byte	.LLST10
 2879 127b 00       		.byte	0
 2880 127c 27       		.uleb128 0x27
 2881 127d 01       		.byte	0x1
 2882 127e 69090000 		.4byte	.LASF282
 2883 1282 01       		.byte	0x1
 2884 1283 A2       		.byte	0xa2
 2885 1284 01       		.byte	0x1
 2886 1285 00000000 		.4byte	.LFB45
 2887 1289 08000000 		.4byte	.LFE45
 2888 128d 53000000 		.4byte	.LLST8
 2889 1291 01       		.byte	0x1
 2890 1292 AF120000 		.4byte	0x12af
 2891 1296 26       		.uleb128 0x26
 2892 1297 130B0000 		.4byte	.LASF281
 2893 129b 01       		.byte	0x1
 2894 129c A2       		.byte	0xa2
 2895 129d F0090000 		.4byte	0x9f0
 2896 12a1 73000000 		.4byte	.LLST9
 2897 12a5 28       		.uleb128 0x28
 2898 12a6 06000000 		.4byte	.LVL21
 2899 12aa 60140000 		.4byte	0x1460
 2900 12ae 00       		.byte	0
 2901 12af 27       		.uleb128 0x27
 2902 12b0 01       		.byte	0x1
 2903 12b1 4A070000 		.4byte	.LASF283
 2904 12b5 01       		.byte	0x1
 2905 12b6 98       		.byte	0x98
 2906 12b7 01       		.byte	0x1
 2907 12b8 00000000 		.4byte	.LFB44
 2908 12bc 08000000 		.4byte	.LFE44
 2909 12c0 94000000 		.4byte	.LLST6
 2910 12c4 01       		.byte	0x1
 2911 12c5 E2120000 		.4byte	0x12e2
 2912 12c9 26       		.uleb128 0x26
 2913 12ca 3D060000 		.4byte	.LASF284
 2914 12ce 01       		.byte	0x1
 2915 12cf 98       		.byte	0x98
 2916 12d0 E2120000 		.4byte	0x12e2
 2917 12d4 B4000000 		.4byte	.LLST7
 2918 12d8 28       		.uleb128 0x28
 2919 12d9 06000000 		.4byte	.LVL19
 2920 12dd 6D140000 		.4byte	0x146d
 2921 12e1 00       		.byte	0
 2922 12e2 05       		.uleb128 0x5
 2923 12e3 04       		.byte	0x4
 2924 12e4 F9110000 		.4byte	0x11f9
 2925 12e8 29       		.uleb128 0x29
 2926 12e9 01       		.byte	0x1
 2927 12ea 0B010000 		.4byte	.LASF285
 2928 12ee 01       		.byte	0x1
ARM GAS  C:\Users\EBANO_~1\AppData\Local\Temp\cca8j2GX.s 			page 56


 2929 12ef 8C       		.byte	0x8c
 2930 12f0 01       		.byte	0x1
 2931 12f1 00000000 		.4byte	.LFB43
 2932 12f5 14000000 		.4byte	.LFE43
 2933 12f9 02       		.byte	0x2
 2934 12fa 7D       		.byte	0x7d
 2935 12fb 00       		.sleb128 0
 2936 12fc 01       		.byte	0x1
 2937 12fd 0F130000 		.4byte	0x130f
 2938 1301 2A       		.uleb128 0x2a
 2939 1302 3D060000 		.4byte	.LASF284
 2940 1306 01       		.byte	0x1
 2941 1307 8C       		.byte	0x8c
 2942 1308 E2120000 		.4byte	0x12e2
 2943 130c 01       		.byte	0x1
 2944 130d 50       		.byte	0x50
 2945 130e 00       		.byte	0
 2946 130f 27       		.uleb128 0x27
 2947 1310 01       		.byte	0x1
 2948 1311 CC080000 		.4byte	.LASF286
 2949 1315 01       		.byte	0x1
 2950 1316 65       		.byte	0x65
 2951 1317 01       		.byte	0x1
 2952 1318 00000000 		.4byte	.LFB42
 2953 131c 60000000 		.4byte	.LFE42
 2954 1320 D5000000 		.4byte	.LLST4
 2955 1324 01       		.byte	0x1
 2956 1325 C1130000 		.4byte	0x13c1
 2957 1329 26       		.uleb128 0x26
 2958 132a 3D060000 		.4byte	.LASF284
 2959 132e 01       		.byte	0x1
 2960 132f 65       		.byte	0x65
 2961 1330 E2120000 		.4byte	0x12e2
 2962 1334 02010000 		.4byte	.LLST5
 2963 1338 2B       		.uleb128 0x2b
 2964 1339 4A0B0000 		.4byte	.LASF287
 2965 133d 01       		.byte	0x1
 2966 133e 67       		.byte	0x67
 2967 133f 62100000 		.4byte	0x1062
 2968 1343 02       		.byte	0x2
 2969 1344 91       		.byte	0x91
 2970 1345 40       		.sleb128 -64
 2971 1346 2B       		.uleb128 0x2b
 2972 1347 54020000 		.4byte	.LASF288
 2973 134b 01       		.byte	0x1
 2974 134c 68       		.byte	0x68
 2975 134d F5100000 		.4byte	0x10f5
 2976 1351 03       		.byte	0x3
 2977 1352 91       		.byte	0x91
 2978 1353 9C7F     		.sleb128 -100
 2979 1355 2C       		.uleb128 0x2c
 2980 1356 18000000 		.4byte	.LVL11
 2981 135a 7A140000 		.4byte	0x147a
 2982 135e 69130000 		.4byte	0x1369
 2983 1362 2D       		.uleb128 0x2d
 2984 1363 01       		.byte	0x1
 2985 1364 50       		.byte	0x50
ARM GAS  C:\Users\EBANO_~1\AppData\Local\Temp\cca8j2GX.s 			page 57


 2986 1365 02       		.byte	0x2
 2987 1366 91       		.byte	0x91
 2988 1367 40       		.sleb128 -64
 2989 1368 00       		.byte	0
 2990 1369 2C       		.uleb128 0x2c
 2991 136a 2C000000 		.4byte	.LVL12
 2992 136e 88140000 		.4byte	0x1488
 2993 1372 7E130000 		.4byte	0x137e
 2994 1376 2D       		.uleb128 0x2d
 2995 1377 01       		.byte	0x1
 2996 1378 50       		.byte	0x50
 2997 1379 03       		.byte	0x3
 2998 137a 91       		.byte	0x91
 2999 137b 9C7F     		.sleb128 -100
 3000 137d 00       		.byte	0
 3001 137e 28       		.uleb128 0x28
 3002 137f 34000000 		.4byte	.LVL13
 3003 1383 96140000 		.4byte	0x1496
 3004 1387 2C       		.uleb128 0x2c
 3005 1388 4A000000 		.4byte	.LVL14
 3006 138c A3140000 		.4byte	0x14a3
 3007 1390 A4130000 		.4byte	0x13a4
 3008 1394 2D       		.uleb128 0x2d
 3009 1395 01       		.byte	0x1
 3010 1396 50       		.byte	0x50
 3011 1397 01       		.byte	0x1
 3012 1398 32       		.byte	0x32
 3013 1399 2D       		.uleb128 0x2d
 3014 139a 01       		.byte	0x1
 3015 139b 51       		.byte	0x51
 3016 139c 01       		.byte	0x1
 3017 139d 30       		.byte	0x30
 3018 139e 2D       		.uleb128 0x2d
 3019 139f 01       		.byte	0x1
 3020 13a0 52       		.byte	0x52
 3021 13a1 01       		.byte	0x1
 3022 13a2 30       		.byte	0x30
 3023 13a3 00       		.byte	0
 3024 13a4 2C       		.uleb128 0x2c
 3025 13a5 50000000 		.4byte	.LVL15
 3026 13a9 B1140000 		.4byte	0x14b1
 3027 13ad B7130000 		.4byte	0x13b7
 3028 13b1 2D       		.uleb128 0x2d
 3029 13b2 01       		.byte	0x1
 3030 13b3 50       		.byte	0x50
 3031 13b4 01       		.byte	0x1
 3032 13b5 32       		.byte	0x32
 3033 13b6 00       		.byte	0
 3034 13b7 28       		.uleb128 0x28
 3035 13b8 58000000 		.4byte	.LVL16
 3036 13bc 96140000 		.4byte	0x1496
 3037 13c0 00       		.byte	0
 3038 13c1 27       		.uleb128 0x27
 3039 13c2 01       		.byte	0x1
 3040 13c3 3E020000 		.4byte	.LASF289
 3041 13c7 01       		.byte	0x1
 3042 13c8 3E       		.byte	0x3e
ARM GAS  C:\Users\EBANO_~1\AppData\Local\Temp\cca8j2GX.s 			page 58


 3043 13c9 01       		.byte	0x1
 3044 13ca 00000000 		.4byte	.LFB41
 3045 13ce 34000000 		.4byte	.LFE41
 3046 13d2 23010000 		.4byte	.LLST3
 3047 13d6 01       		.byte	0x1
 3048 13d7 00140000 		.4byte	0x1400
 3049 13db 28       		.uleb128 0x28
 3050 13dc 12000000 		.4byte	.LVL5
 3051 13e0 BF140000 		.4byte	0x14bf
 3052 13e4 28       		.uleb128 0x28
 3053 13e5 16000000 		.4byte	.LVL6
 3054 13e9 CD140000 		.4byte	0x14cd
 3055 13ed 28       		.uleb128 0x28
 3056 13ee 24000000 		.4byte	.LVL7
 3057 13f2 DA140000 		.4byte	0x14da
 3058 13f6 28       		.uleb128 0x28
 3059 13f7 28000000 		.4byte	.LVL8
 3060 13fb E7140000 		.4byte	0x14e7
 3061 13ff 00       		.byte	0
 3062 1400 27       		.uleb128 0x27
 3063 1401 01       		.byte	0x1
 3064 1402 96040000 		.4byte	.LASF290
 3065 1406 01       		.byte	0x1
 3066 1407 35       		.byte	0x35
 3067 1408 01       		.byte	0x1
 3068 1409 00000000 		.4byte	.LFB40
 3069 140d 10000000 		.4byte	.LFE40
 3070 1411 43010000 		.4byte	.LLST1
 3071 1415 01       		.byte	0x1
 3072 1416 33140000 		.4byte	0x1433
 3073 141a 26       		.uleb128 0x26
 3074 141b DD000000 		.4byte	.LASF291
 3075 141f 01       		.byte	0x1
 3076 1420 35       		.byte	0x35
 3077 1421 060A0000 		.4byte	0xa06
 3078 1425 6F010000 		.4byte	.LLST2
 3079 1429 28       		.uleb128 0x28
 3080 142a 0C000000 		.4byte	.LVL4
 3081 142e F4140000 		.4byte	0x14f4
 3082 1432 00       		.byte	0
 3083 1433 25       		.uleb128 0x25
 3084 1434 01       		.byte	0x1
 3085 1435 29090000 		.4byte	.LASF293
 3086 1439 01       		.byte	0x1
 3087 143a 2A       		.byte	0x2a
 3088 143b 01       		.byte	0x1
 3089 143c 380F0000 		.4byte	0xf38
 3090 1440 00000000 		.4byte	.LFB39
 3091 1444 04000000 		.4byte	.LFE39
 3092 1448 02       		.byte	0x2
 3093 1449 7D       		.byte	0x7d
 3094 144a 00       		.sleb128 0
 3095 144b 01       		.byte	0x1
 3096 144c 60140000 		.4byte	0x1460
 3097 1450 26       		.uleb128 0x26
 3098 1451 AD080000 		.4byte	.LASF294
 3099 1455 01       		.byte	0x1
ARM GAS  C:\Users\EBANO_~1\AppData\Local\Temp\cca8j2GX.s 			page 59


 3100 1456 2A       		.byte	0x2a
 3101 1457 FB090000 		.4byte	0x9fb
 3102 145b 8E010000 		.4byte	.LLST0
 3103 145f 00       		.byte	0
 3104 1460 2E       		.uleb128 0x2e
 3105 1461 01       		.byte	0x1
 3106 1462 01       		.byte	0x1
 3107 1463 9E020000 		.4byte	.LASF295
 3108 1467 9E020000 		.4byte	.LASF295
 3109 146b 11       		.byte	0x11
 3110 146c 60       		.byte	0x60
 3111 146d 2E       		.uleb128 0x2e
 3112 146e 01       		.byte	0x1
 3113 146f 01       		.byte	0x1
 3114 1470 DF0D0000 		.4byte	.LASF296
 3115 1474 DF0D0000 		.4byte	.LASF296
 3116 1478 12       		.byte	0x12
 3117 1479 5E       		.byte	0x5e
 3118 147a 2F       		.uleb128 0x2f
 3119 147b 01       		.byte	0x1
 3120 147c 01       		.byte	0x1
 3121 147d 32010000 		.4byte	.LASF297
 3122 1481 32010000 		.4byte	.LASF297
 3123 1485 0C       		.byte	0xc
 3124 1486 A706     		.2byte	0x6a7
 3125 1488 2F       		.uleb128 0x2f
 3126 1489 01       		.byte	0x1
 3127 148a 01       		.byte	0x1
 3128 148b E60A0000 		.4byte	.LASF298
 3129 148f E60A0000 		.4byte	.LASF298
 3130 1493 0D       		.byte	0xd
 3131 1494 B707     		.2byte	0x7b7
 3132 1496 2E       		.uleb128 0x2e
 3133 1497 01       		.byte	0x1
 3134 1498 01       		.byte	0x1
 3135 1499 CD040000 		.4byte	.LASF299
 3136 149d CD040000 		.4byte	.LASF299
 3137 14a1 13       		.byte	0x13
 3138 14a2 2C       		.byte	0x2c
 3139 14a3 2F       		.uleb128 0x2f
 3140 14a4 01       		.byte	0x1
 3141 14a5 01       		.byte	0x1
 3142 14a6 E4040000 		.4byte	.LASF300
 3143 14aa E4040000 		.4byte	.LASF300
 3144 14ae 14       		.byte	0x14
 3145 14af 0101     		.2byte	0x101
 3146 14b1 2F       		.uleb128 0x2f
 3147 14b2 01       		.byte	0x1
 3148 14b3 01       		.byte	0x1
 3149 14b4 D30A0000 		.4byte	.LASF301
 3150 14b8 D30A0000 		.4byte	.LASF301
 3151 14bc 14       		.byte	0x14
 3152 14bd 0201     		.2byte	0x102
 3153 14bf 2F       		.uleb128 0x2f
 3154 14c0 01       		.byte	0x1
 3155 14c1 01       		.byte	0x1
 3156 14c2 5D0C0000 		.4byte	.LASF302
ARM GAS  C:\Users\EBANO_~1\AppData\Local\Temp\cca8j2GX.s 			page 60


 3157 14c6 5D0C0000 		.4byte	.LASF302
 3158 14ca 15       		.byte	0x15
 3159 14cb A301     		.2byte	0x1a3
 3160 14cd 2E       		.uleb128 0x2e
 3161 14ce 01       		.byte	0x1
 3162 14cf 01       		.byte	0x1
 3163 14d0 D2030000 		.4byte	.LASF303
 3164 14d4 D2030000 		.4byte	.LASF303
 3165 14d8 16       		.byte	0x16
 3166 14d9 52       		.byte	0x52
 3167 14da 2E       		.uleb128 0x2e
 3168 14db 01       		.byte	0x1
 3169 14dc 01       		.byte	0x1
 3170 14dd 54030000 		.4byte	.LASF304
 3171 14e1 54030000 		.4byte	.LASF304
 3172 14e5 16       		.byte	0x16
 3173 14e6 50       		.byte	0x50
 3174 14e7 2E       		.uleb128 0x2e
 3175 14e8 01       		.byte	0x1
 3176 14e9 01       		.byte	0x1
 3177 14ea AB040000 		.4byte	.LASF305
 3178 14ee AB040000 		.4byte	.LASF305
 3179 14f2 17       		.byte	0x17
 3180 14f3 B9       		.byte	0xb9
 3181 14f4 2E       		.uleb128 0x2e
 3182 14f5 01       		.byte	0x1
 3183 14f6 01       		.byte	0x1
 3184 14f7 240D0000 		.4byte	.LASF306
 3185 14fb 240D0000 		.4byte	.LASF306
 3186 14ff 18       		.byte	0x18
 3187 1500 86       		.byte	0x86
 3188 1501 00       		.byte	0
 3189              		.section	.debug_abbrev,"",%progbits
 3190              	.Ldebug_abbrev0:
 3191 0000 01       		.uleb128 0x1
 3192 0001 11       		.uleb128 0x11
 3193 0002 01       		.byte	0x1
 3194 0003 25       		.uleb128 0x25
 3195 0004 0E       		.uleb128 0xe
 3196 0005 13       		.uleb128 0x13
 3197 0006 0B       		.uleb128 0xb
 3198 0007 03       		.uleb128 0x3
 3199 0008 0E       		.uleb128 0xe
 3200 0009 1B       		.uleb128 0x1b
 3201 000a 0E       		.uleb128 0xe
 3202 000b 55       		.uleb128 0x55
 3203 000c 06       		.uleb128 0x6
 3204 000d 11       		.uleb128 0x11
 3205 000e 01       		.uleb128 0x1
 3206 000f 52       		.uleb128 0x52
 3207 0010 01       		.uleb128 0x1
 3208 0011 10       		.uleb128 0x10
 3209 0012 06       		.uleb128 0x6
 3210 0013 00       		.byte	0
 3211 0014 00       		.byte	0
 3212 0015 02       		.uleb128 0x2
 3213 0016 24       		.uleb128 0x24
ARM GAS  C:\Users\EBANO_~1\AppData\Local\Temp\cca8j2GX.s 			page 61


 3214 0017 00       		.byte	0
 3215 0018 0B       		.uleb128 0xb
 3216 0019 0B       		.uleb128 0xb
 3217 001a 3E       		.uleb128 0x3e
 3218 001b 0B       		.uleb128 0xb
 3219 001c 03       		.uleb128 0x3
 3220 001d 08       		.uleb128 0x8
 3221 001e 00       		.byte	0
 3222 001f 00       		.byte	0
 3223 0020 03       		.uleb128 0x3
 3224 0021 24       		.uleb128 0x24
 3225 0022 00       		.byte	0
 3226 0023 0B       		.uleb128 0xb
 3227 0024 0B       		.uleb128 0xb
 3228 0025 3E       		.uleb128 0x3e
 3229 0026 0B       		.uleb128 0xb
 3230 0027 03       		.uleb128 0x3
 3231 0028 0E       		.uleb128 0xe
 3232 0029 00       		.byte	0
 3233 002a 00       		.byte	0
 3234 002b 04       		.uleb128 0x4
 3235 002c 16       		.uleb128 0x16
 3236 002d 00       		.byte	0
 3237 002e 03       		.uleb128 0x3
 3238 002f 0E       		.uleb128 0xe
 3239 0030 3A       		.uleb128 0x3a
 3240 0031 0B       		.uleb128 0xb
 3241 0032 3B       		.uleb128 0x3b
 3242 0033 0B       		.uleb128 0xb
 3243 0034 49       		.uleb128 0x49
 3244 0035 13       		.uleb128 0x13
 3245 0036 00       		.byte	0
 3246 0037 00       		.byte	0
 3247 0038 05       		.uleb128 0x5
 3248 0039 0F       		.uleb128 0xf
 3249 003a 00       		.byte	0
 3250 003b 0B       		.uleb128 0xb
 3251 003c 0B       		.uleb128 0xb
 3252 003d 49       		.uleb128 0x49
 3253 003e 13       		.uleb128 0x13
 3254 003f 00       		.byte	0
 3255 0040 00       		.byte	0
 3256 0041 06       		.uleb128 0x6
 3257 0042 13       		.uleb128 0x13
 3258 0043 00       		.byte	0
 3259 0044 03       		.uleb128 0x3
 3260 0045 0E       		.uleb128 0xe
 3261 0046 3C       		.uleb128 0x3c
 3262 0047 0C       		.uleb128 0xc
 3263 0048 00       		.byte	0
 3264 0049 00       		.byte	0
 3265 004a 07       		.uleb128 0x7
 3266 004b 16       		.uleb128 0x16
 3267 004c 00       		.byte	0
 3268 004d 03       		.uleb128 0x3
 3269 004e 0E       		.uleb128 0xe
 3270 004f 3A       		.uleb128 0x3a
ARM GAS  C:\Users\EBANO_~1\AppData\Local\Temp\cca8j2GX.s 			page 62


 3271 0050 0B       		.uleb128 0xb
 3272 0051 3B       		.uleb128 0x3b
 3273 0052 05       		.uleb128 0x5
 3274 0053 49       		.uleb128 0x49
 3275 0054 13       		.uleb128 0x13
 3276 0055 00       		.byte	0
 3277 0056 00       		.byte	0
 3278 0057 08       		.uleb128 0x8
 3279 0058 17       		.uleb128 0x17
 3280 0059 01       		.byte	0x1
 3281 005a 0B       		.uleb128 0xb
 3282 005b 0B       		.uleb128 0xb
 3283 005c 3A       		.uleb128 0x3a
 3284 005d 0B       		.uleb128 0xb
 3285 005e 3B       		.uleb128 0x3b
 3286 005f 0B       		.uleb128 0xb
 3287 0060 01       		.uleb128 0x1
 3288 0061 13       		.uleb128 0x13
 3289 0062 00       		.byte	0
 3290 0063 00       		.byte	0
 3291 0064 09       		.uleb128 0x9
 3292 0065 0D       		.uleb128 0xd
 3293 0066 00       		.byte	0
 3294 0067 03       		.uleb128 0x3
 3295 0068 0E       		.uleb128 0xe
 3296 0069 3A       		.uleb128 0x3a
 3297 006a 0B       		.uleb128 0xb
 3298 006b 3B       		.uleb128 0x3b
 3299 006c 0B       		.uleb128 0xb
 3300 006d 49       		.uleb128 0x49
 3301 006e 13       		.uleb128 0x13
 3302 006f 00       		.byte	0
 3303 0070 00       		.byte	0
 3304 0071 0A       		.uleb128 0xa
 3305 0072 01       		.uleb128 0x1
 3306 0073 01       		.byte	0x1
 3307 0074 49       		.uleb128 0x49
 3308 0075 13       		.uleb128 0x13
 3309 0076 01       		.uleb128 0x1
 3310 0077 13       		.uleb128 0x13
 3311 0078 00       		.byte	0
 3312 0079 00       		.byte	0
 3313 007a 0B       		.uleb128 0xb
 3314 007b 21       		.uleb128 0x21
 3315 007c 00       		.byte	0
 3316 007d 49       		.uleb128 0x49
 3317 007e 13       		.uleb128 0x13
 3318 007f 2F       		.uleb128 0x2f
 3319 0080 0B       		.uleb128 0xb
 3320 0081 00       		.byte	0
 3321 0082 00       		.byte	0
 3322 0083 0C       		.uleb128 0xc
 3323 0084 13       		.uleb128 0x13
 3324 0085 01       		.byte	0x1
 3325 0086 0B       		.uleb128 0xb
 3326 0087 0B       		.uleb128 0xb
 3327 0088 3A       		.uleb128 0x3a
ARM GAS  C:\Users\EBANO_~1\AppData\Local\Temp\cca8j2GX.s 			page 63


 3328 0089 0B       		.uleb128 0xb
 3329 008a 3B       		.uleb128 0x3b
 3330 008b 0B       		.uleb128 0xb
 3331 008c 01       		.uleb128 0x1
 3332 008d 13       		.uleb128 0x13
 3333 008e 00       		.byte	0
 3334 008f 00       		.byte	0
 3335 0090 0D       		.uleb128 0xd
 3336 0091 0D       		.uleb128 0xd
 3337 0092 00       		.byte	0
 3338 0093 03       		.uleb128 0x3
 3339 0094 0E       		.uleb128 0xe
 3340 0095 3A       		.uleb128 0x3a
 3341 0096 0B       		.uleb128 0xb
 3342 0097 3B       		.uleb128 0x3b
 3343 0098 0B       		.uleb128 0xb
 3344 0099 49       		.uleb128 0x49
 3345 009a 13       		.uleb128 0x13
 3346 009b 38       		.uleb128 0x38
 3347 009c 0A       		.uleb128 0xa
 3348 009d 00       		.byte	0
 3349 009e 00       		.byte	0
 3350 009f 0E       		.uleb128 0xe
 3351 00a0 0F       		.uleb128 0xf
 3352 00a1 00       		.byte	0
 3353 00a2 0B       		.uleb128 0xb
 3354 00a3 0B       		.uleb128 0xb
 3355 00a4 00       		.byte	0
 3356 00a5 00       		.byte	0
 3357 00a6 0F       		.uleb128 0xf
 3358 00a7 26       		.uleb128 0x26
 3359 00a8 00       		.byte	0
 3360 00a9 49       		.uleb128 0x49
 3361 00aa 13       		.uleb128 0x13
 3362 00ab 00       		.byte	0
 3363 00ac 00       		.byte	0
 3364 00ad 10       		.uleb128 0x10
 3365 00ae 13       		.uleb128 0x13
 3366 00af 01       		.byte	0x1
 3367 00b0 03       		.uleb128 0x3
 3368 00b1 0E       		.uleb128 0xe
 3369 00b2 0B       		.uleb128 0xb
 3370 00b3 0B       		.uleb128 0xb
 3371 00b4 3A       		.uleb128 0x3a
 3372 00b5 0B       		.uleb128 0xb
 3373 00b6 3B       		.uleb128 0x3b
 3374 00b7 0B       		.uleb128 0xb
 3375 00b8 01       		.uleb128 0x1
 3376 00b9 13       		.uleb128 0x13
 3377 00ba 00       		.byte	0
 3378 00bb 00       		.byte	0
 3379 00bc 11       		.uleb128 0x11
 3380 00bd 0D       		.uleb128 0xd
 3381 00be 00       		.byte	0
 3382 00bf 03       		.uleb128 0x3
 3383 00c0 08       		.uleb128 0x8
 3384 00c1 3A       		.uleb128 0x3a
ARM GAS  C:\Users\EBANO_~1\AppData\Local\Temp\cca8j2GX.s 			page 64


 3385 00c2 0B       		.uleb128 0xb
 3386 00c3 3B       		.uleb128 0x3b
 3387 00c4 0B       		.uleb128 0xb
 3388 00c5 49       		.uleb128 0x49
 3389 00c6 13       		.uleb128 0x13
 3390 00c7 38       		.uleb128 0x38
 3391 00c8 0A       		.uleb128 0xa
 3392 00c9 00       		.byte	0
 3393 00ca 00       		.byte	0
 3394 00cb 12       		.uleb128 0x12
 3395 00cc 13       		.uleb128 0x13
 3396 00cd 01       		.byte	0x1
 3397 00ce 03       		.uleb128 0x3
 3398 00cf 0E       		.uleb128 0xe
 3399 00d0 0B       		.uleb128 0xb
 3400 00d1 05       		.uleb128 0x5
 3401 00d2 3A       		.uleb128 0x3a
 3402 00d3 0B       		.uleb128 0xb
 3403 00d4 3B       		.uleb128 0x3b
 3404 00d5 0B       		.uleb128 0xb
 3405 00d6 01       		.uleb128 0x1
 3406 00d7 13       		.uleb128 0x13
 3407 00d8 00       		.byte	0
 3408 00d9 00       		.byte	0
 3409 00da 13       		.uleb128 0x13
 3410 00db 15       		.uleb128 0x15
 3411 00dc 00       		.byte	0
 3412 00dd 27       		.uleb128 0x27
 3413 00de 0C       		.uleb128 0xc
 3414 00df 00       		.byte	0
 3415 00e0 00       		.byte	0
 3416 00e1 14       		.uleb128 0x14
 3417 00e2 15       		.uleb128 0x15
 3418 00e3 01       		.byte	0x1
 3419 00e4 27       		.uleb128 0x27
 3420 00e5 0C       		.uleb128 0xc
 3421 00e6 49       		.uleb128 0x49
 3422 00e7 13       		.uleb128 0x13
 3423 00e8 01       		.uleb128 0x1
 3424 00e9 13       		.uleb128 0x13
 3425 00ea 00       		.byte	0
 3426 00eb 00       		.byte	0
 3427 00ec 15       		.uleb128 0x15
 3428 00ed 05       		.uleb128 0x5
 3429 00ee 00       		.byte	0
 3430 00ef 49       		.uleb128 0x49
 3431 00f0 13       		.uleb128 0x13
 3432 00f1 00       		.byte	0
 3433 00f2 00       		.byte	0
 3434 00f3 16       		.uleb128 0x16
 3435 00f4 13       		.uleb128 0x13
 3436 00f5 01       		.byte	0x1
 3437 00f6 03       		.uleb128 0x3
 3438 00f7 0E       		.uleb128 0xe
 3439 00f8 0B       		.uleb128 0xb
 3440 00f9 05       		.uleb128 0x5
 3441 00fa 3A       		.uleb128 0x3a
ARM GAS  C:\Users\EBANO_~1\AppData\Local\Temp\cca8j2GX.s 			page 65


 3442 00fb 0B       		.uleb128 0xb
 3443 00fc 3B       		.uleb128 0x3b
 3444 00fd 05       		.uleb128 0x5
 3445 00fe 01       		.uleb128 0x1
 3446 00ff 13       		.uleb128 0x13
 3447 0100 00       		.byte	0
 3448 0101 00       		.byte	0
 3449 0102 17       		.uleb128 0x17
 3450 0103 0D       		.uleb128 0xd
 3451 0104 00       		.byte	0
 3452 0105 03       		.uleb128 0x3
 3453 0106 0E       		.uleb128 0xe
 3454 0107 3A       		.uleb128 0x3a
 3455 0108 0B       		.uleb128 0xb
 3456 0109 3B       		.uleb128 0x3b
 3457 010a 05       		.uleb128 0x5
 3458 010b 49       		.uleb128 0x49
 3459 010c 13       		.uleb128 0x13
 3460 010d 38       		.uleb128 0x38
 3461 010e 0A       		.uleb128 0xa
 3462 010f 00       		.byte	0
 3463 0110 00       		.byte	0
 3464 0111 18       		.uleb128 0x18
 3465 0112 13       		.uleb128 0x13
 3466 0113 01       		.byte	0x1
 3467 0114 03       		.uleb128 0x3
 3468 0115 0E       		.uleb128 0xe
 3469 0116 0B       		.uleb128 0xb
 3470 0117 0B       		.uleb128 0xb
 3471 0118 3A       		.uleb128 0x3a
 3472 0119 0B       		.uleb128 0xb
 3473 011a 3B       		.uleb128 0x3b
 3474 011b 05       		.uleb128 0x5
 3475 011c 01       		.uleb128 0x1
 3476 011d 13       		.uleb128 0x13
 3477 011e 00       		.byte	0
 3478 011f 00       		.byte	0
 3479 0120 19       		.uleb128 0x19
 3480 0121 13       		.uleb128 0x13
 3481 0122 01       		.byte	0x1
 3482 0123 0B       		.uleb128 0xb
 3483 0124 0B       		.uleb128 0xb
 3484 0125 3A       		.uleb128 0x3a
 3485 0126 0B       		.uleb128 0xb
 3486 0127 3B       		.uleb128 0x3b
 3487 0128 05       		.uleb128 0x5
 3488 0129 01       		.uleb128 0x1
 3489 012a 13       		.uleb128 0x13
 3490 012b 00       		.byte	0
 3491 012c 00       		.byte	0
 3492 012d 1A       		.uleb128 0x1a
 3493 012e 17       		.uleb128 0x17
 3494 012f 01       		.byte	0x1
 3495 0130 0B       		.uleb128 0xb
 3496 0131 0B       		.uleb128 0xb
 3497 0132 3A       		.uleb128 0x3a
 3498 0133 0B       		.uleb128 0xb
ARM GAS  C:\Users\EBANO_~1\AppData\Local\Temp\cca8j2GX.s 			page 66


 3499 0134 3B       		.uleb128 0x3b
 3500 0135 05       		.uleb128 0x5
 3501 0136 01       		.uleb128 0x1
 3502 0137 13       		.uleb128 0x13
 3503 0138 00       		.byte	0
 3504 0139 00       		.byte	0
 3505 013a 1B       		.uleb128 0x1b
 3506 013b 0D       		.uleb128 0xd
 3507 013c 00       		.byte	0
 3508 013d 03       		.uleb128 0x3
 3509 013e 0E       		.uleb128 0xe
 3510 013f 3A       		.uleb128 0x3a
 3511 0140 0B       		.uleb128 0xb
 3512 0141 3B       		.uleb128 0x3b
 3513 0142 05       		.uleb128 0x5
 3514 0143 49       		.uleb128 0x49
 3515 0144 13       		.uleb128 0x13
 3516 0145 00       		.byte	0
 3517 0146 00       		.byte	0
 3518 0147 1C       		.uleb128 0x1c
 3519 0148 15       		.uleb128 0x15
 3520 0149 01       		.byte	0x1
 3521 014a 27       		.uleb128 0x27
 3522 014b 0C       		.uleb128 0xc
 3523 014c 01       		.uleb128 0x1
 3524 014d 13       		.uleb128 0x13
 3525 014e 00       		.byte	0
 3526 014f 00       		.byte	0
 3527 0150 1D       		.uleb128 0x1d
 3528 0151 34       		.uleb128 0x34
 3529 0152 00       		.byte	0
 3530 0153 03       		.uleb128 0x3
 3531 0154 0E       		.uleb128 0xe
 3532 0155 3A       		.uleb128 0x3a
 3533 0156 0B       		.uleb128 0xb
 3534 0157 3B       		.uleb128 0x3b
 3535 0158 05       		.uleb128 0x5
 3536 0159 49       		.uleb128 0x49
 3537 015a 13       		.uleb128 0x13
 3538 015b 3F       		.uleb128 0x3f
 3539 015c 0C       		.uleb128 0xc
 3540 015d 3C       		.uleb128 0x3c
 3541 015e 0C       		.uleb128 0xc
 3542 015f 00       		.byte	0
 3543 0160 00       		.byte	0
 3544 0161 1E       		.uleb128 0x1e
 3545 0162 04       		.uleb128 0x4
 3546 0163 01       		.byte	0x1
 3547 0164 03       		.uleb128 0x3
 3548 0165 0E       		.uleb128 0xe
 3549 0166 3E       		.uleb128 0x3e
 3550 0167 0B       		.uleb128 0xb
 3551 0168 0B       		.uleb128 0xb
 3552 0169 0B       		.uleb128 0xb
 3553 016a 49       		.uleb128 0x49
 3554 016b 13       		.uleb128 0x13
 3555 016c 3A       		.uleb128 0x3a
ARM GAS  C:\Users\EBANO_~1\AppData\Local\Temp\cca8j2GX.s 			page 67


 3556 016d 0B       		.uleb128 0xb
 3557 016e 3B       		.uleb128 0x3b
 3558 016f 05       		.uleb128 0x5
 3559 0170 01       		.uleb128 0x1
 3560 0171 13       		.uleb128 0x13
 3561 0172 00       		.byte	0
 3562 0173 00       		.byte	0
 3563 0174 1F       		.uleb128 0x1f
 3564 0175 28       		.uleb128 0x28
 3565 0176 00       		.byte	0
 3566 0177 03       		.uleb128 0x3
 3567 0178 0E       		.uleb128 0xe
 3568 0179 1C       		.uleb128 0x1c
 3569 017a 0D       		.uleb128 0xd
 3570 017b 00       		.byte	0
 3571 017c 00       		.byte	0
 3572 017d 20       		.uleb128 0x20
 3573 017e 28       		.uleb128 0x28
 3574 017f 00       		.byte	0
 3575 0180 03       		.uleb128 0x3
 3576 0181 0E       		.uleb128 0xe
 3577 0182 1C       		.uleb128 0x1c
 3578 0183 0B       		.uleb128 0xb
 3579 0184 00       		.byte	0
 3580 0185 00       		.byte	0
 3581 0186 21       		.uleb128 0x21
 3582 0187 35       		.uleb128 0x35
 3583 0188 00       		.byte	0
 3584 0189 49       		.uleb128 0x49
 3585 018a 13       		.uleb128 0x13
 3586 018b 00       		.byte	0
 3587 018c 00       		.byte	0
 3588 018d 22       		.uleb128 0x22
 3589 018e 04       		.uleb128 0x4
 3590 018f 01       		.byte	0x1
 3591 0190 3E       		.uleb128 0x3e
 3592 0191 0B       		.uleb128 0xb
 3593 0192 0B       		.uleb128 0xb
 3594 0193 0B       		.uleb128 0xb
 3595 0194 49       		.uleb128 0x49
 3596 0195 13       		.uleb128 0x13
 3597 0196 3A       		.uleb128 0x3a
 3598 0197 0B       		.uleb128 0xb
 3599 0198 3B       		.uleb128 0x3b
 3600 0199 0B       		.uleb128 0xb
 3601 019a 01       		.uleb128 0x1
 3602 019b 13       		.uleb128 0x13
 3603 019c 00       		.byte	0
 3604 019d 00       		.byte	0
 3605 019e 23       		.uleb128 0x23
 3606 019f 34       		.uleb128 0x34
 3607 01a0 00       		.byte	0
 3608 01a1 03       		.uleb128 0x3
 3609 01a2 0E       		.uleb128 0xe
 3610 01a3 3A       		.uleb128 0x3a
 3611 01a4 0B       		.uleb128 0xb
 3612 01a5 3B       		.uleb128 0x3b
ARM GAS  C:\Users\EBANO_~1\AppData\Local\Temp\cca8j2GX.s 			page 68


 3613 01a6 0B       		.uleb128 0xb
 3614 01a7 49       		.uleb128 0x49
 3615 01a8 13       		.uleb128 0x13
 3616 01a9 3F       		.uleb128 0x3f
 3617 01aa 0C       		.uleb128 0xc
 3618 01ab 3C       		.uleb128 0x3c
 3619 01ac 0C       		.uleb128 0xc
 3620 01ad 00       		.byte	0
 3621 01ae 00       		.byte	0
 3622 01af 24       		.uleb128 0x24
 3623 01b0 0D       		.uleb128 0xd
 3624 01b1 00       		.byte	0
 3625 01b2 03       		.uleb128 0x3
 3626 01b3 08       		.uleb128 0x8
 3627 01b4 3A       		.uleb128 0x3a
 3628 01b5 0B       		.uleb128 0xb
 3629 01b6 3B       		.uleb128 0x3b
 3630 01b7 05       		.uleb128 0x5
 3631 01b8 49       		.uleb128 0x49
 3632 01b9 13       		.uleb128 0x13
 3633 01ba 38       		.uleb128 0x38
 3634 01bb 0A       		.uleb128 0xa
 3635 01bc 00       		.byte	0
 3636 01bd 00       		.byte	0
 3637 01be 25       		.uleb128 0x25
 3638 01bf 2E       		.uleb128 0x2e
 3639 01c0 01       		.byte	0x1
 3640 01c1 3F       		.uleb128 0x3f
 3641 01c2 0C       		.uleb128 0xc
 3642 01c3 03       		.uleb128 0x3
 3643 01c4 0E       		.uleb128 0xe
 3644 01c5 3A       		.uleb128 0x3a
 3645 01c6 0B       		.uleb128 0xb
 3646 01c7 3B       		.uleb128 0x3b
 3647 01c8 0B       		.uleb128 0xb
 3648 01c9 27       		.uleb128 0x27
 3649 01ca 0C       		.uleb128 0xc
 3650 01cb 49       		.uleb128 0x49
 3651 01cc 13       		.uleb128 0x13
 3652 01cd 11       		.uleb128 0x11
 3653 01ce 01       		.uleb128 0x1
 3654 01cf 12       		.uleb128 0x12
 3655 01d0 01       		.uleb128 0x1
 3656 01d1 40       		.uleb128 0x40
 3657 01d2 0A       		.uleb128 0xa
 3658 01d3 9742     		.uleb128 0x2117
 3659 01d5 0C       		.uleb128 0xc
 3660 01d6 01       		.uleb128 0x1
 3661 01d7 13       		.uleb128 0x13
 3662 01d8 00       		.byte	0
 3663 01d9 00       		.byte	0
 3664 01da 26       		.uleb128 0x26
 3665 01db 05       		.uleb128 0x5
 3666 01dc 00       		.byte	0
 3667 01dd 03       		.uleb128 0x3
 3668 01de 0E       		.uleb128 0xe
 3669 01df 3A       		.uleb128 0x3a
ARM GAS  C:\Users\EBANO_~1\AppData\Local\Temp\cca8j2GX.s 			page 69


 3670 01e0 0B       		.uleb128 0xb
 3671 01e1 3B       		.uleb128 0x3b
 3672 01e2 0B       		.uleb128 0xb
 3673 01e3 49       		.uleb128 0x49
 3674 01e4 13       		.uleb128 0x13
 3675 01e5 02       		.uleb128 0x2
 3676 01e6 06       		.uleb128 0x6
 3677 01e7 00       		.byte	0
 3678 01e8 00       		.byte	0
 3679 01e9 27       		.uleb128 0x27
 3680 01ea 2E       		.uleb128 0x2e
 3681 01eb 01       		.byte	0x1
 3682 01ec 3F       		.uleb128 0x3f
 3683 01ed 0C       		.uleb128 0xc
 3684 01ee 03       		.uleb128 0x3
 3685 01ef 0E       		.uleb128 0xe
 3686 01f0 3A       		.uleb128 0x3a
 3687 01f1 0B       		.uleb128 0xb
 3688 01f2 3B       		.uleb128 0x3b
 3689 01f3 0B       		.uleb128 0xb
 3690 01f4 27       		.uleb128 0x27
 3691 01f5 0C       		.uleb128 0xc
 3692 01f6 11       		.uleb128 0x11
 3693 01f7 01       		.uleb128 0x1
 3694 01f8 12       		.uleb128 0x12
 3695 01f9 01       		.uleb128 0x1
 3696 01fa 40       		.uleb128 0x40
 3697 01fb 06       		.uleb128 0x6
 3698 01fc 9742     		.uleb128 0x2117
 3699 01fe 0C       		.uleb128 0xc
 3700 01ff 01       		.uleb128 0x1
 3701 0200 13       		.uleb128 0x13
 3702 0201 00       		.byte	0
 3703 0202 00       		.byte	0
 3704 0203 28       		.uleb128 0x28
 3705 0204 898201   		.uleb128 0x4109
 3706 0207 00       		.byte	0
 3707 0208 11       		.uleb128 0x11
 3708 0209 01       		.uleb128 0x1
 3709 020a 31       		.uleb128 0x31
 3710 020b 13       		.uleb128 0x13
 3711 020c 00       		.byte	0
 3712 020d 00       		.byte	0
 3713 020e 29       		.uleb128 0x29
 3714 020f 2E       		.uleb128 0x2e
 3715 0210 01       		.byte	0x1
 3716 0211 3F       		.uleb128 0x3f
 3717 0212 0C       		.uleb128 0xc
 3718 0213 03       		.uleb128 0x3
 3719 0214 0E       		.uleb128 0xe
 3720 0215 3A       		.uleb128 0x3a
 3721 0216 0B       		.uleb128 0xb
 3722 0217 3B       		.uleb128 0x3b
 3723 0218 0B       		.uleb128 0xb
 3724 0219 27       		.uleb128 0x27
 3725 021a 0C       		.uleb128 0xc
 3726 021b 11       		.uleb128 0x11
ARM GAS  C:\Users\EBANO_~1\AppData\Local\Temp\cca8j2GX.s 			page 70


 3727 021c 01       		.uleb128 0x1
 3728 021d 12       		.uleb128 0x12
 3729 021e 01       		.uleb128 0x1
 3730 021f 40       		.uleb128 0x40
 3731 0220 0A       		.uleb128 0xa
 3732 0221 9742     		.uleb128 0x2117
 3733 0223 0C       		.uleb128 0xc
 3734 0224 01       		.uleb128 0x1
 3735 0225 13       		.uleb128 0x13
 3736 0226 00       		.byte	0
 3737 0227 00       		.byte	0
 3738 0228 2A       		.uleb128 0x2a
 3739 0229 05       		.uleb128 0x5
 3740 022a 00       		.byte	0
 3741 022b 03       		.uleb128 0x3
 3742 022c 0E       		.uleb128 0xe
 3743 022d 3A       		.uleb128 0x3a
 3744 022e 0B       		.uleb128 0xb
 3745 022f 3B       		.uleb128 0x3b
 3746 0230 0B       		.uleb128 0xb
 3747 0231 49       		.uleb128 0x49
 3748 0232 13       		.uleb128 0x13
 3749 0233 02       		.uleb128 0x2
 3750 0234 0A       		.uleb128 0xa
 3751 0235 00       		.byte	0
 3752 0236 00       		.byte	0
 3753 0237 2B       		.uleb128 0x2b
 3754 0238 34       		.uleb128 0x34
 3755 0239 00       		.byte	0
 3756 023a 03       		.uleb128 0x3
 3757 023b 0E       		.uleb128 0xe
 3758 023c 3A       		.uleb128 0x3a
 3759 023d 0B       		.uleb128 0xb
 3760 023e 3B       		.uleb128 0x3b
 3761 023f 0B       		.uleb128 0xb
 3762 0240 49       		.uleb128 0x49
 3763 0241 13       		.uleb128 0x13
 3764 0242 02       		.uleb128 0x2
 3765 0243 0A       		.uleb128 0xa
 3766 0244 00       		.byte	0
 3767 0245 00       		.byte	0
 3768 0246 2C       		.uleb128 0x2c
 3769 0247 898201   		.uleb128 0x4109
 3770 024a 01       		.byte	0x1
 3771 024b 11       		.uleb128 0x11
 3772 024c 01       		.uleb128 0x1
 3773 024d 31       		.uleb128 0x31
 3774 024e 13       		.uleb128 0x13
 3775 024f 01       		.uleb128 0x1
 3776 0250 13       		.uleb128 0x13
 3777 0251 00       		.byte	0
 3778 0252 00       		.byte	0
 3779 0253 2D       		.uleb128 0x2d
 3780 0254 8A8201   		.uleb128 0x410a
 3781 0257 00       		.byte	0
 3782 0258 02       		.uleb128 0x2
 3783 0259 0A       		.uleb128 0xa
ARM GAS  C:\Users\EBANO_~1\AppData\Local\Temp\cca8j2GX.s 			page 71


 3784 025a 9142     		.uleb128 0x2111
 3785 025c 0A       		.uleb128 0xa
 3786 025d 00       		.byte	0
 3787 025e 00       		.byte	0
 3788 025f 2E       		.uleb128 0x2e
 3789 0260 2E       		.uleb128 0x2e
 3790 0261 00       		.byte	0
 3791 0262 3F       		.uleb128 0x3f
 3792 0263 0C       		.uleb128 0xc
 3793 0264 3C       		.uleb128 0x3c
 3794 0265 0C       		.uleb128 0xc
 3795 0266 8740     		.uleb128 0x2007
 3796 0268 0E       		.uleb128 0xe
 3797 0269 03       		.uleb128 0x3
 3798 026a 0E       		.uleb128 0xe
 3799 026b 3A       		.uleb128 0x3a
 3800 026c 0B       		.uleb128 0xb
 3801 026d 3B       		.uleb128 0x3b
 3802 026e 0B       		.uleb128 0xb
 3803 026f 00       		.byte	0
 3804 0270 00       		.byte	0
 3805 0271 2F       		.uleb128 0x2f
 3806 0272 2E       		.uleb128 0x2e
 3807 0273 00       		.byte	0
 3808 0274 3F       		.uleb128 0x3f
 3809 0275 0C       		.uleb128 0xc
 3810 0276 3C       		.uleb128 0x3c
 3811 0277 0C       		.uleb128 0xc
 3812 0278 8740     		.uleb128 0x2007
 3813 027a 0E       		.uleb128 0xe
 3814 027b 03       		.uleb128 0x3
 3815 027c 0E       		.uleb128 0xe
 3816 027d 3A       		.uleb128 0x3a
 3817 027e 0B       		.uleb128 0xb
 3818 027f 3B       		.uleb128 0x3b
 3819 0280 05       		.uleb128 0x5
 3820 0281 00       		.byte	0
 3821 0282 00       		.byte	0
 3822 0283 00       		.byte	0
 3823              		.section	.debug_loc,"",%progbits
 3824              	.Ldebug_loc0:
 3825              	.LLST10:
 3826 0000 00000000 		.4byte	.LVL22
 3827 0004 08000000 		.4byte	.LVL23
 3828 0008 0100     		.2byte	0x1
 3829 000a 50       		.byte	0x50
 3830 000b 08000000 		.4byte	.LVL23
 3831 000f 10000000 		.4byte	.LVL24
 3832 0013 0400     		.2byte	0x4
 3833 0015 F3       		.byte	0xf3
 3834 0016 01       		.uleb128 0x1
 3835 0017 50       		.byte	0x50
 3836 0018 9F       		.byte	0x9f
 3837 0019 10000000 		.4byte	.LVL24
 3838 001d 14000000 		.4byte	.LVL25
 3839 0021 0100     		.2byte	0x1
 3840 0023 50       		.byte	0x50
ARM GAS  C:\Users\EBANO_~1\AppData\Local\Temp\cca8j2GX.s 			page 72


 3841 0024 14000000 		.4byte	.LVL25
 3842 0028 18000000 		.4byte	.LVL26
 3843 002c 0400     		.2byte	0x4
 3844 002e F3       		.byte	0xf3
 3845 002f 01       		.uleb128 0x1
 3846 0030 50       		.byte	0x50
 3847 0031 9F       		.byte	0x9f
 3848 0032 18000000 		.4byte	.LVL26
 3849 0036 1A000000 		.4byte	.LVL27
 3850 003a 0100     		.2byte	0x1
 3851 003c 50       		.byte	0x50
 3852 003d 1A000000 		.4byte	.LVL27
 3853 0041 1C000000 		.4byte	.LFE46
 3854 0045 0400     		.2byte	0x4
 3855 0047 F3       		.byte	0xf3
 3856 0048 01       		.uleb128 0x1
 3857 0049 50       		.byte	0x50
 3858 004a 9F       		.byte	0x9f
 3859 004b 00000000 		.4byte	0
 3860 004f 00000000 		.4byte	0
 3861              	.LLST8:
 3862 0053 00000000 		.4byte	.LFB45
 3863 0057 02000000 		.4byte	.LCFI6
 3864 005b 0200     		.2byte	0x2
 3865 005d 7D       		.byte	0x7d
 3866 005e 00       		.sleb128 0
 3867 005f 02000000 		.4byte	.LCFI6
 3868 0063 08000000 		.4byte	.LFE45
 3869 0067 0200     		.2byte	0x2
 3870 0069 7D       		.byte	0x7d
 3871 006a 08       		.sleb128 8
 3872 006b 00000000 		.4byte	0
 3873 006f 00000000 		.4byte	0
 3874              	.LLST9:
 3875 0073 00000000 		.4byte	.LVL20
 3876 0077 05000000 		.4byte	.LVL21-1
 3877 007b 0100     		.2byte	0x1
 3878 007d 50       		.byte	0x50
 3879 007e 05000000 		.4byte	.LVL21-1
 3880 0082 08000000 		.4byte	.LFE45
 3881 0086 0400     		.2byte	0x4
 3882 0088 F3       		.byte	0xf3
 3883 0089 01       		.uleb128 0x1
 3884 008a 50       		.byte	0x50
 3885 008b 9F       		.byte	0x9f
 3886 008c 00000000 		.4byte	0
 3887 0090 00000000 		.4byte	0
 3888              	.LLST6:
 3889 0094 00000000 		.4byte	.LFB44
 3890 0098 02000000 		.4byte	.LCFI5
 3891 009c 0200     		.2byte	0x2
 3892 009e 7D       		.byte	0x7d
 3893 009f 00       		.sleb128 0
 3894 00a0 02000000 		.4byte	.LCFI5
 3895 00a4 08000000 		.4byte	.LFE44
 3896 00a8 0200     		.2byte	0x2
 3897 00aa 7D       		.byte	0x7d
ARM GAS  C:\Users\EBANO_~1\AppData\Local\Temp\cca8j2GX.s 			page 73


 3898 00ab 08       		.sleb128 8
 3899 00ac 00000000 		.4byte	0
 3900 00b0 00000000 		.4byte	0
 3901              	.LLST7:
 3902 00b4 00000000 		.4byte	.LVL18
 3903 00b8 05000000 		.4byte	.LVL19-1
 3904 00bc 0100     		.2byte	0x1
 3905 00be 50       		.byte	0x50
 3906 00bf 05000000 		.4byte	.LVL19-1
 3907 00c3 08000000 		.4byte	.LFE44
 3908 00c7 0400     		.2byte	0x4
 3909 00c9 F3       		.byte	0xf3
 3910 00ca 01       		.uleb128 0x1
 3911 00cb 50       		.byte	0x50
 3912 00cc 9F       		.byte	0x9f
 3913 00cd 00000000 		.4byte	0
 3914 00d1 00000000 		.4byte	0
 3915              	.LLST4:
 3916 00d5 00000000 		.4byte	.LFB42
 3917 00d9 04000000 		.4byte	.LCFI3
 3918 00dd 0200     		.2byte	0x2
 3919 00df 7D       		.byte	0x7d
 3920 00e0 00       		.sleb128 0
 3921 00e1 04000000 		.4byte	.LCFI3
 3922 00e5 06000000 		.4byte	.LCFI4
 3923 00e9 0200     		.2byte	0x2
 3924 00eb 7D       		.byte	0x7d
 3925 00ec 04       		.sleb128 4
 3926 00ed 06000000 		.4byte	.LCFI4
 3927 00f1 60000000 		.4byte	.LFE42
 3928 00f5 0300     		.2byte	0x3
 3929 00f7 7D       		.byte	0x7d
 3930 00f8 E800     		.sleb128 104
 3931 00fa 00000000 		.4byte	0
 3932 00fe 00000000 		.4byte	0
 3933              	.LLST5:
 3934 0102 00000000 		.4byte	.LVL9
 3935 0106 12000000 		.4byte	.LVL10
 3936 010a 0100     		.2byte	0x1
 3937 010c 50       		.byte	0x50
 3938 010d 12000000 		.4byte	.LVL10
 3939 0111 60000000 		.4byte	.LFE42
 3940 0115 0400     		.2byte	0x4
 3941 0117 F3       		.byte	0xf3
 3942 0118 01       		.uleb128 0x1
 3943 0119 50       		.byte	0x50
 3944 011a 9F       		.byte	0x9f
 3945 011b 00000000 		.4byte	0
 3946 011f 00000000 		.4byte	0
 3947              	.LLST3:
 3948 0123 00000000 		.4byte	.LFB41
 3949 0127 0A000000 		.4byte	.LCFI2
 3950 012b 0200     		.2byte	0x2
 3951 012d 7D       		.byte	0x7d
 3952 012e 00       		.sleb128 0
 3953 012f 0A000000 		.4byte	.LCFI2
 3954 0133 34000000 		.4byte	.LFE41
ARM GAS  C:\Users\EBANO_~1\AppData\Local\Temp\cca8j2GX.s 			page 74


 3955 0137 0200     		.2byte	0x2
 3956 0139 7D       		.byte	0x7d
 3957 013a 08       		.sleb128 8
 3958 013b 00000000 		.4byte	0
 3959 013f 00000000 		.4byte	0
 3960              	.LLST1:
 3961 0143 00000000 		.4byte	.LFB40
 3962 0147 02000000 		.4byte	.LCFI0
 3963 014b 0200     		.2byte	0x2
 3964 014d 7D       		.byte	0x7d
 3965 014e 00       		.sleb128 0
 3966 014f 02000000 		.4byte	.LCFI0
 3967 0153 04000000 		.4byte	.LCFI1
 3968 0157 0200     		.2byte	0x2
 3969 0159 7D       		.byte	0x7d
 3970 015a 04       		.sleb128 4
 3971 015b 04000000 		.4byte	.LCFI1
 3972 015f 10000000 		.4byte	.LFE40
 3973 0163 0200     		.2byte	0x2
 3974 0165 7D       		.byte	0x7d
 3975 0166 10       		.sleb128 16
 3976 0167 00000000 		.4byte	0
 3977 016b 00000000 		.4byte	0
 3978              	.LLST2:
 3979 016f 00000000 		.4byte	.LVL2
 3980 0173 08000000 		.4byte	.LVL3
 3981 0177 0100     		.2byte	0x1
 3982 0179 50       		.byte	0x50
 3983 017a 08000000 		.4byte	.LVL3
 3984 017e 10000000 		.4byte	.LFE40
 3985 0182 0200     		.2byte	0x2
 3986 0184 91       		.byte	0x91
 3987 0185 74       		.sleb128 -12
 3988 0186 00000000 		.4byte	0
 3989 018a 00000000 		.4byte	0
 3990              	.LLST0:
 3991 018e 00000000 		.4byte	.LVL0
 3992 0192 02000000 		.4byte	.LVL1
 3993 0196 0100     		.2byte	0x1
 3994 0198 50       		.byte	0x50
 3995 0199 02000000 		.4byte	.LVL1
 3996 019d 04000000 		.4byte	.LFE39
 3997 01a1 0400     		.2byte	0x4
 3998 01a3 F3       		.byte	0xf3
 3999 01a4 01       		.uleb128 0x1
 4000 01a5 50       		.byte	0x50
 4001 01a6 9F       		.byte	0x9f
 4002 01a7 00000000 		.4byte	0
 4003 01ab 00000000 		.4byte	0
 4004              		.section	.debug_aranges,"",%progbits
 4005 0000 54000000 		.4byte	0x54
 4006 0004 0200     		.2byte	0x2
 4007 0006 00000000 		.4byte	.Ldebug_info0
 4008 000a 04       		.byte	0x4
 4009 000b 00       		.byte	0
 4010 000c 0000     		.2byte	0
 4011 000e 0000     		.2byte	0
ARM GAS  C:\Users\EBANO_~1\AppData\Local\Temp\cca8j2GX.s 			page 75


 4012 0010 00000000 		.4byte	.LFB39
 4013 0014 04000000 		.4byte	.LFE39-.LFB39
 4014 0018 00000000 		.4byte	.LFB40
 4015 001c 10000000 		.4byte	.LFE40-.LFB40
 4016 0020 00000000 		.4byte	.LFB41
 4017 0024 34000000 		.4byte	.LFE41-.LFB41
 4018 0028 00000000 		.4byte	.LFB42
 4019 002c 60000000 		.4byte	.LFE42-.LFB42
 4020 0030 00000000 		.4byte	.LFB43
 4021 0034 14000000 		.4byte	.LFE43-.LFB43
 4022 0038 00000000 		.4byte	.LFB44
 4023 003c 08000000 		.4byte	.LFE44-.LFB44
 4024 0040 00000000 		.4byte	.LFB45
 4025 0044 08000000 		.4byte	.LFE45-.LFB45
 4026 0048 00000000 		.4byte	.LFB46
 4027 004c 1C000000 		.4byte	.LFE46-.LFB46
 4028 0050 00000000 		.4byte	0
 4029 0054 00000000 		.4byte	0
 4030              		.section	.debug_ranges,"",%progbits
 4031              	.Ldebug_ranges0:
 4032 0000 00000000 		.4byte	.LFB39
 4033 0004 04000000 		.4byte	.LFE39
 4034 0008 00000000 		.4byte	.LFB40
 4035 000c 10000000 		.4byte	.LFE40
 4036 0010 00000000 		.4byte	.LFB41
 4037 0014 34000000 		.4byte	.LFE41
 4038 0018 00000000 		.4byte	.LFB42
 4039 001c 60000000 		.4byte	.LFE42
 4040 0020 00000000 		.4byte	.LFB43
 4041 0024 14000000 		.4byte	.LFE43
 4042 0028 00000000 		.4byte	.LFB44
 4043 002c 08000000 		.4byte	.LFE44
 4044 0030 00000000 		.4byte	.LFB45
 4045 0034 08000000 		.4byte	.LFE45
 4046 0038 00000000 		.4byte	.LFB46
 4047 003c 1C000000 		.4byte	.LFE46
 4048 0040 00000000 		.4byte	0
 4049 0044 00000000 		.4byte	0
 4050              		.section	.debug_line,"",%progbits
 4051              	.Ldebug_line0:
 4052 0000 A8040000 		.section	.debug_str,"MS",%progbits,1
 4052      0200E103 
 4052      00000201 
 4052      FB0E0D00 
 4052      01010101 
 4053              	.LASF201:
 4054 0000 41504231 		.ascii	"APB1SMENR\000"
 4054      534D454E 
 4054      5200
 4055              	.LASF121:
 4056 000a 5F5F6C6F 		.ascii	"__locale_t\000"
 4056      63616C65 
 4056      5F7400
 4057              	.LASF210:
 4058 0015 54535452 		.ascii	"TSTR\000"
 4058      00
 4059              	.LASF20:
ARM GAS  C:\Users\EBANO_~1\AppData\Local\Temp\cca8j2GX.s 			page 76


 4060 001a 5F5F7661 		.ascii	"__value\000"
 4060      6C756500 
 4061              	.LASF89:
 4062 0022 5F5F7366 		.ascii	"__sf\000"
 4062      00
 4063              	.LASF227:
 4064 0027 48414C5F 		.ascii	"HAL_StatusTypeDef\000"
 4064      53746174 
 4064      75735479 
 4064      70654465 
 4064      6600
 4065              	.LASF56:
 4066 0039 5F726561 		.ascii	"_read\000"
 4066      6400
 4067              	.LASF177:
 4068 003f 5052474B 		.ascii	"PRGKEYR\000"
 4068      45595200 
 4069              	.LASF167:
 4070 0047 524E475F 		.ascii	"RNG_LPUART1_IRQn\000"
 4070      4C505541 
 4070      5254315F 
 4070      4952516E 
 4070      00
 4071              	.LASF219:
 4072 0058 424B5032 		.ascii	"BKP2R\000"
 4072      5200
 4073              	.LASF57:
 4074 005e 5F777269 		.ascii	"_write\000"
 4074      746500
 4075              	.LASF100:
 4076 0065 5F617363 		.ascii	"_asctime_buf\000"
 4076      74696D65 
 4076      5F627566 
 4076      00
 4077              	.LASF83:
 4078 0072 5F637674 		.ascii	"_cvtlen\000"
 4078      6C656E00 
 4079              	.LASF136:
 4080 007a 5356435F 		.ascii	"SVC_IRQn\000"
 4080      4952516E 
 4080      00
 4081              	.LASF143:
 4082 0083 5243435F 		.ascii	"RCC_CRS_IRQn\000"
 4082      4352535F 
 4082      4952516E 
 4082      00
 4083              	.LASF119:
 4084 0090 5F756E75 		.ascii	"_unused\000"
 4084      73656400 
 4085              	.LASF30:
 4086 0098 5F5F746D 		.ascii	"__tm\000"
 4086      00
 4087              	.LASF115:
 4088 009d 5F776373 		.ascii	"_wcsrtombs_state\000"
 4088      72746F6D 
 4088      62735F73 
 4088      74617465 
ARM GAS  C:\Users\EBANO_~1\AppData\Local\Temp\cca8j2GX.s 			page 77


 4088      00
 4089              	.LASF61:
 4090 00ae 5F6E6275 		.ascii	"_nbuf\000"
 4090      6600
 4091              	.LASF31:
 4092 00b4 5F5F746D 		.ascii	"__tm_sec\000"
 4092      5F736563 
 4092      00
 4093              	.LASF251:
 4094 00bd 4C707561 		.ascii	"Lpuart1ClockSelection\000"
 4094      72743143 
 4094      6C6F636B 
 4094      53656C65 
 4094      6374696F 
 4095              	.LASF108:
 4096 00d3 5F6C3634 		.ascii	"_l64a_buf\000"
 4096      615F6275 
 4096      6600
 4097              	.LASF291:
 4098 00dd 44656C61 		.ascii	"Delay\000"
 4098      7900
 4099              	.LASF220:
 4100 00e3 424B5033 		.ascii	"BKP3R\000"
 4100      5200
 4101              	.LASF232:
 4102 00e9 504C4C53 		.ascii	"PLLSource\000"
 4102      6F757263 
 4102      6500
 4103              	.LASF142:
 4104 00f3 464C4153 		.ascii	"FLASH_IRQn\000"
 4104      485F4952 
 4104      516E00
 4105              	.LASF184:
 4106 00fe 49435343 		.ascii	"ICSCR\000"
 4106      5200
 4107              	.LASF176:
 4108 0104 50454B45 		.ascii	"PEKEYR\000"
 4108      595200
 4109              	.LASF285:
 4110 010b 48414C5F 		.ascii	"HAL_RTC_MspDeInit\000"
 4110      5254435F 
 4110      4D737044 
 4110      65496E69 
 4110      7400
 4111              	.LASF135:
 4112 011d 48617264 		.ascii	"HardFault_IRQn\000"
 4112      4661756C 
 4112      745F4952 
 4112      516E00
 4113              	.LASF65:
 4114 012c 5F6C6F63 		.ascii	"_lock\000"
 4114      6B00
 4115              	.LASF297:
 4116 0132 48414C5F 		.ascii	"HAL_RCC_OscConfig\000"
 4116      5243435F 
 4116      4F736343 
 4116      6F6E6669 
ARM GAS  C:\Users\EBANO_~1\AppData\Local\Temp\cca8j2GX.s 			page 78


 4116      6700
 4117              	.LASF144:
 4118 0144 45585449 		.ascii	"EXTI0_1_IRQn\000"
 4118      305F315F 
 4118      4952516E 
 4118      00
 4119              	.LASF96:
 4120 0151 5F6D756C 		.ascii	"_mult\000"
 4120      7400
 4121              	.LASF154:
 4122 0157 54494D32 		.ascii	"TIM2_IRQn\000"
 4122      5F495251 
 4122      6E00
 4123              	.LASF221:
 4124 0161 424B5034 		.ascii	"BKP4R\000"
 4124      5200
 4125              	.LASF257:
 4126 0167 48414C5F 		.ascii	"HAL_RTC_STATE_RESET\000"
 4126      5254435F 
 4126      53544154 
 4126      455F5245 
 4126      53455400 
 4127              	.LASF238:
 4128 017b 4C534553 		.ascii	"LSEState\000"
 4128      74617465 
 4128      00
 4129              	.LASF292:
 4130 0184 4D53505F 		.ascii	"MSP_GetIRQn\000"
 4130      47657449 
 4130      52516E00 
 4131              	.LASF17:
 4132 0190 5F5F7763 		.ascii	"__wch\000"
 4132      6800
 4133              	.LASF273:
 4134 0196 4C6F636B 		.ascii	"Lock\000"
 4134      00
 4135              	.LASF6:
 4136 019b 5F5F7569 		.ascii	"__uint8_t\000"
 4136      6E74385F 
 4136      7400
 4137              	.LASF164:
 4138 01a5 53504932 		.ascii	"SPI2_IRQn\000"
 4138      5F495251 
 4138      6E00
 4139              	.LASF53:
 4140 01af 5F66696C 		.ascii	"_file\000"
 4140      6500
 4141              	.LASF40:
 4142 01b5 5F6F6E5F 		.ascii	"_on_exit_args\000"
 4142      65786974 
 4142      5F617267 
 4142      7300
 4143              	.LASF199:
 4144 01c3 41484253 		.ascii	"AHBSMENR\000"
 4144      4D454E52 
 4144      00
 4145              	.LASF198:
ARM GAS  C:\Users\EBANO_~1\AppData\Local\Temp\cca8j2GX.s 			page 79


 4146 01cc 494F5053 		.ascii	"IOPSMENR\000"
 4146      4D454E52 
 4146      00
 4147              	.LASF248:
 4148 01d5 52544343 		.ascii	"RTCClockSelection\000"
 4148      6C6F636B 
 4148      53656C65 
 4148      6374696F 
 4148      6E00
 4149              	.LASF111:
 4150 01e7 5F6D6272 		.ascii	"_mbrlen_state\000"
 4150      6C656E5F 
 4150      73746174 
 4150      6500
 4151              	.LASF9:
 4152 01f5 6C6F6E67 		.ascii	"long int\000"
 4152      20696E74 
 4152      00
 4153              	.LASF122:
 4154 01fe 5F696D70 		.ascii	"_impure_ptr\000"
 4154      7572655F 
 4154      70747200 
 4155              	.LASF80:
 4156 020a 5F726573 		.ascii	"_result_k\000"
 4156      756C745F 
 4156      6B00
 4157              	.LASF250:
 4158 0214 55736172 		.ascii	"Usart2ClockSelection\000"
 4158      7432436C 
 4158      6F636B53 
 4158      656C6563 
 4158      74696F6E 
 4159              	.LASF50:
 4160 0229 5F73697A 		.ascii	"_size\000"
 4160      6500
 4161              	.LASF101:
 4162 022f 5F6C6F63 		.ascii	"_localtime_buf\000"
 4162      616C7469 
 4162      6D655F62 
 4162      756600
 4163              	.LASF289:
 4164 023e 48414C5F 		.ascii	"HAL_MspInit\000"
 4164      4D737049 
 4164      6E697400 
 4165              	.LASF159:
 4166 024a 49324333 		.ascii	"I2C3_IRQn\000"
 4166      5F495251 
 4166      6E00
 4167              	.LASF288:
 4168 0254 50657269 		.ascii	"PeriphClkInitStruct\000"
 4168      7068436C 
 4168      6B496E69 
 4168      74537472 
 4168      75637400 
 4169              	.LASF35:
 4170 0268 5F5F746D 		.ascii	"__tm_mon\000"
 4170      5F6D6F6E 
ARM GAS  C:\Users\EBANO_~1\AppData\Local\Temp\cca8j2GX.s 			page 80


 4170      00
 4171              	.LASF196:
 4172 0271 41504232 		.ascii	"APB2ENR\000"
 4172      454E5200 
 4173              	.LASF253:
 4174 0279 49326333 		.ascii	"I2c3ClockSelection\000"
 4174      436C6F63 
 4174      6B53656C 
 4174      65637469 
 4174      6F6E00
 4175              	.LASF138:
 4176 028c 53797354 		.ascii	"SysTick_IRQn\000"
 4176      69636B5F 
 4176      4952516E 
 4176      00
 4177              	.LASF180:
 4178 0299 57525052 		.ascii	"WRPR\000"
 4178      00
 4179              	.LASF295:
 4180 029e 48575F47 		.ascii	"HW_GPIO_IrqHandler\000"
 4180      50494F5F 
 4180      49727148 
 4180      616E646C 
 4180      657200
 4181              	.LASF98:
 4182 02b1 5F756E75 		.ascii	"_unused_rand\000"
 4182      7365645F 
 4182      72616E64 
 4182      00
 4183              	.LASF3:
 4184 02be 7369676E 		.ascii	"signed char\000"
 4184      65642063 
 4184      68617200 
 4185              	.LASF131:
 4186 02ca 75696E74 		.ascii	"uint8_t\000"
 4186      385F7400 
 4187              	.LASF256:
 4188 02d2 5243435F 		.ascii	"RCC_PeriphCLKInitTypeDef\000"
 4188      50657269 
 4188      7068434C 
 4188      4B496E69 
 4188      74547970 
 4189              	.LASF223:
 4190 02eb 48414C5F 		.ascii	"HAL_OK\000"
 4190      4F4B00
 4191              	.LASF241:
 4192 02f2 4C534953 		.ascii	"LSIState\000"
 4192      74617465 
 4192      00
 4193              	.LASF146:
 4194 02fb 45585449 		.ascii	"EXTI4_15_IRQn\000"
 4194      345F3135 
 4194      5F495251 
 4194      6E00
 4195              	.LASF181:
 4196 0309 52455345 		.ascii	"RESERVED1\000"
 4196      52564544 
ARM GAS  C:\Users\EBANO_~1\AppData\Local\Temp\cca8j2GX.s 			page 81


 4196      3100
 4197              	.LASF4:
 4198 0313 756E7369 		.ascii	"unsigned char\000"
 4198      676E6564 
 4198      20636861 
 4198      7200
 4199              	.LASF175:
 4200 0321 50444B45 		.ascii	"PDKEYR\000"
 4200      595200
 4201              	.LASF162:
 4202 0328 49324332 		.ascii	"I2C2_IRQn\000"
 4202      5F495251 
 4202      6E00
 4203              	.LASF168:
 4204 0332 5553425F 		.ascii	"USB_IRQn\000"
 4204      4952516E 
 4204      00
 4205              	.LASF75:
 4206 033b 5F756E73 		.ascii	"_unspecified_locale_info\000"
 4206      70656369 
 4206      66696564 
 4206      5F6C6F63 
 4206      616C655F 
 4207              	.LASF304:
 4208 0354 48414C5F 		.ascii	"HAL_PWREx_EnableFastWakeUp\000"
 4208      50575245 
 4208      785F456E 
 4208      61626C65 
 4208      46617374 
 4209              	.LASF68:
 4210 036f 5F726565 		.ascii	"_reent\000"
 4210      6E7400
 4211              	.LASF123:
 4212 0376 5F676C6F 		.ascii	"_global_impure_ptr\000"
 4212      62616C5F 
 4212      696D7075 
 4212      72655F70 
 4212      747200
 4213              	.LASF246:
 4214 0389 5243435F 		.ascii	"RCC_OscInitTypeDef\000"
 4214      4F736349 
 4214      6E697454 
 4214      79706544 
 4214      656600
 4215              	.LASF148:
 4216 039c 444D4131 		.ascii	"DMA1_Channel1_IRQn\000"
 4216      5F436861 
 4216      6E6E656C 
 4216      315F4952 
 4216      516E00
 4217              	.LASF280:
 4218 03af 5F426F6F 		.ascii	"_Bool\000"
 4218      6C00
 4219              	.LASF152:
 4220 03b5 4C505449 		.ascii	"LPTIM1_IRQn\000"
 4220      4D315F49 
 4220      52516E00 
ARM GAS  C:\Users\EBANO_~1\AppData\Local\Temp\cca8j2GX.s 			page 82


 4221              	.LASF23:
 4222 03c1 63686172 		.ascii	"char\000"
 4222      00
 4223              	.LASF47:
 4224 03c6 5F666E73 		.ascii	"_fns\000"
 4224      00
 4225              	.LASF59:
 4226 03cb 5F636C6F 		.ascii	"_close\000"
 4226      736500
 4227              	.LASF303:
 4228 03d2 48414C5F 		.ascii	"HAL_PWREx_EnableUltraLowPower\000"
 4228      50575245 
 4228      785F456E 
 4228      61626C65 
 4228      556C7472 
 4229              	.LASF7:
 4230 03f0 5F5F7569 		.ascii	"__uint16_t\000"
 4230      6E743136 
 4230      5F7400
 4231              	.LASF265:
 4232 03fb 53796E63 		.ascii	"SynchPrediv\000"
 4232      68507265 
 4232      64697600 
 4233              	.LASF309:
 4234 0407 443A5C67 		.ascii	"D:\\git_pessoal\\keil_gcc\\STM32CubeExpansion_LRWAN"
 4234      69745F70 
 4234      6573736F 
 4234      616C5C6B 
 4234      65696C5F 
 4235 0437 5F56312E 		.ascii	"_V1.2.1\\Projects\\B-L072Z-LRWAN1\\Applications\\Lo"
 4235      322E315C 
 4235      50726F6A 
 4235      65637473 
 4235      5C422D4C 
 4236 0466 52615C45 		.ascii	"Ra\\End_Node\\MDK-ARM\000"
 4236      6E645F4E 
 4236      6F64655C 
 4236      4D444B2D 
 4236      41524D00 
 4237              	.LASF70:
 4238 047a 5F737464 		.ascii	"_stdin\000"
 4238      696E00
 4239              	.LASF204:
 4240 0481 50524552 		.ascii	"PRER\000"
 4240      00
 4241              	.LASF270:
 4242 0486 5254435F 		.ascii	"RTC_InitTypeDef\000"
 4242      496E6974 
 4242      54797065 
 4242      44656600 
 4243              	.LASF290:
 4244 0496 48414C5F 		.ascii	"HAL_Delay\000"
 4244      44656C61 
 4244      7900
 4245              	.LASF263:
 4246 04a0 486F7572 		.ascii	"HourFormat\000"
 4246      466F726D 
ARM GAS  C:\Users\EBANO_~1\AppData\Local\Temp\cca8j2GX.s 			page 83


 4246      617400
 4247              	.LASF305:
 4248 04ab 48575F47 		.ascii	"HW_GpioInit\000"
 4248      70696F49 
 4248      6E697400 
 4249              	.LASF277:
 4250 04b7 5F74696D 		.ascii	"_timezone\000"
 4250      657A6F6E 
 4250      6500
 4251              	.LASF166:
 4252 04c1 55534152 		.ascii	"USART2_IRQn\000"
 4252      54325F49 
 4252      52516E00 
 4253              	.LASF299:
 4254 04cd 4572726F 		.ascii	"Error_Handler\000"
 4254      725F4861 
 4254      6E646C65 
 4254      7200
 4255              	.LASF237:
 4256 04db 48534553 		.ascii	"HSEState\000"
 4256      74617465 
 4256      00
 4257              	.LASF300:
 4258 04e4 48414C5F 		.ascii	"HAL_NVIC_SetPriority\000"
 4258      4E564943 
 4258      5F536574 
 4258      5072696F 
 4258      72697479 
 4259              	.LASF182:
 4260 04f9 57525052 		.ascii	"WRPR2\000"
 4260      3200
 4261              	.LASF239:
 4262 04ff 48534953 		.ascii	"HSIState\000"
 4262      74617465 
 4262      00
 4263              	.LASF255:
 4264 0508 55736243 		.ascii	"UsbClockSelection\000"
 4264      6C6F636B 
 4264      53656C65 
 4264      6374696F 
 4264      6E00
 4265              	.LASF279:
 4266 051a 5F747A6E 		.ascii	"_tzname\000"
 4266      616D6500 
 4267              	.LASF206:
 4268 0522 52455345 		.ascii	"RESERVED\000"
 4268      52564544 
 4268      00
 4269              	.LASF55:
 4270 052b 5F636F6F 		.ascii	"_cookie\000"
 4270      6B696500 
 4271              	.LASF308:
 4272 0533 2E2E2F43 		.ascii	"../Core/src/mlm32l0xx_hal_msp.c\000"
 4272      6F72652F 
 4272      7372632F 
 4272      6D6C6D33 
 4272      326C3078 
ARM GAS  C:\Users\EBANO_~1\AppData\Local\Temp\cca8j2GX.s 			page 84


 4273              	.LASF247:
 4274 0553 50657269 		.ascii	"PeriphClockSelection\000"
 4274      7068436C 
 4274      6F636B53 
 4274      656C6563 
 4274      74696F6E 
 4275              	.LASF28:
 4276 0568 5F776473 		.ascii	"_wds\000"
 4276      00
 4277              	.LASF264:
 4278 056d 4173796E 		.ascii	"AsynchPrediv\000"
 4278      63685072 
 4278      65646976 
 4278      00
 4279              	.LASF185:
 4280 057a 43525243 		.ascii	"CRRCR\000"
 4280      5200
 4281              	.LASF120:
 4282 0580 5F5F6C6F 		.ascii	"__lock\000"
 4282      636B00
 4283              	.LASF87:
 4284 0587 5F736967 		.ascii	"_sig_func\000"
 4284      5F66756E 
 4284      6300
 4285              	.LASF186:
 4286 0591 43464752 		.ascii	"CFGR\000"
 4286      00
 4287              	.LASF63:
 4288 0596 5F6F6666 		.ascii	"_offset\000"
 4288      73657400 
 4289              	.LASF173:
 4290 059e 504C4C4D 		.ascii	"PLLMulTable\000"
 4290      756C5461 
 4290      626C6500 
 4291              	.LASF84:
 4292 05aa 5F637674 		.ascii	"_cvtbuf\000"
 4292      62756600 
 4293              	.LASF271:
 4294 05b2 496E7374 		.ascii	"Instance\000"
 4294      616E6365 
 4294      00
 4295              	.LASF178:
 4296 05bb 4F50544B 		.ascii	"OPTKEYR\000"
 4296      45595200 
 4297              	.LASF134:
 4298 05c3 4E6F6E4D 		.ascii	"NonMaskableInt_IRQn\000"
 4298      61736B61 
 4298      626C6549 
 4298      6E745F49 
 4298      52516E00 
 4299              	.LASF202:
 4300 05d7 43434950 		.ascii	"CCIPR\000"
 4300      5200
 4301              	.LASF130:
 4302 05dd 5F5F6664 		.ascii	"__fdlib_version\000"
 4302      6C69625F 
 4302      76657273 
ARM GAS  C:\Users\EBANO_~1\AppData\Local\Temp\cca8j2GX.s 			page 85


 4302      696F6E00 
 4303              	.LASF139:
 4304 05ed 57574447 		.ascii	"WWDG_IRQn\000"
 4304      5F495251 
 4304      6E00
 4305              	.LASF81:
 4306 05f7 5F703573 		.ascii	"_p5s\000"
 4306      00
 4307              	.LASF11:
 4308 05fc 6C6F6E67 		.ascii	"long unsigned int\000"
 4308      20756E73 
 4308      69676E65 
 4308      6420696E 
 4308      7400
 4309              	.LASF197:
 4310 060e 41504231 		.ascii	"APB1ENR\000"
 4310      454E5200 
 4311              	.LASF222:
 4312 0616 5254435F 		.ascii	"RTC_TypeDef\000"
 4312      54797065 
 4312      44656600 
 4313              	.LASF51:
 4314 0622 5F5F7346 		.ascii	"__sFILE\000"
 4314      494C4500 
 4315              	.LASF77:
 4316 062a 5F5F7364 		.ascii	"__sdidinit\000"
 4316      6964696E 
 4316      697400
 4317              	.LASF67:
 4318 0635 5F666C61 		.ascii	"_flags2\000"
 4318      67733200 
 4319              	.LASF284:
 4320 063d 68727463 		.ascii	"hrtc\000"
 4320      00
 4321              	.LASF170:
 4322 0642 53797374 		.ascii	"SystemCoreClock\000"
 4322      656D436F 
 4322      7265436C 
 4322      6F636B00 
 4323              	.LASF242:
 4324 0652 48534934 		.ascii	"HSI48State\000"
 4324      38537461 
 4324      746500
 4325              	.LASF169:
 4326 065d 4952516E 		.ascii	"IRQn_Type\000"
 4326      5F547970 
 4326      6500
 4327              	.LASF230:
 4328 0667 48414C5F 		.ascii	"HAL_LockTypeDef\000"
 4328      4C6F636B 
 4328      54797065 
 4328      44656600 
 4329              	.LASF69:
 4330 0677 5F657272 		.ascii	"_errno\000"
 4330      6E6F00
 4331              	.LASF258:
 4332 067e 48414C5F 		.ascii	"HAL_RTC_STATE_READY\000"
ARM GAS  C:\Users\EBANO_~1\AppData\Local\Temp\cca8j2GX.s 			page 86


 4332      5254435F 
 4332      53544154 
 4332      455F5245 
 4332      41445900 
 4333              	.LASF249:
 4334 0692 55736172 		.ascii	"Usart1ClockSelection\000"
 4334      7431436C 
 4334      6F636B53 
 4334      656C6563 
 4334      74696F6E 
 4335              	.LASF109:
 4336 06a7 5F736967 		.ascii	"_signal_buf\000"
 4336      6E616C5F 
 4336      62756600 
 4337              	.LASF29:
 4338 06b3 5F426967 		.ascii	"_Bigint\000"
 4338      696E7400 
 4339              	.LASF26:
 4340 06bb 5F6D6178 		.ascii	"_maxwds\000"
 4340      77647300 
 4341              	.LASF191:
 4342 06c3 41484252 		.ascii	"AHBRSTR\000"
 4342      53545200 
 4343              	.LASF78:
 4344 06cb 5F5F636C 		.ascii	"__cleanup\000"
 4344      65616E75 
 4344      7000
 4345              	.LASF86:
 4346 06d5 5F617465 		.ascii	"_atexit0\000"
 4346      78697430 
 4346      00
 4347              	.LASF127:
 4348 06de 5F5F6664 		.ascii	"__fdlibm_svid\000"
 4348      6C69626D 
 4348      5F737669 
 4348      6400
 4349              	.LASF211:
 4350 06ec 54534452 		.ascii	"TSDR\000"
 4350      00
 4351              	.LASF216:
 4352 06f1 414C524D 		.ascii	"ALRMBSSR\000"
 4352      42535352 
 4352      00
 4353              	.LASF10:
 4354 06fa 5F5F7569 		.ascii	"__uint32_t\000"
 4354      6E743332 
 4354      5F7400
 4355              	.LASF74:
 4356 0705 5F656D65 		.ascii	"_emergency\000"
 4356      7267656E 
 4356      637900
 4357              	.LASF207:
 4358 0710 414C524D 		.ascii	"ALRMAR\000"
 4358      415200
 4359              	.LASF157:
 4360 0717 54494D37 		.ascii	"TIM7_IRQn\000"
 4360      5F495251 
ARM GAS  C:\Users\EBANO_~1\AppData\Local\Temp\cca8j2GX.s 			page 87


 4360      6E00
 4361              	.LASF1:
 4362 0721 6C6F6E67 		.ascii	"long long int\000"
 4362      206C6F6E 
 4362      6720696E 
 4362      7400
 4363              	.LASF262:
 4364 072f 48414C5F 		.ascii	"HAL_RTCStateTypeDef\000"
 4364      52544353 
 4364      74617465 
 4364      54797065 
 4364      44656600 
 4365              	.LASF92:
 4366 0743 5F6E696F 		.ascii	"_niobs\000"
 4366      627300
 4367              	.LASF283:
 4368 074a 48414C5F 		.ascii	"HAL_RTC_AlarmAEventCallback\000"
 4368      5254435F 
 4368      416C6172 
 4368      6D414576 
 4368      656E7443 
 4369              	.LASF163:
 4370 0766 53504931 		.ascii	"SPI1_IRQn\000"
 4370      5F495251 
 4370      6E00
 4371              	.LASF88:
 4372 0770 5F5F7367 		.ascii	"__sglue\000"
 4372      6C756500 
 4373              	.LASF118:
 4374 0778 5F6E6D61 		.ascii	"_nmalloc\000"
 4374      6C6C6F63 
 4374      00
 4375              	.LASF125:
 4376 0781 646F7562 		.ascii	"double\000"
 4376      6C6500
 4377              	.LASF102:
 4378 0788 5F67616D 		.ascii	"_gamma_signgam\000"
 4378      6D615F73 
 4378      69676E67 
 4378      616D00
 4379              	.LASF192:
 4380 0797 41504232 		.ascii	"APB2RSTR\000"
 4380      52535452 
 4380      00
 4381              	.LASF208:
 4382 07a0 414C524D 		.ascii	"ALRMBR\000"
 4382      425200
 4383              	.LASF82:
 4384 07a7 5F667265 		.ascii	"_freelist\000"
 4384      656C6973 
 4384      7400
 4385              	.LASF93:
 4386 07b1 5F696F62 		.ascii	"_iobs\000"
 4386      7300
 4387              	.LASF91:
 4388 07b7 5F676C75 		.ascii	"_glue\000"
 4388      6500
ARM GAS  C:\Users\EBANO_~1\AppData\Local\Temp\cca8j2GX.s 			page 88


 4389              	.LASF213:
 4390 07bd 43414C52 		.ascii	"CALR\000"
 4390      00
 4391              	.LASF27:
 4392 07c2 5F736967 		.ascii	"_sign\000"
 4392      6E00
 4393              	.LASF147:
 4394 07c8 5453435F 		.ascii	"TSC_IRQn\000"
 4394      4952516E 
 4394      00
 4395              	.LASF260:
 4396 07d1 48414C5F 		.ascii	"HAL_RTC_STATE_TIMEOUT\000"
 4396      5254435F 
 4396      53544154 
 4396      455F5449 
 4396      4D454F55 
 4397              	.LASF124:
 4398 07e7 666C6F61 		.ascii	"float\000"
 4398      7400
 4399              	.LASF244:
 4400 07ed 4D534943 		.ascii	"MSICalibrationValue\000"
 4400      616C6962 
 4400      72617469 
 4400      6F6E5661 
 4400      6C756500 
 4401              	.LASF0:
 4402 0801 756E7369 		.ascii	"unsigned int\000"
 4402      676E6564 
 4402      20696E74 
 4402      00
 4403              	.LASF156:
 4404 080e 54494D36 		.ascii	"TIM6_DAC_IRQn\000"
 4404      5F444143 
 4404      5F495251 
 4404      6E00
 4405              	.LASF267:
 4406 081c 4F757450 		.ascii	"OutPutRemap\000"
 4406      75745265 
 4406      6D617000 
 4407              	.LASF116:
 4408 0828 5F685F65 		.ascii	"_h_errno\000"
 4408      72726E6F 
 4408      00
 4409              	.LASF114:
 4410 0831 5F776372 		.ascii	"_wcrtomb_state\000"
 4410      746F6D62 
 4410      5F737461 
 4410      746500
 4411              	.LASF34:
 4412 0840 5F5F746D 		.ascii	"__tm_mday\000"
 4412      5F6D6461 
 4412      7900
 4413              	.LASF149:
 4414 084a 444D4131 		.ascii	"DMA1_Channel2_3_IRQn\000"
 4414      5F436861 
 4414      6E6E656C 
 4414      325F335F 
ARM GAS  C:\Users\EBANO_~1\AppData\Local\Temp\cca8j2GX.s 			page 89


 4414      4952516E 
 4415              	.LASF85:
 4416 085f 5F6E6577 		.ascii	"_new\000"
 4416      00
 4417              	.LASF60:
 4418 0864 5F756275 		.ascii	"_ubuf\000"
 4418      6600
 4419              	.LASF72:
 4420 086a 5F737464 		.ascii	"_stderr\000"
 4420      65727200 
 4421              	.LASF107:
 4422 0872 5F776374 		.ascii	"_wctomb_state\000"
 4422      6F6D625F 
 4422      73746174 
 4422      6500
 4423              	.LASF66:
 4424 0880 5F6D6273 		.ascii	"_mbstate\000"
 4424      74617465 
 4424      00
 4425              	.LASF103:
 4426 0889 5F72616E 		.ascii	"_rand_next\000"
 4426      645F6E65 
 4426      787400
 4427              	.LASF52:
 4428 0894 5F666C61 		.ascii	"_flags\000"
 4428      677300
 4429              	.LASF272:
 4430 089b 496E6974 		.ascii	"Init\000"
 4430      00
 4431              	.LASF45:
 4432 08a0 5F617465 		.ascii	"_atexit\000"
 4432      78697400 
 4433              	.LASF174:
 4434 08a8 50454352 		.ascii	"PECR\000"
 4434      00
 4435              	.LASF294:
 4436 08ad 5469636B 		.ascii	"TickPriority\000"
 4436      5072696F 
 4436      72697479 
 4436      00
 4437              	.LASF161:
 4438 08ba 49324331 		.ascii	"I2C1_IRQn\000"
 4438      5F495251 
 4438      6E00
 4439              	.LASF19:
 4440 08c4 5F5F636F 		.ascii	"__count\000"
 4440      756E7400 
 4441              	.LASF286:
 4442 08cc 48414C5F 		.ascii	"HAL_RTC_MspInit\000"
 4442      5254435F 
 4442      4D737049 
 4442      6E697400 
 4443              	.LASF37:
 4444 08dc 5F5F746D 		.ascii	"__tm_wday\000"
 4444      5F776461 
 4444      7900
 4445              	.LASF2:
ARM GAS  C:\Users\EBANO_~1\AppData\Local\Temp\cca8j2GX.s 			page 90


 4446 08e6 6C6F6E67 		.ascii	"long double\000"
 4446      20646F75 
 4446      626C6500 
 4447              	.LASF38:
 4448 08f2 5F5F746D 		.ascii	"__tm_yday\000"
 4448      5F796461 
 4448      7900
 4449              	.LASF95:
 4450 08fc 5F736565 		.ascii	"_seed\000"
 4450      6400
 4451              	.LASF58:
 4452 0902 5F736565 		.ascii	"_seek\000"
 4452      6B00
 4453              	.LASF15:
 4454 0908 5F66706F 		.ascii	"_fpos_t\000"
 4454      735F7400 
 4455              	.LASF225:
 4456 0910 48414C5F 		.ascii	"HAL_BUSY\000"
 4456      42555359 
 4456      00
 4457              	.LASF18:
 4458 0919 5F5F7763 		.ascii	"__wchb\000"
 4458      686200
 4459              	.LASF193:
 4460 0920 41504231 		.ascii	"APB1RSTR\000"
 4460      52535452 
 4460      00
 4461              	.LASF293:
 4462 0929 48414C5F 		.ascii	"HAL_InitTick\000"
 4462      496E6974 
 4462      5469636B 
 4462      00
 4463              	.LASF171:
 4464 0936 41484250 		.ascii	"AHBPrescTable\000"
 4464      72657363 
 4464      5461626C 
 4464      6500
 4465              	.LASF106:
 4466 0944 5F6D6274 		.ascii	"_mbtowc_state\000"
 4466      6F77635F 
 4466      73746174 
 4466      6500
 4467              	.LASF12:
 4468 0952 6C6F6E67 		.ascii	"long long unsigned int\000"
 4468      206C6F6E 
 4468      6720756E 
 4468      7369676E 
 4468      65642069 
 4469              	.LASF282:
 4470 0969 48414C5F 		.ascii	"HAL_GPIO_EXTI_Callback\000"
 4470      4750494F 
 4470      5F455854 
 4470      495F4361 
 4470      6C6C6261 
 4471              	.LASF132:
 4472 0980 75696E74 		.ascii	"uint16_t\000"
 4472      31365F74 
ARM GAS  C:\Users\EBANO_~1\AppData\Local\Temp\cca8j2GX.s 			page 91


 4472      00
 4473              	.LASF275:
 4474 0989 5254435F 		.ascii	"RTC_HandleTypeDef\000"
 4474      48616E64 
 4474      6C655479 
 4474      70654465 
 4474      6600
 4475              	.LASF42:
 4476 099b 5F64736F 		.ascii	"_dso_handle\000"
 4476      5F68616E 
 4476      646C6500 
 4477              	.LASF150:
 4478 09a7 444D4131 		.ascii	"DMA1_Channel4_5_6_7_IRQn\000"
 4478      5F436861 
 4478      6E6E656C 
 4478      345F355F 
 4478      365F375F 
 4479              	.LASF94:
 4480 09c0 5F72616E 		.ascii	"_rand48\000"
 4480      64343800 
 4481              	.LASF155:
 4482 09c8 54494D33 		.ascii	"TIM3_IRQn\000"
 4482      5F495251 
 4482      6E00
 4483              	.LASF224:
 4484 09d2 48414C5F 		.ascii	"HAL_ERROR\000"
 4484      4552524F 
 4484      5200
 4485              	.LASF71:
 4486 09dc 5F737464 		.ascii	"_stdout\000"
 4486      6F757400 
 4487              	.LASF165:
 4488 09e4 55534152 		.ascii	"USART1_IRQn\000"
 4488      54315F49 
 4488      52516E00 
 4489              	.LASF274:
 4490 09f0 53746174 		.ascii	"State\000"
 4490      6500
 4491              	.LASF235:
 4492 09f6 5243435F 		.ascii	"RCC_PLLInitTypeDef\000"
 4492      504C4C49 
 4492      6E697454 
 4492      79706544 
 4492      656600
 4493              	.LASF310:
 4494 0a09 5F5F6664 		.ascii	"__fdlibm_version\000"
 4494      6C69626D 
 4494      5F766572 
 4494      73696F6E 
 4494      00
 4495              	.LASF228:
 4496 0a1a 48414C5F 		.ascii	"HAL_UNLOCKED\000"
 4496      554E4C4F 
 4496      434B4544 
 4496      00
 4497              	.LASF62:
 4498 0a27 5F626C6B 		.ascii	"_blksize\000"
ARM GAS  C:\Users\EBANO_~1\AppData\Local\Temp\cca8j2GX.s 			page 92


 4498      73697A65 
 4498      00
 4499              	.LASF261:
 4500 0a30 48414C5F 		.ascii	"HAL_RTC_STATE_ERROR\000"
 4500      5254435F 
 4500      53544154 
 4500      455F4552 
 4500      524F5200 
 4501              	.LASF268:
 4502 0a44 4F757450 		.ascii	"OutPutPolarity\000"
 4502      7574506F 
 4502      6C617269 
 4502      747900
 4503              	.LASF49:
 4504 0a53 5F626173 		.ascii	"_base\000"
 4504      6500
 4505              	.LASF194:
 4506 0a59 494F5045 		.ascii	"IOPENR\000"
 4506      4E5200
 4507              	.LASF99:
 4508 0a60 5F737472 		.ascii	"_strtok_last\000"
 4508      746F6B5F 
 4508      6C617374 
 4508      00
 4509              	.LASF112:
 4510 0a6d 5F6D6272 		.ascii	"_mbrtowc_state\000"
 4510      746F7763 
 4510      5F737461 
 4510      746500
 4511              	.LASF22:
 4512 0a7c 5F666C6F 		.ascii	"_flock_t\000"
 4512      636B5F74 
 4512      00
 4513              	.LASF90:
 4514 0a85 5F5F4649 		.ascii	"__FILE\000"
 4514      4C4500
 4515              	.LASF21:
 4516 0a8c 5F6D6273 		.ascii	"_mbstate_t\000"
 4516      74617465 
 4516      5F7400
 4517              	.LASF104:
 4518 0a97 5F723438 		.ascii	"_r48\000"
 4518      00
 4519              	.LASF140:
 4520 0a9c 5056445F 		.ascii	"PVD_IRQn\000"
 4520      4952516E 
 4520      00
 4521              	.LASF16:
 4522 0aa5 77696E74 		.ascii	"wint_t\000"
 4522      5F7400
 4523              	.LASF25:
 4524 0aac 5F6E6578 		.ascii	"_next\000"
 4524      7400
 4525              	.LASF240:
 4526 0ab2 48534943 		.ascii	"HSICalibrationValue\000"
 4526      616C6962 
 4526      72617469 
ARM GAS  C:\Users\EBANO_~1\AppData\Local\Temp\cca8j2GX.s 			page 93


 4526      6F6E5661 
 4526      6C756500 
 4527              	.LASF64:
 4528 0ac6 5F646174 		.ascii	"_data\000"
 4528      6100
 4529              	.LASF234:
 4530 0acc 504C4C44 		.ascii	"PLLDIV\000"
 4530      495600
 4531              	.LASF301:
 4532 0ad3 48414C5F 		.ascii	"HAL_NVIC_EnableIRQ\000"
 4532      4E564943 
 4532      5F456E61 
 4532      626C6549 
 4532      525100
 4533              	.LASF298:
 4534 0ae6 48414C5F 		.ascii	"HAL_RCCEx_PeriphCLKConfig\000"
 4534      52434345 
 4534      785F5065 
 4534      72697068 
 4534      434C4B43 
 4535              	.LASF252:
 4536 0b00 49326331 		.ascii	"I2c1ClockSelection\000"
 4536      436C6F63 
 4536      6B53656C 
 4536      65637469 
 4536      6F6E00
 4537              	.LASF281:
 4538 0b13 4750494F 		.ascii	"GPIO_Pin\000"
 4538      5F50696E 
 4538      00
 4539              	.LASF158:
 4540 0b1c 54494D32 		.ascii	"TIM21_IRQn\000"
 4540      315F4952 
 4540      516E00
 4541              	.LASF254:
 4542 0b27 4C707469 		.ascii	"LptimClockSelection\000"
 4542      6D436C6F 
 4542      636B5365 
 4542      6C656374 
 4542      696F6E00 
 4543              	.LASF129:
 4544 0b3b 5F5F6664 		.ascii	"__fdlibm_posix\000"
 4544      6C69626D 
 4544      5F706F73 
 4544      697800
 4545              	.LASF287:
 4546 0b4a 5243435F 		.ascii	"RCC_OscInitStruct\000"
 4546      4F736349 
 4546      6E697453 
 4546      74727563 
 4546      7400
 4547              	.LASF209:
 4548 0b5c 53484946 		.ascii	"SHIFTR\000"
 4548      545200
 4549              	.LASF172:
 4550 0b63 41504250 		.ascii	"APBPrescTable\000"
 4550      72657363 
ARM GAS  C:\Users\EBANO_~1\AppData\Local\Temp\cca8j2GX.s 			page 94


 4550      5461626C 
 4550      6500
 4551              	.LASF203:
 4552 0b71 5243435F 		.ascii	"RCC_TypeDef\000"
 4552      54797065 
 4552      44656600 
 4553              	.LASF151:
 4554 0b7d 41444331 		.ascii	"ADC1_COMP_IRQn\000"
 4554      5F434F4D 
 4554      505F4952 
 4554      516E00
 4555              	.LASF105:
 4556 0b8c 5F6D626C 		.ascii	"_mblen_state\000"
 4556      656E5F73 
 4556      74617465 
 4556      00
 4557              	.LASF5:
 4558 0b99 73686F72 		.ascii	"short int\000"
 4558      7420696E 
 4558      7400
 4559              	.LASF128:
 4560 0ba3 5F5F6664 		.ascii	"__fdlibm_xopen\000"
 4560      6C69626D 
 4560      5F786F70 
 4560      656E00
 4561              	.LASF259:
 4562 0bb2 48414C5F 		.ascii	"HAL_RTC_STATE_BUSY\000"
 4562      5254435F 
 4562      53544154 
 4562      455F4255 
 4562      535900
 4563              	.LASF307:
 4564 0bc5 474E5520 		.ascii	"GNU C11 7.3.1 20180622 (release) [ARM/embedded-7-br"
 4564      43313120 
 4564      372E332E 
 4564      31203230 
 4564      31383036 
 4565 0bf8 616E6368 		.ascii	"anch revision 261907] -mcpu=cortex-m0plus -mthumb -"
 4565      20726576 
 4565      6973696F 
 4565      6E203236 
 4565      31393037 
 4566 0c2b 6D666C6F 		.ascii	"mfloat-abi=soft -gdwarf-2 -O3 -ffunction-sections\000"
 4566      61742D61 
 4566      62693D73 
 4566      6F667420 
 4566      2D676477 
 4567              	.LASF302:
 4568 0c5d 48414C5F 		.ascii	"HAL_PWR_DisablePVD\000"
 4568      5057525F 
 4568      44697361 
 4568      626C6550 
 4568      564400
 4569              	.LASF276:
 4570 0c70 7375626F 		.ascii	"suboptarg\000"
 4570      70746172 
 4570      6700
ARM GAS  C:\Users\EBANO_~1\AppData\Local\Temp\cca8j2GX.s 			page 95


 4571              	.LASF43:
 4572 0c7a 5F666E74 		.ascii	"_fntypes\000"
 4572      79706573 
 4572      00
 4573              	.LASF36:
 4574 0c83 5F5F746D 		.ascii	"__tm_year\000"
 4574      5F796561 
 4574      7200
 4575              	.LASF195:
 4576 0c8d 41484245 		.ascii	"AHBENR\000"
 4576      4E5200
 4577              	.LASF269:
 4578 0c94 4F757450 		.ascii	"OutPutType\000"
 4578      75745479 
 4578      706500
 4579              	.LASF243:
 4580 0c9f 4D534953 		.ascii	"MSIState\000"
 4580      74617465 
 4580      00
 4581              	.LASF189:
 4582 0ca8 43494352 		.ascii	"CICR\000"
 4582      00
 4583              	.LASF54:
 4584 0cad 5F6C6266 		.ascii	"_lbfsize\000"
 4584      73697A65 
 4584      00
 4585              	.LASF73:
 4586 0cb6 5F696E63 		.ascii	"_inc\000"
 4586      00
 4587              	.LASF46:
 4588 0cbb 5F696E64 		.ascii	"_ind\000"
 4588      00
 4589              	.LASF153:
 4590 0cc0 55534152 		.ascii	"USART4_5_IRQn\000"
 4590      54345F35 
 4590      5F495251 
 4590      6E00
 4591              	.LASF126:
 4592 0cce 5F5F6664 		.ascii	"__fdlibm_ieee\000"
 4592      6C69626D 
 4592      5F696565 
 4592      6500
 4593              	.LASF48:
 4594 0cdc 5F5F7362 		.ascii	"__sbuf\000"
 4594      756600
 4595              	.LASF44:
 4596 0ce3 5F69735F 		.ascii	"_is_cxa\000"
 4596      63786100 
 4597              	.LASF13:
 4598 0ceb 5F4C4F43 		.ascii	"_LOCK_T\000"
 4598      4B5F5400 
 4599              	.LASF266:
 4600 0cf3 4F757450 		.ascii	"OutPut\000"
 4600      757400
 4601              	.LASF117:
 4602 0cfa 5F6E6578 		.ascii	"_nextf\000"
 4602      746600
ARM GAS  C:\Users\EBANO_~1\AppData\Local\Temp\cca8j2GX.s 			page 96


 4603              	.LASF179:
 4604 0d01 4F505452 		.ascii	"OPTR\000"
 4604      00
 4605              	.LASF183:
 4606 0d06 464C4153 		.ascii	"FLASH_TypeDef\000"
 4606      485F5479 
 4606      70654465 
 4606      6600
 4607              	.LASF76:
 4608 0d14 5F6C6F63 		.ascii	"_locale\000"
 4608      616C6500 
 4609              	.LASF24:
 4610 0d1c 5F5F554C 		.ascii	"__ULong\000"
 4610      6F6E6700 
 4611              	.LASF306:
 4612 0d24 48575F52 		.ascii	"HW_RTC_DelayMs\000"
 4612      54435F44 
 4612      656C6179 
 4612      4D7300
 4613              	.LASF133:
 4614 0d33 75696E74 		.ascii	"uint32_t\000"
 4614      33325F74 
 4614      00
 4615              	.LASF79:
 4616 0d3c 5F726573 		.ascii	"_result\000"
 4616      756C7400 
 4617              	.LASF145:
 4618 0d44 45585449 		.ascii	"EXTI2_3_IRQn\000"
 4618      325F335F 
 4618      4952516E 
 4618      00
 4619              	.LASF187:
 4620 0d51 43494552 		.ascii	"CIER\000"
 4620      00
 4621              	.LASF14:
 4622 0d56 5F6F6666 		.ascii	"_off_t\000"
 4622      5F7400
 4623              	.LASF229:
 4624 0d5d 48414C5F 		.ascii	"HAL_LOCKED\000"
 4624      4C4F434B 
 4624      454400
 4625              	.LASF97:
 4626 0d68 5F616464 		.ascii	"_add\000"
 4626      00
 4627              	.LASF226:
 4628 0d6d 48414C5F 		.ascii	"HAL_TIMEOUT\000"
 4628      54494D45 
 4628      4F555400 
 4629              	.LASF8:
 4630 0d79 73686F72 		.ascii	"short unsigned int\000"
 4630      7420756E 
 4630      7369676E 
 4630      65642069 
 4630      6E7400
 4631              	.LASF33:
 4632 0d8c 5F5F746D 		.ascii	"__tm_hour\000"
 4632      5F686F75 
ARM GAS  C:\Users\EBANO_~1\AppData\Local\Temp\cca8j2GX.s 			page 97


 4632      7200
 4633              	.LASF205:
 4634 0d96 57555452 		.ascii	"WUTR\000"
 4634      00
 4635              	.LASF231:
 4636 0d9b 504C4C53 		.ascii	"PLLState\000"
 4636      74617465 
 4636      00
 4637              	.LASF200:
 4638 0da4 41504232 		.ascii	"APB2SMENR\000"
 4638      534D454E 
 4638      5200
 4639              	.LASF137:
 4640 0dae 50656E64 		.ascii	"PendSV_IRQn\000"
 4640      53565F49 
 4640      52516E00 
 4641              	.LASF113:
 4642 0dba 5F6D6273 		.ascii	"_mbsrtowcs_state\000"
 4642      72746F77 
 4642      63735F73 
 4642      74617465 
 4642      00
 4643              	.LASF236:
 4644 0dcb 4F736369 		.ascii	"OscillatorType\000"
 4644      6C6C6174 
 4644      6F725479 
 4644      706500
 4645              	.LASF188:
 4646 0dda 43494652 		.ascii	"CIFR\000"
 4646      00
 4647              	.LASF296:
 4648 0ddf 54696D65 		.ascii	"TimerIrqHandler\000"
 4648      72497271 
 4648      48616E64 
 4648      6C657200 
 4649              	.LASF245:
 4650 0def 4D534943 		.ascii	"MSIClockRange\000"
 4650      6C6F636B 
 4650      52616E67 
 4650      6500
 4651              	.LASF217:
 4652 0dfd 424B5030 		.ascii	"BKP0R\000"
 4652      5200
 4653              	.LASF41:
 4654 0e03 5F666E61 		.ascii	"_fnargs\000"
 4654      72677300 
 4655              	.LASF212:
 4656 0e0b 54535353 		.ascii	"TSSSR\000"
 4656      5200
 4657              	.LASF39:
 4658 0e11 5F5F746D 		.ascii	"__tm_isdst\000"
 4658      5F697364 
 4658      737400
 4659              	.LASF233:
 4660 0e1c 504C4C4D 		.ascii	"PLLMUL\000"
 4660      554C00
 4661              	.LASF160:
ARM GAS  C:\Users\EBANO_~1\AppData\Local\Temp\cca8j2GX.s 			page 98


 4662 0e23 54494D32 		.ascii	"TIM22_IRQn\000"
 4662      325F4952 
 4662      516E00
 4663              	.LASF278:
 4664 0e2e 5F646179 		.ascii	"_daylight\000"
 4664      6C696768 
 4664      7400
 4665              	.LASF190:
 4666 0e38 494F5052 		.ascii	"IOPRSTR\000"
 4666      53545200 
 4667              	.LASF32:
 4668 0e40 5F5F746D 		.ascii	"__tm_min\000"
 4668      5F6D696E 
 4668      00
 4669              	.LASF215:
 4670 0e49 414C524D 		.ascii	"ALRMASSR\000"
 4670      41535352 
 4670      00
 4671              	.LASF214:
 4672 0e52 54414D50 		.ascii	"TAMPCR\000"
 4672      435200
 4673              	.LASF110:
 4674 0e59 5F676574 		.ascii	"_getdate_err\000"
 4674      64617465 
 4674      5F657272 
 4674      00
 4675              	.LASF141:
 4676 0e66 5254435F 		.ascii	"RTC_IRQn\000"
 4676      4952516E 
 4676      00
 4677              	.LASF218:
 4678 0e6f 424B5031 		.ascii	"BKP1R\000"
 4678      5200
 4679              		.ident	"GCC: (GNU Tools for Arm Embedded Processors 7-2018-q2-update) 7.3.1 20180622 (release) [AR
ARM GAS  C:\Users\EBANO_~1\AppData\Local\Temp\cca8j2GX.s 			page 99


DEFINED SYMBOLS
                            *ABS*:00000000 mlm32l0xx_hal_msp.c
C:\Users\EBANO_~1\AppData\Local\Temp\cca8j2GX.s:16     .text.HAL_InitTick:00000000 $t
C:\Users\EBANO_~1\AppData\Local\Temp\cca8j2GX.s:24     .text.HAL_InitTick:00000000 HAL_InitTick
C:\Users\EBANO_~1\AppData\Local\Temp\cca8j2GX.s:42     .text.HAL_Delay:00000000 $t
C:\Users\EBANO_~1\AppData\Local\Temp\cca8j2GX.s:50     .text.HAL_Delay:00000000 HAL_Delay
C:\Users\EBANO_~1\AppData\Local\Temp\cca8j2GX.s:79     .text.HAL_MspInit:00000000 $t
C:\Users\EBANO_~1\AppData\Local\Temp\cca8j2GX.s:87     .text.HAL_MspInit:00000000 HAL_MspInit
C:\Users\EBANO_~1\AppData\Local\Temp\cca8j2GX.s:133    .text.HAL_MspInit:0000002c $d
C:\Users\EBANO_~1\AppData\Local\Temp\cca8j2GX.s:139    .text.HAL_RTC_MspInit:00000000 $t
C:\Users\EBANO_~1\AppData\Local\Temp\cca8j2GX.s:147    .text.HAL_RTC_MspInit:00000000 HAL_RTC_MspInit
C:\Users\EBANO_~1\AppData\Local\Temp\cca8j2GX.s:233    .text.HAL_RTC_MspInit:0000005c $d
C:\Users\EBANO_~1\AppData\Local\Temp\cca8j2GX.s:238    .text.HAL_RTC_MspDeInit:00000000 $t
C:\Users\EBANO_~1\AppData\Local\Temp\cca8j2GX.s:246    .text.HAL_RTC_MspDeInit:00000000 HAL_RTC_MspDeInit
C:\Users\EBANO_~1\AppData\Local\Temp\cca8j2GX.s:268    .text.HAL_RTC_MspDeInit:0000000c $d
C:\Users\EBANO_~1\AppData\Local\Temp\cca8j2GX.s:274    .text.HAL_RTC_AlarmAEventCallback:00000000 $t
C:\Users\EBANO_~1\AppData\Local\Temp\cca8j2GX.s:282    .text.HAL_RTC_AlarmAEventCallback:00000000 HAL_RTC_AlarmAEventCallback
C:\Users\EBANO_~1\AppData\Local\Temp\cca8j2GX.s:304    .text.HAL_GPIO_EXTI_Callback:00000000 $t
C:\Users\EBANO_~1\AppData\Local\Temp\cca8j2GX.s:312    .text.HAL_GPIO_EXTI_Callback:00000000 HAL_GPIO_EXTI_Callback
C:\Users\EBANO_~1\AppData\Local\Temp\cca8j2GX.s:334    .text.MSP_GetIRQn:00000000 $t
C:\Users\EBANO_~1\AppData\Local\Temp\cca8j2GX.s:342    .text.MSP_GetIRQn:00000000 MSP_GetIRQn

UNDEFINED SYMBOLS
HW_RTC_DelayMs
HAL_PWR_DisablePVD
HAL_PWREx_EnableUltraLowPower
HAL_PWREx_EnableFastWakeUp
HW_GpioInit
HAL_RCC_OscConfig
HAL_RCCEx_PeriphCLKConfig
Error_Handler
HAL_NVIC_SetPriority
HAL_NVIC_EnableIRQ
TimerIrqHandler
HW_GPIO_IrqHandler
