ARM GAS  C:\Users\EBANO_~1\AppData\Local\Temp\cca8j2GX.s 			page 1


   1              		.cpu cortex-m0plus
   2              		.eabi_attribute 20, 1
   3              		.eabi_attribute 21, 1
   4              		.eabi_attribute 23, 3
   5              		.eabi_attribute 24, 1
   6              		.eabi_attribute 25, 1
   7              		.eabi_attribute 26, 1
   8              		.eabi_attribute 30, 2
   9              		.eabi_attribute 34, 0
  10              		.eabi_attribute 18, 4
  11              		.file	"mlm32l0xx_hal_msp.c"
  12              		.text
  13              	.Ltext0:
  14              		.cfi_sections	.debug_frame
  15              		.section	.text.HAL_InitTick,"ax",%progbits
  16              		.align	1
  17              		.p2align 2,,3
  18              		.global	HAL_InitTick
  19              		.syntax unified
  20              		.code	16
  21              		.thumb_func
  22              		.fpu softvfp
  23              		.type	HAL_InitTick, %function
  24              	HAL_InitTick:
  25              	.LFB39:
  26              		.file 1 "../Core/src/mlm32l0xx_hal_msp.c"
   1:../Core/src/mlm32l0xx_hal_msp.c **** /**
   2:../Core/src/mlm32l0xx_hal_msp.c ****   ******************************************************************************
   3:../Core/src/mlm32l0xx_hal_msp.c ****   * @file    mlm32l0xx_hal_msp.c
   4:../Core/src/mlm32l0xx_hal_msp.c ****   * @author  MCD Application Team
   5:../Core/src/mlm32l0xx_hal_msp.c ****   * @brief   msp file for HAL
   6:../Core/src/mlm32l0xx_hal_msp.c ****   ******************************************************************************
   7:../Core/src/mlm32l0xx_hal_msp.c ****   * @attention
   8:../Core/src/mlm32l0xx_hal_msp.c ****   *
   9:../Core/src/mlm32l0xx_hal_msp.c ****   * <h2><center>&copy; Copyright (c) 2018 STMicroelectronics.
  10:../Core/src/mlm32l0xx_hal_msp.c ****   * All rights reserved.</center></h2>
  11:../Core/src/mlm32l0xx_hal_msp.c ****   *
  12:../Core/src/mlm32l0xx_hal_msp.c ****   * This software component is licensed by ST under Ultimate Liberty license
  13:../Core/src/mlm32l0xx_hal_msp.c ****   * SLA0044, the "License"; You may not use this file except in compliance with
  14:../Core/src/mlm32l0xx_hal_msp.c ****   * the License. You may obtain a copy of the License at:
  15:../Core/src/mlm32l0xx_hal_msp.c ****   *                             www.st.com/SLA0044
  16:../Core/src/mlm32l0xx_hal_msp.c ****   *
  17:../Core/src/mlm32l0xx_hal_msp.c ****   ******************************************************************************
  18:../Core/src/mlm32l0xx_hal_msp.c ****   */
  19:../Core/src/mlm32l0xx_hal_msp.c **** 
  20:../Core/src/mlm32l0xx_hal_msp.c **** /* Includes ------------------------------------------------------------------*/
  21:../Core/src/mlm32l0xx_hal_msp.c **** #include "hw.h"
  22:../Core/src/mlm32l0xx_hal_msp.c **** #include "timeServer.h"
  23:../Core/src/mlm32l0xx_hal_msp.c **** /* when fast wake up is enabled, the mcu wakes up in ~20us  * and 
  24:../Core/src/mlm32l0xx_hal_msp.c ****  * does not wait for the VREFINT to be settled. THis is ok for 
  25:../Core/src/mlm32l0xx_hal_msp.c ****  * most of the case except when adc must be used in this case before 
  26:../Core/src/mlm32l0xx_hal_msp.c ****  *starting the adc, you must make sure VREFINT is settled*/
  27:../Core/src/mlm32l0xx_hal_msp.c **** #define ENABLE_FAST_WAKEUP
  28:../Core/src/mlm32l0xx_hal_msp.c **** 
  29:../Core/src/mlm32l0xx_hal_msp.c **** /* Private typedef -----------------------------------------------------------*/
  30:../Core/src/mlm32l0xx_hal_msp.c **** /* Private define ------------------------------------------------------------*/
  31:../Core/src/mlm32l0xx_hal_msp.c **** /* Private macro -------------------------------------------------------------*/
ARM GAS  C:\Users\EBANO_~1\AppData\Local\Temp\cca8j2GX.s 			page 2


  32:../Core/src/mlm32l0xx_hal_msp.c **** /* Private variables ---------------------------------------------------------*/
  33:../Core/src/mlm32l0xx_hal_msp.c **** /* Private function prototypes -----------------------------------------------*/
  34:../Core/src/mlm32l0xx_hal_msp.c **** /* Private functions ---------------------------------------------------------*/
  35:../Core/src/mlm32l0xx_hal_msp.c **** 
  36:../Core/src/mlm32l0xx_hal_msp.c **** /**
  37:../Core/src/mlm32l0xx_hal_msp.c ****   * @brief This function configures the source of the time base.
  38:../Core/src/mlm32l0xx_hal_msp.c ****   * @brief  don't enable systick
  39:../Core/src/mlm32l0xx_hal_msp.c ****   * @param TickPriority: Tick interrupt priority.
  40:../Core/src/mlm32l0xx_hal_msp.c ****   * @retval HAL status
  41:../Core/src/mlm32l0xx_hal_msp.c ****   */
  42:../Core/src/mlm32l0xx_hal_msp.c **** HAL_StatusTypeDef HAL_InitTick(uint32_t TickPriority)
  43:../Core/src/mlm32l0xx_hal_msp.c **** {
  27              		.loc 1 43 0
  28              		.cfi_startproc
  29              		@ args = 0, pretend = 0, frame = 0
  30              		@ frame_needed = 0, uses_anonymous_args = 0
  31              		@ link register save eliminated.
  32              	.LVL0:
  44:../Core/src/mlm32l0xx_hal_msp.c ****    /* Return function status */
  45:../Core/src/mlm32l0xx_hal_msp.c ****   return HAL_OK;
  46:../Core/src/mlm32l0xx_hal_msp.c **** }
  33              		.loc 1 46 0
  34 0000 0020     		movs	r0, #0
  35              	.LVL1:
  36              		@ sp needed
  37 0002 7047     		bx	lr
  38              		.cfi_endproc
  39              	.LFE39:
  40              		.size	HAL_InitTick, .-HAL_InitTick
  41              		.section	.text.HAL_Delay,"ax",%progbits
  42              		.align	1
  43              		.p2align 2,,3
  44              		.global	HAL_Delay
  45              		.syntax unified
  46              		.code	16
  47              		.thumb_func
  48              		.fpu softvfp
  49              		.type	HAL_Delay, %function
  50              	HAL_Delay:
  51              	.LFB40:
  47:../Core/src/mlm32l0xx_hal_msp.c **** 
  48:../Core/src/mlm32l0xx_hal_msp.c **** /**
  49:../Core/src/mlm32l0xx_hal_msp.c ****   * @brief This function provides delay (in ms)
  50:../Core/src/mlm32l0xx_hal_msp.c ****   * @param Delay: specifies the delay time length, in milliseconds.
  51:../Core/src/mlm32l0xx_hal_msp.c ****   * @retval None
  52:../Core/src/mlm32l0xx_hal_msp.c ****   */
  53:../Core/src/mlm32l0xx_hal_msp.c **** void HAL_Delay(__IO uint32_t Delay)
  54:../Core/src/mlm32l0xx_hal_msp.c **** {
  52              		.loc 1 54 0
  53              		.cfi_startproc
  54              		@ args = 0, pretend = 0, frame = 8
  55              		@ frame_needed = 0, uses_anonymous_args = 0
  56              	.LVL2:
  57 0000 00B5     		push	{lr}
  58              	.LCFI0:
  59              		.cfi_def_cfa_offset 4
  60              		.cfi_offset 14, -4
ARM GAS  C:\Users\EBANO_~1\AppData\Local\Temp\cca8j2GX.s 			page 3


  61 0002 83B0     		sub	sp, sp, #12
  62              	.LCFI1:
  63              		.cfi_def_cfa_offset 16
  64              		.loc 1 54 0
  65 0004 0190     		str	r0, [sp, #4]
  55:../Core/src/mlm32l0xx_hal_msp.c ****   HW_RTC_DelayMs( Delay ); /* based on RTC */
  66              		.loc 1 55 0
  67 0006 0198     		ldr	r0, [sp, #4]
  68              	.LVL3:
  69 0008 FFF7FEFF 		bl	HW_RTC_DelayMs
  70              	.LVL4:
  56:../Core/src/mlm32l0xx_hal_msp.c **** }
  71              		.loc 1 56 0
  72 000c 03B0     		add	sp, sp, #12
  73              		@ sp needed
  74 000e 00BD     		pop	{pc}
  75              		.cfi_endproc
  76              	.LFE40:
  77              		.size	HAL_Delay, .-HAL_Delay
  78              		.section	.text.HAL_MspInit,"ax",%progbits
  79              		.align	1
  80              		.p2align 2,,3
  81              		.global	HAL_MspInit
  82              		.syntax unified
  83              		.code	16
  84              		.thumb_func
  85              		.fpu softvfp
  86              		.type	HAL_MspInit, %function
  87              	HAL_MspInit:
  88              	.LFB41:
  57:../Core/src/mlm32l0xx_hal_msp.c **** 
  58:../Core/src/mlm32l0xx_hal_msp.c **** /**
  59:../Core/src/mlm32l0xx_hal_msp.c ****   * @brief  Initializes the MSP.
  60:../Core/src/mlm32l0xx_hal_msp.c ****   * @retval None
  61:../Core/src/mlm32l0xx_hal_msp.c ****   */
  62:../Core/src/mlm32l0xx_hal_msp.c **** void HAL_MspInit(void)
  63:../Core/src/mlm32l0xx_hal_msp.c **** {
  89              		.loc 1 63 0
  90              		.cfi_startproc
  91              		@ args = 0, pretend = 0, frame = 0
  92              		@ frame_needed = 0, uses_anonymous_args = 0
  64:../Core/src/mlm32l0xx_hal_msp.c ****   __HAL_RCC_PWR_CLK_ENABLE();
  93              		.loc 1 64 0
  94 0000 8023     		movs	r3, #128
  95 0002 0A4A     		ldr	r2, .L5
  96 0004 5B05     		lsls	r3, r3, #21
  97 0006 916B     		ldr	r1, [r2, #56]
  63:../Core/src/mlm32l0xx_hal_msp.c ****   __HAL_RCC_PWR_CLK_ENABLE();
  98              		.loc 1 63 0
  99 0008 10B5     		push	{r4, lr}
 100              	.LCFI2:
 101              		.cfi_def_cfa_offset 8
 102              		.cfi_offset 4, -8
 103              		.cfi_offset 14, -4
 104              		.loc 1 64 0
 105 000a 0B43     		orrs	r3, r1
 106 000c 9363     		str	r3, [r2, #56]
ARM GAS  C:\Users\EBANO_~1\AppData\Local\Temp\cca8j2GX.s 			page 4


  65:../Core/src/mlm32l0xx_hal_msp.c ****   
  66:../Core/src/mlm32l0xx_hal_msp.c ****   /* Disable the Power Voltage Detector */
  67:../Core/src/mlm32l0xx_hal_msp.c ****   HAL_PWR_DisablePVD( ); 
 107              		.loc 1 67 0
 108 000e FFF7FEFF 		bl	HAL_PWR_DisablePVD
 109              	.LVL5:
  68:../Core/src/mlm32l0xx_hal_msp.c **** 
  69:../Core/src/mlm32l0xx_hal_msp.c ****   /* Enables the Ultra Low Power mode */
  70:../Core/src/mlm32l0xx_hal_msp.c ****   HAL_PWREx_EnableUltraLowPower( );
 110              		.loc 1 70 0
 111 0012 FFF7FEFF 		bl	HAL_PWREx_EnableUltraLowPower
 112              	.LVL6:
  71:../Core/src/mlm32l0xx_hal_msp.c ****   
  72:../Core/src/mlm32l0xx_hal_msp.c ****   __HAL_FLASH_SLEEP_POWERDOWN_ENABLE();
 113              		.loc 1 72 0
 114 0016 0821     		movs	r1, #8
 115 0018 054A     		ldr	r2, .L5+4
  73:../Core/src/mlm32l0xx_hal_msp.c ****   
  74:../Core/src/mlm32l0xx_hal_msp.c ****   /*In debug mode, e.g. when DBGMCU is activated, Arm core has always clocks
  75:../Core/src/mlm32l0xx_hal_msp.c ****    * And will not wait that the FLACH is ready to be read. It can miss in this 
  76:../Core/src/mlm32l0xx_hal_msp.c ****    * case the first instruction. To overcome this issue, the flash remain clcoked during sleep mode
  77:../Core/src/mlm32l0xx_hal_msp.c ****    */
  78:../Core/src/mlm32l0xx_hal_msp.c ****   DBG( __HAL_FLASH_SLEEP_POWERDOWN_DISABLE(); );
  79:../Core/src/mlm32l0xx_hal_msp.c ****   
  80:../Core/src/mlm32l0xx_hal_msp.c **** #ifdef ENABLE_FAST_WAKEUP
  81:../Core/src/mlm32l0xx_hal_msp.c ****   /*Enable fast wakeUp*/  
  82:../Core/src/mlm32l0xx_hal_msp.c ****   HAL_PWREx_EnableFastWakeUp( );
  83:../Core/src/mlm32l0xx_hal_msp.c **** #else  
  84:../Core/src/mlm32l0xx_hal_msp.c ****   HAL_PWREx_DisableFastWakeUp( );
  85:../Core/src/mlm32l0xx_hal_msp.c **** #endif
  86:../Core/src/mlm32l0xx_hal_msp.c **** 
  87:../Core/src/mlm32l0xx_hal_msp.c ****   HW_GpioInit( );
  88:../Core/src/mlm32l0xx_hal_msp.c **** }
 116              		.loc 1 88 0
 117              		@ sp needed
  72:../Core/src/mlm32l0xx_hal_msp.c ****   
 118              		.loc 1 72 0
 119 001a 1368     		ldr	r3, [r2]
 120 001c 0B43     		orrs	r3, r1
 121 001e 1360     		str	r3, [r2]
  82:../Core/src/mlm32l0xx_hal_msp.c **** #else  
 122              		.loc 1 82 0
 123 0020 FFF7FEFF 		bl	HAL_PWREx_EnableFastWakeUp
 124              	.LVL7:
  87:../Core/src/mlm32l0xx_hal_msp.c **** }
 125              		.loc 1 87 0
 126 0024 FFF7FEFF 		bl	HW_GpioInit
 127              	.LVL8:
 128              		.loc 1 88 0
 129 0028 10BD     		pop	{r4, pc}
 130              	.L6:
 131 002a C046     		.align	2
 132              	.L5:
 133 002c 00100240 		.word	1073876992
 134 0030 00200240 		.word	1073881088
 135              		.cfi_endproc
 136              	.LFE41:
ARM GAS  C:\Users\EBANO_~1\AppData\Local\Temp\cca8j2GX.s 			page 5


 137              		.size	HAL_MspInit, .-HAL_MspInit
 138              		.section	.text.HAL_RTC_MspInit,"ax",%progbits
 139              		.align	1
 140              		.p2align 2,,3
 141              		.global	HAL_RTC_MspInit
 142              		.syntax unified
 143              		.code	16
 144              		.thumb_func
 145              		.fpu softvfp
 146              		.type	HAL_RTC_MspInit, %function
 147              	HAL_RTC_MspInit:
 148              	.LFB42:
  89:../Core/src/mlm32l0xx_hal_msp.c **** 
  90:../Core/src/mlm32l0xx_hal_msp.c **** /**
  91:../Core/src/mlm32l0xx_hal_msp.c ****   * @brief RTC MSP Initialization
  92:../Core/src/mlm32l0xx_hal_msp.c ****   *        This function configures the hardware resources used in this example:
  93:../Core/src/mlm32l0xx_hal_msp.c ****   *           - Peripheral's clock enable
  94:../Core/src/mlm32l0xx_hal_msp.c ****   * @param hrtc: RTC handle pointer
  95:../Core/src/mlm32l0xx_hal_msp.c ****   * @note  Care must be taken when HAL_RCCEx_PeriphCLKConfig() is used to select 
  96:../Core/src/mlm32l0xx_hal_msp.c ****   *        the RTC clock source; in this case the Backup domain will be reset in  
  97:../Core/src/mlm32l0xx_hal_msp.c ****   *        order to modify the RTC Clock source, as consequence RTC registers (including 
  98:../Core/src/mlm32l0xx_hal_msp.c ****   *        the backup registers) and RCC_CSR register are set to their reset values.  
  99:../Core/src/mlm32l0xx_hal_msp.c ****   * @retval None
 100:../Core/src/mlm32l0xx_hal_msp.c ****   */
 101:../Core/src/mlm32l0xx_hal_msp.c **** void HAL_RTC_MspInit(RTC_HandleTypeDef *hrtc)
 102:../Core/src/mlm32l0xx_hal_msp.c **** {
 149              		.loc 1 102 0
 150              		.cfi_startproc
 151              		@ args = 0, pretend = 0, frame = 96
 152              		@ frame_needed = 0, uses_anonymous_args = 0
 153              	.LVL9:
 103:../Core/src/mlm32l0xx_hal_msp.c ****   RCC_OscInitTypeDef RCC_OscInitStruct;
 104:../Core/src/mlm32l0xx_hal_msp.c ****   RCC_PeriphCLKInitTypeDef  PeriphClkInitStruct;
 105:../Core/src/mlm32l0xx_hal_msp.c **** 
 106:../Core/src/mlm32l0xx_hal_msp.c ****   /*##-1- Configue the RTC clock soucre ######################################*/
 107:../Core/src/mlm32l0xx_hal_msp.c ****   /* -a- Enable LSE Oscillator */
 108:../Core/src/mlm32l0xx_hal_msp.c ****   RCC_OscInitStruct.OscillatorType =  RCC_OSCILLATORTYPE_LSE;
 154              		.loc 1 108 0
 155 0000 0423     		movs	r3, #4
 102:../Core/src/mlm32l0xx_hal_msp.c ****   RCC_OscInitTypeDef RCC_OscInitStruct;
 156              		.loc 1 102 0
 157 0002 00B5     		push	{lr}
 158              	.LCFI3:
 159              		.cfi_def_cfa_offset 4
 160              		.cfi_offset 14, -4
 161 0004 99B0     		sub	sp, sp, #100
 162              	.LCFI4:
 163              		.cfi_def_cfa_offset 104
 164              		.loc 1 108 0
 165 0006 0A93     		str	r3, [sp, #40]
 109:../Core/src/mlm32l0xx_hal_msp.c ****   RCC_OscInitStruct.PLL.PLLState = RCC_PLL_NONE;
 166              		.loc 1 109 0
 167 0008 0023     		movs	r3, #0
 168 000a 1493     		str	r3, [sp, #80]
 110:../Core/src/mlm32l0xx_hal_msp.c ****   RCC_OscInitStruct.LSEState = RCC_LSE_ON;
 169              		.loc 1 110 0
 170 000c 0133     		adds	r3, r3, #1
ARM GAS  C:\Users\EBANO_~1\AppData\Local\Temp\cca8j2GX.s 			page 6


 171 000e FF33     		adds	r3, r3, #255
 111:../Core/src/mlm32l0xx_hal_msp.c ****   if(HAL_RCC_OscConfig(&RCC_OscInitStruct) != HAL_OK)
 172              		.loc 1 111 0
 173 0010 0AA8     		add	r0, sp, #40
 174              	.LVL10:
 110:../Core/src/mlm32l0xx_hal_msp.c ****   RCC_OscInitStruct.LSEState = RCC_LSE_ON;
 175              		.loc 1 110 0
 176 0012 0C93     		str	r3, [sp, #48]
 177              		.loc 1 111 0
 178 0014 FFF7FEFF 		bl	HAL_RCC_OscConfig
 179              	.LVL11:
 180 0018 0028     		cmp	r0, #0
 181 001a 1BD1     		bne	.L16
 182              	.L8:
 112:../Core/src/mlm32l0xx_hal_msp.c ****   {
 113:../Core/src/mlm32l0xx_hal_msp.c ****     Error_Handler();
 114:../Core/src/mlm32l0xx_hal_msp.c ****   }
 115:../Core/src/mlm32l0xx_hal_msp.c **** 
 116:../Core/src/mlm32l0xx_hal_msp.c ****   /* -b- Select LSI as RTC clock source */
 117:../Core/src/mlm32l0xx_hal_msp.c ****   PeriphClkInitStruct.PeriphClockSelection = RCC_PERIPHCLK_RTC;
 183              		.loc 1 117 0
 184 001c 2023     		movs	r3, #32
 185 001e 0193     		str	r3, [sp, #4]
 118:../Core/src/mlm32l0xx_hal_msp.c ****   PeriphClkInitStruct.RTCClockSelection = RCC_RTCCLKSOURCE_LSE;
 186              		.loc 1 118 0
 187 0020 8023     		movs	r3, #128
 119:../Core/src/mlm32l0xx_hal_msp.c ****   if(HAL_RCCEx_PeriphCLKConfig(&PeriphClkInitStruct) != HAL_OK)
 188              		.loc 1 119 0
 189 0022 01A8     		add	r0, sp, #4
 118:../Core/src/mlm32l0xx_hal_msp.c ****   PeriphClkInitStruct.RTCClockSelection = RCC_RTCCLKSOURCE_LSE;
 190              		.loc 1 118 0
 191 0024 5B02     		lsls	r3, r3, #9
 192 0026 0293     		str	r3, [sp, #8]
 193              		.loc 1 119 0
 194 0028 FFF7FEFF 		bl	HAL_RCCEx_PeriphCLKConfig
 195              	.LVL12:
 196 002c 0028     		cmp	r0, #0
 197 002e 01D0     		beq	.L9
 120:../Core/src/mlm32l0xx_hal_msp.c ****   { 
 121:../Core/src/mlm32l0xx_hal_msp.c ****     Error_Handler();
 198              		.loc 1 121 0
 199 0030 FFF7FEFF 		bl	Error_Handler
 200              	.LVL13:
 201              	.L9:
 122:../Core/src/mlm32l0xx_hal_msp.c ****   }
 123:../Core/src/mlm32l0xx_hal_msp.c **** 
 124:../Core/src/mlm32l0xx_hal_msp.c ****   /*##-2- Enable the RTC peripheral Clock ####################################*/
 125:../Core/src/mlm32l0xx_hal_msp.c ****   /* Enable RTC Clock */
 126:../Core/src/mlm32l0xx_hal_msp.c ****   __HAL_RCC_RTC_ENABLE();
 202              		.loc 1 126 0
 203 0034 8023     		movs	r3, #128
 204 0036 094A     		ldr	r2, .L17
 205 0038 DB02     		lsls	r3, r3, #11
 206 003a 116D     		ldr	r1, [r2, #80]
 127:../Core/src/mlm32l0xx_hal_msp.c ****   
 128:../Core/src/mlm32l0xx_hal_msp.c ****   /*##-3- Configure the NVIC for RTC Alarm ###################################*/
 129:../Core/src/mlm32l0xx_hal_msp.c ****   HAL_NVIC_SetPriority(RTC_Alarm_IRQn, 0x0, 0);
ARM GAS  C:\Users\EBANO_~1\AppData\Local\Temp\cca8j2GX.s 			page 7


 207              		.loc 1 129 0
 208 003c 0220     		movs	r0, #2
 126:../Core/src/mlm32l0xx_hal_msp.c ****   
 209              		.loc 1 126 0
 210 003e 0B43     		orrs	r3, r1
 211 0040 1365     		str	r3, [r2, #80]
 212              		.loc 1 129 0
 213 0042 0021     		movs	r1, #0
 214 0044 0022     		movs	r2, #0
 215 0046 FFF7FEFF 		bl	HAL_NVIC_SetPriority
 216              	.LVL14:
 130:../Core/src/mlm32l0xx_hal_msp.c ****   HAL_NVIC_EnableIRQ(RTC_Alarm_IRQn);
 217              		.loc 1 130 0
 218 004a 0220     		movs	r0, #2
 219 004c FFF7FEFF 		bl	HAL_NVIC_EnableIRQ
 220              	.LVL15:
 131:../Core/src/mlm32l0xx_hal_msp.c **** }
 221              		.loc 1 131 0
 222 0050 19B0     		add	sp, sp, #100
 223              		@ sp needed
 224 0052 00BD     		pop	{pc}
 225              	.L16:
 113:../Core/src/mlm32l0xx_hal_msp.c ****   }
 226              		.loc 1 113 0
 227 0054 FFF7FEFF 		bl	Error_Handler
 228              	.LVL16:
 229 0058 E0E7     		b	.L8
 230              	.L18:
 231 005a C046     		.align	2
 232              	.L17:
 233 005c 00100240 		.word	1073876992
 234              		.cfi_endproc
 235              	.LFE42:
 236              		.size	HAL_RTC_MspInit, .-HAL_RTC_MspInit
 237              		.section	.text.HAL_RTC_MspDeInit,"ax",%progbits
 238              		.align	1
 239              		.p2align 2,,3
 240              		.global	HAL_RTC_MspDeInit
 241              		.syntax unified
 242              		.code	16
 243              		.thumb_func
 244              		.fpu softvfp
 245              		.type	HAL_RTC_MspDeInit, %function
 246              	HAL_RTC_MspDeInit:
 247              	.LFB43:
 132:../Core/src/mlm32l0xx_hal_msp.c **** 
 133:../Core/src/mlm32l0xx_hal_msp.c **** /**
 134:../Core/src/mlm32l0xx_hal_msp.c ****   * @brief RTC MSP De-Initialization 
 135:../Core/src/mlm32l0xx_hal_msp.c ****   *        This function freeze the hardware resources used in this example:
 136:../Core/src/mlm32l0xx_hal_msp.c ****   *          - Disable the Peripheral's clock
 137:../Core/src/mlm32l0xx_hal_msp.c ****   * @param hrtc: RTC handle pointer
 138:../Core/src/mlm32l0xx_hal_msp.c ****   * @retval None
 139:../Core/src/mlm32l0xx_hal_msp.c ****   */
 140:../Core/src/mlm32l0xx_hal_msp.c **** void HAL_RTC_MspDeInit(RTC_HandleTypeDef *hrtc)
 141:../Core/src/mlm32l0xx_hal_msp.c **** {
 248              		.loc 1 141 0
 249              		.cfi_startproc
ARM GAS  C:\Users\EBANO_~1\AppData\Local\Temp\cca8j2GX.s 			page 8


 250              		@ args = 0, pretend = 0, frame = 0
 251              		@ frame_needed = 0, uses_anonymous_args = 0
 252              		@ link register save eliminated.
 253              	.LVL17:
 142:../Core/src/mlm32l0xx_hal_msp.c ****   /* Reset peripherals */
 143:../Core/src/mlm32l0xx_hal_msp.c ****   __HAL_RCC_RTC_DISABLE();
 254              		.loc 1 143 0
 255 0000 024A     		ldr	r2, .L20
 256 0002 0349     		ldr	r1, .L20+4
 257 0004 136D     		ldr	r3, [r2, #80]
 144:../Core/src/mlm32l0xx_hal_msp.c **** }
 258              		.loc 1 144 0
 259              		@ sp needed
 143:../Core/src/mlm32l0xx_hal_msp.c **** }
 260              		.loc 1 143 0
 261 0006 0B40     		ands	r3, r1
 262 0008 1365     		str	r3, [r2, #80]
 263              		.loc 1 144 0
 264 000a 7047     		bx	lr
 265              	.L21:
 266              		.align	2
 267              	.L20:
 268 000c 00100240 		.word	1073876992
 269 0010 FFFFFBFF 		.word	-262145
 270              		.cfi_endproc
 271              	.LFE43:
 272              		.size	HAL_RTC_MspDeInit, .-HAL_RTC_MspDeInit
 273              		.section	.text.HAL_RTC_AlarmAEventCallback,"ax",%progbits
 274              		.align	1
 275              		.p2align 2,,3
 276              		.global	HAL_RTC_AlarmAEventCallback
 277              		.syntax unified
 278              		.code	16
 279              		.thumb_func
 280              		.fpu softvfp
 281              		.type	HAL_RTC_AlarmAEventCallback, %function
 282              	HAL_RTC_AlarmAEventCallback:
 283              	.LFB44:
 145:../Core/src/mlm32l0xx_hal_msp.c **** 
 146:../Core/src/mlm32l0xx_hal_msp.c **** 
 147:../Core/src/mlm32l0xx_hal_msp.c **** /**
 148:../Core/src/mlm32l0xx_hal_msp.c ****   * @brief  Alarm A callback.
 149:../Core/src/mlm32l0xx_hal_msp.c ****   * @param  hrtc: RTC handle
 150:../Core/src/mlm32l0xx_hal_msp.c ****   * @retval None
 151:../Core/src/mlm32l0xx_hal_msp.c ****   */
 152:../Core/src/mlm32l0xx_hal_msp.c **** void HAL_RTC_AlarmAEventCallback(RTC_HandleTypeDef *hrtc)
 153:../Core/src/mlm32l0xx_hal_msp.c **** {
 284              		.loc 1 153 0
 285              		.cfi_startproc
 286              		@ args = 0, pretend = 0, frame = 0
 287              		@ frame_needed = 0, uses_anonymous_args = 0
 288              	.LVL18:
 289 0000 10B5     		push	{r4, lr}
 290              	.LCFI5:
 291              		.cfi_def_cfa_offset 8
 292              		.cfi_offset 4, -8
 293              		.cfi_offset 14, -4
ARM GAS  C:\Users\EBANO_~1\AppData\Local\Temp\cca8j2GX.s 			page 9


 154:../Core/src/mlm32l0xx_hal_msp.c ****   TimerIrqHandler( );
 294              		.loc 1 154 0
 295 0002 FFF7FEFF 		bl	TimerIrqHandler
 296              	.LVL19:
 155:../Core/src/mlm32l0xx_hal_msp.c **** }
 297              		.loc 1 155 0
 298              		@ sp needed
 299 0006 10BD     		pop	{r4, pc}
 300              		.cfi_endproc
 301              	.LFE44:
 302              		.size	HAL_RTC_AlarmAEventCallback, .-HAL_RTC_AlarmAEventCallback
 303              		.section	.text.HAL_GPIO_EXTI_Callback,"ax",%progbits
 304              		.align	1
 305              		.p2align 2,,3
 306              		.global	HAL_GPIO_EXTI_Callback
 307              		.syntax unified
 308              		.code	16
 309              		.thumb_func
 310              		.fpu softvfp
 311              		.type	HAL_GPIO_EXTI_Callback, %function
 312              	HAL_GPIO_EXTI_Callback:
 313              	.LFB45:
 156:../Core/src/mlm32l0xx_hal_msp.c **** 
 157:../Core/src/mlm32l0xx_hal_msp.c **** /**
 158:../Core/src/mlm32l0xx_hal_msp.c ****   * @brief  EXTI line detection callbacks.
 159:../Core/src/mlm32l0xx_hal_msp.c ****   * @param  GPIO_Pin: Specifies the pins connected to the EXTI line.
 160:../Core/src/mlm32l0xx_hal_msp.c ****   * @retval None
 161:../Core/src/mlm32l0xx_hal_msp.c ****   */
 162:../Core/src/mlm32l0xx_hal_msp.c **** void HAL_GPIO_EXTI_Callback(uint16_t GPIO_Pin)
 163:../Core/src/mlm32l0xx_hal_msp.c **** {
 314              		.loc 1 163 0
 315              		.cfi_startproc
 316              		@ args = 0, pretend = 0, frame = 0
 317              		@ frame_needed = 0, uses_anonymous_args = 0
 318              	.LVL20:
 319 0000 10B5     		push	{r4, lr}
 320              	.LCFI6:
 321              		.cfi_def_cfa_offset 8
 322              		.cfi_offset 4, -8
 323              		.cfi_offset 14, -4
 164:../Core/src/mlm32l0xx_hal_msp.c ****   HW_GPIO_IrqHandler( GPIO_Pin );
 324              		.loc 1 164 0
 325 0002 FFF7FEFF 		bl	HW_GPIO_IrqHandler
 326              	.LVL21:
 165:../Core/src/mlm32l0xx_hal_msp.c **** }
 327              		.loc 1 165 0
 328              		@ sp needed
 329 0006 10BD     		pop	{r4, pc}
 330              		.cfi_endproc
 331              	.LFE45:
 332              		.size	HAL_GPIO_EXTI_Callback, .-HAL_GPIO_EXTI_Callback
 333              		.section	.text.MSP_GetIRQn,"ax",%progbits
 334              		.align	1
 335              		.p2align 2,,3
 336              		.global	MSP_GetIRQn
 337              		.syntax unified
 338              		.code	16
ARM GAS  C:\Users\EBANO_~1\AppData\Local\Temp\cca8j2GX.s 			page 10


 339              		.thumb_func
 340              		.fpu softvfp
 341              		.type	MSP_GetIRQn, %function
 342              	MSP_GetIRQn:
 343              	.LFB46:
 166:../Core/src/mlm32l0xx_hal_msp.c **** 
 167:../Core/src/mlm32l0xx_hal_msp.c **** /**
 168:../Core/src/mlm32l0xx_hal_msp.c ****   * @brief  Gets IRQ number as a function of the GPIO_Pin.
 169:../Core/src/mlm32l0xx_hal_msp.c ****   * @param  GPIO_Pin: Specifies the pins connected to the EXTI line.
 170:../Core/src/mlm32l0xx_hal_msp.c ****   * @retval IRQ number
 171:../Core/src/mlm32l0xx_hal_msp.c ****   */
 172:../Core/src/mlm32l0xx_hal_msp.c **** IRQn_Type MSP_GetIRQn( uint16_t GPIO_Pin)
 173:../Core/src/mlm32l0xx_hal_msp.c **** {
 344              		.loc 1 173 0
 345              		.cfi_startproc
 346              		@ args = 0, pretend = 0, frame = 0
 347              		@ frame_needed = 0, uses_anonymous_args = 0
 348              		@ link register save eliminated.
 349              	.LVL22:
 174:../Core/src/mlm32l0xx_hal_msp.c ****   switch( GPIO_Pin )
 350              		.loc 1 174 0
 351 0000 0428     		cmp	r0, #4
 352 0002 09D0     		beq	.L26
 353 0004 04D8     		bhi	.L27
 354 0006 0138     		subs	r0, r0, #1
 355              	.LVL23:
 356 0008 0128     		cmp	r0, #1
 357 000a 03D8     		bhi	.L25
 175:../Core/src/mlm32l0xx_hal_msp.c ****   {
 176:../Core/src/mlm32l0xx_hal_msp.c ****     case GPIO_PIN_0:  
 177:../Core/src/mlm32l0xx_hal_msp.c ****     case GPIO_PIN_1:  return EXTI0_1_IRQn;
 358              		.loc 1 177 0
 359 000c 0520     		movs	r0, #5
 360              	.L28:
 178:../Core/src/mlm32l0xx_hal_msp.c ****     case GPIO_PIN_2: 
 179:../Core/src/mlm32l0xx_hal_msp.c ****     case GPIO_PIN_3:  return EXTI2_3_IRQn;
 180:../Core/src/mlm32l0xx_hal_msp.c ****     case GPIO_PIN_4:  
 181:../Core/src/mlm32l0xx_hal_msp.c ****     case GPIO_PIN_5:  
 182:../Core/src/mlm32l0xx_hal_msp.c ****     case GPIO_PIN_6:
 183:../Core/src/mlm32l0xx_hal_msp.c ****     case GPIO_PIN_7:
 184:../Core/src/mlm32l0xx_hal_msp.c ****     case GPIO_PIN_8:
 185:../Core/src/mlm32l0xx_hal_msp.c ****     case GPIO_PIN_9:  
 186:../Core/src/mlm32l0xx_hal_msp.c ****     case GPIO_PIN_10:
 187:../Core/src/mlm32l0xx_hal_msp.c ****     case GPIO_PIN_11:
 188:../Core/src/mlm32l0xx_hal_msp.c ****     case GPIO_PIN_12:
 189:../Core/src/mlm32l0xx_hal_msp.c ****     case GPIO_PIN_13:
 190:../Core/src/mlm32l0xx_hal_msp.c ****     case GPIO_PIN_14:
 191:../Core/src/mlm32l0xx_hal_msp.c ****     case GPIO_PIN_15: 
 192:../Core/src/mlm32l0xx_hal_msp.c ****     default: return EXTI4_15_IRQn;
 193:../Core/src/mlm32l0xx_hal_msp.c ****   }
 194:../Core/src/mlm32l0xx_hal_msp.c **** }
 361              		.loc 1 194 0
 362              		@ sp needed
 363 000e 7047     		bx	lr
 364              	.LVL24:
 365              	.L27:
 174:../Core/src/mlm32l0xx_hal_msp.c ****   {
ARM GAS  C:\Users\EBANO_~1\AppData\Local\Temp\cca8j2GX.s 			page 11


 366              		.loc 1 174 0
 367 0010 0828     		cmp	r0, #8
 368 0012 01D0     		beq	.L26
 369              	.LVL25:
 370              	.L25:
 192:../Core/src/mlm32l0xx_hal_msp.c ****   }
 371              		.loc 1 192 0
 372 0014 0720     		movs	r0, #7
 373 0016 FAE7     		b	.L28
 374              	.LVL26:
 375              	.L26:
 179:../Core/src/mlm32l0xx_hal_msp.c ****     case GPIO_PIN_4:  
 376              		.loc 1 179 0
 377 0018 0620     		movs	r0, #6
 378              	.LVL27:
 379 001a F8E7     		b	.L28
 380              		.cfi_endproc
 381              	.LFE46:
 382              		.size	MSP_GetIRQn, .-MSP_GetIRQn
 383              		.text
 384              	.Letext0:
 385              		.file 2 "c:\\program files (x86)\\gnu tools arm embedded\\7 2018-q2-update\\arm-none-eabi\\include
 386              		.file 3 "c:\\program files (x86)\\gnu tools arm embedded\\7 2018-q2-update\\arm-none-eabi\\include
 387              		.file 4 "c:\\program files (x86)\\gnu tools arm embedded\\7 2018-q2-update\\arm-none-eabi\\include
 388              		.file 5 "c:\\program files (x86)\\gnu tools arm embedded\\7 2018-q2-update\\lib\\gcc\\arm-none-eab
 389              		.file 6 "c:\\program files (x86)\\gnu tools arm embedded\\7 2018-q2-update\\arm-none-eabi\\include
 390              		.file 7 "c:\\program files (x86)\\gnu tools arm embedded\\7 2018-q2-update\\arm-none-eabi\\include
 391              		.file 8 "c:\\program files (x86)\\gnu tools arm embedded\\7 2018-q2-update\\arm-none-eabi\\include
 392              		.file 9 "../../../../../../Drivers/CMSIS/Device/ST/STM32L0xx/Include/stm32l072xx.h"
 393              		.file 10 "../../../../../../Drivers/CMSIS/Device/ST/STM32L0xx/Include/system_stm32l0xx.h"
 394              		.file 11 "../../../../../../Drivers/STM32L0xx_HAL_Driver/Inc/stm32l0xx_hal_def.h"
 395              		.file 12 "../../../../../../Drivers/STM32L0xx_HAL_Driver/Inc/stm32l0xx_hal_rcc.h"
 396              		.file 13 "../../../../../../Drivers/STM32L0xx_HAL_Driver/Inc/stm32l0xx_hal_rcc_ex.h"
 397              		.file 14 "../../../../../../Drivers/STM32L0xx_HAL_Driver/Inc/stm32l0xx_hal_rtc.h"
 398              		.file 15 "c:\\program files (x86)\\gnu tools arm embedded\\7 2018-q2-update\\arm-none-eabi\\includ
 399              		.file 16 "c:\\program files (x86)\\gnu tools arm embedded\\7 2018-q2-update\\arm-none-eabi\\includ
 400              		.file 17 "../LoRaWAN/App/inc/hw_gpio.h"
 401              		.file 18 "../../../../../../Middlewares/Third_Party/LoRaWAN/Utilities/timeServer.h"
 402              		.file 19 "../LoRaWAN/App/inc/debug.h"
 403              		.file 20 "../../../../../../Drivers/STM32L0xx_HAL_Driver/Inc/stm32l0xx_hal_cortex.h"
 404              		.file 21 "../../../../../../Drivers/STM32L0xx_HAL_Driver/Inc/stm32l0xx_hal_pwr.h"
 405              		.file 22 "../../../../../../Drivers/STM32L0xx_HAL_Driver/Inc/stm32l0xx_hal_pwr_ex.h"
 406              		.file 23 "../LoRaWAN/App/inc/hw_msp.h"
 407              		.file 24 "../LoRaWAN/App/inc/hw_rtc.h"