ARM GAS  C:\Users\EBANO_~1\AppData\Local\Temp\ccBAc821.s 			page 1


   1              		.cpu cortex-m0plus
   2              		.eabi_attribute 20, 1
   3              		.eabi_attribute 21, 1
   4              		.eabi_attribute 23, 3
   5              		.eabi_attribute 24, 1
   6              		.eabi_attribute 25, 1
   7              		.eabi_attribute 26, 1
   8              		.eabi_attribute 30, 2
   9              		.eabi_attribute 34, 0
  10              		.eabi_attribute 18, 4
  11              		.file	"queue.c"
  12              		.text
  13              	.Ltext0:
  14              		.cfi_sections	.debug_frame
  15              		.section	.text.circular_queue_init,"ax",%progbits
  16              		.align	1
  17              		.p2align 2,,3
  18              		.global	circular_queue_init
  19              		.syntax unified
  20              		.code	16
  21              		.thumb_func
  22              		.fpu softvfp
  23              		.type	circular_queue_init, %function
  24              	circular_queue_init:
  25              	.LFB0:
  26              		.file 1 "../../../../../../Middlewares/Third_Party/LoRaWAN/Utilities/queue.c"
   1:../../../../../../Middlewares/Third_Party/LoRaWAN/Utilities/queue.c **** /**
   2:../../../../../../Middlewares/Third_Party/LoRaWAN/Utilities/queue.c ****   ******************************************************************************
   3:../../../../../../Middlewares/Third_Party/LoRaWAN/Utilities/queue.c ****   * @file    queue.c
   4:../../../../../../Middlewares/Third_Party/LoRaWAN/Utilities/queue.c ****   * @author  MCD Application Team
   5:../../../../../../Middlewares/Third_Party/LoRaWAN/Utilities/queue.c ****   * @brief   Queue management
   6:../../../../../../Middlewares/Third_Party/LoRaWAN/Utilities/queue.c ****   ******************************************************************************
   7:../../../../../../Middlewares/Third_Party/LoRaWAN/Utilities/queue.c ****   * @attention
   8:../../../../../../Middlewares/Third_Party/LoRaWAN/Utilities/queue.c ****   *
   9:../../../../../../Middlewares/Third_Party/LoRaWAN/Utilities/queue.c ****   * <h2><center>&copy; Copyright (c) 2018 STMicroelectronics.
  10:../../../../../../Middlewares/Third_Party/LoRaWAN/Utilities/queue.c ****   * All rights reserved.</center></h2>
  11:../../../../../../Middlewares/Third_Party/LoRaWAN/Utilities/queue.c ****   *
  12:../../../../../../Middlewares/Third_Party/LoRaWAN/Utilities/queue.c ****   * This software component is licensed by ST under Ultimate Liberty license
  13:../../../../../../Middlewares/Third_Party/LoRaWAN/Utilities/queue.c ****   * SLA0044, the "License"; You may not use this file except in compliance with
  14:../../../../../../Middlewares/Third_Party/LoRaWAN/Utilities/queue.c ****   * the License. You may obtain a copy of the License at:
  15:../../../../../../Middlewares/Third_Party/LoRaWAN/Utilities/queue.c ****   *                             www.st.com/SLA0044
  16:../../../../../../Middlewares/Third_Party/LoRaWAN/Utilities/queue.c ****   *
  17:../../../../../../Middlewares/Third_Party/LoRaWAN/Utilities/queue.c ****   ******************************************************************************
  18:../../../../../../Middlewares/Third_Party/LoRaWAN/Utilities/queue.c ****   */
  19:../../../../../../Middlewares/Third_Party/LoRaWAN/Utilities/queue.c **** 
  20:../../../../../../Middlewares/Third_Party/LoRaWAN/Utilities/queue.c **** /* Includes ------------------------------------------------------------------*/
  21:../../../../../../Middlewares/Third_Party/LoRaWAN/Utilities/queue.c **** #include <stdint.h>
  22:../../../../../../Middlewares/Third_Party/LoRaWAN/Utilities/queue.c **** #include "queue.h"
  23:../../../../../../Middlewares/Third_Party/LoRaWAN/Utilities/queue.c **** /* Private define ------------------------------------------------------------*/
  24:../../../../../../Middlewares/Third_Party/LoRaWAN/Utilities/queue.c **** #define ELEMENT_SIZE_LEN 2
  25:../../../../../../Middlewares/Third_Party/LoRaWAN/Utilities/queue.c **** /* Private typedef -----------------------------------------------------------*/
  26:../../../../../../Middlewares/Third_Party/LoRaWAN/Utilities/queue.c **** /* Private macro -------------------------------------------------------------*/
  27:../../../../../../Middlewares/Third_Party/LoRaWAN/Utilities/queue.c **** /* Private function prototypes -----------------------------------------------*/
  28:../../../../../../Middlewares/Third_Party/LoRaWAN/Utilities/queue.c **** static void queue_copy(uint8_t* out, const uint8_t* in, uint16_t size);
  29:../../../../../../Middlewares/Third_Party/LoRaWAN/Utilities/queue.c **** static int16_t circular_queue_get_free_size(queue_param_t* queue);
  30:../../../../../../Middlewares/Third_Party/LoRaWAN/Utilities/queue.c **** static void add_elementSize_and_inc_writeIdx(queue_param_t* queue,uint16_t element_size);
  31:../../../../../../Middlewares/Third_Party/LoRaWAN/Utilities/queue.c **** 
ARM GAS  C:\Users\EBANO_~1\AppData\Local\Temp\ccBAc821.s 			page 2


  32:../../../../../../Middlewares/Third_Party/LoRaWAN/Utilities/queue.c **** /* Public functions ----------------------------------------------------------*/
  33:../../../../../../Middlewares/Third_Party/LoRaWAN/Utilities/queue.c **** void circular_queue_init(queue_param_t* queue, uint8_t* queue_buff, uint16_t queue_size)
  34:../../../../../../Middlewares/Third_Party/LoRaWAN/Utilities/queue.c **** {
  27              		.loc 1 34 0
  28              		.cfi_startproc
  29              		@ args = 0, pretend = 0, frame = 0
  30              		@ frame_needed = 0, uses_anonymous_args = 0
  31              		@ link register save eliminated.
  32              	.LVL0:
  35:../../../../../../Middlewares/Third_Party/LoRaWAN/Utilities/queue.c ****   queue->queue_read_idx=0;
  33              		.loc 1 35 0
  34 0000 0023     		movs	r3, #0
  36:../../../../../../Middlewares/Third_Party/LoRaWAN/Utilities/queue.c ****   queue->queue_write_idx=0;
  37:../../../../../../Middlewares/Third_Party/LoRaWAN/Utilities/queue.c ****   queue->queue_nb_element=0;
  38:../../../../../../Middlewares/Third_Party/LoRaWAN/Utilities/queue.c ****   queue->queue_buff=queue_buff;
  35              		.loc 1 38 0
  36 0002 8160     		str	r1, [r0, #8]
  35:../../../../../../Middlewares/Third_Party/LoRaWAN/Utilities/queue.c ****   queue->queue_read_idx=0;
  37              		.loc 1 35 0
  38 0004 0360     		str	r3, [r0]
  37:../../../../../../Middlewares/Third_Party/LoRaWAN/Utilities/queue.c ****   queue->queue_buff=queue_buff;
  39              		.loc 1 37 0
  40 0006 8380     		strh	r3, [r0, #4]
  39:../../../../../../Middlewares/Third_Party/LoRaWAN/Utilities/queue.c ****   queue->queue_size=queue_size;
  41              		.loc 1 39 0
  42 0008 C280     		strh	r2, [r0, #6]
  40:../../../../../../Middlewares/Third_Party/LoRaWAN/Utilities/queue.c ****   queue->queue_full=0;
  43              		.loc 1 40 0
  44 000a 0373     		strb	r3, [r0, #12]
  41:../../../../../../Middlewares/Third_Party/LoRaWAN/Utilities/queue.c **** }
  45              		.loc 1 41 0
  46              		@ sp needed
  47 000c 7047     		bx	lr
  48              		.cfi_endproc
  49              	.LFE0:
  50              		.size	circular_queue_init, .-circular_queue_init
  51 000e C046     		.section	.text.circular_queue_add,"ax",%progbits
  52              		.align	1
  53              		.p2align 2,,3
  54              		.global	circular_queue_add
  55              		.syntax unified
  56              		.code	16
  57              		.thumb_func
  58              		.fpu softvfp
  59              		.type	circular_queue_add, %function
  60              	circular_queue_add:
  61              	.LFB1:
  42:../../../../../../Middlewares/Third_Party/LoRaWAN/Utilities/queue.c **** 
  43:../../../../../../Middlewares/Third_Party/LoRaWAN/Utilities/queue.c **** int circular_queue_add(queue_param_t* queue, uint8_t* buff, uint16_t buff_size)
  44:../../../../../../Middlewares/Third_Party/LoRaWAN/Utilities/queue.c **** {
  62              		.loc 1 44 0
  63              		.cfi_startproc
  64              		@ args = 0, pretend = 0, frame = 0
  65              		@ frame_needed = 0, uses_anonymous_args = 0
  66              	.LVL1:
  67 0000 F0B5     		push	{r4, r5, r6, r7, lr}
  68              	.LCFI0:
ARM GAS  C:\Users\EBANO_~1\AppData\Local\Temp\ccBAc821.s 			page 3


  69              		.cfi_def_cfa_offset 20
  70              		.cfi_offset 4, -20
  71              		.cfi_offset 5, -16
  72              		.cfi_offset 6, -12
  73              		.cfi_offset 7, -8
  74              		.cfi_offset 14, -4
  75 0002 4646     		mov	r6, r8
  76 0004 D646     		mov	lr, r10
  77 0006 4F46     		mov	r7, r9
  78 0008 C0B5     		push	{r6, r7, lr}
  79              	.LCFI1:
  80              		.cfi_def_cfa_offset 32
  81              		.cfi_offset 8, -32
  82              		.cfi_offset 9, -28
  83              		.cfi_offset 10, -24
  45:../../../../../../Middlewares/Third_Party/LoRaWAN/Utilities/queue.c ****   int status;  
  46:../../../../../../Middlewares/Third_Party/LoRaWAN/Utilities/queue.c ****   int16_t free_buff_len=circular_queue_get_free_size(queue);
  84              		.loc 1 46 0
  85 000a 0388     		ldrh	r3, [r0]
  86 000c 4588     		ldrh	r5, [r0, #2]
  87 000e C488     		ldrh	r4, [r0, #6]
  88 0010 067B     		ldrb	r6, [r0, #12]
  89              	.LVL2:
  90              	.LBB17:
  91              	.LBB18:
  47:../../../../../../Middlewares/Third_Party/LoRaWAN/Utilities/queue.c ****   
  48:../../../../../../Middlewares/Third_Party/LoRaWAN/Utilities/queue.c ****   if ((buff_size+ELEMENT_SIZE_LEN<=free_buff_len)&& 
  49:../../../../../../Middlewares/Third_Party/LoRaWAN/Utilities/queue.c ****       ((queue->queue_write_idx+buff_size+ELEMENT_SIZE_LEN<=queue->queue_size) 
  50:../../../../../../Middlewares/Third_Party/LoRaWAN/Utilities/queue.c ****         || (queue->queue_write_idx>=queue->queue_size-ELEMENT_SIZE_LEN))) /*elementSize cut in 2 or
  51:../../../../../../Middlewares/Third_Party/LoRaWAN/Utilities/queue.c ****   {
  52:../../../../../../Middlewares/Third_Party/LoRaWAN/Utilities/queue.c ****     //add in one element
  53:../../../../../../Middlewares/Third_Party/LoRaWAN/Utilities/queue.c ****     add_elementSize_and_inc_writeIdx(queue, buff_size);
  54:../../../../../../Middlewares/Third_Party/LoRaWAN/Utilities/queue.c ****     queue_copy(queue->queue_buff+queue->queue_write_idx,buff,buff_size);
  55:../../../../../../Middlewares/Third_Party/LoRaWAN/Utilities/queue.c ****     queue->queue_write_idx+=buff_size;
  56:../../../../../../Middlewares/Third_Party/LoRaWAN/Utilities/queue.c ****     /*modulo queue_size*/
  57:../../../../../../Middlewares/Third_Party/LoRaWAN/Utilities/queue.c ****     if (queue->queue_write_idx==queue->queue_size)
  58:../../../../../../Middlewares/Third_Party/LoRaWAN/Utilities/queue.c ****     {
  59:../../../../../../Middlewares/Third_Party/LoRaWAN/Utilities/queue.c ****         queue->queue_write_idx=0;
  60:../../../../../../Middlewares/Third_Party/LoRaWAN/Utilities/queue.c ****     }
  61:../../../../../../Middlewares/Third_Party/LoRaWAN/Utilities/queue.c ****     //add one element
  62:../../../../../../Middlewares/Third_Party/LoRaWAN/Utilities/queue.c ****     queue->queue_nb_element++; 
  63:../../../../../../Middlewares/Third_Party/LoRaWAN/Utilities/queue.c ****     /*in case que is full*/
  64:../../../../../../Middlewares/Third_Party/LoRaWAN/Utilities/queue.c ****     if (queue->queue_write_idx== queue->queue_read_idx)
  65:../../../../../../Middlewares/Third_Party/LoRaWAN/Utilities/queue.c ****     {
  66:../../../../../../Middlewares/Third_Party/LoRaWAN/Utilities/queue.c ****       queue->queue_full=1;
  67:../../../../../../Middlewares/Third_Party/LoRaWAN/Utilities/queue.c ****     }
  68:../../../../../../Middlewares/Third_Party/LoRaWAN/Utilities/queue.c ****     status=0;
  69:../../../../../../Middlewares/Third_Party/LoRaWAN/Utilities/queue.c ****   }
  70:../../../../../../Middlewares/Third_Party/LoRaWAN/Utilities/queue.c ****   else if (buff_size+2*ELEMENT_SIZE_LEN<=free_buff_len)
  71:../../../../../../Middlewares/Third_Party/LoRaWAN/Utilities/queue.c ****   {
  72:../../../../../../Middlewares/Third_Party/LoRaWAN/Utilities/queue.c ****     //split buffer in two elements
  73:../../../../../../Middlewares/Third_Party/LoRaWAN/Utilities/queue.c ****     /*fill top of queue with first element of size top_size*/
  74:../../../../../../Middlewares/Third_Party/LoRaWAN/Utilities/queue.c ****     uint16_t top_size = queue->queue_size-(queue->queue_write_idx+ELEMENT_SIZE_LEN);
  75:../../../../../../Middlewares/Third_Party/LoRaWAN/Utilities/queue.c ****     add_elementSize_and_inc_writeIdx(queue,top_size);
  76:../../../../../../Middlewares/Third_Party/LoRaWAN/Utilities/queue.c ****     queue_copy(queue->queue_buff+queue->queue_write_idx,buff,top_size);
  77:../../../../../../Middlewares/Third_Party/LoRaWAN/Utilities/queue.c ****     queue->queue_write_idx=0;
  78:../../../../../../Middlewares/Third_Party/LoRaWAN/Utilities/queue.c **** 
ARM GAS  C:\Users\EBANO_~1\AppData\Local\Temp\ccBAc821.s 			page 4


  79:../../../../../../Middlewares/Third_Party/LoRaWAN/Utilities/queue.c ****     /*fill bottom of queue with second element of size buff_size-top_size*/
  80:../../../../../../Middlewares/Third_Party/LoRaWAN/Utilities/queue.c ****     buff_size-=top_size;
  81:../../../../../../Middlewares/Third_Party/LoRaWAN/Utilities/queue.c ****     add_elementSize_and_inc_writeIdx(queue, buff_size);
  82:../../../../../../Middlewares/Third_Party/LoRaWAN/Utilities/queue.c ****     queue_copy(queue->queue_buff+queue->queue_write_idx,buff+top_size,buff_size);
  83:../../../../../../Middlewares/Third_Party/LoRaWAN/Utilities/queue.c ****     queue->queue_write_idx+=buff_size;
  84:../../../../../../Middlewares/Third_Party/LoRaWAN/Utilities/queue.c ****     // add two elements
  85:../../../../../../Middlewares/Third_Party/LoRaWAN/Utilities/queue.c ****     queue->queue_nb_element+=2;
  86:../../../../../../Middlewares/Third_Party/LoRaWAN/Utilities/queue.c ****     /*in case que is full*/
  87:../../../../../../Middlewares/Third_Party/LoRaWAN/Utilities/queue.c ****     if (queue->queue_write_idx== queue->queue_read_idx)
  88:../../../../../../Middlewares/Third_Party/LoRaWAN/Utilities/queue.c ****     {
  89:../../../../../../Middlewares/Third_Party/LoRaWAN/Utilities/queue.c ****       queue->queue_full=1;
  90:../../../../../../Middlewares/Third_Party/LoRaWAN/Utilities/queue.c ****     }    
  91:../../../../../../Middlewares/Third_Party/LoRaWAN/Utilities/queue.c ****     status =0;
  92:../../../../../../Middlewares/Third_Party/LoRaWAN/Utilities/queue.c ****   }
  93:../../../../../../Middlewares/Third_Party/LoRaWAN/Utilities/queue.c ****   else
  94:../../../../../../Middlewares/Third_Party/LoRaWAN/Utilities/queue.c ****   {
  95:../../../../../../Middlewares/Third_Party/LoRaWAN/Utilities/queue.c ****     status=-1;
  96:../../../../../../Middlewares/Third_Party/LoRaWAN/Utilities/queue.c ****   }
  97:../../../../../../Middlewares/Third_Party/LoRaWAN/Utilities/queue.c ****   return status;
  98:../../../../../../Middlewares/Third_Party/LoRaWAN/Utilities/queue.c **** }
  99:../../../../../../Middlewares/Third_Party/LoRaWAN/Utilities/queue.c **** 
 100:../../../../../../Middlewares/Third_Party/LoRaWAN/Utilities/queue.c **** int circular_queue_get(queue_param_t* queue, uint8_t** buff, uint16_t* buff_size)
 101:../../../../../../Middlewares/Third_Party/LoRaWAN/Utilities/queue.c **** {
 102:../../../../../../Middlewares/Third_Party/LoRaWAN/Utilities/queue.c ****   int status;
 103:../../../../../../Middlewares/Third_Party/LoRaWAN/Utilities/queue.c ****   if (queue->queue_nb_element==0)
 104:../../../../../../Middlewares/Third_Party/LoRaWAN/Utilities/queue.c ****   {
 105:../../../../../../Middlewares/Third_Party/LoRaWAN/Utilities/queue.c ****     status=-1;
 106:../../../../../../Middlewares/Third_Party/LoRaWAN/Utilities/queue.c ****   }
 107:../../../../../../Middlewares/Third_Party/LoRaWAN/Utilities/queue.c ****   else
 108:../../../../../../Middlewares/Third_Party/LoRaWAN/Utilities/queue.c ****   {
 109:../../../../../../Middlewares/Third_Party/LoRaWAN/Utilities/queue.c ****     uint16_t size;
 110:../../../../../../Middlewares/Third_Party/LoRaWAN/Utilities/queue.c ****     uint16_t read_idx=queue->queue_read_idx;
 111:../../../../../../Middlewares/Third_Party/LoRaWAN/Utilities/queue.c ****     /*retreive and remove 1st element' size and content*/
 112:../../../../../../Middlewares/Third_Party/LoRaWAN/Utilities/queue.c ****     size=(uint16_t) queue->queue_buff[read_idx++]<<8;
 113:../../../../../../Middlewares/Third_Party/LoRaWAN/Utilities/queue.c ****     /*wrap if needed*/
 114:../../../../../../Middlewares/Third_Party/LoRaWAN/Utilities/queue.c ****     if (read_idx==queue->queue_size)
 115:../../../../../../Middlewares/Third_Party/LoRaWAN/Utilities/queue.c ****     {
 116:../../../../../../Middlewares/Third_Party/LoRaWAN/Utilities/queue.c ****       read_idx=0;
 117:../../../../../../Middlewares/Third_Party/LoRaWAN/Utilities/queue.c ****     }
 118:../../../../../../Middlewares/Third_Party/LoRaWAN/Utilities/queue.c ****     size|=(uint16_t) queue->queue_buff[read_idx++];
 119:../../../../../../Middlewares/Third_Party/LoRaWAN/Utilities/queue.c ****     /*wrap if needed*/
 120:../../../../../../Middlewares/Third_Party/LoRaWAN/Utilities/queue.c ****     if (read_idx==queue->queue_size)
 121:../../../../../../Middlewares/Third_Party/LoRaWAN/Utilities/queue.c ****     {
 122:../../../../../../Middlewares/Third_Party/LoRaWAN/Utilities/queue.c ****       read_idx=0;
 123:../../../../../../Middlewares/Third_Party/LoRaWAN/Utilities/queue.c ****     }
 124:../../../../../../Middlewares/Third_Party/LoRaWAN/Utilities/queue.c ****     *buff= queue->queue_buff+read_idx;
 125:../../../../../../Middlewares/Third_Party/LoRaWAN/Utilities/queue.c **** 
 126:../../../../../../Middlewares/Third_Party/LoRaWAN/Utilities/queue.c ****     * buff_size=size;
 127:../../../../../../Middlewares/Third_Party/LoRaWAN/Utilities/queue.c ****     status=0;
 128:../../../../../../Middlewares/Third_Party/LoRaWAN/Utilities/queue.c ****   }
 129:../../../../../../Middlewares/Third_Party/LoRaWAN/Utilities/queue.c ****   return status;
 130:../../../../../../Middlewares/Third_Party/LoRaWAN/Utilities/queue.c **** }
 131:../../../../../../Middlewares/Third_Party/LoRaWAN/Utilities/queue.c **** 
 132:../../../../../../Middlewares/Third_Party/LoRaWAN/Utilities/queue.c **** int circular_queue_remove(queue_param_t* queue)
 133:../../../../../../Middlewares/Third_Party/LoRaWAN/Utilities/queue.c **** {
 134:../../../../../../Middlewares/Third_Party/LoRaWAN/Utilities/queue.c ****   int status;
 135:../../../../../../Middlewares/Third_Party/LoRaWAN/Utilities/queue.c ****   if (queue->queue_nb_element==0)
ARM GAS  C:\Users\EBANO_~1\AppData\Local\Temp\ccBAc821.s 			page 5


 136:../../../../../../Middlewares/Third_Party/LoRaWAN/Utilities/queue.c ****   {
 137:../../../../../../Middlewares/Third_Party/LoRaWAN/Utilities/queue.c ****       status=-1;
 138:../../../../../../Middlewares/Third_Party/LoRaWAN/Utilities/queue.c ****   }
 139:../../../../../../Middlewares/Third_Party/LoRaWAN/Utilities/queue.c ****   else
 140:../../../../../../Middlewares/Third_Party/LoRaWAN/Utilities/queue.c ****   {
 141:../../../../../../Middlewares/Third_Party/LoRaWAN/Utilities/queue.c ****     uint16_t size;
 142:../../../../../../Middlewares/Third_Party/LoRaWAN/Utilities/queue.c ****     /*retreive and remove 1st element' size and content*/
 143:../../../../../../Middlewares/Third_Party/LoRaWAN/Utilities/queue.c ****     size=(uint16_t) queue->queue_buff[queue->queue_read_idx++]<<8;
 144:../../../../../../Middlewares/Third_Party/LoRaWAN/Utilities/queue.c ****     if (queue->queue_read_idx==queue->queue_size)
 145:../../../../../../Middlewares/Third_Party/LoRaWAN/Utilities/queue.c ****     {
 146:../../../../../../Middlewares/Third_Party/LoRaWAN/Utilities/queue.c ****       queue->queue_read_idx=0;
 147:../../../../../../Middlewares/Third_Party/LoRaWAN/Utilities/queue.c ****     }
 148:../../../../../../Middlewares/Third_Party/LoRaWAN/Utilities/queue.c ****     size|=(uint16_t) queue->queue_buff[queue->queue_read_idx++];
 149:../../../../../../Middlewares/Third_Party/LoRaWAN/Utilities/queue.c ****     if (queue->queue_read_idx==queue->queue_size)
 150:../../../../../../Middlewares/Third_Party/LoRaWAN/Utilities/queue.c ****     {
 151:../../../../../../Middlewares/Third_Party/LoRaWAN/Utilities/queue.c ****       queue->queue_read_idx=0;
 152:../../../../../../Middlewares/Third_Party/LoRaWAN/Utilities/queue.c ****     }
 153:../../../../../../Middlewares/Third_Party/LoRaWAN/Utilities/queue.c ****     /* increment read index*/
 154:../../../../../../Middlewares/Third_Party/LoRaWAN/Utilities/queue.c ****     queue->queue_read_idx+=size;
 155:../../../../../../Middlewares/Third_Party/LoRaWAN/Utilities/queue.c ****     /*modulo queue_size*/
 156:../../../../../../Middlewares/Third_Party/LoRaWAN/Utilities/queue.c ****     if (queue->queue_read_idx==queue->queue_size)
 157:../../../../../../Middlewares/Third_Party/LoRaWAN/Utilities/queue.c ****     {
 158:../../../../../../Middlewares/Third_Party/LoRaWAN/Utilities/queue.c ****         queue->queue_read_idx=0;
 159:../../../../../../Middlewares/Third_Party/LoRaWAN/Utilities/queue.c ****     }
 160:../../../../../../Middlewares/Third_Party/LoRaWAN/Utilities/queue.c ****     /* decrement number of element*/
 161:../../../../../../Middlewares/Third_Party/LoRaWAN/Utilities/queue.c ****     queue->queue_nb_element--;
 162:../../../../../../Middlewares/Third_Party/LoRaWAN/Utilities/queue.c ****     queue->queue_full=0;
 163:../../../../../../Middlewares/Third_Party/LoRaWAN/Utilities/queue.c ****     status=0;
 164:../../../../../../Middlewares/Third_Party/LoRaWAN/Utilities/queue.c ****   }
 165:../../../../../../Middlewares/Third_Party/LoRaWAN/Utilities/queue.c ****   return status;
 166:../../../../../../Middlewares/Third_Party/LoRaWAN/Utilities/queue.c **** }
 167:../../../../../../Middlewares/Third_Party/LoRaWAN/Utilities/queue.c **** 
 168:../../../../../../Middlewares/Third_Party/LoRaWAN/Utilities/queue.c **** int circular_queue_sense(queue_param_t* queue)
 169:../../../../../../Middlewares/Third_Party/LoRaWAN/Utilities/queue.c **** {
 170:../../../../../../Middlewares/Third_Party/LoRaWAN/Utilities/queue.c ****   int status;
 171:../../../../../../Middlewares/Third_Party/LoRaWAN/Utilities/queue.c ****   if (queue->queue_nb_element==0)
 172:../../../../../../Middlewares/Third_Party/LoRaWAN/Utilities/queue.c ****   {
 173:../../../../../../Middlewares/Third_Party/LoRaWAN/Utilities/queue.c ****     status=-1;
 174:../../../../../../Middlewares/Third_Party/LoRaWAN/Utilities/queue.c ****   }
 175:../../../../../../Middlewares/Third_Party/LoRaWAN/Utilities/queue.c ****   else
 176:../../../../../../Middlewares/Third_Party/LoRaWAN/Utilities/queue.c ****   {
 177:../../../../../../Middlewares/Third_Party/LoRaWAN/Utilities/queue.c ****     status=0;
 178:../../../../../../Middlewares/Third_Party/LoRaWAN/Utilities/queue.c ****   }
 179:../../../../../../Middlewares/Third_Party/LoRaWAN/Utilities/queue.c ****   return status;
 180:../../../../../../Middlewares/Third_Party/LoRaWAN/Utilities/queue.c **** }
 181:../../../../../../Middlewares/Third_Party/LoRaWAN/Utilities/queue.c **** 
 182:../../../../../../Middlewares/Third_Party/LoRaWAN/Utilities/queue.c **** /* Private functions ---------------------------------------------------------*/
 183:../../../../../../Middlewares/Third_Party/LoRaWAN/Utilities/queue.c **** static int16_t circular_queue_get_free_size(queue_param_t* queue)
 184:../../../../../../Middlewares/Third_Party/LoRaWAN/Utilities/queue.c **** {
 185:../../../../../../Middlewares/Third_Party/LoRaWAN/Utilities/queue.c ****   int16_t free_size;
 186:../../../../../../Middlewares/Third_Party/LoRaWAN/Utilities/queue.c ****   if (queue->queue_write_idx>=queue->queue_read_idx)
  92              		.loc 1 186 0
  93 0012 AB42     		cmp	r3, r5
  94 0014 00D9     		bls	.LCB54
  95 0016 77E0     		b	.L4	@long jump
  96              	.LCB54:
 187:../../../../../../Middlewares/Third_Party/LoRaWAN/Utilities/queue.c ****   {
ARM GAS  C:\Users\EBANO_~1\AppData\Local\Temp\ccBAc821.s 			page 6


 188:../../../../../../Middlewares/Third_Party/LoRaWAN/Utilities/queue.c ****     free_size=queue->queue_size-(queue->queue_write_idx-queue->queue_read_idx); 
  97              		.loc 1 188 0
  98 0018 1B19     		adds	r3, r3, r4
  99 001a 5B1B     		subs	r3, r3, r5
 100 001c 1BB2     		sxth	r3, r3
 101              	.LVL3:
 189:../../../../../../Middlewares/Third_Party/LoRaWAN/Utilities/queue.c ****   }
 190:../../../../../../Middlewares/Third_Party/LoRaWAN/Utilities/queue.c ****   else
 191:../../../../../../Middlewares/Third_Party/LoRaWAN/Utilities/queue.c ****   {
 192:../../../../../../Middlewares/Third_Party/LoRaWAN/Utilities/queue.c ****     free_size=(queue->queue_read_idx-queue->queue_write_idx); 
 193:../../../../../../Middlewares/Third_Party/LoRaWAN/Utilities/queue.c ****   }
 194:../../../../../../Middlewares/Third_Party/LoRaWAN/Utilities/queue.c ****   if ( queue->queue_full==1)
 102              		.loc 1 194 0
 103 001e 012E     		cmp	r6, #1
 104 0020 00D1     		bne	.LCB61
 105 0022 76E0     		b	.L45	@long jump
 106              	.LCB61:
 107              	.L103:
 108              	.LVL4:
 109              	.LBE18:
 110              	.LBE17:
  48:../../../../../../Middlewares/Third_Party/LoRaWAN/Utilities/queue.c ****       ((queue->queue_write_idx+buff_size+ELEMENT_SIZE_LEN<=queue->queue_size) 
 111              		.loc 1 48 0
 112 0024 561C     		adds	r6, r2, #1
 113 0026 9E42     		cmp	r6, r3
 114 0028 00DB     		blt	.LCB69
 115 002a 79E0     		b	.L7	@long jump
 116              	.LCB69:
  49:../../../../../../Middlewares/Third_Party/LoRaWAN/Utilities/queue.c ****         || (queue->queue_write_idx>=queue->queue_size-ELEMENT_SIZE_LEN))) /*elementSize cut in 2 or
 117              		.loc 1 49 0 discriminator 1
 118 002c AE18     		adds	r6, r5, r2
 119 002e 0136     		adds	r6, r6, #1
  48:../../../../../../Middlewares/Third_Party/LoRaWAN/Utilities/queue.c ****       ((queue->queue_write_idx+buff_size+ELEMENT_SIZE_LEN<=queue->queue_size) 
 120              		.loc 1 48 0 discriminator 1
 121 0030 A642     		cmp	r6, r4
 122 0032 00DB     		blt	.LCB73
 123 0034 70E0     		b	.L102	@long jump
 124              	.LCB73:
 125              	.L8:
 126              	.LVL5:
 127              	.LBB20:
 128              	.LBB21:
 195:../../../../../../Middlewares/Third_Party/LoRaWAN/Utilities/queue.c ****   {
 196:../../../../../../Middlewares/Third_Party/LoRaWAN/Utilities/queue.c ****     free_size=0;
 197:../../../../../../Middlewares/Third_Party/LoRaWAN/Utilities/queue.c ****   }
 198:../../../../../../Middlewares/Third_Party/LoRaWAN/Utilities/queue.c ****   return free_size;
 199:../../../../../../Middlewares/Third_Party/LoRaWAN/Utilities/queue.c **** }
 200:../../../../../../Middlewares/Third_Party/LoRaWAN/Utilities/queue.c **** 
 201:../../../../../../Middlewares/Third_Party/LoRaWAN/Utilities/queue.c **** static void queue_copy(uint8_t* out, const uint8_t* in, uint16_t size)
 202:../../../../../../Middlewares/Third_Party/LoRaWAN/Utilities/queue.c **** {
 203:../../../../../../Middlewares/Third_Party/LoRaWAN/Utilities/queue.c ****   while(size--)
 204:../../../../../../Middlewares/Third_Party/LoRaWAN/Utilities/queue.c ****   {
 205:../../../../../../Middlewares/Third_Party/LoRaWAN/Utilities/queue.c ****     *out++= *in++;
 206:../../../../../../Middlewares/Third_Party/LoRaWAN/Utilities/queue.c ****   }
 207:../../../../../../Middlewares/Third_Party/LoRaWAN/Utilities/queue.c **** }
 208:../../../../../../Middlewares/Third_Party/LoRaWAN/Utilities/queue.c **** 
 209:../../../../../../Middlewares/Third_Party/LoRaWAN/Utilities/queue.c **** static void add_elementSize_and_inc_writeIdx(queue_param_t* queue,uint16_t element_size)
ARM GAS  C:\Users\EBANO_~1\AppData\Local\Temp\ccBAc821.s 			page 7


 210:../../../../../../Middlewares/Third_Party/LoRaWAN/Utilities/queue.c **** {
 211:../../../../../../Middlewares/Third_Party/LoRaWAN/Utilities/queue.c ****   queue->queue_buff[queue->queue_write_idx++]=(uint8_t) (element_size>>8);
 129              		.loc 1 211 0
 130 0036 6B1C     		adds	r3, r5, #1
 131 0038 8468     		ldr	r4, [r0, #8]
 132 003a 4380     		strh	r3, [r0, #2]
 133 003c 130A     		lsrs	r3, r2, #8
 134 003e 6355     		strb	r3, [r4, r5]
 212:../../../../../../Middlewares/Third_Party/LoRaWAN/Utilities/queue.c ****   /*wrap if needed*/
 213:../../../../../../Middlewares/Third_Party/LoRaWAN/Utilities/queue.c ****   if ( queue->queue_write_idx == queue->queue_size)
 135              		.loc 1 213 0
 136 0040 4388     		ldrh	r3, [r0, #2]
 137 0042 C488     		ldrh	r4, [r0, #6]
 138 0044 9C42     		cmp	r4, r3
 139 0046 00D1     		bne	.LCB88
 140 0048 45E1     		b	.L44	@long jump
 141              	.LCB88:
 142 004a 5C1C     		adds	r4, r3, #1
 143 004c A4B2     		uxth	r4, r4
 144              	.L9:
 214:../../../../../../Middlewares/Third_Party/LoRaWAN/Utilities/queue.c ****   {
 215:../../../../../../Middlewares/Third_Party/LoRaWAN/Utilities/queue.c ****     queue->queue_write_idx=0;
 216:../../../../../../Middlewares/Third_Party/LoRaWAN/Utilities/queue.c ****   }
 217:../../../../../../Middlewares/Third_Party/LoRaWAN/Utilities/queue.c ****   queue->queue_buff[queue->queue_write_idx++]=(uint8_t) (element_size);
 145              		.loc 1 217 0
 146 004e 4480     		strh	r4, [r0, #2]
 147 0050 8468     		ldr	r4, [r0, #8]
 148 0052 E254     		strb	r2, [r4, r3]
 218:../../../../../../Middlewares/Third_Party/LoRaWAN/Utilities/queue.c ****   /*wrap if needed*/
 219:../../../../../../Middlewares/Third_Party/LoRaWAN/Utilities/queue.c ****   if ( queue->queue_write_idx == queue->queue_size)
 149              		.loc 1 219 0
 150 0054 C488     		ldrh	r4, [r0, #6]
 151 0056 4388     		ldrh	r3, [r0, #2]
 152 0058 A446     		mov	ip, r4
 153 005a A342     		cmp	r3, r4
 154 005c 00D1     		bne	.LCB103
 155 005e 36E1     		b	.L10	@long jump
 156              	.LCB103:
 157 0060 1F00     		movs	r7, r3
 158              	.L11:
 159              	.LVL6:
 160              	.LBE21:
 161              	.LBE20:
  54:../../../../../../Middlewares/Third_Party/LoRaWAN/Utilities/queue.c ****     queue->queue_write_idx+=buff_size;
 162              		.loc 1 54 0
 163 0062 8468     		ldr	r4, [r0, #8]
 164              	.LBB23:
 165              	.LBB24:
 203:../../../../../../Middlewares/Third_Party/LoRaWAN/Utilities/queue.c ****   {
 166              		.loc 1 203 0
 167 0064 561E     		subs	r6, r2, #1
 168              	.LBE24:
 169              	.LBE23:
  54:../../../../../../Middlewares/Third_Party/LoRaWAN/Utilities/queue.c ****     queue->queue_write_idx+=buff_size;
 170              		.loc 1 54 0
 171 0066 E519     		adds	r5, r4, r7
 172              	.LVL7:
ARM GAS  C:\Users\EBANO_~1\AppData\Local\Temp\ccBAc821.s 			page 8


 173              	.LBB27:
 174              	.LBB25:
 203:../../../../../../Middlewares/Third_Party/LoRaWAN/Utilities/queue.c ****   {
 175              		.loc 1 203 0
 176 0068 B6B2     		uxth	r6, r6
 177              	.LVL8:
 178 006a 002A     		cmp	r2, #0
 179 006c 39D0     		beq	.L12
 180 006e 0023     		movs	r3, #0
 181 0070 0437     		adds	r7, r7, #4
 182 0072 E419     		adds	r4, r4, r7
 183 0074 1F00     		movs	r7, r3
 184 0076 A142     		cmp	r1, r4
 185 0078 5F41     		adcs	r7, r7, r3
 186 007a 3C00     		movs	r4, r7
 187 007c 0F1D     		adds	r7, r1, #4
 188 007e BD42     		cmp	r5, r7
 189 0080 5B41     		adcs	r3, r3, r3
 190 0082 2343     		orrs	r3, r4
 191 0084 0924     		movs	r4, #9
 192 0086 9442     		cmp	r4, r2
 193 0088 A441     		sbcs	r4, r4, r4
 194 008a 6442     		rsbs	r4, r4, #0
 195 008c 1C42     		tst	r4, r3
 196 008e 00D1     		bne	.LCB142
 197 0090 3AE1     		b	.L13	@long jump
 198              	.LCB142:
 199 0092 0B00     		movs	r3, r1
 200 0094 2B43     		orrs	r3, r5
 201 0096 9B07     		lsls	r3, r3, #30
 202 0098 00D0     		beq	.LCB150
 203 009a 35E1     		b	.L13	@long jump
 204              	.LCB150:
 205 009c 022E     		cmp	r6, #2
 206 009e 13D9     		bls	.L14
 207 00a0 9308     		lsrs	r3, r2, #2
 208 00a2 9C46     		mov	ip, r3
 209 00a4 0024     		movs	r4, #0
 210 00a6 0023     		movs	r3, #0
 211              	.LVL9:
 212              	.L15:
 205:../../../../../../Middlewares/Third_Party/LoRaWAN/Utilities/queue.c ****   }
 213              		.loc 1 205 0
 214 00a8 CF58     		ldr	r7, [r1, r3]
 215 00aa 0134     		adds	r4, r4, #1
 216 00ac EF50     		str	r7, [r5, r3]
 217 00ae A7B2     		uxth	r7, r4
 218 00b0 0433     		adds	r3, r3, #4
 219 00b2 BC45     		cmp	ip, r7
 220 00b4 F8D8     		bhi	.L15
 221 00b6 0323     		movs	r3, #3
 222 00b8 1400     		movs	r4, r2
 223 00ba 9C43     		bics	r4, r3
 224 00bc 361B     		subs	r6, r6, r4
 225 00be 0919     		adds	r1, r1, r4
 226              	.LVL10:
 227 00c0 2D19     		adds	r5, r5, r4
ARM GAS  C:\Users\EBANO_~1\AppData\Local\Temp\ccBAc821.s 			page 9


 228 00c2 B6B2     		uxth	r6, r6
 229 00c4 A242     		cmp	r2, r4
 230 00c6 09D0     		beq	.L18
 231              	.L14:
 232              	.LVL11:
 233 00c8 0B78     		ldrb	r3, [r1]
 234 00ca 2B70     		strb	r3, [r5]
 235              	.LVL12:
 203:../../../../../../Middlewares/Third_Party/LoRaWAN/Utilities/queue.c ****   {
 236              		.loc 1 203 0
 237 00cc 002E     		cmp	r6, #0
 238 00ce 05D0     		beq	.L18
 239              	.LVL13:
 205:../../../../../../Middlewares/Third_Party/LoRaWAN/Utilities/queue.c ****   }
 240              		.loc 1 205 0
 241 00d0 4B78     		ldrb	r3, [r1, #1]
 242 00d2 6B70     		strb	r3, [r5, #1]
 243              	.LVL14:
 203:../../../../../../Middlewares/Third_Party/LoRaWAN/Utilities/queue.c ****   {
 244              		.loc 1 203 0
 245 00d4 012E     		cmp	r6, #1
 246 00d6 01D0     		beq	.L18
 247              	.LVL15:
 205:../../../../../../Middlewares/Third_Party/LoRaWAN/Utilities/queue.c ****   }
 248              		.loc 1 205 0
 249 00d8 8B78     		ldrb	r3, [r1, #2]
 250 00da AB70     		strb	r3, [r5, #2]
 251              	.LVL16:
 252              	.L18:
 253 00dc C188     		ldrh	r1, [r0, #6]
 254 00de 4388     		ldrh	r3, [r0, #2]
 255 00e0 8C46     		mov	ip, r1
 256              	.L12:
 257              	.LBE25:
 258              	.LBE27:
  55:../../../../../../Middlewares/Third_Party/LoRaWAN/Utilities/queue.c ****     /*modulo queue_size*/
 259              		.loc 1 55 0
 260 00e2 D218     		adds	r2, r2, r3
 261              	.LVL17:
 262 00e4 92B2     		uxth	r2, r2
  57:../../../../../../Middlewares/Third_Party/LoRaWAN/Utilities/queue.c ****     {
 263              		.loc 1 57 0
 264 00e6 6245     		cmp	r2, ip
 265 00e8 00D1     		bne	.LCB239
 266 00ea F7E0     		b	.L19	@long jump
 267              	.LCB239:
  55:../../../../../../Middlewares/Third_Party/LoRaWAN/Utilities/queue.c ****     /*modulo queue_size*/
 268              		.loc 1 55 0
 269 00ec 4280     		strh	r2, [r0, #2]
 270              	.L20:
  62:../../../../../../Middlewares/Third_Party/LoRaWAN/Utilities/queue.c ****     /*in case que is full*/
 271              		.loc 1 62 0
 272 00ee 8388     		ldrh	r3, [r0, #4]
 273 00f0 0133     		adds	r3, r3, #1
 274 00f2 8380     		strh	r3, [r0, #4]
  64:../../../../../../Middlewares/Third_Party/LoRaWAN/Utilities/queue.c ****     {
 275              		.loc 1 64 0
ARM GAS  C:\Users\EBANO_~1\AppData\Local\Temp\ccBAc821.s 			page 10


 276 00f4 0388     		ldrh	r3, [r0]
 277 00f6 9342     		cmp	r3, r2
 278 00f8 00D1     		bne	.LCB253
 279 00fa DFE0     		b	.L21	@long jump
 280              	.LCB253:
 281              	.LVL18:
 282              	.L101:
  68:../../../../../../Middlewares/Third_Party/LoRaWAN/Utilities/queue.c ****   }
 283              		.loc 1 68 0
 284 00fc 0020     		movs	r0, #0
 285              	.LVL19:
 286              	.L3:
  98:../../../../../../Middlewares/Third_Party/LoRaWAN/Utilities/queue.c **** 
 287              		.loc 1 98 0
 288              		@ sp needed
 289 00fe 1CBC     		pop	{r2, r3, r4}
 290 0100 9046     		mov	r8, r2
 291 0102 9946     		mov	r9, r3
 292 0104 A246     		mov	r10, r4
 293 0106 F0BD     		pop	{r4, r5, r6, r7, pc}
 294              	.LVL20:
 295              	.L4:
 296              	.LBB28:
 297              	.LBB19:
 192:../../../../../../Middlewares/Third_Party/LoRaWAN/Utilities/queue.c ****   }
 298              		.loc 1 192 0
 299 0108 5B1B     		subs	r3, r3, r5
 300 010a 1BB2     		sxth	r3, r3
 301              	.LVL21:
 194:../../../../../../Middlewares/Third_Party/LoRaWAN/Utilities/queue.c ****   {
 302              		.loc 1 194 0
 303 010c 012E     		cmp	r6, #1
 304 010e 00D0     		beq	.LCB299
 305 0110 88E7     		b	.L103	@long jump
 306              	.LCB299:
 307              	.LVL22:
 308              	.L45:
 309              	.LBE19:
 310              	.LBE28:
  95:../../../../../../Middlewares/Third_Party/LoRaWAN/Utilities/queue.c ****   }
 311              		.loc 1 95 0
 312 0112 0120     		movs	r0, #1
 313              	.LVL23:
 314 0114 4042     		rsbs	r0, r0, #0
 315              	.LVL24:
  97:../../../../../../Middlewares/Third_Party/LoRaWAN/Utilities/queue.c **** }
 316              		.loc 1 97 0
 317 0116 F2E7     		b	.L3
 318              	.LVL25:
 319              	.L102:
  50:../../../../../../Middlewares/Third_Party/LoRaWAN/Utilities/queue.c ****   {
 320              		.loc 1 50 0
 321 0118 A61E     		subs	r6, r4, #2
 322 011a B542     		cmp	r5, r6
 323 011c 00DB     		blt	.LCB324
 324 011e 8AE7     		b	.L8	@long jump
 325              	.LCB324:
ARM GAS  C:\Users\EBANO_~1\AppData\Local\Temp\ccBAc821.s 			page 11


 326              	.L7:
  70:../../../../../../Middlewares/Third_Party/LoRaWAN/Utilities/queue.c ****   {
 327              		.loc 1 70 0
 328 0120 D61C     		adds	r6, r2, #3
 329 0122 B342     		cmp	r3, r6
 330 0124 F5DD     		ble	.L45
 331              	.LBB29:
  74:../../../../../../Middlewares/Third_Party/LoRaWAN/Utilities/queue.c ****     add_elementSize_and_inc_writeIdx(queue,top_size);
 332              		.loc 1 74 0
 333 0126 023C     		subs	r4, r4, #2
 334 0128 641B     		subs	r4, r4, r5
 335              	.LBB30:
 336              	.LBB31:
 211:../../../../../../Middlewares/Third_Party/LoRaWAN/Utilities/queue.c ****   /*wrap if needed*/
 337              		.loc 1 211 0
 338 012a 6B1C     		adds	r3, r5, #1
 339              	.LBE31:
 340              	.LBE30:
  74:../../../../../../Middlewares/Third_Party/LoRaWAN/Utilities/queue.c ****     add_elementSize_and_inc_writeIdx(queue,top_size);
 341              		.loc 1 74 0
 342 012c A4B2     		uxth	r4, r4
 343              	.LVL26:
 344              	.LBB34:
 345              	.LBB32:
 211:../../../../../../Middlewares/Third_Party/LoRaWAN/Utilities/queue.c ****   /*wrap if needed*/
 346              		.loc 1 211 0
 347 012e 8668     		ldr	r6, [r0, #8]
 348 0130 4380     		strh	r3, [r0, #2]
 349 0132 230A     		lsrs	r3, r4, #8
 350 0134 7355     		strb	r3, [r6, r5]
 213:../../../../../../Middlewares/Third_Party/LoRaWAN/Utilities/queue.c ****   {
 351              		.loc 1 213 0
 352 0136 4388     		ldrh	r3, [r0, #2]
 353 0138 C588     		ldrh	r5, [r0, #6]
 354 013a 9D42     		cmp	r5, r3
 355 013c 00D1     		bne	.LCB351
 356 013e C3E0     		b	.L46	@long jump
 357              	.LCB351:
 358 0140 5D1C     		adds	r5, r3, #1
 359 0142 ADB2     		uxth	r5, r5
 360              	.L22:
 217:../../../../../../Middlewares/Third_Party/LoRaWAN/Utilities/queue.c ****   /*wrap if needed*/
 361              		.loc 1 217 0
 362 0144 4580     		strh	r5, [r0, #2]
 363 0146 8568     		ldr	r5, [r0, #8]
 364 0148 EC54     		strb	r4, [r5, r3]
 365              		.loc 1 219 0
 366 014a 4388     		ldrh	r3, [r0, #2]
 367 014c C588     		ldrh	r5, [r0, #6]
 368 014e 9D42     		cmp	r5, r3
 369 0150 01D1     		bne	.L24
 220:../../../../../../Middlewares/Third_Party/LoRaWAN/Utilities/queue.c ****   {
 221:../../../../../../Middlewares/Third_Party/LoRaWAN/Utilities/queue.c ****     queue->queue_write_idx=0;
 370              		.loc 1 221 0
 371 0152 0023     		movs	r3, #0
 372 0154 4380     		strh	r3, [r0, #2]
 373              	.L24:
ARM GAS  C:\Users\EBANO_~1\AppData\Local\Temp\ccBAc821.s 			page 12


 374              	.LVL27:
 375              	.LBE32:
 376              	.LBE34:
  76:../../../../../../Middlewares/Third_Party/LoRaWAN/Utilities/queue.c ****     queue->queue_write_idx=0;
 377              		.loc 1 76 0
 378 0156 8568     		ldr	r5, [r0, #8]
 379              	.LBB35:
 380              	.LBB36:
 203:../../../../../../Middlewares/Third_Party/LoRaWAN/Utilities/queue.c ****   {
 381              		.loc 1 203 0
 382 0158 671E     		subs	r7, r4, #1
 383 015a BFB2     		uxth	r7, r7
 384              	.LBE36:
 385              	.LBE35:
  76:../../../../../../Middlewares/Third_Party/LoRaWAN/Utilities/queue.c ****     queue->queue_write_idx=0;
 386              		.loc 1 76 0
 387 015c EE18     		adds	r6, r5, r3
 388              	.LVL28:
 389              	.LBB40:
 390              	.LBB37:
 203:../../../../../../Middlewares/Third_Party/LoRaWAN/Utilities/queue.c ****   {
 391              		.loc 1 203 0
 392 015e B946     		mov	r9, r7
 393              	.LVL29:
 394 0160 002C     		cmp	r4, #0
 395 0162 3ED0     		beq	.L25
 396 0164 0433     		adds	r3, r3, #4
 397 0166 EB18     		adds	r3, r5, r3
 398 0168 0025     		movs	r5, #0
 399 016a 2F00     		movs	r7, r5
 400 016c 9942     		cmp	r1, r3
 401 016e 6F41     		adcs	r7, r7, r5
 402 0170 3B00     		movs	r3, r7
 403 0172 0F1D     		adds	r7, r1, #4
 404 0174 BE42     		cmp	r6, r7
 405 0176 6D41     		adcs	r5, r5, r5
 406 0178 1D43     		orrs	r5, r3
 407 017a 0923     		movs	r3, #9
 408 017c A342     		cmp	r3, r4
 409 017e 9B41     		sbcs	r3, r3, r3
 410 0180 5B42     		rsbs	r3, r3, #0
 411 0182 2B42     		tst	r3, r5
 412 0184 00D1     		bne	.LCB405
 413 0186 B6E0     		b	.L26	@long jump
 414              	.LCB405:
 415 0188 0B00     		movs	r3, r1
 416 018a 3343     		orrs	r3, r6
 417 018c 9B07     		lsls	r3, r3, #30
 418 018e 00D0     		beq	.LCB413
 419 0190 B1E0     		b	.L26	@long jump
 420              	.LCB413:
 421 0192 4B46     		mov	r3, r9
 422 0194 022B     		cmp	r3, #2
 423 0196 00D8     		bhi	.LCB416
 424 0198 BEE0     		b	.L47	@long jump
 425              	.LCB416:
 426 019a A308     		lsrs	r3, r4, #2
ARM GAS  C:\Users\EBANO_~1\AppData\Local\Temp\ccBAc821.s 			page 13


 427 019c 9846     		mov	r8, r3
 428 019e 0025     		movs	r5, #0
 429 01a0 0023     		movs	r3, #0
 430              	.LVL30:
 431              	.L28:
 205:../../../../../../Middlewares/Third_Party/LoRaWAN/Utilities/queue.c ****   }
 432              		.loc 1 205 0
 433 01a2 CF58     		ldr	r7, [r1, r3]
 434 01a4 0135     		adds	r5, r5, #1
 435 01a6 F750     		str	r7, [r6, r3]
 436 01a8 AFB2     		uxth	r7, r5
 437 01aa 0433     		adds	r3, r3, #4
 438 01ac B845     		cmp	r8, r7
 439 01ae F8D8     		bhi	.L28
 440 01b0 0323     		movs	r3, #3
 441 01b2 2500     		movs	r5, r4
 442 01b4 9D43     		bics	r5, r3
 443 01b6 2B00     		movs	r3, r5
 444 01b8 4F46     		mov	r7, r9
 445 01ba FF1A     		subs	r7, r7, r3
 446 01bc BFB2     		uxth	r7, r7
 447 01be 4D19     		adds	r5, r1, r5
 448 01c0 F618     		adds	r6, r6, r3
 449 01c2 B946     		mov	r9, r7
 450 01c4 9C42     		cmp	r4, r3
 451 01c6 0BD0     		beq	.L31
 452              	.L27:
 453              	.LVL31:
 454 01c8 2B78     		ldrb	r3, [r5]
 455 01ca 3370     		strb	r3, [r6]
 456              	.LVL32:
 203:../../../../../../Middlewares/Third_Party/LoRaWAN/Utilities/queue.c ****   {
 457              		.loc 1 203 0
 458 01cc 4B46     		mov	r3, r9
 459 01ce 002B     		cmp	r3, #0
 460 01d0 06D0     		beq	.L31
 461              	.LVL33:
 205:../../../../../../Middlewares/Third_Party/LoRaWAN/Utilities/queue.c ****   }
 462              		.loc 1 205 0
 463 01d2 6B78     		ldrb	r3, [r5, #1]
 464 01d4 7370     		strb	r3, [r6, #1]
 465              	.LVL34:
 203:../../../../../../Middlewares/Third_Party/LoRaWAN/Utilities/queue.c ****   {
 466              		.loc 1 203 0
 467 01d6 4B46     		mov	r3, r9
 468 01d8 012B     		cmp	r3, #1
 469 01da 01D0     		beq	.L31
 470              	.LVL35:
 205:../../../../../../Middlewares/Third_Party/LoRaWAN/Utilities/queue.c ****   }
 471              		.loc 1 205 0
 472 01dc AB78     		ldrb	r3, [r5, #2]
 473 01de B370     		strb	r3, [r6, #2]
 474              	.LVL36:
 475              	.L31:
 476 01e0 8568     		ldr	r5, [r0, #8]
 477              	.L25:
 478              	.LBE37:
ARM GAS  C:\Users\EBANO_~1\AppData\Local\Temp\ccBAc821.s 			page 14


 479              	.LBE40:
  80:../../../../../../Middlewares/Third_Party/LoRaWAN/Utilities/queue.c ****     add_elementSize_and_inc_writeIdx(queue, buff_size);
 480              		.loc 1 80 0
 481 01e2 121B     		subs	r2, r2, r4
 482              	.LVL37:
 483 01e4 93B2     		uxth	r3, r2
 484 01e6 9946     		mov	r9, r3
 485              	.LVL38:
 486              	.LBB41:
 487              	.LBB42:
 211:../../../../../../Middlewares/Third_Party/LoRaWAN/Utilities/queue.c ****   /*wrap if needed*/
 488              		.loc 1 211 0
 489 01e8 0123     		movs	r3, #1
 490 01ea 4380     		strh	r3, [r0, #2]
 491 01ec 4B46     		mov	r3, r9
 492 01ee 1B0A     		lsrs	r3, r3, #8
 493 01f0 2B70     		strb	r3, [r5]
 213:../../../../../../Middlewares/Third_Party/LoRaWAN/Utilities/queue.c ****   {
 494              		.loc 1 213 0
 495 01f2 4388     		ldrh	r3, [r0, #2]
 496 01f4 C588     		ldrh	r5, [r0, #6]
 497 01f6 9D42     		cmp	r5, r3
 498 01f8 63D0     		beq	.L48
 499 01fa 5D1C     		adds	r5, r3, #1
 500 01fc ADB2     		uxth	r5, r5
 501              	.L32:
 217:../../../../../../Middlewares/Third_Party/LoRaWAN/Utilities/queue.c ****   /*wrap if needed*/
 502              		.loc 1 217 0
 503 01fe 4A46     		mov	r2, r9
 504 0200 4580     		strh	r5, [r0, #2]
 505 0202 8568     		ldr	r5, [r0, #8]
 506 0204 EA54     		strb	r2, [r5, r3]
 219:../../../../../../Middlewares/Third_Party/LoRaWAN/Utilities/queue.c ****   {
 507              		.loc 1 219 0
 508 0206 4388     		ldrh	r3, [r0, #2]
 509 0208 C588     		ldrh	r5, [r0, #6]
 510 020a 9D42     		cmp	r5, r3
 511 020c 01D1     		bne	.L100
 512              		.loc 1 221 0
 513 020e 0023     		movs	r3, #0
 514 0210 4380     		strh	r3, [r0, #2]
 515              	.L100:
 516              	.LBE42:
 517              	.LBE41:
 518              	.LBB45:
 519              	.LBB46:
 203:../../../../../../Middlewares/Third_Party/LoRaWAN/Utilities/queue.c ****   {
 520              		.loc 1 203 0
 521 0212 4A46     		mov	r2, r9
 522              	.LBE46:
 523              	.LBE45:
  82:../../../../../../Middlewares/Third_Party/LoRaWAN/Utilities/queue.c ****     queue->queue_write_idx+=buff_size;
 524              		.loc 1 82 0
 525 0214 8568     		ldr	r5, [r0, #8]
 526              	.LBB51:
 527              	.LBB47:
 203:../../../../../../Middlewares/Third_Party/LoRaWAN/Utilities/queue.c ****   {
ARM GAS  C:\Users\EBANO_~1\AppData\Local\Temp\ccBAc821.s 			page 15


 528              		.loc 1 203 0
 529 0216 571E     		subs	r7, r2, #1
 530 0218 BAB2     		uxth	r2, r7
 531              	.LBE47:
 532              	.LBE51:
  82:../../../../../../Middlewares/Third_Party/LoRaWAN/Utilities/queue.c ****     queue->queue_write_idx+=buff_size;
 533              		.loc 1 82 0
 534 021a 2E00     		movs	r6, r5
 535              	.LBB52:
 536              	.LBB43:
 537              		.loc 1 221 0
 538 021c 9846     		mov	r8, r3
 539              	.LVL39:
 540              	.LBE43:
 541              	.LBE52:
 542              	.LBB53:
 543              	.LBB48:
 203:../../../../../../Middlewares/Third_Party/LoRaWAN/Utilities/queue.c ****   {
 544              		.loc 1 203 0
 545 021e 9246     		mov	r10, r2
 546 0220 4A46     		mov	r2, r9
 547              	.LBE48:
 548              	.LBE53:
  82:../../../../../../Middlewares/Third_Party/LoRaWAN/Utilities/queue.c ****     queue->queue_write_idx+=buff_size;
 549              		.loc 1 82 0
 550 0222 AC46     		mov	ip, r5
 551 0224 4644     		add	r6, r6, r8
 552 0226 0D19     		adds	r5, r1, r4
 553              	.LVL40:
 554              	.LBB54:
 555              	.LBB49:
 203:../../../../../../Middlewares/Third_Party/LoRaWAN/Utilities/queue.c ****   {
 556              		.loc 1 203 0
 557 0228 002A     		cmp	r2, #0
 558 022a 3DD0     		beq	.L35
 559 022c 0027     		movs	r7, #0
 560 022e 0433     		adds	r3, r3, #4
 561 0230 6344     		add	r3, r3, ip
 562 0232 BC46     		mov	ip, r7
 563 0234 3A00     		movs	r2, r7
 564 0236 9D42     		cmp	r5, r3
 565 0238 7F41     		adcs	r7, r7, r7
 566 023a 6346     		mov	r3, ip
 567 023c 0434     		adds	r4, r4, #4
 568              	.LVL41:
 569 023e 0919     		adds	r1, r1, r4
 570              	.LVL42:
 571 0240 8E42     		cmp	r6, r1
 572 0242 5341     		adcs	r3, r3, r2
 573 0244 0921     		movs	r1, #9
 574 0246 4945     		cmp	r1, r9
 575 0248 8941     		sbcs	r1, r1, r1
 576 024a 3B43     		orrs	r3, r7
 577 024c 4942     		rsbs	r1, r1, #0
 578 024e 1942     		tst	r1, r3
 579 0250 48D0     		beq	.L36
 580 0252 3300     		movs	r3, r6
ARM GAS  C:\Users\EBANO_~1\AppData\Local\Temp\ccBAc821.s 			page 16


 581 0254 2B43     		orrs	r3, r5
 582 0256 9B07     		lsls	r3, r3, #30
 583 0258 44D1     		bne	.L36
 584 025a 5346     		mov	r3, r10
 585 025c 022B     		cmp	r3, #2
 586 025e 16D9     		bls	.L37
 587 0260 4B46     		mov	r3, r9
 588 0262 9B08     		lsrs	r3, r3, #2
 589 0264 9C46     		mov	ip, r3
 590 0266 0021     		movs	r1, #0
 591 0268 0023     		movs	r3, #0
 592              	.LVL43:
 593              	.L38:
 205:../../../../../../Middlewares/Third_Party/LoRaWAN/Utilities/queue.c ****   }
 594              		.loc 1 205 0
 595 026a EC58     		ldr	r4, [r5, r3]
 596 026c 0131     		adds	r1, r1, #1
 597 026e F450     		str	r4, [r6, r3]
 598 0270 8CB2     		uxth	r4, r1
 599 0272 0433     		adds	r3, r3, #4
 600 0274 A445     		cmp	ip, r4
 601 0276 F8D8     		bhi	.L38
 602 0278 0323     		movs	r3, #3
 603 027a 4946     		mov	r1, r9
 604 027c 5246     		mov	r2, r10
 605 027e 9943     		bics	r1, r3
 606 0280 571A     		subs	r7, r2, r1
 607 0282 BAB2     		uxth	r2, r7
 608 0284 6D18     		adds	r5, r5, r1
 609 0286 7618     		adds	r6, r6, r1
 610 0288 9246     		mov	r10, r2
 611 028a 4945     		cmp	r1, r9
 612 028c 0BD0     		beq	.L41
 613              	.L37:
 614              	.LVL44:
 615 028e 2B78     		ldrb	r3, [r5]
 616 0290 3370     		strb	r3, [r6]
 617              	.LVL45:
 203:../../../../../../Middlewares/Third_Party/LoRaWAN/Utilities/queue.c ****   {
 618              		.loc 1 203 0
 619 0292 5346     		mov	r3, r10
 620 0294 002B     		cmp	r3, #0
 621 0296 06D0     		beq	.L41
 622              	.LVL46:
 205:../../../../../../Middlewares/Third_Party/LoRaWAN/Utilities/queue.c ****   }
 623              		.loc 1 205 0
 624 0298 6B78     		ldrb	r3, [r5, #1]
 625 029a 7370     		strb	r3, [r6, #1]
 626              	.LVL47:
 203:../../../../../../Middlewares/Third_Party/LoRaWAN/Utilities/queue.c ****   {
 627              		.loc 1 203 0
 628 029c 5346     		mov	r3, r10
 629 029e 012B     		cmp	r3, #1
 630 02a0 01D0     		beq	.L41
 631              	.LVL48:
 205:../../../../../../Middlewares/Third_Party/LoRaWAN/Utilities/queue.c ****   }
 632              		.loc 1 205 0
ARM GAS  C:\Users\EBANO_~1\AppData\Local\Temp\ccBAc821.s 			page 17


 633 02a2 AB78     		ldrb	r3, [r5, #2]
 634 02a4 B370     		strb	r3, [r6, #2]
 635              	.LVL49:
 636              	.L41:
 637 02a6 4388     		ldrh	r3, [r0, #2]
 638              	.L35:
 639              	.LBE49:
 640              	.LBE54:
  83:../../../../../../Middlewares/Third_Party/LoRaWAN/Utilities/queue.c ****     // add two elements
 641              		.loc 1 83 0
 642 02a8 4B44     		add	r3, r3, r9
 643 02aa 9AB2     		uxth	r2, r3
  85:../../../../../../Middlewares/Third_Party/LoRaWAN/Utilities/queue.c ****     /*in case que is full*/
 644              		.loc 1 85 0
 645 02ac 8388     		ldrh	r3, [r0, #4]
  83:../../../../../../Middlewares/Third_Party/LoRaWAN/Utilities/queue.c ****     // add two elements
 646              		.loc 1 83 0
 647 02ae 4280     		strh	r2, [r0, #2]
  85:../../../../../../Middlewares/Third_Party/LoRaWAN/Utilities/queue.c ****     /*in case que is full*/
 648              		.loc 1 85 0
 649 02b0 0233     		adds	r3, r3, #2
 650 02b2 8380     		strh	r3, [r0, #4]
  87:../../../../../../Middlewares/Third_Party/LoRaWAN/Utilities/queue.c ****     {
 651              		.loc 1 87 0
 652 02b4 0388     		ldrh	r3, [r0]
 653 02b6 9342     		cmp	r3, r2
 654 02b8 00D0     		beq	.LCB699
 655 02ba 1FE7     		b	.L101	@long jump
 656              	.LCB699:
 657              	.LVL50:
 658              	.L21:
 659              	.LBE29:
  66:../../../../../../Middlewares/Third_Party/LoRaWAN/Utilities/queue.c ****     }
 660              		.loc 1 66 0
 661 02bc 0123     		movs	r3, #1
 662 02be 0373     		strb	r3, [r0, #12]
 663 02c0 1CE7     		b	.L101
 664              	.LVL51:
 665              	.L48:
 666              	.LBB60:
 667              	.LBB55:
 668              	.LBB44:
 213:../../../../../../Middlewares/Third_Party/LoRaWAN/Utilities/queue.c ****   {
 669              		.loc 1 213 0
 670 02c2 0023     		movs	r3, #0
 671 02c4 0125     		movs	r5, #1
 672 02c6 9AE7     		b	.L32
 673              	.LVL52:
 674              	.L46:
 675              	.LBE44:
 676              	.LBE55:
 677              	.LBB56:
 678              	.LBB33:
 679 02c8 0023     		movs	r3, #0
 680 02ca 0125     		movs	r5, #1
 681 02cc 3AE7     		b	.L22
 682              	.LVL53:
ARM GAS  C:\Users\EBANO_~1\AppData\Local\Temp\ccBAc821.s 			page 18


 683              	.L10:
 684              	.LBE33:
 685              	.LBE56:
 686              	.LBE60:
 687              	.LBB61:
 688              	.LBB22:
 689              		.loc 1 221 0
 690 02ce 0023     		movs	r3, #0
 691 02d0 0027     		movs	r7, #0
 692 02d2 4380     		strh	r3, [r0, #2]
 693 02d4 C5E6     		b	.L11
 694              	.L44:
 213:../../../../../../Middlewares/Third_Party/LoRaWAN/Utilities/queue.c ****   {
 695              		.loc 1 213 0
 696 02d6 0023     		movs	r3, #0
 697 02d8 0124     		movs	r4, #1
 698 02da B8E6     		b	.L9
 699              	.LVL54:
 700              	.L19:
 701              	.LBE22:
 702              	.LBE61:
  59:../../../../../../Middlewares/Third_Party/LoRaWAN/Utilities/queue.c ****     }
 703              		.loc 1 59 0
 704 02dc 0023     		movs	r3, #0
 705 02de 0022     		movs	r2, #0
 706 02e0 4380     		strh	r3, [r0, #2]
 707 02e2 04E7     		b	.L20
 708              	.LVL55:
 709              	.L36:
 710 02e4 5746     		mov	r7, r10
 711              	.LBB62:
 712              	.LBB57:
 713              	.LBB50:
 203:../../../../../../Middlewares/Third_Party/LoRaWAN/Utilities/queue.c ****   {
 714              		.loc 1 203 0
 715 02e6 0023     		movs	r3, #0
 716 02e8 0137     		adds	r7, r7, #1
 717              	.LVL56:
 718              	.L40:
 205:../../../../../../Middlewares/Third_Party/LoRaWAN/Utilities/queue.c ****   }
 719              		.loc 1 205 0
 720 02ea E95C     		ldrb	r1, [r5, r3]
 721 02ec F154     		strb	r1, [r6, r3]
 722              	.LVL57:
 723 02ee 0133     		adds	r3, r3, #1
 724              	.LVL58:
 203:../../../../../../Middlewares/Third_Party/LoRaWAN/Utilities/queue.c ****   {
 725              		.loc 1 203 0
 726 02f0 9F42     		cmp	r7, r3
 727 02f2 FAD1     		bne	.L40
 728 02f4 D7E7     		b	.L41
 729              	.LVL59:
 730              	.L26:
 731 02f6 4F46     		mov	r7, r9
 732              	.LBE50:
 733              	.LBE57:
 734              	.LBB58:
ARM GAS  C:\Users\EBANO_~1\AppData\Local\Temp\ccBAc821.s 			page 19


 735              	.LBB38:
 736 02f8 0023     		movs	r3, #0
 737 02fa 0137     		adds	r7, r7, #1
 738              	.LVL60:
 739              	.L30:
 205:../../../../../../Middlewares/Third_Party/LoRaWAN/Utilities/queue.c ****   }
 740              		.loc 1 205 0
 741 02fc CD5C     		ldrb	r5, [r1, r3]
 742 02fe F554     		strb	r5, [r6, r3]
 743              	.LVL61:
 744 0300 0133     		adds	r3, r3, #1
 745              	.LVL62:
 203:../../../../../../Middlewares/Third_Party/LoRaWAN/Utilities/queue.c ****   {
 746              		.loc 1 203 0
 747 0302 BB42     		cmp	r3, r7
 748 0304 FAD1     		bne	.L30
 749 0306 6BE7     		b	.L31
 750              	.LVL63:
 751              	.L13:
 752              	.LBE38:
 753              	.LBE58:
 754              	.LBE62:
 755              	.LBB63:
 756              	.LBB26:
 757 0308 0023     		movs	r3, #0
 758 030a 0136     		adds	r6, r6, #1
 759              	.LVL64:
 760              	.L17:
 205:../../../../../../Middlewares/Third_Party/LoRaWAN/Utilities/queue.c ****   }
 761              		.loc 1 205 0
 762 030c CC5C     		ldrb	r4, [r1, r3]
 763 030e EC54     		strb	r4, [r5, r3]
 764              	.LVL65:
 765 0310 0133     		adds	r3, r3, #1
 766              	.LVL66:
 203:../../../../../../Middlewares/Third_Party/LoRaWAN/Utilities/queue.c ****   {
 767              		.loc 1 203 0
 768 0312 B342     		cmp	r3, r6
 769 0314 FAD1     		bne	.L17
 770 0316 E1E6     		b	.L18
 771              	.LVL67:
 772              	.L47:
 773              	.LBE26:
 774              	.LBE63:
 775              	.LBB64:
 776              	.LBB59:
 777              	.LBB39:
 778 0318 0D00     		movs	r5, r1
 779 031a 55E7     		b	.L27
 780              	.LBE39:
 781              	.LBE59:
 782              	.LBE64:
 783              		.cfi_endproc
 784              	.LFE1:
 785              		.size	circular_queue_add, .-circular_queue_add
 786              		.section	.text.circular_queue_get,"ax",%progbits
 787              		.align	1
ARM GAS  C:\Users\EBANO_~1\AppData\Local\Temp\ccBAc821.s 			page 20


 788              		.p2align 2,,3
 789              		.global	circular_queue_get
 790              		.syntax unified
 791              		.code	16
 792              		.thumb_func
 793              		.fpu softvfp
 794              		.type	circular_queue_get, %function
 795              	circular_queue_get:
 796              	.LFB2:
 101:../../../../../../Middlewares/Third_Party/LoRaWAN/Utilities/queue.c ****   int status;
 797              		.loc 1 101 0
 798              		.cfi_startproc
 799              		@ args = 0, pretend = 0, frame = 0
 800              		@ frame_needed = 0, uses_anonymous_args = 0
 801              	.LVL68:
 802 0000 F0B5     		push	{r4, r5, r6, r7, lr}
 803              	.LCFI2:
 804              		.cfi_def_cfa_offset 20
 805              		.cfi_offset 4, -20
 806              		.cfi_offset 5, -16
 807              		.cfi_offset 6, -12
 808              		.cfi_offset 7, -8
 809              		.cfi_offset 14, -4
 103:../../../../../../Middlewares/Third_Party/LoRaWAN/Utilities/queue.c ****   {
 810              		.loc 1 103 0
 811 0002 8388     		ldrh	r3, [r0, #4]
 812 0004 002B     		cmp	r3, #0
 813 0006 17D0     		beq	.L108
 814              	.LBB65:
 110:../../../../../../Middlewares/Third_Party/LoRaWAN/Utilities/queue.c ****     /*retreive and remove 1st element' size and content*/
 815              		.loc 1 110 0
 816 0008 0388     		ldrh	r3, [r0]
 817              	.LVL69:
 112:../../../../../../Middlewares/Third_Party/LoRaWAN/Utilities/queue.c ****     /*wrap if needed*/
 818              		.loc 1 112 0
 819 000a 8668     		ldr	r6, [r0, #8]
 820 000c 5C1C     		adds	r4, r3, #1
 821 000e F55C     		ldrb	r5, [r6, r3]
 114:../../../../../../Middlewares/Third_Party/LoRaWAN/Utilities/queue.c ****     {
 822              		.loc 1 114 0
 823 0010 C788     		ldrh	r7, [r0, #6]
 112:../../../../../../Middlewares/Third_Party/LoRaWAN/Utilities/queue.c ****     /*wrap if needed*/
 824              		.loc 1 112 0
 825 0012 A4B2     		uxth	r4, r4
 826              	.LVL70:
 827 0014 2D02     		lsls	r5, r5, #8
 828              	.LVL71:
 114:../../../../../../Middlewares/Third_Party/LoRaWAN/Utilities/queue.c ****     {
 829              		.loc 1 114 0
 830 0016 A742     		cmp	r7, r4
 831 0018 0BD0     		beq	.L109
 832 001a 0233     		adds	r3, r3, #2
 833 001c 3419     		adds	r4, r6, r4
 834              	.LVL72:
 835 001e 9BB2     		uxth	r3, r3
 836              	.LVL73:
 837              	.L106:
ARM GAS  C:\Users\EBANO_~1\AppData\Local\Temp\ccBAc821.s 			page 21


 118:../../../../../../Middlewares/Third_Party/LoRaWAN/Utilities/queue.c ****     /*wrap if needed*/
 838              		.loc 1 118 0
 839 0020 2078     		ldrb	r0, [r4]
 840              	.LVL74:
 841 0022 2843     		orrs	r0, r5
 842              	.LVL75:
 120:../../../../../../Middlewares/Third_Party/LoRaWAN/Utilities/queue.c ****     {
 843              		.loc 1 120 0
 844 0024 9F42     		cmp	r7, r3
 845 0026 00D0     		beq	.L107
 846 0028 F618     		adds	r6, r6, r3
 847              	.L107:
 124:../../../../../../Middlewares/Third_Party/LoRaWAN/Utilities/queue.c **** 
 848              		.loc 1 124 0
 849 002a 0E60     		str	r6, [r1]
 126:../../../../../../Middlewares/Third_Party/LoRaWAN/Utilities/queue.c ****     status=0;
 850              		.loc 1 126 0
 851 002c 1080     		strh	r0, [r2]
 852              	.LVL76:
 127:../../../../../../Middlewares/Third_Party/LoRaWAN/Utilities/queue.c ****   }
 853              		.loc 1 127 0
 854 002e 0020     		movs	r0, #0
 855              	.LVL77:
 856              	.L104:
 857              	.LBE65:
 130:../../../../../../Middlewares/Third_Party/LoRaWAN/Utilities/queue.c **** 
 858              		.loc 1 130 0
 859              		@ sp needed
 860 0030 F0BD     		pop	{r4, r5, r6, r7, pc}
 861              	.LVL78:
 862              	.L109:
 863              	.LBB66:
 864 0032 3400     		movs	r4, r6
 865              	.LVL79:
 866 0034 0123     		movs	r3, #1
 867              	.LVL80:
 868 0036 F3E7     		b	.L106
 869              	.LVL81:
 870              	.L108:
 871              	.LBE66:
 105:../../../../../../Middlewares/Third_Party/LoRaWAN/Utilities/queue.c ****   }
 872              		.loc 1 105 0
 873 0038 0120     		movs	r0, #1
 874              	.LVL82:
 875 003a 4042     		rsbs	r0, r0, #0
 876              	.LVL83:
 129:../../../../../../Middlewares/Third_Party/LoRaWAN/Utilities/queue.c **** }
 877              		.loc 1 129 0
 878 003c F8E7     		b	.L104
 879              		.cfi_endproc
 880              	.LFE2:
 881              		.size	circular_queue_get, .-circular_queue_get
 882 003e C046     		.section	.text.circular_queue_remove,"ax",%progbits
 883              		.align	1
 884              		.p2align 2,,3
 885              		.global	circular_queue_remove
 886              		.syntax unified
ARM GAS  C:\Users\EBANO_~1\AppData\Local\Temp\ccBAc821.s 			page 22


 887              		.code	16
 888              		.thumb_func
 889              		.fpu softvfp
 890              		.type	circular_queue_remove, %function
 891              	circular_queue_remove:
 892              	.LFB3:
 133:../../../../../../Middlewares/Third_Party/LoRaWAN/Utilities/queue.c ****   int status;
 893              		.loc 1 133 0
 894              		.cfi_startproc
 895              		@ args = 0, pretend = 0, frame = 0
 896              		@ frame_needed = 0, uses_anonymous_args = 0
 897              	.LVL84:
 898 0000 70B5     		push	{r4, r5, r6, lr}
 899              	.LCFI3:
 900              		.cfi_def_cfa_offset 16
 901              		.cfi_offset 4, -16
 902              		.cfi_offset 5, -12
 903              		.cfi_offset 6, -8
 904              		.cfi_offset 14, -4
 135:../../../../../../Middlewares/Third_Party/LoRaWAN/Utilities/queue.c ****   {
 905              		.loc 1 135 0
 906 0002 8488     		ldrh	r4, [r0, #4]
 907 0004 002C     		cmp	r4, #0
 908 0006 22D0     		beq	.L117
 909              	.LBB67:
 143:../../../../../../Middlewares/Third_Party/LoRaWAN/Utilities/queue.c ****     if (queue->queue_read_idx==queue->queue_size)
 910              		.loc 1 143 0
 911 0008 0288     		ldrh	r2, [r0]
 912 000a 8568     		ldr	r5, [r0, #8]
 913 000c 511C     		adds	r1, r2, #1
 914 000e 89B2     		uxth	r1, r1
 915 0010 0180     		strh	r1, [r0]
 916 0012 AB5C     		ldrb	r3, [r5, r2]
 144:../../../../../../Middlewares/Third_Party/LoRaWAN/Utilities/queue.c ****     {
 917              		.loc 1 144 0
 918 0014 C688     		ldrh	r6, [r0, #6]
 143:../../../../../../Middlewares/Third_Party/LoRaWAN/Utilities/queue.c ****     if (queue->queue_read_idx==queue->queue_size)
 919              		.loc 1 143 0
 920 0016 1B02     		lsls	r3, r3, #8
 921              	.LVL85:
 144:../../../../../../Middlewares/Third_Party/LoRaWAN/Utilities/queue.c ****     {
 922              		.loc 1 144 0
 923 0018 B142     		cmp	r1, r6
 924 001a 16D0     		beq	.L118
 925 001c 0232     		adds	r2, r2, #2
 926 001e 92B2     		uxth	r2, r2
 927 0020 6D18     		adds	r5, r5, r1
 928              	.L112:
 148:../../../../../../Middlewares/Third_Party/LoRaWAN/Utilities/queue.c ****     if (queue->queue_read_idx==queue->queue_size)
 929              		.loc 1 148 0
 930 0022 0280     		strh	r2, [r0]
 931 0024 2978     		ldrb	r1, [r5]
 932 0026 0B43     		orrs	r3, r1
 933              	.LVL86:
 149:../../../../../../Middlewares/Third_Party/LoRaWAN/Utilities/queue.c ****     {
 934              		.loc 1 149 0
 935 0028 9642     		cmp	r6, r2
ARM GAS  C:\Users\EBANO_~1\AppData\Local\Temp\ccBAc821.s 			page 23


 936 002a 0BD0     		beq	.L113
 937 002c 9B18     		adds	r3, r3, r2
 938              	.LVL87:
 939 002e 9BB2     		uxth	r3, r3
 940              	.L114:
 156:../../../../../../Middlewares/Third_Party/LoRaWAN/Utilities/queue.c ****     {
 941              		.loc 1 156 0
 942 0030 9E42     		cmp	r6, r3
 943 0032 00D1     		bne	.L119
 158:../../../../../../Middlewares/Third_Party/LoRaWAN/Utilities/queue.c ****     }
 944              		.loc 1 158 0
 945 0034 0023     		movs	r3, #0
 946              	.L119:
 947 0036 0380     		strh	r3, [r0]
 162:../../../../../../Middlewares/Third_Party/LoRaWAN/Utilities/queue.c ****     status=0;
 948              		.loc 1 162 0
 949 0038 0023     		movs	r3, #0
 161:../../../../../../Middlewares/Third_Party/LoRaWAN/Utilities/queue.c ****     queue->queue_full=0;
 950              		.loc 1 161 0
 951 003a 013C     		subs	r4, r4, #1
 952 003c 8480     		strh	r4, [r0, #4]
 162:../../../../../../Middlewares/Third_Party/LoRaWAN/Utilities/queue.c ****     status=0;
 953              		.loc 1 162 0
 954 003e 0373     		strb	r3, [r0, #12]
 955              	.LVL88:
 163:../../../../../../Middlewares/Third_Party/LoRaWAN/Utilities/queue.c ****   }
 956              		.loc 1 163 0
 957 0040 0020     		movs	r0, #0
 958              	.LVL89:
 959              	.L110:
 960              	.LBE67:
 166:../../../../../../Middlewares/Third_Party/LoRaWAN/Utilities/queue.c **** 
 961              		.loc 1 166 0
 962              		@ sp needed
 963 0042 70BD     		pop	{r4, r5, r6, pc}
 964              	.LVL90:
 965              	.L113:
 966              	.LBB68:
 151:../../../../../../Middlewares/Third_Party/LoRaWAN/Utilities/queue.c ****     }
 967              		.loc 1 151 0
 968 0044 0022     		movs	r2, #0
 969 0046 0280     		strh	r2, [r0]
 970 0048 F2E7     		b	.L114
 971              	.L118:
 972 004a 0122     		movs	r2, #1
 973 004c E9E7     		b	.L112
 974              	.LVL91:
 975              	.L117:
 976              	.LBE68:
 137:../../../../../../Middlewares/Third_Party/LoRaWAN/Utilities/queue.c ****   }
 977              		.loc 1 137 0
 978 004e 0120     		movs	r0, #1
 979              	.LVL92:
 980 0050 4042     		rsbs	r0, r0, #0
 981              	.LVL93:
 165:../../../../../../Middlewares/Third_Party/LoRaWAN/Utilities/queue.c **** }
 982              		.loc 1 165 0
ARM GAS  C:\Users\EBANO_~1\AppData\Local\Temp\ccBAc821.s 			page 24


 983 0052 F6E7     		b	.L110
 984              		.cfi_endproc
 985              	.LFE3:
 986              		.size	circular_queue_remove, .-circular_queue_remove
 987              		.section	.text.circular_queue_sense,"ax",%progbits
 988              		.align	1
 989              		.p2align 2,,3
 990              		.global	circular_queue_sense
 991              		.syntax unified
 992              		.code	16
 993              		.thumb_func
 994              		.fpu softvfp
 995              		.type	circular_queue_sense, %function
 996              	circular_queue_sense:
 997              	.LFB4:
 169:../../../../../../Middlewares/Third_Party/LoRaWAN/Utilities/queue.c ****   int status;
 998              		.loc 1 169 0
 999              		.cfi_startproc
 1000              		@ args = 0, pretend = 0, frame = 0
 1001              		@ frame_needed = 0, uses_anonymous_args = 0
 1002              		@ link register save eliminated.
 1003              	.LVL94:
 171:../../../../../../Middlewares/Third_Party/LoRaWAN/Utilities/queue.c ****   {
 1004              		.loc 1 171 0
 1005 0000 8088     		ldrh	r0, [r0, #4]
 1006              	.LVL95:
 180:../../../../../../Middlewares/Third_Party/LoRaWAN/Utilities/queue.c **** 
 1007              		.loc 1 180 0
 1008              		@ sp needed
 171:../../../../../../Middlewares/Third_Party/LoRaWAN/Utilities/queue.c ****   {
 1009              		.loc 1 171 0
 1010 0002 4342     		rsbs	r3, r0, #0
 1011 0004 5841     		adcs	r0, r0, r3
 1012 0006 4042     		rsbs	r0, r0, #0
 180:../../../../../../Middlewares/Third_Party/LoRaWAN/Utilities/queue.c **** 
 1013              		.loc 1 180 0
 1014 0008 7047     		bx	lr
 1015              		.cfi_endproc
 1016              	.LFE4:
 1017              		.size	circular_queue_sense, .-circular_queue_sense
 1018 000a C046     		.text
 1019              	.Letext0:
 1020              		.file 2 "c:\\program files (x86)\\gnu tools arm embedded\\7 2018-q2-update\\arm-none-eabi\\include
 1021              		.file 3 "c:\\program files (x86)\\gnu tools arm embedded\\7 2018-q2-update\\arm-none-eabi\\include
 1022              		.file 4 "../../../../../../Middlewares/Third_Party/LoRaWAN/Utilities/queue.h"