ARM GAS  C:\Users\EBANO_~1\AppData\Local\Temp\cc2nkIni.s 			page 1


   1              		.cpu cortex-m0plus
   2              		.eabi_attribute 20, 1
   3              		.eabi_attribute 21, 1
   4              		.eabi_attribute 23, 3
   5              		.eabi_attribute 24, 1
   6              		.eabi_attribute 25, 1
   7              		.eabi_attribute 26, 1
   8              		.eabi_attribute 30, 2
   9              		.eabi_attribute 34, 0
  10              		.eabi_attribute 18, 4
  11              		.file	"RegionAS923.c"
  12              		.text
  13              	.Ltext0:
  14              		.cfi_sections	.debug_frame
  15              		.section	.text.RegionAS923GetPhyParam,"ax",%progbits
  16              		.align	1
  17              		.p2align 2,,3
  18              		.global	RegionAS923GetPhyParam
  19              		.syntax unified
  20              		.code	16
  21              		.thumb_func
  22              		.fpu softvfp
  23              		.type	RegionAS923GetPhyParam, %function
  24              	RegionAS923GetPhyParam:
  25              	.LFB44:
  26              		.file 1 "../../../../../../Middlewares/Third_Party/LoRaWAN/Mac/region/RegionAS923.c"
   1:../../../../../../Middlewares/Third_Party/LoRaWAN/Mac/region/RegionAS923.c **** /*!
   2:../../../../../../Middlewares/Third_Party/LoRaWAN/Mac/region/RegionAS923.c ****  * \file      RegionAS923.c
   3:../../../../../../Middlewares/Third_Party/LoRaWAN/Mac/region/RegionAS923.c ****  *
   4:../../../../../../Middlewares/Third_Party/LoRaWAN/Mac/region/RegionAS923.c ****  * \brief     Region implementation for AS923
   5:../../../../../../Middlewares/Third_Party/LoRaWAN/Mac/region/RegionAS923.c ****  *
   6:../../../../../../Middlewares/Third_Party/LoRaWAN/Mac/region/RegionAS923.c ****  * \copyright Revised BSD License, see section \ref LICENSE.
   7:../../../../../../Middlewares/Third_Party/LoRaWAN/Mac/region/RegionAS923.c ****  *
   8:../../../../../../Middlewares/Third_Party/LoRaWAN/Mac/region/RegionAS923.c ****  * \code
   9:../../../../../../Middlewares/Third_Party/LoRaWAN/Mac/region/RegionAS923.c ****  *                ______                              _
  10:../../../../../../Middlewares/Third_Party/LoRaWAN/Mac/region/RegionAS923.c ****  *               / _____)             _              | |
  11:../../../../../../Middlewares/Third_Party/LoRaWAN/Mac/region/RegionAS923.c ****  *              ( (____  _____ ____ _| |_ _____  ____| |__
  12:../../../../../../Middlewares/Third_Party/LoRaWAN/Mac/region/RegionAS923.c ****  *               \____ \| ___ |    (_   _) ___ |/ ___)  _ \
  13:../../../../../../Middlewares/Third_Party/LoRaWAN/Mac/region/RegionAS923.c ****  *               _____) ) ____| | | || |_| ____( (___| | | |
  14:../../../../../../Middlewares/Third_Party/LoRaWAN/Mac/region/RegionAS923.c ****  *              (______/|_____)_|_|_| \__)_____)\____)_| |_|
  15:../../../../../../Middlewares/Third_Party/LoRaWAN/Mac/region/RegionAS923.c ****  *              (C)2013-2017 Semtech
  16:../../../../../../Middlewares/Third_Party/LoRaWAN/Mac/region/RegionAS923.c ****  *
  17:../../../../../../Middlewares/Third_Party/LoRaWAN/Mac/region/RegionAS923.c ****  *               ___ _____ _   ___ _  _____ ___  ___  ___ ___
  18:../../../../../../Middlewares/Third_Party/LoRaWAN/Mac/region/RegionAS923.c ****  *              / __|_   _/_\ / __| |/ / __/ _ \| _ \/ __| __|
  19:../../../../../../Middlewares/Third_Party/LoRaWAN/Mac/region/RegionAS923.c ****  *              \__ \ | |/ _ \ (__| ' <| _| (_) |   / (__| _|
  20:../../../../../../Middlewares/Third_Party/LoRaWAN/Mac/region/RegionAS923.c ****  *              |___/ |_/_/ \_\___|_|\_\_| \___/|_|_\\___|___|
  21:../../../../../../Middlewares/Third_Party/LoRaWAN/Mac/region/RegionAS923.c ****  *              embedded.connectivity.solutions===============
  22:../../../../../../Middlewares/Third_Party/LoRaWAN/Mac/region/RegionAS923.c ****  *
  23:../../../../../../Middlewares/Third_Party/LoRaWAN/Mac/region/RegionAS923.c ****  * \endcode
  24:../../../../../../Middlewares/Third_Party/LoRaWAN/Mac/region/RegionAS923.c ****  *
  25:../../../../../../Middlewares/Third_Party/LoRaWAN/Mac/region/RegionAS923.c ****  * \author    Miguel Luis ( Semtech )
  26:../../../../../../Middlewares/Third_Party/LoRaWAN/Mac/region/RegionAS923.c ****  *
  27:../../../../../../Middlewares/Third_Party/LoRaWAN/Mac/region/RegionAS923.c ****  * \author    Gregory Cristian ( Semtech )
  28:../../../../../../Middlewares/Third_Party/LoRaWAN/Mac/region/RegionAS923.c ****  *
  29:../../../../../../Middlewares/Third_Party/LoRaWAN/Mac/region/RegionAS923.c ****  * \author    Daniel Jaeckle ( STACKFORCE )
  30:../../../../../../Middlewares/Third_Party/LoRaWAN/Mac/region/RegionAS923.c **** */
  31:../../../../../../Middlewares/Third_Party/LoRaWAN/Mac/region/RegionAS923.c **** #include "utilities.h"
ARM GAS  C:\Users\EBANO_~1\AppData\Local\Temp\cc2nkIni.s 			page 2


  32:../../../../../../Middlewares/Third_Party/LoRaWAN/Mac/region/RegionAS923.c **** 
  33:../../../../../../Middlewares/Third_Party/LoRaWAN/Mac/region/RegionAS923.c **** #include "RegionCommon.h"
  34:../../../../../../Middlewares/Third_Party/LoRaWAN/Mac/region/RegionAS923.c **** #include "RegionAS923.h"
  35:../../../../../../Middlewares/Third_Party/LoRaWAN/Mac/region/RegionAS923.c **** #include "util_console.h"
  36:../../../../../../Middlewares/Third_Party/LoRaWAN/Mac/region/RegionAS923.c **** 
  37:../../../../../../Middlewares/Third_Party/LoRaWAN/Mac/region/RegionAS923.c **** // Definitions
  38:../../../../../../Middlewares/Third_Party/LoRaWAN/Mac/region/RegionAS923.c **** #define CHANNELS_MASK_SIZE              1
  39:../../../../../../Middlewares/Third_Party/LoRaWAN/Mac/region/RegionAS923.c **** 
  40:../../../../../../Middlewares/Third_Party/LoRaWAN/Mac/region/RegionAS923.c **** /*!
  41:../../../../../../Middlewares/Third_Party/LoRaWAN/Mac/region/RegionAS923.c ****  * Region specific context
  42:../../../../../../Middlewares/Third_Party/LoRaWAN/Mac/region/RegionAS923.c ****  */
  43:../../../../../../Middlewares/Third_Party/LoRaWAN/Mac/region/RegionAS923.c **** typedef struct sRegionAS923NvmCtx
  44:../../../../../../Middlewares/Third_Party/LoRaWAN/Mac/region/RegionAS923.c **** {
  45:../../../../../../Middlewares/Third_Party/LoRaWAN/Mac/region/RegionAS923.c ****     /*!
  46:../../../../../../Middlewares/Third_Party/LoRaWAN/Mac/region/RegionAS923.c ****      * LoRaMAC channels
  47:../../../../../../Middlewares/Third_Party/LoRaWAN/Mac/region/RegionAS923.c ****      */
  48:../../../../../../Middlewares/Third_Party/LoRaWAN/Mac/region/RegionAS923.c ****     ChannelParams_t Channels[ AS923_MAX_NB_CHANNELS ];
  49:../../../../../../Middlewares/Third_Party/LoRaWAN/Mac/region/RegionAS923.c ****     /*!
  50:../../../../../../Middlewares/Third_Party/LoRaWAN/Mac/region/RegionAS923.c ****      * LoRaMac bands
  51:../../../../../../Middlewares/Third_Party/LoRaWAN/Mac/region/RegionAS923.c ****      */
  52:../../../../../../Middlewares/Third_Party/LoRaWAN/Mac/region/RegionAS923.c ****     Band_t Bands[ AS923_MAX_NB_BANDS ];
  53:../../../../../../Middlewares/Third_Party/LoRaWAN/Mac/region/RegionAS923.c ****     /*!
  54:../../../../../../Middlewares/Third_Party/LoRaWAN/Mac/region/RegionAS923.c ****      * LoRaMac channels mask
  55:../../../../../../Middlewares/Third_Party/LoRaWAN/Mac/region/RegionAS923.c ****      */
  56:../../../../../../Middlewares/Third_Party/LoRaWAN/Mac/region/RegionAS923.c ****     uint16_t ChannelsMask[ CHANNELS_MASK_SIZE ];
  57:../../../../../../Middlewares/Third_Party/LoRaWAN/Mac/region/RegionAS923.c ****     /*!
  58:../../../../../../Middlewares/Third_Party/LoRaWAN/Mac/region/RegionAS923.c ****      * LoRaMac channels default mask
  59:../../../../../../Middlewares/Third_Party/LoRaWAN/Mac/region/RegionAS923.c ****      */
  60:../../../../../../Middlewares/Third_Party/LoRaWAN/Mac/region/RegionAS923.c ****     uint16_t ChannelsDefaultMask[ CHANNELS_MASK_SIZE ];
  61:../../../../../../Middlewares/Third_Party/LoRaWAN/Mac/region/RegionAS923.c **** }RegionAS923NvmCtx_t;
  62:../../../../../../Middlewares/Third_Party/LoRaWAN/Mac/region/RegionAS923.c **** 
  63:../../../../../../Middlewares/Third_Party/LoRaWAN/Mac/region/RegionAS923.c **** /*
  64:../../../../../../Middlewares/Third_Party/LoRaWAN/Mac/region/RegionAS923.c ****  * Non-volatile module context.
  65:../../../../../../Middlewares/Third_Party/LoRaWAN/Mac/region/RegionAS923.c ****  */
  66:../../../../../../Middlewares/Third_Party/LoRaWAN/Mac/region/RegionAS923.c **** static RegionAS923NvmCtx_t NvmCtx;
  67:../../../../../../Middlewares/Third_Party/LoRaWAN/Mac/region/RegionAS923.c **** 
  68:../../../../../../Middlewares/Third_Party/LoRaWAN/Mac/region/RegionAS923.c **** // Static functions
  69:../../../../../../Middlewares/Third_Party/LoRaWAN/Mac/region/RegionAS923.c **** static int8_t GetNextLowerTxDr( int8_t dr, int8_t minDr )
  70:../../../../../../Middlewares/Third_Party/LoRaWAN/Mac/region/RegionAS923.c **** {
  71:../../../../../../Middlewares/Third_Party/LoRaWAN/Mac/region/RegionAS923.c ****     uint8_t nextLowerDr = 0;
  72:../../../../../../Middlewares/Third_Party/LoRaWAN/Mac/region/RegionAS923.c **** 
  73:../../../../../../Middlewares/Third_Party/LoRaWAN/Mac/region/RegionAS923.c ****     if( dr == minDr )
  74:../../../../../../Middlewares/Third_Party/LoRaWAN/Mac/region/RegionAS923.c ****     {
  75:../../../../../../Middlewares/Third_Party/LoRaWAN/Mac/region/RegionAS923.c ****         nextLowerDr = minDr;
  76:../../../../../../Middlewares/Third_Party/LoRaWAN/Mac/region/RegionAS923.c ****     }
  77:../../../../../../Middlewares/Third_Party/LoRaWAN/Mac/region/RegionAS923.c ****     else
  78:../../../../../../Middlewares/Third_Party/LoRaWAN/Mac/region/RegionAS923.c ****     {
  79:../../../../../../Middlewares/Third_Party/LoRaWAN/Mac/region/RegionAS923.c ****         nextLowerDr = dr - 1;
  80:../../../../../../Middlewares/Third_Party/LoRaWAN/Mac/region/RegionAS923.c ****     }
  81:../../../../../../Middlewares/Third_Party/LoRaWAN/Mac/region/RegionAS923.c ****     return nextLowerDr;
  82:../../../../../../Middlewares/Third_Party/LoRaWAN/Mac/region/RegionAS923.c **** }
  83:../../../../../../Middlewares/Third_Party/LoRaWAN/Mac/region/RegionAS923.c **** 
  84:../../../../../../Middlewares/Third_Party/LoRaWAN/Mac/region/RegionAS923.c **** static uint32_t GetBandwidth( uint32_t drIndex )
  85:../../../../../../Middlewares/Third_Party/LoRaWAN/Mac/region/RegionAS923.c **** {
  86:../../../../../../Middlewares/Third_Party/LoRaWAN/Mac/region/RegionAS923.c ****     switch( BandwidthsAS923[drIndex] )
  87:../../../../../../Middlewares/Third_Party/LoRaWAN/Mac/region/RegionAS923.c ****     {
  88:../../../../../../Middlewares/Third_Party/LoRaWAN/Mac/region/RegionAS923.c ****         default:
ARM GAS  C:\Users\EBANO_~1\AppData\Local\Temp\cc2nkIni.s 			page 3


  89:../../../../../../Middlewares/Third_Party/LoRaWAN/Mac/region/RegionAS923.c ****         case 125000:
  90:../../../../../../Middlewares/Third_Party/LoRaWAN/Mac/region/RegionAS923.c ****             return 0;
  91:../../../../../../Middlewares/Third_Party/LoRaWAN/Mac/region/RegionAS923.c ****         case 250000:
  92:../../../../../../Middlewares/Third_Party/LoRaWAN/Mac/region/RegionAS923.c ****             return 1;
  93:../../../../../../Middlewares/Third_Party/LoRaWAN/Mac/region/RegionAS923.c ****         case 500000:
  94:../../../../../../Middlewares/Third_Party/LoRaWAN/Mac/region/RegionAS923.c ****             return 2;
  95:../../../../../../Middlewares/Third_Party/LoRaWAN/Mac/region/RegionAS923.c ****     }
  96:../../../../../../Middlewares/Third_Party/LoRaWAN/Mac/region/RegionAS923.c **** }
  97:../../../../../../Middlewares/Third_Party/LoRaWAN/Mac/region/RegionAS923.c **** 
  98:../../../../../../Middlewares/Third_Party/LoRaWAN/Mac/region/RegionAS923.c **** static int8_t LimitTxPower( int8_t txPower, int8_t maxBandTxPower, int8_t datarate, uint16_t* chann
  99:../../../../../../Middlewares/Third_Party/LoRaWAN/Mac/region/RegionAS923.c **** {
 100:../../../../../../Middlewares/Third_Party/LoRaWAN/Mac/region/RegionAS923.c ****     int8_t txPowerResult = txPower;
 101:../../../../../../Middlewares/Third_Party/LoRaWAN/Mac/region/RegionAS923.c **** 
 102:../../../../../../Middlewares/Third_Party/LoRaWAN/Mac/region/RegionAS923.c ****     // Limit tx power to the band max
 103:../../../../../../Middlewares/Third_Party/LoRaWAN/Mac/region/RegionAS923.c ****     txPowerResult =  MAX( txPower, maxBandTxPower );
 104:../../../../../../Middlewares/Third_Party/LoRaWAN/Mac/region/RegionAS923.c **** 
 105:../../../../../../Middlewares/Third_Party/LoRaWAN/Mac/region/RegionAS923.c ****     return txPowerResult;
 106:../../../../../../Middlewares/Third_Party/LoRaWAN/Mac/region/RegionAS923.c **** }
 107:../../../../../../Middlewares/Third_Party/LoRaWAN/Mac/region/RegionAS923.c **** 
 108:../../../../../../Middlewares/Third_Party/LoRaWAN/Mac/region/RegionAS923.c **** static bool VerifyRfFreq( uint32_t freq )
 109:../../../../../../Middlewares/Third_Party/LoRaWAN/Mac/region/RegionAS923.c **** {
 110:../../../../../../Middlewares/Third_Party/LoRaWAN/Mac/region/RegionAS923.c ****     // Check radio driver support
 111:../../../../../../Middlewares/Third_Party/LoRaWAN/Mac/region/RegionAS923.c ****     if( Radio.CheckRfFrequency( freq ) == false )
 112:../../../../../../Middlewares/Third_Party/LoRaWAN/Mac/region/RegionAS923.c ****     {
 113:../../../../../../Middlewares/Third_Party/LoRaWAN/Mac/region/RegionAS923.c ****         return false;
 114:../../../../../../Middlewares/Third_Party/LoRaWAN/Mac/region/RegionAS923.c ****     }
 115:../../../../../../Middlewares/Third_Party/LoRaWAN/Mac/region/RegionAS923.c **** 
 116:../../../../../../Middlewares/Third_Party/LoRaWAN/Mac/region/RegionAS923.c ****     if( ( freq < 915000000 ) || ( freq > 928000000 ) )
 117:../../../../../../Middlewares/Third_Party/LoRaWAN/Mac/region/RegionAS923.c ****     {
 118:../../../../../../Middlewares/Third_Party/LoRaWAN/Mac/region/RegionAS923.c ****         return false;
 119:../../../../../../Middlewares/Third_Party/LoRaWAN/Mac/region/RegionAS923.c ****     }
 120:../../../../../../Middlewares/Third_Party/LoRaWAN/Mac/region/RegionAS923.c ****     return true;
 121:../../../../../../Middlewares/Third_Party/LoRaWAN/Mac/region/RegionAS923.c **** }
 122:../../../../../../Middlewares/Third_Party/LoRaWAN/Mac/region/RegionAS923.c **** 
 123:../../../../../../Middlewares/Third_Party/LoRaWAN/Mac/region/RegionAS923.c **** static uint8_t CountNbOfEnabledChannels( bool joined, uint8_t datarate, uint16_t* channelsMask, Cha
 124:../../../../../../Middlewares/Third_Party/LoRaWAN/Mac/region/RegionAS923.c **** {
 125:../../../../../../Middlewares/Third_Party/LoRaWAN/Mac/region/RegionAS923.c ****     uint8_t nbEnabledChannels = 0;
 126:../../../../../../Middlewares/Third_Party/LoRaWAN/Mac/region/RegionAS923.c ****     uint8_t delayTransmission = 0;
 127:../../../../../../Middlewares/Third_Party/LoRaWAN/Mac/region/RegionAS923.c **** 
 128:../../../../../../Middlewares/Third_Party/LoRaWAN/Mac/region/RegionAS923.c ****     for( uint8_t i = 0, k = 0; i < AS923_MAX_NB_CHANNELS; i += 16, k++ )
 129:../../../../../../Middlewares/Third_Party/LoRaWAN/Mac/region/RegionAS923.c ****     {
 130:../../../../../../Middlewares/Third_Party/LoRaWAN/Mac/region/RegionAS923.c ****         for( uint8_t j = 0; j < 16; j++ )
 131:../../../../../../Middlewares/Third_Party/LoRaWAN/Mac/region/RegionAS923.c ****         {
 132:../../../../../../Middlewares/Third_Party/LoRaWAN/Mac/region/RegionAS923.c ****             if( ( channelsMask[k] & ( 1 << j ) ) != 0 )
 133:../../../../../../Middlewares/Third_Party/LoRaWAN/Mac/region/RegionAS923.c ****             {
 134:../../../../../../Middlewares/Third_Party/LoRaWAN/Mac/region/RegionAS923.c ****                 if( channels[i + j].Frequency == 0 )
 135:../../../../../../Middlewares/Third_Party/LoRaWAN/Mac/region/RegionAS923.c ****                 { // Check if the channel is enabled
 136:../../../../../../Middlewares/Third_Party/LoRaWAN/Mac/region/RegionAS923.c ****                     continue;
 137:../../../../../../Middlewares/Third_Party/LoRaWAN/Mac/region/RegionAS923.c ****                 }
 138:../../../../../../Middlewares/Third_Party/LoRaWAN/Mac/region/RegionAS923.c ****                 if( joined == false )
 139:../../../../../../Middlewares/Third_Party/LoRaWAN/Mac/region/RegionAS923.c ****                 {
 140:../../../../../../Middlewares/Third_Party/LoRaWAN/Mac/region/RegionAS923.c ****                     if( ( AS923_JOIN_CHANNELS & ( 1 << j ) ) == 0 )
 141:../../../../../../Middlewares/Third_Party/LoRaWAN/Mac/region/RegionAS923.c ****                     {
 142:../../../../../../Middlewares/Third_Party/LoRaWAN/Mac/region/RegionAS923.c ****                         continue;
 143:../../../../../../Middlewares/Third_Party/LoRaWAN/Mac/region/RegionAS923.c ****                     }
 144:../../../../../../Middlewares/Third_Party/LoRaWAN/Mac/region/RegionAS923.c ****                 }
 145:../../../../../../Middlewares/Third_Party/LoRaWAN/Mac/region/RegionAS923.c ****                 if( RegionCommonValueInRange( datarate, channels[i + j].DrRange.Fields.Min,
ARM GAS  C:\Users\EBANO_~1\AppData\Local\Temp\cc2nkIni.s 			page 4


 146:../../../../../../Middlewares/Third_Party/LoRaWAN/Mac/region/RegionAS923.c ****                                               channels[i + j].DrRange.Fields.Max ) == false )
 147:../../../../../../Middlewares/Third_Party/LoRaWAN/Mac/region/RegionAS923.c ****                 { // Check if the current channel selection supports the given datarate
 148:../../../../../../Middlewares/Third_Party/LoRaWAN/Mac/region/RegionAS923.c ****                     continue;
 149:../../../../../../Middlewares/Third_Party/LoRaWAN/Mac/region/RegionAS923.c ****                 }
 150:../../../../../../Middlewares/Third_Party/LoRaWAN/Mac/region/RegionAS923.c ****                 if( bands[channels[i + j].Band].TimeOff > 0 )
 151:../../../../../../Middlewares/Third_Party/LoRaWAN/Mac/region/RegionAS923.c ****                 { // Check if the band is available for transmission
 152:../../../../../../Middlewares/Third_Party/LoRaWAN/Mac/region/RegionAS923.c ****                     delayTransmission++;
 153:../../../../../../Middlewares/Third_Party/LoRaWAN/Mac/region/RegionAS923.c ****                     continue;
 154:../../../../../../Middlewares/Third_Party/LoRaWAN/Mac/region/RegionAS923.c ****                 }
 155:../../../../../../Middlewares/Third_Party/LoRaWAN/Mac/region/RegionAS923.c ****                 enabledChannels[nbEnabledChannels++] = i + j;
 156:../../../../../../Middlewares/Third_Party/LoRaWAN/Mac/region/RegionAS923.c ****             }
 157:../../../../../../Middlewares/Third_Party/LoRaWAN/Mac/region/RegionAS923.c ****         }
 158:../../../../../../Middlewares/Third_Party/LoRaWAN/Mac/region/RegionAS923.c ****     }
 159:../../../../../../Middlewares/Third_Party/LoRaWAN/Mac/region/RegionAS923.c **** 
 160:../../../../../../Middlewares/Third_Party/LoRaWAN/Mac/region/RegionAS923.c ****     *delayTx = delayTransmission;
 161:../../../../../../Middlewares/Third_Party/LoRaWAN/Mac/region/RegionAS923.c ****     return nbEnabledChannels;
 162:../../../../../../Middlewares/Third_Party/LoRaWAN/Mac/region/RegionAS923.c **** }
 163:../../../../../../Middlewares/Third_Party/LoRaWAN/Mac/region/RegionAS923.c **** 
 164:../../../../../../Middlewares/Third_Party/LoRaWAN/Mac/region/RegionAS923.c **** PhyParam_t RegionAS923GetPhyParam( GetPhyParams_t* getPhy )
 165:../../../../../../Middlewares/Third_Party/LoRaWAN/Mac/region/RegionAS923.c **** {
  27              		.loc 1 165 0
  28              		.cfi_startproc
  29              		@ args = 0, pretend = 0, frame = 8
  30              		@ frame_needed = 0, uses_anonymous_args = 0
  31              	.LVL0:
 166:../../../../../../Middlewares/Third_Party/LoRaWAN/Mac/region/RegionAS923.c ****     PhyParam_t phyParam = { 0 };
  32              		.loc 1 166 0
  33 0000 0023     		movs	r3, #0
 165:../../../../../../Middlewares/Third_Party/LoRaWAN/Mac/region/RegionAS923.c ****     PhyParam_t phyParam = { 0 };
  34              		.loc 1 165 0
  35 0002 00B5     		push	{lr}
  36              	.LCFI0:
  37              		.cfi_def_cfa_offset 4
  38              		.cfi_offset 14, -4
  39 0004 83B0     		sub	sp, sp, #12
  40              	.LCFI1:
  41              		.cfi_def_cfa_offset 16
  42              		.loc 1 166 0
  43 0006 0093     		str	r3, [sp]
 167:../../../../../../Middlewares/Third_Party/LoRaWAN/Mac/region/RegionAS923.c **** 
 168:../../../../../../Middlewares/Third_Party/LoRaWAN/Mac/region/RegionAS923.c ****     switch( getPhy->Attribute )
  44              		.loc 1 168 0
  45 0008 0378     		ldrb	r3, [r0]
  46 000a 342B     		cmp	r3, #52
  47 000c 0CD8     		bhi	.L2
  48 000e 434A     		ldr	r2, .L47
  49 0010 9B00     		lsls	r3, r3, #2
  50 0012 D358     		ldr	r3, [r2, r3]
  51 0014 9F46     		mov	pc, r3
  52              		.section	.rodata
  53              		.align	2
  54              	.L4:
  55 0000 FC000000 		.word	.L3
  56 0004 F0000000 		.word	.L5
  57 0008 28000000 		.word	.L2
  58 000c 28000000 		.word	.L2
  59 0010 28000000 		.word	.L2
ARM GAS  C:\Users\EBANO_~1\AppData\Local\Temp\cc2nkIni.s 			page 5


  60 0014 34000000 		.word	.L6
  61 0018 28000000 		.word	.L2
  62 001c 28000000 		.word	.L2
  63 0020 28000000 		.word	.L2
  64 0024 28000000 		.word	.L2
  65 0028 40000000 		.word	.L7
  66 002c EA000000 		.word	.L8
  67 0030 16000000 		.word	.L9
  68 0034 C2000000 		.word	.L10
  69 0038 28000000 		.word	.L2
  70 003c B4000000 		.word	.L11
  71 0040 AC000000 		.word	.L12
  72 0044 A4000000 		.word	.L13
  73 0048 9E000000 		.word	.L14
  74 004c 98000000 		.word	.L15
  75 0050 90000000 		.word	.L16
  76 0054 7A000000 		.word	.L17
  77 0058 28000000 		.word	.L2
  78 005c 6E000000 		.word	.L18
  79 0060 34000000 		.word	.L6
  80 0064 52000000 		.word	.L19
  81 0068 4C000000 		.word	.L20
  82 006c 46000000 		.word	.L21
  83 0070 DC000000 		.word	.L22
  84 0074 2E000000 		.word	.L23
  85 0078 2E000000 		.word	.L23
  86 007c E2000000 		.word	.L24
  87 0080 D6000000 		.word	.L25
  88 0084 58000000 		.word	.L26
  89 0088 28000000 		.word	.L2
  90 008c 28000000 		.word	.L2
  91 0090 28000000 		.word	.L2
  92 0094 28000000 		.word	.L2
  93 0098 28000000 		.word	.L2
  94 009c 28000000 		.word	.L2
  95 00a0 28000000 		.word	.L2
  96 00a4 28000000 		.word	.L2
  97 00a8 28000000 		.word	.L2
  98 00ac 28000000 		.word	.L2
  99 00b0 28000000 		.word	.L2
 100 00b4 28000000 		.word	.L2
 101 00b8 28000000 		.word	.L2
 102 00bc 74000000 		.word	.L27
 103 00c0 BA000000 		.word	.L28
 104 00c4 3A000000 		.word	.L29
 105 00c8 28000000 		.word	.L2
 106 00cc 28000000 		.word	.L2
 107 00d0 3A000000 		.word	.L29
 108              		.section	.text.RegionAS923GetPhyParam
 109              	.L9:
 110 0016 0122     		movs	r2, #1
 169:../../../../../../Middlewares/Third_Party/LoRaWAN/Mac/region/RegionAS923.c ****     {
 170:../../../../../../Middlewares/Third_Party/LoRaWAN/Mac/region/RegionAS923.c ****         case PHY_MIN_RX_DR:
 171:../../../../../../Middlewares/Third_Party/LoRaWAN/Mac/region/RegionAS923.c ****         {
 172:../../../../../../Middlewares/Third_Party/LoRaWAN/Mac/region/RegionAS923.c ****             if( getPhy->DownlinkDwellTime == 0 )
 173:../../../../../../Middlewares/Third_Party/LoRaWAN/Mac/region/RegionAS923.c ****             {
 174:../../../../../../Middlewares/Third_Party/LoRaWAN/Mac/region/RegionAS923.c ****                 phyParam.Value = AS923_RX_MIN_DATARATE;
ARM GAS  C:\Users\EBANO_~1\AppData\Local\Temp\cc2nkIni.s 			page 6


 175:../../../../../../Middlewares/Third_Party/LoRaWAN/Mac/region/RegionAS923.c ****             }
 176:../../../../../../Middlewares/Third_Party/LoRaWAN/Mac/region/RegionAS923.c ****             else
 177:../../../../../../Middlewares/Third_Party/LoRaWAN/Mac/region/RegionAS923.c ****             {
 178:../../../../../../Middlewares/Third_Party/LoRaWAN/Mac/region/RegionAS923.c ****                 phyParam.Value = AS923_DWELL_LIMIT_DATARATE;
 179:../../../../../../Middlewares/Third_Party/LoRaWAN/Mac/region/RegionAS923.c ****             }
 180:../../../../../../Middlewares/Third_Party/LoRaWAN/Mac/region/RegionAS923.c ****             break;
 181:../../../../../../Middlewares/Third_Party/LoRaWAN/Mac/region/RegionAS923.c ****         }
 182:../../../../../../Middlewares/Third_Party/LoRaWAN/Mac/region/RegionAS923.c ****         case PHY_MIN_TX_DR:
 183:../../../../../../Middlewares/Third_Party/LoRaWAN/Mac/region/RegionAS923.c ****         {
 184:../../../../../../Middlewares/Third_Party/LoRaWAN/Mac/region/RegionAS923.c ****             if( getPhy->UplinkDwellTime == 0 )
 185:../../../../../../Middlewares/Third_Party/LoRaWAN/Mac/region/RegionAS923.c ****             {
 186:../../../../../../Middlewares/Third_Party/LoRaWAN/Mac/region/RegionAS923.c ****                 phyParam.Value = AS923_TX_MIN_DATARATE;
 187:../../../../../../Middlewares/Third_Party/LoRaWAN/Mac/region/RegionAS923.c ****             }
 188:../../../../../../Middlewares/Third_Party/LoRaWAN/Mac/region/RegionAS923.c ****             else
 189:../../../../../../Middlewares/Third_Party/LoRaWAN/Mac/region/RegionAS923.c ****             {
 190:../../../../../../Middlewares/Third_Party/LoRaWAN/Mac/region/RegionAS923.c ****                 phyParam.Value = AS923_DWELL_LIMIT_DATARATE;
 191:../../../../../../Middlewares/Third_Party/LoRaWAN/Mac/region/RegionAS923.c ****             }
 192:../../../../../../Middlewares/Third_Party/LoRaWAN/Mac/region/RegionAS923.c ****             break;
 193:../../../../../../Middlewares/Third_Party/LoRaWAN/Mac/region/RegionAS923.c ****         }
 194:../../../../../../Middlewares/Third_Party/LoRaWAN/Mac/region/RegionAS923.c ****         case PHY_DEF_TX_DR:
 195:../../../../../../Middlewares/Third_Party/LoRaWAN/Mac/region/RegionAS923.c ****         {
 196:../../../../../../Middlewares/Third_Party/LoRaWAN/Mac/region/RegionAS923.c ****             phyParam.Value = AS923_DEFAULT_DATARATE;
 197:../../../../../../Middlewares/Third_Party/LoRaWAN/Mac/region/RegionAS923.c ****             break;
 198:../../../../../../Middlewares/Third_Party/LoRaWAN/Mac/region/RegionAS923.c ****         }
 199:../../../../../../Middlewares/Third_Party/LoRaWAN/Mac/region/RegionAS923.c ****         case PHY_NEXT_LOWER_TX_DR:
 200:../../../../../../Middlewares/Third_Party/LoRaWAN/Mac/region/RegionAS923.c ****         {
 201:../../../../../../Middlewares/Third_Party/LoRaWAN/Mac/region/RegionAS923.c ****             if( getPhy->UplinkDwellTime == 0 )
 202:../../../../../../Middlewares/Third_Party/LoRaWAN/Mac/region/RegionAS923.c ****             {
 203:../../../../../../Middlewares/Third_Party/LoRaWAN/Mac/region/RegionAS923.c ****                 phyParam.Value = GetNextLowerTxDr( getPhy->Datarate, AS923_TX_MIN_DATARATE );
 204:../../../../../../Middlewares/Third_Party/LoRaWAN/Mac/region/RegionAS923.c ****             }
 205:../../../../../../Middlewares/Third_Party/LoRaWAN/Mac/region/RegionAS923.c ****             else
 206:../../../../../../Middlewares/Third_Party/LoRaWAN/Mac/region/RegionAS923.c ****             {
 207:../../../../../../Middlewares/Third_Party/LoRaWAN/Mac/region/RegionAS923.c ****                 phyParam.Value = GetNextLowerTxDr( getPhy->Datarate, AS923_DWELL_LIMIT_DATARATE );
 208:../../../../../../Middlewares/Third_Party/LoRaWAN/Mac/region/RegionAS923.c ****             }
 209:../../../../../../Middlewares/Third_Party/LoRaWAN/Mac/region/RegionAS923.c ****             break;
 210:../../../../../../Middlewares/Third_Party/LoRaWAN/Mac/region/RegionAS923.c ****         }
 211:../../../../../../Middlewares/Third_Party/LoRaWAN/Mac/region/RegionAS923.c ****         case PHY_MAX_TX_POWER:
 212:../../../../../../Middlewares/Third_Party/LoRaWAN/Mac/region/RegionAS923.c ****         {
 213:../../../../../../Middlewares/Third_Party/LoRaWAN/Mac/region/RegionAS923.c ****             phyParam.Value = AS923_MAX_TX_POWER;
 214:../../../../../../Middlewares/Third_Party/LoRaWAN/Mac/region/RegionAS923.c ****             break;
 215:../../../../../../Middlewares/Third_Party/LoRaWAN/Mac/region/RegionAS923.c ****         }
 216:../../../../../../Middlewares/Third_Party/LoRaWAN/Mac/region/RegionAS923.c ****         case PHY_DEF_TX_POWER:
 217:../../../../../../Middlewares/Third_Party/LoRaWAN/Mac/region/RegionAS923.c ****         {
 218:../../../../../../Middlewares/Third_Party/LoRaWAN/Mac/region/RegionAS923.c ****             phyParam.Value = AS923_DEFAULT_TX_POWER;
 219:../../../../../../Middlewares/Third_Party/LoRaWAN/Mac/region/RegionAS923.c ****             break;
 220:../../../../../../Middlewares/Third_Party/LoRaWAN/Mac/region/RegionAS923.c ****         }
 221:../../../../../../Middlewares/Third_Party/LoRaWAN/Mac/region/RegionAS923.c ****         case PHY_DEF_ADR_ACK_LIMIT:
 222:../../../../../../Middlewares/Third_Party/LoRaWAN/Mac/region/RegionAS923.c ****         {
 223:../../../../../../Middlewares/Third_Party/LoRaWAN/Mac/region/RegionAS923.c ****             phyParam.Value = AS923_ADR_ACK_LIMIT;
 224:../../../../../../Middlewares/Third_Party/LoRaWAN/Mac/region/RegionAS923.c ****             break;
 225:../../../../../../Middlewares/Third_Party/LoRaWAN/Mac/region/RegionAS923.c ****         }
 226:../../../../../../Middlewares/Third_Party/LoRaWAN/Mac/region/RegionAS923.c ****         case PHY_DEF_ADR_ACK_DELAY:
 227:../../../../../../Middlewares/Third_Party/LoRaWAN/Mac/region/RegionAS923.c ****         {
 228:../../../../../../Middlewares/Third_Party/LoRaWAN/Mac/region/RegionAS923.c ****             phyParam.Value = AS923_ADR_ACK_DELAY;
 229:../../../../../../Middlewares/Third_Party/LoRaWAN/Mac/region/RegionAS923.c ****             break;
 230:../../../../../../Middlewares/Third_Party/LoRaWAN/Mac/region/RegionAS923.c ****         }
 231:../../../../../../Middlewares/Third_Party/LoRaWAN/Mac/region/RegionAS923.c ****         case PHY_MAX_PAYLOAD:
ARM GAS  C:\Users\EBANO_~1\AppData\Local\Temp\cc2nkIni.s 			page 7


 232:../../../../../../Middlewares/Third_Party/LoRaWAN/Mac/region/RegionAS923.c ****         {
 233:../../../../../../Middlewares/Third_Party/LoRaWAN/Mac/region/RegionAS923.c ****             if( getPhy->UplinkDwellTime == 0 )
 111              		.loc 1 233 0
 112 0018 8378     		ldrb	r3, [r0, #2]
 113 001a 8256     		ldrsb	r2, [r0, r2]
 114 001c 002B     		cmp	r3, #0
 115 001e 00D0     		beq	.LCB32
 116 0020 71E0     		b	.L35	@long jump
 117              	.LCB32:
 234:../../../../../../Middlewares/Third_Party/LoRaWAN/Mac/region/RegionAS923.c ****             {
 235:../../../../../../Middlewares/Third_Party/LoRaWAN/Mac/region/RegionAS923.c ****                 phyParam.Value = MaxPayloadOfDatarateDwell0AS923[getPhy->Datarate];
 118              		.loc 1 235 0
 119 0022 3F4B     		ldr	r3, .L47+4
 120 0024 9B5C     		ldrb	r3, [r3, r2]
 121 0026 0093     		str	r3, [sp]
 122              	.LVL1:
 123              	.L2:
 236:../../../../../../Middlewares/Third_Party/LoRaWAN/Mac/region/RegionAS923.c ****             }
 237:../../../../../../Middlewares/Third_Party/LoRaWAN/Mac/region/RegionAS923.c ****             else
 238:../../../../../../Middlewares/Third_Party/LoRaWAN/Mac/region/RegionAS923.c ****             {
 239:../../../../../../Middlewares/Third_Party/LoRaWAN/Mac/region/RegionAS923.c ****                 phyParam.Value = MaxPayloadOfDatarateDwell1UpAS923[getPhy->Datarate];
 240:../../../../../../Middlewares/Third_Party/LoRaWAN/Mac/region/RegionAS923.c ****             }
 241:../../../../../../Middlewares/Third_Party/LoRaWAN/Mac/region/RegionAS923.c ****             break;
 242:../../../../../../Middlewares/Third_Party/LoRaWAN/Mac/region/RegionAS923.c ****         }
 243:../../../../../../Middlewares/Third_Party/LoRaWAN/Mac/region/RegionAS923.c ****         case PHY_MAX_PAYLOAD_REPEATER:
 244:../../../../../../Middlewares/Third_Party/LoRaWAN/Mac/region/RegionAS923.c ****         {
 245:../../../../../../Middlewares/Third_Party/LoRaWAN/Mac/region/RegionAS923.c ****             if( getPhy->UplinkDwellTime == 0 )
 246:../../../../../../Middlewares/Third_Party/LoRaWAN/Mac/region/RegionAS923.c ****             {
 247:../../../../../../Middlewares/Third_Party/LoRaWAN/Mac/region/RegionAS923.c ****                 phyParam.Value = MaxPayloadOfDatarateRepeaterDwell0AS923[getPhy->Datarate];
 248:../../../../../../Middlewares/Third_Party/LoRaWAN/Mac/region/RegionAS923.c ****             }
 249:../../../../../../Middlewares/Third_Party/LoRaWAN/Mac/region/RegionAS923.c ****             else
 250:../../../../../../Middlewares/Third_Party/LoRaWAN/Mac/region/RegionAS923.c ****             {
 251:../../../../../../Middlewares/Third_Party/LoRaWAN/Mac/region/RegionAS923.c ****                 phyParam.Value = MaxPayloadOfDatarateDwell1UpAS923[getPhy->Datarate];
 252:../../../../../../Middlewares/Third_Party/LoRaWAN/Mac/region/RegionAS923.c ****             }
 253:../../../../../../Middlewares/Third_Party/LoRaWAN/Mac/region/RegionAS923.c ****             break;
 254:../../../../../../Middlewares/Third_Party/LoRaWAN/Mac/region/RegionAS923.c ****         }
 255:../../../../../../Middlewares/Third_Party/LoRaWAN/Mac/region/RegionAS923.c ****         case PHY_DUTY_CYCLE:
 256:../../../../../../Middlewares/Third_Party/LoRaWAN/Mac/region/RegionAS923.c ****         {
 257:../../../../../../Middlewares/Third_Party/LoRaWAN/Mac/region/RegionAS923.c ****             phyParam.Value = AS923_DUTY_CYCLE_ENABLED;
 258:../../../../../../Middlewares/Third_Party/LoRaWAN/Mac/region/RegionAS923.c ****             break;
 259:../../../../../../Middlewares/Third_Party/LoRaWAN/Mac/region/RegionAS923.c ****         }
 260:../../../../../../Middlewares/Third_Party/LoRaWAN/Mac/region/RegionAS923.c ****         case PHY_MAX_RX_WINDOW:
 261:../../../../../../Middlewares/Third_Party/LoRaWAN/Mac/region/RegionAS923.c ****         {
 262:../../../../../../Middlewares/Third_Party/LoRaWAN/Mac/region/RegionAS923.c ****             phyParam.Value = AS923_MAX_RX_WINDOW;
 263:../../../../../../Middlewares/Third_Party/LoRaWAN/Mac/region/RegionAS923.c ****             break;
 264:../../../../../../Middlewares/Third_Party/LoRaWAN/Mac/region/RegionAS923.c ****         }
 265:../../../../../../Middlewares/Third_Party/LoRaWAN/Mac/region/RegionAS923.c ****         case PHY_RECEIVE_DELAY1:
 266:../../../../../../Middlewares/Third_Party/LoRaWAN/Mac/region/RegionAS923.c ****         {
 267:../../../../../../Middlewares/Third_Party/LoRaWAN/Mac/region/RegionAS923.c ****             phyParam.Value = AS923_RECEIVE_DELAY1;
 268:../../../../../../Middlewares/Third_Party/LoRaWAN/Mac/region/RegionAS923.c ****             break;
 269:../../../../../../Middlewares/Third_Party/LoRaWAN/Mac/region/RegionAS923.c ****         }
 270:../../../../../../Middlewares/Third_Party/LoRaWAN/Mac/region/RegionAS923.c ****         case PHY_RECEIVE_DELAY2:
 271:../../../../../../Middlewares/Third_Party/LoRaWAN/Mac/region/RegionAS923.c ****         {
 272:../../../../../../Middlewares/Third_Party/LoRaWAN/Mac/region/RegionAS923.c ****             phyParam.Value = AS923_RECEIVE_DELAY2;
 273:../../../../../../Middlewares/Third_Party/LoRaWAN/Mac/region/RegionAS923.c ****             break;
 274:../../../../../../Middlewares/Third_Party/LoRaWAN/Mac/region/RegionAS923.c ****         }
 275:../../../../../../Middlewares/Third_Party/LoRaWAN/Mac/region/RegionAS923.c ****         case PHY_JOIN_ACCEPT_DELAY1:
ARM GAS  C:\Users\EBANO_~1\AppData\Local\Temp\cc2nkIni.s 			page 8


 276:../../../../../../Middlewares/Third_Party/LoRaWAN/Mac/region/RegionAS923.c ****         {
 277:../../../../../../Middlewares/Third_Party/LoRaWAN/Mac/region/RegionAS923.c ****             phyParam.Value = AS923_JOIN_ACCEPT_DELAY1;
 278:../../../../../../Middlewares/Third_Party/LoRaWAN/Mac/region/RegionAS923.c ****             break;
 279:../../../../../../Middlewares/Third_Party/LoRaWAN/Mac/region/RegionAS923.c ****         }
 280:../../../../../../Middlewares/Third_Party/LoRaWAN/Mac/region/RegionAS923.c ****         case PHY_JOIN_ACCEPT_DELAY2:
 281:../../../../../../Middlewares/Third_Party/LoRaWAN/Mac/region/RegionAS923.c ****         {
 282:../../../../../../Middlewares/Third_Party/LoRaWAN/Mac/region/RegionAS923.c ****             phyParam.Value = AS923_JOIN_ACCEPT_DELAY2;
 283:../../../../../../Middlewares/Third_Party/LoRaWAN/Mac/region/RegionAS923.c ****             break;
 284:../../../../../../Middlewares/Third_Party/LoRaWAN/Mac/region/RegionAS923.c ****         }
 285:../../../../../../Middlewares/Third_Party/LoRaWAN/Mac/region/RegionAS923.c ****         case PHY_MAX_FCNT_GAP:
 286:../../../../../../Middlewares/Third_Party/LoRaWAN/Mac/region/RegionAS923.c ****         {
 287:../../../../../../Middlewares/Third_Party/LoRaWAN/Mac/region/RegionAS923.c ****             phyParam.Value = AS923_MAX_FCNT_GAP;
 288:../../../../../../Middlewares/Third_Party/LoRaWAN/Mac/region/RegionAS923.c ****             break;
 289:../../../../../../Middlewares/Third_Party/LoRaWAN/Mac/region/RegionAS923.c ****         }
 290:../../../../../../Middlewares/Third_Party/LoRaWAN/Mac/region/RegionAS923.c ****         case PHY_ACK_TIMEOUT:
 291:../../../../../../Middlewares/Third_Party/LoRaWAN/Mac/region/RegionAS923.c ****         {
 292:../../../../../../Middlewares/Third_Party/LoRaWAN/Mac/region/RegionAS923.c ****             phyParam.Value = ( AS923_ACKTIMEOUT + randr( -AS923_ACK_TIMEOUT_RND, AS923_ACK_TIMEOUT_
 293:../../../../../../Middlewares/Third_Party/LoRaWAN/Mac/region/RegionAS923.c ****             break;
 294:../../../../../../Middlewares/Third_Party/LoRaWAN/Mac/region/RegionAS923.c ****         }
 295:../../../../../../Middlewares/Third_Party/LoRaWAN/Mac/region/RegionAS923.c ****         case PHY_DEF_DR1_OFFSET:
 296:../../../../../../Middlewares/Third_Party/LoRaWAN/Mac/region/RegionAS923.c ****         {
 297:../../../../../../Middlewares/Third_Party/LoRaWAN/Mac/region/RegionAS923.c ****             phyParam.Value = AS923_DEFAULT_RX1_DR_OFFSET;
 298:../../../../../../Middlewares/Third_Party/LoRaWAN/Mac/region/RegionAS923.c ****             break;
 299:../../../../../../Middlewares/Third_Party/LoRaWAN/Mac/region/RegionAS923.c ****         }
 300:../../../../../../Middlewares/Third_Party/LoRaWAN/Mac/region/RegionAS923.c ****         case PHY_DEF_RX2_FREQUENCY:
 301:../../../../../../Middlewares/Third_Party/LoRaWAN/Mac/region/RegionAS923.c ****         {
 302:../../../../../../Middlewares/Third_Party/LoRaWAN/Mac/region/RegionAS923.c ****             phyParam.Value = AS923_RX_WND_2_FREQ;
 303:../../../../../../Middlewares/Third_Party/LoRaWAN/Mac/region/RegionAS923.c ****             break;
 304:../../../../../../Middlewares/Third_Party/LoRaWAN/Mac/region/RegionAS923.c ****         }
 305:../../../../../../Middlewares/Third_Party/LoRaWAN/Mac/region/RegionAS923.c ****         case PHY_DEF_RX2_DR:
 306:../../../../../../Middlewares/Third_Party/LoRaWAN/Mac/region/RegionAS923.c ****         {
 307:../../../../../../Middlewares/Third_Party/LoRaWAN/Mac/region/RegionAS923.c ****             phyParam.Value = AS923_RX_WND_2_DR;
 308:../../../../../../Middlewares/Third_Party/LoRaWAN/Mac/region/RegionAS923.c ****             break;
 309:../../../../../../Middlewares/Third_Party/LoRaWAN/Mac/region/RegionAS923.c ****         }
 310:../../../../../../Middlewares/Third_Party/LoRaWAN/Mac/region/RegionAS923.c ****         case PHY_CHANNELS_MASK:
 311:../../../../../../Middlewares/Third_Party/LoRaWAN/Mac/region/RegionAS923.c ****         {
 312:../../../../../../Middlewares/Third_Party/LoRaWAN/Mac/region/RegionAS923.c ****             phyParam.ChannelsMask = NvmCtx.ChannelsMask;
 313:../../../../../../Middlewares/Third_Party/LoRaWAN/Mac/region/RegionAS923.c ****             break;
 314:../../../../../../Middlewares/Third_Party/LoRaWAN/Mac/region/RegionAS923.c ****         }
 315:../../../../../../Middlewares/Third_Party/LoRaWAN/Mac/region/RegionAS923.c ****         case PHY_CHANNELS_DEFAULT_MASK:
 316:../../../../../../Middlewares/Third_Party/LoRaWAN/Mac/region/RegionAS923.c ****         {
 317:../../../../../../Middlewares/Third_Party/LoRaWAN/Mac/region/RegionAS923.c ****             phyParam.ChannelsMask = NvmCtx.ChannelsDefaultMask;
 318:../../../../../../Middlewares/Third_Party/LoRaWAN/Mac/region/RegionAS923.c ****             break;
 319:../../../../../../Middlewares/Third_Party/LoRaWAN/Mac/region/RegionAS923.c ****         }
 320:../../../../../../Middlewares/Third_Party/LoRaWAN/Mac/region/RegionAS923.c ****         case PHY_MAX_NB_CHANNELS:
 321:../../../../../../Middlewares/Third_Party/LoRaWAN/Mac/region/RegionAS923.c ****         {
 322:../../../../../../Middlewares/Third_Party/LoRaWAN/Mac/region/RegionAS923.c ****             phyParam.Value = AS923_MAX_NB_CHANNELS;
 323:../../../../../../Middlewares/Third_Party/LoRaWAN/Mac/region/RegionAS923.c ****             break;
 324:../../../../../../Middlewares/Third_Party/LoRaWAN/Mac/region/RegionAS923.c ****         }
 325:../../../../../../Middlewares/Third_Party/LoRaWAN/Mac/region/RegionAS923.c ****         case PHY_CHANNELS:
 326:../../../../../../Middlewares/Third_Party/LoRaWAN/Mac/region/RegionAS923.c ****         {
 327:../../../../../../Middlewares/Third_Party/LoRaWAN/Mac/region/RegionAS923.c ****             phyParam.Channels = NvmCtx.Channels;
 328:../../../../../../Middlewares/Third_Party/LoRaWAN/Mac/region/RegionAS923.c ****             break;
 329:../../../../../../Middlewares/Third_Party/LoRaWAN/Mac/region/RegionAS923.c ****         }
 330:../../../../../../Middlewares/Third_Party/LoRaWAN/Mac/region/RegionAS923.c ****         case PHY_DEF_UPLINK_DWELL_TIME:
 331:../../../../../../Middlewares/Third_Party/LoRaWAN/Mac/region/RegionAS923.c ****         {
 332:../../../../../../Middlewares/Third_Party/LoRaWAN/Mac/region/RegionAS923.c ****             phyParam.Value = AS923_DEFAULT_UPLINK_DWELL_TIME;
ARM GAS  C:\Users\EBANO_~1\AppData\Local\Temp\cc2nkIni.s 			page 9


 333:../../../../../../Middlewares/Third_Party/LoRaWAN/Mac/region/RegionAS923.c ****             break;
 334:../../../../../../Middlewares/Third_Party/LoRaWAN/Mac/region/RegionAS923.c ****         }
 335:../../../../../../Middlewares/Third_Party/LoRaWAN/Mac/region/RegionAS923.c ****         case PHY_DEF_DOWNLINK_DWELL_TIME:
 336:../../../../../../Middlewares/Third_Party/LoRaWAN/Mac/region/RegionAS923.c ****         {
 337:../../../../../../Middlewares/Third_Party/LoRaWAN/Mac/region/RegionAS923.c ****             phyParam.Value = AS923_DEFAULT_DOWNLINK_DWELL_TIME;
 338:../../../../../../Middlewares/Third_Party/LoRaWAN/Mac/region/RegionAS923.c ****             break;
 339:../../../../../../Middlewares/Third_Party/LoRaWAN/Mac/region/RegionAS923.c ****         }
 340:../../../../../../Middlewares/Third_Party/LoRaWAN/Mac/region/RegionAS923.c ****         case PHY_DEF_MAX_EIRP:
 341:../../../../../../Middlewares/Third_Party/LoRaWAN/Mac/region/RegionAS923.c ****         {
 342:../../../../../../Middlewares/Third_Party/LoRaWAN/Mac/region/RegionAS923.c ****             phyParam.fValue = AS923_DEFAULT_MAX_EIRP;
 343:../../../../../../Middlewares/Third_Party/LoRaWAN/Mac/region/RegionAS923.c ****             break;
 344:../../../../../../Middlewares/Third_Party/LoRaWAN/Mac/region/RegionAS923.c ****         }
 345:../../../../../../Middlewares/Third_Party/LoRaWAN/Mac/region/RegionAS923.c ****         case PHY_DEF_ANTENNA_GAIN:
 346:../../../../../../Middlewares/Third_Party/LoRaWAN/Mac/region/RegionAS923.c ****         {
 347:../../../../../../Middlewares/Third_Party/LoRaWAN/Mac/region/RegionAS923.c ****             phyParam.fValue = AS923_DEFAULT_ANTENNA_GAIN;
 348:../../../../../../Middlewares/Third_Party/LoRaWAN/Mac/region/RegionAS923.c ****             break;
 349:../../../../../../Middlewares/Third_Party/LoRaWAN/Mac/region/RegionAS923.c ****         }
 350:../../../../../../Middlewares/Third_Party/LoRaWAN/Mac/region/RegionAS923.c ****         case PHY_BEACON_CHANNEL_FREQ:
 351:../../../../../../Middlewares/Third_Party/LoRaWAN/Mac/region/RegionAS923.c ****         {
 352:../../../../../../Middlewares/Third_Party/LoRaWAN/Mac/region/RegionAS923.c ****             phyParam.Value = AS923_BEACON_CHANNEL_FREQ;
 353:../../../../../../Middlewares/Third_Party/LoRaWAN/Mac/region/RegionAS923.c ****             break;
 354:../../../../../../Middlewares/Third_Party/LoRaWAN/Mac/region/RegionAS923.c ****         }
 355:../../../../../../Middlewares/Third_Party/LoRaWAN/Mac/region/RegionAS923.c ****         case PHY_BEACON_FORMAT:
 356:../../../../../../Middlewares/Third_Party/LoRaWAN/Mac/region/RegionAS923.c ****         {
 357:../../../../../../Middlewares/Third_Party/LoRaWAN/Mac/region/RegionAS923.c ****             phyParam.BeaconFormat.BeaconSize = AS923_BEACON_SIZE;
 358:../../../../../../Middlewares/Third_Party/LoRaWAN/Mac/region/RegionAS923.c ****             phyParam.BeaconFormat.Rfu1Size = AS923_RFU1_SIZE;
 359:../../../../../../Middlewares/Third_Party/LoRaWAN/Mac/region/RegionAS923.c ****             phyParam.BeaconFormat.Rfu2Size = AS923_RFU2_SIZE;
 360:../../../../../../Middlewares/Third_Party/LoRaWAN/Mac/region/RegionAS923.c ****             break;
 361:../../../../../../Middlewares/Third_Party/LoRaWAN/Mac/region/RegionAS923.c ****         }
 362:../../../../../../Middlewares/Third_Party/LoRaWAN/Mac/region/RegionAS923.c ****         case PHY_BEACON_CHANNEL_DR:
 363:../../../../../../Middlewares/Third_Party/LoRaWAN/Mac/region/RegionAS923.c ****         {
 364:../../../../../../Middlewares/Third_Party/LoRaWAN/Mac/region/RegionAS923.c ****             phyParam.Value = AS923_BEACON_CHANNEL_DR;
 365:../../../../../../Middlewares/Third_Party/LoRaWAN/Mac/region/RegionAS923.c ****             break;
 366:../../../../../../Middlewares/Third_Party/LoRaWAN/Mac/region/RegionAS923.c ****         }
 367:../../../../../../Middlewares/Third_Party/LoRaWAN/Mac/region/RegionAS923.c ****         case PHY_PING_SLOT_CHANNEL_DR:
 368:../../../../../../Middlewares/Third_Party/LoRaWAN/Mac/region/RegionAS923.c ****         {
 369:../../../../../../Middlewares/Third_Party/LoRaWAN/Mac/region/RegionAS923.c ****             phyParam.Value = AS923_PING_SLOT_CHANNEL_DR;
 370:../../../../../../Middlewares/Third_Party/LoRaWAN/Mac/region/RegionAS923.c ****             break;
 371:../../../../../../Middlewares/Third_Party/LoRaWAN/Mac/region/RegionAS923.c ****         }
 372:../../../../../../Middlewares/Third_Party/LoRaWAN/Mac/region/RegionAS923.c ****         default:
 373:../../../../../../Middlewares/Third_Party/LoRaWAN/Mac/region/RegionAS923.c ****         {
 374:../../../../../../Middlewares/Third_Party/LoRaWAN/Mac/region/RegionAS923.c ****             break;
 375:../../../../../../Middlewares/Third_Party/LoRaWAN/Mac/region/RegionAS923.c ****         }
 376:../../../../../../Middlewares/Third_Party/LoRaWAN/Mac/region/RegionAS923.c ****     }
 377:../../../../../../Middlewares/Third_Party/LoRaWAN/Mac/region/RegionAS923.c **** 
 378:../../../../../../Middlewares/Third_Party/LoRaWAN/Mac/region/RegionAS923.c ****     return phyParam;
 379:../../../../../../Middlewares/Third_Party/LoRaWAN/Mac/region/RegionAS923.c **** }
 124              		.loc 1 379 0
 125 0028 0098     		ldr	r0, [sp]
 126 002a 03B0     		add	sp, sp, #12
 127              		@ sp needed
 128 002c 00BD     		pop	{pc}
 129              	.LVL2:
 130              	.L23:
 332:../../../../../../Middlewares/Third_Party/LoRaWAN/Mac/region/RegionAS923.c ****             break;
 131              		.loc 1 332 0
 132 002e 0123     		movs	r3, #1
ARM GAS  C:\Users\EBANO_~1\AppData\Local\Temp\cc2nkIni.s 			page 10


 133 0030 0093     		str	r3, [sp]
 333:../../../../../../Middlewares/Third_Party/LoRaWAN/Mac/region/RegionAS923.c ****         }
 134              		.loc 1 333 0
 135 0032 F9E7     		b	.L2
 136              	.L6:
 196:../../../../../../Middlewares/Third_Party/LoRaWAN/Mac/region/RegionAS923.c ****             break;
 137              		.loc 1 196 0
 138 0034 0223     		movs	r3, #2
 139 0036 0093     		str	r3, [sp]
 197:../../../../../../Middlewares/Third_Party/LoRaWAN/Mac/region/RegionAS923.c ****         }
 140              		.loc 1 197 0
 141 0038 F6E7     		b	.L2
 142              	.L29:
 364:../../../../../../Middlewares/Third_Party/LoRaWAN/Mac/region/RegionAS923.c ****             break;
 143              		.loc 1 364 0
 144 003a 0323     		movs	r3, #3
 145 003c 0093     		str	r3, [sp]
 365:../../../../../../Middlewares/Third_Party/LoRaWAN/Mac/region/RegionAS923.c ****         }
 146              		.loc 1 365 0
 147 003e F3E7     		b	.L2
 148              	.L7:
 223:../../../../../../Middlewares/Third_Party/LoRaWAN/Mac/region/RegionAS923.c ****             break;
 149              		.loc 1 223 0
 150 0040 4023     		movs	r3, #64
 151 0042 0093     		str	r3, [sp]
 224:../../../../../../Middlewares/Third_Party/LoRaWAN/Mac/region/RegionAS923.c ****         }
 152              		.loc 1 224 0
 153 0044 F0E7     		b	.L2
 154              	.L21:
 322:../../../../../../Middlewares/Third_Party/LoRaWAN/Mac/region/RegionAS923.c ****             break;
 155              		.loc 1 322 0
 156 0046 1023     		movs	r3, #16
 157 0048 0093     		str	r3, [sp]
 323:../../../../../../Middlewares/Third_Party/LoRaWAN/Mac/region/RegionAS923.c ****         }
 158              		.loc 1 323 0
 159 004a EDE7     		b	.L2
 160              	.L20:
 317:../../../../../../Middlewares/Third_Party/LoRaWAN/Mac/region/RegionAS923.c ****             break;
 161              		.loc 1 317 0
 162 004c 354B     		ldr	r3, .L47+8
 163 004e 0093     		str	r3, [sp]
 318:../../../../../../Middlewares/Third_Party/LoRaWAN/Mac/region/RegionAS923.c ****         }
 164              		.loc 1 318 0
 165 0050 EAE7     		b	.L2
 166              	.L19:
 312:../../../../../../Middlewares/Third_Party/LoRaWAN/Mac/region/RegionAS923.c ****             break;
 167              		.loc 1 312 0
 168 0052 354B     		ldr	r3, .L47+12
 169 0054 0093     		str	r3, [sp]
 313:../../../../../../Middlewares/Third_Party/LoRaWAN/Mac/region/RegionAS923.c ****         }
 170              		.loc 1 313 0
 171 0056 E7E7     		b	.L2
 172              	.L26:
 173 0058 0123     		movs	r3, #1
 201:../../../../../../Middlewares/Third_Party/LoRaWAN/Mac/region/RegionAS923.c ****             {
 174              		.loc 1 201 0
 175 005a 8278     		ldrb	r2, [r0, #2]
ARM GAS  C:\Users\EBANO_~1\AppData\Local\Temp\cc2nkIni.s 			page 11


 176 005c C356     		ldrsb	r3, [r0, r3]
 177 005e 002A     		cmp	r2, #0
 178 0060 56D1     		bne	.L31
 179              	.LVL3:
 180              	.LBB22:
 181              	.LBB23:
  73:../../../../../../Middlewares/Third_Party/LoRaWAN/Mac/region/RegionAS923.c ****     {
 182              		.loc 1 73 0
 183 0062 002B     		cmp	r3, #0
 184 0064 01D0     		beq	.L32
 185              	.LVL4:
  79:../../../../../../Middlewares/Third_Party/LoRaWAN/Mac/region/RegionAS923.c ****     }
 186              		.loc 1 79 0
 187 0066 013B     		subs	r3, r3, #1
 188              	.LVL5:
 189 0068 5AB2     		sxtb	r2, r3
 190              	.LVL6:
 191              	.L32:
 192              	.LBE23:
 193              	.LBE22:
 203:../../../../../../Middlewares/Third_Party/LoRaWAN/Mac/region/RegionAS923.c ****             }
 194              		.loc 1 203 0
 195 006a 0092     		str	r2, [sp]
 196 006c DCE7     		b	.L2
 197              	.L18:
 302:../../../../../../Middlewares/Third_Party/LoRaWAN/Mac/region/RegionAS923.c ****             break;
 198              		.loc 1 302 0
 199 006e 2F4B     		ldr	r3, .L47+16
 200 0070 0093     		str	r3, [sp]
 303:../../../../../../Middlewares/Third_Party/LoRaWAN/Mac/region/RegionAS923.c ****         }
 201              		.loc 1 303 0
 202 0072 D9E7     		b	.L2
 203              	.L27:
 352:../../../../../../Middlewares/Third_Party/LoRaWAN/Mac/region/RegionAS923.c ****             break;
 204              		.loc 1 352 0
 205 0074 2E4B     		ldr	r3, .L47+20
 206 0076 0093     		str	r3, [sp]
 353:../../../../../../Middlewares/Third_Party/LoRaWAN/Mac/region/RegionAS923.c ****         }
 207              		.loc 1 353 0
 208 0078 D6E7     		b	.L2
 209              	.L17:
 292:../../../../../../Middlewares/Third_Party/LoRaWAN/Mac/region/RegionAS923.c ****             break;
 210              		.loc 1 292 0
 211 007a FA21     		movs	r1, #250
 212 007c 2D48     		ldr	r0, .L47+24
 213              	.LVL7:
 214 007e 8900     		lsls	r1, r1, #2
 215 0080 FFF7FEFF 		bl	randr
 216              	.LVL8:
 217 0084 FA23     		movs	r3, #250
 218 0086 DB00     		lsls	r3, r3, #3
 219 0088 9C46     		mov	ip, r3
 220 008a 6044     		add	r0, r0, ip
 221 008c 0090     		str	r0, [sp]
 293:../../../../../../Middlewares/Third_Party/LoRaWAN/Mac/region/RegionAS923.c ****         }
 222              		.loc 1 293 0
 223 008e CBE7     		b	.L2
ARM GAS  C:\Users\EBANO_~1\AppData\Local\Temp\cc2nkIni.s 			page 12


 224              	.LVL9:
 225              	.L16:
 287:../../../../../../Middlewares/Third_Party/LoRaWAN/Mac/region/RegionAS923.c ****             break;
 226              		.loc 1 287 0
 227 0090 8023     		movs	r3, #128
 228 0092 DB01     		lsls	r3, r3, #7
 229 0094 0093     		str	r3, [sp]
 288:../../../../../../Middlewares/Third_Party/LoRaWAN/Mac/region/RegionAS923.c ****         }
 230              		.loc 1 288 0
 231 0096 C7E7     		b	.L2
 232              	.L15:
 282:../../../../../../Middlewares/Third_Party/LoRaWAN/Mac/region/RegionAS923.c ****             break;
 233              		.loc 1 282 0
 234 0098 274B     		ldr	r3, .L47+28
 235 009a 0093     		str	r3, [sp]
 283:../../../../../../Middlewares/Third_Party/LoRaWAN/Mac/region/RegionAS923.c ****         }
 236              		.loc 1 283 0
 237 009c C4E7     		b	.L2
 238              	.L14:
 277:../../../../../../Middlewares/Third_Party/LoRaWAN/Mac/region/RegionAS923.c ****             break;
 239              		.loc 1 277 0
 240 009e 274B     		ldr	r3, .L47+32
 241 00a0 0093     		str	r3, [sp]
 278:../../../../../../Middlewares/Third_Party/LoRaWAN/Mac/region/RegionAS923.c ****         }
 242              		.loc 1 278 0
 243 00a2 C1E7     		b	.L2
 244              	.L13:
 272:../../../../../../Middlewares/Third_Party/LoRaWAN/Mac/region/RegionAS923.c ****             break;
 245              		.loc 1 272 0
 246 00a4 FA23     		movs	r3, #250
 247 00a6 DB00     		lsls	r3, r3, #3
 248 00a8 0093     		str	r3, [sp]
 273:../../../../../../Middlewares/Third_Party/LoRaWAN/Mac/region/RegionAS923.c ****         }
 249              		.loc 1 273 0
 250 00aa BDE7     		b	.L2
 251              	.L12:
 267:../../../../../../Middlewares/Third_Party/LoRaWAN/Mac/region/RegionAS923.c ****             break;
 252              		.loc 1 267 0
 253 00ac FA23     		movs	r3, #250
 254 00ae 9B00     		lsls	r3, r3, #2
 255 00b0 0093     		str	r3, [sp]
 268:../../../../../../Middlewares/Third_Party/LoRaWAN/Mac/region/RegionAS923.c ****         }
 256              		.loc 1 268 0
 257 00b2 B9E7     		b	.L2
 258              	.L11:
 262:../../../../../../Middlewares/Third_Party/LoRaWAN/Mac/region/RegionAS923.c ****             break;
 259              		.loc 1 262 0
 260 00b4 224B     		ldr	r3, .L47+36
 261 00b6 0093     		str	r3, [sp]
 263:../../../../../../Middlewares/Third_Party/LoRaWAN/Mac/region/RegionAS923.c ****         }
 262              		.loc 1 263 0
 263 00b8 B6E7     		b	.L2
 264              	.L28:
 357:../../../../../../Middlewares/Third_Party/LoRaWAN/Mac/region/RegionAS923.c ****             phyParam.BeaconFormat.Rfu1Size = AS923_RFU1_SIZE;
 265              		.loc 1 357 0
 266 00ba 6A46     		mov	r2, sp
 267 00bc 214B     		ldr	r3, .L47+40
ARM GAS  C:\Users\EBANO_~1\AppData\Local\Temp\cc2nkIni.s 			page 13


 268 00be 1380     		strh	r3, [r2]
 360:../../../../../../Middlewares/Third_Party/LoRaWAN/Mac/region/RegionAS923.c ****         }
 269              		.loc 1 360 0
 270 00c0 B2E7     		b	.L2
 271              	.L10:
 272 00c2 0122     		movs	r2, #1
 245:../../../../../../Middlewares/Third_Party/LoRaWAN/Mac/region/RegionAS923.c ****             {
 273              		.loc 1 245 0
 274 00c4 8378     		ldrb	r3, [r0, #2]
 275 00c6 8256     		ldrsb	r2, [r0, r2]
 276 00c8 002B     		cmp	r3, #0
 277 00ca 1CD1     		bne	.L35
 247:../../../../../../Middlewares/Third_Party/LoRaWAN/Mac/region/RegionAS923.c ****             }
 278              		.loc 1 247 0
 279 00cc 144B     		ldr	r3, .L47+4
 280 00ce 9A18     		adds	r2, r3, r2
 281 00d0 137C     		ldrb	r3, [r2, #16]
 282 00d2 0093     		str	r3, [sp]
 283 00d4 A8E7     		b	.L2
 284              	.L25:
 347:../../../../../../Middlewares/Third_Party/LoRaWAN/Mac/region/RegionAS923.c ****             break;
 285              		.loc 1 347 0
 286 00d6 1C4B     		ldr	r3, .L47+44
 287 00d8 0093     		str	r3, [sp]
 348:../../../../../../Middlewares/Third_Party/LoRaWAN/Mac/region/RegionAS923.c ****         }
 288              		.loc 1 348 0
 289 00da A5E7     		b	.L2
 290              	.L22:
 327:../../../../../../Middlewares/Third_Party/LoRaWAN/Mac/region/RegionAS923.c ****             break;
 291              		.loc 1 327 0
 292 00dc 1B4B     		ldr	r3, .L47+48
 293 00de 0093     		str	r3, [sp]
 328:../../../../../../Middlewares/Third_Party/LoRaWAN/Mac/region/RegionAS923.c ****         }
 294              		.loc 1 328 0
 295 00e0 A2E7     		b	.L2
 296              	.L24:
 342:../../../../../../Middlewares/Third_Party/LoRaWAN/Mac/region/RegionAS923.c ****             break;
 297              		.loc 1 342 0
 298 00e2 8323     		movs	r3, #131
 299 00e4 DB05     		lsls	r3, r3, #23
 300 00e6 0093     		str	r3, [sp]
 343:../../../../../../Middlewares/Third_Party/LoRaWAN/Mac/region/RegionAS923.c ****         }
 301              		.loc 1 343 0
 302 00e8 9EE7     		b	.L2
 303              	.L8:
 228:../../../../../../Middlewares/Third_Party/LoRaWAN/Mac/region/RegionAS923.c ****             break;
 304              		.loc 1 228 0
 305 00ea 2023     		movs	r3, #32
 306 00ec 0093     		str	r3, [sp]
 229:../../../../../../Middlewares/Third_Party/LoRaWAN/Mac/region/RegionAS923.c ****         }
 307              		.loc 1 229 0
 308 00ee 9BE7     		b	.L2
 309              	.L5:
 184:../../../../../../Middlewares/Third_Party/LoRaWAN/Mac/region/RegionAS923.c ****             {
 310              		.loc 1 184 0
 311 00f0 8378     		ldrb	r3, [r0, #2]
 312 00f2 002B     		cmp	r3, #0
ARM GAS  C:\Users\EBANO_~1\AppData\Local\Temp\cc2nkIni.s 			page 14


 313 00f4 98D0     		beq	.L2
 314              	.L37:
 315              	.LBB24:
 316              	.LBB25:
  73:../../../../../../Middlewares/Third_Party/LoRaWAN/Mac/region/RegionAS923.c ****     {
 317              		.loc 1 73 0
 318 00f6 0223     		movs	r3, #2
 319              	.LBE25:
 320              	.LBE24:
 364:../../../../../../Middlewares/Third_Party/LoRaWAN/Mac/region/RegionAS923.c ****             break;
 321              		.loc 1 364 0
 322 00f8 0093     		str	r3, [sp]
 323 00fa 95E7     		b	.L2
 324              	.L3:
 172:../../../../../../Middlewares/Third_Party/LoRaWAN/Mac/region/RegionAS923.c ****             {
 325              		.loc 1 172 0
 326 00fc C378     		ldrb	r3, [r0, #3]
 327 00fe 002B     		cmp	r3, #0
 328 0100 00D1     		bne	.LCB252
 329 0102 91E7     		b	.L2	@long jump
 330              	.LCB252:
 331 0104 F7E7     		b	.L37
 332              	.L35:
 251:../../../../../../Middlewares/Third_Party/LoRaWAN/Mac/region/RegionAS923.c ****             }
 333              		.loc 1 251 0
 334 0106 064B     		ldr	r3, .L47+4
 335 0108 9A18     		adds	r2, r3, r2
 336 010a 137A     		ldrb	r3, [r2, #8]
 337 010c 0093     		str	r3, [sp]
 338 010e 8BE7     		b	.L2
 339              	.L31:
 340              	.LVL10:
 341              	.LBB27:
 342              	.LBB26:
  73:../../../../../../Middlewares/Third_Party/LoRaWAN/Mac/region/RegionAS923.c ****     {
 343              		.loc 1 73 0
 344 0110 022B     		cmp	r3, #2
 345 0112 F0D0     		beq	.L37
 346              	.LVL11:
  79:../../../../../../Middlewares/Third_Party/LoRaWAN/Mac/region/RegionAS923.c ****     }
 347              		.loc 1 79 0
 348 0114 013B     		subs	r3, r3, #1
 349              	.LVL12:
 350 0116 5BB2     		sxtb	r3, r3
 351              	.LBE26:
 352              	.LBE27:
 364:../../../../../../Middlewares/Third_Party/LoRaWAN/Mac/region/RegionAS923.c ****             break;
 353              		.loc 1 364 0
 354 0118 0093     		str	r3, [sp]
 355              	.LVL13:
 356 011a 85E7     		b	.L2
 357              	.L48:
 358              		.align	2
 359              	.L47:
 360 011c 00000000 		.word	.L4
 361 0120 1C010000 		.word	.LANCHOR0
 362 0124 D2000000 		.word	NvmCtx+210
ARM GAS  C:\Users\EBANO_~1\AppData\Local\Temp\cc2nkIni.s 			page 15


 363 0128 D0000000 		.word	NvmCtx+208
 364 012c 00EA0637 		.word	923200000
 365 0130 40F70937 		.word	923400000
 366 0134 18FCFFFF 		.word	-1000
 367 0138 70170000 		.word	6000
 368 013c 88130000 		.word	5000
 369 0140 B80B0000 		.word	3000
 370 0144 11020000 		.word	529
 371 0148 9A990940 		.word	1074370970
 372 014c 00000000 		.word	NvmCtx
 373              		.cfi_endproc
 374              	.LFE44:
 375              		.size	RegionAS923GetPhyParam, .-RegionAS923GetPhyParam
 376              		.section	.text.RegionAS923SetBandTxDone,"ax",%progbits
 377              		.align	1
 378              		.p2align 2,,3
 379              		.global	RegionAS923SetBandTxDone
 380              		.syntax unified
 381              		.code	16
 382              		.thumb_func
 383              		.fpu softvfp
 384              		.type	RegionAS923SetBandTxDone, %function
 385              	RegionAS923SetBandTxDone:
 386              	.LFB45:
 380:../../../../../../Middlewares/Third_Party/LoRaWAN/Mac/region/RegionAS923.c **** 
 381:../../../../../../Middlewares/Third_Party/LoRaWAN/Mac/region/RegionAS923.c **** void RegionAS923SetBandTxDone( SetBandTxDoneParams_t* txDone )
 382:../../../../../../Middlewares/Third_Party/LoRaWAN/Mac/region/RegionAS923.c **** {
 387              		.loc 1 382 0
 388              		.cfi_startproc
 389              		@ args = 0, pretend = 0, frame = 0
 390              		@ frame_needed = 0, uses_anonymous_args = 0
 391              	.LVL14:
 383:../../../../../../Middlewares/Third_Party/LoRaWAN/Mac/region/RegionAS923.c ****     RegionCommonSetBandTxDone( txDone->Joined, &NvmCtx.Bands[NvmCtx.Channels[txDone->Channel].Band]
 392              		.loc 1 383 0
 393 0000 0178     		ldrb	r1, [r0]
 382:../../../../../../Middlewares/Third_Party/LoRaWAN/Mac/region/RegionAS923.c ****     RegionCommonSetBandTxDone( txDone->Joined, &NvmCtx.Bands[NvmCtx.Channels[txDone->Channel].Band]
 394              		.loc 1 382 0
 395 0002 10B5     		push	{r4, lr}
 396              	.LCFI2:
 397              		.cfi_def_cfa_offset 8
 398              		.cfi_offset 4, -8
 399              		.cfi_offset 14, -4
 400              		.loc 1 383 0
 401 0004 4B00     		lsls	r3, r1, #1
 402 0006 064C     		ldr	r4, .L50
 403 0008 5B18     		adds	r3, r3, r1
 404 000a 9B00     		lsls	r3, r3, #2
 405 000c E318     		adds	r3, r4, r3
 406 000e 597A     		ldrb	r1, [r3, #9]
 407 0010 4268     		ldr	r2, [r0, #4]
 408 0012 0C31     		adds	r1, r1, #12
 409 0014 0901     		lsls	r1, r1, #4
 410 0016 0919     		adds	r1, r1, r4
 411 0018 4078     		ldrb	r0, [r0, #1]
 412              	.LVL15:
 413 001a FFF7FEFF 		bl	RegionCommonSetBandTxDone
 414              	.LVL16:
ARM GAS  C:\Users\EBANO_~1\AppData\Local\Temp\cc2nkIni.s 			page 16


 384:../../../../../../Middlewares/Third_Party/LoRaWAN/Mac/region/RegionAS923.c **** }
 415              		.loc 1 384 0
 416              		@ sp needed
 417 001e 10BD     		pop	{r4, pc}
 418              	.L51:
 419              		.align	2
 420              	.L50:
 421 0020 00000000 		.word	NvmCtx
 422              		.cfi_endproc
 423              	.LFE45:
 424              		.size	RegionAS923SetBandTxDone, .-RegionAS923SetBandTxDone
 425              		.section	.text.RegionAS923InitDefaults,"ax",%progbits
 426              		.align	1
 427              		.p2align 2,,3
 428              		.global	RegionAS923InitDefaults
 429              		.syntax unified
 430              		.code	16
 431              		.thumb_func
 432              		.fpu softvfp
 433              		.type	RegionAS923InitDefaults, %function
 434              	RegionAS923InitDefaults:
 435              	.LFB46:
 385:../../../../../../Middlewares/Third_Party/LoRaWAN/Mac/region/RegionAS923.c **** 
 386:../../../../../../Middlewares/Third_Party/LoRaWAN/Mac/region/RegionAS923.c **** void RegionAS923InitDefaults( InitDefaultsParams_t* params )
 387:../../../../../../Middlewares/Third_Party/LoRaWAN/Mac/region/RegionAS923.c **** {
 436              		.loc 1 387 0
 437              		.cfi_startproc
 438              		@ args = 0, pretend = 0, frame = 16
 439              		@ frame_needed = 0, uses_anonymous_args = 0
 440              	.LVL17:
 441 0000 F0B5     		push	{r4, r5, r6, r7, lr}
 442              	.LCFI3:
 443              		.cfi_def_cfa_offset 20
 444              		.cfi_offset 4, -20
 445              		.cfi_offset 5, -16
 446              		.cfi_offset 6, -12
 447              		.cfi_offset 7, -8
 448              		.cfi_offset 14, -4
 449 0002 85B0     		sub	sp, sp, #20
 450              	.LCFI4:
 451              		.cfi_def_cfa_offset 40
 388:../../../../../../Middlewares/Third_Party/LoRaWAN/Mac/region/RegionAS923.c ****     Band_t bands[AS923_MAX_NB_BANDS] =
 452              		.loc 1 388 0
 453 0004 6423     		movs	r3, #100
 454 0006 6A46     		mov	r2, sp
 455 0008 1380     		strh	r3, [r2]
 456 000a 0023     		movs	r3, #0
 457 000c 9370     		strb	r3, [r2, #2]
 458 000e 0193     		str	r3, [sp, #4]
 459 0010 0293     		str	r3, [sp, #8]
 460 0012 0393     		str	r3, [sp, #12]
 389:../../../../../../Middlewares/Third_Party/LoRaWAN/Mac/region/RegionAS923.c ****     {
 390:../../../../../../Middlewares/Third_Party/LoRaWAN/Mac/region/RegionAS923.c ****         AS923_BAND0
 391:../../../../../../Middlewares/Third_Party/LoRaWAN/Mac/region/RegionAS923.c ****     };
 392:../../../../../../Middlewares/Third_Party/LoRaWAN/Mac/region/RegionAS923.c **** 
 393:../../../../../../Middlewares/Third_Party/LoRaWAN/Mac/region/RegionAS923.c ****     switch( params->Type )
 461              		.loc 1 393 0
ARM GAS  C:\Users\EBANO_~1\AppData\Local\Temp\cc2nkIni.s 			page 17


 462 0014 0379     		ldrb	r3, [r0, #4]
 463 0016 012B     		cmp	r3, #1
 464 0018 28D0     		beq	.L54
 465 001a 002B     		cmp	r3, #0
 466 001c 0AD0     		beq	.L55
 467 001e 022B     		cmp	r3, #2
 468 0020 06D1     		bne	.L52
 394:../../../../../../Middlewares/Third_Party/LoRaWAN/Mac/region/RegionAS923.c ****     {
 395:../../../../../../Middlewares/Third_Party/LoRaWAN/Mac/region/RegionAS923.c ****         case INIT_TYPE_INIT:
 396:../../../../../../Middlewares/Third_Party/LoRaWAN/Mac/region/RegionAS923.c ****         {
 397:../../../../../../Middlewares/Third_Party/LoRaWAN/Mac/region/RegionAS923.c ****             // Initialize bands
 398:../../../../../../Middlewares/Third_Party/LoRaWAN/Mac/region/RegionAS923.c ****             memcpy1( ( uint8_t* )NvmCtx.Bands, ( uint8_t* )bands, sizeof( Band_t ) * AS923_MAX_NB_B
 399:../../../../../../Middlewares/Third_Party/LoRaWAN/Mac/region/RegionAS923.c **** 
 400:../../../../../../Middlewares/Third_Party/LoRaWAN/Mac/region/RegionAS923.c ****             // Channels
 401:../../../../../../Middlewares/Third_Party/LoRaWAN/Mac/region/RegionAS923.c ****             NvmCtx.Channels[0] = ( ChannelParams_t ) AS923_LC1;
 402:../../../../../../Middlewares/Third_Party/LoRaWAN/Mac/region/RegionAS923.c ****             NvmCtx.Channels[1] = ( ChannelParams_t ) AS923_LC2;
 403:../../../../../../Middlewares/Third_Party/LoRaWAN/Mac/region/RegionAS923.c **** 
 404:../../../../../../Middlewares/Third_Party/LoRaWAN/Mac/region/RegionAS923.c ****             // Initialize the channels default mask
 405:../../../../../../Middlewares/Third_Party/LoRaWAN/Mac/region/RegionAS923.c ****             NvmCtx.ChannelsDefaultMask[0] = LC( 1 ) + LC( 2 );
 406:../../../../../../Middlewares/Third_Party/LoRaWAN/Mac/region/RegionAS923.c ****             // Update the channels mask
 407:../../../../../../Middlewares/Third_Party/LoRaWAN/Mac/region/RegionAS923.c ****             RegionCommonChanMaskCopy( NvmCtx.ChannelsMask, NvmCtx.ChannelsDefaultMask, 1 );
 408:../../../../../../Middlewares/Third_Party/LoRaWAN/Mac/region/RegionAS923.c ****             break;
 409:../../../../../../Middlewares/Third_Party/LoRaWAN/Mac/region/RegionAS923.c ****         }
 410:../../../../../../Middlewares/Third_Party/LoRaWAN/Mac/region/RegionAS923.c ****         case INIT_TYPE_RESTORE_CTX:
 411:../../../../../../Middlewares/Third_Party/LoRaWAN/Mac/region/RegionAS923.c ****         {
 412:../../../../../../Middlewares/Third_Party/LoRaWAN/Mac/region/RegionAS923.c ****             if( params->NvmCtx != 0 )
 469              		.loc 1 412 0
 470 0022 0168     		ldr	r1, [r0]
 471 0024 0029     		cmp	r1, #0
 472 0026 03D0     		beq	.L52
 413:../../../../../../Middlewares/Third_Party/LoRaWAN/Mac/region/RegionAS923.c ****             {
 414:../../../../../../Middlewares/Third_Party/LoRaWAN/Mac/region/RegionAS923.c ****                 memcpy1( (uint8_t*) &NvmCtx, (uint8_t*) params->NvmCtx, sizeof( NvmCtx ) );
 473              		.loc 1 414 0
 474 0028 D422     		movs	r2, #212
 475 002a 1448     		ldr	r0, .L60
 476              	.LVL18:
 477 002c FFF7FEFF 		bl	memcpy1
 478              	.LVL19:
 479              	.L52:
 415:../../../../../../Middlewares/Third_Party/LoRaWAN/Mac/region/RegionAS923.c ****             }
 416:../../../../../../Middlewares/Third_Party/LoRaWAN/Mac/region/RegionAS923.c ****             break;
 417:../../../../../../Middlewares/Third_Party/LoRaWAN/Mac/region/RegionAS923.c ****         }
 418:../../../../../../Middlewares/Third_Party/LoRaWAN/Mac/region/RegionAS923.c ****         case INIT_TYPE_RESTORE_DEFAULT_CHANNELS:
 419:../../../../../../Middlewares/Third_Party/LoRaWAN/Mac/region/RegionAS923.c ****         {
 420:../../../../../../Middlewares/Third_Party/LoRaWAN/Mac/region/RegionAS923.c ****             // Restore channels default mask
 421:../../../../../../Middlewares/Third_Party/LoRaWAN/Mac/region/RegionAS923.c ****             NvmCtx.ChannelsMask[0] |= NvmCtx.ChannelsDefaultMask[0];
 422:../../../../../../Middlewares/Third_Party/LoRaWAN/Mac/region/RegionAS923.c ****             break;
 423:../../../../../../Middlewares/Third_Party/LoRaWAN/Mac/region/RegionAS923.c ****         }
 424:../../../../../../Middlewares/Third_Party/LoRaWAN/Mac/region/RegionAS923.c ****         default:
 425:../../../../../../Middlewares/Third_Party/LoRaWAN/Mac/region/RegionAS923.c ****         {
 426:../../../../../../Middlewares/Third_Party/LoRaWAN/Mac/region/RegionAS923.c ****             break;
 427:../../../../../../Middlewares/Third_Party/LoRaWAN/Mac/region/RegionAS923.c ****         }
 428:../../../../../../Middlewares/Third_Party/LoRaWAN/Mac/region/RegionAS923.c ****     }
 429:../../../../../../Middlewares/Third_Party/LoRaWAN/Mac/region/RegionAS923.c **** }
 480              		.loc 1 429 0
 481 0030 05B0     		add	sp, sp, #20
 482              		@ sp needed
ARM GAS  C:\Users\EBANO_~1\AppData\Local\Temp\cc2nkIni.s 			page 18


 483 0032 F0BD     		pop	{r4, r5, r6, r7, pc}
 484              	.LVL20:
 485              	.L55:
 398:../../../../../../Middlewares/Third_Party/LoRaWAN/Mac/region/RegionAS923.c **** 
 486              		.loc 1 398 0
 487 0034 124C     		ldr	r4, .L60+4
 488 0036 6946     		mov	r1, sp
 489 0038 2000     		movs	r0, r4
 490              	.LVL21:
 491 003a 1022     		movs	r2, #16
 492 003c FFF7FEFF 		bl	memcpy1
 493              	.LVL22:
 401:../../../../../../Middlewares/Third_Party/LoRaWAN/Mac/region/RegionAS923.c ****             NvmCtx.Channels[1] = ( ChannelParams_t ) AS923_LC2;
 494              		.loc 1 401 0
 495 0040 2200     		movs	r2, r4
 496 0042 104B     		ldr	r3, .L60+8
 497 0044 C03A     		subs	r2, r2, #192
 498 0046 1900     		movs	r1, r3
 499 0048 1000     		movs	r0, r2
 500 004a 1831     		adds	r1, r1, #24
 501 004c E0C9     		ldmia	r1!, {r5, r6, r7}
 502 004e E0C0     		stmia	r0!, {r5, r6, r7}
 402:../../../../../../Middlewares/Third_Party/LoRaWAN/Mac/region/RegionAS923.c **** 
 503              		.loc 1 402 0
 504 0050 2433     		adds	r3, r3, #36
 505 0052 62CB     		ldmia	r3!, {r1, r5, r6}
 506 0054 62C0     		stmia	r0!, {r1, r5, r6}
 405:../../../../../../Middlewares/Third_Party/LoRaWAN/Mac/region/RegionAS923.c ****             // Update the channels mask
 507              		.loc 1 405 0
 508 0056 D223     		movs	r3, #210
 509 0058 0321     		movs	r1, #3
 407:../../../../../../Middlewares/Third_Party/LoRaWAN/Mac/region/RegionAS923.c ****             break;
 510              		.loc 1 407 0
 511 005a 2000     		movs	r0, r4
 405:../../../../../../Middlewares/Third_Party/LoRaWAN/Mac/region/RegionAS923.c ****             // Update the channels mask
 512              		.loc 1 405 0
 513 005c D152     		strh	r1, [r2, r3]
 407:../../../../../../Middlewares/Third_Party/LoRaWAN/Mac/region/RegionAS923.c ****             break;
 514              		.loc 1 407 0
 515 005e 2100     		movs	r1, r4
 516 0060 1030     		adds	r0, r0, #16
 517 0062 1231     		adds	r1, r1, #18
 518 0064 0122     		movs	r2, #1
 519 0066 FFF7FEFF 		bl	RegionCommonChanMaskCopy
 520              	.LVL23:
 408:../../../../../../Middlewares/Third_Party/LoRaWAN/Mac/region/RegionAS923.c ****         }
 521              		.loc 1 408 0
 522 006a E1E7     		b	.L52
 523              	.LVL24:
 524              	.L54:
 421:../../../../../../Middlewares/Third_Party/LoRaWAN/Mac/region/RegionAS923.c ****             break;
 525              		.loc 1 421 0
 526 006c D021     		movs	r1, #208
 527 006e D220     		movs	r0, #210
 528              	.LVL25:
 529 0070 024B     		ldr	r3, .L60
 530 0072 5A5A     		ldrh	r2, [r3, r1]
ARM GAS  C:\Users\EBANO_~1\AppData\Local\Temp\cc2nkIni.s 			page 19


 531 0074 185A     		ldrh	r0, [r3, r0]
 532 0076 0243     		orrs	r2, r0
 533 0078 5A52     		strh	r2, [r3, r1]
 534              		.loc 1 429 0
 535 007a D9E7     		b	.L52
 536              	.L61:
 537              		.align	2
 538              	.L60:
 539 007c 00000000 		.word	NvmCtx
 540 0080 C0000000 		.word	NvmCtx+192
 541 0084 1C010000 		.word	.LANCHOR0
 542              		.cfi_endproc
 543              	.LFE46:
 544              		.size	RegionAS923InitDefaults, .-RegionAS923InitDefaults
 545              		.section	.text.RegionAS923GetNvmCtx,"ax",%progbits
 546              		.align	1
 547              		.p2align 2,,3
 548              		.global	RegionAS923GetNvmCtx
 549              		.syntax unified
 550              		.code	16
 551              		.thumb_func
 552              		.fpu softvfp
 553              		.type	RegionAS923GetNvmCtx, %function
 554              	RegionAS923GetNvmCtx:
 555              	.LFB47:
 430:../../../../../../Middlewares/Third_Party/LoRaWAN/Mac/region/RegionAS923.c **** 
 431:../../../../../../Middlewares/Third_Party/LoRaWAN/Mac/region/RegionAS923.c **** void* RegionAS923GetNvmCtx( GetNvmCtxParams_t* params )
 432:../../../../../../Middlewares/Third_Party/LoRaWAN/Mac/region/RegionAS923.c **** {
 556              		.loc 1 432 0
 557              		.cfi_startproc
 558              		@ args = 0, pretend = 0, frame = 0
 559              		@ frame_needed = 0, uses_anonymous_args = 0
 560              		@ link register save eliminated.
 561              	.LVL26:
 433:../../../../../../Middlewares/Third_Party/LoRaWAN/Mac/region/RegionAS923.c ****     params->nvmCtxSize = sizeof( RegionAS923NvmCtx_t );
 562              		.loc 1 433 0
 563 0000 D423     		movs	r3, #212
 434:../../../../../../Middlewares/Third_Party/LoRaWAN/Mac/region/RegionAS923.c ****     return &NvmCtx;
 435:../../../../../../Middlewares/Third_Party/LoRaWAN/Mac/region/RegionAS923.c **** }
 564              		.loc 1 435 0
 565              		@ sp needed
 433:../../../../../../Middlewares/Third_Party/LoRaWAN/Mac/region/RegionAS923.c ****     params->nvmCtxSize = sizeof( RegionAS923NvmCtx_t );
 566              		.loc 1 433 0
 567 0002 0360     		str	r3, [r0]
 568              		.loc 1 435 0
 569 0004 0048     		ldr	r0, .L63
 570              	.LVL27:
 571 0006 7047     		bx	lr
 572              	.L64:
 573              		.align	2
 574              	.L63:
 575 0008 00000000 		.word	NvmCtx
 576              		.cfi_endproc
 577              	.LFE47:
 578              		.size	RegionAS923GetNvmCtx, .-RegionAS923GetNvmCtx
 579              		.section	.text.RegionAS923Verify,"ax",%progbits
 580              		.align	1
ARM GAS  C:\Users\EBANO_~1\AppData\Local\Temp\cc2nkIni.s 			page 20


 581              		.p2align 2,,3
 582              		.global	RegionAS923Verify
 583              		.syntax unified
 584              		.code	16
 585              		.thumb_func
 586              		.fpu softvfp
 587              		.type	RegionAS923Verify, %function
 588              	RegionAS923Verify:
 589              	.LFB48:
 436:../../../../../../Middlewares/Third_Party/LoRaWAN/Mac/region/RegionAS923.c **** 
 437:../../../../../../Middlewares/Third_Party/LoRaWAN/Mac/region/RegionAS923.c **** bool RegionAS923Verify( VerifyParams_t* verify, PhyAttribute_t phyAttribute )
 438:../../../../../../Middlewares/Third_Party/LoRaWAN/Mac/region/RegionAS923.c **** {
 590              		.loc 1 438 0
 591              		.cfi_startproc
 592              		@ args = 0, pretend = 0, frame = 0
 593              		@ frame_needed = 0, uses_anonymous_args = 0
 594              	.LVL28:
 439:../../../../../../Middlewares/Third_Party/LoRaWAN/Mac/region/RegionAS923.c ****     switch( phyAttribute )
 595              		.loc 1 439 0
 596 0000 0439     		subs	r1, r1, #4
 597              	.LVL29:
 598 0002 C9B2     		uxtb	r1, r1
 438:../../../../../../Middlewares/Third_Party/LoRaWAN/Mac/region/RegionAS923.c ****     switch( phyAttribute )
 599              		.loc 1 438 0
 600 0004 10B5     		push	{r4, lr}
 601              	.LCFI5:
 602              		.cfi_def_cfa_offset 8
 603              		.cfi_offset 4, -8
 604              		.cfi_offset 14, -4
 605              		.loc 1 439 0
 606 0006 0529     		cmp	r1, #5
 607 0008 33D8     		bhi	.L74
 608 000a 1B4B     		ldr	r3, .L76
 609 000c 8900     		lsls	r1, r1, #2
 610 000e 5B58     		ldr	r3, [r3, r1]
 611 0010 9F46     		mov	pc, r3
 612              		.section	.rodata
 613              		.align	2
 614              	.L68:
 615 00d4 56000000 		.word	.L67
 616 00d8 42000000 		.word	.L69
 617 00dc 26000000 		.word	.L70
 618 00e0 72000000 		.word	.L74
 619 00e4 12000000 		.word	.L71
 620 00e8 12000000 		.word	.L71
 621              		.section	.text.RegionAS923Verify
 622              	.L71:
 440:../../../../../../Middlewares/Third_Party/LoRaWAN/Mac/region/RegionAS923.c ****     {
 441:../../../../../../Middlewares/Third_Party/LoRaWAN/Mac/region/RegionAS923.c ****         case PHY_TX_DR:
 442:../../../../../../Middlewares/Third_Party/LoRaWAN/Mac/region/RegionAS923.c ****         {
 443:../../../../../../Middlewares/Third_Party/LoRaWAN/Mac/region/RegionAS923.c ****             if( verify->DatarateParams.UplinkDwellTime == 0 )
 444:../../../../../../Middlewares/Third_Party/LoRaWAN/Mac/region/RegionAS923.c ****             {
 445:../../../../../../Middlewares/Third_Party/LoRaWAN/Mac/region/RegionAS923.c ****                 return RegionCommonValueInRange( verify->DatarateParams.Datarate, AS923_TX_MIN_DATA
 446:../../../../../../Middlewares/Third_Party/LoRaWAN/Mac/region/RegionAS923.c ****             }
 447:../../../../../../Middlewares/Third_Party/LoRaWAN/Mac/region/RegionAS923.c ****             else
 448:../../../../../../Middlewares/Third_Party/LoRaWAN/Mac/region/RegionAS923.c ****             {
 449:../../../../../../Middlewares/Third_Party/LoRaWAN/Mac/region/RegionAS923.c ****                 return RegionCommonValueInRange( verify->DatarateParams.Datarate, AS923_DWELL_LIMIT
ARM GAS  C:\Users\EBANO_~1\AppData\Local\Temp\cc2nkIni.s 			page 21


 450:../../../../../../Middlewares/Third_Party/LoRaWAN/Mac/region/RegionAS923.c ****             }
 451:../../../../../../Middlewares/Third_Party/LoRaWAN/Mac/region/RegionAS923.c ****         }
 452:../../../../../../Middlewares/Third_Party/LoRaWAN/Mac/region/RegionAS923.c ****         case PHY_DEF_TX_DR:
 453:../../../../../../Middlewares/Third_Party/LoRaWAN/Mac/region/RegionAS923.c ****         {
 454:../../../../../../Middlewares/Third_Party/LoRaWAN/Mac/region/RegionAS923.c ****             return RegionCommonValueInRange( verify->DatarateParams.Datarate, DR_0, DR_5 );
 455:../../../../../../Middlewares/Third_Party/LoRaWAN/Mac/region/RegionAS923.c ****         }
 456:../../../../../../Middlewares/Third_Party/LoRaWAN/Mac/region/RegionAS923.c ****         case PHY_RX_DR:
 457:../../../../../../Middlewares/Third_Party/LoRaWAN/Mac/region/RegionAS923.c ****         {
 458:../../../../../../Middlewares/Third_Party/LoRaWAN/Mac/region/RegionAS923.c ****             if( verify->DatarateParams.DownlinkDwellTime == 0 )
 459:../../../../../../Middlewares/Third_Party/LoRaWAN/Mac/region/RegionAS923.c ****             {
 460:../../../../../../Middlewares/Third_Party/LoRaWAN/Mac/region/RegionAS923.c ****                 return RegionCommonValueInRange( verify->DatarateParams.Datarate, AS923_RX_MIN_DATA
 461:../../../../../../Middlewares/Third_Party/LoRaWAN/Mac/region/RegionAS923.c ****             }
 462:../../../../../../Middlewares/Third_Party/LoRaWAN/Mac/region/RegionAS923.c ****             else
 463:../../../../../../Middlewares/Third_Party/LoRaWAN/Mac/region/RegionAS923.c ****             {
 464:../../../../../../Middlewares/Third_Party/LoRaWAN/Mac/region/RegionAS923.c ****                 return RegionCommonValueInRange( verify->DatarateParams.Datarate, AS923_DWELL_LIMIT
 465:../../../../../../Middlewares/Third_Party/LoRaWAN/Mac/region/RegionAS923.c ****             }
 466:../../../../../../Middlewares/Third_Party/LoRaWAN/Mac/region/RegionAS923.c ****         }
 467:../../../../../../Middlewares/Third_Party/LoRaWAN/Mac/region/RegionAS923.c ****         case PHY_DEF_TX_POWER:
 468:../../../../../../Middlewares/Third_Party/LoRaWAN/Mac/region/RegionAS923.c ****         case PHY_TX_POWER:
 469:../../../../../../Middlewares/Third_Party/LoRaWAN/Mac/region/RegionAS923.c ****         {
 470:../../../../../../Middlewares/Third_Party/LoRaWAN/Mac/region/RegionAS923.c ****             // Remark: switched min and max!
 471:../../../../../../Middlewares/Third_Party/LoRaWAN/Mac/region/RegionAS923.c ****             return RegionCommonValueInRange( verify->TxPower, AS923_MAX_TX_POWER, AS923_MIN_TX_POWE
 623              		.loc 1 471 0
 624 0012 0078     		ldrb	r0, [r0]
 625              	.LVL30:
 626 0014 0722     		movs	r2, #7
 627 0016 40B2     		sxtb	r0, r0
 628 0018 0021     		movs	r1, #0
 629 001a FFF7FEFF 		bl	RegionCommonValueInRange
 630              	.LVL31:
 631 001e 431E     		subs	r3, r0, #1
 632 0020 9841     		sbcs	r0, r0, r3
 633 0022 C0B2     		uxtb	r0, r0
 634              	.L66:
 472:../../../../../../Middlewares/Third_Party/LoRaWAN/Mac/region/RegionAS923.c ****         }
 473:../../../../../../Middlewares/Third_Party/LoRaWAN/Mac/region/RegionAS923.c ****         case PHY_DUTY_CYCLE:
 474:../../../../../../Middlewares/Third_Party/LoRaWAN/Mac/region/RegionAS923.c ****         {
 475:../../../../../../Middlewares/Third_Party/LoRaWAN/Mac/region/RegionAS923.c ****             return AS923_DUTY_CYCLE_ENABLED;
 476:../../../../../../Middlewares/Third_Party/LoRaWAN/Mac/region/RegionAS923.c ****         }
 477:../../../../../../Middlewares/Third_Party/LoRaWAN/Mac/region/RegionAS923.c ****         default:
 478:../../../../../../Middlewares/Third_Party/LoRaWAN/Mac/region/RegionAS923.c ****             return false;
 479:../../../../../../Middlewares/Third_Party/LoRaWAN/Mac/region/RegionAS923.c ****     }
 480:../../../../../../Middlewares/Third_Party/LoRaWAN/Mac/region/RegionAS923.c **** }
 635              		.loc 1 480 0
 636              		@ sp needed
 637 0024 10BD     		pop	{r4, pc}
 638              	.LVL32:
 639              	.L70:
 640 0026 0023     		movs	r3, #0
 458:../../../../../../Middlewares/Third_Party/LoRaWAN/Mac/region/RegionAS923.c ****             {
 641              		.loc 1 458 0
 642 0028 4278     		ldrb	r2, [r0, #1]
 643 002a C356     		ldrsb	r3, [r0, r3]
 644 002c 002A     		cmp	r2, #0
 645 002e 17D1     		bne	.L73
 646              	.L75:
 460:../../../../../../Middlewares/Third_Party/LoRaWAN/Mac/region/RegionAS923.c ****             }
ARM GAS  C:\Users\EBANO_~1\AppData\Local\Temp\cc2nkIni.s 			page 22


 647              		.loc 1 460 0
 648 0030 1800     		movs	r0, r3
 649              	.LVL33:
 650 0032 0732     		adds	r2, r2, #7
 651 0034 0021     		movs	r1, #0
 652 0036 FFF7FEFF 		bl	RegionCommonValueInRange
 653              	.LVL34:
 654 003a 431E     		subs	r3, r0, #1
 655 003c 9841     		sbcs	r0, r0, r3
 656 003e C0B2     		uxtb	r0, r0
 657 0040 F0E7     		b	.L66
 658              	.LVL35:
 659              	.L69:
 454:../../../../../../Middlewares/Third_Party/LoRaWAN/Mac/region/RegionAS923.c ****         }
 660              		.loc 1 454 0
 661 0042 0078     		ldrb	r0, [r0]
 662              	.LVL36:
 663 0044 0522     		movs	r2, #5
 664 0046 40B2     		sxtb	r0, r0
 665 0048 0021     		movs	r1, #0
 666 004a FFF7FEFF 		bl	RegionCommonValueInRange
 667              	.LVL37:
 668 004e 431E     		subs	r3, r0, #1
 669 0050 9841     		sbcs	r0, r0, r3
 670 0052 C0B2     		uxtb	r0, r0
 671 0054 E6E7     		b	.L66
 672              	.LVL38:
 673              	.L67:
 674 0056 0023     		movs	r3, #0
 443:../../../../../../Middlewares/Third_Party/LoRaWAN/Mac/region/RegionAS923.c ****             {
 675              		.loc 1 443 0
 676 0058 8278     		ldrb	r2, [r0, #2]
 677 005a C356     		ldrsb	r3, [r0, r3]
 678 005c 002A     		cmp	r2, #0
 679 005e E7D0     		beq	.L75
 680              	.L73:
 464:../../../../../../Middlewares/Third_Party/LoRaWAN/Mac/region/RegionAS923.c ****             }
 681              		.loc 1 464 0
 682 0060 1800     		movs	r0, r3
 683              	.LVL39:
 684 0062 0722     		movs	r2, #7
 685 0064 0221     		movs	r1, #2
 686 0066 FFF7FEFF 		bl	RegionCommonValueInRange
 687              	.LVL40:
 688 006a 431E     		subs	r3, r0, #1
 689 006c 9841     		sbcs	r0, r0, r3
 690 006e C0B2     		uxtb	r0, r0
 691 0070 D8E7     		b	.L66
 692              	.LVL41:
 693              	.L74:
 475:../../../../../../Middlewares/Third_Party/LoRaWAN/Mac/region/RegionAS923.c ****         }
 694              		.loc 1 475 0
 695 0072 0020     		movs	r0, #0
 696              	.LVL42:
 697 0074 D6E7     		b	.L66
 698              	.L77:
 699 0076 C046     		.align	2
ARM GAS  C:\Users\EBANO_~1\AppData\Local\Temp\cc2nkIni.s 			page 23


 700              	.L76:
 701 0078 D4000000 		.word	.L68
 702              		.cfi_endproc
 703              	.LFE48:
 704              		.size	RegionAS923Verify, .-RegionAS923Verify
 705              		.section	.text.RegionAS923ApplyCFList,"ax",%progbits
 706              		.align	1
 707              		.p2align 2,,3
 708              		.global	RegionAS923ApplyCFList
 709              		.syntax unified
 710              		.code	16
 711              		.thumb_func
 712              		.fpu softvfp
 713              		.type	RegionAS923ApplyCFList, %function
 714              	RegionAS923ApplyCFList:
 715              	.LFB49:
 481:../../../../../../Middlewares/Third_Party/LoRaWAN/Mac/region/RegionAS923.c **** 
 482:../../../../../../Middlewares/Third_Party/LoRaWAN/Mac/region/RegionAS923.c **** void RegionAS923ApplyCFList( ApplyCFListParams_t* applyCFList )
 483:../../../../../../Middlewares/Third_Party/LoRaWAN/Mac/region/RegionAS923.c **** {
 716              		.loc 1 483 0
 717              		.cfi_startproc
 718              		@ args = 0, pretend = 0, frame = 24
 719              		@ frame_needed = 0, uses_anonymous_args = 0
 720              	.LVL43:
 721 0000 F0B5     		push	{r4, r5, r6, r7, lr}
 722              	.LCFI6:
 723              		.cfi_def_cfa_offset 20
 724              		.cfi_offset 4, -20
 725              		.cfi_offset 5, -16
 726              		.cfi_offset 6, -12
 727              		.cfi_offset 7, -8
 728              		.cfi_offset 14, -4
 729 0002 5746     		mov	r7, r10
 730 0004 4546     		mov	r5, r8
 731 0006 DE46     		mov	lr, fp
 732 0008 4E46     		mov	r6, r9
 484:../../../../../../Middlewares/Third_Party/LoRaWAN/Mac/region/RegionAS923.c ****     ChannelParams_t newChannel;
 485:../../../../../../Middlewares/Third_Party/LoRaWAN/Mac/region/RegionAS923.c ****     ChannelAddParams_t channelAdd;
 486:../../../../../../Middlewares/Third_Party/LoRaWAN/Mac/region/RegionAS923.c ****     ChannelRemoveParams_t channelRemove;
 487:../../../../../../Middlewares/Third_Party/LoRaWAN/Mac/region/RegionAS923.c **** 
 488:../../../../../../Middlewares/Third_Party/LoRaWAN/Mac/region/RegionAS923.c ****     // Setup default datarate range
 489:../../../../../../Middlewares/Third_Party/LoRaWAN/Mac/region/RegionAS923.c ****     newChannel.DrRange.Value = ( DR_5 << 4 ) | DR_0;
 733              		.loc 1 489 0
 734 000a 5023     		movs	r3, #80
 483:../../../../../../Middlewares/Third_Party/LoRaWAN/Mac/region/RegionAS923.c ****     ChannelParams_t newChannel;
 735              		.loc 1 483 0
 736 000c E0B5     		push	{r5, r6, r7, lr}
 737              	.LCFI7:
 738              		.cfi_def_cfa_offset 36
 739              		.cfi_offset 8, -36
 740              		.cfi_offset 9, -32
 741              		.cfi_offset 10, -28
 742              		.cfi_offset 11, -24
 743 000e 87B0     		sub	sp, sp, #28
 744              	.LCFI8:
 745              		.cfi_def_cfa_offset 64
 746              		.loc 1 489 0
ARM GAS  C:\Users\EBANO_~1\AppData\Local\Temp\cc2nkIni.s 			page 24


 747 0010 03AD     		add	r5, sp, #12
 748 0012 2B72     		strb	r3, [r5, #8]
 490:../../../../../../Middlewares/Third_Party/LoRaWAN/Mac/region/RegionAS923.c **** 
 491:../../../../../../Middlewares/Third_Party/LoRaWAN/Mac/region/RegionAS923.c ****     // Size of the optional CF list
 492:../../../../../../Middlewares/Third_Party/LoRaWAN/Mac/region/RegionAS923.c ****     if( applyCFList->Size != 16 )
 749              		.loc 1 492 0
 750 0014 0379     		ldrb	r3, [r0, #4]
 483:../../../../../../Middlewares/Third_Party/LoRaWAN/Mac/region/RegionAS923.c ****     ChannelParams_t newChannel;
 751              		.loc 1 483 0
 752 0016 0700     		movs	r7, r0
 753              		.loc 1 492 0
 754 0018 102B     		cmp	r3, #16
 755 001a 06D0     		beq	.L95
 756              	.LVL44:
 757              	.L78:
 493:../../../../../../Middlewares/Third_Party/LoRaWAN/Mac/region/RegionAS923.c ****     {
 494:../../../../../../Middlewares/Third_Party/LoRaWAN/Mac/region/RegionAS923.c ****         return;
 495:../../../../../../Middlewares/Third_Party/LoRaWAN/Mac/region/RegionAS923.c ****     }
 496:../../../../../../Middlewares/Third_Party/LoRaWAN/Mac/region/RegionAS923.c **** 
 497:../../../../../../Middlewares/Third_Party/LoRaWAN/Mac/region/RegionAS923.c ****     // Last byte CFListType must be 0 to indicate the CFList contains a list of frequencies
 498:../../../../../../Middlewares/Third_Party/LoRaWAN/Mac/region/RegionAS923.c ****     if( applyCFList->Payload[15] != 0 )
 499:../../../../../../Middlewares/Third_Party/LoRaWAN/Mac/region/RegionAS923.c ****     {
 500:../../../../../../Middlewares/Third_Party/LoRaWAN/Mac/region/RegionAS923.c ****         return;
 501:../../../../../../Middlewares/Third_Party/LoRaWAN/Mac/region/RegionAS923.c ****     }
 502:../../../../../../Middlewares/Third_Party/LoRaWAN/Mac/region/RegionAS923.c **** 
 503:../../../../../../Middlewares/Third_Party/LoRaWAN/Mac/region/RegionAS923.c ****     // Last byte is RFU, don't take it into account
 504:../../../../../../Middlewares/Third_Party/LoRaWAN/Mac/region/RegionAS923.c ****     for( uint8_t i = 0, chanIdx = AS923_NUMB_DEFAULT_CHANNELS; chanIdx < AS923_MAX_NB_CHANNELS; i+=
 505:../../../../../../Middlewares/Third_Party/LoRaWAN/Mac/region/RegionAS923.c ****     {
 506:../../../../../../Middlewares/Third_Party/LoRaWAN/Mac/region/RegionAS923.c ****         if( chanIdx < ( AS923_NUMB_CHANNELS_CF_LIST + AS923_NUMB_DEFAULT_CHANNELS ) )
 507:../../../../../../Middlewares/Third_Party/LoRaWAN/Mac/region/RegionAS923.c ****         {
 508:../../../../../../Middlewares/Third_Party/LoRaWAN/Mac/region/RegionAS923.c ****             // Channel frequency
 509:../../../../../../Middlewares/Third_Party/LoRaWAN/Mac/region/RegionAS923.c ****             newChannel.Frequency = (uint32_t) applyCFList->Payload[i];
 510:../../../../../../Middlewares/Third_Party/LoRaWAN/Mac/region/RegionAS923.c ****             newChannel.Frequency |= ( (uint32_t) applyCFList->Payload[i + 1] << 8 );
 511:../../../../../../Middlewares/Third_Party/LoRaWAN/Mac/region/RegionAS923.c ****             newChannel.Frequency |= ( (uint32_t) applyCFList->Payload[i + 2] << 16 );
 512:../../../../../../Middlewares/Third_Party/LoRaWAN/Mac/region/RegionAS923.c ****             newChannel.Frequency *= 100;
 513:../../../../../../Middlewares/Third_Party/LoRaWAN/Mac/region/RegionAS923.c **** 
 514:../../../../../../Middlewares/Third_Party/LoRaWAN/Mac/region/RegionAS923.c ****             // Initialize alternative frequency to 0
 515:../../../../../../Middlewares/Third_Party/LoRaWAN/Mac/region/RegionAS923.c ****             newChannel.Rx1Frequency = 0;
 516:../../../../../../Middlewares/Third_Party/LoRaWAN/Mac/region/RegionAS923.c ****         }
 517:../../../../../../Middlewares/Third_Party/LoRaWAN/Mac/region/RegionAS923.c ****         else
 518:../../../../../../Middlewares/Third_Party/LoRaWAN/Mac/region/RegionAS923.c ****         {
 519:../../../../../../Middlewares/Third_Party/LoRaWAN/Mac/region/RegionAS923.c ****             newChannel.Frequency = 0;
 520:../../../../../../Middlewares/Third_Party/LoRaWAN/Mac/region/RegionAS923.c ****             newChannel.DrRange.Value = 0;
 521:../../../../../../Middlewares/Third_Party/LoRaWAN/Mac/region/RegionAS923.c ****             newChannel.Rx1Frequency = 0;
 522:../../../../../../Middlewares/Third_Party/LoRaWAN/Mac/region/RegionAS923.c ****         }
 523:../../../../../../Middlewares/Third_Party/LoRaWAN/Mac/region/RegionAS923.c **** 
 524:../../../../../../Middlewares/Third_Party/LoRaWAN/Mac/region/RegionAS923.c ****         if( newChannel.Frequency != 0 )
 525:../../../../../../Middlewares/Third_Party/LoRaWAN/Mac/region/RegionAS923.c ****         {
 526:../../../../../../Middlewares/Third_Party/LoRaWAN/Mac/region/RegionAS923.c ****             channelAdd.NewChannel = &newChannel;
 527:../../../../../../Middlewares/Third_Party/LoRaWAN/Mac/region/RegionAS923.c ****             channelAdd.ChannelId = chanIdx;
 528:../../../../../../Middlewares/Third_Party/LoRaWAN/Mac/region/RegionAS923.c **** 
 529:../../../../../../Middlewares/Third_Party/LoRaWAN/Mac/region/RegionAS923.c ****             // Try to add all channels
 530:../../../../../../Middlewares/Third_Party/LoRaWAN/Mac/region/RegionAS923.c ****             RegionAS923ChannelAdd( &channelAdd );
 531:../../../../../../Middlewares/Third_Party/LoRaWAN/Mac/region/RegionAS923.c ****         }
 532:../../../../../../Middlewares/Third_Party/LoRaWAN/Mac/region/RegionAS923.c ****         else
 533:../../../../../../Middlewares/Third_Party/LoRaWAN/Mac/region/RegionAS923.c ****         {
 534:../../../../../../Middlewares/Third_Party/LoRaWAN/Mac/region/RegionAS923.c ****             channelRemove.ChannelId = chanIdx;
ARM GAS  C:\Users\EBANO_~1\AppData\Local\Temp\cc2nkIni.s 			page 25


 535:../../../../../../Middlewares/Third_Party/LoRaWAN/Mac/region/RegionAS923.c **** 
 536:../../../../../../Middlewares/Third_Party/LoRaWAN/Mac/region/RegionAS923.c ****             RegionAS923ChannelsRemove( &channelRemove );
 537:../../../../../../Middlewares/Third_Party/LoRaWAN/Mac/region/RegionAS923.c ****         }
 538:../../../../../../Middlewares/Third_Party/LoRaWAN/Mac/region/RegionAS923.c ****     }
 539:../../../../../../Middlewares/Third_Party/LoRaWAN/Mac/region/RegionAS923.c **** }
 758              		.loc 1 539 0
 759 001c 07B0     		add	sp, sp, #28
 760              		@ sp needed
 761              	.LVL45:
 762 001e 3CBC     		pop	{r2, r3, r4, r5}
 763 0020 9046     		mov	r8, r2
 764 0022 9946     		mov	r9, r3
 765 0024 A246     		mov	r10, r4
 766 0026 AB46     		mov	fp, r5
 767 0028 F0BD     		pop	{r4, r5, r6, r7, pc}
 768              	.LVL46:
 769              	.L95:
 498:../../../../../../Middlewares/Third_Party/LoRaWAN/Mac/region/RegionAS923.c ****     {
 770              		.loc 1 498 0
 771 002a 0368     		ldr	r3, [r0]
 772 002c DB7B     		ldrb	r3, [r3, #15]
 773 002e 002B     		cmp	r3, #0
 774 0030 F4D1     		bne	.L78
 775              	.LBB35:
 776              	.LBB36:
 777              	.LBB37:
 540:../../../../../../Middlewares/Third_Party/LoRaWAN/Mac/region/RegionAS923.c **** 
 541:../../../../../../Middlewares/Third_Party/LoRaWAN/Mac/region/RegionAS923.c **** bool RegionAS923ChanMaskSet( ChanMaskSetParams_t* chanMaskSet )
 542:../../../../../../Middlewares/Third_Party/LoRaWAN/Mac/region/RegionAS923.c **** {
 543:../../../../../../Middlewares/Third_Party/LoRaWAN/Mac/region/RegionAS923.c ****     switch( chanMaskSet->ChannelsMaskType )
 544:../../../../../../Middlewares/Third_Party/LoRaWAN/Mac/region/RegionAS923.c ****     {
 545:../../../../../../Middlewares/Third_Party/LoRaWAN/Mac/region/RegionAS923.c ****         case CHANNELS_MASK:
 546:../../../../../../Middlewares/Third_Party/LoRaWAN/Mac/region/RegionAS923.c ****         {
 547:../../../../../../Middlewares/Third_Party/LoRaWAN/Mac/region/RegionAS923.c ****             RegionCommonChanMaskCopy( NvmCtx.ChannelsMask, chanMaskSet->ChannelsMaskIn, 1 );
 548:../../../../../../Middlewares/Third_Party/LoRaWAN/Mac/region/RegionAS923.c ****             break;
 549:../../../../../../Middlewares/Third_Party/LoRaWAN/Mac/region/RegionAS923.c ****         }
 550:../../../../../../Middlewares/Third_Party/LoRaWAN/Mac/region/RegionAS923.c ****         case CHANNELS_DEFAULT_MASK:
 551:../../../../../../Middlewares/Third_Party/LoRaWAN/Mac/region/RegionAS923.c ****         {
 552:../../../../../../Middlewares/Third_Party/LoRaWAN/Mac/region/RegionAS923.c ****             RegionCommonChanMaskCopy( NvmCtx.ChannelsDefaultMask, chanMaskSet->ChannelsMaskIn, 1 );
 553:../../../../../../Middlewares/Third_Party/LoRaWAN/Mac/region/RegionAS923.c ****             break;
 554:../../../../../../Middlewares/Third_Party/LoRaWAN/Mac/region/RegionAS923.c ****         }
 555:../../../../../../Middlewares/Third_Party/LoRaWAN/Mac/region/RegionAS923.c ****         default:
 556:../../../../../../Middlewares/Third_Party/LoRaWAN/Mac/region/RegionAS923.c ****             return false;
 557:../../../../../../Middlewares/Third_Party/LoRaWAN/Mac/region/RegionAS923.c ****     }
 558:../../../../../../Middlewares/Third_Party/LoRaWAN/Mac/region/RegionAS923.c ****     return true;
 559:../../../../../../Middlewares/Third_Party/LoRaWAN/Mac/region/RegionAS923.c **** }
 560:../../../../../../Middlewares/Third_Party/LoRaWAN/Mac/region/RegionAS923.c **** 
 561:../../../../../../Middlewares/Third_Party/LoRaWAN/Mac/region/RegionAS923.c **** void RegionAS923ComputeRxWindowParameters( int8_t datarate, uint8_t minRxSymbols, uint32_t rxError,
 562:../../../../../../Middlewares/Third_Party/LoRaWAN/Mac/region/RegionAS923.c **** {
 563:../../../../../../Middlewares/Third_Party/LoRaWAN/Mac/region/RegionAS923.c ****     double tSymbol = 0.0;
 564:../../../../../../Middlewares/Third_Party/LoRaWAN/Mac/region/RegionAS923.c **** 
 565:../../../../../../Middlewares/Third_Party/LoRaWAN/Mac/region/RegionAS923.c ****     // Get the datarate, perform a boundary check
 566:../../../../../../Middlewares/Third_Party/LoRaWAN/Mac/region/RegionAS923.c ****     rxConfigParams->Datarate = MIN( datarate, AS923_RX_MAX_DATARATE );
 567:../../../../../../Middlewares/Third_Party/LoRaWAN/Mac/region/RegionAS923.c ****     rxConfigParams->Bandwidth = GetBandwidth( rxConfigParams->Datarate );
 568:../../../../../../Middlewares/Third_Party/LoRaWAN/Mac/region/RegionAS923.c **** 
 569:../../../../../../Middlewares/Third_Party/LoRaWAN/Mac/region/RegionAS923.c ****     if( rxConfigParams->Datarate == DR_7 )
 570:../../../../../../Middlewares/Third_Party/LoRaWAN/Mac/region/RegionAS923.c ****     { // FSK
ARM GAS  C:\Users\EBANO_~1\AppData\Local\Temp\cc2nkIni.s 			page 26


 571:../../../../../../Middlewares/Third_Party/LoRaWAN/Mac/region/RegionAS923.c ****         tSymbol = RegionCommonComputeSymbolTimeFsk( DataratesAS923[rxConfigParams->Datarate] );
 572:../../../../../../Middlewares/Third_Party/LoRaWAN/Mac/region/RegionAS923.c ****     }
 573:../../../../../../Middlewares/Third_Party/LoRaWAN/Mac/region/RegionAS923.c ****     else
 574:../../../../../../Middlewares/Third_Party/LoRaWAN/Mac/region/RegionAS923.c ****     { // LoRa
 575:../../../../../../Middlewares/Third_Party/LoRaWAN/Mac/region/RegionAS923.c ****         tSymbol = RegionCommonComputeSymbolTimeLoRa( DataratesAS923[rxConfigParams->Datarate], Band
 576:../../../../../../Middlewares/Third_Party/LoRaWAN/Mac/region/RegionAS923.c ****     }
 577:../../../../../../Middlewares/Third_Party/LoRaWAN/Mac/region/RegionAS923.c **** 
 578:../../../../../../Middlewares/Third_Party/LoRaWAN/Mac/region/RegionAS923.c ****     RegionCommonComputeRxWindowParameters( tSymbol, minRxSymbols, rxError, Radio.GetWakeupTime( ), 
 579:../../../../../../Middlewares/Third_Party/LoRaWAN/Mac/region/RegionAS923.c **** }
 580:../../../../../../Middlewares/Third_Party/LoRaWAN/Mac/region/RegionAS923.c **** 
 581:../../../../../../Middlewares/Third_Party/LoRaWAN/Mac/region/RegionAS923.c **** bool RegionAS923RxConfig( RxConfigParams_t* rxConfig, int8_t* datarate )
 582:../../../../../../Middlewares/Third_Party/LoRaWAN/Mac/region/RegionAS923.c **** {
 583:../../../../../../Middlewares/Third_Party/LoRaWAN/Mac/region/RegionAS923.c ****     RadioModems_t modem;
 584:../../../../../../Middlewares/Third_Party/LoRaWAN/Mac/region/RegionAS923.c ****     int8_t dr = rxConfig->Datarate;
 585:../../../../../../Middlewares/Third_Party/LoRaWAN/Mac/region/RegionAS923.c ****     uint8_t maxPayload = 0;
 586:../../../../../../Middlewares/Third_Party/LoRaWAN/Mac/region/RegionAS923.c ****     int8_t phyDr = 0;
 587:../../../../../../Middlewares/Third_Party/LoRaWAN/Mac/region/RegionAS923.c ****     uint32_t frequency = rxConfig->Frequency;
 588:../../../../../../Middlewares/Third_Party/LoRaWAN/Mac/region/RegionAS923.c **** 
 589:../../../../../../Middlewares/Third_Party/LoRaWAN/Mac/region/RegionAS923.c ****     if( Radio.GetStatus( ) != RF_IDLE )
 590:../../../../../../Middlewares/Third_Party/LoRaWAN/Mac/region/RegionAS923.c ****     {
 591:../../../../../../Middlewares/Third_Party/LoRaWAN/Mac/region/RegionAS923.c ****         return false;
 592:../../../../../../Middlewares/Third_Party/LoRaWAN/Mac/region/RegionAS923.c ****     }
 593:../../../../../../Middlewares/Third_Party/LoRaWAN/Mac/region/RegionAS923.c **** 
 594:../../../../../../Middlewares/Third_Party/LoRaWAN/Mac/region/RegionAS923.c ****     if( rxConfig->RxSlot == RX_SLOT_WIN_1 )
 595:../../../../../../Middlewares/Third_Party/LoRaWAN/Mac/region/RegionAS923.c ****     {
 596:../../../../../../Middlewares/Third_Party/LoRaWAN/Mac/region/RegionAS923.c ****         // Apply window 1 frequency
 597:../../../../../../Middlewares/Third_Party/LoRaWAN/Mac/region/RegionAS923.c ****         frequency = NvmCtx.Channels[rxConfig->Channel].Frequency;
 598:../../../../../../Middlewares/Third_Party/LoRaWAN/Mac/region/RegionAS923.c ****         // Apply the alternative RX 1 window frequency, if it is available
 599:../../../../../../Middlewares/Third_Party/LoRaWAN/Mac/region/RegionAS923.c ****         if( NvmCtx.Channels[rxConfig->Channel].Rx1Frequency != 0 )
 600:../../../../../../Middlewares/Third_Party/LoRaWAN/Mac/region/RegionAS923.c ****         {
 601:../../../../../../Middlewares/Third_Party/LoRaWAN/Mac/region/RegionAS923.c ****             frequency = NvmCtx.Channels[rxConfig->Channel].Rx1Frequency;
 602:../../../../../../Middlewares/Third_Party/LoRaWAN/Mac/region/RegionAS923.c ****         }
 603:../../../../../../Middlewares/Third_Party/LoRaWAN/Mac/region/RegionAS923.c ****     }
 604:../../../../../../Middlewares/Third_Party/LoRaWAN/Mac/region/RegionAS923.c **** 
 605:../../../../../../Middlewares/Third_Party/LoRaWAN/Mac/region/RegionAS923.c ****     // Read the physical datarate from the datarates table
 606:../../../../../../Middlewares/Third_Party/LoRaWAN/Mac/region/RegionAS923.c ****     phyDr = DataratesAS923[dr];
 607:../../../../../../Middlewares/Third_Party/LoRaWAN/Mac/region/RegionAS923.c **** 
 608:../../../../../../Middlewares/Third_Party/LoRaWAN/Mac/region/RegionAS923.c ****     Radio.SetChannel( frequency );
 609:../../../../../../Middlewares/Third_Party/LoRaWAN/Mac/region/RegionAS923.c **** 
 610:../../../../../../Middlewares/Third_Party/LoRaWAN/Mac/region/RegionAS923.c ****     // Radio configuration
 611:../../../../../../Middlewares/Third_Party/LoRaWAN/Mac/region/RegionAS923.c ****     if( dr == DR_7 )
 612:../../../../../../Middlewares/Third_Party/LoRaWAN/Mac/region/RegionAS923.c ****     {
 613:../../../../../../Middlewares/Third_Party/LoRaWAN/Mac/region/RegionAS923.c ****         modem = MODEM_FSK;
 614:../../../../../../Middlewares/Third_Party/LoRaWAN/Mac/region/RegionAS923.c ****         Radio.SetRxConfig( modem, 50000, phyDr * 1000, 0, 83333, 5, rxConfig->WindowTimeout, false,
 615:../../../../../../Middlewares/Third_Party/LoRaWAN/Mac/region/RegionAS923.c ****     }
 616:../../../../../../Middlewares/Third_Party/LoRaWAN/Mac/region/RegionAS923.c ****     else
 617:../../../../../../Middlewares/Third_Party/LoRaWAN/Mac/region/RegionAS923.c ****     {
 618:../../../../../../Middlewares/Third_Party/LoRaWAN/Mac/region/RegionAS923.c ****         modem = MODEM_LORA;
 619:../../../../../../Middlewares/Third_Party/LoRaWAN/Mac/region/RegionAS923.c ****         Radio.SetRxConfig( modem, rxConfig->Bandwidth, phyDr, 1, 0, 8, rxConfig->WindowTimeout, fal
 620:../../../../../../Middlewares/Third_Party/LoRaWAN/Mac/region/RegionAS923.c ****     }
 621:../../../../../../Middlewares/Third_Party/LoRaWAN/Mac/region/RegionAS923.c **** 
 622:../../../../../../Middlewares/Third_Party/LoRaWAN/Mac/region/RegionAS923.c ****     // Check for repeater support
 623:../../../../../../Middlewares/Third_Party/LoRaWAN/Mac/region/RegionAS923.c ****     if( rxConfig->RepeaterSupport == true )
 624:../../../../../../Middlewares/Third_Party/LoRaWAN/Mac/region/RegionAS923.c ****     {
 625:../../../../../../Middlewares/Third_Party/LoRaWAN/Mac/region/RegionAS923.c ****         maxPayload = MaxPayloadOfDatarateRepeaterDwell0AS923[dr];
 626:../../../../../../Middlewares/Third_Party/LoRaWAN/Mac/region/RegionAS923.c ****     }
 627:../../../../../../Middlewares/Third_Party/LoRaWAN/Mac/region/RegionAS923.c ****     else
ARM GAS  C:\Users\EBANO_~1\AppData\Local\Temp\cc2nkIni.s 			page 27


 628:../../../../../../Middlewares/Third_Party/LoRaWAN/Mac/region/RegionAS923.c ****     {
 629:../../../../../../Middlewares/Third_Party/LoRaWAN/Mac/region/RegionAS923.c ****         maxPayload = MaxPayloadOfDatarateDwell0AS923[dr];
 630:../../../../../../Middlewares/Third_Party/LoRaWAN/Mac/region/RegionAS923.c ****     }
 631:../../../../../../Middlewares/Third_Party/LoRaWAN/Mac/region/RegionAS923.c **** 
 632:../../../../../../Middlewares/Third_Party/LoRaWAN/Mac/region/RegionAS923.c ****     Radio.SetMaxPayloadLength( modem, maxPayload + LORA_MAC_FRMPAYLOAD_OVERHEAD );
 633:../../../../../../Middlewares/Third_Party/LoRaWAN/Mac/region/RegionAS923.c ****     TVL1( PRINTF( "RX on freq %d Hz at DR %d\n\r", frequency, dr );)
 634:../../../../../../Middlewares/Third_Party/LoRaWAN/Mac/region/RegionAS923.c **** 
 635:../../../../../../Middlewares/Third_Party/LoRaWAN/Mac/region/RegionAS923.c ****     *datarate = (uint8_t) dr;
 636:../../../../../../Middlewares/Third_Party/LoRaWAN/Mac/region/RegionAS923.c ****     return true;
 637:../../../../../../Middlewares/Third_Party/LoRaWAN/Mac/region/RegionAS923.c **** }
 638:../../../../../../Middlewares/Third_Party/LoRaWAN/Mac/region/RegionAS923.c **** 
 639:../../../../../../Middlewares/Third_Party/LoRaWAN/Mac/region/RegionAS923.c **** bool RegionAS923TxConfig( TxConfigParams_t* txConfig, int8_t* txPower, TimerTime_t* txTimeOnAir )
 640:../../../../../../Middlewares/Third_Party/LoRaWAN/Mac/region/RegionAS923.c **** {
 641:../../../../../../Middlewares/Third_Party/LoRaWAN/Mac/region/RegionAS923.c ****     RadioModems_t modem;
 642:../../../../../../Middlewares/Third_Party/LoRaWAN/Mac/region/RegionAS923.c ****     int8_t phyDr = DataratesAS923[txConfig->Datarate];
 643:../../../../../../Middlewares/Third_Party/LoRaWAN/Mac/region/RegionAS923.c ****     int8_t txPowerLimited = LimitTxPower( txConfig->TxPower, NvmCtx.Bands[NvmCtx.Channels[txConfig-
 644:../../../../../../Middlewares/Third_Party/LoRaWAN/Mac/region/RegionAS923.c ****     uint32_t bandwidth = GetBandwidth( txConfig->Datarate );
 645:../../../../../../Middlewares/Third_Party/LoRaWAN/Mac/region/RegionAS923.c ****     int8_t phyTxPower = 0;
 646:../../../../../../Middlewares/Third_Party/LoRaWAN/Mac/region/RegionAS923.c **** 
 647:../../../../../../Middlewares/Third_Party/LoRaWAN/Mac/region/RegionAS923.c ****     // Calculate physical TX power
 648:../../../../../../Middlewares/Third_Party/LoRaWAN/Mac/region/RegionAS923.c ****     phyTxPower = RegionCommonComputeTxPower( txPowerLimited, txConfig->MaxEirp, txConfig->AntennaGa
 649:../../../../../../Middlewares/Third_Party/LoRaWAN/Mac/region/RegionAS923.c **** 
 650:../../../../../../Middlewares/Third_Party/LoRaWAN/Mac/region/RegionAS923.c ****     // Setup the radio frequency
 651:../../../../../../Middlewares/Third_Party/LoRaWAN/Mac/region/RegionAS923.c ****     Radio.SetChannel( NvmCtx.Channels[txConfig->Channel].Frequency );
 652:../../../../../../Middlewares/Third_Party/LoRaWAN/Mac/region/RegionAS923.c **** 
 653:../../../../../../Middlewares/Third_Party/LoRaWAN/Mac/region/RegionAS923.c ****     if( txConfig->Datarate == DR_7 )
 654:../../../../../../Middlewares/Third_Party/LoRaWAN/Mac/region/RegionAS923.c ****     { // High Speed FSK channel
 655:../../../../../../Middlewares/Third_Party/LoRaWAN/Mac/region/RegionAS923.c ****         modem = MODEM_FSK;
 656:../../../../../../Middlewares/Third_Party/LoRaWAN/Mac/region/RegionAS923.c ****         Radio.SetTxConfig( modem, phyTxPower, 25000, bandwidth, phyDr * 1000, 0, 5, false, true, 0,
 657:../../../../../../Middlewares/Third_Party/LoRaWAN/Mac/region/RegionAS923.c ****     }
 658:../../../../../../Middlewares/Third_Party/LoRaWAN/Mac/region/RegionAS923.c ****     else
 659:../../../../../../Middlewares/Third_Party/LoRaWAN/Mac/region/RegionAS923.c ****     {
 660:../../../../../../Middlewares/Third_Party/LoRaWAN/Mac/region/RegionAS923.c ****         modem = MODEM_LORA;
 661:../../../../../../Middlewares/Third_Party/LoRaWAN/Mac/region/RegionAS923.c ****         Radio.SetTxConfig( modem, phyTxPower, 0, bandwidth, phyDr, 1, 8, false, true, 0, 0, false, 
 662:../../../../../../Middlewares/Third_Party/LoRaWAN/Mac/region/RegionAS923.c ****     }
 663:../../../../../../Middlewares/Third_Party/LoRaWAN/Mac/region/RegionAS923.c ****     TVL1( PRINTF( "TX on freq %d Hz at DR %d\n\r", NvmCtx.Channels[txConfig->Channel].Frequency, tx
 664:../../../../../../Middlewares/Third_Party/LoRaWAN/Mac/region/RegionAS923.c ****     // Setup maximum payload lenght of the radio driver
 665:../../../../../../Middlewares/Third_Party/LoRaWAN/Mac/region/RegionAS923.c ****     Radio.SetMaxPayloadLength( modem, txConfig->PktLen );
 666:../../../../../../Middlewares/Third_Party/LoRaWAN/Mac/region/RegionAS923.c ****     // Get the time-on-air of the next tx frame
 667:../../../../../../Middlewares/Third_Party/LoRaWAN/Mac/region/RegionAS923.c ****     *txTimeOnAir = Radio.TimeOnAir( modem, txConfig->PktLen );
 668:../../../../../../Middlewares/Third_Party/LoRaWAN/Mac/region/RegionAS923.c **** 
 669:../../../../../../Middlewares/Third_Party/LoRaWAN/Mac/region/RegionAS923.c ****     *txPower = txPowerLimited;
 670:../../../../../../Middlewares/Third_Party/LoRaWAN/Mac/region/RegionAS923.c ****     return true;
 671:../../../../../../Middlewares/Third_Party/LoRaWAN/Mac/region/RegionAS923.c **** }
 672:../../../../../../Middlewares/Third_Party/LoRaWAN/Mac/region/RegionAS923.c **** 
 673:../../../../../../Middlewares/Third_Party/LoRaWAN/Mac/region/RegionAS923.c **** uint8_t RegionAS923LinkAdrReq( LinkAdrReqParams_t* linkAdrReq, int8_t* drOut, int8_t* txPowOut, uin
 674:../../../../../../Middlewares/Third_Party/LoRaWAN/Mac/region/RegionAS923.c **** {
 675:../../../../../../Middlewares/Third_Party/LoRaWAN/Mac/region/RegionAS923.c ****     uint8_t status = 0x07;
 676:../../../../../../Middlewares/Third_Party/LoRaWAN/Mac/region/RegionAS923.c ****     RegionCommonLinkAdrParams_t linkAdrParams;
 677:../../../../../../Middlewares/Third_Party/LoRaWAN/Mac/region/RegionAS923.c ****     uint8_t nextIndex = 0;
 678:../../../../../../Middlewares/Third_Party/LoRaWAN/Mac/region/RegionAS923.c ****     uint8_t bytesProcessed = 0;
 679:../../../../../../Middlewares/Third_Party/LoRaWAN/Mac/region/RegionAS923.c ****     uint16_t chMask = 0;
 680:../../../../../../Middlewares/Third_Party/LoRaWAN/Mac/region/RegionAS923.c ****     GetPhyParams_t getPhy;
 681:../../../../../../Middlewares/Third_Party/LoRaWAN/Mac/region/RegionAS923.c ****     PhyParam_t phyParam;
 682:../../../../../../Middlewares/Third_Party/LoRaWAN/Mac/region/RegionAS923.c ****     RegionCommonLinkAdrReqVerifyParams_t linkAdrVerifyParams;
 683:../../../../../../Middlewares/Third_Party/LoRaWAN/Mac/region/RegionAS923.c **** 
 684:../../../../../../Middlewares/Third_Party/LoRaWAN/Mac/region/RegionAS923.c ****     while( bytesProcessed < linkAdrReq->PayloadSize )
ARM GAS  C:\Users\EBANO_~1\AppData\Local\Temp\cc2nkIni.s 			page 28


 685:../../../../../../Middlewares/Third_Party/LoRaWAN/Mac/region/RegionAS923.c ****     {
 686:../../../../../../Middlewares/Third_Party/LoRaWAN/Mac/region/RegionAS923.c ****         // Get ADR request parameters
 687:../../../../../../Middlewares/Third_Party/LoRaWAN/Mac/region/RegionAS923.c ****         nextIndex = RegionCommonParseLinkAdrReq( &( linkAdrReq->Payload[bytesProcessed] ), &linkAdr
 688:../../../../../../Middlewares/Third_Party/LoRaWAN/Mac/region/RegionAS923.c **** 
 689:../../../../../../Middlewares/Third_Party/LoRaWAN/Mac/region/RegionAS923.c ****         if( nextIndex == 0 )
 690:../../../../../../Middlewares/Third_Party/LoRaWAN/Mac/region/RegionAS923.c ****             break; // break loop, since no more request has been found
 691:../../../../../../Middlewares/Third_Party/LoRaWAN/Mac/region/RegionAS923.c **** 
 692:../../../../../../Middlewares/Third_Party/LoRaWAN/Mac/region/RegionAS923.c ****         // Update bytes processed
 693:../../../../../../Middlewares/Third_Party/LoRaWAN/Mac/region/RegionAS923.c ****         bytesProcessed += nextIndex;
 694:../../../../../../Middlewares/Third_Party/LoRaWAN/Mac/region/RegionAS923.c **** 
 695:../../../../../../Middlewares/Third_Party/LoRaWAN/Mac/region/RegionAS923.c ****         // Revert status, as we only check the last ADR request for the channel mask KO
 696:../../../../../../Middlewares/Third_Party/LoRaWAN/Mac/region/RegionAS923.c ****         status = 0x07;
 697:../../../../../../Middlewares/Third_Party/LoRaWAN/Mac/region/RegionAS923.c **** 
 698:../../../../../../Middlewares/Third_Party/LoRaWAN/Mac/region/RegionAS923.c ****         // Setup temporary channels mask
 699:../../../../../../Middlewares/Third_Party/LoRaWAN/Mac/region/RegionAS923.c ****         chMask = linkAdrParams.ChMask;
 700:../../../../../../Middlewares/Third_Party/LoRaWAN/Mac/region/RegionAS923.c **** 
 701:../../../../../../Middlewares/Third_Party/LoRaWAN/Mac/region/RegionAS923.c ****         // Verify channels mask
 702:../../../../../../Middlewares/Third_Party/LoRaWAN/Mac/region/RegionAS923.c ****         if( ( linkAdrParams.ChMaskCtrl == 0 ) && ( chMask == 0 ) )
 703:../../../../../../Middlewares/Third_Party/LoRaWAN/Mac/region/RegionAS923.c ****         {
 704:../../../../../../Middlewares/Third_Party/LoRaWAN/Mac/region/RegionAS923.c ****             status &= 0xFE; // Channel mask KO
 705:../../../../../../Middlewares/Third_Party/LoRaWAN/Mac/region/RegionAS923.c ****         }
 706:../../../../../../Middlewares/Third_Party/LoRaWAN/Mac/region/RegionAS923.c ****         else if( ( ( linkAdrParams.ChMaskCtrl >= 1 ) && ( linkAdrParams.ChMaskCtrl <= 5 )) ||
 707:../../../../../../Middlewares/Third_Party/LoRaWAN/Mac/region/RegionAS923.c ****                 ( linkAdrParams.ChMaskCtrl >= 7 ) )
 708:../../../../../../Middlewares/Third_Party/LoRaWAN/Mac/region/RegionAS923.c ****         {
 709:../../../../../../Middlewares/Third_Party/LoRaWAN/Mac/region/RegionAS923.c ****             // RFU
 710:../../../../../../Middlewares/Third_Party/LoRaWAN/Mac/region/RegionAS923.c ****             status &= 0xFE; // Channel mask KO
 711:../../../../../../Middlewares/Third_Party/LoRaWAN/Mac/region/RegionAS923.c ****         }
 712:../../../../../../Middlewares/Third_Party/LoRaWAN/Mac/region/RegionAS923.c ****         else
 713:../../../../../../Middlewares/Third_Party/LoRaWAN/Mac/region/RegionAS923.c ****         {
 714:../../../../../../Middlewares/Third_Party/LoRaWAN/Mac/region/RegionAS923.c ****             for( uint8_t i = 0; i < AS923_MAX_NB_CHANNELS; i++ )
 715:../../../../../../Middlewares/Third_Party/LoRaWAN/Mac/region/RegionAS923.c ****             {
 716:../../../../../../Middlewares/Third_Party/LoRaWAN/Mac/region/RegionAS923.c ****                 if( linkAdrParams.ChMaskCtrl == 6 )
 717:../../../../../../Middlewares/Third_Party/LoRaWAN/Mac/region/RegionAS923.c ****                 {
 718:../../../../../../Middlewares/Third_Party/LoRaWAN/Mac/region/RegionAS923.c ****                     if( NvmCtx.Channels[i].Frequency != 0 )
 719:../../../../../../Middlewares/Third_Party/LoRaWAN/Mac/region/RegionAS923.c ****                     {
 720:../../../../../../Middlewares/Third_Party/LoRaWAN/Mac/region/RegionAS923.c ****                         chMask |= 1 << i;
 721:../../../../../../Middlewares/Third_Party/LoRaWAN/Mac/region/RegionAS923.c ****                     }
 722:../../../../../../Middlewares/Third_Party/LoRaWAN/Mac/region/RegionAS923.c ****                 }
 723:../../../../../../Middlewares/Third_Party/LoRaWAN/Mac/region/RegionAS923.c ****                 else
 724:../../../../../../Middlewares/Third_Party/LoRaWAN/Mac/region/RegionAS923.c ****                 {
 725:../../../../../../Middlewares/Third_Party/LoRaWAN/Mac/region/RegionAS923.c ****                     if( ( ( chMask & ( 1 << i ) ) != 0 ) &&
 726:../../../../../../Middlewares/Third_Party/LoRaWAN/Mac/region/RegionAS923.c ****                         ( NvmCtx.Channels[i].Frequency == 0 ) )
 727:../../../../../../Middlewares/Third_Party/LoRaWAN/Mac/region/RegionAS923.c ****                     {// Trying to enable an undefined channel
 728:../../../../../../Middlewares/Third_Party/LoRaWAN/Mac/region/RegionAS923.c ****                         status &= 0xFE; // Channel mask KO
 729:../../../../../../Middlewares/Third_Party/LoRaWAN/Mac/region/RegionAS923.c ****                     }
 730:../../../../../../Middlewares/Third_Party/LoRaWAN/Mac/region/RegionAS923.c ****                 }
 731:../../../../../../Middlewares/Third_Party/LoRaWAN/Mac/region/RegionAS923.c ****             }
 732:../../../../../../Middlewares/Third_Party/LoRaWAN/Mac/region/RegionAS923.c ****         }
 733:../../../../../../Middlewares/Third_Party/LoRaWAN/Mac/region/RegionAS923.c ****     }
 734:../../../../../../Middlewares/Third_Party/LoRaWAN/Mac/region/RegionAS923.c **** 
 735:../../../../../../Middlewares/Third_Party/LoRaWAN/Mac/region/RegionAS923.c ****     // Get the minimum possible datarate
 736:../../../../../../Middlewares/Third_Party/LoRaWAN/Mac/region/RegionAS923.c ****     getPhy.Attribute = PHY_MIN_TX_DR;
 737:../../../../../../Middlewares/Third_Party/LoRaWAN/Mac/region/RegionAS923.c ****     getPhy.UplinkDwellTime = linkAdrReq->UplinkDwellTime;
 738:../../../../../../Middlewares/Third_Party/LoRaWAN/Mac/region/RegionAS923.c ****     phyParam = RegionAS923GetPhyParam( &getPhy );
 739:../../../../../../Middlewares/Third_Party/LoRaWAN/Mac/region/RegionAS923.c **** 
 740:../../../../../../Middlewares/Third_Party/LoRaWAN/Mac/region/RegionAS923.c ****     linkAdrVerifyParams.Status = status;
 741:../../../../../../Middlewares/Third_Party/LoRaWAN/Mac/region/RegionAS923.c ****     linkAdrVerifyParams.AdrEnabled = linkAdrReq->AdrEnabled;
ARM GAS  C:\Users\EBANO_~1\AppData\Local\Temp\cc2nkIni.s 			page 29


 742:../../../../../../Middlewares/Third_Party/LoRaWAN/Mac/region/RegionAS923.c ****     linkAdrVerifyParams.Datarate = linkAdrParams.Datarate;
 743:../../../../../../Middlewares/Third_Party/LoRaWAN/Mac/region/RegionAS923.c ****     linkAdrVerifyParams.TxPower = linkAdrParams.TxPower;
 744:../../../../../../Middlewares/Third_Party/LoRaWAN/Mac/region/RegionAS923.c ****     linkAdrVerifyParams.NbRep = linkAdrParams.NbRep;
 745:../../../../../../Middlewares/Third_Party/LoRaWAN/Mac/region/RegionAS923.c ****     linkAdrVerifyParams.CurrentDatarate = linkAdrReq->CurrentDatarate;
 746:../../../../../../Middlewares/Third_Party/LoRaWAN/Mac/region/RegionAS923.c ****     linkAdrVerifyParams.CurrentTxPower = linkAdrReq->CurrentTxPower;
 747:../../../../../../Middlewares/Third_Party/LoRaWAN/Mac/region/RegionAS923.c ****     linkAdrVerifyParams.CurrentNbRep = linkAdrReq->CurrentNbRep;
 748:../../../../../../Middlewares/Third_Party/LoRaWAN/Mac/region/RegionAS923.c ****     linkAdrVerifyParams.NbChannels = AS923_MAX_NB_CHANNELS;
 749:../../../../../../Middlewares/Third_Party/LoRaWAN/Mac/region/RegionAS923.c ****     linkAdrVerifyParams.ChannelsMask = &chMask;
 750:../../../../../../Middlewares/Third_Party/LoRaWAN/Mac/region/RegionAS923.c ****     linkAdrVerifyParams.MinDatarate = ( int8_t )phyParam.Value;
 751:../../../../../../Middlewares/Third_Party/LoRaWAN/Mac/region/RegionAS923.c ****     linkAdrVerifyParams.MaxDatarate = AS923_TX_MAX_DATARATE;
 752:../../../../../../Middlewares/Third_Party/LoRaWAN/Mac/region/RegionAS923.c ****     linkAdrVerifyParams.Channels = NvmCtx.Channels;
 753:../../../../../../Middlewares/Third_Party/LoRaWAN/Mac/region/RegionAS923.c ****     linkAdrVerifyParams.MinTxPower = AS923_MIN_TX_POWER;
 754:../../../../../../Middlewares/Third_Party/LoRaWAN/Mac/region/RegionAS923.c ****     linkAdrVerifyParams.MaxTxPower = AS923_MAX_TX_POWER;
 755:../../../../../../Middlewares/Third_Party/LoRaWAN/Mac/region/RegionAS923.c ****     linkAdrVerifyParams.Version = linkAdrReq->Version;
 756:../../../../../../Middlewares/Third_Party/LoRaWAN/Mac/region/RegionAS923.c **** 
 757:../../../../../../Middlewares/Third_Party/LoRaWAN/Mac/region/RegionAS923.c ****     // Verify the parameters and update, if necessary
 758:../../../../../../Middlewares/Third_Party/LoRaWAN/Mac/region/RegionAS923.c ****     status = RegionCommonLinkAdrReqVerifyParams( &linkAdrVerifyParams, &linkAdrParams.Datarate, &li
 759:../../../../../../Middlewares/Third_Party/LoRaWAN/Mac/region/RegionAS923.c **** 
 760:../../../../../../Middlewares/Third_Party/LoRaWAN/Mac/region/RegionAS923.c ****     // Update channelsMask if everything is correct
 761:../../../../../../Middlewares/Third_Party/LoRaWAN/Mac/region/RegionAS923.c ****     if( status == 0x07 )
 762:../../../../../../Middlewares/Third_Party/LoRaWAN/Mac/region/RegionAS923.c ****     {
 763:../../../../../../Middlewares/Third_Party/LoRaWAN/Mac/region/RegionAS923.c ****         // Set the channels mask to a default value
 764:../../../../../../Middlewares/Third_Party/LoRaWAN/Mac/region/RegionAS923.c ****         memset1( ( uint8_t* ) NvmCtx.ChannelsMask, 0, sizeof( NvmCtx.ChannelsMask ) );
 765:../../../../../../Middlewares/Third_Party/LoRaWAN/Mac/region/RegionAS923.c ****         // Update the channels mask
 766:../../../../../../Middlewares/Third_Party/LoRaWAN/Mac/region/RegionAS923.c ****         NvmCtx.ChannelsMask[0] = chMask;
 767:../../../../../../Middlewares/Third_Party/LoRaWAN/Mac/region/RegionAS923.c ****     }
 768:../../../../../../Middlewares/Third_Party/LoRaWAN/Mac/region/RegionAS923.c **** 
 769:../../../../../../Middlewares/Third_Party/LoRaWAN/Mac/region/RegionAS923.c ****     // Update status variables
 770:../../../../../../Middlewares/Third_Party/LoRaWAN/Mac/region/RegionAS923.c ****     *drOut = linkAdrParams.Datarate;
 771:../../../../../../Middlewares/Third_Party/LoRaWAN/Mac/region/RegionAS923.c ****     *txPowOut = linkAdrParams.TxPower;
 772:../../../../../../Middlewares/Third_Party/LoRaWAN/Mac/region/RegionAS923.c ****     *nbRepOut = linkAdrParams.NbRep;
 773:../../../../../../Middlewares/Third_Party/LoRaWAN/Mac/region/RegionAS923.c ****     *nbBytesParsed = bytesProcessed;
 774:../../../../../../Middlewares/Third_Party/LoRaWAN/Mac/region/RegionAS923.c **** 
 775:../../../../../../Middlewares/Third_Party/LoRaWAN/Mac/region/RegionAS923.c ****     return status;
 776:../../../../../../Middlewares/Third_Party/LoRaWAN/Mac/region/RegionAS923.c **** }
 777:../../../../../../Middlewares/Third_Party/LoRaWAN/Mac/region/RegionAS923.c **** 
 778:../../../../../../Middlewares/Third_Party/LoRaWAN/Mac/region/RegionAS923.c **** uint8_t RegionAS923RxParamSetupReq( RxParamSetupReqParams_t* rxParamSetupReq )
 779:../../../../../../Middlewares/Third_Party/LoRaWAN/Mac/region/RegionAS923.c **** {
 780:../../../../../../Middlewares/Third_Party/LoRaWAN/Mac/region/RegionAS923.c ****     uint8_t status = 0x07;
 781:../../../../../../Middlewares/Third_Party/LoRaWAN/Mac/region/RegionAS923.c **** 
 782:../../../../../../Middlewares/Third_Party/LoRaWAN/Mac/region/RegionAS923.c ****     // Verify radio frequency
 783:../../../../../../Middlewares/Third_Party/LoRaWAN/Mac/region/RegionAS923.c ****     if( VerifyRfFreq( rxParamSetupReq->Frequency ) == false )
 784:../../../../../../Middlewares/Third_Party/LoRaWAN/Mac/region/RegionAS923.c ****     {
 785:../../../../../../Middlewares/Third_Party/LoRaWAN/Mac/region/RegionAS923.c ****         status &= 0xFE; // Channel frequency KO
 786:../../../../../../Middlewares/Third_Party/LoRaWAN/Mac/region/RegionAS923.c ****     }
 787:../../../../../../Middlewares/Third_Party/LoRaWAN/Mac/region/RegionAS923.c **** 
 788:../../../../../../Middlewares/Third_Party/LoRaWAN/Mac/region/RegionAS923.c ****     // Verify datarate
 789:../../../../../../Middlewares/Third_Party/LoRaWAN/Mac/region/RegionAS923.c ****     if( RegionCommonValueInRange( rxParamSetupReq->Datarate, AS923_RX_MIN_DATARATE, AS923_RX_MAX_DA
 790:../../../../../../Middlewares/Third_Party/LoRaWAN/Mac/region/RegionAS923.c ****     {
 791:../../../../../../Middlewares/Third_Party/LoRaWAN/Mac/region/RegionAS923.c ****         status &= 0xFD; // Datarate KO
 792:../../../../../../Middlewares/Third_Party/LoRaWAN/Mac/region/RegionAS923.c ****     }
 793:../../../../../../Middlewares/Third_Party/LoRaWAN/Mac/region/RegionAS923.c **** 
 794:../../../../../../Middlewares/Third_Party/LoRaWAN/Mac/region/RegionAS923.c ****     // Verify datarate offset
 795:../../../../../../Middlewares/Third_Party/LoRaWAN/Mac/region/RegionAS923.c ****     if( RegionCommonValueInRange( rxParamSetupReq->DrOffset, AS923_MIN_RX1_DR_OFFSET, AS923_MAX_RX1
 796:../../../../../../Middlewares/Third_Party/LoRaWAN/Mac/region/RegionAS923.c ****     {
 797:../../../../../../Middlewares/Third_Party/LoRaWAN/Mac/region/RegionAS923.c ****         status &= 0xFB; // Rx1DrOffset range KO
 798:../../../../../../Middlewares/Third_Party/LoRaWAN/Mac/region/RegionAS923.c ****     }
ARM GAS  C:\Users\EBANO_~1\AppData\Local\Temp\cc2nkIni.s 			page 30


 799:../../../../../../Middlewares/Third_Party/LoRaWAN/Mac/region/RegionAS923.c **** 
 800:../../../../../../Middlewares/Third_Party/LoRaWAN/Mac/region/RegionAS923.c ****     return status;
 801:../../../../../../Middlewares/Third_Party/LoRaWAN/Mac/region/RegionAS923.c **** }
 802:../../../../../../Middlewares/Third_Party/LoRaWAN/Mac/region/RegionAS923.c **** 
 803:../../../../../../Middlewares/Third_Party/LoRaWAN/Mac/region/RegionAS923.c **** uint8_t RegionAS923NewChannelReq( NewChannelReqParams_t* newChannelReq )
 804:../../../../../../Middlewares/Third_Party/LoRaWAN/Mac/region/RegionAS923.c **** {
 805:../../../../../../Middlewares/Third_Party/LoRaWAN/Mac/region/RegionAS923.c ****     uint8_t status = 0x03;
 806:../../../../../../Middlewares/Third_Party/LoRaWAN/Mac/region/RegionAS923.c ****     ChannelAddParams_t channelAdd;
 807:../../../../../../Middlewares/Third_Party/LoRaWAN/Mac/region/RegionAS923.c ****     ChannelRemoveParams_t channelRemove;
 808:../../../../../../Middlewares/Third_Party/LoRaWAN/Mac/region/RegionAS923.c **** 
 809:../../../../../../Middlewares/Third_Party/LoRaWAN/Mac/region/RegionAS923.c ****     if( newChannelReq->NewChannel->Frequency == 0 )
 810:../../../../../../Middlewares/Third_Party/LoRaWAN/Mac/region/RegionAS923.c ****     {
 811:../../../../../../Middlewares/Third_Party/LoRaWAN/Mac/region/RegionAS923.c ****         channelRemove.ChannelId = newChannelReq->ChannelId;
 812:../../../../../../Middlewares/Third_Party/LoRaWAN/Mac/region/RegionAS923.c **** 
 813:../../../../../../Middlewares/Third_Party/LoRaWAN/Mac/region/RegionAS923.c ****         // Remove
 814:../../../../../../Middlewares/Third_Party/LoRaWAN/Mac/region/RegionAS923.c ****         if( RegionAS923ChannelsRemove( &channelRemove ) == false )
 815:../../../../../../Middlewares/Third_Party/LoRaWAN/Mac/region/RegionAS923.c ****         {
 816:../../../../../../Middlewares/Third_Party/LoRaWAN/Mac/region/RegionAS923.c ****             status &= 0xFC;
 817:../../../../../../Middlewares/Third_Party/LoRaWAN/Mac/region/RegionAS923.c ****         }
 818:../../../../../../Middlewares/Third_Party/LoRaWAN/Mac/region/RegionAS923.c ****     }
 819:../../../../../../Middlewares/Third_Party/LoRaWAN/Mac/region/RegionAS923.c ****     else
 820:../../../../../../Middlewares/Third_Party/LoRaWAN/Mac/region/RegionAS923.c ****     {
 821:../../../../../../Middlewares/Third_Party/LoRaWAN/Mac/region/RegionAS923.c ****         channelAdd.NewChannel = newChannelReq->NewChannel;
 822:../../../../../../Middlewares/Third_Party/LoRaWAN/Mac/region/RegionAS923.c ****         channelAdd.ChannelId = newChannelReq->ChannelId;
 823:../../../../../../Middlewares/Third_Party/LoRaWAN/Mac/region/RegionAS923.c **** 
 824:../../../../../../Middlewares/Third_Party/LoRaWAN/Mac/region/RegionAS923.c ****         switch( RegionAS923ChannelAdd( &channelAdd ) )
 825:../../../../../../Middlewares/Third_Party/LoRaWAN/Mac/region/RegionAS923.c ****         {
 826:../../../../../../Middlewares/Third_Party/LoRaWAN/Mac/region/RegionAS923.c ****             case LORAMAC_STATUS_OK:
 827:../../../../../../Middlewares/Third_Party/LoRaWAN/Mac/region/RegionAS923.c ****             {
 828:../../../../../../Middlewares/Third_Party/LoRaWAN/Mac/region/RegionAS923.c ****                 break;
 829:../../../../../../Middlewares/Third_Party/LoRaWAN/Mac/region/RegionAS923.c ****             }
 830:../../../../../../Middlewares/Third_Party/LoRaWAN/Mac/region/RegionAS923.c ****             case LORAMAC_STATUS_FREQUENCY_INVALID:
 831:../../../../../../Middlewares/Third_Party/LoRaWAN/Mac/region/RegionAS923.c ****             {
 832:../../../../../../Middlewares/Third_Party/LoRaWAN/Mac/region/RegionAS923.c ****                 status &= 0xFE;
 833:../../../../../../Middlewares/Third_Party/LoRaWAN/Mac/region/RegionAS923.c ****                 break;
 834:../../../../../../Middlewares/Third_Party/LoRaWAN/Mac/region/RegionAS923.c ****             }
 835:../../../../../../Middlewares/Third_Party/LoRaWAN/Mac/region/RegionAS923.c ****             case LORAMAC_STATUS_DATARATE_INVALID:
 836:../../../../../../Middlewares/Third_Party/LoRaWAN/Mac/region/RegionAS923.c ****             {
 837:../../../../../../Middlewares/Third_Party/LoRaWAN/Mac/region/RegionAS923.c ****                 status &= 0xFD;
 838:../../../../../../Middlewares/Third_Party/LoRaWAN/Mac/region/RegionAS923.c ****                 break;
 839:../../../../../../Middlewares/Third_Party/LoRaWAN/Mac/region/RegionAS923.c ****             }
 840:../../../../../../Middlewares/Third_Party/LoRaWAN/Mac/region/RegionAS923.c ****             case LORAMAC_STATUS_FREQ_AND_DR_INVALID:
 841:../../../../../../Middlewares/Third_Party/LoRaWAN/Mac/region/RegionAS923.c ****             {
 842:../../../../../../Middlewares/Third_Party/LoRaWAN/Mac/region/RegionAS923.c ****                 status &= 0xFC;
 843:../../../../../../Middlewares/Third_Party/LoRaWAN/Mac/region/RegionAS923.c ****                 break;
 844:../../../../../../Middlewares/Third_Party/LoRaWAN/Mac/region/RegionAS923.c ****             }
 845:../../../../../../Middlewares/Third_Party/LoRaWAN/Mac/region/RegionAS923.c ****             default:
 846:../../../../../../Middlewares/Third_Party/LoRaWAN/Mac/region/RegionAS923.c ****             {
 847:../../../../../../Middlewares/Third_Party/LoRaWAN/Mac/region/RegionAS923.c ****                 status &= 0xFC;
 848:../../../../../../Middlewares/Third_Party/LoRaWAN/Mac/region/RegionAS923.c ****                 break;
 849:../../../../../../Middlewares/Third_Party/LoRaWAN/Mac/region/RegionAS923.c ****             }
 850:../../../../../../Middlewares/Third_Party/LoRaWAN/Mac/region/RegionAS923.c ****         }
 851:../../../../../../Middlewares/Third_Party/LoRaWAN/Mac/region/RegionAS923.c ****     }
 852:../../../../../../Middlewares/Third_Party/LoRaWAN/Mac/region/RegionAS923.c **** 
 853:../../../../../../Middlewares/Third_Party/LoRaWAN/Mac/region/RegionAS923.c ****     return status;
 854:../../../../../../Middlewares/Third_Party/LoRaWAN/Mac/region/RegionAS923.c **** }
 855:../../../../../../Middlewares/Third_Party/LoRaWAN/Mac/region/RegionAS923.c **** 
ARM GAS  C:\Users\EBANO_~1\AppData\Local\Temp\cc2nkIni.s 			page 31


 856:../../../../../../Middlewares/Third_Party/LoRaWAN/Mac/region/RegionAS923.c **** int8_t RegionAS923TxParamSetupReq( TxParamSetupReqParams_t* txParamSetupReq )
 857:../../../../../../Middlewares/Third_Party/LoRaWAN/Mac/region/RegionAS923.c **** {
 858:../../../../../../Middlewares/Third_Party/LoRaWAN/Mac/region/RegionAS923.c ****     // Accept the request
 859:../../../../../../Middlewares/Third_Party/LoRaWAN/Mac/region/RegionAS923.c ****     return 0;
 860:../../../../../../Middlewares/Third_Party/LoRaWAN/Mac/region/RegionAS923.c **** }
 861:../../../../../../Middlewares/Third_Party/LoRaWAN/Mac/region/RegionAS923.c **** 
 862:../../../../../../Middlewares/Third_Party/LoRaWAN/Mac/region/RegionAS923.c **** uint8_t RegionAS923DlChannelReq( DlChannelReqParams_t* dlChannelReq )
 863:../../../../../../Middlewares/Third_Party/LoRaWAN/Mac/region/RegionAS923.c **** {
 864:../../../../../../Middlewares/Third_Party/LoRaWAN/Mac/region/RegionAS923.c ****     uint8_t status = 0x03;
 865:../../../../../../Middlewares/Third_Party/LoRaWAN/Mac/region/RegionAS923.c **** 
 866:../../../../../../Middlewares/Third_Party/LoRaWAN/Mac/region/RegionAS923.c ****     // Verify if the frequency is supported
 867:../../../../../../Middlewares/Third_Party/LoRaWAN/Mac/region/RegionAS923.c ****     if( VerifyRfFreq( dlChannelReq->Rx1Frequency ) == false )
 868:../../../../../../Middlewares/Third_Party/LoRaWAN/Mac/region/RegionAS923.c ****     {
 869:../../../../../../Middlewares/Third_Party/LoRaWAN/Mac/region/RegionAS923.c ****         status &= 0xFE;
 870:../../../../../../Middlewares/Third_Party/LoRaWAN/Mac/region/RegionAS923.c ****     }
 871:../../../../../../Middlewares/Third_Party/LoRaWAN/Mac/region/RegionAS923.c **** 
 872:../../../../../../Middlewares/Third_Party/LoRaWAN/Mac/region/RegionAS923.c ****     // Verify if an uplink frequency exists
 873:../../../../../../Middlewares/Third_Party/LoRaWAN/Mac/region/RegionAS923.c ****     if( NvmCtx.Channels[dlChannelReq->ChannelId].Frequency == 0 )
 874:../../../../../../Middlewares/Third_Party/LoRaWAN/Mac/region/RegionAS923.c ****     {
 875:../../../../../../Middlewares/Third_Party/LoRaWAN/Mac/region/RegionAS923.c ****         status &= 0xFD;
 876:../../../../../../Middlewares/Third_Party/LoRaWAN/Mac/region/RegionAS923.c ****     }
 877:../../../../../../Middlewares/Third_Party/LoRaWAN/Mac/region/RegionAS923.c **** 
 878:../../../../../../Middlewares/Third_Party/LoRaWAN/Mac/region/RegionAS923.c ****     // Apply Rx1 frequency, if the status is OK
 879:../../../../../../Middlewares/Third_Party/LoRaWAN/Mac/region/RegionAS923.c ****     if( status == 0x03 )
 880:../../../../../../Middlewares/Third_Party/LoRaWAN/Mac/region/RegionAS923.c ****     {
 881:../../../../../../Middlewares/Third_Party/LoRaWAN/Mac/region/RegionAS923.c ****         NvmCtx.Channels[dlChannelReq->ChannelId].Rx1Frequency = dlChannelReq->Rx1Frequency;
 882:../../../../../../Middlewares/Third_Party/LoRaWAN/Mac/region/RegionAS923.c ****     }
 883:../../../../../../Middlewares/Third_Party/LoRaWAN/Mac/region/RegionAS923.c **** 
 884:../../../../../../Middlewares/Third_Party/LoRaWAN/Mac/region/RegionAS923.c ****     return status;
 885:../../../../../../Middlewares/Third_Party/LoRaWAN/Mac/region/RegionAS923.c **** }
 886:../../../../../../Middlewares/Third_Party/LoRaWAN/Mac/region/RegionAS923.c **** 
 887:../../../../../../Middlewares/Third_Party/LoRaWAN/Mac/region/RegionAS923.c **** int8_t RegionAS923AlternateDr( int8_t currentDr, AlternateDrType_t type )
 888:../../../../../../Middlewares/Third_Party/LoRaWAN/Mac/region/RegionAS923.c **** {
 889:../../../../../../Middlewares/Third_Party/LoRaWAN/Mac/region/RegionAS923.c ****     // Only AS923_DWELL_LIMIT_DATARATE is supported
 890:../../../../../../Middlewares/Third_Party/LoRaWAN/Mac/region/RegionAS923.c ****     return AS923_DWELL_LIMIT_DATARATE;
 891:../../../../../../Middlewares/Third_Party/LoRaWAN/Mac/region/RegionAS923.c **** }
 892:../../../../../../Middlewares/Third_Party/LoRaWAN/Mac/region/RegionAS923.c **** 
 893:../../../../../../Middlewares/Third_Party/LoRaWAN/Mac/region/RegionAS923.c **** void RegionAS923CalcBackOff( CalcBackOffParams_t* calcBackOff )
 894:../../../../../../Middlewares/Third_Party/LoRaWAN/Mac/region/RegionAS923.c **** {
 895:../../../../../../Middlewares/Third_Party/LoRaWAN/Mac/region/RegionAS923.c ****     RegionCommonCalcBackOffParams_t calcBackOffParams;
 896:../../../../../../Middlewares/Third_Party/LoRaWAN/Mac/region/RegionAS923.c **** 
 897:../../../../../../Middlewares/Third_Party/LoRaWAN/Mac/region/RegionAS923.c ****     calcBackOffParams.Channels = NvmCtx.Channels;
 898:../../../../../../Middlewares/Third_Party/LoRaWAN/Mac/region/RegionAS923.c ****     calcBackOffParams.Bands = NvmCtx.Bands;
 899:../../../../../../Middlewares/Third_Party/LoRaWAN/Mac/region/RegionAS923.c ****     calcBackOffParams.LastTxIsJoinRequest = calcBackOff->LastTxIsJoinRequest;
 900:../../../../../../Middlewares/Third_Party/LoRaWAN/Mac/region/RegionAS923.c ****     calcBackOffParams.Joined = calcBackOff->Joined;
 901:../../../../../../Middlewares/Third_Party/LoRaWAN/Mac/region/RegionAS923.c ****     calcBackOffParams.DutyCycleEnabled = calcBackOff->DutyCycleEnabled;
 902:../../../../../../Middlewares/Third_Party/LoRaWAN/Mac/region/RegionAS923.c ****     calcBackOffParams.Channel = calcBackOff->Channel;
 903:../../../../../../Middlewares/Third_Party/LoRaWAN/Mac/region/RegionAS923.c ****     calcBackOffParams.ElapsedTime = calcBackOff->ElapsedTime;
 904:../../../../../../Middlewares/Third_Party/LoRaWAN/Mac/region/RegionAS923.c ****     calcBackOffParams.TxTimeOnAir = calcBackOff->TxTimeOnAir;
 905:../../../../../../Middlewares/Third_Party/LoRaWAN/Mac/region/RegionAS923.c **** 
 906:../../../../../../Middlewares/Third_Party/LoRaWAN/Mac/region/RegionAS923.c ****     RegionCommonCalcBackOff( &calcBackOffParams );
 907:../../../../../../Middlewares/Third_Party/LoRaWAN/Mac/region/RegionAS923.c **** }
 908:../../../../../../Middlewares/Third_Party/LoRaWAN/Mac/region/RegionAS923.c **** 
 909:../../../../../../Middlewares/Third_Party/LoRaWAN/Mac/region/RegionAS923.c **** LoRaMacStatus_t RegionAS923NextChannel( NextChanParams_t* nextChanParams, uint8_t* channel, TimerTi
 910:../../../../../../Middlewares/Third_Party/LoRaWAN/Mac/region/RegionAS923.c **** {
 911:../../../../../../Middlewares/Third_Party/LoRaWAN/Mac/region/RegionAS923.c ****     uint8_t channelNext = 0;
 912:../../../../../../Middlewares/Third_Party/LoRaWAN/Mac/region/RegionAS923.c ****     uint8_t nbEnabledChannels = 0;
ARM GAS  C:\Users\EBANO_~1\AppData\Local\Temp\cc2nkIni.s 			page 32


 913:../../../../../../Middlewares/Third_Party/LoRaWAN/Mac/region/RegionAS923.c ****     uint8_t delayTx = 0;
 914:../../../../../../Middlewares/Third_Party/LoRaWAN/Mac/region/RegionAS923.c ****     uint8_t enabledChannels[AS923_MAX_NB_CHANNELS] = { 0 };
 915:../../../../../../Middlewares/Third_Party/LoRaWAN/Mac/region/RegionAS923.c ****     TimerTime_t nextTxDelay = 0;
 916:../../../../../../Middlewares/Third_Party/LoRaWAN/Mac/region/RegionAS923.c **** 
 917:../../../../../../Middlewares/Third_Party/LoRaWAN/Mac/region/RegionAS923.c ****     if( RegionCommonCountChannels( NvmCtx.ChannelsMask, 0, 1 ) == 0 )
 918:../../../../../../Middlewares/Third_Party/LoRaWAN/Mac/region/RegionAS923.c ****     { // Reactivate default channels
 919:../../../../../../Middlewares/Third_Party/LoRaWAN/Mac/region/RegionAS923.c ****         NvmCtx.ChannelsMask[0] |= LC( 1 ) + LC( 2 );
 920:../../../../../../Middlewares/Third_Party/LoRaWAN/Mac/region/RegionAS923.c ****     }
 921:../../../../../../Middlewares/Third_Party/LoRaWAN/Mac/region/RegionAS923.c **** 
 922:../../../../../../Middlewares/Third_Party/LoRaWAN/Mac/region/RegionAS923.c ****     if( nextChanParams->AggrTimeOff <= TimerGetElapsedTime( nextChanParams->LastAggrTx ) )
 923:../../../../../../Middlewares/Third_Party/LoRaWAN/Mac/region/RegionAS923.c ****     {
 924:../../../../../../Middlewares/Third_Party/LoRaWAN/Mac/region/RegionAS923.c ****         // Reset Aggregated time off
 925:../../../../../../Middlewares/Third_Party/LoRaWAN/Mac/region/RegionAS923.c ****         *aggregatedTimeOff = 0;
 926:../../../../../../Middlewares/Third_Party/LoRaWAN/Mac/region/RegionAS923.c **** 
 927:../../../../../../Middlewares/Third_Party/LoRaWAN/Mac/region/RegionAS923.c ****         // Update bands Time OFF
 928:../../../../../../Middlewares/Third_Party/LoRaWAN/Mac/region/RegionAS923.c ****         nextTxDelay = RegionCommonUpdateBandTimeOff( nextChanParams->Joined, nextChanParams->DutyCy
 929:../../../../../../Middlewares/Third_Party/LoRaWAN/Mac/region/RegionAS923.c **** 
 930:../../../../../../Middlewares/Third_Party/LoRaWAN/Mac/region/RegionAS923.c ****         // Search how many channels are enabled
 931:../../../../../../Middlewares/Third_Party/LoRaWAN/Mac/region/RegionAS923.c ****         nbEnabledChannels = CountNbOfEnabledChannels( nextChanParams->Joined, nextChanParams->Datar
 932:../../../../../../Middlewares/Third_Party/LoRaWAN/Mac/region/RegionAS923.c ****                                                       NvmCtx.ChannelsMask, NvmCtx.Channels,
 933:../../../../../../Middlewares/Third_Party/LoRaWAN/Mac/region/RegionAS923.c ****                                                       NvmCtx.Bands, enabledChannels, &delayTx );
 934:../../../../../../Middlewares/Third_Party/LoRaWAN/Mac/region/RegionAS923.c ****     }
 935:../../../../../../Middlewares/Third_Party/LoRaWAN/Mac/region/RegionAS923.c ****     else
 936:../../../../../../Middlewares/Third_Party/LoRaWAN/Mac/region/RegionAS923.c ****     {
 937:../../../../../../Middlewares/Third_Party/LoRaWAN/Mac/region/RegionAS923.c ****         delayTx++;
 938:../../../../../../Middlewares/Third_Party/LoRaWAN/Mac/region/RegionAS923.c ****         nextTxDelay = nextChanParams->AggrTimeOff - TimerGetElapsedTime( nextChanParams->LastAggrTx
 939:../../../../../../Middlewares/Third_Party/LoRaWAN/Mac/region/RegionAS923.c ****     }
 940:../../../../../../Middlewares/Third_Party/LoRaWAN/Mac/region/RegionAS923.c **** 
 941:../../../../../../Middlewares/Third_Party/LoRaWAN/Mac/region/RegionAS923.c ****     if( nbEnabledChannels > 0 )
 942:../../../../../../Middlewares/Third_Party/LoRaWAN/Mac/region/RegionAS923.c ****     {
 943:../../../../../../Middlewares/Third_Party/LoRaWAN/Mac/region/RegionAS923.c ****         for( uint8_t  i = 0, j = randr( 0, nbEnabledChannels - 1 ); i < AS923_MAX_NB_CHANNELS; i++ 
 944:../../../../../../Middlewares/Third_Party/LoRaWAN/Mac/region/RegionAS923.c ****         {
 945:../../../../../../Middlewares/Third_Party/LoRaWAN/Mac/region/RegionAS923.c ****             channelNext = enabledChannels[j];
 946:../../../../../../Middlewares/Third_Party/LoRaWAN/Mac/region/RegionAS923.c ****             j = ( j + 1 ) % nbEnabledChannels;
 947:../../../../../../Middlewares/Third_Party/LoRaWAN/Mac/region/RegionAS923.c **** 
 948:../../../../../../Middlewares/Third_Party/LoRaWAN/Mac/region/RegionAS923.c ****             // Perform carrier sense for AS923_CARRIER_SENSE_TIME
 949:../../../../../../Middlewares/Third_Party/LoRaWAN/Mac/region/RegionAS923.c ****             // If the channel is free, we can stop the LBT mechanism
 950:../../../../../../Middlewares/Third_Party/LoRaWAN/Mac/region/RegionAS923.c ****             if( Radio.IsChannelFree( MODEM_LORA, NvmCtx.Channels[channelNext].Frequency, AS923_RSSI
 951:../../../../../../Middlewares/Third_Party/LoRaWAN/Mac/region/RegionAS923.c ****             {
 952:../../../../../../Middlewares/Third_Party/LoRaWAN/Mac/region/RegionAS923.c ****                 // Free channel found
 953:../../../../../../Middlewares/Third_Party/LoRaWAN/Mac/region/RegionAS923.c ****                 *channel = channelNext;
 954:../../../../../../Middlewares/Third_Party/LoRaWAN/Mac/region/RegionAS923.c ****                 *time = 0;
 955:../../../../../../Middlewares/Third_Party/LoRaWAN/Mac/region/RegionAS923.c ****                 return LORAMAC_STATUS_OK;
 956:../../../../../../Middlewares/Third_Party/LoRaWAN/Mac/region/RegionAS923.c ****             }
 957:../../../../../../Middlewares/Third_Party/LoRaWAN/Mac/region/RegionAS923.c ****         }
 958:../../../../../../Middlewares/Third_Party/LoRaWAN/Mac/region/RegionAS923.c ****         return LORAMAC_STATUS_NO_FREE_CHANNEL_FOUND;
 959:../../../../../../Middlewares/Third_Party/LoRaWAN/Mac/region/RegionAS923.c ****     }
 960:../../../../../../Middlewares/Third_Party/LoRaWAN/Mac/region/RegionAS923.c ****     else
 961:../../../../../../Middlewares/Third_Party/LoRaWAN/Mac/region/RegionAS923.c ****     {
 962:../../../../../../Middlewares/Third_Party/LoRaWAN/Mac/region/RegionAS923.c ****         if( delayTx > 0 )
 963:../../../../../../Middlewares/Third_Party/LoRaWAN/Mac/region/RegionAS923.c ****         {
 964:../../../../../../Middlewares/Third_Party/LoRaWAN/Mac/region/RegionAS923.c ****             // Delay transmission due to AggregatedTimeOff or to a band time off
 965:../../../../../../Middlewares/Third_Party/LoRaWAN/Mac/region/RegionAS923.c ****             *time = nextTxDelay;
 966:../../../../../../Middlewares/Third_Party/LoRaWAN/Mac/region/RegionAS923.c ****             return LORAMAC_STATUS_DUTYCYCLE_RESTRICTED;
 967:../../../../../../Middlewares/Third_Party/LoRaWAN/Mac/region/RegionAS923.c ****         }
 968:../../../../../../Middlewares/Third_Party/LoRaWAN/Mac/region/RegionAS923.c ****         // Datarate not supported by any channel, restore defaults
 969:../../../../../../Middlewares/Third_Party/LoRaWAN/Mac/region/RegionAS923.c ****         NvmCtx.ChannelsMask[0] |= LC( 1 ) + LC( 2 );
ARM GAS  C:\Users\EBANO_~1\AppData\Local\Temp\cc2nkIni.s 			page 33


 970:../../../../../../Middlewares/Third_Party/LoRaWAN/Mac/region/RegionAS923.c ****         *time = 0;
 971:../../../../../../Middlewares/Third_Party/LoRaWAN/Mac/region/RegionAS923.c ****         return LORAMAC_STATUS_NO_CHANNEL_FOUND;
 972:../../../../../../Middlewares/Third_Party/LoRaWAN/Mac/region/RegionAS923.c ****     }
 973:../../../../../../Middlewares/Third_Party/LoRaWAN/Mac/region/RegionAS923.c **** }
 974:../../../../../../Middlewares/Third_Party/LoRaWAN/Mac/region/RegionAS923.c **** 
 975:../../../../../../Middlewares/Third_Party/LoRaWAN/Mac/region/RegionAS923.c **** LoRaMacStatus_t RegionAS923ChannelAdd( ChannelAddParams_t* channelAdd )
 976:../../../../../../Middlewares/Third_Party/LoRaWAN/Mac/region/RegionAS923.c **** {
 977:../../../../../../Middlewares/Third_Party/LoRaWAN/Mac/region/RegionAS923.c ****     bool drInvalid = false;
 978:../../../../../../Middlewares/Third_Party/LoRaWAN/Mac/region/RegionAS923.c ****     bool freqInvalid = false;
 979:../../../../../../Middlewares/Third_Party/LoRaWAN/Mac/region/RegionAS923.c ****     uint8_t id = channelAdd->ChannelId;
 980:../../../../../../Middlewares/Third_Party/LoRaWAN/Mac/region/RegionAS923.c **** 
 981:../../../../../../Middlewares/Third_Party/LoRaWAN/Mac/region/RegionAS923.c ****     if( id < AS923_NUMB_DEFAULT_CHANNELS )
 982:../../../../../../Middlewares/Third_Party/LoRaWAN/Mac/region/RegionAS923.c ****     {
 983:../../../../../../Middlewares/Third_Party/LoRaWAN/Mac/region/RegionAS923.c ****         return LORAMAC_STATUS_FREQ_AND_DR_INVALID;
 984:../../../../../../Middlewares/Third_Party/LoRaWAN/Mac/region/RegionAS923.c ****     }
 985:../../../../../../Middlewares/Third_Party/LoRaWAN/Mac/region/RegionAS923.c **** 
 986:../../../../../../Middlewares/Third_Party/LoRaWAN/Mac/region/RegionAS923.c ****     if( id >= AS923_MAX_NB_CHANNELS )
 987:../../../../../../Middlewares/Third_Party/LoRaWAN/Mac/region/RegionAS923.c ****     {
 988:../../../../../../Middlewares/Third_Party/LoRaWAN/Mac/region/RegionAS923.c ****         return LORAMAC_STATUS_PARAMETER_INVALID;
 989:../../../../../../Middlewares/Third_Party/LoRaWAN/Mac/region/RegionAS923.c ****     }
 990:../../../../../../Middlewares/Third_Party/LoRaWAN/Mac/region/RegionAS923.c **** 
 991:../../../../../../Middlewares/Third_Party/LoRaWAN/Mac/region/RegionAS923.c ****     // Validate the datarate range
 992:../../../../../../Middlewares/Third_Party/LoRaWAN/Mac/region/RegionAS923.c ****     if( RegionCommonValueInRange( channelAdd->NewChannel->DrRange.Fields.Min, AS923_TX_MIN_DATARATE
 993:../../../../../../Middlewares/Third_Party/LoRaWAN/Mac/region/RegionAS923.c ****     {
 994:../../../../../../Middlewares/Third_Party/LoRaWAN/Mac/region/RegionAS923.c ****         drInvalid = true;
 995:../../../../../../Middlewares/Third_Party/LoRaWAN/Mac/region/RegionAS923.c ****     }
 996:../../../../../../Middlewares/Third_Party/LoRaWAN/Mac/region/RegionAS923.c ****     if( RegionCommonValueInRange( channelAdd->NewChannel->DrRange.Fields.Max, AS923_TX_MIN_DATARATE
 997:../../../../../../Middlewares/Third_Party/LoRaWAN/Mac/region/RegionAS923.c ****     {
 998:../../../../../../Middlewares/Third_Party/LoRaWAN/Mac/region/RegionAS923.c ****         drInvalid = true;
 999:../../../../../../Middlewares/Third_Party/LoRaWAN/Mac/region/RegionAS923.c ****     }
1000:../../../../../../Middlewares/Third_Party/LoRaWAN/Mac/region/RegionAS923.c ****     if( channelAdd->NewChannel->DrRange.Fields.Min > channelAdd->NewChannel->DrRange.Fields.Max )
1001:../../../../../../Middlewares/Third_Party/LoRaWAN/Mac/region/RegionAS923.c ****     {
1002:../../../../../../Middlewares/Third_Party/LoRaWAN/Mac/region/RegionAS923.c ****         drInvalid = true;
1003:../../../../../../Middlewares/Third_Party/LoRaWAN/Mac/region/RegionAS923.c ****     }
1004:../../../../../../Middlewares/Third_Party/LoRaWAN/Mac/region/RegionAS923.c **** 
1005:../../../../../../Middlewares/Third_Party/LoRaWAN/Mac/region/RegionAS923.c ****     // Check frequency
1006:../../../../../../Middlewares/Third_Party/LoRaWAN/Mac/region/RegionAS923.c ****     if( freqInvalid == false )
1007:../../../../../../Middlewares/Third_Party/LoRaWAN/Mac/region/RegionAS923.c ****     {
1008:../../../../../../Middlewares/Third_Party/LoRaWAN/Mac/region/RegionAS923.c ****         if( VerifyRfFreq( channelAdd->NewChannel->Frequency ) == false )
1009:../../../../../../Middlewares/Third_Party/LoRaWAN/Mac/region/RegionAS923.c ****         {
1010:../../../../../../Middlewares/Third_Party/LoRaWAN/Mac/region/RegionAS923.c ****             freqInvalid = true;
1011:../../../../../../Middlewares/Third_Party/LoRaWAN/Mac/region/RegionAS923.c ****         }
1012:../../../../../../Middlewares/Third_Party/LoRaWAN/Mac/region/RegionAS923.c ****     }
1013:../../../../../../Middlewares/Third_Party/LoRaWAN/Mac/region/RegionAS923.c **** 
1014:../../../../../../Middlewares/Third_Party/LoRaWAN/Mac/region/RegionAS923.c ****     // Check status
1015:../../../../../../Middlewares/Third_Party/LoRaWAN/Mac/region/RegionAS923.c ****     if( ( drInvalid == true ) && ( freqInvalid == true ) )
1016:../../../../../../Middlewares/Third_Party/LoRaWAN/Mac/region/RegionAS923.c ****     {
1017:../../../../../../Middlewares/Third_Party/LoRaWAN/Mac/region/RegionAS923.c ****         return LORAMAC_STATUS_FREQ_AND_DR_INVALID;
1018:../../../../../../Middlewares/Third_Party/LoRaWAN/Mac/region/RegionAS923.c ****     }
1019:../../../../../../Middlewares/Third_Party/LoRaWAN/Mac/region/RegionAS923.c ****     if( drInvalid == true )
1020:../../../../../../Middlewares/Third_Party/LoRaWAN/Mac/region/RegionAS923.c ****     {
1021:../../../../../../Middlewares/Third_Party/LoRaWAN/Mac/region/RegionAS923.c ****         return LORAMAC_STATUS_DATARATE_INVALID;
1022:../../../../../../Middlewares/Third_Party/LoRaWAN/Mac/region/RegionAS923.c ****     }
1023:../../../../../../Middlewares/Third_Party/LoRaWAN/Mac/region/RegionAS923.c ****     if( freqInvalid == true )
1024:../../../../../../Middlewares/Third_Party/LoRaWAN/Mac/region/RegionAS923.c ****     {
1025:../../../../../../Middlewares/Third_Party/LoRaWAN/Mac/region/RegionAS923.c ****         return LORAMAC_STATUS_FREQUENCY_INVALID;
1026:../../../../../../Middlewares/Third_Party/LoRaWAN/Mac/region/RegionAS923.c ****     }
ARM GAS  C:\Users\EBANO_~1\AppData\Local\Temp\cc2nkIni.s 			page 34


1027:../../../../../../Middlewares/Third_Party/LoRaWAN/Mac/region/RegionAS923.c **** 
1028:../../../../../../Middlewares/Third_Party/LoRaWAN/Mac/region/RegionAS923.c ****     memcpy1( ( uint8_t* ) &(NvmCtx.Channels[id]), ( uint8_t* ) channelAdd->NewChannel, sizeof( NvmC
1029:../../../../../../Middlewares/Third_Party/LoRaWAN/Mac/region/RegionAS923.c ****     NvmCtx.Channels[id].Band = 0;
1030:../../../../../../Middlewares/Third_Party/LoRaWAN/Mac/region/RegionAS923.c ****     NvmCtx.ChannelsMask[0] |= ( 1 << id );
1031:../../../../../../Middlewares/Third_Party/LoRaWAN/Mac/region/RegionAS923.c ****     return LORAMAC_STATUS_OK;
1032:../../../../../../Middlewares/Third_Party/LoRaWAN/Mac/region/RegionAS923.c **** }
1033:../../../../../../Middlewares/Third_Party/LoRaWAN/Mac/region/RegionAS923.c **** 
1034:../../../../../../Middlewares/Third_Party/LoRaWAN/Mac/region/RegionAS923.c **** bool RegionAS923ChannelsRemove( ChannelRemoveParams_t* channelRemove  )
1035:../../../../../../Middlewares/Third_Party/LoRaWAN/Mac/region/RegionAS923.c **** {
1036:../../../../../../Middlewares/Third_Party/LoRaWAN/Mac/region/RegionAS923.c ****     uint8_t id = channelRemove->ChannelId;
1037:../../../../../../Middlewares/Third_Party/LoRaWAN/Mac/region/RegionAS923.c **** 
1038:../../../../../../Middlewares/Third_Party/LoRaWAN/Mac/region/RegionAS923.c ****     if( id < AS923_NUMB_DEFAULT_CHANNELS )
1039:../../../../../../Middlewares/Third_Party/LoRaWAN/Mac/region/RegionAS923.c ****     {
1040:../../../../../../Middlewares/Third_Party/LoRaWAN/Mac/region/RegionAS923.c ****         return false;
1041:../../../../../../Middlewares/Third_Party/LoRaWAN/Mac/region/RegionAS923.c ****     }
1042:../../../../../../Middlewares/Third_Party/LoRaWAN/Mac/region/RegionAS923.c **** 
1043:../../../../../../Middlewares/Third_Party/LoRaWAN/Mac/region/RegionAS923.c ****     // Remove the channel from the list of channels
1044:../../../../../../Middlewares/Third_Party/LoRaWAN/Mac/region/RegionAS923.c ****     NvmCtx.Channels[id] = ( ChannelParams_t ){ 0, 0, { 0 }, 0 };
 778              		.loc 1 1044 0
 779 0032 3F4B     		ldr	r3, .L96
 780              	.LBE37:
 781              	.LBE36:
 782              	.LBE35:
 783 0034 0224     		movs	r4, #2
 784              	.LBB50:
 785              	.LBB40:
 786              	.LBB38:
 787 0036 9A46     		mov	r10, r3
 788 0038 3E4B     		ldr	r3, .L96+4
 789 003a 9B46     		mov	fp, r3
 790 003c 13E0     		b	.L86
 791              	.LVL47:
 792              	.L80:
 793              	.LBE38:
 794              	.LBE40:
 519:../../../../../../Middlewares/Third_Party/LoRaWAN/Mac/region/RegionAS923.c ****             newChannel.DrRange.Value = 0;
 795              		.loc 1 519 0
 796 003e 0023     		movs	r3, #0
 797              	.LVL48:
 798 0040 6600     		lsls	r6, r4, #1
 799 0042 2B60     		str	r3, [r5]
 520:../../../../../../Middlewares/Third_Party/LoRaWAN/Mac/region/RegionAS923.c ****             newChannel.Rx1Frequency = 0;
 800              		.loc 1 520 0
 801 0044 2B72     		strb	r3, [r5, #8]
 521:../../../../../../Middlewares/Third_Party/LoRaWAN/Mac/region/RegionAS923.c ****         }
 802              		.loc 1 521 0
 803 0046 6B60     		str	r3, [r5, #4]
 804              	.L82:
 805              	.LVL49:
 806              	.LBB41:
 807              	.LBB39:
 808              		.loc 1 1044 0
 809 0048 3019     		adds	r0, r6, r4
 810 004a 8000     		lsls	r0, r0, #2
 811 004c 0C22     		movs	r2, #12
 812 004e 0021     		movs	r1, #0
 813 0050 5044     		add	r0, r0, r10
ARM GAS  C:\Users\EBANO_~1\AppData\Local\Temp\cc2nkIni.s 			page 35


 814 0052 FFF7FEFF 		bl	memset
 815              	.LVL50:
1045:../../../../../../Middlewares/Third_Party/LoRaWAN/Mac/region/RegionAS923.c **** 
1046:../../../../../../Middlewares/Third_Party/LoRaWAN/Mac/region/RegionAS923.c ****     return RegionCommonChanDisable( NvmCtx.ChannelsMask, id, AS923_MAX_NB_CHANNELS );
 816              		.loc 1 1046 0
 817 0056 1022     		movs	r2, #16
 818 0058 4146     		mov	r1, r8
 819 005a 3748     		ldr	r0, .L96+8
 820 005c FFF7FEFF 		bl	RegionCommonChanDisable
 821              	.LVL51:
 822              	.L84:
 823 0060 0134     		adds	r4, r4, #1
 824              	.LVL52:
 825              	.LBE39:
 826              	.LBE41:
 504:../../../../../../Middlewares/Third_Party/LoRaWAN/Mac/region/RegionAS923.c ****     {
 827              		.loc 1 504 0 discriminator 2
 828 0062 102C     		cmp	r4, #16
 829 0064 DAD0     		beq	.L78
 830              	.L86:
 831 0066 E3B2     		uxtb	r3, r4
 832 0068 9846     		mov	r8, r3
 833              	.LVL53:
 506:../../../../../../Middlewares/Third_Party/LoRaWAN/Mac/region/RegionAS923.c ****         {
 834              		.loc 1 506 0
 835 006a 062C     		cmp	r4, #6
 836 006c E7D8     		bhi	.L80
 509:../../../../../../Middlewares/Third_Party/LoRaWAN/Mac/region/RegionAS923.c ****             newChannel.Frequency |= ( (uint32_t) applyCFList->Payload[i + 1] << 8 );
 837              		.loc 1 509 0
 838 006e 3A68     		ldr	r2, [r7]
 839 0070 6600     		lsls	r6, r4, #1
 840 0072 9446     		mov	ip, r2
 841 0074 3319     		adds	r3, r6, r4
 842              	.LVL54:
 843 0076 6344     		add	r3, r3, ip
 844 0078 9A1F     		subs	r2, r3, #6
 845 007a 1178     		ldrb	r1, [r2]
 510:../../../../../../Middlewares/Third_Party/LoRaWAN/Mac/region/RegionAS923.c ****             newChannel.Frequency |= ( (uint32_t) applyCFList->Payload[i + 2] << 16 );
 846              		.loc 1 510 0
 847 007c 5A1F     		subs	r2, r3, #5
 509:../../../../../../Middlewares/Third_Party/LoRaWAN/Mac/region/RegionAS923.c ****             newChannel.Frequency |= ( (uint32_t) applyCFList->Payload[i + 1] << 8 );
 848              		.loc 1 509 0
 849 007e 2960     		str	r1, [r5]
 510:../../../../../../Middlewares/Third_Party/LoRaWAN/Mac/region/RegionAS923.c ****             newChannel.Frequency |= ( (uint32_t) applyCFList->Payload[i + 2] << 16 );
 850              		.loc 1 510 0
 851 0080 1278     		ldrb	r2, [r2]
 511:../../../../../../Middlewares/Third_Party/LoRaWAN/Mac/region/RegionAS923.c ****             newChannel.Frequency *= 100;
 852              		.loc 1 511 0
 853 0082 043B     		subs	r3, r3, #4
 510:../../../../../../Middlewares/Third_Party/LoRaWAN/Mac/region/RegionAS923.c ****             newChannel.Frequency |= ( (uint32_t) applyCFList->Payload[i + 2] << 16 );
 854              		.loc 1 510 0
 855 0084 1202     		lsls	r2, r2, #8
 856 0086 0A43     		orrs	r2, r1
 857 0088 2A60     		str	r2, [r5]
 511:../../../../../../Middlewares/Third_Party/LoRaWAN/Mac/region/RegionAS923.c ****             newChannel.Frequency *= 100;
 858              		.loc 1 511 0
 859 008a 1B78     		ldrb	r3, [r3]
ARM GAS  C:\Users\EBANO_~1\AppData\Local\Temp\cc2nkIni.s 			page 36


 860 008c 1B04     		lsls	r3, r3, #16
 861 008e 1A43     		orrs	r2, r3
 512:../../../../../../Middlewares/Third_Party/LoRaWAN/Mac/region/RegionAS923.c **** 
 862              		.loc 1 512 0
 863 0090 6423     		movs	r3, #100
 864 0092 5A43     		muls	r2, r3
 515:../../../../../../Middlewares/Third_Party/LoRaWAN/Mac/region/RegionAS923.c ****         }
 865              		.loc 1 515 0
 866 0094 0023     		movs	r3, #0
 512:../../../../../../Middlewares/Third_Party/LoRaWAN/Mac/region/RegionAS923.c **** 
 867              		.loc 1 512 0
 868 0096 2A60     		str	r2, [r5]
 515:../../../../../../Middlewares/Third_Party/LoRaWAN/Mac/region/RegionAS923.c ****         }
 869              		.loc 1 515 0
 870 0098 6B60     		str	r3, [r5, #4]
 524:../../../../../../Middlewares/Third_Party/LoRaWAN/Mac/region/RegionAS923.c ****         {
 871              		.loc 1 524 0
 872 009a 002A     		cmp	r2, #0
 873 009c D4D0     		beq	.L82
 874              	.LVL55:
 875              	.LBB42:
 876              	.LBB43:
 992:../../../../../../Middlewares/Third_Party/LoRaWAN/Mac/region/RegionAS923.c ****     {
 877              		.loc 1 992 0
 878 009e 287A     		ldrb	r0, [r5, #8]
 879 00a0 0722     		movs	r2, #7
 880 00a2 0007     		lsls	r0, r0, #28
 881 00a4 0021     		movs	r1, #0
 882 00a6 0017     		asrs	r0, r0, #28
 883 00a8 FFF7FEFF 		bl	RegionCommonValueInRange
 884              	.LVL56:
 885 00ac 8046     		mov	r8, r0
 886              	.LVL57:
 996:../../../../../../Middlewares/Third_Party/LoRaWAN/Mac/region/RegionAS923.c ****     {
 887              		.loc 1 996 0
 888 00ae 0820     		movs	r0, #8
 889 00b0 2856     		ldrsb	r0, [r5, r0]
 890 00b2 0722     		movs	r2, #7
 891 00b4 0011     		asrs	r0, r0, #4
 892 00b6 0021     		movs	r1, #0
 893 00b8 FFF7FEFF 		bl	RegionCommonValueInRange
 894              	.LVL58:
 998:../../../../../../Middlewares/Third_Party/LoRaWAN/Mac/region/RegionAS923.c ****     }
 895              		.loc 1 998 0
 896 00bc 0123     		movs	r3, #1
 897 00be 9946     		mov	r9, r3
 996:../../../../../../Middlewares/Third_Party/LoRaWAN/Mac/region/RegionAS923.c ****     {
 898              		.loc 1 996 0
 899 00c0 0028     		cmp	r0, #0
 900 00c2 04D0     		beq	.L87
 992:../../../../../../Middlewares/Third_Party/LoRaWAN/Mac/region/RegionAS923.c ****     {
 901              		.loc 1 992 0
 902 00c4 4346     		mov	r3, r8
 903 00c6 5A42     		rsbs	r2, r3, #0
 904 00c8 5341     		adcs	r3, r3, r2
 905 00ca DBB2     		uxtb	r3, r3
 906 00cc 9946     		mov	r9, r3
ARM GAS  C:\Users\EBANO_~1\AppData\Local\Temp\cc2nkIni.s 			page 37


 907              	.L87:
 908              	.LVL59:
 909 00ce 2B68     		ldr	r3, [r5]
 910 00d0 9846     		mov	r8, r3
 911 00d2 5B46     		mov	r3, fp
 912 00d4 9B6A     		ldr	r3, [r3, #40]
 913              	.LBB44:
 914              	.LBB45:
 111:../../../../../../Middlewares/Third_Party/LoRaWAN/Mac/region/RegionAS923.c ****     {
 915              		.loc 1 111 0
 916 00d6 4046     		mov	r0, r8
 917 00d8 0193     		str	r3, [sp, #4]
 918              	.LBE45:
 919              	.LBE44:
1000:../../../../../../Middlewares/Third_Party/LoRaWAN/Mac/region/RegionAS923.c ****     {
 920              		.loc 1 1000 0
 921 00da 2B7A     		ldrb	r3, [r5, #8]
 922 00dc 1A07     		lsls	r2, r3, #28
 923 00de 5BB2     		sxtb	r3, r3
 924 00e0 1217     		asrs	r2, r2, #28
 925 00e2 1B11     		asrs	r3, r3, #4
 926 00e4 9A42     		cmp	r2, r3
 927 00e6 20DC     		bgt	.L83
 928              	.LVL60:
 929              	.LBB48:
 930              	.LBB46:
 111:../../../../../../Middlewares/Third_Party/LoRaWAN/Mac/region/RegionAS923.c ****     {
 931              		.loc 1 111 0
 932 00e8 019B     		ldr	r3, [sp, #4]
 933 00ea 9847     		blx	r3
 934              	.LVL61:
 935 00ec 0028     		cmp	r0, #0
 936 00ee B7D0     		beq	.L84
 116:../../../../../../Middlewares/Third_Party/LoRaWAN/Mac/region/RegionAS923.c ****     {
 937              		.loc 1 116 0
 938 00f0 124A     		ldr	r2, .L96+12
 939 00f2 134B     		ldr	r3, .L96+16
 940 00f4 4244     		add	r2, r2, r8
 941 00f6 9A42     		cmp	r2, r3
 942 00f8 B2D8     		bhi	.L84
 943              	.LBE46:
 944              	.LBE48:
1015:../../../../../../Middlewares/Third_Party/LoRaWAN/Mac/region/RegionAS923.c ****     {
 945              		.loc 1 1015 0
 946 00fa 4B46     		mov	r3, r9
 947 00fc 002B     		cmp	r3, #0
 948 00fe AFD1     		bne	.L84
1028:../../../../../../Middlewares/Third_Party/LoRaWAN/Mac/region/RegionAS923.c ****     NvmCtx.Channels[id].Band = 0;
 949              		.loc 1 1028 0
 950 0100 0B4B     		ldr	r3, .L96
 951 0102 3619     		adds	r6, r6, r4
 952 0104 9846     		mov	r8, r3
 953 0106 B600     		lsls	r6, r6, #2
 954 0108 4644     		add	r6, r6, r8
 955 010a 0C22     		movs	r2, #12
 956 010c 2900     		movs	r1, r5
 957 010e 3000     		movs	r0, r6
ARM GAS  C:\Users\EBANO_~1\AppData\Local\Temp\cc2nkIni.s 			page 38


 958 0110 FFF7FEFF 		bl	memcpy1
 959              	.LVL62:
1029:../../../../../../Middlewares/Third_Party/LoRaWAN/Mac/region/RegionAS923.c ****     NvmCtx.ChannelsMask[0] |= ( 1 << id );
 960              		.loc 1 1029 0
 961 0114 4B46     		mov	r3, r9
1030:../../../../../../Middlewares/Third_Party/LoRaWAN/Mac/region/RegionAS923.c ****     return LORAMAC_STATUS_OK;
 962              		.loc 1 1030 0
 963 0116 0122     		movs	r2, #1
1029:../../../../../../Middlewares/Third_Party/LoRaWAN/Mac/region/RegionAS923.c ****     NvmCtx.ChannelsMask[0] |= ( 1 << id );
 964              		.loc 1 1029 0
 965 0118 7372     		strb	r3, [r6, #9]
1030:../../../../../../Middlewares/Third_Party/LoRaWAN/Mac/region/RegionAS923.c ****     return LORAMAC_STATUS_OK;
 966              		.loc 1 1030 0
 967 011a D021     		movs	r1, #208
 968 011c 4346     		mov	r3, r8
 969 011e A240     		lsls	r2, r2, r4
 970 0120 5B5A     		ldrh	r3, [r3, r1]
 971 0122 1343     		orrs	r3, r2
 972 0124 4246     		mov	r2, r8
 973 0126 5352     		strh	r3, [r2, r1]
 974 0128 9AE7     		b	.L84
 975              	.L83:
 976              	.LVL63:
 977              	.LBB49:
 978              	.LBB47:
 111:../../../../../../Middlewares/Third_Party/LoRaWAN/Mac/region/RegionAS923.c ****     {
 979              		.loc 1 111 0
 980 012a 019B     		ldr	r3, [sp, #4]
 981 012c 9847     		blx	r3
 982              	.LVL64:
 983 012e 97E7     		b	.L84
 984              	.L97:
 985              		.align	2
 986              	.L96:
 987 0130 00000000 		.word	NvmCtx
 988 0134 00000000 		.word	Radio
 989 0138 D0000000 		.word	NvmCtx+208
 990 013c 403576C9 		.word	-915000000
 991 0140 405DC600 		.word	13000000
 992              	.LBE47:
 993              	.LBE49:
 994              	.LBE43:
 995              	.LBE42:
 996              	.LBE50:
 997              		.cfi_endproc
 998              	.LFE49:
 999              		.size	RegionAS923ApplyCFList, .-RegionAS923ApplyCFList
 1000              		.section	.text.RegionAS923ChanMaskSet,"ax",%progbits
 1001              		.align	1
 1002              		.p2align 2,,3
 1003              		.global	RegionAS923ChanMaskSet
 1004              		.syntax unified
 1005              		.code	16
 1006              		.thumb_func
 1007              		.fpu softvfp
 1008              		.type	RegionAS923ChanMaskSet, %function
 1009              	RegionAS923ChanMaskSet:
ARM GAS  C:\Users\EBANO_~1\AppData\Local\Temp\cc2nkIni.s 			page 39


 1010              	.LFB50:
 542:../../../../../../Middlewares/Third_Party/LoRaWAN/Mac/region/RegionAS923.c ****     switch( chanMaskSet->ChannelsMaskType )
 1011              		.loc 1 542 0
 1012              		.cfi_startproc
 1013              		@ args = 0, pretend = 0, frame = 0
 1014              		@ frame_needed = 0, uses_anonymous_args = 0
 1015              	.LVL65:
 1016 0000 10B5     		push	{r4, lr}
 1017              	.LCFI9:
 1018              		.cfi_def_cfa_offset 8
 1019              		.cfi_offset 4, -8
 1020              		.cfi_offset 14, -4
 543:../../../../../../Middlewares/Third_Party/LoRaWAN/Mac/region/RegionAS923.c ****     {
 1021              		.loc 1 543 0
 1022 0002 0379     		ldrb	r3, [r0, #4]
 1023 0004 002B     		cmp	r3, #0
 1024 0006 0AD0     		beq	.L100
 1025 0008 012B     		cmp	r3, #1
 1026 000a 01D0     		beq	.L101
 556:../../../../../../Middlewares/Third_Party/LoRaWAN/Mac/region/RegionAS923.c ****     }
 1027              		.loc 1 556 0
 1028 000c 0020     		movs	r0, #0
 1029              	.LVL66:
 1030              	.L99:
 559:../../../../../../Middlewares/Third_Party/LoRaWAN/Mac/region/RegionAS923.c **** 
 1031              		.loc 1 559 0
 1032              		@ sp needed
 1033 000e 10BD     		pop	{r4, pc}
 1034              	.LVL67:
 1035              	.L101:
 552:../../../../../../Middlewares/Third_Party/LoRaWAN/Mac/region/RegionAS923.c ****             break;
 1036              		.loc 1 552 0
 1037 0010 0168     		ldr	r1, [r0]
 1038 0012 0122     		movs	r2, #1
 1039 0014 0548     		ldr	r0, .L104
 1040              	.LVL68:
 1041 0016 FFF7FEFF 		bl	RegionCommonChanMaskCopy
 1042              	.LVL69:
 558:../../../../../../Middlewares/Third_Party/LoRaWAN/Mac/region/RegionAS923.c **** }
 1043              		.loc 1 558 0
 1044 001a 0120     		movs	r0, #1
 553:../../../../../../Middlewares/Third_Party/LoRaWAN/Mac/region/RegionAS923.c ****         }
 1045              		.loc 1 553 0
 1046 001c F7E7     		b	.L99
 1047              	.LVL70:
 1048              	.L100:
 547:../../../../../../Middlewares/Third_Party/LoRaWAN/Mac/region/RegionAS923.c ****             break;
 1049              		.loc 1 547 0
 1050 001e 0168     		ldr	r1, [r0]
 1051 0020 0122     		movs	r2, #1
 1052 0022 0348     		ldr	r0, .L104+4
 1053              	.LVL71:
 1054 0024 FFF7FEFF 		bl	RegionCommonChanMaskCopy
 1055              	.LVL72:
 558:../../../../../../Middlewares/Third_Party/LoRaWAN/Mac/region/RegionAS923.c **** }
 1056              		.loc 1 558 0
 1057 0028 0120     		movs	r0, #1
ARM GAS  C:\Users\EBANO_~1\AppData\Local\Temp\cc2nkIni.s 			page 40


 548:../../../../../../Middlewares/Third_Party/LoRaWAN/Mac/region/RegionAS923.c ****         }
 1058              		.loc 1 548 0
 1059 002a F0E7     		b	.L99
 1060              	.L105:
 1061              		.align	2
 1062              	.L104:
 1063 002c D2000000 		.word	NvmCtx+210
 1064 0030 D0000000 		.word	NvmCtx+208
 1065              		.cfi_endproc
 1066              	.LFE50:
 1067              		.size	RegionAS923ChanMaskSet, .-RegionAS923ChanMaskSet
 1068              		.section	.text.RegionAS923ComputeRxWindowParameters,"ax",%progbits
 1069              		.align	1
 1070              		.p2align 2,,3
 1071              		.global	RegionAS923ComputeRxWindowParameters
 1072              		.syntax unified
 1073              		.code	16
 1074              		.thumb_func
 1075              		.fpu softvfp
 1076              		.type	RegionAS923ComputeRxWindowParameters, %function
 1077              	RegionAS923ComputeRxWindowParameters:
 1078              	.LFB51:
 562:../../../../../../Middlewares/Third_Party/LoRaWAN/Mac/region/RegionAS923.c ****     double tSymbol = 0.0;
 1079              		.loc 1 562 0
 1080              		.cfi_startproc
 1081              		@ args = 0, pretend = 0, frame = 8
 1082              		@ frame_needed = 0, uses_anonymous_args = 0
 1083              	.LVL73:
 1084 0000 F0B5     		push	{r4, r5, r6, r7, lr}
 1085              	.LCFI10:
 1086              		.cfi_def_cfa_offset 20
 1087              		.cfi_offset 4, -20
 1088              		.cfi_offset 5, -16
 1089              		.cfi_offset 6, -12
 1090              		.cfi_offset 7, -8
 1091              		.cfi_offset 14, -4
 1092 0002 C646     		mov	lr, r8
 1093 0004 00B5     		push	{lr}
 1094              	.LCFI11:
 1095              		.cfi_def_cfa_offset 24
 1096              		.cfi_offset 8, -24
 1097 0006 1C00     		movs	r4, r3
 1098 0008 86B0     		sub	sp, sp, #24
 1099              	.LCFI12:
 1100              		.cfi_def_cfa_offset 48
 562:../../../../../../Middlewares/Third_Party/LoRaWAN/Mac/region/RegionAS923.c ****     double tSymbol = 0.0;
 1101              		.loc 1 562 0
 1102 000a 0D00     		movs	r5, r1
 1103 000c 9046     		mov	r8, r2
 566:../../../../../../Middlewares/Third_Party/LoRaWAN/Mac/region/RegionAS923.c ****     rxConfigParams->Bandwidth = GetBandwidth( rxConfigParams->Datarate );
 1104              		.loc 1 566 0
 1105 000e 031C     		adds	r3, r0, #0
 1106              	.LVL74:
 1107 0010 0728     		cmp	r0, #7
 1108 0012 00DD     		ble	.L107
 1109 0014 0723     		movs	r3, #7
 1110              	.L107:
ARM GAS  C:\Users\EBANO_~1\AppData\Local\Temp\cc2nkIni.s 			page 41


 1111 0016 5EB2     		sxtb	r6, r3
 1112              	.LBB51:
 1113              	.LBB52:
  86:../../../../../../Middlewares/Third_Party/LoRaWAN/Mac/region/RegionAS923.c ****     {
 1114              		.loc 1 86 0
 1115 0018 1A4A     		ldr	r2, .L115
 1116              	.LVL75:
 1117 001a B100     		lsls	r1, r6, #2
 1118              	.LVL76:
 1119              	.LBE52:
 1120              	.LBE51:
 566:../../../../../../Middlewares/Third_Party/LoRaWAN/Mac/region/RegionAS923.c ****     rxConfigParams->Bandwidth = GetBandwidth( rxConfigParams->Datarate );
 1121              		.loc 1 566 0
 1122 001c 6370     		strb	r3, [r4, #1]
 1123              	.LVL77:
 1124              	.LBB55:
 1125              	.LBB53:
  86:../../../../../../Middlewares/Third_Party/LoRaWAN/Mac/region/RegionAS923.c ****     {
 1126              		.loc 1 86 0
 1127 001e 1A4F     		ldr	r7, .L115+4
 1128 0020 5358     		ldr	r3, [r2, r1]
 1129 0022 BB42     		cmp	r3, r7
 1130 0024 24D0     		beq	.L113
 1131 0026 194F     		ldr	r7, .L115+8
 1132 0028 BC46     		mov	ip, r7
 1133 002a 6344     		add	r3, r3, ip
 1134 002c 5F42     		rsbs	r7, r3, #0
 1135 002e 7B41     		adcs	r3, r3, r7
 1136 0030 5B00     		lsls	r3, r3, #1
 1137              	.LBE53:
 1138              	.LBE55:
 567:../../../../../../Middlewares/Third_Party/LoRaWAN/Mac/region/RegionAS923.c **** 
 1139              		.loc 1 567 0
 1140 0032 A370     		strb	r3, [r4, #2]
 569:../../../../../../Middlewares/Third_Party/LoRaWAN/Mac/region/RegionAS923.c ****     { // FSK
 1141              		.loc 1 569 0
 1142 0034 0628     		cmp	r0, #6
 1143 0036 1FDC     		bgt	.L114
 1144              	.L111:
 575:../../../../../../Middlewares/Third_Party/LoRaWAN/Mac/region/RegionAS923.c ****     }
 1145              		.loc 1 575 0
 1146 0038 2023     		movs	r3, #32
 1147 003a 5158     		ldr	r1, [r2, r1]
 1148 003c 9219     		adds	r2, r2, r6
 1149 003e D05C     		ldrb	r0, [r2, r3]
 1150              	.LVL78:
 1151 0040 FFF7FEFF 		bl	RegionCommonComputeSymbolTimeLoRa
 1152              	.LVL79:
 1153 0044 0600     		movs	r6, r0
 1154 0046 0F00     		movs	r7, r1
 1155              	.LVL80:
 1156              	.L112:
 578:../../../../../../Middlewares/Third_Party/LoRaWAN/Mac/region/RegionAS923.c **** }
 1157              		.loc 1 578 0
 1158 0048 114B     		ldr	r3, .L115+12
 1159 004a 5B6E     		ldr	r3, [r3, #100]
 1160 004c 0593     		str	r3, [sp, #20]
ARM GAS  C:\Users\EBANO_~1\AppData\Local\Temp\cc2nkIni.s 			page 42


 1161 004e 9847     		blx	r3
 1162              	.LVL81:
 1163 0050 2300     		movs	r3, r4
 1164 0052 0834     		adds	r4, r4, #8
 1165              	.LVL82:
 1166 0054 0C33     		adds	r3, r3, #12
 1167              	.LVL83:
 1168 0056 0293     		str	r3, [sp, #8]
 1169 0058 0090     		str	r0, [sp]
 1170 005a 0194     		str	r4, [sp, #4]
 1171 005c 4346     		mov	r3, r8
 1172              	.LVL84:
 1173 005e 2A00     		movs	r2, r5
 1174 0060 3000     		movs	r0, r6
 1175 0062 3900     		movs	r1, r7
 1176 0064 FFF7FEFF 		bl	RegionCommonComputeRxWindowParameters
 1177              	.LVL85:
 579:../../../../../../Middlewares/Third_Party/LoRaWAN/Mac/region/RegionAS923.c **** 
 1178              		.loc 1 579 0
 1179 0068 06B0     		add	sp, sp, #24
 1180              		@ sp needed
 1181              	.LVL86:
 1182              	.LVL87:
 1183              	.LVL88:
 1184 006a 04BC     		pop	{r2}
 1185 006c 9046     		mov	r8, r2
 1186 006e F0BD     		pop	{r4, r5, r6, r7, pc}
 1187              	.LVL89:
 1188              	.L113:
 1189              	.LBB56:
 1190              	.LBB54:
  86:../../../../../../Middlewares/Third_Party/LoRaWAN/Mac/region/RegionAS923.c ****     {
 1191              		.loc 1 86 0
 1192 0070 0123     		movs	r3, #1
 1193              	.LBE54:
 1194              	.LBE56:
 567:../../../../../../Middlewares/Third_Party/LoRaWAN/Mac/region/RegionAS923.c **** 
 1195              		.loc 1 567 0
 1196 0072 A370     		strb	r3, [r4, #2]
 569:../../../../../../Middlewares/Third_Party/LoRaWAN/Mac/region/RegionAS923.c ****     { // FSK
 1197              		.loc 1 569 0
 1198 0074 0628     		cmp	r0, #6
 1199 0076 DFDD     		ble	.L111
 1200              	.L114:
 571:../../../../../../Middlewares/Third_Party/LoRaWAN/Mac/region/RegionAS923.c ****     }
 1201              		.loc 1 571 0
 1202 0078 3220     		movs	r0, #50
 1203              	.LVL90:
 1204 007a FFF7FEFF 		bl	RegionCommonComputeSymbolTimeFsk
 1205              	.LVL91:
 1206 007e 0600     		movs	r6, r0
 1207 0080 0F00     		movs	r7, r1
 1208              	.LVL92:
 1209 0082 E1E7     		b	.L112
 1210              	.L116:
 1211              		.align	2
 1212              	.L115:
ARM GAS  C:\Users\EBANO_~1\AppData\Local\Temp\cc2nkIni.s 			page 43


 1213 0084 EC000000 		.word	.LANCHOR1
 1214 0088 90D00300 		.word	250000
 1215 008c E05EF8FF 		.word	-500000
 1216 0090 00000000 		.word	Radio
 1217              		.cfi_endproc
 1218              	.LFE51:
 1219              		.size	RegionAS923ComputeRxWindowParameters, .-RegionAS923ComputeRxWindowParameters
 1220              		.section	.text.RegionAS923RxConfig,"ax",%progbits
 1221              		.align	1
 1222              		.p2align 2,,3
 1223              		.global	RegionAS923RxConfig
 1224              		.syntax unified
 1225              		.code	16
 1226              		.thumb_func
 1227              		.fpu softvfp
 1228              		.type	RegionAS923RxConfig, %function
 1229              	RegionAS923RxConfig:
 1230              	.LFB52:
 582:../../../../../../Middlewares/Third_Party/LoRaWAN/Mac/region/RegionAS923.c ****     RadioModems_t modem;
 1231              		.loc 1 582 0
 1232              		.cfi_startproc
 1233              		@ args = 0, pretend = 0, frame = 8
 1234              		@ frame_needed = 0, uses_anonymous_args = 0
 1235              	.LVL93:
 1236 0000 F0B5     		push	{r4, r5, r6, r7, lr}
 1237              	.LCFI13:
 1238              		.cfi_def_cfa_offset 20
 1239              		.cfi_offset 4, -20
 1240              		.cfi_offset 5, -16
 1241              		.cfi_offset 6, -12
 1242              		.cfi_offset 7, -8
 1243              		.cfi_offset 14, -4
 1244 0002 D646     		mov	lr, r10
 1245 0004 4646     		mov	r6, r8
 1246 0006 4F46     		mov	r7, r9
 1247 0008 C0B5     		push	{r6, r7, lr}
 1248              	.LCFI14:
 1249              		.cfi_def_cfa_offset 32
 1250              		.cfi_offset 8, -32
 1251              		.cfi_offset 9, -28
 1252              		.cfi_offset 10, -24
 584:../../../../../../Middlewares/Third_Party/LoRaWAN/Mac/region/RegionAS923.c ****     uint8_t maxPayload = 0;
 1253              		.loc 1 584 0
 1254 000a 0126     		movs	r6, #1
 587:../../../../../../Middlewares/Third_Party/LoRaWAN/Mac/region/RegionAS923.c **** 
 1255              		.loc 1 587 0
 1256 000c 4368     		ldr	r3, [r0, #4]
 589:../../../../../../Middlewares/Third_Party/LoRaWAN/Mac/region/RegionAS923.c ****     {
 1257              		.loc 1 589 0
 1258 000e 394D     		ldr	r5, .L127
 587:../../../../../../Middlewares/Third_Party/LoRaWAN/Mac/region/RegionAS923.c **** 
 1259              		.loc 1 587 0
 1260 0010 9846     		mov	r8, r3
 589:../../../../../../Middlewares/Third_Party/LoRaWAN/Mac/region/RegionAS923.c ****     {
 1261              		.loc 1 589 0
 1262 0012 EB68     		ldr	r3, [r5, #12]
 582:../../../../../../Middlewares/Third_Party/LoRaWAN/Mac/region/RegionAS923.c ****     RadioModems_t modem;
ARM GAS  C:\Users\EBANO_~1\AppData\Local\Temp\cc2nkIni.s 			page 44


 1263              		.loc 1 582 0
 1264 0014 8CB0     		sub	sp, sp, #48
 1265              	.LCFI15:
 1266              		.cfi_def_cfa_offset 80
 584:../../../../../../Middlewares/Third_Party/LoRaWAN/Mac/region/RegionAS923.c ****     uint8_t maxPayload = 0;
 1267              		.loc 1 584 0
 1268 0016 8657     		ldrsb	r6, [r0, r6]
 1269              	.LVL94:
 582:../../../../../../Middlewares/Third_Party/LoRaWAN/Mac/region/RegionAS923.c ****     RadioModems_t modem;
 1270              		.loc 1 582 0
 1271 0018 0400     		movs	r4, r0
 589:../../../../../../Middlewares/Third_Party/LoRaWAN/Mac/region/RegionAS923.c ****     {
 1272              		.loc 1 589 0
 1273 001a 0B93     		str	r3, [sp, #44]
 582:../../../../../../Middlewares/Third_Party/LoRaWAN/Mac/region/RegionAS923.c ****     RadioModems_t modem;
 1274              		.loc 1 582 0
 1275 001c 8A46     		mov	r10, r1
 589:../../../../../../Middlewares/Third_Party/LoRaWAN/Mac/region/RegionAS923.c ****     {
 1276              		.loc 1 589 0
 1277 001e 9847     		blx	r3
 1278              	.LVL95:
 591:../../../../../../Middlewares/Third_Party/LoRaWAN/Mac/region/RegionAS923.c ****     }
 1279              		.loc 1 591 0
 1280 0020 0023     		movs	r3, #0
 589:../../../../../../Middlewares/Third_Party/LoRaWAN/Mac/region/RegionAS923.c ****     {
 1281              		.loc 1 589 0
 1282 0022 0028     		cmp	r0, #0
 1283 0024 3ED1     		bne	.L118
 594:../../../../../../Middlewares/Third_Party/LoRaWAN/Mac/region/RegionAS923.c ****     {
 1284              		.loc 1 594 0
 1285 0026 E37C     		ldrb	r3, [r4, #19]
 1286 0028 002B     		cmp	r3, #0
 1287 002a 0AD1     		bne	.L119
 597:../../../../../../Middlewares/Third_Party/LoRaWAN/Mac/region/RegionAS923.c ****         // Apply the alternative RX 1 window frequency, if it is available
 1288              		.loc 1 597 0
 1289 002c 2178     		ldrb	r1, [r4]
 1290 002e 324A     		ldr	r2, .L127+4
 1291 0030 4B00     		lsls	r3, r1, #1
 1292 0032 5B18     		adds	r3, r3, r1
 1293 0034 9B00     		lsls	r3, r3, #2
 1294 0036 9958     		ldr	r1, [r3, r2]
 1295              	.LVL96:
 599:../../../../../../Middlewares/Third_Party/LoRaWAN/Mac/region/RegionAS923.c ****         {
 1296              		.loc 1 599 0
 1297 0038 D318     		adds	r3, r2, r3
 1298 003a 5B68     		ldr	r3, [r3, #4]
 1299 003c 9846     		mov	r8, r3
 1300 003e 002B     		cmp	r3, #0
 1301 0040 56D0     		beq	.L125
 1302              	.LVL97:
 1303              	.L119:
 606:../../../../../../Middlewares/Third_Party/LoRaWAN/Mac/region/RegionAS923.c **** 
 1304              		.loc 1 606 0
 1305 0042 2022     		movs	r2, #32
 1306 0044 2D4B     		ldr	r3, .L127+8
 608:../../../../../../Middlewares/Third_Party/LoRaWAN/Mac/region/RegionAS923.c **** 
 1307              		.loc 1 608 0
ARM GAS  C:\Users\EBANO_~1\AppData\Local\Temp\cc2nkIni.s 			page 45


 1308 0046 4046     		mov	r0, r8
 606:../../../../../../Middlewares/Third_Party/LoRaWAN/Mac/region/RegionAS923.c **** 
 1309              		.loc 1 606 0
 1310 0048 9B19     		adds	r3, r3, r6
 1311 004a 9B56     		ldrsb	r3, [r3, r2]
 1312 004c 9946     		mov	r9, r3
 1313              	.LVL98:
 608:../../../../../../Middlewares/Third_Party/LoRaWAN/Mac/region/RegionAS923.c **** 
 1314              		.loc 1 608 0
 1315 004e 6B69     		ldr	r3, [r5, #20]
 1316 0050 0B93     		str	r3, [sp, #44]
 1317 0052 9847     		blx	r3
 1318              	.LVL99:
 1319 0054 2B6A     		ldr	r3, [r5, #32]
 1320 0056 0B93     		str	r3, [sp, #44]
 1321 0058 1F00     		movs	r7, r3
 611:../../../../../../Middlewares/Third_Party/LoRaWAN/Mac/region/RegionAS923.c ****     {
 1322              		.loc 1 611 0
 1323 005a 072E     		cmp	r6, #7
 1324 005c 2CD0     		beq	.L126
 1325              	.LVL100:
 619:../../../../../../Middlewares/Third_Party/LoRaWAN/Mac/region/RegionAS923.c ****     }
 1326              		.loc 1 619 0
 1327 005e A37C     		ldrb	r3, [r4, #18]
 1328 0060 2289     		ldrh	r2, [r4, #8]
 1329 0062 0993     		str	r3, [sp, #36]
 1330 0064 0123     		movs	r3, #1
 1331 0066 0292     		str	r2, [sp, #8]
 1332 0068 0893     		str	r3, [sp, #32]
 1333 006a 0822     		movs	r2, #8
 1334 006c 0023     		movs	r3, #0
 1335 006e 0192     		str	r2, [sp, #4]
 1336 0070 0793     		str	r3, [sp, #28]
 1337 0072 0693     		str	r3, [sp, #24]
 1338 0074 0593     		str	r3, [sp, #20]
 1339 0076 0493     		str	r3, [sp, #16]
 1340 0078 0393     		str	r3, [sp, #12]
 1341 007a 0093     		str	r3, [sp]
 1342 007c 0120     		movs	r0, #1
 1343 007e A178     		ldrb	r1, [r4, #2]
 1344 0080 0133     		adds	r3, r3, #1
 1345 0082 4A46     		mov	r2, r9
 1346 0084 B847     		blx	r7
 1347              	.LVL101:
 618:../../../../../../Middlewares/Third_Party/LoRaWAN/Mac/region/RegionAS923.c ****         Radio.SetRxConfig( modem, rxConfig->Bandwidth, phyDr, 1, 0, 8, rxConfig->WindowTimeout, fal
 1348              		.loc 1 618 0
 1349 0086 0120     		movs	r0, #1
 1350              	.LVL102:
 1351              	.L121:
 623:../../../../../../Middlewares/Third_Party/LoRaWAN/Mac/region/RegionAS923.c ****     {
 1352              		.loc 1 623 0
 1353 0088 637C     		ldrb	r3, [r4, #17]
 1354 008a 002B     		cmp	r3, #0
 1355 008c 11D0     		beq	.L122
 625:../../../../../../Middlewares/Third_Party/LoRaWAN/Mac/region/RegionAS923.c ****     }
 1356              		.loc 1 625 0
 1357 008e 1C4B     		ldr	r3, .L127+12
ARM GAS  C:\Users\EBANO_~1\AppData\Local\Temp\cc2nkIni.s 			page 46


 1358 0090 9B19     		adds	r3, r3, r6
 1359 0092 197C     		ldrb	r1, [r3, #16]
 1360              	.LVL103:
 1361              	.L123:
 632:../../../../../../Middlewares/Third_Party/LoRaWAN/Mac/region/RegionAS923.c ****     TVL1( PRINTF( "RX on freq %d Hz at DR %d\n\r", frequency, dr );)
 1362              		.loc 1 632 0
 1363 0094 EB6D     		ldr	r3, [r5, #92]
 1364 0096 0D31     		adds	r1, r1, #13
 1365              	.LVL104:
 1366 0098 C9B2     		uxtb	r1, r1
 1367 009a 0B93     		str	r3, [sp, #44]
 1368 009c 9847     		blx	r3
 1369              	.LVL105:
 635:../../../../../../Middlewares/Third_Party/LoRaWAN/Mac/region/RegionAS923.c ****     return true;
 1370              		.loc 1 635 0
 1371 009e 5346     		mov	r3, r10
 1372 00a0 1E70     		strb	r6, [r3]
 636:../../../../../../Middlewares/Third_Party/LoRaWAN/Mac/region/RegionAS923.c **** }
 1373              		.loc 1 636 0
 1374 00a2 0123     		movs	r3, #1
 1375              	.LVL106:
 1376              	.L118:
 637:../../../../../../Middlewares/Third_Party/LoRaWAN/Mac/region/RegionAS923.c **** 
 1377              		.loc 1 637 0
 1378 00a4 1800     		movs	r0, r3
 1379 00a6 0CB0     		add	sp, sp, #48
 1380              		@ sp needed
 1381              	.LVL107:
 1382              	.LVL108:
 1383              	.LVL109:
 1384              	.LVL110:
 1385 00a8 1CBC     		pop	{r2, r3, r4}
 1386 00aa 9046     		mov	r8, r2
 1387 00ac 9946     		mov	r9, r3
 1388 00ae A246     		mov	r10, r4
 1389 00b0 F0BD     		pop	{r4, r5, r6, r7, pc}
 1390              	.LVL111:
 1391              	.L122:
 629:../../../../../../Middlewares/Third_Party/LoRaWAN/Mac/region/RegionAS923.c ****     }
 1392              		.loc 1 629 0
 1393 00b2 134B     		ldr	r3, .L127+12
 1394 00b4 995D     		ldrb	r1, [r3, r6]
 1395              	.LVL112:
 1396 00b6 EDE7     		b	.L123
 1397              	.LVL113:
 1398              	.L126:
 614:../../../../../../Middlewares/Third_Party/LoRaWAN/Mac/region/RegionAS923.c ****     }
 1399              		.loc 1 614 0
 1400 00b8 4B46     		mov	r3, r9
 1401 00ba 5A01     		lsls	r2, r3, #5
 1402 00bc D21A     		subs	r2, r2, r3
 1403 00be A37C     		ldrb	r3, [r4, #18]
 1404 00c0 0121     		movs	r1, #1
 1405 00c2 0993     		str	r3, [sp, #36]
 1406 00c4 0023     		movs	r3, #0
 1407 00c6 0893     		str	r3, [sp, #32]
 1408 00c8 0793     		str	r3, [sp, #28]
ARM GAS  C:\Users\EBANO_~1\AppData\Local\Temp\cc2nkIni.s 			page 47


 1409 00ca 0693     		str	r3, [sp, #24]
 1410 00cc 0493     		str	r3, [sp, #16]
 1411 00ce 0393     		str	r3, [sp, #12]
 1412 00d0 2389     		ldrh	r3, [r4, #8]
 1413 00d2 9200     		lsls	r2, r2, #2
 1414 00d4 0293     		str	r3, [sp, #8]
 1415 00d6 0523     		movs	r3, #5
 1416 00d8 0193     		str	r3, [sp, #4]
 1417 00da 0A4B     		ldr	r3, .L127+16
 1418 00dc 4A44     		add	r2, r2, r9
 1419 00de 0591     		str	r1, [sp, #20]
 1420 00e0 0093     		str	r3, [sp]
 1421 00e2 0020     		movs	r0, #0
 1422 00e4 D200     		lsls	r2, r2, #3
 1423 00e6 0023     		movs	r3, #0
 1424 00e8 0749     		ldr	r1, .L127+20
 1425 00ea B847     		blx	r7
 1426              	.LVL114:
 613:../../../../../../Middlewares/Third_Party/LoRaWAN/Mac/region/RegionAS923.c ****         Radio.SetRxConfig( modem, 50000, phyDr * 1000, 0, 83333, 5, rxConfig->WindowTimeout, false,
 1427              		.loc 1 613 0
 1428 00ec 0020     		movs	r0, #0
 1429 00ee CBE7     		b	.L121
 1430              	.LVL115:
 1431              	.L125:
 597:../../../../../../Middlewares/Third_Party/LoRaWAN/Mac/region/RegionAS923.c ****         // Apply the alternative RX 1 window frequency, if it is available
 1432              		.loc 1 597 0
 1433 00f0 8846     		mov	r8, r1
 1434 00f2 A6E7     		b	.L119
 1435              	.L128:
 1436              		.align	2
 1437              	.L127:
 1438 00f4 00000000 		.word	Radio
 1439 00f8 00000000 		.word	NvmCtx
 1440 00fc EC000000 		.word	.LANCHOR1
 1441 0100 1C010000 		.word	.LANCHOR0
 1442 0104 85450100 		.word	83333
 1443 0108 50C30000 		.word	50000
 1444              		.cfi_endproc
 1445              	.LFE52:
 1446              		.size	RegionAS923RxConfig, .-RegionAS923RxConfig
 1447              		.section	.text.RegionAS923TxConfig,"ax",%progbits
 1448              		.align	1
 1449              		.p2align 2,,3
 1450              		.global	RegionAS923TxConfig
 1451              		.syntax unified
 1452              		.code	16
 1453              		.thumb_func
 1454              		.fpu softvfp
 1455              		.type	RegionAS923TxConfig, %function
 1456              	RegionAS923TxConfig:
 1457              	.LFB53:
 640:../../../../../../Middlewares/Third_Party/LoRaWAN/Mac/region/RegionAS923.c ****     RadioModems_t modem;
 1458              		.loc 1 640 0
 1459              		.cfi_startproc
 1460              		@ args = 0, pretend = 0, frame = 8
 1461              		@ frame_needed = 0, uses_anonymous_args = 0
 1462              	.LVL116:
ARM GAS  C:\Users\EBANO_~1\AppData\Local\Temp\cc2nkIni.s 			page 48


 1463 0000 F0B5     		push	{r4, r5, r6, r7, lr}
 1464              	.LCFI16:
 1465              		.cfi_def_cfa_offset 20
 1466              		.cfi_offset 4, -20
 1467              		.cfi_offset 5, -16
 1468              		.cfi_offset 6, -12
 1469              		.cfi_offset 7, -8
 1470              		.cfi_offset 14, -4
 1471 0002 4546     		mov	r5, r8
 1472 0004 5746     		mov	r7, r10
 1473 0006 4E46     		mov	r6, r9
 1474 0008 DE46     		mov	lr, fp
 1475 000a 9046     		mov	r8, r2
 642:../../../../../../Middlewares/Third_Party/LoRaWAN/Mac/region/RegionAS923.c ****     int8_t txPowerLimited = LimitTxPower( txConfig->TxPower, NvmCtx.Bands[NvmCtx.Channels[txConfig-
 1476              		.loc 1 642 0
 1477 000c 0122     		movs	r2, #1
 1478              	.LVL117:
 640:../../../../../../Middlewares/Third_Party/LoRaWAN/Mac/region/RegionAS923.c ****     RadioModems_t modem;
 1479              		.loc 1 640 0
 1480 000e 0400     		movs	r4, r0
 642:../../../../../../Middlewares/Third_Party/LoRaWAN/Mac/region/RegionAS923.c ****     int8_t txPowerLimited = LimitTxPower( txConfig->TxPower, NvmCtx.Bands[NvmCtx.Channels[txConfig-
 1481              		.loc 1 642 0
 1482 0010 2023     		movs	r3, #32
 640:../../../../../../Middlewares/Third_Party/LoRaWAN/Mac/region/RegionAS923.c ****     RadioModems_t modem;
 1483              		.loc 1 640 0
 1484 0012 E0B5     		push	{r5, r6, r7, lr}
 1485              	.LCFI17:
 1486              		.cfi_def_cfa_offset 36
 1487              		.cfi_offset 8, -36
 1488              		.cfi_offset 9, -32
 1489              		.cfi_offset 10, -28
 1490              		.cfi_offset 11, -24
 1491 0014 8DB0     		sub	sp, sp, #52
 1492              	.LCFI18:
 1493              		.cfi_def_cfa_offset 88
 640:../../../../../../Middlewares/Third_Party/LoRaWAN/Mac/region/RegionAS923.c ****     RadioModems_t modem;
 1494              		.loc 1 640 0
 1495 0016 0A91     		str	r1, [sp, #40]
 642:../../../../../../Middlewares/Third_Party/LoRaWAN/Mac/region/RegionAS923.c ****     int8_t txPowerLimited = LimitTxPower( txConfig->TxPower, NvmCtx.Bands[NvmCtx.Channels[txConfig-
 1496              		.loc 1 642 0
 1497 0018 8256     		ldrsb	r2, [r0, r2]
 1498 001a 4149     		ldr	r1, .L138
 1499              	.LVL118:
 643:../../../../../../Middlewares/Third_Party/LoRaWAN/Mac/region/RegionAS923.c ****     uint32_t bandwidth = GetBandwidth( txConfig->Datarate );
 1500              		.loc 1 643 0
 1501 001c 414D     		ldr	r5, .L138+4
 642:../../../../../../Middlewares/Third_Party/LoRaWAN/Mac/region/RegionAS923.c ****     int8_t txPowerLimited = LimitTxPower( txConfig->TxPower, NvmCtx.Bands[NvmCtx.Channels[txConfig-
 1502              		.loc 1 642 0
 1503 001e 8818     		adds	r0, r1, r2
 1504              	.LVL119:
 1505 0020 C656     		ldrsb	r6, [r0, r3]
 1506              	.LVL120:
 643:../../../../../../Middlewares/Third_Party/LoRaWAN/Mac/region/RegionAS923.c ****     uint32_t bandwidth = GetBandwidth( txConfig->Datarate );
 1507              		.loc 1 643 0
 1508 0022 2078     		ldrb	r0, [r4]
 1509              	.LVL121:
 1510 0024 4300     		lsls	r3, r0, #1
ARM GAS  C:\Users\EBANO_~1\AppData\Local\Temp\cc2nkIni.s 			page 49


 1511 0026 1B18     		adds	r3, r3, r0
 1512              	.LBB57:
 1513              	.LBB58:
 103:../../../../../../Middlewares/Third_Party/LoRaWAN/Mac/region/RegionAS923.c **** 
 1514              		.loc 1 103 0
 1515 0028 A078     		ldrb	r0, [r4, #2]
 1516              	.LVL122:
 1517              	.LBE58:
 1518              	.LBE57:
 643:../../../../../../Middlewares/Third_Party/LoRaWAN/Mac/region/RegionAS923.c ****     uint32_t bandwidth = GetBandwidth( txConfig->Datarate );
 1519              		.loc 1 643 0
 1520 002a 9B00     		lsls	r3, r3, #2
 1521              	.LBB63:
 1522              	.LBB59:
 103:../../../../../../Middlewares/Third_Party/LoRaWAN/Mac/region/RegionAS923.c **** 
 1523              		.loc 1 103 0
 1524 002c 8446     		mov	ip, r0
 1525 002e 6746     		mov	r7, ip
 1526              	.LBE59:
 1527              	.LBE63:
 643:../../../../../../Middlewares/Third_Party/LoRaWAN/Mac/region/RegionAS923.c ****     uint32_t bandwidth = GetBandwidth( txConfig->Datarate );
 1528              		.loc 1 643 0
 1529 0030 EB18     		adds	r3, r5, r3
 1530 0032 5B7A     		ldrb	r3, [r3, #9]
 1531              	.LBB64:
 1532              	.LBB60:
 103:../../../../../../Middlewares/Third_Party/LoRaWAN/Mac/region/RegionAS923.c **** 
 1533              		.loc 1 103 0
 1534 0034 7FB2     		sxtb	r7, r7
 1535              	.LBE60:
 1536              	.LBE64:
 643:../../../../../../Middlewares/Third_Party/LoRaWAN/Mac/region/RegionAS923.c ****     uint32_t bandwidth = GetBandwidth( txConfig->Datarate );
 1537              		.loc 1 643 0
 1538 0036 0C33     		adds	r3, r3, #12
 1539 0038 1B01     		lsls	r3, r3, #4
 1540 003a EB18     		adds	r3, r5, r3
 1541              	.LBB65:
 1542              	.LBB61:
 103:../../../../../../Middlewares/Third_Party/LoRaWAN/Mac/region/RegionAS923.c **** 
 1543              		.loc 1 103 0
 1544 003c 9B78     		ldrb	r3, [r3, #2]
 1545 003e 181C     		adds	r0, r3, #0
 1546 0040 5BB2     		sxtb	r3, r3
 1547 0042 BB42     		cmp	r3, r7
 1548 0044 00DA     		bge	.L130
 1549 0046 6046     		mov	r0, ip
 1550              	.L130:
 1551 0048 43B2     		sxtb	r3, r0
 1552              	.LBE61:
 1553              	.LBE65:
 1554              	.LBB66:
 1555              	.LBB67:
  86:../../../../../../Middlewares/Third_Party/LoRaWAN/Mac/region/RegionAS923.c ****     {
 1556              		.loc 1 86 0
 1557 004a 9200     		lsls	r2, r2, #2
 1558              	.LVL123:
 1559              	.LBE67:
ARM GAS  C:\Users\EBANO_~1\AppData\Local\Temp\cc2nkIni.s 			page 50


 1560              	.LBE66:
 1561              	.LBB70:
 1562              	.LBB62:
 103:../../../../../../Middlewares/Third_Party/LoRaWAN/Mac/region/RegionAS923.c **** 
 1563              		.loc 1 103 0
 1564 004c 9946     		mov	r9, r3
 1565              	.LVL124:
 1566              	.LBE62:
 1567              	.LBE70:
 1568              	.LBB71:
 1569              	.LBB68:
  86:../../../../../../Middlewares/Third_Party/LoRaWAN/Mac/region/RegionAS923.c ****     {
 1570              		.loc 1 86 0
 1571 004e 8B58     		ldr	r3, [r1, r2]
 1572 0050 354A     		ldr	r2, .L138+8
 1573 0052 9342     		cmp	r3, r2
 1574 0054 46D0     		beq	.L136
  90:../../../../../../Middlewares/Third_Party/LoRaWAN/Mac/region/RegionAS923.c ****         case 250000:
 1575              		.loc 1 90 0
 1576 0056 354A     		ldr	r2, .L138+12
 1577 0058 9446     		mov	ip, r2
 1578 005a 6344     		add	r3, r3, ip
 1579 005c 5A42     		rsbs	r2, r3, #0
 1580 005e 5341     		adcs	r3, r3, r2
 1581 0060 5B00     		lsls	r3, r3, #1
 1582 0062 9A46     		mov	r10, r3
 1583              	.L132:
 1584              	.LVL125:
 1585              	.LBE68:
 1586              	.LBE71:
 648:../../../../../../Middlewares/Third_Party/LoRaWAN/Mac/region/RegionAS923.c **** 
 1587              		.loc 1 648 0
 1588 0064 A268     		ldr	r2, [r4, #8]
 1589 0066 6168     		ldr	r1, [r4, #4]
 1590 0068 4846     		mov	r0, r9
 1591 006a FFF7FEFF 		bl	RegionCommonComputeTxPower
 1592              	.LVL126:
 651:../../../../../../Middlewares/Third_Party/LoRaWAN/Mac/region/RegionAS923.c **** 
 1593              		.loc 1 651 0
 1594 006e 2278     		ldrb	r2, [r4]
 648:../../../../../../Middlewares/Third_Party/LoRaWAN/Mac/region/RegionAS923.c **** 
 1595              		.loc 1 648 0
 1596 0070 8346     		mov	fp, r0
 1597              	.LVL127:
 651:../../../../../../Middlewares/Third_Party/LoRaWAN/Mac/region/RegionAS923.c **** 
 1598              		.loc 1 651 0
 1599 0072 5300     		lsls	r3, r2, #1
 1600 0074 9B18     		adds	r3, r3, r2
 1601 0076 9B00     		lsls	r3, r3, #2
 1602 0078 E858     		ldr	r0, [r5, r3]
 1603 007a 2D4D     		ldr	r5, .L138+16
 1604 007c 6B69     		ldr	r3, [r5, #20]
 1605 007e 0B93     		str	r3, [sp, #44]
 1606 0080 9847     		blx	r3
 1607              	.LVL128:
 1608 0082 6B6A     		ldr	r3, [r5, #36]
 1609 0084 0B93     		str	r3, [sp, #44]
ARM GAS  C:\Users\EBANO_~1\AppData\Local\Temp\cc2nkIni.s 			page 51


 653:../../../../../../Middlewares/Third_Party/LoRaWAN/Mac/region/RegionAS923.c ****     { // High Speed FSK channel
 1610              		.loc 1 653 0
 1611 0086 0123     		movs	r3, #1
 1612 0088 E356     		ldrsb	r3, [r4, r3]
 1613 008a 072B     		cmp	r3, #7
 1614 008c 2DD0     		beq	.L137
 1615              	.LVL129:
 661:../../../../../../Middlewares/Third_Party/LoRaWAN/Mac/region/RegionAS923.c ****     }
 1616              		.loc 1 661 0
 1617 008e 294B     		ldr	r3, .L138+20
 1618 0090 0122     		movs	r2, #1
 1619 0092 0893     		str	r3, [sp, #32]
 1620 0094 0023     		movs	r3, #0
 1621 0096 0793     		str	r3, [sp, #28]
 1622 0098 0693     		str	r3, [sp, #24]
 1623 009a 0593     		str	r3, [sp, #20]
 1624 009c 0393     		str	r3, [sp, #12]
 1625 009e 0833     		adds	r3, r3, #8
 1626 00a0 0492     		str	r2, [sp, #16]
 1627 00a2 0293     		str	r3, [sp, #8]
 1628 00a4 0192     		str	r2, [sp, #4]
 1629 00a6 0096     		str	r6, [sp]
 1630 00a8 5346     		mov	r3, r10
 1631 00aa 0B9E     		ldr	r6, [sp, #44]
 1632              	.LVL130:
 1633 00ac 0022     		movs	r2, #0
 1634 00ae 5946     		mov	r1, fp
 1635 00b0 0120     		movs	r0, #1
 1636 00b2 B047     		blx	r6
 1637              	.LVL131:
 660:../../../../../../Middlewares/Third_Party/LoRaWAN/Mac/region/RegionAS923.c ****         Radio.SetTxConfig( modem, phyTxPower, 0, bandwidth, phyDr, 1, 8, false, true, 0, 0, false, 
 1638              		.loc 1 660 0
 1639 00b4 0126     		movs	r6, #1
 1640              	.LVL132:
 1641              	.L135:
 665:../../../../../../Middlewares/Third_Party/LoRaWAN/Mac/region/RegionAS923.c ****     // Get the time-on-air of the next tx frame
 1642              		.loc 1 665 0
 1643 00b6 EB6D     		ldr	r3, [r5, #92]
 1644 00b8 217B     		ldrb	r1, [r4, #12]
 1645 00ba 3000     		movs	r0, r6
 1646 00bc 0B93     		str	r3, [sp, #44]
 1647 00be 9847     		blx	r3
 1648              	.LVL133:
 667:../../../../../../Middlewares/Third_Party/LoRaWAN/Mac/region/RegionAS923.c **** 
 1649              		.loc 1 667 0
 1650 00c0 EB6A     		ldr	r3, [r5, #44]
 1651 00c2 217B     		ldrb	r1, [r4, #12]
 1652 00c4 3000     		movs	r0, r6
 1653 00c6 0B93     		str	r3, [sp, #44]
 1654 00c8 9847     		blx	r3
 1655              	.LVL134:
 1656 00ca 4346     		mov	r3, r8
 1657 00cc 1860     		str	r0, [r3]
 669:../../../../../../Middlewares/Third_Party/LoRaWAN/Mac/region/RegionAS923.c ****     return true;
 1658              		.loc 1 669 0
 1659 00ce 4B46     		mov	r3, r9
 671:../../../../../../Middlewares/Third_Party/LoRaWAN/Mac/region/RegionAS923.c **** 
ARM GAS  C:\Users\EBANO_~1\AppData\Local\Temp\cc2nkIni.s 			page 52


 1660              		.loc 1 671 0
 1661 00d0 0120     		movs	r0, #1
 669:../../../../../../Middlewares/Third_Party/LoRaWAN/Mac/region/RegionAS923.c ****     return true;
 1662              		.loc 1 669 0
 1663 00d2 0A9A     		ldr	r2, [sp, #40]
 1664 00d4 1370     		strb	r3, [r2]
 671:../../../../../../Middlewares/Third_Party/LoRaWAN/Mac/region/RegionAS923.c **** 
 1665              		.loc 1 671 0
 1666 00d6 0DB0     		add	sp, sp, #52
 1667              		@ sp needed
 1668              	.LVL135:
 1669              	.LVL136:
 1670              	.LVL137:
 1671              	.LVL138:
 1672 00d8 3CBC     		pop	{r2, r3, r4, r5}
 1673 00da 9046     		mov	r8, r2
 1674 00dc 9946     		mov	r9, r3
 1675 00de A246     		mov	r10, r4
 1676 00e0 AB46     		mov	fp, r5
 1677 00e2 F0BD     		pop	{r4, r5, r6, r7, pc}
 1678              	.LVL139:
 1679              	.L136:
 1680              	.LBB72:
 1681              	.LBB69:
  92:../../../../../../Middlewares/Third_Party/LoRaWAN/Mac/region/RegionAS923.c ****         case 500000:
 1682              		.loc 1 92 0
 1683 00e4 0123     		movs	r3, #1
 1684              	.LVL140:
 1685 00e6 9A46     		mov	r10, r3
 1686 00e8 BCE7     		b	.L132
 1687              	.LVL141:
 1688              	.L137:
 1689              	.LBE69:
 1690              	.LBE72:
 656:../../../../../../Middlewares/Third_Party/LoRaWAN/Mac/region/RegionAS923.c ****     }
 1691              		.loc 1 656 0
 1692 00ea 124B     		ldr	r3, .L138+20
 1693 00ec 0122     		movs	r2, #1
 1694 00ee 0893     		str	r3, [sp, #32]
 1695 00f0 0023     		movs	r3, #0
 1696 00f2 0793     		str	r3, [sp, #28]
 1697 00f4 0693     		str	r3, [sp, #24]
 1698 00f6 0593     		str	r3, [sp, #20]
 1699 00f8 0393     		str	r3, [sp, #12]
 1700 00fa 0193     		str	r3, [sp, #4]
 1701 00fc 7301     		lsls	r3, r6, #5
 1702 00fe 9B1B     		subs	r3, r3, r6
 1703 0100 9B00     		lsls	r3, r3, #2
 1704 0102 9E19     		adds	r6, r3, r6
 1705              	.LVL142:
 1706 0104 0492     		str	r2, [sp, #16]
 1707 0106 F600     		lsls	r6, r6, #3
 1708 0108 0432     		adds	r2, r2, #4
 1709 010a 0292     		str	r2, [sp, #8]
 1710 010c 0096     		str	r6, [sp]
 1711 010e 5346     		mov	r3, r10
 1712 0110 0B9E     		ldr	r6, [sp, #44]
ARM GAS  C:\Users\EBANO_~1\AppData\Local\Temp\cc2nkIni.s 			page 53


 1713 0112 094A     		ldr	r2, .L138+24
 1714 0114 5946     		mov	r1, fp
 1715 0116 0020     		movs	r0, #0
 1716 0118 B047     		blx	r6
 1717              	.LVL143:
 655:../../../../../../Middlewares/Third_Party/LoRaWAN/Mac/region/RegionAS923.c ****         Radio.SetTxConfig( modem, phyTxPower, 25000, bandwidth, phyDr * 1000, 0, 5, false, true, 0,
 1718              		.loc 1 655 0
 1719 011a 0026     		movs	r6, #0
 1720 011c CBE7     		b	.L135
 1721              	.L139:
 1722 011e C046     		.align	2
 1723              	.L138:
 1724 0120 EC000000 		.word	.LANCHOR1
 1725 0124 00000000 		.word	NvmCtx
 1726 0128 90D00300 		.word	250000
 1727 012c E05EF8FF 		.word	-500000
 1728 0130 00000000 		.word	Radio
 1729 0134 B80B0000 		.word	3000
 1730 0138 A8610000 		.word	25000
 1731              		.cfi_endproc
 1732              	.LFE53:
 1733              		.size	RegionAS923TxConfig, .-RegionAS923TxConfig
 1734              		.section	.text.RegionAS923LinkAdrReq,"ax",%progbits
 1735              		.align	1
 1736              		.p2align 2,,3
 1737              		.global	RegionAS923LinkAdrReq
 1738              		.syntax unified
 1739              		.code	16
 1740              		.thumb_func
 1741              		.fpu softvfp
 1742              		.type	RegionAS923LinkAdrReq, %function
 1743              	RegionAS923LinkAdrReq:
 1744              	.LFB54:
 674:../../../../../../Middlewares/Third_Party/LoRaWAN/Mac/region/RegionAS923.c ****     uint8_t status = 0x07;
 1745              		.loc 1 674 0
 1746              		.cfi_startproc
 1747              		@ args = 4, pretend = 0, frame = 64
 1748              		@ frame_needed = 0, uses_anonymous_args = 0
 1749              	.LVL144:
 1750 0000 F0B5     		push	{r4, r5, r6, r7, lr}
 1751              	.LCFI19:
 1752              		.cfi_def_cfa_offset 20
 1753              		.cfi_offset 4, -20
 1754              		.cfi_offset 5, -16
 1755              		.cfi_offset 6, -12
 1756              		.cfi_offset 7, -8
 1757              		.cfi_offset 14, -4
 1758 0002 5746     		mov	r7, r10
 1759 0004 4E46     		mov	r6, r9
 1760 0006 4546     		mov	r5, r8
 1761 0008 DE46     		mov	lr, fp
 1762 000a E0B5     		push	{r5, r6, r7, lr}
 1763              	.LCFI20:
 1764              		.cfi_def_cfa_offset 36
 1765              		.cfi_offset 8, -36
 1766              		.cfi_offset 9, -32
 1767              		.cfi_offset 10, -28
ARM GAS  C:\Users\EBANO_~1\AppData\Local\Temp\cc2nkIni.s 			page 54


 1768              		.cfi_offset 11, -24
 1769 000c 91B0     		sub	sp, sp, #68
 1770              	.LCFI21:
 1771              		.cfi_def_cfa_offset 104
 674:../../../../../../Middlewares/Third_Party/LoRaWAN/Mac/region/RegionAS923.c ****     uint8_t status = 0x07;
 1772              		.loc 1 674 0
 1773 000e 0193     		str	r3, [sp, #4]
 679:../../../../../../Middlewares/Third_Party/LoRaWAN/Mac/region/RegionAS923.c ****     GetPhyParams_t getPhy;
 1774              		.loc 1 679 0
 1775 0010 0023     		movs	r3, #0
 1776              	.LVL145:
 674:../../../../../../Middlewares/Third_Party/LoRaWAN/Mac/region/RegionAS923.c ****     uint8_t status = 0x07;
 1777              		.loc 1 674 0
 1778 0012 9246     		mov	r10, r2
 679:../../../../../../Middlewares/Third_Party/LoRaWAN/Mac/region/RegionAS923.c ****     GetPhyParams_t getPhy;
 1779              		.loc 1 679 0
 1780 0014 02AA     		add	r2, sp, #8
 1781              	.LVL146:
 1782 0016 D380     		strh	r3, [r2, #6]
 675:../../../../../../Middlewares/Third_Party/LoRaWAN/Mac/region/RegionAS923.c ****     RegionCommonLinkAdrParams_t linkAdrParams;
 1783              		.loc 1 675 0
 1784 0018 0733     		adds	r3, r3, #7
 674:../../../../../../Middlewares/Third_Party/LoRaWAN/Mac/region/RegionAS923.c ****     uint8_t status = 0x07;
 1785              		.loc 1 674 0
 1786 001a 0600     		movs	r6, r0
 1787 001c 8B46     		mov	fp, r1
 678:../../../../../../Middlewares/Third_Party/LoRaWAN/Mac/region/RegionAS923.c ****     uint16_t chMask = 0;
 1788              		.loc 1 678 0
 1789 001e 0024     		movs	r4, #0
 675:../../../../../../Middlewares/Third_Party/LoRaWAN/Mac/region/RegionAS923.c ****     RegionCommonLinkAdrParams_t linkAdrParams;
 1790              		.loc 1 675 0
 1791 0020 9946     		mov	r9, r3
 1792              	.LBB73:
 718:../../../../../../Middlewares/Third_Party/LoRaWAN/Mac/region/RegionAS923.c ****                     {
 1793              		.loc 1 718 0
 1794 0022 9846     		mov	r8, r3
 1795 0024 B84F     		ldr	r7, .L296
 1796 0026 06AD     		add	r5, sp, #24
 1797              	.LVL147:
 1798              	.L141:
 1799              	.LBE73:
 684:../../../../../../Middlewares/Third_Party/LoRaWAN/Mac/region/RegionAS923.c ****     {
 1800              		.loc 1 684 0
 1801 0028 337A     		ldrb	r3, [r6, #8]
 1802 002a A342     		cmp	r3, r4
 1803 002c 00D8     		bhi	.LCB1650
 1804 002e 93E0     		b	.L186	@long jump
 1805              	.LCB1650:
 1806              	.L185:
 687:../../../../../../Middlewares/Third_Party/LoRaWAN/Mac/region/RegionAS923.c **** 
 1807              		.loc 1 687 0
 1808 0030 7368     		ldr	r3, [r6, #4]
 1809 0032 2900     		movs	r1, r5
 1810 0034 1819     		adds	r0, r3, r4
 1811 0036 FFF7FEFF 		bl	RegionCommonParseLinkAdrReq
 1812              	.LVL148:
 689:../../../../../../Middlewares/Third_Party/LoRaWAN/Mac/region/RegionAS923.c ****             break; // break loop, since no more request has been found
ARM GAS  C:\Users\EBANO_~1\AppData\Local\Temp\cc2nkIni.s 			page 55


 1813              		.loc 1 689 0
 1814 003a 0028     		cmp	r0, #0
 1815 003c 00D1     		bne	.LCB1662
 1816 003e 8BE0     		b	.L186	@long jump
 1817              	.LCB1662:
 699:../../../../../../Middlewares/Third_Party/LoRaWAN/Mac/region/RegionAS923.c **** 
 1818              		.loc 1 699 0
 1819 0040 AB88     		ldrh	r3, [r5, #4]
 1820 0042 02AA     		add	r2, sp, #8
 1821 0044 D380     		strh	r3, [r2, #6]
 702:../../../../../../Middlewares/Third_Party/LoRaWAN/Mac/region/RegionAS923.c ****         {
 1822              		.loc 1 702 0
 1823 0046 EA78     		ldrb	r2, [r5, #3]
 693:../../../../../../Middlewares/Third_Party/LoRaWAN/Mac/region/RegionAS923.c **** 
 1824              		.loc 1 693 0
 1825 0048 2418     		adds	r4, r4, r0
 1826              	.LVL149:
 1827 004a E4B2     		uxtb	r4, r4
 1828              	.LVL150:
 699:../../../../../../Middlewares/Third_Party/LoRaWAN/Mac/region/RegionAS923.c **** 
 1829              		.loc 1 699 0
 1830 004c 181C     		adds	r0, r3, #0
 1831              	.LVL151:
 702:../../../../../../Middlewares/Third_Party/LoRaWAN/Mac/region/RegionAS923.c ****         {
 1832              		.loc 1 702 0
 1833 004e 002A     		cmp	r2, #0
 1834 0050 00D0     		beq	.LCB1675
 1835 0052 C6E0     		b	.L145	@long jump
 1836              	.LCB1675:
 704:../../../../../../Middlewares/Third_Party/LoRaWAN/Mac/region/RegionAS923.c ****         }
 1837              		.loc 1 704 0 discriminator 1
 1838 0054 0632     		adds	r2, r2, #6
 1839 0056 9146     		mov	r9, r2
 702:../../../../../../Middlewares/Third_Party/LoRaWAN/Mac/region/RegionAS923.c ****         {
 1840              		.loc 1 702 0 discriminator 1
 1841 0058 002B     		cmp	r3, #0
 1842 005a E5D0     		beq	.L141
 1843              	.LVL152:
 1844              	.LBB74:
 725:../../../../../../Middlewares/Third_Party/LoRaWAN/Mac/region/RegionAS923.c ****                         ( NvmCtx.Channels[i].Frequency == 0 ) )
 1845              		.loc 1 725 0
 1846 005c 0722     		movs	r2, #7
 1847 005e 9146     		mov	r9, r2
 1848 0060 DA07     		lsls	r2, r3, #31
 1849 0062 04D5     		bpl	.L149
 1850 0064 3A68     		ldr	r2, [r7]
 1851 0066 511E     		subs	r1, r2, #1
 1852 0068 8A41     		sbcs	r2, r2, r1
 1853 006a 0632     		adds	r2, r2, #6
 1854 006c 9146     		mov	r9, r2
 1855              	.L149:
 1856              	.LVL153:
 1857 006e 9A07     		lsls	r2, r3, #30
 1858 0070 04D5     		bpl	.L150
 1859 0072 FA68     		ldr	r2, [r7, #12]
 1860 0074 002A     		cmp	r2, #0
 1861 0076 01D1     		bne	.L150
ARM GAS  C:\Users\EBANO_~1\AppData\Local\Temp\cc2nkIni.s 			page 56


 728:../../../../../../Middlewares/Third_Party/LoRaWAN/Mac/region/RegionAS923.c ****                     }
 1862              		.loc 1 728 0
 1863 0078 0632     		adds	r2, r2, #6
 1864 007a 9146     		mov	r9, r2
 1865              	.LVL154:
 1866              	.L150:
 725:../../../../../../Middlewares/Third_Party/LoRaWAN/Mac/region/RegionAS923.c ****                         ( NvmCtx.Channels[i].Frequency == 0 ) )
 1867              		.loc 1 725 0
 1868 007c 5A07     		lsls	r2, r3, #29
 1869 007e 04D5     		bpl	.L151
 1870 0080 BA69     		ldr	r2, [r7, #24]
 1871 0082 002A     		cmp	r2, #0
 1872 0084 01D1     		bne	.L151
 728:../../../../../../Middlewares/Third_Party/LoRaWAN/Mac/region/RegionAS923.c ****                     }
 1873              		.loc 1 728 0
 1874 0086 0632     		adds	r2, r2, #6
 1875 0088 9146     		mov	r9, r2
 1876              	.LVL155:
 1877              	.L151:
 725:../../../../../../Middlewares/Third_Party/LoRaWAN/Mac/region/RegionAS923.c ****                         ( NvmCtx.Channels[i].Frequency == 0 ) )
 1878              		.loc 1 725 0
 1879 008a 1A07     		lsls	r2, r3, #28
 1880 008c 04D5     		bpl	.L152
 1881 008e 7A6A     		ldr	r2, [r7, #36]
 1882 0090 002A     		cmp	r2, #0
 1883 0092 01D1     		bne	.L152
 728:../../../../../../Middlewares/Third_Party/LoRaWAN/Mac/region/RegionAS923.c ****                     }
 1884              		.loc 1 728 0
 1885 0094 0632     		adds	r2, r2, #6
 1886 0096 9146     		mov	r9, r2
 1887              	.LVL156:
 1888              	.L152:
 725:../../../../../../Middlewares/Third_Party/LoRaWAN/Mac/region/RegionAS923.c ****                         ( NvmCtx.Channels[i].Frequency == 0 ) )
 1889              		.loc 1 725 0
 1890 0098 DA06     		lsls	r2, r3, #27
 1891 009a 04D5     		bpl	.L153
 1892 009c 3A6B     		ldr	r2, [r7, #48]
 1893 009e 002A     		cmp	r2, #0
 1894 00a0 01D1     		bne	.L153
 728:../../../../../../Middlewares/Third_Party/LoRaWAN/Mac/region/RegionAS923.c ****                     }
 1895              		.loc 1 728 0
 1896 00a2 0632     		adds	r2, r2, #6
 1897 00a4 9146     		mov	r9, r2
 1898              	.LVL157:
 1899              	.L153:
 725:../../../../../../Middlewares/Third_Party/LoRaWAN/Mac/region/RegionAS923.c ****                         ( NvmCtx.Channels[i].Frequency == 0 ) )
 1900              		.loc 1 725 0
 1901 00a6 9A06     		lsls	r2, r3, #26
 1902 00a8 04D5     		bpl	.L154
 1903 00aa FA6B     		ldr	r2, [r7, #60]
 1904 00ac 002A     		cmp	r2, #0
 1905 00ae 01D1     		bne	.L154
 728:../../../../../../Middlewares/Third_Party/LoRaWAN/Mac/region/RegionAS923.c ****                     }
 1906              		.loc 1 728 0
 1907 00b0 0632     		adds	r2, r2, #6
 1908 00b2 9146     		mov	r9, r2
 1909              	.LVL158:
ARM GAS  C:\Users\EBANO_~1\AppData\Local\Temp\cc2nkIni.s 			page 57


 1910              	.L154:
 725:../../../../../../Middlewares/Third_Party/LoRaWAN/Mac/region/RegionAS923.c ****                         ( NvmCtx.Channels[i].Frequency == 0 ) )
 1911              		.loc 1 725 0
 1912 00b4 5A06     		lsls	r2, r3, #25
 1913 00b6 04D5     		bpl	.L155
 1914 00b8 BA6C     		ldr	r2, [r7, #72]
 1915 00ba 002A     		cmp	r2, #0
 1916 00bc 01D1     		bne	.L155
 728:../../../../../../Middlewares/Third_Party/LoRaWAN/Mac/region/RegionAS923.c ****                     }
 1917              		.loc 1 728 0
 1918 00be 0632     		adds	r2, r2, #6
 1919 00c0 9146     		mov	r9, r2
 1920              	.LVL159:
 1921              	.L155:
 725:../../../../../../Middlewares/Third_Party/LoRaWAN/Mac/region/RegionAS923.c ****                         ( NvmCtx.Channels[i].Frequency == 0 ) )
 1922              		.loc 1 725 0
 1923 00c2 1A06     		lsls	r2, r3, #24
 1924 00c4 04D5     		bpl	.L156
 1925 00c6 7A6D     		ldr	r2, [r7, #84]
 1926 00c8 002A     		cmp	r2, #0
 1927 00ca 01D1     		bne	.L156
 728:../../../../../../Middlewares/Third_Party/LoRaWAN/Mac/region/RegionAS923.c ****                     }
 1928              		.loc 1 728 0
 1929 00cc 0632     		adds	r2, r2, #6
 1930 00ce 9146     		mov	r9, r2
 1931              	.LVL160:
 1932              	.L156:
 725:../../../../../../Middlewares/Third_Party/LoRaWAN/Mac/region/RegionAS923.c ****                         ( NvmCtx.Channels[i].Frequency == 0 ) )
 1933              		.loc 1 725 0
 1934 00d0 DA05     		lsls	r2, r3, #23
 1935 00d2 04D5     		bpl	.L157
 1936 00d4 3A6E     		ldr	r2, [r7, #96]
 1937 00d6 002A     		cmp	r2, #0
 1938 00d8 01D1     		bne	.L157
 728:../../../../../../Middlewares/Third_Party/LoRaWAN/Mac/region/RegionAS923.c ****                     }
 1939              		.loc 1 728 0
 1940 00da 0632     		adds	r2, r2, #6
 1941 00dc 9146     		mov	r9, r2
 1942              	.LVL161:
 1943              	.L157:
 725:../../../../../../Middlewares/Third_Party/LoRaWAN/Mac/region/RegionAS923.c ****                         ( NvmCtx.Channels[i].Frequency == 0 ) )
 1944              		.loc 1 725 0
 1945 00de 9A05     		lsls	r2, r3, #22
 1946 00e0 04D5     		bpl	.L158
 1947 00e2 FA6E     		ldr	r2, [r7, #108]
 1948 00e4 002A     		cmp	r2, #0
 1949 00e6 01D1     		bne	.L158
 728:../../../../../../Middlewares/Third_Party/LoRaWAN/Mac/region/RegionAS923.c ****                     }
 1950              		.loc 1 728 0
 1951 00e8 0632     		adds	r2, r2, #6
 1952 00ea 9146     		mov	r9, r2
 1953              	.LVL162:
 1954              	.L158:
 725:../../../../../../Middlewares/Third_Party/LoRaWAN/Mac/region/RegionAS923.c ****                         ( NvmCtx.Channels[i].Frequency == 0 ) )
 1955              		.loc 1 725 0
 1956 00ec 5A05     		lsls	r2, r3, #21
 1957 00ee 04D5     		bpl	.L159
ARM GAS  C:\Users\EBANO_~1\AppData\Local\Temp\cc2nkIni.s 			page 58


 1958 00f0 BA6F     		ldr	r2, [r7, #120]
 1959 00f2 002A     		cmp	r2, #0
 1960 00f4 01D1     		bne	.L159
 728:../../../../../../Middlewares/Third_Party/LoRaWAN/Mac/region/RegionAS923.c ****                     }
 1961              		.loc 1 728 0
 1962 00f6 0632     		adds	r2, r2, #6
 1963 00f8 9146     		mov	r9, r2
 1964              	.LVL163:
 1965              	.L159:
 725:../../../../../../Middlewares/Third_Party/LoRaWAN/Mac/region/RegionAS923.c ****                         ( NvmCtx.Channels[i].Frequency == 0 ) )
 1966              		.loc 1 725 0
 1967 00fa 1A05     		lsls	r2, r3, #20
 1968 00fc 05D5     		bpl	.L160
 726:../../../../../../Middlewares/Third_Party/LoRaWAN/Mac/region/RegionAS923.c ****                     {// Trying to enable an undefined channel
 1969              		.loc 1 726 0
 1970 00fe 8422     		movs	r2, #132
 725:../../../../../../Middlewares/Third_Party/LoRaWAN/Mac/region/RegionAS923.c ****                         ( NvmCtx.Channels[i].Frequency == 0 ) )
 1971              		.loc 1 725 0
 1972 0100 BA58     		ldr	r2, [r7, r2]
 1973 0102 002A     		cmp	r2, #0
 1974 0104 01D1     		bne	.L160
 728:../../../../../../Middlewares/Third_Party/LoRaWAN/Mac/region/RegionAS923.c ****                     }
 1975              		.loc 1 728 0
 1976 0106 0632     		adds	r2, r2, #6
 1977 0108 9146     		mov	r9, r2
 1978              	.LVL164:
 1979              	.L160:
 725:../../../../../../Middlewares/Third_Party/LoRaWAN/Mac/region/RegionAS923.c ****                         ( NvmCtx.Channels[i].Frequency == 0 ) )
 1980              		.loc 1 725 0
 1981 010a DA04     		lsls	r2, r3, #19
 1982 010c 05D5     		bpl	.L161
 726:../../../../../../Middlewares/Third_Party/LoRaWAN/Mac/region/RegionAS923.c ****                     {// Trying to enable an undefined channel
 1983              		.loc 1 726 0
 1984 010e 9022     		movs	r2, #144
 725:../../../../../../Middlewares/Third_Party/LoRaWAN/Mac/region/RegionAS923.c ****                         ( NvmCtx.Channels[i].Frequency == 0 ) )
 1985              		.loc 1 725 0
 1986 0110 BA58     		ldr	r2, [r7, r2]
 1987 0112 002A     		cmp	r2, #0
 1988 0114 01D1     		bne	.L161
 728:../../../../../../Middlewares/Third_Party/LoRaWAN/Mac/region/RegionAS923.c ****                     }
 1989              		.loc 1 728 0
 1990 0116 0632     		adds	r2, r2, #6
 1991 0118 9146     		mov	r9, r2
 1992              	.LVL165:
 1993              	.L161:
 725:../../../../../../Middlewares/Third_Party/LoRaWAN/Mac/region/RegionAS923.c ****                         ( NvmCtx.Channels[i].Frequency == 0 ) )
 1994              		.loc 1 725 0
 1995 011a 9A04     		lsls	r2, r3, #18
 1996 011c 05D5     		bpl	.L162
 726:../../../../../../Middlewares/Third_Party/LoRaWAN/Mac/region/RegionAS923.c ****                     {// Trying to enable an undefined channel
 1997              		.loc 1 726 0
 1998 011e 9C22     		movs	r2, #156
 725:../../../../../../Middlewares/Third_Party/LoRaWAN/Mac/region/RegionAS923.c ****                         ( NvmCtx.Channels[i].Frequency == 0 ) )
 1999              		.loc 1 725 0
 2000 0120 BA58     		ldr	r2, [r7, r2]
 2001 0122 002A     		cmp	r2, #0
 2002 0124 01D1     		bne	.L162
ARM GAS  C:\Users\EBANO_~1\AppData\Local\Temp\cc2nkIni.s 			page 59


 728:../../../../../../Middlewares/Third_Party/LoRaWAN/Mac/region/RegionAS923.c ****                     }
 2003              		.loc 1 728 0
 2004 0126 0632     		adds	r2, r2, #6
 2005 0128 9146     		mov	r9, r2
 2006              	.LVL166:
 2007              	.L162:
 725:../../../../../../Middlewares/Third_Party/LoRaWAN/Mac/region/RegionAS923.c ****                         ( NvmCtx.Channels[i].Frequency == 0 ) )
 2008              		.loc 1 725 0
 2009 012a 5A04     		lsls	r2, r3, #17
 2010 012c 05D5     		bpl	.L163
 726:../../../../../../Middlewares/Third_Party/LoRaWAN/Mac/region/RegionAS923.c ****                     {// Trying to enable an undefined channel
 2011              		.loc 1 726 0
 2012 012e A822     		movs	r2, #168
 725:../../../../../../Middlewares/Third_Party/LoRaWAN/Mac/region/RegionAS923.c ****                         ( NvmCtx.Channels[i].Frequency == 0 ) )
 2013              		.loc 1 725 0
 2014 0130 BA58     		ldr	r2, [r7, r2]
 2015 0132 002A     		cmp	r2, #0
 2016 0134 01D1     		bne	.L163
 728:../../../../../../Middlewares/Third_Party/LoRaWAN/Mac/region/RegionAS923.c ****                     }
 2017              		.loc 1 728 0
 2018 0136 0632     		adds	r2, r2, #6
 2019 0138 9146     		mov	r9, r2
 2020              	.LVL167:
 2021              	.L163:
 725:../../../../../../Middlewares/Third_Party/LoRaWAN/Mac/region/RegionAS923.c ****                         ( NvmCtx.Channels[i].Frequency == 0 ) )
 2022              		.loc 1 725 0
 2023 013a 1BB2     		sxth	r3, r3
 2024 013c 002B     		cmp	r3, #0
 2025 013e 00DB     		blt	.LCB1925
 2026 0140 72E7     		b	.L141	@long jump
 2027              	.LCB1925:
 726:../../../../../../Middlewares/Third_Party/LoRaWAN/Mac/region/RegionAS923.c ****                     {// Trying to enable an undefined channel
 2028              		.loc 1 726 0
 2029 0142 B423     		movs	r3, #180
 725:../../../../../../Middlewares/Third_Party/LoRaWAN/Mac/region/RegionAS923.c ****                         ( NvmCtx.Channels[i].Frequency == 0 ) )
 2030              		.loc 1 725 0
 2031 0144 FB58     		ldr	r3, [r7, r3]
 2032 0146 002B     		cmp	r3, #0
 2033 0148 00D0     		beq	.LCB1929
 2034 014a 6DE7     		b	.L141	@long jump
 2035              	.LCB1929:
 728:../../../../../../Middlewares/Third_Party/LoRaWAN/Mac/region/RegionAS923.c ****                     }
 2036              		.loc 1 728 0
 2037 014c 0633     		adds	r3, r3, #6
 2038 014e 9946     		mov	r9, r3
 2039              	.LVL168:
 2040              	.LBE74:
 684:../../../../../../Middlewares/Third_Party/LoRaWAN/Mac/region/RegionAS923.c ****     {
 2041              		.loc 1 684 0
 2042 0150 337A     		ldrb	r3, [r6, #8]
 2043 0152 A342     		cmp	r3, r4
 2044 0154 00D9     		bls	.LCB1938
 2045 0156 6BE7     		b	.L185	@long jump
 2046              	.LCB1938:
 2047              	.LVL169:
 2048              	.L186:
 736:../../../../../../Middlewares/Third_Party/LoRaWAN/Mac/region/RegionAS923.c ****     getPhy.UplinkDwellTime = linkAdrReq->UplinkDwellTime;
ARM GAS  C:\Users\EBANO_~1\AppData\Local\Temp\cc2nkIni.s 			page 60


 2049              		.loc 1 736 0
 2050 0158 0123     		movs	r3, #1
 2051 015a 04A8     		add	r0, sp, #16
 2052 015c 0370     		strb	r3, [r0]
 737:../../../../../../Middlewares/Third_Party/LoRaWAN/Mac/region/RegionAS923.c ****     phyParam = RegionAS923GetPhyParam( &getPhy );
 2053              		.loc 1 737 0
 2054 015e 737A     		ldrb	r3, [r6, #9]
 2055 0160 8370     		strb	r3, [r0, #2]
 738:../../../../../../Middlewares/Third_Party/LoRaWAN/Mac/region/RegionAS923.c **** 
 2056              		.loc 1 738 0
 2057 0162 FFF7FEFF 		bl	RegionAS923GetPhyParam
 2058              	.LVL170:
 740:../../../../../../Middlewares/Third_Party/LoRaWAN/Mac/region/RegionAS923.c ****     linkAdrVerifyParams.AdrEnabled = linkAdrReq->AdrEnabled;
 2059              		.loc 1 740 0
 2060 0166 4A46     		mov	r2, r9
 738:../../../../../../Middlewares/Third_Party/LoRaWAN/Mac/region/RegionAS923.c **** 
 2061              		.loc 1 738 0
 2062 0168 0300     		movs	r3, r0
 740:../../../../../../Middlewares/Third_Party/LoRaWAN/Mac/region/RegionAS923.c ****     linkAdrVerifyParams.AdrEnabled = linkAdrReq->AdrEnabled;
 2063              		.loc 1 740 0
 2064 016a 08A8     		add	r0, sp, #32
 2065 016c 0271     		strb	r2, [r0, #4]
 741:../../../../../../Middlewares/Third_Party/LoRaWAN/Mac/region/RegionAS923.c ****     linkAdrVerifyParams.Datarate = linkAdrParams.Datarate;
 2066              		.loc 1 741 0
 2067 016e B27A     		ldrb	r2, [r6, #10]
 758:../../../../../../Middlewares/Third_Party/LoRaWAN/Mac/region/RegionAS923.c **** 
 2068              		.loc 1 758 0
 2069 0170 02A9     		add	r1, sp, #8
 741:../../../../../../Middlewares/Third_Party/LoRaWAN/Mac/region/RegionAS923.c ****     linkAdrVerifyParams.Datarate = linkAdrParams.Datarate;
 2070              		.loc 1 741 0
 2071 0172 4271     		strb	r2, [r0, #5]
 742:../../../../../../Middlewares/Third_Party/LoRaWAN/Mac/region/RegionAS923.c ****     linkAdrVerifyParams.TxPower = linkAdrParams.TxPower;
 2072              		.loc 1 742 0
 2073 0174 6A78     		ldrb	r2, [r5, #1]
 758:../../../../../../Middlewares/Third_Party/LoRaWAN/Mac/region/RegionAS923.c **** 
 2074              		.loc 1 758 0
 2075 0176 8C46     		mov	ip, r1
 742:../../../../../../Middlewares/Third_Party/LoRaWAN/Mac/region/RegionAS923.c ****     linkAdrVerifyParams.TxPower = linkAdrParams.TxPower;
 2076              		.loc 1 742 0
 2077 0178 8271     		strb	r2, [r0, #6]
 743:../../../../../../Middlewares/Third_Party/LoRaWAN/Mac/region/RegionAS923.c ****     linkAdrVerifyParams.NbRep = linkAdrParams.NbRep;
 2078              		.loc 1 743 0
 2079 017a AA78     		ldrb	r2, [r5, #2]
 758:../../../../../../Middlewares/Third_Party/LoRaWAN/Mac/region/RegionAS923.c **** 
 2080              		.loc 1 758 0
 2081 017c 1121     		movs	r1, #17
 743:../../../../../../Middlewares/Third_Party/LoRaWAN/Mac/region/RegionAS923.c ****     linkAdrVerifyParams.NbRep = linkAdrParams.NbRep;
 2082              		.loc 1 743 0
 2083 017e C271     		strb	r2, [r0, #7]
 744:../../../../../../Middlewares/Third_Party/LoRaWAN/Mac/region/RegionAS923.c ****     linkAdrVerifyParams.CurrentDatarate = linkAdrReq->CurrentDatarate;
 2084              		.loc 1 744 0
 2085 0180 2A78     		ldrb	r2, [r5]
 758:../../../../../../Middlewares/Third_Party/LoRaWAN/Mac/region/RegionAS923.c **** 
 2086              		.loc 1 758 0
 2087 0182 6144     		add	r1, r1, ip
 744:../../../../../../Middlewares/Third_Party/LoRaWAN/Mac/region/RegionAS923.c ****     linkAdrVerifyParams.CurrentDatarate = linkAdrReq->CurrentDatarate;
 2088              		.loc 1 744 0
ARM GAS  C:\Users\EBANO_~1\AppData\Local\Temp\cc2nkIni.s 			page 61


 2089 0184 0272     		strb	r2, [r0, #8]
 745:../../../../../../Middlewares/Third_Party/LoRaWAN/Mac/region/RegionAS923.c ****     linkAdrVerifyParams.CurrentTxPower = linkAdrReq->CurrentTxPower;
 2090              		.loc 1 745 0
 2091 0186 F27A     		ldrb	r2, [r6, #11]
 2092 0188 4272     		strb	r2, [r0, #9]
 746:../../../../../../Middlewares/Third_Party/LoRaWAN/Mac/region/RegionAS923.c ****     linkAdrVerifyParams.CurrentNbRep = linkAdrReq->CurrentNbRep;
 2093              		.loc 1 746 0
 2094 018a 327B     		ldrb	r2, [r6, #12]
 2095 018c 8272     		strb	r2, [r0, #10]
 747:../../../../../../Middlewares/Third_Party/LoRaWAN/Mac/region/RegionAS923.c ****     linkAdrVerifyParams.NbChannels = AS923_MAX_NB_CHANNELS;
 2096              		.loc 1 747 0
 2097 018e 727B     		ldrb	r2, [r6, #13]
 750:../../../../../../Middlewares/Third_Party/LoRaWAN/Mac/region/RegionAS923.c ****     linkAdrVerifyParams.MaxDatarate = AS923_TX_MAX_DATARATE;
 2098              		.loc 1 750 0
 2099 0190 0375     		strb	r3, [r0, #20]
 747:../../../../../../Middlewares/Third_Party/LoRaWAN/Mac/region/RegionAS923.c ****     linkAdrVerifyParams.NbChannels = AS923_MAX_NB_CHANNELS;
 2100              		.loc 1 747 0
 2101 0192 C272     		strb	r2, [r0, #11]
 748:../../../../../../Middlewares/Third_Party/LoRaWAN/Mac/region/RegionAS923.c ****     linkAdrVerifyParams.ChannelsMask = &chMask;
 2102              		.loc 1 748 0
 2103 0194 1022     		movs	r2, #16
 751:../../../../../../Middlewares/Third_Party/LoRaWAN/Mac/region/RegionAS923.c ****     linkAdrVerifyParams.Channels = NvmCtx.Channels;
 2104              		.loc 1 751 0
 2105 0196 0723     		movs	r3, #7
 748:../../../../../../Middlewares/Third_Party/LoRaWAN/Mac/region/RegionAS923.c ****     linkAdrVerifyParams.ChannelsMask = &chMask;
 2106              		.loc 1 748 0
 2107 0198 0273     		strb	r2, [r0, #12]
 749:../../../../../../Middlewares/Third_Party/LoRaWAN/Mac/region/RegionAS923.c ****     linkAdrVerifyParams.MinDatarate = ( int8_t )phyParam.Value;
 2108              		.loc 1 749 0
 2109 019a 02AA     		add	r2, sp, #8
 2110 019c 0632     		adds	r2, r2, #6
 2111 019e 0261     		str	r2, [r0, #16]
 758:../../../../../../Middlewares/Third_Party/LoRaWAN/Mac/region/RegionAS923.c **** 
 2112              		.loc 1 758 0
 2113 01a0 1222     		movs	r2, #18
 751:../../../../../../Middlewares/Third_Party/LoRaWAN/Mac/region/RegionAS923.c ****     linkAdrVerifyParams.Channels = NvmCtx.Channels;
 2114              		.loc 1 751 0
 2115 01a2 4375     		strb	r3, [r0, #21]
 753:../../../../../../Middlewares/Third_Party/LoRaWAN/Mac/region/RegionAS923.c ****     linkAdrVerifyParams.MaxTxPower = AS923_MAX_TX_POWER;
 2116              		.loc 1 753 0
 2117 01a4 8383     		strh	r3, [r0, #28]
 755:../../../../../../Middlewares/Third_Party/LoRaWAN/Mac/region/RegionAS923.c **** 
 2118              		.loc 1 755 0
 2119 01a6 3368     		ldr	r3, [r6]
 758:../../../../../../Middlewares/Third_Party/LoRaWAN/Mac/region/RegionAS923.c **** 
 2120              		.loc 1 758 0
 2121 01a8 6244     		add	r2, r2, ip
 755:../../../../../../Middlewares/Third_Party/LoRaWAN/Mac/region/RegionAS923.c **** 
 2122              		.loc 1 755 0
 2123 01aa 0893     		str	r3, [sp, #32]
 758:../../../../../../Middlewares/Third_Party/LoRaWAN/Mac/region/RegionAS923.c **** 
 2124              		.loc 1 758 0
 2125 01ac 2B00     		movs	r3, r5
 752:../../../../../../Middlewares/Third_Party/LoRaWAN/Mac/region/RegionAS923.c ****     linkAdrVerifyParams.MinTxPower = AS923_MIN_TX_POWER;
 2126              		.loc 1 752 0
 2127 01ae 8761     		str	r7, [r0, #24]
 758:../../../../../../Middlewares/Third_Party/LoRaWAN/Mac/region/RegionAS923.c **** 
ARM GAS  C:\Users\EBANO_~1\AppData\Local\Temp\cc2nkIni.s 			page 62


 2128              		.loc 1 758 0
 2129 01b0 FFF7FEFF 		bl	RegionCommonLinkAdrReqVerifyParams
 2130              	.LVL171:
 2131 01b4 0600     		movs	r6, r0
 2132              	.LVL172:
 761:../../../../../../Middlewares/Third_Party/LoRaWAN/Mac/region/RegionAS923.c ****     {
 2133              		.loc 1 761 0
 2134 01b6 0728     		cmp	r0, #7
 2135 01b8 00D1     		bne	.LCB1996
 2136 01ba 91E0     		b	.L294	@long jump
 2137              	.LCB1996:
 2138              	.LVL173:
 2139              	.L144:
 770:../../../../../../Middlewares/Third_Party/LoRaWAN/Mac/region/RegionAS923.c ****     *txPowOut = linkAdrParams.TxPower;
 2140              		.loc 1 770 0
 2141 01bc 5A46     		mov	r2, fp
 2142 01be 6B78     		ldrb	r3, [r5, #1]
 776:../../../../../../Middlewares/Third_Party/LoRaWAN/Mac/region/RegionAS923.c **** 
 2143              		.loc 1 776 0
 2144 01c0 3000     		movs	r0, r6
 770:../../../../../../Middlewares/Third_Party/LoRaWAN/Mac/region/RegionAS923.c ****     *txPowOut = linkAdrParams.TxPower;
 2145              		.loc 1 770 0
 2146 01c2 1370     		strb	r3, [r2]
 771:../../../../../../Middlewares/Third_Party/LoRaWAN/Mac/region/RegionAS923.c ****     *nbRepOut = linkAdrParams.NbRep;
 2147              		.loc 1 771 0
 2148 01c4 5246     		mov	r2, r10
 2149 01c6 AB78     		ldrb	r3, [r5, #2]
 2150 01c8 1370     		strb	r3, [r2]
 772:../../../../../../Middlewares/Third_Party/LoRaWAN/Mac/region/RegionAS923.c ****     *nbBytesParsed = bytesProcessed;
 2151              		.loc 1 772 0
 2152 01ca 2B78     		ldrb	r3, [r5]
 2153 01cc 019A     		ldr	r2, [sp, #4]
 2154 01ce 1370     		strb	r3, [r2]
 773:../../../../../../Middlewares/Third_Party/LoRaWAN/Mac/region/RegionAS923.c **** 
 2155              		.loc 1 773 0
 2156 01d0 1A9B     		ldr	r3, [sp, #104]
 2157 01d2 1C70     		strb	r4, [r3]
 776:../../../../../../Middlewares/Third_Party/LoRaWAN/Mac/region/RegionAS923.c **** 
 2158              		.loc 1 776 0
 2159 01d4 11B0     		add	sp, sp, #68
 2160              		@ sp needed
 2161              	.LVL174:
 2162              	.LVL175:
 2163              	.LVL176:
 2164 01d6 3CBC     		pop	{r2, r3, r4, r5}
 2165 01d8 9046     		mov	r8, r2
 2166 01da 9946     		mov	r9, r3
 2167 01dc A246     		mov	r10, r4
 2168 01de AB46     		mov	fp, r5
 2169 01e0 F0BD     		pop	{r4, r5, r6, r7, pc}
 2170              	.LVL177:
 2171              	.L145:
 704:../../../../../../Middlewares/Third_Party/LoRaWAN/Mac/region/RegionAS923.c ****         }
 2172              		.loc 1 704 0
 2173 01e2 0621     		movs	r1, #6
 2174 01e4 8946     		mov	r9, r1
 706:../../../../../../Middlewares/Third_Party/LoRaWAN/Mac/region/RegionAS923.c ****                 ( linkAdrParams.ChMaskCtrl >= 7 ) )
ARM GAS  C:\Users\EBANO_~1\AppData\Local\Temp\cc2nkIni.s 			page 63


 2175              		.loc 1 706 0
 2176 01e6 511E     		subs	r1, r2, #1
 2177 01e8 0429     		cmp	r1, #4
 2178 01ea 00D8     		bhi	.LCB2047
 2179 01ec 1CE7     		b	.L141	@long jump
 2180              	.LCB2047:
 706:../../../../../../Middlewares/Third_Party/LoRaWAN/Mac/region/RegionAS923.c ****                 ( linkAdrParams.ChMaskCtrl >= 7 ) )
 2181              		.loc 1 706 0 is_stmt 0 discriminator 1
 2182 01ee 062A     		cmp	r2, #6
 2183 01f0 00D0     		beq	.LCB2049
 2184 01f2 19E7     		b	.L141	@long jump
 2185              	.LCB2049:
 2186              	.LVL178:
 2187              	.LBB75:
 718:../../../../../../Middlewares/Third_Party/LoRaWAN/Mac/region/RegionAS923.c ****                     {
 2188              		.loc 1 718 0 is_stmt 1
 2189 01f4 3968     		ldr	r1, [r7]
 2190 01f6 0022     		movs	r2, #0
 2191 01f8 0029     		cmp	r1, #0
 2192 01fa 02D0     		beq	.L166
 720:../../../../../../Middlewares/Third_Party/LoRaWAN/Mac/region/RegionAS923.c ****                     }
 2193              		.loc 1 720 0
 2194 01fc 0123     		movs	r3, #1
 2195 01fe 0132     		adds	r2, r2, #1
 2196 0200 0343     		orrs	r3, r0
 2197              	.L166:
 2198              	.LVL179:
 718:../../../../../../Middlewares/Third_Party/LoRaWAN/Mac/region/RegionAS923.c ****                     {
 2199              		.loc 1 718 0
 2200 0202 F968     		ldr	r1, [r7, #12]
 2201 0204 0029     		cmp	r1, #0
 2202 0206 02D0     		beq	.L167
 720:../../../../../../Middlewares/Third_Party/LoRaWAN/Mac/region/RegionAS923.c ****                     }
 2203              		.loc 1 720 0
 2204 0208 0222     		movs	r2, #2
 2205 020a 1343     		orrs	r3, r2
 2206 020c 0122     		movs	r2, #1
 2207              	.L167:
 2208              	.LVL180:
 718:../../../../../../Middlewares/Third_Party/LoRaWAN/Mac/region/RegionAS923.c ****                     {
 2209              		.loc 1 718 0
 2210 020e B969     		ldr	r1, [r7, #24]
 2211 0210 0029     		cmp	r1, #0
 2212 0212 02D0     		beq	.L168
 720:../../../../../../Middlewares/Third_Party/LoRaWAN/Mac/region/RegionAS923.c ****                     }
 2213              		.loc 1 720 0
 2214 0214 0422     		movs	r2, #4
 2215 0216 1343     		orrs	r3, r2
 2216 0218 0122     		movs	r2, #1
 2217              	.L168:
 2218              	.LVL181:
 718:../../../../../../Middlewares/Third_Party/LoRaWAN/Mac/region/RegionAS923.c ****                     {
 2219              		.loc 1 718 0
 2220 021a 796A     		ldr	r1, [r7, #36]
 2221 021c 0029     		cmp	r1, #0
 2222 021e 02D0     		beq	.L169
 720:../../../../../../Middlewares/Third_Party/LoRaWAN/Mac/region/RegionAS923.c ****                     }
ARM GAS  C:\Users\EBANO_~1\AppData\Local\Temp\cc2nkIni.s 			page 64


 2223              		.loc 1 720 0
 2224 0220 0822     		movs	r2, #8
 2225 0222 1343     		orrs	r3, r2
 2226 0224 0122     		movs	r2, #1
 2227              	.L169:
 2228              	.LVL182:
 718:../../../../../../Middlewares/Third_Party/LoRaWAN/Mac/region/RegionAS923.c ****                     {
 2229              		.loc 1 718 0
 2230 0226 396B     		ldr	r1, [r7, #48]
 2231 0228 0029     		cmp	r1, #0
 2232 022a 02D0     		beq	.L170
 720:../../../../../../Middlewares/Third_Party/LoRaWAN/Mac/region/RegionAS923.c ****                     }
 2233              		.loc 1 720 0
 2234 022c 1022     		movs	r2, #16
 2235 022e 1343     		orrs	r3, r2
 2236 0230 0122     		movs	r2, #1
 2237              	.L170:
 2238              	.LVL183:
 718:../../../../../../Middlewares/Third_Party/LoRaWAN/Mac/region/RegionAS923.c ****                     {
 2239              		.loc 1 718 0
 2240 0232 F96B     		ldr	r1, [r7, #60]
 2241 0234 0029     		cmp	r1, #0
 2242 0236 02D0     		beq	.L171
 720:../../../../../../Middlewares/Third_Party/LoRaWAN/Mac/region/RegionAS923.c ****                     }
 2243              		.loc 1 720 0
 2244 0238 2022     		movs	r2, #32
 2245 023a 1343     		orrs	r3, r2
 2246 023c 0122     		movs	r2, #1
 2247              	.L171:
 2248              	.LVL184:
 718:../../../../../../Middlewares/Third_Party/LoRaWAN/Mac/region/RegionAS923.c ****                     {
 2249              		.loc 1 718 0
 2250 023e B96C     		ldr	r1, [r7, #72]
 2251 0240 0029     		cmp	r1, #0
 2252 0242 02D0     		beq	.L172
 720:../../../../../../Middlewares/Third_Party/LoRaWAN/Mac/region/RegionAS923.c ****                     }
 2253              		.loc 1 720 0
 2254 0244 4022     		movs	r2, #64
 2255 0246 1343     		orrs	r3, r2
 2256 0248 0122     		movs	r2, #1
 2257              	.L172:
 2258              	.LVL185:
 718:../../../../../../Middlewares/Third_Party/LoRaWAN/Mac/region/RegionAS923.c ****                     {
 2259              		.loc 1 718 0
 2260 024a 796D     		ldr	r1, [r7, #84]
 2261 024c 0029     		cmp	r1, #0
 2262 024e 02D0     		beq	.L173
 720:../../../../../../Middlewares/Third_Party/LoRaWAN/Mac/region/RegionAS923.c ****                     }
 2263              		.loc 1 720 0
 2264 0250 8022     		movs	r2, #128
 2265 0252 1343     		orrs	r3, r2
 2266 0254 0122     		movs	r2, #1
 2267              	.L173:
 2268              	.LVL186:
 718:../../../../../../Middlewares/Third_Party/LoRaWAN/Mac/region/RegionAS923.c ****                     {
 2269              		.loc 1 718 0
 2270 0256 396E     		ldr	r1, [r7, #96]
ARM GAS  C:\Users\EBANO_~1\AppData\Local\Temp\cc2nkIni.s 			page 65


 2271 0258 0029     		cmp	r1, #0
 2272 025a 03D0     		beq	.L174
 720:../../../../../../Middlewares/Third_Party/LoRaWAN/Mac/region/RegionAS923.c ****                     }
 2273              		.loc 1 720 0
 2274 025c 8022     		movs	r2, #128
 2275 025e 5200     		lsls	r2, r2, #1
 2276 0260 1343     		orrs	r3, r2
 2277 0262 FF3A     		subs	r2, r2, #255
 2278              	.L174:
 2279              	.LVL187:
 718:../../../../../../Middlewares/Third_Party/LoRaWAN/Mac/region/RegionAS923.c ****                     {
 2280              		.loc 1 718 0
 2281 0264 F96E     		ldr	r1, [r7, #108]
 2282 0266 0029     		cmp	r1, #0
 2283 0268 03D0     		beq	.L175
 720:../../../../../../Middlewares/Third_Party/LoRaWAN/Mac/region/RegionAS923.c ****                     }
 2284              		.loc 1 720 0
 2285 026a 8022     		movs	r2, #128
 2286 026c 9200     		lsls	r2, r2, #2
 2287 026e 1343     		orrs	r3, r2
 2288 0270 0122     		movs	r2, #1
 2289              	.L175:
 2290              	.LVL188:
 718:../../../../../../Middlewares/Third_Party/LoRaWAN/Mac/region/RegionAS923.c ****                     {
 2291              		.loc 1 718 0
 2292 0272 B96F     		ldr	r1, [r7, #120]
 2293 0274 0029     		cmp	r1, #0
 2294 0276 03D0     		beq	.L176
 720:../../../../../../Middlewares/Third_Party/LoRaWAN/Mac/region/RegionAS923.c ****                     }
 2295              		.loc 1 720 0
 2296 0278 8022     		movs	r2, #128
 2297 027a D200     		lsls	r2, r2, #3
 2298 027c 1343     		orrs	r3, r2
 2299 027e 0122     		movs	r2, #1
 2300              	.L176:
 2301              	.LVL189:
 718:../../../../../../Middlewares/Third_Party/LoRaWAN/Mac/region/RegionAS923.c ****                     {
 2302              		.loc 1 718 0
 2303 0280 8421     		movs	r1, #132
 2304 0282 7958     		ldr	r1, [r7, r1]
 2305 0284 0029     		cmp	r1, #0
 2306 0286 03D0     		beq	.L177
 720:../../../../../../Middlewares/Third_Party/LoRaWAN/Mac/region/RegionAS923.c ****                     }
 2307              		.loc 1 720 0
 2308 0288 8022     		movs	r2, #128
 2309 028a 1201     		lsls	r2, r2, #4
 2310 028c 1343     		orrs	r3, r2
 2311 028e 0122     		movs	r2, #1
 2312              	.L177:
 2313              	.LVL190:
 718:../../../../../../Middlewares/Third_Party/LoRaWAN/Mac/region/RegionAS923.c ****                     {
 2314              		.loc 1 718 0
 2315 0290 9021     		movs	r1, #144
 2316 0292 7958     		ldr	r1, [r7, r1]
 2317 0294 0029     		cmp	r1, #0
 2318 0296 03D0     		beq	.L178
 720:../../../../../../Middlewares/Third_Party/LoRaWAN/Mac/region/RegionAS923.c ****                     }
ARM GAS  C:\Users\EBANO_~1\AppData\Local\Temp\cc2nkIni.s 			page 66


 2319              		.loc 1 720 0
 2320 0298 8022     		movs	r2, #128
 2321 029a 5201     		lsls	r2, r2, #5
 2322 029c 1343     		orrs	r3, r2
 2323 029e 0122     		movs	r2, #1
 2324              	.L178:
 2325              	.LVL191:
 718:../../../../../../Middlewares/Third_Party/LoRaWAN/Mac/region/RegionAS923.c ****                     {
 2326              		.loc 1 718 0
 2327 02a0 9C21     		movs	r1, #156
 2328 02a2 7958     		ldr	r1, [r7, r1]
 2329 02a4 0029     		cmp	r1, #0
 2330 02a6 26D1     		bne	.L295
 2331              	.LVL192:
 2332 02a8 A821     		movs	r1, #168
 2333 02aa 7958     		ldr	r1, [r7, r1]
 2334 02ac 0029     		cmp	r1, #0
 2335 02ae 0DD0     		beq	.L183
 2336              	.L180:
 720:../../../../../../Middlewares/Third_Party/LoRaWAN/Mac/region/RegionAS923.c ****                     }
 2337              		.loc 1 720 0
 2338 02b0 8022     		movs	r2, #128
 2339 02b2 D201     		lsls	r2, r2, #7
 2340 02b4 1343     		orrs	r3, r2
 2341              	.L293:
 2342              	.LVL193:
 718:../../../../../../Middlewares/Third_Party/LoRaWAN/Mac/region/RegionAS923.c ****                     {
 2343              		.loc 1 718 0
 2344 02b6 B422     		movs	r2, #180
 2345 02b8 BA58     		ldr	r2, [r7, r2]
 2346 02ba 002A     		cmp	r2, #0
 2347 02bc 02D0     		beq	.L182
 2348              	.L181:
 720:../../../../../../Middlewares/Third_Party/LoRaWAN/Mac/region/RegionAS923.c ****                     }
 2349              		.loc 1 720 0
 2350 02be 8022     		movs	r2, #128
 2351 02c0 1202     		lsls	r2, r2, #8
 2352 02c2 1343     		orrs	r3, r2
 2353              	.LVL194:
 2354              	.L182:
 2355 02c4 02AA     		add	r2, sp, #8
 2356 02c6 D380     		strh	r3, [r2, #6]
 718:../../../../../../Middlewares/Third_Party/LoRaWAN/Mac/region/RegionAS923.c ****                     {
 2357              		.loc 1 718 0
 2358 02c8 C146     		mov	r9, r8
 2359 02ca ADE6     		b	.L141
 2360              	.LVL195:
 2361              	.L183:
 2362 02cc B421     		movs	r1, #180
 2363 02ce 7958     		ldr	r1, [r7, r1]
 2364 02d0 0029     		cmp	r1, #0
 2365 02d2 F4D1     		bne	.L181
 2366              	.LVL196:
 2367 02d4 0721     		movs	r1, #7
 2368 02d6 8946     		mov	r9, r1
 2369 02d8 002A     		cmp	r2, #0
 2370 02da 00D1     		bne	.LCB2267
ARM GAS  C:\Users\EBANO_~1\AppData\Local\Temp\cc2nkIni.s 			page 67


 2371 02dc A4E6     		b	.L141	@long jump
 2372              	.LCB2267:
 2373 02de F1E7     		b	.L182
 2374              	.LVL197:
 2375              	.L294:
 2376              	.LBE75:
 764:../../../../../../Middlewares/Third_Party/LoRaWAN/Mac/region/RegionAS923.c ****         // Update the channels mask
 2377              		.loc 1 764 0
 2378 02e0 3800     		movs	r0, r7
 2379              	.LVL198:
 2380 02e2 0222     		movs	r2, #2
 2381 02e4 D030     		adds	r0, r0, #208
 2382 02e6 0021     		movs	r1, #0
 2383 02e8 FFF7FEFF 		bl	memset1
 2384              	.LVL199:
 766:../../../../../../Middlewares/Third_Party/LoRaWAN/Mac/region/RegionAS923.c ****     }
 2385              		.loc 1 766 0
 2386 02ec 02AB     		add	r3, sp, #8
 2387 02ee DA88     		ldrh	r2, [r3, #6]
 2388 02f0 D023     		movs	r3, #208
 2389 02f2 FA52     		strh	r2, [r7, r3]
 2390 02f4 62E7     		b	.L144
 2391              	.LVL200:
 2392              	.L295:
 2393              	.LBB76:
 720:../../../../../../Middlewares/Third_Party/LoRaWAN/Mac/region/RegionAS923.c ****                     }
 2394              		.loc 1 720 0
 2395 02f6 8022     		movs	r2, #128
 2396 02f8 9201     		lsls	r2, r2, #6
 2397 02fa 1343     		orrs	r3, r2
 2398              	.LVL201:
 718:../../../../../../Middlewares/Third_Party/LoRaWAN/Mac/region/RegionAS923.c ****                     {
 2399              		.loc 1 718 0
 2400 02fc A822     		movs	r2, #168
 2401 02fe BA58     		ldr	r2, [r7, r2]
 2402 0300 002A     		cmp	r2, #0
 2403 0302 D5D1     		bne	.L180
 2404 0304 D7E7     		b	.L293
 2405              	.L297:
 2406 0306 C046     		.align	2
 2407              	.L296:
 2408 0308 00000000 		.word	NvmCtx
 2409              	.LBE76:
 2410              		.cfi_endproc
 2411              	.LFE54:
 2412              		.size	RegionAS923LinkAdrReq, .-RegionAS923LinkAdrReq
 2413              		.section	.text.RegionAS923RxParamSetupReq,"ax",%progbits
 2414              		.align	1
 2415              		.p2align 2,,3
 2416              		.global	RegionAS923RxParamSetupReq
 2417              		.syntax unified
 2418              		.code	16
 2419              		.thumb_func
 2420              		.fpu softvfp
 2421              		.type	RegionAS923RxParamSetupReq, %function
 2422              	RegionAS923RxParamSetupReq:
 2423              	.LFB55:
ARM GAS  C:\Users\EBANO_~1\AppData\Local\Temp\cc2nkIni.s 			page 68


 779:../../../../../../Middlewares/Third_Party/LoRaWAN/Mac/region/RegionAS923.c ****     uint8_t status = 0x07;
 2424              		.loc 1 779 0
 2425              		.cfi_startproc
 2426              		@ args = 0, pretend = 0, frame = 8
 2427              		@ frame_needed = 0, uses_anonymous_args = 0
 2428              	.LVL202:
 2429 0000 70B5     		push	{r4, r5, r6, lr}
 2430              	.LCFI22:
 2431              		.cfi_def_cfa_offset 16
 2432              		.cfi_offset 4, -16
 2433              		.cfi_offset 5, -12
 2434              		.cfi_offset 6, -8
 2435              		.cfi_offset 14, -4
 2436              	.LBB77:
 2437              	.LBB78:
 111:../../../../../../Middlewares/Third_Party/LoRaWAN/Mac/region/RegionAS923.c ****     {
 2438              		.loc 1 111 0
 2439 0002 154B     		ldr	r3, .L308
 2440              	.LBE78:
 2441              	.LBE77:
 783:../../../../../../Middlewares/Third_Party/LoRaWAN/Mac/region/RegionAS923.c ****     {
 2442              		.loc 1 783 0
 2443 0004 4568     		ldr	r5, [r0, #4]
 2444              	.LVL203:
 2445              	.LBB82:
 2446              	.LBB79:
 111:../../../../../../Middlewares/Third_Party/LoRaWAN/Mac/region/RegionAS923.c ****     {
 2447              		.loc 1 111 0
 2448 0006 9B6A     		ldr	r3, [r3, #40]
 2449              	.LBE79:
 2450              	.LBE82:
 779:../../../../../../Middlewares/Third_Party/LoRaWAN/Mac/region/RegionAS923.c ****     uint8_t status = 0x07;
 2451              		.loc 1 779 0
 2452 0008 82B0     		sub	sp, sp, #8
 2453              	.LCFI23:
 2454              		.cfi_def_cfa_offset 24
 779:../../../../../../Middlewares/Third_Party/LoRaWAN/Mac/region/RegionAS923.c ****     uint8_t status = 0x07;
 2455              		.loc 1 779 0
 2456 000a 0400     		movs	r4, r0
 2457              	.LBB83:
 2458              	.LBB80:
 111:../../../../../../Middlewares/Third_Party/LoRaWAN/Mac/region/RegionAS923.c ****     {
 2459              		.loc 1 111 0
 2460 000c 2800     		movs	r0, r5
 2461              	.LVL204:
 2462 000e 0193     		str	r3, [sp, #4]
 2463 0010 9847     		blx	r3
 2464              	.LVL205:
 2465 0012 0028     		cmp	r0, #0
 2466 0014 05D0     		beq	.L303
 116:../../../../../../Middlewares/Third_Party/LoRaWAN/Mac/region/RegionAS923.c ****     {
 2467              		.loc 1 116 0
 2468 0016 114B     		ldr	r3, .L308+4
 2469 0018 9C46     		mov	ip, r3
 2470 001a 114B     		ldr	r3, .L308+8
 2471 001c 6544     		add	r5, r5, ip
 2472              	.LVL206:
ARM GAS  C:\Users\EBANO_~1\AppData\Local\Temp\cc2nkIni.s 			page 69


 2473 001e 9D42     		cmp	r5, r3
 2474 0020 17D9     		bls	.L307
 2475              	.LVL207:
 2476              	.L303:
 2477 0022 0425     		movs	r5, #4
 2478              	.LBE80:
 2479              	.LBE83:
 785:../../../../../../Middlewares/Third_Party/LoRaWAN/Mac/region/RegionAS923.c ****     }
 2480              		.loc 1 785 0
 2481 0024 0626     		movs	r6, #6
 2482              	.L299:
 2483              	.LVL208:
 789:../../../../../../Middlewares/Third_Party/LoRaWAN/Mac/region/RegionAS923.c ****     {
 2484              		.loc 1 789 0
