ARM GAS  C:\Users\EBANO_~1\AppData\Local\Temp\cchbxRq9.s 			page 1


   1              		.cpu cortex-m0plus
   2              		.eabi_attribute 20, 1
   3              		.eabi_attribute 21, 1
   4              		.eabi_attribute 23, 3
   5              		.eabi_attribute 24, 1
   6              		.eabi_attribute 25, 1
   7              		.eabi_attribute 26, 1
   8              		.eabi_attribute 30, 2
   9              		.eabi_attribute 34, 0
  10              		.eabi_attribute 18, 4
  11              		.file	"RegionCN470.c"
  12              		.text
  13              	.Ltext0:
  14              		.cfi_sections	.debug_frame
  15              		.section	.text.RegionCN470GetPhyParam,"ax",%progbits
  16              		.align	1
  17              		.p2align 2,,3
  18              		.global	RegionCN470GetPhyParam
  19              		.syntax unified
  20              		.code	16
  21              		.thumb_func
  22              		.fpu softvfp
  23              		.type	RegionCN470GetPhyParam, %function
  24              	RegionCN470GetPhyParam:
  25              	.LFB44:
  26              		.file 1 "../../../../../../Middlewares/Third_Party/LoRaWAN/Mac/region/RegionCN470.c"
   1:../../../../../../Middlewares/Third_Party/LoRaWAN/Mac/region/RegionCN470.c **** /*!
   2:../../../../../../Middlewares/Third_Party/LoRaWAN/Mac/region/RegionCN470.c ****  * \file      RegionCN470.c
   3:../../../../../../Middlewares/Third_Party/LoRaWAN/Mac/region/RegionCN470.c ****  *
   4:../../../../../../Middlewares/Third_Party/LoRaWAN/Mac/region/RegionCN470.c ****  * \brief     Region implementation for CN470
   5:../../../../../../Middlewares/Third_Party/LoRaWAN/Mac/region/RegionCN470.c ****  *
   6:../../../../../../Middlewares/Third_Party/LoRaWAN/Mac/region/RegionCN470.c ****  * \copyright Revised BSD License, see section \ref LICENSE.
   7:../../../../../../Middlewares/Third_Party/LoRaWAN/Mac/region/RegionCN470.c ****  *
   8:../../../../../../Middlewares/Third_Party/LoRaWAN/Mac/region/RegionCN470.c ****  * \code
   9:../../../../../../Middlewares/Third_Party/LoRaWAN/Mac/region/RegionCN470.c ****  *                ______                              _
  10:../../../../../../Middlewares/Third_Party/LoRaWAN/Mac/region/RegionCN470.c ****  *               / _____)             _              | |
  11:../../../../../../Middlewares/Third_Party/LoRaWAN/Mac/region/RegionCN470.c ****  *              ( (____  _____ ____ _| |_ _____  ____| |__
  12:../../../../../../Middlewares/Third_Party/LoRaWAN/Mac/region/RegionCN470.c ****  *               \____ \| ___ |    (_   _) ___ |/ ___)  _ \
  13:../../../../../../Middlewares/Third_Party/LoRaWAN/Mac/region/RegionCN470.c ****  *               _____) ) ____| | | || |_| ____( (___| | | |
  14:../../../../../../Middlewares/Third_Party/LoRaWAN/Mac/region/RegionCN470.c ****  *              (______/|_____)_|_|_| \__)_____)\____)_| |_|
  15:../../../../../../Middlewares/Third_Party/LoRaWAN/Mac/region/RegionCN470.c ****  *              (C)2013-2017 Semtech
  16:../../../../../../Middlewares/Third_Party/LoRaWAN/Mac/region/RegionCN470.c ****  *
  17:../../../../../../Middlewares/Third_Party/LoRaWAN/Mac/region/RegionCN470.c ****  *               ___ _____ _   ___ _  _____ ___  ___  ___ ___
  18:../../../../../../Middlewares/Third_Party/LoRaWAN/Mac/region/RegionCN470.c ****  *              / __|_   _/_\ / __| |/ / __/ _ \| _ \/ __| __|
  19:../../../../../../Middlewares/Third_Party/LoRaWAN/Mac/region/RegionCN470.c ****  *              \__ \ | |/ _ \ (__| ' <| _| (_) |   / (__| _|
  20:../../../../../../Middlewares/Third_Party/LoRaWAN/Mac/region/RegionCN470.c ****  *              |___/ |_/_/ \_\___|_|\_\_| \___/|_|_\\___|___|
  21:../../../../../../Middlewares/Third_Party/LoRaWAN/Mac/region/RegionCN470.c ****  *              embedded.connectivity.solutions===============
  22:../../../../../../Middlewares/Third_Party/LoRaWAN/Mac/region/RegionCN470.c ****  *
  23:../../../../../../Middlewares/Third_Party/LoRaWAN/Mac/region/RegionCN470.c ****  * \endcode
  24:../../../../../../Middlewares/Third_Party/LoRaWAN/Mac/region/RegionCN470.c ****  *
  25:../../../../../../Middlewares/Third_Party/LoRaWAN/Mac/region/RegionCN470.c ****  * \author    Miguel Luis ( Semtech )
  26:../../../../../../Middlewares/Third_Party/LoRaWAN/Mac/region/RegionCN470.c ****  *
  27:../../../../../../Middlewares/Third_Party/LoRaWAN/Mac/region/RegionCN470.c ****  * \author    Gregory Cristian ( Semtech )
  28:../../../../../../Middlewares/Third_Party/LoRaWAN/Mac/region/RegionCN470.c ****  *
  29:../../../../../../Middlewares/Third_Party/LoRaWAN/Mac/region/RegionCN470.c ****  * \author    Daniel Jaeckle ( STACKFORCE )
  30:../../../../../../Middlewares/Third_Party/LoRaWAN/Mac/region/RegionCN470.c **** */
  31:../../../../../../Middlewares/Third_Party/LoRaWAN/Mac/region/RegionCN470.c **** #include "utilities.h"
ARM GAS  C:\Users\EBANO_~1\AppData\Local\Temp\cchbxRq9.s 			page 2


  32:../../../../../../Middlewares/Third_Party/LoRaWAN/Mac/region/RegionCN470.c **** 
  33:../../../../../../Middlewares/Third_Party/LoRaWAN/Mac/region/RegionCN470.c **** #include "RegionCommon.h"
  34:../../../../../../Middlewares/Third_Party/LoRaWAN/Mac/region/RegionCN470.c **** #include "RegionCN470.h"
  35:../../../../../../Middlewares/Third_Party/LoRaWAN/Mac/region/RegionCN470.c **** #include "util_console.h"
  36:../../../../../../Middlewares/Third_Party/LoRaWAN/Mac/region/RegionCN470.c **** 
  37:../../../../../../Middlewares/Third_Party/LoRaWAN/Mac/region/RegionCN470.c **** // Definitions
  38:../../../../../../Middlewares/Third_Party/LoRaWAN/Mac/region/RegionCN470.c **** #define CHANNELS_MASK_SIZE              6
  39:../../../../../../Middlewares/Third_Party/LoRaWAN/Mac/region/RegionCN470.c **** 
  40:../../../../../../Middlewares/Third_Party/LoRaWAN/Mac/region/RegionCN470.c **** /*!
  41:../../../../../../Middlewares/Third_Party/LoRaWAN/Mac/region/RegionCN470.c ****  * Region specific context
  42:../../../../../../Middlewares/Third_Party/LoRaWAN/Mac/region/RegionCN470.c ****  */
  43:../../../../../../Middlewares/Third_Party/LoRaWAN/Mac/region/RegionCN470.c **** typedef struct sRegionCN470NvmCtx
  44:../../../../../../Middlewares/Third_Party/LoRaWAN/Mac/region/RegionCN470.c **** {
  45:../../../../../../Middlewares/Third_Party/LoRaWAN/Mac/region/RegionCN470.c ****     /*!
  46:../../../../../../Middlewares/Third_Party/LoRaWAN/Mac/region/RegionCN470.c ****      * LoRaMAC channels
  47:../../../../../../Middlewares/Third_Party/LoRaWAN/Mac/region/RegionCN470.c ****      */
  48:../../../../../../Middlewares/Third_Party/LoRaWAN/Mac/region/RegionCN470.c ****     ChannelParams_t Channels[ CN470_MAX_NB_CHANNELS ];
  49:../../../../../../Middlewares/Third_Party/LoRaWAN/Mac/region/RegionCN470.c ****     /*!
  50:../../../../../../Middlewares/Third_Party/LoRaWAN/Mac/region/RegionCN470.c ****      * LoRaMac bands
  51:../../../../../../Middlewares/Third_Party/LoRaWAN/Mac/region/RegionCN470.c ****      */
  52:../../../../../../Middlewares/Third_Party/LoRaWAN/Mac/region/RegionCN470.c ****     Band_t Bands[ CN470_MAX_NB_BANDS ];
  53:../../../../../../Middlewares/Third_Party/LoRaWAN/Mac/region/RegionCN470.c ****     /*!
  54:../../../../../../Middlewares/Third_Party/LoRaWAN/Mac/region/RegionCN470.c ****      * LoRaMac channels mask
  55:../../../../../../Middlewares/Third_Party/LoRaWAN/Mac/region/RegionCN470.c ****      */
  56:../../../../../../Middlewares/Third_Party/LoRaWAN/Mac/region/RegionCN470.c ****     uint16_t ChannelsMask[ CHANNELS_MASK_SIZE ];
  57:../../../../../../Middlewares/Third_Party/LoRaWAN/Mac/region/RegionCN470.c ****     /*!
  58:../../../../../../Middlewares/Third_Party/LoRaWAN/Mac/region/RegionCN470.c ****      * LoRaMac channels default mask
  59:../../../../../../Middlewares/Third_Party/LoRaWAN/Mac/region/RegionCN470.c ****      */
  60:../../../../../../Middlewares/Third_Party/LoRaWAN/Mac/region/RegionCN470.c ****     uint16_t ChannelsDefaultMask[ CHANNELS_MASK_SIZE ];
  61:../../../../../../Middlewares/Third_Party/LoRaWAN/Mac/region/RegionCN470.c **** }RegionCN470NvmCtx_t;
  62:../../../../../../Middlewares/Third_Party/LoRaWAN/Mac/region/RegionCN470.c **** 
  63:../../../../../../Middlewares/Third_Party/LoRaWAN/Mac/region/RegionCN470.c **** /*
  64:../../../../../../Middlewares/Third_Party/LoRaWAN/Mac/region/RegionCN470.c ****  * Non-volatile module context.
  65:../../../../../../Middlewares/Third_Party/LoRaWAN/Mac/region/RegionCN470.c ****  */
  66:../../../../../../Middlewares/Third_Party/LoRaWAN/Mac/region/RegionCN470.c **** static RegionCN470NvmCtx_t NvmCtx;
  67:../../../../../../Middlewares/Third_Party/LoRaWAN/Mac/region/RegionCN470.c **** 
  68:../../../../../../Middlewares/Third_Party/LoRaWAN/Mac/region/RegionCN470.c **** // Static functions
  69:../../../../../../Middlewares/Third_Party/LoRaWAN/Mac/region/RegionCN470.c **** static int8_t GetNextLowerTxDr( int8_t dr, int8_t minDr )
  70:../../../../../../Middlewares/Third_Party/LoRaWAN/Mac/region/RegionCN470.c **** {
  71:../../../../../../Middlewares/Third_Party/LoRaWAN/Mac/region/RegionCN470.c ****     uint8_t nextLowerDr = 0;
  72:../../../../../../Middlewares/Third_Party/LoRaWAN/Mac/region/RegionCN470.c **** 
  73:../../../../../../Middlewares/Third_Party/LoRaWAN/Mac/region/RegionCN470.c ****     if( dr == minDr )
  74:../../../../../../Middlewares/Third_Party/LoRaWAN/Mac/region/RegionCN470.c ****     {
  75:../../../../../../Middlewares/Third_Party/LoRaWAN/Mac/region/RegionCN470.c ****         nextLowerDr = minDr;
  76:../../../../../../Middlewares/Third_Party/LoRaWAN/Mac/region/RegionCN470.c ****     }
  77:../../../../../../Middlewares/Third_Party/LoRaWAN/Mac/region/RegionCN470.c ****     else
  78:../../../../../../Middlewares/Third_Party/LoRaWAN/Mac/region/RegionCN470.c ****     {
  79:../../../../../../Middlewares/Third_Party/LoRaWAN/Mac/region/RegionCN470.c ****         nextLowerDr = dr - 1;
  80:../../../../../../Middlewares/Third_Party/LoRaWAN/Mac/region/RegionCN470.c ****     }
  81:../../../../../../Middlewares/Third_Party/LoRaWAN/Mac/region/RegionCN470.c ****     return nextLowerDr;
  82:../../../../../../Middlewares/Third_Party/LoRaWAN/Mac/region/RegionCN470.c **** }
  83:../../../../../../Middlewares/Third_Party/LoRaWAN/Mac/region/RegionCN470.c **** 
  84:../../../../../../Middlewares/Third_Party/LoRaWAN/Mac/region/RegionCN470.c **** static uint32_t GetBandwidth( uint32_t drIndex )
  85:../../../../../../Middlewares/Third_Party/LoRaWAN/Mac/region/RegionCN470.c **** {
  86:../../../../../../Middlewares/Third_Party/LoRaWAN/Mac/region/RegionCN470.c ****     switch( BandwidthsCN470[drIndex] )
  87:../../../../../../Middlewares/Third_Party/LoRaWAN/Mac/region/RegionCN470.c ****     {
  88:../../../../../../Middlewares/Third_Party/LoRaWAN/Mac/region/RegionCN470.c ****         default:
ARM GAS  C:\Users\EBANO_~1\AppData\Local\Temp\cchbxRq9.s 			page 3


  89:../../../../../../Middlewares/Third_Party/LoRaWAN/Mac/region/RegionCN470.c ****         case 125000:
  90:../../../../../../Middlewares/Third_Party/LoRaWAN/Mac/region/RegionCN470.c ****             return 0;
  91:../../../../../../Middlewares/Third_Party/LoRaWAN/Mac/region/RegionCN470.c ****         case 250000:
  92:../../../../../../Middlewares/Third_Party/LoRaWAN/Mac/region/RegionCN470.c ****             return 1;
  93:../../../../../../Middlewares/Third_Party/LoRaWAN/Mac/region/RegionCN470.c ****         case 500000:
  94:../../../../../../Middlewares/Third_Party/LoRaWAN/Mac/region/RegionCN470.c ****             return 2;
  95:../../../../../../Middlewares/Third_Party/LoRaWAN/Mac/region/RegionCN470.c ****     }
  96:../../../../../../Middlewares/Third_Party/LoRaWAN/Mac/region/RegionCN470.c **** }
  97:../../../../../../Middlewares/Third_Party/LoRaWAN/Mac/region/RegionCN470.c **** 
  98:../../../../../../Middlewares/Third_Party/LoRaWAN/Mac/region/RegionCN470.c **** static int8_t LimitTxPower( int8_t txPower, int8_t maxBandTxPower, int8_t datarate, uint16_t* chann
  99:../../../../../../Middlewares/Third_Party/LoRaWAN/Mac/region/RegionCN470.c **** {
 100:../../../../../../Middlewares/Third_Party/LoRaWAN/Mac/region/RegionCN470.c ****     int8_t txPowerResult = txPower;
 101:../../../../../../Middlewares/Third_Party/LoRaWAN/Mac/region/RegionCN470.c **** 
 102:../../../../../../Middlewares/Third_Party/LoRaWAN/Mac/region/RegionCN470.c ****     // Limit tx power to the band max
 103:../../../../../../Middlewares/Third_Party/LoRaWAN/Mac/region/RegionCN470.c ****     txPowerResult =  MAX( txPower, maxBandTxPower );
 104:../../../../../../Middlewares/Third_Party/LoRaWAN/Mac/region/RegionCN470.c **** 
 105:../../../../../../Middlewares/Third_Party/LoRaWAN/Mac/region/RegionCN470.c ****     return txPowerResult;
 106:../../../../../../Middlewares/Third_Party/LoRaWAN/Mac/region/RegionCN470.c **** }
 107:../../../../../../Middlewares/Third_Party/LoRaWAN/Mac/region/RegionCN470.c **** 
 108:../../../../../../Middlewares/Third_Party/LoRaWAN/Mac/region/RegionCN470.c **** static bool VerifyRfFreq( uint32_t freq )
 109:../../../../../../Middlewares/Third_Party/LoRaWAN/Mac/region/RegionCN470.c **** {
 110:../../../../../../Middlewares/Third_Party/LoRaWAN/Mac/region/RegionCN470.c ****     // Check radio driver support
 111:../../../../../../Middlewares/Third_Party/LoRaWAN/Mac/region/RegionCN470.c ****     if( Radio.CheckRfFrequency( freq ) == false )
 112:../../../../../../Middlewares/Third_Party/LoRaWAN/Mac/region/RegionCN470.c ****     {
 113:../../../../../../Middlewares/Third_Party/LoRaWAN/Mac/region/RegionCN470.c ****         return false;
 114:../../../../../../Middlewares/Third_Party/LoRaWAN/Mac/region/RegionCN470.c ****     }
 115:../../../../../../Middlewares/Third_Party/LoRaWAN/Mac/region/RegionCN470.c **** 
 116:../../../../../../Middlewares/Third_Party/LoRaWAN/Mac/region/RegionCN470.c ****     // Rx frequencies
 117:../../../../../../Middlewares/Third_Party/LoRaWAN/Mac/region/RegionCN470.c ****     if( ( freq < CN470_FIRST_RX1_CHANNEL ) ||
 118:../../../../../../Middlewares/Third_Party/LoRaWAN/Mac/region/RegionCN470.c ****         ( freq > CN470_LAST_RX1_CHANNEL ) ||
 119:../../../../../../Middlewares/Third_Party/LoRaWAN/Mac/region/RegionCN470.c ****         ( ( ( freq - ( uint32_t ) CN470_FIRST_RX1_CHANNEL ) % ( uint32_t ) CN470_STEPWIDTH_RX1_CHAN
 120:../../../../../../Middlewares/Third_Party/LoRaWAN/Mac/region/RegionCN470.c ****     {
 121:../../../../../../Middlewares/Third_Party/LoRaWAN/Mac/region/RegionCN470.c ****         return false;
 122:../../../../../../Middlewares/Third_Party/LoRaWAN/Mac/region/RegionCN470.c ****     }
 123:../../../../../../Middlewares/Third_Party/LoRaWAN/Mac/region/RegionCN470.c **** 
 124:../../../../../../Middlewares/Third_Party/LoRaWAN/Mac/region/RegionCN470.c ****     // Test for frequency range - take RX and TX freqencies into account
 125:../../../../../../Middlewares/Third_Party/LoRaWAN/Mac/region/RegionCN470.c ****     if( ( freq < 470300000 ) ||  ( freq > 509700000 ) )
 126:../../../../../../Middlewares/Third_Party/LoRaWAN/Mac/region/RegionCN470.c ****     {
 127:../../../../../../Middlewares/Third_Party/LoRaWAN/Mac/region/RegionCN470.c ****         return false;
 128:../../../../../../Middlewares/Third_Party/LoRaWAN/Mac/region/RegionCN470.c ****     }
 129:../../../../../../Middlewares/Third_Party/LoRaWAN/Mac/region/RegionCN470.c ****     return true;
 130:../../../../../../Middlewares/Third_Party/LoRaWAN/Mac/region/RegionCN470.c **** }
 131:../../../../../../Middlewares/Third_Party/LoRaWAN/Mac/region/RegionCN470.c **** 
 132:../../../../../../Middlewares/Third_Party/LoRaWAN/Mac/region/RegionCN470.c **** static uint8_t CountNbOfEnabledChannels( uint8_t datarate, uint16_t* channelsMask, ChannelParams_t*
 133:../../../../../../Middlewares/Third_Party/LoRaWAN/Mac/region/RegionCN470.c **** {
 134:../../../../../../Middlewares/Third_Party/LoRaWAN/Mac/region/RegionCN470.c ****     uint8_t nbEnabledChannels = 0;
 135:../../../../../../Middlewares/Third_Party/LoRaWAN/Mac/region/RegionCN470.c ****     uint8_t delayTransmission = 0;
 136:../../../../../../Middlewares/Third_Party/LoRaWAN/Mac/region/RegionCN470.c **** 
 137:../../../../../../Middlewares/Third_Party/LoRaWAN/Mac/region/RegionCN470.c ****     for( uint8_t i = 0, k = 0; i < CN470_MAX_NB_CHANNELS; i += 16, k++ )
 138:../../../../../../Middlewares/Third_Party/LoRaWAN/Mac/region/RegionCN470.c ****     {
 139:../../../../../../Middlewares/Third_Party/LoRaWAN/Mac/region/RegionCN470.c ****         for( uint8_t j = 0; j < 16; j++ )
 140:../../../../../../Middlewares/Third_Party/LoRaWAN/Mac/region/RegionCN470.c ****         {
 141:../../../../../../Middlewares/Third_Party/LoRaWAN/Mac/region/RegionCN470.c ****             if( ( channelsMask[k] & ( 1 << j ) ) != 0 )
 142:../../../../../../Middlewares/Third_Party/LoRaWAN/Mac/region/RegionCN470.c ****             {
 143:../../../../../../Middlewares/Third_Party/LoRaWAN/Mac/region/RegionCN470.c ****                 if( channels[i + j].Frequency == 0 )
 144:../../../../../../Middlewares/Third_Party/LoRaWAN/Mac/region/RegionCN470.c ****                 { // Check if the channel is enabled
 145:../../../../../../Middlewares/Third_Party/LoRaWAN/Mac/region/RegionCN470.c ****                     continue;
ARM GAS  C:\Users\EBANO_~1\AppData\Local\Temp\cchbxRq9.s 			page 4


 146:../../../../../../Middlewares/Third_Party/LoRaWAN/Mac/region/RegionCN470.c ****                 }
 147:../../../../../../Middlewares/Third_Party/LoRaWAN/Mac/region/RegionCN470.c ****                 if( RegionCommonValueInRange( datarate, channels[i + j].DrRange.Fields.Min,
 148:../../../../../../Middlewares/Third_Party/LoRaWAN/Mac/region/RegionCN470.c ****                                               channels[i + j].DrRange.Fields.Max ) == false )
 149:../../../../../../Middlewares/Third_Party/LoRaWAN/Mac/region/RegionCN470.c ****                 { // Check if the current channel selection supports the given datarate
 150:../../../../../../Middlewares/Third_Party/LoRaWAN/Mac/region/RegionCN470.c ****                     continue;
 151:../../../../../../Middlewares/Third_Party/LoRaWAN/Mac/region/RegionCN470.c ****                 }
 152:../../../../../../Middlewares/Third_Party/LoRaWAN/Mac/region/RegionCN470.c ****                 if( bands[channels[i + j].Band].TimeOff > 0 )
 153:../../../../../../Middlewares/Third_Party/LoRaWAN/Mac/region/RegionCN470.c ****                 { // Check if the band is available for transmission
 154:../../../../../../Middlewares/Third_Party/LoRaWAN/Mac/region/RegionCN470.c ****                     delayTransmission++;
 155:../../../../../../Middlewares/Third_Party/LoRaWAN/Mac/region/RegionCN470.c ****                     continue;
 156:../../../../../../Middlewares/Third_Party/LoRaWAN/Mac/region/RegionCN470.c ****                 }
 157:../../../../../../Middlewares/Third_Party/LoRaWAN/Mac/region/RegionCN470.c ****                 enabledChannels[nbEnabledChannels++] = i + j;
 158:../../../../../../Middlewares/Third_Party/LoRaWAN/Mac/region/RegionCN470.c ****             }
 159:../../../../../../Middlewares/Third_Party/LoRaWAN/Mac/region/RegionCN470.c ****         }
 160:../../../../../../Middlewares/Third_Party/LoRaWAN/Mac/region/RegionCN470.c ****     }
 161:../../../../../../Middlewares/Third_Party/LoRaWAN/Mac/region/RegionCN470.c **** 
 162:../../../../../../Middlewares/Third_Party/LoRaWAN/Mac/region/RegionCN470.c ****     *delayTx = delayTransmission;
 163:../../../../../../Middlewares/Third_Party/LoRaWAN/Mac/region/RegionCN470.c ****     return nbEnabledChannels;
 164:../../../../../../Middlewares/Third_Party/LoRaWAN/Mac/region/RegionCN470.c **** }
 165:../../../../../../Middlewares/Third_Party/LoRaWAN/Mac/region/RegionCN470.c **** 
 166:../../../../../../Middlewares/Third_Party/LoRaWAN/Mac/region/RegionCN470.c **** PhyParam_t RegionCN470GetPhyParam( GetPhyParams_t* getPhy )
 167:../../../../../../Middlewares/Third_Party/LoRaWAN/Mac/region/RegionCN470.c **** {
  27              		.loc 1 167 0
  28              		.cfi_startproc
  29              		@ args = 0, pretend = 0, frame = 8
  30              		@ frame_needed = 0, uses_anonymous_args = 0
  31              	.LVL0:
 168:../../../../../../Middlewares/Third_Party/LoRaWAN/Mac/region/RegionCN470.c ****     PhyParam_t phyParam = { 0 };
  32              		.loc 1 168 0
  33 0000 0023     		movs	r3, #0
 167:../../../../../../Middlewares/Third_Party/LoRaWAN/Mac/region/RegionCN470.c ****     PhyParam_t phyParam = { 0 };
  34              		.loc 1 167 0
  35 0002 00B5     		push	{lr}
  36              	.LCFI0:
  37              		.cfi_def_cfa_offset 4
  38              		.cfi_offset 14, -4
  39 0004 83B0     		sub	sp, sp, #12
  40              	.LCFI1:
  41              		.cfi_def_cfa_offset 16
  42              		.loc 1 168 0
  43 0006 0093     		str	r3, [sp]
 169:../../../../../../Middlewares/Third_Party/LoRaWAN/Mac/region/RegionCN470.c **** 
 170:../../../../../../Middlewares/Third_Party/LoRaWAN/Mac/region/RegionCN470.c ****     switch( getPhy->Attribute )
  44              		.loc 1 170 0
  45 0008 0378     		ldrb	r3, [r0]
  46 000a 0A3B     		subs	r3, r3, #10
  47 000c DBB2     		uxtb	r3, r3
  48 000e 2A2B     		cmp	r3, #42
  49 0010 05D8     		bhi	.L2
  50 0012 324A     		ldr	r2, .L31
  51 0014 9B00     		lsls	r3, r3, #2
  52 0016 D358     		ldr	r3, [r2, r3]
  53 0018 9F46     		mov	pc, r3
  54              		.section	.rodata
  55              		.align	2
  56              	.L4:
  57 0000 CA000000 		.word	.L3
ARM GAS  C:\Users\EBANO_~1\AppData\Local\Temp\cchbxRq9.s 			page 5


  58 0004 C4000000 		.word	.L5
  59 0008 D0000000 		.word	.L6
  60 000c B8000000 		.word	.L7
  61 0010 1E000000 		.word	.L2
  62 0014 A0000000 		.word	.L8
  63 0018 98000000 		.word	.L9
  64 001c 90000000 		.word	.L10
  65 0020 8A000000 		.word	.L11
  66 0024 84000000 		.word	.L12
  67 0028 7C000000 		.word	.L13
  68 002c 66000000 		.word	.L14
  69 0030 1E000000 		.word	.L2
  70 0034 5A000000 		.word	.L15
  71 0038 1E000000 		.word	.L2
  72 003c 4E000000 		.word	.L16
  73 0040 48000000 		.word	.L17
  74 0044 1A000000 		.word	.L18
  75 0048 42000000 		.word	.L19
  76 004c 1E000000 		.word	.L2
  77 0050 1E000000 		.word	.L2
  78 0054 54000000 		.word	.L20
  79 0058 60000000 		.word	.L21
  80 005c A6000000 		.word	.L22
  81 0060 1E000000 		.word	.L2
  82 0064 1E000000 		.word	.L2
  83 0068 1E000000 		.word	.L2
  84 006c 1E000000 		.word	.L2
  85 0070 1E000000 		.word	.L2
  86 0074 1E000000 		.word	.L2
  87 0078 1E000000 		.word	.L2
  88 007c 1E000000 		.word	.L2
  89 0080 1E000000 		.word	.L2
  90 0084 1E000000 		.word	.L2
  91 0088 1E000000 		.word	.L2
  92 008c 1E000000 		.word	.L2
  93 0090 1E000000 		.word	.L2
  94 0094 1E000000 		.word	.L2
  95 0098 2A000000 		.word	.L23
  96 009c 24000000 		.word	.L24
  97 00a0 36000000 		.word	.L25
  98 00a4 3C000000 		.word	.L26
  99 00a8 24000000 		.word	.L24
 100              		.section	.text.RegionCN470GetPhyParam
 101              	.L18:
 171:../../../../../../Middlewares/Third_Party/LoRaWAN/Mac/region/RegionCN470.c ****     {
 172:../../../../../../Middlewares/Third_Party/LoRaWAN/Mac/region/RegionCN470.c ****         case PHY_MIN_RX_DR:
 173:../../../../../../Middlewares/Third_Party/LoRaWAN/Mac/region/RegionCN470.c ****         {
 174:../../../../../../Middlewares/Third_Party/LoRaWAN/Mac/region/RegionCN470.c ****             phyParam.Value = CN470_RX_MIN_DATARATE;
 175:../../../../../../Middlewares/Third_Party/LoRaWAN/Mac/region/RegionCN470.c ****             break;
 176:../../../../../../Middlewares/Third_Party/LoRaWAN/Mac/region/RegionCN470.c ****         }
 177:../../../../../../Middlewares/Third_Party/LoRaWAN/Mac/region/RegionCN470.c ****         case PHY_MIN_TX_DR:
 178:../../../../../../Middlewares/Third_Party/LoRaWAN/Mac/region/RegionCN470.c ****         {
 179:../../../../../../Middlewares/Third_Party/LoRaWAN/Mac/region/RegionCN470.c ****             phyParam.Value = CN470_TX_MIN_DATARATE;
 180:../../../../../../Middlewares/Third_Party/LoRaWAN/Mac/region/RegionCN470.c ****             break;
 181:../../../../../../Middlewares/Third_Party/LoRaWAN/Mac/region/RegionCN470.c ****         }
 182:../../../../../../Middlewares/Third_Party/LoRaWAN/Mac/region/RegionCN470.c ****         case PHY_DEF_TX_DR:
 183:../../../../../../Middlewares/Third_Party/LoRaWAN/Mac/region/RegionCN470.c ****         {
ARM GAS  C:\Users\EBANO_~1\AppData\Local\Temp\cchbxRq9.s 			page 6


 184:../../../../../../Middlewares/Third_Party/LoRaWAN/Mac/region/RegionCN470.c ****             phyParam.Value = CN470_DEFAULT_DATARATE;
 185:../../../../../../Middlewares/Third_Party/LoRaWAN/Mac/region/RegionCN470.c ****             break;
 186:../../../../../../Middlewares/Third_Party/LoRaWAN/Mac/region/RegionCN470.c ****         }
 187:../../../../../../Middlewares/Third_Party/LoRaWAN/Mac/region/RegionCN470.c ****         case PHY_NEXT_LOWER_TX_DR:
 188:../../../../../../Middlewares/Third_Party/LoRaWAN/Mac/region/RegionCN470.c ****         {
 189:../../../../../../Middlewares/Third_Party/LoRaWAN/Mac/region/RegionCN470.c ****             phyParam.Value = GetNextLowerTxDr( getPhy->Datarate, CN470_TX_MIN_DATARATE );
 190:../../../../../../Middlewares/Third_Party/LoRaWAN/Mac/region/RegionCN470.c ****             break;
 191:../../../../../../Middlewares/Third_Party/LoRaWAN/Mac/region/RegionCN470.c ****         }
 192:../../../../../../Middlewares/Third_Party/LoRaWAN/Mac/region/RegionCN470.c ****         case PHY_MAX_TX_POWER:
 193:../../../../../../Middlewares/Third_Party/LoRaWAN/Mac/region/RegionCN470.c ****         {
 194:../../../../../../Middlewares/Third_Party/LoRaWAN/Mac/region/RegionCN470.c ****             phyParam.Value = CN470_MAX_TX_POWER;
 195:../../../../../../Middlewares/Third_Party/LoRaWAN/Mac/region/RegionCN470.c ****             break;
 196:../../../../../../Middlewares/Third_Party/LoRaWAN/Mac/region/RegionCN470.c ****         }
 197:../../../../../../Middlewares/Third_Party/LoRaWAN/Mac/region/RegionCN470.c ****         case PHY_DEF_TX_POWER:
 198:../../../../../../Middlewares/Third_Party/LoRaWAN/Mac/region/RegionCN470.c ****         {
 199:../../../../../../Middlewares/Third_Party/LoRaWAN/Mac/region/RegionCN470.c ****             phyParam.Value = CN470_DEFAULT_TX_POWER;
 200:../../../../../../Middlewares/Third_Party/LoRaWAN/Mac/region/RegionCN470.c ****             break;
 201:../../../../../../Middlewares/Third_Party/LoRaWAN/Mac/region/RegionCN470.c ****         }
 202:../../../../../../Middlewares/Third_Party/LoRaWAN/Mac/region/RegionCN470.c ****         case PHY_DEF_ADR_ACK_LIMIT:
 203:../../../../../../Middlewares/Third_Party/LoRaWAN/Mac/region/RegionCN470.c ****         {
 204:../../../../../../Middlewares/Third_Party/LoRaWAN/Mac/region/RegionCN470.c ****             phyParam.Value = CN470_ADR_ACK_LIMIT;
 205:../../../../../../Middlewares/Third_Party/LoRaWAN/Mac/region/RegionCN470.c ****             break;
 206:../../../../../../Middlewares/Third_Party/LoRaWAN/Mac/region/RegionCN470.c ****         }
 207:../../../../../../Middlewares/Third_Party/LoRaWAN/Mac/region/RegionCN470.c ****         case PHY_DEF_ADR_ACK_DELAY:
 208:../../../../../../Middlewares/Third_Party/LoRaWAN/Mac/region/RegionCN470.c ****         {
 209:../../../../../../Middlewares/Third_Party/LoRaWAN/Mac/region/RegionCN470.c ****             phyParam.Value = CN470_ADR_ACK_DELAY;
 210:../../../../../../Middlewares/Third_Party/LoRaWAN/Mac/region/RegionCN470.c ****             break;
 211:../../../../../../Middlewares/Third_Party/LoRaWAN/Mac/region/RegionCN470.c ****         }
 212:../../../../../../Middlewares/Third_Party/LoRaWAN/Mac/region/RegionCN470.c ****         case PHY_MAX_PAYLOAD:
 213:../../../../../../Middlewares/Third_Party/LoRaWAN/Mac/region/RegionCN470.c ****         {
 214:../../../../../../Middlewares/Third_Party/LoRaWAN/Mac/region/RegionCN470.c ****             phyParam.Value = MaxPayloadOfDatarateCN470[getPhy->Datarate];
 215:../../../../../../Middlewares/Third_Party/LoRaWAN/Mac/region/RegionCN470.c ****             break;
 216:../../../../../../Middlewares/Third_Party/LoRaWAN/Mac/region/RegionCN470.c ****         }
 217:../../../../../../Middlewares/Third_Party/LoRaWAN/Mac/region/RegionCN470.c ****         case PHY_MAX_PAYLOAD_REPEATER:
 218:../../../../../../Middlewares/Third_Party/LoRaWAN/Mac/region/RegionCN470.c ****         {
 219:../../../../../../Middlewares/Third_Party/LoRaWAN/Mac/region/RegionCN470.c ****             phyParam.Value = MaxPayloadOfDatarateRepeaterCN470[getPhy->Datarate];
 220:../../../../../../Middlewares/Third_Party/LoRaWAN/Mac/region/RegionCN470.c ****             break;
 221:../../../../../../Middlewares/Third_Party/LoRaWAN/Mac/region/RegionCN470.c ****         }
 222:../../../../../../Middlewares/Third_Party/LoRaWAN/Mac/region/RegionCN470.c ****         case PHY_DUTY_CYCLE:
 223:../../../../../../Middlewares/Third_Party/LoRaWAN/Mac/region/RegionCN470.c ****         {
 224:../../../../../../Middlewares/Third_Party/LoRaWAN/Mac/region/RegionCN470.c ****             phyParam.Value = CN470_DUTY_CYCLE_ENABLED;
 225:../../../../../../Middlewares/Third_Party/LoRaWAN/Mac/region/RegionCN470.c ****             break;
 226:../../../../../../Middlewares/Third_Party/LoRaWAN/Mac/region/RegionCN470.c ****         }
 227:../../../../../../Middlewares/Third_Party/LoRaWAN/Mac/region/RegionCN470.c ****         case PHY_MAX_RX_WINDOW:
 228:../../../../../../Middlewares/Third_Party/LoRaWAN/Mac/region/RegionCN470.c ****         {
 229:../../../../../../Middlewares/Third_Party/LoRaWAN/Mac/region/RegionCN470.c ****             phyParam.Value = CN470_MAX_RX_WINDOW;
 230:../../../../../../Middlewares/Third_Party/LoRaWAN/Mac/region/RegionCN470.c ****             break;
 231:../../../../../../Middlewares/Third_Party/LoRaWAN/Mac/region/RegionCN470.c ****         }
 232:../../../../../../Middlewares/Third_Party/LoRaWAN/Mac/region/RegionCN470.c ****         case PHY_RECEIVE_DELAY1:
 233:../../../../../../Middlewares/Third_Party/LoRaWAN/Mac/region/RegionCN470.c ****         {
 234:../../../../../../Middlewares/Third_Party/LoRaWAN/Mac/region/RegionCN470.c ****             phyParam.Value = CN470_RECEIVE_DELAY1;
 235:../../../../../../Middlewares/Third_Party/LoRaWAN/Mac/region/RegionCN470.c ****             break;
 236:../../../../../../Middlewares/Third_Party/LoRaWAN/Mac/region/RegionCN470.c ****         }
 237:../../../../../../Middlewares/Third_Party/LoRaWAN/Mac/region/RegionCN470.c ****         case PHY_RECEIVE_DELAY2:
 238:../../../../../../Middlewares/Third_Party/LoRaWAN/Mac/region/RegionCN470.c ****         {
 239:../../../../../../Middlewares/Third_Party/LoRaWAN/Mac/region/RegionCN470.c ****             phyParam.Value = CN470_RECEIVE_DELAY2;
 240:../../../../../../Middlewares/Third_Party/LoRaWAN/Mac/region/RegionCN470.c ****             break;
ARM GAS  C:\Users\EBANO_~1\AppData\Local\Temp\cchbxRq9.s 			page 7


 241:../../../../../../Middlewares/Third_Party/LoRaWAN/Mac/region/RegionCN470.c ****         }
 242:../../../../../../Middlewares/Third_Party/LoRaWAN/Mac/region/RegionCN470.c ****         case PHY_JOIN_ACCEPT_DELAY1:
 243:../../../../../../Middlewares/Third_Party/LoRaWAN/Mac/region/RegionCN470.c ****         {
 244:../../../../../../Middlewares/Third_Party/LoRaWAN/Mac/region/RegionCN470.c ****             phyParam.Value = CN470_JOIN_ACCEPT_DELAY1;
 245:../../../../../../Middlewares/Third_Party/LoRaWAN/Mac/region/RegionCN470.c ****             break;
 246:../../../../../../Middlewares/Third_Party/LoRaWAN/Mac/region/RegionCN470.c ****         }
 247:../../../../../../Middlewares/Third_Party/LoRaWAN/Mac/region/RegionCN470.c ****         case PHY_JOIN_ACCEPT_DELAY2:
 248:../../../../../../Middlewares/Third_Party/LoRaWAN/Mac/region/RegionCN470.c ****         {
 249:../../../../../../Middlewares/Third_Party/LoRaWAN/Mac/region/RegionCN470.c ****             phyParam.Value = CN470_JOIN_ACCEPT_DELAY2;
 250:../../../../../../Middlewares/Third_Party/LoRaWAN/Mac/region/RegionCN470.c ****             break;
 251:../../../../../../Middlewares/Third_Party/LoRaWAN/Mac/region/RegionCN470.c ****         }
 252:../../../../../../Middlewares/Third_Party/LoRaWAN/Mac/region/RegionCN470.c ****         case PHY_MAX_FCNT_GAP:
 253:../../../../../../Middlewares/Third_Party/LoRaWAN/Mac/region/RegionCN470.c ****         {
 254:../../../../../../Middlewares/Third_Party/LoRaWAN/Mac/region/RegionCN470.c ****             phyParam.Value = CN470_MAX_FCNT_GAP;
 255:../../../../../../Middlewares/Third_Party/LoRaWAN/Mac/region/RegionCN470.c ****             break;
 256:../../../../../../Middlewares/Third_Party/LoRaWAN/Mac/region/RegionCN470.c ****         }
 257:../../../../../../Middlewares/Third_Party/LoRaWAN/Mac/region/RegionCN470.c ****         case PHY_ACK_TIMEOUT:
 258:../../../../../../Middlewares/Third_Party/LoRaWAN/Mac/region/RegionCN470.c ****         {
 259:../../../../../../Middlewares/Third_Party/LoRaWAN/Mac/region/RegionCN470.c ****             phyParam.Value = ( CN470_ACKTIMEOUT + randr( -CN470_ACK_TIMEOUT_RND, CN470_ACK_TIMEOUT_
 260:../../../../../../Middlewares/Third_Party/LoRaWAN/Mac/region/RegionCN470.c ****             break;
 261:../../../../../../Middlewares/Third_Party/LoRaWAN/Mac/region/RegionCN470.c ****         }
 262:../../../../../../Middlewares/Third_Party/LoRaWAN/Mac/region/RegionCN470.c ****         case PHY_DEF_DR1_OFFSET:
 263:../../../../../../Middlewares/Third_Party/LoRaWAN/Mac/region/RegionCN470.c ****         {
 264:../../../../../../Middlewares/Third_Party/LoRaWAN/Mac/region/RegionCN470.c ****             phyParam.Value = CN470_DEFAULT_RX1_DR_OFFSET;
 265:../../../../../../Middlewares/Third_Party/LoRaWAN/Mac/region/RegionCN470.c ****             break;
 266:../../../../../../Middlewares/Third_Party/LoRaWAN/Mac/region/RegionCN470.c ****         }
 267:../../../../../../Middlewares/Third_Party/LoRaWAN/Mac/region/RegionCN470.c ****         case PHY_DEF_RX2_FREQUENCY:
 268:../../../../../../Middlewares/Third_Party/LoRaWAN/Mac/region/RegionCN470.c ****         {
 269:../../../../../../Middlewares/Third_Party/LoRaWAN/Mac/region/RegionCN470.c ****             phyParam.Value = CN470_RX_WND_2_FREQ;
 270:../../../../../../Middlewares/Third_Party/LoRaWAN/Mac/region/RegionCN470.c ****             break;
 271:../../../../../../Middlewares/Third_Party/LoRaWAN/Mac/region/RegionCN470.c ****         }
 272:../../../../../../Middlewares/Third_Party/LoRaWAN/Mac/region/RegionCN470.c ****         case PHY_DEF_RX2_DR:
 273:../../../../../../Middlewares/Third_Party/LoRaWAN/Mac/region/RegionCN470.c ****         {
 274:../../../../../../Middlewares/Third_Party/LoRaWAN/Mac/region/RegionCN470.c ****             phyParam.Value = CN470_RX_WND_2_DR;
 275:../../../../../../Middlewares/Third_Party/LoRaWAN/Mac/region/RegionCN470.c ****             break;
 276:../../../../../../Middlewares/Third_Party/LoRaWAN/Mac/region/RegionCN470.c ****         }
 277:../../../../../../Middlewares/Third_Party/LoRaWAN/Mac/region/RegionCN470.c ****         case PHY_CHANNELS_MASK:
 278:../../../../../../Middlewares/Third_Party/LoRaWAN/Mac/region/RegionCN470.c ****         {
 279:../../../../../../Middlewares/Third_Party/LoRaWAN/Mac/region/RegionCN470.c ****             phyParam.ChannelsMask = NvmCtx.ChannelsMask;
 280:../../../../../../Middlewares/Third_Party/LoRaWAN/Mac/region/RegionCN470.c ****             break;
 281:../../../../../../Middlewares/Third_Party/LoRaWAN/Mac/region/RegionCN470.c ****         }
 282:../../../../../../Middlewares/Third_Party/LoRaWAN/Mac/region/RegionCN470.c ****         case PHY_CHANNELS_DEFAULT_MASK:
 283:../../../../../../Middlewares/Third_Party/LoRaWAN/Mac/region/RegionCN470.c ****         {
 284:../../../../../../Middlewares/Third_Party/LoRaWAN/Mac/region/RegionCN470.c ****             phyParam.ChannelsMask = NvmCtx.ChannelsDefaultMask;
 285:../../../../../../Middlewares/Third_Party/LoRaWAN/Mac/region/RegionCN470.c ****             break;
 286:../../../../../../Middlewares/Third_Party/LoRaWAN/Mac/region/RegionCN470.c ****         }
 287:../../../../../../Middlewares/Third_Party/LoRaWAN/Mac/region/RegionCN470.c ****         case PHY_MAX_NB_CHANNELS:
 288:../../../../../../Middlewares/Third_Party/LoRaWAN/Mac/region/RegionCN470.c ****         {
 289:../../../../../../Middlewares/Third_Party/LoRaWAN/Mac/region/RegionCN470.c ****             phyParam.Value = CN470_MAX_NB_CHANNELS;
 102              		.loc 1 289 0
 103 001a 6023     		movs	r3, #96
 104 001c 0093     		str	r3, [sp]
 105              	.LVL1:
 106              	.L2:
 290:../../../../../../Middlewares/Third_Party/LoRaWAN/Mac/region/RegionCN470.c ****             break;
 291:../../../../../../Middlewares/Third_Party/LoRaWAN/Mac/region/RegionCN470.c ****         }
 292:../../../../../../Middlewares/Third_Party/LoRaWAN/Mac/region/RegionCN470.c ****         case PHY_CHANNELS:
ARM GAS  C:\Users\EBANO_~1\AppData\Local\Temp\cchbxRq9.s 			page 8


 293:../../../../../../Middlewares/Third_Party/LoRaWAN/Mac/region/RegionCN470.c ****         {
 294:../../../../../../Middlewares/Third_Party/LoRaWAN/Mac/region/RegionCN470.c ****             phyParam.Channels = NvmCtx.Channels;
 295:../../../../../../Middlewares/Third_Party/LoRaWAN/Mac/region/RegionCN470.c ****             break;
 296:../../../../../../Middlewares/Third_Party/LoRaWAN/Mac/region/RegionCN470.c ****         }
 297:../../../../../../Middlewares/Third_Party/LoRaWAN/Mac/region/RegionCN470.c ****         case PHY_DEF_UPLINK_DWELL_TIME:
 298:../../../../../../Middlewares/Third_Party/LoRaWAN/Mac/region/RegionCN470.c ****         case PHY_DEF_DOWNLINK_DWELL_TIME:
 299:../../../../../../Middlewares/Third_Party/LoRaWAN/Mac/region/RegionCN470.c ****         {
 300:../../../../../../Middlewares/Third_Party/LoRaWAN/Mac/region/RegionCN470.c ****             phyParam.Value = 0;
 301:../../../../../../Middlewares/Third_Party/LoRaWAN/Mac/region/RegionCN470.c ****             break;
 302:../../../../../../Middlewares/Third_Party/LoRaWAN/Mac/region/RegionCN470.c ****         }
 303:../../../../../../Middlewares/Third_Party/LoRaWAN/Mac/region/RegionCN470.c ****         case PHY_DEF_MAX_EIRP:
 304:../../../../../../Middlewares/Third_Party/LoRaWAN/Mac/region/RegionCN470.c ****         {
 305:../../../../../../Middlewares/Third_Party/LoRaWAN/Mac/region/RegionCN470.c ****             phyParam.fValue = CN470_DEFAULT_MAX_EIRP;
 306:../../../../../../Middlewares/Third_Party/LoRaWAN/Mac/region/RegionCN470.c ****             break;
 307:../../../../../../Middlewares/Third_Party/LoRaWAN/Mac/region/RegionCN470.c ****         }
 308:../../../../../../Middlewares/Third_Party/LoRaWAN/Mac/region/RegionCN470.c ****         case PHY_DEF_ANTENNA_GAIN:
 309:../../../../../../Middlewares/Third_Party/LoRaWAN/Mac/region/RegionCN470.c ****         {
 310:../../../../../../Middlewares/Third_Party/LoRaWAN/Mac/region/RegionCN470.c ****             phyParam.fValue = CN470_DEFAULT_ANTENNA_GAIN;
 311:../../../../../../Middlewares/Third_Party/LoRaWAN/Mac/region/RegionCN470.c ****             break;
 312:../../../../../../Middlewares/Third_Party/LoRaWAN/Mac/region/RegionCN470.c ****         }
 313:../../../../../../Middlewares/Third_Party/LoRaWAN/Mac/region/RegionCN470.c ****         case PHY_BEACON_FORMAT:
 314:../../../../../../Middlewares/Third_Party/LoRaWAN/Mac/region/RegionCN470.c ****         {
 315:../../../../../../Middlewares/Third_Party/LoRaWAN/Mac/region/RegionCN470.c ****             phyParam.BeaconFormat.BeaconSize = CN470_BEACON_SIZE;
 316:../../../../../../Middlewares/Third_Party/LoRaWAN/Mac/region/RegionCN470.c ****             phyParam.BeaconFormat.Rfu1Size = CN470_RFU1_SIZE;
 317:../../../../../../Middlewares/Third_Party/LoRaWAN/Mac/region/RegionCN470.c ****             phyParam.BeaconFormat.Rfu2Size = CN470_RFU2_SIZE;
 318:../../../../../../Middlewares/Third_Party/LoRaWAN/Mac/region/RegionCN470.c ****             break;
 319:../../../../../../Middlewares/Third_Party/LoRaWAN/Mac/region/RegionCN470.c ****         }
 320:../../../../../../Middlewares/Third_Party/LoRaWAN/Mac/region/RegionCN470.c ****         case PHY_BEACON_CHANNEL_DR:
 321:../../../../../../Middlewares/Third_Party/LoRaWAN/Mac/region/RegionCN470.c ****         {
 322:../../../../../../Middlewares/Third_Party/LoRaWAN/Mac/region/RegionCN470.c ****             phyParam.Value = CN470_BEACON_CHANNEL_DR;
 323:../../../../../../Middlewares/Third_Party/LoRaWAN/Mac/region/RegionCN470.c ****             break;
 324:../../../../../../Middlewares/Third_Party/LoRaWAN/Mac/region/RegionCN470.c ****         }
 325:../../../../../../Middlewares/Third_Party/LoRaWAN/Mac/region/RegionCN470.c ****         case PHY_BEACON_CHANNEL_STEPWIDTH:
 326:../../../../../../Middlewares/Third_Party/LoRaWAN/Mac/region/RegionCN470.c ****         {
 327:../../../../../../Middlewares/Third_Party/LoRaWAN/Mac/region/RegionCN470.c ****             phyParam.Value = CN470_BEACON_CHANNEL_STEPWIDTH;
 328:../../../../../../Middlewares/Third_Party/LoRaWAN/Mac/region/RegionCN470.c ****             break;
 329:../../../../../../Middlewares/Third_Party/LoRaWAN/Mac/region/RegionCN470.c ****         }
 330:../../../../../../Middlewares/Third_Party/LoRaWAN/Mac/region/RegionCN470.c ****         case PHY_BEACON_NB_CHANNELS:
 331:../../../../../../Middlewares/Third_Party/LoRaWAN/Mac/region/RegionCN470.c ****         {
 332:../../../../../../Middlewares/Third_Party/LoRaWAN/Mac/region/RegionCN470.c ****             phyParam.Value = CN470_BEACON_NB_CHANNELS;
 333:../../../../../../Middlewares/Third_Party/LoRaWAN/Mac/region/RegionCN470.c ****             break;
 334:../../../../../../Middlewares/Third_Party/LoRaWAN/Mac/region/RegionCN470.c ****         }
 335:../../../../../../Middlewares/Third_Party/LoRaWAN/Mac/region/RegionCN470.c ****         case PHY_PING_SLOT_CHANNEL_DR:
 336:../../../../../../Middlewares/Third_Party/LoRaWAN/Mac/region/RegionCN470.c ****         {
 337:../../../../../../Middlewares/Third_Party/LoRaWAN/Mac/region/RegionCN470.c ****             phyParam.Value = CN470_PING_SLOT_CHANNEL_DR;
 338:../../../../../../Middlewares/Third_Party/LoRaWAN/Mac/region/RegionCN470.c ****             break;
 339:../../../../../../Middlewares/Third_Party/LoRaWAN/Mac/region/RegionCN470.c ****         }
 340:../../../../../../Middlewares/Third_Party/LoRaWAN/Mac/region/RegionCN470.c ****         default:
 341:../../../../../../Middlewares/Third_Party/LoRaWAN/Mac/region/RegionCN470.c ****         {
 342:../../../../../../Middlewares/Third_Party/LoRaWAN/Mac/region/RegionCN470.c ****             break;
 343:../../../../../../Middlewares/Third_Party/LoRaWAN/Mac/region/RegionCN470.c ****         }
 344:../../../../../../Middlewares/Third_Party/LoRaWAN/Mac/region/RegionCN470.c ****     }
 345:../../../../../../Middlewares/Third_Party/LoRaWAN/Mac/region/RegionCN470.c **** 
 346:../../../../../../Middlewares/Third_Party/LoRaWAN/Mac/region/RegionCN470.c ****     return phyParam;
 347:../../../../../../Middlewares/Third_Party/LoRaWAN/Mac/region/RegionCN470.c **** }
 107              		.loc 1 347 0
 108 001e 0098     		ldr	r0, [sp]
ARM GAS  C:\Users\EBANO_~1\AppData\Local\Temp\cchbxRq9.s 			page 9


 109 0020 03B0     		add	sp, sp, #12
 110              		@ sp needed
 111 0022 00BD     		pop	{pc}
 112              	.LVL2:
 113              	.L24:
 322:../../../../../../Middlewares/Third_Party/LoRaWAN/Mac/region/RegionCN470.c ****             break;
 114              		.loc 1 322 0
 115 0024 0223     		movs	r3, #2
 116 0026 0093     		str	r3, [sp]
 323:../../../../../../Middlewares/Third_Party/LoRaWAN/Mac/region/RegionCN470.c ****         }
 117              		.loc 1 323 0
 118 0028 F9E7     		b	.L2
 119              	.L23:
 315:../../../../../../Middlewares/Third_Party/LoRaWAN/Mac/region/RegionCN470.c ****             phyParam.BeaconFormat.Rfu1Size = CN470_RFU1_SIZE;
 120              		.loc 1 315 0
 121 002a 6A46     		mov	r2, sp
 122 002c 2C4B     		ldr	r3, .L31+4
 123 002e 1380     		strh	r3, [r2]
 316:../../../../../../Middlewares/Third_Party/LoRaWAN/Mac/region/RegionCN470.c ****             phyParam.BeaconFormat.Rfu2Size = CN470_RFU2_SIZE;
 124              		.loc 1 316 0
 125 0030 0123     		movs	r3, #1
 126 0032 9370     		strb	r3, [r2, #2]
 318:../../../../../../Middlewares/Third_Party/LoRaWAN/Mac/region/RegionCN470.c ****         }
 127              		.loc 1 318 0
 128 0034 F3E7     		b	.L2
 129              	.L25:
 327:../../../../../../Middlewares/Third_Party/LoRaWAN/Mac/region/RegionCN470.c ****             break;
 130              		.loc 1 327 0
 131 0036 2B4B     		ldr	r3, .L31+8
 132 0038 0093     		str	r3, [sp]
 328:../../../../../../Middlewares/Third_Party/LoRaWAN/Mac/region/RegionCN470.c ****         }
 133              		.loc 1 328 0
 134 003a F0E7     		b	.L2
 135              	.L26:
 332:../../../../../../Middlewares/Third_Party/LoRaWAN/Mac/region/RegionCN470.c ****             break;
 136              		.loc 1 332 0
 137 003c 0823     		movs	r3, #8
 138 003e 0093     		str	r3, [sp]
 333:../../../../../../Middlewares/Third_Party/LoRaWAN/Mac/region/RegionCN470.c ****         }
 139              		.loc 1 333 0
 140 0040 EDE7     		b	.L2
 141              	.L19:
 294:../../../../../../Middlewares/Third_Party/LoRaWAN/Mac/region/RegionCN470.c ****             break;
 142              		.loc 1 294 0
 143 0042 294B     		ldr	r3, .L31+12
 144 0044 0093     		str	r3, [sp]
 295:../../../../../../Middlewares/Third_Party/LoRaWAN/Mac/region/RegionCN470.c ****         }
 145              		.loc 1 295 0
 146 0046 EAE7     		b	.L2
 147              	.L17:
 284:../../../../../../Middlewares/Third_Party/LoRaWAN/Mac/region/RegionCN470.c ****             break;
 148              		.loc 1 284 0
 149 0048 284B     		ldr	r3, .L31+16
 150 004a 0093     		str	r3, [sp]
 285:../../../../../../Middlewares/Third_Party/LoRaWAN/Mac/region/RegionCN470.c ****         }
 151              		.loc 1 285 0
 152 004c E7E7     		b	.L2
ARM GAS  C:\Users\EBANO_~1\AppData\Local\Temp\cchbxRq9.s 			page 10


 153              	.L16:
 279:../../../../../../Middlewares/Third_Party/LoRaWAN/Mac/region/RegionCN470.c ****             break;
 154              		.loc 1 279 0
 155 004e 284B     		ldr	r3, .L31+20
 156 0050 0093     		str	r3, [sp]
 280:../../../../../../Middlewares/Third_Party/LoRaWAN/Mac/region/RegionCN470.c ****         }
 157              		.loc 1 280 0
 158 0052 E4E7     		b	.L2
 159              	.L20:
 305:../../../../../../Middlewares/Third_Party/LoRaWAN/Mac/region/RegionCN470.c ****             break;
 160              		.loc 1 305 0
 161 0054 274B     		ldr	r3, .L31+24
 162 0056 0093     		str	r3, [sp]
 306:../../../../../../Middlewares/Third_Party/LoRaWAN/Mac/region/RegionCN470.c ****         }
 163              		.loc 1 306 0
 164 0058 E1E7     		b	.L2
 165              	.L15:
 269:../../../../../../Middlewares/Third_Party/LoRaWAN/Mac/region/RegionCN470.c ****             break;
 166              		.loc 1 269 0
 167 005a 274B     		ldr	r3, .L31+28
 168 005c 0093     		str	r3, [sp]
 270:../../../../../../Middlewares/Third_Party/LoRaWAN/Mac/region/RegionCN470.c ****         }
 169              		.loc 1 270 0
 170 005e DEE7     		b	.L2
 171              	.L21:
 310:../../../../../../Middlewares/Third_Party/LoRaWAN/Mac/region/RegionCN470.c ****             break;
 172              		.loc 1 310 0
 173 0060 264B     		ldr	r3, .L31+32
 174 0062 0093     		str	r3, [sp]
 311:../../../../../../Middlewares/Third_Party/LoRaWAN/Mac/region/RegionCN470.c ****         }
 175              		.loc 1 311 0
 176 0064 DBE7     		b	.L2
 177              	.L14:
 259:../../../../../../Middlewares/Third_Party/LoRaWAN/Mac/region/RegionCN470.c ****             break;
 178              		.loc 1 259 0
 179 0066 FA21     		movs	r1, #250
 180 0068 2548     		ldr	r0, .L31+36
 181              	.LVL3:
 182 006a 8900     		lsls	r1, r1, #2
 183 006c FFF7FEFF 		bl	randr
 184              	.LVL4:
 185 0070 FA23     		movs	r3, #250
 186 0072 DB00     		lsls	r3, r3, #3
 187 0074 9C46     		mov	ip, r3
 188 0076 6044     		add	r0, r0, ip
 189 0078 0090     		str	r0, [sp]
 260:../../../../../../Middlewares/Third_Party/LoRaWAN/Mac/region/RegionCN470.c ****         }
 190              		.loc 1 260 0
 191 007a D0E7     		b	.L2
 192              	.LVL5:
 193              	.L13:
 254:../../../../../../Middlewares/Third_Party/LoRaWAN/Mac/region/RegionCN470.c ****             break;
 194              		.loc 1 254 0
 195 007c 8023     		movs	r3, #128
 196 007e DB01     		lsls	r3, r3, #7
 197 0080 0093     		str	r3, [sp]
 255:../../../../../../Middlewares/Third_Party/LoRaWAN/Mac/region/RegionCN470.c ****         }
ARM GAS  C:\Users\EBANO_~1\AppData\Local\Temp\cchbxRq9.s 			page 11


 198              		.loc 1 255 0
 199 0082 CCE7     		b	.L2
 200              	.L12:
 249:../../../../../../Middlewares/Third_Party/LoRaWAN/Mac/region/RegionCN470.c ****             break;
 201              		.loc 1 249 0
 202 0084 1F4B     		ldr	r3, .L31+40
 203 0086 0093     		str	r3, [sp]
 250:../../../../../../Middlewares/Third_Party/LoRaWAN/Mac/region/RegionCN470.c ****         }
 204              		.loc 1 250 0
 205 0088 C9E7     		b	.L2
 206              	.L11:
 244:../../../../../../Middlewares/Third_Party/LoRaWAN/Mac/region/RegionCN470.c ****             break;
 207              		.loc 1 244 0
 208 008a 1F4B     		ldr	r3, .L31+44
 209 008c 0093     		str	r3, [sp]
 245:../../../../../../Middlewares/Third_Party/LoRaWAN/Mac/region/RegionCN470.c ****         }
 210              		.loc 1 245 0
 211 008e C6E7     		b	.L2
 212              	.L10:
 239:../../../../../../Middlewares/Third_Party/LoRaWAN/Mac/region/RegionCN470.c ****             break;
 213              		.loc 1 239 0
 214 0090 FA23     		movs	r3, #250
 215 0092 DB00     		lsls	r3, r3, #3
 216 0094 0093     		str	r3, [sp]
 240:../../../../../../Middlewares/Third_Party/LoRaWAN/Mac/region/RegionCN470.c ****         }
 217              		.loc 1 240 0
 218 0096 C2E7     		b	.L2
 219              	.L9:
 234:../../../../../../Middlewares/Third_Party/LoRaWAN/Mac/region/RegionCN470.c ****             break;
 220              		.loc 1 234 0
 221 0098 FA23     		movs	r3, #250
 222 009a 9B00     		lsls	r3, r3, #2
 223 009c 0093     		str	r3, [sp]
 235:../../../../../../Middlewares/Third_Party/LoRaWAN/Mac/region/RegionCN470.c ****         }
 224              		.loc 1 235 0
 225 009e BEE7     		b	.L2
 226              	.L8:
 229:../../../../../../Middlewares/Third_Party/LoRaWAN/Mac/region/RegionCN470.c ****             break;
 227              		.loc 1 229 0
 228 00a0 1A4B     		ldr	r3, .L31+48
 229 00a2 0093     		str	r3, [sp]
 230:../../../../../../Middlewares/Third_Party/LoRaWAN/Mac/region/RegionCN470.c ****         }
 230              		.loc 1 230 0
 231 00a4 BBE7     		b	.L2
 232              	.L22:
 189:../../../../../../Middlewares/Third_Party/LoRaWAN/Mac/region/RegionCN470.c ****             break;
 233              		.loc 1 189 0
 234 00a6 0123     		movs	r3, #1
 235 00a8 C356     		ldrsb	r3, [r0, r3]
 236              	.LVL6:
 237              	.LBB16:
 238              	.LBB17:
  73:../../../../../../Middlewares/Third_Party/LoRaWAN/Mac/region/RegionCN470.c ****     {
 239              		.loc 1 73 0
 240 00aa 0022     		movs	r2, #0
 241 00ac 002B     		cmp	r3, #0
 242 00ae 01D0     		beq	.L27
ARM GAS  C:\Users\EBANO_~1\AppData\Local\Temp\cchbxRq9.s 			page 12


 243              	.LVL7:
  79:../../../../../../Middlewares/Third_Party/LoRaWAN/Mac/region/RegionCN470.c ****     }
 244              		.loc 1 79 0
 245 00b0 013B     		subs	r3, r3, #1
 246              	.LVL8:
 247 00b2 5AB2     		sxtb	r2, r3
 248              	.LVL9:
 249              	.L27:
 250              	.LBE17:
 251              	.LBE16:
 189:../../../../../../Middlewares/Third_Party/LoRaWAN/Mac/region/RegionCN470.c ****             break;
 252              		.loc 1 189 0
 253 00b4 0092     		str	r2, [sp]
 190:../../../../../../Middlewares/Third_Party/LoRaWAN/Mac/region/RegionCN470.c ****         }
 254              		.loc 1 190 0
 255 00b6 B2E7     		b	.L2
 256              	.L7:
 219:../../../../../../Middlewares/Third_Party/LoRaWAN/Mac/region/RegionCN470.c ****             break;
 257              		.loc 1 219 0
 258 00b8 0123     		movs	r3, #1
 259 00ba 154A     		ldr	r2, .L31+52
 260 00bc C356     		ldrsb	r3, [r0, r3]
 261 00be D35C     		ldrb	r3, [r2, r3]
 262 00c0 0093     		str	r3, [sp]
 220:../../../../../../Middlewares/Third_Party/LoRaWAN/Mac/region/RegionCN470.c ****         }
 263              		.loc 1 220 0
 264 00c2 ACE7     		b	.L2
 265              	.L5:
 209:../../../../../../Middlewares/Third_Party/LoRaWAN/Mac/region/RegionCN470.c ****             break;
 266              		.loc 1 209 0
 267 00c4 2023     		movs	r3, #32
 268 00c6 0093     		str	r3, [sp]
 210:../../../../../../Middlewares/Third_Party/LoRaWAN/Mac/region/RegionCN470.c ****         }
 269              		.loc 1 210 0
 270 00c8 A9E7     		b	.L2
 271              	.L3:
 204:../../../../../../Middlewares/Third_Party/LoRaWAN/Mac/region/RegionCN470.c ****             break;
 272              		.loc 1 204 0
 273 00ca 4023     		movs	r3, #64
 274 00cc 0093     		str	r3, [sp]
 205:../../../../../../Middlewares/Third_Party/LoRaWAN/Mac/region/RegionCN470.c ****         }
 275              		.loc 1 205 0
 276 00ce A6E7     		b	.L2
 277              	.L6:
 214:../../../../../../Middlewares/Third_Party/LoRaWAN/Mac/region/RegionCN470.c ****             break;
 278              		.loc 1 214 0
 279 00d0 0123     		movs	r3, #1
 280 00d2 104A     		ldr	r2, .L31+56
 281 00d4 C356     		ldrsb	r3, [r0, r3]
 282 00d6 D35C     		ldrb	r3, [r2, r3]
 283 00d8 0093     		str	r3, [sp]
 215:../../../../../../Middlewares/Third_Party/LoRaWAN/Mac/region/RegionCN470.c ****         }
 284              		.loc 1 215 0
 285 00da A0E7     		b	.L2
 286              	.L32:
 287              		.align	2
 288              	.L31:
ARM GAS  C:\Users\EBANO_~1\AppData\Local\Temp\cchbxRq9.s 			page 13


 289 00dc 00000000 		.word	.L4
 290 00e0 13030000 		.word	787
 291 00e4 400D0300 		.word	200000
 292 00e8 00000000 		.word	NvmCtx
 293 00ec 9C040000 		.word	NvmCtx+1180
 294 00f0 90040000 		.word	NvmCtx+1168
 295 00f4 33339941 		.word	1100559155
 296 00f8 20441E1E 		.word	505300000
 297 00fc 9A990940 		.word	1074370970
 298 0100 18FCFFFF 		.word	-1000
 299 0104 70170000 		.word	6000
 300 0108 88130000 		.word	5000
 301 010c B80B0000 		.word	3000
 302 0110 CC000000 		.word	MaxPayloadOfDatarateRepeaterCN470
 303 0114 CC000000 		.word	.LANCHOR0
 304              		.cfi_endproc
 305              	.LFE44:
 306              		.size	RegionCN470GetPhyParam, .-RegionCN470GetPhyParam
 307              		.section	.text.RegionCN470SetBandTxDone,"ax",%progbits
 308              		.align	1
 309              		.p2align 2,,3
 310              		.global	RegionCN470SetBandTxDone
 311              		.syntax unified
 312              		.code	16
 313              		.thumb_func
 314              		.fpu softvfp
 315              		.type	RegionCN470SetBandTxDone, %function
 316              	RegionCN470SetBandTxDone:
 317              	.LFB45:
 348:../../../../../../Middlewares/Third_Party/LoRaWAN/Mac/region/RegionCN470.c **** 
 349:../../../../../../Middlewares/Third_Party/LoRaWAN/Mac/region/RegionCN470.c **** void RegionCN470SetBandTxDone( SetBandTxDoneParams_t* txDone )
 350:../../../../../../Middlewares/Third_Party/LoRaWAN/Mac/region/RegionCN470.c **** {
 318              		.loc 1 350 0
 319              		.cfi_startproc
 320              		@ args = 0, pretend = 0, frame = 0
 321              		@ frame_needed = 0, uses_anonymous_args = 0
 322              	.LVL10:
 351:../../../../../../Middlewares/Third_Party/LoRaWAN/Mac/region/RegionCN470.c ****     RegionCommonSetBandTxDone( txDone->Joined, &NvmCtx.Bands[NvmCtx.Channels[txDone->Channel].Band]
 323              		.loc 1 351 0
 324 0000 0178     		ldrb	r1, [r0]
 350:../../../../../../Middlewares/Third_Party/LoRaWAN/Mac/region/RegionCN470.c ****     RegionCommonSetBandTxDone( txDone->Joined, &NvmCtx.Bands[NvmCtx.Channels[txDone->Channel].Band]
 325              		.loc 1 350 0
 326 0002 10B5     		push	{r4, lr}
 327              	.LCFI2:
 328              		.cfi_def_cfa_offset 8
 329              		.cfi_offset 4, -8
 330              		.cfi_offset 14, -4
 331              		.loc 1 351 0
 332 0004 4B00     		lsls	r3, r1, #1
 333 0006 064C     		ldr	r4, .L34
 334 0008 5B18     		adds	r3, r3, r1
 335 000a 9B00     		lsls	r3, r3, #2
 336 000c E318     		adds	r3, r4, r3
 337 000e 597A     		ldrb	r1, [r3, #9]
 338 0010 4268     		ldr	r2, [r0, #4]
 339 0012 4831     		adds	r1, r1, #72
 340 0014 0901     		lsls	r1, r1, #4
ARM GAS  C:\Users\EBANO_~1\AppData\Local\Temp\cchbxRq9.s 			page 14


 341 0016 0919     		adds	r1, r1, r4
 342 0018 4078     		ldrb	r0, [r0, #1]
 343              	.LVL11:
 344 001a FFF7FEFF 		bl	RegionCommonSetBandTxDone
 345              	.LVL12:
 352:../../../../../../Middlewares/Third_Party/LoRaWAN/Mac/region/RegionCN470.c **** }
 346              		.loc 1 352 0
 347              		@ sp needed
 348 001e 10BD     		pop	{r4, pc}
 349              	.L35:
 350              		.align	2
 351              	.L34:
 352 0020 00000000 		.word	NvmCtx
 353              		.cfi_endproc
 354              	.LFE45:
 355              		.size	RegionCN470SetBandTxDone, .-RegionCN470SetBandTxDone
 356              		.section	.text.RegionCN470InitDefaults,"ax",%progbits
 357              		.align	1
 358              		.p2align 2,,3
 359              		.global	RegionCN470InitDefaults
 360              		.syntax unified
 361              		.code	16
 362              		.thumb_func
 363              		.fpu softvfp
 364              		.type	RegionCN470InitDefaults, %function
 365              	RegionCN470InitDefaults:
 366              	.LFB46:
 353:../../../../../../Middlewares/Third_Party/LoRaWAN/Mac/region/RegionCN470.c **** 
 354:../../../../../../Middlewares/Third_Party/LoRaWAN/Mac/region/RegionCN470.c **** void RegionCN470InitDefaults( InitDefaultsParams_t* params )
 355:../../../../../../Middlewares/Third_Party/LoRaWAN/Mac/region/RegionCN470.c **** {
 367              		.loc 1 355 0
 368              		.cfi_startproc
 369              		@ args = 0, pretend = 0, frame = 16
 370              		@ frame_needed = 0, uses_anonymous_args = 0
 371              	.LVL13:
 372 0000 30B5     		push	{r4, r5, lr}
 373              	.LCFI3:
 374              		.cfi_def_cfa_offset 12
 375              		.cfi_offset 4, -12
 376              		.cfi_offset 5, -8
 377              		.cfi_offset 14, -4
 378 0002 85B0     		sub	sp, sp, #20
 379              	.LCFI4:
 380              		.cfi_def_cfa_offset 32
 356:../../../../../../Middlewares/Third_Party/LoRaWAN/Mac/region/RegionCN470.c ****     Band_t bands[CN470_MAX_NB_BANDS] =
 381              		.loc 1 356 0
 382 0004 0123     		movs	r3, #1
 383 0006 6A46     		mov	r2, sp
 384 0008 1380     		strh	r3, [r2]
 385 000a 0023     		movs	r3, #0
 386 000c 9370     		strb	r3, [r2, #2]
 387 000e 0193     		str	r3, [sp, #4]
 388 0010 0293     		str	r3, [sp, #8]
 389 0012 0393     		str	r3, [sp, #12]
 357:../../../../../../Middlewares/Third_Party/LoRaWAN/Mac/region/RegionCN470.c ****     {
 358:../../../../../../Middlewares/Third_Party/LoRaWAN/Mac/region/RegionCN470.c ****         CN470_BAND0
 359:../../../../../../Middlewares/Third_Party/LoRaWAN/Mac/region/RegionCN470.c ****     };
ARM GAS  C:\Users\EBANO_~1\AppData\Local\Temp\cchbxRq9.s 			page 15


 360:../../../../../../Middlewares/Third_Party/LoRaWAN/Mac/region/RegionCN470.c **** 
 361:../../../../../../Middlewares/Third_Party/LoRaWAN/Mac/region/RegionCN470.c ****     switch( params->Type )
 390              		.loc 1 361 0
 391 0014 0379     		ldrb	r3, [r0, #4]
 392 0016 012B     		cmp	r3, #1
 393 0018 33D0     		beq	.L38
 394 001a 002B     		cmp	r3, #0
 395 001c 0BD0     		beq	.L39
 396 001e 022B     		cmp	r3, #2
 397 0020 07D1     		bne	.L36
 362:../../../../../../Middlewares/Third_Party/LoRaWAN/Mac/region/RegionCN470.c ****     {
 363:../../../../../../Middlewares/Third_Party/LoRaWAN/Mac/region/RegionCN470.c ****         case INIT_TYPE_INIT:
 364:../../../../../../Middlewares/Third_Party/LoRaWAN/Mac/region/RegionCN470.c ****         {
 365:../../../../../../Middlewares/Third_Party/LoRaWAN/Mac/region/RegionCN470.c ****             // Initialize bands
 366:../../../../../../Middlewares/Third_Party/LoRaWAN/Mac/region/RegionCN470.c ****             memcpy1( ( uint8_t* )NvmCtx.Bands, ( uint8_t* )bands, sizeof( Band_t ) * CN470_MAX_NB_B
 367:../../../../../../Middlewares/Third_Party/LoRaWAN/Mac/region/RegionCN470.c **** 
 368:../../../../../../Middlewares/Third_Party/LoRaWAN/Mac/region/RegionCN470.c ****             // Channels
 369:../../../../../../Middlewares/Third_Party/LoRaWAN/Mac/region/RegionCN470.c ****             // 125 kHz channels
 370:../../../../../../Middlewares/Third_Party/LoRaWAN/Mac/region/RegionCN470.c ****             for( uint8_t i = 0; i < CN470_MAX_NB_CHANNELS; i++ )
 371:../../../../../../Middlewares/Third_Party/LoRaWAN/Mac/region/RegionCN470.c ****             {
 372:../../../../../../Middlewares/Third_Party/LoRaWAN/Mac/region/RegionCN470.c ****                 NvmCtx.Channels[i].Frequency = 470300000 + i * 200000;
 373:../../../../../../Middlewares/Third_Party/LoRaWAN/Mac/region/RegionCN470.c ****                 NvmCtx.Channels[i].DrRange.Value = ( DR_5 << 4 ) | DR_0;
 374:../../../../../../Middlewares/Third_Party/LoRaWAN/Mac/region/RegionCN470.c ****                 NvmCtx.Channels[i].Band = 0;
 375:../../../../../../Middlewares/Third_Party/LoRaWAN/Mac/region/RegionCN470.c ****             }
 376:../../../../../../Middlewares/Third_Party/LoRaWAN/Mac/region/RegionCN470.c **** 
 377:../../../../../../Middlewares/Third_Party/LoRaWAN/Mac/region/RegionCN470.c ****             // Initialize the channels default mask
 378:../../../../../../Middlewares/Third_Party/LoRaWAN/Mac/region/RegionCN470.c ****             NvmCtx.ChannelsDefaultMask[0] = 0xFFFF;
 379:../../../../../../Middlewares/Third_Party/LoRaWAN/Mac/region/RegionCN470.c ****             NvmCtx.ChannelsDefaultMask[1] = 0xFFFF;
 380:../../../../../../Middlewares/Third_Party/LoRaWAN/Mac/region/RegionCN470.c ****             NvmCtx.ChannelsDefaultMask[2] = 0xFFFF;
 381:../../../../../../Middlewares/Third_Party/LoRaWAN/Mac/region/RegionCN470.c ****             NvmCtx.ChannelsDefaultMask[3] = 0xFFFF;
 382:../../../../../../Middlewares/Third_Party/LoRaWAN/Mac/region/RegionCN470.c ****             NvmCtx.ChannelsDefaultMask[4] = 0xFFFF;
 383:../../../../../../Middlewares/Third_Party/LoRaWAN/Mac/region/RegionCN470.c ****             NvmCtx.ChannelsDefaultMask[5] = 0xFFFF;
 384:../../../../../../Middlewares/Third_Party/LoRaWAN/Mac/region/RegionCN470.c **** 
 385:../../../../../../Middlewares/Third_Party/LoRaWAN/Mac/region/RegionCN470.c ****             // Update the channels mask
 386:../../../../../../Middlewares/Third_Party/LoRaWAN/Mac/region/RegionCN470.c ****             RegionCommonChanMaskCopy( NvmCtx.ChannelsMask, NvmCtx.ChannelsDefaultMask, 6 );
 387:../../../../../../Middlewares/Third_Party/LoRaWAN/Mac/region/RegionCN470.c ****             break;
 388:../../../../../../Middlewares/Third_Party/LoRaWAN/Mac/region/RegionCN470.c ****         }
 389:../../../../../../Middlewares/Third_Party/LoRaWAN/Mac/region/RegionCN470.c ****         case INIT_TYPE_RESTORE_CTX:
 390:../../../../../../Middlewares/Third_Party/LoRaWAN/Mac/region/RegionCN470.c ****         {
 391:../../../../../../Middlewares/Third_Party/LoRaWAN/Mac/region/RegionCN470.c ****             if( params->NvmCtx != 0 )
 398              		.loc 1 391 0
 399 0022 0168     		ldr	r1, [r0]
 400 0024 0029     		cmp	r1, #0
 401 0026 04D0     		beq	.L36
 392:../../../../../../Middlewares/Third_Party/LoRaWAN/Mac/region/RegionCN470.c ****             {
 393:../../../../../../Middlewares/Third_Party/LoRaWAN/Mac/region/RegionCN470.c ****                 memcpy1( (uint8_t*) &NvmCtx, (uint8_t*) params->NvmCtx, sizeof( NvmCtx ) );
 402              		.loc 1 393 0
 403 0028 9522     		movs	r2, #149
 404 002a 1948     		ldr	r0, .L46
 405              	.LVL14:
 406 002c D200     		lsls	r2, r2, #3
 407 002e FFF7FEFF 		bl	memcpy1
 408              	.LVL15:
 409              	.L36:
 394:../../../../../../Middlewares/Third_Party/LoRaWAN/Mac/region/RegionCN470.c ****             }
 395:../../../../../../Middlewares/Third_Party/LoRaWAN/Mac/region/RegionCN470.c ****             break;
 396:../../../../../../Middlewares/Third_Party/LoRaWAN/Mac/region/RegionCN470.c ****         }
ARM GAS  C:\Users\EBANO_~1\AppData\Local\Temp\cchbxRq9.s 			page 16


 397:../../../../../../Middlewares/Third_Party/LoRaWAN/Mac/region/RegionCN470.c ****         case INIT_TYPE_RESTORE_DEFAULT_CHANNELS:
 398:../../../../../../Middlewares/Third_Party/LoRaWAN/Mac/region/RegionCN470.c ****         {
 399:../../../../../../Middlewares/Third_Party/LoRaWAN/Mac/region/RegionCN470.c ****             // Restore channels default mask
 400:../../../../../../Middlewares/Third_Party/LoRaWAN/Mac/region/RegionCN470.c ****             RegionCommonChanMaskCopy( NvmCtx.ChannelsMask, NvmCtx.ChannelsDefaultMask, 6 );
 401:../../../../../../Middlewares/Third_Party/LoRaWAN/Mac/region/RegionCN470.c ****             break;
 402:../../../../../../Middlewares/Third_Party/LoRaWAN/Mac/region/RegionCN470.c ****         }
 403:../../../../../../Middlewares/Third_Party/LoRaWAN/Mac/region/RegionCN470.c ****         default:
 404:../../../../../../Middlewares/Third_Party/LoRaWAN/Mac/region/RegionCN470.c ****         {
 405:../../../../../../Middlewares/Third_Party/LoRaWAN/Mac/region/RegionCN470.c ****             break;
 406:../../../../../../Middlewares/Third_Party/LoRaWAN/Mac/region/RegionCN470.c ****         }
 407:../../../../../../Middlewares/Third_Party/LoRaWAN/Mac/region/RegionCN470.c ****     }
 408:../../../../../../Middlewares/Third_Party/LoRaWAN/Mac/region/RegionCN470.c **** }
 410              		.loc 1 408 0
 411 0032 05B0     		add	sp, sp, #20
 412              		@ sp needed
 413 0034 30BD     		pop	{r4, r5, pc}
 414              	.LVL16:
 415              	.L39:
 366:../../../../../../Middlewares/Third_Party/LoRaWAN/Mac/region/RegionCN470.c **** 
 416              		.loc 1 366 0
 417 0036 174C     		ldr	r4, .L46+4
 418 0038 1022     		movs	r2, #16
 419 003a 6946     		mov	r1, sp
 420 003c 2000     		movs	r0, r4
 421              	.LVL17:
 422 003e FFF7FEFF 		bl	memcpy1
 423              	.LVL18:
 424              	.LBB18:
 373:../../../../../../Middlewares/Third_Party/LoRaWAN/Mac/region/RegionCN470.c ****                 NvmCtx.Channels[i].Band = 0;
 425              		.loc 1 373 0
 426 0042 5020     		movs	r0, #80
 374:../../../../../../Middlewares/Third_Party/LoRaWAN/Mac/region/RegionCN470.c ****             }
 427              		.loc 1 374 0
 428 0044 0021     		movs	r1, #0
 429 0046 144B     		ldr	r3, .L46+8
 430              	.LBE18:
 366:../../../../../../Middlewares/Third_Party/LoRaWAN/Mac/region/RegionCN470.c **** 
 431              		.loc 1 366 0
 432 0048 144A     		ldr	r2, .L46+12
 433 004a E318     		adds	r3, r4, r3
 434              	.LVL19:
 435              	.L41:
 436 004c 144D     		ldr	r5, .L46+16
 437              	.LBB19:
 372:../../../../../../Middlewares/Third_Party/LoRaWAN/Mac/region/RegionCN470.c ****                 NvmCtx.Channels[i].DrRange.Value = ( DR_5 << 4 ) | DR_0;
 438              		.loc 1 372 0 discriminator 3
 439 004e 1A60     		str	r2, [r3]
 440 0050 AC46     		mov	ip, r5
 373:../../../../../../Middlewares/Third_Party/LoRaWAN/Mac/region/RegionCN470.c ****                 NvmCtx.Channels[i].Band = 0;
 441              		.loc 1 373 0 discriminator 3
 442 0052 1872     		strb	r0, [r3, #8]
 374:../../../../../../Middlewares/Third_Party/LoRaWAN/Mac/region/RegionCN470.c ****             }
 443              		.loc 1 374 0 discriminator 3
 444 0054 5972     		strb	r1, [r3, #9]
 445 0056 0C33     		adds	r3, r3, #12
 446 0058 6244     		add	r2, r2, ip
 370:../../../../../../Middlewares/Third_Party/LoRaWAN/Mac/region/RegionCN470.c ****             {
ARM GAS  C:\Users\EBANO_~1\AppData\Local\Temp\cchbxRq9.s 			page 17


 447              		.loc 1 370 0 discriminator 3
 448 005a 9C42     		cmp	r4, r3
 449 005c F6D1     		bne	.L41
 450              	.LBE19:
 378:../../../../../../Middlewares/Third_Party/LoRaWAN/Mac/region/RegionCN470.c ****             NvmCtx.ChannelsDefaultMask[1] = 0xFFFF;
 451              		.loc 1 378 0
 452 005e 0123     		movs	r3, #1
 453 0060 0B48     		ldr	r0, .L46
 454 0062 104A     		ldr	r2, .L46+20
 455 0064 5B42     		rsbs	r3, r3, #0
 456 0066 8350     		str	r3, [r0, r2]
 457 0068 0432     		adds	r2, r2, #4
 458 006a 8350     		str	r3, [r0, r2]
 459 006c 0E4A     		ldr	r2, .L46+24
 460 006e 8350     		str	r3, [r0, r2]
 386:../../../../../../Middlewares/Third_Party/LoRaWAN/Mac/region/RegionCN470.c ****             break;
 461              		.loc 1 386 0
 462 0070 0C4B     		ldr	r3, .L46+20
 463 0072 0622     		movs	r2, #6
 464 0074 C118     		adds	r1, r0, r3
 465 0076 0C3B     		subs	r3, r3, #12
 466 0078 9C46     		mov	ip, r3
 467 007a 6044     		add	r0, r0, ip
 468 007c FFF7FEFF 		bl	RegionCommonChanMaskCopy
 469              	.LVL20:
 387:../../../../../../Middlewares/Third_Party/LoRaWAN/Mac/region/RegionCN470.c ****         }
 470              		.loc 1 387 0
 471 0080 D7E7     		b	.L36
 472              	.LVL21:
 473              	.L38:
 400:../../../../../../Middlewares/Third_Party/LoRaWAN/Mac/region/RegionCN470.c ****             break;
 474              		.loc 1 400 0
 475 0082 0A49     		ldr	r1, .L46+28
 476 0084 0622     		movs	r2, #6
 477 0086 0800     		movs	r0, r1
 478              	.LVL22:
 479 0088 0C38     		subs	r0, r0, #12
 480 008a FFF7FEFF 		bl	RegionCommonChanMaskCopy
 481              	.LVL23:
 482              		.loc 1 408 0
 483 008e D0E7     		b	.L36
 484              	.L47:
 485              		.align	2
 486              	.L46:
 487 0090 00000000 		.word	NvmCtx
 488 0094 80040000 		.word	NvmCtx+1152
 489 0098 80FBFFFF 		.word	-1152
 490 009c 6035081C 		.word	470300000
 491 00a0 400D0300 		.word	200000
 492 00a4 9C040000 		.word	1180
 493 00a8 A4040000 		.word	1188
 494 00ac 9C040000 		.word	NvmCtx+1180
 495              		.cfi_endproc
 496              	.LFE46:
 497              		.size	RegionCN470InitDefaults, .-RegionCN470InitDefaults
 498              		.section	.text.RegionCN470GetNvmCtx,"ax",%progbits
 499              		.align	1
ARM GAS  C:\Users\EBANO_~1\AppData\Local\Temp\cchbxRq9.s 			page 18


 500              		.p2align 2,,3
 501              		.global	RegionCN470GetNvmCtx
 502              		.syntax unified
 503              		.code	16
 504              		.thumb_func
 505              		.fpu softvfp
 506              		.type	RegionCN470GetNvmCtx, %function
 507              	RegionCN470GetNvmCtx:
 508              	.LFB47:
 409:../../../../../../Middlewares/Third_Party/LoRaWAN/Mac/region/RegionCN470.c **** 
 410:../../../../../../Middlewares/Third_Party/LoRaWAN/Mac/region/RegionCN470.c **** void* RegionCN470GetNvmCtx( GetNvmCtxParams_t* params )
 411:../../../../../../Middlewares/Third_Party/LoRaWAN/Mac/region/RegionCN470.c **** {
 509              		.loc 1 411 0
 510              		.cfi_startproc
 511              		@ args = 0, pretend = 0, frame = 0
 512              		@ frame_needed = 0, uses_anonymous_args = 0
 513              		@ link register save eliminated.
 514              	.LVL24:
 412:../../../../../../Middlewares/Third_Party/LoRaWAN/Mac/region/RegionCN470.c ****     params->nvmCtxSize = sizeof( RegionCN470NvmCtx_t );
 515              		.loc 1 412 0
 516 0000 9523     		movs	r3, #149
 517 0002 DB00     		lsls	r3, r3, #3
 518 0004 0360     		str	r3, [r0]
 413:../../../../../../Middlewares/Third_Party/LoRaWAN/Mac/region/RegionCN470.c ****     return &NvmCtx;
 414:../../../../../../Middlewares/Third_Party/LoRaWAN/Mac/region/RegionCN470.c **** }
 519              		.loc 1 414 0
 520              		@ sp needed
 521 0006 0148     		ldr	r0, .L49
 522              	.LVL25:
 523 0008 7047     		bx	lr
 524              	.L50:
 525 000a C046     		.align	2
 526              	.L49:
 527 000c 00000000 		.word	NvmCtx
 528              		.cfi_endproc
 529              	.LFE47:
 530              		.size	RegionCN470GetNvmCtx, .-RegionCN470GetNvmCtx
 531              		.section	.text.RegionCN470Verify,"ax",%progbits
 532              		.align	1
 533              		.p2align 2,,3
 534              		.global	RegionCN470Verify
 535              		.syntax unified
 536              		.code	16
 537              		.thumb_func
 538              		.fpu softvfp
 539              		.type	RegionCN470Verify, %function
 540              	RegionCN470Verify:
 541              	.LFB48:
 415:../../../../../../Middlewares/Third_Party/LoRaWAN/Mac/region/RegionCN470.c **** 
 416:../../../../../../Middlewares/Third_Party/LoRaWAN/Mac/region/RegionCN470.c **** bool RegionCN470Verify( VerifyParams_t* verify, PhyAttribute_t phyAttribute )
 417:../../../../../../Middlewares/Third_Party/LoRaWAN/Mac/region/RegionCN470.c **** {
 542              		.loc 1 417 0
 543              		.cfi_startproc
 544              		@ args = 0, pretend = 0, frame = 0
 545              		@ frame_needed = 0, uses_anonymous_args = 0
 546              	.LVL26:
 547 0000 10B5     		push	{r4, lr}
ARM GAS  C:\Users\EBANO_~1\AppData\Local\Temp\cchbxRq9.s 			page 19


 548              	.LCFI5:
 549              		.cfi_def_cfa_offset 8
 550              		.cfi_offset 4, -8
 551              		.cfi_offset 14, -4
 418:../../../../../../Middlewares/Third_Party/LoRaWAN/Mac/region/RegionCN470.c ****     switch( phyAttribute )
 552              		.loc 1 418 0
 553 0002 0429     		cmp	r1, #4
 554 0004 18D3     		bcc	.L55
 555 0006 0629     		cmp	r1, #6
 556 0008 09D8     		bhi	.L57
 419:../../../../../../Middlewares/Third_Party/LoRaWAN/Mac/region/RegionCN470.c ****     {
 420:../../../../../../Middlewares/Third_Party/LoRaWAN/Mac/region/RegionCN470.c ****         case PHY_TX_DR:
 421:../../../../../../Middlewares/Third_Party/LoRaWAN/Mac/region/RegionCN470.c ****         case PHY_DEF_TX_DR:
 422:../../../../../../Middlewares/Third_Party/LoRaWAN/Mac/region/RegionCN470.c ****         {
 423:../../../../../../Middlewares/Third_Party/LoRaWAN/Mac/region/RegionCN470.c ****             return RegionCommonValueInRange( verify->DatarateParams.Datarate, CN470_TX_MIN_DATARATE
 557              		.loc 1 423 0
 558 000a 0078     		ldrb	r0, [r0]
 559              	.LVL27:
 560 000c 0522     		movs	r2, #5
 561 000e 40B2     		sxtb	r0, r0
 562 0010 0021     		movs	r1, #0
 563              	.LVL28:
 564 0012 FFF7FEFF 		bl	RegionCommonValueInRange
 565              	.LVL29:
 566 0016 431E     		subs	r3, r0, #1
 567 0018 9841     		sbcs	r0, r0, r3
 568 001a C0B2     		uxtb	r0, r0
 569              	.L52:
 424:../../../../../../Middlewares/Third_Party/LoRaWAN/Mac/region/RegionCN470.c ****         }
 425:../../../../../../Middlewares/Third_Party/LoRaWAN/Mac/region/RegionCN470.c ****         case PHY_RX_DR:
 426:../../../../../../Middlewares/Third_Party/LoRaWAN/Mac/region/RegionCN470.c ****         {
 427:../../../../../../Middlewares/Third_Party/LoRaWAN/Mac/region/RegionCN470.c ****             return RegionCommonValueInRange( verify->DatarateParams.Datarate, CN470_RX_MIN_DATARATE
 428:../../../../../../Middlewares/Third_Party/LoRaWAN/Mac/region/RegionCN470.c ****         }
 429:../../../../../../Middlewares/Third_Party/LoRaWAN/Mac/region/RegionCN470.c ****         case PHY_DEF_TX_POWER:
 430:../../../../../../Middlewares/Third_Party/LoRaWAN/Mac/region/RegionCN470.c ****         case PHY_TX_POWER:
 431:../../../../../../Middlewares/Third_Party/LoRaWAN/Mac/region/RegionCN470.c ****         {
 432:../../../../../../Middlewares/Third_Party/LoRaWAN/Mac/region/RegionCN470.c ****             // Remark: switched min and max!
 433:../../../../../../Middlewares/Third_Party/LoRaWAN/Mac/region/RegionCN470.c ****             return RegionCommonValueInRange( verify->TxPower, CN470_MAX_TX_POWER, CN470_MIN_TX_POWE
 434:../../../../../../Middlewares/Third_Party/LoRaWAN/Mac/region/RegionCN470.c ****         }
 435:../../../../../../Middlewares/Third_Party/LoRaWAN/Mac/region/RegionCN470.c ****         case PHY_DUTY_CYCLE:
 436:../../../../../../Middlewares/Third_Party/LoRaWAN/Mac/region/RegionCN470.c ****         {
 437:../../../../../../Middlewares/Third_Party/LoRaWAN/Mac/region/RegionCN470.c ****             return CN470_DUTY_CYCLE_ENABLED;
 438:../../../../../../Middlewares/Third_Party/LoRaWAN/Mac/region/RegionCN470.c ****         }
 439:../../../../../../Middlewares/Third_Party/LoRaWAN/Mac/region/RegionCN470.c ****         default:
 440:../../../../../../Middlewares/Third_Party/LoRaWAN/Mac/region/RegionCN470.c ****             return false;
 441:../../../../../../Middlewares/Third_Party/LoRaWAN/Mac/region/RegionCN470.c ****     }
 442:../../../../../../Middlewares/Third_Party/LoRaWAN/Mac/region/RegionCN470.c **** }
 570              		.loc 1 442 0
 571              		@ sp needed
 572 001c 10BD     		pop	{r4, pc}
 573              	.LVL30:
 574              	.L57:
 418:../../../../../../Middlewares/Third_Party/LoRaWAN/Mac/region/RegionCN470.c ****     {
 575              		.loc 1 418 0
 576 001e 0839     		subs	r1, r1, #8
 577              	.LVL31:
 578 0020 0129     		cmp	r1, #1
ARM GAS  C:\Users\EBANO_~1\AppData\Local\Temp\cchbxRq9.s 			page 20


 579 0022 09D8     		bhi	.L55
 433:../../../../../../Middlewares/Third_Party/LoRaWAN/Mac/region/RegionCN470.c ****         }
 580              		.loc 1 433 0
 581 0024 0078     		ldrb	r0, [r0]
 582              	.LVL32:
 583 0026 0722     		movs	r2, #7
 584 0028 40B2     		sxtb	r0, r0
 585 002a 0021     		movs	r1, #0
 586 002c FFF7FEFF 		bl	RegionCommonValueInRange
 587              	.LVL33:
 588 0030 431E     		subs	r3, r0, #1
 589 0032 9841     		sbcs	r0, r0, r3
 590 0034 C0B2     		uxtb	r0, r0
 591 0036 F1E7     		b	.L52
 592              	.LVL34:
 593              	.L55:
 437:../../../../../../Middlewares/Third_Party/LoRaWAN/Mac/region/RegionCN470.c ****         }
 594              		.loc 1 437 0
 595 0038 0020     		movs	r0, #0
 596              	.LVL35:
 597 003a EFE7     		b	.L52
 598              		.cfi_endproc
 599              	.LFE48:
 600              		.size	RegionCN470Verify, .-RegionCN470Verify
 601              		.section	.text.RegionCN470ApplyCFList,"ax",%progbits
 602              		.align	1
 603              		.p2align 2,,3
 604              		.global	RegionCN470ApplyCFList
 605              		.syntax unified
 606              		.code	16
 607              		.thumb_func
 608              		.fpu softvfp
 609              		.type	RegionCN470ApplyCFList, %function
 610              	RegionCN470ApplyCFList:
 611              	.LFB49:
 443:../../../../../../Middlewares/Third_Party/LoRaWAN/Mac/region/RegionCN470.c **** 
 444:../../../../../../Middlewares/Third_Party/LoRaWAN/Mac/region/RegionCN470.c **** void RegionCN470ApplyCFList( ApplyCFListParams_t* applyCFList )
 445:../../../../../../Middlewares/Third_Party/LoRaWAN/Mac/region/RegionCN470.c **** {
 612              		.loc 1 445 0
 613              		.cfi_startproc
 614              		@ args = 0, pretend = 0, frame = 0
 615              		@ frame_needed = 0, uses_anonymous_args = 0
 616              	.LVL36:
 617 0000 10B5     		push	{r4, lr}
 618              	.LCFI6:
 619              		.cfi_def_cfa_offset 8
 620              		.cfi_offset 4, -8
 621              		.cfi_offset 14, -4
 446:../../../../../../Middlewares/Third_Party/LoRaWAN/Mac/region/RegionCN470.c ****     // Size of the optional CF list must be 16 byte
 447:../../../../../../Middlewares/Third_Party/LoRaWAN/Mac/region/RegionCN470.c ****     if( applyCFList->Size != 16 )
 622              		.loc 1 447 0
 623 0002 0379     		ldrb	r3, [r0, #4]
 624 0004 102B     		cmp	r3, #16
 625 0006 00D0     		beq	.L60
 626              	.LVL37:
 627              	.L58:
 448:../../../../../../Middlewares/Third_Party/LoRaWAN/Mac/region/RegionCN470.c ****     {
ARM GAS  C:\Users\EBANO_~1\AppData\Local\Temp\cchbxRq9.s 			page 21


 449:../../../../../../Middlewares/Third_Party/LoRaWAN/Mac/region/RegionCN470.c ****         return;
 450:../../../../../../Middlewares/Third_Party/LoRaWAN/Mac/region/RegionCN470.c ****     }
 451:../../../../../../Middlewares/Third_Party/LoRaWAN/Mac/region/RegionCN470.c **** 
 452:../../../../../../Middlewares/Third_Party/LoRaWAN/Mac/region/RegionCN470.c ****     // Last byte CFListType must be 0x01 to indicate the CFList contains a series of ChMask fields
 453:../../../../../../Middlewares/Third_Party/LoRaWAN/Mac/region/RegionCN470.c ****     if( applyCFList->Payload[15] != 0x01 )
 454:../../../../../../Middlewares/Third_Party/LoRaWAN/Mac/region/RegionCN470.c ****     {
 455:../../../../../../Middlewares/Third_Party/LoRaWAN/Mac/region/RegionCN470.c ****         return;
 456:../../../../../../Middlewares/Third_Party/LoRaWAN/Mac/region/RegionCN470.c ****     }
 457:../../../../../../Middlewares/Third_Party/LoRaWAN/Mac/region/RegionCN470.c **** 
 458:../../../../../../Middlewares/Third_Party/LoRaWAN/Mac/region/RegionCN470.c ****     // ChMask0 - ChMask5 must be set (every ChMask has 16 bit)
 459:../../../../../../Middlewares/Third_Party/LoRaWAN/Mac/region/RegionCN470.c ****     for( uint8_t chMaskItr = 0, cntPayload = 0; chMaskItr <= 5; chMaskItr++, cntPayload+=2 )
 460:../../../../../../Middlewares/Third_Party/LoRaWAN/Mac/region/RegionCN470.c ****     {
 461:../../../../../../Middlewares/Third_Party/LoRaWAN/Mac/region/RegionCN470.c ****         NvmCtx.ChannelsMask[chMaskItr] = (uint16_t) (0x00FF & applyCFList->Payload[cntPayload]);
 462:../../../../../../Middlewares/Third_Party/LoRaWAN/Mac/region/RegionCN470.c ****         NvmCtx.ChannelsMask[chMaskItr] |= (uint16_t) (applyCFList->Payload[cntPayload+1] << 8);
 463:../../../../../../Middlewares/Third_Party/LoRaWAN/Mac/region/RegionCN470.c ****     }
 464:../../../../../../Middlewares/Third_Party/LoRaWAN/Mac/region/RegionCN470.c **** }
 628              		.loc 1 464 0
 629              		@ sp needed
 630 0008 10BD     		pop	{r4, pc}
 631              	.LVL38:
 632              	.L60:
 453:../../../../../../Middlewares/Third_Party/LoRaWAN/Mac/region/RegionCN470.c ****     {
 633              		.loc 1 453 0
 634 000a 0368     		ldr	r3, [r0]
 635 000c DA7B     		ldrb	r2, [r3, #15]
 636 000e 012A     		cmp	r2, #1
 637 0010 FAD1     		bne	.L58
 638              	.LVL39:
 639              	.LBB20:
 461:../../../../../../Middlewares/Third_Party/LoRaWAN/Mac/region/RegionCN470.c ****         NvmCtx.ChannelsMask[chMaskItr] |= (uint16_t) (applyCFList->Payload[cntPayload+1] << 8);
 640              		.loc 1 461 0
 641 0012 9224     		movs	r4, #146
 642 0014 1978     		ldrb	r1, [r3]
 643 0016 154A     		ldr	r2, .L61
 644 0018 E400     		lsls	r4, r4, #3
 645 001a 1153     		strh	r1, [r2, r4]
 462:../../../../../../Middlewares/Third_Party/LoRaWAN/Mac/region/RegionCN470.c ****     }
 646              		.loc 1 462 0
 647 001c 5878     		ldrb	r0, [r3, #1]
 648              	.LVL40:
 649 001e 0002     		lsls	r0, r0, #8
 650 0020 0143     		orrs	r1, r0
 651 0022 1153     		strh	r1, [r2, r4]
 652              	.LVL41:
 461:../../../../../../Middlewares/Third_Party/LoRaWAN/Mac/region/RegionCN470.c ****         NvmCtx.ChannelsMask[chMaskItr] |= (uint16_t) (applyCFList->Payload[cntPayload+1] << 8);
 653              		.loc 1 461 0
 654 0024 9978     		ldrb	r1, [r3, #2]
 655 0026 124C     		ldr	r4, .L61+4
 656 0028 1153     		strh	r1, [r2, r4]
 462:../../../../../../Middlewares/Third_Party/LoRaWAN/Mac/region/RegionCN470.c ****     }
 657              		.loc 1 462 0
 658 002a D878     		ldrb	r0, [r3, #3]
 659 002c 0002     		lsls	r0, r0, #8
 660 002e 0143     		orrs	r1, r0
 661 0030 1153     		strh	r1, [r2, r4]
 662              	.LVL42:
 461:../../../../../../Middlewares/Third_Party/LoRaWAN/Mac/region/RegionCN470.c ****         NvmCtx.ChannelsMask[chMaskItr] |= (uint16_t) (applyCFList->Payload[cntPayload+1] << 8);
ARM GAS  C:\Users\EBANO_~1\AppData\Local\Temp\cchbxRq9.s 			page 22


 663              		.loc 1 461 0
 664 0032 1979     		ldrb	r1, [r3, #4]
 665 0034 0F4C     		ldr	r4, .L61+8
 666 0036 1153     		strh	r1, [r2, r4]
 462:../../../../../../Middlewares/Third_Party/LoRaWAN/Mac/region/RegionCN470.c ****     }
 667              		.loc 1 462 0
 668 0038 5879     		ldrb	r0, [r3, #5]
 669 003a 0002     		lsls	r0, r0, #8
 670 003c 0143     		orrs	r1, r0
 671 003e 1153     		strh	r1, [r2, r4]
 672              	.LVL43:
 461:../../../../../../Middlewares/Third_Party/LoRaWAN/Mac/region/RegionCN470.c ****         NvmCtx.ChannelsMask[chMaskItr] |= (uint16_t) (applyCFList->Payload[cntPayload+1] << 8);
 673              		.loc 1 461 0
 674 0040 9979     		ldrb	r1, [r3, #6]
 675 0042 0D4C     		ldr	r4, .L61+12
 676 0044 1153     		strh	r1, [r2, r4]
 462:../../../../../../Middlewares/Third_Party/LoRaWAN/Mac/region/RegionCN470.c ****     }
 677              		.loc 1 462 0
 678 0046 D879     		ldrb	r0, [r3, #7]
 679 0048 0002     		lsls	r0, r0, #8
 680 004a 0143     		orrs	r1, r0
 681 004c 1153     		strh	r1, [r2, r4]
 682              	.LVL44:
 461:../../../../../../Middlewares/Third_Party/LoRaWAN/Mac/region/RegionCN470.c ****         NvmCtx.ChannelsMask[chMaskItr] |= (uint16_t) (applyCFList->Payload[cntPayload+1] << 8);
 683              		.loc 1 461 0
 684 004e 197A     		ldrb	r1, [r3, #8]
 685 0050 0234     		adds	r4, r4, #2
 686 0052 1153     		strh	r1, [r2, r4]
 462:../../../../../../Middlewares/Third_Party/LoRaWAN/Mac/region/RegionCN470.c ****     }
 687              		.loc 1 462 0
 688 0054 587A     		ldrb	r0, [r3, #9]
 689 0056 0002     		lsls	r0, r0, #8
 690 0058 0143     		orrs	r1, r0
 691 005a 1153     		strh	r1, [r2, r4]
 692              	.LVL45:
 461:../../../../../../Middlewares/Third_Party/LoRaWAN/Mac/region/RegionCN470.c ****         NvmCtx.ChannelsMask[chMaskItr] |= (uint16_t) (applyCFList->Payload[cntPayload+1] << 8);
 693              		.loc 1 461 0
 694 005c 997A     		ldrb	r1, [r3, #10]
 695 005e 0748     		ldr	r0, .L61+16
 696 0060 1152     		strh	r1, [r2, r0]
 462:../../../../../../Middlewares/Third_Party/LoRaWAN/Mac/region/RegionCN470.c ****     }
 697              		.loc 1 462 0
 698 0062 DB7A     		ldrb	r3, [r3, #11]
 699 0064 1B02     		lsls	r3, r3, #8
 700 0066 1943     		orrs	r1, r3
 701 0068 1152     		strh	r1, [r2, r0]
 702              	.LVL46:
 703 006a CDE7     		b	.L58
 704              	.L62:
 705              		.align	2
 706              	.L61:
 707 006c 00000000 		.word	NvmCtx
 708 0070 92040000 		.word	1170
 709 0074 94040000 		.word	1172
 710 0078 96040000 		.word	1174
 711 007c 9A040000 		.word	1178
 712              	.LBE20:
ARM GAS  C:\Users\EBANO_~1\AppData\Local\Temp\cchbxRq9.s 			page 23


 713              		.cfi_endproc
 714              	.LFE49:
 715              		.size	RegionCN470ApplyCFList, .-RegionCN470ApplyCFList
 716              		.section	.text.RegionCN470ChanMaskSet,"ax",%progbits
 717              		.align	1
 718              		.p2align 2,,3
 719              		.global	RegionCN470ChanMaskSet
 720              		.syntax unified
 721              		.code	16
 722              		.thumb_func
 723              		.fpu softvfp
 724              		.type	RegionCN470ChanMaskSet, %function
 725              	RegionCN470ChanMaskSet:
 726              	.LFB50:
 465:../../../../../../Middlewares/Third_Party/LoRaWAN/Mac/region/RegionCN470.c **** 
 466:../../../../../../Middlewares/Third_Party/LoRaWAN/Mac/region/RegionCN470.c **** bool RegionCN470ChanMaskSet( ChanMaskSetParams_t* chanMaskSet )
 467:../../../../../../Middlewares/Third_Party/LoRaWAN/Mac/region/RegionCN470.c **** {
 727              		.loc 1 467 0
 728              		.cfi_startproc
 729              		@ args = 0, pretend = 0, frame = 0
 730              		@ frame_needed = 0, uses_anonymous_args = 0
 731              	.LVL47:
 732 0000 10B5     		push	{r4, lr}
 733              	.LCFI7:
 734              		.cfi_def_cfa_offset 8
 735              		.cfi_offset 4, -8
 736              		.cfi_offset 14, -4
 468:../../../../../../Middlewares/Third_Party/LoRaWAN/Mac/region/RegionCN470.c ****     switch( chanMaskSet->ChannelsMaskType )
 737              		.loc 1 468 0
 738 0002 0379     		ldrb	r3, [r0, #4]
 739 0004 002B     		cmp	r3, #0
 740 0006 0AD0     		beq	.L65
 741 0008 012B     		cmp	r3, #1
 742 000a 01D0     		beq	.L66
 469:../../../../../../Middlewares/Third_Party/LoRaWAN/Mac/region/RegionCN470.c ****     {
 470:../../../../../../Middlewares/Third_Party/LoRaWAN/Mac/region/RegionCN470.c ****         case CHANNELS_MASK:
 471:../../../../../../Middlewares/Third_Party/LoRaWAN/Mac/region/RegionCN470.c ****         {
 472:../../../../../../Middlewares/Third_Party/LoRaWAN/Mac/region/RegionCN470.c ****             RegionCommonChanMaskCopy( NvmCtx.ChannelsMask, chanMaskSet->ChannelsMaskIn, 6 );
 473:../../../../../../Middlewares/Third_Party/LoRaWAN/Mac/region/RegionCN470.c ****             break;
 474:../../../../../../Middlewares/Third_Party/LoRaWAN/Mac/region/RegionCN470.c ****         }
 475:../../../../../../Middlewares/Third_Party/LoRaWAN/Mac/region/RegionCN470.c ****         case CHANNELS_DEFAULT_MASK:
 476:../../../../../../Middlewares/Third_Party/LoRaWAN/Mac/region/RegionCN470.c ****         {
 477:../../../../../../Middlewares/Third_Party/LoRaWAN/Mac/region/RegionCN470.c ****             RegionCommonChanMaskCopy( NvmCtx.ChannelsDefaultMask, chanMaskSet->ChannelsMaskIn, 6 );
 478:../../../../../../Middlewares/Third_Party/LoRaWAN/Mac/region/RegionCN470.c ****             break;
 479:../../../../../../Middlewares/Third_Party/LoRaWAN/Mac/region/RegionCN470.c ****         }
 480:../../../../../../Middlewares/Third_Party/LoRaWAN/Mac/region/RegionCN470.c ****         default:
 481:../../../../../../Middlewares/Third_Party/LoRaWAN/Mac/region/RegionCN470.c ****             return false;
 743              		.loc 1 481 0
 744 000c 0020     		movs	r0, #0
 745              	.LVL48:
 746              	.L64:
 482:../../../../../../Middlewares/Third_Party/LoRaWAN/Mac/region/RegionCN470.c ****     }
 483:../../../../../../Middlewares/Third_Party/LoRaWAN/Mac/region/RegionCN470.c ****     return true;
 484:../../../../../../Middlewares/Third_Party/LoRaWAN/Mac/region/RegionCN470.c **** }
 747              		.loc 1 484 0
 748              		@ sp needed
 749 000e 10BD     		pop	{r4, pc}
ARM GAS  C:\Users\EBANO_~1\AppData\Local\Temp\cchbxRq9.s 			page 24


 750              	.LVL49:
 751              	.L66:
 477:../../../../../../Middlewares/Third_Party/LoRaWAN/Mac/region/RegionCN470.c ****             break;
 752              		.loc 1 477 0
 753 0010 0168     		ldr	r1, [r0]
 754 0012 0622     		movs	r2, #6
 755 0014 0548     		ldr	r0, .L69
 756              	.LVL50:
 757 0016 FFF7FEFF 		bl	RegionCommonChanMaskCopy
 758              	.LVL51:
 483:../../../../../../Middlewares/Third_Party/LoRaWAN/Mac/region/RegionCN470.c **** }
 759              		.loc 1 483 0
 760 001a 0120     		movs	r0, #1
 478:../../../../../../Middlewares/Third_Party/LoRaWAN/Mac/region/RegionCN470.c ****         }
 761              		.loc 1 478 0
 762 001c F7E7     		b	.L64
 763              	.LVL52:
 764              	.L65:
 472:../../../../../../Middlewares/Third_Party/LoRaWAN/Mac/region/RegionCN470.c ****             break;
 765              		.loc 1 472 0
 766 001e 0168     		ldr	r1, [r0]
 767 0020 0622     		movs	r2, #6
 768 0022 0348     		ldr	r0, .L69+4
 769              	.LVL53:
 770 0024 FFF7FEFF 		bl	RegionCommonChanMaskCopy
 771              	.LVL54:
 483:../../../../../../Middlewares/Third_Party/LoRaWAN/Mac/region/RegionCN470.c **** }
 772              		.loc 1 483 0
 773 0028 0120     		movs	r0, #1
 473:../../../../../../Middlewares/Third_Party/LoRaWAN/Mac/region/RegionCN470.c ****         }
 774              		.loc 1 473 0
 775 002a F0E7     		b	.L64
 776              	.L70:
 777              		.align	2
 778              	.L69:
 779 002c 9C040000 		.word	NvmCtx+1180
 780 0030 90040000 		.word	NvmCtx+1168
 781              		.cfi_endproc
 782              	.LFE50:
 783              		.size	RegionCN470ChanMaskSet, .-RegionCN470ChanMaskSet
 784              		.section	.text.RegionCN470ComputeRxWindowParameters,"ax",%progbits
 785              		.align	1
 786              		.p2align 2,,3
 787              		.global	RegionCN470ComputeRxWindowParameters
 788              		.syntax unified
 789              		.code	16
 790              		.thumb_func
 791              		.fpu softvfp
 792              		.type	RegionCN470ComputeRxWindowParameters, %function
 793              	RegionCN470ComputeRxWindowParameters:
 794              	.LFB51:
 485:../../../../../../Middlewares/Third_Party/LoRaWAN/Mac/region/RegionCN470.c **** 
 486:../../../../../../Middlewares/Third_Party/LoRaWAN/Mac/region/RegionCN470.c **** void RegionCN470ComputeRxWindowParameters( int8_t datarate, uint8_t minRxSymbols, uint32_t rxError,
 487:../../../../../../Middlewares/Third_Party/LoRaWAN/Mac/region/RegionCN470.c **** {
 795              		.loc 1 487 0
 796              		.cfi_startproc
 797              		@ args = 0, pretend = 0, frame = 8
ARM GAS  C:\Users\EBANO_~1\AppData\Local\Temp\cchbxRq9.s 			page 25


 798              		@ frame_needed = 0, uses_anonymous_args = 0
 799              	.LVL55:
 800 0000 F0B5     		push	{r4, r5, r6, r7, lr}
 801              	.LCFI8:
 802              		.cfi_def_cfa_offset 20
 803              		.cfi_offset 4, -20
 804              		.cfi_offset 5, -16
 805              		.cfi_offset 6, -12
 806              		.cfi_offset 7, -8
 807              		.cfi_offset 14, -4
 808 0002 C646     		mov	lr, r8
 809 0004 00B5     		push	{lr}
 810              	.LCFI9:
 811              		.cfi_def_cfa_offset 24
 812              		.cfi_offset 8, -24
 813 0006 1C00     		movs	r4, r3
 814 0008 86B0     		sub	sp, sp, #24
 815              	.LCFI10:
 816              		.cfi_def_cfa_offset 48
 817              		.loc 1 487 0
 818 000a 0D00     		movs	r5, r1
 819 000c 9046     		mov	r8, r2
 488:../../../../../../Middlewares/Third_Party/LoRaWAN/Mac/region/RegionCN470.c ****     double tSymbol = 0.0;
 489:../../../../../../Middlewares/Third_Party/LoRaWAN/Mac/region/RegionCN470.c **** 
 490:../../../../../../Middlewares/Third_Party/LoRaWAN/Mac/region/RegionCN470.c ****     // Get the datarate, perform a boundary check
 491:../../../../../../Middlewares/Third_Party/LoRaWAN/Mac/region/RegionCN470.c ****     rxConfigParams->Datarate = MIN( datarate, CN470_RX_MAX_DATARATE );
 820              		.loc 1 491 0
 821 000e 031C     		adds	r3, r0, #0
 822              	.LVL56:
 823 0010 0528     		cmp	r0, #5
 824 0012 00DD     		ble	.L72
 825 0014 0523     		movs	r3, #5
 826              	.L72:
 827 0016 58B2     		sxtb	r0, r3
 828              	.LVL57:
 829              	.LBB21:
 830              	.LBB22:
  86:../../../../../../Middlewares/Third_Party/LoRaWAN/Mac/region/RegionCN470.c ****     {
 831              		.loc 1 86 0
 832 0018 154A     		ldr	r2, .L77
 833              	.LVL58:
 834 001a 8100     		lsls	r1, r0, #2
 835              	.LVL59:
 836              	.LBE22:
 837              	.LBE21:
 838              		.loc 1 491 0
 839 001c 6370     		strb	r3, [r4, #1]
 840              	.LVL60:
 841              	.LBB25:
 842              	.LBB23:
  86:../../../../../../Middlewares/Third_Party/LoRaWAN/Mac/region/RegionCN470.c ****     {
 843              		.loc 1 86 0
 844 001e 154E     		ldr	r6, .L77+4
 845 0020 5358     		ldr	r3, [r2, r1]
 846 0022 B342     		cmp	r3, r6
 847 0024 21D0     		beq	.L76
 848 0026 144E     		ldr	r6, .L77+8
ARM GAS  C:\Users\EBANO_~1\AppData\Local\Temp\cchbxRq9.s 			page 26


 849 0028 B446     		mov	ip, r6
 850 002a 6344     		add	r3, r3, ip
 851 002c 5E42     		rsbs	r6, r3, #0
 852 002e 7341     		adcs	r3, r3, r6
 853 0030 5B00     		lsls	r3, r3, #1
 854              	.L74:
 855              	.LBE23:
 856              	.LBE25:
 492:../../../../../../Middlewares/Third_Party/LoRaWAN/Mac/region/RegionCN470.c ****     rxConfigParams->Bandwidth = GetBandwidth( rxConfigParams->Datarate );
 493:../../../../../../Middlewares/Third_Party/LoRaWAN/Mac/region/RegionCN470.c **** 
 494:../../../../../../Middlewares/Third_Party/LoRaWAN/Mac/region/RegionCN470.c ****     tSymbol = RegionCommonComputeSymbolTimeLoRa( DataratesCN470[rxConfigParams->Datarate], Bandwidt
 857              		.loc 1 494 0
 858 0032 5158     		ldr	r1, [r2, r1]
 859 0034 1218     		adds	r2, r2, r0
 492:../../../../../../Middlewares/Third_Party/LoRaWAN/Mac/region/RegionCN470.c ****     rxConfigParams->Bandwidth = GetBandwidth( rxConfigParams->Datarate );
 860              		.loc 1 492 0
 861 0036 A370     		strb	r3, [r4, #2]
 862              		.loc 1 494 0
 863 0038 107E     		ldrb	r0, [r2, #24]
 864 003a FFF7FEFF 		bl	RegionCommonComputeSymbolTimeLoRa
 865              	.LVL61:
 495:../../../../../../Middlewares/Third_Party/LoRaWAN/Mac/region/RegionCN470.c **** 
 496:../../../../../../Middlewares/Third_Party/LoRaWAN/Mac/region/RegionCN470.c ****     RegionCommonComputeRxWindowParameters( tSymbol, minRxSymbols, rxError, Radio.GetWakeupTime( ), 
 866              		.loc 1 496 0
 867 003e 0F4B     		ldr	r3, .L77+12
 494:../../../../../../Middlewares/Third_Party/LoRaWAN/Mac/region/RegionCN470.c **** 
 868              		.loc 1 494 0
 869 0040 0600     		movs	r6, r0
 870              		.loc 1 496 0
 871 0042 5B6E     		ldr	r3, [r3, #100]
 494:../../../../../../Middlewares/Third_Party/LoRaWAN/Mac/region/RegionCN470.c **** 
 872              		.loc 1 494 0
 873 0044 0F00     		movs	r7, r1
 874              	.LVL62:
 875              		.loc 1 496 0
 876 0046 0593     		str	r3, [sp, #20]
 877 0048 9847     		blx	r3
 878              	.LVL63:
 879 004a 2300     		movs	r3, r4
 880 004c 0834     		adds	r4, r4, #8
 881              	.LVL64:
 882 004e 0C33     		adds	r3, r3, #12
 883              	.LVL65:
 884 0050 0293     		str	r3, [sp, #8]
 885 0052 0090     		str	r0, [sp]
 886 0054 0194     		str	r4, [sp, #4]
 887 0056 4346     		mov	r3, r8
 888              	.LVL66:
 889 0058 2A00     		movs	r2, r5
 890 005a 3000     		movs	r0, r6
 891 005c 3900     		movs	r1, r7
 892 005e FFF7FEFF 		bl	RegionCommonComputeRxWindowParameters
 893              	.LVL67:
 497:../../../../../../Middlewares/Third_Party/LoRaWAN/Mac/region/RegionCN470.c **** }
 894              		.loc 1 497 0
 895 0062 06B0     		add	sp, sp, #24
 896              		@ sp needed
ARM GAS  C:\Users\EBANO_~1\AppData\Local\Temp\cchbxRq9.s 			page 27


 897              	.LVL68:
 898              	.LVL69:
 899              	.LVL70:
 900 0064 04BC     		pop	{r2}
 901 0066 9046     		mov	r8, r2
 902 0068 F0BD     		pop	{r4, r5, r6, r7, pc}
 903              	.LVL71:
 904              	.L76:
 905              	.LBB26:
 906              	.LBB24:
  86:../../../../../../Middlewares/Third_Party/LoRaWAN/Mac/region/RegionCN470.c ****     {
 907              		.loc 1 86 0
 908 006a 0123     		movs	r3, #1
 909 006c E1E7     		b	.L74
 910              	.L78:
 911 006e C046     		.align	2
 912              	.L77:
 913 0070 AC000000 		.word	.LANCHOR1
 914 0074 90D00300 		.word	250000
 915 0078 E05EF8FF 		.word	-500000
 916 007c 00000000 		.word	Radio
 917              	.LBE24:
 918              	.LBE26:
 919              		.cfi_endproc
 920              	.LFE51:
 921              		.size	RegionCN470ComputeRxWindowParameters, .-RegionCN470ComputeRxWindowParameters
 922              		.global	__aeabi_uidivmod
 923              		.section	.text.RegionCN470RxConfig,"ax",%progbits
 924              		.align	1
 925              		.p2align 2,,3
 926              		.global	RegionCN470RxConfig
 927              		.syntax unified
 928              		.code	16
 929              		.thumb_func
 930              		.fpu softvfp
 931              		.type	RegionCN470RxConfig, %function
 932              	RegionCN470RxConfig:
 933              	.LFB52:
 498:../../../../../../Middlewares/Third_Party/LoRaWAN/Mac/region/RegionCN470.c **** 
 499:../../../../../../Middlewares/Third_Party/LoRaWAN/Mac/region/RegionCN470.c **** bool RegionCN470RxConfig( RxConfigParams_t* rxConfig, int8_t* datarate )
 500:../../../../../../Middlewares/Third_Party/LoRaWAN/Mac/region/RegionCN470.c **** {
 934              		.loc 1 500 0
 935              		.cfi_startproc
 936              		@ args = 0, pretend = 0, frame = 8
 937              		@ frame_needed = 0, uses_anonymous_args = 0
 938              	.LVL72:
 939 0000 F0B5     		push	{r4, r5, r6, r7, lr}
 940              	.LCFI11:
 941              		.cfi_def_cfa_offset 20
 942              		.cfi_offset 4, -20
 943              		.cfi_offset 5, -16
 944              		.cfi_offset 6, -12
 945              		.cfi_offset 7, -8
 946              		.cfi_offset 14, -4
 947 0002 D646     		mov	lr, r10
 948 0004 4646     		mov	r6, r8
 949 0006 4F46     		mov	r7, r9
ARM GAS  C:\Users\EBANO_~1\AppData\Local\Temp\cchbxRq9.s 			page 28


 950 0008 C0B5     		push	{r6, r7, lr}
 951              	.LCFI12:
 952              		.cfi_def_cfa_offset 32
 953              		.cfi_offset 8, -32
 954              		.cfi_offset 9, -28
 955              		.cfi_offset 10, -24
 501:../../../../../../Middlewares/Third_Party/LoRaWAN/Mac/region/RegionCN470.c ****     int8_t dr = rxConfig->Datarate;
 956              		.loc 1 501 0
 957 000a 0126     		movs	r6, #1
 502:../../../../../../Middlewares/Third_Party/LoRaWAN/Mac/region/RegionCN470.c ****     uint8_t maxPayload = 0;
 503:../../../../../../Middlewares/Third_Party/LoRaWAN/Mac/region/RegionCN470.c ****     int8_t phyDr = 0;
 504:../../../../../../Middlewares/Third_Party/LoRaWAN/Mac/region/RegionCN470.c ****     uint32_t frequency = rxConfig->Frequency;
 958              		.loc 1 504 0
 959 000c 4368     		ldr	r3, [r0, #4]
 505:../../../../../../Middlewares/Third_Party/LoRaWAN/Mac/region/RegionCN470.c **** 
 506:../../../../../../Middlewares/Third_Party/LoRaWAN/Mac/region/RegionCN470.c ****     if( Radio.GetStatus( ) != RF_IDLE )
 960              		.loc 1 506 0
 961 000e 284D     		ldr	r5, .L86
 504:../../../../../../Middlewares/Third_Party/LoRaWAN/Mac/region/RegionCN470.c **** 
 962              		.loc 1 504 0
 963 0010 9846     		mov	r8, r3
 964              		.loc 1 506 0
 965 0012 EB68     		ldr	r3, [r5, #12]
 500:../../../../../../Middlewares/Third_Party/LoRaWAN/Mac/region/RegionCN470.c ****     int8_t dr = rxConfig->Datarate;
 966              		.loc 1 500 0
 967 0014 8CB0     		sub	sp, sp, #48
 968              	.LCFI13:
 969              		.cfi_def_cfa_offset 80
 501:../../../../../../Middlewares/Third_Party/LoRaWAN/Mac/region/RegionCN470.c ****     uint8_t maxPayload = 0;
 970              		.loc 1 501 0
 971 0016 8657     		ldrsb	r6, [r0, r6]
 972              	.LVL73:
 500:../../../../../../Middlewares/Third_Party/LoRaWAN/Mac/region/RegionCN470.c ****     int8_t dr = rxConfig->Datarate;
 973              		.loc 1 500 0
 974 0018 0400     		movs	r4, r0
 975              		.loc 1 506 0
 976 001a 0B93     		str	r3, [sp, #44]
 500:../../../../../../Middlewares/Third_Party/LoRaWAN/Mac/region/RegionCN470.c ****     int8_t dr = rxConfig->Datarate;
 977              		.loc 1 500 0
 978 001c 8A46     		mov	r10, r1
 979              		.loc 1 506 0
 980 001e 9847     		blx	r3
 981              	.LVL74:
 507:../../../../../../Middlewares/Third_Party/LoRaWAN/Mac/region/RegionCN470.c ****     {
 508:../../../../../../Middlewares/Third_Party/LoRaWAN/Mac/region/RegionCN470.c ****         return false;
 982              		.loc 1 508 0
 983 0020 0023     		movs	r3, #0
 506:../../../../../../Middlewares/Third_Party/LoRaWAN/Mac/region/RegionCN470.c ****     {
 984              		.loc 1 506 0
 985 0022 0028     		cmp	r0, #0
 986 0024 3AD1     		bne	.L80
 509:../../../../../../Middlewares/Third_Party/LoRaWAN/Mac/region/RegionCN470.c ****     }
 510:../../../../../../Middlewares/Third_Party/LoRaWAN/Mac/region/RegionCN470.c **** 
 511:../../../../../../Middlewares/Third_Party/LoRaWAN/Mac/region/RegionCN470.c ****     if( rxConfig->RxSlot == RX_SLOT_WIN_1 )
 987              		.loc 1 511 0
 988 0026 E37C     		ldrb	r3, [r4, #19]
 989 0028 002B     		cmp	r3, #0
ARM GAS  C:\Users\EBANO_~1\AppData\Local\Temp\cchbxRq9.s 			page 29


 990 002a 09D1     		bne	.L81
 512:../../../../../../Middlewares/Third_Party/LoRaWAN/Mac/region/RegionCN470.c ****     {
 513:../../../../../../Middlewares/Third_Party/LoRaWAN/Mac/region/RegionCN470.c ****         // Apply window 1 frequency
 514:../../../../../../Middlewares/Third_Party/LoRaWAN/Mac/region/RegionCN470.c ****         frequency = CN470_FIRST_RX1_CHANNEL + ( rxConfig->Channel % 48 ) * CN470_STEPWIDTH_RX1_CHAN
 991              		.loc 1 514 0
 992 002c 2078     		ldrb	r0, [r4]
 993 002e 3021     		movs	r1, #48
 994 0030 FFF7FEFF 		bl	__aeabi_uidivmod
 995              	.LVL75:
 996 0034 CBB2     		uxtb	r3, r1
 997 0036 1F49     		ldr	r1, .L86+4
 998 0038 5943     		muls	r1, r3
 999 003a 1F4B     		ldr	r3, .L86+8
 1000 003c 9846     		mov	r8, r3
 1001              	.LVL76:
 1002 003e 8844     		add	r8, r8, r1
 1003              	.LVL77:
 1004              	.L81:
 515:../../../../../../Middlewares/Third_Party/LoRaWAN/Mac/region/RegionCN470.c ****     }
 516:../../../../../../Middlewares/Third_Party/LoRaWAN/Mac/region/RegionCN470.c **** 
 517:../../../../../../Middlewares/Third_Party/LoRaWAN/Mac/region/RegionCN470.c ****     // Read the physical datarate from the datarates table
 518:../../../../../../Middlewares/Third_Party/LoRaWAN/Mac/region/RegionCN470.c ****     phyDr = DataratesCN470[dr];
 1005              		.loc 1 518 0
 1006 0040 1E4B     		ldr	r3, .L86+12
 519:../../../../../../Middlewares/Third_Party/LoRaWAN/Mac/region/RegionCN470.c **** 
 520:../../../../../../Middlewares/Third_Party/LoRaWAN/Mac/region/RegionCN470.c ****     Radio.SetChannel( frequency );
 1007              		.loc 1 520 0
 1008 0042 4046     		mov	r0, r8
 518:../../../../../../Middlewares/Third_Party/LoRaWAN/Mac/region/RegionCN470.c **** 
 1009              		.loc 1 518 0
 1010 0044 9B19     		adds	r3, r3, r6
 1011 0046 1B7E     		ldrb	r3, [r3, #24]
 1012 0048 5BB2     		sxtb	r3, r3
 1013 004a 9946     		mov	r9, r3
 1014              	.LVL78:
 1015              		.loc 1 520 0
 1016 004c 6B69     		ldr	r3, [r5, #20]
 1017 004e 0B93     		str	r3, [sp, #44]
 1018 0050 9847     		blx	r3
 1019              	.LVL79:
 521:../../../../../../Middlewares/Third_Party/LoRaWAN/Mac/region/RegionCN470.c **** 
 522:../../../../../../Middlewares/Third_Party/LoRaWAN/Mac/region/RegionCN470.c ****     // Radio configuration
 523:../../../../../../Middlewares/Third_Party/LoRaWAN/Mac/region/RegionCN470.c ****     Radio.SetRxConfig( MODEM_LORA, rxConfig->Bandwidth, phyDr, 1, 0, 8, rxConfig->WindowTimeout, fa
 1020              		.loc 1 523 0
 1021 0052 A37C     		ldrb	r3, [r4, #18]
 1022 0054 2289     		ldrh	r2, [r4, #8]
 1023 0056 0993     		str	r3, [sp, #36]
 1024 0058 0123     		movs	r3, #1
 1025 005a 0893     		str	r3, [sp, #32]
 1026 005c 0023     		movs	r3, #0
 1027 005e 0292     		str	r2, [sp, #8]
 1028 0060 0822     		movs	r2, #8
 1029 0062 0793     		str	r3, [sp, #28]
 1030 0064 0693     		str	r3, [sp, #24]
 1031 0066 0593     		str	r3, [sp, #20]
 1032 0068 0493     		str	r3, [sp, #16]
 1033 006a 0393     		str	r3, [sp, #12]
ARM GAS  C:\Users\EBANO_~1\AppData\Local\Temp\cchbxRq9.s 			page 30


 1034 006c 0093     		str	r3, [sp]
 1035 006e 2B6A     		ldr	r3, [r5, #32]
 1036 0070 0192     		str	r2, [sp, #4]
 1037 0072 0B93     		str	r3, [sp, #44]
 1038 0074 A178     		ldrb	r1, [r4, #2]
 1039 0076 0123     		movs	r3, #1
 1040 0078 4A46     		mov	r2, r9
 1041 007a 0120     		movs	r0, #1
 1042 007c 0B9F     		ldr	r7, [sp, #44]
 1043 007e B847     		blx	r7
 1044              	.LVL80:
 524:../../../../../../Middlewares/Third_Party/LoRaWAN/Mac/region/RegionCN470.c **** 
 525:../../../../../../Middlewares/Third_Party/LoRaWAN/Mac/region/RegionCN470.c ****     if( rxConfig->RepeaterSupport == true )
 1045              		.loc 1 525 0
 1046 0080 637C     		ldrb	r3, [r4, #17]
 1047 0082 002B     		cmp	r3, #0
 1048 0084 11D1     		bne	.L85
 526:../../../../../../Middlewares/Third_Party/LoRaWAN/Mac/region/RegionCN470.c ****     {
 527:../../../../../../Middlewares/Third_Party/LoRaWAN/Mac/region/RegionCN470.c ****         maxPayload = MaxPayloadOfDatarateRepeaterCN470[dr];
 528:../../../../../../Middlewares/Third_Party/LoRaWAN/Mac/region/RegionCN470.c ****     }
 529:../../../../../../Middlewares/Third_Party/LoRaWAN/Mac/region/RegionCN470.c ****     else
 530:../../../../../../Middlewares/Third_Party/LoRaWAN/Mac/region/RegionCN470.c ****     {
 531:../../../../../../Middlewares/Third_Party/LoRaWAN/Mac/region/RegionCN470.c ****         maxPayload = MaxPayloadOfDatarateCN470[dr];
 1049              		.loc 1 531 0
 1050 0086 0E4B     		ldr	r3, .L86+16
 1051 0088 995D     		ldrb	r1, [r3, r6]
 1052              	.LVL81:
 1053              	.L83:
 532:../../../../../../Middlewares/Third_Party/LoRaWAN/Mac/region/RegionCN470.c ****     }
 533:../../../../../../Middlewares/Third_Party/LoRaWAN/Mac/region/RegionCN470.c ****     Radio.SetMaxPayloadLength( MODEM_LORA, maxPayload + LORA_MAC_FRMPAYLOAD_OVERHEAD );
 1054              		.loc 1 533 0
 1055 008a EB6D     		ldr	r3, [r5, #92]
 1056 008c 0D31     		adds	r1, r1, #13
 1057              	.LVL82:
 1058 008e C9B2     		uxtb	r1, r1
 1059 0090 0120     		movs	r0, #1
 1060 0092 0B93     		str	r3, [sp, #44]
 1061 0094 9847     		blx	r3
 1062              	.LVL83:
 534:../../../../../../Middlewares/Third_Party/LoRaWAN/Mac/region/RegionCN470.c ****     TVL1( PRINTF( "RX on freq %d Hz at DR %d\n\r", frequency, dr );)
 535:../../../../../../Middlewares/Third_Party/LoRaWAN/Mac/region/RegionCN470.c **** 
 536:../../../../../../Middlewares/Third_Party/LoRaWAN/Mac/region/RegionCN470.c ****     *datarate = (uint8_t) dr;
 1063              		.loc 1 536 0
 1064 0096 5346     		mov	r3, r10
 1065 0098 1E70     		strb	r6, [r3]
 537:../../../../../../Middlewares/Third_Party/LoRaWAN/Mac/region/RegionCN470.c ****     return true;
 1066              		.loc 1 537 0
 1067 009a 0123     		movs	r3, #1
 1068              	.LVL84:
 1069              	.L80:
 538:../../../../../../Middlewares/Third_Party/LoRaWAN/Mac/region/RegionCN470.c **** }
 1070              		.loc 1 538 0
 1071 009c 1800     		movs	r0, r3
 1072 009e 0CB0     		add	sp, sp, #48
 1073              		@ sp needed
 1074              	.LVL85:
 1075              	.LVL86:
ARM GAS  C:\Users\EBANO_~1\AppData\Local\Temp\cchbxRq9.s 			page 31


 1076              	.LVL87:
 1077              	.LVL88:
 1078 00a0 1CBC     		pop	{r2, r3, r4}
 1079 00a2 9046     		mov	r8, r2
 1080 00a4 9946     		mov	r9, r3
 1081 00a6 A246     		mov	r10, r4
 1082 00a8 F0BD     		pop	{r4, r5, r6, r7, pc}
 1083              	.LVL89:
 1084              	.L85:
 527:../../../../../../Middlewares/Third_Party/LoRaWAN/Mac/region/RegionCN470.c ****     }
 1085              		.loc 1 527 0
 1086 00aa 064B     		ldr	r3, .L86+20
 1087 00ac 995D     		ldrb	r1, [r3, r6]
 1088              	.LVL90:
 1089 00ae ECE7     		b	.L83
 1090              	.L87:
 1091              		.align	2
 1092              	.L86:
 1093 00b0 00000000 		.word	Radio
 1094 00b4 400D0300 		.word	200000
 1095 00b8 E0F8D11D 		.word	500300000
 1096 00bc AC000000 		.word	.LANCHOR1
 1097 00c0 CC000000 		.word	.LANCHOR0
 1098 00c4 CC000000 		.word	MaxPayloadOfDatarateRepeaterCN470
 1099              		.cfi_endproc
 1100              	.LFE52:
 1101              		.size	RegionCN470RxConfig, .-RegionCN470RxConfig
 1102              		.section	.text.RegionCN470TxConfig,"ax",%progbits
 1103              		.align	1
 1104              		.p2align 2,,3
 1105              		.global	RegionCN470TxConfig
 1106              		.syntax unified
 1107              		.code	16
 1108              		.thumb_func
 1109              		.fpu softvfp
 1110              		.type	RegionCN470TxConfig, %function
 1111              	RegionCN470TxConfig:
 1112              	.LFB53:
 539:../../../../../../Middlewares/Third_Party/LoRaWAN/Mac/region/RegionCN470.c **** 
 540:../../../../../../Middlewares/Third_Party/LoRaWAN/Mac/region/RegionCN470.c **** bool RegionCN470TxConfig( TxConfigParams_t* txConfig, int8_t* txPower, TimerTime_t* txTimeOnAir )
 541:../../../../../../Middlewares/Third_Party/LoRaWAN/Mac/region/RegionCN470.c **** {
 1113              		.loc 1 541 0
 1114              		.cfi_startproc
 1115              		@ args = 0, pretend = 0, frame = 8
 1116              		@ frame_needed = 0, uses_anonymous_args = 0
 1117              	.LVL91:
 1118 0000 F0B5     		push	{r4, r5, r6, r7, lr}
 1119              	.LCFI14:
 1120              		.cfi_def_cfa_offset 20
 1121              		.cfi_offset 4, -20
 1122              		.cfi_offset 5, -16
 1123              		.cfi_offset 6, -12
 1124              		.cfi_offset 7, -8
 1125              		.cfi_offset 14, -4
 1126 0002 4546     		mov	r5, r8
 1127 0004 DE46     		mov	lr, fp
 1128 0006 5746     		mov	r7, r10
ARM GAS  C:\Users\EBANO_~1\AppData\Local\Temp\cchbxRq9.s 			page 32


 1129 0008 4E46     		mov	r6, r9
 1130 000a E0B5     		push	{r5, r6, r7, lr}
 1131              	.LCFI15:
 1132              		.cfi_def_cfa_offset 36
 1133              		.cfi_offset 8, -36
 1134              		.cfi_offset 9, -32
 1135              		.cfi_offset 10, -28
 1136              		.cfi_offset 11, -24
 1137 000c 1700     		movs	r7, r2
 542:../../../../../../Middlewares/Third_Party/LoRaWAN/Mac/region/RegionCN470.c ****     int8_t phyDr = DataratesCN470[txConfig->Datarate];
 1138              		.loc 1 542 0
 1139 000e 0122     		movs	r2, #1
 1140              	.LVL92:
 1141 0010 2B4B     		ldr	r3, .L90
 1142 0012 8256     		ldrsb	r2, [r0, r2]
 543:../../../../../../Middlewares/Third_Party/LoRaWAN/Mac/region/RegionCN470.c ****     int8_t txPowerLimited = LimitTxPower( txConfig->TxPower, NvmCtx.Bands[NvmCtx.Channels[txConfig-
 1143              		.loc 1 543 0
 1144 0014 2B4D     		ldr	r5, .L90+4
 542:../../../../../../Middlewares/Third_Party/LoRaWAN/Mac/region/RegionCN470.c ****     int8_t phyDr = DataratesCN470[txConfig->Datarate];
 1145              		.loc 1 542 0
 1146 0016 9B18     		adds	r3, r3, r2
 1147 0018 1B7E     		ldrb	r3, [r3, #24]
 1148              		.loc 1 543 0
 1149 001a 0278     		ldrb	r2, [r0]
 542:../../../../../../Middlewares/Third_Party/LoRaWAN/Mac/region/RegionCN470.c ****     int8_t phyDr = DataratesCN470[txConfig->Datarate];
 1150              		.loc 1 542 0
 1151 001c 5BB2     		sxtb	r3, r3
 1152 001e 9846     		mov	r8, r3
 1153              	.LVL93:
 1154              		.loc 1 543 0
 1155 0020 5300     		lsls	r3, r2, #1
 1156 0022 9B18     		adds	r3, r3, r2
 1157 0024 9B00     		lsls	r3, r3, #2
 1158 0026 EB18     		adds	r3, r5, r3
 1159 0028 5B7A     		ldrb	r3, [r3, #9]
 1160              	.LBB27:
 1161              	.LBB28:
 103:../../../../../../Middlewares/Third_Party/LoRaWAN/Mac/region/RegionCN470.c **** 
 1162              		.loc 1 103 0
 1163 002a 8278     		ldrb	r2, [r0, #2]
 1164              	.LVL94:
 1165              	.LBE28:
 1166              	.LBE27:
 1167              		.loc 1 543 0
 1168 002c 4833     		adds	r3, r3, #72
 1169 002e 1B01     		lsls	r3, r3, #4
 1170 0030 EB18     		adds	r3, r5, r3
 1171              	.LBB33:
 1172              	.LBB29:
 103:../../../../../../Middlewares/Third_Party/LoRaWAN/Mac/region/RegionCN470.c **** 
 1173              		.loc 1 103 0
 1174 0032 9B78     		ldrb	r3, [r3, #2]
 1175              	.LBE29:
 1176              	.LBE33:
 541:../../../../../../Middlewares/Third_Party/LoRaWAN/Mac/region/RegionCN470.c ****     int8_t phyDr = DataratesCN470[txConfig->Datarate];
 1177              		.loc 1 541 0
 1178 0034 8B46     		mov	fp, r1
ARM GAS  C:\Users\EBANO_~1\AppData\Local\Temp\cchbxRq9.s 			page 33


 1179              	.LBB34:
 1180              	.LBB30:
 103:../../../../../../Middlewares/Third_Party/LoRaWAN/Mac/region/RegionCN470.c **** 
 1181              		.loc 1 103 0
 1182 0036 9946     		mov	r9, r3
 1183 0038 51B2     		sxtb	r1, r2
 1184              	.LVL95:
 1185 003a 5BB2     		sxtb	r3, r3
 1186              	.LBE30:
 1187              	.LBE34:
 541:../../../../../../Middlewares/Third_Party/LoRaWAN/Mac/region/RegionCN470.c ****     int8_t phyDr = DataratesCN470[txConfig->Datarate];
 1188              		.loc 1 541 0
 1189 003c 8DB0     		sub	sp, sp, #52
 1190              	.LCFI16:
 1191              		.cfi_def_cfa_offset 88
 541:../../../../../../Middlewares/Third_Party/LoRaWAN/Mac/region/RegionCN470.c ****     int8_t phyDr = DataratesCN470[txConfig->Datarate];
 1192              		.loc 1 541 0
 1193 003e 0400     		movs	r4, r0
 1194              	.LBB35:
 1195              	.LBB31:
 103:../../../../../../Middlewares/Third_Party/LoRaWAN/Mac/region/RegionCN470.c **** 
 1196              		.loc 1 103 0
 1197 0040 8B42     		cmp	r3, r1
 1198 0042 00DA     		bge	.L89
 1199 0044 9146     		mov	r9, r2
 1200              	.L89:
 1201 0046 4B46     		mov	r3, r9
 1202              	.LBE31:
 1203              	.LBE35:
 544:../../../../../../Middlewares/Third_Party/LoRaWAN/Mac/region/RegionCN470.c ****     int8_t phyTxPower = 0;
 545:../../../../../../Middlewares/Third_Party/LoRaWAN/Mac/region/RegionCN470.c **** 
 546:../../../../../../Middlewares/Third_Party/LoRaWAN/Mac/region/RegionCN470.c ****     // Calculate physical TX power
 547:../../../../../../Middlewares/Third_Party/LoRaWAN/Mac/region/RegionCN470.c ****     phyTxPower = RegionCommonComputeTxPower( txPowerLimited, txConfig->MaxEirp, txConfig->AntennaGa
 1204              		.loc 1 547 0
 1205 0048 6168     		ldr	r1, [r4, #4]
 1206 004a A268     		ldr	r2, [r4, #8]
 1207              	.LBB36:
 1208              	.LBB32:
 103:../../../../../../Middlewares/Third_Party/LoRaWAN/Mac/region/RegionCN470.c **** 
 1209              		.loc 1 103 0
 1210 004c 58B2     		sxtb	r0, r3
 1211              	.LVL96:
 1212              	.LBE32:
 1213              	.LBE36:
 1214              		.loc 1 547 0
 1215 004e FFF7FEFF 		bl	RegionCommonComputeTxPower
 1216              	.LVL97:
 548:../../../../../../Middlewares/Third_Party/LoRaWAN/Mac/region/RegionCN470.c **** 
 549:../../../../../../Middlewares/Third_Party/LoRaWAN/Mac/region/RegionCN470.c ****     // Setup the radio frequency
 550:../../../../../../Middlewares/Third_Party/LoRaWAN/Mac/region/RegionCN470.c ****     Radio.SetChannel( NvmCtx.Channels[txConfig->Channel].Frequency );
 1217              		.loc 1 550 0
 1218 0052 2278     		ldrb	r2, [r4]
 547:../../../../../../Middlewares/Third_Party/LoRaWAN/Mac/region/RegionCN470.c **** 
 1219              		.loc 1 547 0
 1220 0054 8246     		mov	r10, r0
 1221              	.LVL98:
 1222              		.loc 1 550 0
ARM GAS  C:\Users\EBANO_~1\AppData\Local\Temp\cchbxRq9.s 			page 34


 1223 0056 5300     		lsls	r3, r2, #1
 1224 0058 9B18     		adds	r3, r3, r2
 1225 005a 9B00     		lsls	r3, r3, #2
 1226 005c E858     		ldr	r0, [r5, r3]
 1227 005e 1A4D     		ldr	r5, .L90+8
 1228 0060 6B69     		ldr	r3, [r5, #20]
 1229 0062 0B93     		str	r3, [sp, #44]
 1230 0064 9847     		blx	r3
 1231              	.LVL99:
 551:../../../../../../Middlewares/Third_Party/LoRaWAN/Mac/region/RegionCN470.c **** 
 552:../../../../../../Middlewares/Third_Party/LoRaWAN/Mac/region/RegionCN470.c ****     Radio.SetTxConfig( MODEM_LORA, phyTxPower, 0, 0, phyDr, 1, 8, false, true, 0, 0, false, 3000 );
 1232              		.loc 1 552 0
 1233 0066 194B     		ldr	r3, .L90+12
 1234 0068 0122     		movs	r2, #1
 1235 006a 0893     		str	r3, [sp, #32]
 1236 006c 0023     		movs	r3, #0
 1237 006e 0793     		str	r3, [sp, #28]
 1238 0070 0693     		str	r3, [sp, #24]
 1239 0072 0593     		str	r3, [sp, #20]
 1240 0074 0393     		str	r3, [sp, #12]
 1241 0076 0833     		adds	r3, r3, #8
 1242 0078 0293     		str	r3, [sp, #8]
 1243 007a 4346     		mov	r3, r8
 1244 007c 0093     		str	r3, [sp]
 1245 007e 6B6A     		ldr	r3, [r5, #36]
 1246 0080 0492     		str	r2, [sp, #16]
 1247 0082 0B93     		str	r3, [sp, #44]
 1248 0084 0192     		str	r2, [sp, #4]
 1249 0086 5146     		mov	r1, r10
 1250 0088 0022     		movs	r2, #0
 1251 008a 0023     		movs	r3, #0
 1252 008c 0120     		movs	r0, #1
 1253 008e 0B9E     		ldr	r6, [sp, #44]
 1254 0090 B047     		blx	r6
 1255              	.LVL100:
 553:../../../../../../Middlewares/Third_Party/LoRaWAN/Mac/region/RegionCN470.c ****     TVL1( PRINTF( "TX on freq %d Hz at DR %d\n\r", NvmCtx.Channels[txConfig->Channel].Frequency, tx
 554:../../../../../../Middlewares/Third_Party/LoRaWAN/Mac/region/RegionCN470.c **** 
 555:../../../../../../Middlewares/Third_Party/LoRaWAN/Mac/region/RegionCN470.c ****     // Setup maximum payload lenght of the radio driver
 556:../../../../../../Middlewares/Third_Party/LoRaWAN/Mac/region/RegionCN470.c ****     Radio.SetMaxPayloadLength( MODEM_LORA, txConfig->PktLen );
 1256              		.loc 1 556 0
 1257 0092 EB6D     		ldr	r3, [r5, #92]
 1258 0094 217B     		ldrb	r1, [r4, #12]
 1259 0096 0120     		movs	r0, #1
 1260 0098 0B93     		str	r3, [sp, #44]
 1261 009a 9847     		blx	r3
 1262              	.LVL101:
 557:../../../../../../Middlewares/Third_Party/LoRaWAN/Mac/region/RegionCN470.c ****     // Get the time-on-air of the next tx frame
 558:../../../../../../Middlewares/Third_Party/LoRaWAN/Mac/region/RegionCN470.c ****     *txTimeOnAir = Radio.TimeOnAir( MODEM_LORA, txConfig->PktLen );
 1263              		.loc 1 558 0
 1264 009c EB6A     		ldr	r3, [r5, #44]
 1265 009e 217B     		ldrb	r1, [r4, #12]
 1266 00a0 0120     		movs	r0, #1
 1267 00a2 0B93     		str	r3, [sp, #44]
 1268 00a4 9847     		blx	r3
 1269              	.LVL102:
 559:../../../../../../Middlewares/Third_Party/LoRaWAN/Mac/region/RegionCN470.c ****     *txPower = txPowerLimited;
 1270              		.loc 1 559 0
ARM GAS  C:\Users\EBANO_~1\AppData\Local\Temp\cchbxRq9.s 			page 35


 1271 00a6 4B46     		mov	r3, r9
 558:../../../../../../Middlewares/Third_Party/LoRaWAN/Mac/region/RegionCN470.c ****     *txPower = txPowerLimited;
 1272              		.loc 1 558 0
 1273 00a8 3860     		str	r0, [r7]
 1274              		.loc 1 559 0
 1275 00aa 5A46     		mov	r2, fp
 560:../../../../../../Middlewares/Third_Party/LoRaWAN/Mac/region/RegionCN470.c **** 
 561:../../../../../../Middlewares/Third_Party/LoRaWAN/Mac/region/RegionCN470.c ****     return true;
 562:../../../../../../Middlewares/Third_Party/LoRaWAN/Mac/region/RegionCN470.c **** }
 1276              		.loc 1 562 0
 1277 00ac 0120     		movs	r0, #1
 559:../../../../../../Middlewares/Third_Party/LoRaWAN/Mac/region/RegionCN470.c **** 
 1278              		.loc 1 559 0
 1279 00ae 1370     		strb	r3, [r2]
 1280              		.loc 1 562 0
 1281 00b0 0DB0     		add	sp, sp, #52
 1282              		@ sp needed
 1283              	.LVL103:
 1284              	.LVL104:
 1285              	.LVL105:
 1286              	.LVL106:
 1287              	.LVL107:
 1288 00b2 3CBC     		pop	{r2, r3, r4, r5}
 1289 00b4 9046     		mov	r8, r2
 1290 00b6 9946     		mov	r9, r3
 1291 00b8 A246     		mov	r10, r4
 1292 00ba AB46     		mov	fp, r5
 1293 00bc F0BD     		pop	{r4, r5, r6, r7, pc}
 1294              	.L91:
 1295 00be C046     		.align	2
 1296              	.L90:
 1297 00c0 AC000000 		.word	.LANCHOR1
 1298 00c4 00000000 		.word	NvmCtx
 1299 00c8 00000000 		.word	Radio
 1300 00cc B80B0000 		.word	3000
 1301              		.cfi_endproc
 1302              	.LFE53:
 1303              		.size	RegionCN470TxConfig, .-RegionCN470TxConfig
 1304              		.section	.text.RegionCN470LinkAdrReq,"ax",%progbits
 1305              		.align	1
 1306              		.p2align 2,,3
 1307              		.global	RegionCN470LinkAdrReq
 1308              		.syntax unified
 1309              		.code	16
 1310              		.thumb_func
 1311              		.fpu softvfp
 1312              		.type	RegionCN470LinkAdrReq, %function
 1313              	RegionCN470LinkAdrReq:
 1314              	.LFB54:
 563:../../../../../../Middlewares/Third_Party/LoRaWAN/Mac/region/RegionCN470.c **** 
 564:../../../../../../Middlewares/Third_Party/LoRaWAN/Mac/region/RegionCN470.c **** uint8_t RegionCN470LinkAdrReq( LinkAdrReqParams_t* linkAdrReq, int8_t* drOut, int8_t* txPowOut, uin
 565:../../../../../../Middlewares/Third_Party/LoRaWAN/Mac/region/RegionCN470.c **** {
 1315              		.loc 1 565 0
 1316              		.cfi_startproc
 1317              		@ args = 4, pretend = 0, frame = 64
 1318              		@ frame_needed = 0, uses_anonymous_args = 0
 1319              	.LVL108:
ARM GAS  C:\Users\EBANO_~1\AppData\Local\Temp\cchbxRq9.s 			page 36


 1320 0000 F0B5     		push	{r4, r5, r6, r7, lr}
 1321              	.LCFI17:
 1322              		.cfi_def_cfa_offset 20
 1323              		.cfi_offset 4, -20
 1324              		.cfi_offset 5, -16
 1325              		.cfi_offset 6, -12
 1326              		.cfi_offset 7, -8
 1327              		.cfi_offset 14, -4
 1328 0002 DE46     		mov	lr, fp
 1329 0004 5746     		mov	r7, r10
 1330 0006 4E46     		mov	r6, r9
 1331 0008 4546     		mov	r5, r8
 1332 000a E0B5     		push	{r5, r6, r7, lr}
 1333              	.LCFI18:
 1334              		.cfi_def_cfa_offset 36
 1335              		.cfi_offset 8, -36
 1336              		.cfi_offset 9, -32
 1337              		.cfi_offset 10, -28
 1338              		.cfi_offset 11, -24
 1339 000c 91B0     		sub	sp, sp, #68
 1340              	.LCFI19:
 1341              		.cfi_def_cfa_offset 104
 1342              		.loc 1 565 0
 1343 000e 8146     		mov	r9, r0
 1344 0010 8B46     		mov	fp, r1
 1345 0012 9046     		mov	r8, r2
 566:../../../../../../Middlewares/Third_Party/LoRaWAN/Mac/region/RegionCN470.c ****     uint8_t status = 0x07;
 567:../../../../../../Middlewares/Third_Party/LoRaWAN/Mac/region/RegionCN470.c ****     RegionCommonLinkAdrParams_t linkAdrParams;
 568:../../../../../../Middlewares/Third_Party/LoRaWAN/Mac/region/RegionCN470.c ****     uint8_t nextIndex = 0;
 569:../../../../../../Middlewares/Third_Party/LoRaWAN/Mac/region/RegionCN470.c ****     uint8_t bytesProcessed = 0;
 570:../../../../../../Middlewares/Third_Party/LoRaWAN/Mac/region/RegionCN470.c ****     uint16_t channelsMask[6] = { 0, 0, 0, 0, 0, 0 };
 1346              		.loc 1 570 0
 1347 0014 0021     		movs	r1, #0
 1348              	.LVL109:
 1349 0016 0C22     		movs	r2, #12
 1350              	.LVL110:
 1351 0018 05A8     		add	r0, sp, #20
 1352              	.LVL111:
 565:../../../../../../Middlewares/Third_Party/LoRaWAN/Mac/region/RegionCN470.c ****     uint8_t status = 0x07;
 1353              		.loc 1 565 0
 1354 001a 0193     		str	r3, [sp, #4]
 1355              		.loc 1 570 0
 1356 001c FFF7FEFF 		bl	memset
 1357              	.LVL112:
 571:../../../../../../Middlewares/Third_Party/LoRaWAN/Mac/region/RegionCN470.c ****     GetPhyParams_t getPhy;
 572:../../../../../../Middlewares/Third_Party/LoRaWAN/Mac/region/RegionCN470.c ****     PhyParam_t phyParam;
 573:../../../../../../Middlewares/Third_Party/LoRaWAN/Mac/region/RegionCN470.c ****     RegionCommonLinkAdrReqVerifyParams_t linkAdrVerifyParams;
 574:../../../../../../Middlewares/Third_Party/LoRaWAN/Mac/region/RegionCN470.c **** 
 575:../../../../../../Middlewares/Third_Party/LoRaWAN/Mac/region/RegionCN470.c ****     // Initialize local copy of channels mask
 576:../../../../../../Middlewares/Third_Party/LoRaWAN/Mac/region/RegionCN470.c ****     RegionCommonChanMaskCopy( channelsMask, NvmCtx.ChannelsMask, 6 );
 1358              		.loc 1 576 0
 1359 0020 A34F     		ldr	r7, .L198
 1360 0022 0622     		movs	r2, #6
 1361 0024 3900     		movs	r1, r7
 1362 0026 05A8     		add	r0, sp, #20
 1363 0028 FFF7FEFF 		bl	RegionCommonChanMaskCopy
 1364              	.LVL113:
ARM GAS  C:\Users\EBANO_~1\AppData\Local\Temp\cchbxRq9.s 			page 37


 1365 002c A14B     		ldr	r3, .L198+4
 569:../../../../../../Middlewares/Third_Party/LoRaWAN/Mac/region/RegionCN470.c ****     uint16_t channelsMask[6] = { 0, 0, 0, 0, 0, 0 };
 1366              		.loc 1 569 0
 1367 002e 0024     		movs	r4, #0
 1368 0030 9C46     		mov	ip, r3
 1369              	.LBB42:
 577:../../../../../../Middlewares/Third_Party/LoRaWAN/Mac/region/RegionCN470.c **** 
 578:../../../../../../Middlewares/Third_Party/LoRaWAN/Mac/region/RegionCN470.c ****     while( bytesProcessed < linkAdrReq->PayloadSize )
 579:../../../../../../Middlewares/Third_Party/LoRaWAN/Mac/region/RegionCN470.c ****     {
 580:../../../../../../Middlewares/Third_Party/LoRaWAN/Mac/region/RegionCN470.c ****         // Get ADR request parameters
 581:../../../../../../Middlewares/Third_Party/LoRaWAN/Mac/region/RegionCN470.c ****         nextIndex = RegionCommonParseLinkAdrReq( &( linkAdrReq->Payload[bytesProcessed] ), &linkAdr
 582:../../../../../../Middlewares/Third_Party/LoRaWAN/Mac/region/RegionCN470.c **** 
 583:../../../../../../Middlewares/Third_Party/LoRaWAN/Mac/region/RegionCN470.c ****         if( nextIndex == 0 )
 584:../../../../../../Middlewares/Third_Party/LoRaWAN/Mac/region/RegionCN470.c ****             break; // break loop, since no more request has been found
 585:../../../../../../Middlewares/Third_Party/LoRaWAN/Mac/region/RegionCN470.c **** 
 586:../../../../../../Middlewares/Third_Party/LoRaWAN/Mac/region/RegionCN470.c ****         // Update bytes processed
 587:../../../../../../Middlewares/Third_Party/LoRaWAN/Mac/region/RegionCN470.c ****         bytesProcessed += nextIndex;
 588:../../../../../../Middlewares/Third_Party/LoRaWAN/Mac/region/RegionCN470.c **** 
 589:../../../../../../Middlewares/Third_Party/LoRaWAN/Mac/region/RegionCN470.c ****         // Revert status, as we only check the last ADR request for the channel mask KO
 590:../../../../../../Middlewares/Third_Party/LoRaWAN/Mac/region/RegionCN470.c ****         status = 0x07;
 591:../../../../../../Middlewares/Third_Party/LoRaWAN/Mac/region/RegionCN470.c **** 
 592:../../../../../../Middlewares/Third_Party/LoRaWAN/Mac/region/RegionCN470.c ****         if( linkAdrParams.ChMaskCtrl == 6 )
 593:../../../../../../Middlewares/Third_Party/LoRaWAN/Mac/region/RegionCN470.c ****         {
 594:../../../../../../Middlewares/Third_Party/LoRaWAN/Mac/region/RegionCN470.c ****             // Enable all 125 kHz channels
 595:../../../../../../Middlewares/Third_Party/LoRaWAN/Mac/region/RegionCN470.c ****             channelsMask[0] = 0xFFFF;
 596:../../../../../../Middlewares/Third_Party/LoRaWAN/Mac/region/RegionCN470.c ****             channelsMask[1] = 0xFFFF;
 597:../../../../../../Middlewares/Third_Party/LoRaWAN/Mac/region/RegionCN470.c ****             channelsMask[2] = 0xFFFF;
 598:../../../../../../Middlewares/Third_Party/LoRaWAN/Mac/region/RegionCN470.c ****             channelsMask[3] = 0xFFFF;
 599:../../../../../../Middlewares/Third_Party/LoRaWAN/Mac/region/RegionCN470.c ****             channelsMask[4] = 0xFFFF;
 600:../../../../../../Middlewares/Third_Party/LoRaWAN/Mac/region/RegionCN470.c ****             channelsMask[5] = 0xFFFF;
 601:../../../../../../Middlewares/Third_Party/LoRaWAN/Mac/region/RegionCN470.c ****         }
 602:../../../../../../Middlewares/Third_Party/LoRaWAN/Mac/region/RegionCN470.c ****         else if( linkAdrParams.ChMaskCtrl == 7 )
 603:../../../../../../Middlewares/Third_Party/LoRaWAN/Mac/region/RegionCN470.c ****         {
 604:../../../../../../Middlewares/Third_Party/LoRaWAN/Mac/region/RegionCN470.c ****             status &= 0xFE; // Channel mask KO
 605:../../../../../../Middlewares/Third_Party/LoRaWAN/Mac/region/RegionCN470.c ****         }
 606:../../../../../../Middlewares/Third_Party/LoRaWAN/Mac/region/RegionCN470.c ****         else
 607:../../../../../../Middlewares/Third_Party/LoRaWAN/Mac/region/RegionCN470.c ****         {
 608:../../../../../../Middlewares/Third_Party/LoRaWAN/Mac/region/RegionCN470.c ****             for( uint8_t i = 0; i < 16; i++ )
 609:../../../../../../Middlewares/Third_Party/LoRaWAN/Mac/region/RegionCN470.c ****             {
 610:../../../../../../Middlewares/Third_Party/LoRaWAN/Mac/region/RegionCN470.c ****                 if( ( ( linkAdrParams.ChMask & ( 1 << i ) ) != 0 ) &&
 1370              		.loc 1 610 0
 1371 0032 0123     		movs	r3, #1
 1372              	.LBE42:
 566:../../../../../../Middlewares/Third_Party/LoRaWAN/Mac/region/RegionCN470.c ****     RegionCommonLinkAdrParams_t linkAdrParams;
 1373              		.loc 1 566 0
 1374 0034 0725     		movs	r5, #7
 1375              	.LBB43:
 1376              		.loc 1 610 0
 1377 0036 9A46     		mov	r10, r3
 1378 0038 03AE     		add	r6, sp, #12
 1379 003a 6744     		add	r7, r7, ip
 1380              	.LVL114:
 1381              	.L93:
 1382              	.LBE43:
 578:../../../../../../Middlewares/Third_Party/LoRaWAN/Mac/region/RegionCN470.c ****     {
 1383              		.loc 1 578 0
 1384 003c 4B46     		mov	r3, r9
ARM GAS  C:\Users\EBANO_~1\AppData\Local\Temp\cchbxRq9.s 			page 38


 1385 003e 1B7A     		ldrb	r3, [r3, #8]
 1386 0040 A342     		cmp	r3, r4
 1387 0042 00D8     		bhi	.LCB1228
 1388 0044 CBE0     		b	.L116	@long jump
 1389              	.LCB1228:
 1390              	.L115:
 581:../../../../../../Middlewares/Third_Party/LoRaWAN/Mac/region/RegionCN470.c **** 
 1391              		.loc 1 581 0
 1392 0046 4B46     		mov	r3, r9
 1393 0048 5B68     		ldr	r3, [r3, #4]
 1394 004a 3100     		movs	r1, r6
 1395 004c 1819     		adds	r0, r3, r4
 1396 004e FFF7FEFF 		bl	RegionCommonParseLinkAdrReq
 1397              	.LVL115:
 583:../../../../../../Middlewares/Third_Party/LoRaWAN/Mac/region/RegionCN470.c ****             break; // break loop, since no more request has been found
 1398              		.loc 1 583 0
 1399 0052 0028     		cmp	r0, #0
 1400 0054 00D1     		bne	.LCB1241
 1401 0056 C2E0     		b	.L116	@long jump
 1402              	.LCB1241:
 592:../../../../../../Middlewares/Third_Party/LoRaWAN/Mac/region/RegionCN470.c ****         {
 1403              		.loc 1 592 0
 1404 0058 F378     		ldrb	r3, [r6, #3]
 587:../../../../../../Middlewares/Third_Party/LoRaWAN/Mac/region/RegionCN470.c **** 
 1405              		.loc 1 587 0
 1406 005a 2418     		adds	r4, r4, r0
 1407              	.LVL116:
 1408 005c E4B2     		uxtb	r4, r4
 1409              	.LVL117:
 592:../../../../../../Middlewares/Third_Party/LoRaWAN/Mac/region/RegionCN470.c ****         {
 1410              		.loc 1 592 0
 1411 005e 062B     		cmp	r3, #6
 1412 0060 00D1     		bne	.LCB1249
 1413 0062 FAE0     		b	.L182	@long jump
 1414              	.LCB1249:
 604:../../../../../../Middlewares/Third_Party/LoRaWAN/Mac/region/RegionCN470.c ****         }
 1415              		.loc 1 604 0
 1416 0064 0625     		movs	r5, #6
 602:../../../../../../Middlewares/Third_Party/LoRaWAN/Mac/region/RegionCN470.c ****         {
 1417              		.loc 1 602 0
 1418 0066 072B     		cmp	r3, #7
 1419 0068 E8D0     		beq	.L93
 1420              	.LVL118:
 1421              	.LBB44:
 1422              		.loc 1 610 0
 1423 006a 5146     		mov	r1, r10
 1424 006c B288     		ldrh	r2, [r6, #4]
 1425              	.LBE44:
 590:../../../../../../Middlewares/Third_Party/LoRaWAN/Mac/region/RegionCN470.c **** 
 1426              		.loc 1 590 0
 1427 006e 0135     		adds	r5, r5, #1
 1428              	.LBB45:
 1429              		.loc 1 610 0
 1430 0070 1142     		tst	r1, r2
 1431 0072 07D0     		beq	.L99
 611:../../../../../../Middlewares/Third_Party/LoRaWAN/Mac/region/RegionCN470.c ****                     ( NvmCtx.Channels[linkAdrParams.ChMaskCtrl * 16 + i].Frequency == 0 ) )
 1432              		.loc 1 611 0
ARM GAS  C:\Users\EBANO_~1\AppData\Local\Temp\cchbxRq9.s 			page 39


 1433 0074 1801     		lsls	r0, r3, #4
 1434              	.LVL119:
 1435 0076 5901     		lsls	r1, r3, #5
 1436 0078 0918     		adds	r1, r1, r0
 1437 007a 8900     		lsls	r1, r1, #2
 610:../../../../../../Middlewares/Third_Party/LoRaWAN/Mac/region/RegionCN470.c ****                     ( NvmCtx.Channels[linkAdrParams.ChMaskCtrl * 16 + i].Frequency == 0 ) )
 1438              		.loc 1 610 0
 1439 007c 7D58     		ldr	r5, [r7, r1]
 612:../../../../../../Middlewares/Third_Party/LoRaWAN/Mac/region/RegionCN470.c ****                 {// Trying to enable an undefined channel
 613:../../../../../../Middlewares/Third_Party/LoRaWAN/Mac/region/RegionCN470.c ****                     status &= 0xFE; // Channel mask KO
 1440              		.loc 1 613 0
 1441 007e 691E     		subs	r1, r5, #1
 1442 0080 8D41     		sbcs	r5, r5, r1
 1443 0082 0635     		adds	r5, r5, #6
 1444              	.L99:
 1445              	.LVL120:
 610:../../../../../../Middlewares/Third_Party/LoRaWAN/Mac/region/RegionCN470.c ****                     ( NvmCtx.Channels[linkAdrParams.ChMaskCtrl * 16 + i].Frequency == 0 ) )
 1446              		.loc 1 610 0
 1447 0084 9107     		lsls	r1, r2, #30
 1448 0086 08D5     		bpl	.L100
 611:../../../../../../Middlewares/Third_Party/LoRaWAN/Mac/region/RegionCN470.c ****                 {// Trying to enable an undefined channel
 1449              		.loc 1 611 0
 1450 0088 1801     		lsls	r0, r3, #4
 1451 008a 0130     		adds	r0, r0, #1
 1452 008c 4100     		lsls	r1, r0, #1
 1453 008e 0918     		adds	r1, r1, r0
 1454 0090 8900     		lsls	r1, r1, #2
 610:../../../../../../Middlewares/Third_Party/LoRaWAN/Mac/region/RegionCN470.c ****                     ( NvmCtx.Channels[linkAdrParams.ChMaskCtrl * 16 + i].Frequency == 0 ) )
 1455              		.loc 1 610 0
 1456 0092 7958     		ldr	r1, [r7, r1]
 1457 0094 0029     		cmp	r1, #0
 1458 0096 00D1     		bne	.LCB1289
 1459 0098 FFE0     		b	.L183	@long jump
 1460              	.LCB1289:
 1461              	.LVL121:
 1462              	.L100:
 1463 009a 5107     		lsls	r1, r2, #29
 1464 009c 08D5     		bpl	.L101
 611:../../../../../../Middlewares/Third_Party/LoRaWAN/Mac/region/RegionCN470.c ****                 {// Trying to enable an undefined channel
 1465              		.loc 1 611 0
 1466 009e 1801     		lsls	r0, r3, #4
 1467 00a0 0230     		adds	r0, r0, #2
 1468 00a2 4100     		lsls	r1, r0, #1
 1469 00a4 0918     		adds	r1, r1, r0
 1470 00a6 8900     		lsls	r1, r1, #2
 610:../../../../../../Middlewares/Third_Party/LoRaWAN/Mac/region/RegionCN470.c ****                     ( NvmCtx.Channels[linkAdrParams.ChMaskCtrl * 16 + i].Frequency == 0 ) )
 1471              		.loc 1 610 0
 1472 00a8 7958     		ldr	r1, [r7, r1]
 1473 00aa 0029     		cmp	r1, #0
 1474 00ac 00D1     		bne	.LCB1306
 1475 00ae F2E0     		b	.L184	@long jump
 1476              	.LCB1306:
 1477              	.LVL122:
 1478              	.L101:
 1479 00b0 1107     		lsls	r1, r2, #28
 1480 00b2 08D5     		bpl	.L102
 611:../../../../../../Middlewares/Third_Party/LoRaWAN/Mac/region/RegionCN470.c ****                 {// Trying to enable an undefined channel
ARM GAS  C:\Users\EBANO_~1\AppData\Local\Temp\cchbxRq9.s 			page 40


 1481              		.loc 1 611 0
 1482 00b4 1801     		lsls	r0, r3, #4
 1483 00b6 0330     		adds	r0, r0, #3
 1484 00b8 4100     		lsls	r1, r0, #1
 1485 00ba 0918     		adds	r1, r1, r0
 1486 00bc 8900     		lsls	r1, r1, #2
 610:../../../../../../Middlewares/Third_Party/LoRaWAN/Mac/region/RegionCN470.c ****                     ( NvmCtx.Channels[linkAdrParams.ChMaskCtrl * 16 + i].Frequency == 0 ) )
 1487              		.loc 1 610 0
 1488 00be 7958     		ldr	r1, [r7, r1]
 1489 00c0 0029     		cmp	r1, #0
 1490 00c2 00D1     		bne	.LCB1323
 1491 00c4 E5E0     		b	.L185	@long jump
 1492              	.LCB1323:
 1493              	.LVL123:
 1494              	.L102:
 1495 00c6 D106     		lsls	r1, r2, #27
 1496 00c8 08D5     		bpl	.L103
 611:../../../../../../Middlewares/Third_Party/LoRaWAN/Mac/region/RegionCN470.c ****                 {// Trying to enable an undefined channel
 1497              		.loc 1 611 0
 1498 00ca 1801     		lsls	r0, r3, #4
 1499 00cc 0430     		adds	r0, r0, #4
 1500 00ce 4100     		lsls	r1, r0, #1
 1501 00d0 0918     		adds	r1, r1, r0
 1502 00d2 8900     		lsls	r1, r1, #2
 610:../../../../../../Middlewares/Third_Party/LoRaWAN/Mac/region/RegionCN470.c ****                     ( NvmCtx.Channels[linkAdrParams.ChMaskCtrl * 16 + i].Frequency == 0 ) )
 1503              		.loc 1 610 0
 1504 00d4 7958     		ldr	r1, [r7, r1]
 1505 00d6 0029     		cmp	r1, #0
 1506 00d8 00D1     		bne	.LCB1340
 1507 00da D8E0     		b	.L186	@long jump
 1508              	.LCB1340:
 1509              	.LVL124:
 1510              	.L103:
 1511 00dc 9106     		lsls	r1, r2, #26
 1512 00de 08D5     		bpl	.L104
 611:../../../../../../Middlewares/Third_Party/LoRaWAN/Mac/region/RegionCN470.c ****                 {// Trying to enable an undefined channel
 1513              		.loc 1 611 0
 1514 00e0 1801     		lsls	r0, r3, #4
 1515 00e2 0530     		adds	r0, r0, #5
 1516 00e4 4100     		lsls	r1, r0, #1
 1517 00e6 0918     		adds	r1, r1, r0
 1518 00e8 8900     		lsls	r1, r1, #2
 610:../../../../../../Middlewares/Third_Party/LoRaWAN/Mac/region/RegionCN470.c ****                     ( NvmCtx.Channels[linkAdrParams.ChMaskCtrl * 16 + i].Frequency == 0 ) )
 1519              		.loc 1 610 0
 1520 00ea 7958     		ldr	r1, [r7, r1]
 1521 00ec 0029     		cmp	r1, #0
 1522 00ee 00D1     		bne	.LCB1357
 1523 00f0 CBE0     		b	.L187	@long jump
 1524              	.LCB1357:
 1525              	.LVL125:
 1526              	.L104:
 1527 00f2 5106     		lsls	r1, r2, #25
 1528 00f4 08D5     		bpl	.L105
 611:../../../../../../Middlewares/Third_Party/LoRaWAN/Mac/region/RegionCN470.c ****                 {// Trying to enable an undefined channel
 1529              		.loc 1 611 0
 1530 00f6 1801     		lsls	r0, r3, #4
 1531 00f8 0630     		adds	r0, r0, #6
ARM GAS  C:\Users\EBANO_~1\AppData\Local\Temp\cchbxRq9.s 			page 41


 1532 00fa 4100     		lsls	r1, r0, #1
 1533 00fc 0918     		adds	r1, r1, r0
 1534 00fe 8900     		lsls	r1, r1, #2
 610:../../../../../../Middlewares/Third_Party/LoRaWAN/Mac/region/RegionCN470.c ****                     ( NvmCtx.Channels[linkAdrParams.ChMaskCtrl * 16 + i].Frequency == 0 ) )
 1535              		.loc 1 610 0
 1536 0100 7958     		ldr	r1, [r7, r1]
 1537 0102 0029     		cmp	r1, #0
 1538 0104 00D1     		bne	.LCB1374
 1539 0106 BEE0     		b	.L188	@long jump
 1540              	.LCB1374:
 1541              	.LVL126:
 1542              	.L105:
 1543 0108 1106     		lsls	r1, r2, #24
 1544 010a 08D5     		bpl	.L106
 611:../../../../../../Middlewares/Third_Party/LoRaWAN/Mac/region/RegionCN470.c ****                 {// Trying to enable an undefined channel
 1545              		.loc 1 611 0
 1546 010c 1801     		lsls	r0, r3, #4
 1547 010e 0730     		adds	r0, r0, #7
 1548 0110 4100     		lsls	r1, r0, #1
 1549 0112 0918     		adds	r1, r1, r0
 1550 0114 8900     		lsls	r1, r1, #2
 610:../../../../../../Middlewares/Third_Party/LoRaWAN/Mac/region/RegionCN470.c ****                     ( NvmCtx.Channels[linkAdrParams.ChMaskCtrl * 16 + i].Frequency == 0 ) )
 1551              		.loc 1 610 0
 1552 0116 7958     		ldr	r1, [r7, r1]
 1553 0118 0029     		cmp	r1, #0
 1554 011a 00D1     		bne	.LCB1391
 1555 011c B1E0     		b	.L189	@long jump
 1556              	.LCB1391:
 1557              	.LVL127:
 1558              	.L106:
 1559 011e D105     		lsls	r1, r2, #23
 1560 0120 08D5     		bpl	.L107
 611:../../../../../../Middlewares/Third_Party/LoRaWAN/Mac/region/RegionCN470.c ****                 {// Trying to enable an undefined channel
 1561              		.loc 1 611 0
 1562 0122 1801     		lsls	r0, r3, #4
 1563 0124 0830     		adds	r0, r0, #8
 1564 0126 4100     		lsls	r1, r0, #1
 1565 0128 0918     		adds	r1, r1, r0
 1566 012a 8900     		lsls	r1, r1, #2
 610:../../../../../../Middlewares/Third_Party/LoRaWAN/Mac/region/RegionCN470.c ****                     ( NvmCtx.Channels[linkAdrParams.ChMaskCtrl * 16 + i].Frequency == 0 ) )
 1567              		.loc 1 610 0
 1568 012c 7958     		ldr	r1, [r7, r1]
 1569 012e 0029     		cmp	r1, #0
 1570 0130 00D1     		bne	.LCB1408
 1571 0132 A4E0     		b	.L190	@long jump
 1572              	.LCB1408:
 1573              	.LVL128:
 1574              	.L107:
 1575 0134 9105     		lsls	r1, r2, #22
 1576 0136 08D5     		bpl	.L108
 611:../../../../../../Middlewares/Third_Party/LoRaWAN/Mac/region/RegionCN470.c ****                 {// Trying to enable an undefined channel
 1577              		.loc 1 611 0
 1578 0138 1801     		lsls	r0, r3, #4
 1579 013a 0930     		adds	r0, r0, #9
 1580 013c 4100     		lsls	r1, r0, #1
 1581 013e 0918     		adds	r1, r1, r0
 1582 0140 8900     		lsls	r1, r1, #2
ARM GAS  C:\Users\EBANO_~1\AppData\Local\Temp\cchbxRq9.s 			page 42


 610:../../../../../../Middlewares/Third_Party/LoRaWAN/Mac/region/RegionCN470.c ****                     ( NvmCtx.Channels[linkAdrParams.ChMaskCtrl * 16 + i].Frequency == 0 ) )
 1583              		.loc 1 610 0
 1584 0142 7958     		ldr	r1, [r7, r1]
 1585 0144 0029     		cmp	r1, #0
 1586 0146 00D1     		bne	.LCB1425
 1587 0148 97E0     		b	.L191	@long jump
 1588              	.LCB1425:
 1589              	.LVL129:
 1590              	.L108:
 1591 014a 5105     		lsls	r1, r2, #21
 1592 014c 08D5     		bpl	.L109
 611:../../../../../../Middlewares/Third_Party/LoRaWAN/Mac/region/RegionCN470.c ****                 {// Trying to enable an undefined channel
 1593              		.loc 1 611 0
 1594 014e 1801     		lsls	r0, r3, #4
 1595 0150 0A30     		adds	r0, r0, #10
 1596 0152 4100     		lsls	r1, r0, #1
 1597 0154 0918     		adds	r1, r1, r0
 1598 0156 8900     		lsls	r1, r1, #2
 610:../../../../../../Middlewares/Third_Party/LoRaWAN/Mac/region/RegionCN470.c ****                     ( NvmCtx.Channels[linkAdrParams.ChMaskCtrl * 16 + i].Frequency == 0 ) )
 1599              		.loc 1 610 0
 1600 0158 7958     		ldr	r1, [r7, r1]
 1601 015a 0029     		cmp	r1, #0
 1602 015c 00D1     		bne	.LCB1442
 1603 015e 8AE0     		b	.L192	@long jump
 1604              	.LCB1442:
 1605              	.LVL130:
 1606              	.L109:
 1607 0160 1105     		lsls	r1, r2, #20
 1608 0162 08D5     		bpl	.L110
 611:../../../../../../Middlewares/Third_Party/LoRaWAN/Mac/region/RegionCN470.c ****                 {// Trying to enable an undefined channel
 1609              		.loc 1 611 0
 1610 0164 1801     		lsls	r0, r3, #4
 1611 0166 0B30     		adds	r0, r0, #11
 1612 0168 4100     		lsls	r1, r0, #1
 1613 016a 0918     		adds	r1, r1, r0
 1614 016c 8900     		lsls	r1, r1, #2
 610:../../../../../../Middlewares/Third_Party/LoRaWAN/Mac/region/RegionCN470.c ****                     ( NvmCtx.Channels[linkAdrParams.ChMaskCtrl * 16 + i].Frequency == 0 ) )
 1615              		.loc 1 610 0
 1616 016e 7958     		ldr	r1, [r7, r1]
 1617 0170 0029     		cmp	r1, #0
 1618 0172 00D1     		bne	.LCB1459
 1619 0174 7DE0     		b	.L193	@long jump
 1620              	.LCB1459:
 1621              	.LVL131:
 1622              	.L110:
 1623 0176 D104     		lsls	r1, r2, #19
 1624 0178 08D5     		bpl	.L111
 611:../../../../../../Middlewares/Third_Party/LoRaWAN/Mac/region/RegionCN470.c ****                 {// Trying to enable an undefined channel
 1625              		.loc 1 611 0
 1626 017a 1801     		lsls	r0, r3, #4
 1627 017c 0C30     		adds	r0, r0, #12
 1628 017e 4100     		lsls	r1, r0, #1
 1629 0180 0918     		adds	r1, r1, r0
 1630 0182 8900     		lsls	r1, r1, #2
 610:../../../../../../Middlewares/Third_Party/LoRaWAN/Mac/region/RegionCN470.c ****                     ( NvmCtx.Channels[linkAdrParams.ChMaskCtrl * 16 + i].Frequency == 0 ) )
 1631              		.loc 1 610 0
 1632 0184 7958     		ldr	r1, [r7, r1]
ARM GAS  C:\Users\EBANO_~1\AppData\Local\Temp\cchbxRq9.s 			page 43


 1633 0186 0029     		cmp	r1, #0
 1634 0188 00D1     		bne	.LCB1476
 1635 018a 70E0     		b	.L194	@long jump
 1636              	.LCB1476:
 1637              	.LVL132:
 1638              	.L111:
 1639 018c 9104     		lsls	r1, r2, #18
 1640 018e 07D5     		bpl	.L112
 611:../../../../../../Middlewares/Third_Party/LoRaWAN/Mac/region/RegionCN470.c ****                 {// Trying to enable an undefined channel
 1641              		.loc 1 611 0
 1642 0190 1801     		lsls	r0, r3, #4
 1643 0192 0D30     		adds	r0, r0, #13
 1644 0194 4100     		lsls	r1, r0, #1
 1645 0196 0918     		adds	r1, r1, r0
 1646 0198 8900     		lsls	r1, r1, #2
 610:../../../../../../Middlewares/Third_Party/LoRaWAN/Mac/region/RegionCN470.c ****                     ( NvmCtx.Channels[linkAdrParams.ChMaskCtrl * 16 + i].Frequency == 0 ) )
 1647              		.loc 1 610 0
 1648 019a 7958     		ldr	r1, [r7, r1]
 1649 019c 0029     		cmp	r1, #0
 1650 019e 64D0     		beq	.L195
 1651              	.LVL133:
 1652              	.L112:
 1653 01a0 5104     		lsls	r1, r2, #17
 1654 01a2 07D5     		bpl	.L113
 611:../../../../../../Middlewares/Third_Party/LoRaWAN/Mac/region/RegionCN470.c ****                 {// Trying to enable an undefined channel
 1655              		.loc 1 611 0
 1656 01a4 1801     		lsls	r0, r3, #4
 1657 01a6 0E30     		adds	r0, r0, #14
 1658 01a8 4100     		lsls	r1, r0, #1
 1659 01aa 0918     		adds	r1, r1, r0
 1660 01ac 8900     		lsls	r1, r1, #2
 610:../../../../../../Middlewares/Third_Party/LoRaWAN/Mac/region/RegionCN470.c ****                     ( NvmCtx.Channels[linkAdrParams.ChMaskCtrl * 16 + i].Frequency == 0 ) )
 1661              		.loc 1 610 0
 1662 01ae 7958     		ldr	r1, [r7, r1]
 1663 01b0 0029     		cmp	r1, #0
 1664 01b2 58D0     		beq	.L196
 1665              	.LVL134:
 1666              	.L113:
 1667 01b4 D10B     		lsrs	r1, r2, #15
 1668 01b6 08D0     		beq	.L114
 611:../../../../../../Middlewares/Third_Party/LoRaWAN/Mac/region/RegionCN470.c ****                 {// Trying to enable an undefined channel
 1669              		.loc 1 611 0
 1670 01b8 1801     		lsls	r0, r3, #4
 1671 01ba 0F30     		adds	r0, r0, #15
 1672 01bc 4100     		lsls	r1, r0, #1
 1673 01be 0918     		adds	r1, r1, r0
 1674 01c0 8900     		lsls	r1, r1, #2
 610:../../../../../../Middlewares/Third_Party/LoRaWAN/Mac/region/RegionCN470.c ****                     ( NvmCtx.Channels[linkAdrParams.ChMaskCtrl * 16 + i].Frequency == 0 ) )
 1675              		.loc 1 610 0
 1676 01c2 7958     		ldr	r1, [r7, r1]
 1677 01c4 0029     		cmp	r1, #0
 1678 01c6 00D1     		bne	.L114
 1679              		.loc 1 613 0
 1680 01c8 0625     		movs	r5, #6
 1681              	.LVL135:
 1682              	.L114:
 1683              	.LBE45:
ARM GAS  C:\Users\EBANO_~1\AppData\Local\Temp\cchbxRq9.s 			page 44


 614:../../../../../../Middlewares/Third_Party/LoRaWAN/Mac/region/RegionCN470.c ****                 }
 615:../../../../../../Middlewares/Third_Party/LoRaWAN/Mac/region/RegionCN470.c ****             }
 616:../../../../../../Middlewares/Third_Party/LoRaWAN/Mac/region/RegionCN470.c ****             channelsMask[linkAdrParams.ChMaskCtrl] = linkAdrParams.ChMask;
 1684              		.loc 1 616 0
 1685 01ca 0C20     		movs	r0, #12
 1686 01cc 02A9     		add	r1, sp, #8
 1687 01ce 5B00     		lsls	r3, r3, #1
 1688 01d0 0918     		adds	r1, r1, r0
 1689 01d2 CA52     		strh	r2, [r1, r3]
 578:../../../../../../Middlewares/Third_Party/LoRaWAN/Mac/region/RegionCN470.c ****     {
 1690              		.loc 1 578 0
 1691 01d4 4B46     		mov	r3, r9
 1692 01d6 1B7A     		ldrb	r3, [r3, #8]
 1693 01d8 A342     		cmp	r3, r4
 1694 01da 00D9     		bls	.LCB1544
 1695 01dc 33E7     		b	.L115	@long jump
 1696              	.LCB1544:
 1697              	.LVL136:
 1698              	.L116:
 617:../../../../../../Middlewares/Third_Party/LoRaWAN/Mac/region/RegionCN470.c ****         }
 618:../../../../../../Middlewares/Third_Party/LoRaWAN/Mac/region/RegionCN470.c ****     }
 619:../../../../../../Middlewares/Third_Party/LoRaWAN/Mac/region/RegionCN470.c **** 
 620:../../../../../../Middlewares/Third_Party/LoRaWAN/Mac/region/RegionCN470.c ****     // Get the minimum possible datarate
 621:../../../../../../Middlewares/Third_Party/LoRaWAN/Mac/region/RegionCN470.c ****     getPhy.Attribute = PHY_MIN_TX_DR;
 622:../../../../../../Middlewares/Third_Party/LoRaWAN/Mac/region/RegionCN470.c ****     getPhy.UplinkDwellTime = linkAdrReq->UplinkDwellTime;
 623:../../../../../../Middlewares/Third_Party/LoRaWAN/Mac/region/RegionCN470.c ****     phyParam = RegionCN470GetPhyParam( &getPhy );
 624:../../../../../../Middlewares/Third_Party/LoRaWAN/Mac/region/RegionCN470.c **** 
 625:../../../../../../Middlewares/Third_Party/LoRaWAN/Mac/region/RegionCN470.c ****     linkAdrVerifyParams.Status = status;
 626:../../../../../../Middlewares/Third_Party/LoRaWAN/Mac/region/RegionCN470.c ****     linkAdrVerifyParams.AdrEnabled = linkAdrReq->AdrEnabled;
 1699              		.loc 1 626 0
 1700 01de 4B46     		mov	r3, r9
 625:../../../../../../Middlewares/Third_Party/LoRaWAN/Mac/region/RegionCN470.c ****     linkAdrVerifyParams.AdrEnabled = linkAdrReq->AdrEnabled;
 1701              		.loc 1 625 0
 1702 01e0 08A8     		add	r0, sp, #32
 1703 01e2 0571     		strb	r5, [r0, #4]
 1704              		.loc 1 626 0
 1705 01e4 9B7A     		ldrb	r3, [r3, #10]
 627:../../../../../../Middlewares/Third_Party/LoRaWAN/Mac/region/RegionCN470.c ****     linkAdrVerifyParams.Datarate = linkAdrParams.Datarate;
 628:../../../../../../Middlewares/Third_Party/LoRaWAN/Mac/region/RegionCN470.c ****     linkAdrVerifyParams.TxPower = linkAdrParams.TxPower;
 629:../../../../../../Middlewares/Third_Party/LoRaWAN/Mac/region/RegionCN470.c ****     linkAdrVerifyParams.NbRep = linkAdrParams.NbRep;
 630:../../../../../../Middlewares/Third_Party/LoRaWAN/Mac/region/RegionCN470.c ****     linkAdrVerifyParams.CurrentDatarate = linkAdrReq->CurrentDatarate;
 631:../../../../../../Middlewares/Third_Party/LoRaWAN/Mac/region/RegionCN470.c ****     linkAdrVerifyParams.CurrentTxPower = linkAdrReq->CurrentTxPower;
 632:../../../../../../Middlewares/Third_Party/LoRaWAN/Mac/region/RegionCN470.c ****     linkAdrVerifyParams.CurrentNbRep = linkAdrReq->CurrentNbRep;
 633:../../../../../../Middlewares/Third_Party/LoRaWAN/Mac/region/RegionCN470.c ****     linkAdrVerifyParams.NbChannels = CN470_MAX_NB_CHANNELS;
 634:../../../../../../Middlewares/Third_Party/LoRaWAN/Mac/region/RegionCN470.c ****     linkAdrVerifyParams.ChannelsMask = channelsMask;
 635:../../../../../../Middlewares/Third_Party/LoRaWAN/Mac/region/RegionCN470.c ****     linkAdrVerifyParams.MinDatarate = ( int8_t )phyParam.Value;
 636:../../../../../../Middlewares/Third_Party/LoRaWAN/Mac/region/RegionCN470.c ****     linkAdrVerifyParams.MaxDatarate = CN470_TX_MAX_DATARATE;
 637:../../../../../../Middlewares/Third_Party/LoRaWAN/Mac/region/RegionCN470.c ****     linkAdrVerifyParams.Channels = NvmCtx.Channels;
 638:../../../../../../Middlewares/Third_Party/LoRaWAN/Mac/region/RegionCN470.c ****     linkAdrVerifyParams.MinTxPower = CN470_MIN_TX_POWER;
 639:../../../../../../Middlewares/Third_Party/LoRaWAN/Mac/region/RegionCN470.c ****     linkAdrVerifyParams.MaxTxPower = CN470_MAX_TX_POWER;
 640:../../../../../../Middlewares/Third_Party/LoRaWAN/Mac/region/RegionCN470.c ****     linkAdrVerifyParams.Version = linkAdrReq->Version;
 641:../../../../../../Middlewares/Third_Party/LoRaWAN/Mac/region/RegionCN470.c **** 
 642:../../../../../../Middlewares/Third_Party/LoRaWAN/Mac/region/RegionCN470.c ****     // Verify the parameters and update, if necessary
 643:../../../../../../Middlewares/Third_Party/LoRaWAN/Mac/region/RegionCN470.c ****     status = RegionCommonLinkAdrReqVerifyParams( &linkAdrVerifyParams, &linkAdrParams.Datarate, &li
 1706              		.loc 1 643 0
 1707 01e6 02AA     		add	r2, sp, #8
 626:../../../../../../Middlewares/Third_Party/LoRaWAN/Mac/region/RegionCN470.c ****     linkAdrVerifyParams.Datarate = linkAdrParams.Datarate;
ARM GAS  C:\Users\EBANO_~1\AppData\Local\Temp\cchbxRq9.s 			page 45


 1708              		.loc 1 626 0
 1709 01e8 4371     		strb	r3, [r0, #5]
 627:../../../../../../Middlewares/Third_Party/LoRaWAN/Mac/region/RegionCN470.c ****     linkAdrVerifyParams.Datarate = linkAdrParams.Datarate;
 1710              		.loc 1 627 0
 1711 01ea 7378     		ldrb	r3, [r6, #1]
 1712              		.loc 1 643 0
 1713 01ec 02A9     		add	r1, sp, #8
 627:../../../../../../Middlewares/Third_Party/LoRaWAN/Mac/region/RegionCN470.c ****     linkAdrVerifyParams.Datarate = linkAdrParams.Datarate;
 1714              		.loc 1 627 0
 1715 01ee 8371     		strb	r3, [r0, #6]
 628:../../../../../../Middlewares/Third_Party/LoRaWAN/Mac/region/RegionCN470.c ****     linkAdrVerifyParams.NbRep = linkAdrParams.NbRep;
 1716              		.loc 1 628 0
 1717 01f0 B378     		ldrb	r3, [r6, #2]
 1718              		.loc 1 643 0
 1719 01f2 0632     		adds	r2, r2, #6
 628:../../../../../../Middlewares/Third_Party/LoRaWAN/Mac/region/RegionCN470.c ****     linkAdrVerifyParams.NbRep = linkAdrParams.NbRep;
 1720              		.loc 1 628 0
 1721 01f4 C371     		strb	r3, [r0, #7]
 629:../../../../../../Middlewares/Third_Party/LoRaWAN/Mac/region/RegionCN470.c ****     linkAdrVerifyParams.CurrentDatarate = linkAdrReq->CurrentDatarate;
 1722              		.loc 1 629 0
 1723 01f6 3378     		ldrb	r3, [r6]
 1724              		.loc 1 643 0
 1725 01f8 0531     		adds	r1, r1, #5
 629:../../../../../../Middlewares/Third_Party/LoRaWAN/Mac/region/RegionCN470.c ****     linkAdrVerifyParams.CurrentDatarate = linkAdrReq->CurrentDatarate;
 1726              		.loc 1 629 0
 1727 01fa 0372     		strb	r3, [r0, #8]
 630:../../../../../../Middlewares/Third_Party/LoRaWAN/Mac/region/RegionCN470.c ****     linkAdrVerifyParams.CurrentTxPower = linkAdrReq->CurrentTxPower;
 1728              		.loc 1 630 0
 1729 01fc 4B46     		mov	r3, r9
 1730 01fe DB7A     		ldrb	r3, [r3, #11]
 1731 0200 4372     		strb	r3, [r0, #9]
 631:../../../../../../Middlewares/Third_Party/LoRaWAN/Mac/region/RegionCN470.c ****     linkAdrVerifyParams.CurrentNbRep = linkAdrReq->CurrentNbRep;
 1732              		.loc 1 631 0
 1733 0202 4B46     		mov	r3, r9
 1734 0204 1B7B     		ldrb	r3, [r3, #12]
 1735 0206 8372     		strb	r3, [r0, #10]
 632:../../../../../../Middlewares/Third_Party/LoRaWAN/Mac/region/RegionCN470.c ****     linkAdrVerifyParams.NbChannels = CN470_MAX_NB_CHANNELS;
 1736              		.loc 1 632 0
 1737 0208 4B46     		mov	r3, r9
 1738 020a 5B7B     		ldrb	r3, [r3, #13]
 637:../../../../../../Middlewares/Third_Party/LoRaWAN/Mac/region/RegionCN470.c ****     linkAdrVerifyParams.MinTxPower = CN470_MIN_TX_POWER;
 1739              		.loc 1 637 0
 1740 020c 8761     		str	r7, [r0, #24]
 632:../../../../../../Middlewares/Third_Party/LoRaWAN/Mac/region/RegionCN470.c ****     linkAdrVerifyParams.NbChannels = CN470_MAX_NB_CHANNELS;
 1741              		.loc 1 632 0
 1742 020e C372     		strb	r3, [r0, #11]
 633:../../../../../../Middlewares/Third_Party/LoRaWAN/Mac/region/RegionCN470.c ****     linkAdrVerifyParams.ChannelsMask = channelsMask;
 1743              		.loc 1 633 0
 1744 0210 6023     		movs	r3, #96
 1745 0212 0373     		strb	r3, [r0, #12]
 634:../../../../../../Middlewares/Third_Party/LoRaWAN/Mac/region/RegionCN470.c ****     linkAdrVerifyParams.MinDatarate = ( int8_t )phyParam.Value;
 1746              		.loc 1 634 0
 1747 0214 05AB     		add	r3, sp, #20
 1748 0216 0361     		str	r3, [r0, #16]
 635:../../../../../../Middlewares/Third_Party/LoRaWAN/Mac/region/RegionCN470.c ****     linkAdrVerifyParams.MaxDatarate = CN470_TX_MAX_DATARATE;
 1749              		.loc 1 635 0
 1750 0218 A023     		movs	r3, #160
ARM GAS  C:\Users\EBANO_~1\AppData\Local\Temp\cchbxRq9.s 			page 46


 1751 021a DB00     		lsls	r3, r3, #3
 1752 021c 8382     		strh	r3, [r0, #20]
 638:../../../../../../Middlewares/Third_Party/LoRaWAN/Mac/region/RegionCN470.c ****     linkAdrVerifyParams.MaxTxPower = CN470_MAX_TX_POWER;
 1753              		.loc 1 638 0
 1754 021e 0723     		movs	r3, #7
 1755 0220 8383     		strh	r3, [r0, #28]
 640:../../../../../../Middlewares/Third_Party/LoRaWAN/Mac/region/RegionCN470.c **** 
 1756              		.loc 1 640 0
 1757 0222 4B46     		mov	r3, r9
 1758 0224 1B68     		ldr	r3, [r3]
 1759 0226 0893     		str	r3, [sp, #32]
 1760              		.loc 1 643 0
 1761 0228 3300     		movs	r3, r6
 1762 022a FFF7FEFF 		bl	RegionCommonLinkAdrReqVerifyParams
 1763              	.LVL137:
 1764 022e 0500     		movs	r5, r0
 1765              	.LVL138:
 644:../../../../../../Middlewares/Third_Party/LoRaWAN/Mac/region/RegionCN470.c **** 
 645:../../../../../../Middlewares/Third_Party/LoRaWAN/Mac/region/RegionCN470.c ****     // Update channelsMask if everything is correct
 646:../../../../../../Middlewares/Third_Party/LoRaWAN/Mac/region/RegionCN470.c ****     if( status == 0x07 )
 1766              		.loc 1 646 0
 1767 0230 0728     		cmp	r0, #7
 1768 0232 34D0     		beq	.L197
 1769              	.LVL139:
 1770              	.L96:
 647:../../../../../../Middlewares/Third_Party/LoRaWAN/Mac/region/RegionCN470.c ****     {
 648:../../../../../../Middlewares/Third_Party/LoRaWAN/Mac/region/RegionCN470.c ****         // Copy Mask
 649:../../../../../../Middlewares/Third_Party/LoRaWAN/Mac/region/RegionCN470.c ****         RegionCommonChanMaskCopy( NvmCtx.ChannelsMask, channelsMask, 6 );
 650:../../../../../../Middlewares/Third_Party/LoRaWAN/Mac/region/RegionCN470.c ****     }
 651:../../../../../../Middlewares/Third_Party/LoRaWAN/Mac/region/RegionCN470.c **** 
 652:../../../../../../Middlewares/Third_Party/LoRaWAN/Mac/region/RegionCN470.c ****     // Update status variables
 653:../../../../../../Middlewares/Third_Party/LoRaWAN/Mac/region/RegionCN470.c ****     *drOut = linkAdrParams.Datarate;
 1771              		.loc 1 653 0
 1772 0234 5A46     		mov	r2, fp
 1773 0236 7378     		ldrb	r3, [r6, #1]
 654:../../../../../../Middlewares/Third_Party/LoRaWAN/Mac/region/RegionCN470.c ****     *txPowOut = linkAdrParams.TxPower;
 655:../../../../../../Middlewares/Third_Party/LoRaWAN/Mac/region/RegionCN470.c ****     *nbRepOut = linkAdrParams.NbRep;
 656:../../../../../../Middlewares/Third_Party/LoRaWAN/Mac/region/RegionCN470.c ****     *nbBytesParsed = bytesProcessed;
 657:../../../../../../Middlewares/Third_Party/LoRaWAN/Mac/region/RegionCN470.c **** 
 658:../../../../../../Middlewares/Third_Party/LoRaWAN/Mac/region/RegionCN470.c ****     return status;
 659:../../../../../../Middlewares/Third_Party/LoRaWAN/Mac/region/RegionCN470.c **** }
 1774              		.loc 1 659 0
 1775 0238 2800     		movs	r0, r5
 653:../../../../../../Middlewares/Third_Party/LoRaWAN/Mac/region/RegionCN470.c ****     *txPowOut = linkAdrParams.TxPower;
 1776              		.loc 1 653 0
 1777 023a 1370     		strb	r3, [r2]
 654:../../../../../../Middlewares/Third_Party/LoRaWAN/Mac/region/RegionCN470.c ****     *txPowOut = linkAdrParams.TxPower;
 1778              		.loc 1 654 0
 1779 023c 4246     		mov	r2, r8
 1780 023e B378     		ldrb	r3, [r6, #2]
 1781 0240 1370     		strb	r3, [r2]
 655:../../../../../../Middlewares/Third_Party/LoRaWAN/Mac/region/RegionCN470.c ****     *nbBytesParsed = bytesProcessed;
 1782              		.loc 1 655 0
 1783 0242 3378     		ldrb	r3, [r6]
 1784 0244 019A     		ldr	r2, [sp, #4]
 1785 0246 1370     		strb	r3, [r2]
 656:../../../../../../Middlewares/Third_Party/LoRaWAN/Mac/region/RegionCN470.c **** 
ARM GAS  C:\Users\EBANO_~1\AppData\Local\Temp\cchbxRq9.s 			page 47


 1786              		.loc 1 656 0
 1787 0248 1A9B     		ldr	r3, [sp, #104]
 1788 024a 1C70     		strb	r4, [r3]
 1789              		.loc 1 659 0
 1790 024c 11B0     		add	sp, sp, #68
 1791              		@ sp needed
 1792              	.LVL140:
 1793              	.LVL141:
 1794              	.LVL142:
 1795              	.LVL143:
 1796 024e 3CBC     		pop	{r2, r3, r4, r5}
 1797 0250 9046     		mov	r8, r2
 1798 0252 9946     		mov	r9, r3
 1799 0254 A246     		mov	r10, r4
 1800 0256 AB46     		mov	fp, r5
 1801 0258 F0BD     		pop	{r4, r5, r6, r7, pc}
 1802              	.LVL144:
 1803              	.L182:
 595:../../../../../../Middlewares/Third_Party/LoRaWAN/Mac/region/RegionCN470.c ****             channelsMask[1] = 0xFFFF;
 1804              		.loc 1 595 0
 1805 025a 073B     		subs	r3, r3, #7
 1806 025c 0593     		str	r3, [sp, #20]
 1807 025e 0693     		str	r3, [sp, #24]
 1808 0260 0793     		str	r3, [sp, #28]
 590:../../../../../../Middlewares/Third_Party/LoRaWAN/Mac/region/RegionCN470.c **** 
 1809              		.loc 1 590 0
 1810 0262 0725     		movs	r5, #7
 1811 0264 EAE6     		b	.L93
 1812              	.LVL145:
 1813              	.L196:
 1814              	.LBB46:
 613:../../../../../../Middlewares/Third_Party/LoRaWAN/Mac/region/RegionCN470.c ****                 }
 1815              		.loc 1 613 0
 1816 0266 0625     		movs	r5, #6
 1817              	.LVL146:
 1818 0268 A4E7     		b	.L113
 1819              	.LVL147:
 1820              	.L195:
 1821 026a 0625     		movs	r5, #6
 1822              	.LVL148:
 1823 026c 98E7     		b	.L112
 1824              	.LVL149:
 1825              	.L194:
 1826 026e 0625     		movs	r5, #6
 1827              	.LVL150:
 1828 0270 8CE7     		b	.L111
 1829              	.LVL151:
 1830              	.L193:
 1831 0272 0625     		movs	r5, #6
 1832              	.LVL152:
 1833 0274 7FE7     		b	.L110
 1834              	.LVL153:
 1835              	.L192:
 1836 0276 0625     		movs	r5, #6
 1837              	.LVL154:
 1838 0278 72E7     		b	.L109
 1839              	.LVL155:
ARM GAS  C:\Users\EBANO_~1\AppData\Local\Temp\cchbxRq9.s 			page 48


 1840              	.L191:
 1841 027a 0625     		movs	r5, #6
 1842              	.LVL156:
 1843 027c 65E7     		b	.L108
 1844              	.LVL157:
 1845              	.L190:
 1846 027e 0625     		movs	r5, #6
 1847              	.LVL158:
 1848 0280 58E7     		b	.L107
 1849              	.LVL159:
 1850              	.L189:
 1851 0282 0625     		movs	r5, #6
 1852              	.LVL160:
 1853 0284 4BE7     		b	.L106
 1854              	.LVL161:
 1855              	.L188:
 1856 0286 0625     		movs	r5, #6
 1857              	.LVL162:
 1858 0288 3EE7     		b	.L105
 1859              	.LVL163:
 1860              	.L187:
 1861 028a 0625     		movs	r5, #6
 1862              	.LVL164:
 1863 028c 31E7     		b	.L104
 1864              	.LVL165:
 1865              	.L186:
 1866 028e 0625     		movs	r5, #6
 1867              	.LVL166:
 1868 0290 24E7     		b	.L103
 1869              	.LVL167:
 1870              	.L185:
 1871 0292 0625     		movs	r5, #6
 1872              	.LVL168:
 1873 0294 17E7     		b	.L102
 1874              	.LVL169:
 1875              	.L184:
 1876 0296 0625     		movs	r5, #6
 1877              	.LVL170:
 1878 0298 0AE7     		b	.L101
 1879              	.LVL171:
 1880              	.L183:
 1881 029a 0625     		movs	r5, #6
 1882              	.LVL172:
 1883 029c FDE6     		b	.L100
 1884              	.LVL173:
 1885              	.L197:
 1886              	.LBE46:
 649:../../../../../../Middlewares/Third_Party/LoRaWAN/Mac/region/RegionCN470.c ****     }
 1887              		.loc 1 649 0
 1888 029e 9223     		movs	r3, #146
 1889 02a0 DB00     		lsls	r3, r3, #3
 1890 02a2 F818     		adds	r0, r7, r3
 1891              	.LVL174:
 1892 02a4 0622     		movs	r2, #6
 1893 02a6 05A9     		add	r1, sp, #20
 1894 02a8 FFF7FEFF 		bl	RegionCommonChanMaskCopy
 1895              	.LVL175:
ARM GAS  C:\Users\EBANO_~1\AppData\Local\Temp\cchbxRq9.s 			page 49


 1896 02ac C2E7     		b	.L96
 1897              	.L199:
 1898 02ae C046     		.align	2
 1899              	.L198:
 1900 02b0 90040000 		.word	NvmCtx+1168
 1901 02b4 70FBFFFF 		.word	-1168
 1902              		.cfi_endproc
 1903              	.LFE54:
 1904              		.size	RegionCN470LinkAdrReq, .-RegionCN470LinkAdrReq
 1905              		.section	.text.RegionCN470RxParamSetupReq,"ax",%progbits
 1906              		.align	1
 1907              		.p2align 2,,3
 1908              		.global	RegionCN470RxParamSetupReq
 1909              		.syntax unified
 1910              		.code	16
 1911              		.thumb_func
 1912              		.fpu softvfp
 1913              		.type	RegionCN470RxParamSetupReq, %function
 1914              	RegionCN470RxParamSetupReq:
 1915              	.LFB55:
 660:../../../../../../Middlewares/Third_Party/LoRaWAN/Mac/region/RegionCN470.c **** 
 661:../../../../../../Middlewares/Third_Party/LoRaWAN/Mac/region/RegionCN470.c **** uint8_t RegionCN470RxParamSetupReq( RxParamSetupReqParams_t* rxParamSetupReq )
 662:../../../../../../Middlewares/Third_Party/LoRaWAN/Mac/region/RegionCN470.c **** {
 1916              		.loc 1 662 0
 1917              		.cfi_startproc
 1918              		@ args = 0, pretend = 0, frame = 8
 1919              		@ frame_needed = 0, uses_anonymous_args = 0
 1920              	.LVL176:
 1921 0000 70B5     		push	{r4, r5, r6, lr}
 1922              	.LCFI20:
 1923              		.cfi_def_cfa_offset 16
 1924              		.cfi_offset 4, -16
 1925              		.cfi_offset 5, -12
 1926              		.cfi_offset 6, -8
 1927              		.cfi_offset 14, -4
 1928              	.LBB47:
 1929              	.LBB48:
 111:../../../../../../Middlewares/Third_Party/LoRaWAN/Mac/region/RegionCN470.c ****     {
 1930              		.loc 1 111 0
 1931 0002 174B     		ldr	r3, .L211
 1932              	.LBE48:
 1933              	.LBE47:
 663:../../../../../../Middlewares/Third_Party/LoRaWAN/Mac/region/RegionCN470.c ****     uint8_t status = 0x07;
 664:../../../../../../Middlewares/Third_Party/LoRaWAN/Mac/region/RegionCN470.c **** 
 665:../../../../../../Middlewares/Third_Party/LoRaWAN/Mac/region/RegionCN470.c ****     // Verify radio frequency
 666:../../../../../../Middlewares/Third_Party/LoRaWAN/Mac/region/RegionCN470.c ****     if( VerifyRfFreq( rxParamSetupReq->Frequency ) == false )
 1934              		.loc 1 666 0
 1935 0004 4568     		ldr	r5, [r0, #4]
 1936              	.LVL177:
 1937              	.LBB52:
 1938              	.LBB49:
 111:../../../../../../Middlewares/Third_Party/LoRaWAN/Mac/region/RegionCN470.c ****     {
 1939              		.loc 1 111 0
 1940 0006 9B6A     		ldr	r3, [r3, #40]
 1941              	.LBE49:
 1942              	.LBE52:
 662:../../../../../../Middlewares/Third_Party/LoRaWAN/Mac/region/RegionCN470.c ****     uint8_t status = 0x07;
ARM GAS  C:\Users\EBANO_~1\AppData\Local\Temp\cchbxRq9.s 			page 50


 1943              		.loc 1 662 0
 1944 0008 82B0     		sub	sp, sp, #8
 1945              	.LCFI21:
 1946              		.cfi_def_cfa_offset 24
 662:../../../../../../Middlewares/Third_Party/LoRaWAN/Mac/region/RegionCN470.c ****     uint8_t status = 0x07;
 1947              		.loc 1 662 0
 1948 000a 0400     		movs	r4, r0
 1949              	.LBB53:
 1950              	.LBB50:
 111:../../../../../../Middlewares/Third_Party/LoRaWAN/Mac/region/RegionCN470.c ****     {
 1951              		.loc 1 111 0
 1952 000c 2800     		movs	r0, r5
 1953              	.LVL178:
 1954 000e 0193     		str	r3, [sp, #4]
 1955 0010 9847     		blx	r3
 1956              	.LVL179:
 1957 0012 0028     		cmp	r0, #0
 1958 0014 04D0     		beq	.L205
 117:../../../../../../Middlewares/Third_Party/LoRaWAN/Mac/region/RegionCN470.c ****         ( freq > CN470_LAST_RX1_CHANNEL ) ||
 1959              		.loc 1 117 0
 1960 0016 134B     		ldr	r3, .L211+4
 1961 0018 E818     		adds	r0, r5, r3
 1962 001a 134B     		ldr	r3, .L211+8
 1963 001c 9842     		cmp	r0, r3
 1964 001e 17D9     		bls	.L210
 1965              	.L205:
 1966 0020 0425     		movs	r5, #4
 1967              	.LVL180:
 1968              	.LBE50:
 1969              	.LBE53:
 667:../../../../../../Middlewares/Third_Party/LoRaWAN/Mac/region/RegionCN470.c ****     {
 668:../../../../../../Middlewares/Third_Party/LoRaWAN/Mac/region/RegionCN470.c ****         status &= 0xFE; // Channel frequency KO
 1970              		.loc 1 668 0
 1971 0022 0626     		movs	r6, #6
 1972              	.L201:
 1973              	.LVL181:
 669:../../../../../../Middlewares/Third_Party/LoRaWAN/Mac/region/RegionCN470.c ****     }
 670:../../../../../../Middlewares/Third_Party/LoRaWAN/Mac/region/RegionCN470.c **** 
 671:../../../../../../Middlewares/Third_Party/LoRaWAN/Mac/region/RegionCN470.c ****     // Verify datarate
 672:../../../../../../Middlewares/Third_Party/LoRaWAN/Mac/region/RegionCN470.c ****     if( RegionCommonValueInRange( rxParamSetupReq->Datarate, CN470_RX_MIN_DATARATE, CN470_RX_MAX_DA
 1974              		.loc 1 672 0
 1975 0024 0020     		movs	r0, #0
 1976 0026 0522     		movs	r2, #5
 1977 0028 2056     		ldrsb	r0, [r4, r0]
 1978 002a 0021     		movs	r1, #0
 1979 002c FFF7FEFF 		bl	RegionCommonValueInRange
 1980              	.LVL182:
 1981 0030 0028     		cmp	r0, #0
 1982 0032 00D0     		beq	.L202
 1983 0034 3500     		movs	r5, r6
 1984              	.L202:
 1985              	.LVL183:
 673:../../../../../../Middlewares/Third_Party/LoRaWAN/Mac/region/RegionCN470.c ****     {
 674:../../../../../../Middlewares/Third_Party/LoRaWAN/Mac/region/RegionCN470.c ****         status &= 0xFD; // Datarate KO
 675:../../../../../../Middlewares/Third_Party/LoRaWAN/Mac/region/RegionCN470.c ****     }
 676:../../../../../../Middlewares/Third_Party/LoRaWAN/Mac/region/RegionCN470.c **** 
 677:../../../../../../Middlewares/Third_Party/LoRaWAN/Mac/region/RegionCN470.c ****     // Verify datarate offset
ARM GAS  C:\Users\EBANO_~1\AppData\Local\Temp\cchbxRq9.s 			page 51


 678:../../../../../../Middlewares/Third_Party/LoRaWAN/Mac/region/RegionCN470.c ****     if( RegionCommonValueInRange( rxParamSetupReq->DrOffset, CN470_MIN_RX1_DR_OFFSET, CN470_MAX_RX1
 1986              		.loc 1 678 0
 1987 0036 0120     		movs	r0, #1
 1988 0038 0322     		movs	r2, #3
 1989 003a 2056     		ldrsb	r0, [r4, r0]
 1990 003c 0021     		movs	r1, #0
 1991 003e FFF7FEFF 		bl	RegionCommonValueInRange
 1992              	.LVL184:
 1993 0042 0028     		cmp	r0, #0
 1994 0044 01D1     		bne	.L203
 679:../../../../../../Middlewares/Third_Party/LoRaWAN/Mac/region/RegionCN470.c ****     {
 680:../../../../../../Middlewares/Third_Party/LoRaWAN/Mac/region/RegionCN470.c ****         status &= 0xFB; // Rx1DrOffset range KO
 1995              		.loc 1 680 0
 1996 0046 FB23     		movs	r3, #251
 1997 0048 1D40     		ands	r5, r3
 1998              	.LVL185:
 1999              	.L203:
 681:../../../../../../Middlewares/Third_Party/LoRaWAN/Mac/region/RegionCN470.c ****     }
 682:../../../../../../Middlewares/Third_Party/LoRaWAN/Mac/region/RegionCN470.c **** 
 683:../../../../../../Middlewares/Third_Party/LoRaWAN/Mac/region/RegionCN470.c ****     return status;
 684:../../../../../../Middlewares/Third_Party/LoRaWAN/Mac/region/RegionCN470.c **** }
 2000              		.loc 1 684 0
 2001 004a 2800     		movs	r0, r5
 2002 004c 02B0     		add	sp, sp, #8
 2003              		@ sp needed
 2004              	.LVL186:
 2005              	.LVL187:
 2006 004e 70BD     		pop	{r4, r5, r6, pc}
 2007              	.LVL188:
 2008              	.L210:
 2009              	.LBB54:
 2010              	.LBB51:
 119:../../../../../../Middlewares/Third_Party/LoRaWAN/Mac/region/RegionCN470.c ****     {
 2011              		.loc 1 119 0
 2012 0050 0649     		ldr	r1, .L211+12
 2013 0052 FFF7FEFF 		bl	__aeabi_uidivmod
 2014              	.LVL189:
 118:../../../../../../Middlewares/Third_Party/LoRaWAN/Mac/region/RegionCN470.c ****         ( ( ( freq - ( uint32_t ) CN470_FIRST_RX1_CHANNEL ) % ( uint32_t ) CN470_STEPWIDTH_RX1_CHAN
 2015              		.loc 1 118 0
 2016 0056 0029     		cmp	r1, #0
 2017 0058 E2D1     		bne	.L205
 2018 005a 0525     		movs	r5, #5
 2019              	.LVL190:
 2020              	.LBE51:
 2021              	.LBE54:
 663:../../../../../../Middlewares/Third_Party/LoRaWAN/Mac/region/RegionCN470.c **** 
 2022              		.loc 1 663 0
 2023 005c 0726     		movs	r6, #7
 2024 005e E1E7     		b	.L201
 2025              	.L212:
 2026              		.align	2
 2027              	.L211:
 2028 0060 00000000 		.word	Radio
 2029 0064 20072EE2 		.word	-500300000
 2030 0068 C06E8F00 		.word	9400000
 2031 006c 400D0300 		.word	200000
 2032              		.cfi_endproc
ARM GAS  C:\Users\EBANO_~1\AppData\Local\Temp\cchbxRq9.s 			page 52


 2033              	.LFE55:
 2034              		.size	RegionCN470RxParamSetupReq, .-RegionCN470RxParamSetupReq
 2035              		.section	.text.RegionCN470NewChannelReq,"ax",%progbits
 2036              		.align	1
 2037              		.p2align 2,,3
 2038              		.global	RegionCN470NewChannelReq
 2039              		.syntax unified
 2040              		.code	16
 2041              		.thumb_func
 2042              		.fpu softvfp
 2043              		.type	RegionCN470NewChannelReq, %function
 2044              	RegionCN470NewChannelReq:
 2045              	.LFB56:
 685:../../../../../../Middlewares/Third_Party/LoRaWAN/Mac/region/RegionCN470.c **** 
 686:../../../../../../Middlewares/Third_Party/LoRaWAN/Mac/region/RegionCN470.c **** uint8_t RegionCN470NewChannelReq( NewChannelReqParams_t* newChannelReq )
 687:../../../../../../Middlewares/Third_Party/LoRaWAN/Mac/region/RegionCN470.c **** {
 2046              		.loc 1 687 0
 2047              		.cfi_startproc
 2048              		@ args = 0, pretend = 0, frame = 0
 2049              		@ frame_needed = 0, uses_anonymous_args = 0
 2050              		@ link register save eliminated.
 2051              	.LVL191:
 688:../../../../../../Middlewares/Third_Party/LoRaWAN/Mac/region/RegionCN470.c ****     // Datarate and frequency KO
 689:../../../../../../Middlewares/Third_Party/LoRaWAN/Mac/region/RegionCN470.c ****     return 0;
 690:../../../../../../Middlewares/Third_Party/LoRaWAN/Mac/region/RegionCN470.c **** }
 2052              		.loc 1 690 0
 2053 0000 0020     		movs	r0, #0
 2054              	.LVL192:
 2055              		@ sp needed
 2056 0002 7047     		bx	lr
 2057              		.cfi_endproc
 2058              	.LFE56:
 2059              		.size	RegionCN470NewChannelReq, .-RegionCN470NewChannelReq
 2060              		.section	.text.RegionCN470TxParamSetupReq,"ax",%progbits
 2061              		.align	1
 2062              		.p2align 2,,3
 2063              		.global	RegionCN470TxParamSetupReq
 2064              		.syntax unified
 2065              		.code	16
 2066              		.thumb_func
 2067              		.fpu softvfp
 2068              		.type	RegionCN470TxParamSetupReq, %function
 2069              	RegionCN470TxParamSetupReq:
 2070              	.LFB57:
 691:../../../../../../Middlewares/Third_Party/LoRaWAN/Mac/region/RegionCN470.c **** 
 692:../../../../../../Middlewares/Third_Party/LoRaWAN/Mac/region/RegionCN470.c **** int8_t RegionCN470TxParamSetupReq( TxParamSetupReqParams_t* txParamSetupReq )
 693:../../../../../../Middlewares/Third_Party/LoRaWAN/Mac/region/RegionCN470.c **** {
 2071              		.loc 1 693 0
 2072              		.cfi_startproc
 2073              		@ args = 0, pretend = 0, frame = 0
 2074              		@ frame_needed = 0, uses_anonymous_args = 0
 2075              		@ link register save eliminated.
 2076              	.LVL193:
 694:../../../../../../Middlewares/Third_Party/LoRaWAN/Mac/region/RegionCN470.c ****     return -1;
 2077              		.loc 1 694 0
 2078 0000 0120     		movs	r0, #1
 2079              	.LVL194:
ARM GAS  C:\Users\EBANO_~1\AppData\Local\Temp\cchbxRq9.s 			page 53


 695:../../../../../../Middlewares/Third_Party/LoRaWAN/Mac/region/RegionCN470.c **** }
 2080              		.loc 1 695 0
 2081              		@ sp needed
 2082 0002 4042     		rsbs	r0, r0, #0
 2083 0004 7047     		bx	lr
 2084              		.cfi_endproc
 2085              	.LFE57:
 2086              		.size	RegionCN470TxParamSetupReq, .-RegionCN470TxParamSetupReq
 2087 0006 C046     		.section	.text.RegionCN470DlChannelReq,"ax",%progbits
 2088              		.align	1
 2089              		.p2align 2,,3
 2090              		.global	RegionCN470DlChannelReq
 2091              		.syntax unified
 2092              		.code	16
 2093              		.thumb_func
 2094              		.fpu softvfp
 2095              		.type	RegionCN470DlChannelReq, %function
 2096              	RegionCN470DlChannelReq:
 2097              	.LFB69:
 2098              		.cfi_startproc
 2099              		@ args = 0, pretend = 0, frame = 0
 2100              		@ frame_needed = 0, uses_anonymous_args = 0
 2101              		@ link register save eliminated.
 2102 0000 0020     		movs	r0, #0
 2103              		@ sp needed
 2104 0002 7047     		bx	lr
 2105              		.cfi_endproc
 2106              	.LFE69:
 2107              		.size	RegionCN470DlChannelReq, .-RegionCN470DlChannelReq
 2108              		.section	.text.RegionCN470AlternateDr,"ax",%progbits
 2109              		.align	1
 2110              		.p2align 2,,3
 2111              		.global	RegionCN470AlternateDr
 2112              		.syntax unified
 2113              		.code	16
 2114              		.thumb_func
 2115              		.fpu softvfp
 2116              		.type	RegionCN470AlternateDr, %function
 2117              	RegionCN470AlternateDr:
 2118              	.LFB59:
 696:../../../../../../Middlewares/Third_Party/LoRaWAN/Mac/region/RegionCN470.c **** 
 697:../../../../../../Middlewares/Third_Party/LoRaWAN/Mac/region/RegionCN470.c **** uint8_t RegionCN470DlChannelReq( DlChannelReqParams_t* dlChannelReq )
 698:../../../../../../Middlewares/Third_Party/LoRaWAN/Mac/region/RegionCN470.c **** {
 699:../../../../../../Middlewares/Third_Party/LoRaWAN/Mac/region/RegionCN470.c ****     return 0;
 700:../../../../../../Middlewares/Third_Party/LoRaWAN/Mac/region/RegionCN470.c **** }
 701:../../../../../../Middlewares/Third_Party/LoRaWAN/Mac/region/RegionCN470.c **** 
 702:../../../../../../Middlewares/Third_Party/LoRaWAN/Mac/region/RegionCN470.c **** int8_t RegionCN470AlternateDr( int8_t currentDr, AlternateDrType_t type )
 703:../../../../../../Middlewares/Third_Party/LoRaWAN/Mac/region/RegionCN470.c **** {
 2119              		.loc 1 703 0
 2120              		.cfi_startproc
 2121              		@ args = 0, pretend = 0, frame = 0
 2122              		@ frame_needed = 0, uses_anonymous_args = 0
 2123              		@ link register save eliminated.
 2124              	.LVL195:
 704:../../../../../../Middlewares/Third_Party/LoRaWAN/Mac/region/RegionCN470.c ****     return currentDr;
 705:../../../../../../Middlewares/Third_Party/LoRaWAN/Mac/region/RegionCN470.c **** }
 2125              		.loc 1 705 0
ARM GAS  C:\Users\EBANO_~1\AppData\Local\Temp\cchbxRq9.s 			page 54


 2126              		@ sp needed
 2127 0000 7047     		bx	lr
 2128              		.cfi_endproc
 2129              	.LFE59:
 2130              		.size	RegionCN470AlternateDr, .-RegionCN470AlternateDr
 2131 0002 C046     		.section	.text.RegionCN470CalcBackOff,"ax",%progbits
 2132              		.align	1
 2133              		.p2align 2,,3
 2134              		.global	RegionCN470CalcBackOff
 2135              		.syntax unified
 2136              		.code	16
 2137              		.thumb_func
 2138              		.fpu softvfp
 2139              		.type	RegionCN470CalcBackOff, %function
 2140              	RegionCN470CalcBackOff:
 2141              	.LFB60:
 706:../../../../../../Middlewares/Third_Party/LoRaWAN/Mac/region/RegionCN470.c **** 
 707:../../../../../../Middlewares/Third_Party/LoRaWAN/Mac/region/RegionCN470.c **** void RegionCN470CalcBackOff( CalcBackOffParams_t* calcBackOff )
 708:../../../../../../Middlewares/Third_Party/LoRaWAN/Mac/region/RegionCN470.c **** {
 2142              		.loc 1 708 0
 2143              		.cfi_startproc
 2144              		@ args = 0, pretend = 0, frame = 24
 2145              		@ frame_needed = 0, uses_anonymous_args = 0
 2146              	.LVL196:
 709:../../../../../../Middlewares/Third_Party/LoRaWAN/Mac/region/RegionCN470.c ****     RegionCommonCalcBackOffParams_t calcBackOffParams;
 710:../../../../../../Middlewares/Third_Party/LoRaWAN/Mac/region/RegionCN470.c **** 
 711:../../../../../../Middlewares/Third_Party/LoRaWAN/Mac/region/RegionCN470.c ****     calcBackOffParams.Channels = NvmCtx.Channels;
 712:../../../../../../Middlewares/Third_Party/LoRaWAN/Mac/region/RegionCN470.c ****     calcBackOffParams.Bands = NvmCtx.Bands;
 2147              		.loc 1 712 0
 2148 0000 9021     		movs	r1, #144
 2149 0002 C900     		lsls	r1, r1, #3
 2150 0004 8C46     		mov	ip, r1
 708:../../../../../../Middlewares/Third_Party/LoRaWAN/Mac/region/RegionCN470.c ****     RegionCommonCalcBackOffParams_t calcBackOffParams;
 2151              		.loc 1 708 0
 2152 0006 00B5     		push	{lr}
 2153              	.LCFI22:
 2154              		.cfi_def_cfa_offset 4
 2155              		.cfi_offset 14, -4
 711:../../../../../../Middlewares/Third_Party/LoRaWAN/Mac/region/RegionCN470.c ****     calcBackOffParams.Bands = NvmCtx.Bands;
 2156              		.loc 1 711 0
 2157 0008 0B4A     		ldr	r2, .L218
 708:../../../../../../Middlewares/Third_Party/LoRaWAN/Mac/region/RegionCN470.c ****     RegionCommonCalcBackOffParams_t calcBackOffParams;
 2158              		.loc 1 708 0
 2159 000a 87B0     		sub	sp, sp, #28
 2160              	.LCFI23:
 2161              		.cfi_def_cfa_offset 32
 711:../../../../../../Middlewares/Third_Party/LoRaWAN/Mac/region/RegionCN470.c ****     calcBackOffParams.Bands = NvmCtx.Bands;
 2162              		.loc 1 711 0
 2163 000c 0192     		str	r2, [sp, #4]
 2164              		.loc 1 712 0
 2165 000e 6244     		add	r2, r2, ip
 2166 0010 0292     		str	r2, [sp, #8]
 713:../../../../../../Middlewares/Third_Party/LoRaWAN/Mac/region/RegionCN470.c ****     calcBackOffParams.LastTxIsJoinRequest = calcBackOff->LastTxIsJoinRequest;
 2167              		.loc 1 713 0
 2168 0012 4278     		ldrb	r2, [r0, #1]
 711:../../../../../../Middlewares/Third_Party/LoRaWAN/Mac/region/RegionCN470.c ****     calcBackOffParams.Bands = NvmCtx.Bands;
 2169              		.loc 1 711 0
ARM GAS  C:\Users\EBANO_~1\AppData\Local\Temp\cchbxRq9.s 			page 55


 2170 0014 01AB     		add	r3, sp, #4
 2171              		.loc 1 713 0
 2172 0016 1A72     		strb	r2, [r3, #8]
 714:../../../../../../Middlewares/Third_Party/LoRaWAN/Mac/region/RegionCN470.c ****     calcBackOffParams.Joined = calcBackOff->Joined;
 2173              		.loc 1 714 0
 2174 0018 0278     		ldrb	r2, [r0]
 2175 001a 5A72     		strb	r2, [r3, #9]
 715:../../../../../../Middlewares/Third_Party/LoRaWAN/Mac/region/RegionCN470.c ****     calcBackOffParams.DutyCycleEnabled = calcBackOff->DutyCycleEnabled;
 2176              		.loc 1 715 0
 2177 001c 8278     		ldrb	r2, [r0, #2]
 2178 001e 9A72     		strb	r2, [r3, #10]
 716:../../../../../../Middlewares/Third_Party/LoRaWAN/Mac/region/RegionCN470.c ****     calcBackOffParams.Channel = calcBackOff->Channel;
 2179              		.loc 1 716 0
 2180 0020 C278     		ldrb	r2, [r0, #3]
 2181 0022 DA72     		strb	r2, [r3, #11]
 717:../../../../../../Middlewares/Third_Party/LoRaWAN/Mac/region/RegionCN470.c ****     calcBackOffParams.ElapsedTime = calcBackOff->ElapsedTime;
 2182              		.loc 1 717 0
 2183 0024 4268     		ldr	r2, [r0, #4]
 2184 0026 0492     		str	r2, [sp, #16]
 718:../../../../../../Middlewares/Third_Party/LoRaWAN/Mac/region/RegionCN470.c ****     calcBackOffParams.TxTimeOnAir = calcBackOff->TxTimeOnAir;
 2185              		.loc 1 718 0
 2186 0028 8268     		ldr	r2, [r0, #8]
 719:../../../../../../Middlewares/Third_Party/LoRaWAN/Mac/region/RegionCN470.c **** 
 720:../../../../../../Middlewares/Third_Party/LoRaWAN/Mac/region/RegionCN470.c ****     RegionCommonCalcBackOff( &calcBackOffParams );
 2187              		.loc 1 720 0
 2188 002a 1800     		movs	r0, r3
 2189              	.LVL197:
 718:../../../../../../Middlewares/Third_Party/LoRaWAN/Mac/region/RegionCN470.c ****     calcBackOffParams.TxTimeOnAir = calcBackOff->TxTimeOnAir;
 2190              		.loc 1 718 0
 2191 002c 0592     		str	r2, [sp, #20]
 2192              		.loc 1 720 0
 2193 002e FFF7FEFF 		bl	RegionCommonCalcBackOff
 2194              	.LVL198:
 721:../../../../../../Middlewares/Third_Party/LoRaWAN/Mac/region/RegionCN470.c **** }
 2195              		.loc 1 721 0
 2196 0032 07B0     		add	sp, sp, #28
 2197              		@ sp needed
 2198 0034 00BD     		pop	{pc}
 2199              	.L219:
 2200 0036 C046     		.align	2
 2201              	.L218:
 2202 0038 00000000 		.word	NvmCtx
 2203              		.cfi_endproc
 2204              	.LFE60:
 2205              		.size	RegionCN470CalcBackOff, .-RegionCN470CalcBackOff
 2206              		.section	.text.RegionCN470NextChannel,"ax",%progbits
 2207              		.align	1
 2208              		.p2align 2,,3
 2209              		.global	RegionCN470NextChannel
 2210              		.syntax unified
 2211              		.code	16
 2212              		.thumb_func
 2213              		.fpu softvfp
 2214              		.type	RegionCN470NextChannel, %function
 2215              	RegionCN470NextChannel:
 2216              	.LFB61:
 722:../../../../../../Middlewares/Third_Party/LoRaWAN/Mac/region/RegionCN470.c **** 
ARM GAS  C:\Users\EBANO_~1\AppData\Local\Temp\cchbxRq9.s 			page 56


 723:../../../../../../Middlewares/Third_Party/LoRaWAN/Mac/region/RegionCN470.c **** LoRaMacStatus_t RegionCN470NextChannel( NextChanParams_t* nextChanParams, uint8_t* channel, TimerTi
 724:../../../../../../Middlewares/Third_Party/LoRaWAN/Mac/region/RegionCN470.c **** {
 2217              		.loc 1 724 0
 2218              		.cfi_startproc
 2219              		@ args = 0, pretend = 0, frame = 120
 2220              		@ frame_needed = 0, uses_anonymous_args = 0
 2221              	.LVL199:
 2222 0000 F0B5     		push	{r4, r5, r6, r7, lr}
 2223              	.LCFI24:
 2224              		.cfi_def_cfa_offset 20
 2225              		.cfi_offset 4, -20
 2226              		.cfi_offset 5, -16
 2227              		.cfi_offset 6, -12
 2228              		.cfi_offset 7, -8
 2229              		.cfi_offset 14, -4
 2230 0002 DE46     		mov	lr, fp
 2231 0004 4E46     		mov	r6, r9
 2232 0006 4546     		mov	r5, r8
 2233 0008 5746     		mov	r7, r10
 2234 000a E0B5     		push	{r5, r6, r7, lr}
 2235              	.LCFI25:
 2236              		.cfi_def_cfa_offset 36
 2237              		.cfi_offset 8, -36
 2238              		.cfi_offset 9, -32
 2239              		.cfi_offset 10, -28
 2240              		.cfi_offset 11, -24
 2241 000c 9FB0     		sub	sp, sp, #124
 2242              	.LCFI26:
 2243              		.cfi_def_cfa_offset 160
 2244              		.loc 1 724 0
 2245 000e 0591     		str	r1, [sp, #20]
 2246 0010 0392     		str	r2, [sp, #12]
 725:../../../../../../Middlewares/Third_Party/LoRaWAN/Mac/region/RegionCN470.c ****     uint8_t nbEnabledChannels = 0;
 726:../../../../../../Middlewares/Third_Party/LoRaWAN/Mac/region/RegionCN470.c ****     uint8_t delayTx = 0;
 727:../../../../../../Middlewares/Third_Party/LoRaWAN/Mac/region/RegionCN470.c ****     uint8_t enabledChannels[CN470_MAX_NB_CHANNELS] = { 0 };
 2247              		.loc 1 727 0
 2248 0012 0021     		movs	r1, #0
 2249              	.LVL200:
 2250 0014 6022     		movs	r2, #96
 2251              	.LVL201:
 724:../../../../../../Middlewares/Third_Party/LoRaWAN/Mac/region/RegionCN470.c ****     uint8_t nbEnabledChannels = 0;
 2252              		.loc 1 724 0
 2253 0016 0400     		movs	r4, r0
 2254              		.loc 1 727 0
 2255 0018 06A8     		add	r0, sp, #24
 2256              	.LVL202:
 724:../../../../../../Middlewares/Third_Party/LoRaWAN/Mac/region/RegionCN470.c ****     uint8_t nbEnabledChannels = 0;
 2257              		.loc 1 724 0
 2258 001a 1E00     		movs	r6, r3
 2259              		.loc 1 727 0
 2260 001c FFF7FEFF 		bl	memset
 2261              	.LVL203:
 728:../../../../../../Middlewares/Third_Party/LoRaWAN/Mac/region/RegionCN470.c ****     TimerTime_t nextTxDelay = 0;
 729:../../../../../../Middlewares/Third_Party/LoRaWAN/Mac/region/RegionCN470.c **** 
 730:../../../../../../Middlewares/Third_Party/LoRaWAN/Mac/region/RegionCN470.c ****     // Count 125kHz channels
 731:../../../../../../Middlewares/Third_Party/LoRaWAN/Mac/region/RegionCN470.c ****     if( RegionCommonCountChannels( NvmCtx.ChannelsMask, 0, 6 ) == 0 )
 2262              		.loc 1 731 0
ARM GAS  C:\Users\EBANO_~1\AppData\Local\Temp\cchbxRq9.s 			page 57


 2263 0020 4C4D     		ldr	r5, .L246
 2264 0022 0622     		movs	r2, #6
 2265 0024 0021     		movs	r1, #0
 2266 0026 2800     		movs	r0, r5
 2267 0028 FFF7FEFF 		bl	RegionCommonCountChannels
 2268              	.LVL204:
 2269 002c 0028     		cmp	r0, #0
 2270 002e 04D1     		bne	.L221
 732:../../../../../../Middlewares/Third_Party/LoRaWAN/Mac/region/RegionCN470.c ****     { // Reactivate default channels
 733:../../../../../../Middlewares/Third_Party/LoRaWAN/Mac/region/RegionCN470.c ****         NvmCtx.ChannelsMask[0] = 0xFFFF;
 2271              		.loc 1 733 0
 2272 0030 0123     		movs	r3, #1
 2273 0032 5B42     		rsbs	r3, r3, #0
 2274 0034 2B60     		str	r3, [r5]
 2275 0036 6B60     		str	r3, [r5, #4]
 2276 0038 AB60     		str	r3, [r5, #8]
 2277              	.L221:
 734:../../../../../../Middlewares/Third_Party/LoRaWAN/Mac/region/RegionCN470.c ****         NvmCtx.ChannelsMask[1] = 0xFFFF;
 735:../../../../../../Middlewares/Third_Party/LoRaWAN/Mac/region/RegionCN470.c ****         NvmCtx.ChannelsMask[2] = 0xFFFF;
 736:../../../../../../Middlewares/Third_Party/LoRaWAN/Mac/region/RegionCN470.c ****         NvmCtx.ChannelsMask[3] = 0xFFFF;
 737:../../../../../../Middlewares/Third_Party/LoRaWAN/Mac/region/RegionCN470.c ****         NvmCtx.ChannelsMask[4] = 0xFFFF;
 738:../../../../../../Middlewares/Third_Party/LoRaWAN/Mac/region/RegionCN470.c ****         NvmCtx.ChannelsMask[5] = 0xFFFF;
 739:../../../../../../Middlewares/Third_Party/LoRaWAN/Mac/region/RegionCN470.c ****     }
 740:../../../../../../Middlewares/Third_Party/LoRaWAN/Mac/region/RegionCN470.c **** 
 741:../../../../../../Middlewares/Third_Party/LoRaWAN/Mac/region/RegionCN470.c ****     if( nextChanParams->AggrTimeOff <= TimerGetElapsedTime( nextChanParams->LastAggrTx ) )
 2278              		.loc 1 741 0
 2279 003a 6068     		ldr	r0, [r4, #4]
 2280 003c 2568     		ldr	r5, [r4]
 2281 003e FFF7FEFF 		bl	TimerGetElapsedTime
 2282              	.LVL205:
 2283 0042 8542     		cmp	r5, r0
 2284 0044 6CD8     		bhi	.L222
 742:../../../../../../Middlewares/Third_Party/LoRaWAN/Mac/region/RegionCN470.c ****     {
 743:../../../../../../Middlewares/Third_Party/LoRaWAN/Mac/region/RegionCN470.c ****         // Reset Aggregated time off
 744:../../../../../../Middlewares/Third_Party/LoRaWAN/Mac/region/RegionCN470.c ****         *aggregatedTimeOff = 0;
 2285              		.loc 1 744 0
 2286 0046 0023     		movs	r3, #0
 2287 0048 3360     		str	r3, [r6]
 745:../../../../../../Middlewares/Third_Party/LoRaWAN/Mac/region/RegionCN470.c **** 
 746:../../../../../../Middlewares/Third_Party/LoRaWAN/Mac/region/RegionCN470.c ****         // Update bands Time OFF
 747:../../../../../../Middlewares/Third_Party/LoRaWAN/Mac/region/RegionCN470.c ****         nextTxDelay = RegionCommonUpdateBandTimeOff( nextChanParams->Joined, nextChanParams->DutyCy
 2288              		.loc 1 747 0
 2289 004a 434A     		ldr	r2, .L246+4
 2290 004c 0133     		adds	r3, r3, #1
 2291 004e A17A     		ldrb	r1, [r4, #10]
 2292 0050 607A     		ldrb	r0, [r4, #9]
 2293 0052 FFF7FEFF 		bl	RegionCommonUpdateBandTimeOff
 2294              	.LVL206:
 748:../../../../../../Middlewares/Third_Party/LoRaWAN/Mac/region/RegionCN470.c **** 
 749:../../../../../../Middlewares/Third_Party/LoRaWAN/Mac/region/RegionCN470.c ****         // Search how many channels are enabled
 750:../../../../../../Middlewares/Third_Party/LoRaWAN/Mac/region/RegionCN470.c ****         nbEnabledChannels = CountNbOfEnabledChannels( nextChanParams->Datarate,
 2295              		.loc 1 750 0
 2296 0056 0823     		movs	r3, #8
 2297 0058 404A     		ldr	r2, .L246+8
 747:../../../../../../Middlewares/Third_Party/LoRaWAN/Mac/region/RegionCN470.c **** 
 2298              		.loc 1 747 0
 2299 005a 0490     		str	r0, [sp, #16]
ARM GAS  C:\Users\EBANO_~1\AppData\Local\Temp\cchbxRq9.s 			page 58


 2300              	.LVL207:
 2301 005c 9446     		mov	ip, r2
 2302              		.loc 1 750 0
 2303 005e E356     		ldrsb	r3, [r4, r3]
 2304              	.LBB59:
 2305              	.LBB60:
 2306              	.LBB61:
 2307              	.LBB62:
 141:../../../../../../Middlewares/Third_Party/LoRaWAN/Mac/region/RegionCN470.c ****             {
 2308              		.loc 1 141 0
 2309 0060 0127     		movs	r7, #1
 2310              	.LBE62:
 2311              	.LBE61:
 2312              	.LBE60:
 2313              	.LBE59:
 2314              		.loc 1 750 0
 2315 0062 0093     		str	r3, [sp]
 2316              	.LVL208:
 2317 0064 3C4B     		ldr	r3, .L246+4
 2318              	.LVL209:
 2319 0066 3C4E     		ldr	r6, .L246+4
 2320              	.LVL210:
 2321 0068 6344     		add	r3, r3, ip
 2322              	.LVL211:
 2323 006a 9A46     		mov	r10, r3
 2324 006c 9846     		mov	r8, r3
 2325 006e 0023     		movs	r3, #0
 2326 0070 9946     		mov	r9, r3
 2327              	.LBB70:
 2328              	.LBB67:
 134:../../../../../../Middlewares/Third_Party/LoRaWAN/Mac/region/RegionCN470.c ****     uint8_t delayTransmission = 0;
 2329              		.loc 1 134 0
 2330 0072 9B46     		mov	fp, r3
 2331 0074 1036     		adds	r6, r6, #16
 2332              	.LVL212:
 135:../../../../../../Middlewares/Third_Party/LoRaWAN/Mac/region/RegionCN470.c **** 
 2333              		.loc 1 135 0
 2334 0076 0293     		str	r3, [sp, #8]
 2335              	.LVL213:
 2336              	.L223:
 2337 0078 4B46     		mov	r3, r9
 2338              	.LBE67:
 2339              	.LBE70:
 724:../../../../../../Middlewares/Third_Party/LoRaWAN/Mac/region/RegionCN470.c ****     uint8_t nbEnabledChannels = 0;
 2340              		.loc 1 724 0
 2341 007a 0024     		movs	r4, #0
 2342 007c DBB2     		uxtb	r3, r3
 2343 007e 0193     		str	r3, [sp, #4]
 2344              	.LVL214:
 2345              	.L226:
 2346              	.LBB71:
 2347              	.LBB68:
 2348              	.LBB65:
 2349              	.LBB63:
 141:../../../../../../Middlewares/Third_Party/LoRaWAN/Mac/region/RegionCN470.c ****             {
 2350              		.loc 1 141 0
 2351 0080 3388     		ldrh	r3, [r6]
ARM GAS  C:\Users\EBANO_~1\AppData\Local\Temp\cchbxRq9.s 			page 59


 2352 0082 2341     		asrs	r3, r3, r4
 2353 0084 1F42     		tst	r7, r3
 2354 0086 28D0     		beq	.L224
 2355 0088 4B46     		mov	r3, r9
 2356 008a E218     		adds	r2, r4, r3
 2357 008c 5300     		lsls	r3, r2, #1
 2358 008e 9B18     		adds	r3, r3, r2
 143:../../../../../../Middlewares/Third_Party/LoRaWAN/Mac/region/RegionCN470.c ****                 { // Check if the channel is enabled
 2359              		.loc 1 143 0
 2360 0090 4246     		mov	r2, r8
 2361 0092 6500     		lsls	r5, r4, #1
 2362 0094 2D19     		adds	r5, r5, r4
 2363 0096 AD00     		lsls	r5, r5, #2
 2364 0098 5259     		ldr	r2, [r2, r5]
 2365 009a 9B00     		lsls	r3, r3, #2
 2366 009c 5344     		add	r3, r3, r10
 2367 009e 002A     		cmp	r2, #0
 2368 00a0 1BD0     		beq	.L224
 148:../../../../../../Middlewares/Third_Party/LoRaWAN/Mac/region/RegionCN470.c ****                 { // Check if the current channel selection supports the given datarate
 2369              		.loc 1 148 0
 2370 00a2 197A     		ldrb	r1, [r3, #8]
 147:../../../../../../Middlewares/Third_Party/LoRaWAN/Mac/region/RegionCN470.c ****                                               channels[i + j].DrRange.Fields.Max ) == false )
 2371              		.loc 1 147 0
 2372 00a4 0098     		ldr	r0, [sp]
 148:../../../../../../Middlewares/Third_Party/LoRaWAN/Mac/region/RegionCN470.c ****                 { // Check if the current channel selection supports the given datarate
 2373              		.loc 1 148 0
 2374 00a6 4AB2     		sxtb	r2, r1
 147:../../../../../../Middlewares/Third_Party/LoRaWAN/Mac/region/RegionCN470.c ****                                               channels[i + j].DrRange.Fields.Max ) == false )
 2375              		.loc 1 147 0
 2376 00a8 0907     		lsls	r1, r1, #28
 2377 00aa 1211     		asrs	r2, r2, #4
 2378 00ac 0917     		asrs	r1, r1, #28
 2379 00ae FFF7FEFF 		bl	RegionCommonValueInRange
 2380              	.LVL215:
 2381 00b2 0028     		cmp	r0, #0
 2382 00b4 11D0     		beq	.L224
 152:../../../../../../Middlewares/Third_Party/LoRaWAN/Mac/region/RegionCN470.c ****                 { // Check if the band is available for transmission
 2383              		.loc 1 152 0
 2384 00b6 284A     		ldr	r2, .L246+4
 2385              	.LVL216:
 2386 00b8 4544     		add	r5, r5, r8
 2387 00ba 9446     		mov	ip, r2
 2388 00bc 6B7A     		ldrb	r3, [r5, #9]
 2389 00be 1B01     		lsls	r3, r3, #4
 2390 00c0 6344     		add	r3, r3, ip
 2391 00c2 DB68     		ldr	r3, [r3, #12]
 2392 00c4 002B     		cmp	r3, #0
 2393 00c6 26D1     		bne	.L244
 157:../../../../../../Middlewares/Third_Party/LoRaWAN/Mac/region/RegionCN470.c ****             }
 2394              		.loc 1 157 0
 2395 00c8 5B46     		mov	r3, fp
 2396 00ca 0133     		adds	r3, r3, #1
 2397              	.LVL217:
 2398 00cc 5846     		mov	r0, fp
 2399 00ce DBB2     		uxtb	r3, r3
 2400 00d0 9B46     		mov	fp, r3
 2401 00d2 019A     		ldr	r2, [sp, #4]
ARM GAS  C:\Users\EBANO_~1\AppData\Local\Temp\cchbxRq9.s 			page 60


 2402              	.LVL218:
 2403 00d4 06A9     		add	r1, sp, #24
 2404              	.LVL219:
 2405 00d6 1219     		adds	r2, r2, r4
 2406 00d8 0A54     		strb	r2, [r1, r0]
 2407              	.LVL220:
 2408              	.L224:
 2409 00da 0134     		adds	r4, r4, #1
 2410              	.LVL221:
 139:../../../../../../Middlewares/Third_Party/LoRaWAN/Mac/region/RegionCN470.c ****         {
 2411              		.loc 1 139 0
 2412 00dc 102C     		cmp	r4, #16
 2413 00de CFD1     		bne	.L226
 2414              	.LVL222:
 2415 00e0 1023     		movs	r3, #16
 2416 00e2 9C46     		mov	ip, r3
 2417 00e4 B033     		adds	r3, r3, #176
 2418 00e6 E144     		add	r9, r9, ip
 2419              	.LVL223:
 2420 00e8 9C46     		mov	ip, r3
 2421              	.LBE63:
 137:../../../../../../Middlewares/Third_Party/LoRaWAN/Mac/region/RegionCN470.c ****     {
 2422              		.loc 1 137 0
 2423 00ea 4B46     		mov	r3, r9
 2424 00ec 0236     		adds	r6, r6, #2
 2425 00ee E044     		add	r8, r8, ip
 2426 00f0 602B     		cmp	r3, #96
 2427 00f2 C1D1     		bne	.L223
 2428              	.LVL224:
 2429              	.LBE65:
 2430              	.LBE68:
 2431              	.LBE71:
 751:../../../../../../Middlewares/Third_Party/LoRaWAN/Mac/region/RegionCN470.c ****                                                       NvmCtx.ChannelsMask, NvmCtx.Channels,
 752:../../../../../../Middlewares/Third_Party/LoRaWAN/Mac/region/RegionCN470.c ****                                                       NvmCtx.Bands, enabledChannels, &delayTx );
 753:../../../../../../Middlewares/Third_Party/LoRaWAN/Mac/region/RegionCN470.c ****     }
 754:../../../../../../Middlewares/Third_Party/LoRaWAN/Mac/region/RegionCN470.c ****     else
 755:../../../../../../Middlewares/Third_Party/LoRaWAN/Mac/region/RegionCN470.c ****     {
 756:../../../../../../Middlewares/Third_Party/LoRaWAN/Mac/region/RegionCN470.c ****         delayTx++;
 757:../../../../../../Middlewares/Third_Party/LoRaWAN/Mac/region/RegionCN470.c ****         nextTxDelay = nextChanParams->AggrTimeOff - TimerGetElapsedTime( nextChanParams->LastAggrTx
 758:../../../../../../Middlewares/Third_Party/LoRaWAN/Mac/region/RegionCN470.c ****     }
 759:../../../../../../Middlewares/Third_Party/LoRaWAN/Mac/region/RegionCN470.c **** 
 760:../../../../../../Middlewares/Third_Party/LoRaWAN/Mac/region/RegionCN470.c ****     if( nbEnabledChannels > 0 )
 2432              		.loc 1 760 0
 2433 00f4 5B46     		mov	r3, fp
 2434 00f6 002B     		cmp	r3, #0
 2435 00f8 1DD1     		bne	.L245
 761:../../../../../../Middlewares/Third_Party/LoRaWAN/Mac/region/RegionCN470.c ****     {
 762:../../../../../../Middlewares/Third_Party/LoRaWAN/Mac/region/RegionCN470.c ****         // We found a valid channel
 763:../../../../../../Middlewares/Third_Party/LoRaWAN/Mac/region/RegionCN470.c ****         *channel = enabledChannels[randr( 0, nbEnabledChannels - 1 )];
 764:../../../../../../Middlewares/Third_Party/LoRaWAN/Mac/region/RegionCN470.c **** 
 765:../../../../../../Middlewares/Third_Party/LoRaWAN/Mac/region/RegionCN470.c ****         *time = 0;
 766:../../../../../../Middlewares/Third_Party/LoRaWAN/Mac/region/RegionCN470.c ****         return LORAMAC_STATUS_OK;
 767:../../../../../../Middlewares/Third_Party/LoRaWAN/Mac/region/RegionCN470.c ****     }
 768:../../../../../../Middlewares/Third_Party/LoRaWAN/Mac/region/RegionCN470.c ****     else
 769:../../../../../../Middlewares/Third_Party/LoRaWAN/Mac/region/RegionCN470.c ****     {
 770:../../../../../../Middlewares/Third_Party/LoRaWAN/Mac/region/RegionCN470.c ****         if( delayTx > 0 )
 2436              		.loc 1 770 0
ARM GAS  C:\Users\EBANO_~1\AppData\Local\Temp\cchbxRq9.s 			page 61


 2437 00fa 029B     		ldr	r3, [sp, #8]
 2438 00fc 002B     		cmp	r3, #0
 2439 00fe 15D1     		bne	.L230
 2440 0100 1A00     		movs	r2, r3
 771:../../../../../../Middlewares/Third_Party/LoRaWAN/Mac/region/RegionCN470.c ****         {
 772:../../../../../../Middlewares/Third_Party/LoRaWAN/Mac/region/RegionCN470.c ****             // Delay transmission due to AggregatedTimeOff or to a band time off
 773:../../../../../../Middlewares/Third_Party/LoRaWAN/Mac/region/RegionCN470.c ****             *time = nextTxDelay;
 774:../../../../../../Middlewares/Third_Party/LoRaWAN/Mac/region/RegionCN470.c ****             return LORAMAC_STATUS_DUTYCYCLE_RESTRICTED;
 775:../../../../../../Middlewares/Third_Party/LoRaWAN/Mac/region/RegionCN470.c ****         }
 776:../../../../../../Middlewares/Third_Party/LoRaWAN/Mac/region/RegionCN470.c ****         // Datarate not supported by any channel
 777:../../../../../../Middlewares/Third_Party/LoRaWAN/Mac/region/RegionCN470.c ****         *time = 0;
 778:../../../../../../Middlewares/Third_Party/LoRaWAN/Mac/region/RegionCN470.c ****         return LORAMAC_STATUS_NO_CHANNEL_FOUND;
 2441              		.loc 1 778 0
 2442 0102 0C20     		movs	r0, #12
 777:../../../../../../Middlewares/Third_Party/LoRaWAN/Mac/region/RegionCN470.c ****         return LORAMAC_STATUS_NO_CHANNEL_FOUND;
 2443              		.loc 1 777 0
 2444 0104 039B     		ldr	r3, [sp, #12]
 2445 0106 1A60     		str	r2, [r3]
 2446              	.LVL225:
 2447              	.L231:
 779:../../../../../../Middlewares/Third_Party/LoRaWAN/Mac/region/RegionCN470.c ****     }
 780:../../../../../../Middlewares/Third_Party/LoRaWAN/Mac/region/RegionCN470.c **** }
 2448              		.loc 1 780 0
 2449 0108 1FB0     		add	sp, sp, #124
 2450              		@ sp needed
 2451 010a 3CBC     		pop	{r2, r3, r4, r5}
 2452 010c 9046     		mov	r8, r2
 2453 010e 9946     		mov	r9, r3
 2454 0110 A246     		mov	r10, r4
 2455 0112 AB46     		mov	fp, r5
 2456 0114 F0BD     		pop	{r4, r5, r6, r7, pc}
 2457              	.LVL226:
 2458              	.L244:
 2459              	.LBB72:
 2460              	.LBB69:
 2461              	.LBB66:
 2462              	.LBB64:
 154:../../../../../../Middlewares/Third_Party/LoRaWAN/Mac/region/RegionCN470.c ****                     continue;
 2463              		.loc 1 154 0
 2464 0116 029B     		ldr	r3, [sp, #8]
 2465 0118 0133     		adds	r3, r3, #1
 2466 011a DBB2     		uxtb	r3, r3
 2467 011c 0293     		str	r3, [sp, #8]
 2468              	.LVL227:
 2469 011e DCE7     		b	.L224
 2470              	.LVL228:
 2471              	.L222:
 2472              	.LBE64:
 2473              	.LBE66:
 2474              	.LBE69:
 2475              	.LBE72:
 757:../../../../../../Middlewares/Third_Party/LoRaWAN/Mac/region/RegionCN470.c ****     }
 2476              		.loc 1 757 0
 2477 0120 6068     		ldr	r0, [r4, #4]
 2478 0122 2568     		ldr	r5, [r4]
 2479 0124 FFF7FEFF 		bl	TimerGetElapsedTime
 2480              	.LVL229:
ARM GAS  C:\Users\EBANO_~1\AppData\Local\Temp\cchbxRq9.s 			page 62


 2481 0128 2B1A     		subs	r3, r5, r0
 2482 012a 0493     		str	r3, [sp, #16]
 2483              	.LVL230:
 2484              	.L230:
 773:../../../../../../Middlewares/Third_Party/LoRaWAN/Mac/region/RegionCN470.c ****             return LORAMAC_STATUS_DUTYCYCLE_RESTRICTED;
 2485              		.loc 1 773 0
 2486 012c 039B     		ldr	r3, [sp, #12]
 2487 012e 049A     		ldr	r2, [sp, #16]
 774:../../../../../../Middlewares/Third_Party/LoRaWAN/Mac/region/RegionCN470.c ****         }
 2488              		.loc 1 774 0
 2489 0130 0B20     		movs	r0, #11
 773:../../../../../../Middlewares/Third_Party/LoRaWAN/Mac/region/RegionCN470.c ****             return LORAMAC_STATUS_DUTYCYCLE_RESTRICTED;
 2490              		.loc 1 773 0
 2491 0132 1A60     		str	r2, [r3]
 774:../../../../../../Middlewares/Third_Party/LoRaWAN/Mac/region/RegionCN470.c ****         }
 2492              		.loc 1 774 0
 2493 0134 E8E7     		b	.L231
 2494              	.LVL231:
 2495              	.L245:
 763:../../../../../../Middlewares/Third_Party/LoRaWAN/Mac/region/RegionCN470.c **** 
 2496              		.loc 1 763 0
 2497 0136 5946     		mov	r1, fp
 2498 0138 0020     		movs	r0, #0
 2499 013a 0139     		subs	r1, r1, #1
 2500 013c FFF7FEFF 		bl	randr
 2501              	.LVL232:
 2502 0140 06AB     		add	r3, sp, #24
 2503 0142 1B5C     		ldrb	r3, [r3, r0]
 2504 0144 059A     		ldr	r2, [sp, #20]
 766:../../../../../../Middlewares/Third_Party/LoRaWAN/Mac/region/RegionCN470.c ****     }
 2505              		.loc 1 766 0
 2506 0146 0020     		movs	r0, #0
 763:../../../../../../Middlewares/Third_Party/LoRaWAN/Mac/region/RegionCN470.c **** 
 2507              		.loc 1 763 0
 2508 0148 1370     		strb	r3, [r2]
 765:../../../../../../Middlewares/Third_Party/LoRaWAN/Mac/region/RegionCN470.c ****         return LORAMAC_STATUS_OK;
 2509              		.loc 1 765 0
 2510 014a 0023     		movs	r3, #0
 2511 014c 039A     		ldr	r2, [sp, #12]
 2512 014e 1360     		str	r3, [r2]
 766:../../../../../../Middlewares/Third_Party/LoRaWAN/Mac/region/RegionCN470.c ****     }
 2513              		.loc 1 766 0
 2514 0150 DAE7     		b	.L231
 2515              	.L247:
 2516 0152 C046     		.align	2
 2517              	.L246:
 2518 0154 90040000 		.word	NvmCtx+1168
 2519 0158 80040000 		.word	NvmCtx+1152
 2520 015c 80FBFFFF 		.word	-1152
 2521              		.cfi_endproc
 2522              	.LFE61:
 2523              		.size	RegionCN470NextChannel, .-RegionCN470NextChannel
 2524              		.section	.text.RegionCN470ChannelAdd,"ax",%progbits
 2525              		.align	1
 2526              		.p2align 2,,3
 2527              		.global	RegionCN470ChannelAdd
 2528              		.syntax unified
ARM GAS  C:\Users\EBANO_~1\AppData\Local\Temp\cchbxRq9.s 			page 63


 2529              		.code	16
 2530              		.thumb_func
 2531              		.fpu softvfp
 2532              		.type	RegionCN470ChannelAdd, %function
 2533              	RegionCN470ChannelAdd:
 2534              	.LFB62:
 781:../../../../../../Middlewares/Third_Party/LoRaWAN/Mac/region/RegionCN470.c **** 
 782:../../../../../../Middlewares/Third_Party/LoRaWAN/Mac/region/RegionCN470.c **** LoRaMacStatus_t RegionCN470ChannelAdd( ChannelAddParams_t* channelAdd )
 783:../../../../../../Middlewares/Third_Party/LoRaWAN/Mac/region/RegionCN470.c **** {
 2535              		.loc 1 783 0
 2536              		.cfi_startproc
 2537              		@ args = 0, pretend = 0, frame = 0
 2538              		@ frame_needed = 0, uses_anonymous_args = 0
 2539              		@ link register save eliminated.
 2540              	.LVL233:
 784:../../../../../../Middlewares/Third_Party/LoRaWAN/Mac/region/RegionCN470.c ****     return LORAMAC_STATUS_PARAMETER_INVALID;
 785:../../../../../../Middlewares/Third_Party/LoRaWAN/Mac/region/RegionCN470.c **** }
 2541              		.loc 1 785 0
 2542 0000 0320     		movs	r0, #3
 2543              	.LVL234:
 2544              		@ sp needed
 2545 0002 7047     		bx	lr
 2546              		.cfi_endproc
 2547              	.LFE62:
 2548              		.size	RegionCN470ChannelAdd, .-RegionCN470ChannelAdd
 2549              		.section	.text.RegionCN470ChannelsRemove,"ax",%progbits
 2550              		.align	1
 2551              		.p2align 2,,3
 2552              		.global	RegionCN470ChannelsRemove
 2553              		.syntax unified
 2554              		.code	16
 2555              		.thumb_func
 2556              		.fpu softvfp
 2557              		.type	RegionCN470ChannelsRemove, %function
 2558              	RegionCN470ChannelsRemove:
 2559              	.LFB63:
 786:../../../../../../Middlewares/Third_Party/LoRaWAN/Mac/region/RegionCN470.c **** 
 787:../../../../../../Middlewares/Third_Party/LoRaWAN/Mac/region/RegionCN470.c **** bool RegionCN470ChannelsRemove( ChannelRemoveParams_t* channelRemove  )
 788:../../../../../../Middlewares/Third_Party/LoRaWAN/Mac/region/RegionCN470.c **** {
 2560              		.loc 1 788 0
 2561              		.cfi_startproc
 2562              		@ args = 0, pretend = 0, frame = 0
 2563              		@ frame_needed = 0, uses_anonymous_args = 0
 2564              		@ link register save eliminated.
 2565              	.LVL235:
 789:../../../../../../Middlewares/Third_Party/LoRaWAN/Mac/region/RegionCN470.c ****     return LORAMAC_STATUS_PARAMETER_INVALID;
 790:../../../../../../Middlewares/Third_Party/LoRaWAN/Mac/region/RegionCN470.c **** }
 2566              		.loc 1 790 0
 2567 0000 0120     		movs	r0, #1
 2568              	.LVL236:
 2569              		@ sp needed
 2570 0002 7047     		bx	lr
 2571              		.cfi_endproc
 2572              	.LFE63:
 2573              		.size	RegionCN470ChannelsRemove, .-RegionCN470ChannelsRemove
 2574              		.section	.text.RegionCN470SetContinuousWave,"ax",%progbits
 2575              		.align	1
ARM GAS  C:\Users\EBANO_~1\AppData\Local\Temp\cchbxRq9.s 			page 64


 2576              		.p2align 2,,3
 2577              		.global	RegionCN470SetContinuousWave
 2578              		.syntax unified
 2579              		.code	16
 2580              		.thumb_func
 2581              		.fpu softvfp
 2582              		.type	RegionCN470SetContinuousWave, %function
 2583              	RegionCN470SetContinuousWave:
 2584              	.LFB64:
 791:../../../../../../Middlewares/Third_Party/LoRaWAN/Mac/region/RegionCN470.c **** 
 792:../../../../../../Middlewares/Third_Party/LoRaWAN/Mac/region/RegionCN470.c **** void RegionCN470SetContinuousWave( ContinuousWaveParams_t* continuousWave )
 793:../../../../../../Middlewares/Third_Party/LoRaWAN/Mac/region/RegionCN470.c **** {
 2585              		.loc 1 793 0
 2586              		.cfi_startproc
 2587              		@ args = 0, pretend = 0, frame = 8
 2588              		@ frame_needed = 0, uses_anonymous_args = 0
 2589              	.LVL237:
 2590 0000 F0B5     		push	{r4, r5, r6, r7, lr}
 2591              	.LCFI27:
 2592              		.cfi_def_cfa_offset 20
 2593              		.cfi_offset 4, -20
 2594              		.cfi_offset 5, -16
 2595              		.cfi_offset 6, -12
 2596              		.cfi_offset 7, -8
 2597              		.cfi_offset 14, -4
 2598 0002 0400     		movs	r4, r0
 794:../../../../../../Middlewares/Third_Party/LoRaWAN/Mac/region/RegionCN470.c ****     int8_t txPowerLimited = LimitTxPower( continuousWave->TxPower, NvmCtx.Bands[NvmCtx.Channels[con
 2599              		.loc 1 794 0
 2600 0004 0278     		ldrb	r2, [r0]
 2601              	.LVL238:
 795:../../../../../../Middlewares/Third_Party/LoRaWAN/Mac/region/RegionCN470.c ****     int8_t phyTxPower = 0;
 796:../../../../../../Middlewares/Third_Party/LoRaWAN/Mac/region/RegionCN470.c ****     uint32_t frequency = NvmCtx.Channels[continuousWave->Channel].Frequency;
 2602              		.loc 1 796 0
 2603 0006 1048     		ldr	r0, .L252
 2604              	.LVL239:
 2605 0008 5300     		lsls	r3, r2, #1
 2606 000a 9B18     		adds	r3, r3, r2
 2607 000c 9B00     		lsls	r3, r3, #2
 2608 000e 1D58     		ldr	r5, [r3, r0]
 2609              	.LVL240:
 794:../../../../../../Middlewares/Third_Party/LoRaWAN/Mac/region/RegionCN470.c ****     int8_t txPowerLimited = LimitTxPower( continuousWave->TxPower, NvmCtx.Bands[NvmCtx.Channels[con
 2610              		.loc 1 794 0
 2611 0010 C318     		adds	r3, r0, r3
 2612 0012 5B7A     		ldrb	r3, [r3, #9]
 2613              	.LBB73:
 2614              	.LBB74:
 103:../../../../../../Middlewares/Third_Party/LoRaWAN/Mac/region/RegionCN470.c **** 
 2615              		.loc 1 103 0
 2616 0014 A678     		ldrb	r6, [r4, #2]
 2617              	.LBE74:
 2618              	.LBE73:
 794:../../../../../../Middlewares/Third_Party/LoRaWAN/Mac/region/RegionCN470.c ****     int8_t txPowerLimited = LimitTxPower( continuousWave->TxPower, NvmCtx.Bands[NvmCtx.Channels[con
 2619              		.loc 1 794 0
 2620 0016 4833     		adds	r3, r3, #72
 2621 0018 1B01     		lsls	r3, r3, #4
 2622 001a C018     		adds	r0, r0, r3
 2623              	.LBB77:
ARM GAS  C:\Users\EBANO_~1\AppData\Local\Temp\cchbxRq9.s 			page 65


 2624              	.LBB75:
 103:../../../../../../Middlewares/Third_Party/LoRaWAN/Mac/region/RegionCN470.c **** 
 2625              		.loc 1 103 0
 2626 001c 8378     		ldrb	r3, [r0, #2]
 2627 001e 77B2     		sxtb	r7, r6
 2628 0020 181C     		adds	r0, r3, #0
 2629 0022 5BB2     		sxtb	r3, r3
 2630              	.LBE75:
 2631              	.LBE77:
 793:../../../../../../Middlewares/Third_Party/LoRaWAN/Mac/region/RegionCN470.c ****     int8_t txPowerLimited = LimitTxPower( continuousWave->TxPower, NvmCtx.Bands[NvmCtx.Channels[con
 2632              		.loc 1 793 0
 2633 0024 83B0     		sub	sp, sp, #12
 2634              	.LCFI28:
 2635              		.cfi_def_cfa_offset 32
 797:../../../../../../Middlewares/Third_Party/LoRaWAN/Mac/region/RegionCN470.c **** 
 798:../../../../../../Middlewares/Third_Party/LoRaWAN/Mac/region/RegionCN470.c ****     // Calculate physical TX power
 799:../../../../../../Middlewares/Third_Party/LoRaWAN/Mac/region/RegionCN470.c ****     phyTxPower = RegionCommonComputeTxPower( txPowerLimited, continuousWave->MaxEirp, continuousWav
 2636              		.loc 1 799 0
 2637 0026 A268     		ldr	r2, [r4, #8]
 2638 0028 6168     		ldr	r1, [r4, #4]
 2639              	.LBB78:
 2640              	.LBB76:
 103:../../../../../../Middlewares/Third_Party/LoRaWAN/Mac/region/RegionCN470.c **** 
 2641              		.loc 1 103 0
 2642 002a BB42     		cmp	r3, r7
 2643 002c 00DA     		bge	.L251
 2644 002e 301C     		adds	r0, r6, #0
 2645              	.L251:
 2646              	.LBE76:
 2647              	.LBE78:
 2648              		.loc 1 799 0
 2649 0030 40B2     		sxtb	r0, r0
 2650 0032 FFF7FEFF 		bl	RegionCommonComputeTxPower
 2651              	.LVL241:
 800:../../../../../../Middlewares/Third_Party/LoRaWAN/Mac/region/RegionCN470.c **** 
 801:../../../../../../Middlewares/Third_Party/LoRaWAN/Mac/region/RegionCN470.c ****     Radio.SetTxContinuousWave( frequency, phyTxPower, continuousWave->Timeout );
 2652              		.loc 1 801 0
 2653 0036 054B     		ldr	r3, .L252+4
 799:../../../../../../Middlewares/Third_Party/LoRaWAN/Mac/region/RegionCN470.c **** 
 2654              		.loc 1 799 0
 2655 0038 0100     		movs	r1, r0
 2656              	.LVL242:
 2657              		.loc 1 801 0
 2658 003a 5B6C     		ldr	r3, [r3, #68]
 2659 003c A289     		ldrh	r2, [r4, #12]
 2660 003e 2800     		movs	r0, r5
 2661 0040 0193     		str	r3, [sp, #4]
 2662 0042 9847     		blx	r3
 2663              	.LVL243:
 802:../../../../../../Middlewares/Third_Party/LoRaWAN/Mac/region/RegionCN470.c **** }
 2664              		.loc 1 802 0
 2665 0044 03B0     		add	sp, sp, #12
 2666              		@ sp needed
 2667              	.LVL244:
 2668              	.LVL245:
 2669 0046 F0BD     		pop	{r4, r5, r6, r7, pc}
 2670              	.L253:
ARM GAS  C:\Users\EBANO_~1\AppData\Local\Temp\cchbxRq9.s 			page 66


 2671              		.align	2
 2672              	.L252:
 2673 0048 00000000 		.word	NvmCtx
 2674 004c 00000000 		.word	Radio
 2675              		.cfi_endproc
 2676              	.LFE64:
 2677              		.size	RegionCN470SetContinuousWave, .-RegionCN470SetContinuousWave
 2678              		.section	.text.RegionCN470ApplyDrOffset,"ax",%progbits
 2679              		.align	1
 2680              		.p2align 2,,3
 2681              		.global	RegionCN470ApplyDrOffset
 2682              		.syntax unified
 2683              		.code	16
 2684              		.thumb_func
 2685              		.fpu softvfp
 2686              		.type	RegionCN470ApplyDrOffset, %function
 2687              	RegionCN470ApplyDrOffset:
 2688              	.LFB65:
 803:../../../../../../Middlewares/Third_Party/LoRaWAN/Mac/region/RegionCN470.c **** 
 804:../../../../../../Middlewares/Third_Party/LoRaWAN/Mac/region/RegionCN470.c **** uint8_t RegionCN470ApplyDrOffset( uint8_t downlinkDwellTime, int8_t dr, int8_t drOffset )
 805:../../../../../../Middlewares/Third_Party/LoRaWAN/Mac/region/RegionCN470.c **** {
 2689              		.loc 1 805 0
 2690              		.cfi_startproc
 2691              		@ args = 0, pretend = 0, frame = 0
 2692              		@ frame_needed = 0, uses_anonymous_args = 0
 2693              		@ link register save eliminated.
 2694              	.LVL246:
 806:../../../../../../Middlewares/Third_Party/LoRaWAN/Mac/region/RegionCN470.c ****     int8_t datarate = dr - drOffset;
 2695              		.loc 1 806 0
 2696 0000 891A     		subs	r1, r1, r2
 2697              	.LVL247:
 2698 0002 49B2     		sxtb	r1, r1
 2699              	.LVL248:
 807:../../../../../../Middlewares/Third_Party/LoRaWAN/Mac/region/RegionCN470.c **** 
 808:../../../../../../Middlewares/Third_Party/LoRaWAN/Mac/region/RegionCN470.c ****     if( datarate < 0 )
 809:../../../../../../Middlewares/Third_Party/LoRaWAN/Mac/region/RegionCN470.c ****     {
 810:../../../../../../Middlewares/Third_Party/LoRaWAN/Mac/region/RegionCN470.c ****         datarate = DR_0;
 811:../../../../../../Middlewares/Third_Party/LoRaWAN/Mac/region/RegionCN470.c ****     }
 812:../../../../../../Middlewares/Third_Party/LoRaWAN/Mac/region/RegionCN470.c ****     return datarate;
 2700              		.loc 1 812 0
 2701 0004 C843     		mvns	r0, r1
 2702              	.LVL249:
 2703 0006 C017     		asrs	r0, r0, #31
 2704 0008 0840     		ands	r0, r1
 2705 000a C0B2     		uxtb	r0, r0
 813:../../../../../../Middlewares/Third_Party/LoRaWAN/Mac/region/RegionCN470.c **** }
 2706              		.loc 1 813 0
 2707              		@ sp needed
 2708 000c 7047     		bx	lr
 2709              		.cfi_endproc
 2710              	.LFE65:
 2711              		.size	RegionCN470ApplyDrOffset, .-RegionCN470ApplyDrOffset
 2712 000e C046     		.section	.text.RegionCN470RxBeaconSetup,"ax",%progbits
 2713              		.align	1
 2714              		.p2align 2,,3
 2715              		.global	RegionCN470RxBeaconSetup
 2716              		.syntax unified
ARM GAS  C:\Users\EBANO_~1\AppData\Local\Temp\cchbxRq9.s 			page 67


 2717              		.code	16
 2718              		.thumb_func
 2719              		.fpu softvfp
 2720              		.type	RegionCN470RxBeaconSetup, %function
 2721              	RegionCN470RxBeaconSetup:
 2722              	.LFB66:
 814:../../../../../../Middlewares/Third_Party/LoRaWAN/Mac/region/RegionCN470.c **** 
 815:../../../../../../Middlewares/Third_Party/LoRaWAN/Mac/region/RegionCN470.c **** void RegionCN470RxBeaconSetup( RxBeaconSetup_t* rxBeaconSetup, uint8_t* outDr )
 816:../../../../../../Middlewares/Third_Party/LoRaWAN/Mac/region/RegionCN470.c **** {
 2723              		.loc 1 816 0
 2724              		.cfi_startproc
 2725              		@ args = 0, pretend = 0, frame = 24
 2726              		@ frame_needed = 0, uses_anonymous_args = 0
 2727              	.LVL250:
 2728 0000 10B5     		push	{r4, lr}
 2729              	.LCFI29:
 2730              		.cfi_def_cfa_offset 8
 2731              		.cfi_offset 4, -8
 2732              		.cfi_offset 14, -4
 817:../../../../../../Middlewares/Third_Party/LoRaWAN/Mac/region/RegionCN470.c ****     RegionCommonRxBeaconSetupParams_t regionCommonRxBeaconSetup;
 818:../../../../../../Middlewares/Third_Party/LoRaWAN/Mac/region/RegionCN470.c **** 
 819:../../../../../../Middlewares/Third_Party/LoRaWAN/Mac/region/RegionCN470.c ****     regionCommonRxBeaconSetup.Datarates = DataratesCN470;
 2733              		.loc 1 819 0
 2734 0002 0B4A     		ldr	r2, .L257
 816:../../../../../../Middlewares/Third_Party/LoRaWAN/Mac/region/RegionCN470.c ****     RegionCommonRxBeaconSetupParams_t regionCommonRxBeaconSetup;
 2735              		.loc 1 816 0
 2736 0004 86B0     		sub	sp, sp, #24
 2737              	.LCFI30:
 2738              		.cfi_def_cfa_offset 32
 2739              		.loc 1 819 0
 2740 0006 1832     		adds	r2, r2, #24
 2741 0008 0192     		str	r2, [sp, #4]
 820:../../../../../../Middlewares/Third_Party/LoRaWAN/Mac/region/RegionCN470.c ****     regionCommonRxBeaconSetup.Frequency = rxBeaconSetup->Frequency;
 2742              		.loc 1 820 0
 2743 000a 8268     		ldr	r2, [r0, #8]
 819:../../../../../../Middlewares/Third_Party/LoRaWAN/Mac/region/RegionCN470.c ****     regionCommonRxBeaconSetup.Frequency = rxBeaconSetup->Frequency;
 2744              		.loc 1 819 0
 2745 000c 01AB     		add	r3, sp, #4
 2746              		.loc 1 820 0
 2747 000e 0292     		str	r2, [sp, #8]
 821:../../../../../../Middlewares/Third_Party/LoRaWAN/Mac/region/RegionCN470.c ****     regionCommonRxBeaconSetup.BeaconSize = CN470_BEACON_SIZE;
 2748              		.loc 1 821 0
 2749 0010 084A     		ldr	r2, .L257+4
 816:../../../../../../Middlewares/Third_Party/LoRaWAN/Mac/region/RegionCN470.c ****     RegionCommonRxBeaconSetupParams_t regionCommonRxBeaconSetup;
 2750              		.loc 1 816 0
 2751 0012 0C00     		movs	r4, r1
 2752              		.loc 1 821 0
 2753 0014 1A81     		strh	r2, [r3, #8]
 822:../../../../../../Middlewares/Third_Party/LoRaWAN/Mac/region/RegionCN470.c ****     regionCommonRxBeaconSetup.BeaconDatarate = CN470_BEACON_CHANNEL_DR;
 2754              		.loc 1 822 0
 2755 0016 0022     		movs	r2, #0
 2756 0018 9A72     		strb	r2, [r3, #10]
 823:../../../../../../Middlewares/Third_Party/LoRaWAN/Mac/region/RegionCN470.c ****     regionCommonRxBeaconSetup.BeaconChannelBW = CN470_BEACON_CHANNEL_BW;
 824:../../../../../../Middlewares/Third_Party/LoRaWAN/Mac/region/RegionCN470.c ****     regionCommonRxBeaconSetup.RxTime = rxBeaconSetup->RxTime;
 2757              		.loc 1 824 0
 2758 001a 4268     		ldr	r2, [r0, #4]
 2759 001c 0492     		str	r2, [sp, #16]
ARM GAS  C:\Users\EBANO_~1\AppData\Local\Temp\cchbxRq9.s 			page 68


 825:../../../../../../Middlewares/Third_Party/LoRaWAN/Mac/region/RegionCN470.c ****     regionCommonRxBeaconSetup.SymbolTimeout = rxBeaconSetup->SymbolTimeout;
 2760              		.loc 1 825 0
 2761 001e 0288     		ldrh	r2, [r0]
 826:../../../../../../Middlewares/Third_Party/LoRaWAN/Mac/region/RegionCN470.c **** 
 827:../../../../../../Middlewares/Third_Party/LoRaWAN/Mac/region/RegionCN470.c ****     RegionCommonRxBeaconSetup( &regionCommonRxBeaconSetup );
 2762              		.loc 1 827 0
 2763 0020 1800     		movs	r0, r3
 2764              	.LVL251:
 825:../../../../../../Middlewares/Third_Party/LoRaWAN/Mac/region/RegionCN470.c ****     regionCommonRxBeaconSetup.SymbolTimeout = rxBeaconSetup->SymbolTimeout;
 2765              		.loc 1 825 0
 2766 0022 1A82     		strh	r2, [r3, #16]
 2767              		.loc 1 827 0
 2768 0024 FFF7FEFF 		bl	RegionCommonRxBeaconSetup
 2769              	.LVL252:
 828:../../../../../../Middlewares/Third_Party/LoRaWAN/Mac/region/RegionCN470.c **** 
 829:../../../../../../Middlewares/Third_Party/LoRaWAN/Mac/region/RegionCN470.c ****     // Store downlink datarate
 830:../../../../../../Middlewares/Third_Party/LoRaWAN/Mac/region/RegionCN470.c ****     *outDr = CN470_BEACON_CHANNEL_DR;
 2770              		.loc 1 830 0
 2771 0028 0223     		movs	r3, #2
 2772 002a 2370     		strb	r3, [r4]
 831:../../../../../../Middlewares/Third_Party/LoRaWAN/Mac/region/RegionCN470.c **** }
 2773              		.loc 1 831 0
 2774 002c 06B0     		add	sp, sp, #24
 2775              		@ sp needed
 2776              	.LVL253:
 2777 002e 10BD     		pop	{r4, pc}
 2778              	.L258:
 2779              		.align	2
 2780              	.L257:
 2781 0030 AC000000 		.word	.LANCHOR1
 2782 0034 13020000 		.word	531
 2783              		.cfi_endproc
 2784              	.LFE66:
 2785              		.size	RegionCN470RxBeaconSetup, .-RegionCN470RxBeaconSetup
 2786              		.set	MaxPayloadOfDatarateRepeaterCN470,MaxPayloadOfDatarateCN470
 2787              		.bss
 2788              		.align	2
 2789              		.type	NvmCtx, %object
 2790              		.size	NvmCtx, 1192
 2791              	NvmCtx:
 2792 0000 00000000 		.space	1192
 2792      00000000 
 2792      00000000 
 2792      00000000 
 2792      00000000 
 2793              		.section	.rodata
 2794              		.align	2
 2795              		.set	.LANCHOR1,. + 0
 2796              		.type	BandwidthsCN470, %object
 2797              		.size	BandwidthsCN470, 24
 2798              	BandwidthsCN470:
 2799 00ac 48E80100 		.word	125000
 2800 00b0 48E80100 		.word	125000
 2801 00b4 48E80100 		.word	125000
 2802 00b8 48E80100 		.word	125000
 2803 00bc 48E80100 		.word	125000
 2804 00c0 48E80100 		.word	125000
ARM GAS  C:\Users\EBANO_~1\AppData\Local\Temp\cchbxRq9.s 			page 69


 2805              		.type	DataratesCN470, %object
 2806              		.size	DataratesCN470, 6
 2807              	DataratesCN470:
 2808 00c4 0C       		.byte	12
 2809 00c5 0B       		.byte	11
 2810 00c6 0A       		.byte	10
 2811 00c7 09       		.byte	9
 2812 00c8 08       		.byte	8
 2813 00c9 07       		.byte	7
 2814 00ca 0000     		.align	2
 2815              		.set	.LANCHOR0,. + 0
 2816              		.type	MaxPayloadOfDatarateCN470, %object
 2817              		.size	MaxPayloadOfDatarateCN470, 6
 2818              	MaxPayloadOfDatarateCN470:
 2819 00cc 33       		.byte	51
 2820 00cd 33       		.byte	51
 2821 00ce 33       		.byte	51
 2822 00cf 73       		.byte	115
 2823 00d0 DE       		.byte	-34
 2824 00d1 DE       		.byte	-34
 2825              		.text
 2826              	.Letext0:
 2827              		.file 2 "c:\\program files (x86)\\gnu tools arm embedded\\7 2018-q2-update\\arm-none-eabi\\include
 2828              		.file 3 "c:\\program files (x86)\\gnu tools arm embedded\\7 2018-q2-update\\arm-none-eabi\\include
 2829              		.file 4 "../../../../../../Drivers/CMSIS/Device/ST/STM32L0xx/Include/system_stm32l0xx.h"
 2830              		.file 5 "c:\\program files (x86)\\gnu tools arm embedded\\7 2018-q2-update\\lib\\gcc\\arm-none-eab
 2831              		.file 6 "c:\\program files (x86)\\gnu tools arm embedded\\7 2018-q2-update\\arm-none-eabi\\include
 2832              		.file 7 "c:\\program files (x86)\\gnu tools arm embedded\\7 2018-q2-update\\arm-none-eabi\\include
 2833              		.file 8 "c:\\program files (x86)\\gnu tools arm embedded\\7 2018-q2-update\\arm-none-eabi\\include
 2834              		.file 9 "c:\\program files (x86)\\gnu tools arm embedded\\7 2018-q2-update\\arm-none-eabi\\include
 2835              		.file 10 "../../../../../../Middlewares/Third_Party/LoRaWAN/Utilities/utilities.h"
 2836              		.file 11 "../../../../../../Middlewares/Third_Party/LoRaWAN/Mac/LoRaMacTypes.h"
 2837              		.file 12 "c:\\program files (x86)\\gnu tools arm embedded\\7 2018-q2-update\\arm-none-eabi\\includ
 2838              		.file 13 "../../../../../../Middlewares/Third_Party/LoRaWAN/Phy/radio.h"
 2839              		.file 14 "../../../../../../Middlewares/Third_Party/LoRaWAN/Mac/LoRaMac.h"
 2840              		.file 15 "../../../../../../Middlewares/Third_Party/LoRaWAN/Mac/region/Region.h"
 2841              		.file 16 "../../../../../../Middlewares/Third_Party/LoRaWAN/Mac/region/RegionCommon.h"
 2842              		.file 17 "../../../../../../Middlewares/Third_Party/LoRaWAN/Mac/region/RegionCN470.h"
 2843              		.file 18 "../../../../../../Middlewares/Third_Party/LoRaWAN/Utilities/timeServer.h"
 2844              		.file 19 "<built-in>"
 2845              		.section	.debug_info,"",%progbits
 2846              	.Ldebug_info0:
 2847 0000 7E2E0000 		.4byte	0x2e7e
 2848 0004 0200     		.2byte	0x2
 2849 0006 00000000 		.4byte	.Ldebug_abbrev0
 2850 000a 04       		.byte	0x4
 2851 000b 01       		.uleb128 0x1
 2852 000c 35090000 		.4byte	.LASF550
 2853 0010 0C       		.byte	0xc
 2854 0011 391E0000 		.4byte	.LASF551
 2855 0015 9F070000 		.4byte	.LASF552
 2856 0019 48010000 		.4byte	.Ldebug_ranges0+0x148
 2857 001d 00000000 		.4byte	0
 2858 0021 00000000 		.4byte	0
 2859 0025 00000000 		.4byte	.Ldebug_line0
 2860 0029 02       		.uleb128 0x2
 2861 002a 01       		.byte	0x1
ARM GAS  C:\Users\EBANO_~1\AppData\Local\Temp\cchbxRq9.s 			page 70


 2862 002b 06       		.byte	0x6
 2863 002c 19120000 		.4byte	.LASF2
 2864 0030 03       		.uleb128 0x3
 2865 0031 30200000 		.4byte	.LASF0
 2866 0035 02       		.byte	0x2
 2867 0036 29       		.byte	0x29
 2868 0037 29000000 		.4byte	0x29
 2869 003b 03       		.uleb128 0x3
 2870 003c AB000000 		.4byte	.LASF1
 2871 0040 02       		.byte	0x2
 2872 0041 2B       		.byte	0x2b
 2873 0042 46000000 		.4byte	0x46
 2874 0046 02       		.uleb128 0x2
 2875 0047 01       		.byte	0x1
 2876 0048 08       		.byte	0x8
 2877 0049 3C070000 		.4byte	.LASF3
 2878 004d 03       		.uleb128 0x3
 2879 004e CA050000 		.4byte	.LASF4
 2880 0052 02       		.byte	0x2
 2881 0053 37       		.byte	0x37
 2882 0054 58000000 		.4byte	0x58
 2883 0058 02       		.uleb128 0x2
 2884 0059 02       		.byte	0x2
 2885 005a 05       		.byte	0x5
 2886 005b C2200000 		.4byte	.LASF5
 2887 005f 03       		.uleb128 0x3
 2888 0060 E0050000 		.4byte	.LASF6
 2889 0064 02       		.byte	0x2
 2890 0065 39       		.byte	0x39
 2891 0066 6A000000 		.4byte	0x6a
 2892 006a 02       		.uleb128 0x2
 2893 006b 02       		.byte	0x2
 2894 006c 07       		.byte	0x7
 2895 006d 06120000 		.4byte	.LASF7
 2896 0071 03       		.uleb128 0x3
 2897 0072 AC190000 		.4byte	.LASF8
 2898 0076 02       		.byte	0x2
 2899 0077 4D       		.byte	0x4d
 2900 0078 7C000000 		.4byte	0x7c
 2901 007c 02       		.uleb128 0x2
 2902 007d 04       		.byte	0x4
 2903 007e 05       		.byte	0x5
 2904 007f 03140000 		.4byte	.LASF9
 2905 0083 03       		.uleb128 0x3
 2906 0084 BF190000 		.4byte	.LASF10
 2907 0088 02       		.byte	0x2
 2908 0089 4F       		.byte	0x4f
 2909 008a 8E000000 		.4byte	0x8e
 2910 008e 02       		.uleb128 0x2
 2911 008f 04       		.byte	0x4
 2912 0090 07       		.byte	0x7
 2913 0091 4B150000 		.4byte	.LASF11
 2914 0095 02       		.uleb128 0x2
 2915 0096 08       		.byte	0x8
 2916 0097 05       		.byte	0x5
 2917 0098 C01D0000 		.4byte	.LASF12
 2918 009c 02       		.uleb128 0x2
ARM GAS  C:\Users\EBANO_~1\AppData\Local\Temp\cchbxRq9.s 			page 71


 2919 009d 08       		.byte	0x8
 2920 009e 07       		.byte	0x7
 2921 009f 771B0000 		.4byte	.LASF13
 2922 00a3 04       		.uleb128 0x4
 2923 00a4 04       		.byte	0x4
 2924 00a5 05       		.byte	0x5
 2925 00a6 696E7400 		.ascii	"int\000"
 2926 00aa 02       		.uleb128 0x2
 2927 00ab 04       		.byte	0x4
 2928 00ac 07       		.byte	0x7
 2929 00ad 51200000 		.4byte	.LASF14
 2930 00b1 03       		.uleb128 0x3
 2931 00b2 07110000 		.4byte	.LASF15
 2932 00b6 03       		.byte	0x3
 2933 00b7 14       		.byte	0x14
 2934 00b8 30000000 		.4byte	0x30
 2935 00bc 03       		.uleb128 0x3
 2936 00bd 760B0000 		.4byte	.LASF16
 2937 00c1 03       		.byte	0x3
 2938 00c2 18       		.byte	0x18
 2939 00c3 3B000000 		.4byte	0x3b
 2940 00c7 05       		.uleb128 0x5
 2941 00c8 BC000000 		.4byte	0xbc
 2942 00cc 03       		.uleb128 0x3
 2943 00cd E7110000 		.4byte	.LASF17
 2944 00d1 03       		.byte	0x3
 2945 00d2 20       		.byte	0x20
 2946 00d3 4D000000 		.4byte	0x4d
 2947 00d7 03       		.uleb128 0x3
 2948 00d8 50010000 		.4byte	.LASF18
 2949 00dc 03       		.byte	0x3
 2950 00dd 24       		.byte	0x24
 2951 00de 5F000000 		.4byte	0x5f
 2952 00e2 03       		.uleb128 0x3
 2953 00e3 B5020000 		.4byte	.LASF19
 2954 00e7 03       		.byte	0x3
 2955 00e8 2C       		.byte	0x2c
 2956 00e9 71000000 		.4byte	0x71
 2957 00ed 03       		.uleb128 0x3
 2958 00ee AC140000 		.4byte	.LASF20
 2959 00f2 03       		.byte	0x3
 2960 00f3 30       		.byte	0x30
 2961 00f4 83000000 		.4byte	0x83
 2962 00f8 05       		.uleb128 0x5
 2963 00f9 ED000000 		.4byte	0xed
 2964 00fd 06       		.uleb128 0x6
 2965 00fe E0120000 		.4byte	.LASF21
 2966 0102 04       		.byte	0x4
 2967 0103 4A       		.byte	0x4a
 2968 0104 ED000000 		.4byte	0xed
 2969 0108 01       		.byte	0x1
 2970 0109 01       		.byte	0x1
 2971 010a 07       		.uleb128 0x7
 2972 010b C7000000 		.4byte	0xc7
 2973 010f 1A010000 		.4byte	0x11a
 2974 0113 08       		.uleb128 0x8
 2975 0114 AA000000 		.4byte	0xaa
ARM GAS  C:\Users\EBANO_~1\AppData\Local\Temp\cchbxRq9.s 			page 72


 2976 0118 0F       		.byte	0xf
 2977 0119 00       		.byte	0
 2978 011a 05       		.uleb128 0x5
 2979 011b 0A010000 		.4byte	0x10a
 2980 011f 06       		.uleb128 0x6
 2981 0120 BF1E0000 		.4byte	.LASF22
 2982 0124 04       		.byte	0x4
 2983 0125 4D       		.byte	0x4d
 2984 0126 1A010000 		.4byte	0x11a
 2985 012a 01       		.byte	0x1
 2986 012b 01       		.byte	0x1
 2987 012c 07       		.uleb128 0x7
 2988 012d C7000000 		.4byte	0xc7
 2989 0131 3C010000 		.4byte	0x13c
 2990 0135 08       		.uleb128 0x8
 2991 0136 AA000000 		.4byte	0xaa
 2992 013a 07       		.byte	0x7
 2993 013b 00       		.byte	0
 2994 013c 05       		.uleb128 0x5
 2995 013d 2C010000 		.4byte	0x12c
 2996 0141 06       		.uleb128 0x6
 2997 0142 14160000 		.4byte	.LASF23
 2998 0146 04       		.byte	0x4
 2999 0147 4E       		.byte	0x4e
 3000 0148 3C010000 		.4byte	0x13c
 3001 014c 01       		.byte	0x1
 3002 014d 01       		.byte	0x1
 3003 014e 07       		.uleb128 0x7
 3004 014f C7000000 		.4byte	0xc7
 3005 0153 5E010000 		.4byte	0x15e
 3006 0157 08       		.uleb128 0x8
 3007 0158 AA000000 		.4byte	0xaa
 3008 015c 08       		.byte	0x8
 3009 015d 00       		.byte	0
 3010 015e 05       		.uleb128 0x5
 3011 015f 4E010000 		.4byte	0x14e
 3012 0163 06       		.uleb128 0x6
 3013 0164 E4180000 		.4byte	.LASF24
 3014 0168 04       		.byte	0x4
 3015 0169 4F       		.byte	0x4f
 3016 016a 5E010000 		.4byte	0x15e
 3017 016e 01       		.byte	0x1
 3018 016f 01       		.byte	0x1
 3019 0170 03       		.uleb128 0x3
 3020 0171 580B0000 		.4byte	.LASF25
 3021 0175 05       		.byte	0x5
 3022 0176 D8       		.byte	0xd8
 3023 0177 AA000000 		.4byte	0xaa
 3024 017b 02       		.uleb128 0x2
 3025 017c 08       		.byte	0x8
 3026 017d 04       		.byte	0x4
 3027 017e 09150000 		.4byte	.LASF26
 3028 0182 09       		.uleb128 0x9
 3029 0183 04       		.byte	0x4
 3030 0184 03       		.uleb128 0x3
 3031 0185 56050000 		.4byte	.LASF27
 3032 0189 06       		.byte	0x6
ARM GAS  C:\Users\EBANO_~1\AppData\Local\Temp\cchbxRq9.s 			page 73


 3033 018a 22       		.byte	0x22
 3034 018b 8F010000 		.4byte	0x18f
 3035 018f 0A       		.uleb128 0xa
 3036 0190 04       		.byte	0x4
 3037 0191 95010000 		.4byte	0x195
 3038 0195 0B       		.uleb128 0xb
 3039 0196 2A040000 		.4byte	.LASF134
 3040 019a 01       		.byte	0x1
 3041 019b 03       		.uleb128 0x3
 3042 019c 2B0B0000 		.4byte	.LASF28
 3043 01a0 07       		.byte	0x7
 3044 01a1 2C       		.byte	0x2c
 3045 01a2 7C000000 		.4byte	0x7c
 3046 01a6 03       		.uleb128 0x3
 3047 01a7 08190000 		.4byte	.LASF29
 3048 01ab 07       		.byte	0x7
 3049 01ac 72       		.byte	0x72
 3050 01ad 7C000000 		.4byte	0x7c
 3051 01b1 0C       		.uleb128 0xc
 3052 01b2 230D0000 		.4byte	.LASF30
 3053 01b6 05       		.byte	0x5
 3054 01b7 6501     		.2byte	0x165
 3055 01b9 AA000000 		.4byte	0xaa
 3056 01bd 0D       		.uleb128 0xd
 3057 01be 04       		.byte	0x4
 3058 01bf 07       		.byte	0x7
 3059 01c0 A6       		.byte	0xa6
 3060 01c1 DC010000 		.4byte	0x1dc
 3061 01c5 0E       		.uleb128 0xe
 3062 01c6 71130000 		.4byte	.LASF31
 3063 01ca 07       		.byte	0x7
 3064 01cb A8       		.byte	0xa8
 3065 01cc B1010000 		.4byte	0x1b1
 3066 01d0 0E       		.uleb128 0xe
 3067 01d1 C90C0000 		.4byte	.LASF32
 3068 01d5 07       		.byte	0x7
 3069 01d6 A9       		.byte	0xa9
 3070 01d7 DC010000 		.4byte	0x1dc
 3071 01db 00       		.byte	0
 3072 01dc 07       		.uleb128 0x7
 3073 01dd 46000000 		.4byte	0x46
 3074 01e1 EC010000 		.4byte	0x1ec
 3075 01e5 08       		.uleb128 0x8
 3076 01e6 AA000000 		.4byte	0xaa
 3077 01ea 03       		.byte	0x3
 3078 01eb 00       		.byte	0
 3079 01ec 0F       		.uleb128 0xf
 3080 01ed 08       		.byte	0x8
 3081 01ee 07       		.byte	0x7
 3082 01ef A3       		.byte	0xa3
 3083 01f0 11020000 		.4byte	0x211
 3084 01f4 10       		.uleb128 0x10
 3085 01f5 6E0B0000 		.4byte	.LASF33
 3086 01f9 07       		.byte	0x7
 3087 01fa A5       		.byte	0xa5
 3088 01fb A3000000 		.4byte	0xa3
 3089 01ff 02       		.byte	0x2
ARM GAS  C:\Users\EBANO_~1\AppData\Local\Temp\cchbxRq9.s 			page 74


 3090 0200 23       		.byte	0x23
 3091 0201 00       		.uleb128 0
 3092 0202 10       		.uleb128 0x10
 3093 0203 F2190000 		.4byte	.LASF34
 3094 0207 07       		.byte	0x7
 3095 0208 AA       		.byte	0xaa
 3096 0209 BD010000 		.4byte	0x1bd
 3097 020d 02       		.byte	0x2
 3098 020e 23       		.byte	0x23
 3099 020f 04       		.uleb128 0x4
 3100 0210 00       		.byte	0
 3101 0211 03       		.uleb128 0x3
 3102 0212 77190000 		.4byte	.LASF35
 3103 0216 07       		.byte	0x7
 3104 0217 AB       		.byte	0xab
 3105 0218 EC010000 		.4byte	0x1ec
 3106 021c 03       		.uleb128 0x3
 3107 021d 331D0000 		.4byte	.LASF36
 3108 0221 07       		.byte	0x7
 3109 0222 AF       		.byte	0xaf
 3110 0223 84010000 		.4byte	0x184
 3111 0227 03       		.uleb128 0x3
 3112 0228 33110000 		.4byte	.LASF37
 3113 022c 08       		.byte	0x8
 3114 022d 16       		.byte	0x16
 3115 022e 8E000000 		.4byte	0x8e
 3116 0232 11       		.uleb128 0x11
 3117 0233 B0160000 		.4byte	.LASF42
 3118 0237 18       		.byte	0x18
 3119 0238 08       		.byte	0x8
 3120 0239 2F       		.byte	0x2f
 3121 023a 91020000 		.4byte	0x291
 3122 023e 10       		.uleb128 0x10
 3123 023f 8C0E0000 		.4byte	.LASF38
 3124 0243 08       		.byte	0x8
 3125 0244 31       		.byte	0x31
 3126 0245 91020000 		.4byte	0x291
 3127 0249 02       		.byte	0x2
 3128 024a 23       		.byte	0x23
 3129 024b 00       		.uleb128 0
 3130 024c 12       		.uleb128 0x12
 3131 024d 5F6B00   		.ascii	"_k\000"
 3132 0250 08       		.byte	0x8
 3133 0251 32       		.byte	0x32
 3134 0252 A3000000 		.4byte	0xa3
 3135 0256 02       		.byte	0x2
 3136 0257 23       		.byte	0x23
 3137 0258 04       		.uleb128 0x4
 3138 0259 10       		.uleb128 0x10
 3139 025a D3140000 		.4byte	.LASF39
 3140 025e 08       		.byte	0x8
 3141 025f 32       		.byte	0x32
 3142 0260 A3000000 		.4byte	0xa3
 3143 0264 02       		.byte	0x2
 3144 0265 23       		.byte	0x23
 3145 0266 08       		.uleb128 0x8
 3146 0267 10       		.uleb128 0x10
ARM GAS  C:\Users\EBANO_~1\AppData\Local\Temp\cchbxRq9.s 			page 75


 3147 0268 2A200000 		.4byte	.LASF40
 3148 026c 08       		.byte	0x8
 3149 026d 32       		.byte	0x32
 3150 026e A3000000 		.4byte	0xa3
 3151 0272 02       		.byte	0x2
 3152 0273 23       		.byte	0x23
 3153 0274 0C       		.uleb128 0xc
 3154 0275 10       		.uleb128 0x10
 3155 0276 8A070000 		.4byte	.LASF41
 3156 027a 08       		.byte	0x8
 3157 027b 32       		.byte	0x32
 3158 027c A3000000 		.4byte	0xa3
 3159 0280 02       		.byte	0x2
 3160 0281 23       		.byte	0x23
 3161 0282 10       		.uleb128 0x10
 3162 0283 12       		.uleb128 0x12
 3163 0284 5F7800   		.ascii	"_x\000"
 3164 0287 08       		.byte	0x8
 3165 0288 33       		.byte	0x33
 3166 0289 97020000 		.4byte	0x297
 3167 028d 02       		.byte	0x2
 3168 028e 23       		.byte	0x23
 3169 028f 14       		.uleb128 0x14
 3170 0290 00       		.byte	0
 3171 0291 0A       		.uleb128 0xa
 3172 0292 04       		.byte	0x4
 3173 0293 32020000 		.4byte	0x232
 3174 0297 07       		.uleb128 0x7
 3175 0298 27020000 		.4byte	0x227
 3176 029c A7020000 		.4byte	0x2a7
 3177 02a0 08       		.uleb128 0x8
 3178 02a1 AA000000 		.4byte	0xaa
 3179 02a5 00       		.byte	0
 3180 02a6 00       		.byte	0
 3181 02a7 11       		.uleb128 0x11
 3182 02a8 D1040000 		.4byte	.LASF43
 3183 02ac 24       		.byte	0x24
 3184 02ad 08       		.byte	0x8
 3185 02ae 37       		.byte	0x37
 3186 02af 32030000 		.4byte	0x332
 3187 02b3 10       		.uleb128 0x10
 3188 02b4 38100000 		.4byte	.LASF44
 3189 02b8 08       		.byte	0x8
 3190 02b9 39       		.byte	0x39
 3191 02ba A3000000 		.4byte	0xa3
 3192 02be 02       		.byte	0x2
 3193 02bf 23       		.byte	0x23
 3194 02c0 00       		.uleb128 0
 3195 02c1 10       		.uleb128 0x10
 3196 02c2 39200000 		.4byte	.LASF45
 3197 02c6 08       		.byte	0x8
 3198 02c7 3A       		.byte	0x3a
 3199 02c8 A3000000 		.4byte	0xa3
 3200 02cc 02       		.byte	0x2
 3201 02cd 23       		.byte	0x23
 3202 02ce 04       		.uleb128 0x4
 3203 02cf 10       		.uleb128 0x10
ARM GAS  C:\Users\EBANO_~1\AppData\Local\Temp\cchbxRq9.s 			page 76


 3204 02d0 DF0C0000 		.4byte	.LASF46
 3205 02d4 08       		.byte	0x8
 3206 02d5 3B       		.byte	0x3b
 3207 02d6 A3000000 		.4byte	0xa3
 3208 02da 02       		.byte	0x2
 3209 02db 23       		.byte	0x23
 3210 02dc 08       		.uleb128 0x8
 3211 02dd 10       		.uleb128 0x10
 3212 02de EE0D0000 		.4byte	.LASF47
 3213 02e2 08       		.byte	0x8
 3214 02e3 3C       		.byte	0x3c
 3215 02e4 A3000000 		.4byte	0xa3
 3216 02e8 02       		.byte	0x2
 3217 02e9 23       		.byte	0x23
 3218 02ea 0C       		.uleb128 0xc
 3219 02eb 10       		.uleb128 0x10
 3220 02ec 20010000 		.4byte	.LASF48
 3221 02f0 08       		.byte	0x8
 3222 02f1 3D       		.byte	0x3d
 3223 02f2 A3000000 		.4byte	0xa3
 3224 02f6 02       		.byte	0x2
 3225 02f7 23       		.byte	0x23
 3226 02f8 10       		.uleb128 0x10
 3227 02f9 10       		.uleb128 0x10
 3228 02fa ED080000 		.4byte	.LASF49
 3229 02fe 08       		.byte	0x8
 3230 02ff 3E       		.byte	0x3e
 3231 0300 A3000000 		.4byte	0xa3
 3232 0304 02       		.byte	0x2
 3233 0305 23       		.byte	0x23
 3234 0306 14       		.uleb128 0x14
 3235 0307 10       		.uleb128 0x10
 3236 0308 E2060000 		.4byte	.LASF50
 3237 030c 08       		.byte	0x8
 3238 030d 3F       		.byte	0x3f
 3239 030e A3000000 		.4byte	0xa3
 3240 0312 02       		.byte	0x2
 3241 0313 23       		.byte	0x23
 3242 0314 18       		.uleb128 0x18
 3243 0315 10       		.uleb128 0x10
 3244 0316 24050000 		.4byte	.LASF51
 3245 031a 08       		.byte	0x8
 3246 031b 40       		.byte	0x40
 3247 031c A3000000 		.4byte	0xa3
 3248 0320 02       		.byte	0x2
 3249 0321 23       		.byte	0x23
 3250 0322 1C       		.uleb128 0x1c
 3251 0323 10       		.uleb128 0x10
 3252 0324 EC060000 		.4byte	.LASF52
 3253 0328 08       		.byte	0x8
 3254 0329 41       		.byte	0x41
 3255 032a A3000000 		.4byte	0xa3
 3256 032e 02       		.byte	0x2
 3257 032f 23       		.byte	0x23
 3258 0330 20       		.uleb128 0x20
 3259 0331 00       		.byte	0
 3260 0332 13       		.uleb128 0x13
ARM GAS  C:\Users\EBANO_~1\AppData\Local\Temp\cchbxRq9.s 			page 77


 3261 0333 41100000 		.4byte	.LASF53
 3262 0337 0801     		.2byte	0x108
 3263 0339 08       		.byte	0x8
 3264 033a 4A       		.byte	0x4a
 3265 033b 7B030000 		.4byte	0x37b
 3266 033f 10       		.uleb128 0x10
 3267 0340 F80D0000 		.4byte	.LASF54
 3268 0344 08       		.byte	0x8
 3269 0345 4B       		.byte	0x4b
 3270 0346 7B030000 		.4byte	0x37b
 3271 034a 02       		.byte	0x2
 3272 034b 23       		.byte	0x23
 3273 034c 00       		.uleb128 0
 3274 034d 10       		.uleb128 0x10
 3275 034e C3060000 		.4byte	.LASF55
 3276 0352 08       		.byte	0x8
 3277 0353 4C       		.byte	0x4c
 3278 0354 7B030000 		.4byte	0x37b
 3279 0358 03       		.byte	0x3
 3280 0359 23       		.byte	0x23
 3281 035a 8001     		.uleb128 0x80
 3282 035c 10       		.uleb128 0x10
 3283 035d 29010000 		.4byte	.LASF56
 3284 0361 08       		.byte	0x8
 3285 0362 4E       		.byte	0x4e
 3286 0363 27020000 		.4byte	0x227
 3287 0367 03       		.byte	0x3
 3288 0368 23       		.byte	0x23
 3289 0369 8002     		.uleb128 0x100
 3290 036b 10       		.uleb128 0x10
 3291 036c 0A1A0000 		.4byte	.LASF57
 3292 0370 08       		.byte	0x8
 3293 0371 51       		.byte	0x51
 3294 0372 27020000 		.4byte	0x227
 3295 0376 03       		.byte	0x3
 3296 0377 23       		.byte	0x23
 3297 0378 8402     		.uleb128 0x104
 3298 037a 00       		.byte	0
 3299 037b 07       		.uleb128 0x7
 3300 037c 82010000 		.4byte	0x182
 3301 0380 8B030000 		.4byte	0x38b
 3302 0384 08       		.uleb128 0x8
 3303 0385 AA000000 		.4byte	0xaa
 3304 0389 1F       		.byte	0x1f
 3305 038a 00       		.byte	0
 3306 038b 13       		.uleb128 0x13
 3307 038c EF000000 		.4byte	.LASF58
 3308 0390 9001     		.2byte	0x190
 3309 0392 08       		.byte	0x8
 3310 0393 5D       		.byte	0x5d
 3311 0394 D2030000 		.4byte	0x3d2
 3312 0398 10       		.uleb128 0x10
 3313 0399 8C0E0000 		.4byte	.LASF38
 3314 039d 08       		.byte	0x8
 3315 039e 5E       		.byte	0x5e
 3316 039f D2030000 		.4byte	0x3d2
 3317 03a3 02       		.byte	0x2
ARM GAS  C:\Users\EBANO_~1\AppData\Local\Temp\cchbxRq9.s 			page 78


 3318 03a4 23       		.byte	0x23
 3319 03a5 00       		.uleb128 0
 3320 03a6 10       		.uleb128 0x10
 3321 03a7 37010000 		.4byte	.LASF59
 3322 03ab 08       		.byte	0x8
 3323 03ac 5F       		.byte	0x5f
 3324 03ad A3000000 		.4byte	0xa3
 3325 03b1 02       		.byte	0x2
 3326 03b2 23       		.byte	0x23
 3327 03b3 04       		.uleb128 0x4
 3328 03b4 10       		.uleb128 0x10
 3329 03b5 3C190000 		.4byte	.LASF60
 3330 03b9 08       		.byte	0x8
 3331 03ba 61       		.byte	0x61
 3332 03bb D8030000 		.4byte	0x3d8
 3333 03bf 02       		.byte	0x2
 3334 03c0 23       		.byte	0x23
 3335 03c1 08       		.uleb128 0x8
 3336 03c2 10       		.uleb128 0x10
 3337 03c3 41100000 		.4byte	.LASF53
 3338 03c7 08       		.byte	0x8
 3339 03c8 62       		.byte	0x62
 3340 03c9 32030000 		.4byte	0x332
 3341 03cd 03       		.byte	0x3
 3342 03ce 23       		.byte	0x23
 3343 03cf 8801     		.uleb128 0x88
 3344 03d1 00       		.byte	0
 3345 03d2 0A       		.uleb128 0xa
 3346 03d3 04       		.byte	0x4
 3347 03d4 8B030000 		.4byte	0x38b
 3348 03d8 07       		.uleb128 0x7
 3349 03d9 E8030000 		.4byte	0x3e8
 3350 03dd E8030000 		.4byte	0x3e8
 3351 03e1 08       		.uleb128 0x8
 3352 03e2 AA000000 		.4byte	0xaa
 3353 03e6 1F       		.byte	0x1f
 3354 03e7 00       		.byte	0
 3355 03e8 0A       		.uleb128 0xa
 3356 03e9 04       		.byte	0x4
 3357 03ea EE030000 		.4byte	0x3ee
 3358 03ee 14       		.uleb128 0x14
 3359 03ef 01       		.byte	0x1
 3360 03f0 11       		.uleb128 0x11
 3361 03f1 0C130000 		.4byte	.LASF61
 3362 03f5 08       		.byte	0x8
 3363 03f6 08       		.byte	0x8
 3364 03f7 75       		.byte	0x75
 3365 03f8 19040000 		.4byte	0x419
 3366 03fc 10       		.uleb128 0x10
 3367 03fd 84040000 		.4byte	.LASF62
 3368 0401 08       		.byte	0x8
 3369 0402 76       		.byte	0x76
 3370 0403 19040000 		.4byte	0x419
 3371 0407 02       		.byte	0x2
 3372 0408 23       		.byte	0x23
 3373 0409 00       		.uleb128 0
 3374 040a 10       		.uleb128 0x10
ARM GAS  C:\Users\EBANO_~1\AppData\Local\Temp\cchbxRq9.s 			page 79


 3375 040b 40080000 		.4byte	.LASF63
 3376 040f 08       		.byte	0x8
 3377 0410 77       		.byte	0x77
 3378 0411 A3000000 		.4byte	0xa3
 3379 0415 02       		.byte	0x2
 3380 0416 23       		.byte	0x23
 3381 0417 04       		.uleb128 0x4
 3382 0418 00       		.byte	0
 3383 0419 0A       		.uleb128 0xa
 3384 041a 04       		.byte	0x4
 3385 041b 46000000 		.4byte	0x46
 3386 041f 11       		.uleb128 0x11
 3387 0420 2D190000 		.4byte	.LASF64
 3388 0424 68       		.byte	0x68
 3389 0425 08       		.byte	0x8
 3390 0426 B5       		.byte	0xb5
 3391 0427 79050000 		.4byte	0x579
 3392 042b 12       		.uleb128 0x12
 3393 042c 5F7000   		.ascii	"_p\000"
 3394 042f 08       		.byte	0x8
 3395 0430 B6       		.byte	0xb6
 3396 0431 19040000 		.4byte	0x419
 3397 0435 02       		.byte	0x2
 3398 0436 23       		.byte	0x23
 3399 0437 00       		.uleb128 0
 3400 0438 12       		.uleb128 0x12
 3401 0439 5F7200   		.ascii	"_r\000"
 3402 043c 08       		.byte	0x8
 3403 043d B7       		.byte	0xb7
 3404 043e A3000000 		.4byte	0xa3
 3405 0442 02       		.byte	0x2
 3406 0443 23       		.byte	0x23
 3407 0444 04       		.uleb128 0x4
 3408 0445 12       		.uleb128 0x12
 3409 0446 5F7700   		.ascii	"_w\000"
 3410 0449 08       		.byte	0x8
 3411 044a B8       		.byte	0xb8
 3412 044b A3000000 		.4byte	0xa3
 3413 044f 02       		.byte	0x2
 3414 0450 23       		.byte	0x23
 3415 0451 08       		.uleb128 0x8
 3416 0452 10       		.uleb128 0x10
 3417 0453 86010000 		.4byte	.LASF65
 3418 0457 08       		.byte	0x8
 3419 0458 B9       		.byte	0xb9
 3420 0459 58000000 		.4byte	0x58
 3421 045d 02       		.byte	0x2
 3422 045e 23       		.byte	0x23
 3423 045f 0C       		.uleb128 0xc
 3424 0460 10       		.uleb128 0x10
 3425 0461 18190000 		.4byte	.LASF66
 3426 0465 08       		.byte	0x8
 3427 0466 BA       		.byte	0xba
 3428 0467 58000000 		.4byte	0x58
 3429 046b 02       		.byte	0x2
 3430 046c 23       		.byte	0x23
 3431 046d 0E       		.uleb128 0xe
ARM GAS  C:\Users\EBANO_~1\AppData\Local\Temp\cchbxRq9.s 			page 80


 3432 046e 12       		.uleb128 0x12
 3433 046f 5F626600 		.ascii	"_bf\000"
 3434 0473 08       		.byte	0x8
 3435 0474 BB       		.byte	0xbb
 3436 0475 F0030000 		.4byte	0x3f0
 3437 0479 02       		.byte	0x2
 3438 047a 23       		.byte	0x23
 3439 047b 10       		.uleb128 0x10
 3440 047c 10       		.uleb128 0x10
 3441 047d 54030000 		.4byte	.LASF67
 3442 0481 08       		.byte	0x8
 3443 0482 BC       		.byte	0xbc
 3444 0483 A3000000 		.4byte	0xa3
 3445 0487 02       		.byte	0x2
 3446 0488 23       		.byte	0x23
 3447 0489 18       		.uleb128 0x18
 3448 048a 10       		.uleb128 0x10
 3449 048b C50E0000 		.4byte	.LASF68
 3450 048f 08       		.byte	0x8
 3451 0490 C3       		.byte	0xc3
 3452 0491 82010000 		.4byte	0x182
 3453 0495 02       		.byte	0x2
 3454 0496 23       		.byte	0x23
 3455 0497 1C       		.uleb128 0x1c
 3456 0498 10       		.uleb128 0x10
 3457 0499 FE200000 		.4byte	.LASF69
 3458 049d 08       		.byte	0x8
 3459 049e C5       		.byte	0xc5
 3460 049f 13070000 		.4byte	0x713
 3461 04a3 02       		.byte	0x2
 3462 04a4 23       		.byte	0x23
 3463 04a5 20       		.uleb128 0x20
 3464 04a6 10       		.uleb128 0x10
 3465 04a7 4E080000 		.4byte	.LASF70
 3466 04ab 08       		.byte	0x8
 3467 04ac C7       		.byte	0xc7
 3468 04ad 3E070000 		.4byte	0x73e
 3469 04b1 02       		.byte	0x2
 3470 04b2 23       		.byte	0x23
 3471 04b3 24       		.uleb128 0x24
 3472 04b4 10       		.uleb128 0x10
 3473 04b5 D4110000 		.4byte	.LASF71
 3474 04b9 08       		.byte	0x8
 3475 04ba CA       		.byte	0xca
 3476 04bb 63070000 		.4byte	0x763
 3477 04bf 02       		.byte	0x2
 3478 04c0 23       		.byte	0x23
 3479 04c1 28       		.uleb128 0x28
 3480 04c2 10       		.uleb128 0x10
 3481 04c3 AF150000 		.4byte	.LASF72
 3482 04c7 08       		.byte	0x8
 3483 04c8 CB       		.byte	0xcb
 3484 04c9 7E070000 		.4byte	0x77e
 3485 04cd 02       		.byte	0x2
 3486 04ce 23       		.byte	0x23
 3487 04cf 2C       		.uleb128 0x2c
 3488 04d0 12       		.uleb128 0x12
ARM GAS  C:\Users\EBANO_~1\AppData\Local\Temp\cchbxRq9.s 			page 81


 3489 04d1 5F756200 		.ascii	"_ub\000"
 3490 04d5 08       		.byte	0x8
 3491 04d6 CE       		.byte	0xce
 3492 04d7 F0030000 		.4byte	0x3f0
 3493 04db 02       		.byte	0x2
 3494 04dc 23       		.byte	0x23
 3495 04dd 30       		.uleb128 0x30
 3496 04de 12       		.uleb128 0x12
 3497 04df 5F757000 		.ascii	"_up\000"
 3498 04e3 08       		.byte	0x8
 3499 04e4 CF       		.byte	0xcf
 3500 04e5 19040000 		.4byte	0x419
 3501 04e9 02       		.byte	0x2
 3502 04ea 23       		.byte	0x23
 3503 04eb 38       		.uleb128 0x38
 3504 04ec 12       		.uleb128 0x12
 3505 04ed 5F757200 		.ascii	"_ur\000"
 3506 04f1 08       		.byte	0x8
 3507 04f2 D0       		.byte	0xd0
 3508 04f3 A3000000 		.4byte	0xa3
 3509 04f7 02       		.byte	0x2
 3510 04f8 23       		.byte	0x23
 3511 04f9 3C       		.uleb128 0x3c
 3512 04fa 10       		.uleb128 0x10
 3513 04fb 5D180000 		.4byte	.LASF73
 3514 04ff 08       		.byte	0x8
 3515 0500 D3       		.byte	0xd3
 3516 0501 84070000 		.4byte	0x784
 3517 0505 02       		.byte	0x2
 3518 0506 23       		.byte	0x23
 3519 0507 40       		.uleb128 0x40
 3520 0508 10       		.uleb128 0x10
 3521 0509 00020000 		.4byte	.LASF74
 3522 050d 08       		.byte	0x8
 3523 050e D4       		.byte	0xd4
 3524 050f 94070000 		.4byte	0x794
 3525 0513 02       		.byte	0x2
 3526 0514 23       		.byte	0x23
 3527 0515 43       		.uleb128 0x43
 3528 0516 12       		.uleb128 0x12
 3529 0517 5F6C6200 		.ascii	"_lb\000"
 3530 051b 08       		.byte	0x8
 3531 051c D7       		.byte	0xd7
 3532 051d F0030000 		.4byte	0x3f0
 3533 0521 02       		.byte	0x2
 3534 0522 23       		.byte	0x23
 3535 0523 44       		.uleb128 0x44
 3536 0524 10       		.uleb128 0x10
 3537 0525 45180000 		.4byte	.LASF75
 3538 0529 08       		.byte	0x8
 3539 052a DA       		.byte	0xda
 3540 052b A3000000 		.4byte	0xa3
 3541 052f 02       		.byte	0x2
 3542 0530 23       		.byte	0x23
 3543 0531 4C       		.uleb128 0x4c
 3544 0532 10       		.uleb128 0x10
 3545 0533 D8120000 		.4byte	.LASF76
ARM GAS  C:\Users\EBANO_~1\AppData\Local\Temp\cchbxRq9.s 			page 82


 3546 0537 08       		.byte	0x8
 3547 0538 DB       		.byte	0xdb
 3548 0539 9B010000 		.4byte	0x19b
 3549 053d 02       		.byte	0x2
 3550 053e 23       		.byte	0x23
 3551 053f 50       		.uleb128 0x50
 3552 0540 10       		.uleb128 0x10
 3553 0541 9B030000 		.4byte	.LASF77
 3554 0545 08       		.byte	0x8
 3555 0546 DE       		.byte	0xde
 3556 0547 98050000 		.4byte	0x598
 3557 054b 02       		.byte	0x2
 3558 054c 23       		.byte	0x23
 3559 054d 54       		.uleb128 0x54
 3560 054e 10       		.uleb128 0x10
 3561 054f FA010000 		.4byte	.LASF78
 3562 0553 08       		.byte	0x8
 3563 0554 E2       		.byte	0xe2
 3564 0555 1C020000 		.4byte	0x21c
 3565 0559 02       		.byte	0x2
 3566 055a 23       		.byte	0x23
 3567 055b 58       		.uleb128 0x58
 3568 055c 10       		.uleb128 0x10
 3569 055d DA000000 		.4byte	.LASF79
 3570 0561 08       		.byte	0x8
 3571 0562 E4       		.byte	0xe4
 3572 0563 11020000 		.4byte	0x211
 3573 0567 02       		.byte	0x2
 3574 0568 23       		.byte	0x23
 3575 0569 5C       		.uleb128 0x5c
 3576 056a 10       		.uleb128 0x10
 3577 056b 0E1E0000 		.4byte	.LASF80
 3578 056f 08       		.byte	0x8
 3579 0570 E5       		.byte	0xe5
 3580 0571 A3000000 		.4byte	0xa3
 3581 0575 02       		.byte	0x2
 3582 0576 23       		.byte	0x23
 3583 0577 64       		.uleb128 0x64
 3584 0578 00       		.byte	0
 3585 0579 15       		.uleb128 0x15
 3586 057a 01       		.byte	0x1
 3587 057b A3000000 		.4byte	0xa3
 3588 057f 98050000 		.4byte	0x598
 3589 0583 16       		.uleb128 0x16
 3590 0584 98050000 		.4byte	0x598
 3591 0588 16       		.uleb128 0x16
 3592 0589 82010000 		.4byte	0x182
 3593 058d 16       		.uleb128 0x16
 3594 058e 01070000 		.4byte	0x701
 3595 0592 16       		.uleb128 0x16
 3596 0593 A3000000 		.4byte	0xa3
 3597 0597 00       		.byte	0
 3598 0598 0A       		.uleb128 0xa
 3599 0599 04       		.byte	0x4
 3600 059a A3050000 		.4byte	0x5a3
 3601 059e 05       		.uleb128 0x5
 3602 059f 98050000 		.4byte	0x598
ARM GAS  C:\Users\EBANO_~1\AppData\Local\Temp\cchbxRq9.s 			page 83


 3603 05a3 17       		.uleb128 0x17
 3604 05a4 31040000 		.4byte	.LASF81
 3605 05a8 2804     		.2byte	0x428
 3606 05aa 08       		.byte	0x8
 3607 05ab 6002     		.2byte	0x260
 3608 05ad 01070000 		.4byte	0x701
 3609 05b1 18       		.uleb128 0x18
 3610 05b2 CB0D0000 		.4byte	.LASF82
 3611 05b6 08       		.byte	0x8
 3612 05b7 6202     		.2byte	0x262
 3613 05b9 A3000000 		.4byte	0xa3
 3614 05bd 02       		.byte	0x2
 3615 05be 23       		.byte	0x23
 3616 05bf 00       		.uleb128 0
 3617 05c0 18       		.uleb128 0x18
 3618 05c1 AD0A0000 		.4byte	.LASF83
 3619 05c5 08       		.byte	0x8
 3620 05c6 6702     		.2byte	0x267
 3621 05c8 F1070000 		.4byte	0x7f1
 3622 05cc 02       		.byte	0x2
 3623 05cd 23       		.byte	0x23
 3624 05ce 04       		.uleb128 0x4
 3625 05cf 18       		.uleb128 0x18
 3626 05d0 4A070000 		.4byte	.LASF84
 3627 05d4 08       		.byte	0x8
 3628 05d5 6702     		.2byte	0x267
 3629 05d7 F1070000 		.4byte	0x7f1
 3630 05db 02       		.byte	0x2
 3631 05dc 23       		.byte	0x23
 3632 05dd 08       		.uleb128 0x8
 3633 05de 18       		.uleb128 0x18
 3634 05df A4060000 		.4byte	.LASF85
 3635 05e3 08       		.byte	0x8
 3636 05e4 6702     		.2byte	0x267
 3637 05e6 F1070000 		.4byte	0x7f1
 3638 05ea 02       		.byte	0x2
 3639 05eb 23       		.byte	0x23
 3640 05ec 0C       		.uleb128 0xc
 3641 05ed 18       		.uleb128 0x18
 3642 05ee 32010000 		.4byte	.LASF86
 3643 05f2 08       		.byte	0x8
 3644 05f3 6902     		.2byte	0x269
 3645 05f5 A3000000 		.4byte	0xa3
 3646 05f9 02       		.byte	0x2
 3647 05fa 23       		.byte	0x23
 3648 05fb 10       		.uleb128 0x10
 3649 05fc 18       		.uleb128 0x18
 3650 05fd 75140000 		.4byte	.LASF87
 3651 0601 08       		.byte	0x8
 3652 0602 6A02     		.2byte	0x26a
 3653 0604 0C0A0000 		.4byte	0xa0c
 3654 0608 02       		.byte	0x2
 3655 0609 23       		.byte	0x23
 3656 060a 14       		.uleb128 0x14
 3657 060b 18       		.uleb128 0x18
 3658 060c 941C0000 		.4byte	.LASF88
 3659 0610 08       		.byte	0x8
ARM GAS  C:\Users\EBANO_~1\AppData\Local\Temp\cchbxRq9.s 			page 84


 3660 0611 6D02     		.2byte	0x26d
 3661 0613 A3000000 		.4byte	0xa3
 3662 0617 02       		.byte	0x2
 3663 0618 23       		.byte	0x23
 3664 0619 30       		.uleb128 0x30
 3665 061a 18       		.uleb128 0x18
 3666 061b 841E0000 		.4byte	.LASF89
 3667 061f 08       		.byte	0x8
 3668 0620 6E02     		.2byte	0x26e
 3669 0622 220A0000 		.4byte	0xa22
 3670 0626 02       		.byte	0x2
 3671 0627 23       		.byte	0x23
 3672 0628 34       		.uleb128 0x34
 3673 0629 18       		.uleb128 0x18
 3674 062a E41C0000 		.4byte	.LASF90
 3675 062e 08       		.byte	0x8
 3676 062f 7002     		.2byte	0x270
 3677 0631 A3000000 		.4byte	0xa3
 3678 0635 02       		.byte	0x2
 3679 0636 23       		.byte	0x23
 3680 0637 38       		.uleb128 0x38
 3681 0638 18       		.uleb128 0x18
 3682 0639 A1180000 		.4byte	.LASF91
 3683 063d 08       		.byte	0x8
 3684 063e 7202     		.2byte	0x272
 3685 0640 340A0000 		.4byte	0xa34
 3686 0644 02       		.byte	0x2
 3687 0645 23       		.byte	0x23
 3688 0646 3C       		.uleb128 0x3c
 3689 0647 18       		.uleb128 0x18
 3690 0648 AC060000 		.4byte	.LASF92
 3691 064c 08       		.byte	0x8
 3692 064d 7502     		.2byte	0x275
 3693 064f 91020000 		.4byte	0x291
 3694 0653 02       		.byte	0x2
 3695 0654 23       		.byte	0x23
 3696 0655 40       		.uleb128 0x40
 3697 0656 18       		.uleb128 0x18
 3698 0657 9A060000 		.4byte	.LASF93
 3699 065b 08       		.byte	0x8
 3700 065c 7602     		.2byte	0x276
 3701 065e A3000000 		.4byte	0xa3
 3702 0662 02       		.byte	0x2
 3703 0663 23       		.byte	0x23
 3704 0664 44       		.uleb128 0x44
 3705 0665 18       		.uleb128 0x18
 3706 0666 441A0000 		.4byte	.LASF94
 3707 066a 08       		.byte	0x8
 3708 066b 7702     		.2byte	0x277
 3709 066d 91020000 		.4byte	0x291
 3710 0671 02       		.byte	0x2
 3711 0672 23       		.byte	0x23
 3712 0673 48       		.uleb128 0x48
 3713 0674 18       		.uleb128 0x18
 3714 0675 A9120000 		.4byte	.LASF95
 3715 0679 08       		.byte	0x8
 3716 067a 7802     		.2byte	0x278
ARM GAS  C:\Users\EBANO_~1\AppData\Local\Temp\cchbxRq9.s 			page 85


 3717 067c 3A0A0000 		.4byte	0xa3a
 3718 0680 02       		.byte	0x2
 3719 0681 23       		.byte	0x23
 3720 0682 4C       		.uleb128 0x4c
 3721 0683 18       		.uleb128 0x18
 3722 0684 9C010000 		.4byte	.LASF96
 3723 0688 08       		.byte	0x8
 3724 0689 7B02     		.2byte	0x27b
 3725 068b A3000000 		.4byte	0xa3
 3726 068f 02       		.byte	0x2
 3727 0690 23       		.byte	0x23
 3728 0691 50       		.uleb128 0x50
 3729 0692 18       		.uleb128 0x18
 3730 0693 3C0C0000 		.4byte	.LASF97
 3731 0697 08       		.byte	0x8
 3732 0698 7C02     		.2byte	0x27c
 3733 069a 01070000 		.4byte	0x701
 3734 069e 02       		.byte	0x2
 3735 069f 23       		.byte	0x23
 3736 06a0 54       		.uleb128 0x54
 3737 06a1 18       		.uleb128 0x18
 3738 06a2 390D0000 		.4byte	.LASF98
 3739 06a6 08       		.byte	0x8
 3740 06a7 9F02     		.2byte	0x29f
 3741 06a9 EA090000 		.4byte	0x9ea
 3742 06ad 02       		.byte	0x2
 3743 06ae 23       		.byte	0x23
 3744 06af 58       		.uleb128 0x58
 3745 06b0 18       		.uleb128 0x18
 3746 06b1 EF000000 		.4byte	.LASF58
 3747 06b5 08       		.byte	0x8
 3748 06b6 A302     		.2byte	0x2a3
 3749 06b8 D2030000 		.4byte	0x3d2
 3750 06bc 03       		.byte	0x3
 3751 06bd 23       		.byte	0x23
 3752 06be C802     		.uleb128 0x148
 3753 06c0 18       		.uleb128 0x18
 3754 06c1 FD160000 		.4byte	.LASF99
 3755 06c5 08       		.byte	0x8
 3756 06c6 A402     		.2byte	0x2a4
 3757 06c8 8B030000 		.4byte	0x38b
 3758 06cc 03       		.byte	0x3
 3759 06cd 23       		.byte	0x23
 3760 06ce CC02     		.uleb128 0x14c
 3761 06d0 18       		.uleb128 0x18
 3762 06d1 C5010000 		.4byte	.LASF100
 3763 06d5 08       		.byte	0x8
 3764 06d6 A802     		.2byte	0x2a8
 3765 06d8 4C0A0000 		.4byte	0xa4c
 3766 06dc 03       		.byte	0x3
 3767 06dd 23       		.byte	0x23
 3768 06de DC05     		.uleb128 0x2dc
 3769 06e0 18       		.uleb128 0x18
 3770 06e1 88180000 		.4byte	.LASF101
 3771 06e5 08       		.byte	0x8
 3772 06e6 AD02     		.2byte	0x2ad
 3773 06e8 B0070000 		.4byte	0x7b0
ARM GAS  C:\Users\EBANO_~1\AppData\Local\Temp\cchbxRq9.s 			page 86


 3774 06ec 03       		.byte	0x3
 3775 06ed 23       		.byte	0x23
 3776 06ee E005     		.uleb128 0x2e0
 3777 06f0 18       		.uleb128 0x18
 3778 06f1 7F040000 		.4byte	.LASF102
 3779 06f5 08       		.byte	0x8
 3780 06f6 AF02     		.2byte	0x2af
 3781 06f8 580A0000 		.4byte	0xa58
 3782 06fc 03       		.byte	0x3
 3783 06fd 23       		.byte	0x23
 3784 06fe EC05     		.uleb128 0x2ec
 3785 0700 00       		.byte	0
 3786 0701 0A       		.uleb128 0xa
 3787 0702 04       		.byte	0x4
 3788 0703 07070000 		.4byte	0x707
 3789 0707 02       		.uleb128 0x2
 3790 0708 01       		.byte	0x1
 3791 0709 08       		.byte	0x8
 3792 070a C7150000 		.4byte	.LASF103
 3793 070e 05       		.uleb128 0x5
 3794 070f 07070000 		.4byte	0x707
 3795 0713 0A       		.uleb128 0xa
 3796 0714 04       		.byte	0x4
 3797 0715 79050000 		.4byte	0x579
 3798 0719 15       		.uleb128 0x15
 3799 071a 01       		.byte	0x1
 3800 071b A3000000 		.4byte	0xa3
 3801 071f 38070000 		.4byte	0x738
 3802 0723 16       		.uleb128 0x16
 3803 0724 98050000 		.4byte	0x598
 3804 0728 16       		.uleb128 0x16
 3805 0729 82010000 		.4byte	0x182
 3806 072d 16       		.uleb128 0x16
 3807 072e 38070000 		.4byte	0x738
 3808 0732 16       		.uleb128 0x16
 3809 0733 A3000000 		.4byte	0xa3
 3810 0737 00       		.byte	0
 3811 0738 0A       		.uleb128 0xa
 3812 0739 04       		.byte	0x4
 3813 073a 0E070000 		.4byte	0x70e
 3814 073e 0A       		.uleb128 0xa
 3815 073f 04       		.byte	0x4
 3816 0740 19070000 		.4byte	0x719
 3817 0744 15       		.uleb128 0x15
 3818 0745 01       		.byte	0x1
 3819 0746 A6010000 		.4byte	0x1a6
 3820 074a 63070000 		.4byte	0x763
 3821 074e 16       		.uleb128 0x16
 3822 074f 98050000 		.4byte	0x598
 3823 0753 16       		.uleb128 0x16
 3824 0754 82010000 		.4byte	0x182
 3825 0758 16       		.uleb128 0x16
 3826 0759 A6010000 		.4byte	0x1a6
 3827 075d 16       		.uleb128 0x16
 3828 075e A3000000 		.4byte	0xa3
 3829 0762 00       		.byte	0
 3830 0763 0A       		.uleb128 0xa
ARM GAS  C:\Users\EBANO_~1\AppData\Local\Temp\cchbxRq9.s 			page 87


 3831 0764 04       		.byte	0x4
 3832 0765 44070000 		.4byte	0x744
 3833 0769 15       		.uleb128 0x15
 3834 076a 01       		.byte	0x1
 3835 076b A3000000 		.4byte	0xa3
 3836 076f 7E070000 		.4byte	0x77e
 3837 0773 16       		.uleb128 0x16
 3838 0774 98050000 		.4byte	0x598
 3839 0778 16       		.uleb128 0x16
 3840 0779 82010000 		.4byte	0x182
 3841 077d 00       		.byte	0
 3842 077e 0A       		.uleb128 0xa
 3843 077f 04       		.byte	0x4
 3844 0780 69070000 		.4byte	0x769
 3845 0784 07       		.uleb128 0x7
 3846 0785 46000000 		.4byte	0x46
 3847 0789 94070000 		.4byte	0x794
 3848 078d 08       		.uleb128 0x8
 3849 078e AA000000 		.4byte	0xaa
 3850 0792 02       		.byte	0x2
 3851 0793 00       		.byte	0
 3852 0794 07       		.uleb128 0x7
 3853 0795 46000000 		.4byte	0x46
 3854 0799 A4070000 		.4byte	0x7a4
 3855 079d 08       		.uleb128 0x8
 3856 079e AA000000 		.4byte	0xaa
 3857 07a2 00       		.byte	0
 3858 07a3 00       		.byte	0
 3859 07a4 0C       		.uleb128 0xc
 3860 07a5 B21F0000 		.4byte	.LASF104
 3861 07a9 08       		.byte	0x8
 3862 07aa 1F01     		.2byte	0x11f
 3863 07ac 1F040000 		.4byte	0x41f
 3864 07b0 19       		.uleb128 0x19
 3865 07b1 E8150000 		.4byte	.LASF105
 3866 07b5 0C       		.byte	0xc
 3867 07b6 08       		.byte	0x8
 3868 07b7 2301     		.2byte	0x123
 3869 07b9 EB070000 		.4byte	0x7eb
 3870 07bd 18       		.uleb128 0x18
 3871 07be 8C0E0000 		.4byte	.LASF38
 3872 07c2 08       		.byte	0x8
 3873 07c3 2501     		.2byte	0x125
 3874 07c5 EB070000 		.4byte	0x7eb
 3875 07c9 02       		.byte	0x2
 3876 07ca 23       		.byte	0x23
 3877 07cb 00       		.uleb128 0
 3878 07cc 18       		.uleb128 0x18
 3879 07cd 570D0000 		.4byte	.LASF106
 3880 07d1 08       		.byte	0x8
 3881 07d2 2601     		.2byte	0x126
 3882 07d4 A3000000 		.4byte	0xa3
 3883 07d8 02       		.byte	0x2
 3884 07d9 23       		.byte	0x23
 3885 07da 04       		.uleb128 0x4
 3886 07db 18       		.uleb128 0x18
 3887 07dc 6F140000 		.4byte	.LASF107
ARM GAS  C:\Users\EBANO_~1\AppData\Local\Temp\cchbxRq9.s 			page 88


 3888 07e0 08       		.byte	0x8
 3889 07e1 2701     		.2byte	0x127
 3890 07e3 F1070000 		.4byte	0x7f1
 3891 07e7 02       		.byte	0x2
 3892 07e8 23       		.byte	0x23
 3893 07e9 08       		.uleb128 0x8
 3894 07ea 00       		.byte	0
 3895 07eb 0A       		.uleb128 0xa
 3896 07ec 04       		.byte	0x4
 3897 07ed B0070000 		.4byte	0x7b0
 3898 07f1 0A       		.uleb128 0xa
 3899 07f2 04       		.byte	0x4
 3900 07f3 A4070000 		.4byte	0x7a4
 3901 07f7 19       		.uleb128 0x19
 3902 07f8 04210000 		.4byte	.LASF108
 3903 07fc 0E       		.byte	0xe
 3904 07fd 08       		.byte	0x8
 3905 07fe 3F01     		.2byte	0x13f
 3906 0800 32080000 		.4byte	0x832
 3907 0804 18       		.uleb128 0x18
 3908 0805 C2110000 		.4byte	.LASF109
 3909 0809 08       		.byte	0x8
 3910 080a 4001     		.2byte	0x140
 3911 080c 32080000 		.4byte	0x832
 3912 0810 02       		.byte	0x2
 3913 0811 23       		.byte	0x23
 3914 0812 00       		.uleb128 0
 3915 0813 18       		.uleb128 0x18
 3916 0814 CD090000 		.4byte	.LASF110
 3917 0818 08       		.byte	0x8
 3918 0819 4101     		.2byte	0x141
 3919 081b 32080000 		.4byte	0x832
 3920 081f 02       		.byte	0x2
 3921 0820 23       		.byte	0x23
 3922 0821 06       		.uleb128 0x6
 3923 0822 18       		.uleb128 0x18
 3924 0823 BD020000 		.4byte	.LASF111
 3925 0827 08       		.byte	0x8
 3926 0828 4201     		.2byte	0x142
 3927 082a 6A000000 		.4byte	0x6a
 3928 082e 02       		.byte	0x2
 3929 082f 23       		.byte	0x23
 3930 0830 0C       		.uleb128 0xc
 3931 0831 00       		.byte	0
 3932 0832 07       		.uleb128 0x7
 3933 0833 6A000000 		.4byte	0x6a
 3934 0837 42080000 		.4byte	0x842
 3935 083b 08       		.uleb128 0x8
 3936 083c AA000000 		.4byte	0xaa
 3937 0840 02       		.byte	0x2
 3938 0841 00       		.byte	0
 3939 0842 1A       		.uleb128 0x1a
 3940 0843 D0       		.byte	0xd0
 3941 0844 08       		.byte	0x8
 3942 0845 8002     		.2byte	0x280
 3943 0847 72090000 		.4byte	0x972
 3944 084b 18       		.uleb128 0x18
ARM GAS  C:\Users\EBANO_~1\AppData\Local\Temp\cchbxRq9.s 			page 89


 3945 084c FE050000 		.4byte	.LASF112
 3946 0850 08       		.byte	0x8
 3947 0851 8202     		.2byte	0x282
 3948 0853 AA000000 		.4byte	0xaa
 3949 0857 02       		.byte	0x2
 3950 0858 23       		.byte	0x23
 3951 0859 00       		.uleb128 0
 3952 085a 18       		.uleb128 0x18
 3953 085b 97110000 		.4byte	.LASF113
 3954 085f 08       		.byte	0x8
 3955 0860 8302     		.2byte	0x283
 3956 0862 01070000 		.4byte	0x701
 3957 0866 02       		.byte	0x2
 3958 0867 23       		.byte	0x23
 3959 0868 04       		.uleb128 0x4
 3960 0869 18       		.uleb128 0x18
 3961 086a 58130000 		.4byte	.LASF114
 3962 086e 08       		.byte	0x8
 3963 086f 8402     		.2byte	0x284
 3964 0871 72090000 		.4byte	0x972
 3965 0875 02       		.byte	0x2
 3966 0876 23       		.byte	0x23
 3967 0877 08       		.uleb128 0x8
 3968 0878 18       		.uleb128 0x18
 3969 0879 5F0B0000 		.4byte	.LASF115
 3970 087d 08       		.byte	0x8
 3971 087e 8502     		.2byte	0x285
 3972 0880 A7020000 		.4byte	0x2a7
 3973 0884 02       		.byte	0x2
 3974 0885 23       		.byte	0x23
 3975 0886 24       		.uleb128 0x24
 3976 0887 18       		.uleb128 0x18
 3977 0888 BC1B0000 		.4byte	.LASF116
 3978 088c 08       		.byte	0x8
 3979 088d 8602     		.2byte	0x286
 3980 088f A3000000 		.4byte	0xa3
 3981 0893 02       		.byte	0x2
 3982 0894 23       		.byte	0x23
 3983 0895 48       		.uleb128 0x48
 3984 0896 18       		.uleb128 0x18
 3985 0897 94140000 		.4byte	.LASF117
 3986 089b 08       		.byte	0x8
 3987 089c 8702     		.2byte	0x287
 3988 089e 9C000000 		.4byte	0x9c
 3989 08a2 02       		.byte	0x2
 3990 08a3 23       		.byte	0x23
 3991 08a4 50       		.uleb128 0x50
 3992 08a5 18       		.uleb128 0x18
 3993 08a6 5E200000 		.4byte	.LASF118
 3994 08aa 08       		.byte	0x8
 3995 08ab 8802     		.2byte	0x288
 3996 08ad F7070000 		.4byte	0x7f7
 3997 08b1 02       		.byte	0x2
 3998 08b2 23       		.byte	0x23
 3999 08b3 58       		.uleb128 0x58
 4000 08b4 18       		.uleb128 0x18
 4001 08b5 7B180000 		.4byte	.LASF119
ARM GAS  C:\Users\EBANO_~1\AppData\Local\Temp\cchbxRq9.s 			page 90


 4002 08b9 08       		.byte	0x8
 4003 08ba 8902     		.2byte	0x289
 4004 08bc 11020000 		.4byte	0x211
 4005 08c0 02       		.byte	0x2
 4006 08c1 23       		.byte	0x23
 4007 08c2 68       		.uleb128 0x68
 4008 08c3 18       		.uleb128 0x18
 4009 08c4 90040000 		.4byte	.LASF120
 4010 08c8 08       		.byte	0x8
 4011 08c9 8A02     		.2byte	0x28a
 4012 08cb 11020000 		.4byte	0x211
 4013 08cf 02       		.byte	0x2
 4014 08d0 23       		.byte	0x23
 4015 08d1 70       		.uleb128 0x70
 4016 08d2 18       		.uleb128 0x18
 4017 08d3 0C140000 		.4byte	.LASF121
 4018 08d7 08       		.byte	0x8
 4019 08d8 8B02     		.2byte	0x28b
 4020 08da 11020000 		.4byte	0x211
 4021 08de 02       		.byte	0x2
 4022 08df 23       		.byte	0x23
 4023 08e0 78       		.uleb128 0x78
 4024 08e1 18       		.uleb128 0x18
 4025 08e2 13130000 		.4byte	.LASF122
 4026 08e6 08       		.byte	0x8
 4027 08e7 8C02     		.2byte	0x28c
 4028 08e9 82090000 		.4byte	0x982
 4029 08ed 03       		.byte	0x3
 4030 08ee 23       		.byte	0x23
 4031 08ef 8001     		.uleb128 0x80
 4032 08f1 18       		.uleb128 0x18
 4033 08f2 B90E0000 		.4byte	.LASF123
 4034 08f6 08       		.byte	0x8
 4035 08f7 8D02     		.2byte	0x28d
 4036 08f9 92090000 		.4byte	0x992
 4037 08fd 03       		.byte	0x3
 4038 08fe 23       		.byte	0x23
 4039 08ff 8801     		.uleb128 0x88
 4040 0901 18       		.uleb128 0x18
 4041 0902 6A170000 		.4byte	.LASF124
 4042 0906 08       		.byte	0x8
 4043 0907 8E02     		.2byte	0x28e
 4044 0909 A3000000 		.4byte	0xa3
 4045 090d 03       		.byte	0x3
 4046 090e 23       		.byte	0x23
 4047 090f A001     		.uleb128 0xa0
 4048 0911 18       		.uleb128 0x18
 4049 0912 320A0000 		.4byte	.LASF125
 4050 0916 08       		.byte	0x8
 4051 0917 8F02     		.2byte	0x28f
 4052 0919 11020000 		.4byte	0x211
 4053 091d 03       		.byte	0x3
 4054 091e 23       		.byte	0x23
 4055 091f A401     		.uleb128 0xa4
 4056 0921 18       		.uleb128 0x18
 4057 0922 D00C0000 		.4byte	.LASF126
 4058 0926 08       		.byte	0x8
ARM GAS  C:\Users\EBANO_~1\AppData\Local\Temp\cchbxRq9.s 			page 91


 4059 0927 9002     		.2byte	0x290
 4060 0929 11020000 		.4byte	0x211
 4061 092d 03       		.byte	0x3
 4062 092e 23       		.byte	0x23
 4063 092f AC01     		.uleb128 0xac
 4064 0931 18       		.uleb128 0x18
 4065 0932 79070000 		.4byte	.LASF127
 4066 0936 08       		.byte	0x8
 4067 0937 9102     		.2byte	0x291
 4068 0939 11020000 		.4byte	0x211
 4069 093d 03       		.byte	0x3
 4070 093e 23       		.byte	0x23
 4071 093f B401     		.uleb128 0xb4
 4072 0941 18       		.uleb128 0x18
 4073 0942 97100000 		.4byte	.LASF128
 4074 0946 08       		.byte	0x8
 4075 0947 9202     		.2byte	0x292
 4076 0949 11020000 		.4byte	0x211
 4077 094d 03       		.byte	0x3
 4078 094e 23       		.byte	0x23
 4079 094f BC01     		.uleb128 0xbc
 4080 0951 18       		.uleb128 0x18
 4081 0952 82130000 		.4byte	.LASF129
 4082 0956 08       		.byte	0x8
 4083 0957 9302     		.2byte	0x293
 4084 0959 11020000 		.4byte	0x211
 4085 095d 03       		.byte	0x3
 4086 095e 23       		.byte	0x23
 4087 095f C401     		.uleb128 0xc4
 4088 0961 18       		.uleb128 0x18
 4089 0962 82190000 		.4byte	.LASF130
 4090 0966 08       		.byte	0x8
 4091 0967 9402     		.2byte	0x294
 4092 0969 A3000000 		.4byte	0xa3
 4093 096d 03       		.byte	0x3
 4094 096e 23       		.byte	0x23
 4095 096f CC01     		.uleb128 0xcc
 4096 0971 00       		.byte	0
 4097 0972 07       		.uleb128 0x7
 4098 0973 07070000 		.4byte	0x707
 4099 0977 82090000 		.4byte	0x982
 4100 097b 08       		.uleb128 0x8
 4101 097c AA000000 		.4byte	0xaa
 4102 0980 19       		.byte	0x19
 4103 0981 00       		.byte	0
 4104 0982 07       		.uleb128 0x7
 4105 0983 07070000 		.4byte	0x707
 4106 0987 92090000 		.4byte	0x992
 4107 098b 08       		.uleb128 0x8
 4108 098c AA000000 		.4byte	0xaa
 4109 0990 07       		.byte	0x7
 4110 0991 00       		.byte	0
 4111 0992 07       		.uleb128 0x7
 4112 0993 07070000 		.4byte	0x707
 4113 0997 A2090000 		.4byte	0x9a2
 4114 099b 08       		.uleb128 0x8
 4115 099c AA000000 		.4byte	0xaa
ARM GAS  C:\Users\EBANO_~1\AppData\Local\Temp\cchbxRq9.s 			page 92


 4116 09a0 17       		.byte	0x17
 4117 09a1 00       		.byte	0
 4118 09a2 1A       		.uleb128 0x1a
 4119 09a3 F0       		.byte	0xf0
 4120 09a4 08       		.byte	0x8
 4121 09a5 9902     		.2byte	0x299
 4122 09a7 CA090000 		.4byte	0x9ca
 4123 09ab 18       		.uleb128 0x18
 4124 09ac 8D140000 		.4byte	.LASF131
 4125 09b0 08       		.byte	0x8
 4126 09b1 9C02     		.2byte	0x29c
 4127 09b3 CA090000 		.4byte	0x9ca
 4128 09b7 02       		.byte	0x2
 4129 09b8 23       		.byte	0x23
 4130 09b9 00       		.uleb128 0
 4131 09ba 18       		.uleb128 0x18
 4132 09bb C20A0000 		.4byte	.LASF132
 4133 09bf 08       		.byte	0x8
 4134 09c0 9D02     		.2byte	0x29d
 4135 09c2 DA090000 		.4byte	0x9da
 4136 09c6 02       		.byte	0x2
 4137 09c7 23       		.byte	0x23
 4138 09c8 78       		.uleb128 0x78
 4139 09c9 00       		.byte	0
 4140 09ca 07       		.uleb128 0x7
 4141 09cb 19040000 		.4byte	0x419
 4142 09cf DA090000 		.4byte	0x9da
 4143 09d3 08       		.uleb128 0x8
 4144 09d4 AA000000 		.4byte	0xaa
 4145 09d8 1D       		.byte	0x1d
 4146 09d9 00       		.byte	0
 4147 09da 07       		.uleb128 0x7
 4148 09db AA000000 		.4byte	0xaa
 4149 09df EA090000 		.4byte	0x9ea
 4150 09e3 08       		.uleb128 0x8
 4151 09e4 AA000000 		.4byte	0xaa
 4152 09e8 1D       		.byte	0x1d
 4153 09e9 00       		.byte	0
 4154 09ea 1B       		.uleb128 0x1b
 4155 09eb F0       		.byte	0xf0
 4156 09ec 08       		.byte	0x8
 4157 09ed 7E02     		.2byte	0x27e
 4158 09ef 0C0A0000 		.4byte	0xa0c
 4159 09f3 1C       		.uleb128 0x1c
 4160 09f4 31040000 		.4byte	.LASF81
 4161 09f8 08       		.byte	0x8
 4162 09f9 9502     		.2byte	0x295
 4163 09fb 42080000 		.4byte	0x842
 4164 09ff 1C       		.uleb128 0x1c
 4165 0a00 06020000 		.4byte	.LASF133
 4166 0a04 08       		.byte	0x8
 4167 0a05 9E02     		.2byte	0x29e
 4168 0a07 A2090000 		.4byte	0x9a2
 4169 0a0b 00       		.byte	0
 4170 0a0c 07       		.uleb128 0x7
 4171 0a0d 07070000 		.4byte	0x707
 4172 0a11 1C0A0000 		.4byte	0xa1c
ARM GAS  C:\Users\EBANO_~1\AppData\Local\Temp\cchbxRq9.s 			page 93


 4173 0a15 08       		.uleb128 0x8
 4174 0a16 AA000000 		.4byte	0xaa
 4175 0a1a 18       		.byte	0x18
 4176 0a1b 00       		.byte	0
 4177 0a1c 0B       		.uleb128 0xb
 4178 0a1d 90180000 		.4byte	.LASF135
 4179 0a21 01       		.byte	0x1
 4180 0a22 0A       		.uleb128 0xa
 4181 0a23 04       		.byte	0x4
 4182 0a24 1C0A0000 		.4byte	0xa1c
 4183 0a28 1D       		.uleb128 0x1d
 4184 0a29 01       		.byte	0x1
 4185 0a2a 340A0000 		.4byte	0xa34
 4186 0a2e 16       		.uleb128 0x16
 4187 0a2f 98050000 		.4byte	0x598
 4188 0a33 00       		.byte	0
 4189 0a34 0A       		.uleb128 0xa
 4190 0a35 04       		.byte	0x4
 4191 0a36 280A0000 		.4byte	0xa28
 4192 0a3a 0A       		.uleb128 0xa
 4193 0a3b 04       		.byte	0x4
 4194 0a3c 91020000 		.4byte	0x291
 4195 0a40 1D       		.uleb128 0x1d
 4196 0a41 01       		.byte	0x1
 4197 0a42 4C0A0000 		.4byte	0xa4c
 4198 0a46 16       		.uleb128 0x16
 4199 0a47 A3000000 		.4byte	0xa3
 4200 0a4b 00       		.byte	0
 4201 0a4c 0A       		.uleb128 0xa
 4202 0a4d 04       		.byte	0x4
 4203 0a4e 520A0000 		.4byte	0xa52
 4204 0a52 0A       		.uleb128 0xa
 4205 0a53 04       		.byte	0x4
 4206 0a54 400A0000 		.4byte	0xa40
 4207 0a58 07       		.uleb128 0x7
 4208 0a59 A4070000 		.4byte	0x7a4
 4209 0a5d 680A0000 		.4byte	0xa68
 4210 0a61 08       		.uleb128 0x8
 4211 0a62 AA000000 		.4byte	0xaa
 4212 0a66 02       		.byte	0x2
 4213 0a67 00       		.byte	0
 4214 0a68 1E       		.uleb128 0x1e
 4215 0a69 39180000 		.4byte	.LASF136
 4216 0a6d 08       		.byte	0x8
 4217 0a6e 2E03     		.2byte	0x32e
 4218 0a70 98050000 		.4byte	0x598
 4219 0a74 01       		.byte	0x1
 4220 0a75 01       		.byte	0x1
 4221 0a76 1E       		.uleb128 0x1e
 4222 0a77 731C0000 		.4byte	.LASF137
 4223 0a7b 08       		.byte	0x8
 4224 0a7c 2F03     		.2byte	0x32f
 4225 0a7e 9E050000 		.4byte	0x59e
 4226 0a82 01       		.byte	0x1
 4227 0a83 01       		.byte	0x1
 4228 0a84 0A       		.uleb128 0xa
 4229 0a85 04       		.byte	0x4
ARM GAS  C:\Users\EBANO_~1\AppData\Local\Temp\cchbxRq9.s 			page 94


 4230 0a86 BC000000 		.4byte	0xbc
 4231 0a8a 06       		.uleb128 0x6
 4232 0a8b 15150000 		.4byte	.LASF138
 4233 0a8f 09       		.byte	0x9
 4234 0a90 63       		.byte	0x63
 4235 0a91 01070000 		.4byte	0x701
 4236 0a95 01       		.byte	0x1
 4237 0a96 01       		.byte	0x1
 4238 0a97 03       		.uleb128 0x3
 4239 0a98 C01A0000 		.4byte	.LASF139
 4240 0a9c 0A       		.byte	0xa
 4241 0a9d 3D       		.byte	0x3d
 4242 0a9e ED000000 		.4byte	0xed
 4243 0aa2 11       		.uleb128 0x11
 4244 0aa3 320B0000 		.4byte	.LASF140
 4245 0aa7 04       		.byte	0x4
 4246 0aa8 0A       		.byte	0xa
 4247 0aa9 5F       		.byte	0x5f
 4248 0aaa E70A0000 		.4byte	0xae7
 4249 0aae 12       		.uleb128 0x12
 4250 0aaf 52667500 		.ascii	"Rfu\000"
 4251 0ab3 0A       		.byte	0xa
 4252 0ab4 61       		.byte	0x61
 4253 0ab5 BC000000 		.4byte	0xbc
 4254 0ab9 02       		.byte	0x2
 4255 0aba 23       		.byte	0x23
 4256 0abb 00       		.uleb128 0
 4257 0abc 10       		.uleb128 0x10
 4258 0abd 85000000 		.4byte	.LASF141
 4259 0ac1 0A       		.byte	0xa
 4260 0ac2 62       		.byte	0x62
 4261 0ac3 BC000000 		.4byte	0xbc
 4262 0ac7 02       		.byte	0x2
 4263 0ac8 23       		.byte	0x23
 4264 0ac9 01       		.uleb128 0x1
 4265 0aca 10       		.uleb128 0x10
 4266 0acb 83020000 		.4byte	.LASF142
 4267 0acf 0A       		.byte	0xa
 4268 0ad0 63       		.byte	0x63
 4269 0ad1 BC000000 		.4byte	0xbc
 4270 0ad5 02       		.byte	0x2
 4271 0ad6 23       		.byte	0x23
 4272 0ad7 02       		.uleb128 0x2
 4273 0ad8 10       		.uleb128 0x10
 4274 0ad9 511C0000 		.4byte	.LASF143
 4275 0add 0A       		.byte	0xa
 4276 0ade 64       		.byte	0x64
 4277 0adf BC000000 		.4byte	0xbc
 4278 0ae3 02       		.byte	0x2
 4279 0ae4 23       		.byte	0x23
 4280 0ae5 03       		.uleb128 0x3
 4281 0ae6 00       		.byte	0
 4282 0ae7 1F       		.uleb128 0x1f
 4283 0ae8 460B0000 		.4byte	.LASF205
 4284 0aec 04       		.byte	0x4
 4285 0aed 0A       		.byte	0xa
 4286 0aee 5D       		.byte	0x5d
ARM GAS  C:\Users\EBANO_~1\AppData\Local\Temp\cchbxRq9.s 			page 95


 4287 0aef 0A0B0000 		.4byte	0xb0a
 4288 0af3 0E       		.uleb128 0xe
 4289 0af4 61110000 		.4byte	.LASF144
 4290 0af8 0A       		.byte	0xa
 4291 0af9 65       		.byte	0x65
 4292 0afa A20A0000 		.4byte	0xaa2
 4293 0afe 0E       		.uleb128 0xe
 4294 0aff 63200000 		.4byte	.LASF145
 4295 0b03 0A       		.byte	0xa
 4296 0b04 66       		.byte	0x66
 4297 0b05 ED000000 		.4byte	0xed
 4298 0b09 00       		.byte	0
 4299 0b0a 03       		.uleb128 0x3
 4300 0b0b 3C0B0000 		.4byte	.LASF146
 4301 0b0f 0A       		.byte	0xa
 4302 0b10 67       		.byte	0x67
 4303 0b11 E70A0000 		.4byte	0xae7
 4304 0b15 02       		.uleb128 0x2
 4305 0b16 01       		.byte	0x1
 4306 0b17 02       		.byte	0x2
 4307 0b18 D4000000 		.4byte	.LASF147
 4308 0b1c 19       		.uleb128 0x19
 4309 0b1d DE0B0000 		.4byte	.LASF148
 4310 0b21 10       		.byte	0x10
 4311 0b22 0B       		.byte	0xb
 4312 0b23 D301     		.2byte	0x1d3
 4313 0b25 750B0000 		.4byte	0xb75
 4314 0b29 18       		.uleb128 0x18
 4315 0b2a 53020000 		.4byte	.LASF149
 4316 0b2e 0B       		.byte	0xb
 4317 0b2f D801     		.2byte	0x1d8
 4318 0b31 D7000000 		.4byte	0xd7
 4319 0b35 02       		.byte	0x2
 4320 0b36 23       		.byte	0x23
 4321 0b37 00       		.uleb128 0
 4322 0b38 18       		.uleb128 0x18
 4323 0b39 F4020000 		.4byte	.LASF150
 4324 0b3d 0B       		.byte	0xb
 4325 0b3e DC01     		.2byte	0x1dc
 4326 0b40 B1000000 		.4byte	0xb1
 4327 0b44 02       		.byte	0x2
 4328 0b45 23       		.byte	0x23
 4329 0b46 02       		.uleb128 0x2
 4330 0b47 18       		.uleb128 0x18
 4331 0b48 CB1B0000 		.4byte	.LASF151
 4332 0b4c 0B       		.byte	0xb
 4333 0b4d E001     		.2byte	0x1e0
 4334 0b4f 970A0000 		.4byte	0xa97
 4335 0b53 02       		.byte	0x2
 4336 0b54 23       		.byte	0x23
 4337 0b55 04       		.uleb128 0x4
 4338 0b56 18       		.uleb128 0x18
 4339 0b57 BD040000 		.4byte	.LASF152
 4340 0b5b 0B       		.byte	0xb
 4341 0b5c E401     		.2byte	0x1e4
 4342 0b5e 970A0000 		.4byte	0xa97
 4343 0b62 02       		.byte	0x2
ARM GAS  C:\Users\EBANO_~1\AppData\Local\Temp\cchbxRq9.s 			page 96


 4344 0b63 23       		.byte	0x23
 4345 0b64 08       		.uleb128 0x8
 4346 0b65 18       		.uleb128 0x18
 4347 0b66 34070000 		.4byte	.LASF153
 4348 0b6a 0B       		.byte	0xb
 4349 0b6b E801     		.2byte	0x1e8
 4350 0b6d 970A0000 		.4byte	0xa97
 4351 0b71 02       		.byte	0x2
 4352 0b72 23       		.byte	0x23
 4353 0b73 0C       		.uleb128 0xc
 4354 0b74 00       		.byte	0
 4355 0b75 0C       		.uleb128 0xc
 4356 0b76 A2020000 		.4byte	.LASF154
 4357 0b7a 0B       		.byte	0xb
 4358 0b7b E901     		.2byte	0x1e9
 4359 0b7d 1C0B0000 		.4byte	0xb1c
 4360 0b81 06       		.uleb128 0x6
 4361 0b82 4F1B0000 		.4byte	.LASF155
 4362 0b86 0C       		.byte	0xc
 4363 0b87 9A       		.byte	0x9a
 4364 0b88 7C000000 		.4byte	0x7c
 4365 0b8c 01       		.byte	0x1
 4366 0b8d 01       		.byte	0x1
 4367 0b8e 06       		.uleb128 0x6
 4368 0b8f FC030000 		.4byte	.LASF156
 4369 0b93 0C       		.byte	0xc
 4370 0b94 9B       		.byte	0x9b
 4371 0b95 A3000000 		.4byte	0xa3
 4372 0b99 01       		.byte	0x1
 4373 0b9a 01       		.byte	0x1
 4374 0b9b 07       		.uleb128 0x7
 4375 0b9c 01070000 		.4byte	0x701
 4376 0ba0 AB0B0000 		.4byte	0xbab
 4377 0ba4 08       		.uleb128 0x8
 4378 0ba5 AA000000 		.4byte	0xaa
 4379 0ba9 01       		.byte	0x1
 4380 0baa 00       		.byte	0
 4381 0bab 06       		.uleb128 0x6
 4382 0bac 1A0F0000 		.4byte	.LASF157
 4383 0bb0 0C       		.byte	0xc
 4384 0bb1 9E       		.byte	0x9e
 4385 0bb2 9B0B0000 		.4byte	0xb9b
 4386 0bb6 01       		.byte	0x1
 4387 0bb7 01       		.byte	0x1
 4388 0bb8 20       		.uleb128 0x20
 4389 0bb9 07       		.byte	0x7
 4390 0bba 01       		.byte	0x1
 4391 0bbb 46000000 		.4byte	0x46
 4392 0bbf 0D       		.byte	0xd
 4393 0bc0 21       		.byte	0x21
 4394 0bc1 D20B0000 		.4byte	0xbd2
 4395 0bc5 21       		.uleb128 0x21
 4396 0bc6 E90C0000 		.4byte	.LASF158
 4397 0bca 00       		.byte	0
 4398 0bcb 21       		.uleb128 0x21
 4399 0bcc 6C1B0000 		.4byte	.LASF159
 4400 0bd0 01       		.byte	0x1
ARM GAS  C:\Users\EBANO_~1\AppData\Local\Temp\cchbxRq9.s 			page 97


 4401 0bd1 00       		.byte	0
 4402 0bd2 03       		.uleb128 0x3
 4403 0bd3 8C0D0000 		.4byte	.LASF160
 4404 0bd7 0D       		.byte	0xd
 4405 0bd8 24       		.byte	0x24
 4406 0bd9 B80B0000 		.4byte	0xbb8
 4407 0bdd 20       		.uleb128 0x20
 4408 0bde 07       		.byte	0x7
 4409 0bdf 01       		.byte	0x1
 4410 0be0 46000000 		.4byte	0x46
 4411 0be4 0D       		.byte	0xd
 4412 0be5 2A       		.byte	0x2a
 4413 0be6 030C0000 		.4byte	0xc03
 4414 0bea 21       		.uleb128 0x21
 4415 0beb EC020000 		.4byte	.LASF161
 4416 0bef 00       		.byte	0
 4417 0bf0 21       		.uleb128 0x21
 4418 0bf1 7A0F0000 		.4byte	.LASF162
 4419 0bf5 01       		.byte	0x1
 4420 0bf6 21       		.uleb128 0x21
 4421 0bf7 511A0000 		.4byte	.LASF163
 4422 0bfb 02       		.byte	0x2
 4423 0bfc 21       		.uleb128 0x21
 4424 0bfd E1150000 		.4byte	.LASF164
 4425 0c01 03       		.byte	0x3
 4426 0c02 00       		.byte	0
 4427 0c03 03       		.uleb128 0x3
 4428 0c04 B6100000 		.4byte	.LASF165
 4429 0c08 0D       		.byte	0xd
 4430 0c09 2F       		.byte	0x2f
 4431 0c0a DD0B0000 		.4byte	0xbdd
 4432 0c0e 0F       		.uleb128 0xf
 4433 0c0f 1C       		.byte	0x1c
 4434 0c10 0D       		.byte	0xd
 4435 0c11 34       		.byte	0x34
 4436 0c12 790C0000 		.4byte	0xc79
 4437 0c16 10       		.uleb128 0x10
 4438 0c17 CD080000 		.4byte	.LASF166
 4439 0c1b 0D       		.byte	0xd
 4440 0c1c 39       		.byte	0x39
 4441 0c1d E8030000 		.4byte	0x3e8
 4442 0c21 02       		.byte	0x2
 4443 0c22 23       		.byte	0x23
 4444 0c23 00       		.uleb128 0
 4445 0c24 10       		.uleb128 0x10
 4446 0c25 49020000 		.4byte	.LASF167
 4447 0c29 0D       		.byte	0xd
 4448 0c2a 3D       		.byte	0x3d
 4449 0c2b E8030000 		.4byte	0x3e8
 4450 0c2f 02       		.byte	0x2
 4451 0c30 23       		.byte	0x23
 4452 0c31 04       		.uleb128 0x4
 4453 0c32 10       		.uleb128 0x10
 4454 0c33 A60A0000 		.4byte	.LASF168
 4455 0c37 0D       		.byte	0xd
 4456 0c38 48       		.byte	0x48
 4457 0c39 940C0000 		.4byte	0xc94
ARM GAS  C:\Users\EBANO_~1\AppData\Local\Temp\cchbxRq9.s 			page 98


 4458 0c3d 02       		.byte	0x2
 4459 0c3e 23       		.byte	0x23
 4460 0c3f 08       		.uleb128 0x8
 4461 0c40 10       		.uleb128 0x10
 4462 0c41 30020000 		.4byte	.LASF169
 4463 0c45 0D       		.byte	0xd
 4464 0c46 4C       		.byte	0x4c
 4465 0c47 E8030000 		.4byte	0x3e8
 4466 0c4b 02       		.byte	0x2
 4467 0c4c 23       		.byte	0x23
 4468 0c4d 0C       		.uleb128 0xc
 4469 0c4e 10       		.uleb128 0x10
 4470 0c4f 48010000 		.4byte	.LASF170
 4471 0c53 0D       		.byte	0xd
 4472 0c54 50       		.byte	0x50
 4473 0c55 E8030000 		.4byte	0x3e8
 4474 0c59 02       		.byte	0x2
 4475 0c5a 23       		.byte	0x23
 4476 0c5b 10       		.uleb128 0x10
 4477 0c5c 10       		.uleb128 0x10
 4478 0c5d 920E0000 		.4byte	.LASF171
 4479 0c61 0D       		.byte	0xd
 4480 0c62 56       		.byte	0x56
 4481 0c63 A60C0000 		.4byte	0xca6
 4482 0c67 02       		.byte	0x2
 4483 0c68 23       		.byte	0x23
 4484 0c69 14       		.uleb128 0x14
 4485 0c6a 10       		.uleb128 0x10
 4486 0c6b 311E0000 		.4byte	.LASF172
 4487 0c6f 0D       		.byte	0xd
 4488 0c70 5D       		.byte	0x5d
 4489 0c71 B80C0000 		.4byte	0xcb8
 4490 0c75 02       		.byte	0x2
 4491 0c76 23       		.byte	0x23
 4492 0c77 18       		.uleb128 0x18
 4493 0c78 00       		.byte	0
 4494 0c79 1D       		.uleb128 0x1d
 4495 0c7a 01       		.byte	0x1
 4496 0c7b 940C0000 		.4byte	0xc94
 4497 0c7f 16       		.uleb128 0x16
 4498 0c80 840A0000 		.4byte	0xa84
 4499 0c84 16       		.uleb128 0x16
 4500 0c85 D7000000 		.4byte	0xd7
 4501 0c89 16       		.uleb128 0x16
 4502 0c8a CC000000 		.4byte	0xcc
 4503 0c8e 16       		.uleb128 0x16
 4504 0c8f B1000000 		.4byte	0xb1
 4505 0c93 00       		.byte	0
 4506 0c94 0A       		.uleb128 0xa
 4507 0c95 04       		.byte	0x4
 4508 0c96 790C0000 		.4byte	0xc79
 4509 0c9a 1D       		.uleb128 0x1d
 4510 0c9b 01       		.byte	0x1
 4511 0c9c A60C0000 		.4byte	0xca6
 4512 0ca0 16       		.uleb128 0x16
 4513 0ca1 BC000000 		.4byte	0xbc
 4514 0ca5 00       		.byte	0
ARM GAS  C:\Users\EBANO_~1\AppData\Local\Temp\cchbxRq9.s 			page 99


 4515 0ca6 0A       		.uleb128 0xa
 4516 0ca7 04       		.byte	0x4
 4517 0ca8 9A0C0000 		.4byte	0xc9a
 4518 0cac 1D       		.uleb128 0x1d
 4519 0cad 01       		.byte	0x1
 4520 0cae B80C0000 		.4byte	0xcb8
 4521 0cb2 16       		.uleb128 0x16
 4522 0cb3 150B0000 		.4byte	0xb15
 4523 0cb7 00       		.byte	0
 4524 0cb8 0A       		.uleb128 0xa
 4525 0cb9 04       		.byte	0x4
 4526 0cba AC0C0000 		.4byte	0xcac
 4527 0cbe 03       		.uleb128 0x3
 4528 0cbf 6D1D0000 		.4byte	.LASF173
 4529 0cc3 0D       		.byte	0xd
 4530 0cc4 5E       		.byte	0x5e
 4531 0cc5 0E0C0000 		.4byte	0xc0e
 4532 0cc9 11       		.uleb128 0x11
 4533 0cca 73030000 		.4byte	.LASF174
 4534 0cce 74       		.byte	0x74
 4535 0ccf 0D       		.byte	0xd
 4536 0cd0 63       		.byte	0x63
 4537 0cd1 7D0E0000 		.4byte	0xe7d
 4538 0cd5 10       		.uleb128 0x10
 4539 0cd6 A2120000 		.4byte	.LASF175
 4540 0cda 0D       		.byte	0xd
 4541 0cdb 68       		.byte	0x68
 4542 0cdc E8030000 		.4byte	0x3e8
 4543 0ce0 02       		.byte	0x2
 4544 0ce1 23       		.byte	0x23
 4545 0ce2 00       		.uleb128 0
 4546 0ce3 10       		.uleb128 0x10
 4547 0ce4 71080000 		.4byte	.LASF176
 4548 0ce8 0D       		.byte	0xd
 4549 0ce9 6C       		.byte	0x6c
 4550 0cea E8030000 		.4byte	0x3e8
 4551 0cee 02       		.byte	0x2
 4552 0cef 23       		.byte	0x23
 4553 0cf0 04       		.uleb128 0x4
 4554 0cf1 10       		.uleb128 0x10
 4555 0cf2 DE1B0000 		.4byte	.LASF177
 4556 0cf6 0D       		.byte	0xd
 4557 0cf7 73       		.byte	0x73
 4558 0cf8 980E0000 		.4byte	0xe98
 4559 0cfc 02       		.byte	0x2
 4560 0cfd 23       		.byte	0x23
 4561 0cfe 08       		.uleb128 0x8
 4562 0cff 10       		.uleb128 0x10
 4563 0d00 CE0F0000 		.4byte	.LASF178
 4564 0d04 0D       		.byte	0xd
 4565 0d05 79       		.byte	0x79
 4566 0d06 A40E0000 		.4byte	0xea4
 4567 0d0a 02       		.byte	0x2
 4568 0d0b 23       		.byte	0x23
 4569 0d0c 0C       		.uleb128 0xc
 4570 0d0d 10       		.uleb128 0x10
 4571 0d0e 7A080000 		.4byte	.LASF179
ARM GAS  C:\Users\EBANO_~1\AppData\Local\Temp\cchbxRq9.s 			page 100


 4572 0d12 0D       		.byte	0xd
 4573 0d13 7F       		.byte	0x7f
 4574 0d14 B60E0000 		.4byte	0xeb6
 4575 0d18 02       		.byte	0x2
 4576 0d19 23       		.byte	0x23
 4577 0d1a 10       		.uleb128 0x10
 4578 0d1b 10       		.uleb128 0x10
 4579 0d1c DF160000 		.4byte	.LASF180
 4580 0d20 0D       		.byte	0xd
 4581 0d21 85       		.byte	0x85
 4582 0d22 C80E0000 		.4byte	0xec8
 4583 0d26 02       		.byte	0x2
 4584 0d27 23       		.byte	0x23
 4585 0d28 14       		.uleb128 0x14
 4586 0d29 10       		.uleb128 0x10
 4587 0d2a A1150000 		.4byte	.LASF181
 4588 0d2e 0D       		.byte	0xd
 4589 0d2f 90       		.byte	0x90
 4590 0d30 ED0E0000 		.4byte	0xeed
 4591 0d34 02       		.byte	0x2
 4592 0d35 23       		.byte	0x23
 4593 0d36 18       		.uleb128 0x18
 4594 0d37 10       		.uleb128 0x10
 4595 0d38 D60A0000 		.4byte	.LASF182
 4596 0d3c 0D       		.byte	0xd
 4597 0d3d 9B       		.byte	0x9b
 4598 0d3e F90E0000 		.4byte	0xef9
 4599 0d42 02       		.byte	0x2
 4600 0d43 23       		.byte	0x23
 4601 0d44 1C       		.uleb128 0x1c
 4602 0d45 10       		.uleb128 0x10
 4603 0d46 F2200000 		.4byte	.LASF183
 4604 0d4a 0D       		.byte	0xd
 4605 0d4b C3       		.byte	0xc3
 4606 0d4c 4C0F0000 		.4byte	0xf4c
 4607 0d50 02       		.byte	0x2
 4608 0d51 23       		.byte	0x23
 4609 0d52 20       		.uleb128 0x20
 4610 0d53 10       		.uleb128 0x10
 4611 0d54 EF0F0000 		.4byte	.LASF184
 4612 0d58 0D       		.byte	0xd
 4613 0d59 ED       		.byte	0xed
 4614 0d5a 9A0F0000 		.4byte	0xf9a
 4615 0d5e 02       		.byte	0x2
 4616 0d5f 23       		.byte	0x23
 4617 0d60 24       		.uleb128 0x24
 4618 0d61 10       		.uleb128 0x10
 4619 0d62 A4110000 		.4byte	.LASF185
 4620 0d66 0D       		.byte	0xd
 4621 0d67 F8       		.byte	0xf8
 4622 0d68 B00F0000 		.4byte	0xfb0
 4623 0d6c 02       		.byte	0x2
 4624 0d6d 23       		.byte	0x23
 4625 0d6e 28       		.uleb128 0x28
 4626 0d6f 18       		.uleb128 0x18
 4627 0d70 02130000 		.4byte	.LASF186
 4628 0d74 0D       		.byte	0xd
ARM GAS  C:\Users\EBANO_~1\AppData\Local\Temp\cchbxRq9.s 			page 101


 4629 0d75 0301     		.2byte	0x103
 4630 0d77 CB0F0000 		.4byte	0xfcb
 4631 0d7b 02       		.byte	0x2
 4632 0d7c 23       		.byte	0x23
 4633 0d7d 2C       		.uleb128 0x2c
 4634 0d7e 18       		.uleb128 0x18
 4635 0d7f 0C1D0000 		.4byte	.LASF187
 4636 0d83 0D       		.byte	0xd
 4637 0d84 0B01     		.2byte	0x10b
 4638 0d86 E20F0000 		.4byte	0xfe2
 4639 0d8a 02       		.byte	0x2
 4640 0d8b 23       		.byte	0x23
 4641 0d8c 30       		.uleb128 0x30
 4642 0d8d 18       		.uleb128 0x18
 4643 0d8e 3E0D0000 		.4byte	.LASF188
 4644 0d92 0D       		.byte	0xd
 4645 0d93 0F01     		.2byte	0x10f
 4646 0d95 E8030000 		.4byte	0x3e8
 4647 0d99 02       		.byte	0x2
 4648 0d9a 23       		.byte	0x23
 4649 0d9b 34       		.uleb128 0x34
 4650 0d9c 18       		.uleb128 0x18
 4651 0d9d 6B040000 		.4byte	.LASF189
 4652 0da1 0D       		.byte	0xd
 4653 0da2 1301     		.2byte	0x113
 4654 0da4 E8030000 		.4byte	0x3e8
 4655 0da8 02       		.byte	0x2
 4656 0da9 23       		.byte	0x23
 4657 0daa 38       		.uleb128 0x38
 4658 0dab 22       		.uleb128 0x22
 4659 0dac 527800   		.ascii	"Rx\000"
 4660 0daf 0D       		.byte	0xd
 4661 0db0 1901     		.2byte	0x119
 4662 0db2 C80E0000 		.4byte	0xec8
 4663 0db6 02       		.byte	0x2
 4664 0db7 23       		.byte	0x23
 4665 0db8 3C       		.uleb128 0x3c
 4666 0db9 18       		.uleb128 0x18
 4667 0dba 140A0000 		.4byte	.LASF190
 4668 0dbe 0D       		.byte	0xd
 4669 0dbf 1D01     		.2byte	0x11d
 4670 0dc1 E8030000 		.4byte	0x3e8
 4671 0dc5 02       		.byte	0x2
 4672 0dc6 23       		.byte	0x23
 4673 0dc7 40       		.uleb128 0x40
 4674 0dc8 18       		.uleb128 0x18
 4675 0dc9 E1140000 		.4byte	.LASF191
 4676 0dcd 0D       		.byte	0xd
 4677 0dce 2501     		.2byte	0x125
 4678 0dd0 FE0F0000 		.4byte	0xffe
 4679 0dd4 02       		.byte	0x2
 4680 0dd5 23       		.byte	0x23
 4681 0dd6 44       		.uleb128 0x44
 4682 0dd7 18       		.uleb128 0x18
 4683 0dd8 671B0000 		.4byte	.LASF192
 4684 0ddc 0D       		.byte	0xd
 4685 0ddd 2B01     		.2byte	0x12b
ARM GAS  C:\Users\EBANO_~1\AppData\Local\Temp\cchbxRq9.s 			page 102


 4686 0ddf 14100000 		.4byte	0x1014
 4687 0de3 02       		.byte	0x2
 4688 0de4 23       		.byte	0x23
 4689 0de5 48       		.uleb128 0x48
 4690 0de6 18       		.uleb128 0x18
 4691 0de7 8A040000 		.4byte	.LASF193
 4692 0deb 0D       		.byte	0xd
 4693 0dec 3201     		.2byte	0x132
 4694 0dee 2B100000 		.4byte	0x102b
 4695 0df2 02       		.byte	0x2
 4696 0df3 23       		.byte	0x23
 4697 0df4 4C       		.uleb128 0x4c
 4698 0df5 18       		.uleb128 0x18
 4699 0df6 CC040000 		.4byte	.LASF194
 4700 0dfa 0D       		.byte	0xd
 4701 0dfb 3901     		.2byte	0x139
 4702 0dfd 41100000 		.4byte	0x1041
 4703 0e01 02       		.byte	0x2
 4704 0e02 23       		.byte	0x23
 4705 0e03 50       		.uleb128 0x50
 4706 0e04 18       		.uleb128 0x18
 4707 0e05 3C010000 		.4byte	.LASF195
 4708 0e09 0D       		.byte	0xd
 4709 0e0a 4101     		.2byte	0x141
 4710 0e0c 5D100000 		.4byte	0x105d
 4711 0e10 02       		.byte	0x2
 4712 0e11 23       		.byte	0x23
 4713 0e12 54       		.uleb128 0x54
 4714 0e13 18       		.uleb128 0x18
 4715 0e14 59010000 		.4byte	.LASF196
 4716 0e18 0D       		.byte	0xd
 4717 0e19 4901     		.2byte	0x149
 4718 0e1b 5D100000 		.4byte	0x105d
 4719 0e1f 02       		.byte	0x2
 4720 0e20 23       		.byte	0x23
 4721 0e21 58       		.uleb128 0x58
 4722 0e22 18       		.uleb128 0x18
 4723 0e23 DB030000 		.4byte	.LASF197
 4724 0e27 0D       		.byte	0xd
 4725 0e28 5001     		.2byte	0x150
 4726 0e2a 74100000 		.4byte	0x1074
 4727 0e2e 02       		.byte	0x2
 4728 0e2f 23       		.byte	0x23
 4729 0e30 5C       		.uleb128 0x5c
 4730 0e31 18       		.uleb128 0x18
 4731 0e32 B6150000 		.4byte	.LASF198
 4732 0e36 0D       		.byte	0xd
 4733 0e37 5801     		.2byte	0x158
 4734 0e39 B80C0000 		.4byte	0xcb8
 4735 0e3d 02       		.byte	0x2
 4736 0e3e 23       		.byte	0x23
 4737 0e3f 60       		.uleb128 0x60
 4738 0e40 18       		.uleb128 0x18
 4739 0e41 4B1F0000 		.4byte	.LASF199
 4740 0e45 0D       		.byte	0xd
 4741 0e46 5E01     		.2byte	0x15e
 4742 0e48 F90E0000 		.4byte	0xef9
ARM GAS  C:\Users\EBANO_~1\AppData\Local\Temp\cchbxRq9.s 			page 103


 4743 0e4c 02       		.byte	0x2
 4744 0e4d 23       		.byte	0x23
 4745 0e4e 64       		.uleb128 0x64
 4746 0e4f 18       		.uleb128 0x18
 4747 0e50 22160000 		.4byte	.LASF200
 4748 0e54 0D       		.byte	0xd
 4749 0e55 6201     		.2byte	0x162
 4750 0e57 E8030000 		.4byte	0x3e8
 4751 0e5b 02       		.byte	0x2
 4752 0e5c 23       		.byte	0x23
 4753 0e5d 68       		.uleb128 0x68
 4754 0e5e 18       		.uleb128 0x18
 4755 0e5f C0050000 		.4byte	.LASF201
 4756 0e63 0D       		.byte	0xd
 4757 0e64 6E01     		.2byte	0x16e
 4758 0e66 C80E0000 		.4byte	0xec8
 4759 0e6a 02       		.byte	0x2
 4760 0e6b 23       		.byte	0x23
 4761 0e6c 6C       		.uleb128 0x6c
 4762 0e6d 18       		.uleb128 0x18
 4763 0e6e AB0C0000 		.4byte	.LASF202
 4764 0e72 0D       		.byte	0xd
 4765 0e73 7701     		.2byte	0x177
 4766 0e75 8B100000 		.4byte	0x108b
 4767 0e79 02       		.byte	0x2
 4768 0e7a 23       		.byte	0x23
 4769 0e7b 70       		.uleb128 0x70
 4770 0e7c 00       		.byte	0
 4771 0e7d 05       		.uleb128 0x5
 4772 0e7e C90C0000 		.4byte	0xcc9
 4773 0e82 15       		.uleb128 0x15
 4774 0e83 01       		.byte	0x1
 4775 0e84 ED000000 		.4byte	0xed
 4776 0e88 920E0000 		.4byte	0xe92
 4777 0e8c 16       		.uleb128 0x16
 4778 0e8d 920E0000 		.4byte	0xe92
 4779 0e91 00       		.byte	0
 4780 0e92 0A       		.uleb128 0xa
 4781 0e93 04       		.byte	0x4
 4782 0e94 BE0C0000 		.4byte	0xcbe
 4783 0e98 0A       		.uleb128 0xa
 4784 0e99 04       		.byte	0x4
 4785 0e9a 820E0000 		.4byte	0xe82
 4786 0e9e 23       		.uleb128 0x23
 4787 0e9f 01       		.byte	0x1
 4788 0ea0 030C0000 		.4byte	0xc03
 4789 0ea4 0A       		.uleb128 0xa
 4790 0ea5 04       		.byte	0x4
 4791 0ea6 9E0E0000 		.4byte	0xe9e
 4792 0eaa 1D       		.uleb128 0x1d
 4793 0eab 01       		.byte	0x1
 4794 0eac B60E0000 		.4byte	0xeb6
 4795 0eb0 16       		.uleb128 0x16
 4796 0eb1 D20B0000 		.4byte	0xbd2
 4797 0eb5 00       		.byte	0
 4798 0eb6 0A       		.uleb128 0xa
 4799 0eb7 04       		.byte	0x4
ARM GAS  C:\Users\EBANO_~1\AppData\Local\Temp\cchbxRq9.s 			page 104


 4800 0eb8 AA0E0000 		.4byte	0xeaa
 4801 0ebc 1D       		.uleb128 0x1d
 4802 0ebd 01       		.byte	0x1
 4803 0ebe C80E0000 		.4byte	0xec8
 4804 0ec2 16       		.uleb128 0x16
 4805 0ec3 ED000000 		.4byte	0xed
 4806 0ec7 00       		.byte	0
 4807 0ec8 0A       		.uleb128 0xa
 4808 0ec9 04       		.byte	0x4
 4809 0eca BC0E0000 		.4byte	0xebc
 4810 0ece 15       		.uleb128 0x15
 4811 0ecf 01       		.byte	0x1
 4812 0ed0 150B0000 		.4byte	0xb15
 4813 0ed4 ED0E0000 		.4byte	0xeed
 4814 0ed8 16       		.uleb128 0x16
 4815 0ed9 D20B0000 		.4byte	0xbd2
 4816 0edd 16       		.uleb128 0x16
 4817 0ede ED000000 		.4byte	0xed
 4818 0ee2 16       		.uleb128 0x16
 4819 0ee3 CC000000 		.4byte	0xcc
 4820 0ee7 16       		.uleb128 0x16
 4821 0ee8 ED000000 		.4byte	0xed
 4822 0eec 00       		.byte	0
 4823 0eed 0A       		.uleb128 0xa
 4824 0eee 04       		.byte	0x4
 4825 0eef CE0E0000 		.4byte	0xece
 4826 0ef3 23       		.uleb128 0x23
 4827 0ef4 01       		.byte	0x1
 4828 0ef5 ED000000 		.4byte	0xed
 4829 0ef9 0A       		.uleb128 0xa
 4830 0efa 04       		.byte	0x4
 4831 0efb F30E0000 		.4byte	0xef3
 4832 0eff 1D       		.uleb128 0x1d
 4833 0f00 01       		.byte	0x1
 4834 0f01 4C0F0000 		.4byte	0xf4c
 4835 0f05 16       		.uleb128 0x16
 4836 0f06 D20B0000 		.4byte	0xbd2
 4837 0f0a 16       		.uleb128 0x16
 4838 0f0b ED000000 		.4byte	0xed
 4839 0f0f 16       		.uleb128 0x16
 4840 0f10 ED000000 		.4byte	0xed
 4841 0f14 16       		.uleb128 0x16
 4842 0f15 BC000000 		.4byte	0xbc
 4843 0f19 16       		.uleb128 0x16
 4844 0f1a ED000000 		.4byte	0xed
 4845 0f1e 16       		.uleb128 0x16
 4846 0f1f D7000000 		.4byte	0xd7
 4847 0f23 16       		.uleb128 0x16
 4848 0f24 D7000000 		.4byte	0xd7
 4849 0f28 16       		.uleb128 0x16
 4850 0f29 150B0000 		.4byte	0xb15
 4851 0f2d 16       		.uleb128 0x16
 4852 0f2e BC000000 		.4byte	0xbc
 4853 0f32 16       		.uleb128 0x16
 4854 0f33 150B0000 		.4byte	0xb15
 4855 0f37 16       		.uleb128 0x16
 4856 0f38 150B0000 		.4byte	0xb15
ARM GAS  C:\Users\EBANO_~1\AppData\Local\Temp\cchbxRq9.s 			page 105


 4857 0f3c 16       		.uleb128 0x16
 4858 0f3d BC000000 		.4byte	0xbc
 4859 0f41 16       		.uleb128 0x16
 4860 0f42 150B0000 		.4byte	0xb15
 4861 0f46 16       		.uleb128 0x16
 4862 0f47 150B0000 		.4byte	0xb15
 4863 0f4b 00       		.byte	0
 4864 0f4c 0A       		.uleb128 0xa
 4865 0f4d 04       		.byte	0x4
 4866 0f4e FF0E0000 		.4byte	0xeff
 4867 0f52 1D       		.uleb128 0x1d
 4868 0f53 01       		.byte	0x1
 4869 0f54 9A0F0000 		.4byte	0xf9a
 4870 0f58 16       		.uleb128 0x16
 4871 0f59 D20B0000 		.4byte	0xbd2
 4872 0f5d 16       		.uleb128 0x16
 4873 0f5e B1000000 		.4byte	0xb1
 4874 0f62 16       		.uleb128 0x16
 4875 0f63 ED000000 		.4byte	0xed
 4876 0f67 16       		.uleb128 0x16
 4877 0f68 ED000000 		.4byte	0xed
 4878 0f6c 16       		.uleb128 0x16
 4879 0f6d ED000000 		.4byte	0xed
 4880 0f71 16       		.uleb128 0x16
 4881 0f72 BC000000 		.4byte	0xbc
 4882 0f76 16       		.uleb128 0x16
 4883 0f77 D7000000 		.4byte	0xd7
 4884 0f7b 16       		.uleb128 0x16
 4885 0f7c 150B0000 		.4byte	0xb15
 4886 0f80 16       		.uleb128 0x16
 4887 0f81 150B0000 		.4byte	0xb15
 4888 0f85 16       		.uleb128 0x16
 4889 0f86 150B0000 		.4byte	0xb15
 4890 0f8a 16       		.uleb128 0x16
 4891 0f8b BC000000 		.4byte	0xbc
 4892 0f8f 16       		.uleb128 0x16
 4893 0f90 150B0000 		.4byte	0xb15
 4894 0f94 16       		.uleb128 0x16
 4895 0f95 ED000000 		.4byte	0xed
 4896 0f99 00       		.byte	0
 4897 0f9a 0A       		.uleb128 0xa
 4898 0f9b 04       		.byte	0x4
 4899 0f9c 520F0000 		.4byte	0xf52
 4900 0fa0 15       		.uleb128 0x15
 4901 0fa1 01       		.byte	0x1
 4902 0fa2 150B0000 		.4byte	0xb15
 4903 0fa6 B00F0000 		.4byte	0xfb0
 4904 0faa 16       		.uleb128 0x16
 4905 0fab ED000000 		.4byte	0xed
 4906 0faf 00       		.byte	0
 4907 0fb0 0A       		.uleb128 0xa
 4908 0fb1 04       		.byte	0x4
 4909 0fb2 A00F0000 		.4byte	0xfa0
 4910 0fb6 15       		.uleb128 0x15
 4911 0fb7 01       		.byte	0x1
 4912 0fb8 ED000000 		.4byte	0xed
 4913 0fbc CB0F0000 		.4byte	0xfcb
ARM GAS  C:\Users\EBANO_~1\AppData\Local\Temp\cchbxRq9.s 			page 106


 4914 0fc0 16       		.uleb128 0x16
 4915 0fc1 D20B0000 		.4byte	0xbd2
 4916 0fc5 16       		.uleb128 0x16
 4917 0fc6 BC000000 		.4byte	0xbc
 4918 0fca 00       		.byte	0
 4919 0fcb 0A       		.uleb128 0xa
 4920 0fcc 04       		.byte	0x4
 4921 0fcd B60F0000 		.4byte	0xfb6
 4922 0fd1 1D       		.uleb128 0x1d
 4923 0fd2 01       		.byte	0x1
 4924 0fd3 E20F0000 		.4byte	0xfe2
 4925 0fd7 16       		.uleb128 0x16
 4926 0fd8 840A0000 		.4byte	0xa84
 4927 0fdc 16       		.uleb128 0x16
 4928 0fdd BC000000 		.4byte	0xbc
 4929 0fe1 00       		.byte	0
 4930 0fe2 0A       		.uleb128 0xa
 4931 0fe3 04       		.byte	0x4
 4932 0fe4 D10F0000 		.4byte	0xfd1
 4933 0fe8 1D       		.uleb128 0x1d
 4934 0fe9 01       		.byte	0x1
 4935 0fea FE0F0000 		.4byte	0xffe
 4936 0fee 16       		.uleb128 0x16
 4937 0fef ED000000 		.4byte	0xed
 4938 0ff3 16       		.uleb128 0x16
 4939 0ff4 B1000000 		.4byte	0xb1
 4940 0ff8 16       		.uleb128 0x16
 4941 0ff9 D7000000 		.4byte	0xd7
 4942 0ffd 00       		.byte	0
 4943 0ffe 0A       		.uleb128 0xa
 4944 0fff 04       		.byte	0x4
 4945 1000 E80F0000 		.4byte	0xfe8
 4946 1004 15       		.uleb128 0x15
 4947 1005 01       		.byte	0x1
 4948 1006 CC000000 		.4byte	0xcc
 4949 100a 14100000 		.4byte	0x1014
 4950 100e 16       		.uleb128 0x16
 4951 100f D20B0000 		.4byte	0xbd2
 4952 1013 00       		.byte	0
 4953 1014 0A       		.uleb128 0xa
 4954 1015 04       		.byte	0x4
 4955 1016 04100000 		.4byte	0x1004
 4956 101a 1D       		.uleb128 0x1d
 4957 101b 01       		.byte	0x1
 4958 101c 2B100000 		.4byte	0x102b
 4959 1020 16       		.uleb128 0x16
 4960 1021 D7000000 		.4byte	0xd7
 4961 1025 16       		.uleb128 0x16
 4962 1026 BC000000 		.4byte	0xbc
 4963 102a 00       		.byte	0
 4964 102b 0A       		.uleb128 0xa
 4965 102c 04       		.byte	0x4
 4966 102d 1A100000 		.4byte	0x101a
 4967 1031 15       		.uleb128 0x15
 4968 1032 01       		.byte	0x1
 4969 1033 BC000000 		.4byte	0xbc
 4970 1037 41100000 		.4byte	0x1041
ARM GAS  C:\Users\EBANO_~1\AppData\Local\Temp\cchbxRq9.s 			page 107


 4971 103b 16       		.uleb128 0x16
 4972 103c D7000000 		.4byte	0xd7
 4973 1040 00       		.byte	0
 4974 1041 0A       		.uleb128 0xa
 4975 1042 04       		.byte	0x4
 4976 1043 31100000 		.4byte	0x1031
 4977 1047 1D       		.uleb128 0x1d
 4978 1048 01       		.byte	0x1
 4979 1049 5D100000 		.4byte	0x105d
 4980 104d 16       		.uleb128 0x16
 4981 104e D7000000 		.4byte	0xd7
 4982 1052 16       		.uleb128 0x16
 4983 1053 840A0000 		.4byte	0xa84
 4984 1057 16       		.uleb128 0x16
 4985 1058 BC000000 		.4byte	0xbc
 4986 105c 00       		.byte	0
 4987 105d 0A       		.uleb128 0xa
 4988 105e 04       		.byte	0x4
 4989 105f 47100000 		.4byte	0x1047
 4990 1063 1D       		.uleb128 0x1d
 4991 1064 01       		.byte	0x1
 4992 1065 74100000 		.4byte	0x1074
 4993 1069 16       		.uleb128 0x16
 4994 106a D20B0000 		.4byte	0xbd2
 4995 106e 16       		.uleb128 0x16
 4996 106f BC000000 		.4byte	0xbc
 4997 1073 00       		.byte	0
 4998 1074 0A       		.uleb128 0xa
 4999 1075 04       		.byte	0x4
 5000 1076 63100000 		.4byte	0x1063
 5001 107a 1D       		.uleb128 0x1d
 5002 107b 01       		.byte	0x1
 5003 107c 8B100000 		.4byte	0x108b
 5004 1080 16       		.uleb128 0x16
 5005 1081 ED000000 		.4byte	0xed
 5006 1085 16       		.uleb128 0x16
 5007 1086 ED000000 		.4byte	0xed
 5008 108a 00       		.byte	0
 5009 108b 0A       		.uleb128 0xa
 5010 108c 04       		.byte	0x4
 5011 108d 7A100000 		.4byte	0x107a
 5012 1091 1E       		.uleb128 0x1e
 5013 1092 2F090000 		.4byte	.LASF203
 5014 1096 0D       		.byte	0xd
 5015 1097 8001     		.2byte	0x180
 5016 1099 7D0E0000 		.4byte	0xe7d
 5017 109d 01       		.byte	0x1
 5018 109e 01       		.byte	0x1
 5019 109f 11       		.uleb128 0x11
 5020 10a0 031F0000 		.4byte	.LASF204
 5021 10a4 01       		.byte	0x1
 5022 10a5 0E       		.byte	0xe
 5023 10a6 B4       		.byte	0xb4
 5024 10a7 CE100000 		.4byte	0x10ce
 5025 10ab 24       		.uleb128 0x24
 5026 10ac 4D696E00 		.ascii	"Min\000"
 5027 10b0 0E       		.byte	0xe
ARM GAS  C:\Users\EBANO_~1\AppData\Local\Temp\cchbxRq9.s 			page 108


 5028 10b1 BD       		.byte	0xbd
 5029 10b2 B1000000 		.4byte	0xb1
 5030 10b6 01       		.byte	0x1
 5031 10b7 04       		.byte	0x4
 5032 10b8 04       		.byte	0x4
 5033 10b9 02       		.byte	0x2
 5034 10ba 23       		.byte	0x23
 5035 10bb 00       		.uleb128 0
 5036 10bc 24       		.uleb128 0x24
 5037 10bd 4D617800 		.ascii	"Max\000"
 5038 10c1 0E       		.byte	0xe
 5039 10c2 C5       		.byte	0xc5
 5040 10c3 B1000000 		.4byte	0xb1
 5041 10c7 01       		.byte	0x1
 5042 10c8 04       		.byte	0x4
 5043 10c9 00       		.byte	0
 5044 10ca 02       		.byte	0x2
 5045 10cb 23       		.byte	0x23
 5046 10cc 00       		.uleb128 0
 5047 10cd 00       		.byte	0
 5048 10ce 1F       		.uleb128 0x1f
 5049 10cf F7080000 		.4byte	.LASF206
 5050 10d3 01       		.byte	0x1
 5051 10d4 0E       		.byte	0xe
 5052 10d5 AB       		.byte	0xab
 5053 10d6 F1100000 		.4byte	0x10f1
 5054 10da 0E       		.uleb128 0xe
 5055 10db 63200000 		.4byte	.LASF145
 5056 10df 0E       		.byte	0xe
 5057 10e0 B0       		.byte	0xb0
 5058 10e1 B1000000 		.4byte	0xb1
 5059 10e5 0E       		.uleb128 0xe
 5060 10e6 61110000 		.4byte	.LASF144
 5061 10ea 0E       		.byte	0xe
 5062 10eb C6       		.byte	0xc6
 5063 10ec 9F100000 		.4byte	0x109f
 5064 10f0 00       		.byte	0
 5065 10f1 03       		.uleb128 0x3
 5066 10f2 8F070000 		.4byte	.LASF207
 5067 10f6 0E       		.byte	0xe
 5068 10f7 C7       		.byte	0xc7
 5069 10f8 CE100000 		.4byte	0x10ce
 5070 10fc 11       		.uleb128 0x11
 5071 10fd 1E190000 		.4byte	.LASF208
 5072 1101 0C       		.byte	0xc
 5073 1102 0E       		.byte	0xe
 5074 1103 CC       		.byte	0xcc
 5075 1104 41110000 		.4byte	0x1141
 5076 1108 10       		.uleb128 0x10
 5077 1109 571C0000 		.4byte	.LASF209
 5078 110d 0E       		.byte	0xe
 5079 110e D1       		.byte	0xd1
 5080 110f ED000000 		.4byte	0xed
 5081 1113 02       		.byte	0x2
 5082 1114 23       		.byte	0x23
 5083 1115 00       		.uleb128 0
 5084 1116 10       		.uleb128 0x10
ARM GAS  C:\Users\EBANO_~1\AppData\Local\Temp\cchbxRq9.s 			page 109


 5085 1117 DA110000 		.4byte	.LASF210
 5086 111b 0E       		.byte	0xe
 5087 111c D5       		.byte	0xd5
 5088 111d ED000000 		.4byte	0xed
 5089 1121 02       		.byte	0x2
 5090 1122 23       		.byte	0x23
 5091 1123 04       		.uleb128 0x4
 5092 1124 10       		.uleb128 0x10
 5093 1125 5E050000 		.4byte	.LASF211
 5094 1129 0E       		.byte	0xe
 5095 112a D9       		.byte	0xd9
 5096 112b F1100000 		.4byte	0x10f1
 5097 112f 02       		.byte	0x2
 5098 1130 23       		.byte	0x23
 5099 1131 08       		.uleb128 0x8
 5100 1132 10       		.uleb128 0x10
 5101 1133 00090000 		.4byte	.LASF212
 5102 1137 0E       		.byte	0xe
 5103 1138 DD       		.byte	0xdd
 5104 1139 BC000000 		.4byte	0xbc
 5105 113d 02       		.byte	0x2
 5106 113e 23       		.byte	0x23
 5107 113f 09       		.uleb128 0x9
 5108 1140 00       		.byte	0
 5109 1141 03       		.uleb128 0x3
 5110 1142 FB0F0000 		.4byte	.LASF213
 5111 1146 0E       		.byte	0xe
 5112 1147 DE       		.byte	0xde
 5113 1148 FC100000 		.4byte	0x10fc
 5114 114c 25       		.uleb128 0x25
 5115 114d 2D0C0000 		.4byte	.LASF221
 5116 1151 07       		.byte	0x7
 5117 1152 01       		.byte	0x1
 5118 1153 46000000 		.4byte	0x46
 5119 1157 0E       		.byte	0xe
 5120 1158 F6       		.byte	0xf6
 5121 1159 7C110000 		.4byte	0x117c
 5122 115d 21       		.uleb128 0x21
 5123 115e BE180000 		.4byte	.LASF214
 5124 1162 00       		.byte	0
 5125 1163 21       		.uleb128 0x21
 5126 1164 CC180000 		.4byte	.LASF215
 5127 1168 01       		.byte	0x1
 5128 1169 21       		.uleb128 0x21
 5129 116a 00000000 		.4byte	.LASF216
 5130 116e 02       		.byte	0x2
 5131 116f 21       		.uleb128 0x21
 5132 1170 B91F0000 		.4byte	.LASF217
 5133 1174 03       		.byte	0x3
 5134 1175 21       		.uleb128 0x21
 5135 1176 900C0000 		.4byte	.LASF218
 5136 117a 04       		.byte	0x4
 5137 117b 00       		.byte	0
 5138 117c 0C       		.uleb128 0xc
 5139 117d 5A0F0000 		.4byte	.LASF219
 5140 1181 0E       		.byte	0xe
 5141 1182 0C01     		.2byte	0x10c
ARM GAS  C:\Users\EBANO_~1\AppData\Local\Temp\cchbxRq9.s 			page 110


 5142 1184 4C110000 		.4byte	0x114c
 5143 1188 02       		.uleb128 0x2
 5144 1189 04       		.byte	0x4
 5145 118a 04       		.byte	0x4
 5146 118b 99070000 		.4byte	.LASF220
 5147 118f 0A       		.uleb128 0xa
 5148 1190 04       		.byte	0x4
 5149 1191 41110000 		.4byte	0x1141
 5150 1195 0A       		.uleb128 0xa
 5151 1196 04       		.byte	0x4
 5152 1197 D7000000 		.4byte	0xd7
 5153 119b 26       		.uleb128 0x26
 5154 119c 12040000 		.4byte	.LASF222
 5155 11a0 07       		.byte	0x7
 5156 11a1 01       		.byte	0x1
 5157 11a2 46000000 		.4byte	0x46
 5158 11a6 0E       		.byte	0xe
 5159 11a7 2508     		.2byte	0x825
 5160 11a9 38120000 		.4byte	0x1238
 5161 11ad 21       		.uleb128 0x21
 5162 11ae 47170000 		.4byte	.LASF223
 5163 11b2 00       		.byte	0
 5164 11b3 21       		.uleb128 0x21
 5165 11b4 0B100000 		.4byte	.LASF224
 5166 11b8 01       		.byte	0x1
 5167 11b9 21       		.uleb128 0x21
 5168 11ba 69200000 		.4byte	.LASF225
 5169 11be 02       		.byte	0x2
 5170 11bf 21       		.uleb128 0x21
 5171 11c0 8A080000 		.4byte	.LASF226
 5172 11c4 03       		.byte	0x3
 5173 11c5 21       		.uleb128 0x21
 5174 11c6 83160000 		.4byte	.LASF227
 5175 11ca 04       		.byte	0x4
 5176 11cb 21       		.uleb128 0x21
 5177 11cc 8C1E0000 		.4byte	.LASF228
 5178 11d0 05       		.byte	0x5
 5179 11d1 21       		.uleb128 0x21
 5180 11d2 CE1D0000 		.4byte	.LASF229
 5181 11d6 06       		.byte	0x6
 5182 11d7 21       		.uleb128 0x21
 5183 11d8 A4010000 		.4byte	.LASF230
 5184 11dc 07       		.byte	0x7
 5185 11dd 21       		.uleb128 0x21
 5186 11de 18070000 		.4byte	.LASF231
 5187 11e2 08       		.byte	0x8
 5188 11e3 21       		.uleb128 0x21
 5189 11e4 360F0000 		.4byte	.LASF232
 5190 11e8 09       		.byte	0x9
 5191 11e9 21       		.uleb128 0x21
 5192 11ea 99200000 		.4byte	.LASF233
 5193 11ee 0A       		.byte	0xa
 5194 11ef 21       		.uleb128 0x21
 5195 11f0 38040000 		.4byte	.LASF234
 5196 11f4 0B       		.byte	0xb
 5197 11f5 21       		.uleb128 0x21
 5198 11f6 121A0000 		.4byte	.LASF235
ARM GAS  C:\Users\EBANO_~1\AppData\Local\Temp\cchbxRq9.s 			page 111


 5199 11fa 0C       		.byte	0xc
 5200 11fb 21       		.uleb128 0x21
 5201 11fc 0E110000 		.4byte	.LASF236
 5202 1200 0D       		.byte	0xd
 5203 1201 21       		.uleb128 0x21
 5204 1202 4F100000 		.4byte	.LASF237
 5205 1206 0E       		.byte	0xe
 5206 1207 21       		.uleb128 0x21
 5207 1208 00200000 		.4byte	.LASF238
 5208 120c 0F       		.byte	0xf
 5209 120d 21       		.uleb128 0x21
 5210 120e 481D0000 		.4byte	.LASF239
 5211 1212 10       		.byte	0x10
 5212 1213 21       		.uleb128 0x21
 5213 1214 FF020000 		.4byte	.LASF240
 5214 1218 11       		.byte	0x11
 5215 1219 21       		.uleb128 0x21
 5216 121a 6E0A0000 		.4byte	.LASF241
 5217 121e 12       		.byte	0x12
 5218 121f 21       		.uleb128 0x21
 5219 1220 6C0D0000 		.4byte	.LASF242
 5220 1224 13       		.byte	0x13
 5221 1225 21       		.uleb128 0x21
 5222 1226 F11D0000 		.4byte	.LASF243
 5223 122a 14       		.byte	0x14
 5224 122b 21       		.uleb128 0x21
 5225 122c 1C1C0000 		.4byte	.LASF244
 5226 1230 15       		.byte	0x15
 5227 1231 21       		.uleb128 0x21
 5228 1232 880F0000 		.4byte	.LASF245
 5229 1236 16       		.byte	0x16
 5230 1237 00       		.byte	0
 5231 1238 0C       		.uleb128 0xc
 5232 1239 A31D0000 		.4byte	.LASF246
 5233 123d 0E       		.byte	0xe
 5234 123e 8508     		.2byte	0x885
 5235 1240 9B110000 		.4byte	0x119b
 5236 1244 27       		.uleb128 0x27
 5237 1245 691F0000 		.4byte	.LASF431
 5238 1249 0E       		.byte	0xe
 5239 124a 2509     		.2byte	0x925
 5240 124c 1A010000 		.4byte	0x11a
 5241 1250 10       		.byte	0x10
 5242 1251 08       		.byte	0x8
 5243 1252 0A       		.byte	0xa
 5244 1253 0C       		.byte	0xc
 5245 1254 0D       		.byte	0xd
 5246 1255 0E       		.byte	0xe
 5247 1256 10       		.byte	0x10
 5248 1257 12       		.byte	0x12
 5249 1258 14       		.byte	0x14
 5250 1259 15       		.byte	0x15
 5251 125a 18       		.byte	0x18
 5252 125b 1A       		.byte	0x1a
 5253 125c 1B       		.byte	0x1b
 5254 125d 1D       		.byte	0x1d
 5255 125e 1E       		.byte	0x1e
ARM GAS  C:\Users\EBANO_~1\AppData\Local\Temp\cchbxRq9.s 			page 112


 5256 125f 21       		.byte	0x21
 5257 1260 24       		.byte	0x24
 5258 1261 26       		.uleb128 0x26
 5259 1262 32080000 		.4byte	.LASF247
 5260 1266 07       		.byte	0x7
 5261 1267 01       		.byte	0x1
 5262 1268 46000000 		.4byte	0x46
 5263 126c 0F       		.byte	0xf
 5264 126d 1202     		.2byte	0x212
 5265 126f B2130000 		.4byte	0x13b2
 5266 1273 21       		.uleb128 0x21
 5267 1274 B40A0000 		.4byte	.LASF248
 5268 1278 00       		.byte	0
 5269 1279 21       		.uleb128 0x21
 5270 127a E40B0000 		.4byte	.LASF249
 5271 127e 01       		.byte	0x1
 5272 127f 21       		.uleb128 0x21
 5273 1280 591B0000 		.4byte	.LASF250
 5274 1284 02       		.byte	0x2
 5275 1285 21       		.uleb128 0x21
 5276 1286 D80F0000 		.4byte	.LASF251
 5277 128a 03       		.byte	0x3
 5278 128b 21       		.uleb128 0x21
 5279 128c 2A1B0000 		.4byte	.LASF252
 5280 1290 04       		.byte	0x4
 5281 1291 21       		.uleb128 0x21
 5282 1292 61160000 		.4byte	.LASF253
 5283 1296 05       		.byte	0x5
 5284 1297 21       		.uleb128 0x21
 5285 1298 35050000 		.4byte	.LASF254
 5286 129c 06       		.byte	0x6
 5287 129d 21       		.uleb128 0x21
 5288 129e 0F0E0000 		.4byte	.LASF255
 5289 12a2 07       		.byte	0x7
 5290 12a3 21       		.uleb128 0x21
 5291 12a4 D2160000 		.4byte	.LASF256
 5292 12a8 08       		.byte	0x8
 5293 12a9 21       		.uleb128 0x21
 5294 12aa 59170000 		.4byte	.LASF257
 5295 12ae 09       		.byte	0x9
 5296 12af 21       		.uleb128 0x21
 5297 12b0 5D030000 		.4byte	.LASF258
 5298 12b4 0A       		.byte	0xa
 5299 12b5 21       		.uleb128 0x21
 5300 12b6 81100000 		.4byte	.LASF259
 5301 12ba 0B       		.byte	0xb
 5302 12bb 21       		.uleb128 0x21
 5303 12bc 130D0000 		.4byte	.LASF260
 5304 12c0 0C       		.byte	0xc
 5305 12c1 21       		.uleb128 0x21
 5306 12c2 5F1A0000 		.4byte	.LASF261
 5307 12c6 0D       		.byte	0xd
 5308 12c7 21       		.uleb128 0x21
 5309 12c8 49130000 		.4byte	.LASF262
 5310 12cc 0E       		.byte	0xe
 5311 12cd 21       		.uleb128 0x21
 5312 12ce 190B0000 		.4byte	.LASF263
ARM GAS  C:\Users\EBANO_~1\AppData\Local\Temp\cchbxRq9.s 			page 113


 5313 12d2 0F       		.byte	0xf
 5314 12d3 21       		.uleb128 0x21
 5315 12d4 F40E0000 		.4byte	.LASF264
 5316 12d8 10       		.byte	0x10
 5317 12d9 21       		.uleb128 0x21
 5318 12da 070F0000 		.4byte	.LASF265
 5319 12de 11       		.byte	0x11
 5320 12df 21       		.uleb128 0x21
 5321 12e0 4E000000 		.4byte	.LASF266
 5322 12e4 12       		.byte	0x12
 5323 12e5 21       		.uleb128 0x21
 5324 12e6 65000000 		.4byte	.LASF267
 5325 12ea 13       		.byte	0x13
 5326 12eb 21       		.uleb128 0x21
 5327 12ec F5170000 		.4byte	.LASF268
 5328 12f0 14       		.byte	0x14
 5329 12f1 21       		.uleb128 0x21
 5330 12f2 CA190000 		.4byte	.LASF269
 5331 12f6 15       		.byte	0x15
 5332 12f7 21       		.uleb128 0x21
 5333 12f8 EB050000 		.4byte	.LASF270
 5334 12fc 16       		.byte	0x16
 5335 12fd 21       		.uleb128 0x21
 5336 12fe 12080000 		.4byte	.LASF271
 5337 1302 17       		.byte	0x17
 5338 1303 21       		.uleb128 0x21
 5339 1304 CD0E0000 		.4byte	.LASF272
 5340 1308 18       		.byte	0x18
 5341 1309 21       		.uleb128 0x21
 5342 130a 3F1C0000 		.4byte	.LASF273
 5343 130e 19       		.byte	0x19
 5344 130f 21       		.uleb128 0x21
 5345 1310 1B060000 		.4byte	.LASF274
 5346 1314 1A       		.byte	0x1a
 5347 1315 21       		.uleb128 0x21
 5348 1316 1F150000 		.4byte	.LASF275
 5349 131a 1B       		.byte	0x1b
 5350 131b 21       		.uleb128 0x21
 5351 131c CD1E0000 		.4byte	.LASF276
 5352 1320 1C       		.byte	0x1c
 5353 1321 21       		.uleb128 0x21
 5354 1322 C5170000 		.4byte	.LASF277
 5355 1326 1D       		.byte	0x1d
 5356 1327 21       		.uleb128 0x21
 5357 1328 410E0000 		.4byte	.LASF278
 5358 132c 1E       		.byte	0x1e
 5359 132d 21       		.uleb128 0x21
 5360 132e 6A180000 		.4byte	.LASF279
 5361 1332 1F       		.byte	0x1f
 5362 1333 21       		.uleb128 0x21
 5363 1334 CC150000 		.4byte	.LASF280
 5364 1338 20       		.byte	0x20
 5365 1339 21       		.uleb128 0x21
 5366 133a 260E0000 		.4byte	.LASF281
 5367 133e 21       		.byte	0x21
 5368 133f 21       		.uleb128 0x21
 5369 1340 8F170000 		.4byte	.LASF282
ARM GAS  C:\Users\EBANO_~1\AppData\Local\Temp\cchbxRq9.s 			page 114


 5370 1344 22       		.byte	0x22
 5371 1345 21       		.uleb128 0x21
 5372 1346 DA010000 		.4byte	.LASF283
 5373 134a 23       		.byte	0x23
 5374 134b 21       		.uleb128 0x21
 5375 134c 63020000 		.4byte	.LASF284
 5376 1350 24       		.byte	0x24
 5377 1351 21       		.uleb128 0x21
 5378 1352 88060000 		.4byte	.LASF285
 5379 1356 25       		.byte	0x25
 5380 1357 21       		.uleb128 0x21
 5381 1358 7F110000 		.4byte	.LASF286
 5382 135c 26       		.byte	0x26
 5383 135d 21       		.uleb128 0x21
 5384 135e D20D0000 		.4byte	.LASF287
 5385 1362 27       		.byte	0x27
 5386 1363 21       		.uleb128 0x21
 5387 1364 100C0000 		.4byte	.LASF288
 5388 1368 28       		.byte	0x28
 5389 1369 21       		.uleb128 0x21
 5390 136a 690E0000 		.4byte	.LASF289
 5391 136e 29       		.byte	0x29
 5392 136f 21       		.uleb128 0x21
 5393 1370 7E0B0000 		.4byte	.LASF290
 5394 1374 2A       		.byte	0x2a
 5395 1375 21       		.uleb128 0x21
 5396 1376 CC200000 		.4byte	.LASF291
 5397 137a 2B       		.byte	0x2b
 5398 137b 21       		.uleb128 0x21
 5399 137c 66050000 		.4byte	.LASF292
 5400 1380 2C       		.byte	0x2c
 5401 1381 21       		.uleb128 0x21
 5402 1382 161E0000 		.4byte	.LASF293
 5403 1386 2D       		.byte	0x2d
 5404 1387 21       		.uleb128 0x21
 5405 1388 781A0000 		.4byte	.LASF294
 5406 138c 2E       		.byte	0x2e
 5407 138d 21       		.uleb128 0x21
 5408 138e 77170000 		.4byte	.LASF295
 5409 1392 2F       		.byte	0x2f
 5410 1393 21       		.uleb128 0x21
 5411 1394 F7000000 		.4byte	.LASF296
 5412 1398 30       		.byte	0x30
 5413 1399 21       		.uleb128 0x21
 5414 139a 3B110000 		.4byte	.LASF297
 5415 139e 31       		.byte	0x31
 5416 139f 21       		.uleb128 0x21
 5417 13a0 A40B0000 		.4byte	.LASF298
 5418 13a4 32       		.byte	0x32
 5419 13a5 21       		.uleb128 0x21
 5420 13a6 EF110000 		.4byte	.LASF299
 5421 13aa 33       		.byte	0x33
 5422 13ab 21       		.uleb128 0x21
 5423 13ac 111D0000 		.4byte	.LASF300
 5424 13b0 34       		.byte	0x34
 5425 13b1 00       		.byte	0
 5426 13b2 0C       		.uleb128 0xc
ARM GAS  C:\Users\EBANO_~1\AppData\Local\Temp\cchbxRq9.s 			page 115


 5427 13b3 3A020000 		.4byte	.LASF301
 5428 13b7 0F       		.byte	0xf
 5429 13b8 EE02     		.2byte	0x2ee
 5430 13ba 61120000 		.4byte	0x1261
 5431 13be 26       		.uleb128 0x26
 5432 13bf DA180000 		.4byte	.LASF302
 5433 13c3 07       		.byte	0x7
 5434 13c4 01       		.byte	0x1
 5435 13c5 46000000 		.4byte	0x46
 5436 13c9 0F       		.byte	0xf
 5437 13ca F302     		.2byte	0x2f3
 5438 13cc E3130000 		.4byte	0x13e3
 5439 13d0 21       		.uleb128 0x21
 5440 13d1 000E0000 		.4byte	.LASF303
 5441 13d5 00       		.byte	0
 5442 13d6 21       		.uleb128 0x21
 5443 13d7 C11C0000 		.4byte	.LASF304
 5444 13db 01       		.byte	0x1
 5445 13dc 21       		.uleb128 0x21
 5446 13dd F41A0000 		.4byte	.LASF305
 5447 13e1 02       		.byte	0x2
 5448 13e2 00       		.byte	0
 5449 13e3 0C       		.uleb128 0xc
 5450 13e4 9E040000 		.4byte	.LASF306
 5451 13e8 0F       		.byte	0xf
 5452 13e9 0203     		.2byte	0x302
 5453 13eb BE130000 		.4byte	0x13be
 5454 13ef 26       		.uleb128 0x26
 5455 13f0 93150000 		.4byte	.LASF307
 5456 13f4 07       		.byte	0x7
 5457 13f5 01       		.byte	0x1
 5458 13f6 46000000 		.4byte	0x46
 5459 13fa 0F       		.byte	0xf
 5460 13fb 0403     		.2byte	0x304
 5461 13fd 0E140000 		.4byte	0x140e
 5462 1401 21       		.uleb128 0x21
 5463 1402 54140000 		.4byte	.LASF308
 5464 1406 00       		.byte	0
 5465 1407 21       		.uleb128 0x21
 5466 1408 DF170000 		.4byte	.LASF309
 5467 140c 01       		.byte	0x1
 5468 140d 00       		.byte	0
 5469 140e 0C       		.uleb128 0xc
 5470 140f 8D010000 		.4byte	.LASF310
 5471 1413 0F       		.byte	0xf
 5472 1414 0E03     		.2byte	0x30e
 5473 1416 EF130000 		.4byte	0x13ef
 5474 141a 19       		.uleb128 0x19
 5475 141b B5000000 		.4byte	.LASF311
 5476 141f 03       		.byte	0x3
 5477 1420 0F       		.byte	0xf
 5478 1421 1303     		.2byte	0x313
 5479 1423 55140000 		.4byte	0x1455
 5480 1427 18       		.uleb128 0x18
 5481 1428 D0030000 		.4byte	.LASF312
 5482 142c 0F       		.byte	0xf
 5483 142d 1803     		.2byte	0x318
ARM GAS  C:\Users\EBANO_~1\AppData\Local\Temp\cchbxRq9.s 			page 116


 5484 142f BC000000 		.4byte	0xbc
 5485 1433 02       		.byte	0x2
 5486 1434 23       		.byte	0x23
 5487 1435 00       		.uleb128 0
 5488 1436 18       		.uleb128 0x18
 5489 1437 7C000000 		.4byte	.LASF313
 5490 143b 0F       		.byte	0xf
 5491 143c 1C03     		.2byte	0x31c
 5492 143e BC000000 		.4byte	0xbc
 5493 1442 02       		.byte	0x2
 5494 1443 23       		.byte	0x23
 5495 1444 01       		.uleb128 0x1
 5496 1445 18       		.uleb128 0x18
 5497 1446 E60F0000 		.4byte	.LASF314
 5498 144a 0F       		.byte	0xf
 5499 144b 2003     		.2byte	0x320
 5500 144d BC000000 		.4byte	0xbc
 5501 1451 02       		.byte	0x2
 5502 1452 23       		.byte	0x23
 5503 1453 02       		.uleb128 0x2
 5504 1454 00       		.byte	0
 5505 1455 0C       		.uleb128 0xc
 5506 1456 8B190000 		.4byte	.LASF315
 5507 145a 0F       		.byte	0xf
 5508 145b 2103     		.2byte	0x321
 5509 145d 1A140000 		.4byte	0x141a
 5510 1461 28       		.uleb128 0x28
 5511 1462 EA160000 		.4byte	.LASF316
 5512 1466 04       		.byte	0x4
 5513 1467 0F       		.byte	0xf
 5514 1468 2603     		.2byte	0x326
 5515 146a AB140000 		.4byte	0x14ab
 5516 146e 1C       		.uleb128 0x1c
 5517 146f 63200000 		.4byte	.LASF145
 5518 1473 0F       		.byte	0xf
 5519 1474 2B03     		.2byte	0x32b
 5520 1476 ED000000 		.4byte	0xed
 5521 147a 1C       		.uleb128 0x1c
 5522 147b B91A0000 		.4byte	.LASF317
 5523 147f 0F       		.byte	0xf
 5524 1480 2F03     		.2byte	0x32f
 5525 1482 88110000 		.4byte	0x1188
 5526 1486 1C       		.uleb128 0x1c
 5527 1487 FF1C0000 		.4byte	.LASF318
 5528 148b 0F       		.byte	0xf
 5529 148c 3303     		.2byte	0x333
 5530 148e 95110000 		.4byte	0x1195
 5531 1492 1C       		.uleb128 0x1c
 5532 1493 9A0D0000 		.4byte	.LASF319
 5533 1497 0F       		.byte	0xf
 5534 1498 3703     		.2byte	0x337
 5535 149a 8F110000 		.4byte	0x118f
 5536 149e 1C       		.uleb128 0x1c
 5537 149f B20F0000 		.4byte	.LASF320
 5538 14a3 0F       		.byte	0xf
 5539 14a4 3B03     		.2byte	0x33b
 5540 14a6 55140000 		.4byte	0x1455
ARM GAS  C:\Users\EBANO_~1\AppData\Local\Temp\cchbxRq9.s 			page 117


 5541 14aa 00       		.byte	0
 5542 14ab 0C       		.uleb128 0xc
 5543 14ac 1D130000 		.4byte	.LASF321
 5544 14b0 0F       		.byte	0xf
 5545 14b1 3C03     		.2byte	0x33c
 5546 14b3 61140000 		.4byte	0x1461
 5547 14b7 19       		.uleb128 0x19
 5548 14b8 5E0D0000 		.4byte	.LASF322
 5549 14bc 04       		.byte	0x4
 5550 14bd 0F       		.byte	0xf
 5551 14be 4103     		.2byte	0x341
 5552 14c0 01150000 		.4byte	0x1501
 5553 14c4 18       		.uleb128 0x18
 5554 14c5 28080000 		.4byte	.LASF323
 5555 14c9 0F       		.byte	0xf
 5556 14ca 4603     		.2byte	0x346
 5557 14cc B2130000 		.4byte	0x13b2
 5558 14d0 02       		.byte	0x2
 5559 14d1 23       		.byte	0x23
 5560 14d2 00       		.uleb128 0
 5561 14d3 18       		.uleb128 0x18
 5562 14d4 2A1D0000 		.4byte	.LASF324
 5563 14d8 0F       		.byte	0xf
 5564 14d9 4C03     		.2byte	0x34c
 5565 14db B1000000 		.4byte	0xb1
 5566 14df 02       		.byte	0x2
 5567 14e0 23       		.byte	0x23
 5568 14e1 01       		.uleb128 0x1
 5569 14e2 18       		.uleb128 0x18
 5570 14e3 DA190000 		.4byte	.LASF325
 5571 14e7 0F       		.byte	0xf
 5572 14e8 5303     		.2byte	0x353
 5573 14ea BC000000 		.4byte	0xbc
 5574 14ee 02       		.byte	0x2
 5575 14ef 23       		.byte	0x23
 5576 14f0 02       		.uleb128 0x2
 5577 14f1 18       		.uleb128 0x18
 5578 14f2 F0120000 		.4byte	.LASF326
 5579 14f6 0F       		.byte	0xf
 5580 14f7 5A03     		.2byte	0x35a
 5581 14f9 BC000000 		.4byte	0xbc
 5582 14fd 02       		.byte	0x2
 5583 14fe 23       		.byte	0x23
 5584 14ff 03       		.uleb128 0x3
 5585 1500 00       		.byte	0
 5586 1501 0C       		.uleb128 0xc
 5587 1502 5C040000 		.4byte	.LASF327
 5588 1506 0F       		.byte	0xf
 5589 1507 5B03     		.2byte	0x35b
 5590 1509 B7140000 		.4byte	0x14b7
 5591 150d 19       		.uleb128 0x19
 5592 150e 28130000 		.4byte	.LASF328
 5593 1512 08       		.byte	0x8
 5594 1513 0F       		.byte	0xf
 5595 1514 6003     		.2byte	0x360
 5596 1516 48150000 		.4byte	0x1548
 5597 151a 18       		.uleb128 0x18
ARM GAS  C:\Users\EBANO_~1\AppData\Local\Temp\cchbxRq9.s 			page 118


 5598 151b 10190000 		.4byte	.LASF329
 5599 151f 0F       		.byte	0xf
 5600 1520 6503     		.2byte	0x365
 5601 1522 BC000000 		.4byte	0xbc
 5602 1526 02       		.byte	0x2
 5603 1527 23       		.byte	0x23
 5604 1528 00       		.uleb128 0
 5605 1529 18       		.uleb128 0x18
 5606 152a 00110000 		.4byte	.LASF330
 5607 152e 0F       		.byte	0xf
 5608 152f 6903     		.2byte	0x369
 5609 1531 150B0000 		.4byte	0xb15
 5610 1535 02       		.byte	0x2
 5611 1536 23       		.byte	0x23
 5612 1537 01       		.uleb128 0x1
 5613 1538 18       		.uleb128 0x18
 5614 1539 BD040000 		.4byte	.LASF152
 5615 153d 0F       		.byte	0xf
 5616 153e 6D03     		.2byte	0x36d
 5617 1540 970A0000 		.4byte	0xa97
 5618 1544 02       		.byte	0x2
 5619 1545 23       		.byte	0x23
 5620 1546 04       		.uleb128 0x4
 5621 1547 00       		.byte	0
 5622 1548 0C       		.uleb128 0xc
 5623 1549 A30D0000 		.4byte	.LASF331
 5624 154d 0F       		.byte	0xf
 5625 154e 6E03     		.2byte	0x36e
 5626 1550 0D150000 		.4byte	0x150d
 5627 1554 19       		.uleb128 0x19
 5628 1555 06180000 		.4byte	.LASF332
 5629 1559 08       		.byte	0x8
 5630 155a 0F       		.byte	0xf
 5631 155b 7303     		.2byte	0x373
 5632 155d 80150000 		.4byte	0x1580
 5633 1561 18       		.uleb128 0x18
 5634 1562 EC1E0000 		.4byte	.LASF333
 5635 1566 0F       		.byte	0xf
 5636 1567 7803     		.2byte	0x378
 5637 1569 82010000 		.4byte	0x182
 5638 156d 02       		.byte	0x2
 5639 156e 23       		.byte	0x23
 5640 156f 00       		.uleb128 0
 5641 1570 18       		.uleb128 0x18
 5642 1571 E50A0000 		.4byte	.LASF334
 5643 1575 0F       		.byte	0xf
 5644 1576 7C03     		.2byte	0x37c
 5645 1578 E3130000 		.4byte	0x13e3
 5646 157c 02       		.byte	0x2
 5647 157d 23       		.byte	0x23
 5648 157e 04       		.uleb128 0x4
 5649 157f 00       		.byte	0
 5650 1580 0C       		.uleb128 0xc
 5651 1581 600C0000 		.4byte	.LASF335
 5652 1585 0F       		.byte	0xf
 5653 1586 7D03     		.2byte	0x37d
 5654 1588 54150000 		.4byte	0x1554
ARM GAS  C:\Users\EBANO_~1\AppData\Local\Temp\cchbxRq9.s 			page 119


 5655 158c 19       		.uleb128 0x19
 5656 158d 52070000 		.4byte	.LASF336
 5657 1591 04       		.byte	0x4
 5658 1592 0F       		.byte	0xf
 5659 1593 8203     		.2byte	0x382
 5660 1595 A9150000 		.4byte	0x15a9
 5661 1599 18       		.uleb128 0x18
 5662 159a CB0A0000 		.4byte	.LASF337
 5663 159e 0F       		.byte	0xf
 5664 159f 8703     		.2byte	0x387
 5665 15a1 70010000 		.4byte	0x170
 5666 15a5 02       		.byte	0x2
 5667 15a6 23       		.byte	0x23
 5668 15a7 00       		.uleb128 0
 5669 15a8 00       		.byte	0
 5670 15a9 0C       		.uleb128 0xc
 5671 15aa 3C120000 		.4byte	.LASF338
 5672 15ae 0F       		.byte	0xf
 5673 15af 8803     		.2byte	0x388
 5674 15b1 8C150000 		.4byte	0x158c
 5675 15b5 19       		.uleb128 0x19
 5676 15b6 0B060000 		.4byte	.LASF339
 5677 15ba 03       		.byte	0x3
 5678 15bb 0F       		.byte	0xf
 5679 15bc 9B03     		.2byte	0x39b
 5680 15be F0150000 		.4byte	0x15f0
 5681 15c2 18       		.uleb128 0x18
 5682 15c3 2A1D0000 		.4byte	.LASF324
 5683 15c7 0F       		.byte	0xf
 5684 15c8 A003     		.2byte	0x3a0
 5685 15ca B1000000 		.4byte	0xb1
 5686 15ce 02       		.byte	0x2
 5687 15cf 23       		.byte	0x23
 5688 15d0 00       		.uleb128 0
 5689 15d1 18       		.uleb128 0x18
 5690 15d2 F0120000 		.4byte	.LASF326
 5691 15d6 0F       		.byte	0xf
 5692 15d7 A403     		.2byte	0x3a4
 5693 15d9 BC000000 		.4byte	0xbc
 5694 15dd 02       		.byte	0x2
 5695 15de 23       		.byte	0x23
 5696 15df 01       		.uleb128 0x1
 5697 15e0 18       		.uleb128 0x18
 5698 15e1 DA190000 		.4byte	.LASF325
 5699 15e5 0F       		.byte	0xf
 5700 15e6 A803     		.2byte	0x3a8
 5701 15e8 BC000000 		.4byte	0xbc
 5702 15ec 02       		.byte	0x2
 5703 15ed 23       		.byte	0x23
 5704 15ee 02       		.uleb128 0x2
 5705 15ef 00       		.byte	0
 5706 15f0 28       		.uleb128 0x28
 5707 15f1 F21F0000 		.4byte	.LASF340
 5708 15f5 03       		.byte	0x3
 5709 15f6 0F       		.byte	0xf
 5710 15f7 8E03     		.2byte	0x38e
 5711 15f9 22160000 		.4byte	0x1622
ARM GAS  C:\Users\EBANO_~1\AppData\Local\Temp\cchbxRq9.s 			page 120


 5712 15fd 1C       		.uleb128 0x1c
 5713 15fe 491A0000 		.4byte	.LASF341
 5714 1602 0F       		.byte	0xf
 5715 1603 9303     		.2byte	0x393
 5716 1605 B1000000 		.4byte	0xb1
 5717 1609 1C       		.uleb128 0x1c
 5718 160a A51A0000 		.4byte	.LASF342
 5719 160e 0F       		.byte	0xf
 5720 160f 9703     		.2byte	0x397
 5721 1611 150B0000 		.4byte	0xb15
 5722 1615 1C       		.uleb128 0x1c
 5723 1616 74020000 		.4byte	.LASF343
 5724 161a 0F       		.byte	0xf
 5725 161b A903     		.2byte	0x3a9
 5726 161d B5150000 		.4byte	0x15b5
 5727 1621 00       		.byte	0
 5728 1622 0C       		.uleb128 0xc
 5729 1623 42200000 		.4byte	.LASF344
 5730 1627 0F       		.byte	0xf
 5731 1628 AA03     		.2byte	0x3aa
 5732 162a F0150000 		.4byte	0x15f0
 5733 162e 19       		.uleb128 0x19
 5734 162f 440D0000 		.4byte	.LASF345
 5735 1633 08       		.byte	0x8
 5736 1634 0F       		.byte	0xf
 5737 1635 AF03     		.2byte	0x3af
 5738 1637 5A160000 		.4byte	0x165a
 5739 163b 18       		.uleb128 0x18
 5740 163c 110B0000 		.4byte	.LASF346
 5741 1640 0F       		.byte	0xf
 5742 1641 B403     		.2byte	0x3b4
 5743 1643 840A0000 		.4byte	0xa84
 5744 1647 02       		.byte	0x2
 5745 1648 23       		.byte	0x23
 5746 1649 00       		.uleb128 0
 5747 164a 18       		.uleb128 0x18
 5748 164b 1F100000 		.4byte	.LASF347
 5749 164f 0F       		.byte	0xf
 5750 1650 B803     		.2byte	0x3b8
 5751 1652 BC000000 		.4byte	0xbc
 5752 1656 02       		.byte	0x2
 5753 1657 23       		.byte	0x23
 5754 1658 04       		.uleb128 0x4
 5755 1659 00       		.byte	0
 5756 165a 0C       		.uleb128 0xc
 5757 165b FF0C0000 		.4byte	.LASF348
 5758 165f 0F       		.byte	0xf
 5759 1660 B903     		.2byte	0x3b9
 5760 1662 2E160000 		.4byte	0x162e
 5761 1666 19       		.uleb128 0x19
 5762 1667 AC1E0000 		.4byte	.LASF349
 5763 166b 08       		.byte	0x8
 5764 166c 0F       		.byte	0xf
 5765 166d BE03     		.2byte	0x3be
 5766 166f 92160000 		.4byte	0x1692
 5767 1673 18       		.uleb128 0x18
 5768 1674 38170000 		.4byte	.LASF350
ARM GAS  C:\Users\EBANO_~1\AppData\Local\Temp\cchbxRq9.s 			page 121


 5769 1678 0F       		.byte	0xf
 5770 1679 C303     		.2byte	0x3c3
 5771 167b 95110000 		.4byte	0x1195
 5772 167f 02       		.byte	0x2
 5773 1680 23       		.byte	0x23
 5774 1681 00       		.uleb128 0
 5775 1682 18       		.uleb128 0x18
 5776 1683 41190000 		.4byte	.LASF351
 5777 1687 0F       		.byte	0xf
 5778 1688 C703     		.2byte	0x3c7
 5779 168a 0E140000 		.4byte	0x140e
 5780 168e 02       		.byte	0x2
 5781 168f 23       		.byte	0x23
 5782 1690 04       		.uleb128 0x4
 5783 1691 00       		.byte	0
 5784 1692 0C       		.uleb128 0xc
 5785 1693 220F0000 		.4byte	.LASF352
 5786 1697 0F       		.byte	0xf
 5787 1698 C803     		.2byte	0x3c8
 5788 169a 66160000 		.4byte	0x1666
 5789 169e 19       		.uleb128 0x19
 5790 169f 51110000 		.4byte	.LASF353
 5791 16a3 14       		.byte	0x14
 5792 16a4 0F       		.byte	0xf
 5793 16a5 CD03     		.2byte	0x3cd
 5794 16a7 51170000 		.4byte	0x1751
 5795 16ab 18       		.uleb128 0x18
 5796 16ac 10190000 		.4byte	.LASF329
 5797 16b0 0F       		.byte	0xf
 5798 16b1 D203     		.2byte	0x3d2
 5799 16b3 BC000000 		.4byte	0xbc
 5800 16b7 02       		.byte	0x2
 5801 16b8 23       		.byte	0x23
 5802 16b9 00       		.uleb128 0
 5803 16ba 18       		.uleb128 0x18
 5804 16bb 2A1D0000 		.4byte	.LASF324
 5805 16bf 0F       		.byte	0xf
 5806 16c0 D603     		.2byte	0x3d6
 5807 16c2 B1000000 		.4byte	0xb1
 5808 16c6 02       		.byte	0x2
 5809 16c7 23       		.byte	0x23
 5810 16c8 01       		.uleb128 0x1
 5811 16c9 18       		.uleb128 0x18
 5812 16ca 9B1A0000 		.4byte	.LASF354
 5813 16ce 0F       		.byte	0xf
 5814 16cf DA03     		.2byte	0x3da
 5815 16d1 BC000000 		.4byte	0xbc
 5816 16d5 02       		.byte	0x2
 5817 16d6 23       		.byte	0x23
 5818 16d7 02       		.uleb128 0x2
 5819 16d8 18       		.uleb128 0x18
 5820 16d9 5A020000 		.4byte	.LASF355
 5821 16dd 0F       		.byte	0xf
 5822 16de DE03     		.2byte	0x3de
 5823 16e0 B1000000 		.4byte	0xb1
 5824 16e4 02       		.byte	0x2
 5825 16e5 23       		.byte	0x23
ARM GAS  C:\Users\EBANO_~1\AppData\Local\Temp\cchbxRq9.s 			page 122


 5826 16e6 03       		.uleb128 0x3
 5827 16e7 18       		.uleb128 0x18
 5828 16e8 571C0000 		.4byte	.LASF209
 5829 16ec 0F       		.byte	0xf
 5830 16ed E203     		.2byte	0x3e2
 5831 16ef ED000000 		.4byte	0xed
 5832 16f3 02       		.byte	0x2
 5833 16f4 23       		.byte	0x23
 5834 16f5 04       		.uleb128 0x4
 5835 16f6 18       		.uleb128 0x18
 5836 16f7 17090000 		.4byte	.LASF356
 5837 16fb 0F       		.byte	0xf
 5838 16fc E603     		.2byte	0x3e6
 5839 16fe ED000000 		.4byte	0xed
 5840 1702 02       		.byte	0x2
 5841 1703 23       		.byte	0x23
 5842 1704 08       		.uleb128 0x8
 5843 1705 18       		.uleb128 0x18
 5844 1706 7B060000 		.4byte	.LASF357
 5845 170a 0F       		.byte	0xf
 5846 170b EA03     		.2byte	0x3ea
 5847 170d E2000000 		.4byte	0xe2
 5848 1711 02       		.byte	0x2
 5849 1712 23       		.byte	0x23
 5850 1713 0C       		.uleb128 0xc
 5851 1714 18       		.uleb128 0x18
 5852 1715 F0120000 		.4byte	.LASF326
 5853 1719 0F       		.byte	0xf
 5854 171a EE03     		.2byte	0x3ee
 5855 171c BC000000 		.4byte	0xbc
 5856 1720 02       		.byte	0x2
 5857 1721 23       		.byte	0x23
 5858 1722 10       		.uleb128 0x10
 5859 1723 18       		.uleb128 0x18
 5860 1724 800C0000 		.4byte	.LASF358
 5861 1728 0F       		.byte	0xf
 5862 1729 F203     		.2byte	0x3f2
 5863 172b 150B0000 		.4byte	0xb15
 5864 172f 02       		.byte	0x2
 5865 1730 23       		.byte	0x23
 5866 1731 11       		.uleb128 0x11
 5867 1732 18       		.uleb128 0x18
 5868 1733 E71A0000 		.4byte	.LASF359
 5869 1737 0F       		.byte	0xf
 5870 1738 F603     		.2byte	0x3f6
 5871 173a 150B0000 		.4byte	0xb15
 5872 173e 02       		.byte	0x2
 5873 173f 23       		.byte	0x23
 5874 1740 12       		.uleb128 0x12
 5875 1741 18       		.uleb128 0x18
 5876 1742 83080000 		.4byte	.LASF360
 5877 1746 0F       		.byte	0xf
 5878 1747 FA03     		.2byte	0x3fa
 5879 1749 7C110000 		.4byte	0x117c
 5880 174d 02       		.byte	0x2
 5881 174e 23       		.byte	0x23
 5882 174f 13       		.uleb128 0x13
ARM GAS  C:\Users\EBANO_~1\AppData\Local\Temp\cchbxRq9.s 			page 123


 5883 1750 00       		.byte	0
 5884 1751 0C       		.uleb128 0xc
 5885 1752 C3000000 		.4byte	.LASF361
 5886 1756 0F       		.byte	0xf
 5887 1757 FB03     		.2byte	0x3fb
 5888 1759 9E160000 		.4byte	0x169e
 5889 175d 19       		.uleb128 0x19
 5890 175e A6100000 		.4byte	.LASF362
 5891 1762 10       		.byte	0x10
 5892 1763 0F       		.byte	0xf
 5893 1764 0004     		.2byte	0x400
 5894 1766 C5170000 		.4byte	0x17c5
 5895 176a 18       		.uleb128 0x18
 5896 176b 10190000 		.4byte	.LASF329
 5897 176f 0F       		.byte	0xf
 5898 1770 0504     		.2byte	0x405
 5899 1772 BC000000 		.4byte	0xbc
 5900 1776 02       		.byte	0x2
 5901 1777 23       		.byte	0x23
 5902 1778 00       		.uleb128 0
 5903 1779 18       		.uleb128 0x18
 5904 177a 2A1D0000 		.4byte	.LASF324
 5905 177e 0F       		.byte	0xf
 5906 177f 0904     		.2byte	0x409
 5907 1781 B1000000 		.4byte	0xb1
 5908 1785 02       		.byte	0x2
 5909 1786 23       		.byte	0x23
 5910 1787 01       		.uleb128 0x1
 5911 1788 18       		.uleb128 0x18
 5912 1789 491A0000 		.4byte	.LASF341
 5913 178d 0F       		.byte	0xf
 5914 178e 0D04     		.2byte	0x40d
 5915 1790 B1000000 		.4byte	0xb1
 5916 1794 02       		.byte	0x2
 5917 1795 23       		.byte	0x23
 5918 1796 02       		.uleb128 0x2
 5919 1797 18       		.uleb128 0x18
 5920 1798 EF030000 		.4byte	.LASF363
 5921 179c 0F       		.byte	0xf
 5922 179d 1104     		.2byte	0x411
 5923 179f 88110000 		.4byte	0x1188
 5924 17a3 02       		.byte	0x2
 5925 17a4 23       		.byte	0x23
 5926 17a5 04       		.uleb128 0x4
 5927 17a6 18       		.uleb128 0x18
 5928 17a7 3D130000 		.4byte	.LASF364
 5929 17ab 0F       		.byte	0xf
 5930 17ac 1504     		.2byte	0x415
 5931 17ae 88110000 		.4byte	0x1188
 5932 17b2 02       		.byte	0x2
 5933 17b3 23       		.byte	0x23
 5934 17b4 08       		.uleb128 0x8
 5935 17b5 18       		.uleb128 0x18
 5936 17b6 C70F0000 		.4byte	.LASF365
 5937 17ba 0F       		.byte	0xf
 5938 17bb 1904     		.2byte	0x419
 5939 17bd D7000000 		.4byte	0xd7
ARM GAS  C:\Users\EBANO_~1\AppData\Local\Temp\cchbxRq9.s 			page 124


 5940 17c1 02       		.byte	0x2
 5941 17c2 23       		.byte	0x23
 5942 17c3 0C       		.uleb128 0xc
 5943 17c4 00       		.byte	0
 5944 17c5 0C       		.uleb128 0xc
 5945 17c6 88200000 		.4byte	.LASF366
 5946 17ca 0F       		.byte	0xf
 5947 17cb 1A04     		.2byte	0x41a
 5948 17cd 5D170000 		.4byte	0x175d
 5949 17d1 19       		.uleb128 0x19
 5950 17d2 05090000 		.4byte	.LASF367
 5951 17d6 10       		.byte	0x10
 5952 17d7 0F       		.byte	0xf
 5953 17d8 1F04     		.2byte	0x41f
 5954 17da 57180000 		.4byte	0x1857
 5955 17de 18       		.uleb128 0x18
 5956 17df 46080000 		.4byte	.LASF368
 5957 17e3 0F       		.byte	0xf
 5958 17e4 2404     		.2byte	0x424
 5959 17e6 0A0B0000 		.4byte	0xb0a
 5960 17ea 02       		.byte	0x2
 5961 17eb 23       		.byte	0x23
 5962 17ec 00       		.uleb128 0
 5963 17ed 18       		.uleb128 0x18
 5964 17ee 110B0000 		.4byte	.LASF346
 5965 17f2 0F       		.byte	0xf
 5966 17f3 2804     		.2byte	0x428
 5967 17f5 840A0000 		.4byte	0xa84
 5968 17f9 02       		.byte	0x2
 5969 17fa 23       		.byte	0x23
 5970 17fb 04       		.uleb128 0x4
 5971 17fc 18       		.uleb128 0x18
 5972 17fd C8110000 		.4byte	.LASF369
 5973 1801 0F       		.byte	0xf
 5974 1802 2C04     		.2byte	0x42c
 5975 1804 BC000000 		.4byte	0xbc
 5976 1808 02       		.byte	0x2
 5977 1809 23       		.byte	0x23
 5978 180a 08       		.uleb128 0x8
 5979 180b 18       		.uleb128 0x18
 5980 180c DA190000 		.4byte	.LASF325
 5981 1810 0F       		.byte	0xf
 5982 1811 3004     		.2byte	0x430
 5983 1813 BC000000 		.4byte	0xbc
 5984 1817 02       		.byte	0x2
 5985 1818 23       		.byte	0x23
 5986 1819 09       		.uleb128 0x9
 5987 181a 18       		.uleb128 0x18
 5988 181b CF010000 		.4byte	.LASF370
 5989 181f 0F       		.byte	0xf
 5990 1820 3404     		.2byte	0x434
 5991 1822 150B0000 		.4byte	0xb15
 5992 1826 02       		.byte	0x2
 5993 1827 23       		.byte	0x23
 5994 1828 0A       		.uleb128 0xa
 5995 1829 18       		.uleb128 0x18
 5996 182a 010B0000 		.4byte	.LASF371
ARM GAS  C:\Users\EBANO_~1\AppData\Local\Temp\cchbxRq9.s 			page 125


 5997 182e 0F       		.byte	0xf
 5998 182f 3804     		.2byte	0x438
 5999 1831 B1000000 		.4byte	0xb1
 6000 1835 02       		.byte	0x2
 6001 1836 23       		.byte	0x23
 6002 1837 0B       		.uleb128 0xb
 6003 1838 18       		.uleb128 0x18
 6004 1839 3F140000 		.4byte	.LASF372
 6005 183d 0F       		.byte	0xf
 6006 183e 3C04     		.2byte	0x43c
 6007 1840 B1000000 		.4byte	0xb1
 6008 1844 02       		.byte	0x2
 6009 1845 23       		.byte	0x23
 6010 1846 0C       		.uleb128 0xc
 6011 1847 18       		.uleb128 0x18
 6012 1848 B31D0000 		.4byte	.LASF373
 6013 184c 0F       		.byte	0xf
 6014 184d 4004     		.2byte	0x440
 6015 184f BC000000 		.4byte	0xbc
 6016 1853 02       		.byte	0x2
 6017 1854 23       		.byte	0x23
 6018 1855 0D       		.uleb128 0xd
 6019 1856 00       		.byte	0
 6020 1857 0C       		.uleb128 0xc
 6021 1858 911F0000 		.4byte	.LASF374
 6022 185c 0F       		.byte	0xf
 6023 185d 4104     		.2byte	0x441
 6024 185f D1170000 		.4byte	0x17d1
 6025 1863 19       		.uleb128 0x19
 6026 1864 25030000 		.4byte	.LASF375
 6027 1868 08       		.byte	0x8
 6028 1869 0F       		.byte	0xf
 6029 186a 4604     		.2byte	0x446
 6030 186c 9E180000 		.4byte	0x189e
 6031 1870 18       		.uleb128 0x18
 6032 1871 2A1D0000 		.4byte	.LASF324
 6033 1875 0F       		.byte	0xf
 6034 1876 4B04     		.2byte	0x44b
 6035 1878 B1000000 		.4byte	0xb1
 6036 187c 02       		.byte	0x2
 6037 187d 23       		.byte	0x23
 6038 187e 00       		.uleb128 0
 6039 187f 18       		.uleb128 0x18
 6040 1880 5A020000 		.4byte	.LASF355
 6041 1884 0F       		.byte	0xf
 6042 1885 4F04     		.2byte	0x44f
 6043 1887 B1000000 		.4byte	0xb1
 6044 188b 02       		.byte	0x2
 6045 188c 23       		.byte	0x23
 6046 188d 01       		.uleb128 0x1
 6047 188e 18       		.uleb128 0x18
 6048 188f 571C0000 		.4byte	.LASF209
 6049 1893 0F       		.byte	0xf
 6050 1894 5304     		.2byte	0x453
 6051 1896 ED000000 		.4byte	0xed
 6052 189a 02       		.byte	0x2
 6053 189b 23       		.byte	0x23
ARM GAS  C:\Users\EBANO_~1\AppData\Local\Temp\cchbxRq9.s 			page 126


 6054 189c 04       		.uleb128 0x4
 6055 189d 00       		.byte	0
 6056 189e 0C       		.uleb128 0xc
 6057 189f 83030000 		.4byte	.LASF376
 6058 18a3 0F       		.byte	0xf
 6059 18a4 5404     		.2byte	0x454
 6060 18a6 63180000 		.4byte	0x1863
 6061 18aa 19       		.uleb128 0x19
 6062 18ab 1D0A0000 		.4byte	.LASF377
 6063 18af 08       		.byte	0x8
 6064 18b0 0F       		.byte	0xf
 6065 18b1 5904     		.2byte	0x459
 6066 18b3 D6180000 		.4byte	0x18d6
 6067 18b7 18       		.uleb128 0x18
 6068 18b8 AD1C0000 		.4byte	.LASF378
 6069 18bc 0F       		.byte	0xf
 6070 18bd 5E04     		.2byte	0x45e
 6071 18bf 8F110000 		.4byte	0x118f
 6072 18c3 02       		.byte	0x2
 6073 18c4 23       		.byte	0x23
 6074 18c5 00       		.uleb128 0
 6075 18c6 18       		.uleb128 0x18
 6076 18c7 1B030000 		.4byte	.LASF379
 6077 18cb 0F       		.byte	0xf
 6078 18cc 6204     		.2byte	0x462
 6079 18ce B1000000 		.4byte	0xb1
 6080 18d2 02       		.byte	0x2
 6081 18d3 23       		.byte	0x23
 6082 18d4 04       		.uleb128 0x4
 6083 18d5 00       		.byte	0
 6084 18d6 0C       		.uleb128 0xc
 6085 18d7 900A0000 		.4byte	.LASF380
 6086 18db 0F       		.byte	0xf
 6087 18dc 6304     		.2byte	0x463
 6088 18de AA180000 		.4byte	0x18aa
 6089 18e2 19       		.uleb128 0x19
 6090 18e3 25120000 		.4byte	.LASF381
 6091 18e7 03       		.byte	0x3
 6092 18e8 0F       		.byte	0xf
 6093 18e9 6804     		.2byte	0x468
 6094 18eb 1D190000 		.4byte	0x191d
 6095 18ef 18       		.uleb128 0x18
 6096 18f0 DA190000 		.4byte	.LASF325
 6097 18f4 0F       		.byte	0xf
 6098 18f5 6D04     		.2byte	0x46d
 6099 18f7 BC000000 		.4byte	0xbc
 6100 18fb 02       		.byte	0x2
 6101 18fc 23       		.byte	0x23
 6102 18fd 00       		.uleb128 0
 6103 18fe 18       		.uleb128 0x18
 6104 18ff F0120000 		.4byte	.LASF326
 6105 1903 0F       		.byte	0xf
 6106 1904 7104     		.2byte	0x471
 6107 1906 BC000000 		.4byte	0xbc
 6108 190a 02       		.byte	0x2
 6109 190b 23       		.byte	0x23
 6110 190c 01       		.uleb128 0x1
ARM GAS  C:\Users\EBANO_~1\AppData\Local\Temp\cchbxRq9.s 			page 127


 6111 190d 18       		.uleb128 0x18
 6112 190e EF030000 		.4byte	.LASF363
 6113 1912 0F       		.byte	0xf
 6114 1913 7504     		.2byte	0x475
 6115 1915 BC000000 		.4byte	0xbc
 6116 1919 02       		.byte	0x2
 6117 191a 23       		.byte	0x23
 6118 191b 02       		.uleb128 0x2
 6119 191c 00       		.byte	0
 6120 191d 0C       		.uleb128 0xc
 6121 191e 33150000 		.4byte	.LASF382
 6122 1922 0F       		.byte	0xf
 6123 1923 7604     		.2byte	0x476
 6124 1925 E2180000 		.4byte	0x18e2
 6125 1929 19       		.uleb128 0x19
 6126 192a 7D1F0000 		.4byte	.LASF383
 6127 192e 08       		.byte	0x8
 6128 192f 0F       		.byte	0xf
 6129 1930 7B04     		.2byte	0x47b
 6130 1932 55190000 		.4byte	0x1955
 6131 1936 18       		.uleb128 0x18
 6132 1937 1B030000 		.4byte	.LASF379
 6133 193b 0F       		.byte	0xf
 6134 193c 8004     		.2byte	0x480
 6135 193e BC000000 		.4byte	0xbc
 6136 1942 02       		.byte	0x2
 6137 1943 23       		.byte	0x23
 6138 1944 00       		.uleb128 0
 6139 1945 18       		.uleb128 0x18
 6140 1946 DA110000 		.4byte	.LASF210
 6141 194a 0F       		.byte	0xf
 6142 194b 8404     		.2byte	0x484
 6143 194d ED000000 		.4byte	0xed
 6144 1951 02       		.byte	0x2
 6145 1952 23       		.byte	0x23
 6146 1953 04       		.uleb128 0x4
 6147 1954 00       		.byte	0
 6148 1955 0C       		.uleb128 0xc
 6149 1956 6D120000 		.4byte	.LASF384
 6150 195a 0F       		.byte	0xf
 6151 195b 8504     		.2byte	0x485
 6152 195d 29190000 		.4byte	0x1929
 6153 1961 26       		.uleb128 0x26
 6154 1962 55080000 		.4byte	.LASF385
 6155 1966 07       		.byte	0x7
 6156 1967 01       		.byte	0x1
 6157 1968 46000000 		.4byte	0x46
 6158 196c 0F       		.byte	0xf
 6159 196d 8A04     		.2byte	0x48a
 6160 196f 80190000 		.4byte	0x1980
 6161 1973 21       		.uleb128 0x21
 6162 1974 B8160000 		.4byte	.LASF386
 6163 1978 00       		.byte	0
 6164 1979 21       		.uleb128 0x21
 6165 197a 9D0F0000 		.4byte	.LASF387
 6166 197e 01       		.byte	0x1
 6167 197f 00       		.byte	0
ARM GAS  C:\Users\EBANO_~1\AppData\Local\Temp\cchbxRq9.s 			page 128


 6168 1980 0C       		.uleb128 0xc
 6169 1981 3D1B0000 		.4byte	.LASF388
 6170 1985 0F       		.byte	0xf
 6171 1986 9404     		.2byte	0x494
 6172 1988 61190000 		.4byte	0x1961
 6173 198c 19       		.uleb128 0x19
 6174 198d CF060000 		.4byte	.LASF389
 6175 1991 0C       		.byte	0xc
 6176 1992 0F       		.byte	0xf
 6177 1993 9904     		.2byte	0x499
 6178 1995 F4190000 		.4byte	0x19f4
 6179 1999 18       		.uleb128 0x18
 6180 199a 00110000 		.4byte	.LASF330
 6181 199e 0F       		.byte	0xf
 6182 199f 9E04     		.2byte	0x49e
 6183 19a1 150B0000 		.4byte	0xb15
 6184 19a5 02       		.byte	0x2
 6185 19a6 23       		.byte	0x23
 6186 19a7 00       		.uleb128 0
 6187 19a8 18       		.uleb128 0x18
 6188 19a9 0C210000 		.4byte	.LASF390
 6189 19ad 0F       		.byte	0xf
 6190 19ae A204     		.2byte	0x4a2
 6191 19b0 150B0000 		.4byte	0xb15
 6192 19b4 02       		.byte	0x2
 6193 19b5 23       		.byte	0x23
 6194 19b6 01       		.uleb128 0x1
 6195 19b7 18       		.uleb128 0x18
 6196 19b8 93130000 		.4byte	.LASF391
 6197 19bc 0F       		.byte	0xf
 6198 19bd A604     		.2byte	0x4a6
 6199 19bf 150B0000 		.4byte	0xb15
 6200 19c3 02       		.byte	0x2
 6201 19c4 23       		.byte	0x23
 6202 19c5 02       		.uleb128 0x2
 6203 19c6 18       		.uleb128 0x18
 6204 19c7 10190000 		.4byte	.LASF329
 6205 19cb 0F       		.byte	0xf
 6206 19cc AA04     		.2byte	0x4aa
 6207 19ce BC000000 		.4byte	0xbc
 6208 19d2 02       		.byte	0x2
 6209 19d3 23       		.byte	0x23
 6210 19d4 03       		.uleb128 0x3
 6211 19d5 18       		.uleb128 0x18
 6212 19d6 5D0E0000 		.4byte	.LASF392
 6213 19da 0F       		.byte	0xf
 6214 19db AE04     		.2byte	0x4ae
 6215 19dd 970A0000 		.4byte	0xa97
 6216 19e1 02       		.byte	0x2
 6217 19e2 23       		.byte	0x23
 6218 19e3 04       		.uleb128 0x4
 6219 19e4 18       		.uleb128 0x18
 6220 19e5 EE010000 		.4byte	.LASF393
 6221 19e9 0F       		.byte	0xf
 6222 19ea B204     		.2byte	0x4b2
 6223 19ec 970A0000 		.4byte	0xa97
 6224 19f0 02       		.byte	0x2
ARM GAS  C:\Users\EBANO_~1\AppData\Local\Temp\cchbxRq9.s 			page 129


 6225 19f1 23       		.byte	0x23
 6226 19f2 08       		.uleb128 0x8
 6227 19f3 00       		.byte	0
 6228 19f4 0C       		.uleb128 0xc
 6229 19f5 00160000 		.4byte	.LASF394
 6230 19f9 0F       		.byte	0xf
 6231 19fa B304     		.2byte	0x4b3
 6232 19fc 8C190000 		.4byte	0x198c
 6233 1a00 19       		.uleb128 0x19
 6234 1a01 591F0000 		.4byte	.LASF395
 6235 1a05 0C       		.byte	0xc
 6236 1a06 0F       		.byte	0xf
 6237 1a07 B804     		.2byte	0x4b8
 6238 1a09 591A0000 		.4byte	0x1a59
 6239 1a0d 18       		.uleb128 0x18
 6240 1a0e A9020000 		.4byte	.LASF396
 6241 1a12 0F       		.byte	0xf
 6242 1a13 BD04     		.2byte	0x4bd
 6243 1a15 970A0000 		.4byte	0xa97
 6244 1a19 02       		.byte	0x2
 6245 1a1a 23       		.byte	0x23
 6246 1a1b 00       		.uleb128 0
 6247 1a1c 18       		.uleb128 0x18
 6248 1a1d 14020000 		.4byte	.LASF397
 6249 1a21 0F       		.byte	0xf
 6250 1a22 C104     		.2byte	0x4c1
 6251 1a24 970A0000 		.4byte	0xa97
 6252 1a28 02       		.byte	0x2
 6253 1a29 23       		.byte	0x23
 6254 1a2a 04       		.uleb128 0x4
 6255 1a2b 18       		.uleb128 0x18
 6256 1a2c 2A1D0000 		.4byte	.LASF324
 6257 1a30 0F       		.byte	0xf
 6258 1a31 C504     		.2byte	0x4c5
 6259 1a33 B1000000 		.4byte	0xb1
 6260 1a37 02       		.byte	0x2
 6261 1a38 23       		.byte	0x23
 6262 1a39 08       		.uleb128 0x8
 6263 1a3a 18       		.uleb128 0x18
 6264 1a3b 00110000 		.4byte	.LASF330
 6265 1a3f 0F       		.byte	0xf
 6266 1a40 C904     		.2byte	0x4c9
 6267 1a42 150B0000 		.4byte	0xb15
 6268 1a46 02       		.byte	0x2
 6269 1a47 23       		.byte	0x23
 6270 1a48 09       		.uleb128 0x9
 6271 1a49 18       		.uleb128 0x18
 6272 1a4a 93130000 		.4byte	.LASF391
 6273 1a4e 0F       		.byte	0xf
 6274 1a4f CD04     		.2byte	0x4cd
 6275 1a51 150B0000 		.4byte	0xb15
 6276 1a55 02       		.byte	0x2
 6277 1a56 23       		.byte	0x23
 6278 1a57 0A       		.uleb128 0xa
 6279 1a58 00       		.byte	0
 6280 1a59 0C       		.uleb128 0xc
 6281 1a5a 1F020000 		.4byte	.LASF398
ARM GAS  C:\Users\EBANO_~1\AppData\Local\Temp\cchbxRq9.s 			page 130


 6282 1a5e 0F       		.byte	0xf
 6283 1a5f CE04     		.2byte	0x4ce
 6284 1a61 001A0000 		.4byte	0x1a00
 6285 1a65 19       		.uleb128 0x19
 6286 1a66 44050000 		.4byte	.LASF399
 6287 1a6a 08       		.byte	0x8
 6288 1a6b 0F       		.byte	0xf
 6289 1a6c D304     		.2byte	0x4d3
 6290 1a6e 911A0000 		.4byte	0x1a91
 6291 1a72 18       		.uleb128 0x18
 6292 1a73 AD1C0000 		.4byte	.LASF378
 6293 1a77 0F       		.byte	0xf
 6294 1a78 D804     		.2byte	0x4d8
 6295 1a7a 8F110000 		.4byte	0x118f
 6296 1a7e 02       		.byte	0x2
 6297 1a7f 23       		.byte	0x23
 6298 1a80 00       		.uleb128 0
 6299 1a81 18       		.uleb128 0x18
 6300 1a82 1B030000 		.4byte	.LASF379
 6301 1a86 0F       		.byte	0xf
 6302 1a87 DC04     		.2byte	0x4dc
 6303 1a89 BC000000 		.4byte	0xbc
 6304 1a8d 02       		.byte	0x2
 6305 1a8e 23       		.byte	0x23
 6306 1a8f 04       		.uleb128 0x4
 6307 1a90 00       		.byte	0
 6308 1a91 0C       		.uleb128 0xc
 6309 1a92 8F120000 		.4byte	.LASF400
 6310 1a96 0F       		.byte	0xf
 6311 1a97 DD04     		.2byte	0x4dd
 6312 1a99 651A0000 		.4byte	0x1a65
 6313 1a9d 19       		.uleb128 0x19
 6314 1a9e F11B0000 		.4byte	.LASF401
 6315 1aa2 01       		.byte	0x1
 6316 1aa3 0F       		.byte	0xf
 6317 1aa4 E204     		.2byte	0x4e2
 6318 1aa6 BA1A0000 		.4byte	0x1aba
 6319 1aaa 18       		.uleb128 0x18
 6320 1aab 1B030000 		.4byte	.LASF379
 6321 1aaf 0F       		.byte	0xf
 6322 1ab0 E704     		.2byte	0x4e7
 6323 1ab2 BC000000 		.4byte	0xbc
 6324 1ab6 02       		.byte	0x2
 6325 1ab7 23       		.byte	0x23
 6326 1ab8 00       		.uleb128 0
 6327 1ab9 00       		.byte	0
 6328 1aba 0C       		.uleb128 0xc
 6329 1abb B7080000 		.4byte	.LASF402
 6330 1abf 0F       		.byte	0xf
 6331 1ac0 E804     		.2byte	0x4e8
 6332 1ac2 9D1A0000 		.4byte	0x1a9d
 6333 1ac6 19       		.uleb128 0x19
 6334 1ac7 061C0000 		.4byte	.LASF403
 6335 1acb 10       		.byte	0x10
 6336 1acc 0F       		.byte	0xf
 6337 1acd ED04     		.2byte	0x4ed
 6338 1acf 2E1B0000 		.4byte	0x1b2e
ARM GAS  C:\Users\EBANO_~1\AppData\Local\Temp\cchbxRq9.s 			page 131


 6339 1ad3 18       		.uleb128 0x18
 6340 1ad4 10190000 		.4byte	.LASF329
 6341 1ad8 0F       		.byte	0xf
 6342 1ad9 F204     		.2byte	0x4f2
 6343 1adb BC000000 		.4byte	0xbc
 6344 1adf 02       		.byte	0x2
 6345 1ae0 23       		.byte	0x23
 6346 1ae1 00       		.uleb128 0
 6347 1ae2 18       		.uleb128 0x18
 6348 1ae3 2A1D0000 		.4byte	.LASF324
 6349 1ae7 0F       		.byte	0xf
 6350 1ae8 F604     		.2byte	0x4f6
 6351 1aea B1000000 		.4byte	0xb1
 6352 1aee 02       		.byte	0x2
 6353 1aef 23       		.byte	0x23
 6354 1af0 01       		.uleb128 0x1
 6355 1af1 18       		.uleb128 0x18
 6356 1af2 491A0000 		.4byte	.LASF341
 6357 1af6 0F       		.byte	0xf
 6358 1af7 FA04     		.2byte	0x4fa
 6359 1af9 B1000000 		.4byte	0xb1
 6360 1afd 02       		.byte	0x2
 6361 1afe 23       		.byte	0x23
 6362 1aff 02       		.uleb128 0x2
 6363 1b00 18       		.uleb128 0x18
 6364 1b01 EF030000 		.4byte	.LASF363
 6365 1b05 0F       		.byte	0xf
 6366 1b06 FE04     		.2byte	0x4fe
 6367 1b08 88110000 		.4byte	0x1188
 6368 1b0c 02       		.byte	0x2
 6369 1b0d 23       		.byte	0x23
 6370 1b0e 04       		.uleb128 0x4
 6371 1b0f 18       		.uleb128 0x18
 6372 1b10 3D130000 		.4byte	.LASF364
 6373 1b14 0F       		.byte	0xf
 6374 1b15 0205     		.2byte	0x502
 6375 1b17 88110000 		.4byte	0x1188
 6376 1b1b 02       		.byte	0x2
 6377 1b1c 23       		.byte	0x23
 6378 1b1d 08       		.uleb128 0x8
 6379 1b1e 18       		.uleb128 0x18
 6380 1b1f DD0A0000 		.4byte	.LASF404
 6381 1b23 0F       		.byte	0xf
 6382 1b24 0605     		.2byte	0x506
 6383 1b26 D7000000 		.4byte	0xd7
 6384 1b2a 02       		.byte	0x2
 6385 1b2b 23       		.byte	0x23
 6386 1b2c 0C       		.uleb128 0xc
 6387 1b2d 00       		.byte	0
 6388 1b2e 0C       		.uleb128 0xc
 6389 1b2f BC140000 		.4byte	.LASF405
 6390 1b33 0F       		.byte	0xf
 6391 1b34 0705     		.2byte	0x507
 6392 1b36 C61A0000 		.4byte	0x1ac6
 6393 1b3a 19       		.uleb128 0x19
 6394 1b3b 4F060000 		.4byte	.LASF406
 6395 1b3f 0C       		.byte	0xc
ARM GAS  C:\Users\EBANO_~1\AppData\Local\Temp\cchbxRq9.s 			page 132


 6396 1b40 0F       		.byte	0xf
 6397 1b41 0C05     		.2byte	0x50c
 6398 1b43 751B0000 		.4byte	0x1b75
 6399 1b47 18       		.uleb128 0x18
 6400 1b48 861C0000 		.4byte	.LASF407
 6401 1b4c 0F       		.byte	0xf
 6402 1b4d 1105     		.2byte	0x511
 6403 1b4f D7000000 		.4byte	0xd7
 6404 1b53 02       		.byte	0x2
 6405 1b54 23       		.byte	0x23
 6406 1b55 00       		.uleb128 0
 6407 1b56 18       		.uleb128 0x18
 6408 1b57 ED0E0000 		.4byte	.LASF408
 6409 1b5b 0F       		.byte	0xf
 6410 1b5c 1505     		.2byte	0x515
 6411 1b5e ED000000 		.4byte	0xed
 6412 1b62 02       		.byte	0x2
 6413 1b63 23       		.byte	0x23
 6414 1b64 04       		.uleb128 0x4
 6415 1b65 18       		.uleb128 0x18
 6416 1b66 571C0000 		.4byte	.LASF209
 6417 1b6a 0F       		.byte	0xf
 6418 1b6b 1905     		.2byte	0x519
 6419 1b6d ED000000 		.4byte	0xed
 6420 1b71 02       		.byte	0x2
 6421 1b72 23       		.byte	0x23
 6422 1b73 08       		.uleb128 0x8
 6423 1b74 00       		.byte	0
 6424 1b75 0C       		.uleb128 0xc
 6425 1b76 F31E0000 		.4byte	.LASF409
 6426 1b7a 0F       		.byte	0xf
 6427 1b7b 1A05     		.2byte	0x51a
 6428 1b7d 3A1B0000 		.4byte	0x1b3a
 6429 1b81 11       		.uleb128 0x11
 6430 1b82 CC1A0000 		.4byte	.LASF410
 6431 1b86 06       		.byte	0x6
 6432 1b87 10       		.byte	0x10
 6433 1b88 2B       		.byte	0x2b
 6434 1b89 D41B0000 		.4byte	0x1bd4
 6435 1b8d 10       		.uleb128 0x10
 6436 1b8e 79040000 		.4byte	.LASF411
 6437 1b92 10       		.byte	0x10
 6438 1b93 30       		.byte	0x30
 6439 1b94 BC000000 		.4byte	0xbc
 6440 1b98 02       		.byte	0x2
 6441 1b99 23       		.byte	0x23
 6442 1b9a 00       		.uleb128 0
 6443 1b9b 10       		.uleb128 0x10
 6444 1b9c 2A1D0000 		.4byte	.LASF324
 6445 1ba0 10       		.byte	0x10
 6446 1ba1 34       		.byte	0x34
 6447 1ba2 B1000000 		.4byte	0xb1
 6448 1ba6 02       		.byte	0x2
 6449 1ba7 23       		.byte	0x23
 6450 1ba8 01       		.uleb128 0x1
 6451 1ba9 10       		.uleb128 0x10
 6452 1baa 491A0000 		.4byte	.LASF341
ARM GAS  C:\Users\EBANO_~1\AppData\Local\Temp\cchbxRq9.s 			page 133


 6453 1bae 10       		.byte	0x10
 6454 1baf 38       		.byte	0x38
 6455 1bb0 B1000000 		.4byte	0xb1
 6456 1bb4 02       		.byte	0x2
 6457 1bb5 23       		.byte	0x23
 6458 1bb6 02       		.uleb128 0x2
 6459 1bb7 10       		.uleb128 0x10
 6460 1bb8 66080000 		.4byte	.LASF412
 6461 1bbc 10       		.byte	0x10
 6462 1bbd 3C       		.byte	0x3c
 6463 1bbe BC000000 		.4byte	0xbc
 6464 1bc2 02       		.byte	0x2
 6465 1bc3 23       		.byte	0x23
 6466 1bc4 03       		.uleb128 0x3
 6467 1bc5 10       		.uleb128 0x10
 6468 1bc6 E70D0000 		.4byte	.LASF413
 6469 1bca 10       		.byte	0x10
 6470 1bcb 40       		.byte	0x40
 6471 1bcc D7000000 		.4byte	0xd7
 6472 1bd0 02       		.byte	0x2
 6473 1bd1 23       		.byte	0x23
 6474 1bd2 04       		.uleb128 0x4
 6475 1bd3 00       		.byte	0
 6476 1bd4 03       		.uleb128 0x3
 6477 1bd5 440C0000 		.4byte	.LASF414
 6478 1bd9 10       		.byte	0x10
 6479 1bda 41       		.byte	0x41
 6480 1bdb 811B0000 		.4byte	0x1b81
 6481 1bdf 11       		.uleb128 0x11
 6482 1be0 14000000 		.4byte	.LASF415
 6483 1be4 20       		.byte	0x20
 6484 1be5 10       		.byte	0x10
 6485 1be6 43       		.byte	0x43
 6486 1be7 CC1C0000 		.4byte	0x1ccc
 6487 1beb 10       		.uleb128 0x10
 6488 1bec 46080000 		.4byte	.LASF368
 6489 1bf0 10       		.byte	0x10
 6490 1bf1 48       		.byte	0x48
 6491 1bf2 0A0B0000 		.4byte	0xb0a
 6492 1bf6 02       		.byte	0x2
 6493 1bf7 23       		.byte	0x23
 6494 1bf8 00       		.uleb128 0
 6495 1bf9 10       		.uleb128 0x10
 6496 1bfa B5140000 		.4byte	.LASF416
 6497 1bfe 10       		.byte	0x10
 6498 1bff 4C       		.byte	0x4c
 6499 1c00 BC000000 		.4byte	0xbc
 6500 1c04 02       		.byte	0x2
 6501 1c05 23       		.byte	0x23
 6502 1c06 04       		.uleb128 0x4
 6503 1c07 10       		.uleb128 0x10
 6504 1c08 CF010000 		.4byte	.LASF370
 6505 1c0c 10       		.byte	0x10
 6506 1c0d 50       		.byte	0x50
 6507 1c0e 150B0000 		.4byte	0xb15
 6508 1c12 02       		.byte	0x2
 6509 1c13 23       		.byte	0x23
ARM GAS  C:\Users\EBANO_~1\AppData\Local\Temp\cchbxRq9.s 			page 134


 6510 1c14 05       		.uleb128 0x5
 6511 1c15 10       		.uleb128 0x10
 6512 1c16 2A1D0000 		.4byte	.LASF324
 6513 1c1a 10       		.byte	0x10
 6514 1c1b 54       		.byte	0x54
 6515 1c1c B1000000 		.4byte	0xb1
 6516 1c20 02       		.byte	0x2
 6517 1c21 23       		.byte	0x23
 6518 1c22 06       		.uleb128 0x6
 6519 1c23 10       		.uleb128 0x10
 6520 1c24 491A0000 		.4byte	.LASF341
 6521 1c28 10       		.byte	0x10
 6522 1c29 58       		.byte	0x58
 6523 1c2a B1000000 		.4byte	0xb1
 6524 1c2e 02       		.byte	0x2
 6525 1c2f 23       		.byte	0x23
 6526 1c30 07       		.uleb128 0x7
 6527 1c31 10       		.uleb128 0x10
 6528 1c32 79040000 		.4byte	.LASF411
 6529 1c36 10       		.byte	0x10
 6530 1c37 5C       		.byte	0x5c
 6531 1c38 BC000000 		.4byte	0xbc
 6532 1c3c 02       		.byte	0x2
 6533 1c3d 23       		.byte	0x23
 6534 1c3e 08       		.uleb128 0x8
 6535 1c3f 10       		.uleb128 0x10
 6536 1c40 010B0000 		.4byte	.LASF371
 6537 1c44 10       		.byte	0x10
 6538 1c45 60       		.byte	0x60
 6539 1c46 B1000000 		.4byte	0xb1
 6540 1c4a 02       		.byte	0x2
 6541 1c4b 23       		.byte	0x23
 6542 1c4c 09       		.uleb128 0x9
 6543 1c4d 10       		.uleb128 0x10
 6544 1c4e 3F140000 		.4byte	.LASF372
 6545 1c52 10       		.byte	0x10
 6546 1c53 64       		.byte	0x64
 6547 1c54 B1000000 		.4byte	0xb1
 6548 1c58 02       		.byte	0x2
 6549 1c59 23       		.byte	0x23
 6550 1c5a 0A       		.uleb128 0xa
 6551 1c5b 10       		.uleb128 0x10
 6552 1c5c B31D0000 		.4byte	.LASF373
 6553 1c60 10       		.byte	0x10
 6554 1c61 68       		.byte	0x68
 6555 1c62 B1000000 		.4byte	0xb1
 6556 1c66 02       		.byte	0x2
 6557 1c67 23       		.byte	0x23
 6558 1c68 0B       		.uleb128 0xb
 6559 1c69 10       		.uleb128 0x10
 6560 1c6a 750C0000 		.4byte	.LASF417
 6561 1c6e 10       		.byte	0x10
 6562 1c6f 6C       		.byte	0x6c
 6563 1c70 BC000000 		.4byte	0xbc
 6564 1c74 02       		.byte	0x2
 6565 1c75 23       		.byte	0x23
 6566 1c76 0C       		.uleb128 0xc
ARM GAS  C:\Users\EBANO_~1\AppData\Local\Temp\cchbxRq9.s 			page 135


 6567 1c77 10       		.uleb128 0x10
 6568 1c78 FF1C0000 		.4byte	.LASF318
 6569 1c7c 10       		.byte	0x10
 6570 1c7d 70       		.byte	0x70
 6571 1c7e 95110000 		.4byte	0x1195
 6572 1c82 02       		.byte	0x2
 6573 1c83 23       		.byte	0x23
 6574 1c84 10       		.uleb128 0x10
 6575 1c85 10       		.uleb128 0x10
 6576 1c86 06040000 		.4byte	.LASF418
 6577 1c8a 10       		.byte	0x10
 6578 1c8b 74       		.byte	0x74
 6579 1c8c B1000000 		.4byte	0xb1
 6580 1c90 02       		.byte	0x2
 6581 1c91 23       		.byte	0x23
 6582 1c92 14       		.uleb128 0x14
 6583 1c93 10       		.uleb128 0x10
 6584 1c94 AB080000 		.4byte	.LASF419
 6585 1c98 10       		.byte	0x10
 6586 1c99 78       		.byte	0x78
 6587 1c9a B1000000 		.4byte	0xb1
 6588 1c9e 02       		.byte	0x2
 6589 1c9f 23       		.byte	0x23
 6590 1ca0 15       		.uleb128 0x15
 6591 1ca1 10       		.uleb128 0x10
 6592 1ca2 9A0D0000 		.4byte	.LASF319
 6593 1ca6 10       		.byte	0x10
 6594 1ca7 7C       		.byte	0x7c
 6595 1ca8 8F110000 		.4byte	0x118f
 6596 1cac 02       		.byte	0x2
 6597 1cad 23       		.byte	0x23
 6598 1cae 18       		.uleb128 0x18
 6599 1caf 10       		.uleb128 0x10
 6600 1cb0 89020000 		.4byte	.LASF420
 6601 1cb4 10       		.byte	0x10
 6602 1cb5 80       		.byte	0x80
 6603 1cb6 B1000000 		.4byte	0xb1
 6604 1cba 02       		.byte	0x2
 6605 1cbb 23       		.byte	0x23
 6606 1cbc 1C       		.uleb128 0x1c
 6607 1cbd 10       		.uleb128 0x10
 6608 1cbe B2040000 		.4byte	.LASF421
 6609 1cc2 10       		.byte	0x10
 6610 1cc3 84       		.byte	0x84
 6611 1cc4 B1000000 		.4byte	0xb1
 6612 1cc8 02       		.byte	0x2
 6613 1cc9 23       		.byte	0x23
 6614 1cca 1D       		.uleb128 0x1d
 6615 1ccb 00       		.byte	0
 6616 1ccc 03       		.uleb128 0x3
 6617 1ccd 1A140000 		.4byte	.LASF422
 6618 1cd1 10       		.byte	0x10
 6619 1cd2 85       		.byte	0x85
 6620 1cd3 DF1B0000 		.4byte	0x1bdf
 6621 1cd7 11       		.uleb128 0x11
 6622 1cd8 1A180000 		.4byte	.LASF423
 6623 1cdc 14       		.byte	0x14
ARM GAS  C:\Users\EBANO_~1\AppData\Local\Temp\cchbxRq9.s 			page 136


 6624 1cdd 10       		.byte	0x10
 6625 1cde 87       		.byte	0x87
 6626 1cdf 541D0000 		.4byte	0x1d54
 6627 1ce3 10       		.uleb128 0x10
 6628 1ce4 9A0D0000 		.4byte	.LASF319
 6629 1ce8 10       		.byte	0x10
 6630 1ce9 8C       		.byte	0x8c
 6631 1cea 8F110000 		.4byte	0x118f
 6632 1cee 02       		.byte	0x2
 6633 1cef 23       		.byte	0x23
 6634 1cf0 00       		.uleb128 0
 6635 1cf1 10       		.uleb128 0x10
 6636 1cf2 4E140000 		.4byte	.LASF424
 6637 1cf6 10       		.byte	0x10
 6638 1cf7 90       		.byte	0x90
 6639 1cf8 541D0000 		.4byte	0x1d54
 6640 1cfc 02       		.byte	0x2
 6641 1cfd 23       		.byte	0x23
 6642 1cfe 04       		.uleb128 0x4
 6643 1cff 10       		.uleb128 0x10
 6644 1d00 0C210000 		.4byte	.LASF390
 6645 1d04 10       		.byte	0x10
 6646 1d05 94       		.byte	0x94
 6647 1d06 150B0000 		.4byte	0xb15
 6648 1d0a 02       		.byte	0x2
 6649 1d0b 23       		.byte	0x23
 6650 1d0c 08       		.uleb128 0x8
 6651 1d0d 10       		.uleb128 0x10
 6652 1d0e 00110000 		.4byte	.LASF330
 6653 1d12 10       		.byte	0x10
 6654 1d13 98       		.byte	0x98
 6655 1d14 150B0000 		.4byte	0xb15
 6656 1d18 02       		.byte	0x2
 6657 1d19 23       		.byte	0x23
 6658 1d1a 09       		.uleb128 0x9
 6659 1d1b 10       		.uleb128 0x10
 6660 1d1c 93130000 		.4byte	.LASF391
 6661 1d20 10       		.byte	0x10
 6662 1d21 9C       		.byte	0x9c
 6663 1d22 150B0000 		.4byte	0xb15
 6664 1d26 02       		.byte	0x2
 6665 1d27 23       		.byte	0x23
 6666 1d28 0A       		.uleb128 0xa
 6667 1d29 10       		.uleb128 0x10
 6668 1d2a 10190000 		.4byte	.LASF329
 6669 1d2e 10       		.byte	0x10
 6670 1d2f A0       		.byte	0xa0
 6671 1d30 BC000000 		.4byte	0xbc
 6672 1d34 02       		.byte	0x2
 6673 1d35 23       		.byte	0x23
 6674 1d36 0B       		.uleb128 0xb
 6675 1d37 10       		.uleb128 0x10
 6676 1d38 5D0E0000 		.4byte	.LASF392
 6677 1d3c 10       		.byte	0x10
 6678 1d3d A4       		.byte	0xa4
 6679 1d3e 970A0000 		.4byte	0xa97
 6680 1d42 02       		.byte	0x2
ARM GAS  C:\Users\EBANO_~1\AppData\Local\Temp\cchbxRq9.s 			page 137


 6681 1d43 23       		.byte	0x23
 6682 1d44 0C       		.uleb128 0xc
 6683 1d45 10       		.uleb128 0x10
 6684 1d46 EE010000 		.4byte	.LASF393
 6685 1d4a 10       		.byte	0x10
 6686 1d4b A8       		.byte	0xa8
 6687 1d4c 970A0000 		.4byte	0xa97
 6688 1d50 02       		.byte	0x2
 6689 1d51 23       		.byte	0x23
 6690 1d52 10       		.uleb128 0x10
 6691 1d53 00       		.byte	0
 6692 1d54 0A       		.uleb128 0xa
 6693 1d55 04       		.byte	0x4
 6694 1d56 750B0000 		.4byte	0xb75
 6695 1d5a 03       		.uleb128 0x3
 6696 1d5b 0A1B0000 		.4byte	.LASF425
 6697 1d5f 10       		.byte	0x10
 6698 1d60 A9       		.byte	0xa9
 6699 1d61 D71C0000 		.4byte	0x1cd7
 6700 1d65 11       		.uleb128 0x11
 6701 1d66 AF030000 		.4byte	.LASF426
 6702 1d6a 14       		.byte	0x14
 6703 1d6b 10       		.byte	0x10
 6704 1d6c AB       		.byte	0xab
 6705 1d6d D41D0000 		.4byte	0x1dd4
 6706 1d71 10       		.uleb128 0x10
 6707 1d72 8E000000 		.4byte	.LASF427
 6708 1d76 10       		.byte	0x10
 6709 1d77 B0       		.byte	0xb0
 6710 1d78 D41D0000 		.4byte	0x1dd4
 6711 1d7c 02       		.byte	0x2
 6712 1d7d 23       		.byte	0x23
 6713 1d7e 00       		.uleb128 0
 6714 1d7f 10       		.uleb128 0x10
 6715 1d80 571C0000 		.4byte	.LASF209
 6716 1d84 10       		.byte	0x10
 6717 1d85 B4       		.byte	0xb4
 6718 1d86 ED000000 		.4byte	0xed
 6719 1d8a 02       		.byte	0x2
 6720 1d8b 23       		.byte	0x23
 6721 1d8c 04       		.uleb128 0x4
 6722 1d8d 10       		.uleb128 0x10
 6723 1d8e D0030000 		.4byte	.LASF312
 6724 1d92 10       		.byte	0x10
 6725 1d93 B8       		.byte	0xb8
 6726 1d94 BC000000 		.4byte	0xbc
 6727 1d98 02       		.byte	0x2
 6728 1d99 23       		.byte	0x23
 6729 1d9a 08       		.uleb128 0x8
 6730 1d9b 10       		.uleb128 0x10
 6731 1d9c B4060000 		.4byte	.LASF428
 6732 1da0 10       		.byte	0x10
 6733 1da1 BC       		.byte	0xbc
 6734 1da2 BC000000 		.4byte	0xbc
 6735 1da6 02       		.byte	0x2
 6736 1da7 23       		.byte	0x23
 6737 1da8 09       		.uleb128 0x9
ARM GAS  C:\Users\EBANO_~1\AppData\Local\Temp\cchbxRq9.s 			page 138


 6738 1da9 10       		.uleb128 0x10
 6739 1daa C8120000 		.4byte	.LASF429
 6740 1dae 10       		.byte	0x10
 6741 1daf C0       		.byte	0xc0
 6742 1db0 BC000000 		.4byte	0xbc
 6743 1db4 02       		.byte	0x2
 6744 1db5 23       		.byte	0x23
 6745 1db6 0A       		.uleb128 0xa
 6746 1db7 10       		.uleb128 0x10
 6747 1db8 ED0E0000 		.4byte	.LASF408
 6748 1dbc 10       		.byte	0x10
 6749 1dbd C4       		.byte	0xc4
 6750 1dbe ED000000 		.4byte	0xed
 6751 1dc2 02       		.byte	0x2
 6752 1dc3 23       		.byte	0x23
 6753 1dc4 0C       		.uleb128 0xc
 6754 1dc5 10       		.uleb128 0x10
 6755 1dc6 861C0000 		.4byte	.LASF407
 6756 1dca 10       		.byte	0x10
 6757 1dcb C8       		.byte	0xc8
 6758 1dcc D7000000 		.4byte	0xd7
 6759 1dd0 02       		.byte	0x2
 6760 1dd1 23       		.byte	0x23
 6761 1dd2 10       		.uleb128 0x10
 6762 1dd3 00       		.byte	0
 6763 1dd4 0A       		.uleb128 0xa
 6764 1dd5 04       		.byte	0x4
 6765 1dd6 C7000000 		.4byte	0xc7
 6766 1dda 03       		.uleb128 0x3
 6767 1ddb 64010000 		.4byte	.LASF430
 6768 1ddf 10       		.byte	0x10
 6769 1de0 C9       		.byte	0xc9
 6770 1de1 651D0000 		.4byte	0x1d65
 6771 1de5 07       		.uleb128 0x7
 6772 1de6 C7000000 		.4byte	0xc7
 6773 1dea F51D0000 		.4byte	0x1df5
 6774 1dee 08       		.uleb128 0x8
 6775 1def AA000000 		.4byte	0xaa
 6776 1df3 05       		.byte	0x5
 6777 1df4 00       		.byte	0
 6778 1df5 05       		.uleb128 0x5
 6779 1df6 E51D0000 		.4byte	0x1de5
 6780 1dfa 29       		.uleb128 0x29
 6781 1dfb 2A0D0000 		.4byte	.LASF432
 6782 1dff 11       		.byte	0x11
 6783 1e00 FE       		.byte	0xfe
 6784 1e01 F51D0000 		.4byte	0x1df5
 6785 1e05 05       		.byte	0x5
 6786 1e06 03       		.byte	0x3
 6787 1e07 C4000000 		.4byte	DataratesCN470
 6788 1e0b 07       		.uleb128 0x7
 6789 1e0c F8000000 		.4byte	0xf8
 6790 1e10 1B1E0000 		.4byte	0x1e1b
 6791 1e14 08       		.uleb128 0x8
 6792 1e15 AA000000 		.4byte	0xaa
 6793 1e19 05       		.byte	0x5
 6794 1e1a 00       		.byte	0
ARM GAS  C:\Users\EBANO_~1\AppData\Local\Temp\cchbxRq9.s 			page 139


 6795 1e1b 05       		.uleb128 0x5
 6796 1e1c 0B1E0000 		.4byte	0x1e0b
 6797 1e20 2A       		.uleb128 0x2a
 6798 1e21 6A0F0000 		.4byte	.LASF433
 6799 1e25 11       		.byte	0x11
 6800 1e26 0301     		.2byte	0x103
 6801 1e28 1B1E0000 		.4byte	0x1e1b
 6802 1e2c 05       		.byte	0x5
 6803 1e2d 03       		.byte	0x3
 6804 1e2e AC000000 		.4byte	BandwidthsCN470
 6805 1e32 2A       		.uleb128 0x2a
 6806 1e33 0B1F0000 		.4byte	.LASF434
 6807 1e37 11       		.byte	0x11
 6808 1e38 0801     		.2byte	0x108
 6809 1e3a F51D0000 		.4byte	0x1df5
 6810 1e3e 05       		.byte	0x5
 6811 1e3f 03       		.byte	0x3
 6812 1e40 CC000000 		.4byte	MaxPayloadOfDatarateCN470
 6813 1e44 2B       		.uleb128 0x2b
 6814 1e45 A3170000 		.4byte	.LASF447
 6815 1e49 11       		.byte	0x11
 6816 1e4a 0D01     		.2byte	0x10d
 6817 1e4c F51D0000 		.4byte	0x1df5
 6818 1e50 13       		.uleb128 0x13
 6819 1e51 98000000 		.4byte	.LASF435
 6820 1e55 A804     		.2byte	0x4a8
 6821 1e57 01       		.byte	0x1
 6822 1e58 2B       		.byte	0x2b
 6823 1e59 991E0000 		.4byte	0x1e99
 6824 1e5d 10       		.uleb128 0x10
 6825 1e5e 9A0D0000 		.4byte	.LASF319
 6826 1e62 01       		.byte	0x1
 6827 1e63 30       		.byte	0x30
 6828 1e64 991E0000 		.4byte	0x1e99
 6829 1e68 02       		.byte	0x2
 6830 1e69 23       		.byte	0x23
 6831 1e6a 00       		.uleb128 0
 6832 1e6b 10       		.uleb128 0x10
 6833 1e6c 4E140000 		.4byte	.LASF424
 6834 1e70 01       		.byte	0x1
 6835 1e71 34       		.byte	0x34
 6836 1e72 A91E0000 		.4byte	0x1ea9
 6837 1e76 03       		.byte	0x3
 6838 1e77 23       		.byte	0x23
 6839 1e78 8009     		.uleb128 0x480
 6840 1e7a 10       		.uleb128 0x10
 6841 1e7b FF1C0000 		.4byte	.LASF318
 6842 1e7f 01       		.byte	0x1
 6843 1e80 38       		.byte	0x38
 6844 1e81 B91E0000 		.4byte	0x1eb9
 6845 1e85 03       		.byte	0x3
 6846 1e86 23       		.byte	0x23
 6847 1e87 9009     		.uleb128 0x490
 6848 1e89 10       		.uleb128 0x10
 6849 1e8a 5D150000 		.4byte	.LASF436
 6850 1e8e 01       		.byte	0x1
 6851 1e8f 3C       		.byte	0x3c
ARM GAS  C:\Users\EBANO_~1\AppData\Local\Temp\cchbxRq9.s 			page 140


 6852 1e90 B91E0000 		.4byte	0x1eb9
 6853 1e94 03       		.byte	0x3
 6854 1e95 23       		.byte	0x23
 6855 1e96 9C09     		.uleb128 0x49c
 6856 1e98 00       		.byte	0
 6857 1e99 07       		.uleb128 0x7
 6858 1e9a 41110000 		.4byte	0x1141
 6859 1e9e A91E0000 		.4byte	0x1ea9
 6860 1ea2 08       		.uleb128 0x8
 6861 1ea3 AA000000 		.4byte	0xaa
 6862 1ea7 5F       		.byte	0x5f
 6863 1ea8 00       		.byte	0
 6864 1ea9 07       		.uleb128 0x7
 6865 1eaa 750B0000 		.4byte	0xb75
 6866 1eae B91E0000 		.4byte	0x1eb9
 6867 1eb2 08       		.uleb128 0x8
 6868 1eb3 AA000000 		.4byte	0xaa
 6869 1eb7 00       		.byte	0
 6870 1eb8 00       		.byte	0
 6871 1eb9 07       		.uleb128 0x7
 6872 1eba D7000000 		.4byte	0xd7
 6873 1ebe C91E0000 		.4byte	0x1ec9
 6874 1ec2 08       		.uleb128 0x8
 6875 1ec3 AA000000 		.4byte	0xaa
 6876 1ec7 05       		.byte	0x5
 6877 1ec8 00       		.byte	0
 6878 1ec9 03       		.uleb128 0x3
 6879 1eca 24100000 		.4byte	.LASF437
 6880 1ece 01       		.byte	0x1
 6881 1ecf 3D       		.byte	0x3d
 6882 1ed0 501E0000 		.4byte	0x1e50
 6883 1ed4 29       		.uleb128 0x29
 6884 1ed5 EC1E0000 		.4byte	.LASF333
 6885 1ed9 01       		.byte	0x1
 6886 1eda 42       		.byte	0x42
 6887 1edb C91E0000 		.4byte	0x1ec9
 6888 1edf 05       		.byte	0x5
 6889 1ee0 03       		.byte	0x3
 6890 1ee1 00000000 		.4byte	NvmCtx
 6891 1ee5 2C       		.uleb128 0x2c
 6892 1ee6 01       		.byte	0x1
 6893 1ee7 D91F0000 		.4byte	.LASF444
 6894 1eeb 01       		.byte	0x1
 6895 1eec 2F03     		.2byte	0x32f
 6896 1eee 01       		.byte	0x1
 6897 1eef 00000000 		.4byte	.LFB66
 6898 1ef3 38000000 		.4byte	.LFE66
 6899 1ef7 00000000 		.4byte	.LLST88
 6900 1efb 01       		.byte	0x1
 6901 1efc 401F0000 		.4byte	0x1f40
 6902 1f00 2D       		.uleb128 0x2d
 6903 1f01 E31B0000 		.4byte	.LASF438
 6904 1f05 01       		.byte	0x1
 6905 1f06 2F03     		.2byte	0x32f
 6906 1f08 401F0000 		.4byte	0x1f40
 6907 1f0c 2C000000 		.4byte	.LLST89
 6908 1f10 2D       		.uleb128 0x2d
ARM GAS  C:\Users\EBANO_~1\AppData\Local\Temp\cchbxRq9.s 			page 141


 6909 1f11 200E0000 		.4byte	.LASF439
 6910 1f15 01       		.byte	0x1
 6911 1f16 2F03     		.2byte	0x32f
 6912 1f18 840A0000 		.4byte	0xa84
 6913 1f1c 4D000000 		.4byte	.LLST90
 6914 1f20 2A       		.uleb128 0x2a
 6915 1f21 891D0000 		.4byte	.LASF440
 6916 1f25 01       		.byte	0x1
 6917 1f26 3103     		.2byte	0x331
 6918 1f28 DA1D0000 		.4byte	0x1dda
 6919 1f2c 02       		.byte	0x2
 6920 1f2d 91       		.byte	0x91
 6921 1f2e 64       		.sleb128 -28
 6922 1f2f 2E       		.uleb128 0x2e
 6923 1f30 28000000 		.4byte	.LVL252
 6924 1f34 A22D0000 		.4byte	0x2da2
 6925 1f38 2F       		.uleb128 0x2f
 6926 1f39 01       		.byte	0x1
 6927 1f3a 50       		.byte	0x50
 6928 1f3b 02       		.byte	0x2
 6929 1f3c 91       		.byte	0x91
 6930 1f3d 64       		.sleb128 -28
 6931 1f3e 00       		.byte	0
 6932 1f3f 00       		.byte	0
 6933 1f40 0A       		.uleb128 0xa
 6934 1f41 04       		.byte	0x4
 6935 1f42 751B0000 		.4byte	0x1b75
 6936 1f46 30       		.uleb128 0x30
 6937 1f47 01       		.byte	0x1
 6938 1f48 1F170000 		.4byte	.LASF451
 6939 1f4c 01       		.byte	0x1
 6940 1f4d 2403     		.2byte	0x324
 6941 1f4f 01       		.byte	0x1
 6942 1f50 BC000000 		.4byte	0xbc
 6943 1f54 00000000 		.4byte	.LFB65
 6944 1f58 0E000000 		.4byte	.LFE65
 6945 1f5c 02       		.byte	0x2
 6946 1f5d 7D       		.byte	0x7d
 6947 1f5e 00       		.sleb128 0
 6948 1f5f 01       		.byte	0x1
 6949 1f60 AC1F0000 		.4byte	0x1fac
 6950 1f64 2D       		.uleb128 0x2d
 6951 1f65 321A0000 		.4byte	.LASF441
 6952 1f69 01       		.byte	0x1
 6953 1f6a 2403     		.2byte	0x324
 6954 1f6c BC000000 		.4byte	0xbc
 6955 1f70 79000000 		.4byte	.LLST86
 6956 1f74 31       		.uleb128 0x31
 6957 1f75 647200   		.ascii	"dr\000"
 6958 1f78 01       		.byte	0x1
 6959 1f79 2403     		.2byte	0x324
 6960 1f7b B1000000 		.4byte	0xb1
 6961 1f7f 9A000000 		.4byte	.LLST87
 6962 1f83 32       		.uleb128 0x32
 6963 1f84 B9200000 		.4byte	.LASF442
 6964 1f88 01       		.byte	0x1
 6965 1f89 2403     		.2byte	0x324
ARM GAS  C:\Users\EBANO_~1\AppData\Local\Temp\cchbxRq9.s 			page 142


 6966 1f8b B1000000 		.4byte	0xb1
 6967 1f8f 01       		.byte	0x1
 6968 1f90 52       		.byte	0x52
 6969 1f91 2A       		.uleb128 0x2a
 6970 1f92 A9040000 		.4byte	.LASF443
 6971 1f96 01       		.byte	0x1
 6972 1f97 2603     		.2byte	0x326
 6973 1f99 B1000000 		.4byte	0xb1
 6974 1f9d 0D       		.byte	0xd
 6975 1f9e 71       		.byte	0x71
 6976 1f9f 00       		.sleb128 0
 6977 1fa0 12       		.byte	0x12
 6978 1fa1 30       		.byte	0x30
 6979 1fa2 16       		.byte	0x16
 6980 1fa3 14       		.byte	0x14
 6981 1fa4 2B       		.byte	0x2b
 6982 1fa5 28       		.byte	0x28
 6983 1fa6 0100     		.2byte	0x1
 6984 1fa8 16       		.byte	0x16
 6985 1fa9 13       		.byte	0x13
 6986 1faa 9F       		.byte	0x9f
 6987 1fab 00       		.byte	0
 6988 1fac 2C       		.uleb128 0x2c
 6989 1fad 01       		.byte	0x1
 6990 1fae C10B0000 		.4byte	.LASF445
 6991 1fb2 01       		.byte	0x1
 6992 1fb3 1803     		.2byte	0x318
 6993 1fb5 01       		.byte	0x1
 6994 1fb6 00000000 		.4byte	.LFB64
 6995 1fba 50000000 		.4byte	.LFE64
 6996 1fbe BB000000 		.4byte	.LLST81
 6997 1fc2 01       		.byte	0x1
 6998 1fc3 58200000 		.4byte	0x2058
 6999 1fc7 2D       		.uleb128 0x2d
 7000 1fc8 35060000 		.4byte	.LASF446
 7001 1fcc 01       		.byte	0x1
 7002 1fcd 1803     		.2byte	0x318
 7003 1fcf 58200000 		.4byte	0x2058
 7004 1fd3 E7000000 		.4byte	.LLST82
 7005 1fd7 2B       		.uleb128 0x2b
 7006 1fd8 C8130000 		.4byte	.LASF448
 7007 1fdc 01       		.byte	0x1
 7008 1fdd 1A03     		.2byte	0x31a
 7009 1fdf B1000000 		.4byte	0xb1
 7010 1fe3 33       		.uleb128 0x33
 7011 1fe4 44060000 		.4byte	.LASF449
 7012 1fe8 01       		.byte	0x1
 7013 1fe9 1B03     		.2byte	0x31b
 7014 1feb B1000000 		.4byte	0xb1
 7015 1fef 13010000 		.4byte	.LLST83
 7016 1ff3 33       		.uleb128 0x33
 7017 1ff4 CF1F0000 		.4byte	.LASF450
 7018 1ff8 01       		.byte	0x1
 7019 1ff9 1C03     		.2byte	0x31c
 7020 1ffb ED000000 		.4byte	0xed
 7021 1fff 32010000 		.4byte	.LLST84
 7022 2003 34       		.uleb128 0x34
ARM GAS  C:\Users\EBANO_~1\AppData\Local\Temp\cchbxRq9.s 			page 143


 7023 2004 722C0000 		.4byte	0x2c72
 7024 2008 14000000 		.4byte	.LBB73
 7025 200c 28010000 		.4byte	.Ldebug_ranges0+0x128
 7026 2010 01       		.byte	0x1
 7027 2011 1A03     		.2byte	0x31a
 7028 2013 42200000 		.4byte	0x2042
 7029 2017 35       		.uleb128 0x35
 7030 2018 992C0000 		.4byte	0x2c99
 7031 201c 45010000 		.4byte	.LLST85
 7032 2020 36       		.uleb128 0x36
 7033 2021 A42C0000 		.4byte	0x2ca4
 7034 2025 06       		.byte	0x6
 7035 2026 03       		.byte	0x3
 7036 2027 90040000 		.4byte	NvmCtx+1168
 7037 202b 9F       		.byte	0x9f
 7038 202c 37       		.uleb128 0x37
 7039 202d 8E2C0000 		.4byte	0x2c8e
 7040 2031 37       		.uleb128 0x37
 7041 2032 832C0000 		.4byte	0x2c83
 7042 2036 38       		.uleb128 0x38
 7043 2037 28010000 		.4byte	.Ldebug_ranges0+0x128
 7044 203b 39       		.uleb128 0x39
 7045 203c AF2C0000 		.4byte	0x2caf
 7046 2040 00       		.byte	0
 7047 2041 00       		.byte	0
 7048 2042 3A       		.uleb128 0x3a
 7049 2043 36000000 		.4byte	.LVL241
 7050 2047 B02D0000 		.4byte	0x2db0
 7051 204b 3B       		.uleb128 0x3b
 7052 204c 44000000 		.4byte	.LVL243
 7053 2050 2F       		.uleb128 0x2f
 7054 2051 01       		.byte	0x1
 7055 2052 50       		.byte	0x50
 7056 2053 02       		.byte	0x2
 7057 2054 75       		.byte	0x75
 7058 2055 00       		.sleb128 0
 7059 2056 00       		.byte	0
 7060 2057 00       		.byte	0
 7061 2058 0A       		.uleb128 0xa
 7062 2059 04       		.byte	0x4
 7063 205a 2E1B0000 		.4byte	0x1b2e
 7064 205e 30       		.uleb128 0x30
 7065 205f 01       		.byte	0x1
 7066 2060 C2020000 		.4byte	.LASF452
 7067 2064 01       		.byte	0x1
 7068 2065 1303     		.2byte	0x313
 7069 2067 01       		.byte	0x1
 7070 2068 150B0000 		.4byte	0xb15
 7071 206c 00000000 		.4byte	.LFB63
 7072 2070 04000000 		.4byte	.LFE63
 7073 2074 02       		.byte	0x2
 7074 2075 7D       		.byte	0x7d
 7075 2076 00       		.sleb128 0
 7076 2077 01       		.byte	0x1
 7077 2078 8D200000 		.4byte	0x208d
 7078 207c 2D       		.uleb128 0x2d
 7079 207d A41F0000 		.4byte	.LASF453
ARM GAS  C:\Users\EBANO_~1\AppData\Local\Temp\cchbxRq9.s 			page 144


 7080 2081 01       		.byte	0x1
 7081 2082 1303     		.2byte	0x313
 7082 2084 8D200000 		.4byte	0x208d
 7083 2088 65010000 		.4byte	.LLST80
 7084 208c 00       		.byte	0
 7085 208d 0A       		.uleb128 0xa
 7086 208e 04       		.byte	0x4
 7087 208f BA1A0000 		.4byte	0x1aba
 7088 2093 30       		.uleb128 0x30
 7089 2094 01       		.byte	0x1
 7090 2095 63070000 		.4byte	.LASF454
 7091 2099 01       		.byte	0x1
 7092 209a 0E03     		.2byte	0x30e
 7093 209c 01       		.byte	0x1
 7094 209d 38120000 		.4byte	0x1238
 7095 20a1 00000000 		.4byte	.LFB62
 7096 20a5 04000000 		.4byte	.LFE62
 7097 20a9 02       		.byte	0x2
 7098 20aa 7D       		.byte	0x7d
 7099 20ab 00       		.sleb128 0
 7100 20ac 01       		.byte	0x1
 7101 20ad C2200000 		.4byte	0x20c2
 7102 20b1 2D       		.uleb128 0x2d
 7103 20b2 77130000 		.4byte	.LASF455
 7104 20b6 01       		.byte	0x1
 7105 20b7 0E03     		.2byte	0x30e
 7106 20b9 C2200000 		.4byte	0x20c2
 7107 20bd 86010000 		.4byte	.LLST79
 7108 20c1 00       		.byte	0
 7109 20c2 0A       		.uleb128 0xa
 7110 20c3 04       		.byte	0x4
 7111 20c4 911A0000 		.4byte	0x1a91
 7112 20c8 3C       		.uleb128 0x3c
 7113 20c9 01       		.byte	0x1
 7114 20ca F2040000 		.4byte	.LASF456
 7115 20ce 01       		.byte	0x1
 7116 20cf D302     		.2byte	0x2d3
 7117 20d1 01       		.byte	0x1
 7118 20d2 38120000 		.4byte	0x1238
 7119 20d6 00000000 		.4byte	.LFB61
 7120 20da 60010000 		.4byte	.LFE61
 7121 20de A7010000 		.4byte	.LLST60
 7122 20e2 01       		.byte	0x1
 7123 20e3 8D220000 		.4byte	0x228d
 7124 20e7 2D       		.uleb128 0x2d
 7125 20e8 4E180000 		.4byte	.LASF457
 7126 20ec 01       		.byte	0x1
 7127 20ed D302     		.2byte	0x2d3
 7128 20ef 8D220000 		.4byte	0x228d
 7129 20f3 E0010000 		.4byte	.LLST61
 7130 20f7 2D       		.uleb128 0x2d
 7131 20f8 BF0F0000 		.4byte	.LASF458
 7132 20fc 01       		.byte	0x1
 7133 20fd D302     		.2byte	0x2d3
 7134 20ff 840A0000 		.4byte	0xa84
 7135 2103 25020000 		.4byte	.LLST62
 7136 2107 2D       		.uleb128 0x2d
ARM GAS  C:\Users\EBANO_~1\AppData\Local\Temp\cchbxRq9.s 			page 145


 7137 2108 4F0A0000 		.4byte	.LASF459
 7138 210c 01       		.byte	0x1
 7139 210d D302     		.2byte	0x2d3
 7140 210f 93220000 		.4byte	0x2293
 7141 2113 45020000 		.4byte	.LLST63
 7142 2117 2D       		.uleb128 0x2d
 7143 2118 B90D0000 		.4byte	.LASF460
 7144 211c 01       		.byte	0x1
 7145 211d D302     		.2byte	0x2d3
 7146 211f 93220000 		.4byte	0x2293
 7147 2123 65020000 		.4byte	.LLST64
 7148 2127 33       		.uleb128 0x33
 7149 2128 EE150000 		.4byte	.LASF461
 7150 212c 01       		.byte	0x1
 7151 212d D502     		.2byte	0x2d5
 7152 212f BC000000 		.4byte	0xbc
 7153 2133 AA020000 		.4byte	.LLST65
 7154 2137 33       		.uleb128 0x33
 7155 2138 F7060000 		.4byte	.LASF462
 7156 213c 01       		.byte	0x1
 7157 213d D602     		.2byte	0x2d6
 7158 213f BC000000 		.4byte	0xbc
 7159 2143 CA020000 		.4byte	.LLST66
 7160 2147 2A       		.uleb128 0x2a
 7161 2148 FA190000 		.4byte	.LASF463
 7162 214c 01       		.byte	0x1
 7163 214d D702     		.2byte	0x2d7
 7164 214f 99220000 		.4byte	0x2299
 7165 2153 03       		.byte	0x3
 7166 2154 91       		.byte	0x91
 7167 2155 F87E     		.sleb128 -136
 7168 2157 33       		.uleb128 0x33
 7169 2158 A4160000 		.4byte	.LASF464
 7170 215c 01       		.byte	0x1
 7171 215d D802     		.2byte	0x2d8
 7172 215f 970A0000 		.4byte	0xa97
 7173 2163 10030000 		.4byte	.LLST67
 7174 2167 34       		.uleb128 0x34
 7175 2168 CC2B0000 		.4byte	0x2bcc
 7176 216c 60000000 		.4byte	.LBB59
 7177 2170 C0000000 		.4byte	.Ldebug_ranges0+0xc0
 7178 2174 01       		.byte	0x1
 7179 2175 EE02     		.2byte	0x2ee
 7180 2177 0B220000 		.4byte	0x220b
 7181 217b 35       		.uleb128 0x35
 7182 217c E82B0000 		.4byte	0x2be8
 7183 2180 55030000 		.4byte	.LLST68
 7184 2184 35       		.uleb128 0x35
 7185 2185 F32B0000 		.4byte	0x2bf3
 7186 2189 7D030000 		.4byte	.LLST69
 7187 218d 35       		.uleb128 0x35
 7188 218e FE2B0000 		.4byte	0x2bfe
 7189 2192 A5030000 		.4byte	.LLST70
 7190 2196 35       		.uleb128 0x35
 7191 2197 142C0000 		.4byte	0x2c14
 7192 219b 14040000 		.4byte	.LLST71
 7193 219f 35       		.uleb128 0x35
ARM GAS  C:\Users\EBANO_~1\AppData\Local\Temp\cchbxRq9.s 			page 146


 7194 21a0 092C0000 		.4byte	0x2c09
 7195 21a4 3C040000 		.4byte	.LLST72
 7196 21a8 35       		.uleb128 0x35
 7197 21a9 DD2B0000 		.4byte	0x2bdd
 7198 21ad 79040000 		.4byte	.LLST73
 7199 21b1 38       		.uleb128 0x38
 7200 21b2 C0000000 		.4byte	.Ldebug_ranges0+0xc0
 7201 21b6 3D       		.uleb128 0x3d
 7202 21b7 1F2C0000 		.4byte	0x2c1f
 7203 21bb 99040000 		.4byte	.LLST74
 7204 21bf 3D       		.uleb128 0x3d
 7205 21c0 2A2C0000 		.4byte	0x2c2a
 7206 21c4 D9040000 		.4byte	.LLST75
 7207 21c8 3E       		.uleb128 0x3e
 7208 21c9 352C0000 		.4byte	0x2c35
 7209 21cd E8000000 		.4byte	.Ldebug_ranges0+0xe8
 7210 21d1 3D       		.uleb128 0x3d
 7211 21d2 362C0000 		.4byte	0x2c36
 7212 21d6 07050000 		.4byte	.LLST76
 7213 21da 3D       		.uleb128 0x3d
 7214 21db 3F2C0000 		.4byte	0x2c3f
 7215 21df 42050000 		.4byte	.LLST77
 7216 21e3 3E       		.uleb128 0x3e
 7217 21e4 482C0000 		.4byte	0x2c48
 7218 21e8 08010000 		.4byte	.Ldebug_ranges0+0x108
 7219 21ec 3D       		.uleb128 0x3d
 7220 21ed 492C0000 		.4byte	0x2c49
 7221 21f1 56050000 		.4byte	.LLST78
 7222 21f5 2E       		.uleb128 0x2e
 7223 21f6 B2000000 		.4byte	.LVL215
 7224 21fa BE2D0000 		.4byte	0x2dbe
 7225 21fe 2F       		.uleb128 0x2f
 7226 21ff 01       		.byte	0x1
 7227 2200 50       		.byte	0x50
 7228 2201 04       		.byte	0x4
 7229 2202 7D       		.byte	0x7d
 7230 2203 00       		.sleb128 0
 7231 2204 94       		.byte	0x94
 7232 2205 01       		.byte	0x1
 7233 2206 00       		.byte	0
 7234 2207 00       		.byte	0
 7235 2208 00       		.byte	0
 7236 2209 00       		.byte	0
 7237 220a 00       		.byte	0
 7238 220b 3F       		.uleb128 0x3f
 7239 220c 20000000 		.4byte	.LVL203
 7240 2210 CB2D0000 		.4byte	0x2dcb
 7241 2214 2B220000 		.4byte	0x222b
 7242 2218 2F       		.uleb128 0x2f
 7243 2219 01       		.byte	0x1
 7244 221a 50       		.byte	0x50
 7245 221b 03       		.byte	0x3
 7246 221c 91       		.byte	0x91
 7247 221d F87E     		.sleb128 -136
 7248 221f 2F       		.uleb128 0x2f
 7249 2220 01       		.byte	0x1
 7250 2221 51       		.byte	0x51
ARM GAS  C:\Users\EBANO_~1\AppData\Local\Temp\cchbxRq9.s 			page 147


 7251 2222 01       		.byte	0x1
 7252 2223 30       		.byte	0x30
 7253 2224 2F       		.uleb128 0x2f
 7254 2225 01       		.byte	0x1
 7255 2226 52       		.byte	0x52
 7256 2227 02       		.byte	0x2
 7257 2228 08       		.byte	0x8
 7258 2229 60       		.byte	0x60
 7259 222a 00       		.byte	0
 7260 222b 3F       		.uleb128 0x3f
 7261 222c 2C000000 		.4byte	.LVL204
 7262 2230 DC2D0000 		.4byte	0x2ddc
 7263 2234 49220000 		.4byte	0x2249
 7264 2238 2F       		.uleb128 0x2f
 7265 2239 01       		.byte	0x1
 7266 223a 50       		.byte	0x50
 7267 223b 02       		.byte	0x2
 7268 223c 75       		.byte	0x75
 7269 223d 00       		.sleb128 0
 7270 223e 2F       		.uleb128 0x2f
 7271 223f 01       		.byte	0x1
 7272 2240 51       		.byte	0x51
 7273 2241 01       		.byte	0x1
 7274 2242 30       		.byte	0x30
 7275 2243 2F       		.uleb128 0x2f
 7276 2244 01       		.byte	0x1
 7277 2245 52       		.byte	0x52
 7278 2246 01       		.byte	0x1
 7279 2247 36       		.byte	0x36
 7280 2248 00       		.byte	0
 7281 2249 3A       		.uleb128 0x3a
 7282 224a 42000000 		.4byte	.LVL205
 7283 224e EA2D0000 		.4byte	0x2dea
 7284 2252 3F       		.uleb128 0x3f
 7285 2253 56000000 		.4byte	.LVL206
 7286 2257 F72D0000 		.4byte	0x2df7
 7287 225b 6E220000 		.4byte	0x226e
 7288 225f 2F       		.uleb128 0x2f
 7289 2260 01       		.byte	0x1
 7290 2261 52       		.byte	0x52
 7291 2262 05       		.byte	0x5
 7292 2263 03       		.byte	0x3
 7293 2264 80040000 		.4byte	NvmCtx+1152
 7294 2268 2F       		.uleb128 0x2f
 7295 2269 01       		.byte	0x1
 7296 226a 53       		.byte	0x53
 7297 226b 01       		.byte	0x1
 7298 226c 31       		.byte	0x31
 7299 226d 00       		.byte	0
 7300 226e 3A       		.uleb128 0x3a
 7301 226f 28010000 		.4byte	.LVL229
 7302 2273 EA2D0000 		.4byte	0x2dea
 7303 2277 2E       		.uleb128 0x2e
 7304 2278 40010000 		.4byte	.LVL232
 7305 227c 052E0000 		.4byte	0x2e05
 7306 2280 2F       		.uleb128 0x2f
 7307 2281 01       		.byte	0x1
ARM GAS  C:\Users\EBANO_~1\AppData\Local\Temp\cchbxRq9.s 			page 148


 7308 2282 50       		.byte	0x50
 7309 2283 01       		.byte	0x1
 7310 2284 30       		.byte	0x30
 7311 2285 2F       		.uleb128 0x2f
 7312 2286 01       		.byte	0x1
 7313 2287 51       		.byte	0x51
 7314 2288 02       		.byte	0x2
 7315 2289 7B       		.byte	0x7b
 7316 228a 7F       		.sleb128 -1
 7317 228b 00       		.byte	0
 7318 228c 00       		.byte	0
 7319 228d 0A       		.uleb128 0xa
 7320 228e 04       		.byte	0x4
 7321 228f 591A0000 		.4byte	0x1a59
 7322 2293 0A       		.uleb128 0xa
 7323 2294 04       		.byte	0x4
 7324 2295 970A0000 		.4byte	0xa97
 7325 2299 07       		.uleb128 0x7
 7326 229a BC000000 		.4byte	0xbc
 7327 229e A9220000 		.4byte	0x22a9
 7328 22a2 08       		.uleb128 0x8
 7329 22a3 AA000000 		.4byte	0xaa
 7330 22a7 5F       		.byte	0x5f
 7331 22a8 00       		.byte	0
 7332 22a9 2C       		.uleb128 0x2c
 7333 22aa 01       		.byte	0x1
 7334 22ab 64060000 		.4byte	.LASF465
 7335 22af 01       		.byte	0x1
 7336 22b0 C302     		.2byte	0x2c3
 7337 22b2 01       		.byte	0x1
 7338 22b3 00000000 		.4byte	.LFB60
 7339 22b7 3C000000 		.4byte	.LFE60
 7340 22bb 81050000 		.4byte	.LLST58
 7341 22bf 01       		.byte	0x1
 7342 22c0 F4220000 		.4byte	0x22f4
 7343 22c4 2D       		.uleb128 0x2d
 7344 22c5 F30C0000 		.4byte	.LASF466
 7345 22c9 01       		.byte	0x1
 7346 22ca C302     		.2byte	0x2c3
 7347 22cc F4220000 		.4byte	0x22f4
 7348 22d0 AD050000 		.4byte	.LLST59
 7349 22d4 2A       		.uleb128 0x2a
 7350 22d5 DA1E0000 		.4byte	.LASF467
 7351 22d9 01       		.byte	0x1
 7352 22da C502     		.2byte	0x2c5
 7353 22dc 5A1D0000 		.4byte	0x1d5a
 7354 22e0 02       		.byte	0x2
 7355 22e1 91       		.byte	0x91
 7356 22e2 64       		.sleb128 -28
 7357 22e3 2E       		.uleb128 0x2e
 7358 22e4 32000000 		.4byte	.LVL198
 7359 22e8 122E0000 		.4byte	0x2e12
 7360 22ec 2F       		.uleb128 0x2f
 7361 22ed 01       		.byte	0x1
 7362 22ee 50       		.byte	0x50
 7363 22ef 02       		.byte	0x2
 7364 22f0 91       		.byte	0x91
ARM GAS  C:\Users\EBANO_~1\AppData\Local\Temp\cchbxRq9.s 			page 149


 7365 22f1 64       		.sleb128 -28
 7366 22f2 00       		.byte	0
 7367 22f3 00       		.byte	0
 7368 22f4 0A       		.uleb128 0xa
 7369 22f5 04       		.byte	0x4
 7370 22f6 F4190000 		.4byte	0x19f4
 7371 22fa 30       		.uleb128 0x30
 7372 22fb 01       		.byte	0x1
 7373 22fc EA0A0000 		.4byte	.LASF468
 7374 2300 01       		.byte	0x1
 7375 2301 BE02     		.2byte	0x2be
 7376 2303 01       		.byte	0x1
 7377 2304 B1000000 		.4byte	0xb1
 7378 2308 00000000 		.4byte	.LFB59
 7379 230c 02000000 		.4byte	.LFE59
 7380 2310 02       		.byte	0x2
 7381 2311 7D       		.byte	0x7d
 7382 2312 00       		.sleb128 0
 7383 2313 01       		.byte	0x1
 7384 2314 35230000 		.4byte	0x2335
 7385 2318 32       		.uleb128 0x32
 7386 2319 A4130000 		.4byte	.LASF469
 7387 231d 01       		.byte	0x1
 7388 231e BE02     		.2byte	0x2be
 7389 2320 B1000000 		.4byte	0xb1
 7390 2324 01       		.byte	0x1
 7391 2325 50       		.byte	0x50
 7392 2326 32       		.uleb128 0x32
 7393 2327 3F050000 		.4byte	.LASF470
 7394 232b 01       		.byte	0x1
 7395 232c BE02     		.2byte	0x2be
 7396 232e 80190000 		.4byte	0x1980
 7397 2332 01       		.byte	0x1
 7398 2333 51       		.byte	0x51
 7399 2334 00       		.byte	0
 7400 2335 40       		.uleb128 0x40
 7401 2336 01       		.byte	0x1
 7402 2337 4E120000 		.4byte	.LASF553
 7403 233b 01       		.byte	0x1
 7404 233c B902     		.2byte	0x2b9
 7405 233e 01       		.byte	0x1
 7406 233f BC000000 		.4byte	0xbc
 7407 2343 54230000 		.4byte	0x2354
 7408 2347 41       		.uleb128 0x41
 7409 2348 B5110000 		.4byte	.LASF473
 7410 234c 01       		.byte	0x1
 7411 234d B902     		.2byte	0x2b9
 7412 234f 54230000 		.4byte	0x2354
 7413 2353 00       		.byte	0
 7414 2354 0A       		.uleb128 0xa
 7415 2355 04       		.byte	0x4
 7416 2356 55190000 		.4byte	0x1955
 7417 235a 30       		.uleb128 0x30
 7418 235b 01       		.byte	0x1
 7419 235c F9090000 		.4byte	.LASF471
 7420 2360 01       		.byte	0x1
 7421 2361 B402     		.2byte	0x2b4
ARM GAS  C:\Users\EBANO_~1\AppData\Local\Temp\cchbxRq9.s 			page 150


 7422 2363 01       		.byte	0x1
 7423 2364 B1000000 		.4byte	0xb1
 7424 2368 00000000 		.4byte	.LFB57
 7425 236c 06000000 		.4byte	.LFE57
 7426 2370 02       		.byte	0x2
 7427 2371 7D       		.byte	0x7d
 7428 2372 00       		.sleb128 0
 7429 2373 01       		.byte	0x1
 7430 2374 89230000 		.4byte	0x2389
 7431 2378 2D       		.uleb128 0x2d
 7432 2379 EF1C0000 		.4byte	.LASF472
 7433 237d 01       		.byte	0x1
 7434 237e B402     		.2byte	0x2b4
 7435 2380 89230000 		.4byte	0x2389
 7436 2384 CE050000 		.4byte	.LLST57
 7437 2388 00       		.byte	0
 7438 2389 0A       		.uleb128 0xa
 7439 238a 04       		.byte	0x4
 7440 238b 1D190000 		.4byte	0x191d
 7441 238f 42       		.uleb128 0x42
 7442 2390 01       		.byte	0x1
 7443 2391 8F050000 		.4byte	.LASF520
 7444 2395 01       		.byte	0x1
 7445 2396 AE02     		.2byte	0x2ae
 7446 2398 01       		.byte	0x1
 7447 2399 BC000000 		.4byte	0xbc
 7448 239d 01       		.byte	0x1
 7449 239e AF230000 		.4byte	0x23af
 7450 23a2 41       		.uleb128 0x41
 7451 23a3 94020000 		.4byte	.LASF474
 7452 23a7 01       		.byte	0x1
 7453 23a8 AE02     		.2byte	0x2ae
 7454 23aa AF230000 		.4byte	0x23af
 7455 23ae 00       		.byte	0
 7456 23af 0A       		.uleb128 0xa
 7457 23b0 04       		.byte	0x4
 7458 23b1 D6180000 		.4byte	0x18d6
 7459 23b5 43       		.uleb128 0x43
 7460 23b6 01       		.byte	0x1
 7461 23b7 09050000 		.4byte	.LASF475
 7462 23bb 01       		.byte	0x1
 7463 23bc 9502     		.2byte	0x295
 7464 23be 01       		.byte	0x1
 7465 23bf BC000000 		.4byte	0xbc
 7466 23c3 00000000 		.4byte	.LFB55
 7467 23c7 70000000 		.4byte	.LFE55
 7468 23cb EF050000 		.4byte	.LLST52
 7469 23cf 01       		.byte	0x1
 7470 23d0 4B240000 		.4byte	0x244b
 7471 23d4 2D       		.uleb128 0x2d
 7472 23d5 DC020000 		.4byte	.LASF476
 7473 23d9 01       		.byte	0x1
 7474 23da 9502     		.2byte	0x295
 7475 23dc 4B240000 		.4byte	0x244b
 7476 23e0 1B060000 		.4byte	.LLST53
 7477 23e4 33       		.uleb128 0x33
 7478 23e5 66120000 		.4byte	.LASF477
ARM GAS  C:\Users\EBANO_~1\AppData\Local\Temp\cchbxRq9.s 			page 151


 7479 23e9 01       		.byte	0x1
 7480 23ea 9702     		.2byte	0x297
 7481 23ec BC000000 		.4byte	0xbc
 7482 23f0 52060000 		.4byte	.LLST54
 7483 23f4 34       		.uleb128 0x34
 7484 23f5 552C0000 		.4byte	0x2c55
 7485 23f9 02000000 		.4byte	.LBB47
 7486 23fd 98000000 		.4byte	.Ldebug_ranges0+0x98
 7487 2401 01       		.byte	0x1
 7488 2402 9A02     		.2byte	0x29a
 7489 2404 1E240000 		.4byte	0x241e
 7490 2408 35       		.uleb128 0x35
 7491 2409 662C0000 		.4byte	0x2c66
 7492 240d 88060000 		.4byte	.LLST55
 7493 2411 3B       		.uleb128 0x3b
 7494 2412 12000000 		.4byte	.LVL179
 7495 2416 2F       		.uleb128 0x2f
 7496 2417 01       		.byte	0x1
 7497 2418 50       		.byte	0x50
 7498 2419 02       		.byte	0x2
 7499 241a 75       		.byte	0x75
 7500 241b 00       		.sleb128 0
 7501 241c 00       		.byte	0
 7502 241d 00       		.byte	0
 7503 241e 3F       		.uleb128 0x3f
 7504 241f 30000000 		.4byte	.LVL182
 7505 2423 BE2D0000 		.4byte	0x2dbe
 7506 2427 36240000 		.4byte	0x2436
 7507 242b 2F       		.uleb128 0x2f
 7508 242c 01       		.byte	0x1
 7509 242d 51       		.byte	0x51
 7510 242e 01       		.byte	0x1
 7511 242f 30       		.byte	0x30
 7512 2430 2F       		.uleb128 0x2f
 7513 2431 01       		.byte	0x1
 7514 2432 52       		.byte	0x52
 7515 2433 01       		.byte	0x1
 7516 2434 35       		.byte	0x35
 7517 2435 00       		.byte	0
 7518 2436 2E       		.uleb128 0x2e
 7519 2437 42000000 		.4byte	.LVL184
 7520 243b BE2D0000 		.4byte	0x2dbe
 7521 243f 2F       		.uleb128 0x2f
 7522 2440 01       		.byte	0x1
 7523 2441 51       		.byte	0x51
 7524 2442 01       		.byte	0x1
 7525 2443 30       		.byte	0x30
 7526 2444 2F       		.uleb128 0x2f
 7527 2445 01       		.byte	0x1
 7528 2446 52       		.byte	0x52
 7529 2447 01       		.byte	0x1
 7530 2448 33       		.byte	0x33
 7531 2449 00       		.byte	0
 7532 244a 00       		.byte	0
 7533 244b 0A       		.uleb128 0xa
 7534 244c 04       		.byte	0x4
 7535 244d 9E180000 		.4byte	0x189e
ARM GAS  C:\Users\EBANO_~1\AppData\Local\Temp\cchbxRq9.s 			page 152


 7536 2451 3C       		.uleb128 0x3c
 7537 2452 01       		.byte	0x1
 7538 2453 38000000 		.4byte	.LASF478
 7539 2457 01       		.byte	0x1
 7540 2458 3402     		.2byte	0x234
 7541 245a 01       		.byte	0x1
 7542 245b BC000000 		.4byte	0xbc
 7543 245f 00000000 		.4byte	.LFB54
 7544 2463 B8020000 		.4byte	.LFE54
 7545 2467 A6060000 		.4byte	.LLST43
 7546 246b 01       		.byte	0x1
 7547 246c E9250000 		.4byte	0x25e9
 7548 2470 2D       		.uleb128 0x2d
 7549 2471 F5100000 		.4byte	.LASF479
 7550 2475 01       		.byte	0x1
 7551 2476 3402     		.2byte	0x234
 7552 2478 E9250000 		.4byte	0x25e9
 7553 247c DF060000 		.4byte	.LLST44
 7554 2480 2D       		.uleb128 0x2d
 7555 2481 9B180000 		.4byte	.LASF480
 7556 2485 01       		.byte	0x1
 7557 2486 3402     		.2byte	0x234
 7558 2488 EF250000 		.4byte	0x25ef
 7559 248c 16070000 		.4byte	.LLST45
 7560 2490 2D       		.uleb128 0x2d
 7561 2491 F4160000 		.4byte	.LASF481
 7562 2495 01       		.byte	0x1
 7563 2496 3402     		.2byte	0x234
 7564 2498 EF250000 		.4byte	0x25ef
 7565 249c 4D070000 		.4byte	.LLST46
 7566 24a0 2D       		.uleb128 0x2d
 7567 24a1 78100000 		.4byte	.LASF482
 7568 24a5 01       		.byte	0x1
 7569 24a6 3402     		.2byte	0x234
 7570 24a8 840A0000 		.4byte	0xa84
 7571 24ac 84070000 		.4byte	.LLST47
 7572 24b0 32       		.uleb128 0x32
 7573 24b1 A40E0000 		.4byte	.LASF483
 7574 24b5 01       		.byte	0x1
 7575 24b6 3402     		.2byte	0x234
 7576 24b8 840A0000 		.4byte	0xa84
 7577 24bc 02       		.byte	0x2
 7578 24bd 91       		.byte	0x91
 7579 24be 00       		.sleb128 0
 7580 24bf 33       		.uleb128 0x33
 7581 24c0 66120000 		.4byte	.LASF477
 7582 24c4 01       		.byte	0x1
 7583 24c5 3602     		.2byte	0x236
 7584 24c7 BC000000 		.4byte	0xbc
 7585 24cb A4070000 		.4byte	.LLST48
 7586 24cf 2A       		.uleb128 0x2a
 7587 24d0 7B1D0000 		.4byte	.LASF484
 7588 24d4 01       		.byte	0x1
 7589 24d5 3702     		.2byte	0x237
 7590 24d7 D41B0000 		.4byte	0x1bd4
 7591 24db 03       		.byte	0x3
 7592 24dc 91       		.byte	0x91
ARM GAS  C:\Users\EBANO_~1\AppData\Local\Temp\cchbxRq9.s 			page 153


 7593 24dd A47F     		.sleb128 -92
 7594 24df 33       		.uleb128 0x33
 7595 24e0 AF1A0000 		.4byte	.LASF485
 7596 24e4 01       		.byte	0x1
 7597 24e5 3802     		.2byte	0x238
 7598 24e7 BC000000 		.4byte	0xbc
 7599 24eb 96080000 		.4byte	.LLST49
 7600 24ef 33       		.uleb128 0x33
 7601 24f0 BA0C0000 		.4byte	.LASF486
 7602 24f4 01       		.byte	0x1
 7603 24f5 3902     		.2byte	0x239
 7604 24f7 BC000000 		.4byte	0xbc
 7605 24fb C0080000 		.4byte	.LLST50
 7606 24ff 2A       		.uleb128 0x2a
 7607 2500 F6130000 		.4byte	.LASF487
 7608 2504 01       		.byte	0x1
 7609 2505 3A02     		.2byte	0x23a
 7610 2507 B91E0000 		.4byte	0x1eb9
 7611 250b 03       		.byte	0x3
 7612 250c 91       		.byte	0x91
 7613 250d AC7F     		.sleb128 -84
 7614 250f 2B       		.uleb128 0x2b
 7615 2510 63180000 		.4byte	.LASF488
 7616 2514 01       		.byte	0x1
 7617 2515 3B02     		.2byte	0x23b
 7618 2517 01150000 		.4byte	0x1501
 7619 251b 2B       		.uleb128 0x2b
 7620 251c 21040000 		.4byte	.LASF489
 7621 2520 01       		.byte	0x1
 7622 2521 3C02     		.2byte	0x23c
 7623 2523 AB140000 		.4byte	0x14ab
 7624 2527 2A       		.uleb128 0x2a
 7625 2528 A81B0000 		.4byte	.LASF490
 7626 252c 01       		.byte	0x1
 7627 252d 3D02     		.2byte	0x23d
 7628 252f CC1C0000 		.4byte	0x1ccc
 7629 2533 03       		.byte	0x3
 7630 2534 91       		.byte	0x91
 7631 2535 B87F     		.sleb128 -72
 7632 2537 44       		.uleb128 0x44
 7633 2538 68000000 		.4byte	.Ldebug_ranges0+0x68
 7634 253c 4F250000 		.4byte	0x254f
 7635 2540 45       		.uleb128 0x45
 7636 2541 6900     		.ascii	"i\000"
 7637 2543 01       		.byte	0x1
 7638 2544 6002     		.2byte	0x260
 7639 2546 BC000000 		.4byte	0xbc
 7640 254a 01090000 		.4byte	.LLST51
 7641 254e 00       		.byte	0
 7642 254f 3F       		.uleb128 0x3f
 7643 2550 20000000 		.4byte	.LVL112
 7644 2554 CB2D0000 		.4byte	0x2dcb
 7645 2558 6E250000 		.4byte	0x256e
 7646 255c 2F       		.uleb128 0x2f
 7647 255d 01       		.byte	0x1
 7648 255e 50       		.byte	0x50
 7649 255f 03       		.byte	0x3
ARM GAS  C:\Users\EBANO_~1\AppData\Local\Temp\cchbxRq9.s 			page 154


 7650 2560 91       		.byte	0x91
 7651 2561 AC7F     		.sleb128 -84
 7652 2563 2F       		.uleb128 0x2f
 7653 2564 01       		.byte	0x1
 7654 2565 51       		.byte	0x51
 7655 2566 01       		.byte	0x1
 7656 2567 30       		.byte	0x30
 7657 2568 2F       		.uleb128 0x2f
 7658 2569 01       		.byte	0x1
 7659 256a 52       		.byte	0x52
 7660 256b 01       		.byte	0x1
 7661 256c 3C       		.byte	0x3c
 7662 256d 00       		.byte	0
 7663 256e 3F       		.uleb128 0x3f
 7664 256f 2C000000 		.4byte	.LVL113
 7665 2573 202E0000 		.4byte	0x2e20
 7666 2577 8E250000 		.4byte	0x258e
 7667 257b 2F       		.uleb128 0x2f
 7668 257c 01       		.byte	0x1
 7669 257d 50       		.byte	0x50
 7670 257e 03       		.byte	0x3
 7671 257f 91       		.byte	0x91
 7672 2580 AC7F     		.sleb128 -84
 7673 2582 2F       		.uleb128 0x2f
 7674 2583 01       		.byte	0x1
 7675 2584 51       		.byte	0x51
 7676 2585 02       		.byte	0x2
 7677 2586 77       		.byte	0x77
 7678 2587 00       		.sleb128 0
 7679 2588 2F       		.uleb128 0x2f
 7680 2589 01       		.byte	0x1
 7681 258a 52       		.byte	0x52
 7682 258b 01       		.byte	0x1
 7683 258c 36       		.byte	0x36
 7684 258d 00       		.byte	0
 7685 258e 3F       		.uleb128 0x3f
 7686 258f 52000000 		.4byte	.LVL115
 7687 2593 2E2E0000 		.4byte	0x2e2e
 7688 2597 A2250000 		.4byte	0x25a2
 7689 259b 2F       		.uleb128 0x2f
 7690 259c 01       		.byte	0x1
 7691 259d 51       		.byte	0x51
 7692 259e 02       		.byte	0x2
 7693 259f 76       		.byte	0x76
 7694 25a0 00       		.sleb128 0
 7695 25a1 00       		.byte	0
 7696 25a2 3F       		.uleb128 0x3f
 7697 25a3 2E020000 		.4byte	.LVL137
 7698 25a7 3C2E0000 		.4byte	0x2e3c
 7699 25ab CB250000 		.4byte	0x25cb
 7700 25af 2F       		.uleb128 0x2f
 7701 25b0 01       		.byte	0x1
 7702 25b1 50       		.byte	0x50
 7703 25b2 03       		.byte	0x3
 7704 25b3 91       		.byte	0x91
 7705 25b4 B87F     		.sleb128 -72
 7706 25b6 2F       		.uleb128 0x2f
ARM GAS  C:\Users\EBANO_~1\AppData\Local\Temp\cchbxRq9.s 			page 155


 7707 25b7 01       		.byte	0x1
 7708 25b8 51       		.byte	0x51
 7709 25b9 03       		.byte	0x3
 7710 25ba 91       		.byte	0x91
 7711 25bb A57F     		.sleb128 -91
 7712 25bd 2F       		.uleb128 0x2f
 7713 25be 01       		.byte	0x1
 7714 25bf 52       		.byte	0x52
 7715 25c0 03       		.byte	0x3
 7716 25c1 91       		.byte	0x91
 7717 25c2 A67F     		.sleb128 -90
 7718 25c4 2F       		.uleb128 0x2f
 7719 25c5 01       		.byte	0x1
 7720 25c6 53       		.byte	0x53
 7721 25c7 02       		.byte	0x2
 7722 25c8 76       		.byte	0x76
 7723 25c9 00       		.sleb128 0
 7724 25ca 00       		.byte	0
 7725 25cb 2E       		.uleb128 0x2e
 7726 25cc AC020000 		.4byte	.LVL175
 7727 25d0 202E0000 		.4byte	0x2e20
 7728 25d4 2F       		.uleb128 0x2f
 7729 25d5 01       		.byte	0x1
 7730 25d6 50       		.byte	0x50
 7731 25d7 03       		.byte	0x3
 7732 25d8 77       		.byte	0x77
 7733 25d9 9009     		.sleb128 1168
 7734 25db 2F       		.uleb128 0x2f
 7735 25dc 01       		.byte	0x1
 7736 25dd 51       		.byte	0x51
 7737 25de 03       		.byte	0x3
 7738 25df 91       		.byte	0x91
 7739 25e0 AC7F     		.sleb128 -84
 7740 25e2 2F       		.uleb128 0x2f
 7741 25e3 01       		.byte	0x1
 7742 25e4 52       		.byte	0x52
 7743 25e5 01       		.byte	0x1
 7744 25e6 36       		.byte	0x36
 7745 25e7 00       		.byte	0
 7746 25e8 00       		.byte	0
 7747 25e9 0A       		.uleb128 0xa
 7748 25ea 04       		.byte	0x4
 7749 25eb 57180000 		.4byte	0x1857
 7750 25ef 0A       		.uleb128 0xa
 7751 25f0 04       		.byte	0x4
 7752 25f1 B1000000 		.4byte	0xb1
 7753 25f5 3C       		.uleb128 0x3c
 7754 25f6 01       		.byte	0x1
 7755 25f7 6F160000 		.4byte	.LASF491
 7756 25fb 01       		.byte	0x1
 7757 25fc 1C02     		.2byte	0x21c
 7758 25fe 01       		.byte	0x1
 7759 25ff 150B0000 		.4byte	0xb15
 7760 2603 00000000 		.4byte	.LFB53
 7761 2607 D0000000 		.4byte	.LFE53
 7762 260b 7D0A0000 		.4byte	.LLST33
 7763 260f 01       		.byte	0x1
ARM GAS  C:\Users\EBANO_~1\AppData\Local\Temp\cchbxRq9.s 			page 156


 7764 2610 56270000 		.4byte	0x2756
 7765 2614 2D       		.uleb128 0x2d
 7766 2615 341B0000 		.4byte	.LASF492
 7767 2619 01       		.byte	0x1
 7768 261a 1C02     		.2byte	0x21c
 7769 261c 56270000 		.4byte	0x2756
 7770 2620 B60A0000 		.4byte	.LLST34
 7771 2624 2D       		.uleb128 0x2d
 7772 2625 ED100000 		.4byte	.LASF493
 7773 2629 01       		.byte	0x1
 7774 262a 1C02     		.2byte	0x21c
 7775 262c EF250000 		.4byte	0x25ef
 7776 2630 E20A0000 		.4byte	.LLST35
 7777 2634 2D       		.uleb128 0x2d
 7778 2635 65130000 		.4byte	.LASF494
 7779 2639 01       		.byte	0x1
 7780 263a 1C02     		.2byte	0x21c
 7781 263c 93220000 		.4byte	0x2293
 7782 2640 0B0B0000 		.4byte	.LLST36
 7783 2644 33       		.uleb128 0x33
 7784 2645 73040000 		.4byte	.LASF495
 7785 2649 01       		.byte	0x1
 7786 264a 1E02     		.2byte	0x21e
 7787 264c B1000000 		.4byte	0xb1
 7788 2650 370B0000 		.4byte	.LLST37
 7789 2654 2B       		.uleb128 0x2b
 7790 2655 C8130000 		.4byte	.LASF448
 7791 2659 01       		.byte	0x1
 7792 265a 1F02     		.2byte	0x21f
 7793 265c B1000000 		.4byte	0xb1
 7794 2660 33       		.uleb128 0x33
 7795 2661 44060000 		.4byte	.LASF449
 7796 2665 01       		.byte	0x1
 7797 2666 2002     		.2byte	0x220
 7798 2668 B1000000 		.4byte	0xb1
 7799 266c 4A0B0000 		.4byte	.LLST38
 7800 2670 34       		.uleb128 0x34
 7801 2671 722C0000 		.4byte	0x2c72
 7802 2675 2A000000 		.4byte	.LBB27
 7803 2679 38000000 		.4byte	.Ldebug_ranges0+0x38
 7804 267d 01       		.byte	0x1
 7805 267e 1F02     		.2byte	0x21f
 7806 2680 BB260000 		.4byte	0x26bb
 7807 2684 35       		.uleb128 0x35
 7808 2685 992C0000 		.4byte	0x2c99
 7809 2689 690B0000 		.4byte	.LLST39
 7810 268d 36       		.uleb128 0x36
 7811 268e A42C0000 		.4byte	0x2ca4
 7812 2692 06       		.byte	0x6
 7813 2693 03       		.byte	0x3
 7814 2694 90040000 		.4byte	NvmCtx+1168
 7815 2698 9F       		.byte	0x9f
 7816 2699 35       		.uleb128 0x35
 7817 269a 8E2C0000 		.4byte	0x2c8e
 7818 269e 890B0000 		.4byte	.LLST40
 7819 26a2 35       		.uleb128 0x35
 7820 26a3 832C0000 		.4byte	0x2c83
ARM GAS  C:\Users\EBANO_~1\AppData\Local\Temp\cchbxRq9.s 			page 157


 7821 26a7 DC0B0000 		.4byte	.LLST41
 7822 26ab 38       		.uleb128 0x38
 7823 26ac 38000000 		.4byte	.Ldebug_ranges0+0x38
 7824 26b0 3D       		.uleb128 0x3d
 7825 26b1 AF2C0000 		.4byte	0x2caf
 7826 26b5 DC0B0000 		.4byte	.LLST41
 7827 26b9 00       		.byte	0
 7828 26ba 00       		.byte	0
 7829 26bb 3F       		.uleb128 0x3f
 7830 26bc 52000000 		.4byte	.LVL97
 7831 26c0 B02D0000 		.4byte	0x2db0
 7832 26c4 CF260000 		.4byte	0x26cf
 7833 26c8 2F       		.uleb128 0x2f
 7834 26c9 01       		.byte	0x1
 7835 26ca 50       		.byte	0x50
 7836 26cb 02       		.byte	0x2
 7837 26cc 79       		.byte	0x79
 7838 26cd 00       		.sleb128 0
 7839 26ce 00       		.byte	0
 7840 26cf 46       		.uleb128 0x46
 7841 26d0 66000000 		.4byte	.LVL99
 7842 26d4 03       		.byte	0x3
 7843 26d5 75       		.byte	0x75
 7844 26d6 14       		.sleb128 20
 7845 26d7 06       		.byte	0x6
 7846 26d8 47       		.uleb128 0x47
 7847 26d9 92000000 		.4byte	.LVL100
 7848 26dd 02       		.byte	0x2
 7849 26de 76       		.byte	0x76
 7850 26df 00       		.sleb128 0
 7851 26e0 33270000 		.4byte	0x2733
 7852 26e4 2F       		.uleb128 0x2f
 7853 26e5 01       		.byte	0x1
 7854 26e6 50       		.byte	0x50
 7855 26e7 01       		.byte	0x1
 7856 26e8 31       		.byte	0x31
 7857 26e9 2F       		.uleb128 0x2f
 7858 26ea 01       		.byte	0x1
 7859 26eb 51       		.byte	0x51
 7860 26ec 02       		.byte	0x2
 7861 26ed 7A       		.byte	0x7a
 7862 26ee 00       		.sleb128 0
 7863 26ef 2F       		.uleb128 0x2f
 7864 26f0 01       		.byte	0x1
 7865 26f1 52       		.byte	0x52
 7866 26f2 01       		.byte	0x1
 7867 26f3 30       		.byte	0x30
 7868 26f4 2F       		.uleb128 0x2f
 7869 26f5 01       		.byte	0x1
 7870 26f6 53       		.byte	0x53
 7871 26f7 01       		.byte	0x1
 7872 26f8 30       		.byte	0x30
 7873 26f9 2F       		.uleb128 0x2f
 7874 26fa 02       		.byte	0x2
 7875 26fb 7D       		.byte	0x7d
 7876 26fc 00       		.sleb128 0
 7877 26fd 02       		.byte	0x2
ARM GAS  C:\Users\EBANO_~1\AppData\Local\Temp\cchbxRq9.s 			page 158


 7878 26fe 78       		.byte	0x78
 7879 26ff 00       		.sleb128 0
 7880 2700 2F       		.uleb128 0x2f
 7881 2701 02       		.byte	0x2
 7882 2702 7D       		.byte	0x7d
 7883 2703 04       		.sleb128 4
 7884 2704 01       		.byte	0x1
 7885 2705 31       		.byte	0x31
 7886 2706 2F       		.uleb128 0x2f
 7887 2707 02       		.byte	0x2
 7888 2708 7D       		.byte	0x7d
 7889 2709 08       		.sleb128 8
 7890 270a 01       		.byte	0x1
 7891 270b 38       		.byte	0x38
 7892 270c 2F       		.uleb128 0x2f
 7893 270d 02       		.byte	0x2
 7894 270e 7D       		.byte	0x7d
 7895 270f 0C       		.sleb128 12
 7896 2710 01       		.byte	0x1
 7897 2711 30       		.byte	0x30
 7898 2712 2F       		.uleb128 0x2f
 7899 2713 02       		.byte	0x2
 7900 2714 7D       		.byte	0x7d
 7901 2715 10       		.sleb128 16
 7902 2716 01       		.byte	0x1
 7903 2717 31       		.byte	0x31
 7904 2718 2F       		.uleb128 0x2f
 7905 2719 02       		.byte	0x2
 7906 271a 7D       		.byte	0x7d
 7907 271b 14       		.sleb128 20
 7908 271c 01       		.byte	0x1
 7909 271d 30       		.byte	0x30
 7910 271e 2F       		.uleb128 0x2f
 7911 271f 02       		.byte	0x2
 7912 2720 7D       		.byte	0x7d
 7913 2721 18       		.sleb128 24
 7914 2722 01       		.byte	0x1
 7915 2723 30       		.byte	0x30
 7916 2724 2F       		.uleb128 0x2f
 7917 2725 02       		.byte	0x2
 7918 2726 7D       		.byte	0x7d
 7919 2727 1C       		.sleb128 28
 7920 2728 01       		.byte	0x1
 7921 2729 30       		.byte	0x30
 7922 272a 2F       		.uleb128 0x2f
 7923 272b 02       		.byte	0x2
 7924 272c 7D       		.byte	0x7d
 7925 272d 20       		.sleb128 32
 7926 272e 03       		.byte	0x3
 7927 272f 0A       		.byte	0xa
 7928 2730 B80B     		.2byte	0xbb8
 7929 2732 00       		.byte	0
 7930 2733 47       		.uleb128 0x47
 7931 2734 9C000000 		.4byte	.LVL101
 7932 2738 03       		.byte	0x3
 7933 2739 91       		.byte	0x91
 7934 273a 54       		.sleb128 -44
ARM GAS  C:\Users\EBANO_~1\AppData\Local\Temp\cchbxRq9.s 			page 159


 7935 273b 06       		.byte	0x6
 7936 273c 46270000 		.4byte	0x2746
 7937 2740 2F       		.uleb128 0x2f
 7938 2741 01       		.byte	0x1
 7939 2742 50       		.byte	0x50
 7940 2743 01       		.byte	0x1
 7941 2744 31       		.byte	0x31
 7942 2745 00       		.byte	0
 7943 2746 48       		.uleb128 0x48
 7944 2747 A6000000 		.4byte	.LVL102
 7945 274b 03       		.byte	0x3
 7946 274c 91       		.byte	0x91
 7947 274d 54       		.sleb128 -44
 7948 274e 06       		.byte	0x6
 7949 274f 2F       		.uleb128 0x2f
 7950 2750 01       		.byte	0x1
 7951 2751 50       		.byte	0x50
 7952 2752 01       		.byte	0x1
 7953 2753 31       		.byte	0x31
 7954 2754 00       		.byte	0
 7955 2755 00       		.byte	0
 7956 2756 0A       		.uleb128 0xa
 7957 2757 04       		.byte	0x4
 7958 2758 C5170000 		.4byte	0x17c5
 7959 275c 43       		.uleb128 0x43
 7960 275d 01       		.byte	0x1
 7961 275e F5140000 		.4byte	.LASF496
 7962 2762 01       		.byte	0x1
 7963 2763 F301     		.2byte	0x1f3
 7964 2765 01       		.byte	0x1
 7965 2766 150B0000 		.4byte	0xb15
 7966 276a 00000000 		.4byte	.LFB52
 7967 276e C8000000 		.4byte	.LFE52
 7968 2772 F00B0000 		.4byte	.LLST26
 7969 2776 01       		.byte	0x1
 7970 2777 54280000 		.4byte	0x2854
 7971 277b 2D       		.uleb128 0x2d
 7972 277c B6190000 		.4byte	.LASF497
 7973 2780 01       		.byte	0x1
 7974 2781 F301     		.2byte	0x1f3
 7975 2783 54280000 		.4byte	0x2854
 7976 2787 290C0000 		.4byte	.LLST27
 7977 278b 2D       		.uleb128 0x2d
 7978 278c A9040000 		.4byte	.LASF443
 7979 2790 01       		.byte	0x1
 7980 2791 F301     		.2byte	0x1f3
 7981 2793 EF250000 		.4byte	0x25ef
 7982 2797 600C0000 		.4byte	.LLST28
 7983 279b 45       		.uleb128 0x45
 7984 279c 647200   		.ascii	"dr\000"
 7985 279f 01       		.byte	0x1
 7986 27a0 F501     		.2byte	0x1f5
 7987 27a2 B1000000 		.4byte	0xb1
 7988 27a6 970C0000 		.4byte	.LLST29
 7989 27aa 33       		.uleb128 0x33
 7990 27ab EB130000 		.4byte	.LASF498
 7991 27af 01       		.byte	0x1
ARM GAS  C:\Users\EBANO_~1\AppData\Local\Temp\cchbxRq9.s 			page 160


 7992 27b0 F601     		.2byte	0x1f6
 7993 27b2 BC000000 		.4byte	0xbc
 7994 27b6 B50C0000 		.4byte	.LLST30
 7995 27ba 33       		.uleb128 0x33
 7996 27bb 73040000 		.4byte	.LASF495
 7997 27bf 01       		.byte	0x1
 7998 27c0 F701     		.2byte	0x1f7
 7999 27c2 B1000000 		.4byte	0xb1
 8000 27c6 EB0C0000 		.4byte	.LLST31
 8001 27ca 33       		.uleb128 0x33
 8002 27cb CF1F0000 		.4byte	.LASF450
 8003 27cf 01       		.byte	0x1
 8004 27d0 F801     		.2byte	0x1f8
 8005 27d2 ED000000 		.4byte	0xed
 8006 27d6 150D0000 		.4byte	.LLST32
 8007 27da 46       		.uleb128 0x46
 8008 27db 20000000 		.4byte	.LVL74
 8009 27df 03       		.byte	0x3
 8010 27e0 75       		.byte	0x75
 8011 27e1 0C       		.sleb128 12
 8012 27e2 06       		.byte	0x6
 8013 27e3 47       		.uleb128 0x47
 8014 27e4 52000000 		.4byte	.LVL79
 8015 27e8 03       		.byte	0x3
 8016 27e9 91       		.byte	0x91
 8017 27ea 5C       		.sleb128 -36
 8018 27eb 06       		.byte	0x6
 8019 27ec F7270000 		.4byte	0x27f7
 8020 27f0 2F       		.uleb128 0x2f
 8021 27f1 01       		.byte	0x1
 8022 27f2 50       		.byte	0x50
 8023 27f3 02       		.byte	0x2
 8024 27f4 78       		.byte	0x78
 8025 27f5 00       		.sleb128 0
 8026 27f6 00       		.byte	0
 8027 27f7 47       		.uleb128 0x47
 8028 27f8 80000000 		.4byte	.LVL80
 8029 27fc 02       		.byte	0x2
 8030 27fd 77       		.byte	0x77
 8031 27fe 00       		.sleb128 0
 8032 27ff 44280000 		.4byte	0x2844
 8033 2803 2F       		.uleb128 0x2f
 8034 2804 01       		.byte	0x1
 8035 2805 50       		.byte	0x50
 8036 2806 01       		.byte	0x1
 8037 2807 31       		.byte	0x31
 8038 2808 2F       		.uleb128 0x2f
 8039 2809 01       		.byte	0x1
 8040 280a 52       		.byte	0x52
 8041 280b 02       		.byte	0x2
 8042 280c 79       		.byte	0x79
 8043 280d 00       		.sleb128 0
 8044 280e 2F       		.uleb128 0x2f
 8045 280f 01       		.byte	0x1
 8046 2810 53       		.byte	0x53
 8047 2811 01       		.byte	0x1
 8048 2812 31       		.byte	0x31
ARM GAS  C:\Users\EBANO_~1\AppData\Local\Temp\cchbxRq9.s 			page 161


 8049 2813 2F       		.uleb128 0x2f
 8050 2814 02       		.byte	0x2
 8051 2815 7D       		.byte	0x7d
 8052 2816 00       		.sleb128 0
 8053 2817 01       		.byte	0x1
 8054 2818 30       		.byte	0x30
 8055 2819 2F       		.uleb128 0x2f
 8056 281a 02       		.byte	0x2
 8057 281b 7D       		.byte	0x7d
 8058 281c 04       		.sleb128 4
 8059 281d 01       		.byte	0x1
 8060 281e 38       		.byte	0x38
 8061 281f 2F       		.uleb128 0x2f
 8062 2820 02       		.byte	0x2
 8063 2821 7D       		.byte	0x7d
 8064 2822 0C       		.sleb128 12
 8065 2823 01       		.byte	0x1
 8066 2824 30       		.byte	0x30
 8067 2825 2F       		.uleb128 0x2f
 8068 2826 02       		.byte	0x2
 8069 2827 7D       		.byte	0x7d
 8070 2828 10       		.sleb128 16
 8071 2829 01       		.byte	0x1
 8072 282a 30       		.byte	0x30
 8073 282b 2F       		.uleb128 0x2f
 8074 282c 02       		.byte	0x2
 8075 282d 7D       		.byte	0x7d
 8076 282e 14       		.sleb128 20
 8077 282f 01       		.byte	0x1
 8078 2830 30       		.byte	0x30
 8079 2831 2F       		.uleb128 0x2f
 8080 2832 02       		.byte	0x2
 8081 2833 7D       		.byte	0x7d
 8082 2834 18       		.sleb128 24
 8083 2835 01       		.byte	0x1
 8084 2836 30       		.byte	0x30
 8085 2837 2F       		.uleb128 0x2f
 8086 2838 02       		.byte	0x2
 8087 2839 7D       		.byte	0x7d
 8088 283a 1C       		.sleb128 28
 8089 283b 01       		.byte	0x1
 8090 283c 30       		.byte	0x30
 8091 283d 2F       		.uleb128 0x2f
 8092 283e 02       		.byte	0x2
 8093 283f 7D       		.byte	0x7d
 8094 2840 20       		.sleb128 32
 8095 2841 01       		.byte	0x1
 8096 2842 31       		.byte	0x31
 8097 2843 00       		.byte	0
 8098 2844 48       		.uleb128 0x48
 8099 2845 96000000 		.4byte	.LVL83
 8100 2849 03       		.byte	0x3
 8101 284a 91       		.byte	0x91
 8102 284b 5C       		.sleb128 -36
 8103 284c 06       		.byte	0x6
 8104 284d 2F       		.uleb128 0x2f
 8105 284e 01       		.byte	0x1
ARM GAS  C:\Users\EBANO_~1\AppData\Local\Temp\cchbxRq9.s 			page 162


 8106 284f 50       		.byte	0x50
 8107 2850 01       		.byte	0x1
 8108 2851 31       		.byte	0x31
 8109 2852 00       		.byte	0
 8110 2853 00       		.byte	0
 8111 2854 0A       		.uleb128 0xa
 8112 2855 04       		.byte	0x4
 8113 2856 51170000 		.4byte	0x1751
 8114 285a 2C       		.uleb128 0x2c
 8115 285b 01       		.byte	0x1
 8116 285c 52190000 		.4byte	.LASF499
 8117 2860 01       		.byte	0x1
 8118 2861 E601     		.2byte	0x1e6
 8119 2863 01       		.byte	0x1
 8120 2864 00000000 		.4byte	.LFB51
 8121 2868 80000000 		.4byte	.LFE51
 8122 286c 3E0D0000 		.4byte	.LLST20
 8123 2870 01       		.byte	0x1
 8124 2871 12290000 		.4byte	0x2912
 8125 2875 2D       		.uleb128 0x2d
 8126 2876 A9040000 		.4byte	.LASF443
 8127 287a 01       		.byte	0x1
 8128 287b E601     		.2byte	0x1e6
 8129 287d B1000000 		.4byte	0xb1
 8130 2881 760D0000 		.4byte	.LLST21
 8131 2885 2D       		.uleb128 0x2d
 8132 2886 80140000 		.4byte	.LASF500
 8133 288a 01       		.byte	0x1
 8134 288b E601     		.2byte	0x1e6
 8135 288d BC000000 		.4byte	0xbc
 8136 2891 970D0000 		.4byte	.LLST22
 8137 2895 2D       		.uleb128 0x2d
 8138 2896 AB180000 		.4byte	.LASF501
 8139 289a 01       		.byte	0x1
 8140 289b E601     		.2byte	0x1e6
 8141 289d ED000000 		.4byte	0xed
 8142 28a1 B80D0000 		.4byte	.LLST23
 8143 28a5 2D       		.uleb128 0x2d
 8144 28a6 400A0000 		.4byte	.LASF502
 8145 28aa 01       		.byte	0x1
 8146 28ab E601     		.2byte	0x1e6
 8147 28ad 54280000 		.4byte	0x2854
 8148 28b1 EF0D0000 		.4byte	.LLST24
 8149 28b5 33       		.uleb128 0x33
 8150 28b6 EA190000 		.4byte	.LASF503
 8151 28ba 01       		.byte	0x1
 8152 28bb E801     		.2byte	0x1e8
 8153 28bd 12290000 		.4byte	0x2912
 8154 28c1 5B0E0000 		.4byte	.LLST25
 8155 28c5 34       		.uleb128 0x34
 8156 28c6 BB2C0000 		.4byte	0x2cbb
 8157 28ca 18000000 		.4byte	.LBB21
 8158 28ce 18000000 		.4byte	.Ldebug_ranges0+0x18
 8159 28d2 01       		.byte	0x1
 8160 28d3 EC01     		.2byte	0x1ec
 8161 28d5 DF280000 		.4byte	0x28df
 8162 28d9 37       		.uleb128 0x37
ARM GAS  C:\Users\EBANO_~1\AppData\Local\Temp\cchbxRq9.s 			page 163


 8163 28da CC2C0000 		.4byte	0x2ccc
 8164 28de 00       		.byte	0
 8165 28df 3A       		.uleb128 0x3a
 8166 28e0 3E000000 		.4byte	.LVL61
 8167 28e4 4A2E0000 		.4byte	0x2e4a
 8168 28e8 49       		.uleb128 0x49
 8169 28e9 4A000000 		.4byte	.LVL63
 8170 28ed 2E       		.uleb128 0x2e
 8171 28ee 62000000 		.4byte	.LVL67
 8172 28f2 582E0000 		.4byte	0x2e58
 8173 28f6 2F       		.uleb128 0x2f
 8174 28f7 01       		.byte	0x1
 8175 28f8 52       		.byte	0x52
 8176 28f9 02       		.byte	0x2
 8177 28fa 75       		.byte	0x75
 8178 28fb 00       		.sleb128 0
 8179 28fc 2F       		.uleb128 0x2f
 8180 28fd 01       		.byte	0x1
 8181 28fe 53       		.byte	0x53
 8182 28ff 02       		.byte	0x2
 8183 2900 78       		.byte	0x78
 8184 2901 00       		.sleb128 0
 8185 2902 2F       		.uleb128 0x2f
 8186 2903 02       		.byte	0x2
 8187 2904 7D       		.byte	0x7d
 8188 2905 04       		.sleb128 4
 8189 2906 02       		.byte	0x2
 8190 2907 74       		.byte	0x74
 8191 2908 00       		.sleb128 0
 8192 2909 2F       		.uleb128 0x2f
 8193 290a 02       		.byte	0x2
 8194 290b 7D       		.byte	0x7d
 8195 290c 08       		.sleb128 8
 8196 290d 02       		.byte	0x2
 8197 290e 74       		.byte	0x74
 8198 290f 04       		.sleb128 4
 8199 2910 00       		.byte	0
 8200 2911 00       		.byte	0
 8201 2912 02       		.uleb128 0x2
 8202 2913 08       		.byte	0x8
 8203 2914 04       		.byte	0x4
 8204 2915 35190000 		.4byte	.LASF504
 8205 2919 3C       		.uleb128 0x3c
 8206 291a 01       		.byte	0x1
 8207 291b D3090000 		.4byte	.LASF505
 8208 291f 01       		.byte	0x1
 8209 2920 D201     		.2byte	0x1d2
 8210 2922 01       		.byte	0x1
 8211 2923 150B0000 		.4byte	0xb15
 8212 2927 00000000 		.4byte	.LFB50
 8213 292b 34000000 		.4byte	.LFE50
 8214 292f 9B0E0000 		.4byte	.LLST18
 8215 2933 01       		.byte	0x1
 8216 2934 7D290000 		.4byte	0x297d
 8217 2938 2D       		.uleb128 0x2d
 8218 2939 E3000000 		.4byte	.LASF506
 8219 293d 01       		.byte	0x1
ARM GAS  C:\Users\EBANO_~1\AppData\Local\Temp\cchbxRq9.s 			page 164


 8220 293e D201     		.2byte	0x1d2
 8221 2940 7D290000 		.4byte	0x297d
 8222 2944 BB0E0000 		.4byte	.LLST19
 8223 2948 3F       		.uleb128 0x3f
 8224 2949 1A000000 		.4byte	.LVL51
 8225 294d 202E0000 		.4byte	0x2e20
 8226 2951 64290000 		.4byte	0x2964
 8227 2955 2F       		.uleb128 0x2f
 8228 2956 01       		.byte	0x1
 8229 2957 50       		.byte	0x50
 8230 2958 05       		.byte	0x5
 8231 2959 03       		.byte	0x3
 8232 295a 9C040000 		.4byte	NvmCtx+1180
 8233 295e 2F       		.uleb128 0x2f
 8234 295f 01       		.byte	0x1
 8235 2960 52       		.byte	0x52
 8236 2961 01       		.byte	0x1
 8237 2962 36       		.byte	0x36
 8238 2963 00       		.byte	0
 8239 2964 2E       		.uleb128 0x2e
 8240 2965 28000000 		.4byte	.LVL54
 8241 2969 202E0000 		.4byte	0x2e20
 8242 296d 2F       		.uleb128 0x2f
 8243 296e 01       		.byte	0x1
 8244 296f 50       		.byte	0x50
 8245 2970 05       		.byte	0x5
 8246 2971 03       		.byte	0x3
 8247 2972 90040000 		.4byte	NvmCtx+1168
 8248 2976 2F       		.uleb128 0x2f
 8249 2977 01       		.byte	0x1
 8250 2978 52       		.byte	0x52
 8251 2979 01       		.byte	0x1
 8252 297a 36       		.byte	0x36
 8253 297b 00       		.byte	0
 8254 297c 00       		.byte	0
 8255 297d 0A       		.uleb128 0xa
 8256 297e 04       		.byte	0x4
 8257 297f 92160000 		.4byte	0x1692
 8258 2983 2C       		.uleb128 0x2c
 8259 2984 01       		.byte	0x1
 8260 2985 09010000 		.4byte	.LASF507
 8261 2989 01       		.byte	0x1
 8262 298a BC01     		.2byte	0x1bc
 8263 298c 01       		.byte	0x1
 8264 298d 00000000 		.4byte	.LFB49
 8265 2991 80000000 		.4byte	.LFE49
 8266 2995 0E0F0000 		.4byte	.LLST14
 8267 2999 01       		.byte	0x1
 8268 299a D9290000 		.4byte	0x29d9
 8269 299e 2D       		.uleb128 0x2d
 8270 299f D4050000 		.4byte	.LASF508
 8271 29a3 01       		.byte	0x1
 8272 29a4 BC01     		.2byte	0x1bc
 8273 29a6 D9290000 		.4byte	0x29d9
 8274 29aa 2E0F0000 		.4byte	.LLST15
 8275 29ae 4A       		.uleb128 0x4a
 8276 29af 12000000 		.4byte	.LBB20
ARM GAS  C:\Users\EBANO_~1\AppData\Local\Temp\cchbxRq9.s 			page 165


 8277 29b3 80000000 		.4byte	.LBE20
 8278 29b7 33       		.uleb128 0x33
 8279 29b8 25090000 		.4byte	.LASF509
 8280 29bc 01       		.byte	0x1
 8281 29bd CB01     		.2byte	0x1cb
 8282 29bf BC000000 		.4byte	0xbc
 8283 29c3 680F0000 		.4byte	.LLST16
 8284 29c7 33       		.uleb128 0x33
 8285 29c8 B3180000 		.4byte	.LASF510
 8286 29cc 01       		.byte	0x1
 8287 29cd CB01     		.2byte	0x1cb
 8288 29cf BC000000 		.4byte	0xbc
 8289 29d3 C40F0000 		.4byte	.LLST17
 8290 29d7 00       		.byte	0
 8291 29d8 00       		.byte	0
 8292 29d9 0A       		.uleb128 0xa
 8293 29da 04       		.byte	0x4
 8294 29db 5A160000 		.4byte	0x165a
 8295 29df 3C       		.uleb128 0x3c
 8296 29e0 01       		.byte	0x1
 8297 29e1 9A190000 		.4byte	.LASF511
 8298 29e5 01       		.byte	0x1
 8299 29e6 A001     		.2byte	0x1a0
 8300 29e8 01       		.byte	0x1
 8301 29e9 150B0000 		.4byte	0xb15
 8302 29ed 00000000 		.4byte	.LFB48
 8303 29f1 3C000000 		.4byte	.LFE48
 8304 29f5 20100000 		.4byte	.LLST11
 8305 29f9 01       		.byte	0x1
 8306 29fa 4B2A0000 		.4byte	0x2a4b
 8307 29fe 2D       		.uleb128 0x2d
 8308 29ff 3C030000 		.4byte	.LASF512
 8309 2a03 01       		.byte	0x1
 8310 2a04 A001     		.2byte	0x1a0
 8311 2a06 4B2A0000 		.4byte	0x2a4b
 8312 2a0a 40100000 		.4byte	.LLST12
 8313 2a0e 2D       		.uleb128 0x2d
 8314 2a0f 9F140000 		.4byte	.LASF513
 8315 2a13 01       		.byte	0x1
 8316 2a14 A001     		.2byte	0x1a0
 8317 2a16 B2130000 		.4byte	0x13b2
 8318 2a1a 93100000 		.4byte	.LLST13
 8319 2a1e 3F       		.uleb128 0x3f
 8320 2a1f 16000000 		.4byte	.LVL29
 8321 2a23 BE2D0000 		.4byte	0x2dbe
 8322 2a27 362A0000 		.4byte	0x2a36
 8323 2a2b 2F       		.uleb128 0x2f
 8324 2a2c 01       		.byte	0x1
 8325 2a2d 51       		.byte	0x51
 8326 2a2e 01       		.byte	0x1
 8327 2a2f 30       		.byte	0x30
 8328 2a30 2F       		.uleb128 0x2f
 8329 2a31 01       		.byte	0x1
 8330 2a32 52       		.byte	0x52
 8331 2a33 01       		.byte	0x1
 8332 2a34 35       		.byte	0x35
 8333 2a35 00       		.byte	0
ARM GAS  C:\Users\EBANO_~1\AppData\Local\Temp\cchbxRq9.s 			page 166


 8334 2a36 2E       		.uleb128 0x2e
 8335 2a37 30000000 		.4byte	.LVL33
 8336 2a3b BE2D0000 		.4byte	0x2dbe
 8337 2a3f 2F       		.uleb128 0x2f
 8338 2a40 01       		.byte	0x1
 8339 2a41 51       		.byte	0x51
 8340 2a42 01       		.byte	0x1
 8341 2a43 30       		.byte	0x30
 8342 2a44 2F       		.uleb128 0x2f
 8343 2a45 01       		.byte	0x1
 8344 2a46 52       		.byte	0x52
 8345 2a47 01       		.byte	0x1
 8346 2a48 37       		.byte	0x37
 8347 2a49 00       		.byte	0
 8348 2a4a 00       		.byte	0
 8349 2a4b 0A       		.uleb128 0xa
 8350 2a4c 04       		.byte	0x4
 8351 2a4d 22160000 		.4byte	0x1622
 8352 2a51 30       		.uleb128 0x30
 8353 2a52 01       		.byte	0x1
 8354 2a53 B3120000 		.4byte	.LASF514
 8355 2a57 01       		.byte	0x1
 8356 2a58 9A01     		.2byte	0x19a
 8357 2a5a 01       		.byte	0x1
 8358 2a5b 82010000 		.4byte	0x182
 8359 2a5f 00000000 		.4byte	.LFB47
 8360 2a63 10000000 		.4byte	.LFE47
 8361 2a67 02       		.byte	0x2
 8362 2a68 7D       		.byte	0x7d
 8363 2a69 00       		.sleb128 0
 8364 2a6a 01       		.byte	0x1
 8365 2a6b 802A0000 		.4byte	0x2a80
 8366 2a6f 2D       		.uleb128 0x2d
 8367 2a70 B20E0000 		.4byte	.LASF515
 8368 2a74 01       		.byte	0x1
 8369 2a75 9A01     		.2byte	0x19a
 8370 2a77 802A0000 		.4byte	0x2a80
 8371 2a7b CD100000 		.4byte	.LLST10
 8372 2a7f 00       		.byte	0
 8373 2a80 0A       		.uleb128 0xa
 8374 2a81 04       		.byte	0x4
 8375 2a82 A9150000 		.4byte	0x15a9
 8376 2a86 2C       		.uleb128 0x2c
 8377 2a87 01       		.byte	0x1
 8378 2a88 A8050000 		.4byte	.LASF516
 8379 2a8c 01       		.byte	0x1
 8380 2a8d 6201     		.2byte	0x162
 8381 2a8f 01       		.byte	0x1
 8382 2a90 00000000 		.4byte	.LFB46
 8383 2a94 B0000000 		.4byte	.LFE46
 8384 2a98 EE100000 		.4byte	.LLST7
 8385 2a9c 01       		.byte	0x1
 8386 2a9d 5C2B0000 		.4byte	0x2b5c
 8387 2aa1 2D       		.uleb128 0x2d
 8388 2aa2 B20E0000 		.4byte	.LASF515
 8389 2aa6 01       		.byte	0x1
 8390 2aa7 6201     		.2byte	0x162
ARM GAS  C:\Users\EBANO_~1\AppData\Local\Temp\cchbxRq9.s 			page 167


 8391 2aa9 5C2B0000 		.4byte	0x2b5c
 8392 2aad 1A110000 		.4byte	.LLST8
 8393 2ab1 2A       		.uleb128 0x2a
 8394 2ab2 DB140000 		.4byte	.LASF517
 8395 2ab6 01       		.byte	0x1
 8396 2ab7 6401     		.2byte	0x164
 8397 2ab9 A91E0000 		.4byte	0x1ea9
 8398 2abd 02       		.byte	0x2
 8399 2abe 91       		.byte	0x91
 8400 2abf 60       		.sleb128 -32
 8401 2ac0 44       		.uleb128 0x44
 8402 2ac1 00000000 		.4byte	.Ldebug_ranges0+0
 8403 2ac5 D82A0000 		.4byte	0x2ad8
 8404 2ac9 45       		.uleb128 0x45
 8405 2aca 6900     		.ascii	"i\000"
 8406 2acc 01       		.byte	0x1
 8407 2acd 7201     		.2byte	0x172
 8408 2acf BC000000 		.4byte	0xbc
 8409 2ad3 6D110000 		.4byte	.LLST9
 8410 2ad7 00       		.byte	0
 8411 2ad8 3F       		.uleb128 0x3f
 8412 2ad9 32000000 		.4byte	.LVL15
 8413 2add 662E0000 		.4byte	0x2e66
 8414 2ae1 F62A0000 		.4byte	0x2af6
 8415 2ae5 2F       		.uleb128 0x2f
 8416 2ae6 01       		.byte	0x1
 8417 2ae7 50       		.byte	0x50
 8418 2ae8 05       		.byte	0x5
 8419 2ae9 03       		.byte	0x3
 8420 2aea 00000000 		.4byte	NvmCtx
 8421 2aee 2F       		.uleb128 0x2f
 8422 2aef 01       		.byte	0x1
 8423 2af0 52       		.byte	0x52
 8424 2af1 03       		.byte	0x3
 8425 2af2 0A       		.byte	0xa
 8426 2af3 A804     		.2byte	0x4a8
 8427 2af5 00       		.byte	0
 8428 2af6 3F       		.uleb128 0x3f
 8429 2af7 42000000 		.4byte	.LVL18
 8430 2afb 662E0000 		.4byte	0x2e66
 8431 2aff 152B0000 		.4byte	0x2b15
 8432 2b03 2F       		.uleb128 0x2f
 8433 2b04 01       		.byte	0x1
 8434 2b05 50       		.byte	0x50
 8435 2b06 02       		.byte	0x2
 8436 2b07 74       		.byte	0x74
 8437 2b08 00       		.sleb128 0
 8438 2b09 2F       		.uleb128 0x2f
 8439 2b0a 01       		.byte	0x1
 8440 2b0b 51       		.byte	0x51
 8441 2b0c 02       		.byte	0x2
 8442 2b0d 7D       		.byte	0x7d
 8443 2b0e 00       		.sleb128 0
 8444 2b0f 2F       		.uleb128 0x2f
 8445 2b10 01       		.byte	0x1
 8446 2b11 52       		.byte	0x52
 8447 2b12 01       		.byte	0x1
ARM GAS  C:\Users\EBANO_~1\AppData\Local\Temp\cchbxRq9.s 			page 168


 8448 2b13 40       		.byte	0x40
 8449 2b14 00       		.byte	0
 8450 2b15 3F       		.uleb128 0x3f
 8451 2b16 80000000 		.4byte	.LVL20
 8452 2b1a 202E0000 		.4byte	0x2e20
 8453 2b1e 3A2B0000 		.4byte	0x2b3a
 8454 2b22 2F       		.uleb128 0x2f
 8455 2b23 01       		.byte	0x1
 8456 2b24 50       		.byte	0x50
 8457 2b25 05       		.byte	0x5
 8458 2b26 03       		.byte	0x3
 8459 2b27 90040000 		.4byte	NvmCtx+1168
 8460 2b2b 2F       		.uleb128 0x2f
 8461 2b2c 01       		.byte	0x1
 8462 2b2d 51       		.byte	0x51
 8463 2b2e 05       		.byte	0x5
 8464 2b2f 03       		.byte	0x3
 8465 2b30 9C040000 		.4byte	NvmCtx+1180
 8466 2b34 2F       		.uleb128 0x2f
 8467 2b35 01       		.byte	0x1
 8468 2b36 52       		.byte	0x52
 8469 2b37 01       		.byte	0x1
 8470 2b38 36       		.byte	0x36
 8471 2b39 00       		.byte	0
 8472 2b3a 2E       		.uleb128 0x2e
 8473 2b3b 8E000000 		.4byte	.LVL23
 8474 2b3f 202E0000 		.4byte	0x2e20
 8475 2b43 2F       		.uleb128 0x2f
 8476 2b44 01       		.byte	0x1
 8477 2b45 50       		.byte	0x50
 8478 2b46 05       		.byte	0x5
 8479 2b47 03       		.byte	0x3
 8480 2b48 90040000 		.4byte	NvmCtx+1168
 8481 2b4c 2F       		.uleb128 0x2f
 8482 2b4d 01       		.byte	0x1
 8483 2b4e 51       		.byte	0x51
 8484 2b4f 05       		.byte	0x5
 8485 2b50 03       		.byte	0x3
 8486 2b51 9C040000 		.4byte	NvmCtx+1180
 8487 2b55 2F       		.uleb128 0x2f
 8488 2b56 01       		.byte	0x1
 8489 2b57 52       		.byte	0x52
 8490 2b58 01       		.byte	0x1
 8491 2b59 36       		.byte	0x36
 8492 2b5a 00       		.byte	0
 8493 2b5b 00       		.byte	0
 8494 2b5c 0A       		.uleb128 0xa
 8495 2b5d 04       		.byte	0x4
 8496 2b5e 80150000 		.4byte	0x1580
 8497 2b62 2C       		.uleb128 0x2c
 8498 2b63 01       		.byte	0x1
 8499 2b64 06170000 		.4byte	.LASF518
 8500 2b68 01       		.byte	0x1
 8501 2b69 5D01     		.2byte	0x15d
 8502 2b6b 01       		.byte	0x1
 8503 2b6c 00000000 		.4byte	.LFB45
 8504 2b70 24000000 		.4byte	.LFE45
ARM GAS  C:\Users\EBANO_~1\AppData\Local\Temp\cchbxRq9.s 			page 169


 8505 2b74 81110000 		.4byte	.LLST5
 8506 2b78 01       		.byte	0x1
 8507 2b79 972B0000 		.4byte	0x2b97
 8508 2b7d 2D       		.uleb128 0x2d
 8509 2b7e 2E050000 		.4byte	.LASF519
 8510 2b82 01       		.byte	0x1
 8511 2b83 5D01     		.2byte	0x15d
 8512 2b85 972B0000 		.4byte	0x2b97
 8513 2b89 A1110000 		.4byte	.LLST6
 8514 2b8d 3A       		.uleb128 0x3a
 8515 2b8e 1E000000 		.4byte	.LVL12
 8516 2b92 732E0000 		.4byte	0x2e73
 8517 2b96 00       		.byte	0
 8518 2b97 0A       		.uleb128 0xa
 8519 2b98 04       		.byte	0x4
 8520 2b99 48150000 		.4byte	0x1548
 8521 2b9d 4B       		.uleb128 0x4b
 8522 2b9e 01       		.byte	0x1
 8523 2b9f 68110000 		.4byte	.LASF521
 8524 2ba3 01       		.byte	0x1
 8525 2ba4 A6       		.byte	0xa6
 8526 2ba5 01       		.byte	0x1
 8527 2ba6 AB140000 		.4byte	0x14ab
 8528 2baa 01       		.byte	0x1
 8529 2bab C62B0000 		.4byte	0x2bc6
 8530 2baf 4C       		.uleb128 0x4c
 8531 2bb0 63180000 		.4byte	.LASF488
 8532 2bb4 01       		.byte	0x1
 8533 2bb5 A6       		.byte	0xa6
 8534 2bb6 C62B0000 		.4byte	0x2bc6
 8535 2bba 4D       		.uleb128 0x4d
 8536 2bbb 21040000 		.4byte	.LASF489
 8537 2bbf 01       		.byte	0x1
 8538 2bc0 A8       		.byte	0xa8
 8539 2bc1 AB140000 		.4byte	0x14ab
 8540 2bc5 00       		.byte	0
 8541 2bc6 0A       		.uleb128 0xa
 8542 2bc7 04       		.byte	0x4
 8543 2bc8 01150000 		.4byte	0x1501
 8544 2bcc 4E       		.uleb128 0x4e
 8545 2bcd D4080000 		.4byte	.LASF524
 8546 2bd1 01       		.byte	0x1
 8547 2bd2 84       		.byte	0x84
 8548 2bd3 01       		.byte	0x1
 8549 2bd4 BC000000 		.4byte	0xbc
 8550 2bd8 01       		.byte	0x1
 8551 2bd9 552C0000 		.4byte	0x2c55
 8552 2bdd 4C       		.uleb128 0x4c
 8553 2bde A9040000 		.4byte	.LASF443
 8554 2be2 01       		.byte	0x1
 8555 2be3 84       		.byte	0x84
 8556 2be4 BC000000 		.4byte	0xbc
 8557 2be8 4C       		.uleb128 0x4c
 8558 2be9 F6130000 		.4byte	.LASF487
 8559 2bed 01       		.byte	0x1
 8560 2bee 84       		.byte	0x84
 8561 2bef 95110000 		.4byte	0x1195
ARM GAS  C:\Users\EBANO_~1\AppData\Local\Temp\cchbxRq9.s 			page 170


 8562 2bf3 4C       		.uleb128 0x4c
 8563 2bf4 B81C0000 		.4byte	.LASF522
 8564 2bf8 01       		.byte	0x1
 8565 2bf9 84       		.byte	0x84
 8566 2bfa 8F110000 		.4byte	0x118f
 8567 2bfe 4C       		.uleb128 0x4c
 8568 2bff DB140000 		.4byte	.LASF517
 8569 2c03 01       		.byte	0x1
 8570 2c04 84       		.byte	0x84
 8571 2c05 541D0000 		.4byte	0x1d54
 8572 2c09 4C       		.uleb128 0x4c
 8573 2c0a FA190000 		.4byte	.LASF463
 8574 2c0e 01       		.byte	0x1
 8575 2c0f 84       		.byte	0x84
 8576 2c10 840A0000 		.4byte	0xa84
 8577 2c14 4C       		.uleb128 0x4c
 8578 2c15 F7060000 		.4byte	.LASF462
 8579 2c19 01       		.byte	0x1
 8580 2c1a 84       		.byte	0x84
 8581 2c1b 840A0000 		.4byte	0xa84
 8582 2c1f 4D       		.uleb128 0x4d
 8583 2c20 EE150000 		.4byte	.LASF461
 8584 2c24 01       		.byte	0x1
 8585 2c25 86       		.byte	0x86
 8586 2c26 BC000000 		.4byte	0xbc
 8587 2c2a 4D       		.uleb128 0x4d
 8588 2c2b 611C0000 		.4byte	.LASF523
 8589 2c2f 01       		.byte	0x1
 8590 2c30 87       		.byte	0x87
 8591 2c31 BC000000 		.4byte	0xbc
 8592 2c35 4F       		.uleb128 0x4f
 8593 2c36 50       		.uleb128 0x50
 8594 2c37 6900     		.ascii	"i\000"
 8595 2c39 01       		.byte	0x1
 8596 2c3a 89       		.byte	0x89
 8597 2c3b BC000000 		.4byte	0xbc
 8598 2c3f 50       		.uleb128 0x50
 8599 2c40 6B00     		.ascii	"k\000"
 8600 2c42 01       		.byte	0x1
 8601 2c43 89       		.byte	0x89
 8602 2c44 BC000000 		.4byte	0xbc
 8603 2c48 4F       		.uleb128 0x4f
 8604 2c49 50       		.uleb128 0x50
 8605 2c4a 6A00     		.ascii	"j\000"
 8606 2c4c 01       		.byte	0x1
 8607 2c4d 8B       		.byte	0x8b
 8608 2c4e BC000000 		.4byte	0xbc
 8609 2c52 00       		.byte	0
 8610 2c53 00       		.byte	0
 8611 2c54 00       		.byte	0
 8612 2c55 4E       		.uleb128 0x4e
 8613 2c56 62140000 		.4byte	.LASF525
 8614 2c5a 01       		.byte	0x1
 8615 2c5b 6C       		.byte	0x6c
 8616 2c5c 01       		.byte	0x1
 8617 2c5d 150B0000 		.4byte	0xb15
 8618 2c61 01       		.byte	0x1
ARM GAS  C:\Users\EBANO_~1\AppData\Local\Temp\cchbxRq9.s 			page 171


 8619 2c62 722C0000 		.4byte	0x2c72
 8620 2c66 4C       		.uleb128 0x4c
 8621 2c67 F7030000 		.4byte	.LASF526
 8622 2c6b 01       		.byte	0x1
 8623 2c6c 6C       		.byte	0x6c
 8624 2c6d ED000000 		.4byte	0xed
 8625 2c71 00       		.byte	0
 8626 2c72 4E       		.uleb128 0x4e
 8627 2c73 82120000 		.4byte	.LASF527
 8628 2c77 01       		.byte	0x1
 8629 2c78 62       		.byte	0x62
 8630 2c79 01       		.byte	0x1
 8631 2c7a B1000000 		.4byte	0xb1
 8632 2c7e 01       		.byte	0x1
 8633 2c7f BB2C0000 		.4byte	0x2cbb
 8634 2c83 4C       		.uleb128 0x4c
 8635 2c84 ED100000 		.4byte	.LASF493
 8636 2c88 01       		.byte	0x1
 8637 2c89 62       		.byte	0x62
 8638 2c8a B1000000 		.4byte	0xb1
 8639 2c8e 4C       		.uleb128 0x4c
 8640 2c8f EA090000 		.4byte	.LASF528
 8641 2c93 01       		.byte	0x1
 8642 2c94 62       		.byte	0x62
 8643 2c95 B1000000 		.4byte	0xb1
 8644 2c99 4C       		.uleb128 0x4c
 8645 2c9a A9040000 		.4byte	.LASF443
 8646 2c9e 01       		.byte	0x1
 8647 2c9f 62       		.byte	0x62
 8648 2ca0 B1000000 		.4byte	0xb1
 8649 2ca4 4C       		.uleb128 0x4c
 8650 2ca5 F6130000 		.4byte	.LASF487
 8651 2ca9 01       		.byte	0x1
 8652 2caa 62       		.byte	0x62
 8653 2cab 95110000 		.4byte	0x1195
 8654 2caf 4D       		.uleb128 0x4d
 8655 2cb0 A1030000 		.4byte	.LASF529
 8656 2cb4 01       		.byte	0x1
 8657 2cb5 64       		.byte	0x64
 8658 2cb6 B1000000 		.4byte	0xb1
 8659 2cba 00       		.byte	0
 8660 2cbb 4E       		.uleb128 0x4e
 8661 2cbc C5160000 		.4byte	.LASF530
 8662 2cc0 01       		.byte	0x1
 8663 2cc1 54       		.byte	0x54
 8664 2cc2 01       		.byte	0x1
 8665 2cc3 ED000000 		.4byte	0xed
 8666 2cc7 01       		.byte	0x1
 8667 2cc8 D82C0000 		.4byte	0x2cd8
 8668 2ccc 4C       		.uleb128 0x4c
 8669 2ccd 500B0000 		.4byte	.LASF531
 8670 2cd1 01       		.byte	0x1
 8671 2cd2 54       		.byte	0x54
 8672 2cd3 ED000000 		.4byte	0xed
 8673 2cd7 00       		.byte	0
 8674 2cd8 4E       		.uleb128 0x4e
 8675 2cd9 DC0E0000 		.4byte	.LASF532
ARM GAS  C:\Users\EBANO_~1\AppData\Local\Temp\cchbxRq9.s 			page 172


 8676 2cdd 01       		.byte	0x1
 8677 2cde 45       		.byte	0x45
 8678 2cdf 01       		.byte	0x1
 8679 2ce0 B1000000 		.4byte	0xb1
 8680 2ce4 01       		.byte	0x1
 8681 2ce5 0A2D0000 		.4byte	0x2d0a
 8682 2ce9 51       		.uleb128 0x51
 8683 2cea 647200   		.ascii	"dr\000"
 8684 2ced 01       		.byte	0x1
 8685 2cee 45       		.byte	0x45
 8686 2cef B1000000 		.4byte	0xb1
 8687 2cf3 4C       		.uleb128 0x4c
 8688 2cf4 3B0E0000 		.4byte	.LASF533
 8689 2cf8 01       		.byte	0x1
 8690 2cf9 45       		.byte	0x45
 8691 2cfa B1000000 		.4byte	0xb1
 8692 2cfe 4D       		.uleb128 0x4d
 8693 2cff 3C1D0000 		.4byte	.LASF534
 8694 2d03 01       		.byte	0x1
 8695 2d04 47       		.byte	0x47
 8696 2d05 BC000000 		.4byte	0xbc
 8697 2d09 00       		.byte	0
 8698 2d0a 52       		.uleb128 0x52
 8699 2d0b 9D2B0000 		.4byte	0x2b9d
 8700 2d0f 00000000 		.4byte	.LFB44
 8701 2d13 18010000 		.4byte	.LFE44
 8702 2d17 C2110000 		.4byte	.LLST0
 8703 2d1b 01       		.byte	0x1
 8704 2d1c 832D0000 		.4byte	0x2d83
 8705 2d20 35       		.uleb128 0x35
 8706 2d21 AF2B0000 		.4byte	0x2baf
 8707 2d25 EE110000 		.4byte	.LLST1
 8708 2d29 53       		.uleb128 0x53
 8709 2d2a BA2B0000 		.4byte	0x2bba
 8710 2d2e 02       		.byte	0x2
 8711 2d2f 91       		.byte	0x91
 8712 2d30 70       		.sleb128 -16
 8713 2d31 54       		.uleb128 0x54
 8714 2d32 D82C0000 		.4byte	0x2cd8
 8715 2d36 AA000000 		.4byte	.LBB16
 8716 2d3a B4000000 		.4byte	.LBE16
 8717 2d3e 01       		.byte	0x1
 8718 2d3f BD       		.byte	0xbd
 8719 2d40 6A2D0000 		.4byte	0x2d6a
 8720 2d44 35       		.uleb128 0x35
 8721 2d45 F32C0000 		.4byte	0x2cf3
 8722 2d49 33120000 		.4byte	.LLST2
 8723 2d4d 35       		.uleb128 0x35
 8724 2d4e E92C0000 		.4byte	0x2ce9
 8725 2d52 47120000 		.4byte	.LLST3
 8726 2d56 4A       		.uleb128 0x4a
 8727 2d57 AA000000 		.4byte	.LBB17
 8728 2d5b B4000000 		.4byte	.LBE17
 8729 2d5f 3D       		.uleb128 0x3d
 8730 2d60 FE2C0000 		.4byte	0x2cfe
 8731 2d64 67120000 		.4byte	.LLST4
 8732 2d68 00       		.byte	0
ARM GAS  C:\Users\EBANO_~1\AppData\Local\Temp\cchbxRq9.s 			page 173


 8733 2d69 00       		.byte	0
 8734 2d6a 2E       		.uleb128 0x2e
 8735 2d6b 70000000 		.4byte	.LVL4
 8736 2d6f 052E0000 		.4byte	0x2e05
 8737 2d73 2F       		.uleb128 0x2f
 8738 2d74 01       		.byte	0x1
 8739 2d75 50       		.byte	0x50
 8740 2d76 03       		.byte	0x3
 8741 2d77 0B       		.byte	0xb
 8742 2d78 18FC     		.2byte	0xfc18
 8743 2d7a 2F       		.uleb128 0x2f
 8744 2d7b 01       		.byte	0x1
 8745 2d7c 51       		.byte	0x51
 8746 2d7d 03       		.byte	0x3
 8747 2d7e 0A       		.byte	0xa
 8748 2d7f E803     		.2byte	0x3e8
 8749 2d81 00       		.byte	0
 8750 2d82 00       		.byte	0
 8751 2d83 55       		.uleb128 0x55
 8752 2d84 8F230000 		.4byte	0x238f
 8753 2d88 00000000 		.4byte	.LFB56
 8754 2d8c 04000000 		.4byte	.LFE56
 8755 2d90 02       		.byte	0x2
 8756 2d91 7D       		.byte	0x7d
 8757 2d92 00       		.sleb128 0
 8758 2d93 01       		.byte	0x1
 8759 2d94 A22D0000 		.4byte	0x2da2
 8760 2d98 35       		.uleb128 0x35
 8761 2d99 A2230000 		.4byte	0x23a2
 8762 2d9d 95120000 		.4byte	.LLST56
 8763 2da1 00       		.byte	0
 8764 2da2 56       		.uleb128 0x56
 8765 2da3 01       		.byte	0x1
 8766 2da4 01       		.byte	0x1
 8767 2da5 8E1B0000 		.4byte	.LASF535
 8768 2da9 8E1B0000 		.4byte	.LASF535
 8769 2dad 10       		.byte	0x10
 8770 2dae 9F01     		.2byte	0x19f
 8771 2db0 56       		.uleb128 0x56
 8772 2db1 01       		.byte	0x1
 8773 2db2 01       		.byte	0x1
 8774 2db3 2D160000 		.4byte	.LASF536
 8775 2db7 2D160000 		.4byte	.LASF536
 8776 2dbb 10       		.byte	0x10
 8777 2dbc 9101     		.2byte	0x191
 8778 2dbe 57       		.uleb128 0x57
 8779 2dbf 01       		.byte	0x1
 8780 2dc0 01       		.byte	0x1
 8781 2dc1 48160000 		.4byte	.LASF537
 8782 2dc5 48160000 		.4byte	.LASF537
 8783 2dc9 10       		.byte	0x10
 8784 2dca E1       		.byte	0xe1
 8785 2dcb 58       		.uleb128 0x58
 8786 2dcc 01       		.byte	0x1
 8787 2dcd 01       		.byte	0x1
 8788 2dce C3100000 		.4byte	.LASF554
 8789 2dd2 43030000 		.4byte	.LASF555
ARM GAS  C:\Users\EBANO_~1\AppData\Local\Temp\cchbxRq9.s 			page 174


 8790 2dd6 13       		.byte	0x13
 8791 2dd7 00       		.byte	0
 8792 2dd8 C3100000 		.4byte	.LASF554
 8793 2ddc 56       		.uleb128 0x56
 8794 2ddd 01       		.byte	0x1
 8795 2dde 01       		.byte	0x1
 8796 2ddf 540A0000 		.4byte	.LASF538
 8797 2de3 540A0000 		.4byte	.LASF538
 8798 2de7 10       		.byte	0x10
 8799 2de8 1201     		.2byte	0x112
 8800 2dea 57       		.uleb128 0x57
 8801 2deb 01       		.byte	0x1
 8802 2dec 01       		.byte	0x1
 8803 2ded D7130000 		.4byte	.LASF539
 8804 2df1 D7130000 		.4byte	.LASF539
 8805 2df5 12       		.byte	0x12
 8806 2df6 94       		.byte	0x94
 8807 2df7 56       		.uleb128 0x56
 8808 2df8 01       		.byte	0x1
 8809 2df9 01       		.byte	0x1
 8810 2dfa F20B0000 		.4byte	.LASF540
 8811 2dfe F20B0000 		.4byte	.LASF540
 8812 2e02 10       		.byte	0x10
 8813 2e03 3A01     		.2byte	0x13a
 8814 2e05 57       		.uleb128 0x57
 8815 2e06 01       		.byte	0x1
 8816 2e07 01       		.byte	0x1
 8817 2e08 0E020000 		.4byte	.LASF541
 8818 2e0c 0E020000 		.4byte	.LASF541
 8819 2e10 0A       		.byte	0xa
 8820 2e11 77       		.byte	0x77
 8821 2e12 56       		.uleb128 0x56
 8822 2e13 01       		.byte	0x1
 8823 2e14 01       		.byte	0x1
 8824 2e15 F0180000 		.4byte	.LASF542
 8825 2e19 F0180000 		.4byte	.LASF542
 8826 2e1d 10       		.byte	0x10
 8827 2e1e 9801     		.2byte	0x198
 8828 2e20 56       		.uleb128 0x56
 8829 2e21 01       		.byte	0x1
 8830 2e22 01       		.byte	0x1
 8831 2e23 FF060000 		.4byte	.LASF543
 8832 2e27 FF060000 		.4byte	.LASF543
 8833 2e2b 10       		.byte	0x10
 8834 2e2c 1E01     		.2byte	0x11e
 8835 2e2e 56       		.uleb128 0x56
 8836 2e2f 01       		.byte	0x1
 8837 2e30 01       		.byte	0x1
 8838 2e31 D6040000 		.4byte	.LASF544
 8839 2e35 D6040000 		.4byte	.LASF544
 8840 2e39 10       		.byte	0x10
 8841 2e3a 4801     		.2byte	0x148
 8842 2e3c 56       		.uleb128 0x56
 8843 2e3d 01       		.byte	0x1
 8844 2e3e 01       		.byte	0x1
 8845 2e3f CA100000 		.4byte	.LASF545
 8846 2e43 CA100000 		.4byte	.LASF545
ARM GAS  C:\Users\EBANO_~1\AppData\Local\Temp\cchbxRq9.s 			page 175


 8847 2e47 10       		.byte	0x10
 8848 2e48 5801     		.2byte	0x158
 8849 2e4a 56       		.uleb128 0x56
 8850 2e4b 01       		.byte	0x1
 8851 2e4c 01       		.byte	0x1
 8852 2e4d 71150000 		.4byte	.LASF546
 8853 2e51 71150000 		.4byte	.LASF546
 8854 2e55 10       		.byte	0x10
 8855 2e56 6301     		.2byte	0x163
 8856 2e58 56       		.uleb128 0x56
 8857 2e59 01       		.byte	0x1
 8858 2e5a 01       		.byte	0x1
 8859 2e5b 251F0000 		.4byte	.LASF547
 8860 2e5f 251F0000 		.4byte	.LASF547
 8861 2e63 10       		.byte	0x10
 8862 2e64 8001     		.2byte	0x180
 8863 2e66 57       		.uleb128 0x57
 8864 2e67 01       		.byte	0x1
 8865 2e68 01       		.byte	0x1
 8866 2e69 7B030000 		.4byte	.LASF548
 8867 2e6d 7B030000 		.4byte	.LASF548
 8868 2e71 0A       		.byte	0xa
 8869 2e72 89       		.byte	0x89
 8870 2e73 56       		.uleb128 0x56
 8871 2e74 01       		.byte	0x1
 8872 2e75 01       		.byte	0x1
 8873 2e76 AE130000 		.4byte	.LASF549
 8874 2e7a AE130000 		.4byte	.LASF549
 8875 2e7e 10       		.byte	0x10
 8876 2e7f 2A01     		.2byte	0x12a
 8877 2e81 00       		.byte	0
 8878              		.section	.debug_abbrev,"",%progbits
 8879              	.Ldebug_abbrev0:
 8880 0000 01       		.uleb128 0x1
 8881 0001 11       		.uleb128 0x11
 8882 0002 01       		.byte	0x1
 8883 0003 25       		.uleb128 0x25
 8884 0004 0E       		.uleb128 0xe
 8885 0005 13       		.uleb128 0x13
 8886 0006 0B       		.uleb128 0xb
 8887 0007 03       		.uleb128 0x3
 8888 0008 0E       		.uleb128 0xe
 8889 0009 1B       		.uleb128 0x1b
 8890 000a 0E       		.uleb128 0xe
 8891 000b 55       		.uleb128 0x55
 8892 000c 06       		.uleb128 0x6
 8893 000d 11       		.uleb128 0x11
 8894 000e 01       		.uleb128 0x1
 8895 000f 52       		.uleb128 0x52
 8896 0010 01       		.uleb128 0x1
 8897 0011 10       		.uleb128 0x10
 8898 0012 06       		.uleb128 0x6
 8899 0013 00       		.byte	0
 8900 0014 00       		.byte	0
 8901 0015 02       		.uleb128 0x2
 8902 0016 24       		.uleb128 0x24
 8903 0017 00       		.byte	0
ARM GAS  C:\Users\EBANO_~1\AppData\Local\Temp\cchbxRq9.s 			page 176


 8904 0018 0B       		.uleb128 0xb
 8905 0019 0B       		.uleb128 0xb
 8906 001a 3E       		.uleb128 0x3e
 8907 001b 0B       		.uleb128 0xb
 8908 001c 03       		.uleb128 0x3
 8909 001d 0E       		.uleb128 0xe
 8910 001e 00       		.byte	0
 8911 001f 00       		.byte	0
 8912 0020 03       		.uleb128 0x3
 8913 0021 16       		.uleb128 0x16
 8914 0022 00       		.byte	0
 8915 0023 03       		.uleb128 0x3
 8916 0024 0E       		.uleb128 0xe
 8917 0025 3A       		.uleb128 0x3a
 8918 0026 0B       		.uleb128 0xb
 8919 0027 3B       		.uleb128 0x3b
 8920 0028 0B       		.uleb128 0xb
 8921 0029 49       		.uleb128 0x49
 8922 002a 13       		.uleb128 0x13
 8923 002b 00       		.byte	0
 8924 002c 00       		.byte	0
 8925 002d 04       		.uleb128 0x4
 8926 002e 24       		.uleb128 0x24
 8927 002f 00       		.byte	0
 8928 0030 0B       		.uleb128 0xb
 8929 0031 0B       		.uleb128 0xb
 8930 0032 3E       		.uleb128 0x3e
 8931 0033 0B       		.uleb128 0xb
 8932 0034 03       		.uleb128 0x3
 8933 0035 08       		.uleb128 0x8
 8934 0036 00       		.byte	0
 8935 0037 00       		.byte	0
 8936 0038 05       		.uleb128 0x5
 8937 0039 26       		.uleb128 0x26
 8938 003a 00       		.byte	0
 8939 003b 49       		.uleb128 0x49
 8940 003c 13       		.uleb128 0x13
 8941 003d 00       		.byte	0
 8942 003e 00       		.byte	0
 8943 003f 06       		.uleb128 0x6
 8944 0040 34       		.uleb128 0x34
 8945 0041 00       		.byte	0
 8946 0042 03       		.uleb128 0x3
 8947 0043 0E       		.uleb128 0xe
 8948 0044 3A       		.uleb128 0x3a
 8949 0045 0B       		.uleb128 0xb
 8950 0046 3B       		.uleb128 0x3b
 8951 0047 0B       		.uleb128 0xb
 8952 0048 49       		.uleb128 0x49
 8953 0049 13       		.uleb128 0x13
 8954 004a 3F       		.uleb128 0x3f
 8955 004b 0C       		.uleb128 0xc
 8956 004c 3C       		.uleb128 0x3c
 8957 004d 0C       		.uleb128 0xc
 8958 004e 00       		.byte	0
 8959 004f 00       		.byte	0
 8960 0050 07       		.uleb128 0x7
ARM GAS  C:\Users\EBANO_~1\AppData\Local\Temp\cchbxRq9.s 			page 177


 8961 0051 01       		.uleb128 0x1
 8962 0052 01       		.byte	0x1
 8963 0053 49       		.uleb128 0x49
 8964 0054 13       		.uleb128 0x13
 8965 0055 01       		.uleb128 0x1
 8966 0056 13       		.uleb128 0x13
 8967 0057 00       		.byte	0
 8968 0058 00       		.byte	0
 8969 0059 08       		.uleb128 0x8
 8970 005a 21       		.uleb128 0x21
 8971 005b 00       		.byte	0
 8972 005c 49       		.uleb128 0x49
 8973 005d 13       		.uleb128 0x13
 8974 005e 2F       		.uleb128 0x2f
 8975 005f 0B       		.uleb128 0xb
 8976 0060 00       		.byte	0
 8977 0061 00       		.byte	0
 8978 0062 09       		.uleb128 0x9
 8979 0063 0F       		.uleb128 0xf
 8980 0064 00       		.byte	0
 8981 0065 0B       		.uleb128 0xb
 8982 0066 0B       		.uleb128 0xb
 8983 0067 00       		.byte	0
 8984 0068 00       		.byte	0
 8985 0069 0A       		.uleb128 0xa
 8986 006a 0F       		.uleb128 0xf
 8987 006b 00       		.byte	0
 8988 006c 0B       		.uleb128 0xb
 8989 006d 0B       		.uleb128 0xb
 8990 006e 49       		.uleb128 0x49
 8991 006f 13       		.uleb128 0x13
 8992 0070 00       		.byte	0
 8993 0071 00       		.byte	0
 8994 0072 0B       		.uleb128 0xb
 8995 0073 13       		.uleb128 0x13
 8996 0074 00       		.byte	0
 8997 0075 03       		.uleb128 0x3
 8998 0076 0E       		.uleb128 0xe
 8999 0077 3C       		.uleb128 0x3c
 9000 0078 0C       		.uleb128 0xc
 9001 0079 00       		.byte	0
 9002 007a 00       		.byte	0
 9003 007b 0C       		.uleb128 0xc
 9004 007c 16       		.uleb128 0x16
 9005 007d 00       		.byte	0
 9006 007e 03       		.uleb128 0x3
 9007 007f 0E       		.uleb128 0xe
 9008 0080 3A       		.uleb128 0x3a
 9009 0081 0B       		.uleb128 0xb
 9010 0082 3B       		.uleb128 0x3b
 9011 0083 05       		.uleb128 0x5
 9012 0084 49       		.uleb128 0x49
 9013 0085 13       		.uleb128 0x13
 9014 0086 00       		.byte	0
 9015 0087 00       		.byte	0
 9016 0088 0D       		.uleb128 0xd
 9017 0089 17       		.uleb128 0x17
ARM GAS  C:\Users\EBANO_~1\AppData\Local\Temp\cchbxRq9.s 			page 178


 9018 008a 01       		.byte	0x1
 9019 008b 0B       		.uleb128 0xb
 9020 008c 0B       		.uleb128 0xb
 9021 008d 3A       		.uleb128 0x3a
 9022 008e 0B       		.uleb128 0xb
 9023 008f 3B       		.uleb128 0x3b
 9024 0090 0B       		.uleb128 0xb
 9025 0091 01       		.uleb128 0x1
 9026 0092 13       		.uleb128 0x13
 9027 0093 00       		.byte	0
 9028 0094 00       		.byte	0
 9029 0095 0E       		.uleb128 0xe
 9030 0096 0D       		.uleb128 0xd
 9031 0097 00       		.byte	0
 9032 0098 03       		.uleb128 0x3
 9033 0099 0E       		.uleb128 0xe
 9034 009a 3A       		.uleb128 0x3a
 9035 009b 0B       		.uleb128 0xb
 9036 009c 3B       		.uleb128 0x3b
 9037 009d 0B       		.uleb128 0xb
 9038 009e 49       		.uleb128 0x49
 9039 009f 13       		.uleb128 0x13
 9040 00a0 00       		.byte	0
 9041 00a1 00       		.byte	0
 9042 00a2 0F       		.uleb128 0xf
 9043 00a3 13       		.uleb128 0x13
 9044 00a4 01       		.byte	0x1
 9045 00a5 0B       		.uleb128 0xb
 9046 00a6 0B       		.uleb128 0xb
 9047 00a7 3A       		.uleb128 0x3a
 9048 00a8 0B       		.uleb128 0xb
 9049 00a9 3B       		.uleb128 0x3b
 9050 00aa 0B       		.uleb128 0xb
 9051 00ab 01       		.uleb128 0x1
 9052 00ac 13       		.uleb128 0x13
 9053 00ad 00       		.byte	0
 9054 00ae 00       		.byte	0
 9055 00af 10       		.uleb128 0x10
 9056 00b0 0D       		.uleb128 0xd
 9057 00b1 00       		.byte	0
 9058 00b2 03       		.uleb128 0x3
 9059 00b3 0E       		.uleb128 0xe
 9060 00b4 3A       		.uleb128 0x3a
 9061 00b5 0B       		.uleb128 0xb
 9062 00b6 3B       		.uleb128 0x3b
 9063 00b7 0B       		.uleb128 0xb
 9064 00b8 49       		.uleb128 0x49
 9065 00b9 13       		.uleb128 0x13
 9066 00ba 38       		.uleb128 0x38
 9067 00bb 0A       		.uleb128 0xa
 9068 00bc 00       		.byte	0
 9069 00bd 00       		.byte	0
 9070 00be 11       		.uleb128 0x11
 9071 00bf 13       		.uleb128 0x13
 9072 00c0 01       		.byte	0x1
 9073 00c1 03       		.uleb128 0x3
 9074 00c2 0E       		.uleb128 0xe
ARM GAS  C:\Users\EBANO_~1\AppData\Local\Temp\cchbxRq9.s 			page 179


 9075 00c3 0B       		.uleb128 0xb
 9076 00c4 0B       		.uleb128 0xb
 9077 00c5 3A       		.uleb128 0x3a
 9078 00c6 0B       		.uleb128 0xb
 9079 00c7 3B       		.uleb128 0x3b
 9080 00c8 0B       		.uleb128 0xb
 9081 00c9 01       		.uleb128 0x1
 9082 00ca 13       		.uleb128 0x13
 9083 00cb 00       		.byte	0
 9084 00cc 00       		.byte	0
 9085 00cd 12       		.uleb128 0x12
 9086 00ce 0D       		.uleb128 0xd
 9087 00cf 00       		.byte	0
 9088 00d0 03       		.uleb128 0x3
 9089 00d1 08       		.uleb128 0x8
 9090 00d2 3A       		.uleb128 0x3a
 9091 00d3 0B       		.uleb128 0xb
 9092 00d4 3B       		.uleb128 0x3b
 9093 00d5 0B       		.uleb128 0xb
 9094 00d6 49       		.uleb128 0x49
 9095 00d7 13       		.uleb128 0x13
 9096 00d8 38       		.uleb128 0x38
 9097 00d9 0A       		.uleb128 0xa
 9098 00da 00       		.byte	0
 9099 00db 00       		.byte	0
 9100 00dc 13       		.uleb128 0x13
 9101 00dd 13       		.uleb128 0x13
 9102 00de 01       		.byte	0x1
 9103 00df 03       		.uleb128 0x3
 9104 00e0 0E       		.uleb128 0xe
 9105 00e1 0B       		.uleb128 0xb
 9106 00e2 05       		.uleb128 0x5
 9107 00e3 3A       		.uleb128 0x3a
 9108 00e4 0B       		.uleb128 0xb
 9109 00e5 3B       		.uleb128 0x3b
 9110 00e6 0B       		.uleb128 0xb
 9111 00e7 01       		.uleb128 0x1
 9112 00e8 13       		.uleb128 0x13
 9113 00e9 00       		.byte	0
 9114 00ea 00       		.byte	0
 9115 00eb 14       		.uleb128 0x14
 9116 00ec 15       		.uleb128 0x15
 9117 00ed 00       		.byte	0
 9118 00ee 27       		.uleb128 0x27
 9119 00ef 0C       		.uleb128 0xc
 9120 00f0 00       		.byte	0
 9121 00f1 00       		.byte	0
 9122 00f2 15       		.uleb128 0x15
 9123 00f3 15       		.uleb128 0x15
 9124 00f4 01       		.byte	0x1
 9125 00f5 27       		.uleb128 0x27
 9126 00f6 0C       		.uleb128 0xc
 9127 00f7 49       		.uleb128 0x49
 9128 00f8 13       		.uleb128 0x13
 9129 00f9 01       		.uleb128 0x1
 9130 00fa 13       		.uleb128 0x13
 9131 00fb 00       		.byte	0
ARM GAS  C:\Users\EBANO_~1\AppData\Local\Temp\cchbxRq9.s 			page 180


 9132 00fc 00       		.byte	0
 9133 00fd 16       		.uleb128 0x16
 9134 00fe 05       		.uleb128 0x5
 9135 00ff 00       		.byte	0
 9136 0100 49       		.uleb128 0x49
 9137 0101 13       		.uleb128 0x13
 9138 0102 00       		.byte	0
 9139 0103 00       		.byte	0
 9140 0104 17       		.uleb128 0x17
 9141 0105 13       		.uleb128 0x13
 9142 0106 01       		.byte	0x1
 9143 0107 03       		.uleb128 0x3
 9144 0108 0E       		.uleb128 0xe
 9145 0109 0B       		.uleb128 0xb
 9146 010a 05       		.uleb128 0x5
 9147 010b 3A       		.uleb128 0x3a
 9148 010c 0B       		.uleb128 0xb
 9149 010d 3B       		.uleb128 0x3b
 9150 010e 05       		.uleb128 0x5
 9151 010f 01       		.uleb128 0x1
 9152 0110 13       		.uleb128 0x13
 9153 0111 00       		.byte	0
 9154 0112 00       		.byte	0
 9155 0113 18       		.uleb128 0x18
 9156 0114 0D       		.uleb128 0xd
 9157 0115 00       		.byte	0
 9158 0116 03       		.uleb128 0x3
 9159 0117 0E       		.uleb128 0xe
 9160 0118 3A       		.uleb128 0x3a
 9161 0119 0B       		.uleb128 0xb
 9162 011a 3B       		.uleb128 0x3b
 9163 011b 05       		.uleb128 0x5
 9164 011c 49       		.uleb128 0x49
 9165 011d 13       		.uleb128 0x13
 9166 011e 38       		.uleb128 0x38
 9167 011f 0A       		.uleb128 0xa
 9168 0120 00       		.byte	0
 9169 0121 00       		.byte	0
 9170 0122 19       		.uleb128 0x19
 9171 0123 13       		.uleb128 0x13
 9172 0124 01       		.byte	0x1
 9173 0125 03       		.uleb128 0x3
 9174 0126 0E       		.uleb128 0xe
 9175 0127 0B       		.uleb128 0xb
 9176 0128 0B       		.uleb128 0xb
 9177 0129 3A       		.uleb128 0x3a
 9178 012a 0B       		.uleb128 0xb
 9179 012b 3B       		.uleb128 0x3b
 9180 012c 05       		.uleb128 0x5
 9181 012d 01       		.uleb128 0x1
 9182 012e 13       		.uleb128 0x13
 9183 012f 00       		.byte	0
 9184 0130 00       		.byte	0
 9185 0131 1A       		.uleb128 0x1a
 9186 0132 13       		.uleb128 0x13
 9187 0133 01       		.byte	0x1
 9188 0134 0B       		.uleb128 0xb
ARM GAS  C:\Users\EBANO_~1\AppData\Local\Temp\cchbxRq9.s 			page 181


 9189 0135 0B       		.uleb128 0xb
 9190 0136 3A       		.uleb128 0x3a
 9191 0137 0B       		.uleb128 0xb
 9192 0138 3B       		.uleb128 0x3b
 9193 0139 05       		.uleb128 0x5
 9194 013a 01       		.uleb128 0x1
 9195 013b 13       		.uleb128 0x13
 9196 013c 00       		.byte	0
 9197 013d 00       		.byte	0
 9198 013e 1B       		.uleb128 0x1b
 9199 013f 17       		.uleb128 0x17
 9200 0140 01       		.byte	0x1
 9201 0141 0B       		.uleb128 0xb
 9202 0142 0B       		.uleb128 0xb
 9203 0143 3A       		.uleb128 0x3a
 9204 0144 0B       		.uleb128 0xb
 9205 0145 3B       		.uleb128 0x3b
 9206 0146 05       		.uleb128 0x5
 9207 0147 01       		.uleb128 0x1
 9208 0148 13       		.uleb128 0x13
 9209 0149 00       		.byte	0
 9210 014a 00       		.byte	0
 9211 014b 1C       		.uleb128 0x1c
 9212 014c 0D       		.uleb128 0xd
 9213 014d 00       		.byte	0
 9214 014e 03       		.uleb128 0x3
 9215 014f 0E       		.uleb128 0xe
 9216 0150 3A       		.uleb128 0x3a
 9217 0151 0B       		.uleb128 0xb
 9218 0152 3B       		.uleb128 0x3b
 9219 0153 05       		.uleb128 0x5
 9220 0154 49       		.uleb128 0x49
 9221 0155 13       		.uleb128 0x13
 9222 0156 00       		.byte	0
 9223 0157 00       		.byte	0
 9224 0158 1D       		.uleb128 0x1d
 9225 0159 15       		.uleb128 0x15
 9226 015a 01       		.byte	0x1
 9227 015b 27       		.uleb128 0x27
 9228 015c 0C       		.uleb128 0xc
 9229 015d 01       		.uleb128 0x1
 9230 015e 13       		.uleb128 0x13
 9231 015f 00       		.byte	0
 9232 0160 00       		.byte	0
 9233 0161 1E       		.uleb128 0x1e
 9234 0162 34       		.uleb128 0x34
 9235 0163 00       		.byte	0
 9236 0164 03       		.uleb128 0x3
 9237 0165 0E       		.uleb128 0xe
 9238 0166 3A       		.uleb128 0x3a
 9239 0167 0B       		.uleb128 0xb
 9240 0168 3B       		.uleb128 0x3b
 9241 0169 05       		.uleb128 0x5
 9242 016a 49       		.uleb128 0x49
 9243 016b 13       		.uleb128 0x13
 9244 016c 3F       		.uleb128 0x3f
 9245 016d 0C       		.uleb128 0xc
ARM GAS  C:\Users\EBANO_~1\AppData\Local\Temp\cchbxRq9.s 			page 182


 9246 016e 3C       		.uleb128 0x3c
 9247 016f 0C       		.uleb128 0xc
 9248 0170 00       		.byte	0
 9249 0171 00       		.byte	0
 9250 0172 1F       		.uleb128 0x1f
 9251 0173 17       		.uleb128 0x17
 9252 0174 01       		.byte	0x1
 9253 0175 03       		.uleb128 0x3
 9254 0176 0E       		.uleb128 0xe
 9255 0177 0B       		.uleb128 0xb
 9256 0178 0B       		.uleb128 0xb
 9257 0179 3A       		.uleb128 0x3a
 9258 017a 0B       		.uleb128 0xb
 9259 017b 3B       		.uleb128 0x3b
 9260 017c 0B       		.uleb128 0xb
 9261 017d 01       		.uleb128 0x1
 9262 017e 13       		.uleb128 0x13
 9263 017f 00       		.byte	0
 9264 0180 00       		.byte	0
 9265 0181 20       		.uleb128 0x20
 9266 0182 04       		.uleb128 0x4
 9267 0183 01       		.byte	0x1
 9268 0184 3E       		.uleb128 0x3e
 9269 0185 0B       		.uleb128 0xb
 9270 0186 0B       		.uleb128 0xb
 9271 0187 0B       		.uleb128 0xb
 9272 0188 49       		.uleb128 0x49
 9273 0189 13       		.uleb128 0x13
 9274 018a 3A       		.uleb128 0x3a
 9275 018b 0B       		.uleb128 0xb
 9276 018c 3B       		.uleb128 0x3b
 9277 018d 0B       		.uleb128 0xb
 9278 018e 01       		.uleb128 0x1
 9279 018f 13       		.uleb128 0x13
 9280 0190 00       		.byte	0
 9281 0191 00       		.byte	0
 9282 0192 21       		.uleb128 0x21
 9283 0193 28       		.uleb128 0x28
 9284 0194 00       		.byte	0
 9285 0195 03       		.uleb128 0x3
 9286 0196 0E       		.uleb128 0xe
 9287 0197 1C       		.uleb128 0x1c
 9288 0198 0B       		.uleb128 0xb
 9289 0199 00       		.byte	0
 9290 019a 00       		.byte	0
 9291 019b 22       		.uleb128 0x22
 9292 019c 0D       		.uleb128 0xd
 9293 019d 00       		.byte	0
 9294 019e 03       		.uleb128 0x3
 9295 019f 08       		.uleb128 0x8
 9296 01a0 3A       		.uleb128 0x3a
 9297 01a1 0B       		.uleb128 0xb
 9298 01a2 3B       		.uleb128 0x3b
 9299 01a3 05       		.uleb128 0x5
 9300 01a4 49       		.uleb128 0x49
 9301 01a5 13       		.uleb128 0x13
 9302 01a6 38       		.uleb128 0x38
ARM GAS  C:\Users\EBANO_~1\AppData\Local\Temp\cchbxRq9.s 			page 183


 9303 01a7 0A       		.uleb128 0xa
 9304 01a8 00       		.byte	0
 9305 01a9 00       		.byte	0
 9306 01aa 23       		.uleb128 0x23
 9307 01ab 15       		.uleb128 0x15
 9308 01ac 00       		.byte	0
 9309 01ad 27       		.uleb128 0x27
 9310 01ae 0C       		.uleb128 0xc
 9311 01af 49       		.uleb128 0x49
 9312 01b0 13       		.uleb128 0x13
 9313 01b1 00       		.byte	0
 9314 01b2 00       		.byte	0
 9315 01b3 24       		.uleb128 0x24
 9316 01b4 0D       		.uleb128 0xd
 9317 01b5 00       		.byte	0
 9318 01b6 03       		.uleb128 0x3
 9319 01b7 08       		.uleb128 0x8
 9320 01b8 3A       		.uleb128 0x3a
 9321 01b9 0B       		.uleb128 0xb
 9322 01ba 3B       		.uleb128 0x3b
 9323 01bb 0B       		.uleb128 0xb
 9324 01bc 49       		.uleb128 0x49
 9325 01bd 13       		.uleb128 0x13
 9326 01be 0B       		.uleb128 0xb
 9327 01bf 0B       		.uleb128 0xb
 9328 01c0 0D       		.uleb128 0xd
 9329 01c1 0B       		.uleb128 0xb
 9330 01c2 0C       		.uleb128 0xc
 9331 01c3 0B       		.uleb128 0xb
 9332 01c4 38       		.uleb128 0x38
 9333 01c5 0A       		.uleb128 0xa
 9334 01c6 00       		.byte	0
 9335 01c7 00       		.byte	0
 9336 01c8 25       		.uleb128 0x25
 9337 01c9 04       		.uleb128 0x4
 9338 01ca 01       		.byte	0x1
 9339 01cb 03       		.uleb128 0x3
 9340 01cc 0E       		.uleb128 0xe
 9341 01cd 3E       		.uleb128 0x3e
 9342 01ce 0B       		.uleb128 0xb
 9343 01cf 0B       		.uleb128 0xb
 9344 01d0 0B       		.uleb128 0xb
 9345 01d1 49       		.uleb128 0x49
 9346 01d2 13       		.uleb128 0x13
 9347 01d3 3A       		.uleb128 0x3a
 9348 01d4 0B       		.uleb128 0xb
 9349 01d5 3B       		.uleb128 0x3b
 9350 01d6 0B       		.uleb128 0xb
 9351 01d7 01       		.uleb128 0x1
 9352 01d8 13       		.uleb128 0x13
 9353 01d9 00       		.byte	0
 9354 01da 00       		.byte	0
 9355 01db 26       		.uleb128 0x26
 9356 01dc 04       		.uleb128 0x4
 9357 01dd 01       		.byte	0x1
 9358 01de 03       		.uleb128 0x3
 9359 01df 0E       		.uleb128 0xe
ARM GAS  C:\Users\EBANO_~1\AppData\Local\Temp\cchbxRq9.s 			page 184


 9360 01e0 3E       		.uleb128 0x3e
 9361 01e1 0B       		.uleb128 0xb
 9362 01e2 0B       		.uleb128 0xb
 9363 01e3 0B       		.uleb128 0xb
 9364 01e4 49       		.uleb128 0x49
 9365 01e5 13       		.uleb128 0x13
 9366 01e6 3A       		.uleb128 0x3a
 9367 01e7 0B       		.uleb128 0xb
 9368 01e8 3B       		.uleb128 0x3b
 9369 01e9 05       		.uleb128 0x5
 9370 01ea 01       		.uleb128 0x1
 9371 01eb 13       		.uleb128 0x13
 9372 01ec 00       		.byte	0
 9373 01ed 00       		.byte	0
 9374 01ee 27       		.uleb128 0x27
 9375 01ef 34       		.uleb128 0x34
 9376 01f0 00       		.byte	0
 9377 01f1 03       		.uleb128 0x3
 9378 01f2 0E       		.uleb128 0xe
 9379 01f3 3A       		.uleb128 0x3a
 9380 01f4 0B       		.uleb128 0xb
 9381 01f5 3B       		.uleb128 0x3b
 9382 01f6 05       		.uleb128 0x5
 9383 01f7 49       		.uleb128 0x49
 9384 01f8 13       		.uleb128 0x13
 9385 01f9 1C       		.uleb128 0x1c
 9386 01fa 0A       		.uleb128 0xa
 9387 01fb 00       		.byte	0
 9388 01fc 00       		.byte	0
 9389 01fd 28       		.uleb128 0x28
 9390 01fe 17       		.uleb128 0x17
 9391 01ff 01       		.byte	0x1
 9392 0200 03       		.uleb128 0x3
 9393 0201 0E       		.uleb128 0xe
 9394 0202 0B       		.uleb128 0xb
 9395 0203 0B       		.uleb128 0xb
 9396 0204 3A       		.uleb128 0x3a
 9397 0205 0B       		.uleb128 0xb
 9398 0206 3B       		.uleb128 0x3b
 9399 0207 05       		.uleb128 0x5
 9400 0208 01       		.uleb128 0x1
 9401 0209 13       		.uleb128 0x13
 9402 020a 00       		.byte	0
 9403 020b 00       		.byte	0
 9404 020c 29       		.uleb128 0x29
 9405 020d 34       		.uleb128 0x34
 9406 020e 00       		.byte	0
 9407 020f 03       		.uleb128 0x3
 9408 0210 0E       		.uleb128 0xe
 9409 0211 3A       		.uleb128 0x3a
 9410 0212 0B       		.uleb128 0xb
 9411 0213 3B       		.uleb128 0x3b
 9412 0214 0B       		.uleb128 0xb
 9413 0215 49       		.uleb128 0x49
 9414 0216 13       		.uleb128 0x13
 9415 0217 02       		.uleb128 0x2
 9416 0218 0A       		.uleb128 0xa
ARM GAS  C:\Users\EBANO_~1\AppData\Local\Temp\cchbxRq9.s 			page 185


 9417 0219 00       		.byte	0
 9418 021a 00       		.byte	0
 9419 021b 2A       		.uleb128 0x2a
 9420 021c 34       		.uleb128 0x34
 9421 021d 00       		.byte	0
 9422 021e 03       		.uleb128 0x3
 9423 021f 0E       		.uleb128 0xe
 9424 0220 3A       		.uleb128 0x3a
 9425 0221 0B       		.uleb128 0xb
 9426 0222 3B       		.uleb128 0x3b
 9427 0223 05       		.uleb128 0x5
 9428 0224 49       		.uleb128 0x49
 9429 0225 13       		.uleb128 0x13
 9430 0226 02       		.uleb128 0x2
 9431 0227 0A       		.uleb128 0xa
 9432 0228 00       		.byte	0
 9433 0229 00       		.byte	0
 9434 022a 2B       		.uleb128 0x2b
 9435 022b 34       		.uleb128 0x34
 9436 022c 00       		.byte	0
 9437 022d 03       		.uleb128 0x3
 9438 022e 0E       		.uleb128 0xe
 9439 022f 3A       		.uleb128 0x3a
 9440 0230 0B       		.uleb128 0xb
 9441 0231 3B       		.uleb128 0x3b
 9442 0232 05       		.uleb128 0x5
 9443 0233 49       		.uleb128 0x49
 9444 0234 13       		.uleb128 0x13
 9445 0235 00       		.byte	0
 9446 0236 00       		.byte	0
 9447 0237 2C       		.uleb128 0x2c
 9448 0238 2E       		.uleb128 0x2e
 9449 0239 01       		.byte	0x1
 9450 023a 3F       		.uleb128 0x3f
 9451 023b 0C       		.uleb128 0xc
 9452 023c 03       		.uleb128 0x3
 9453 023d 0E       		.uleb128 0xe
 9454 023e 3A       		.uleb128 0x3a
 9455 023f 0B       		.uleb128 0xb
 9456 0240 3B       		.uleb128 0x3b
 9457 0241 05       		.uleb128 0x5
 9458 0242 27       		.uleb128 0x27
 9459 0243 0C       		.uleb128 0xc
 9460 0244 11       		.uleb128 0x11
 9461 0245 01       		.uleb128 0x1
 9462 0246 12       		.uleb128 0x12
 9463 0247 01       		.uleb128 0x1
 9464 0248 40       		.uleb128 0x40
 9465 0249 06       		.uleb128 0x6
 9466 024a 9742     		.uleb128 0x2117
 9467 024c 0C       		.uleb128 0xc
 9468 024d 01       		.uleb128 0x1
 9469 024e 13       		.uleb128 0x13
 9470 024f 00       		.byte	0
 9471 0250 00       		.byte	0
 9472 0251 2D       		.uleb128 0x2d
 9473 0252 05       		.uleb128 0x5
ARM GAS  C:\Users\EBANO_~1\AppData\Local\Temp\cchbxRq9.s 			page 186


 9474 0253 00       		.byte	0
 9475 0254 03       		.uleb128 0x3
 9476 0255 0E       		.uleb128 0xe
 9477 0256 3A       		.uleb128 0x3a
 9478 0257 0B       		.uleb128 0xb
 9479 0258 3B       		.uleb128 0x3b
 9480 0259 05       		.uleb128 0x5
 9481 025a 49       		.uleb128 0x49
 9482 025b 13       		.uleb128 0x13
 9483 025c 02       		.uleb128 0x2
 9484 025d 06       		.uleb128 0x6
 9485 025e 00       		.byte	0
 9486 025f 00       		.byte	0
 9487 0260 2E       		.uleb128 0x2e
 9488 0261 898201   		.uleb128 0x4109
 9489 0264 01       		.byte	0x1
 9490 0265 11       		.uleb128 0x11
 9491 0266 01       		.uleb128 0x1
 9492 0267 31       		.uleb128 0x31
 9493 0268 13       		.uleb128 0x13
 9494 0269 00       		.byte	0
 9495 026a 00       		.byte	0
 9496 026b 2F       		.uleb128 0x2f
 9497 026c 8A8201   		.uleb128 0x410a
 9498 026f 00       		.byte	0
 9499 0270 02       		.uleb128 0x2
 9500 0271 0A       		.uleb128 0xa
 9501 0272 9142     		.uleb128 0x2111
 9502 0274 0A       		.uleb128 0xa
 9503 0275 00       		.byte	0
 9504 0276 00       		.byte	0
 9505 0277 30       		.uleb128 0x30
 9506 0278 2E       		.uleb128 0x2e
 9507 0279 01       		.byte	0x1
 9508 027a 3F       		.uleb128 0x3f
 9509 027b 0C       		.uleb128 0xc
 9510 027c 03       		.uleb128 0x3
 9511 027d 0E       		.uleb128 0xe
 9512 027e 3A       		.uleb128 0x3a
 9513 027f 0B       		.uleb128 0xb
 9514 0280 3B       		.uleb128 0x3b
 9515 0281 05       		.uleb128 0x5
 9516 0282 27       		.uleb128 0x27
 9517 0283 0C       		.uleb128 0xc
 9518 0284 49       		.uleb128 0x49
 9519 0285 13       		.uleb128 0x13
 9520 0286 11       		.uleb128 0x11
 9521 0287 01       		.uleb128 0x1
 9522 0288 12       		.uleb128 0x12
 9523 0289 01       		.uleb128 0x1
 9524 028a 40       		.uleb128 0x40
 9525 028b 0A       		.uleb128 0xa
 9526 028c 9742     		.uleb128 0x2117
 9527 028e 0C       		.uleb128 0xc
 9528 028f 01       		.uleb128 0x1
 9529 0290 13       		.uleb128 0x13
 9530 0291 00       		.byte	0
ARM GAS  C:\Users\EBANO_~1\AppData\Local\Temp\cchbxRq9.s 			page 187


 9531 0292 00       		.byte	0
 9532 0293 31       		.uleb128 0x31
 9533 0294 05       		.uleb128 0x5
 9534 0295 00       		.byte	0
 9535 0296 03       		.uleb128 0x3
 9536 0297 08       		.uleb128 0x8
 9537 0298 3A       		.uleb128 0x3a
 9538 0299 0B       		.uleb128 0xb
 9539 029a 3B       		.uleb128 0x3b
 9540 029b 05       		.uleb128 0x5
 9541 029c 49       		.uleb128 0x49
 9542 029d 13       		.uleb128 0x13
 9543 029e 02       		.uleb128 0x2
 9544 029f 06       		.uleb128 0x6
 9545 02a0 00       		.byte	0
 9546 02a1 00       		.byte	0
 9547 02a2 32       		.uleb128 0x32
 9548 02a3 05       		.uleb128 0x5
 9549 02a4 00       		.byte	0
 9550 02a5 03       		.uleb128 0x3
 9551 02a6 0E       		.uleb128 0xe
 9552 02a7 3A       		.uleb128 0x3a
 9553 02a8 0B       		.uleb128 0xb
 9554 02a9 3B       		.uleb128 0x3b
 9555 02aa 05       		.uleb128 0x5
 9556 02ab 49       		.uleb128 0x49
 9557 02ac 13       		.uleb128 0x13
 9558 02ad 02       		.uleb128 0x2
 9559 02ae 0A       		.uleb128 0xa
 9560 02af 00       		.byte	0
 9561 02b0 00       		.byte	0
 9562 02b1 33       		.uleb128 0x33
 9563 02b2 34       		.uleb128 0x34
 9564 02b3 00       		.byte	0
 9565 02b4 03       		.uleb128 0x3
 9566 02b5 0E       		.uleb128 0xe
 9567 02b6 3A       		.uleb128 0x3a
 9568 02b7 0B       		.uleb128 0xb
 9569 02b8 3B       		.uleb128 0x3b
 9570 02b9 05       		.uleb128 0x5
 9571 02ba 49       		.uleb128 0x49
 9572 02bb 13       		.uleb128 0x13
 9573 02bc 02       		.uleb128 0x2
 9574 02bd 06       		.uleb128 0x6
 9575 02be 00       		.byte	0
 9576 02bf 00       		.byte	0
 9577 02c0 34       		.uleb128 0x34
 9578 02c1 1D       		.uleb128 0x1d
 9579 02c2 01       		.byte	0x1
 9580 02c3 31       		.uleb128 0x31
 9581 02c4 13       		.uleb128 0x13
 9582 02c5 52       		.uleb128 0x52
 9583 02c6 01       		.uleb128 0x1
 9584 02c7 55       		.uleb128 0x55
 9585 02c8 06       		.uleb128 0x6
 9586 02c9 58       		.uleb128 0x58
 9587 02ca 0B       		.uleb128 0xb
ARM GAS  C:\Users\EBANO_~1\AppData\Local\Temp\cchbxRq9.s 			page 188


 9588 02cb 59       		.uleb128 0x59
 9589 02cc 05       		.uleb128 0x5
 9590 02cd 01       		.uleb128 0x1
 9591 02ce 13       		.uleb128 0x13
 9592 02cf 00       		.byte	0
 9593 02d0 00       		.byte	0
 9594 02d1 35       		.uleb128 0x35
 9595 02d2 05       		.uleb128 0x5
 9596 02d3 00       		.byte	0
 9597 02d4 31       		.uleb128 0x31
 9598 02d5 13       		.uleb128 0x13
 9599 02d6 02       		.uleb128 0x2
 9600 02d7 06       		.uleb128 0x6
 9601 02d8 00       		.byte	0
 9602 02d9 00       		.byte	0
 9603 02da 36       		.uleb128 0x36
 9604 02db 05       		.uleb128 0x5
 9605 02dc 00       		.byte	0
 9606 02dd 31       		.uleb128 0x31
 9607 02de 13       		.uleb128 0x13
 9608 02df 02       		.uleb128 0x2
 9609 02e0 0A       		.uleb128 0xa
 9610 02e1 00       		.byte	0
 9611 02e2 00       		.byte	0
 9612 02e3 37       		.uleb128 0x37
 9613 02e4 05       		.uleb128 0x5
 9614 02e5 00       		.byte	0
 9615 02e6 31       		.uleb128 0x31
 9616 02e7 13       		.uleb128 0x13
 9617 02e8 00       		.byte	0
 9618 02e9 00       		.byte	0
 9619 02ea 38       		.uleb128 0x38
 9620 02eb 0B       		.uleb128 0xb
 9621 02ec 01       		.byte	0x1
 9622 02ed 55       		.uleb128 0x55
 9623 02ee 06       		.uleb128 0x6
 9624 02ef 00       		.byte	0
 9625 02f0 00       		.byte	0
 9626 02f1 39       		.uleb128 0x39
 9627 02f2 34       		.uleb128 0x34
 9628 02f3 00       		.byte	0
 9629 02f4 31       		.uleb128 0x31
 9630 02f5 13       		.uleb128 0x13
 9631 02f6 00       		.byte	0
 9632 02f7 00       		.byte	0
 9633 02f8 3A       		.uleb128 0x3a
 9634 02f9 898201   		.uleb128 0x4109
 9635 02fc 00       		.byte	0
 9636 02fd 11       		.uleb128 0x11
 9637 02fe 01       		.uleb128 0x1
 9638 02ff 31       		.uleb128 0x31
 9639 0300 13       		.uleb128 0x13
 9640 0301 00       		.byte	0
 9641 0302 00       		.byte	0
 9642 0303 3B       		.uleb128 0x3b
 9643 0304 898201   		.uleb128 0x4109
 9644 0307 01       		.byte	0x1
ARM GAS  C:\Users\EBANO_~1\AppData\Local\Temp\cchbxRq9.s 			page 189


 9645 0308 11       		.uleb128 0x11
 9646 0309 01       		.uleb128 0x1
 9647 030a 00       		.byte	0
 9648 030b 00       		.byte	0
 9649 030c 3C       		.uleb128 0x3c
 9650 030d 2E       		.uleb128 0x2e
 9651 030e 01       		.byte	0x1
 9652 030f 3F       		.uleb128 0x3f
 9653 0310 0C       		.uleb128 0xc
 9654 0311 03       		.uleb128 0x3
 9655 0312 0E       		.uleb128 0xe
 9656 0313 3A       		.uleb128 0x3a
 9657 0314 0B       		.uleb128 0xb
 9658 0315 3B       		.uleb128 0x3b
 9659 0316 05       		.uleb128 0x5
 9660 0317 27       		.uleb128 0x27
 9661 0318 0C       		.uleb128 0xc
 9662 0319 49       		.uleb128 0x49
 9663 031a 13       		.uleb128 0x13
 9664 031b 11       		.uleb128 0x11
 9665 031c 01       		.uleb128 0x1
 9666 031d 12       		.uleb128 0x12
 9667 031e 01       		.uleb128 0x1
 9668 031f 40       		.uleb128 0x40
 9669 0320 06       		.uleb128 0x6
 9670 0321 9742     		.uleb128 0x2117
 9671 0323 0C       		.uleb128 0xc
 9672 0324 01       		.uleb128 0x1
 9673 0325 13       		.uleb128 0x13
 9674 0326 00       		.byte	0
 9675 0327 00       		.byte	0
 9676 0328 3D       		.uleb128 0x3d
 9677 0329 34       		.uleb128 0x34
 9678 032a 00       		.byte	0
 9679 032b 31       		.uleb128 0x31
 9680 032c 13       		.uleb128 0x13
 9681 032d 02       		.uleb128 0x2
 9682 032e 06       		.uleb128 0x6
 9683 032f 00       		.byte	0
 9684 0330 00       		.byte	0
 9685 0331 3E       		.uleb128 0x3e
 9686 0332 0B       		.uleb128 0xb
 9687 0333 01       		.byte	0x1
 9688 0334 31       		.uleb128 0x31
 9689 0335 13       		.uleb128 0x13
 9690 0336 55       		.uleb128 0x55
 9691 0337 06       		.uleb128 0x6
 9692 0338 00       		.byte	0
 9693 0339 00       		.byte	0
 9694 033a 3F       		.uleb128 0x3f
 9695 033b 898201   		.uleb128 0x4109
 9696 033e 01       		.byte	0x1
 9697 033f 11       		.uleb128 0x11
 9698 0340 01       		.uleb128 0x1
 9699 0341 31       		.uleb128 0x31
 9700 0342 13       		.uleb128 0x13
 9701 0343 01       		.uleb128 0x1
ARM GAS  C:\Users\EBANO_~1\AppData\Local\Temp\cchbxRq9.s 			page 190


 9702 0344 13       		.uleb128 0x13
 9703 0345 00       		.byte	0
 9704 0346 00       		.byte	0
 9705 0347 40       		.uleb128 0x40
 9706 0348 2E       		.uleb128 0x2e
 9707 0349 01       		.byte	0x1
 9708 034a 3F       		.uleb128 0x3f
 9709 034b 0C       		.uleb128 0xc
 9710 034c 03       		.uleb128 0x3
 9711 034d 0E       		.uleb128 0xe
 9712 034e 3A       		.uleb128 0x3a
 9713 034f 0B       		.uleb128 0xb
 9714 0350 3B       		.uleb128 0x3b
 9715 0351 05       		.uleb128 0x5
 9716 0352 27       		.uleb128 0x27
 9717 0353 0C       		.uleb128 0xc
 9718 0354 49       		.uleb128 0x49
 9719 0355 13       		.uleb128 0x13
 9720 0356 01       		.uleb128 0x1
 9721 0357 13       		.uleb128 0x13
 9722 0358 00       		.byte	0
 9723 0359 00       		.byte	0
 9724 035a 41       		.uleb128 0x41
 9725 035b 05       		.uleb128 0x5
 9726 035c 00       		.byte	0
 9727 035d 03       		.uleb128 0x3
 9728 035e 0E       		.uleb128 0xe
 9729 035f 3A       		.uleb128 0x3a
 9730 0360 0B       		.uleb128 0xb
 9731 0361 3B       		.uleb128 0x3b
 9732 0362 05       		.uleb128 0x5
 9733 0363 49       		.uleb128 0x49
 9734 0364 13       		.uleb128 0x13
 9735 0365 00       		.byte	0
 9736 0366 00       		.byte	0
 9737 0367 42       		.uleb128 0x42
 9738 0368 2E       		.uleb128 0x2e
 9739 0369 01       		.byte	0x1
 9740 036a 3F       		.uleb128 0x3f
 9741 036b 0C       		.uleb128 0xc
 9742 036c 03       		.uleb128 0x3
 9743 036d 0E       		.uleb128 0xe
 9744 036e 3A       		.uleb128 0x3a
 9745 036f 0B       		.uleb128 0xb
 9746 0370 3B       		.uleb128 0x3b
 9747 0371 05       		.uleb128 0x5
 9748 0372 27       		.uleb128 0x27
 9749 0373 0C       		.uleb128 0xc
 9750 0374 49       		.uleb128 0x49
 9751 0375 13       		.uleb128 0x13
 9752 0376 20       		.uleb128 0x20
 9753 0377 0B       		.uleb128 0xb
 9754 0378 01       		.uleb128 0x1
 9755 0379 13       		.uleb128 0x13
 9756 037a 00       		.byte	0
 9757 037b 00       		.byte	0
 9758 037c 43       		.uleb128 0x43
ARM GAS  C:\Users\EBANO_~1\AppData\Local\Temp\cchbxRq9.s 			page 191


 9759 037d 2E       		.uleb128 0x2e
 9760 037e 01       		.byte	0x1
 9761 037f 3F       		.uleb128 0x3f
 9762 0380 0C       		.uleb128 0xc
 9763 0381 03       		.uleb128 0x3
 9764 0382 0E       		.uleb128 0xe
 9765 0383 3A       		.uleb128 0x3a
 9766 0384 0B       		.uleb128 0xb
 9767 0385 3B       		.uleb128 0x3b
 9768 0386 05       		.uleb128 0x5
 9769 0387 27       		.uleb128 0x27
 9770 0388 0C       		.uleb128 0xc
 9771 0389 49       		.uleb128 0x49
 9772 038a 13       		.uleb128 0x13
 9773 038b 11       		.uleb128 0x11
 9774 038c 01       		.uleb128 0x1
 9775 038d 12       		.uleb128 0x12
 9776 038e 01       		.uleb128 0x1
 9777 038f 40       		.uleb128 0x40
 9778 0390 06       		.uleb128 0x6
 9779 0391 9642     		.uleb128 0x2116
 9780 0393 0C       		.uleb128 0xc
 9781 0394 01       		.uleb128 0x1
 9782 0395 13       		.uleb128 0x13
 9783 0396 00       		.byte	0
 9784 0397 00       		.byte	0
 9785 0398 44       		.uleb128 0x44
 9786 0399 0B       		.uleb128 0xb
 9787 039a 01       		.byte	0x1
 9788 039b 55       		.uleb128 0x55
 9789 039c 06       		.uleb128 0x6
 9790 039d 01       		.uleb128 0x1
 9791 039e 13       		.uleb128 0x13
 9792 039f 00       		.byte	0
 9793 03a0 00       		.byte	0
 9794 03a1 45       		.uleb128 0x45
 9795 03a2 34       		.uleb128 0x34
 9796 03a3 00       		.byte	0
 9797 03a4 03       		.uleb128 0x3
 9798 03a5 08       		.uleb128 0x8
 9799 03a6 3A       		.uleb128 0x3a
 9800 03a7 0B       		.uleb128 0xb
 9801 03a8 3B       		.uleb128 0x3b
 9802 03a9 05       		.uleb128 0x5
 9803 03aa 49       		.uleb128 0x49
 9804 03ab 13       		.uleb128 0x13
 9805 03ac 02       		.uleb128 0x2
 9806 03ad 06       		.uleb128 0x6
 9807 03ae 00       		.byte	0
 9808 03af 00       		.byte	0
 9809 03b0 46       		.uleb128 0x46
 9810 03b1 898201   		.uleb128 0x4109
 9811 03b4 00       		.byte	0
 9812 03b5 11       		.uleb128 0x11
 9813 03b6 01       		.uleb128 0x1
 9814 03b7 9342     		.uleb128 0x2113
 9815 03b9 0A       		.uleb128 0xa
ARM GAS  C:\Users\EBANO_~1\AppData\Local\Temp\cchbxRq9.s 			page 192


 9816 03ba 00       		.byte	0
 9817 03bb 00       		.byte	0
 9818 03bc 47       		.uleb128 0x47
 9819 03bd 898201   		.uleb128 0x4109
 9820 03c0 01       		.byte	0x1
 9821 03c1 11       		.uleb128 0x11
 9822 03c2 01       		.uleb128 0x1
 9823 03c3 9342     		.uleb128 0x2113
 9824 03c5 0A       		.uleb128 0xa
 9825 03c6 01       		.uleb128 0x1
 9826 03c7 13       		.uleb128 0x13
 9827 03c8 00       		.byte	0
 9828 03c9 00       		.byte	0
 9829 03ca 48       		.uleb128 0x48
 9830 03cb 898201   		.uleb128 0x4109
 9831 03ce 01       		.byte	0x1
 9832 03cf 11       		.uleb128 0x11
 9833 03d0 01       		.uleb128 0x1
 9834 03d1 9342     		.uleb128 0x2113
 9835 03d3 0A       		.uleb128 0xa
 9836 03d4 00       		.byte	0
 9837 03d5 00       		.byte	0
 9838 03d6 49       		.uleb128 0x49
 9839 03d7 898201   		.uleb128 0x4109
 9840 03da 00       		.byte	0
 9841 03db 11       		.uleb128 0x11
 9842 03dc 01       		.uleb128 0x1
 9843 03dd 00       		.byte	0
 9844 03de 00       		.byte	0
 9845 03df 4A       		.uleb128 0x4a
 9846 03e0 0B       		.uleb128 0xb
 9847 03e1 01       		.byte	0x1
 9848 03e2 11       		.uleb128 0x11
 9849 03e3 01       		.uleb128 0x1
 9850 03e4 12       		.uleb128 0x12
 9851 03e5 01       		.uleb128 0x1
 9852 03e6 00       		.byte	0
 9853 03e7 00       		.byte	0
 9854 03e8 4B       		.uleb128 0x4b
 9855 03e9 2E       		.uleb128 0x2e
 9856 03ea 01       		.byte	0x1
 9857 03eb 3F       		.uleb128 0x3f
 9858 03ec 0C       		.uleb128 0xc
 9859 03ed 03       		.uleb128 0x3
 9860 03ee 0E       		.uleb128 0xe
 9861 03ef 3A       		.uleb128 0x3a
 9862 03f0 0B       		.uleb128 0xb
 9863 03f1 3B       		.uleb128 0x3b
 9864 03f2 0B       		.uleb128 0xb
 9865 03f3 27       		.uleb128 0x27
 9866 03f4 0C       		.uleb128 0xc
 9867 03f5 49       		.uleb128 0x49
 9868 03f6 13       		.uleb128 0x13
 9869 03f7 20       		.uleb128 0x20
 9870 03f8 0B       		.uleb128 0xb
 9871 03f9 01       		.uleb128 0x1
 9872 03fa 13       		.uleb128 0x13
ARM GAS  C:\Users\EBANO_~1\AppData\Local\Temp\cchbxRq9.s 			page 193


 9873 03fb 00       		.byte	0
 9874 03fc 00       		.byte	0
 9875 03fd 4C       		.uleb128 0x4c
 9876 03fe 05       		.uleb128 0x5
 9877 03ff 00       		.byte	0
 9878 0400 03       		.uleb128 0x3
 9879 0401 0E       		.uleb128 0xe
 9880 0402 3A       		.uleb128 0x3a
 9881 0403 0B       		.uleb128 0xb
 9882 0404 3B       		.uleb128 0x3b
 9883 0405 0B       		.uleb128 0xb
 9884 0406 49       		.uleb128 0x49
 9885 0407 13       		.uleb128 0x13
 9886 0408 00       		.byte	0
 9887 0409 00       		.byte	0
 9888 040a 4D       		.uleb128 0x4d
 9889 040b 34       		.uleb128 0x34
 9890 040c 00       		.byte	0
 9891 040d 03       		.uleb128 0x3
 9892 040e 0E       		.uleb128 0xe
 9893 040f 3A       		.uleb128 0x3a
 9894 0410 0B       		.uleb128 0xb
 9895 0411 3B       		.uleb128 0x3b
 9896 0412 0B       		.uleb128 0xb
 9897 0413 49       		.uleb128 0x49
 9898 0414 13       		.uleb128 0x13
 9899 0415 00       		.byte	0
 9900 0416 00       		.byte	0
 9901 0417 4E       		.uleb128 0x4e
 9902 0418 2E       		.uleb128 0x2e
 9903 0419 01       		.byte	0x1
 9904 041a 03       		.uleb128 0x3
 9905 041b 0E       		.uleb128 0xe
 9906 041c 3A       		.uleb128 0x3a
 9907 041d 0B       		.uleb128 0xb
 9908 041e 3B       		.uleb128 0x3b
 9909 041f 0B       		.uleb128 0xb
 9910 0420 27       		.uleb128 0x27
 9911 0421 0C       		.uleb128 0xc
 9912 0422 49       		.uleb128 0x49
 9913 0423 13       		.uleb128 0x13
 9914 0424 20       		.uleb128 0x20
 9915 0425 0B       		.uleb128 0xb
 9916 0426 01       		.uleb128 0x1
 9917 0427 13       		.uleb128 0x13
 9918 0428 00       		.byte	0
 9919 0429 00       		.byte	0
 9920 042a 4F       		.uleb128 0x4f
 9921 042b 0B       		.uleb128 0xb
 9922 042c 01       		.byte	0x1
 9923 042d 00       		.byte	0
 9924 042e 00       		.byte	0
 9925 042f 50       		.uleb128 0x50
 9926 0430 34       		.uleb128 0x34
 9927 0431 00       		.byte	0
 9928 0432 03       		.uleb128 0x3
 9929 0433 08       		.uleb128 0x8
ARM GAS  C:\Users\EBANO_~1\AppData\Local\Temp\cchbxRq9.s 			page 194


 9930 0434 3A       		.uleb128 0x3a
 9931 0435 0B       		.uleb128 0xb
 9932 0436 3B       		.uleb128 0x3b
 9933 0437 0B       		.uleb128 0xb
 9934 0438 49       		.uleb128 0x49
 9935 0439 13       		.uleb128 0x13
 9936 043a 00       		.byte	0
 9937 043b 00       		.byte	0
 9938 043c 51       		.uleb128 0x51
 9939 043d 05       		.uleb128 0x5
 9940 043e 00       		.byte	0
 9941 043f 03       		.uleb128 0x3
 9942 0440 08       		.uleb128 0x8
 9943 0441 3A       		.uleb128 0x3a
 9944 0442 0B       		.uleb128 0xb
 9945 0443 3B       		.uleb128 0x3b
 9946 0444 0B       		.uleb128 0xb
 9947 0445 49       		.uleb128 0x49
 9948 0446 13       		.uleb128 0x13
 9949 0447 00       		.byte	0
 9950 0448 00       		.byte	0
 9951 0449 52       		.uleb128 0x52
 9952 044a 2E       		.uleb128 0x2e
 9953 044b 01       		.byte	0x1
 9954 044c 31       		.uleb128 0x31
 9955 044d 13       		.uleb128 0x13
 9956 044e 11       		.uleb128 0x11
 9957 044f 01       		.uleb128 0x1
 9958 0450 12       		.uleb128 0x12
 9959 0451 01       		.uleb128 0x1
 9960 0452 40       		.uleb128 0x40
 9961 0453 06       		.uleb128 0x6
 9962 0454 9742     		.uleb128 0x2117
 9963 0456 0C       		.uleb128 0xc
 9964 0457 01       		.uleb128 0x1
 9965 0458 13       		.uleb128 0x13
 9966 0459 00       		.byte	0
 9967 045a 00       		.byte	0
 9968 045b 53       		.uleb128 0x53
 9969 045c 34       		.uleb128 0x34
 9970 045d 00       		.byte	0
 9971 045e 31       		.uleb128 0x31
 9972 045f 13       		.uleb128 0x13
 9973 0460 02       		.uleb128 0x2
 9974 0461 0A       		.uleb128 0xa
 9975 0462 00       		.byte	0
 9976 0463 00       		.byte	0
 9977 0464 54       		.uleb128 0x54
 9978 0465 1D       		.uleb128 0x1d
 9979 0466 01       		.byte	0x1
 9980 0467 31       		.uleb128 0x31
 9981 0468 13       		.uleb128 0x13
 9982 0469 11       		.uleb128 0x11
 9983 046a 01       		.uleb128 0x1
 9984 046b 12       		.uleb128 0x12
 9985 046c 01       		.uleb128 0x1
 9986 046d 58       		.uleb128 0x58
ARM GAS  C:\Users\EBANO_~1\AppData\Local\Temp\cchbxRq9.s 			page 195


 9987 046e 0B       		.uleb128 0xb
 9988 046f 59       		.uleb128 0x59
 9989 0470 0B       		.uleb128 0xb
 9990 0471 01       		.uleb128 0x1
 9991 0472 13       		.uleb128 0x13
 9992 0473 00       		.byte	0
 9993 0474 00       		.byte	0
 9994 0475 55       		.uleb128 0x55
 9995 0476 2E       		.uleb128 0x2e
 9996 0477 01       		.byte	0x1
 9997 0478 31       		.uleb128 0x31
 9998 0479 13       		.uleb128 0x13
 9999 047a 11       		.uleb128 0x11
 10000 047b 01       		.uleb128 0x1
 10001 047c 12       		.uleb128 0x12
 10002 047d 01       		.uleb128 0x1
 10003 047e 40       		.uleb128 0x40
 10004 047f 0A       		.uleb128 0xa
 10005 0480 9742     		.uleb128 0x2117
 10006 0482 0C       		.uleb128 0xc
 10007 0483 01       		.uleb128 0x1
 10008 0484 13       		.uleb128 0x13
 10009 0485 00       		.byte	0
 10010 0486 00       		.byte	0
 10011 0487 56       		.uleb128 0x56
 10012 0488 2E       		.uleb128 0x2e
 10013 0489 00       		.byte	0
 10014 048a 3F       		.uleb128 0x3f
 10015 048b 0C       		.uleb128 0xc
 10016 048c 3C       		.uleb128 0x3c
 10017 048d 0C       		.uleb128 0xc
 10018 048e 8740     		.uleb128 0x2007
 10019 0490 0E       		.uleb128 0xe
 10020 0491 03       		.uleb128 0x3
 10021 0492 0E       		.uleb128 0xe
 10022 0493 3A       		.uleb128 0x3a
 10023 0494 0B       		.uleb128 0xb
 10024 0495 3B       		.uleb128 0x3b
 10025 0496 05       		.uleb128 0x5
 10026 0497 00       		.byte	0
 10027 0498 00       		.byte	0
 10028 0499 57       		.uleb128 0x57
 10029 049a 2E       		.uleb128 0x2e
 10030 049b 00       		.byte	0
 10031 049c 3F       		.uleb128 0x3f
 10032 049d 0C       		.uleb128 0xc
 10033 049e 3C       		.uleb128 0x3c
 10034 049f 0C       		.uleb128 0xc
 10035 04a0 8740     		.uleb128 0x2007
 10036 04a2 0E       		.uleb128 0xe
 10037 04a3 03       		.uleb128 0x3
 10038 04a4 0E       		.uleb128 0xe
 10039 04a5 3A       		.uleb128 0x3a
 10040 04a6 0B       		.uleb128 0xb
 10041 04a7 3B       		.uleb128 0x3b
 10042 04a8 0B       		.uleb128 0xb
 10043 04a9 00       		.byte	0
ARM GAS  C:\Users\EBANO_~1\AppData\Local\Temp\cchbxRq9.s 			page 196


 10044 04aa 00       		.byte	0
 10045 04ab 58       		.uleb128 0x58
 10046 04ac 2E       		.uleb128 0x2e
 10047 04ad 00       		.byte	0
 10048 04ae 3F       		.uleb128 0x3f
 10049 04af 0C       		.uleb128 0xc
 10050 04b0 3C       		.uleb128 0x3c
 10051 04b1 0C       		.uleb128 0xc
 10052 04b2 8740     		.uleb128 0x2007
 10053 04b4 0E       		.uleb128 0xe
 10054 04b5 03       		.uleb128 0x3
 10055 04b6 0E       		.uleb128 0xe
 10056 04b7 3A       		.uleb128 0x3a
 10057 04b8 0B       		.uleb128 0xb
 10058 04b9 3B       		.uleb128 0x3b
 10059 04ba 0B       		.uleb128 0xb
 10060 04bb 8740     		.uleb128 0x2007
 10061 04bd 0E       		.uleb128 0xe
 10062 04be 00       		.byte	0
 10063 04bf 00       		.byte	0
 10064 04c0 00       		.byte	0
 10065              		.section	.debug_loc,"",%progbits
 10066              	.Ldebug_loc0:
 10067              	.LLST88:
 10068 0000 00000000 		.4byte	.LFB66
 10069 0004 02000000 		.4byte	.LCFI29
 10070 0008 0200     		.2byte	0x2
 10071 000a 7D       		.byte	0x7d
 10072 000b 00       		.sleb128 0
 10073 000c 02000000 		.4byte	.LCFI29
 10074 0010 06000000 		.4byte	.LCFI30
 10075 0014 0200     		.2byte	0x2
 10076 0016 7D       		.byte	0x7d
 10077 0017 08       		.sleb128 8
 10078 0018 06000000 		.4byte	.LCFI30
 10079 001c 38000000 		.4byte	.LFE66
 10080 0020 0200     		.2byte	0x2
 10081 0022 7D       		.byte	0x7d
 10082 0023 20       		.sleb128 32
 10083 0024 00000000 		.4byte	0
 10084 0028 00000000 		.4byte	0
 10085              	.LLST89:
 10086 002c 00000000 		.4byte	.LVL250
 10087 0030 22000000 		.4byte	.LVL251
 10088 0034 0100     		.2byte	0x1
 10089 0036 50       		.byte	0x50
 10090 0037 22000000 		.4byte	.LVL251
 10091 003b 38000000 		.4byte	.LFE66
 10092 003f 0400     		.2byte	0x4
 10093 0041 F3       		.byte	0xf3
 10094 0042 01       		.uleb128 0x1
 10095 0043 50       		.byte	0x50
 10096 0044 9F       		.byte	0x9f
 10097 0045 00000000 		.4byte	0
 10098 0049 00000000 		.4byte	0
 10099              	.LLST90:
 10100 004d 00000000 		.4byte	.LVL250
ARM GAS  C:\Users\EBANO_~1\AppData\Local\Temp\cchbxRq9.s 			page 197


 10101 0051 27000000 		.4byte	.LVL252-1
 10102 0055 0100     		.2byte	0x1
 10103 0057 51       		.byte	0x51
 10104 0058 27000000 		.4byte	.LVL252-1
 10105 005c 2E000000 		.4byte	.LVL253
 10106 0060 0100     		.2byte	0x1
 10107 0062 54       		.byte	0x54
 10108 0063 2E000000 		.4byte	.LVL253
 10109 0067 38000000 		.4byte	.LFE66
 10110 006b 0400     		.2byte	0x4
 10111 006d F3       		.byte	0xf3
 10112 006e 01       		.uleb128 0x1
 10113 006f 51       		.byte	0x51
 10114 0070 9F       		.byte	0x9f
 10115 0071 00000000 		.4byte	0
 10116 0075 00000000 		.4byte	0
 10117              	.LLST86:
 10118 0079 00000000 		.4byte	.LVL246
 10119 007d 06000000 		.4byte	.LVL249
 10120 0081 0100     		.2byte	0x1
 10121 0083 50       		.byte	0x50
 10122 0084 06000000 		.4byte	.LVL249
 10123 0088 0E000000 		.4byte	.LFE65
 10124 008c 0400     		.2byte	0x4
 10125 008e F3       		.byte	0xf3
 10126 008f 01       		.uleb128 0x1
 10127 0090 50       		.byte	0x50
 10128 0091 9F       		.byte	0x9f
 10129 0092 00000000 		.4byte	0
 10130 0096 00000000 		.4byte	0
 10131              	.LLST87:
 10132 009a 00000000 		.4byte	.LVL246
 10133 009e 02000000 		.4byte	.LVL247
 10134 00a2 0100     		.2byte	0x1
 10135 00a4 51       		.byte	0x51
 10136 00a5 02000000 		.4byte	.LVL247
 10137 00a9 0E000000 		.4byte	.LFE65
 10138 00ad 0400     		.2byte	0x4
 10139 00af F3       		.byte	0xf3
 10140 00b0 01       		.uleb128 0x1
 10141 00b1 51       		.byte	0x51
 10142 00b2 9F       		.byte	0x9f
 10143 00b3 00000000 		.4byte	0
 10144 00b7 00000000 		.4byte	0
 10145              	.LLST81:
 10146 00bb 00000000 		.4byte	.LFB64
 10147 00bf 02000000 		.4byte	.LCFI27
 10148 00c3 0200     		.2byte	0x2
 10149 00c5 7D       		.byte	0x7d
 10150 00c6 00       		.sleb128 0
 10151 00c7 02000000 		.4byte	.LCFI27
 10152 00cb 26000000 		.4byte	.LCFI28
 10153 00cf 0200     		.2byte	0x2
 10154 00d1 7D       		.byte	0x7d
 10155 00d2 14       		.sleb128 20
 10156 00d3 26000000 		.4byte	.LCFI28
 10157 00d7 50000000 		.4byte	.LFE64
ARM GAS  C:\Users\EBANO_~1\AppData\Local\Temp\cchbxRq9.s 			page 198


 10158 00db 0200     		.2byte	0x2
 10159 00dd 7D       		.byte	0x7d
 10160 00de 20       		.sleb128 32
 10161 00df 00000000 		.4byte	0
 10162 00e3 00000000 		.4byte	0
 10163              	.LLST82:
 10164 00e7 00000000 		.4byte	.LVL237
 10165 00eb 08000000 		.4byte	.LVL239
 10166 00ef 0100     		.2byte	0x1
 10167 00f1 50       		.byte	0x50
 10168 00f2 08000000 		.4byte	.LVL239
 10169 00f6 46000000 		.4byte	.LVL244
 10170 00fa 0100     		.2byte	0x1
 10171 00fc 54       		.byte	0x54
 10172 00fd 46000000 		.4byte	.LVL244
 10173 0101 50000000 		.4byte	.LFE64
 10174 0105 0400     		.2byte	0x4
 10175 0107 F3       		.byte	0xf3
 10176 0108 01       		.uleb128 0x1
 10177 0109 50       		.byte	0x50
 10178 010a 9F       		.byte	0x9f
 10179 010b 00000000 		.4byte	0
 10180 010f 00000000 		.4byte	0
 10181              	.LLST83:
 10182 0113 06000000 		.4byte	.LVL238
 10183 0117 3A000000 		.4byte	.LVL242
 10184 011b 0200     		.2byte	0x2
 10185 011d 30       		.byte	0x30
 10186 011e 9F       		.byte	0x9f
 10187 011f 3A000000 		.4byte	.LVL242
 10188 0123 43000000 		.4byte	.LVL243-1
 10189 0127 0100     		.2byte	0x1
 10190 0129 51       		.byte	0x51
 10191 012a 00000000 		.4byte	0
 10192 012e 00000000 		.4byte	0
 10193              	.LLST84:
 10194 0132 10000000 		.4byte	.LVL240
 10195 0136 46000000 		.4byte	.LVL245
 10196 013a 0100     		.2byte	0x1
 10197 013c 55       		.byte	0x55
 10198 013d 00000000 		.4byte	0
 10199 0141 00000000 		.4byte	0
 10200              	.LLST85:
 10201 0145 06000000 		.4byte	.LVL238
 10202 0149 08000000 		.4byte	.LVL239
 10203 014d 0200     		.2byte	0x2
 10204 014f 70       		.byte	0x70
 10205 0150 01       		.sleb128 1
 10206 0151 08000000 		.4byte	.LVL239
 10207 0155 35000000 		.4byte	.LVL241-1
 10208 0159 0200     		.2byte	0x2
 10209 015b 74       		.byte	0x74
 10210 015c 01       		.sleb128 1
 10211 015d 00000000 		.4byte	0
 10212 0161 00000000 		.4byte	0
 10213              	.LLST80:
 10214 0165 00000000 		.4byte	.LVL235
ARM GAS  C:\Users\EBANO_~1\AppData\Local\Temp\cchbxRq9.s 			page 199


 10215 0169 02000000 		.4byte	.LVL236
 10216 016d 0100     		.2byte	0x1
 10217 016f 50       		.byte	0x50
 10218 0170 02000000 		.4byte	.LVL236
 10219 0174 04000000 		.4byte	.LFE63
 10220 0178 0400     		.2byte	0x4
 10221 017a F3       		.byte	0xf3
 10222 017b 01       		.uleb128 0x1
 10223 017c 50       		.byte	0x50
 10224 017d 9F       		.byte	0x9f
 10225 017e 00000000 		.4byte	0
 10226 0182 00000000 		.4byte	0
 10227              	.LLST79:
 10228 0186 00000000 		.4byte	.LVL233
 10229 018a 02000000 		.4byte	.LVL234
 10230 018e 0100     		.2byte	0x1
 10231 0190 50       		.byte	0x50
 10232 0191 02000000 		.4byte	.LVL234
 10233 0195 04000000 		.4byte	.LFE62
 10234 0199 0400     		.2byte	0x4
 10235 019b F3       		.byte	0xf3
 10236 019c 01       		.uleb128 0x1
 10237 019d 50       		.byte	0x50
 10238 019e 9F       		.byte	0x9f
 10239 019f 00000000 		.4byte	0
 10240 01a3 00000000 		.4byte	0
 10241              	.LLST60:
 10242 01a7 00000000 		.4byte	.LFB61
 10243 01ab 02000000 		.4byte	.LCFI24
 10244 01af 0200     		.2byte	0x2
 10245 01b1 7D       		.byte	0x7d
 10246 01b2 00       		.sleb128 0
 10247 01b3 02000000 		.4byte	.LCFI24
 10248 01b7 0C000000 		.4byte	.LCFI25
 10249 01bb 0200     		.2byte	0x2
 10250 01bd 7D       		.byte	0x7d
 10251 01be 14       		.sleb128 20
 10252 01bf 0C000000 		.4byte	.LCFI25
 10253 01c3 0E000000 		.4byte	.LCFI26
 10254 01c7 0200     		.2byte	0x2
 10255 01c9 7D       		.byte	0x7d
 10256 01ca 24       		.sleb128 36
 10257 01cb 0E000000 		.4byte	.LCFI26
 10258 01cf 60010000 		.4byte	.LFE61
 10259 01d3 0300     		.2byte	0x3
 10260 01d5 7D       		.byte	0x7d
 10261 01d6 A001     		.sleb128 160
 10262 01d8 00000000 		.4byte	0
 10263 01dc 00000000 		.4byte	0
 10264              	.LLST61:
 10265 01e0 00000000 		.4byte	.LVL199
 10266 01e4 1A000000 		.4byte	.LVL202
 10267 01e8 0100     		.2byte	0x1
 10268 01ea 50       		.byte	0x50
 10269 01eb 1A000000 		.4byte	.LVL202
 10270 01ef 78000000 		.4byte	.LVL213
 10271 01f3 0100     		.2byte	0x1
ARM GAS  C:\Users\EBANO_~1\AppData\Local\Temp\cchbxRq9.s 			page 200


 10272 01f5 54       		.byte	0x54
 10273 01f6 78000000 		.4byte	.LVL213
 10274 01fa 20010000 		.4byte	.LVL228
 10275 01fe 0400     		.2byte	0x4
 10276 0200 F3       		.byte	0xf3
 10277 0201 01       		.uleb128 0x1
 10278 0202 50       		.byte	0x50
 10279 0203 9F       		.byte	0x9f
 10280 0204 20010000 		.4byte	.LVL228
 10281 0208 2C010000 		.4byte	.LVL230
 10282 020c 0100     		.2byte	0x1
 10283 020e 54       		.byte	0x54
 10284 020f 2C010000 		.4byte	.LVL230
 10285 0213 60010000 		.4byte	.LFE61
 10286 0217 0400     		.2byte	0x4
 10287 0219 F3       		.byte	0xf3
 10288 021a 01       		.uleb128 0x1
 10289 021b 50       		.byte	0x50
 10290 021c 9F       		.byte	0x9f
 10291 021d 00000000 		.4byte	0
 10292 0221 00000000 		.4byte	0
 10293              	.LLST62:
 10294 0225 00000000 		.4byte	.LVL199
 10295 0229 14000000 		.4byte	.LVL200
 10296 022d 0100     		.2byte	0x1
 10297 022f 51       		.byte	0x51
 10298 0230 14000000 		.4byte	.LVL200
 10299 0234 60010000 		.4byte	.LFE61
 10300 0238 0300     		.2byte	0x3
 10301 023a 91       		.byte	0x91
 10302 023b F47E     		.sleb128 -140
 10303 023d 00000000 		.4byte	0
 10304 0241 00000000 		.4byte	0
 10305              	.LLST63:
 10306 0245 00000000 		.4byte	.LVL199
 10307 0249 16000000 		.4byte	.LVL201
 10308 024d 0100     		.2byte	0x1
 10309 024f 52       		.byte	0x52
 10310 0250 16000000 		.4byte	.LVL201
 10311 0254 60010000 		.4byte	.LFE61
 10312 0258 0300     		.2byte	0x3
 10313 025a 91       		.byte	0x91
 10314 025b EC7E     		.sleb128 -148
 10315 025d 00000000 		.4byte	0
 10316 0261 00000000 		.4byte	0
 10317              	.LLST64:
 10318 0265 00000000 		.4byte	.LVL199
 10319 0269 1F000000 		.4byte	.LVL203-1
 10320 026d 0100     		.2byte	0x1
 10321 026f 53       		.byte	0x53
 10322 0270 1F000000 		.4byte	.LVL203-1
 10323 0274 68000000 		.4byte	.LVL210
 10324 0278 0100     		.2byte	0x1
 10325 027a 56       		.byte	0x56
 10326 027b 68000000 		.4byte	.LVL210
 10327 027f 20010000 		.4byte	.LVL228
 10328 0283 0400     		.2byte	0x4
ARM GAS  C:\Users\EBANO_~1\AppData\Local\Temp\cchbxRq9.s 			page 201


 10329 0285 F3       		.byte	0xf3
 10330 0286 01       		.uleb128 0x1
 10331 0287 53       		.byte	0x53
 10332 0288 9F       		.byte	0x9f
 10333 0289 20010000 		.4byte	.LVL228
 10334 028d 2C010000 		.4byte	.LVL230
 10335 0291 0100     		.2byte	0x1
 10336 0293 56       		.byte	0x56
 10337 0294 2C010000 		.4byte	.LVL230
 10338 0298 60010000 		.4byte	.LFE61
 10339 029c 0400     		.2byte	0x4
 10340 029e F3       		.byte	0xf3
 10341 029f 01       		.uleb128 0x1
 10342 02a0 53       		.byte	0x53
 10343 02a1 9F       		.byte	0x9f
 10344 02a2 00000000 		.4byte	0
 10345 02a6 00000000 		.4byte	0
 10346              	.LLST65:
 10347 02aa 00000000 		.4byte	.LVL199
 10348 02ae F4000000 		.4byte	.LVL224
 10349 02b2 0200     		.2byte	0x2
 10350 02b4 30       		.byte	0x30
 10351 02b5 9F       		.byte	0x9f
 10352 02b6 16010000 		.4byte	.LVL226
 10353 02ba 2C010000 		.4byte	.LVL230
 10354 02be 0200     		.2byte	0x2
 10355 02c0 30       		.byte	0x30
 10356 02c1 9F       		.byte	0x9f
 10357 02c2 00000000 		.4byte	0
 10358 02c6 00000000 		.4byte	0
 10359              	.LLST66:
 10360 02ca 00000000 		.4byte	.LVL199
 10361 02ce F4000000 		.4byte	.LVL224
 10362 02d2 0200     		.2byte	0x2
 10363 02d4 30       		.byte	0x30
 10364 02d5 9F       		.byte	0x9f
 10365 02d6 F4000000 		.4byte	.LVL224
 10366 02da 08010000 		.4byte	.LVL225
 10367 02de 0300     		.2byte	0x3
 10368 02e0 91       		.byte	0x91
 10369 02e1 E87E     		.sleb128 -152
 10370 02e3 16010000 		.4byte	.LVL226
 10371 02e7 20010000 		.4byte	.LVL228
 10372 02eb 0200     		.2byte	0x2
 10373 02ed 30       		.byte	0x30
 10374 02ee 9F       		.byte	0x9f
 10375 02ef 20010000 		.4byte	.LVL228
 10376 02f3 2C010000 		.4byte	.LVL230
 10377 02f7 0200     		.2byte	0x2
 10378 02f9 31       		.byte	0x31
 10379 02fa 9F       		.byte	0x9f
 10380 02fb 36010000 		.4byte	.LVL231
 10381 02ff 60010000 		.4byte	.LFE61
 10382 0303 0300     		.2byte	0x3
 10383 0305 91       		.byte	0x91
 10384 0306 E87E     		.sleb128 -152
 10385 0308 00000000 		.4byte	0
ARM GAS  C:\Users\EBANO_~1\AppData\Local\Temp\cchbxRq9.s 			page 202


 10386 030c 00000000 		.4byte	0
 10387              	.LLST67:
 10388 0310 20000000 		.4byte	.LVL203
 10389 0314 5C000000 		.4byte	.LVL207
 10390 0318 0200     		.2byte	0x2
 10391 031a 30       		.byte	0x30
 10392 031b 9F       		.byte	0x9f
 10393 031c 5C000000 		.4byte	.LVL207
 10394 0320 78000000 		.4byte	.LVL213
 10395 0324 0100     		.2byte	0x1
 10396 0326 50       		.byte	0x50
 10397 0327 78000000 		.4byte	.LVL213
 10398 032b 20010000 		.4byte	.LVL228
 10399 032f 0300     		.2byte	0x3
 10400 0331 91       		.byte	0x91
 10401 0332 F07E     		.sleb128 -144
 10402 0334 20010000 		.4byte	.LVL228
 10403 0338 2C010000 		.4byte	.LVL230
 10404 033c 0200     		.2byte	0x2
 10405 033e 30       		.byte	0x30
 10406 033f 9F       		.byte	0x9f
 10407 0340 2C010000 		.4byte	.LVL230
 10408 0344 60010000 		.4byte	.LFE61
 10409 0348 0300     		.2byte	0x3
 10410 034a 91       		.byte	0x91
 10411 034b F07E     		.sleb128 -144
 10412 034d 00000000 		.4byte	0
 10413 0351 00000000 		.4byte	0
 10414              	.LLST68:
 10415 0355 64000000 		.4byte	.LVL208
 10416 0359 F4000000 		.4byte	.LVL224
 10417 035d 0600     		.2byte	0x6
 10418 035f 03       		.byte	0x3
 10419 0360 90040000 		.4byte	NvmCtx+1168
 10420 0364 9F       		.byte	0x9f
 10421 0365 16010000 		.4byte	.LVL226
 10422 0369 20010000 		.4byte	.LVL228
 10423 036d 0600     		.2byte	0x6
 10424 036f 03       		.byte	0x3
 10425 0370 90040000 		.4byte	NvmCtx+1168
 10426 0374 9F       		.byte	0x9f
 10427 0375 00000000 		.4byte	0
 10428 0379 00000000 		.4byte	0
 10429              	.LLST69:
 10430 037d 64000000 		.4byte	.LVL208
 10431 0381 F4000000 		.4byte	.LVL224
 10432 0385 0600     		.2byte	0x6
 10433 0387 03       		.byte	0x3
 10434 0388 00000000 		.4byte	NvmCtx
 10435 038c 9F       		.byte	0x9f
 10436 038d 16010000 		.4byte	.LVL226
 10437 0391 20010000 		.4byte	.LVL228
 10438 0395 0600     		.2byte	0x6
 10439 0397 03       		.byte	0x3
 10440 0398 00000000 		.4byte	NvmCtx
 10441 039c 9F       		.byte	0x9f
 10442 039d 00000000 		.4byte	0
ARM GAS  C:\Users\EBANO_~1\AppData\Local\Temp\cchbxRq9.s 			page 203


 10443 03a1 00000000 		.4byte	0
 10444              	.LLST70:
 10445 03a5 64000000 		.4byte	.LVL208
 10446 03a9 66000000 		.4byte	.LVL209
 10447 03ad 0600     		.2byte	0x6
 10448 03af 03       		.byte	0x3
 10449 03b0 80040000 		.4byte	NvmCtx+1152
 10450 03b4 9F       		.byte	0x9f
 10451 03b5 66000000 		.4byte	.LVL209
 10452 03b9 6A000000 		.4byte	.LVL211
 10453 03bd 0100     		.2byte	0x1
 10454 03bf 53       		.byte	0x53
 10455 03c0 6A000000 		.4byte	.LVL211
 10456 03c4 76000000 		.4byte	.LVL212
 10457 03c8 0100     		.2byte	0x1
 10458 03ca 56       		.byte	0x56
 10459 03cb 76000000 		.4byte	.LVL212
 10460 03cf B8000000 		.4byte	.LVL216
 10461 03d3 0600     		.2byte	0x6
 10462 03d5 03       		.byte	0x3
 10463 03d6 80040000 		.4byte	NvmCtx+1152
 10464 03da 9F       		.byte	0x9f
 10465 03db B8000000 		.4byte	.LVL216
 10466 03df D4000000 		.4byte	.LVL218
 10467 03e3 0100     		.2byte	0x1
 10468 03e5 52       		.byte	0x52
 10469 03e6 D4000000 		.4byte	.LVL218
 10470 03ea DA000000 		.4byte	.LVL220
 10471 03ee 0100     		.2byte	0x1
 10472 03f0 5C       		.byte	0x5c
 10473 03f1 DA000000 		.4byte	.LVL220
 10474 03f5 F4000000 		.4byte	.LVL224
 10475 03f9 0600     		.2byte	0x6
 10476 03fb 03       		.byte	0x3
 10477 03fc 80040000 		.4byte	NvmCtx+1152
 10478 0400 9F       		.byte	0x9f
 10479 0401 16010000 		.4byte	.LVL226
 10480 0405 20010000 		.4byte	.LVL228
 10481 0409 0100     		.2byte	0x1
 10482 040b 52       		.byte	0x52
 10483 040c 00000000 		.4byte	0
 10484 0410 00000000 		.4byte	0
 10485              	.LLST71:
 10486 0414 64000000 		.4byte	.LVL208
 10487 0418 F4000000 		.4byte	.LVL224
 10488 041c 0600     		.2byte	0x6
 10489 041e F2       		.byte	0xf2
 10490 041f 37210000 		.4byte	.Ldebug_info0+8503
 10491 0423 00       		.sleb128 0
 10492 0424 16010000 		.4byte	.LVL226
 10493 0428 20010000 		.4byte	.LVL228
 10494 042c 0600     		.2byte	0x6
 10495 042e F2       		.byte	0xf2
 10496 042f 37210000 		.4byte	.Ldebug_info0+8503
 10497 0433 00       		.sleb128 0
 10498 0434 00000000 		.4byte	0
 10499 0438 00000000 		.4byte	0
ARM GAS  C:\Users\EBANO_~1\AppData\Local\Temp\cchbxRq9.s 			page 204


 10500              	.LLST72:
 10501 043c 64000000 		.4byte	.LVL208
 10502 0440 D6000000 		.4byte	.LVL219
 10503 0444 0400     		.2byte	0x4
 10504 0446 91       		.byte	0x91
 10505 0447 F87E     		.sleb128 -136
 10506 0449 9F       		.byte	0x9f
 10507 044a D6000000 		.4byte	.LVL219
 10508 044e DA000000 		.4byte	.LVL220
 10509 0452 0100     		.2byte	0x1
 10510 0454 51       		.byte	0x51
 10511 0455 DA000000 		.4byte	.LVL220
 10512 0459 F4000000 		.4byte	.LVL224
 10513 045d 0400     		.2byte	0x4
 10514 045f 91       		.byte	0x91
 10515 0460 F87E     		.sleb128 -136
 10516 0462 9F       		.byte	0x9f
 10517 0463 16010000 		.4byte	.LVL226
 10518 0467 20010000 		.4byte	.LVL228
 10519 046b 0400     		.2byte	0x4
 10520 046d 91       		.byte	0x91
 10521 046e F87E     		.sleb128 -136
 10522 0470 9F       		.byte	0x9f
 10523 0471 00000000 		.4byte	0
 10524 0475 00000000 		.4byte	0
 10525              	.LLST73:
 10526 0479 64000000 		.4byte	.LVL208
 10527 047d F4000000 		.4byte	.LVL224
 10528 0481 0200     		.2byte	0x2
 10529 0483 7D       		.byte	0x7d
 10530 0484 00       		.sleb128 0
 10531 0485 16010000 		.4byte	.LVL226
 10532 0489 20010000 		.4byte	.LVL228
 10533 048d 0200     		.2byte	0x2
 10534 048f 7D       		.byte	0x7d
 10535 0490 00       		.sleb128 0
 10536 0491 00000000 		.4byte	0
 10537 0495 00000000 		.4byte	0
 10538              	.LLST74:
 10539 0499 64000000 		.4byte	.LVL208
 10540 049d 78000000 		.4byte	.LVL213
 10541 04a1 0200     		.2byte	0x2
 10542 04a3 30       		.byte	0x30
 10543 04a4 9F       		.byte	0x9f
 10544 04a5 80000000 		.4byte	.LVL214
 10545 04a9 CC000000 		.4byte	.LVL217
 10546 04ad 0100     		.2byte	0x1
 10547 04af 5B       		.byte	0x5b
 10548 04b0 CC000000 		.4byte	.LVL217
 10549 04b4 DA000000 		.4byte	.LVL220
 10550 04b8 0100     		.2byte	0x1
 10551 04ba 53       		.byte	0x53
 10552 04bb DA000000 		.4byte	.LVL220
 10553 04bf F4000000 		.4byte	.LVL224
 10554 04c3 0100     		.2byte	0x1
 10555 04c5 5B       		.byte	0x5b
 10556 04c6 16010000 		.4byte	.LVL226
ARM GAS  C:\Users\EBANO_~1\AppData\Local\Temp\cchbxRq9.s 			page 205


 10557 04ca 20010000 		.4byte	.LVL228
 10558 04ce 0100     		.2byte	0x1
 10559 04d0 5B       		.byte	0x5b
 10560 04d1 00000000 		.4byte	0
 10561 04d5 00000000 		.4byte	0
 10562              	.LLST75:
 10563 04d9 64000000 		.4byte	.LVL208
 10564 04dd 78000000 		.4byte	.LVL213
 10565 04e1 0200     		.2byte	0x2
 10566 04e3 30       		.byte	0x30
 10567 04e4 9F       		.byte	0x9f
 10568 04e5 80000000 		.4byte	.LVL214
 10569 04e9 F4000000 		.4byte	.LVL224
 10570 04ed 0300     		.2byte	0x3
 10571 04ef 91       		.byte	0x91
 10572 04f0 E87E     		.sleb128 -152
 10573 04f2 16010000 		.4byte	.LVL226
 10574 04f6 20010000 		.4byte	.LVL228
 10575 04fa 0300     		.2byte	0x3
 10576 04fc 91       		.byte	0x91
 10577 04fd E87E     		.sleb128 -152
 10578 04ff 00000000 		.4byte	0
 10579 0503 00000000 		.4byte	0
 10580              	.LLST76:
 10581 0507 64000000 		.4byte	.LVL208
 10582 050b 78000000 		.4byte	.LVL213
 10583 050f 0200     		.2byte	0x2
 10584 0511 30       		.byte	0x30
 10585 0512 9F       		.byte	0x9f
 10586 0513 80000000 		.4byte	.LVL214
 10587 0517 E0000000 		.4byte	.LVL222
 10588 051b 0300     		.2byte	0x3
 10589 051d 91       		.byte	0x91
 10590 051e E47E     		.sleb128 -156
 10591 0520 E0000000 		.4byte	.LVL222
 10592 0524 E8000000 		.4byte	.LVL223
 10593 0528 0300     		.2byte	0x3
 10594 052a 79       		.byte	0x79
 10595 052b 10       		.sleb128 16
 10596 052c 9F       		.byte	0x9f
 10597 052d 16010000 		.4byte	.LVL226
 10598 0531 20010000 		.4byte	.LVL228
 10599 0535 0300     		.2byte	0x3
 10600 0537 91       		.byte	0x91
 10601 0538 E47E     		.sleb128 -156
 10602 053a 00000000 		.4byte	0
 10603 053e 00000000 		.4byte	0
 10604              	.LLST77:
 10605 0542 64000000 		.4byte	.LVL208
 10606 0546 78000000 		.4byte	.LVL213
 10607 054a 0200     		.2byte	0x2
 10608 054c 30       		.byte	0x30
 10609 054d 9F       		.byte	0x9f
 10610 054e 00000000 		.4byte	0
 10611 0552 00000000 		.4byte	0
 10612              	.LLST78:
 10613 0556 80000000 		.4byte	.LVL214
ARM GAS  C:\Users\EBANO_~1\AppData\Local\Temp\cchbxRq9.s 			page 206


 10614 055a DA000000 		.4byte	.LVL220
 10615 055e 0100     		.2byte	0x1
 10616 0560 54       		.byte	0x54
 10617 0561 DA000000 		.4byte	.LVL220
 10618 0565 DC000000 		.4byte	.LVL221
 10619 0569 0300     		.2byte	0x3
 10620 056b 74       		.byte	0x74
 10621 056c 01       		.sleb128 1
 10622 056d 9F       		.byte	0x9f
 10623 056e 16010000 		.4byte	.LVL226
 10624 0572 20010000 		.4byte	.LVL228
 10625 0576 0100     		.2byte	0x1
 10626 0578 54       		.byte	0x54
 10627 0579 00000000 		.4byte	0
 10628 057d 00000000 		.4byte	0
 10629              	.LLST58:
 10630 0581 00000000 		.4byte	.LFB60
 10631 0585 08000000 		.4byte	.LCFI22
 10632 0589 0200     		.2byte	0x2
 10633 058b 7D       		.byte	0x7d
 10634 058c 00       		.sleb128 0
 10635 058d 08000000 		.4byte	.LCFI22
 10636 0591 0C000000 		.4byte	.LCFI23
 10637 0595 0200     		.2byte	0x2
 10638 0597 7D       		.byte	0x7d
 10639 0598 04       		.sleb128 4
 10640 0599 0C000000 		.4byte	.LCFI23
 10641 059d 3C000000 		.4byte	.LFE60
 10642 05a1 0200     		.2byte	0x2
 10643 05a3 7D       		.byte	0x7d
 10644 05a4 20       		.sleb128 32
 10645 05a5 00000000 		.4byte	0
 10646 05a9 00000000 		.4byte	0
 10647              	.LLST59:
 10648 05ad 00000000 		.4byte	.LVL196
 10649 05b1 2C000000 		.4byte	.LVL197
 10650 05b5 0100     		.2byte	0x1
 10651 05b7 50       		.byte	0x50
 10652 05b8 2C000000 		.4byte	.LVL197
 10653 05bc 3C000000 		.4byte	.LFE60
 10654 05c0 0400     		.2byte	0x4
 10655 05c2 F3       		.byte	0xf3
 10656 05c3 01       		.uleb128 0x1
 10657 05c4 50       		.byte	0x50
 10658 05c5 9F       		.byte	0x9f
 10659 05c6 00000000 		.4byte	0
 10660 05ca 00000000 		.4byte	0
 10661              	.LLST57:
 10662 05ce 00000000 		.4byte	.LVL193
 10663 05d2 02000000 		.4byte	.LVL194
 10664 05d6 0100     		.2byte	0x1
 10665 05d8 50       		.byte	0x50
 10666 05d9 02000000 		.4byte	.LVL194
 10667 05dd 06000000 		.4byte	.LFE57
 10668 05e1 0400     		.2byte	0x4
 10669 05e3 F3       		.byte	0xf3
 10670 05e4 01       		.uleb128 0x1
ARM GAS  C:\Users\EBANO_~1\AppData\Local\Temp\cchbxRq9.s 			page 207


 10671 05e5 50       		.byte	0x50
 10672 05e6 9F       		.byte	0x9f
 10673 05e7 00000000 		.4byte	0
 10674 05eb 00000000 		.4byte	0
 10675              	.LLST52:
 10676 05ef 00000000 		.4byte	.LFB55
 10677 05f3 02000000 		.4byte	.LCFI20
 10678 05f7 0200     		.2byte	0x2
 10679 05f9 7D       		.byte	0x7d
 10680 05fa 00       		.sleb128 0
 10681 05fb 02000000 		.4byte	.LCFI20
 10682 05ff 0A000000 		.4byte	.LCFI21
 10683 0603 0200     		.2byte	0x2
 10684 0605 7D       		.byte	0x7d
 10685 0606 10       		.sleb128 16
 10686 0607 0A000000 		.4byte	.LCFI21
 10687 060b 70000000 		.4byte	.LFE55
 10688 060f 0200     		.2byte	0x2
 10689 0611 7D       		.byte	0x7d
 10690 0612 18       		.sleb128 24
 10691 0613 00000000 		.4byte	0
 10692 0617 00000000 		.4byte	0
 10693              	.LLST53:
 10694 061b 00000000 		.4byte	.LVL176
 10695 061f 0E000000 		.4byte	.LVL178
 10696 0623 0100     		.2byte	0x1
 10697 0625 50       		.byte	0x50
 10698 0626 0E000000 		.4byte	.LVL178
 10699 062a 4E000000 		.4byte	.LVL186
 10700 062e 0100     		.2byte	0x1
 10701 0630 54       		.byte	0x54
 10702 0631 4E000000 		.4byte	.LVL186
 10703 0635 50000000 		.4byte	.LVL188
 10704 0639 0400     		.2byte	0x4
 10705 063b F3       		.byte	0xf3
 10706 063c 01       		.uleb128 0x1
 10707 063d 50       		.byte	0x50
 10708 063e 9F       		.byte	0x9f
 10709 063f 50000000 		.4byte	.LVL188
 10710 0643 70000000 		.4byte	.LFE55
 10711 0647 0100     		.2byte	0x1
 10712 0649 54       		.byte	0x54
 10713 064a 00000000 		.4byte	0
 10714 064e 00000000 		.4byte	0
 10715              	.LLST54:
 10716 0652 00000000 		.4byte	.LVL176
 10717 0656 24000000 		.4byte	.LVL181
 10718 065a 0200     		.2byte	0x2
 10719 065c 37       		.byte	0x37
 10720 065d 9F       		.byte	0x9f
 10721 065e 24000000 		.4byte	.LVL181
 10722 0662 36000000 		.4byte	.LVL183
 10723 0666 0100     		.2byte	0x1
 10724 0668 56       		.byte	0x56
 10725 0669 36000000 		.4byte	.LVL183
 10726 066d 4E000000 		.4byte	.LVL187
 10727 0671 0100     		.2byte	0x1
ARM GAS  C:\Users\EBANO_~1\AppData\Local\Temp\cchbxRq9.s 			page 208


 10728 0673 55       		.byte	0x55
 10729 0674 50000000 		.4byte	.LVL188
 10730 0678 70000000 		.4byte	.LFE55
 10731 067c 0200     		.2byte	0x2
 10732 067e 37       		.byte	0x37
 10733 067f 9F       		.byte	0x9f
 10734 0680 00000000 		.4byte	0
 10735 0684 00000000 		.4byte	0
 10736              	.LLST55:
 10737 0688 06000000 		.4byte	.LVL177
 10738 068c 22000000 		.4byte	.LVL180
 10739 0690 0100     		.2byte	0x1
 10740 0692 55       		.byte	0x55
 10741 0693 50000000 		.4byte	.LVL188
 10742 0697 5C000000 		.4byte	.LVL190
 10743 069b 0100     		.2byte	0x1
 10744 069d 55       		.byte	0x55
 10745 069e 00000000 		.4byte	0
 10746 06a2 00000000 		.4byte	0
 10747              	.LLST43:
 10748 06a6 00000000 		.4byte	.LFB54
 10749 06aa 02000000 		.4byte	.LCFI17
 10750 06ae 0200     		.2byte	0x2
 10751 06b0 7D       		.byte	0x7d
 10752 06b1 00       		.sleb128 0
 10753 06b2 02000000 		.4byte	.LCFI17
 10754 06b6 0C000000 		.4byte	.LCFI18
 10755 06ba 0200     		.2byte	0x2
 10756 06bc 7D       		.byte	0x7d
 10757 06bd 14       		.sleb128 20
 10758 06be 0C000000 		.4byte	.LCFI18
 10759 06c2 0E000000 		.4byte	.LCFI19
 10760 06c6 0200     		.2byte	0x2
 10761 06c8 7D       		.byte	0x7d
 10762 06c9 24       		.sleb128 36
 10763 06ca 0E000000 		.4byte	.LCFI19
 10764 06ce B8020000 		.4byte	.LFE54
 10765 06d2 0300     		.2byte	0x3
 10766 06d4 7D       		.byte	0x7d
 10767 06d5 E800     		.sleb128 104
 10768 06d7 00000000 		.4byte	0
 10769 06db 00000000 		.4byte	0
 10770              	.LLST44:
 10771 06df 00000000 		.4byte	.LVL108
 10772 06e3 1A000000 		.4byte	.LVL111
 10773 06e7 0100     		.2byte	0x1
 10774 06e9 50       		.byte	0x50
 10775 06ea 1A000000 		.4byte	.LVL111
 10776 06ee 4E020000 		.4byte	.LVL142
 10777 06f2 0100     		.2byte	0x1
 10778 06f4 59       		.byte	0x59
 10779 06f5 4E020000 		.4byte	.LVL142
 10780 06f9 5A020000 		.4byte	.LVL144
 10781 06fd 0400     		.2byte	0x4
 10782 06ff F3       		.byte	0xf3
 10783 0700 01       		.uleb128 0x1
 10784 0701 50       		.byte	0x50
ARM GAS  C:\Users\EBANO_~1\AppData\Local\Temp\cchbxRq9.s 			page 209


 10785 0702 9F       		.byte	0x9f
 10786 0703 5A020000 		.4byte	.LVL144
 10787 0707 B8020000 		.4byte	.LFE54
 10788 070b 0100     		.2byte	0x1
 10789 070d 59       		.byte	0x59
 10790 070e 00000000 		.4byte	0
 10791 0712 00000000 		.4byte	0
 10792              	.LLST45:
 10793 0716 00000000 		.4byte	.LVL108
 10794 071a 16000000 		.4byte	.LVL109
 10795 071e 0100     		.2byte	0x1
 10796 0720 51       		.byte	0x51
 10797 0721 16000000 		.4byte	.LVL109
 10798 0725 4E020000 		.4byte	.LVL143
 10799 0729 0100     		.2byte	0x1
 10800 072b 5B       		.byte	0x5b
 10801 072c 4E020000 		.4byte	.LVL143
 10802 0730 5A020000 		.4byte	.LVL144
 10803 0734 0400     		.2byte	0x4
 10804 0736 F3       		.byte	0xf3
 10805 0737 01       		.uleb128 0x1
 10806 0738 51       		.byte	0x51
 10807 0739 9F       		.byte	0x9f
 10808 073a 5A020000 		.4byte	.LVL144
 10809 073e B8020000 		.4byte	.LFE54
 10810 0742 0100     		.2byte	0x1
 10811 0744 5B       		.byte	0x5b
 10812 0745 00000000 		.4byte	0
 10813 0749 00000000 		.4byte	0
 10814              	.LLST46:
 10815 074d 00000000 		.4byte	.LVL108
 10816 0751 18000000 		.4byte	.LVL110
 10817 0755 0100     		.2byte	0x1
 10818 0757 52       		.byte	0x52
 10819 0758 18000000 		.4byte	.LVL110
 10820 075c 4E020000 		.4byte	.LVL141
 10821 0760 0100     		.2byte	0x1
 10822 0762 58       		.byte	0x58
 10823 0763 4E020000 		.4byte	.LVL141
 10824 0767 5A020000 		.4byte	.LVL144
 10825 076b 0400     		.2byte	0x4
 10826 076d F3       		.byte	0xf3
 10827 076e 01       		.uleb128 0x1
 10828 076f 52       		.byte	0x52
 10829 0770 9F       		.byte	0x9f
 10830 0771 5A020000 		.4byte	.LVL144
 10831 0775 B8020000 		.4byte	.LFE54
 10832 0779 0100     		.2byte	0x1
 10833 077b 58       		.byte	0x58
 10834 077c 00000000 		.4byte	0
 10835 0780 00000000 		.4byte	0
 10836              	.LLST47:
 10837 0784 00000000 		.4byte	.LVL108
 10838 0788 1F000000 		.4byte	.LVL112-1
 10839 078c 0100     		.2byte	0x1
 10840 078e 53       		.byte	0x53
 10841 078f 1F000000 		.4byte	.LVL112-1
ARM GAS  C:\Users\EBANO_~1\AppData\Local\Temp\cchbxRq9.s 			page 210


 10842 0793 B8020000 		.4byte	.LFE54
 10843 0797 0300     		.2byte	0x3
 10844 0799 91       		.byte	0x91
 10845 079a 9C7F     		.sleb128 -100
 10846 079c 00000000 		.4byte	0
 10847 07a0 00000000 		.4byte	0
 10848              	.LLST48:
 10849 07a4 00000000 		.4byte	.LVL108
 10850 07a8 3C000000 		.4byte	.LVL114
 10851 07ac 0200     		.2byte	0x2
 10852 07ae 37       		.byte	0x37
 10853 07af 9F       		.byte	0x9f
 10854 07b0 3C000000 		.4byte	.LVL114
 10855 07b4 5E000000 		.4byte	.LVL117
 10856 07b8 0100     		.2byte	0x1
 10857 07ba 55       		.byte	0x55
 10858 07bb 5E000000 		.4byte	.LVL117
 10859 07bf 84000000 		.4byte	.LVL120
 10860 07c3 0200     		.2byte	0x2
 10861 07c5 37       		.byte	0x37
 10862 07c6 9F       		.byte	0x9f
 10863 07c7 84000000 		.4byte	.LVL120
 10864 07cb 30020000 		.4byte	.LVL138
 10865 07cf 0100     		.2byte	0x1
 10866 07d1 55       		.byte	0x55
 10867 07d2 30020000 		.4byte	.LVL138
 10868 07d6 34020000 		.4byte	.LVL139
 10869 07da 0100     		.2byte	0x1
 10870 07dc 50       		.byte	0x50
 10871 07dd 5A020000 		.4byte	.LVL144
 10872 07e1 66020000 		.4byte	.LVL145
 10873 07e5 0200     		.2byte	0x2
 10874 07e7 37       		.byte	0x37
 10875 07e8 9F       		.byte	0x9f
 10876 07e9 66020000 		.4byte	.LVL145
 10877 07ed 68020000 		.4byte	.LVL146
 10878 07f1 0100     		.2byte	0x1
 10879 07f3 55       		.byte	0x55
 10880 07f4 6A020000 		.4byte	.LVL147
 10881 07f8 6C020000 		.4byte	.LVL148
 10882 07fc 0100     		.2byte	0x1
 10883 07fe 55       		.byte	0x55
 10884 07ff 6E020000 		.4byte	.LVL149
 10885 0803 70020000 		.4byte	.LVL150
 10886 0807 0100     		.2byte	0x1
 10887 0809 55       		.byte	0x55
 10888 080a 72020000 		.4byte	.LVL151
 10889 080e 74020000 		.4byte	.LVL152
 10890 0812 0100     		.2byte	0x1
 10891 0814 55       		.byte	0x55
 10892 0815 76020000 		.4byte	.LVL153
 10893 0819 78020000 		.4byte	.LVL154
 10894 081d 0100     		.2byte	0x1
 10895 081f 55       		.byte	0x55
 10896 0820 7A020000 		.4byte	.LVL155
 10897 0824 7C020000 		.4byte	.LVL156
 10898 0828 0100     		.2byte	0x1
ARM GAS  C:\Users\EBANO_~1\AppData\Local\Temp\cchbxRq9.s 			page 211


 10899 082a 55       		.byte	0x55
 10900 082b 7E020000 		.4byte	.LVL157
 10901 082f 80020000 		.4byte	.LVL158
 10902 0833 0100     		.2byte	0x1
 10903 0835 55       		.byte	0x55
 10904 0836 82020000 		.4byte	.LVL159
 10905 083a 84020000 		.4byte	.LVL160
 10906 083e 0100     		.2byte	0x1
 10907 0840 55       		.byte	0x55
 10908 0841 86020000 		.4byte	.LVL161
 10909 0845 88020000 		.4byte	.LVL162
 10910 0849 0100     		.2byte	0x1
 10911 084b 55       		.byte	0x55
 10912 084c 8A020000 		.4byte	.LVL163
 10913 0850 8C020000 		.4byte	.LVL164
 10914 0854 0100     		.2byte	0x1
 10915 0856 55       		.byte	0x55
 10916 0857 8E020000 		.4byte	.LVL165
 10917 085b 90020000 		.4byte	.LVL166
 10918 085f 0100     		.2byte	0x1
 10919 0861 55       		.byte	0x55
 10920 0862 92020000 		.4byte	.LVL167
 10921 0866 94020000 		.4byte	.LVL168
 10922 086a 0100     		.2byte	0x1
 10923 086c 55       		.byte	0x55
 10924 086d 96020000 		.4byte	.LVL169
 10925 0871 98020000 		.4byte	.LVL170
 10926 0875 0100     		.2byte	0x1
 10927 0877 55       		.byte	0x55
 10928 0878 9A020000 		.4byte	.LVL171
 10929 087c 9C020000 		.4byte	.LVL172
 10930 0880 0100     		.2byte	0x1
 10931 0882 55       		.byte	0x55
 10932 0883 9E020000 		.4byte	.LVL173
 10933 0887 A4020000 		.4byte	.LVL174
 10934 088b 0100     		.2byte	0x1
 10935 088d 50       		.byte	0x50
 10936 088e 00000000 		.4byte	0
 10937 0892 00000000 		.4byte	0
 10938              	.LLST49:
 10939 0896 00000000 		.4byte	.LVL108
 10940 089a 3C000000 		.4byte	.LVL114
 10941 089e 0200     		.2byte	0x2
 10942 08a0 30       		.byte	0x30
 10943 08a1 9F       		.byte	0x9f
 10944 08a2 52000000 		.4byte	.LVL115
 10945 08a6 76000000 		.4byte	.LVL119
 10946 08aa 0100     		.2byte	0x1
 10947 08ac 50       		.byte	0x50
 10948 08ad 5A020000 		.4byte	.LVL144
 10949 08b1 66020000 		.4byte	.LVL145
 10950 08b5 0100     		.2byte	0x1
 10951 08b7 50       		.byte	0x50
 10952 08b8 00000000 		.4byte	0
 10953 08bc 00000000 		.4byte	0
 10954              	.LLST50:
 10955 08c0 00000000 		.4byte	.LVL108
ARM GAS  C:\Users\EBANO_~1\AppData\Local\Temp\cchbxRq9.s 			page 212


 10956 08c4 3C000000 		.4byte	.LVL114
 10957 08c8 0200     		.2byte	0x2
 10958 08ca 30       		.byte	0x30
 10959 08cb 9F       		.byte	0x9f
 10960 08cc 3C000000 		.4byte	.LVL114
 10961 08d0 5C000000 		.4byte	.LVL116
 10962 08d4 0100     		.2byte	0x1
 10963 08d6 54       		.byte	0x54
 10964 08d7 5E000000 		.4byte	.LVL117
 10965 08db 4E020000 		.4byte	.LVL140
 10966 08df 0100     		.2byte	0x1
 10967 08e1 54       		.byte	0x54
 10968 08e2 4E020000 		.4byte	.LVL140
 10969 08e6 5A020000 		.4byte	.LVL144
 10970 08ea 0200     		.2byte	0x2
 10971 08ec 73       		.byte	0x73
 10972 08ed 00       		.sleb128 0
 10973 08ee 5A020000 		.4byte	.LVL144
 10974 08f2 B8020000 		.4byte	.LFE54
 10975 08f6 0100     		.2byte	0x1
 10976 08f8 54       		.byte	0x54
 10977 08f9 00000000 		.4byte	0
 10978 08fd 00000000 		.4byte	0
 10979              	.LLST51:
 10980 0901 6A000000 		.4byte	.LVL118
 10981 0905 84000000 		.4byte	.LVL120
 10982 0909 0200     		.2byte	0x2
 10983 090b 30       		.byte	0x30
 10984 090c 9F       		.byte	0x9f
 10985 090d 84000000 		.4byte	.LVL120
 10986 0911 9A000000 		.4byte	.LVL121
 10987 0915 0200     		.2byte	0x2
 10988 0917 31       		.byte	0x31
 10989 0918 9F       		.byte	0x9f
 10990 0919 9A000000 		.4byte	.LVL121
 10991 091d B0000000 		.4byte	.LVL122
 10992 0921 0200     		.2byte	0x2
 10993 0923 32       		.byte	0x32
 10994 0924 9F       		.byte	0x9f
 10995 0925 B0000000 		.4byte	.LVL122
 10996 0929 C6000000 		.4byte	.LVL123
 10997 092d 0200     		.2byte	0x2
 10998 092f 33       		.byte	0x33
 10999 0930 9F       		.byte	0x9f
 11000 0931 C6000000 		.4byte	.LVL123
 11001 0935 DC000000 		.4byte	.LVL124
 11002 0939 0200     		.2byte	0x2
 11003 093b 34       		.byte	0x34
 11004 093c 9F       		.byte	0x9f
 11005 093d DC000000 		.4byte	.LVL124
 11006 0941 F2000000 		.4byte	.LVL125
 11007 0945 0200     		.2byte	0x2
 11008 0947 35       		.byte	0x35
 11009 0948 9F       		.byte	0x9f
 11010 0949 F2000000 		.4byte	.LVL125
 11011 094d 08010000 		.4byte	.LVL126
 11012 0951 0200     		.2byte	0x2
ARM GAS  C:\Users\EBANO_~1\AppData\Local\Temp\cchbxRq9.s 			page 213


 11013 0953 36       		.byte	0x36
 11014 0954 9F       		.byte	0x9f
 11015 0955 08010000 		.4byte	.LVL126
 11016 0959 1E010000 		.4byte	.LVL127
 11017 095d 0200     		.2byte	0x2
 11018 095f 37       		.byte	0x37
 11019 0960 9F       		.byte	0x9f
 11020 0961 1E010000 		.4byte	.LVL127
 11021 0965 34010000 		.4byte	.LVL128
 11022 0969 0200     		.2byte	0x2
 11023 096b 38       		.byte	0x38
 11024 096c 9F       		.byte	0x9f
 11025 096d 34010000 		.4byte	.LVL128
 11026 0971 4A010000 		.4byte	.LVL129
 11027 0975 0200     		.2byte	0x2
 11028 0977 39       		.byte	0x39
 11029 0978 9F       		.byte	0x9f
 11030 0979 4A010000 		.4byte	.LVL129
 11031 097d 60010000 		.4byte	.LVL130
 11032 0981 0200     		.2byte	0x2
 11033 0983 3A       		.byte	0x3a
 11034 0984 9F       		.byte	0x9f
 11035 0985 60010000 		.4byte	.LVL130
 11036 0989 76010000 		.4byte	.LVL131
 11037 098d 0200     		.2byte	0x2
 11038 098f 3B       		.byte	0x3b
 11039 0990 9F       		.byte	0x9f
 11040 0991 76010000 		.4byte	.LVL131
 11041 0995 8C010000 		.4byte	.LVL132
 11042 0999 0200     		.2byte	0x2
 11043 099b 3C       		.byte	0x3c
 11044 099c 9F       		.byte	0x9f
 11045 099d 8C010000 		.4byte	.LVL132
 11046 09a1 A0010000 		.4byte	.LVL133
 11047 09a5 0200     		.2byte	0x2
 11048 09a7 3D       		.byte	0x3d
 11049 09a8 9F       		.byte	0x9f
 11050 09a9 A0010000 		.4byte	.LVL133
 11051 09ad B4010000 		.4byte	.LVL134
 11052 09b1 0200     		.2byte	0x2
 11053 09b3 3E       		.byte	0x3e
 11054 09b4 9F       		.byte	0x9f
 11055 09b5 B4010000 		.4byte	.LVL134
 11056 09b9 CA010000 		.4byte	.LVL135
 11057 09bd 0200     		.2byte	0x2
 11058 09bf 3F       		.byte	0x3f
 11059 09c0 9F       		.byte	0x9f
 11060 09c1 CA010000 		.4byte	.LVL135
 11061 09c5 DE010000 		.4byte	.LVL136
 11062 09c9 0200     		.2byte	0x2
 11063 09cb 40       		.byte	0x40
 11064 09cc 9F       		.byte	0x9f
 11065 09cd 66020000 		.4byte	.LVL145
 11066 09d1 6A020000 		.4byte	.LVL147
 11067 09d5 0200     		.2byte	0x2
 11068 09d7 3E       		.byte	0x3e
 11069 09d8 9F       		.byte	0x9f
ARM GAS  C:\Users\EBANO_~1\AppData\Local\Temp\cchbxRq9.s 			page 214


 11070 09d9 6A020000 		.4byte	.LVL147
 11071 09dd 6E020000 		.4byte	.LVL149
 11072 09e1 0200     		.2byte	0x2
 11073 09e3 3D       		.byte	0x3d
 11074 09e4 9F       		.byte	0x9f
 11075 09e5 6E020000 		.4byte	.LVL149
 11076 09e9 72020000 		.4byte	.LVL151
 11077 09ed 0200     		.2byte	0x2
 11078 09ef 3C       		.byte	0x3c
 11079 09f0 9F       		.byte	0x9f
 11080 09f1 72020000 		.4byte	.LVL151
 11081 09f5 76020000 		.4byte	.LVL153
 11082 09f9 0200     		.2byte	0x2
 11083 09fb 3B       		.byte	0x3b
 11084 09fc 9F       		.byte	0x9f
 11085 09fd 76020000 		.4byte	.LVL153
 11086 0a01 7A020000 		.4byte	.LVL155
 11087 0a05 0200     		.2byte	0x2
 11088 0a07 3A       		.byte	0x3a
 11089 0a08 9F       		.byte	0x9f
 11090 0a09 7A020000 		.4byte	.LVL155
 11091 0a0d 7E020000 		.4byte	.LVL157
 11092 0a11 0200     		.2byte	0x2
 11093 0a13 39       		.byte	0x39
 11094 0a14 9F       		.byte	0x9f
 11095 0a15 7E020000 		.4byte	.LVL157
 11096 0a19 82020000 		.4byte	.LVL159
 11097 0a1d 0200     		.2byte	0x2
 11098 0a1f 38       		.byte	0x38
 11099 0a20 9F       		.byte	0x9f
 11100 0a21 82020000 		.4byte	.LVL159
 11101 0a25 86020000 		.4byte	.LVL161
 11102 0a29 0200     		.2byte	0x2
 11103 0a2b 37       		.byte	0x37
 11104 0a2c 9F       		.byte	0x9f
 11105 0a2d 86020000 		.4byte	.LVL161
 11106 0a31 8A020000 		.4byte	.LVL163
 11107 0a35 0200     		.2byte	0x2
 11108 0a37 36       		.byte	0x36
 11109 0a38 9F       		.byte	0x9f
 11110 0a39 8A020000 		.4byte	.LVL163
 11111 0a3d 8E020000 		.4byte	.LVL165
 11112 0a41 0200     		.2byte	0x2
 11113 0a43 35       		.byte	0x35
 11114 0a44 9F       		.byte	0x9f
 11115 0a45 8E020000 		.4byte	.LVL165
 11116 0a49 92020000 		.4byte	.LVL167
 11117 0a4d 0200     		.2byte	0x2
 11118 0a4f 34       		.byte	0x34
 11119 0a50 9F       		.byte	0x9f
 11120 0a51 92020000 		.4byte	.LVL167
 11121 0a55 96020000 		.4byte	.LVL169
 11122 0a59 0200     		.2byte	0x2
 11123 0a5b 33       		.byte	0x33
 11124 0a5c 9F       		.byte	0x9f
 11125 0a5d 96020000 		.4byte	.LVL169
 11126 0a61 9A020000 		.4byte	.LVL171
ARM GAS  C:\Users\EBANO_~1\AppData\Local\Temp\cchbxRq9.s 			page 215


 11127 0a65 0200     		.2byte	0x2
 11128 0a67 32       		.byte	0x32
 11129 0a68 9F       		.byte	0x9f
 11130 0a69 9A020000 		.4byte	.LVL171
 11131 0a6d 9E020000 		.4byte	.LVL173
 11132 0a71 0200     		.2byte	0x2
 11133 0a73 31       		.byte	0x31
 11134 0a74 9F       		.byte	0x9f
 11135 0a75 00000000 		.4byte	0
 11136 0a79 00000000 		.4byte	0
 11137              	.LLST33:
 11138 0a7d 00000000 		.4byte	.LFB53
 11139 0a81 02000000 		.4byte	.LCFI14
 11140 0a85 0200     		.2byte	0x2
 11141 0a87 7D       		.byte	0x7d
 11142 0a88 00       		.sleb128 0
 11143 0a89 02000000 		.4byte	.LCFI14
 11144 0a8d 0C000000 		.4byte	.LCFI15
 11145 0a91 0200     		.2byte	0x2
 11146 0a93 7D       		.byte	0x7d
 11147 0a94 14       		.sleb128 20
 11148 0a95 0C000000 		.4byte	.LCFI15
 11149 0a99 3E000000 		.4byte	.LCFI16
 11150 0a9d 0200     		.2byte	0x2
 11151 0a9f 7D       		.byte	0x7d
 11152 0aa0 24       		.sleb128 36
 11153 0aa1 3E000000 		.4byte	.LCFI16
 11154 0aa5 D0000000 		.4byte	.LFE53
 11155 0aa9 0300     		.2byte	0x3
 11156 0aab 7D       		.byte	0x7d
 11157 0aac D800     		.sleb128 88
 11158 0aae 00000000 		.4byte	0
 11159 0ab2 00000000 		.4byte	0
 11160              	.LLST34:
 11161 0ab6 00000000 		.4byte	.LVL91
 11162 0aba 4E000000 		.4byte	.LVL96
 11163 0abe 0100     		.2byte	0x1
 11164 0ac0 50       		.byte	0x50
 11165 0ac1 4E000000 		.4byte	.LVL96
 11166 0ac5 B2000000 		.4byte	.LVL103
 11167 0ac9 0100     		.2byte	0x1
 11168 0acb 54       		.byte	0x54
 11169 0acc B2000000 		.4byte	.LVL103
 11170 0ad0 D0000000 		.4byte	.LFE53
 11171 0ad4 0400     		.2byte	0x4
 11172 0ad6 F3       		.byte	0xf3
 11173 0ad7 01       		.uleb128 0x1
 11174 0ad8 50       		.byte	0x50
 11175 0ad9 9F       		.byte	0x9f
 11176 0ada 00000000 		.4byte	0
 11177 0ade 00000000 		.4byte	0
 11178              	.LLST35:
 11179 0ae2 00000000 		.4byte	.LVL91
 11180 0ae6 3A000000 		.4byte	.LVL95
 11181 0aea 0100     		.2byte	0x1
 11182 0aec 51       		.byte	0x51
 11183 0aed 3A000000 		.4byte	.LVL95
ARM GAS  C:\Users\EBANO_~1\AppData\Local\Temp\cchbxRq9.s 			page 216


 11184 0af1 B2000000 		.4byte	.LVL107
 11185 0af5 0100     		.2byte	0x1
 11186 0af7 5B       		.byte	0x5b
 11187 0af8 B2000000 		.4byte	.LVL107
 11188 0afc D0000000 		.4byte	.LFE53
 11189 0b00 0100     		.2byte	0x1
 11190 0b02 52       		.byte	0x52
 11191 0b03 00000000 		.4byte	0
 11192 0b07 00000000 		.4byte	0
 11193              	.LLST36:
 11194 0b0b 00000000 		.4byte	.LVL91
 11195 0b0f 10000000 		.4byte	.LVL92
 11196 0b13 0100     		.2byte	0x1
 11197 0b15 52       		.byte	0x52
 11198 0b16 10000000 		.4byte	.LVL92
 11199 0b1a B2000000 		.4byte	.LVL104
 11200 0b1e 0100     		.2byte	0x1
 11201 0b20 57       		.byte	0x57
 11202 0b21 B2000000 		.4byte	.LVL104
 11203 0b25 D0000000 		.4byte	.LFE53
 11204 0b29 0400     		.2byte	0x4
 11205 0b2b F3       		.byte	0xf3
 11206 0b2c 01       		.uleb128 0x1
 11207 0b2d 52       		.byte	0x52
 11208 0b2e 9F       		.byte	0x9f
 11209 0b2f 00000000 		.4byte	0
 11210 0b33 00000000 		.4byte	0
 11211              	.LLST37:
 11212 0b37 20000000 		.4byte	.LVL93
 11213 0b3b B2000000 		.4byte	.LVL105
 11214 0b3f 0100     		.2byte	0x1
 11215 0b41 58       		.byte	0x58
 11216 0b42 00000000 		.4byte	0
 11217 0b46 00000000 		.4byte	0
 11218              	.LLST38:
 11219 0b4a 4E000000 		.4byte	.LVL96
 11220 0b4e 56000000 		.4byte	.LVL98
 11221 0b52 0200     		.2byte	0x2
 11222 0b54 30       		.byte	0x30
 11223 0b55 9F       		.byte	0x9f
 11224 0b56 56000000 		.4byte	.LVL98
 11225 0b5a B2000000 		.4byte	.LVL106
 11226 0b5e 0100     		.2byte	0x1
 11227 0b60 5A       		.byte	0x5a
 11228 0b61 00000000 		.4byte	0
 11229 0b65 00000000 		.4byte	0
 11230              	.LLST39:
 11231 0b69 20000000 		.4byte	.LVL93
 11232 0b6d 4E000000 		.4byte	.LVL96
 11233 0b71 0200     		.2byte	0x2
 11234 0b73 70       		.byte	0x70
 11235 0b74 01       		.sleb128 1
 11236 0b75 4E000000 		.4byte	.LVL96
 11237 0b79 51000000 		.4byte	.LVL97-1
 11238 0b7d 0200     		.2byte	0x2
 11239 0b7f 74       		.byte	0x74
 11240 0b80 01       		.sleb128 1
ARM GAS  C:\Users\EBANO_~1\AppData\Local\Temp\cchbxRq9.s 			page 217


 11241 0b81 00000000 		.4byte	0
 11242 0b85 00000000 		.4byte	0
 11243              	.LLST40:
 11244 0b89 20000000 		.4byte	.LVL93
 11245 0b8d 2C000000 		.4byte	.LVL94
 11246 0b91 1900     		.2byte	0x19
 11247 0b93 72       		.byte	0x72
 11248 0b94 00       		.sleb128 0
 11249 0b95 3C       		.byte	0x3c
 11250 0b96 1E       		.byte	0x1e
 11251 0b97 03       		.byte	0x3
 11252 0b98 09000000 		.4byte	NvmCtx+9
 11253 0b9c 22       		.byte	0x22
 11254 0b9d 94       		.byte	0x94
 11255 0b9e 01       		.byte	0x1
 11256 0b9f 08       		.byte	0x8
 11257 0ba0 FF       		.byte	0xff
 11258 0ba1 1A       		.byte	0x1a
 11259 0ba2 23       		.byte	0x23
 11260 0ba3 48       		.uleb128 0x48
 11261 0ba4 34       		.byte	0x34
 11262 0ba5 24       		.byte	0x24
 11263 0ba6 03       		.byte	0x3
 11264 0ba7 02000000 		.4byte	NvmCtx+2
 11265 0bab 22       		.byte	0x22
 11266 0bac 2C000000 		.4byte	.LVL94
 11267 0bb0 4E000000 		.4byte	.LVL96
 11268 0bb4 1E00     		.2byte	0x1e
 11269 0bb6 70       		.byte	0x70
 11270 0bb7 00       		.sleb128 0
 11271 0bb8 94       		.byte	0x94
 11272 0bb9 01       		.byte	0x1
 11273 0bba 08       		.byte	0x8
 11274 0bbb FF       		.byte	0xff
 11275 0bbc 1A       		.byte	0x1a
 11276 0bbd 3C       		.byte	0x3c
 11277 0bbe 1E       		.byte	0x1e
 11278 0bbf 03       		.byte	0x3
 11279 0bc0 09000000 		.4byte	NvmCtx+9
 11280 0bc4 22       		.byte	0x22
 11281 0bc5 94       		.byte	0x94
 11282 0bc6 01       		.byte	0x1
 11283 0bc7 08       		.byte	0x8
 11284 0bc8 FF       		.byte	0xff
 11285 0bc9 1A       		.byte	0x1a
 11286 0bca 23       		.byte	0x23
 11287 0bcb 48       		.uleb128 0x48
 11288 0bcc 34       		.byte	0x34
 11289 0bcd 24       		.byte	0x24
 11290 0bce 03       		.byte	0x3
 11291 0bcf 02000000 		.4byte	NvmCtx+2
 11292 0bd3 22       		.byte	0x22
 11293 0bd4 00000000 		.4byte	0
 11294 0bd8 00000000 		.4byte	0
 11295              	.LLST41:
 11296 0bdc 20000000 		.4byte	.LVL93
 11297 0be0 4E000000 		.4byte	.LVL96
ARM GAS  C:\Users\EBANO_~1\AppData\Local\Temp\cchbxRq9.s 			page 218


 11298 0be4 0200     		.2byte	0x2
 11299 0be6 70       		.byte	0x70
 11300 0be7 02       		.sleb128 2
 11301 0be8 00000000 		.4byte	0
 11302 0bec 00000000 		.4byte	0
 11303              	.LLST26:
 11304 0bf0 00000000 		.4byte	.LFB52
 11305 0bf4 02000000 		.4byte	.LCFI11
 11306 0bf8 0200     		.2byte	0x2
 11307 0bfa 7D       		.byte	0x7d
 11308 0bfb 00       		.sleb128 0
 11309 0bfc 02000000 		.4byte	.LCFI11
 11310 0c00 0A000000 		.4byte	.LCFI12
 11311 0c04 0200     		.2byte	0x2
 11312 0c06 7D       		.byte	0x7d
 11313 0c07 14       		.sleb128 20
 11314 0c08 0A000000 		.4byte	.LCFI12
 11315 0c0c 16000000 		.4byte	.LCFI13
 11316 0c10 0200     		.2byte	0x2
 11317 0c12 7D       		.byte	0x7d
 11318 0c13 20       		.sleb128 32
 11319 0c14 16000000 		.4byte	.LCFI13
 11320 0c18 C8000000 		.4byte	.LFE52
 11321 0c1c 0300     		.2byte	0x3
 11322 0c1e 7D       		.byte	0x7d
 11323 0c1f D000     		.sleb128 80
 11324 0c21 00000000 		.4byte	0
 11325 0c25 00000000 		.4byte	0
 11326              	.LLST27:
 11327 0c29 00000000 		.4byte	.LVL72
 11328 0c2d 1F000000 		.4byte	.LVL74-1
 11329 0c31 0100     		.2byte	0x1
 11330 0c33 50       		.byte	0x50
 11331 0c34 1F000000 		.4byte	.LVL74-1
 11332 0c38 A0000000 		.4byte	.LVL85
 11333 0c3c 0100     		.2byte	0x1
 11334 0c3e 54       		.byte	0x54
 11335 0c3f A0000000 		.4byte	.LVL85
 11336 0c43 AA000000 		.4byte	.LVL89
 11337 0c47 0400     		.2byte	0x4
 11338 0c49 F3       		.byte	0xf3
 11339 0c4a 01       		.uleb128 0x1
 11340 0c4b 50       		.byte	0x50
 11341 0c4c 9F       		.byte	0x9f
 11342 0c4d AA000000 		.4byte	.LVL89
 11343 0c51 C8000000 		.4byte	.LFE52
 11344 0c55 0100     		.2byte	0x1
 11345 0c57 54       		.byte	0x54
 11346 0c58 00000000 		.4byte	0
 11347 0c5c 00000000 		.4byte	0
 11348              	.LLST28:
 11349 0c60 00000000 		.4byte	.LVL72
 11350 0c64 1F000000 		.4byte	.LVL74-1
 11351 0c68 0100     		.2byte	0x1
 11352 0c6a 51       		.byte	0x51
 11353 0c6b 1F000000 		.4byte	.LVL74-1
 11354 0c6f A0000000 		.4byte	.LVL88
ARM GAS  C:\Users\EBANO_~1\AppData\Local\Temp\cchbxRq9.s 			page 219


 11355 0c73 0100     		.2byte	0x1
 11356 0c75 5A       		.byte	0x5a
 11357 0c76 A0000000 		.4byte	.LVL88
 11358 0c7a AA000000 		.4byte	.LVL89
 11359 0c7e 0400     		.2byte	0x4
 11360 0c80 F3       		.byte	0xf3
 11361 0c81 01       		.uleb128 0x1
 11362 0c82 51       		.byte	0x51
 11363 0c83 9F       		.byte	0x9f
 11364 0c84 AA000000 		.4byte	.LVL89
 11365 0c88 C8000000 		.4byte	.LFE52
 11366 0c8c 0100     		.2byte	0x1
 11367 0c8e 5A       		.byte	0x5a
 11368 0c8f 00000000 		.4byte	0
 11369 0c93 00000000 		.4byte	0
 11370              	.LLST29:
 11371 0c97 18000000 		.4byte	.LVL73
 11372 0c9b A0000000 		.4byte	.LVL86
 11373 0c9f 0100     		.2byte	0x1
 11374 0ca1 56       		.byte	0x56
 11375 0ca2 AA000000 		.4byte	.LVL89
 11376 0ca6 C8000000 		.4byte	.LFE52
 11377 0caa 0100     		.2byte	0x1
 11378 0cac 56       		.byte	0x56
 11379 0cad 00000000 		.4byte	0
 11380 0cb1 00000000 		.4byte	0
 11381              	.LLST30:
 11382 0cb5 18000000 		.4byte	.LVL73
 11383 0cb9 8A000000 		.4byte	.LVL81
 11384 0cbd 0200     		.2byte	0x2
 11385 0cbf 30       		.byte	0x30
 11386 0cc0 9F       		.byte	0x9f
 11387 0cc1 8A000000 		.4byte	.LVL81
 11388 0cc5 8E000000 		.4byte	.LVL82
 11389 0cc9 0100     		.2byte	0x1
 11390 0ccb 51       		.byte	0x51
 11391 0ccc AA000000 		.4byte	.LVL89
 11392 0cd0 AE000000 		.4byte	.LVL90
 11393 0cd4 0200     		.2byte	0x2
 11394 0cd6 30       		.byte	0x30
 11395 0cd7 9F       		.byte	0x9f
 11396 0cd8 AE000000 		.4byte	.LVL90
 11397 0cdc C8000000 		.4byte	.LFE52
 11398 0ce0 0100     		.2byte	0x1
 11399 0ce2 51       		.byte	0x51
 11400 0ce3 00000000 		.4byte	0
 11401 0ce7 00000000 		.4byte	0
 11402              	.LLST31:
 11403 0ceb 18000000 		.4byte	.LVL73
 11404 0cef 4C000000 		.4byte	.LVL78
 11405 0cf3 0200     		.2byte	0x2
 11406 0cf5 30       		.byte	0x30
 11407 0cf6 9F       		.byte	0x9f
 11408 0cf7 4C000000 		.4byte	.LVL78
 11409 0cfb 9C000000 		.4byte	.LVL84
 11410 0cff 0100     		.2byte	0x1
 11411 0d01 59       		.byte	0x59
ARM GAS  C:\Users\EBANO_~1\AppData\Local\Temp\cchbxRq9.s 			page 220


 11412 0d02 AA000000 		.4byte	.LVL89
 11413 0d06 C8000000 		.4byte	.LFE52
 11414 0d0a 0100     		.2byte	0x1
 11415 0d0c 59       		.byte	0x59
 11416 0d0d 00000000 		.4byte	0
 11417 0d11 00000000 		.4byte	0
 11418              	.LLST32:
 11419 0d15 18000000 		.4byte	.LVL73
 11420 0d19 3E000000 		.4byte	.LVL76
 11421 0d1d 0100     		.2byte	0x1
 11422 0d1f 58       		.byte	0x58
 11423 0d20 40000000 		.4byte	.LVL77
 11424 0d24 A0000000 		.4byte	.LVL87
 11425 0d28 0100     		.2byte	0x1
 11426 0d2a 58       		.byte	0x58
 11427 0d2b AA000000 		.4byte	.LVL89
 11428 0d2f C8000000 		.4byte	.LFE52
 11429 0d33 0100     		.2byte	0x1
 11430 0d35 58       		.byte	0x58
 11431 0d36 00000000 		.4byte	0
 11432 0d3a 00000000 		.4byte	0
 11433              	.LLST20:
 11434 0d3e 00000000 		.4byte	.LFB51
 11435 0d42 02000000 		.4byte	.LCFI8
 11436 0d46 0200     		.2byte	0x2
 11437 0d48 7D       		.byte	0x7d
 11438 0d49 00       		.sleb128 0
 11439 0d4a 02000000 		.4byte	.LCFI8
 11440 0d4e 06000000 		.4byte	.LCFI9
 11441 0d52 0200     		.2byte	0x2
 11442 0d54 7D       		.byte	0x7d
 11443 0d55 14       		.sleb128 20
 11444 0d56 06000000 		.4byte	.LCFI9
 11445 0d5a 0A000000 		.4byte	.LCFI10
 11446 0d5e 0200     		.2byte	0x2
 11447 0d60 7D       		.byte	0x7d
 11448 0d61 18       		.sleb128 24
 11449 0d62 0A000000 		.4byte	.LCFI10
 11450 0d66 80000000 		.4byte	.LFE51
 11451 0d6a 0200     		.2byte	0x2
 11452 0d6c 7D       		.byte	0x7d
 11453 0d6d 30       		.sleb128 48
 11454 0d6e 00000000 		.4byte	0
 11455 0d72 00000000 		.4byte	0
 11456              	.LLST21:
 11457 0d76 00000000 		.4byte	.LVL55
 11458 0d7a 18000000 		.4byte	.LVL57
 11459 0d7e 0100     		.2byte	0x1
 11460 0d80 50       		.byte	0x50
 11461 0d81 18000000 		.4byte	.LVL57
 11462 0d85 80000000 		.4byte	.LFE51
 11463 0d89 0400     		.2byte	0x4
 11464 0d8b F3       		.byte	0xf3
 11465 0d8c 01       		.uleb128 0x1
 11466 0d8d 50       		.byte	0x50
 11467 0d8e 9F       		.byte	0x9f
 11468 0d8f 00000000 		.4byte	0
ARM GAS  C:\Users\EBANO_~1\AppData\Local\Temp\cchbxRq9.s 			page 221


 11469 0d93 00000000 		.4byte	0
 11470              	.LLST22:
 11471 0d97 00000000 		.4byte	.LVL55
 11472 0d9b 1C000000 		.4byte	.LVL59
 11473 0d9f 0100     		.2byte	0x1
 11474 0da1 51       		.byte	0x51
 11475 0da2 1C000000 		.4byte	.LVL59
 11476 0da6 80000000 		.4byte	.LFE51
 11477 0daa 0400     		.2byte	0x4
 11478 0dac F3       		.byte	0xf3
 11479 0dad 01       		.uleb128 0x1
 11480 0dae 51       		.byte	0x51
 11481 0daf 9F       		.byte	0x9f
 11482 0db0 00000000 		.4byte	0
 11483 0db4 00000000 		.4byte	0
 11484              	.LLST23:
 11485 0db8 00000000 		.4byte	.LVL55
 11486 0dbc 1A000000 		.4byte	.LVL58
 11487 0dc0 0100     		.2byte	0x1
 11488 0dc2 52       		.byte	0x52
 11489 0dc3 1A000000 		.4byte	.LVL58
 11490 0dc7 64000000 		.4byte	.LVL70
 11491 0dcb 0100     		.2byte	0x1
 11492 0dcd 58       		.byte	0x58
 11493 0dce 64000000 		.4byte	.LVL70
 11494 0dd2 6A000000 		.4byte	.LVL71
 11495 0dd6 0400     		.2byte	0x4
 11496 0dd8 F3       		.byte	0xf3
 11497 0dd9 01       		.uleb128 0x1
 11498 0dda 52       		.byte	0x52
 11499 0ddb 9F       		.byte	0x9f
 11500 0ddc 6A000000 		.4byte	.LVL71
 11501 0de0 80000000 		.4byte	.LFE51
 11502 0de4 0100     		.2byte	0x1
 11503 0de6 58       		.byte	0x58
 11504 0de7 00000000 		.4byte	0
 11505 0deb 00000000 		.4byte	0
 11506              	.LLST24:
 11507 0def 00000000 		.4byte	.LVL55
 11508 0df3 10000000 		.4byte	.LVL56
 11509 0df7 0100     		.2byte	0x1
 11510 0df9 53       		.byte	0x53
 11511 0dfa 10000000 		.4byte	.LVL56
 11512 0dfe 4E000000 		.4byte	.LVL64
 11513 0e02 0100     		.2byte	0x1
 11514 0e04 54       		.byte	0x54
 11515 0e05 4E000000 		.4byte	.LVL64
 11516 0e09 50000000 		.4byte	.LVL65
 11517 0e0d 0100     		.2byte	0x1
 11518 0e0f 53       		.byte	0x53
 11519 0e10 50000000 		.4byte	.LVL65
 11520 0e14 58000000 		.4byte	.LVL66
 11521 0e18 0300     		.2byte	0x3
 11522 0e1a 73       		.byte	0x73
 11523 0e1b 74       		.sleb128 -12
 11524 0e1c 9F       		.byte	0x9f
 11525 0e1d 58000000 		.4byte	.LVL66
ARM GAS  C:\Users\EBANO_~1\AppData\Local\Temp\cchbxRq9.s 			page 222


 11526 0e21 61000000 		.4byte	.LVL67-1
 11527 0e25 0600     		.2byte	0x6
 11528 0e27 91       		.byte	0x91
 11529 0e28 58       		.sleb128 -40
 11530 0e29 06       		.byte	0x6
 11531 0e2a 3C       		.byte	0x3c
 11532 0e2b 1C       		.byte	0x1c
 11533 0e2c 9F       		.byte	0x9f
 11534 0e2d 61000000 		.4byte	.LVL67-1
 11535 0e31 64000000 		.4byte	.LVL68
 11536 0e35 0300     		.2byte	0x3
 11537 0e37 74       		.byte	0x74
 11538 0e38 78       		.sleb128 -8
 11539 0e39 9F       		.byte	0x9f
 11540 0e3a 64000000 		.4byte	.LVL68
 11541 0e3e 6A000000 		.4byte	.LVL71
 11542 0e42 0400     		.2byte	0x4
 11543 0e44 F3       		.byte	0xf3
 11544 0e45 01       		.uleb128 0x1
 11545 0e46 53       		.byte	0x53
 11546 0e47 9F       		.byte	0x9f
 11547 0e48 6A000000 		.4byte	.LVL71
 11548 0e4c 80000000 		.4byte	.LFE51
 11549 0e50 0100     		.2byte	0x1
 11550 0e52 54       		.byte	0x54
 11551 0e53 00000000 		.4byte	0
 11552 0e57 00000000 		.4byte	0
 11553              	.LLST25:
 11554 0e5b 00000000 		.4byte	.LVL55
 11555 0e5f 46000000 		.4byte	.LVL62
 11556 0e63 0A00     		.2byte	0xa
 11557 0e65 9E       		.byte	0x9e
 11558 0e66 08       		.uleb128 0x8
 11559 0e67 00000000 		.4byte	0
 11560 0e6b 00000000 		.4byte	0
 11561 0e6f 46000000 		.4byte	.LVL62
 11562 0e73 64000000 		.4byte	.LVL69
 11563 0e77 0600     		.2byte	0x6
 11564 0e79 56       		.byte	0x56
 11565 0e7a 93       		.byte	0x93
 11566 0e7b 04       		.uleb128 0x4
 11567 0e7c 57       		.byte	0x57
 11568 0e7d 93       		.byte	0x93
 11569 0e7e 04       		.uleb128 0x4
 11570 0e7f 6A000000 		.4byte	.LVL71
 11571 0e83 80000000 		.4byte	.LFE51
 11572 0e87 0A00     		.2byte	0xa
 11573 0e89 9E       		.byte	0x9e
 11574 0e8a 08       		.uleb128 0x8
 11575 0e8b 00000000 		.4byte	0
 11576 0e8f 00000000 		.4byte	0
 11577 0e93 00000000 		.4byte	0
 11578 0e97 00000000 		.4byte	0
 11579              	.LLST18:
 11580 0e9b 00000000 		.4byte	.LFB50
 11581 0e9f 02000000 		.4byte	.LCFI7
 11582 0ea3 0200     		.2byte	0x2
ARM GAS  C:\Users\EBANO_~1\AppData\Local\Temp\cchbxRq9.s 			page 223


 11583 0ea5 7D       		.byte	0x7d
 11584 0ea6 00       		.sleb128 0
 11585 0ea7 02000000 		.4byte	.LCFI7
 11586 0eab 34000000 		.4byte	.LFE50
 11587 0eaf 0200     		.2byte	0x2
 11588 0eb1 7D       		.byte	0x7d
 11589 0eb2 08       		.sleb128 8
 11590 0eb3 00000000 		.4byte	0
 11591 0eb7 00000000 		.4byte	0
 11592              	.LLST19:
 11593 0ebb 00000000 		.4byte	.LVL47
 11594 0ebf 0E000000 		.4byte	.LVL48
 11595 0ec3 0100     		.2byte	0x1
 11596 0ec5 50       		.byte	0x50
 11597 0ec6 0E000000 		.4byte	.LVL48
 11598 0eca 10000000 		.4byte	.LVL49
 11599 0ece 0400     		.2byte	0x4
 11600 0ed0 F3       		.byte	0xf3
 11601 0ed1 01       		.uleb128 0x1
 11602 0ed2 50       		.byte	0x50
 11603 0ed3 9F       		.byte	0x9f
 11604 0ed4 10000000 		.4byte	.LVL49
 11605 0ed8 16000000 		.4byte	.LVL50
 11606 0edc 0100     		.2byte	0x1
 11607 0ede 50       		.byte	0x50
 11608 0edf 16000000 		.4byte	.LVL50
 11609 0ee3 1E000000 		.4byte	.LVL52
 11610 0ee7 0400     		.2byte	0x4
 11611 0ee9 F3       		.byte	0xf3
 11612 0eea 01       		.uleb128 0x1
 11613 0eeb 50       		.byte	0x50
 11614 0eec 9F       		.byte	0x9f
 11615 0eed 1E000000 		.4byte	.LVL52
 11616 0ef1 24000000 		.4byte	.LVL53
 11617 0ef5 0100     		.2byte	0x1
 11618 0ef7 50       		.byte	0x50
 11619 0ef8 24000000 		.4byte	.LVL53
 11620 0efc 34000000 		.4byte	.LFE50
 11621 0f00 0400     		.2byte	0x4
 11622 0f02 F3       		.byte	0xf3
 11623 0f03 01       		.uleb128 0x1
 11624 0f04 50       		.byte	0x50
 11625 0f05 9F       		.byte	0x9f
 11626 0f06 00000000 		.4byte	0
 11627 0f0a 00000000 		.4byte	0
 11628              	.LLST14:
 11629 0f0e 00000000 		.4byte	.LFB49
 11630 0f12 02000000 		.4byte	.LCFI6
 11631 0f16 0200     		.2byte	0x2
 11632 0f18 7D       		.byte	0x7d
 11633 0f19 00       		.sleb128 0
 11634 0f1a 02000000 		.4byte	.LCFI6
 11635 0f1e 80000000 		.4byte	.LFE49
 11636 0f22 0200     		.2byte	0x2
 11637 0f24 7D       		.byte	0x7d
 11638 0f25 08       		.sleb128 8
 11639 0f26 00000000 		.4byte	0
ARM GAS  C:\Users\EBANO_~1\AppData\Local\Temp\cchbxRq9.s 			page 224


 11640 0f2a 00000000 		.4byte	0
 11641              	.LLST15:
 11642 0f2e 00000000 		.4byte	.LVL36
 11643 0f32 08000000 		.4byte	.LVL37
 11644 0f36 0100     		.2byte	0x1
 11645 0f38 50       		.byte	0x50
 11646 0f39 08000000 		.4byte	.LVL37
 11647 0f3d 0A000000 		.4byte	.LVL38
 11648 0f41 0400     		.2byte	0x4
 11649 0f43 F3       		.byte	0xf3
 11650 0f44 01       		.uleb128 0x1
 11651 0f45 50       		.byte	0x50
 11652 0f46 9F       		.byte	0x9f
 11653 0f47 0A000000 		.4byte	.LVL38
 11654 0f4b 1E000000 		.4byte	.LVL40
 11655 0f4f 0100     		.2byte	0x1
 11656 0f51 50       		.byte	0x50
 11657 0f52 1E000000 		.4byte	.LVL40
 11658 0f56 80000000 		.4byte	.LFE49
 11659 0f5a 0400     		.2byte	0x4
 11660 0f5c F3       		.byte	0xf3
 11661 0f5d 01       		.uleb128 0x1
 11662 0f5e 50       		.byte	0x50
 11663 0f5f 9F       		.byte	0x9f
 11664 0f60 00000000 		.4byte	0
 11665 0f64 00000000 		.4byte	0
 11666              	.LLST16:
 11667 0f68 12000000 		.4byte	.LVL39
 11668 0f6c 24000000 		.4byte	.LVL41
 11669 0f70 0200     		.2byte	0x2
 11670 0f72 30       		.byte	0x30
 11671 0f73 9F       		.byte	0x9f
 11672 0f74 24000000 		.4byte	.LVL41
 11673 0f78 32000000 		.4byte	.LVL42
 11674 0f7c 0200     		.2byte	0x2
 11675 0f7e 31       		.byte	0x31
 11676 0f7f 9F       		.byte	0x9f
 11677 0f80 32000000 		.4byte	.LVL42
 11678 0f84 40000000 		.4byte	.LVL43
 11679 0f88 0200     		.2byte	0x2
 11680 0f8a 32       		.byte	0x32
 11681 0f8b 9F       		.byte	0x9f
 11682 0f8c 40000000 		.4byte	.LVL43
 11683 0f90 4E000000 		.4byte	.LVL44
 11684 0f94 0200     		.2byte	0x2
 11685 0f96 33       		.byte	0x33
 11686 0f97 9F       		.byte	0x9f
 11687 0f98 4E000000 		.4byte	.LVL44
 11688 0f9c 5C000000 		.4byte	.LVL45
 11689 0fa0 0200     		.2byte	0x2
 11690 0fa2 34       		.byte	0x34
 11691 0fa3 9F       		.byte	0x9f
 11692 0fa4 5C000000 		.4byte	.LVL45
 11693 0fa8 6A000000 		.4byte	.LVL46
 11694 0fac 0200     		.2byte	0x2
 11695 0fae 35       		.byte	0x35
 11696 0faf 9F       		.byte	0x9f
ARM GAS  C:\Users\EBANO_~1\AppData\Local\Temp\cchbxRq9.s 			page 225


 11697 0fb0 6A000000 		.4byte	.LVL46
 11698 0fb4 80000000 		.4byte	.LFE49
 11699 0fb8 0200     		.2byte	0x2
 11700 0fba 36       		.byte	0x36
 11701 0fbb 9F       		.byte	0x9f
 11702 0fbc 00000000 		.4byte	0
 11703 0fc0 00000000 		.4byte	0
 11704              	.LLST17:
 11705 0fc4 12000000 		.4byte	.LVL39
 11706 0fc8 24000000 		.4byte	.LVL41
 11707 0fcc 0200     		.2byte	0x2
 11708 0fce 30       		.byte	0x30
 11709 0fcf 9F       		.byte	0x9f
 11710 0fd0 24000000 		.4byte	.LVL41
 11711 0fd4 32000000 		.4byte	.LVL42
 11712 0fd8 0200     		.2byte	0x2
 11713 0fda 32       		.byte	0x32
 11714 0fdb 9F       		.byte	0x9f
 11715 0fdc 32000000 		.4byte	.LVL42
 11716 0fe0 40000000 		.4byte	.LVL43
 11717 0fe4 0200     		.2byte	0x2
 11718 0fe6 34       		.byte	0x34
 11719 0fe7 9F       		.byte	0x9f
 11720 0fe8 40000000 		.4byte	.LVL43
 11721 0fec 4E000000 		.4byte	.LVL44
 11722 0ff0 0200     		.2byte	0x2
 11723 0ff2 36       		.byte	0x36
 11724 0ff3 9F       		.byte	0x9f
 11725 0ff4 4E000000 		.4byte	.LVL44
 11726 0ff8 5C000000 		.4byte	.LVL45
 11727 0ffc 0200     		.2byte	0x2
 11728 0ffe 38       		.byte	0x38
 11729 0fff 9F       		.byte	0x9f
 11730 1000 5C000000 		.4byte	.LVL45
 11731 1004 6A000000 		.4byte	.LVL46
 11732 1008 0200     		.2byte	0x2
 11733 100a 3A       		.byte	0x3a
 11734 100b 9F       		.byte	0x9f
 11735 100c 6A000000 		.4byte	.LVL46
 11736 1010 80000000 		.4byte	.LFE49
 11737 1014 0200     		.2byte	0x2
 11738 1016 3C       		.byte	0x3c
 11739 1017 9F       		.byte	0x9f
 11740 1018 00000000 		.4byte	0
 11741 101c 00000000 		.4byte	0
 11742              	.LLST11:
 11743 1020 00000000 		.4byte	.LFB48
 11744 1024 02000000 		.4byte	.LCFI5
 11745 1028 0200     		.2byte	0x2
 11746 102a 7D       		.byte	0x7d
 11747 102b 00       		.sleb128 0
 11748 102c 02000000 		.4byte	.LCFI5
 11749 1030 3C000000 		.4byte	.LFE48
 11750 1034 0200     		.2byte	0x2
 11751 1036 7D       		.byte	0x7d
 11752 1037 08       		.sleb128 8
 11753 1038 00000000 		.4byte	0
ARM GAS  C:\Users\EBANO_~1\AppData\Local\Temp\cchbxRq9.s 			page 226


 11754 103c 00000000 		.4byte	0
 11755              	.LLST12:
 11756 1040 00000000 		.4byte	.LVL26
 11757 1044 0C000000 		.4byte	.LVL27
 11758 1048 0100     		.2byte	0x1
 11759 104a 50       		.byte	0x50
 11760 104b 0C000000 		.4byte	.LVL27
 11761 104f 1E000000 		.4byte	.LVL30
 11762 1053 0400     		.2byte	0x4
 11763 1055 F3       		.byte	0xf3
 11764 1056 01       		.uleb128 0x1
 11765 1057 50       		.byte	0x50
 11766 1058 9F       		.byte	0x9f
 11767 1059 1E000000 		.4byte	.LVL30
 11768 105d 26000000 		.4byte	.LVL32
 11769 1061 0100     		.2byte	0x1
 11770 1063 50       		.byte	0x50
 11771 1064 26000000 		.4byte	.LVL32
 11772 1068 38000000 		.4byte	.LVL34
 11773 106c 0400     		.2byte	0x4
 11774 106e F3       		.byte	0xf3
 11775 106f 01       		.uleb128 0x1
 11776 1070 50       		.byte	0x50
 11777 1071 9F       		.byte	0x9f
 11778 1072 38000000 		.4byte	.LVL34
 11779 1076 3A000000 		.4byte	.LVL35
 11780 107a 0100     		.2byte	0x1
 11781 107c 50       		.byte	0x50
 11782 107d 3A000000 		.4byte	.LVL35
 11783 1081 3C000000 		.4byte	.LFE48
 11784 1085 0400     		.2byte	0x4
 11785 1087 F3       		.byte	0xf3
 11786 1088 01       		.uleb128 0x1
 11787 1089 50       		.byte	0x50
 11788 108a 9F       		.byte	0x9f
 11789 108b 00000000 		.4byte	0
 11790 108f 00000000 		.4byte	0
 11791              	.LLST13:
 11792 1093 00000000 		.4byte	.LVL26
 11793 1097 12000000 		.4byte	.LVL28
 11794 109b 0100     		.2byte	0x1
 11795 109d 51       		.byte	0x51
 11796 109e 12000000 		.4byte	.LVL28
 11797 10a2 1E000000 		.4byte	.LVL30
 11798 10a6 0400     		.2byte	0x4
 11799 10a8 F3       		.byte	0xf3
 11800 10a9 01       		.uleb128 0x1
 11801 10aa 51       		.byte	0x51
 11802 10ab 9F       		.byte	0x9f
 11803 10ac 1E000000 		.4byte	.LVL30
 11804 10b0 20000000 		.4byte	.LVL31
 11805 10b4 0100     		.2byte	0x1
 11806 10b6 51       		.byte	0x51
 11807 10b7 20000000 		.4byte	.LVL31
 11808 10bb 3C000000 		.4byte	.LFE48
 11809 10bf 0400     		.2byte	0x4
 11810 10c1 F3       		.byte	0xf3
ARM GAS  C:\Users\EBANO_~1\AppData\Local\Temp\cchbxRq9.s 			page 227


 11811 10c2 01       		.uleb128 0x1
 11812 10c3 51       		.byte	0x51
 11813 10c4 9F       		.byte	0x9f
 11814 10c5 00000000 		.4byte	0
 11815 10c9 00000000 		.4byte	0
 11816              	.LLST10:
 11817 10cd 00000000 		.4byte	.LVL24
 11818 10d1 08000000 		.4byte	.LVL25
 11819 10d5 0100     		.2byte	0x1
 11820 10d7 50       		.byte	0x50
 11821 10d8 08000000 		.4byte	.LVL25
 11822 10dc 10000000 		.4byte	.LFE47
 11823 10e0 0400     		.2byte	0x4
 11824 10e2 F3       		.byte	0xf3
 11825 10e3 01       		.uleb128 0x1
 11826 10e4 50       		.byte	0x50
 11827 10e5 9F       		.byte	0x9f
 11828 10e6 00000000 		.4byte	0
 11829 10ea 00000000 		.4byte	0
 11830              	.LLST7:
 11831 10ee 00000000 		.4byte	.LFB46
 11832 10f2 02000000 		.4byte	.LCFI3
 11833 10f6 0200     		.2byte	0x2
 11834 10f8 7D       		.byte	0x7d
 11835 10f9 00       		.sleb128 0
 11836 10fa 02000000 		.4byte	.LCFI3
 11837 10fe 04000000 		.4byte	.LCFI4
 11838 1102 0200     		.2byte	0x2
 11839 1104 7D       		.byte	0x7d
 11840 1105 0C       		.sleb128 12
 11841 1106 04000000 		.4byte	.LCFI4
 11842 110a B0000000 		.4byte	.LFE46
 11843 110e 0200     		.2byte	0x2
 11844 1110 7D       		.byte	0x7d
 11845 1111 20       		.sleb128 32
 11846 1112 00000000 		.4byte	0
 11847 1116 00000000 		.4byte	0
 11848              	.LLST8:
 11849 111a 00000000 		.4byte	.LVL13
 11850 111e 2C000000 		.4byte	.LVL14
 11851 1122 0100     		.2byte	0x1
 11852 1124 50       		.byte	0x50
 11853 1125 2C000000 		.4byte	.LVL14
 11854 1129 36000000 		.4byte	.LVL16
 11855 112d 0400     		.2byte	0x4
 11856 112f F3       		.byte	0xf3
 11857 1130 01       		.uleb128 0x1
 11858 1131 50       		.byte	0x50
 11859 1132 9F       		.byte	0x9f
 11860 1133 36000000 		.4byte	.LVL16
 11861 1137 3E000000 		.4byte	.LVL17
 11862 113b 0100     		.2byte	0x1
 11863 113d 50       		.byte	0x50
 11864 113e 3E000000 		.4byte	.LVL17
 11865 1142 82000000 		.4byte	.LVL21
 11866 1146 0400     		.2byte	0x4
 11867 1148 F3       		.byte	0xf3
ARM GAS  C:\Users\EBANO_~1\AppData\Local\Temp\cchbxRq9.s 			page 228


 11868 1149 01       		.uleb128 0x1
 11869 114a 50       		.byte	0x50
 11870 114b 9F       		.byte	0x9f
 11871 114c 82000000 		.4byte	.LVL21
 11872 1150 88000000 		.4byte	.LVL22
 11873 1154 0100     		.2byte	0x1
 11874 1156 50       		.byte	0x50
 11875 1157 88000000 		.4byte	.LVL22
 11876 115b B0000000 		.4byte	.LFE46
 11877 115f 0400     		.2byte	0x4
 11878 1161 F3       		.byte	0xf3
 11879 1162 01       		.uleb128 0x1
 11880 1163 50       		.byte	0x50
 11881 1164 9F       		.byte	0x9f
 11882 1165 00000000 		.4byte	0
 11883 1169 00000000 		.4byte	0
 11884              	.LLST9:
 11885 116d 42000000 		.4byte	.LVL18
 11886 1171 4C000000 		.4byte	.LVL19
 11887 1175 0200     		.2byte	0x2
 11888 1177 30       		.byte	0x30
 11889 1178 9F       		.byte	0x9f
 11890 1179 00000000 		.4byte	0
 11891 117d 00000000 		.4byte	0
 11892              	.LLST5:
 11893 1181 00000000 		.4byte	.LFB45
 11894 1185 04000000 		.4byte	.LCFI2
 11895 1189 0200     		.2byte	0x2
 11896 118b 7D       		.byte	0x7d
 11897 118c 00       		.sleb128 0
 11898 118d 04000000 		.4byte	.LCFI2
 11899 1191 24000000 		.4byte	.LFE45
 11900 1195 0200     		.2byte	0x2
 11901 1197 7D       		.byte	0x7d
 11902 1198 08       		.sleb128 8
 11903 1199 00000000 		.4byte	0
 11904 119d 00000000 		.4byte	0
 11905              	.LLST6:
 11906 11a1 00000000 		.4byte	.LVL10
 11907 11a5 1A000000 		.4byte	.LVL11
 11908 11a9 0100     		.2byte	0x1
 11909 11ab 50       		.byte	0x50
 11910 11ac 1A000000 		.4byte	.LVL11
 11911 11b0 24000000 		.4byte	.LFE45
 11912 11b4 0400     		.2byte	0x4
 11913 11b6 F3       		.byte	0xf3
 11914 11b7 01       		.uleb128 0x1
 11915 11b8 50       		.byte	0x50
 11916 11b9 9F       		.byte	0x9f
 11917 11ba 00000000 		.4byte	0
 11918 11be 00000000 		.4byte	0
 11919              	.LLST0:
 11920 11c2 00000000 		.4byte	.LFB44
 11921 11c6 04000000 		.4byte	.LCFI0
 11922 11ca 0200     		.2byte	0x2
 11923 11cc 7D       		.byte	0x7d
 11924 11cd 00       		.sleb128 0
ARM GAS  C:\Users\EBANO_~1\AppData\Local\Temp\cchbxRq9.s 			page 229


 11925 11ce 04000000 		.4byte	.LCFI0
 11926 11d2 06000000 		.4byte	.LCFI1
 11927 11d6 0200     		.2byte	0x2
 11928 11d8 7D       		.byte	0x7d
 11929 11d9 04       		.sleb128 4
 11930 11da 06000000 		.4byte	.LCFI1
 11931 11de 18010000 		.4byte	.LFE44
 11932 11e2 0200     		.2byte	0x2
 11933 11e4 7D       		.byte	0x7d
 11934 11e5 10       		.sleb128 16
 11935 11e6 00000000 		.4byte	0
 11936 11ea 00000000 		.4byte	0
 11937              	.LLST1:
 11938 11ee 00000000 		.4byte	.LVL0
 11939 11f2 1E000000 		.4byte	.LVL1
 11940 11f6 0100     		.2byte	0x1
 11941 11f8 50       		.byte	0x50
 11942 11f9 1E000000 		.4byte	.LVL1
 11943 11fd 24000000 		.4byte	.LVL2
 11944 1201 0400     		.2byte	0x4
 11945 1203 F3       		.byte	0xf3
 11946 1204 01       		.uleb128 0x1
 11947 1205 50       		.byte	0x50
 11948 1206 9F       		.byte	0x9f
 11949 1207 24000000 		.4byte	.LVL2
 11950 120b 6A000000 		.4byte	.LVL3
 11951 120f 0100     		.2byte	0x1
 11952 1211 50       		.byte	0x50
 11953 1212 6A000000 		.4byte	.LVL3
 11954 1216 7C000000 		.4byte	.LVL5
 11955 121a 0400     		.2byte	0x4
 11956 121c F3       		.byte	0xf3
 11957 121d 01       		.uleb128 0x1
 11958 121e 50       		.byte	0x50
 11959 121f 9F       		.byte	0x9f
 11960 1220 7C000000 		.4byte	.LVL5
 11961 1224 18010000 		.4byte	.LFE44
 11962 1228 0100     		.2byte	0x1
 11963 122a 50       		.byte	0x50
 11964 122b 00000000 		.4byte	0
 11965 122f 00000000 		.4byte	0
 11966              	.LLST2:
 11967 1233 AA000000 		.4byte	.LVL6
 11968 1237 B4000000 		.4byte	.LVL9
 11969 123b 0200     		.2byte	0x2
 11970 123d 30       		.byte	0x30
 11971 123e 9F       		.byte	0x9f
 11972 123f 00000000 		.4byte	0
 11973 1243 00000000 		.4byte	0
 11974              	.LLST3:
 11975 1247 AA000000 		.4byte	.LVL6
 11976 124b B2000000 		.4byte	.LVL8
 11977 124f 0100     		.2byte	0x1
 11978 1251 53       		.byte	0x53
 11979 1252 B2000000 		.4byte	.LVL8
 11980 1256 B4000000 		.4byte	.LVL9
 11981 125a 0300     		.2byte	0x3
ARM GAS  C:\Users\EBANO_~1\AppData\Local\Temp\cchbxRq9.s 			page 230


 11982 125c 73       		.byte	0x73
 11983 125d 01       		.sleb128 1
 11984 125e 9F       		.byte	0x9f
 11985 125f 00000000 		.4byte	0
 11986 1263 00000000 		.4byte	0
 11987              	.LLST4:
 11988 1267 AA000000 		.4byte	.LVL6
 11989 126b B0000000 		.4byte	.LVL7
 11990 126f 0200     		.2byte	0x2
 11991 1271 30       		.byte	0x30
 11992 1272 9F       		.byte	0x9f
 11993 1273 B0000000 		.4byte	.LVL7
 11994 1277 B2000000 		.4byte	.LVL8
 11995 127b 0300     		.2byte	0x3
 11996 127d 73       		.byte	0x73
 11997 127e 7F       		.sleb128 -1
 11998 127f 9F       		.byte	0x9f
 11999 1280 B2000000 		.4byte	.LVL8
 12000 1284 B4000000 		.4byte	.LVL9
 12001 1288 0300     		.2byte	0x3
 12002 128a 73       		.byte	0x73
 12003 128b 00       		.sleb128 0
 12004 128c 9F       		.byte	0x9f
 12005 128d 00000000 		.4byte	0
 12006 1291 00000000 		.4byte	0
 12007              	.LLST56:
 12008 1295 00000000 		.4byte	.LVL191
 12009 1299 02000000 		.4byte	.LVL192
 12010 129d 0100     		.2byte	0x1
 12011 129f 50       		.byte	0x50
 12012 12a0 02000000 		.4byte	.LVL192
 12013 12a4 04000000 		.4byte	.LFE56
 12014 12a8 0400     		.2byte	0x4
 12015 12aa F3       		.byte	0xf3
 12016 12ab 01       		.uleb128 0x1
 12017 12ac 50       		.byte	0x50
 12018 12ad 9F       		.byte	0x9f
 12019 12ae 00000000 		.4byte	0
 12020 12b2 00000000 		.4byte	0
 12021              		.section	.debug_aranges,"",%progbits
 12022 0000 C4000000 		.4byte	0xc4
 12023 0004 0200     		.2byte	0x2
 12024 0006 00000000 		.4byte	.Ldebug_info0
 12025 000a 04       		.byte	0x4
 12026 000b 00       		.byte	0
 12027 000c 0000     		.2byte	0
 12028 000e 0000     		.2byte	0
 12029 0010 00000000 		.4byte	.LFB44
 12030 0014 18010000 		.4byte	.LFE44-.LFB44
 12031 0018 00000000 		.4byte	.LFB45
 12032 001c 24000000 		.4byte	.LFE45-.LFB45
 12033 0020 00000000 		.4byte	.LFB46
 12034 0024 B0000000 		.4byte	.LFE46-.LFB46
 12035 0028 00000000 		.4byte	.LFB47
 12036 002c 10000000 		.4byte	.LFE47-.LFB47
 12037 0030 00000000 		.4byte	.LFB48
 12038 0034 3C000000 		.4byte	.LFE48-.LFB48
ARM GAS  C:\Users\EBANO_~1\AppData\Local\Temp\cchbxRq9.s 			page 231


 12039 0038 00000000 		.4byte	.LFB49
 12040 003c 80000000 		.4byte	.LFE49-.LFB49
 12041 0040 00000000 		.4byte	.LFB50
 12042 0044 34000000 		.4byte	.LFE50-.LFB50
 12043 0048 00000000 		.4byte	.LFB51
 12044 004c 80000000 		.4byte	.LFE51-.LFB51
 12045 0050 00000000 		.4byte	.LFB52
 12046 0054 C8000000 		.4byte	.LFE52-.LFB52
 12047 0058 00000000 		.4byte	.LFB53
 12048 005c D0000000 		.4byte	.LFE53-.LFB53
 12049 0060 00000000 		.4byte	.LFB54
 12050 0064 B8020000 		.4byte	.LFE54-.LFB54
 12051 0068 00000000 		.4byte	.LFB55
 12052 006c 70000000 		.4byte	.LFE55-.LFB55
 12053 0070 00000000 		.4byte	.LFB56
 12054 0074 04000000 		.4byte	.LFE56-.LFB56
 12055 0078 00000000 		.4byte	.LFB57
 12056 007c 06000000 		.4byte	.LFE57-.LFB57
 12057 0080 00000000 		.4byte	.LFB59
 12058 0084 02000000 		.4byte	.LFE59-.LFB59
 12059 0088 00000000 		.4byte	.LFB60
 12060 008c 3C000000 		.4byte	.LFE60-.LFB60
 12061 0090 00000000 		.4byte	.LFB61
 12062 0094 60010000 		.4byte	.LFE61-.LFB61
 12063 0098 00000000 		.4byte	.LFB62
 12064 009c 04000000 		.4byte	.LFE62-.LFB62
 12065 00a0 00000000 		.4byte	.LFB63
 12066 00a4 04000000 		.4byte	.LFE63-.LFB63
 12067 00a8 00000000 		.4byte	.LFB64
 12068 00ac 50000000 		.4byte	.LFE64-.LFB64
 12069 00b0 00000000 		.4byte	.LFB65
 12070 00b4 0E000000 		.4byte	.LFE65-.LFB65
 12071 00b8 00000000 		.4byte	.LFB66
 12072 00bc 38000000 		.4byte	.LFE66-.LFB66
 12073 00c0 00000000 		.4byte	0
 12074 00c4 00000000 		.4byte	0
 12075              		.section	.debug_ranges,"",%progbits
 12076              	.Ldebug_ranges0:
 12077 0000 42000000 		.4byte	.LBB18
 12078 0004 48000000 		.4byte	.LBE18
 12079 0008 4E000000 		.4byte	.LBB19
 12080 000c 5E000000 		.4byte	.LBE19
 12081 0010 00000000 		.4byte	0
 12082 0014 00000000 		.4byte	0
 12083 0018 18000000 		.4byte	.LBB21
 12084 001c 1C000000 		.4byte	.LBE21
 12085 0020 1E000000 		.4byte	.LBB25
 12086 0024 32000000 		.4byte	.LBE25
 12087 0028 6A000000 		.4byte	.LBB26
 12088 002c 80000000 		.4byte	.LBE26
 12089 0030 00000000 		.4byte	0
 12090 0034 00000000 		.4byte	0
 12091 0038 2A000000 		.4byte	.LBB27
 12092 003c 2C000000 		.4byte	.LBE27
 12093 0040 32000000 		.4byte	.LBB33
 12094 0044 34000000 		.4byte	.LBE33
 12095 0048 36000000 		.4byte	.LBB34
ARM GAS  C:\Users\EBANO_~1\AppData\Local\Temp\cchbxRq9.s 			page 232


 12096 004c 3C000000 		.4byte	.LBE34
 12097 0050 40000000 		.4byte	.LBB35
 12098 0054 48000000 		.4byte	.LBE35
 12099 0058 4C000000 		.4byte	.LBB36
 12100 005c 4E000000 		.4byte	.LBE36
 12101 0060 00000000 		.4byte	0
 12102 0064 00000000 		.4byte	0
 12103 0068 32000000 		.4byte	.LBB42
 12104 006c 34000000 		.4byte	.LBE42
 12105 0070 36000000 		.4byte	.LBB43
 12106 0074 3C000000 		.4byte	.LBE43
 12107 0078 6A000000 		.4byte	.LBB44
 12108 007c 6E000000 		.4byte	.LBE44
 12109 0080 70000000 		.4byte	.LBB45
 12110 0084 CA010000 		.4byte	.LBE45
 12111 0088 66020000 		.4byte	.LBB46
 12112 008c 9E020000 		.4byte	.LBE46
 12113 0090 00000000 		.4byte	0
 12114 0094 00000000 		.4byte	0
 12115 0098 02000000 		.4byte	.LBB47
 12116 009c 04000000 		.4byte	.LBE47
 12117 00a0 06000000 		.4byte	.LBB52
 12118 00a4 08000000 		.4byte	.LBE52
 12119 00a8 0C000000 		.4byte	.LBB53
 12120 00ac 22000000 		.4byte	.LBE53
 12121 00b0 50000000 		.4byte	.LBB54
 12122 00b4 5C000000 		.4byte	.LBE54
 12123 00b8 00000000 		.4byte	0
 12124 00bc 00000000 		.4byte	0
 12125 00c0 60000000 		.4byte	.LBB59
 12126 00c4 62000000 		.4byte	.LBE59
 12127 00c8 72000000 		.4byte	.LBB70
 12128 00cc 7A000000 		.4byte	.LBE70
 12129 00d0 80000000 		.4byte	.LBB71
 12130 00d4 F4000000 		.4byte	.LBE71
 12131 00d8 16010000 		.4byte	.LBB72
 12132 00dc 20010000 		.4byte	.LBE72
 12133 00e0 00000000 		.4byte	0
 12134 00e4 00000000 		.4byte	0
 12135 00e8 60000000 		.4byte	.LBB61
 12136 00ec 62000000 		.4byte	.LBE61
 12137 00f0 80000000 		.4byte	.LBB65
 12138 00f4 F4000000 		.4byte	.LBE65
 12139 00f8 16010000 		.4byte	.LBB66
 12140 00fc 20010000 		.4byte	.LBE66
 12141 0100 00000000 		.4byte	0
 12142 0104 00000000 		.4byte	0
 12143 0108 60000000 		.4byte	.LBB62
 12144 010c 62000000 		.4byte	.LBE62
 12145 0110 80000000 		.4byte	.LBB63
 12146 0114 EA000000 		.4byte	.LBE63
 12147 0118 16010000 		.4byte	.LBB64
 12148 011c 20010000 		.4byte	.LBE64
 12149 0120 00000000 		.4byte	0
 12150 0124 00000000 		.4byte	0
 12151 0128 14000000 		.4byte	.LBB73
 12152 012c 16000000 		.4byte	.LBE73
ARM GAS  C:\Users\EBANO_~1\AppData\Local\Temp\cchbxRq9.s 			page 233


 12153 0130 1C000000 		.4byte	.LBB77
 12154 0134 24000000 		.4byte	.LBE77
 12155 0138 2A000000 		.4byte	.LBB78
 12156 013c 30000000 		.4byte	.LBE78
 12157 0140 00000000 		.4byte	0
 12158 0144 00000000 		.4byte	0
 12159 0148 00000000 		.4byte	.LFB44
 12160 014c 18010000 		.4byte	.LFE44
 12161 0150 00000000 		.4byte	.LFB45
 12162 0154 24000000 		.4byte	.LFE45
 12163 0158 00000000 		.4byte	.LFB46
 12164 015c B0000000 		.4byte	.LFE46
 12165 0160 00000000 		.4byte	.LFB47
 12166 0164 10000000 		.4byte	.LFE47
 12167 0168 00000000 		.4byte	.LFB48
 12168 016c 3C000000 		.4byte	.LFE48
 12169 0170 00000000 		.4byte	.LFB49
 12170 0174 80000000 		.4byte	.LFE49
 12171 0178 00000000 		.4byte	.LFB50
 12172 017c 34000000 		.4byte	.LFE50
 12173 0180 00000000 		.4byte	.LFB51
 12174 0184 80000000 		.4byte	.LFE51
 12175 0188 00000000 		.4byte	.LFB52
 12176 018c C8000000 		.4byte	.LFE52
 12177 0190 00000000 		.4byte	.LFB53
 12178 0194 D0000000 		.4byte	.LFE53
 12179 0198 00000000 		.4byte	.LFB54
 12180 019c B8020000 		.4byte	.LFE54
 12181 01a0 00000000 		.4byte	.LFB55
 12182 01a4 70000000 		.4byte	.LFE55
 12183 01a8 00000000 		.4byte	.LFB56
 12184 01ac 04000000 		.4byte	.LFE56
 12185 01b0 00000000 		.4byte	.LFB57
 12186 01b4 06000000 		.4byte	.LFE57
 12187 01b8 00000000 		.4byte	.LFB59
 12188 01bc 02000000 		.4byte	.LFE59
 12189 01c0 00000000 		.4byte	.LFB60
 12190 01c4 3C000000 		.4byte	.LFE60
 12191 01c8 00000000 		.4byte	.LFB61
 12192 01cc 60010000 		.4byte	.LFE61
 12193 01d0 00000000 		.4byte	.LFB62
 12194 01d4 04000000 		.4byte	.LFE62
 12195 01d8 00000000 		.4byte	.LFB63
 12196 01dc 04000000 		.4byte	.LFE63
 12197 01e0 00000000 		.4byte	.LFB64
 12198 01e4 50000000 		.4byte	.LFE64
 12199 01e8 00000000 		.4byte	.LFB65
 12200 01ec 0E000000 		.4byte	.LFE65
 12201 01f0 00000000 		.4byte	.LFB66
 12202 01f4 38000000 		.4byte	.LFE66
 12203 01f8 00000000 		.4byte	0
 12204 01fc 00000000 		.4byte	0
 12205              		.section	.debug_line,"",%progbits
 12206              	.Ldebug_line0:
 12207 0000 B0070000 		.section	.debug_str,"MS",%progbits,1
 12207      0200B303 
 12207      00000201 
ARM GAS  C:\Users\EBANO_~1\AppData\Local\Temp\cchbxRq9.s 			page 234


 12207      FB0E0D00 
 12207      01010101 
 12208              	.LASF216:
 12209 0000 52585F53 		.ascii	"RX_SLOT_WIN_CLASS_C\000"
 12209      4C4F545F 
 12209      57494E5F 
 12209      434C4153 
 12209      535F4300 
 12210              	.LASF415:
 12211 0014 73526567 		.ascii	"sRegionCommonLinkAdrReqVerifyParams\000"
 12211      696F6E43 
 12211      6F6D6D6F 
 12211      6E4C696E 
 12211      6B416472 
 12212              	.LASF478:
 12213 0038 52656769 		.ascii	"RegionCN470LinkAdrReq\000"
 12213      6F6E434E 
 12213      3437304C 
 12213      696E6B41 
 12213      64725265 
 12214              	.LASF266:
 12215 004e 5048595F 		.ascii	"PHY_JOIN_ACCEPT_DELAY1\000"
 12215      4A4F494E 
 12215      5F414343 
 12215      4550545F 
 12215      44454C41 
 12216              	.LASF267:
 12217 0065 5048595F 		.ascii	"PHY_JOIN_ACCEPT_DELAY2\000"
 12217      4A4F494E 
 12217      5F414343 
 12217      4550545F 
 12217      44454C41 
 12218              	.LASF313:
 12219 007c 52667531 		.ascii	"Rfu1Size\000"
 12219      53697A65 
 12219      00
 12220              	.LASF141:
 12221 0085 52657669 		.ascii	"Revision\000"
 12221      73696F6E 
 12221      00
 12222              	.LASF427:
 12223 008e 44617461 		.ascii	"Datarates\000"
 12223      72617465 
 12223      7300
 12224              	.LASF435:
 12225 0098 73526567 		.ascii	"sRegionCN470NvmCtx\000"
 12225      696F6E43 
 12225      4E343730 
 12225      4E766D43 
 12225      747800
 12226              	.LASF1:
 12227 00ab 5F5F7569 		.ascii	"__uint8_t\000"
 12227      6E74385F 
 12227      7400
 12228              	.LASF311:
 12229 00b5 73426561 		.ascii	"sBeaconFormat\000"
 12229      636F6E46 
ARM GAS  C:\Users\EBANO_~1\AppData\Local\Temp\cchbxRq9.s 			page 235


 12229      6F726D61 
 12229      7400
 12230              	.LASF361:
 12231 00c3 5278436F 		.ascii	"RxConfigParams_t\000"
 12231      6E666967 
 12231      50617261 
 12231      6D735F74 
 12231      00
 12232              	.LASF147:
 12233 00d4 5F426F6F 		.ascii	"_Bool\000"
 12233      6C00
 12234              	.LASF79:
 12235 00da 5F6D6273 		.ascii	"_mbstate\000"
 12235      74617465 
 12235      00
 12236              	.LASF506:
 12237 00e3 6368616E 		.ascii	"chanMaskSet\000"
 12237      4D61736B 
 12237      53657400 
 12238              	.LASF58:
 12239 00ef 5F617465 		.ascii	"_atexit\000"
 12239      78697400 
 12240              	.LASF296:
 12241 00f7 5048595F 		.ascii	"PHY_BEACON_FORMAT\000"
 12241      42454143 
 12241      4F4E5F46 
 12241      4F524D41 
 12241      5400
 12242              	.LASF507:
 12243 0109 52656769 		.ascii	"RegionCN470ApplyCFList\000"
 12243      6F6E434E 
 12243      34373041 
 12243      70706C79 
 12243      43464C69 
 12244              	.LASF48:
 12245 0120 5F5F746D 		.ascii	"__tm_mon\000"
 12245      5F6D6F6E 
 12245      00
 12246              	.LASF56:
 12247 0129 5F666E74 		.ascii	"_fntypes\000"
 12247      79706573 
 12247      00
 12248              	.LASF86:
 12249 0132 5F696E63 		.ascii	"_inc\000"
 12249      00
 12250              	.LASF59:
 12251 0137 5F696E64 		.ascii	"_ind\000"
 12251      00
 12252              	.LASF195:
 12253 013c 57726974 		.ascii	"WriteBuffer\000"
 12253      65427566 
 12253      66657200 
 12254              	.LASF170:
 12255 0148 52784572 		.ascii	"RxError\000"
 12255      726F7200 
 12256              	.LASF18:
 12257 0150 75696E74 		.ascii	"uint16_t\000"
ARM GAS  C:\Users\EBANO_~1\AppData\Local\Temp\cchbxRq9.s 			page 236


 12257      31365F74 
 12257      00
 12258              	.LASF196:
 12259 0159 52656164 		.ascii	"ReadBuffer\000"
 12259      42756666 
 12259      657200
 12260              	.LASF430:
 12261 0164 52656769 		.ascii	"RegionCommonRxBeaconSetupParams_t\000"
 12261      6F6E436F 
 12261      6D6D6F6E 
 12261      52784265 
 12261      61636F6E 
 12262              	.LASF65:
 12263 0186 5F666C61 		.ascii	"_flags\000"
 12263      677300
 12264              	.LASF310:
 12265 018d 4368616E 		.ascii	"ChannelsMask_t\000"
 12265      6E656C73 
 12265      4D61736B 
 12265      5F7400
 12266              	.LASF96:
 12267 019c 5F637674 		.ascii	"_cvtlen\000"
 12267      6C656E00 
 12268              	.LASF230:
 12269 01a4 4C4F5241 		.ascii	"LORAMAC_STATUS_NO_NETWORK_JOINED\000"
 12269      4D41435F 
 12269      53544154 
 12269      55535F4E 
 12269      4F5F4E45 
 12270              	.LASF100:
 12271 01c5 5F736967 		.ascii	"_sig_func\000"
 12271      5F66756E 
 12271      6300
 12272              	.LASF370:
 12273 01cf 41647245 		.ascii	"AdrEnabled\000"
 12273      6E61626C 
 12273      656400
 12274              	.LASF283:
 12275 01da 5048595F 		.ascii	"PHY_BEACON_RESERVED\000"
 12275      42454143 
 12275      4F4E5F52 
 12275      45534552 
 12275      56454400 
 12276              	.LASF393:
 12277 01ee 54785469 		.ascii	"TxTimeOnAir\000"
 12277      6D654F6E 
 12277      41697200 
 12278              	.LASF78:
 12279 01fa 5F6C6F63 		.ascii	"_lock\000"
 12279      6B00
 12280              	.LASF74:
 12281 0200 5F6E6275 		.ascii	"_nbuf\000"
 12281      6600
 12282              	.LASF133:
 12283 0206 5F756E75 		.ascii	"_unused\000"
 12283      73656400 
 12284              	.LASF541:
ARM GAS  C:\Users\EBANO_~1\AppData\Local\Temp\cchbxRq9.s 			page 237


 12285 020e 72616E64 		.ascii	"randr\000"
 12285      7200
 12286              	.LASF397:
 12287 0214 4C617374 		.ascii	"LastAggrTx\000"
 12287      41676772 
 12287      547800
 12288              	.LASF398:
 12289 021f 4E657874 		.ascii	"NextChanParams_t\000"
 12289      4368616E 
 12289      50617261 
 12289      6D735F74 
 12289      00
 12290              	.LASF169:
 12291 0230 52785469 		.ascii	"RxTimeout\000"
 12291      6D656F75 
 12291      7400
 12292              	.LASF301:
 12293 023a 50687941 		.ascii	"PhyAttribute_t\000"
 12293      74747269 
 12293      62757465 
 12293      5F7400
 12294              	.LASF167:
 12295 0249 54785469 		.ascii	"TxTimeout\000"
 12295      6D656F75 
 12295      7400
 12296              	.LASF149:
 12297 0253 44437963 		.ascii	"DCycle\000"
 12297      6C6500
 12298              	.LASF355:
 12299 025a 44724F66 		.ascii	"DrOffset\000"
 12299      66736574 
 12299      00
 12300              	.LASF284:
 12301 0263 5048595F 		.ascii	"PHY_BEACON_GUARD\000"
 12301      42454143 
 12301      4F4E5F47 
 12301      55415244 
 12301      00
 12302              	.LASF343:
 12303 0274 44617461 		.ascii	"DatarateParams\000"
 12303      72617465 
 12303      50617261 
 12303      6D7300
 12304              	.LASF142:
 12305 0283 4D696E6F 		.ascii	"Minor\000"
 12305      7200
 12306              	.LASF420:
 12307 0289 4D696E54 		.ascii	"MinTxPower\000"
 12307      78506F77 
 12307      657200
 12308              	.LASF474:
 12309 0294 6E657743 		.ascii	"newChannelReq\000"
 12309      68616E6E 
 12309      656C5265 
 12309      7100
 12310              	.LASF154:
 12311 02a2 42616E64 		.ascii	"Band_t\000"
ARM GAS  C:\Users\EBANO_~1\AppData\Local\Temp\cchbxRq9.s 			page 238


 12311      5F7400
 12312              	.LASF396:
 12313 02a9 41676772 		.ascii	"AggrTimeOff\000"
 12313      54696D65 
 12313      4F666600 
 12314              	.LASF19:
 12315 02b5 696E7433 		.ascii	"int32_t\000"
 12315      325F7400 
 12316              	.LASF111:
 12317 02bd 5F616464 		.ascii	"_add\000"
 12317      00
 12318              	.LASF452:
 12319 02c2 52656769 		.ascii	"RegionCN470ChannelsRemove\000"
 12319      6F6E434E 
 12319      34373043 
 12319      68616E6E 
 12319      656C7352 
 12320              	.LASF476:
 12321 02dc 72785061 		.ascii	"rxParamSetupReq\000"
 12321      72616D53 
 12321      65747570 
 12321      52657100 
 12322              	.LASF161:
 12323 02ec 52465F49 		.ascii	"RF_IDLE\000"
 12323      444C4500 
 12324              	.LASF150:
 12325 02f4 54784D61 		.ascii	"TxMaxPower\000"
 12325      78506F77 
 12325      657200
 12326              	.LASF240:
 12327 02ff 4C4F5241 		.ascii	"LORAMAC_STATUS_CRYPTO_ERROR\000"
 12327      4D41435F 
 12327      53544154 
 12327      55535F43 
 12327      52595054 
 12328              	.LASF379:
 12329 031b 4368616E 		.ascii	"ChannelId\000"
 12329      6E656C49 
 12329      6400
 12330              	.LASF375:
 12331 0325 73527850 		.ascii	"sRxParamSetupReqParams\000"
 12331      6172616D 
 12331      53657475 
 12331      70526571 
 12331      50617261 
 12332              	.LASF512:
 12333 033c 76657269 		.ascii	"verify\000"
 12333      667900
 12334              	.LASF555:
 12335 0343 5F5F6275 		.ascii	"__builtin_memset\000"
 12335      696C7469 
 12335      6E5F6D65 
 12335      6D736574 
 12335      00
 12336              	.LASF67:
 12337 0354 5F6C6266 		.ascii	"_lbfsize\000"
 12337      73697A65 
ARM GAS  C:\Users\EBANO_~1\AppData\Local\Temp\cchbxRq9.s 			page 239


 12337      00
 12338              	.LASF258:
 12339 035d 5048595F 		.ascii	"PHY_DEF_ADR_ACK_LIMIT\000"
 12339      4445465F 
 12339      4144525F 
 12339      41434B5F 
 12339      4C494D49 
 12340              	.LASF174:
 12341 0373 52616469 		.ascii	"Radio_s\000"
 12341      6F5F7300 
 12342              	.LASF548:
 12343 037b 6D656D63 		.ascii	"memcpy1\000"
 12343      70793100 
 12344              	.LASF376:
 12345 0383 52785061 		.ascii	"RxParamSetupReqParams_t\000"
 12345      72616D53 
 12345      65747570 
 12345      52657150 
 12345      6172616D 
 12346              	.LASF77:
 12347 039b 5F646174 		.ascii	"_data\000"
 12347      6100
 12348              	.LASF529:
 12349 03a1 7478506F 		.ascii	"txPowerResult\000"
 12349      77657252 
 12349      6573756C 
 12349      7400
 12350              	.LASF426:
 12351 03af 73526567 		.ascii	"sRegionCommonRxBeaconSetupParams\000"
 12351      696F6E43 
 12351      6F6D6D6F 
 12351      6E527842 
 12351      6561636F 
 12352              	.LASF312:
 12353 03d0 42656163 		.ascii	"BeaconSize\000"
 12353      6F6E5369 
 12353      7A6500
 12354              	.LASF197:
 12355 03db 5365744D 		.ascii	"SetMaxPayloadLength\000"
 12355      61785061 
 12355      796C6F61 
 12355      644C656E 
 12355      67746800 
 12356              	.LASF363:
 12357 03ef 4D617845 		.ascii	"MaxEirp\000"
 12357      69727000 
 12358              	.LASF526:
 12359 03f7 66726571 		.ascii	"freq\000"
 12359      00
 12360              	.LASF156:
 12361 03fc 5F646179 		.ascii	"_daylight\000"
 12361      6C696768 
 12361      7400
 12362              	.LASF418:
 12363 0406 4D696E44 		.ascii	"MinDatarate\000"
 12363      61746172 
 12363      61746500 
ARM GAS  C:\Users\EBANO_~1\AppData\Local\Temp\cchbxRq9.s 			page 240


 12364              	.LASF222:
 12365 0412 654C6F52 		.ascii	"eLoRaMacStatus\000"
 12365      614D6163 
 12365      53746174 
 12365      757300
 12366              	.LASF489:
 12367 0421 70687950 		.ascii	"phyParam\000"
 12367      6172616D 
 12367      00
 12368              	.LASF134:
 12369 042a 5F5F6C6F 		.ascii	"__lock\000"
 12369      636B00
 12370              	.LASF81:
 12371 0431 5F726565 		.ascii	"_reent\000"
 12371      6E7400
 12372              	.LASF234:
 12373 0438 4C4F5241 		.ascii	"LORAMAC_STATUS_DUTYCYCLE_RESTRICTED\000"
 12373      4D41435F 
 12373      53544154 
 12373      55535F44 
 12373      55545943 
 12374              	.LASF327:
 12375 045c 47657450 		.ascii	"GetPhyParams_t\000"
 12375      68795061 
 12375      72616D73 
 12375      5F7400
 12376              	.LASF189:
 12377 046b 5374616E 		.ascii	"Standby\000"
 12377      64627900 
 12378              	.LASF495:
 12379 0473 70687944 		.ascii	"phyDr\000"
 12379      7200
 12380              	.LASF411:
 12381 0479 4E625265 		.ascii	"NbRep\000"
 12381      7000
 12382              	.LASF102:
 12383 047f 5F5F7366 		.ascii	"__sf\000"
 12383      00
 12384              	.LASF62:
 12385 0484 5F626173 		.ascii	"_base\000"
 12385      6500
 12386              	.LASF193:
 12387 048a 57726974 		.ascii	"Write\000"
 12387      6500
 12388              	.LASF120:
 12389 0490 5F6D6274 		.ascii	"_mbtowc_state\000"
 12389      6F77635F 
 12389      73746174 
 12389      6500
 12390              	.LASF306:
 12391 049e 496E6974 		.ascii	"InitType_t\000"
 12391      54797065 
 12391      5F7400
 12392              	.LASF443:
 12393 04a9 64617461 		.ascii	"datarate\000"
 12393      72617465 
 12393      00
ARM GAS  C:\Users\EBANO_~1\AppData\Local\Temp\cchbxRq9.s 			page 241


 12394              	.LASF421:
 12395 04b2 4D617854 		.ascii	"MaxTxPower\000"
 12395      78506F77 
 12395      657200
 12396              	.LASF152:
 12397 04bd 4C617374 		.ascii	"LastTxDoneTime\000"
 12397      5478446F 
 12397      6E655469 
 12397      6D6500
 12398              	.LASF194:
 12399 04cc 52656164 		.ascii	"Read\000"
 12399      00
 12400              	.LASF43:
 12401 04d1 5F5F746D 		.ascii	"__tm\000"
 12401      00
 12402              	.LASF544:
 12403 04d6 52656769 		.ascii	"RegionCommonParseLinkAdrReq\000"
 12403      6F6E436F 
 12403      6D6D6F6E 
 12403      50617273 
 12403      654C696E 
 12404              	.LASF456:
 12405 04f2 52656769 		.ascii	"RegionCN470NextChannel\000"
 12405      6F6E434E 
 12405      3437304E 
 12405      65787443 
 12405      68616E6E 
 12406              	.LASF475:
 12407 0509 52656769 		.ascii	"RegionCN470RxParamSetupReq\000"
 12407      6F6E434E 
 12407      34373052 
 12407      78506172 
 12407      616D5365 
 12408              	.LASF51:
 12409 0524 5F5F746D 		.ascii	"__tm_yday\000"
 12409      5F796461 
 12409      7900
 12410              	.LASF519:
 12411 052e 7478446F 		.ascii	"txDone\000"
 12411      6E6500
 12412              	.LASF254:
 12413 0535 5048595F 		.ascii	"PHY_RX_DR\000"
 12413      52585F44 
 12413      5200
 12414              	.LASF470:
 12415 053f 74797065 		.ascii	"type\000"
 12415      00
 12416              	.LASF399:
 12417 0544 73436861 		.ascii	"sChannelAddParams\000"
 12417      6E6E656C 
 12417      41646450 
 12417      6172616D 
 12417      7300
 12418              	.LASF27:
 12419 0556 5F4C4F43 		.ascii	"_LOCK_T\000"
 12419      4B5F5400 
 12420              	.LASF211:
ARM GAS  C:\Users\EBANO_~1\AppData\Local\Temp\cchbxRq9.s 			page 242


 12421 055e 44725261 		.ascii	"DrRange\000"
 12421      6E676500 
 12422              	.LASF292:
 12423 0566 5048595F 		.ascii	"PHY_PING_SLOT_SYMBOL_TO_EXPANSION_FACTOR\000"
 12423      50494E47 
 12423      5F534C4F 
 12423      545F5359 
 12423      4D424F4C 
 12424              	.LASF520:
 12425 058f 52656769 		.ascii	"RegionCN470NewChannelReq\000"
 12425      6F6E434E 
 12425      3437304E 
 12425      65774368 
 12425      616E6E65 
 12426              	.LASF516:
 12427 05a8 52656769 		.ascii	"RegionCN470InitDefaults\000"
 12427      6F6E434E 
 12427      34373049 
 12427      6E697444 
 12427      65666175 
 12428              	.LASF201:
 12429 05c0 5278426F 		.ascii	"RxBoosted\000"
 12429      6F737465 
 12429      6400
 12430              	.LASF4:
 12431 05ca 5F5F696E 		.ascii	"__int16_t\000"
 12431      7431365F 
 12431      7400
 12432              	.LASF508:
 12433 05d4 6170706C 		.ascii	"applyCFList\000"
 12433      7943464C 
 12433      69737400 
 12434              	.LASF6:
 12435 05e0 5F5F7569 		.ascii	"__uint16_t\000"
 12435      6E743136 
 12435      5F7400
 12436              	.LASF270:
 12437 05eb 5048595F 		.ascii	"PHY_DEF_DR1_OFFSET\000"
 12437      4445465F 
 12437      4452315F 
 12437      4F464653 
 12437      455400
 12438              	.LASF112:
 12439 05fe 5F756E75 		.ascii	"_unused_rand\000"
 12439      7365645F 
 12439      72616E64 
 12439      00
 12440              	.LASF339:
 12441 060b 73446174 		.ascii	"sDatarateParams\000"
 12441      61726174 
 12441      65506172 
 12441      616D7300 
 12442              	.LASF274:
 12443 061b 5048595F 		.ascii	"PHY_CHANNELS_DEFAULT_MASK\000"
 12443      4348414E 
 12443      4E454C53 
 12443      5F444546 
ARM GAS  C:\Users\EBANO_~1\AppData\Local\Temp\cchbxRq9.s 			page 243


 12443      41554C54 
 12444              	.LASF446:
 12445 0635 636F6E74 		.ascii	"continuousWave\000"
 12445      696E756F 
 12445      75735761 
 12445      766500
 12446              	.LASF449:
 12447 0644 70687954 		.ascii	"phyTxPower\000"
 12447      78506F77 
 12447      657200
 12448              	.LASF406:
 12449 064f 73527842 		.ascii	"sRxBeaconSetupParams\000"
 12449      6561636F 
 12449      6E536574 
 12449      75705061 
 12449      72616D73 
 12450              	.LASF465:
 12451 0664 52656769 		.ascii	"RegionCN470CalcBackOff\000"
 12451      6F6E434E 
 12451      34373043 
 12451      616C6342 
 12451      61636B4F 
 12452              	.LASF357:
 12453 067b 57696E64 		.ascii	"WindowOffset\000"
 12453      6F774F66 
 12453      66736574 
 12453      00
 12454              	.LASF285:
 12455 0688 5048595F 		.ascii	"PHY_BEACON_WINDOW\000"
 12455      42454143 
 12455      4F4E5F57 
 12455      494E444F 
 12455      5700
 12456              	.LASF93:
 12457 069a 5F726573 		.ascii	"_result_k\000"
 12457      756C745F 
 12457      6B00
 12458              	.LASF85:
 12459 06a4 5F737464 		.ascii	"_stderr\000"
 12459      65727200 
 12460              	.LASF92:
 12461 06ac 5F726573 		.ascii	"_result\000"
 12461      756C7400 
 12462              	.LASF428:
 12463 06b4 42656163 		.ascii	"BeaconDatarate\000"
 12463      6F6E4461 
 12463      74617261 
 12463      746500
 12464              	.LASF55:
 12465 06c3 5F64736F 		.ascii	"_dso_handle\000"
 12465      5F68616E 
 12465      646C6500 
 12466              	.LASF389:
 12467 06cf 7343616C 		.ascii	"sCalcBackOffParams\000"
 12467      63426163 
 12467      6B4F6666 
 12467      50617261 
ARM GAS  C:\Users\EBANO_~1\AppData\Local\Temp\cchbxRq9.s 			page 244


 12467      6D7300
 12468              	.LASF50:
 12469 06e2 5F5F746D 		.ascii	"__tm_wday\000"
 12469      5F776461 
 12469      7900
 12470              	.LASF52:
 12471 06ec 5F5F746D 		.ascii	"__tm_isdst\000"
 12471      5F697364 
 12471      737400
 12472              	.LASF462:
 12473 06f7 64656C61 		.ascii	"delayTx\000"
 12473      79547800 
 12474              	.LASF543:
 12475 06ff 52656769 		.ascii	"RegionCommonChanMaskCopy\000"
 12475      6F6E436F 
 12475      6D6D6F6E 
 12475      4368616E 
 12475      4D61736B 
 12476              	.LASF231:
 12477 0718 4C4F5241 		.ascii	"LORAMAC_STATUS_LENGTH_ERROR\000"
 12477      4D41435F 
 12477      53544154 
 12477      55535F4C 
 12477      454E4754 
 12478              	.LASF153:
 12479 0734 54696D65 		.ascii	"TimeOff\000"
 12479      4F666600 
 12480              	.LASF3:
 12481 073c 756E7369 		.ascii	"unsigned char\000"
 12481      676E6564 
 12481      20636861 
 12481      7200
 12482              	.LASF84:
 12483 074a 5F737464 		.ascii	"_stdout\000"
 12483      6F757400 
 12484              	.LASF336:
 12485 0752 73476574 		.ascii	"sGetNvmCtxParams\000"
 12485      4E766D43 
 12485      74785061 
 12485      72616D73 
 12485      00
 12486              	.LASF454:
 12487 0763 52656769 		.ascii	"RegionCN470ChannelAdd\000"
 12487      6F6E434E 
 12487      34373043 
 12487      68616E6E 
 12487      656C4164 
 12488              	.LASF127:
 12489 0779 5F6D6273 		.ascii	"_mbsrtowcs_state\000"
 12489      72746F77 
 12489      63735F73 
 12489      74617465 
 12489      00
 12490              	.LASF41:
 12491 078a 5F776473 		.ascii	"_wds\000"
 12491      00
 12492              	.LASF207:
ARM GAS  C:\Users\EBANO_~1\AppData\Local\Temp\cchbxRq9.s 			page 245


 12493 078f 44725261 		.ascii	"DrRange_t\000"
 12493      6E67655F 
 12493      7400
 12494              	.LASF220:
 12495 0799 666C6F61 		.ascii	"float\000"
 12495      7400
 12496              	.LASF552:
 12497 079f 443A5C67 		.ascii	"D:\\git_pessoal\\keil_gcc\\STM32CubeExpansion_LRWAN"
 12497      69745F70 
 12497      6573736F 
 12497      616C5C6B 
 12497      65696C5F 
 12498 07cf 5F56312E 		.ascii	"_V1.2.1\\Projects\\B-L072Z-LRWAN1\\Applications\\Lo"
 12498      322E315C 
 12498      50726F6A 
 12498      65637473 
 12498      5C422D4C 
 12499 07fe 52615C45 		.ascii	"Ra\\End_Node\\MDK-ARM\000"
 12499      6E645F4E 
 12499      6F64655C 
 12499      4D444B2D 
 12499      41524D00 
 12500              	.LASF271:
 12501 0812 5048595F 		.ascii	"PHY_DEF_RX2_FREQUENCY\000"
 12501      4445465F 
 12501      5258325F 
 12501      46524551 
 12501      55454E43 
 12502              	.LASF323:
 12503 0828 41747472 		.ascii	"Attribute\000"
 12503      69627574 
 12503      6500
 12504              	.LASF247:
 12505 0832 65506879 		.ascii	"ePhyAttribute\000"
 12505      41747472 
 12505      69627574 
 12505      6500
 12506              	.LASF63:
 12507 0840 5F73697A 		.ascii	"_size\000"
 12507      6500
 12508              	.LASF368:
 12509 0846 56657273 		.ascii	"Version\000"
 12509      696F6E00 
 12510              	.LASF70:
 12511 084e 5F777269 		.ascii	"_write\000"
 12511      746500
 12512              	.LASF385:
 12513 0855 65416C74 		.ascii	"eAlternateDrType\000"
 12513      65726E61 
 12513      74654472 
 12513      54797065 
 12513      00
 12514              	.LASF412:
 12515 0866 43684D61 		.ascii	"ChMaskCtrl\000"
 12515      736B4374 
 12515      726C00
 12516              	.LASF176:
ARM GAS  C:\Users\EBANO_~1\AppData\Local\Temp\cchbxRq9.s 			page 246


 12517 0871 496F4465 		.ascii	"IoDeInit\000"
 12517      496E6974 
 12517      00
 12518              	.LASF179:
 12519 087a 5365744D 		.ascii	"SetModem\000"
 12519      6F64656D 
 12519      00
 12520              	.LASF360:
 12521 0883 5278536C 		.ascii	"RxSlot\000"
 12521      6F7400
 12522              	.LASF226:
 12523 088a 4C4F5241 		.ascii	"LORAMAC_STATUS_PARAMETER_INVALID\000"
 12523      4D41435F 
 12523      53544154 
 12523      55535F50 
 12523      4152414D 
 12524              	.LASF419:
 12525 08ab 4D617844 		.ascii	"MaxDatarate\000"
 12525      61746172 
 12525      61746500 
 12526              	.LASF402:
 12527 08b7 4368616E 		.ascii	"ChannelRemoveParams_t\000"
 12527      6E656C52 
 12527      656D6F76 
 12527      65506172 
 12527      616D735F 
 12528              	.LASF166:
 12529 08cd 5478446F 		.ascii	"TxDone\000"
 12529      6E6500
 12530              	.LASF524:
 12531 08d4 436F756E 		.ascii	"CountNbOfEnabledChannels\000"
 12531      744E624F 
 12531      66456E61 
 12531      626C6564 
 12531      4368616E 
 12532              	.LASF49:
 12533 08ed 5F5F746D 		.ascii	"__tm_year\000"
 12533      5F796561 
 12533      7200
 12534              	.LASF206:
 12535 08f7 75447252 		.ascii	"uDrRange\000"
 12535      616E6765 
 12535      00
 12536              	.LASF212:
 12537 0900 42616E64 		.ascii	"Band\000"
 12537      00
 12538              	.LASF367:
 12539 0905 734C696E 		.ascii	"sLinkAdrReqParams\000"
 12539      6B416472 
 12539      52657150 
 12539      6172616D 
 12539      7300
 12540              	.LASF356:
 12541 0917 57696E64 		.ascii	"WindowTimeout\000"
 12541      6F775469 
 12541      6D656F75 
 12541      7400
ARM GAS  C:\Users\EBANO_~1\AppData\Local\Temp\cchbxRq9.s 			page 247


 12542              	.LASF509:
 12543 0925 63684D61 		.ascii	"chMaskItr\000"
 12543      736B4974 
 12543      7200
 12544              	.LASF203:
 12545 092f 52616469 		.ascii	"Radio\000"
 12545      6F00
 12546              	.LASF550:
 12547 0935 474E5520 		.ascii	"GNU C11 7.3.1 20180622 (release) [ARM/embedded-7-br"
 12547      43313120 
 12547      372E332E 
 12547      31203230 
 12547      31383036 
 12548 0968 616E6368 		.ascii	"anch revision 261907] -mcpu=cortex-m0plus -mthumb -"
 12548      20726576 
 12548      6973696F 
 12548      6E203236 
 12548      31393037 
 12549 099b 6D666C6F 		.ascii	"mfloat-abi=soft -gdwarf-2 -O3 -ffunction-sections\000"
 12549      61742D61 
 12549      62693D73 
 12549      6F667420 
 12549      2D676477 
 12550              	.LASF110:
 12551 09cd 5F6D756C 		.ascii	"_mult\000"
 12551      7400
 12552              	.LASF505:
 12553 09d3 52656769 		.ascii	"RegionCN470ChanMaskSet\000"
 12553      6F6E434E 
 12553      34373043 
 12553      68616E4D 
 12553      61736B53 
 12554              	.LASF528:
 12555 09ea 6D617842 		.ascii	"maxBandTxPower\000"
 12555      616E6454 
 12555      78506F77 
 12555      657200
 12556              	.LASF471:
 12557 09f9 52656769 		.ascii	"RegionCN470TxParamSetupReq\000"
 12557      6F6E434E 
 12557      34373054 
 12557      78506172 
 12557      616D5365 
 12558              	.LASF190:
 12559 0a14 53746172 		.ascii	"StartCad\000"
 12559      74436164 
 12559      00
 12560              	.LASF377:
 12561 0a1d 734E6577 		.ascii	"sNewChannelReqParams\000"
 12561      4368616E 
 12561      6E656C52 
 12561      65715061 
 12561      72616D73 
 12562              	.LASF125:
 12563 0a32 5F6D6272 		.ascii	"_mbrlen_state\000"
 12563      6C656E5F 
 12563      73746174 
ARM GAS  C:\Users\EBANO_~1\AppData\Local\Temp\cchbxRq9.s 			page 248


 12563      6500
 12564              	.LASF502:
 12565 0a40 7278436F 		.ascii	"rxConfigParams\000"
 12565      6E666967 
 12565      50617261 
 12565      6D7300
 12566              	.LASF459:
 12567 0a4f 74696D65 		.ascii	"time\000"
 12567      00
 12568              	.LASF538:
 12569 0a54 52656769 		.ascii	"RegionCommonCountChannels\000"
 12569      6F6E436F 
 12569      6D6D6F6E 
 12569      436F756E 
 12569      74436861 
 12570              	.LASF241:
 12571 0a6e 4C4F5241 		.ascii	"LORAMAC_STATUS_FCNT_HANDLER_ERROR\000"
 12571      4D41435F 
 12571      53544154 
 12571      55535F46 
 12571      434E545F 
 12572              	.LASF380:
 12573 0a90 4E657743 		.ascii	"NewChannelReqParams_t\000"
 12573      68616E6E 
 12573      656C5265 
 12573      71506172 
 12573      616D735F 
 12574              	.LASF168:
 12575 0aa6 5278446F 		.ascii	"RxDone\000"
 12575      6E6500
 12576              	.LASF83:
 12577 0aad 5F737464 		.ascii	"_stdin\000"
 12577      696E00
 12578              	.LASF248:
 12579 0ab4 5048595F 		.ascii	"PHY_MIN_RX_DR\000"
 12579      4D494E5F 
 12579      52585F44 
 12579      5200
 12580              	.LASF132:
 12581 0ac2 5F6E6D61 		.ascii	"_nmalloc\000"
 12581      6C6C6F63 
 12581      00
 12582              	.LASF337:
 12583 0acb 6E766D43 		.ascii	"nvmCtxSize\000"
 12583      74785369 
 12583      7A6500
 12584              	.LASF182:
 12585 0ad6 52616E64 		.ascii	"Random\000"
 12585      6F6D00
 12586              	.LASF404:
 12587 0add 54696D65 		.ascii	"Timeout\000"
 12587      6F757400 
 12588              	.LASF334:
 12589 0ae5 54797065 		.ascii	"Type\000"
 12589      00
 12590              	.LASF468:
 12591 0aea 52656769 		.ascii	"RegionCN470AlternateDr\000"
ARM GAS  C:\Users\EBANO_~1\AppData\Local\Temp\cchbxRq9.s 			page 249


 12591      6F6E434E 
 12591      34373041 
 12591      6C746572 
 12591      6E617465 
 12592              	.LASF371:
 12593 0b01 43757272 		.ascii	"CurrentDatarate\000"
 12593      656E7444 
 12593      61746172 
 12593      61746500 
 12594              	.LASF346:
 12595 0b11 5061796C 		.ascii	"Payload\000"
 12595      6F616400 
 12596              	.LASF263:
 12597 0b19 5048595F 		.ascii	"PHY_MAX_RX_WINDOW\000"
 12597      4D41585F 
 12597      52585F57 
 12597      494E444F 
 12597      5700
 12598              	.LASF28:
 12599 0b2b 5F6F6666 		.ascii	"_off_t\000"
 12599      5F7400
 12600              	.LASF140:
 12601 0b32 56657273 		.ascii	"Version_s\000"
 12601      696F6E5F 
 12601      7300
 12602              	.LASF146:
 12603 0b3c 56657273 		.ascii	"Version_t\000"
 12603      696F6E5F 
 12603      7400
 12604              	.LASF205:
 12605 0b46 56657273 		.ascii	"Version_u\000"
 12605      696F6E5F 
 12605      7500
 12606              	.LASF531:
 12607 0b50 6472496E 		.ascii	"drIndex\000"
 12607      64657800 
 12608              	.LASF25:
 12609 0b58 73697A65 		.ascii	"size_t\000"
 12609      5F7400
 12610              	.LASF115:
 12611 0b5f 5F6C6F63 		.ascii	"_localtime_buf\000"
 12611      616C7469 
 12611      6D655F62 
 12611      756600
 12612              	.LASF33:
 12613 0b6e 5F5F636F 		.ascii	"__count\000"
 12613      756E7400 
 12614              	.LASF16:
 12615 0b76 75696E74 		.ascii	"uint8_t\000"
 12615      385F7400 
 12616              	.LASF290:
 12617 0b7e 5048595F 		.ascii	"PHY_PING_SLOT_SYMBOL_TO_EXPANSION_MAX\000"
 12617      50494E47 
 12617      5F534C4F 
 12617      545F5359 
 12617      4D424F4C 
 12618              	.LASF298:
ARM GAS  C:\Users\EBANO_~1\AppData\Local\Temp\cchbxRq9.s 			page 250


 12619 0ba4 5048595F 		.ascii	"PHY_BEACON_CHANNEL_STEPWIDTH\000"
 12619      42454143 
 12619      4F4E5F43 
 12619      48414E4E 
 12619      454C5F53 
 12620              	.LASF445:
 12621 0bc1 52656769 		.ascii	"RegionCN470SetContinuousWave\000"
 12621      6F6E434E 
 12621      34373053 
 12621      6574436F 
 12621      6E74696E 
 12622              	.LASF148:
 12623 0bde 7342616E 		.ascii	"sBand\000"
 12623      6400
 12624              	.LASF249:
 12625 0be4 5048595F 		.ascii	"PHY_MIN_TX_DR\000"
 12625      4D494E5F 
 12625      54585F44 
 12625      5200
 12626              	.LASF540:
 12627 0bf2 52656769 		.ascii	"RegionCommonUpdateBandTimeOff\000"
 12627      6F6E436F 
 12627      6D6D6F6E 
 12627      55706461 
 12627      74654261 
 12628              	.LASF288:
 12629 0c10 5048595F 		.ascii	"PHY_BEACON_SYMBOL_TO_DEFAULT\000"
 12629      42454143 
 12629      4F4E5F53 
 12629      594D424F 
 12629      4C5F544F 
 12630              	.LASF221:
 12631 0c2d 654C6F52 		.ascii	"eLoRaMacRxSlot\000"
 12631      614D6163 
 12631      5278536C 
 12631      6F7400
 12632              	.LASF97:
 12633 0c3c 5F637674 		.ascii	"_cvtbuf\000"
 12633      62756600 
 12634              	.LASF414:
 12635 0c44 52656769 		.ascii	"RegionCommonLinkAdrParams_t\000"
 12635      6F6E436F 
 12635      6D6D6F6E 
 12635      4C696E6B 
 12635      41647250 
 12636              	.LASF335:
 12637 0c60 496E6974 		.ascii	"InitDefaultsParams_t\000"
 12637      44656661 
 12637      756C7473 
 12637      50617261 
 12637      6D735F74 
 12638              	.LASF417:
 12639 0c75 4E624368 		.ascii	"NbChannels\000"
 12639      616E6E65 
 12639      6C7300
 12640              	.LASF358:
 12641 0c80 52657065 		.ascii	"RepeaterSupport\000"
ARM GAS  C:\Users\EBANO_~1\AppData\Local\Temp\cchbxRq9.s 			page 251


 12641      61746572 
 12641      53757070 
 12641      6F727400 
 12642              	.LASF218:
 12643 0c90 52585F53 		.ascii	"RX_SLOT_WIN_MULTICAST_SLOT\000"
 12643      4C4F545F 
 12643      57494E5F 
 12643      4D554C54 
 12643      49434153 
 12644              	.LASF202:
 12645 0cab 53657452 		.ascii	"SetRxDutyCycle\000"
 12645      78447574 
 12645      79437963 
 12645      6C6500
 12646              	.LASF486:
 12647 0cba 62797465 		.ascii	"bytesProcessed\000"
 12647      7350726F 
 12647      63657373 
 12647      656400
 12648              	.LASF32:
 12649 0cc9 5F5F7763 		.ascii	"__wchb\000"
 12649      686200
 12650              	.LASF126:
 12651 0cd0 5F6D6272 		.ascii	"_mbrtowc_state\000"
 12651      746F7763 
 12651      5F737461 
 12651      746500
 12652              	.LASF46:
 12653 0cdf 5F5F746D 		.ascii	"__tm_hour\000"
 12653      5F686F75 
 12653      7200
 12654              	.LASF158:
 12655 0ce9 4D4F4445 		.ascii	"MODEM_FSK\000"
 12655      4D5F4653 
 12655      4B00
 12656              	.LASF466:
 12657 0cf3 63616C63 		.ascii	"calcBackOff\000"
 12657      4261636B 
 12657      4F666600 
 12658              	.LASF348:
 12659 0cff 4170706C 		.ascii	"ApplyCFListParams_t\000"
 12659      7943464C 
 12659      69737450 
 12659      6172616D 
 12659      735F7400 
 12660              	.LASF260:
 12661 0d13 5048595F 		.ascii	"PHY_MAX_PAYLOAD\000"
 12661      4D41585F 
 12661      5041594C 
 12661      4F414400 
 12662              	.LASF30:
 12663 0d23 77696E74 		.ascii	"wint_t\000"
 12663      5F7400
 12664              	.LASF432:
 12665 0d2a 44617461 		.ascii	"DataratesCN470\000"
 12665      72617465 
 12665      73434E34 
ARM GAS  C:\Users\EBANO_~1\AppData\Local\Temp\cchbxRq9.s 			page 252


 12665      373000
 12666              	.LASF98:
 12667 0d39 5F6E6577 		.ascii	"_new\000"
 12667      00
 12668              	.LASF188:
 12669 0d3e 536C6565 		.ascii	"Sleep\000"
 12669      7000
 12670              	.LASF345:
 12671 0d44 73417070 		.ascii	"sApplyCFListParams\000"
 12671      6C794346 
 12671      4C697374 
 12671      50617261 
 12671      6D7300
 12672              	.LASF106:
 12673 0d57 5F6E696F 		.ascii	"_niobs\000"
 12673      627300
 12674              	.LASF322:
 12675 0d5e 73476574 		.ascii	"sGetPhyParams\000"
 12675      50687950 
 12675      6172616D 
 12675      7300
 12676              	.LASF242:
 12677 0d6c 4C4F5241 		.ascii	"LORAMAC_STATUS_MAC_COMMAD_ERROR\000"
 12677      4D41435F 
 12677      53544154 
 12677      55535F4D 
 12677      41435F43 
 12678              	.LASF160:
 12679 0d8c 52616469 		.ascii	"RadioModems_t\000"
 12679      6F4D6F64 
 12679      656D735F 
 12679      7400
 12680              	.LASF319:
 12681 0d9a 4368616E 		.ascii	"Channels\000"
 12681      6E656C73 
 12681      00
 12682              	.LASF331:
 12683 0da3 53657442 		.ascii	"SetBandTxDoneParams_t\000"
 12683      616E6454 
 12683      78446F6E 
 12683      65506172 
 12683      616D735F 
 12684              	.LASF460:
 12685 0db9 61676772 		.ascii	"aggregatedTimeOff\000"
 12685      65676174 
 12685      65645469 
 12685      6D654F66 
 12685      6600
 12686              	.LASF82:
 12687 0dcb 5F657272 		.ascii	"_errno\000"
 12687      6E6F00
 12688              	.LASF287:
 12689 0dd2 5048595F 		.ascii	"PHY_PING_SLOT_WINDOW\000"
 12689      50494E47 
 12689      5F534C4F 
 12689      545F5749 
 12689      4E444F57 
ARM GAS  C:\Users\EBANO_~1\AppData\Local\Temp\cchbxRq9.s 			page 253


 12690              	.LASF413:
 12691 0de7 43684D61 		.ascii	"ChMask\000"
 12691      736B00
 12692              	.LASF47:
 12693 0dee 5F5F746D 		.ascii	"__tm_mday\000"
 12693      5F6D6461 
 12693      7900
 12694              	.LASF54:
 12695 0df8 5F666E61 		.ascii	"_fnargs\000"
 12695      72677300 
 12696              	.LASF303:
 12697 0e00 494E4954 		.ascii	"INIT_TYPE_INIT\000"
 12697      5F545950 
 12697      455F494E 
 12697      495400
 12698              	.LASF255:
 12699 0e0f 5048595F 		.ascii	"PHY_MAX_TX_POWER\000"
 12699      4D41585F 
 12699      54585F50 
 12699      4F574552 
 12699      00
 12700              	.LASF439:
 12701 0e20 6F757444 		.ascii	"outDr\000"
 12701      7200
 12702              	.LASF281:
 12703 0e26 5048595F 		.ascii	"PHY_NEXT_LOWER_TX_DR\000"
 12703      4E455854 
 12703      5F4C4F57 
 12703      45525F54 
 12703      585F4452 
 12704              	.LASF533:
 12705 0e3b 6D696E44 		.ascii	"minDr\000"
 12705      7200
 12706              	.LASF278:
 12707 0e41 5048595F 		.ascii	"PHY_DEF_DOWNLINK_DWELL_TIME\000"
 12707      4445465F 
 12707      444F574E 
 12707      4C494E4B 
 12707      5F445745 
 12708              	.LASF392:
 12709 0e5d 456C6170 		.ascii	"ElapsedTime\000"
 12709      73656454 
 12709      696D6500 
 12710              	.LASF289:
 12711 0e69 5048595F 		.ascii	"PHY_BEACON_SYMBOL_TO_EXPANSION_MAX\000"
 12711      42454143 
 12711      4F4E5F53 
 12711      594D424F 
 12711      4C5F544F 
 12712              	.LASF38:
 12713 0e8c 5F6E6578 		.ascii	"_next\000"
 12713      7400
 12714              	.LASF171:
 12715 0e92 46687373 		.ascii	"FhssChangeChannel\000"
 12715      4368616E 
 12715      67654368 
 12715      616E6E65 
ARM GAS  C:\Users\EBANO_~1\AppData\Local\Temp\cchbxRq9.s 			page 254


 12715      6C00
 12716              	.LASF483:
 12717 0ea4 6E624279 		.ascii	"nbBytesParsed\000"
 12717      74657350 
 12717      61727365 
 12717      6400
 12718              	.LASF515:
 12719 0eb2 70617261 		.ascii	"params\000"
 12719      6D7300
 12720              	.LASF123:
 12721 0eb9 5F736967 		.ascii	"_signal_buf\000"
 12721      6E616C5F 
 12721      62756600 
 12722              	.LASF68:
 12723 0ec5 5F636F6F 		.ascii	"_cookie\000"
 12723      6B696500 
 12724              	.LASF272:
 12725 0ecd 5048595F 		.ascii	"PHY_DEF_RX2_DR\000"
 12725      4445465F 
 12725      5258325F 
 12725      445200
 12726              	.LASF532:
 12727 0edc 4765744E 		.ascii	"GetNextLowerTxDr\000"
 12727      6578744C 
 12727      6F776572 
 12727      54784472 
 12727      00
 12728              	.LASF408:
 12729 0eed 52785469 		.ascii	"RxTime\000"
 12729      6D6500
 12730              	.LASF264:
 12731 0ef4 5048595F 		.ascii	"PHY_RECEIVE_DELAY1\000"
 12731      52454345 
 12731      4956455F 
 12731      44454C41 
 12731      593100
 12732              	.LASF265:
 12733 0f07 5048595F 		.ascii	"PHY_RECEIVE_DELAY2\000"
 12733      52454345 
 12733      4956455F 
 12733      44454C41 
 12733      593200
 12734              	.LASF157:
 12735 0f1a 5F747A6E 		.ascii	"_tzname\000"
 12735      616D6500 
 12736              	.LASF352:
 12737 0f22 4368616E 		.ascii	"ChanMaskSetParams_t\000"
 12737      4D61736B 
 12737      53657450 
 12737      6172616D 
 12737      735F7400 
 12738              	.LASF232:
 12739 0f36 4C4F5241 		.ascii	"LORAMAC_STATUS_REGION_NOT_SUPPORTED\000"
 12739      4D41435F 
 12739      53544154 
 12739      55535F52 
 12739      4547494F 
ARM GAS  C:\Users\EBANO_~1\AppData\Local\Temp\cchbxRq9.s 			page 255


 12740              	.LASF219:
 12741 0f5a 4C6F5261 		.ascii	"LoRaMacRxSlot_t\000"
 12741      4D616352 
 12741      78536C6F 
 12741      745F7400 
 12742              	.LASF433:
 12743 0f6a 42616E64 		.ascii	"BandwidthsCN470\000"
 12743      77696474 
 12743      6873434E 
 12743      34373000 
 12744              	.LASF162:
 12745 0f7a 52465F52 		.ascii	"RF_RX_RUNNING\000"
 12745      585F5255 
 12745      4E4E494E 
 12745      4700
 12746              	.LASF245:
 12747 0f88 4C4F5241 		.ascii	"LORAMAC_STATUS_ERROR\000"
 12747      4D41435F 
 12747      53544154 
 12747      55535F45 
 12747      52524F52 
 12748              	.LASF387:
 12749 0f9d 414C5445 		.ascii	"ALTERNATE_DR_RESTORE\000"
 12749      524E4154 
 12749      455F4452 
 12749      5F524553 
 12749      544F5245 
 12750              	.LASF320:
 12751 0fb2 42656163 		.ascii	"BeaconFormat\000"
 12751      6F6E466F 
 12751      726D6174 
 12751      00
 12752              	.LASF458:
 12753 0fbf 6368616E 		.ascii	"channel\000"
 12753      6E656C00 
 12754              	.LASF365:
 12755 0fc7 506B744C 		.ascii	"PktLen\000"
 12755      656E00
 12756              	.LASF178:
 12757 0fce 47657453 		.ascii	"GetStatus\000"
 12757      74617475 
 12757      7300
 12758              	.LASF251:
 12759 0fd8 5048595F 		.ascii	"PHY_MAX_TX_DR\000"
 12759      4D41585F 
 12759      54585F44 
 12759      5200
 12760              	.LASF314:
 12761 0fe6 52667532 		.ascii	"Rfu2Size\000"
 12761      53697A65 
 12761      00
 12762              	.LASF184:
 12763 0fef 53657454 		.ascii	"SetTxConfig\000"
 12763      78436F6E 
 12763      66696700 
 12764              	.LASF213:
 12765 0ffb 4368616E 		.ascii	"ChannelParams_t\000"
ARM GAS  C:\Users\EBANO_~1\AppData\Local\Temp\cchbxRq9.s 			page 256


 12765      6E656C50 
 12765      6172616D 
 12765      735F7400 
 12766              	.LASF224:
 12767 100b 4C4F5241 		.ascii	"LORAMAC_STATUS_BUSY\000"
 12767      4D41435F 
 12767      53544154 
 12767      55535F42 
 12767      55535900 
 12768              	.LASF347:
 12769 101f 53697A65 		.ascii	"Size\000"
 12769      00
 12770              	.LASF437:
 12771 1024 52656769 		.ascii	"RegionCN470NvmCtx_t\000"
 12771      6F6E434E 
 12771      3437304E 
 12771      766D4374 
 12771      785F7400 
 12772              	.LASF44:
 12773 1038 5F5F746D 		.ascii	"__tm_sec\000"
 12773      5F736563 
 12773      00
 12774              	.LASF53:
 12775 1041 5F6F6E5F 		.ascii	"_on_exit_args\000"
 12775      65786974 
 12775      5F617267 
 12775      7300
 12776              	.LASF237:
 12777 104f 4C4F5241 		.ascii	"LORAMAC_STATUS_BUSY_BEACON_RESERVED_TIME\000"
 12777      4D41435F 
 12777      53544154 
 12777      55535F42 
 12777      5553595F 
 12778              	.LASF482:
 12779 1078 6E625265 		.ascii	"nbRepOut\000"
 12779      704F7574 
 12779      00
 12780              	.LASF259:
 12781 1081 5048595F 		.ascii	"PHY_DEF_ADR_ACK_DELAY\000"
 12781      4445465F 
 12781      4144525F 
 12781      41434B5F 
 12781      44454C41 
 12782              	.LASF128:
 12783 1097 5F776372 		.ascii	"_wcrtomb_state\000"
 12783      746F6D62 
 12783      5F737461 
 12783      746500
 12784              	.LASF362:
 12785 10a6 73547843 		.ascii	"sTxConfigParams\000"
 12785      6F6E6669 
 12785      67506172 
 12785      616D7300 
 12786              	.LASF165:
 12787 10b6 52616469 		.ascii	"RadioState_t\000"
 12787      6F537461 
 12787      74655F74 
ARM GAS  C:\Users\EBANO_~1\AppData\Local\Temp\cchbxRq9.s 			page 257


 12787      00
 12788              	.LASF554:
 12789 10c3 6D656D73 		.ascii	"memset\000"
 12789      657400
 12790              	.LASF545:
 12791 10ca 52656769 		.ascii	"RegionCommonLinkAdrReqVerifyParams\000"
 12791      6F6E436F 
 12791      6D6D6F6E 
 12791      4C696E6B 
 12791      41647252 
 12792              	.LASF493:
 12793 10ed 7478506F 		.ascii	"txPower\000"
 12793      77657200 
 12794              	.LASF479:
 12795 10f5 6C696E6B 		.ascii	"linkAdrReq\000"
 12795      41647252 
 12795      657100
 12796              	.LASF330:
 12797 1100 4A6F696E 		.ascii	"Joined\000"
 12797      656400
 12798              	.LASF15:
 12799 1107 696E7438 		.ascii	"int8_t\000"
 12799      5F7400
 12800              	.LASF236:
 12801 110e 4C4F5241 		.ascii	"LORAMAC_STATUS_NO_FREE_CHANNEL_FOUND\000"
 12801      4D41435F 
 12801      53544154 
 12801      55535F4E 
 12801      4F5F4652 
 12802              	.LASF37:
 12803 1133 5F5F554C 		.ascii	"__ULong\000"
 12803      6F6E6700 
 12804              	.LASF297:
 12805 113b 5048595F 		.ascii	"PHY_BEACON_CHANNEL_DR\000"
 12805      42454143 
 12805      4F4E5F43 
 12805      48414E4E 
 12805      454C5F44 
 12806              	.LASF353:
 12807 1151 73527843 		.ascii	"sRxConfigParams\000"
 12807      6F6E6669 
 12807      67506172 
 12807      616D7300 
 12808              	.LASF144:
 12809 1161 4669656C 		.ascii	"Fields\000"
 12809      647300
 12810              	.LASF521:
 12811 1168 52656769 		.ascii	"RegionCN470GetPhyParam\000"
 12811      6F6E434E 
 12811      34373047 
 12811      65745068 
 12811      79506172 
 12812              	.LASF286:
 12813 117f 5048595F 		.ascii	"PHY_BEACON_WINDOW_SLOTS\000"
 12813      42454143 
 12813      4F4E5F57 
 12813      494E444F 
ARM GAS  C:\Users\EBANO_~1\AppData\Local\Temp\cchbxRq9.s 			page 258


 12813      575F534C 
 12814              	.LASF113:
 12815 1197 5F737472 		.ascii	"_strtok_last\000"
 12815      746F6B5F 
 12815      6C617374 
 12815      00
 12816              	.LASF185:
 12817 11a4 43686563 		.ascii	"CheckRfFrequency\000"
 12817      6B526646 
 12817      72657175 
 12817      656E6379 
 12817      00
 12818              	.LASF473:
 12819 11b5 646C4368 		.ascii	"dlChannelReq\000"
 12819      616E6E65 
 12819      6C526571 
 12819      00
 12820              	.LASF109:
 12821 11c2 5F736565 		.ascii	"_seed\000"
 12821      6400
 12822              	.LASF369:
 12823 11c8 5061796C 		.ascii	"PayloadSize\000"
 12823      6F616453 
 12823      697A6500 
 12824              	.LASF71:
 12825 11d4 5F736565 		.ascii	"_seek\000"
 12825      6B00
 12826              	.LASF210:
 12827 11da 52783146 		.ascii	"Rx1Frequency\000"
 12827      72657175 
 12827      656E6379 
 12827      00
 12828              	.LASF17:
 12829 11e7 696E7431 		.ascii	"int16_t\000"
 12829      365F7400 
 12830              	.LASF299:
 12831 11ef 5048595F 		.ascii	"PHY_BEACON_NB_CHANNELS\000"
 12831      42454143 
 12831      4F4E5F4E 
 12831      425F4348 
 12831      414E4E45 
 12832              	.LASF7:
 12833 1206 73686F72 		.ascii	"short unsigned int\000"
 12833      7420756E 
 12833      7369676E 
 12833      65642069 
 12833      6E7400
 12834              	.LASF2:
 12835 1219 7369676E 		.ascii	"signed char\000"
 12835      65642063 
 12835      68617200 
 12836              	.LASF381:
 12837 1225 73547850 		.ascii	"sTxParamSetupReqParams\000"
 12837      6172616D 
 12837      53657475 
 12837      70526571 
 12837      50617261 
ARM GAS  C:\Users\EBANO_~1\AppData\Local\Temp\cchbxRq9.s 			page 259


 12838              	.LASF338:
 12839 123c 4765744E 		.ascii	"GetNvmCtxParams_t\000"
 12839      766D4374 
 12839      78506172 
 12839      616D735F 
 12839      7400
 12840              	.LASF553:
 12841 124e 52656769 		.ascii	"RegionCN470DlChannelReq\000"
 12841      6F6E434E 
 12841      34373044 
 12841      6C436861 
 12841      6E6E656C 
 12842              	.LASF477:
 12843 1266 73746174 		.ascii	"status\000"
 12843      757300
 12844              	.LASF384:
 12845 126d 446C4368 		.ascii	"DlChannelReqParams_t\000"
 12845      616E6E65 
 12845      6C526571 
 12845      50617261 
 12845      6D735F74 
 12846              	.LASF527:
 12847 1282 4C696D69 		.ascii	"LimitTxPower\000"
 12847      74547850 
 12847      6F776572 
 12847      00
 12848              	.LASF400:
 12849 128f 4368616E 		.ascii	"ChannelAddParams_t\000"
 12849      6E656C41 
 12849      64645061 
 12849      72616D73 
 12849      5F7400
 12850              	.LASF175:
 12851 12a2 496F496E 		.ascii	"IoInit\000"
 12851      697400
 12852              	.LASF95:
 12853 12a9 5F667265 		.ascii	"_freelist\000"
 12853      656C6973 
 12853      7400
 12854              	.LASF514:
 12855 12b3 52656769 		.ascii	"RegionCN470GetNvmCtx\000"
 12855      6F6E434E 
 12855      34373047 
 12855      65744E76 
 12855      6D437478 
 12856              	.LASF429:
 12857 12c8 42656163 		.ascii	"BeaconChannelBW\000"
 12857      6F6E4368 
 12857      616E6E65 
 12857      6C425700 
 12858              	.LASF76:
 12859 12d8 5F6F6666 		.ascii	"_offset\000"
 12859      73657400 
 12860              	.LASF21:
 12861 12e0 53797374 		.ascii	"SystemCoreClock\000"
 12861      656D436F 
 12861      7265436C 
ARM GAS  C:\Users\EBANO_~1\AppData\Local\Temp\cchbxRq9.s 			page 260


 12861      6F636B00 
 12862              	.LASF326:
 12863 12f0 446F776E 		.ascii	"DownlinkDwellTime\000"
 12863      6C696E6B 
 12863      4477656C 
 12863      6C54696D 
 12863      6500
 12864              	.LASF186:
 12865 1302 54696D65 		.ascii	"TimeOnAir\000"
 12865      4F6E4169 
 12865      7200
 12866              	.LASF61:
 12867 130c 5F5F7362 		.ascii	"__sbuf\000"
 12867      756600
 12868              	.LASF122:
 12869 1313 5F6C3634 		.ascii	"_l64a_buf\000"
 12869      615F6275 
 12869      6600
 12870              	.LASF321:
 12871 131d 50687950 		.ascii	"PhyParam_t\000"
 12871      6172616D 
 12871      5F7400
 12872              	.LASF328:
 12873 1328 73536574 		.ascii	"sSetBandTxDoneParams\000"
 12873      42616E64 
 12873      5478446F 
 12873      6E655061 
 12873      72616D73 
 12874              	.LASF364:
 12875 133d 416E7465 		.ascii	"AntennaGain\000"
 12875      6E6E6147 
 12875      61696E00 
 12876              	.LASF262:
 12877 1349 5048595F 		.ascii	"PHY_DUTY_CYCLE\000"
 12877      44555459 
 12877      5F435943 
 12877      4C4500
 12878              	.LASF114:
 12879 1358 5F617363 		.ascii	"_asctime_buf\000"
 12879      74696D65 
 12879      5F627566 
 12879      00
 12880              	.LASF494:
 12881 1365 74785469 		.ascii	"txTimeOnAir\000"
 12881      6D654F6E 
 12881      41697200 
 12882              	.LASF31:
 12883 1371 5F5F7763 		.ascii	"__wch\000"
 12883      6800
 12884              	.LASF455:
 12885 1377 6368616E 		.ascii	"channelAdd\000"
 12885      6E656C41 
 12885      646400
 12886              	.LASF129:
 12887 1382 5F776373 		.ascii	"_wcsrtombs_state\000"
 12887      72746F6D 
 12887      62735F73 
ARM GAS  C:\Users\EBANO_~1\AppData\Local\Temp\cchbxRq9.s 			page 261


 12887      74617465 
 12887      00
 12888              	.LASF391:
 12889 1393 44757479 		.ascii	"DutyCycleEnabled\000"
 12889      4379636C 
 12889      65456E61 
 12889      626C6564 
 12889      00
 12890              	.LASF469:
 12891 13a4 63757272 		.ascii	"currentDr\000"
 12891      656E7444 
 12891      7200
 12892              	.LASF549:
 12893 13ae 52656769 		.ascii	"RegionCommonSetBandTxDone\000"
 12893      6F6E436F 
 12893      6D6D6F6E 
 12893      53657442 
 12893      616E6454 
 12894              	.LASF448:
 12895 13c8 7478506F 		.ascii	"txPowerLimited\000"
 12895      7765724C 
 12895      696D6974 
 12895      656400
 12896              	.LASF539:
 12897 13d7 54696D65 		.ascii	"TimerGetElapsedTime\000"
 12897      72476574 
 12897      456C6170 
 12897      73656454 
 12897      696D6500 
 12898              	.LASF498:
 12899 13eb 6D617850 		.ascii	"maxPayload\000"
 12899      61796C6F 
 12899      616400
 12900              	.LASF487:
 12901 13f6 6368616E 		.ascii	"channelsMask\000"
 12901      6E656C73 
 12901      4D61736B 
 12901      00
 12902              	.LASF9:
 12903 1403 6C6F6E67 		.ascii	"long int\000"
 12903      20696E74 
 12903      00
 12904              	.LASF121:
 12905 140c 5F776374 		.ascii	"_wctomb_state\000"
 12905      6F6D625F 
 12905      73746174 
 12905      6500
 12906              	.LASF422:
 12907 141a 52656769 		.ascii	"RegionCommonLinkAdrReqVerifyParams_t\000"
 12907      6F6E436F 
 12907      6D6D6F6E 
 12907      4C696E6B 
 12907      41647252 
 12908              	.LASF372:
 12909 143f 43757272 		.ascii	"CurrentTxPower\000"
 12909      656E7454 
 12909      78506F77 
ARM GAS  C:\Users\EBANO_~1\AppData\Local\Temp\cchbxRq9.s 			page 262


 12909      657200
 12910              	.LASF424:
 12911 144e 42616E64 		.ascii	"Bands\000"
 12911      7300
 12912              	.LASF308:
 12913 1454 4348414E 		.ascii	"CHANNELS_MASK\000"
 12913      4E454C53 
 12913      5F4D4153 
 12913      4B00
 12914              	.LASF525:
 12915 1462 56657269 		.ascii	"VerifyRfFreq\000"
 12915      66795266 
 12915      46726571 
 12915      00
 12916              	.LASF107:
 12917 146f 5F696F62 		.ascii	"_iobs\000"
 12917      7300
 12918              	.LASF87:
 12919 1475 5F656D65 		.ascii	"_emergency\000"
 12919      7267656E 
 12919      637900
 12920              	.LASF500:
 12921 1480 6D696E52 		.ascii	"minRxSymbols\000"
 12921      7853796D 
 12921      626F6C73 
 12921      00
 12922              	.LASF131:
 12923 148d 5F6E6578 		.ascii	"_nextf\000"
 12923      746600
 12924              	.LASF117:
 12925 1494 5F72616E 		.ascii	"_rand_next\000"
 12925      645F6E65 
 12925      787400
 12926              	.LASF513:
 12927 149f 70687941 		.ascii	"phyAttribute\000"
 12927      74747269 
 12927      62757465 
 12927      00
 12928              	.LASF20:
 12929 14ac 75696E74 		.ascii	"uint32_t\000"
 12929      33325F74 
 12929      00
 12930              	.LASF416:
 12931 14b5 53746174 		.ascii	"Status\000"
 12931      757300
 12932              	.LASF405:
 12933 14bc 436F6E74 		.ascii	"ContinuousWaveParams_t\000"
 12933      696E756F 
 12933      75735761 
 12933      76655061 
 12933      72616D73 
 12934              	.LASF39:
 12935 14d3 5F6D6178 		.ascii	"_maxwds\000"
 12935      77647300 
 12936              	.LASF517:
 12937 14db 62616E64 		.ascii	"bands\000"
 12937      7300
ARM GAS  C:\Users\EBANO_~1\AppData\Local\Temp\cchbxRq9.s 			page 263


 12938              	.LASF191:
 12939 14e1 53657454 		.ascii	"SetTxContinuousWave\000"
 12939      78436F6E 
 12939      74696E75 
 12939      6F757357 
 12939      61766500 
 12940              	.LASF496:
 12941 14f5 52656769 		.ascii	"RegionCN470RxConfig\000"
 12941      6F6E434E 
 12941      34373052 
 12941      78436F6E 
 12941      66696700 
 12942              	.LASF26:
 12943 1509 6C6F6E67 		.ascii	"long double\000"
 12943      20646F75 
 12943      626C6500 
 12944              	.LASF138:
 12945 1515 7375626F 		.ascii	"suboptarg\000"
 12945      70746172 
 12945      6700
 12946              	.LASF275:
 12947 151f 5048595F 		.ascii	"PHY_MAX_NB_CHANNELS\000"
 12947      4D41585F 
 12947      4E425F43 
 12947      48414E4E 
 12947      454C5300 
 12948              	.LASF382:
 12949 1533 54785061 		.ascii	"TxParamSetupReqParams_t\000"
 12949      72616D53 
 12949      65747570 
 12949      52657150 
 12949      6172616D 
 12950              	.LASF11:
 12951 154b 6C6F6E67 		.ascii	"long unsigned int\000"
 12951      20756E73 
 12951      69676E65 
 12951      6420696E 
 12951      7400
 12952              	.LASF436:
 12953 155d 4368616E 		.ascii	"ChannelsDefaultMask\000"
 12953      6E656C73 
 12953      44656661 
 12953      756C744D 
 12953      61736B00 
 12954              	.LASF546:
 12955 1571 52656769 		.ascii	"RegionCommonComputeSymbolTimeLoRa\000"
 12955      6F6E436F 
 12955      6D6D6F6E 
 12955      436F6D70 
 12955      75746553 
 12956              	.LASF307:
 12957 1593 65436861 		.ascii	"eChannelsMask\000"
 12957      6E6E656C 
 12957      734D6173 
 12957      6B00
 12958              	.LASF181:
 12959 15a1 49734368 		.ascii	"IsChannelFree\000"
ARM GAS  C:\Users\EBANO_~1\AppData\Local\Temp\cchbxRq9.s 			page 264


 12959      616E6E65 
 12959      6C467265 
 12959      6500
 12960              	.LASF72:
 12961 15af 5F636C6F 		.ascii	"_close\000"
 12961      736500
 12962              	.LASF198:
 12963 15b6 53657450 		.ascii	"SetPublicNetwork\000"
 12963      75626C69 
 12963      634E6574 
 12963      776F726B 
 12963      00
 12964              	.LASF103:
 12965 15c7 63686172 		.ascii	"char\000"
 12965      00
 12966              	.LASF280:
 12967 15cc 5048595F 		.ascii	"PHY_DEF_ANTENNA_GAIN\000"
 12967      4445465F 
 12967      414E5445 
 12967      4E4E415F 
 12967      4741494E 
 12968              	.LASF164:
 12969 15e1 52465F43 		.ascii	"RF_CAD\000"
 12969      414400
 12970              	.LASF105:
 12971 15e8 5F676C75 		.ascii	"_glue\000"
 12971      6500
 12972              	.LASF461:
 12973 15ee 6E62456E 		.ascii	"nbEnabledChannels\000"
 12973      61626C65 
 12973      64436861 
 12973      6E6E656C 
 12973      7300
 12974              	.LASF394:
 12975 1600 43616C63 		.ascii	"CalcBackOffParams_t\000"
 12975      4261636B 
 12975      4F666650 
 12975      6172616D 
 12975      735F7400 
 12976              	.LASF23:
 12977 1614 41504250 		.ascii	"APBPrescTable\000"
 12977      72657363 
 12977      5461626C 
 12977      6500
 12978              	.LASF200:
 12979 1622 49727150 		.ascii	"IrqProcess\000"
 12979      726F6365 
 12979      737300
 12980              	.LASF536:
 12981 162d 52656769 		.ascii	"RegionCommonComputeTxPower\000"
 12981      6F6E436F 
 12981      6D6D6F6E 
 12981      436F6D70 
 12981      75746554 
 12982              	.LASF537:
 12983 1648 52656769 		.ascii	"RegionCommonValueInRange\000"
 12983      6F6E436F 
ARM GAS  C:\Users\EBANO_~1\AppData\Local\Temp\cchbxRq9.s 			page 265


 12983      6D6D6F6E 
 12983      56616C75 
 12983      65496E52 
 12984              	.LASF253:
 12985 1661 5048595F 		.ascii	"PHY_DEF_TX_DR\000"
 12985      4445465F 
 12985      54585F44 
 12985      5200
 12986              	.LASF491:
 12987 166f 52656769 		.ascii	"RegionCN470TxConfig\000"
 12987      6F6E434E 
 12987      34373054 
 12987      78436F6E 
 12987      66696700 
 12988              	.LASF227:
 12989 1683 4C4F5241 		.ascii	"LORAMAC_STATUS_FREQUENCY_INVALID\000"
 12989      4D41435F 
 12989      53544154 
 12989      55535F46 
 12989      52455155 
 12990              	.LASF464:
 12991 16a4 6E657874 		.ascii	"nextTxDelay\000"
 12991      54784465 
 12991      6C617900 
 12992              	.LASF42:
 12993 16b0 5F426967 		.ascii	"_Bigint\000"
 12993      696E7400 
 12994              	.LASF386:
 12995 16b8 414C5445 		.ascii	"ALTERNATE_DR\000"
 12995      524E4154 
 12995      455F4452 
 12995      00
 12996              	.LASF530:
 12997 16c5 47657442 		.ascii	"GetBandwidth\000"
 12997      616E6477 
 12997      69647468 
 12997      00
 12998              	.LASF256:
 12999 16d2 5048595F 		.ascii	"PHY_TX_POWER\000"
 12999      54585F50 
 12999      4F574552 
 12999      00
 13000              	.LASF180:
 13001 16df 53657443 		.ascii	"SetChannel\000"
 13001      68616E6E 
 13001      656C00
 13002              	.LASF316:
 13003 16ea 75506879 		.ascii	"uPhyParam\000"
 13003      50617261 
 13003      6D00
 13004              	.LASF481:
 13005 16f4 7478506F 		.ascii	"txPowOut\000"
 13005      774F7574 
 13005      00
 13006              	.LASF99:
 13007 16fd 5F617465 		.ascii	"_atexit0\000"
 13007      78697430 
ARM GAS  C:\Users\EBANO_~1\AppData\Local\Temp\cchbxRq9.s 			page 266


 13007      00
 13008              	.LASF518:
 13009 1706 52656769 		.ascii	"RegionCN470SetBandTxDone\000"
 13009      6F6E434E 
 13009      34373053 
 13009      65744261 
 13009      6E645478 
 13010              	.LASF451:
 13011 171f 52656769 		.ascii	"RegionCN470ApplyDrOffset\000"
 13011      6F6E434E 
 13011      34373041 
 13011      70706C79 
 13011      44724F66 
 13012              	.LASF350:
 13013 1738 4368616E 		.ascii	"ChannelsMaskIn\000"
 13013      6E656C73 
 13013      4D61736B 
 13013      496E00
 13014              	.LASF223:
 13015 1747 4C4F5241 		.ascii	"LORAMAC_STATUS_OK\000"
 13015      4D41435F 
 13015      53544154 
 13015      55535F4F 
 13015      4B00
 13016              	.LASF257:
 13017 1759 5048595F 		.ascii	"PHY_DEF_TX_POWER\000"
 13017      4445465F 
 13017      54585F50 
 13017      4F574552 
 13017      00
 13018              	.LASF124:
 13019 176a 5F676574 		.ascii	"_getdate_err\000"
 13019      64617465 
 13019      5F657272 
 13019      00
 13020              	.LASF295:
 13021 1777 5048595F 		.ascii	"PHY_BEACON_CHANNEL_FREQ\000"
 13021      42454143 
 13021      4F4E5F43 
 13021      48414E4E 
 13021      454C5F46 
 13022              	.LASF282:
 13023 178f 5048595F 		.ascii	"PHY_BEACON_INTERVAL\000"
 13023      42454143 
 13023      4F4E5F49 
 13023      4E544552 
 13023      56414C00 
 13024              	.LASF447:
 13025 17a3 4D617850 		.ascii	"MaxPayloadOfDatarateRepeaterCN470\000"
 13025      61796C6F 
 13025      61644F66 
 13025      44617461 
 13025      72617465 
 13026              	.LASF277:
 13027 17c5 5048595F 		.ascii	"PHY_DEF_UPLINK_DWELL_TIME\000"
 13027      4445465F 
 13027      55504C49 
ARM GAS  C:\Users\EBANO_~1\AppData\Local\Temp\cchbxRq9.s 			page 267


 13027      4E4B5F44 
 13027      57454C4C 
 13028              	.LASF309:
 13029 17df 4348414E 		.ascii	"CHANNELS_DEFAULT_MASK\000"
 13029      4E454C53 
 13029      5F444546 
 13029      41554C54 
 13029      5F4D4153 
 13030              	.LASF268:
 13031 17f5 5048595F 		.ascii	"PHY_MAX_FCNT_GAP\000"
 13031      4D41585F 
 13031      46434E54 
 13031      5F474150 
 13031      00
 13032              	.LASF332:
 13033 1806 73496E69 		.ascii	"sInitDefaultsParams\000"
 13033      74446566 
 13033      61756C74 
 13033      73506172 
 13033      616D7300 
 13034              	.LASF423:
 13035 181a 73526567 		.ascii	"sRegionCommonCalcBackOffParams\000"
 13035      696F6E43 
 13035      6F6D6D6F 
 13035      6E43616C 
 13035      63426163 
 13036              	.LASF136:
 13037 1839 5F696D70 		.ascii	"_impure_ptr\000"
 13037      7572655F 
 13037      70747200 
 13038              	.LASF75:
 13039 1845 5F626C6B 		.ascii	"_blksize\000"
 13039      73697A65 
 13039      00
 13040              	.LASF457:
 13041 184e 6E657874 		.ascii	"nextChanParams\000"
 13041      4368616E 
 13041      50617261 
 13041      6D7300
 13042              	.LASF73:
 13043 185d 5F756275 		.ascii	"_ubuf\000"
 13043      6600
 13044              	.LASF488:
 13045 1863 67657450 		.ascii	"getPhy\000"
 13045      687900
 13046              	.LASF279:
 13047 186a 5048595F 		.ascii	"PHY_DEF_MAX_EIRP\000"
 13047      4445465F 
 13047      4D41585F 
 13047      45495250 
 13047      00
 13048              	.LASF119:
 13049 187b 5F6D626C 		.ascii	"_mblen_state\000"
 13049      656E5F73 
 13049      74617465 
 13049      00
 13050              	.LASF101:
ARM GAS  C:\Users\EBANO_~1\AppData\Local\Temp\cchbxRq9.s 			page 268


 13051 1888 5F5F7367 		.ascii	"__sglue\000"
 13051      6C756500 
 13052              	.LASF135:
 13053 1890 5F5F6C6F 		.ascii	"__locale_t\000"
 13053      63616C65 
 13053      5F7400
 13054              	.LASF480:
 13055 189b 64724F75 		.ascii	"drOut\000"
 13055      7400
 13056              	.LASF91:
 13057 18a1 5F5F636C 		.ascii	"__cleanup\000"
 13057      65616E75 
 13057      7000
 13058              	.LASF501:
 13059 18ab 72784572 		.ascii	"rxError\000"
 13059      726F7200 
 13060              	.LASF510:
 13061 18b3 636E7450 		.ascii	"cntPayload\000"
 13061      61796C6F 
 13061      616400
 13062              	.LASF214:
 13063 18be 52585F53 		.ascii	"RX_SLOT_WIN_1\000"
 13063      4C4F545F 
 13063      57494E5F 
 13063      3100
 13064              	.LASF215:
 13065 18cc 52585F53 		.ascii	"RX_SLOT_WIN_2\000"
 13065      4C4F545F 
 13065      57494E5F 
 13065      3200
 13066              	.LASF302:
 13067 18da 65496E69 		.ascii	"eInitType\000"
 13067      74547970 
 13067      6500
 13068              	.LASF24:
 13069 18e4 504C4C4D 		.ascii	"PLLMulTable\000"
 13069      756C5461 
 13069      626C6500 
 13070              	.LASF542:
 13071 18f0 52656769 		.ascii	"RegionCommonCalcBackOff\000"
 13071      6F6E436F 
 13071      6D6D6F6E 
 13071      43616C63 
 13071      4261636B 
 13072              	.LASF29:
 13073 1908 5F66706F 		.ascii	"_fpos_t\000"
 13073      735F7400 
 13074              	.LASF329:
 13075 1910 4368616E 		.ascii	"Channel\000"
 13075      6E656C00 
 13076              	.LASF66:
 13077 1918 5F66696C 		.ascii	"_file\000"
 13077      6500
 13078              	.LASF208:
 13079 191e 73436861 		.ascii	"sChannelParams\000"
 13079      6E6E656C 
 13079      50617261 
ARM GAS  C:\Users\EBANO_~1\AppData\Local\Temp\cchbxRq9.s 			page 269


 13079      6D7300
 13080              	.LASF64:
 13081 192d 5F5F7346 		.ascii	"__sFILE\000"
 13081      494C4500 
 13082              	.LASF504:
 13083 1935 646F7562 		.ascii	"double\000"
 13083      6C6500
 13084              	.LASF60:
 13085 193c 5F666E73 		.ascii	"_fns\000"
 13085      00
 13086              	.LASF351:
 13087 1941 4368616E 		.ascii	"ChannelsMaskType\000"
 13087      6E656C73 
 13087      4D61736B 
 13087      54797065 
 13087      00
 13088              	.LASF499:
 13089 1952 52656769 		.ascii	"RegionCN470ComputeRxWindowParameters\000"
 13089      6F6E434E 
 13089      34373043 
 13089      6F6D7075 
 13089      74655278 
 13090              	.LASF35:
 13091 1977 5F6D6273 		.ascii	"_mbstate_t\000"
 13091      74617465 
 13091      5F7400
 13092              	.LASF130:
 13093 1982 5F685F65 		.ascii	"_h_errno\000"
 13093      72726E6F 
 13093      00
 13094              	.LASF315:
 13095 198b 42656163 		.ascii	"BeaconFormat_t\000"
 13095      6F6E466F 
 13095      726D6174 
 13095      5F7400
 13096              	.LASF511:
 13097 199a 52656769 		.ascii	"RegionCN470Verify\000"
 13097      6F6E434E 
 13097      34373056 
 13097      65726966 
 13097      7900
 13098              	.LASF8:
 13099 19ac 5F5F696E 		.ascii	"__int32_t\000"
 13099      7433325F 
 13099      7400
 13100              	.LASF497:
 13101 19b6 7278436F 		.ascii	"rxConfig\000"
 13101      6E666967 
 13101      00
 13102              	.LASF10:
 13103 19bf 5F5F7569 		.ascii	"__uint32_t\000"
 13103      6E743332 
 13103      5F7400
 13104              	.LASF269:
 13105 19ca 5048595F 		.ascii	"PHY_ACK_TIMEOUT\000"
 13105      41434B5F 
 13105      54494D45 
ARM GAS  C:\Users\EBANO_~1\AppData\Local\Temp\cchbxRq9.s 			page 270


 13105      4F555400 
 13106              	.LASF325:
 13107 19da 55706C69 		.ascii	"UplinkDwellTime\000"
 13107      6E6B4477 
 13107      656C6C54 
 13107      696D6500 
 13108              	.LASF503:
 13109 19ea 7453796D 		.ascii	"tSymbol\000"
 13109      626F6C00 
 13110              	.LASF34:
 13111 19f2 5F5F7661 		.ascii	"__value\000"
 13111      6C756500 
 13112              	.LASF463:
 13113 19fa 656E6162 		.ascii	"enabledChannels\000"
 13113      6C656443 
 13113      68616E6E 
 13113      656C7300 
 13114              	.LASF57:
 13115 1a0a 5F69735F 		.ascii	"_is_cxa\000"
 13115      63786100 
 13116              	.LASF235:
 13117 1a12 4C4F5241 		.ascii	"LORAMAC_STATUS_NO_CHANNEL_FOUND\000"
 13117      4D41435F 
 13117      53544154 
 13117      55535F4E 
 13117      4F5F4348 
 13118              	.LASF441:
 13119 1a32 646F776E 		.ascii	"downlinkDwellTime\000"
 13119      6C696E6B 
 13119      4477656C 
 13119      6C54696D 
 13119      6500
 13120              	.LASF94:
 13121 1a44 5F703573 		.ascii	"_p5s\000"
 13121      00
 13122              	.LASF341:
 13123 1a49 5478506F 		.ascii	"TxPower\000"
 13123      77657200 
 13124              	.LASF163:
 13125 1a51 52465F54 		.ascii	"RF_TX_RUNNING\000"
 13125      585F5255 
 13125      4E4E494E 
 13125      4700
 13126              	.LASF261:
 13127 1a5f 5048595F 		.ascii	"PHY_MAX_PAYLOAD_REPEATER\000"
 13127      4D41585F 
 13127      5041594C 
 13127      4F41445F 
 13127      52455045 
 13128              	.LASF294:
 13129 1a78 5048595F 		.ascii	"PHY_BEACON_DELAY_BEACON_TIMING_ANS\000"
 13129      42454143 
 13129      4F4E5F44 
 13129      454C4159 
 13129      5F424541 
 13130              	.LASF354:
 13131 1a9b 42616E64 		.ascii	"Bandwidth\000"
ARM GAS  C:\Users\EBANO_~1\AppData\Local\Temp\cchbxRq9.s 			page 271


 13131      77696474 
 13131      6800
 13132              	.LASF342:
 13133 1aa5 44757479 		.ascii	"DutyCycle\000"
 13133      4379636C 
 13133      6500
 13134              	.LASF485:
 13135 1aaf 6E657874 		.ascii	"nextIndex\000"
 13135      496E6465 
 13135      7800
 13136              	.LASF317:
 13137 1ab9 6656616C 		.ascii	"fValue\000"
 13137      756500
 13138              	.LASF139:
 13139 1ac0 54696D65 		.ascii	"TimerTime_t\000"
 13139      7254696D 
 13139      655F7400 
 13140              	.LASF410:
 13141 1acc 73526567 		.ascii	"sRegionCommonLinkAdrParams\000"
 13141      696F6E43 
 13141      6F6D6D6F 
 13141      6E4C696E 
 13141      6B416472 
 13142              	.LASF359:
 13143 1ae7 5278436F 		.ascii	"RxContinuous\000"
 13143      6E74696E 
 13143      756F7573 
 13143      00
 13144              	.LASF305:
 13145 1af4 494E4954 		.ascii	"INIT_TYPE_RESTORE_CTX\000"
 13145      5F545950 
 13145      455F5245 
 13145      53544F52 
 13145      455F4354 
 13146              	.LASF425:
 13147 1b0a 52656769 		.ascii	"RegionCommonCalcBackOffParams_t\000"
 13147      6F6E436F 
 13147      6D6D6F6E 
 13147      43616C63 
 13147      4261636B 
 13148              	.LASF252:
 13149 1b2a 5048595F 		.ascii	"PHY_TX_DR\000"
 13149      54585F44 
 13149      5200
 13150              	.LASF492:
 13151 1b34 7478436F 		.ascii	"txConfig\000"
 13151      6E666967 
 13151      00
 13152              	.LASF388:
 13153 1b3d 416C7465 		.ascii	"AlternateDrType_t\000"
 13153      726E6174 
 13153      65447254 
 13153      7970655F 
 13153      7400
 13154              	.LASF155:
 13155 1b4f 5F74696D 		.ascii	"_timezone\000"
 13155      657A6F6E 
ARM GAS  C:\Users\EBANO_~1\AppData\Local\Temp\cchbxRq9.s 			page 272


 13155      6500
 13156              	.LASF250:
 13157 1b59 5048595F 		.ascii	"PHY_MAX_RX_DR\000"
 13157      4D41585F 
 13157      52585F44 
 13157      5200
 13158              	.LASF192:
 13159 1b67 52737369 		.ascii	"Rssi\000"
 13159      00
 13160              	.LASF159:
 13161 1b6c 4D4F4445 		.ascii	"MODEM_LORA\000"
 13161      4D5F4C4F 
 13161      524100
 13162              	.LASF13:
 13163 1b77 6C6F6E67 		.ascii	"long long unsigned int\000"
 13163      206C6F6E 
 13163      6720756E 
 13163      7369676E 
 13163      65642069 
 13164              	.LASF535:
 13165 1b8e 52656769 		.ascii	"RegionCommonRxBeaconSetup\000"
 13165      6F6E436F 
 13165      6D6D6F6E 
 13165      52784265 
 13165      61636F6E 
 13166              	.LASF490:
 13167 1ba8 6C696E6B 		.ascii	"linkAdrVerifyParams\000"
 13167      41647256 
 13167      65726966 
 13167      79506172 
 13167      616D7300 
 13168              	.LASF116:
 13169 1bbc 5F67616D 		.ascii	"_gamma_signgam\000"
 13169      6D615F73 
 13169      69676E67 
 13169      616D00
 13170              	.LASF151:
 13171 1bcb 4C617374 		.ascii	"LastJoinTxDoneTime\000"
 13171      4A6F696E 
 13171      5478446F 
 13171      6E655469 
 13171      6D6500
 13172              	.LASF177:
 13173 1bde 496E6974 		.ascii	"Init\000"
 13173      00
 13174              	.LASF438:
 13175 1be3 72784265 		.ascii	"rxBeaconSetup\000"
 13175      61636F6E 
 13175      53657475 
 13175      7000
 13176              	.LASF401:
 13177 1bf1 73436861 		.ascii	"sChannelRemoveParams\000"
 13177      6E6E656C 
 13177      52656D6F 
 13177      76655061 
 13177      72616D73 
 13178              	.LASF403:
ARM GAS  C:\Users\EBANO_~1\AppData\Local\Temp\cchbxRq9.s 			page 273


 13179 1c06 73436F6E 		.ascii	"sContinuousWaveParams\000"
 13179      74696E75 
 13179      6F757357 
 13179      61766550 
 13179      6172616D 
 13180              	.LASF244:
 13181 1c1c 4C4F5241 		.ascii	"LORAMAC_STATUS_CONFIRM_QUEUE_ERROR\000"
 13181      4D41435F 
 13181      53544154 
 13181      55535F43 
 13181      4F4E4649 
 13182              	.LASF273:
 13183 1c3f 5048595F 		.ascii	"PHY_CHANNELS_MASK\000"
 13183      4348414E 
 13183      4E454C53 
 13183      5F4D4153 
 13183      4B00
 13184              	.LASF143:
 13185 1c51 4D616A6F 		.ascii	"Major\000"
 13185      7200
 13186              	.LASF209:
 13187 1c57 46726571 		.ascii	"Frequency\000"
 13187      75656E63 
 13187      7900
 13188              	.LASF523:
 13189 1c61 64656C61 		.ascii	"delayTransmission\000"
 13189      79547261 
 13189      6E736D69 
 13189      7373696F 
 13189      6E00
 13190              	.LASF137:
 13191 1c73 5F676C6F 		.ascii	"_global_impure_ptr\000"
 13191      62616C5F 
 13191      696D7075 
 13191      72655F70 
 13191      747200
 13192              	.LASF407:
 13193 1c86 53796D62 		.ascii	"SymbolTimeout\000"
 13193      6F6C5469 
 13193      6D656F75 
 13193      7400
 13194              	.LASF88:
 13195 1c94 5F756E73 		.ascii	"_unspecified_locale_info\000"
 13195      70656369 
 13195      66696564 
 13195      5F6C6F63 
 13195      616C655F 
 13196              	.LASF378:
 13197 1cad 4E657743 		.ascii	"NewChannel\000"
 13197      68616E6E 
 13197      656C00
 13198              	.LASF522:
 13199 1cb8 6368616E 		.ascii	"channels\000"
 13199      6E656C73 
 13199      00
 13200              	.LASF304:
 13201 1cc1 494E4954 		.ascii	"INIT_TYPE_RESTORE_DEFAULT_CHANNELS\000"
ARM GAS  C:\Users\EBANO_~1\AppData\Local\Temp\cchbxRq9.s 			page 274


 13201      5F545950 
 13201      455F5245 
 13201      53544F52 
 13201      455F4445 
 13202              	.LASF90:
 13203 1ce4 5F5F7364 		.ascii	"__sdidinit\000"
 13203      6964696E 
 13203      697400
 13204              	.LASF472:
 13205 1cef 74785061 		.ascii	"txParamSetupReq\000"
 13205      72616D53 
 13205      65747570 
 13205      52657100 
 13206              	.LASF318:
 13207 1cff 4368616E 		.ascii	"ChannelsMask\000"
 13207      6E656C73 
 13207      4D61736B 
 13207      00
 13208              	.LASF187:
 13209 1d0c 53656E64 		.ascii	"Send\000"
 13209      00
 13210              	.LASF300:
 13211 1d11 5048595F 		.ascii	"PHY_PING_SLOT_CHANNEL_DR\000"
 13211      50494E47 
 13211      5F534C4F 
 13211      545F4348 
 13211      414E4E45 
 13212              	.LASF324:
 13213 1d2a 44617461 		.ascii	"Datarate\000"
 13213      72617465 
 13213      00
 13214              	.LASF36:
 13215 1d33 5F666C6F 		.ascii	"_flock_t\000"
 13215      636B5F74 
 13215      00
 13216              	.LASF534:
 13217 1d3c 6E657874 		.ascii	"nextLowerDr\000"
 13217      4C6F7765 
 13217      72447200 
 13218              	.LASF239:
 13219 1d48 4C4F5241 		.ascii	"LORAMAC_STATUS_BUSY_UPLINK_COLLISION\000"
 13219      4D41435F 
 13219      53544154 
 13219      55535F42 
 13219      5553595F 
 13220              	.LASF173:
 13221 1d6d 52616469 		.ascii	"RadioEvents_t\000"
 13221      6F457665 
 13221      6E74735F 
 13221      7400
 13222              	.LASF484:
 13223 1d7b 6C696E6B 		.ascii	"linkAdrParams\000"
 13223      41647250 
 13223      6172616D 
 13223      7300
 13224              	.LASF440:
 13225 1d89 72656769 		.ascii	"regionCommonRxBeaconSetup\000"
ARM GAS  C:\Users\EBANO_~1\AppData\Local\Temp\cchbxRq9.s 			page 275


 13225      6F6E436F 
 13225      6D6D6F6E 
 13225      52784265 
 13225      61636F6E 
 13226              	.LASF246:
 13227 1da3 4C6F5261 		.ascii	"LoRaMacStatus_t\000"
 13227      4D616353 
 13227      74617475 
 13227      735F7400 
 13228              	.LASF373:
 13229 1db3 43757272 		.ascii	"CurrentNbRep\000"
 13229      656E744E 
 13229      62526570 
 13229      00
 13230              	.LASF12:
 13231 1dc0 6C6F6E67 		.ascii	"long long int\000"
 13231      206C6F6E 
 13231      6720696E 
 13231      7400
 13232              	.LASF229:
 13233 1dce 4C4F5241 		.ascii	"LORAMAC_STATUS_FREQ_AND_DR_INVALID\000"
 13233      4D41435F 
 13233      53544154 
 13233      55535F46 
 13233      5245515F 
 13234              	.LASF243:
 13235 1df1 4C4F5241 		.ascii	"LORAMAC_STATUS_CLASS_B_ERROR\000"
 13235      4D41435F 
 13235      53544154 
 13235      55535F43 
 13235      4C415353 
 13236              	.LASF80:
 13237 1e0e 5F666C61 		.ascii	"_flags2\000"
 13237      67733200 
 13238              	.LASF293:
 13239 1e16 5048595F 		.ascii	"PHY_MAX_BEACON_LESS_PERIOD\000"
 13239      4D41585F 
 13239      42454143 
 13239      4F4E5F4C 
 13239      4553535F 
 13240              	.LASF172:
 13241 1e31 43616444 		.ascii	"CadDone\000"
 13241      6F6E6500 
 13242              	.LASF551:
 13243 1e39 2E2E2F2E 		.ascii	"../../../../../../Middlewares/Third_Party/LoRaWAN/M"
 13243      2E2F2E2E 
 13243      2F2E2E2F 
 13243      2E2E2F2E 
 13243      2E2F4D69 
 13244 1e6c 61632F72 		.ascii	"ac/region/RegionCN470.c\000"
 13244      6567696F 
 13244      6E2F5265 
 13244      67696F6E 
 13244      434E3437 
 13245              	.LASF89:
 13246 1e84 5F6C6F63 		.ascii	"_locale\000"
 13246      616C6500 
ARM GAS  C:\Users\EBANO_~1\AppData\Local\Temp\cchbxRq9.s 			page 276


 13247              	.LASF228:
 13248 1e8c 4C4F5241 		.ascii	"LORAMAC_STATUS_DATARATE_INVALID\000"
 13248      4D41435F 
 13248      53544154 
 13248      55535F44 
 13248      41544152 
 13249              	.LASF349:
 13250 1eac 73436861 		.ascii	"sChanMaskSetParams\000"
 13250      6E4D6173 
 13250      6B536574 
 13250      50617261 
 13250      6D7300
 13251              	.LASF22:
 13252 1ebf 41484250 		.ascii	"AHBPrescTable\000"
 13252      72657363 
 13252      5461626C 
 13252      6500
 13253              	.LASF276:
 13254 1ecd 5048595F 		.ascii	"PHY_CHANNELS\000"
 13254      4348414E 
 13254      4E454C53 
 13254      00
 13255              	.LASF467:
 13256 1eda 63616C63 		.ascii	"calcBackOffParams\000"
 13256      4261636B 
 13256      4F666650 
 13256      6172616D 
 13256      7300
 13257              	.LASF333:
 13258 1eec 4E766D43 		.ascii	"NvmCtx\000"
 13258      747800
 13259              	.LASF409:
 13260 1ef3 52784265 		.ascii	"RxBeaconSetup_t\000"
 13260      61636F6E 
 13260      53657475 
 13260      705F7400 
 13261              	.LASF204:
 13262 1f03 73466965 		.ascii	"sFields\000"
 13262      6C647300 
 13263              	.LASF434:
 13264 1f0b 4D617850 		.ascii	"MaxPayloadOfDatarateCN470\000"
 13264      61796C6F 
 13264      61644F66 
 13264      44617461 
 13264      72617465 
 13265              	.LASF547:
 13266 1f25 52656769 		.ascii	"RegionCommonComputeRxWindowParameters\000"
 13266      6F6E436F 
 13266      6D6D6F6E 
 13266      436F6D70 
 13266      75746552 
 13267              	.LASF199:
 13268 1f4b 47657457 		.ascii	"GetWakeupTime\000"
 13268      616B6575 
 13268      7054696D 
 13268      6500
 13269              	.LASF395:
ARM GAS  C:\Users\EBANO_~1\AppData\Local\Temp\cchbxRq9.s 			page 277


 13270 1f59 734E6578 		.ascii	"sNextChanParams\000"
 13270      74436861 
 13270      6E506172 
 13270      616D7300 
 13271              	.LASF431:
 13272 1f69 4C6F5261 		.ascii	"LoRaMacMaxEirpTable\000"
 13272      4D61634D 
 13272      61784569 
 13272      72705461 
 13272      626C6500 
 13273              	.LASF383:
 13274 1f7d 73446C43 		.ascii	"sDlChannelReqParams\000"
 13274      68616E6E 
 13274      656C5265 
 13274      71506172 
 13274      616D7300 
 13275              	.LASF374:
 13276 1f91 4C696E6B 		.ascii	"LinkAdrReqParams_t\000"
 13276      41647252 
 13276      65715061 
 13276      72616D73 
 13276      5F7400
 13277              	.LASF453:
 13278 1fa4 6368616E 		.ascii	"channelRemove\000"
 13278      6E656C52 
 13278      656D6F76 
 13278      6500
 13279              	.LASF104:
 13280 1fb2 5F5F4649 		.ascii	"__FILE\000"
 13280      4C4500
 13281              	.LASF217:
 13282 1fb9 52585F53 		.ascii	"RX_SLOT_WIN_PING_SLOT\000"
 13282      4C4F545F 
 13282      57494E5F 
 13282      50494E47 
 13282      5F534C4F 
 13283              	.LASF450:
 13284 1fcf 66726571 		.ascii	"frequency\000"
 13284      75656E63 
 13284      7900
 13285              	.LASF444:
 13286 1fd9 52656769 		.ascii	"RegionCN470RxBeaconSetup\000"
 13286      6F6E434E 
 13286      34373052 
 13286      78426561 
 13286      636F6E53 
 13287              	.LASF340:
 13288 1ff2 75566572 		.ascii	"uVerifyParams\000"
 13288      69667950 
 13288      6172616D 
 13288      7300
 13289              	.LASF238:
 13290 2000 4C4F5241 		.ascii	"LORAMAC_STATUS_BUSY_PING_SLOT_WINDOW_TIME\000"
 13290      4D41435F 
 13290      53544154 
 13290      55535F42 
 13290      5553595F 
ARM GAS  C:\Users\EBANO_~1\AppData\Local\Temp\cchbxRq9.s 			page 278


 13291              	.LASF40:
 13292 202a 5F736967 		.ascii	"_sign\000"
 13292      6E00
 13293              	.LASF0:
 13294 2030 5F5F696E 		.ascii	"__int8_t\000"
 13294      74385F74 
 13294      00
 13295              	.LASF45:
 13296 2039 5F5F746D 		.ascii	"__tm_min\000"
 13296      5F6D696E 
 13296      00
 13297              	.LASF344:
 13298 2042 56657269 		.ascii	"VerifyParams_t\000"
 13298      66795061 
 13298      72616D73 
 13298      5F7400
 13299              	.LASF14:
 13300 2051 756E7369 		.ascii	"unsigned int\000"
 13300      676E6564 
 13300      20696E74 
 13300      00
 13301              	.LASF118:
 13302 205e 5F723438 		.ascii	"_r48\000"
 13302      00
 13303              	.LASF145:
 13304 2063 56616C75 		.ascii	"Value\000"
 13304      6500
 13305              	.LASF225:
 13306 2069 4C4F5241 		.ascii	"LORAMAC_STATUS_SERVICE_UNKNOWN\000"
 13306      4D41435F 
 13306      53544154 
 13306      55535F53 
 13306      45525649 
 13307              	.LASF366:
 13308 2088 5478436F 		.ascii	"TxConfigParams_t\000"
 13308      6E666967 
 13308      50617261 
 13308      6D735F74 
 13308      00
 13309              	.LASF233:
 13310 2099 4C4F5241 		.ascii	"LORAMAC_STATUS_SKIPPED_APP_DATA\000"
 13310      4D41435F 
 13310      53544154 
 13310      55535F53 
 13310      4B495050 
 13311              	.LASF442:
 13312 20b9 64724F66 		.ascii	"drOffset\000"
 13312      66736574 
 13312      00
 13313              	.LASF5:
 13314 20c2 73686F72 		.ascii	"short int\000"
 13314      7420696E 
 13314      7400
 13315              	.LASF291:
 13316 20cc 5048595F 		.ascii	"PHY_BEACON_SYMBOL_TO_EXPANSION_FACTOR\000"
 13316      42454143 
 13316      4F4E5F53 
ARM GAS  C:\Users\EBANO_~1\AppData\Local\Temp\cchbxRq9.s 			page 279


 13316      594D424F 
 13316      4C5F544F 
 13317              	.LASF183:
 13318 20f2 53657452 		.ascii	"SetRxConfig\000"
 13318      78436F6E 
 13318      66696700 
 13319              	.LASF69:
 13320 20fe 5F726561 		.ascii	"_read\000"
 13320      6400
 13321              	.LASF108:
 13322 2104 5F72616E 		.ascii	"_rand48\000"
 13322      64343800 
 13323              	.LASF390:
 13324 210c 4C617374 		.ascii	"LastTxIsJoinRequest\000"
 13324      54784973 
 13324      4A6F696E 
 13324      52657175 
 13324      65737400 
 13325              		.ident	"GCC: (GNU Tools for Arm Embedded Processors 7-2018-q2-update) 7.3.1 20180622 (release) [AR
ARM GAS  C:\Users\EBANO_~1\AppData\Local\Temp\cchbxRq9.s 			page 280


DEFINED SYMBOLS
                            *ABS*:00000000 RegionCN470.c
C:\Users\EBANO_~1\AppData\Local\Temp\cchbxRq9.s:16     .text.RegionCN470GetPhyParam:00000000 $t
C:\Users\EBANO_~1\AppData\Local\Temp\cchbxRq9.s:24     .text.RegionCN470GetPhyParam:00000000 RegionCN470GetPhyParam
C:\Users\EBANO_~1\AppData\Local\Temp\cchbxRq9.s:55     .rodata:00000000 $d
C:\Users\EBANO_~1\AppData\Local\Temp\cchbxRq9.s:289    .text.RegionCN470GetPhyParam:000000dc $d
C:\Users\EBANO_~1\AppData\Local\Temp\cchbxRq9.s:2791   .bss:00000000 NvmCtx
                          .rodata:000000cc MaxPayloadOfDatarateRepeaterCN470
C:\Users\EBANO_~1\AppData\Local\Temp\cchbxRq9.s:308    .text.RegionCN470SetBandTxDone:00000000 $t
C:\Users\EBANO_~1\AppData\Local\Temp\cchbxRq9.s:316    .text.RegionCN470SetBandTxDone:00000000 RegionCN470SetBandTxDone
C:\Users\EBANO_~1\AppData\Local\Temp\cchbxRq9.s:352    .text.RegionCN470SetBandTxDone:00000020 $d
C:\Users\EBANO_~1\AppData\Local\Temp\cchbxRq9.s:357    .text.RegionCN470InitDefaults:00000000 $t
C:\Users\EBANO_~1\AppData\Local\Temp\cchbxRq9.s:365    .text.RegionCN470InitDefaults:00000000 RegionCN470InitDefaults
C:\Users\EBANO_~1\AppData\Local\Temp\cchbxRq9.s:487    .text.RegionCN470InitDefaults:00000090 $d
C:\Users\EBANO_~1\AppData\Local\Temp\cchbxRq9.s:499    .text.RegionCN470GetNvmCtx:00000000 $t
C:\Users\EBANO_~1\AppData\Local\Temp\cchbxRq9.s:507    .text.RegionCN470GetNvmCtx:00000000 RegionCN470GetNvmCtx
C:\Users\EBANO_~1\AppData\Local\Temp\cchbxRq9.s:527    .text.RegionCN470GetNvmCtx:0000000c $d
C:\Users\EBANO_~1\AppData\Local\Temp\cchbxRq9.s:532    .text.RegionCN470Verify:00000000 $t
C:\Users\EBANO_~1\AppData\Local\Temp\cchbxRq9.s:540    .text.RegionCN470Verify:00000000 RegionCN470Verify
C:\Users\EBANO_~1\AppData\Local\Temp\cchbxRq9.s:602    .text.RegionCN470ApplyCFList:00000000 $t
C:\Users\EBANO_~1\AppData\Local\Temp\cchbxRq9.s:610    .text.RegionCN470ApplyCFList:00000000 RegionCN470ApplyCFList
C:\Users\EBANO_~1\AppData\Local\Temp\cchbxRq9.s:707    .text.RegionCN470ApplyCFList:0000006c $d
C:\Users\EBANO_~1\AppData\Local\Temp\cchbxRq9.s:717    .text.RegionCN470ChanMaskSet:00000000 $t
C:\Users\EBANO_~1\AppData\Local\Temp\cchbxRq9.s:725    .text.RegionCN470ChanMaskSet:00000000 RegionCN470ChanMaskSet
C:\Users\EBANO_~1\AppData\Local\Temp\cchbxRq9.s:779    .text.RegionCN470ChanMaskSet:0000002c $d
C:\Users\EBANO_~1\AppData\Local\Temp\cchbxRq9.s:785    .text.RegionCN470ComputeRxWindowParameters:00000000 $t
C:\Users\EBANO_~1\AppData\Local\Temp\cchbxRq9.s:793    .text.RegionCN470ComputeRxWindowParameters:00000000 RegionCN470ComputeRxWindowParameters
C:\Users\EBANO_~1\AppData\Local\Temp\cchbxRq9.s:913    .text.RegionCN470ComputeRxWindowParameters:00000070 $d
C:\Users\EBANO_~1\AppData\Local\Temp\cchbxRq9.s:924    .text.RegionCN470RxConfig:00000000 $t
C:\Users\EBANO_~1\AppData\Local\Temp\cchbxRq9.s:932    .text.RegionCN470RxConfig:00000000 RegionCN470RxConfig
C:\Users\EBANO_~1\AppData\Local\Temp\cchbxRq9.s:1093   .text.RegionCN470RxConfig:000000b0 $d
C:\Users\EBANO_~1\AppData\Local\Temp\cchbxRq9.s:1103   .text.RegionCN470TxConfig:00000000 $t
C:\Users\EBANO_~1\AppData\Local\Temp\cchbxRq9.s:1111   .text.RegionCN470TxConfig:00000000 RegionCN470TxConfig
C:\Users\EBANO_~1\AppData\Local\Temp\cchbxRq9.s:1297   .text.RegionCN470TxConfig:000000c0 $d
C:\Users\EBANO_~1\AppData\Local\Temp\cchbxRq9.s:1305   .text.RegionCN470LinkAdrReq:00000000 $t
C:\Users\EBANO_~1\AppData\Local\Temp\cchbxRq9.s:1313   .text.RegionCN470LinkAdrReq:00000000 RegionCN470LinkAdrReq
C:\Users\EBANO_~1\AppData\Local\Temp\cchbxRq9.s:1900   .text.RegionCN470LinkAdrReq:000002b0 $d
C:\Users\EBANO_~1\AppData\Local\Temp\cchbxRq9.s:1906   .text.RegionCN470RxParamSetupReq:00000000 $t
C:\Users\EBANO_~1\AppData\Local\Temp\cchbxRq9.s:1914   .text.RegionCN470RxParamSetupReq:00000000 RegionCN470RxParamSetupReq
C:\Users\EBANO_~1\AppData\Local\Temp\cchbxRq9.s:2028   .text.RegionCN470RxParamSetupReq:00000060 $d
C:\Users\EBANO_~1\AppData\Local\Temp\cchbxRq9.s:2036   .text.RegionCN470NewChannelReq:00000000 $t
C:\Users\EBANO_~1\AppData\Local\Temp\cchbxRq9.s:2044   .text.RegionCN470NewChannelReq:00000000 RegionCN470NewChannelReq
C:\Users\EBANO_~1\AppData\Local\Temp\cchbxRq9.s:2061   .text.RegionCN470TxParamSetupReq:00000000 $t
C:\Users\EBANO_~1\AppData\Local\Temp\cchbxRq9.s:2069   .text.RegionCN470TxParamSetupReq:00000000 RegionCN470TxParamSetupReq
C:\Users\EBANO_~1\AppData\Local\Temp\cchbxRq9.s:2088   .text.RegionCN470DlChannelReq:00000000 $t
C:\Users\EBANO_~1\AppData\Local\Temp\cchbxRq9.s:2096   .text.RegionCN470DlChannelReq:00000000 RegionCN470DlChannelReq
C:\Users\EBANO_~1\AppData\Local\Temp\cchbxRq9.s:2109   .text.RegionCN470AlternateDr:00000000 $t
C:\Users\EBANO_~1\AppData\Local\Temp\cchbxRq9.s:2117   .text.RegionCN470AlternateDr:00000000 RegionCN470AlternateDr
C:\Users\EBANO_~1\AppData\Local\Temp\cchbxRq9.s:2132   .text.RegionCN470CalcBackOff:00000000 $t
C:\Users\EBANO_~1\AppData\Local\Temp\cchbxRq9.s:2140   .text.RegionCN470CalcBackOff:00000000 RegionCN470CalcBackOff
C:\Users\EBANO_~1\AppData\Local\Temp\cchbxRq9.s:2202   .text.RegionCN470CalcBackOff:00000038 $d
C:\Users\EBANO_~1\AppData\Local\Temp\cchbxRq9.s:2207   .text.RegionCN470NextChannel:00000000 $t
C:\Users\EBANO_~1\AppData\Local\Temp\cchbxRq9.s:2215   .text.RegionCN470NextChannel:00000000 RegionCN470NextChannel
C:\Users\EBANO_~1\AppData\Local\Temp\cchbxRq9.s:2518   .text.RegionCN470NextChannel:00000154 $d
C:\Users\EBANO_~1\AppData\Local\Temp\cchbxRq9.s:2525   .text.RegionCN470ChannelAdd:00000000 $t
C:\Users\EBANO_~1\AppData\Local\Temp\cchbxRq9.s:2533   .text.RegionCN470ChannelAdd:00000000 RegionCN470ChannelAdd
C:\Users\EBANO_~1\AppData\Local\Temp\cchbxRq9.s:2550   .text.RegionCN470ChannelsRemove:00000000 $t
ARM GAS  C:\Users\EBANO_~1\AppData\Local\Temp\cchbxRq9.s 			page 281


C:\Users\EBANO_~1\AppData\Local\Temp\cchbxRq9.s:2558   .text.RegionCN470ChannelsRemove:00000000 RegionCN470ChannelsRemove
C:\Users\EBANO_~1\AppData\Local\Temp\cchbxRq9.s:2575   .text.RegionCN470SetContinuousWave:00000000 $t
C:\Users\EBANO_~1\AppData\Local\Temp\cchbxRq9.s:2583   .text.RegionCN470SetContinuousWave:00000000 RegionCN470SetContinuousWave
C:\Users\EBANO_~1\AppData\Local\Temp\cchbxRq9.s:2673   .text.RegionCN470SetContinuousWave:00000048 $d
C:\Users\EBANO_~1\AppData\Local\Temp\cchbxRq9.s:2679   .text.RegionCN470ApplyDrOffset:00000000 $t
C:\Users\EBANO_~1\AppData\Local\Temp\cchbxRq9.s:2687   .text.RegionCN470ApplyDrOffset:00000000 RegionCN470ApplyDrOffset
C:\Users\EBANO_~1\AppData\Local\Temp\cchbxRq9.s:2713   .text.RegionCN470RxBeaconSetup:00000000 $t
C:\Users\EBANO_~1\AppData\Local\Temp\cchbxRq9.s:2721   .text.RegionCN470RxBeaconSetup:00000000 RegionCN470RxBeaconSetup
C:\Users\EBANO_~1\AppData\Local\Temp\cchbxRq9.s:2781   .text.RegionCN470RxBeaconSetup:00000030 $d
C:\Users\EBANO_~1\AppData\Local\Temp\cchbxRq9.s:2818   .rodata:000000cc MaxPayloadOfDatarateCN470
C:\Users\EBANO_~1\AppData\Local\Temp\cchbxRq9.s:2788   .bss:00000000 $d
C:\Users\EBANO_~1\AppData\Local\Temp\cchbxRq9.s:2798   .rodata:000000ac BandwidthsCN470
C:\Users\EBANO_~1\AppData\Local\Temp\cchbxRq9.s:2807   .rodata:000000c4 DataratesCN470

UNDEFINED SYMBOLS
randr
RegionCommonSetBandTxDone
memcpy1
RegionCommonChanMaskCopy
RegionCommonValueInRange
RegionCommonComputeSymbolTimeLoRa
RegionCommonComputeRxWindowParameters
Radio
__aeabi_uidivmod
RegionCommonComputeTxPower
memset
RegionCommonParseLinkAdrReq
RegionCommonLinkAdrReqVerifyParams
RegionCommonCalcBackOff
RegionCommonCountChannels
TimerGetElapsedTime
RegionCommonUpdateBandTimeOff
RegionCommonRxBeaconSetup
