ARM GAS  C:\Users\EBANO_~1\AppData\Local\Temp\ccFRmLE5.s 			page 1


   1              		.cpu cortex-m0plus
   2              		.eabi_attribute 20, 1
   3              		.eabi_attribute 21, 1
   4              		.eabi_attribute 23, 3
   5              		.eabi_attribute 24, 1
   6              		.eabi_attribute 25, 1
   7              		.eabi_attribute 26, 1
   8              		.eabi_attribute 30, 2
   9              		.eabi_attribute 34, 0
  10              		.eabi_attribute 18, 4
  11              		.file	"RegionUS915.c"
  12              		.text
  13              	.Ltext0:
  14              		.cfi_sections	.debug_frame
  15              		.section	.text.RegionUS915GetPhyParam,"ax",%progbits
  16              		.align	1
  17              		.p2align 2,,3
  18              		.global	RegionUS915GetPhyParam
  19              		.syntax unified
  20              		.code	16
  21              		.thumb_func
  22              		.fpu softvfp
  23              		.type	RegionUS915GetPhyParam, %function
  24              	RegionUS915GetPhyParam:
  25              	.LFB46:
  26              		.file 1 "../../../../../../Middlewares/Third_Party/LoRaWAN/Mac/region/RegionUS915.c"
   1:../../../../../../Middlewares/Third_Party/LoRaWAN/Mac/region/RegionUS915.c **** /*!
   2:../../../../../../Middlewares/Third_Party/LoRaWAN/Mac/region/RegionUS915.c ****  * \file      RegionUS915.c
   3:../../../../../../Middlewares/Third_Party/LoRaWAN/Mac/region/RegionUS915.c ****  *
   4:../../../../../../Middlewares/Third_Party/LoRaWAN/Mac/region/RegionUS915.c ****  * \brief     Region implementation for US915
   5:../../../../../../Middlewares/Third_Party/LoRaWAN/Mac/region/RegionUS915.c ****  *
   6:../../../../../../Middlewares/Third_Party/LoRaWAN/Mac/region/RegionUS915.c ****  * \copyright Revised BSD License, see section \ref LICENSE.
   7:../../../../../../Middlewares/Third_Party/LoRaWAN/Mac/region/RegionUS915.c ****  *
   8:../../../../../../Middlewares/Third_Party/LoRaWAN/Mac/region/RegionUS915.c ****  * \code
   9:../../../../../../Middlewares/Third_Party/LoRaWAN/Mac/region/RegionUS915.c ****  *                ______                              _
  10:../../../../../../Middlewares/Third_Party/LoRaWAN/Mac/region/RegionUS915.c ****  *               / _____)             _              | |
  11:../../../../../../Middlewares/Third_Party/LoRaWAN/Mac/region/RegionUS915.c ****  *              ( (____  _____ ____ _| |_ _____  ____| |__
  12:../../../../../../Middlewares/Third_Party/LoRaWAN/Mac/region/RegionUS915.c ****  *               \____ \| ___ |    (_   _) ___ |/ ___)  _ \
  13:../../../../../../Middlewares/Third_Party/LoRaWAN/Mac/region/RegionUS915.c ****  *               _____) ) ____| | | || |_| ____( (___| | | |
  14:../../../../../../Middlewares/Third_Party/LoRaWAN/Mac/region/RegionUS915.c ****  *              (______/|_____)_|_|_| \__)_____)\____)_| |_|
  15:../../../../../../Middlewares/Third_Party/LoRaWAN/Mac/region/RegionUS915.c ****  *              (C)2013-2017 Semtech
  16:../../../../../../Middlewares/Third_Party/LoRaWAN/Mac/region/RegionUS915.c ****  *
  17:../../../../../../Middlewares/Third_Party/LoRaWAN/Mac/region/RegionUS915.c ****  *               ___ _____ _   ___ _  _____ ___  ___  ___ ___
  18:../../../../../../Middlewares/Third_Party/LoRaWAN/Mac/region/RegionUS915.c ****  *              / __|_   _/_\ / __| |/ / __/ _ \| _ \/ __| __|
  19:../../../../../../Middlewares/Third_Party/LoRaWAN/Mac/region/RegionUS915.c ****  *              \__ \ | |/ _ \ (__| ' <| _| (_) |   / (__| _|
  20:../../../../../../Middlewares/Third_Party/LoRaWAN/Mac/region/RegionUS915.c ****  *              |___/ |_/_/ \_\___|_|\_\_| \___/|_|_\\___|___|
  21:../../../../../../Middlewares/Third_Party/LoRaWAN/Mac/region/RegionUS915.c ****  *              embedded.connectivity.solutions===============
  22:../../../../../../Middlewares/Third_Party/LoRaWAN/Mac/region/RegionUS915.c ****  *
  23:../../../../../../Middlewares/Third_Party/LoRaWAN/Mac/region/RegionUS915.c ****  * \endcode
  24:../../../../../../Middlewares/Third_Party/LoRaWAN/Mac/region/RegionUS915.c ****  *
  25:../../../../../../Middlewares/Third_Party/LoRaWAN/Mac/region/RegionUS915.c ****  * \author    Miguel Luis ( Semtech )
  26:../../../../../../Middlewares/Third_Party/LoRaWAN/Mac/region/RegionUS915.c ****  *
  27:../../../../../../Middlewares/Third_Party/LoRaWAN/Mac/region/RegionUS915.c ****  * \author    Gregory Cristian ( Semtech )
  28:../../../../../../Middlewares/Third_Party/LoRaWAN/Mac/region/RegionUS915.c ****  *
  29:../../../../../../Middlewares/Third_Party/LoRaWAN/Mac/region/RegionUS915.c ****  * \author    Daniel Jaeckle ( STACKFORCE )
  30:../../../../../../Middlewares/Third_Party/LoRaWAN/Mac/region/RegionUS915.c **** */
  31:../../../../../../Middlewares/Third_Party/LoRaWAN/Mac/region/RegionUS915.c **** #include "utilities.h"
ARM GAS  C:\Users\EBANO_~1\AppData\Local\Temp\ccFRmLE5.s 			page 2


  32:../../../../../../Middlewares/Third_Party/LoRaWAN/Mac/region/RegionUS915.c **** 
  33:../../../../../../Middlewares/Third_Party/LoRaWAN/Mac/region/RegionUS915.c **** #include "RegionCommon.h"
  34:../../../../../../Middlewares/Third_Party/LoRaWAN/Mac/region/RegionUS915.c **** #include "RegionUS915.h"
  35:../../../../../../Middlewares/Third_Party/LoRaWAN/Mac/region/RegionUS915.c **** #include "util_console.h"
  36:../../../../../../Middlewares/Third_Party/LoRaWAN/Mac/region/RegionUS915.c **** 
  37:../../../../../../Middlewares/Third_Party/LoRaWAN/Mac/region/RegionUS915.c **** // Definitions
  38:../../../../../../Middlewares/Third_Party/LoRaWAN/Mac/region/RegionUS915.c **** #define CHANNELS_MASK_SIZE              6
  39:../../../../../../Middlewares/Third_Party/LoRaWAN/Mac/region/RegionUS915.c **** 
  40:../../../../../../Middlewares/Third_Party/LoRaWAN/Mac/region/RegionUS915.c **** // A mask to select only valid 500KHz channels
  41:../../../../../../Middlewares/Third_Party/LoRaWAN/Mac/region/RegionUS915.c **** #define CHANNELS_MASK_500KHZ_MASK       0x00FF
  42:../../../../../../Middlewares/Third_Party/LoRaWAN/Mac/region/RegionUS915.c **** 
  43:../../../../../../Middlewares/Third_Party/LoRaWAN/Mac/region/RegionUS915.c **** /*!
  44:../../../../../../Middlewares/Third_Party/LoRaWAN/Mac/region/RegionUS915.c ****  * Region specific context
  45:../../../../../../Middlewares/Third_Party/LoRaWAN/Mac/region/RegionUS915.c ****  */
  46:../../../../../../Middlewares/Third_Party/LoRaWAN/Mac/region/RegionUS915.c **** typedef struct sRegionUS915NvmCtx
  47:../../../../../../Middlewares/Third_Party/LoRaWAN/Mac/region/RegionUS915.c **** {
  48:../../../../../../Middlewares/Third_Party/LoRaWAN/Mac/region/RegionUS915.c ****     /*!
  49:../../../../../../Middlewares/Third_Party/LoRaWAN/Mac/region/RegionUS915.c ****      * LoRaMAC channels
  50:../../../../../../Middlewares/Third_Party/LoRaWAN/Mac/region/RegionUS915.c ****      */
  51:../../../../../../Middlewares/Third_Party/LoRaWAN/Mac/region/RegionUS915.c ****     ChannelParams_t Channels[ US915_MAX_NB_CHANNELS ];
  52:../../../../../../Middlewares/Third_Party/LoRaWAN/Mac/region/RegionUS915.c ****     /*!
  53:../../../../../../Middlewares/Third_Party/LoRaWAN/Mac/region/RegionUS915.c ****      * LoRaMac bands
  54:../../../../../../Middlewares/Third_Party/LoRaWAN/Mac/region/RegionUS915.c ****      */
  55:../../../../../../Middlewares/Third_Party/LoRaWAN/Mac/region/RegionUS915.c ****     Band_t Bands[ US915_MAX_NB_BANDS ];
  56:../../../../../../Middlewares/Third_Party/LoRaWAN/Mac/region/RegionUS915.c ****     /*!
  57:../../../../../../Middlewares/Third_Party/LoRaWAN/Mac/region/RegionUS915.c ****      * LoRaMac channels mask
  58:../../../../../../Middlewares/Third_Party/LoRaWAN/Mac/region/RegionUS915.c ****      */
  59:../../../../../../Middlewares/Third_Party/LoRaWAN/Mac/region/RegionUS915.c ****     uint16_t ChannelsMask[ CHANNELS_MASK_SIZE ];
  60:../../../../../../Middlewares/Third_Party/LoRaWAN/Mac/region/RegionUS915.c ****     /*!
  61:../../../../../../Middlewares/Third_Party/LoRaWAN/Mac/region/RegionUS915.c ****      * LoRaMac channels remaining
  62:../../../../../../Middlewares/Third_Party/LoRaWAN/Mac/region/RegionUS915.c ****      */
  63:../../../../../../Middlewares/Third_Party/LoRaWAN/Mac/region/RegionUS915.c ****     uint16_t ChannelsMaskRemaining[CHANNELS_MASK_SIZE];
  64:../../../../../../Middlewares/Third_Party/LoRaWAN/Mac/region/RegionUS915.c ****     /*!
  65:../../../../../../Middlewares/Third_Party/LoRaWAN/Mac/region/RegionUS915.c ****      * LoRaMac channels default mask
  66:../../../../../../Middlewares/Third_Party/LoRaWAN/Mac/region/RegionUS915.c ****      */
  67:../../../../../../Middlewares/Third_Party/LoRaWAN/Mac/region/RegionUS915.c ****     uint16_t ChannelsDefaultMask[ CHANNELS_MASK_SIZE ];
  68:../../../../../../Middlewares/Third_Party/LoRaWAN/Mac/region/RegionUS915.c ****     /*!
  69:../../../../../../Middlewares/Third_Party/LoRaWAN/Mac/region/RegionUS915.c ****      * Index of current in use 8 bit group (0: bit 0 - 7, 1: bit 8 - 15, ..., 7: bit 56 - 63)
  70:../../../../../../Middlewares/Third_Party/LoRaWAN/Mac/region/RegionUS915.c ****      */
  71:../../../../../../Middlewares/Third_Party/LoRaWAN/Mac/region/RegionUS915.c ****     uint8_t JoinChannelGroupsCurrentIndex;
  72:../../../../../../Middlewares/Third_Party/LoRaWAN/Mac/region/RegionUS915.c ****     /*!
  73:../../../../../../Middlewares/Third_Party/LoRaWAN/Mac/region/RegionUS915.c ****      * Counter of join trials needed to alternate between DR0 and DR4, see \ref RegionUS915Alternat
  74:../../../../../../Middlewares/Third_Party/LoRaWAN/Mac/region/RegionUS915.c ****      */
  75:../../../../../../Middlewares/Third_Party/LoRaWAN/Mac/region/RegionUS915.c ****     uint8_t JoinTrialsCounter;
  76:../../../../../../Middlewares/Third_Party/LoRaWAN/Mac/region/RegionUS915.c **** }RegionUS915NvmCtx_t;
  77:../../../../../../Middlewares/Third_Party/LoRaWAN/Mac/region/RegionUS915.c **** 
  78:../../../../../../Middlewares/Third_Party/LoRaWAN/Mac/region/RegionUS915.c **** /*
  79:../../../../../../Middlewares/Third_Party/LoRaWAN/Mac/region/RegionUS915.c ****  * Non-volatile module context.
  80:../../../../../../Middlewares/Third_Party/LoRaWAN/Mac/region/RegionUS915.c ****  */
  81:../../../../../../Middlewares/Third_Party/LoRaWAN/Mac/region/RegionUS915.c **** static RegionUS915NvmCtx_t NvmCtx;
  82:../../../../../../Middlewares/Third_Party/LoRaWAN/Mac/region/RegionUS915.c **** 
  83:../../../../../../Middlewares/Third_Party/LoRaWAN/Mac/region/RegionUS915.c **** // Static functions
  84:../../../../../../Middlewares/Third_Party/LoRaWAN/Mac/region/RegionUS915.c **** static int8_t GetNextLowerTxDr( int8_t dr, int8_t minDr )
  85:../../../../../../Middlewares/Third_Party/LoRaWAN/Mac/region/RegionUS915.c **** {
  86:../../../../../../Middlewares/Third_Party/LoRaWAN/Mac/region/RegionUS915.c ****     uint8_t nextLowerDr = 0;
  87:../../../../../../Middlewares/Third_Party/LoRaWAN/Mac/region/RegionUS915.c **** 
  88:../../../../../../Middlewares/Third_Party/LoRaWAN/Mac/region/RegionUS915.c ****     if( dr == minDr )
ARM GAS  C:\Users\EBANO_~1\AppData\Local\Temp\ccFRmLE5.s 			page 3


  89:../../../../../../Middlewares/Third_Party/LoRaWAN/Mac/region/RegionUS915.c ****     {
  90:../../../../../../Middlewares/Third_Party/LoRaWAN/Mac/region/RegionUS915.c ****         nextLowerDr = minDr;
  91:../../../../../../Middlewares/Third_Party/LoRaWAN/Mac/region/RegionUS915.c ****     }
  92:../../../../../../Middlewares/Third_Party/LoRaWAN/Mac/region/RegionUS915.c ****     else
  93:../../../../../../Middlewares/Third_Party/LoRaWAN/Mac/region/RegionUS915.c ****     {
  94:../../../../../../Middlewares/Third_Party/LoRaWAN/Mac/region/RegionUS915.c ****         nextLowerDr = dr - 1;
  95:../../../../../../Middlewares/Third_Party/LoRaWAN/Mac/region/RegionUS915.c ****     }
  96:../../../../../../Middlewares/Third_Party/LoRaWAN/Mac/region/RegionUS915.c ****     return nextLowerDr;
  97:../../../../../../Middlewares/Third_Party/LoRaWAN/Mac/region/RegionUS915.c **** }
  98:../../../../../../Middlewares/Third_Party/LoRaWAN/Mac/region/RegionUS915.c **** 
  99:../../../../../../Middlewares/Third_Party/LoRaWAN/Mac/region/RegionUS915.c **** /*!
 100:../../../../../../Middlewares/Third_Party/LoRaWAN/Mac/region/RegionUS915.c ****  * \brief Searches for available 125 kHz channels in the given channel mask.
 101:../../../../../../Middlewares/Third_Party/LoRaWAN/Mac/region/RegionUS915.c ****  *
 102:../../../../../../Middlewares/Third_Party/LoRaWAN/Mac/region/RegionUS915.c ****  * \param [IN] channelMaskRemaining The remaining channel mask.
 103:../../../../../../Middlewares/Third_Party/LoRaWAN/Mac/region/RegionUS915.c ****  *
 104:../../../../../../Middlewares/Third_Party/LoRaWAN/Mac/region/RegionUS915.c ****  * \param [OUT] findAvailableChannelsIndex List containing the indexes of all available 125 kHz cha
 105:../../../../../../Middlewares/Third_Party/LoRaWAN/Mac/region/RegionUS915.c ****  *
 106:../../../../../../Middlewares/Third_Party/LoRaWAN/Mac/region/RegionUS915.c ****  * \param [OUT] availableChannels Number of available 125 kHz channels.
 107:../../../../../../Middlewares/Third_Party/LoRaWAN/Mac/region/RegionUS915.c ****  *
 108:../../../../../../Middlewares/Third_Party/LoRaWAN/Mac/region/RegionUS915.c ****  * \retval Status
 109:../../../../../../Middlewares/Third_Party/LoRaWAN/Mac/region/RegionUS915.c ****  */
 110:../../../../../../Middlewares/Third_Party/LoRaWAN/Mac/region/RegionUS915.c **** static LoRaMacStatus_t FindAvailable125kHzChannels( uint8_t* findAvailableChannelsIndex, uint16_t c
 111:../../../../../../Middlewares/Third_Party/LoRaWAN/Mac/region/RegionUS915.c **** {
 112:../../../../../../Middlewares/Third_Party/LoRaWAN/Mac/region/RegionUS915.c ****     // Nullpointer check
 113:../../../../../../Middlewares/Third_Party/LoRaWAN/Mac/region/RegionUS915.c ****     if( findAvailableChannelsIndex == NULL || availableChannels == NULL )
 114:../../../../../../Middlewares/Third_Party/LoRaWAN/Mac/region/RegionUS915.c ****     {
 115:../../../../../../Middlewares/Third_Party/LoRaWAN/Mac/region/RegionUS915.c ****         return LORAMAC_STATUS_PARAMETER_INVALID;
 116:../../../../../../Middlewares/Third_Party/LoRaWAN/Mac/region/RegionUS915.c ****     }
 117:../../../../../../Middlewares/Third_Party/LoRaWAN/Mac/region/RegionUS915.c **** 
 118:../../../../../../Middlewares/Third_Party/LoRaWAN/Mac/region/RegionUS915.c ****     // Initialize counter
 119:../../../../../../Middlewares/Third_Party/LoRaWAN/Mac/region/RegionUS915.c ****     *availableChannels = 0;
 120:../../../../../../Middlewares/Third_Party/LoRaWAN/Mac/region/RegionUS915.c ****     for( uint8_t i = 0; i < 8; i++ )
 121:../../../../../../Middlewares/Third_Party/LoRaWAN/Mac/region/RegionUS915.c ****     {
 122:../../../../../../Middlewares/Third_Party/LoRaWAN/Mac/region/RegionUS915.c ****         // Find available channels
 123:../../../../../../Middlewares/Third_Party/LoRaWAN/Mac/region/RegionUS915.c ****         if( ( channelMaskRemaining & ( 1 << i ) ) != 0 )
 124:../../../../../../Middlewares/Third_Party/LoRaWAN/Mac/region/RegionUS915.c ****         {
 125:../../../../../../Middlewares/Third_Party/LoRaWAN/Mac/region/RegionUS915.c ****             // Save available channel index
 126:../../../../../../Middlewares/Third_Party/LoRaWAN/Mac/region/RegionUS915.c ****             findAvailableChannelsIndex[*availableChannels] = i;
 127:../../../../../../Middlewares/Third_Party/LoRaWAN/Mac/region/RegionUS915.c ****             // Increment counter of available channels if the current channel is available
 128:../../../../../../Middlewares/Third_Party/LoRaWAN/Mac/region/RegionUS915.c ****             ( *availableChannels )++;
 129:../../../../../../Middlewares/Third_Party/LoRaWAN/Mac/region/RegionUS915.c ****         }
 130:../../../../../../Middlewares/Third_Party/LoRaWAN/Mac/region/RegionUS915.c ****     }
 131:../../../../../../Middlewares/Third_Party/LoRaWAN/Mac/region/RegionUS915.c **** 
 132:../../../../../../Middlewares/Third_Party/LoRaWAN/Mac/region/RegionUS915.c ****     return LORAMAC_STATUS_OK;
 133:../../../../../../Middlewares/Third_Party/LoRaWAN/Mac/region/RegionUS915.c **** }
 134:../../../../../../Middlewares/Third_Party/LoRaWAN/Mac/region/RegionUS915.c **** 
 135:../../../../../../Middlewares/Third_Party/LoRaWAN/Mac/region/RegionUS915.c **** /*!
 136:../../../../../../Middlewares/Third_Party/LoRaWAN/Mac/region/RegionUS915.c ****  * \brief Computes the next 125kHz channel used for join requests.
 137:../../../../../../Middlewares/Third_Party/LoRaWAN/Mac/region/RegionUS915.c ****  *
 138:../../../../../../Middlewares/Third_Party/LoRaWAN/Mac/region/RegionUS915.c ****  * \param [OUT] newChannelIndex Index of available channel.
 139:../../../../../../Middlewares/Third_Party/LoRaWAN/Mac/region/RegionUS915.c ****  *
 140:../../../../../../Middlewares/Third_Party/LoRaWAN/Mac/region/RegionUS915.c ****  * \retval Status
 141:../../../../../../Middlewares/Third_Party/LoRaWAN/Mac/region/RegionUS915.c ****  */
 142:../../../../../../Middlewares/Third_Party/LoRaWAN/Mac/region/RegionUS915.c **** static LoRaMacStatus_t ComputeNext125kHzJoinChannel( uint8_t* newChannelIndex )
 143:../../../../../../Middlewares/Third_Party/LoRaWAN/Mac/region/RegionUS915.c **** {
 144:../../../../../../Middlewares/Third_Party/LoRaWAN/Mac/region/RegionUS915.c ****     uint8_t currentChannelsMaskRemainingIndex;
 145:../../../../../../Middlewares/Third_Party/LoRaWAN/Mac/region/RegionUS915.c ****     uint16_t channelMaskRemaining;
ARM GAS  C:\Users\EBANO_~1\AppData\Local\Temp\ccFRmLE5.s 			page 4


 146:../../../../../../Middlewares/Third_Party/LoRaWAN/Mac/region/RegionUS915.c ****     uint8_t findAvailableChannelsIndex[8] = { 0 };
 147:../../../../../../Middlewares/Third_Party/LoRaWAN/Mac/region/RegionUS915.c ****     uint8_t availableChannels = 0;
 148:../../../../../../Middlewares/Third_Party/LoRaWAN/Mac/region/RegionUS915.c ****     uint8_t startIndex = NvmCtx.JoinChannelGroupsCurrentIndex;
 149:../../../../../../Middlewares/Third_Party/LoRaWAN/Mac/region/RegionUS915.c **** 
 150:../../../../../../Middlewares/Third_Party/LoRaWAN/Mac/region/RegionUS915.c ****     // Null pointer check
 151:../../../../../../Middlewares/Third_Party/LoRaWAN/Mac/region/RegionUS915.c ****     if( newChannelIndex == NULL )
 152:../../../../../../Middlewares/Third_Party/LoRaWAN/Mac/region/RegionUS915.c ****     {
 153:../../../../../../Middlewares/Third_Party/LoRaWAN/Mac/region/RegionUS915.c ****         return LORAMAC_STATUS_PARAMETER_INVALID;
 154:../../../../../../Middlewares/Third_Party/LoRaWAN/Mac/region/RegionUS915.c ****     }
 155:../../../../../../Middlewares/Third_Party/LoRaWAN/Mac/region/RegionUS915.c **** 
 156:../../../../../../Middlewares/Third_Party/LoRaWAN/Mac/region/RegionUS915.c ****     do {
 157:../../../../../../Middlewares/Third_Party/LoRaWAN/Mac/region/RegionUS915.c ****         // Current ChannelMaskRemaining, two groups per channel mask. For example Group 0 and 1 (8 
 158:../../../../../../Middlewares/Third_Party/LoRaWAN/Mac/region/RegionUS915.c ****         currentChannelsMaskRemainingIndex = (uint8_t) startIndex / 2;
 159:../../../../../../Middlewares/Third_Party/LoRaWAN/Mac/region/RegionUS915.c **** 
 160:../../../../../../Middlewares/Third_Party/LoRaWAN/Mac/region/RegionUS915.c ****         // For even numbers we need the 8 LSBs and for uneven the 8 MSBs
 161:../../../../../../Middlewares/Third_Party/LoRaWAN/Mac/region/RegionUS915.c ****         if( ( startIndex % 2 ) == 0 )
 162:../../../../../../Middlewares/Third_Party/LoRaWAN/Mac/region/RegionUS915.c ****         {
 163:../../../../../../Middlewares/Third_Party/LoRaWAN/Mac/region/RegionUS915.c ****             channelMaskRemaining = ( NvmCtx.ChannelsMaskRemaining[currentChannelsMaskRemainingIndex
 164:../../../../../../Middlewares/Third_Party/LoRaWAN/Mac/region/RegionUS915.c ****         }
 165:../../../../../../Middlewares/Third_Party/LoRaWAN/Mac/region/RegionUS915.c ****         else
 166:../../../../../../Middlewares/Third_Party/LoRaWAN/Mac/region/RegionUS915.c ****         {
 167:../../../../../../Middlewares/Third_Party/LoRaWAN/Mac/region/RegionUS915.c ****             channelMaskRemaining = ( ( NvmCtx.ChannelsMaskRemaining[currentChannelsMaskRemainingInd
 168:../../../../../../Middlewares/Third_Party/LoRaWAN/Mac/region/RegionUS915.c ****         }
 169:../../../../../../Middlewares/Third_Party/LoRaWAN/Mac/region/RegionUS915.c **** 
 170:../../../../../../Middlewares/Third_Party/LoRaWAN/Mac/region/RegionUS915.c **** 
 171:../../../../../../Middlewares/Third_Party/LoRaWAN/Mac/region/RegionUS915.c ****         if( FindAvailable125kHzChannels( findAvailableChannelsIndex, channelMaskRemaining, &availab
 172:../../../../../../Middlewares/Third_Party/LoRaWAN/Mac/region/RegionUS915.c ****         {
 173:../../../../../../Middlewares/Third_Party/LoRaWAN/Mac/region/RegionUS915.c ****             return LORAMAC_STATUS_PARAMETER_INVALID;
 174:../../../../../../Middlewares/Third_Party/LoRaWAN/Mac/region/RegionUS915.c ****         }
 175:../../../../../../Middlewares/Third_Party/LoRaWAN/Mac/region/RegionUS915.c **** 
 176:../../../../../../Middlewares/Third_Party/LoRaWAN/Mac/region/RegionUS915.c ****         if ( availableChannels > 0 )
 177:../../../../../../Middlewares/Third_Party/LoRaWAN/Mac/region/RegionUS915.c ****         {
 178:../../../../../../Middlewares/Third_Party/LoRaWAN/Mac/region/RegionUS915.c ****             // Choose randomly a free channel 125kHz
 179:../../../../../../Middlewares/Third_Party/LoRaWAN/Mac/region/RegionUS915.c ****             *newChannelIndex = ( startIndex * 8 ) + findAvailableChannelsIndex[randr( 0, ( availabl
 180:../../../../../../Middlewares/Third_Party/LoRaWAN/Mac/region/RegionUS915.c ****         }
 181:../../../../../../Middlewares/Third_Party/LoRaWAN/Mac/region/RegionUS915.c **** 
 182:../../../../../../Middlewares/Third_Party/LoRaWAN/Mac/region/RegionUS915.c ****         // Increment start index
 183:../../../../../../Middlewares/Third_Party/LoRaWAN/Mac/region/RegionUS915.c ****         startIndex++;
 184:../../../../../../Middlewares/Third_Party/LoRaWAN/Mac/region/RegionUS915.c ****         if ( startIndex > 7 )
 185:../../../../../../Middlewares/Third_Party/LoRaWAN/Mac/region/RegionUS915.c ****         {
 186:../../../../../../Middlewares/Third_Party/LoRaWAN/Mac/region/RegionUS915.c ****             startIndex = 0;
 187:../../../../../../Middlewares/Third_Party/LoRaWAN/Mac/region/RegionUS915.c ****         }
 188:../../../../../../Middlewares/Third_Party/LoRaWAN/Mac/region/RegionUS915.c ****     } while( ( availableChannels == 0 ) && ( startIndex != NvmCtx.JoinChannelGroupsCurrentIndex ) )
 189:../../../../../../Middlewares/Third_Party/LoRaWAN/Mac/region/RegionUS915.c **** 
 190:../../../../../../Middlewares/Third_Party/LoRaWAN/Mac/region/RegionUS915.c ****     if ( availableChannels > 0 )
 191:../../../../../../Middlewares/Third_Party/LoRaWAN/Mac/region/RegionUS915.c ****     {
 192:../../../../../../Middlewares/Third_Party/LoRaWAN/Mac/region/RegionUS915.c ****         NvmCtx.JoinChannelGroupsCurrentIndex = startIndex;
 193:../../../../../../Middlewares/Third_Party/LoRaWAN/Mac/region/RegionUS915.c ****         return LORAMAC_STATUS_OK;
 194:../../../../../../Middlewares/Third_Party/LoRaWAN/Mac/region/RegionUS915.c ****     }
 195:../../../../../../Middlewares/Third_Party/LoRaWAN/Mac/region/RegionUS915.c **** 
 196:../../../../../../Middlewares/Third_Party/LoRaWAN/Mac/region/RegionUS915.c ****     return LORAMAC_STATUS_PARAMETER_INVALID;
 197:../../../../../../Middlewares/Third_Party/LoRaWAN/Mac/region/RegionUS915.c **** }
 198:../../../../../../Middlewares/Third_Party/LoRaWAN/Mac/region/RegionUS915.c **** 
 199:../../../../../../Middlewares/Third_Party/LoRaWAN/Mac/region/RegionUS915.c **** static uint32_t GetBandwidth( uint32_t drIndex )
 200:../../../../../../Middlewares/Third_Party/LoRaWAN/Mac/region/RegionUS915.c **** {
 201:../../../../../../Middlewares/Third_Party/LoRaWAN/Mac/region/RegionUS915.c ****     switch( BandwidthsUS915[drIndex] )
 202:../../../../../../Middlewares/Third_Party/LoRaWAN/Mac/region/RegionUS915.c ****     {
ARM GAS  C:\Users\EBANO_~1\AppData\Local\Temp\ccFRmLE5.s 			page 5


 203:../../../../../../Middlewares/Third_Party/LoRaWAN/Mac/region/RegionUS915.c ****         default:
 204:../../../../../../Middlewares/Third_Party/LoRaWAN/Mac/region/RegionUS915.c ****         case 125000:
 205:../../../../../../Middlewares/Third_Party/LoRaWAN/Mac/region/RegionUS915.c ****             return 0;
 206:../../../../../../Middlewares/Third_Party/LoRaWAN/Mac/region/RegionUS915.c ****         case 250000:
 207:../../../../../../Middlewares/Third_Party/LoRaWAN/Mac/region/RegionUS915.c ****             return 1;
 208:../../../../../../Middlewares/Third_Party/LoRaWAN/Mac/region/RegionUS915.c ****         case 500000:
 209:../../../../../../Middlewares/Third_Party/LoRaWAN/Mac/region/RegionUS915.c ****             return 2;
 210:../../../../../../Middlewares/Third_Party/LoRaWAN/Mac/region/RegionUS915.c ****     }
 211:../../../../../../Middlewares/Third_Party/LoRaWAN/Mac/region/RegionUS915.c **** }
 212:../../../../../../Middlewares/Third_Party/LoRaWAN/Mac/region/RegionUS915.c **** 
 213:../../../../../../Middlewares/Third_Party/LoRaWAN/Mac/region/RegionUS915.c **** static int8_t LimitTxPower( int8_t txPower, int8_t maxBandTxPower, int8_t datarate, uint16_t* chann
 214:../../../../../../Middlewares/Third_Party/LoRaWAN/Mac/region/RegionUS915.c **** {
 215:../../../../../../Middlewares/Third_Party/LoRaWAN/Mac/region/RegionUS915.c ****     int8_t txPowerResult = txPower;
 216:../../../../../../Middlewares/Third_Party/LoRaWAN/Mac/region/RegionUS915.c **** 
 217:../../../../../../Middlewares/Third_Party/LoRaWAN/Mac/region/RegionUS915.c ****     // Limit tx power to the band max
 218:../../../../../../Middlewares/Third_Party/LoRaWAN/Mac/region/RegionUS915.c ****     txPowerResult =  MAX( txPower, maxBandTxPower );
 219:../../../../../../Middlewares/Third_Party/LoRaWAN/Mac/region/RegionUS915.c **** 
 220:../../../../../../Middlewares/Third_Party/LoRaWAN/Mac/region/RegionUS915.c ****     if( datarate == DR_4 )
 221:../../../../../../Middlewares/Third_Party/LoRaWAN/Mac/region/RegionUS915.c ****     {// Limit tx power to max 26dBm
 222:../../../../../../Middlewares/Third_Party/LoRaWAN/Mac/region/RegionUS915.c ****         txPowerResult = MAX( txPower, TX_POWER_2 );
 223:../../../../../../Middlewares/Third_Party/LoRaWAN/Mac/region/RegionUS915.c ****     }
 224:../../../../../../Middlewares/Third_Party/LoRaWAN/Mac/region/RegionUS915.c ****     else
 225:../../../../../../Middlewares/Third_Party/LoRaWAN/Mac/region/RegionUS915.c ****     {
 226:../../../../../../Middlewares/Third_Party/LoRaWAN/Mac/region/RegionUS915.c ****         if( RegionCommonCountChannels( channelsMask, 0, 4 ) < 50 )
 227:../../../../../../Middlewares/Third_Party/LoRaWAN/Mac/region/RegionUS915.c ****         {// Limit tx power to max 21dBm
 228:../../../../../../Middlewares/Third_Party/LoRaWAN/Mac/region/RegionUS915.c ****             txPowerResult = MAX( txPower, TX_POWER_5 );
 229:../../../../../../Middlewares/Third_Party/LoRaWAN/Mac/region/RegionUS915.c ****         }
 230:../../../../../../Middlewares/Third_Party/LoRaWAN/Mac/region/RegionUS915.c ****     }
 231:../../../../../../Middlewares/Third_Party/LoRaWAN/Mac/region/RegionUS915.c ****     return txPowerResult;
 232:../../../../../../Middlewares/Third_Party/LoRaWAN/Mac/region/RegionUS915.c **** }
 233:../../../../../../Middlewares/Third_Party/LoRaWAN/Mac/region/RegionUS915.c **** 
 234:../../../../../../Middlewares/Third_Party/LoRaWAN/Mac/region/RegionUS915.c **** static bool VerifyRfFreq( uint32_t freq )
 235:../../../../../../Middlewares/Third_Party/LoRaWAN/Mac/region/RegionUS915.c **** {
 236:../../../../../../Middlewares/Third_Party/LoRaWAN/Mac/region/RegionUS915.c ****     // Check radio driver support
 237:../../../../../../Middlewares/Third_Party/LoRaWAN/Mac/region/RegionUS915.c ****     if( Radio.CheckRfFrequency( freq ) == false )
 238:../../../../../../Middlewares/Third_Party/LoRaWAN/Mac/region/RegionUS915.c ****     {
 239:../../../../../../Middlewares/Third_Party/LoRaWAN/Mac/region/RegionUS915.c ****         return false;
 240:../../../../../../Middlewares/Third_Party/LoRaWAN/Mac/region/RegionUS915.c ****     }
 241:../../../../../../Middlewares/Third_Party/LoRaWAN/Mac/region/RegionUS915.c **** 
 242:../../../../../../Middlewares/Third_Party/LoRaWAN/Mac/region/RegionUS915.c ****     // Rx frequencies
 243:../../../../../../Middlewares/Third_Party/LoRaWAN/Mac/region/RegionUS915.c ****     if( ( freq < US915_FIRST_RX1_CHANNEL ) ||
 244:../../../../../../Middlewares/Third_Party/LoRaWAN/Mac/region/RegionUS915.c ****         ( freq > US915_LAST_RX1_CHANNEL ) ||
 245:../../../../../../Middlewares/Third_Party/LoRaWAN/Mac/region/RegionUS915.c ****         ( ( ( freq - ( uint32_t ) US915_FIRST_RX1_CHANNEL ) % ( uint32_t ) US915_STEPWIDTH_RX1_CHAN
 246:../../../../../../Middlewares/Third_Party/LoRaWAN/Mac/region/RegionUS915.c ****     {
 247:../../../../../../Middlewares/Third_Party/LoRaWAN/Mac/region/RegionUS915.c ****         return false;
 248:../../../../../../Middlewares/Third_Party/LoRaWAN/Mac/region/RegionUS915.c ****     }
 249:../../../../../../Middlewares/Third_Party/LoRaWAN/Mac/region/RegionUS915.c **** 
 250:../../../../../../Middlewares/Third_Party/LoRaWAN/Mac/region/RegionUS915.c ****     // Test for frequency range - take RX and TX freqencies into account
 251:../../../../../../Middlewares/Third_Party/LoRaWAN/Mac/region/RegionUS915.c ****     if( ( freq < 902300000 ) ||  ( freq > 927500000 ) )
 252:../../../../../../Middlewares/Third_Party/LoRaWAN/Mac/region/RegionUS915.c ****     {
 253:../../../../../../Middlewares/Third_Party/LoRaWAN/Mac/region/RegionUS915.c ****         return false;
 254:../../../../../../Middlewares/Third_Party/LoRaWAN/Mac/region/RegionUS915.c ****     }
 255:../../../../../../Middlewares/Third_Party/LoRaWAN/Mac/region/RegionUS915.c ****     return true;
 256:../../../../../../Middlewares/Third_Party/LoRaWAN/Mac/region/RegionUS915.c **** }
 257:../../../../../../Middlewares/Third_Party/LoRaWAN/Mac/region/RegionUS915.c **** 
 258:../../../../../../Middlewares/Third_Party/LoRaWAN/Mac/region/RegionUS915.c **** static uint8_t CountNbOfEnabledChannels( uint8_t datarate, uint16_t* channelsMask, ChannelParams_t*
 259:../../../../../../Middlewares/Third_Party/LoRaWAN/Mac/region/RegionUS915.c **** {
ARM GAS  C:\Users\EBANO_~1\AppData\Local\Temp\ccFRmLE5.s 			page 6


 260:../../../../../../Middlewares/Third_Party/LoRaWAN/Mac/region/RegionUS915.c ****     uint8_t nbEnabledChannels = 0;
 261:../../../../../../Middlewares/Third_Party/LoRaWAN/Mac/region/RegionUS915.c ****     uint8_t delayTransmission = 0;
 262:../../../../../../Middlewares/Third_Party/LoRaWAN/Mac/region/RegionUS915.c **** 
 263:../../../../../../Middlewares/Third_Party/LoRaWAN/Mac/region/RegionUS915.c ****     for( uint8_t i = 0, k = 0; i < US915_MAX_NB_CHANNELS; i += 16, k++ )
 264:../../../../../../Middlewares/Third_Party/LoRaWAN/Mac/region/RegionUS915.c ****     {
 265:../../../../../../Middlewares/Third_Party/LoRaWAN/Mac/region/RegionUS915.c ****         for( uint8_t j = 0; j < 16; j++ )
 266:../../../../../../Middlewares/Third_Party/LoRaWAN/Mac/region/RegionUS915.c ****         {
 267:../../../../../../Middlewares/Third_Party/LoRaWAN/Mac/region/RegionUS915.c ****             if( ( channelsMask[k] & ( 1 << j ) ) != 0 )
 268:../../../../../../Middlewares/Third_Party/LoRaWAN/Mac/region/RegionUS915.c ****             {
 269:../../../../../../Middlewares/Third_Party/LoRaWAN/Mac/region/RegionUS915.c ****                 if( channels[i + j].Frequency == 0 )
 270:../../../../../../Middlewares/Third_Party/LoRaWAN/Mac/region/RegionUS915.c ****                 { // Check if the channel is enabled
 271:../../../../../../Middlewares/Third_Party/LoRaWAN/Mac/region/RegionUS915.c ****                     continue;
 272:../../../../../../Middlewares/Third_Party/LoRaWAN/Mac/region/RegionUS915.c ****                 }
 273:../../../../../../Middlewares/Third_Party/LoRaWAN/Mac/region/RegionUS915.c ****                 if( RegionCommonValueInRange( datarate, channels[i + j].DrRange.Fields.Min,
 274:../../../../../../Middlewares/Third_Party/LoRaWAN/Mac/region/RegionUS915.c ****                                               channels[i + j].DrRange.Fields.Max ) == false )
 275:../../../../../../Middlewares/Third_Party/LoRaWAN/Mac/region/RegionUS915.c ****                 { // Check if the current channel selection supports the given datarate
 276:../../../../../../Middlewares/Third_Party/LoRaWAN/Mac/region/RegionUS915.c ****                     continue;
 277:../../../../../../Middlewares/Third_Party/LoRaWAN/Mac/region/RegionUS915.c ****                 }
 278:../../../../../../Middlewares/Third_Party/LoRaWAN/Mac/region/RegionUS915.c ****                 if( bands[channels[i + j].Band].TimeOff > 0 )
 279:../../../../../../Middlewares/Third_Party/LoRaWAN/Mac/region/RegionUS915.c ****                 { // Check if the band is available for transmission
 280:../../../../../../Middlewares/Third_Party/LoRaWAN/Mac/region/RegionUS915.c ****                     delayTransmission++;
 281:../../../../../../Middlewares/Third_Party/LoRaWAN/Mac/region/RegionUS915.c ****                     continue;
 282:../../../../../../Middlewares/Third_Party/LoRaWAN/Mac/region/RegionUS915.c ****                 }
 283:../../../../../../Middlewares/Third_Party/LoRaWAN/Mac/region/RegionUS915.c ****                 enabledChannels[nbEnabledChannels++] = i + j;
 284:../../../../../../Middlewares/Third_Party/LoRaWAN/Mac/region/RegionUS915.c ****             }
 285:../../../../../../Middlewares/Third_Party/LoRaWAN/Mac/region/RegionUS915.c ****         }
 286:../../../../../../Middlewares/Third_Party/LoRaWAN/Mac/region/RegionUS915.c ****     }
 287:../../../../../../Middlewares/Third_Party/LoRaWAN/Mac/region/RegionUS915.c **** 
 288:../../../../../../Middlewares/Third_Party/LoRaWAN/Mac/region/RegionUS915.c ****     *delayTx = delayTransmission;
 289:../../../../../../Middlewares/Third_Party/LoRaWAN/Mac/region/RegionUS915.c ****     return nbEnabledChannels;
 290:../../../../../../Middlewares/Third_Party/LoRaWAN/Mac/region/RegionUS915.c **** }
 291:../../../../../../Middlewares/Third_Party/LoRaWAN/Mac/region/RegionUS915.c **** 
 292:../../../../../../Middlewares/Third_Party/LoRaWAN/Mac/region/RegionUS915.c **** PhyParam_t RegionUS915GetPhyParam( GetPhyParams_t* getPhy )
 293:../../../../../../Middlewares/Third_Party/LoRaWAN/Mac/region/RegionUS915.c **** {
  27              		.loc 1 293 0
  28              		.cfi_startproc
  29              		@ args = 0, pretend = 0, frame = 8
  30              		@ frame_needed = 0, uses_anonymous_args = 0
  31              	.LVL0:
 294:../../../../../../Middlewares/Third_Party/LoRaWAN/Mac/region/RegionUS915.c ****     PhyParam_t phyParam = { 0 };
  32              		.loc 1 294 0
  33 0000 0023     		movs	r3, #0
 293:../../../../../../Middlewares/Third_Party/LoRaWAN/Mac/region/RegionUS915.c ****     PhyParam_t phyParam = { 0 };
  34              		.loc 1 293 0
  35 0002 00B5     		push	{lr}
  36              	.LCFI0:
  37              		.cfi_def_cfa_offset 4
  38              		.cfi_offset 14, -4
  39 0004 83B0     		sub	sp, sp, #12
  40              	.LCFI1:
  41              		.cfi_def_cfa_offset 16
  42              		.loc 1 294 0
  43 0006 0093     		str	r3, [sp]
 295:../../../../../../Middlewares/Third_Party/LoRaWAN/Mac/region/RegionUS915.c **** 
 296:../../../../../../Middlewares/Third_Party/LoRaWAN/Mac/region/RegionUS915.c ****     switch( getPhy->Attribute )
  44              		.loc 1 296 0
  45 0008 0378     		ldrb	r3, [r0]
ARM GAS  C:\Users\EBANO_~1\AppData\Local\Temp\ccFRmLE5.s 			page 7


  46 000a 342B     		cmp	r3, #52
  47 000c 05D8     		bhi	.L2
  48 000e 314A     		ldr	r2, .L30
  49 0010 9B00     		lsls	r3, r3, #2
  50 0012 D358     		ldr	r3, [r2, r3]
  51 0014 9F46     		mov	pc, r3
  52              		.section	.rodata
  53              		.align	2
  54              	.L4:
  55 0000 20000000 		.word	.L3
  56 0004 1A000000 		.word	.L2
  57 0008 1A000000 		.word	.L2
  58 000c 1A000000 		.word	.L2
  59 0010 1A000000 		.word	.L2
  60 0014 1A000000 		.word	.L2
  61 0018 1A000000 		.word	.L2
  62 001c 1A000000 		.word	.L2
  63 0020 1A000000 		.word	.L2
  64 0024 1A000000 		.word	.L2
  65 0028 C2000000 		.word	.L5
  66 002c 80000000 		.word	.L6
  67 0030 74000000 		.word	.L7
  68 0034 66000000 		.word	.L8
  69 0038 1A000000 		.word	.L2
  70 003c 54000000 		.word	.L9
  71 0040 4C000000 		.word	.L10
  72 0044 44000000 		.word	.L11
  73 0048 3E000000 		.word	.L12
  74 004c AA000000 		.word	.L13
  75 0050 A2000000 		.word	.L14
  76 0054 8C000000 		.word	.L15
  77 0058 1A000000 		.word	.L2
  78 005c 26000000 		.word	.L16
  79 0060 20000000 		.word	.L3
  80 0064 B0000000 		.word	.L17
  81 0068 B6000000 		.word	.L18
  82 006c 16000000 		.word	.L19
  83 0070 BC000000 		.word	.L20
  84 0074 1A000000 		.word	.L2
  85 0078 1A000000 		.word	.L2
  86 007c C8000000 		.word	.L21
  87 0080 86000000 		.word	.L22
  88 0084 2C000000 		.word	.L23
  89 0088 1A000000 		.word	.L2
  90 008c 1A000000 		.word	.L2
  91 0090 1A000000 		.word	.L2
  92 0094 1A000000 		.word	.L2
  93 0098 1A000000 		.word	.L2
  94 009c 1A000000 		.word	.L2
  95 00a0 1A000000 		.word	.L2
  96 00a4 1A000000 		.word	.L2
  97 00a8 1A000000 		.word	.L2
  98 00ac 1A000000 		.word	.L2
  99 00b0 1A000000 		.word	.L2
 100 00b4 1A000000 		.word	.L2
 101 00b8 1A000000 		.word	.L2
 102 00bc 26000000 		.word	.L16
ARM GAS  C:\Users\EBANO_~1\AppData\Local\Temp\ccFRmLE5.s 			page 8


 103 00c0 5A000000 		.word	.L24
 104 00c4 20000000 		.word	.L3
 105 00c8 CE000000 		.word	.L25
 106 00cc 20000000 		.word	.L3
 107 00d0 20000000 		.word	.L3
 108              		.section	.text.RegionUS915GetPhyParam
 109              	.L19:
 297:../../../../../../Middlewares/Third_Party/LoRaWAN/Mac/region/RegionUS915.c ****     {
 298:../../../../../../Middlewares/Third_Party/LoRaWAN/Mac/region/RegionUS915.c ****         case PHY_MIN_RX_DR:
 299:../../../../../../Middlewares/Third_Party/LoRaWAN/Mac/region/RegionUS915.c ****         {
 300:../../../../../../Middlewares/Third_Party/LoRaWAN/Mac/region/RegionUS915.c ****             phyParam.Value = US915_RX_MIN_DATARATE;
 301:../../../../../../Middlewares/Third_Party/LoRaWAN/Mac/region/RegionUS915.c ****             break;
 302:../../../../../../Middlewares/Third_Party/LoRaWAN/Mac/region/RegionUS915.c ****         }
 303:../../../../../../Middlewares/Third_Party/LoRaWAN/Mac/region/RegionUS915.c ****         case PHY_MIN_TX_DR:
 304:../../../../../../Middlewares/Third_Party/LoRaWAN/Mac/region/RegionUS915.c ****         {
 305:../../../../../../Middlewares/Third_Party/LoRaWAN/Mac/region/RegionUS915.c ****             phyParam.Value = US915_TX_MIN_DATARATE;
 306:../../../../../../Middlewares/Third_Party/LoRaWAN/Mac/region/RegionUS915.c ****             break;
 307:../../../../../../Middlewares/Third_Party/LoRaWAN/Mac/region/RegionUS915.c ****         }
 308:../../../../../../Middlewares/Third_Party/LoRaWAN/Mac/region/RegionUS915.c ****         case PHY_DEF_TX_DR:
 309:../../../../../../Middlewares/Third_Party/LoRaWAN/Mac/region/RegionUS915.c ****         {
 310:../../../../../../Middlewares/Third_Party/LoRaWAN/Mac/region/RegionUS915.c ****             phyParam.Value = US915_DEFAULT_DATARATE;
 311:../../../../../../Middlewares/Third_Party/LoRaWAN/Mac/region/RegionUS915.c ****             break;
 312:../../../../../../Middlewares/Third_Party/LoRaWAN/Mac/region/RegionUS915.c ****         }
 313:../../../../../../Middlewares/Third_Party/LoRaWAN/Mac/region/RegionUS915.c ****         case PHY_NEXT_LOWER_TX_DR:
 314:../../../../../../Middlewares/Third_Party/LoRaWAN/Mac/region/RegionUS915.c ****         {
 315:../../../../../../Middlewares/Third_Party/LoRaWAN/Mac/region/RegionUS915.c ****             phyParam.Value = GetNextLowerTxDr( getPhy->Datarate, US915_TX_MIN_DATARATE );
 316:../../../../../../Middlewares/Third_Party/LoRaWAN/Mac/region/RegionUS915.c ****             break;
 317:../../../../../../Middlewares/Third_Party/LoRaWAN/Mac/region/RegionUS915.c ****         }
 318:../../../../../../Middlewares/Third_Party/LoRaWAN/Mac/region/RegionUS915.c ****         case PHY_MAX_TX_POWER:
 319:../../../../../../Middlewares/Third_Party/LoRaWAN/Mac/region/RegionUS915.c ****         {
 320:../../../../../../Middlewares/Third_Party/LoRaWAN/Mac/region/RegionUS915.c ****             phyParam.Value = US915_MAX_TX_POWER;
 321:../../../../../../Middlewares/Third_Party/LoRaWAN/Mac/region/RegionUS915.c ****             break;
 322:../../../../../../Middlewares/Third_Party/LoRaWAN/Mac/region/RegionUS915.c ****         }
 323:../../../../../../Middlewares/Third_Party/LoRaWAN/Mac/region/RegionUS915.c ****         case PHY_DEF_TX_POWER:
 324:../../../../../../Middlewares/Third_Party/LoRaWAN/Mac/region/RegionUS915.c ****         {
 325:../../../../../../Middlewares/Third_Party/LoRaWAN/Mac/region/RegionUS915.c ****             phyParam.Value = US915_DEFAULT_TX_POWER;
 326:../../../../../../Middlewares/Third_Party/LoRaWAN/Mac/region/RegionUS915.c ****             break;
 327:../../../../../../Middlewares/Third_Party/LoRaWAN/Mac/region/RegionUS915.c ****         }
 328:../../../../../../Middlewares/Third_Party/LoRaWAN/Mac/region/RegionUS915.c ****         case PHY_DEF_ADR_ACK_LIMIT:
 329:../../../../../../Middlewares/Third_Party/LoRaWAN/Mac/region/RegionUS915.c ****         {
 330:../../../../../../Middlewares/Third_Party/LoRaWAN/Mac/region/RegionUS915.c ****             phyParam.Value = US915_ADR_ACK_LIMIT;
 331:../../../../../../Middlewares/Third_Party/LoRaWAN/Mac/region/RegionUS915.c ****             break;
 332:../../../../../../Middlewares/Third_Party/LoRaWAN/Mac/region/RegionUS915.c ****         }
 333:../../../../../../Middlewares/Third_Party/LoRaWAN/Mac/region/RegionUS915.c ****         case PHY_DEF_ADR_ACK_DELAY:
 334:../../../../../../Middlewares/Third_Party/LoRaWAN/Mac/region/RegionUS915.c ****         {
 335:../../../../../../Middlewares/Third_Party/LoRaWAN/Mac/region/RegionUS915.c ****             phyParam.Value = US915_ADR_ACK_DELAY;
 336:../../../../../../Middlewares/Third_Party/LoRaWAN/Mac/region/RegionUS915.c ****             break;
 337:../../../../../../Middlewares/Third_Party/LoRaWAN/Mac/region/RegionUS915.c ****         }
 338:../../../../../../Middlewares/Third_Party/LoRaWAN/Mac/region/RegionUS915.c ****         case PHY_MAX_PAYLOAD:
 339:../../../../../../Middlewares/Third_Party/LoRaWAN/Mac/region/RegionUS915.c ****         {
 340:../../../../../../Middlewares/Third_Party/LoRaWAN/Mac/region/RegionUS915.c ****             phyParam.Value = MaxPayloadOfDatarateUS915[getPhy->Datarate];
 341:../../../../../../Middlewares/Third_Party/LoRaWAN/Mac/region/RegionUS915.c ****             break;
 342:../../../../../../Middlewares/Third_Party/LoRaWAN/Mac/region/RegionUS915.c ****         }
 343:../../../../../../Middlewares/Third_Party/LoRaWAN/Mac/region/RegionUS915.c ****         case PHY_MAX_PAYLOAD_REPEATER:
 344:../../../../../../Middlewares/Third_Party/LoRaWAN/Mac/region/RegionUS915.c ****         {
 345:../../../../../../Middlewares/Third_Party/LoRaWAN/Mac/region/RegionUS915.c ****             phyParam.Value = MaxPayloadOfDatarateRepeaterUS915[getPhy->Datarate];
 346:../../../../../../Middlewares/Third_Party/LoRaWAN/Mac/region/RegionUS915.c ****             break;
ARM GAS  C:\Users\EBANO_~1\AppData\Local\Temp\ccFRmLE5.s 			page 9


 347:../../../../../../Middlewares/Third_Party/LoRaWAN/Mac/region/RegionUS915.c ****         }
 348:../../../../../../Middlewares/Third_Party/LoRaWAN/Mac/region/RegionUS915.c ****         case PHY_DUTY_CYCLE:
 349:../../../../../../Middlewares/Third_Party/LoRaWAN/Mac/region/RegionUS915.c ****         {
 350:../../../../../../Middlewares/Third_Party/LoRaWAN/Mac/region/RegionUS915.c ****             phyParam.Value = US915_DUTY_CYCLE_ENABLED;
 351:../../../../../../Middlewares/Third_Party/LoRaWAN/Mac/region/RegionUS915.c ****             break;
 352:../../../../../../Middlewares/Third_Party/LoRaWAN/Mac/region/RegionUS915.c ****         }
 353:../../../../../../Middlewares/Third_Party/LoRaWAN/Mac/region/RegionUS915.c ****         case PHY_MAX_RX_WINDOW:
 354:../../../../../../Middlewares/Third_Party/LoRaWAN/Mac/region/RegionUS915.c ****         {
 355:../../../../../../Middlewares/Third_Party/LoRaWAN/Mac/region/RegionUS915.c ****             phyParam.Value = US915_MAX_RX_WINDOW;
 356:../../../../../../Middlewares/Third_Party/LoRaWAN/Mac/region/RegionUS915.c ****             break;
 357:../../../../../../Middlewares/Third_Party/LoRaWAN/Mac/region/RegionUS915.c ****         }
 358:../../../../../../Middlewares/Third_Party/LoRaWAN/Mac/region/RegionUS915.c ****         case PHY_RECEIVE_DELAY1:
 359:../../../../../../Middlewares/Third_Party/LoRaWAN/Mac/region/RegionUS915.c ****         {
 360:../../../../../../Middlewares/Third_Party/LoRaWAN/Mac/region/RegionUS915.c ****             phyParam.Value = US915_RECEIVE_DELAY1;
 361:../../../../../../Middlewares/Third_Party/LoRaWAN/Mac/region/RegionUS915.c ****             break;
 362:../../../../../../Middlewares/Third_Party/LoRaWAN/Mac/region/RegionUS915.c ****         }
 363:../../../../../../Middlewares/Third_Party/LoRaWAN/Mac/region/RegionUS915.c ****         case PHY_RECEIVE_DELAY2:
 364:../../../../../../Middlewares/Third_Party/LoRaWAN/Mac/region/RegionUS915.c ****         {
 365:../../../../../../Middlewares/Third_Party/LoRaWAN/Mac/region/RegionUS915.c ****             phyParam.Value = US915_RECEIVE_DELAY2;
 366:../../../../../../Middlewares/Third_Party/LoRaWAN/Mac/region/RegionUS915.c ****             break;
 367:../../../../../../Middlewares/Third_Party/LoRaWAN/Mac/region/RegionUS915.c ****         }
 368:../../../../../../Middlewares/Third_Party/LoRaWAN/Mac/region/RegionUS915.c ****         case PHY_JOIN_ACCEPT_DELAY1:
 369:../../../../../../Middlewares/Third_Party/LoRaWAN/Mac/region/RegionUS915.c ****         {
 370:../../../../../../Middlewares/Third_Party/LoRaWAN/Mac/region/RegionUS915.c ****             phyParam.Value = US915_JOIN_ACCEPT_DELAY1;
 371:../../../../../../Middlewares/Third_Party/LoRaWAN/Mac/region/RegionUS915.c ****             break;
 372:../../../../../../Middlewares/Third_Party/LoRaWAN/Mac/region/RegionUS915.c ****         }
 373:../../../../../../Middlewares/Third_Party/LoRaWAN/Mac/region/RegionUS915.c ****         case PHY_JOIN_ACCEPT_DELAY2:
 374:../../../../../../Middlewares/Third_Party/LoRaWAN/Mac/region/RegionUS915.c ****         {
 375:../../../../../../Middlewares/Third_Party/LoRaWAN/Mac/region/RegionUS915.c ****             phyParam.Value = US915_JOIN_ACCEPT_DELAY2;
 376:../../../../../../Middlewares/Third_Party/LoRaWAN/Mac/region/RegionUS915.c ****             break;
 377:../../../../../../Middlewares/Third_Party/LoRaWAN/Mac/region/RegionUS915.c ****         }
 378:../../../../../../Middlewares/Third_Party/LoRaWAN/Mac/region/RegionUS915.c ****         case PHY_MAX_FCNT_GAP:
 379:../../../../../../Middlewares/Third_Party/LoRaWAN/Mac/region/RegionUS915.c ****         {
 380:../../../../../../Middlewares/Third_Party/LoRaWAN/Mac/region/RegionUS915.c ****             phyParam.Value = US915_MAX_FCNT_GAP;
 381:../../../../../../Middlewares/Third_Party/LoRaWAN/Mac/region/RegionUS915.c ****             break;
 382:../../../../../../Middlewares/Third_Party/LoRaWAN/Mac/region/RegionUS915.c ****         }
 383:../../../../../../Middlewares/Third_Party/LoRaWAN/Mac/region/RegionUS915.c ****         case PHY_ACK_TIMEOUT:
 384:../../../../../../Middlewares/Third_Party/LoRaWAN/Mac/region/RegionUS915.c ****         {
 385:../../../../../../Middlewares/Third_Party/LoRaWAN/Mac/region/RegionUS915.c ****             phyParam.Value = ( US915_ACKTIMEOUT + randr( -US915_ACK_TIMEOUT_RND, US915_ACK_TIMEOUT_
 386:../../../../../../Middlewares/Third_Party/LoRaWAN/Mac/region/RegionUS915.c ****             break;
 387:../../../../../../Middlewares/Third_Party/LoRaWAN/Mac/region/RegionUS915.c ****         }
 388:../../../../../../Middlewares/Third_Party/LoRaWAN/Mac/region/RegionUS915.c ****         case PHY_DEF_DR1_OFFSET:
 389:../../../../../../Middlewares/Third_Party/LoRaWAN/Mac/region/RegionUS915.c ****         {
 390:../../../../../../Middlewares/Third_Party/LoRaWAN/Mac/region/RegionUS915.c ****             phyParam.Value = US915_DEFAULT_RX1_DR_OFFSET;
 391:../../../../../../Middlewares/Third_Party/LoRaWAN/Mac/region/RegionUS915.c ****             break;
 392:../../../../../../Middlewares/Third_Party/LoRaWAN/Mac/region/RegionUS915.c ****         }
 393:../../../../../../Middlewares/Third_Party/LoRaWAN/Mac/region/RegionUS915.c ****         case PHY_DEF_RX2_FREQUENCY:
 394:../../../../../../Middlewares/Third_Party/LoRaWAN/Mac/region/RegionUS915.c ****         {
 395:../../../../../../Middlewares/Third_Party/LoRaWAN/Mac/region/RegionUS915.c ****             phyParam.Value = US915_RX_WND_2_FREQ;
 396:../../../../../../Middlewares/Third_Party/LoRaWAN/Mac/region/RegionUS915.c ****             break;
 397:../../../../../../Middlewares/Third_Party/LoRaWAN/Mac/region/RegionUS915.c ****         }
 398:../../../../../../Middlewares/Third_Party/LoRaWAN/Mac/region/RegionUS915.c ****         case PHY_DEF_RX2_DR:
 399:../../../../../../Middlewares/Third_Party/LoRaWAN/Mac/region/RegionUS915.c ****         {
 400:../../../../../../Middlewares/Third_Party/LoRaWAN/Mac/region/RegionUS915.c ****             phyParam.Value = US915_RX_WND_2_DR;
 401:../../../../../../Middlewares/Third_Party/LoRaWAN/Mac/region/RegionUS915.c ****             break;
 402:../../../../../../Middlewares/Third_Party/LoRaWAN/Mac/region/RegionUS915.c ****         }
 403:../../../../../../Middlewares/Third_Party/LoRaWAN/Mac/region/RegionUS915.c ****         case PHY_CHANNELS_MASK:
ARM GAS  C:\Users\EBANO_~1\AppData\Local\Temp\ccFRmLE5.s 			page 10


 404:../../../../../../Middlewares/Third_Party/LoRaWAN/Mac/region/RegionUS915.c ****         {
 405:../../../../../../Middlewares/Third_Party/LoRaWAN/Mac/region/RegionUS915.c ****             phyParam.ChannelsMask = NvmCtx.ChannelsMask;
 406:../../../../../../Middlewares/Third_Party/LoRaWAN/Mac/region/RegionUS915.c ****             break;
 407:../../../../../../Middlewares/Third_Party/LoRaWAN/Mac/region/RegionUS915.c ****         }
 408:../../../../../../Middlewares/Third_Party/LoRaWAN/Mac/region/RegionUS915.c ****         case PHY_CHANNELS_DEFAULT_MASK:
 409:../../../../../../Middlewares/Third_Party/LoRaWAN/Mac/region/RegionUS915.c ****         {
 410:../../../../../../Middlewares/Third_Party/LoRaWAN/Mac/region/RegionUS915.c ****             phyParam.ChannelsMask = NvmCtx.ChannelsDefaultMask;
 411:../../../../../../Middlewares/Third_Party/LoRaWAN/Mac/region/RegionUS915.c ****             break;
 412:../../../../../../Middlewares/Third_Party/LoRaWAN/Mac/region/RegionUS915.c ****         }
 413:../../../../../../Middlewares/Third_Party/LoRaWAN/Mac/region/RegionUS915.c ****         case PHY_MAX_NB_CHANNELS:
 414:../../../../../../Middlewares/Third_Party/LoRaWAN/Mac/region/RegionUS915.c ****         {
 415:../../../../../../Middlewares/Third_Party/LoRaWAN/Mac/region/RegionUS915.c ****             phyParam.Value = US915_MAX_NB_CHANNELS;
 110              		.loc 1 415 0
 111 0016 4823     		movs	r3, #72
 112 0018 0093     		str	r3, [sp]
 113              	.LVL1:
 114              	.L2:
 416:../../../../../../Middlewares/Third_Party/LoRaWAN/Mac/region/RegionUS915.c ****             break;
 417:../../../../../../Middlewares/Third_Party/LoRaWAN/Mac/region/RegionUS915.c ****         }
 418:../../../../../../Middlewares/Third_Party/LoRaWAN/Mac/region/RegionUS915.c ****         case PHY_CHANNELS:
 419:../../../../../../Middlewares/Third_Party/LoRaWAN/Mac/region/RegionUS915.c ****         {
 420:../../../../../../Middlewares/Third_Party/LoRaWAN/Mac/region/RegionUS915.c ****             phyParam.Channels = NvmCtx.Channels;
 421:../../../../../../Middlewares/Third_Party/LoRaWAN/Mac/region/RegionUS915.c ****             break;
 422:../../../../../../Middlewares/Third_Party/LoRaWAN/Mac/region/RegionUS915.c ****         }
 423:../../../../../../Middlewares/Third_Party/LoRaWAN/Mac/region/RegionUS915.c ****         case PHY_DEF_UPLINK_DWELL_TIME:
 424:../../../../../../Middlewares/Third_Party/LoRaWAN/Mac/region/RegionUS915.c ****         case PHY_DEF_DOWNLINK_DWELL_TIME:
 425:../../../../../../Middlewares/Third_Party/LoRaWAN/Mac/region/RegionUS915.c ****         {
 426:../../../../../../Middlewares/Third_Party/LoRaWAN/Mac/region/RegionUS915.c ****             phyParam.Value = 0;
 427:../../../../../../Middlewares/Third_Party/LoRaWAN/Mac/region/RegionUS915.c ****             break;
 428:../../../../../../Middlewares/Third_Party/LoRaWAN/Mac/region/RegionUS915.c ****         }
 429:../../../../../../Middlewares/Third_Party/LoRaWAN/Mac/region/RegionUS915.c ****         case PHY_DEF_MAX_EIRP:
 430:../../../../../../Middlewares/Third_Party/LoRaWAN/Mac/region/RegionUS915.c ****         {
 431:../../../../../../Middlewares/Third_Party/LoRaWAN/Mac/region/RegionUS915.c ****             phyParam.fValue = US915_DEFAULT_MAX_ERP + (float) 2.15;
 432:../../../../../../Middlewares/Third_Party/LoRaWAN/Mac/region/RegionUS915.c ****             break;
 433:../../../../../../Middlewares/Third_Party/LoRaWAN/Mac/region/RegionUS915.c ****         }
 434:../../../../../../Middlewares/Third_Party/LoRaWAN/Mac/region/RegionUS915.c ****         case PHY_DEF_ANTENNA_GAIN:
 435:../../../../../../Middlewares/Third_Party/LoRaWAN/Mac/region/RegionUS915.c ****         {
 436:../../../../../../Middlewares/Third_Party/LoRaWAN/Mac/region/RegionUS915.c ****             phyParam.fValue = 0;
 437:../../../../../../Middlewares/Third_Party/LoRaWAN/Mac/region/RegionUS915.c ****             break;
 438:../../../../../../Middlewares/Third_Party/LoRaWAN/Mac/region/RegionUS915.c ****         }
 439:../../../../../../Middlewares/Third_Party/LoRaWAN/Mac/region/RegionUS915.c ****         case PHY_BEACON_CHANNEL_FREQ:
 440:../../../../../../Middlewares/Third_Party/LoRaWAN/Mac/region/RegionUS915.c ****         {
 441:../../../../../../Middlewares/Third_Party/LoRaWAN/Mac/region/RegionUS915.c ****             phyParam.Value = US915_BEACON_CHANNEL_FREQ;
 442:../../../../../../Middlewares/Third_Party/LoRaWAN/Mac/region/RegionUS915.c ****             break;
 443:../../../../../../Middlewares/Third_Party/LoRaWAN/Mac/region/RegionUS915.c ****         }
 444:../../../../../../Middlewares/Third_Party/LoRaWAN/Mac/region/RegionUS915.c ****         case PHY_BEACON_FORMAT:
 445:../../../../../../Middlewares/Third_Party/LoRaWAN/Mac/region/RegionUS915.c ****         {
 446:../../../../../../Middlewares/Third_Party/LoRaWAN/Mac/region/RegionUS915.c ****             phyParam.BeaconFormat.BeaconSize = US915_BEACON_SIZE;
 447:../../../../../../Middlewares/Third_Party/LoRaWAN/Mac/region/RegionUS915.c ****             phyParam.BeaconFormat.Rfu1Size = US915_RFU1_SIZE;
 448:../../../../../../Middlewares/Third_Party/LoRaWAN/Mac/region/RegionUS915.c ****             phyParam.BeaconFormat.Rfu2Size = US915_RFU2_SIZE;
 449:../../../../../../Middlewares/Third_Party/LoRaWAN/Mac/region/RegionUS915.c ****             break;
 450:../../../../../../Middlewares/Third_Party/LoRaWAN/Mac/region/RegionUS915.c ****         }
 451:../../../../../../Middlewares/Third_Party/LoRaWAN/Mac/region/RegionUS915.c ****         case PHY_BEACON_CHANNEL_DR:
 452:../../../../../../Middlewares/Third_Party/LoRaWAN/Mac/region/RegionUS915.c ****         {
 453:../../../../../../Middlewares/Third_Party/LoRaWAN/Mac/region/RegionUS915.c ****             phyParam.Value = US915_BEACON_CHANNEL_DR;
 454:../../../../../../Middlewares/Third_Party/LoRaWAN/Mac/region/RegionUS915.c ****             break;
 455:../../../../../../Middlewares/Third_Party/LoRaWAN/Mac/region/RegionUS915.c ****         }
ARM GAS  C:\Users\EBANO_~1\AppData\Local\Temp\ccFRmLE5.s 			page 11


 456:../../../../../../Middlewares/Third_Party/LoRaWAN/Mac/region/RegionUS915.c ****         case PHY_BEACON_CHANNEL_STEPWIDTH:
 457:../../../../../../Middlewares/Third_Party/LoRaWAN/Mac/region/RegionUS915.c ****         {
 458:../../../../../../Middlewares/Third_Party/LoRaWAN/Mac/region/RegionUS915.c ****             phyParam.Value = US915_BEACON_CHANNEL_STEPWIDTH;
 459:../../../../../../Middlewares/Third_Party/LoRaWAN/Mac/region/RegionUS915.c ****             break;
 460:../../../../../../Middlewares/Third_Party/LoRaWAN/Mac/region/RegionUS915.c ****         }
 461:../../../../../../Middlewares/Third_Party/LoRaWAN/Mac/region/RegionUS915.c ****         case PHY_BEACON_NB_CHANNELS:
 462:../../../../../../Middlewares/Third_Party/LoRaWAN/Mac/region/RegionUS915.c ****         {
 463:../../../../../../Middlewares/Third_Party/LoRaWAN/Mac/region/RegionUS915.c ****             phyParam.Value = US915_BEACON_NB_CHANNELS;
 464:../../../../../../Middlewares/Third_Party/LoRaWAN/Mac/region/RegionUS915.c ****             break;
 465:../../../../../../Middlewares/Third_Party/LoRaWAN/Mac/region/RegionUS915.c ****         }
 466:../../../../../../Middlewares/Third_Party/LoRaWAN/Mac/region/RegionUS915.c ****         case PHY_PING_SLOT_CHANNEL_DR:
 467:../../../../../../Middlewares/Third_Party/LoRaWAN/Mac/region/RegionUS915.c ****         {
 468:../../../../../../Middlewares/Third_Party/LoRaWAN/Mac/region/RegionUS915.c ****             phyParam.Value = US915_PING_SLOT_CHANNEL_DR;
 469:../../../../../../Middlewares/Third_Party/LoRaWAN/Mac/region/RegionUS915.c ****             break;
 470:../../../../../../Middlewares/Third_Party/LoRaWAN/Mac/region/RegionUS915.c ****         }
 471:../../../../../../Middlewares/Third_Party/LoRaWAN/Mac/region/RegionUS915.c ****         default:
 472:../../../../../../Middlewares/Third_Party/LoRaWAN/Mac/region/RegionUS915.c ****         {
 473:../../../../../../Middlewares/Third_Party/LoRaWAN/Mac/region/RegionUS915.c ****             break;
 474:../../../../../../Middlewares/Third_Party/LoRaWAN/Mac/region/RegionUS915.c ****         }
 475:../../../../../../Middlewares/Third_Party/LoRaWAN/Mac/region/RegionUS915.c ****     }
 476:../../../../../../Middlewares/Third_Party/LoRaWAN/Mac/region/RegionUS915.c **** 
 477:../../../../../../Middlewares/Third_Party/LoRaWAN/Mac/region/RegionUS915.c ****     return phyParam;
 478:../../../../../../Middlewares/Third_Party/LoRaWAN/Mac/region/RegionUS915.c **** }
 115              		.loc 1 478 0
 116 001a 0098     		ldr	r0, [sp]
 117 001c 03B0     		add	sp, sp, #12
 118              		@ sp needed
 119 001e 00BD     		pop	{pc}
 120              	.LVL2:
 121              	.L3:
 300:../../../../../../Middlewares/Third_Party/LoRaWAN/Mac/region/RegionUS915.c ****             break;
 122              		.loc 1 300 0
 123 0020 0823     		movs	r3, #8
 124 0022 0093     		str	r3, [sp]
 301:../../../../../../Middlewares/Third_Party/LoRaWAN/Mac/region/RegionUS915.c ****         }
 125              		.loc 1 301 0
 126 0024 F9E7     		b	.L2
 127              	.L16:
 395:../../../../../../Middlewares/Third_Party/LoRaWAN/Mac/region/RegionUS915.c ****             break;
 128              		.loc 1 395 0
 129 0026 2C4B     		ldr	r3, .L30+4
 130 0028 0093     		str	r3, [sp]
 396:../../../../../../Middlewares/Third_Party/LoRaWAN/Mac/region/RegionUS915.c ****         }
 131              		.loc 1 396 0
 132 002a F6E7     		b	.L2
 133              	.L23:
 315:../../../../../../Middlewares/Third_Party/LoRaWAN/Mac/region/RegionUS915.c ****             break;
 134              		.loc 1 315 0
 135 002c 0123     		movs	r3, #1
 136 002e C356     		ldrsb	r3, [r0, r3]
 137              	.LVL3:
 138              	.LBB21:
 139              	.LBB22:
  88:../../../../../../Middlewares/Third_Party/LoRaWAN/Mac/region/RegionUS915.c ****     {
 140              		.loc 1 88 0
 141 0030 0022     		movs	r2, #0
 142 0032 002B     		cmp	r3, #0
ARM GAS  C:\Users\EBANO_~1\AppData\Local\Temp\ccFRmLE5.s 			page 12


 143 0034 01D0     		beq	.L26
 144              	.LVL4:
  94:../../../../../../Middlewares/Third_Party/LoRaWAN/Mac/region/RegionUS915.c ****     }
 145              		.loc 1 94 0
 146 0036 013B     		subs	r3, r3, #1
 147              	.LVL5:
 148 0038 5AB2     		sxtb	r2, r3
 149              	.LVL6:
 150              	.L26:
 151              	.LBE22:
 152              	.LBE21:
 315:../../../../../../Middlewares/Third_Party/LoRaWAN/Mac/region/RegionUS915.c ****             break;
 153              		.loc 1 315 0
 154 003a 0092     		str	r2, [sp]
 316:../../../../../../Middlewares/Third_Party/LoRaWAN/Mac/region/RegionUS915.c ****         }
 155              		.loc 1 316 0
 156 003c EDE7     		b	.L2
 157              	.L12:
 370:../../../../../../Middlewares/Third_Party/LoRaWAN/Mac/region/RegionUS915.c ****             break;
 158              		.loc 1 370 0
 159 003e 274B     		ldr	r3, .L30+8
 160 0040 0093     		str	r3, [sp]
 371:../../../../../../Middlewares/Third_Party/LoRaWAN/Mac/region/RegionUS915.c ****         }
 161              		.loc 1 371 0
 162 0042 EAE7     		b	.L2
 163              	.L11:
 365:../../../../../../Middlewares/Third_Party/LoRaWAN/Mac/region/RegionUS915.c ****             break;
 164              		.loc 1 365 0
 165 0044 FA23     		movs	r3, #250
 166 0046 DB00     		lsls	r3, r3, #3
 167 0048 0093     		str	r3, [sp]
 366:../../../../../../Middlewares/Third_Party/LoRaWAN/Mac/region/RegionUS915.c ****         }
 168              		.loc 1 366 0
 169 004a E6E7     		b	.L2
 170              	.L10:
 360:../../../../../../Middlewares/Third_Party/LoRaWAN/Mac/region/RegionUS915.c ****             break;
 171              		.loc 1 360 0
 172 004c FA23     		movs	r3, #250
 173 004e 9B00     		lsls	r3, r3, #2
 174 0050 0093     		str	r3, [sp]
 361:../../../../../../Middlewares/Third_Party/LoRaWAN/Mac/region/RegionUS915.c ****         }
 175              		.loc 1 361 0
 176 0052 E2E7     		b	.L2
 177              	.L9:
 355:../../../../../../Middlewares/Third_Party/LoRaWAN/Mac/region/RegionUS915.c ****             break;
 178              		.loc 1 355 0
 179 0054 224B     		ldr	r3, .L30+12
 180 0056 0093     		str	r3, [sp]
 356:../../../../../../Middlewares/Third_Party/LoRaWAN/Mac/region/RegionUS915.c ****         }
 181              		.loc 1 356 0
 182 0058 DFE7     		b	.L2
 183              	.L24:
 446:../../../../../../Middlewares/Third_Party/LoRaWAN/Mac/region/RegionUS915.c ****             phyParam.BeaconFormat.Rfu1Size = US915_RFU1_SIZE;
 184              		.loc 1 446 0
 185 005a 6A46     		mov	r2, sp
 186 005c 214B     		ldr	r3, .L30+16
 187 005e 1380     		strh	r3, [r2]
ARM GAS  C:\Users\EBANO_~1\AppData\Local\Temp\ccFRmLE5.s 			page 13


 447:../../../../../../Middlewares/Third_Party/LoRaWAN/Mac/region/RegionUS915.c ****             phyParam.BeaconFormat.Rfu2Size = US915_RFU2_SIZE;
 188              		.loc 1 447 0
 189 0060 0323     		movs	r3, #3
 190 0062 9370     		strb	r3, [r2, #2]
 449:../../../../../../Middlewares/Third_Party/LoRaWAN/Mac/region/RegionUS915.c ****         }
 191              		.loc 1 449 0
 192 0064 D9E7     		b	.L2
 193              	.L8:
 345:../../../../../../Middlewares/Third_Party/LoRaWAN/Mac/region/RegionUS915.c ****             break;
 194              		.loc 1 345 0
 195 0066 0122     		movs	r2, #1
 196 0068 1F4B     		ldr	r3, .L30+20
 197 006a 8256     		ldrsb	r2, [r0, r2]
 198 006c 9B18     		adds	r3, r3, r2
 199 006e 1B7C     		ldrb	r3, [r3, #16]
 200 0070 0093     		str	r3, [sp]
 346:../../../../../../Middlewares/Third_Party/LoRaWAN/Mac/region/RegionUS915.c ****         }
 201              		.loc 1 346 0
 202 0072 D2E7     		b	.L2
 203              	.L7:
 340:../../../../../../Middlewares/Third_Party/LoRaWAN/Mac/region/RegionUS915.c ****             break;
 204              		.loc 1 340 0
 205 0074 0123     		movs	r3, #1
 206 0076 1C4A     		ldr	r2, .L30+20
 207 0078 C356     		ldrsb	r3, [r0, r3]
 208 007a D35C     		ldrb	r3, [r2, r3]
 209 007c 0093     		str	r3, [sp]
 341:../../../../../../Middlewares/Third_Party/LoRaWAN/Mac/region/RegionUS915.c ****         }
 210              		.loc 1 341 0
 211 007e CCE7     		b	.L2
 212              	.L6:
 335:../../../../../../Middlewares/Third_Party/LoRaWAN/Mac/region/RegionUS915.c ****             break;
 213              		.loc 1 335 0
 214 0080 2023     		movs	r3, #32
 215 0082 0093     		str	r3, [sp]
 336:../../../../../../Middlewares/Third_Party/LoRaWAN/Mac/region/RegionUS915.c ****         }
 216              		.loc 1 336 0
 217 0084 C9E7     		b	.L2
 218              	.L22:
 436:../../../../../../Middlewares/Third_Party/LoRaWAN/Mac/region/RegionUS915.c ****             break;
 219              		.loc 1 436 0
 220 0086 0023     		movs	r3, #0
 221 0088 0093     		str	r3, [sp]
 437:../../../../../../Middlewares/Third_Party/LoRaWAN/Mac/region/RegionUS915.c ****         }
 222              		.loc 1 437 0
 223 008a C6E7     		b	.L2
 224              	.L15:
 385:../../../../../../Middlewares/Third_Party/LoRaWAN/Mac/region/RegionUS915.c ****             break;
 225              		.loc 1 385 0
 226 008c FA21     		movs	r1, #250
 227 008e 1748     		ldr	r0, .L30+24
 228              	.LVL7:
 229 0090 8900     		lsls	r1, r1, #2
 230 0092 FFF7FEFF 		bl	randr
 231              	.LVL8:
 232 0096 FA23     		movs	r3, #250
 233 0098 DB00     		lsls	r3, r3, #3
ARM GAS  C:\Users\EBANO_~1\AppData\Local\Temp\ccFRmLE5.s 			page 14


 234 009a 9C46     		mov	ip, r3
 235 009c 6044     		add	r0, r0, ip
 236 009e 0090     		str	r0, [sp]
 386:../../../../../../Middlewares/Third_Party/LoRaWAN/Mac/region/RegionUS915.c ****         }
 237              		.loc 1 386 0
 238 00a0 BBE7     		b	.L2
 239              	.LVL9:
 240              	.L14:
 380:../../../../../../Middlewares/Third_Party/LoRaWAN/Mac/region/RegionUS915.c ****             break;
 241              		.loc 1 380 0
 242 00a2 8023     		movs	r3, #128
 243 00a4 DB01     		lsls	r3, r3, #7
 244 00a6 0093     		str	r3, [sp]
 381:../../../../../../Middlewares/Third_Party/LoRaWAN/Mac/region/RegionUS915.c ****         }
 245              		.loc 1 381 0
 246 00a8 B7E7     		b	.L2
 247              	.L13:
 375:../../../../../../Middlewares/Third_Party/LoRaWAN/Mac/region/RegionUS915.c ****             break;
 248              		.loc 1 375 0
 249 00aa 114B     		ldr	r3, .L30+28
 250 00ac 0093     		str	r3, [sp]
 376:../../../../../../Middlewares/Third_Party/LoRaWAN/Mac/region/RegionUS915.c ****         }
 251              		.loc 1 376 0
 252 00ae B4E7     		b	.L2
 253              	.L17:
 405:../../../../../../Middlewares/Third_Party/LoRaWAN/Mac/region/RegionUS915.c ****             break;
 254              		.loc 1 405 0
 255 00b0 104B     		ldr	r3, .L30+32
 256 00b2 0093     		str	r3, [sp]
 406:../../../../../../Middlewares/Third_Party/LoRaWAN/Mac/region/RegionUS915.c ****         }
 257              		.loc 1 406 0
 258 00b4 B1E7     		b	.L2
 259              	.L18:
 410:../../../../../../Middlewares/Third_Party/LoRaWAN/Mac/region/RegionUS915.c ****             break;
 260              		.loc 1 410 0
 261 00b6 104B     		ldr	r3, .L30+36
 262 00b8 0093     		str	r3, [sp]
 411:../../../../../../Middlewares/Third_Party/LoRaWAN/Mac/region/RegionUS915.c ****         }
 263              		.loc 1 411 0
 264 00ba AEE7     		b	.L2
 265              	.L20:
 420:../../../../../../Middlewares/Third_Party/LoRaWAN/Mac/region/RegionUS915.c ****             break;
 266              		.loc 1 420 0
 267 00bc 0F4B     		ldr	r3, .L30+40
 268 00be 0093     		str	r3, [sp]
 421:../../../../../../Middlewares/Third_Party/LoRaWAN/Mac/region/RegionUS915.c ****         }
 269              		.loc 1 421 0
 270 00c0 ABE7     		b	.L2
 271              	.L5:
 330:../../../../../../Middlewares/Third_Party/LoRaWAN/Mac/region/RegionUS915.c ****             break;
 272              		.loc 1 330 0
 273 00c2 4023     		movs	r3, #64
 274 00c4 0093     		str	r3, [sp]
 331:../../../../../../Middlewares/Third_Party/LoRaWAN/Mac/region/RegionUS915.c ****         }
 275              		.loc 1 331 0
 276 00c6 A8E7     		b	.L2
 277              	.L21:
ARM GAS  C:\Users\EBANO_~1\AppData\Local\Temp\ccFRmLE5.s 			page 15


 431:../../../../../../Middlewares/Third_Party/LoRaWAN/Mac/region/RegionUS915.c ****             break;
 278              		.loc 1 431 0
 279 00c8 0D4B     		ldr	r3, .L30+44
 280 00ca 0093     		str	r3, [sp]
 432:../../../../../../Middlewares/Third_Party/LoRaWAN/Mac/region/RegionUS915.c ****         }
 281              		.loc 1 432 0
 282 00cc A5E7     		b	.L2
 283              	.L25:
 458:../../../../../../Middlewares/Third_Party/LoRaWAN/Mac/region/RegionUS915.c ****             break;
 284              		.loc 1 458 0
 285 00ce 0D4B     		ldr	r3, .L30+48
 286 00d0 0093     		str	r3, [sp]
 459:../../../../../../Middlewares/Third_Party/LoRaWAN/Mac/region/RegionUS915.c ****         }
 287              		.loc 1 459 0
 288 00d2 A2E7     		b	.L2
 289              	.L31:
 290              		.align	2
 291              	.L30:
 292 00d4 00000000 		.word	.L4
 293 00d8 A0700837 		.word	923300000
 294 00dc 88130000 		.word	5000
 295 00e0 B80B0000 		.word	3000
 296 00e4 17050000 		.word	1303
 297 00e8 50010000 		.word	.LANCHOR0
 298 00ec 18FCFFFF 		.word	-1000
 299 00f0 70170000 		.word	6000
 300 00f4 70030000 		.word	NvmCtx+880
 301 00f8 88030000 		.word	NvmCtx+904
 302 00fc 00000000 		.word	NvmCtx
 303 0100 9A990042 		.word	1107335578
 304 0104 C0270900 		.word	600000
 305              		.cfi_endproc
 306              	.LFE46:
 307              		.size	RegionUS915GetPhyParam, .-RegionUS915GetPhyParam
 308              		.section	.text.RegionUS915SetBandTxDone,"ax",%progbits
 309              		.align	1
 310              		.p2align 2,,3
 311              		.global	RegionUS915SetBandTxDone
 312              		.syntax unified
 313              		.code	16
 314              		.thumb_func
 315              		.fpu softvfp
 316              		.type	RegionUS915SetBandTxDone, %function
 317              	RegionUS915SetBandTxDone:
 318              	.LFB47:
 479:../../../../../../Middlewares/Third_Party/LoRaWAN/Mac/region/RegionUS915.c **** 
 480:../../../../../../Middlewares/Third_Party/LoRaWAN/Mac/region/RegionUS915.c **** void RegionUS915SetBandTxDone( SetBandTxDoneParams_t* txDone )
 481:../../../../../../Middlewares/Third_Party/LoRaWAN/Mac/region/RegionUS915.c **** {
 319              		.loc 1 481 0
 320              		.cfi_startproc
 321              		@ args = 0, pretend = 0, frame = 0
 322              		@ frame_needed = 0, uses_anonymous_args = 0
 323              	.LVL10:
 482:../../../../../../Middlewares/Third_Party/LoRaWAN/Mac/region/RegionUS915.c ****     RegionCommonSetBandTxDone( txDone->Joined, &NvmCtx.Bands[NvmCtx.Channels[txDone->Channel].Band]
 324              		.loc 1 482 0
 325 0000 0178     		ldrb	r1, [r0]
 481:../../../../../../Middlewares/Third_Party/LoRaWAN/Mac/region/RegionUS915.c ****     RegionCommonSetBandTxDone( txDone->Joined, &NvmCtx.Bands[NvmCtx.Channels[txDone->Channel].Band]
ARM GAS  C:\Users\EBANO_~1\AppData\Local\Temp\ccFRmLE5.s 			page 16


 326              		.loc 1 481 0
 327 0002 10B5     		push	{r4, lr}
 328              	.LCFI2:
 329              		.cfi_def_cfa_offset 8
 330              		.cfi_offset 4, -8
 331              		.cfi_offset 14, -4
 332              		.loc 1 482 0
 333 0004 4B00     		lsls	r3, r1, #1
 334 0006 064C     		ldr	r4, .L33
 335 0008 5B18     		adds	r3, r3, r1
 336 000a 9B00     		lsls	r3, r3, #2
 337 000c E318     		adds	r3, r4, r3
 338 000e 597A     		ldrb	r1, [r3, #9]
 339 0010 4268     		ldr	r2, [r0, #4]
 340 0012 3631     		adds	r1, r1, #54
 341 0014 0901     		lsls	r1, r1, #4
 342 0016 0919     		adds	r1, r1, r4
 343 0018 4078     		ldrb	r0, [r0, #1]
 344              	.LVL11:
 345 001a FFF7FEFF 		bl	RegionCommonSetBandTxDone
 346              	.LVL12:
 483:../../../../../../Middlewares/Third_Party/LoRaWAN/Mac/region/RegionUS915.c **** }
 347              		.loc 1 483 0
 348              		@ sp needed
 349 001e 10BD     		pop	{r4, pc}
 350              	.L34:
 351              		.align	2
 352              	.L33:
 353 0020 00000000 		.word	NvmCtx
 354              		.cfi_endproc
 355              	.LFE47:
 356              		.size	RegionUS915SetBandTxDone, .-RegionUS915SetBandTxDone
 357              		.section	.text.RegionUS915InitDefaults,"ax",%progbits
 358              		.align	1
 359              		.p2align 2,,3
 360              		.global	RegionUS915InitDefaults
 361              		.syntax unified
 362              		.code	16
 363              		.thumb_func
 364              		.fpu softvfp
 365              		.type	RegionUS915InitDefaults, %function
 366              	RegionUS915InitDefaults:
 367              	.LFB48:
 484:../../../../../../Middlewares/Third_Party/LoRaWAN/Mac/region/RegionUS915.c **** 
 485:../../../../../../Middlewares/Third_Party/LoRaWAN/Mac/region/RegionUS915.c **** void RegionUS915InitDefaults( InitDefaultsParams_t* params )
 486:../../../../../../Middlewares/Third_Party/LoRaWAN/Mac/region/RegionUS915.c **** {
 368              		.loc 1 486 0
 369              		.cfi_startproc
 370              		@ args = 0, pretend = 0, frame = 16
 371              		@ frame_needed = 0, uses_anonymous_args = 0
 372              	.LVL13:
 373 0000 30B5     		push	{r4, r5, lr}
 374              	.LCFI3:
 375              		.cfi_def_cfa_offset 12
 376              		.cfi_offset 4, -12
 377              		.cfi_offset 5, -8
 378              		.cfi_offset 14, -4
ARM GAS  C:\Users\EBANO_~1\AppData\Local\Temp\ccFRmLE5.s 			page 17


 379 0002 85B0     		sub	sp, sp, #20
 380              	.LCFI4:
 381              		.cfi_def_cfa_offset 32
 487:../../../../../../Middlewares/Third_Party/LoRaWAN/Mac/region/RegionUS915.c ****     Band_t bands[US915_MAX_NB_BANDS] =
 382              		.loc 1 487 0
 383 0004 0123     		movs	r3, #1
 384 0006 6A46     		mov	r2, sp
 385 0008 1380     		strh	r3, [r2]
 386 000a 0023     		movs	r3, #0
 387 000c 9370     		strb	r3, [r2, #2]
 388 000e 0193     		str	r3, [sp, #4]
 389 0010 0293     		str	r3, [sp, #8]
 390 0012 0393     		str	r3, [sp, #12]
 488:../../../../../../Middlewares/Third_Party/LoRaWAN/Mac/region/RegionUS915.c ****     {
 489:../../../../../../Middlewares/Third_Party/LoRaWAN/Mac/region/RegionUS915.c ****        US915_BAND0
 490:../../../../../../Middlewares/Third_Party/LoRaWAN/Mac/region/RegionUS915.c ****     };
 491:../../../../../../Middlewares/Third_Party/LoRaWAN/Mac/region/RegionUS915.c **** 
 492:../../../../../../Middlewares/Third_Party/LoRaWAN/Mac/region/RegionUS915.c ****     switch( params->Type )
 391              		.loc 1 492 0
 392 0014 0579     		ldrb	r5, [r0, #4]
 393 0016 012D     		cmp	r5, #1
 394 0018 69D0     		beq	.L37
 395 001a 002D     		cmp	r5, #0
 396 001c 0BD0     		beq	.L38
 397 001e 022D     		cmp	r5, #2
 398 0020 07D1     		bne	.L35
 493:../../../../../../Middlewares/Third_Party/LoRaWAN/Mac/region/RegionUS915.c ****     {
 494:../../../../../../Middlewares/Third_Party/LoRaWAN/Mac/region/RegionUS915.c ****         case INIT_TYPE_INIT:
 495:../../../../../../Middlewares/Third_Party/LoRaWAN/Mac/region/RegionUS915.c ****         {
 496:../../../../../../Middlewares/Third_Party/LoRaWAN/Mac/region/RegionUS915.c ****             // Initialize bands
 497:../../../../../../Middlewares/Third_Party/LoRaWAN/Mac/region/RegionUS915.c ****             memcpy1( ( uint8_t* )NvmCtx.Bands, ( uint8_t* )bands, sizeof( Band_t ) * US915_MAX_NB_B
 498:../../../../../../Middlewares/Third_Party/LoRaWAN/Mac/region/RegionUS915.c **** 
 499:../../../../../../Middlewares/Third_Party/LoRaWAN/Mac/region/RegionUS915.c ****             // Initialize 8 bit channel groups index
 500:../../../../../../Middlewares/Third_Party/LoRaWAN/Mac/region/RegionUS915.c ****             NvmCtx.JoinChannelGroupsCurrentIndex = 0;
 501:../../../../../../Middlewares/Third_Party/LoRaWAN/Mac/region/RegionUS915.c **** 
 502:../../../../../../Middlewares/Third_Party/LoRaWAN/Mac/region/RegionUS915.c ****             // Initialize the join trials counter
 503:../../../../../../Middlewares/Third_Party/LoRaWAN/Mac/region/RegionUS915.c ****             NvmCtx.JoinTrialsCounter = 0;
 504:../../../../../../Middlewares/Third_Party/LoRaWAN/Mac/region/RegionUS915.c **** 
 505:../../../../../../Middlewares/Third_Party/LoRaWAN/Mac/region/RegionUS915.c ****             // Channels
 506:../../../../../../Middlewares/Third_Party/LoRaWAN/Mac/region/RegionUS915.c ****             // 125 kHz channels
 507:../../../../../../Middlewares/Third_Party/LoRaWAN/Mac/region/RegionUS915.c ****             for( uint8_t i = 0; i < US915_MAX_NB_CHANNELS - 8; i++ )
 508:../../../../../../Middlewares/Third_Party/LoRaWAN/Mac/region/RegionUS915.c ****             {
 509:../../../../../../Middlewares/Third_Party/LoRaWAN/Mac/region/RegionUS915.c ****                 NvmCtx.Channels[i].Frequency = 902300000 + i * 200000;
 510:../../../../../../Middlewares/Third_Party/LoRaWAN/Mac/region/RegionUS915.c ****                 NvmCtx.Channels[i].DrRange.Value = ( DR_3 << 4 ) | DR_0;
 511:../../../../../../Middlewares/Third_Party/LoRaWAN/Mac/region/RegionUS915.c ****                 NvmCtx.Channels[i].Band = 0;
 512:../../../../../../Middlewares/Third_Party/LoRaWAN/Mac/region/RegionUS915.c ****             }
 513:../../../../../../Middlewares/Third_Party/LoRaWAN/Mac/region/RegionUS915.c ****             // 500 kHz channels
 514:../../../../../../Middlewares/Third_Party/LoRaWAN/Mac/region/RegionUS915.c ****             for( uint8_t i = US915_MAX_NB_CHANNELS - 8; i < US915_MAX_NB_CHANNELS; i++ )
 515:../../../../../../Middlewares/Third_Party/LoRaWAN/Mac/region/RegionUS915.c ****             {
 516:../../../../../../Middlewares/Third_Party/LoRaWAN/Mac/region/RegionUS915.c ****                 NvmCtx.Channels[i].Frequency = 903000000 + ( i - ( US915_MAX_NB_CHANNELS - 8 ) ) * 
 517:../../../../../../Middlewares/Third_Party/LoRaWAN/Mac/region/RegionUS915.c ****                 NvmCtx.Channels[i].DrRange.Value = ( DR_4 << 4 ) | DR_4;
 518:../../../../../../Middlewares/Third_Party/LoRaWAN/Mac/region/RegionUS915.c ****                 NvmCtx.Channels[i].Band = 0;
 519:../../../../../../Middlewares/Third_Party/LoRaWAN/Mac/region/RegionUS915.c ****             }
 520:../../../../../../Middlewares/Third_Party/LoRaWAN/Mac/region/RegionUS915.c **** 
 521:../../../../../../Middlewares/Third_Party/LoRaWAN/Mac/region/RegionUS915.c ****             // ChannelsMask
 522:../../../../../../Middlewares/Third_Party/LoRaWAN/Mac/region/RegionUS915.c ****             NvmCtx.ChannelsDefaultMask[0] = 0xFFFF;
 523:../../../../../../Middlewares/Third_Party/LoRaWAN/Mac/region/RegionUS915.c ****             NvmCtx.ChannelsDefaultMask[1] = 0xFFFF;
ARM GAS  C:\Users\EBANO_~1\AppData\Local\Temp\ccFRmLE5.s 			page 18


 524:../../../../../../Middlewares/Third_Party/LoRaWAN/Mac/region/RegionUS915.c ****             NvmCtx.ChannelsDefaultMask[2] = 0xFFFF;
 525:../../../../../../Middlewares/Third_Party/LoRaWAN/Mac/region/RegionUS915.c ****             NvmCtx.ChannelsDefaultMask[3] = 0xFFFF;
 526:../../../../../../Middlewares/Third_Party/LoRaWAN/Mac/region/RegionUS915.c ****             NvmCtx.ChannelsDefaultMask[4] = 0x00FF;
 527:../../../../../../Middlewares/Third_Party/LoRaWAN/Mac/region/RegionUS915.c ****             NvmCtx.ChannelsDefaultMask[5] = 0x0000;
 528:../../../../../../Middlewares/Third_Party/LoRaWAN/Mac/region/RegionUS915.c **** 
 529:../../../../../../Middlewares/Third_Party/LoRaWAN/Mac/region/RegionUS915.c ****             // Copy channels default mask
 530:../../../../../../Middlewares/Third_Party/LoRaWAN/Mac/region/RegionUS915.c ****             RegionCommonChanMaskCopy( NvmCtx.ChannelsMask, NvmCtx.ChannelsDefaultMask, 6 );
 531:../../../../../../Middlewares/Third_Party/LoRaWAN/Mac/region/RegionUS915.c **** 
 532:../../../../../../Middlewares/Third_Party/LoRaWAN/Mac/region/RegionUS915.c ****             // Copy into channels mask remaining
 533:../../../../../../Middlewares/Third_Party/LoRaWAN/Mac/region/RegionUS915.c ****             RegionCommonChanMaskCopy( NvmCtx.ChannelsMaskRemaining, NvmCtx.ChannelsMask, 6 );
 534:../../../../../../Middlewares/Third_Party/LoRaWAN/Mac/region/RegionUS915.c ****             break;
 535:../../../../../../Middlewares/Third_Party/LoRaWAN/Mac/region/RegionUS915.c ****         }
 536:../../../../../../Middlewares/Third_Party/LoRaWAN/Mac/region/RegionUS915.c ****         case INIT_TYPE_RESTORE_CTX:
 537:../../../../../../Middlewares/Third_Party/LoRaWAN/Mac/region/RegionUS915.c ****         {
 538:../../../../../../Middlewares/Third_Party/LoRaWAN/Mac/region/RegionUS915.c ****             if( params->NvmCtx != 0 )
 399              		.loc 1 538 0
 400 0022 0168     		ldr	r1, [r0]
 401 0024 0029     		cmp	r1, #0
 402 0026 04D0     		beq	.L35
 539:../../../../../../Middlewares/Third_Party/LoRaWAN/Mac/region/RegionUS915.c ****             {
 540:../../../../../../Middlewares/Third_Party/LoRaWAN/Mac/region/RegionUS915.c ****                 memcpy1( (uint8_t*) &NvmCtx, (uint8_t*) params->NvmCtx, sizeof( NvmCtx ) );
 403              		.loc 1 540 0
 404 0028 E622     		movs	r2, #230
 405 002a 4148     		ldr	r0, .L44
 406              	.LVL14:
 407 002c 9200     		lsls	r2, r2, #2
 408 002e FFF7FEFF 		bl	memcpy1
 409              	.LVL15:
 410              	.L35:
 541:../../../../../../Middlewares/Third_Party/LoRaWAN/Mac/region/RegionUS915.c ****             }
 542:../../../../../../Middlewares/Third_Party/LoRaWAN/Mac/region/RegionUS915.c ****             break;
 543:../../../../../../Middlewares/Third_Party/LoRaWAN/Mac/region/RegionUS915.c ****         }
 544:../../../../../../Middlewares/Third_Party/LoRaWAN/Mac/region/RegionUS915.c ****         case INIT_TYPE_RESTORE_DEFAULT_CHANNELS:
 545:../../../../../../Middlewares/Third_Party/LoRaWAN/Mac/region/RegionUS915.c ****         {
 546:../../../../../../Middlewares/Third_Party/LoRaWAN/Mac/region/RegionUS915.c ****             // Copy channels default mask
 547:../../../../../../Middlewares/Third_Party/LoRaWAN/Mac/region/RegionUS915.c ****             RegionCommonChanMaskCopy( NvmCtx.ChannelsMask, NvmCtx.ChannelsDefaultMask, 6 );
 548:../../../../../../Middlewares/Third_Party/LoRaWAN/Mac/region/RegionUS915.c **** 
 549:../../../../../../Middlewares/Third_Party/LoRaWAN/Mac/region/RegionUS915.c ****             for( uint8_t i = 0; i < 6; i++ )
 550:../../../../../../Middlewares/Third_Party/LoRaWAN/Mac/region/RegionUS915.c ****             { // Copy-And the channels mask
 551:../../../../../../Middlewares/Third_Party/LoRaWAN/Mac/region/RegionUS915.c ****                 NvmCtx.ChannelsMaskRemaining[i] &= NvmCtx.ChannelsMask[i];
 552:../../../../../../Middlewares/Third_Party/LoRaWAN/Mac/region/RegionUS915.c ****             }
 553:../../../../../../Middlewares/Third_Party/LoRaWAN/Mac/region/RegionUS915.c ****             break;
 554:../../../../../../Middlewares/Third_Party/LoRaWAN/Mac/region/RegionUS915.c ****         }
 555:../../../../../../Middlewares/Third_Party/LoRaWAN/Mac/region/RegionUS915.c ****         default:
 556:../../../../../../Middlewares/Third_Party/LoRaWAN/Mac/region/RegionUS915.c ****         {
 557:../../../../../../Middlewares/Third_Party/LoRaWAN/Mac/region/RegionUS915.c ****             break;
 558:../../../../../../Middlewares/Third_Party/LoRaWAN/Mac/region/RegionUS915.c ****         }
 559:../../../../../../Middlewares/Third_Party/LoRaWAN/Mac/region/RegionUS915.c ****     }
 560:../../../../../../Middlewares/Third_Party/LoRaWAN/Mac/region/RegionUS915.c **** }
 411              		.loc 1 560 0
 412 0032 05B0     		add	sp, sp, #20
 413              		@ sp needed
 414 0034 30BD     		pop	{r4, r5, pc}
 415              	.LVL16:
 416              	.L38:
 497:../../../../../../Middlewares/Third_Party/LoRaWAN/Mac/region/RegionUS915.c **** 
 417              		.loc 1 497 0
ARM GAS  C:\Users\EBANO_~1\AppData\Local\Temp\ccFRmLE5.s 			page 19


 418 0036 3F4C     		ldr	r4, .L44+4
 419 0038 1022     		movs	r2, #16
 420 003a 2000     		movs	r0, r4
 421              	.LVL17:
 422 003c 6946     		mov	r1, sp
 423 003e FFF7FEFF 		bl	memcpy1
 424              	.LVL18:
 425 0042 3D4B     		ldr	r3, .L44+8
 426 0044 2100     		movs	r1, r4
 500:../../../../../../Middlewares/Third_Party/LoRaWAN/Mac/region/RegionUS915.c **** 
 427              		.loc 1 500 0
 428 0046 A586     		strh	r5, [r4, #52]
 429              	.LVL19:
 430 0048 E318     		adds	r3, r4, r3
 431              	.LBB23:
 511:../../../../../../Middlewares/Third_Party/LoRaWAN/Mac/region/RegionUS915.c ****             }
 432              		.loc 1 511 0
 433 004a 0020     		movs	r0, #0
 510:../../../../../../Middlewares/Third_Party/LoRaWAN/Mac/region/RegionUS915.c ****                 NvmCtx.Channels[i].Band = 0;
 434              		.loc 1 510 0
 435 004c 3024     		movs	r4, #48
 436              	.LBE23:
 500:../../../../../../Middlewares/Third_Party/LoRaWAN/Mac/region/RegionUS915.c **** 
 437              		.loc 1 500 0
 438 004e 3B4A     		ldr	r2, .L44+12
 439 0050 6039     		subs	r1, r1, #96
 440              	.LVL20:
 441              	.L40:
 442 0052 3B4D     		ldr	r5, .L44+16
 443              	.LBB24:
 509:../../../../../../Middlewares/Third_Party/LoRaWAN/Mac/region/RegionUS915.c ****                 NvmCtx.Channels[i].DrRange.Value = ( DR_3 << 4 ) | DR_0;
 444              		.loc 1 509 0 discriminator 3
 445 0054 1A60     		str	r2, [r3]
 446 0056 AC46     		mov	ip, r5
 510:../../../../../../Middlewares/Third_Party/LoRaWAN/Mac/region/RegionUS915.c ****                 NvmCtx.Channels[i].Band = 0;
 447              		.loc 1 510 0 discriminator 3
 448 0058 1C72     		strb	r4, [r3, #8]
 511:../../../../../../Middlewares/Third_Party/LoRaWAN/Mac/region/RegionUS915.c ****             }
 449              		.loc 1 511 0 discriminator 3
 450 005a 5872     		strb	r0, [r3, #9]
 451 005c 0C33     		adds	r3, r3, #12
 452 005e 6244     		add	r2, r2, ip
 507:../../../../../../Middlewares/Third_Party/LoRaWAN/Mac/region/RegionUS915.c ****             {
 453              		.loc 1 507 0 discriminator 3
 454 0060 8B42     		cmp	r3, r1
 455 0062 F6D1     		bne	.L40
 456              	.LVL21:
 457              	.LBE24:
 458              	.LBB25:
 516:../../../../../../Middlewares/Third_Party/LoRaWAN/Mac/region/RegionUS915.c ****                 NvmCtx.Channels[i].DrRange.Value = ( DR_4 << 4 ) | DR_4;
 459              		.loc 1 516 0
 460 0064 C023     		movs	r3, #192
 461 0066 324C     		ldr	r4, .L44
 462 0068 364A     		ldr	r2, .L44+20
 463 006a 9B00     		lsls	r3, r3, #2
 464 006c E250     		str	r2, [r4, r3]
 517:../../../../../../Middlewares/Third_Party/LoRaWAN/Mac/region/RegionUS915.c ****                 NvmCtx.Channels[i].Band = 0;
ARM GAS  C:\Users\EBANO_~1\AppData\Local\Temp\ccFRmLE5.s 			page 20


 465              		.loc 1 517 0
 466 006e C222     		movs	r2, #194
 467 0070 4423     		movs	r3, #68
 468 0072 9200     		lsls	r2, r2, #2
 516:../../../../../../Middlewares/Third_Party/LoRaWAN/Mac/region/RegionUS915.c ****                 NvmCtx.Channels[i].DrRange.Value = ( DR_4 << 4 ) | DR_4;
 469              		.loc 1 516 0
 470 0074 3449     		ldr	r1, .L44+24
 517:../../../../../../Middlewares/Third_Party/LoRaWAN/Mac/region/RegionUS915.c ****                 NvmCtx.Channels[i].Band = 0;
 471              		.loc 1 517 0
 472 0076 A352     		strh	r3, [r4, r2]
 473              	.LVL22:
 516:../../../../../../Middlewares/Third_Party/LoRaWAN/Mac/region/RegionUS915.c ****                 NvmCtx.Channels[i].DrRange.Value = ( DR_4 << 4 ) | DR_4;
 474              		.loc 1 516 0
 475 0078 0432     		adds	r2, r2, #4
 476 007a A150     		str	r1, [r4, r2]
 517:../../../../../../Middlewares/Third_Party/LoRaWAN/Mac/region/RegionUS915.c ****                 NvmCtx.Channels[i].Band = 0;
 477              		.loc 1 517 0
 478 007c 0832     		adds	r2, r2, #8
 516:../../../../../../Middlewares/Third_Party/LoRaWAN/Mac/region/RegionUS915.c ****                 NvmCtx.Channels[i].DrRange.Value = ( DR_4 << 4 ) | DR_4;
 479              		.loc 1 516 0
 480 007e 3349     		ldr	r1, .L44+28
 517:../../../../../../Middlewares/Third_Party/LoRaWAN/Mac/region/RegionUS915.c ****                 NvmCtx.Channels[i].Band = 0;
 481              		.loc 1 517 0
 482 0080 A352     		strh	r3, [r4, r2]
 483              	.LVL23:
 516:../../../../../../Middlewares/Third_Party/LoRaWAN/Mac/region/RegionUS915.c ****                 NvmCtx.Channels[i].DrRange.Value = ( DR_4 << 4 ) | DR_4;
 484              		.loc 1 516 0
 485 0082 0432     		adds	r2, r2, #4
 486 0084 A150     		str	r1, [r4, r2]
 517:../../../../../../Middlewares/Third_Party/LoRaWAN/Mac/region/RegionUS915.c ****                 NvmCtx.Channels[i].Band = 0;
 487              		.loc 1 517 0
 488 0086 0832     		adds	r2, r2, #8
 516:../../../../../../Middlewares/Third_Party/LoRaWAN/Mac/region/RegionUS915.c ****                 NvmCtx.Channels[i].DrRange.Value = ( DR_4 << 4 ) | DR_4;
 489              		.loc 1 516 0
 490 0088 3149     		ldr	r1, .L44+32
 517:../../../../../../Middlewares/Third_Party/LoRaWAN/Mac/region/RegionUS915.c ****                 NvmCtx.Channels[i].Band = 0;
 491              		.loc 1 517 0
 492 008a A352     		strh	r3, [r4, r2]
 493              	.LVL24:
 516:../../../../../../Middlewares/Third_Party/LoRaWAN/Mac/region/RegionUS915.c ****                 NvmCtx.Channels[i].DrRange.Value = ( DR_4 << 4 ) | DR_4;
 494              		.loc 1 516 0
 495 008c 0432     		adds	r2, r2, #4
 496 008e A150     		str	r1, [r4, r2]
 517:../../../../../../Middlewares/Third_Party/LoRaWAN/Mac/region/RegionUS915.c ****                 NvmCtx.Channels[i].Band = 0;
 497              		.loc 1 517 0
 498 0090 0832     		adds	r2, r2, #8
 516:../../../../../../Middlewares/Third_Party/LoRaWAN/Mac/region/RegionUS915.c ****                 NvmCtx.Channels[i].DrRange.Value = ( DR_4 << 4 ) | DR_4;
 499              		.loc 1 516 0
 500 0092 3049     		ldr	r1, .L44+36
 517:../../../../../../Middlewares/Third_Party/LoRaWAN/Mac/region/RegionUS915.c ****                 NvmCtx.Channels[i].Band = 0;
 501              		.loc 1 517 0
 502 0094 A352     		strh	r3, [r4, r2]
 503              	.LVL25:
 516:../../../../../../Middlewares/Third_Party/LoRaWAN/Mac/region/RegionUS915.c ****                 NvmCtx.Channels[i].DrRange.Value = ( DR_4 << 4 ) | DR_4;
 504              		.loc 1 516 0
 505 0096 0432     		adds	r2, r2, #4
 506 0098 A150     		str	r1, [r4, r2]
ARM GAS  C:\Users\EBANO_~1\AppData\Local\Temp\ccFRmLE5.s 			page 21


 517:../../../../../../Middlewares/Third_Party/LoRaWAN/Mac/region/RegionUS915.c ****                 NvmCtx.Channels[i].Band = 0;
 507              		.loc 1 517 0
 508 009a 0832     		adds	r2, r2, #8
 516:../../../../../../Middlewares/Third_Party/LoRaWAN/Mac/region/RegionUS915.c ****                 NvmCtx.Channels[i].DrRange.Value = ( DR_4 << 4 ) | DR_4;
 509              		.loc 1 516 0
 510 009c 2E49     		ldr	r1, .L44+40
 517:../../../../../../Middlewares/Third_Party/LoRaWAN/Mac/region/RegionUS915.c ****                 NvmCtx.Channels[i].Band = 0;
 511              		.loc 1 517 0
 512 009e A352     		strh	r3, [r4, r2]
 513              	.LVL26:
 516:../../../../../../Middlewares/Third_Party/LoRaWAN/Mac/region/RegionUS915.c ****                 NvmCtx.Channels[i].DrRange.Value = ( DR_4 << 4 ) | DR_4;
 514              		.loc 1 516 0
 515 00a0 0432     		adds	r2, r2, #4
 516 00a2 A150     		str	r1, [r4, r2]
 517:../../../../../../Middlewares/Third_Party/LoRaWAN/Mac/region/RegionUS915.c ****                 NvmCtx.Channels[i].Band = 0;
 517              		.loc 1 517 0
 518 00a4 0832     		adds	r2, r2, #8
 516:../../../../../../Middlewares/Third_Party/LoRaWAN/Mac/region/RegionUS915.c ****                 NvmCtx.Channels[i].DrRange.Value = ( DR_4 << 4 ) | DR_4;
 519              		.loc 1 516 0
 520 00a6 2D49     		ldr	r1, .L44+44
 517:../../../../../../Middlewares/Third_Party/LoRaWAN/Mac/region/RegionUS915.c ****                 NvmCtx.Channels[i].Band = 0;
 521              		.loc 1 517 0
 522 00a8 A352     		strh	r3, [r4, r2]
 523              	.LVL27:
 516:../../../../../../Middlewares/Third_Party/LoRaWAN/Mac/region/RegionUS915.c ****                 NvmCtx.Channels[i].DrRange.Value = ( DR_4 << 4 ) | DR_4;
 524              		.loc 1 516 0
 525 00aa 0432     		adds	r2, r2, #4
 526 00ac A150     		str	r1, [r4, r2]
 517:../../../../../../Middlewares/Third_Party/LoRaWAN/Mac/region/RegionUS915.c ****                 NvmCtx.Channels[i].Band = 0;
 527              		.loc 1 517 0
 528 00ae 0832     		adds	r2, r2, #8
 516:../../../../../../Middlewares/Third_Party/LoRaWAN/Mac/region/RegionUS915.c ****                 NvmCtx.Channels[i].DrRange.Value = ( DR_4 << 4 ) | DR_4;
 529              		.loc 1 516 0
 530 00b0 2B49     		ldr	r1, .L44+48
 517:../../../../../../Middlewares/Third_Party/LoRaWAN/Mac/region/RegionUS915.c ****                 NvmCtx.Channels[i].Band = 0;
 531              		.loc 1 517 0
 532 00b2 A352     		strh	r3, [r4, r2]
 533              	.LVL28:
 516:../../../../../../Middlewares/Third_Party/LoRaWAN/Mac/region/RegionUS915.c ****                 NvmCtx.Channels[i].DrRange.Value = ( DR_4 << 4 ) | DR_4;
 534              		.loc 1 516 0
 535 00b4 0432     		adds	r2, r2, #4
 536 00b6 A150     		str	r1, [r4, r2]
 517:../../../../../../Middlewares/Third_Party/LoRaWAN/Mac/region/RegionUS915.c ****                 NvmCtx.Channels[i].Band = 0;
 537              		.loc 1 517 0
 538 00b8 0832     		adds	r2, r2, #8
 539 00ba A352     		strh	r3, [r4, r2]
 540              	.LVL29:
 541              	.LBE25:
 522:../../../../../../Middlewares/Third_Party/LoRaWAN/Mac/region/RegionUS915.c ****             NvmCtx.ChannelsDefaultMask[1] = 0xFFFF;
 542              		.loc 1 522 0
 543 00bc 453B     		subs	r3, r3, #69
 544 00be 2C32     		adds	r2, r2, #44
 545 00c0 A350     		str	r3, [r4, r2]
 546 00c2 0432     		adds	r2, r2, #4
 547 00c4 A350     		str	r3, [r4, r2]
 548 00c6 E423     		movs	r3, #228
 549 00c8 FF22     		movs	r2, #255
ARM GAS  C:\Users\EBANO_~1\AppData\Local\Temp\ccFRmLE5.s 			page 22


 550 00ca 9B00     		lsls	r3, r3, #2
 551 00cc E250     		str	r2, [r4, r3]
 530:../../../../../../Middlewares/Third_Party/LoRaWAN/Mac/region/RegionUS915.c **** 
 552              		.loc 1 530 0
 553 00ce 083B     		subs	r3, r3, #8
 554 00d0 E118     		adds	r1, r4, r3
 555 00d2 183B     		subs	r3, r3, #24
 556 00d4 E518     		adds	r5, r4, r3
 557 00d6 2800     		movs	r0, r5
 558 00d8 F93A     		subs	r2, r2, #249
 559 00da FFF7FEFF 		bl	RegionCommonChanMaskCopy
 560              	.LVL30:
 533:../../../../../../Middlewares/Third_Party/LoRaWAN/Mac/region/RegionUS915.c ****             break;
 561              		.loc 1 533 0
 562 00de DF23     		movs	r3, #223
 563 00e0 9B00     		lsls	r3, r3, #2
 564 00e2 E018     		adds	r0, r4, r3
 565 00e4 0622     		movs	r2, #6
 566 00e6 2900     		movs	r1, r5
 567 00e8 FFF7FEFF 		bl	RegionCommonChanMaskCopy
 568              	.LVL31:
 534:../../../../../../Middlewares/Third_Party/LoRaWAN/Mac/region/RegionUS915.c ****         }
 569              		.loc 1 534 0
 570 00ec A1E7     		b	.L35
 571              	.LVL32:
 572              	.L37:
 547:../../../../../../Middlewares/Third_Party/LoRaWAN/Mac/region/RegionUS915.c **** 
 573              		.loc 1 547 0
 574 00ee 1D4C     		ldr	r4, .L44+52
 575 00f0 0622     		movs	r2, #6
 576 00f2 2000     		movs	r0, r4
 577              	.LVL33:
 578 00f4 2100     		movs	r1, r4
 579 00f6 1838     		subs	r0, r0, #24
 580 00f8 FFF7FEFF 		bl	RegionCommonChanMaskCopy
 581              	.LVL34:
 582              	.LBB26:
 551:../../../../../../Middlewares/Third_Party/LoRaWAN/Mac/region/RegionUS915.c ****             }
 583              		.loc 1 551 0
 584 00fc 1A4B     		ldr	r3, .L44+56
 585 00fe DF22     		movs	r2, #223
 586 0100 9C46     		mov	ip, r3
 587 0102 DC23     		movs	r3, #220
 588 0104 6444     		add	r4, r4, ip
 589 0106 9200     		lsls	r2, r2, #2
 590 0108 9B00     		lsls	r3, r3, #2
 591 010a A158     		ldr	r1, [r4, r2]
 592 010c E358     		ldr	r3, [r4, r3]
 593 010e 0B40     		ands	r3, r1
 594 0110 A350     		str	r3, [r4, r2]
 595 0112 DD23     		movs	r3, #221
 596 0114 0432     		adds	r2, r2, #4
 597 0116 9B00     		lsls	r3, r3, #2
 598 0118 A158     		ldr	r1, [r4, r2]
 599 011a E358     		ldr	r3, [r4, r3]
 600 011c 0B40     		ands	r3, r1
 601 011e A350     		str	r3, [r4, r2]
ARM GAS  C:\Users\EBANO_~1\AppData\Local\Temp\ccFRmLE5.s 			page 23


 602 0120 DE23     		movs	r3, #222
 603 0122 0432     		adds	r2, r2, #4
 604 0124 9B00     		lsls	r3, r3, #2
 605 0126 A158     		ldr	r1, [r4, r2]
 606 0128 E358     		ldr	r3, [r4, r3]
 607 012a 0B40     		ands	r3, r1
 608 012c A350     		str	r3, [r4, r2]
 609              	.LVL35:
 610 012e 80E7     		b	.L35
 611              	.L45:
 612              		.align	2
 613              	.L44:
 614 0130 00000000 		.word	NvmCtx
 615 0134 60030000 		.word	NvmCtx+864
 616 0138 A0FCFFFF 		.word	-864
 617 013c 6001C835 		.word	902300000
 618 0140 400D0300 		.word	200000
 619 0144 C0AFD235 		.word	903000000
 620 0148 C019EB35 		.word	904600000
 621 014c C0830336 		.word	906200000
 622 0150 C0ED1B36 		.word	907800000
 623 0154 C0573436 		.word	909400000
 624 0158 C0C14C36 		.word	911000000
 625 015c C02B6536 		.word	912600000
 626 0160 C0957D36 		.word	914200000
 627 0164 88030000 		.word	NvmCtx+904
 628 0168 78FCFFFF 		.word	-904
 629              	.LBE26:
 630              		.cfi_endproc
 631              	.LFE48:
 632              		.size	RegionUS915InitDefaults, .-RegionUS915InitDefaults
 633              		.section	.text.RegionUS915GetNvmCtx,"ax",%progbits
 634              		.align	1
 635              		.p2align 2,,3
 636              		.global	RegionUS915GetNvmCtx
 637              		.syntax unified
 638              		.code	16
 639              		.thumb_func
 640              		.fpu softvfp
 641              		.type	RegionUS915GetNvmCtx, %function
 642              	RegionUS915GetNvmCtx:
 643              	.LFB49:
 561:../../../../../../Middlewares/Third_Party/LoRaWAN/Mac/region/RegionUS915.c **** 
 562:../../../../../../Middlewares/Third_Party/LoRaWAN/Mac/region/RegionUS915.c **** void* RegionUS915GetNvmCtx( GetNvmCtxParams_t* params )
 563:../../../../../../Middlewares/Third_Party/LoRaWAN/Mac/region/RegionUS915.c **** {
 644              		.loc 1 563 0
 645              		.cfi_startproc
 646              		@ args = 0, pretend = 0, frame = 0
 647              		@ frame_needed = 0, uses_anonymous_args = 0
 648              		@ link register save eliminated.
 649              	.LVL36:
 564:../../../../../../Middlewares/Third_Party/LoRaWAN/Mac/region/RegionUS915.c ****     params->nvmCtxSize = sizeof( RegionUS915NvmCtx_t );
 650              		.loc 1 564 0
 651 0000 E623     		movs	r3, #230
 652 0002 9B00     		lsls	r3, r3, #2
 653 0004 0360     		str	r3, [r0]
 565:../../../../../../Middlewares/Third_Party/LoRaWAN/Mac/region/RegionUS915.c ****     return &NvmCtx;
ARM GAS  C:\Users\EBANO_~1\AppData\Local\Temp\ccFRmLE5.s 			page 24


 566:../../../../../../Middlewares/Third_Party/LoRaWAN/Mac/region/RegionUS915.c **** }
 654              		.loc 1 566 0
 655              		@ sp needed
 656 0006 0148     		ldr	r0, .L47
 657              	.LVL37:
 658 0008 7047     		bx	lr
 659              	.L48:
 660 000a C046     		.align	2
 661              	.L47:
 662 000c 00000000 		.word	NvmCtx
 663              		.cfi_endproc
 664              	.LFE49:
 665              		.size	RegionUS915GetNvmCtx, .-RegionUS915GetNvmCtx
 666              		.section	.text.RegionUS915Verify,"ax",%progbits
 667              		.align	1
 668              		.p2align 2,,3
 669              		.global	RegionUS915Verify
 670              		.syntax unified
 671              		.code	16
 672              		.thumb_func
 673              		.fpu softvfp
 674              		.type	RegionUS915Verify, %function
 675              	RegionUS915Verify:
 676              	.LFB50:
 567:../../../../../../Middlewares/Third_Party/LoRaWAN/Mac/region/RegionUS915.c **** 
 568:../../../../../../Middlewares/Third_Party/LoRaWAN/Mac/region/RegionUS915.c **** bool RegionUS915Verify( VerifyParams_t* verify, PhyAttribute_t phyAttribute )
 569:../../../../../../Middlewares/Third_Party/LoRaWAN/Mac/region/RegionUS915.c **** {
 677              		.loc 1 569 0
 678              		.cfi_startproc
 679              		@ args = 0, pretend = 0, frame = 0
 680              		@ frame_needed = 0, uses_anonymous_args = 0
 681              	.LVL38:
 570:../../../../../../Middlewares/Third_Party/LoRaWAN/Mac/region/RegionUS915.c ****     switch( phyAttribute )
 682              		.loc 1 570 0
 683 0000 0439     		subs	r1, r1, #4
 684              	.LVL39:
 685 0002 C9B2     		uxtb	r1, r1
 569:../../../../../../Middlewares/Third_Party/LoRaWAN/Mac/region/RegionUS915.c ****     switch( phyAttribute )
 686              		.loc 1 569 0
 687 0004 10B5     		push	{r4, lr}
 688              	.LCFI5:
 689              		.cfi_def_cfa_offset 8
 690              		.cfi_offset 4, -8
 691              		.cfi_offset 14, -4
 692              		.loc 1 570 0
 693 0006 0529     		cmp	r1, #5
 694 0008 2BD8     		bhi	.L56
 695 000a 174B     		ldr	r3, .L57
 696 000c 8900     		lsls	r1, r1, #2
 697 000e 5B58     		ldr	r3, [r3, r1]
 698 0010 9F46     		mov	pc, r3
 699              		.section	.rodata
 700              		.align	2
 701              	.L52:
 702 00d4 4E000000 		.word	.L51
 703 00d8 3A000000 		.word	.L53
 704 00dc 26000000 		.word	.L54
ARM GAS  C:\Users\EBANO_~1\AppData\Local\Temp\ccFRmLE5.s 			page 25


 705 00e0 62000000 		.word	.L56
 706 00e4 12000000 		.word	.L55
 707 00e8 12000000 		.word	.L55
 708              		.section	.text.RegionUS915Verify
 709              	.L55:
 571:../../../../../../Middlewares/Third_Party/LoRaWAN/Mac/region/RegionUS915.c ****     {
 572:../../../../../../Middlewares/Third_Party/LoRaWAN/Mac/region/RegionUS915.c ****         case PHY_TX_DR:
 573:../../../../../../Middlewares/Third_Party/LoRaWAN/Mac/region/RegionUS915.c ****         {
 574:../../../../../../Middlewares/Third_Party/LoRaWAN/Mac/region/RegionUS915.c ****             return RegionCommonValueInRange( verify->DatarateParams.Datarate, US915_TX_MIN_DATARATE
 575:../../../../../../Middlewares/Third_Party/LoRaWAN/Mac/region/RegionUS915.c ****         }
 576:../../../../../../Middlewares/Third_Party/LoRaWAN/Mac/region/RegionUS915.c ****         case PHY_DEF_TX_DR:
 577:../../../../../../Middlewares/Third_Party/LoRaWAN/Mac/region/RegionUS915.c ****         {
 578:../../../../../../Middlewares/Third_Party/LoRaWAN/Mac/region/RegionUS915.c ****             return RegionCommonValueInRange( verify->DatarateParams.Datarate, DR_0, DR_5 );
 579:../../../../../../Middlewares/Third_Party/LoRaWAN/Mac/region/RegionUS915.c ****         }
 580:../../../../../../Middlewares/Third_Party/LoRaWAN/Mac/region/RegionUS915.c ****         case PHY_RX_DR:
 581:../../../../../../Middlewares/Third_Party/LoRaWAN/Mac/region/RegionUS915.c ****         {
 582:../../../../../../Middlewares/Third_Party/LoRaWAN/Mac/region/RegionUS915.c ****             return RegionCommonValueInRange( verify->DatarateParams.Datarate, US915_RX_MIN_DATARATE
 583:../../../../../../Middlewares/Third_Party/LoRaWAN/Mac/region/RegionUS915.c ****         }
 584:../../../../../../Middlewares/Third_Party/LoRaWAN/Mac/region/RegionUS915.c ****         case PHY_DEF_TX_POWER:
 585:../../../../../../Middlewares/Third_Party/LoRaWAN/Mac/region/RegionUS915.c ****         case PHY_TX_POWER:
 586:../../../../../../Middlewares/Third_Party/LoRaWAN/Mac/region/RegionUS915.c ****         {
 587:../../../../../../Middlewares/Third_Party/LoRaWAN/Mac/region/RegionUS915.c ****             // Remark: switched min and max!
 588:../../../../../../Middlewares/Third_Party/LoRaWAN/Mac/region/RegionUS915.c ****             return RegionCommonValueInRange( verify->TxPower, US915_MAX_TX_POWER, US915_MIN_TX_POWE
 710              		.loc 1 588 0
 711 0012 0078     		ldrb	r0, [r0]
 712              	.LVL40:
 713 0014 0A22     		movs	r2, #10
 714 0016 40B2     		sxtb	r0, r0
 715 0018 0021     		movs	r1, #0
 716 001a FFF7FEFF 		bl	RegionCommonValueInRange
 717              	.LVL41:
 718 001e 431E     		subs	r3, r0, #1
 719 0020 9841     		sbcs	r0, r0, r3
 720 0022 C0B2     		uxtb	r0, r0
 721              	.L50:
 589:../../../../../../Middlewares/Third_Party/LoRaWAN/Mac/region/RegionUS915.c ****         }
 590:../../../../../../Middlewares/Third_Party/LoRaWAN/Mac/region/RegionUS915.c ****         case PHY_DUTY_CYCLE:
 591:../../../../../../Middlewares/Third_Party/LoRaWAN/Mac/region/RegionUS915.c ****         {
 592:../../../../../../Middlewares/Third_Party/LoRaWAN/Mac/region/RegionUS915.c ****             return US915_DUTY_CYCLE_ENABLED;
 593:../../../../../../Middlewares/Third_Party/LoRaWAN/Mac/region/RegionUS915.c ****         }
 594:../../../../../../Middlewares/Third_Party/LoRaWAN/Mac/region/RegionUS915.c ****         default:
 595:../../../../../../Middlewares/Third_Party/LoRaWAN/Mac/region/RegionUS915.c ****             return false;
 596:../../../../../../Middlewares/Third_Party/LoRaWAN/Mac/region/RegionUS915.c ****     }
 597:../../../../../../Middlewares/Third_Party/LoRaWAN/Mac/region/RegionUS915.c **** }
 722              		.loc 1 597 0
 723              		@ sp needed
 724 0024 10BD     		pop	{r4, pc}
 725              	.LVL42:
 726              	.L54:
 582:../../../../../../Middlewares/Third_Party/LoRaWAN/Mac/region/RegionUS915.c ****         }
 727              		.loc 1 582 0
 728 0026 0078     		ldrb	r0, [r0]
 729              	.LVL43:
 730 0028 0D22     		movs	r2, #13
 731 002a 40B2     		sxtb	r0, r0
 732 002c 0821     		movs	r1, #8
 733 002e FFF7FEFF 		bl	RegionCommonValueInRange
ARM GAS  C:\Users\EBANO_~1\AppData\Local\Temp\ccFRmLE5.s 			page 26


 734              	.LVL44:
 735 0032 431E     		subs	r3, r0, #1
 736 0034 9841     		sbcs	r0, r0, r3
 737 0036 C0B2     		uxtb	r0, r0
 738 0038 F4E7     		b	.L50
 739              	.LVL45:
 740              	.L53:
 578:../../../../../../Middlewares/Third_Party/LoRaWAN/Mac/region/RegionUS915.c ****         }
 741              		.loc 1 578 0
 742 003a 0078     		ldrb	r0, [r0]
 743              	.LVL46:
 744 003c 0522     		movs	r2, #5
 745 003e 40B2     		sxtb	r0, r0
 746 0040 0021     		movs	r1, #0
 747 0042 FFF7FEFF 		bl	RegionCommonValueInRange
 748              	.LVL47:
 749 0046 431E     		subs	r3, r0, #1
 750 0048 9841     		sbcs	r0, r0, r3
 751 004a C0B2     		uxtb	r0, r0
 752 004c EAE7     		b	.L50
 753              	.LVL48:
 754              	.L51:
 574:../../../../../../Middlewares/Third_Party/LoRaWAN/Mac/region/RegionUS915.c ****         }
 755              		.loc 1 574 0
 756 004e 0078     		ldrb	r0, [r0]
 757              	.LVL49:
 758 0050 0422     		movs	r2, #4
 759 0052 40B2     		sxtb	r0, r0
 760 0054 0021     		movs	r1, #0
 761 0056 FFF7FEFF 		bl	RegionCommonValueInRange
 762              	.LVL50:
 763 005a 431E     		subs	r3, r0, #1
 764 005c 9841     		sbcs	r0, r0, r3
 765 005e C0B2     		uxtb	r0, r0
 766 0060 E0E7     		b	.L50
 767              	.LVL51:
 768              	.L56:
 592:../../../../../../Middlewares/Third_Party/LoRaWAN/Mac/region/RegionUS915.c ****         }
 769              		.loc 1 592 0
 770 0062 0020     		movs	r0, #0
 771              	.LVL52:
 772 0064 DEE7     		b	.L50
 773              	.L58:
 774 0066 C046     		.align	2
 775              	.L57:
 776 0068 D4000000 		.word	.L52
 777              		.cfi_endproc
 778              	.LFE50:
 779              		.size	RegionUS915Verify, .-RegionUS915Verify
 780              		.section	.text.RegionUS915ApplyCFList,"ax",%progbits
 781              		.align	1
 782              		.p2align 2,,3
 783              		.global	RegionUS915ApplyCFList
 784              		.syntax unified
 785              		.code	16
 786              		.thumb_func
 787              		.fpu softvfp
ARM GAS  C:\Users\EBANO_~1\AppData\Local\Temp\ccFRmLE5.s 			page 27


 788              		.type	RegionUS915ApplyCFList, %function
 789              	RegionUS915ApplyCFList:
 790              	.LFB51:
 598:../../../../../../Middlewares/Third_Party/LoRaWAN/Mac/region/RegionUS915.c **** 
 599:../../../../../../Middlewares/Third_Party/LoRaWAN/Mac/region/RegionUS915.c **** void RegionUS915ApplyCFList( ApplyCFListParams_t* applyCFList )
 600:../../../../../../Middlewares/Third_Party/LoRaWAN/Mac/region/RegionUS915.c **** {
 791              		.loc 1 600 0
 792              		.cfi_startproc
 793              		@ args = 0, pretend = 0, frame = 0
 794              		@ frame_needed = 0, uses_anonymous_args = 0
 795              	.LVL53:
 796 0000 10B5     		push	{r4, lr}
 797              	.LCFI6:
 798              		.cfi_def_cfa_offset 8
 799              		.cfi_offset 4, -8
 800              		.cfi_offset 14, -4
 601:../../../../../../Middlewares/Third_Party/LoRaWAN/Mac/region/RegionUS915.c ****     // Size of the optional CF list must be 16 byte
 602:../../../../../../Middlewares/Third_Party/LoRaWAN/Mac/region/RegionUS915.c ****     if( applyCFList->Size != 16 )
 801              		.loc 1 602 0
 802 0002 0379     		ldrb	r3, [r0, #4]
 803 0004 102B     		cmp	r3, #16
 804 0006 00D0     		beq	.L61
 805              	.LVL54:
 806              	.L59:
 603:../../../../../../Middlewares/Third_Party/LoRaWAN/Mac/region/RegionUS915.c ****     {
 604:../../../../../../Middlewares/Third_Party/LoRaWAN/Mac/region/RegionUS915.c ****         return;
 605:../../../../../../Middlewares/Third_Party/LoRaWAN/Mac/region/RegionUS915.c ****     }
 606:../../../../../../Middlewares/Third_Party/LoRaWAN/Mac/region/RegionUS915.c **** 
 607:../../../../../../Middlewares/Third_Party/LoRaWAN/Mac/region/RegionUS915.c ****     // Last byte CFListType must be 0x01 to indicate the CFList contains a series of ChMask fields
 608:../../../../../../Middlewares/Third_Party/LoRaWAN/Mac/region/RegionUS915.c ****     if( applyCFList->Payload[15] != 0x01 )
 609:../../../../../../Middlewares/Third_Party/LoRaWAN/Mac/region/RegionUS915.c ****     {
 610:../../../../../../Middlewares/Third_Party/LoRaWAN/Mac/region/RegionUS915.c ****         return;
 611:../../../../../../Middlewares/Third_Party/LoRaWAN/Mac/region/RegionUS915.c ****     }
 612:../../../../../../Middlewares/Third_Party/LoRaWAN/Mac/region/RegionUS915.c **** 
 613:../../../../../../Middlewares/Third_Party/LoRaWAN/Mac/region/RegionUS915.c ****     // ChMask0 - ChMask4 must be set (every ChMask has 16 bit)
 614:../../../../../../Middlewares/Third_Party/LoRaWAN/Mac/region/RegionUS915.c ****     for( uint8_t chMaskItr = 0, cntPayload = 0; chMaskItr <= 4; chMaskItr++, cntPayload+=2 )
 615:../../../../../../Middlewares/Third_Party/LoRaWAN/Mac/region/RegionUS915.c ****     {
 616:../../../../../../Middlewares/Third_Party/LoRaWAN/Mac/region/RegionUS915.c ****         NvmCtx.ChannelsMask[chMaskItr] = (uint16_t) (0x00FF & applyCFList->Payload[cntPayload]);
 617:../../../../../../Middlewares/Third_Party/LoRaWAN/Mac/region/RegionUS915.c ****         NvmCtx.ChannelsMask[chMaskItr] |= (uint16_t) (applyCFList->Payload[cntPayload+1] << 8);
 618:../../../../../../Middlewares/Third_Party/LoRaWAN/Mac/region/RegionUS915.c ****         if( chMaskItr == 4 )
 619:../../../../../../Middlewares/Third_Party/LoRaWAN/Mac/region/RegionUS915.c ****         {
 620:../../../../../../Middlewares/Third_Party/LoRaWAN/Mac/region/RegionUS915.c ****             NvmCtx.ChannelsMask[chMaskItr] = NvmCtx.ChannelsMask[chMaskItr] & CHANNELS_MASK_500KHZ_
 621:../../../../../../Middlewares/Third_Party/LoRaWAN/Mac/region/RegionUS915.c ****         }
 622:../../../../../../Middlewares/Third_Party/LoRaWAN/Mac/region/RegionUS915.c ****         // Set the channel mask to the remaining
 623:../../../../../../Middlewares/Third_Party/LoRaWAN/Mac/region/RegionUS915.c ****         NvmCtx.ChannelsMaskRemaining[chMaskItr] &= NvmCtx.ChannelsMask[chMaskItr];
 624:../../../../../../Middlewares/Third_Party/LoRaWAN/Mac/region/RegionUS915.c ****     }
 625:../../../../../../Middlewares/Third_Party/LoRaWAN/Mac/region/RegionUS915.c **** }
 807              		.loc 1 625 0
 808              		@ sp needed
 809 0008 10BD     		pop	{r4, pc}
 810              	.LVL55:
 811              	.L61:
 608:../../../../../../Middlewares/Third_Party/LoRaWAN/Mac/region/RegionUS915.c ****     {
 812              		.loc 1 608 0
 813 000a 0268     		ldr	r2, [r0]
 814 000c D37B     		ldrb	r3, [r2, #15]
 815 000e 012B     		cmp	r3, #1
ARM GAS  C:\Users\EBANO_~1\AppData\Local\Temp\ccFRmLE5.s 			page 28


 816 0010 FAD1     		bne	.L59
 817              	.LVL56:
 818              	.LBB27:
 616:../../../../../../Middlewares/Third_Party/LoRaWAN/Mac/region/RegionUS915.c ****         NvmCtx.ChannelsMask[chMaskItr] |= (uint16_t) (applyCFList->Payload[cntPayload+1] << 8);
 819              		.loc 1 616 0
 820 0012 DC24     		movs	r4, #220
 821 0014 1A4B     		ldr	r3, .L62
 822 0016 1178     		ldrb	r1, [r2]
 823 0018 A400     		lsls	r4, r4, #2
 824 001a 1953     		strh	r1, [r3, r4]
 617:../../../../../../Middlewares/Third_Party/LoRaWAN/Mac/region/RegionUS915.c ****         if( chMaskItr == 4 )
 825              		.loc 1 617 0
 826 001c 5078     		ldrb	r0, [r2, #1]
 827              	.LVL57:
 828 001e 0002     		lsls	r0, r0, #8
 829 0020 0143     		orrs	r1, r0
 830 0022 1953     		strh	r1, [r3, r4]
 623:../../../../../../Middlewares/Third_Party/LoRaWAN/Mac/region/RegionUS915.c ****     }
 831              		.loc 1 623 0
 832 0024 0C34     		adds	r4, r4, #12
 833 0026 185B     		ldrh	r0, [r3, r4]
 834 0028 0140     		ands	r1, r0
 835 002a 1953     		strh	r1, [r3, r4]
 836              	.LVL58:
 616:../../../../../../Middlewares/Third_Party/LoRaWAN/Mac/region/RegionUS915.c ****         NvmCtx.ChannelsMask[chMaskItr] |= (uint16_t) (applyCFList->Payload[cntPayload+1] << 8);
 837              		.loc 1 616 0
 838 002c 9178     		ldrb	r1, [r2, #2]
 839 002e 154C     		ldr	r4, .L62+4
 840 0030 1953     		strh	r1, [r3, r4]
 617:../../../../../../Middlewares/Third_Party/LoRaWAN/Mac/region/RegionUS915.c ****         if( chMaskItr == 4 )
 841              		.loc 1 617 0
 842 0032 D078     		ldrb	r0, [r2, #3]
 843 0034 0002     		lsls	r0, r0, #8
 844 0036 0143     		orrs	r1, r0
 845 0038 1953     		strh	r1, [r3, r4]
 623:../../../../../../Middlewares/Third_Party/LoRaWAN/Mac/region/RegionUS915.c ****     }
 846              		.loc 1 623 0
 847 003a 134C     		ldr	r4, .L62+8
 848 003c 185B     		ldrh	r0, [r3, r4]
 849 003e 0140     		ands	r1, r0
 850 0040 1953     		strh	r1, [r3, r4]
 851              	.LVL59:
 616:../../../../../../Middlewares/Third_Party/LoRaWAN/Mac/region/RegionUS915.c ****         NvmCtx.ChannelsMask[chMaskItr] |= (uint16_t) (applyCFList->Payload[cntPayload+1] << 8);
 852              		.loc 1 616 0
 853 0042 1179     		ldrb	r1, [r2, #4]
 854 0044 0A3C     		subs	r4, r4, #10
 855 0046 1953     		strh	r1, [r3, r4]
 617:../../../../../../Middlewares/Third_Party/LoRaWAN/Mac/region/RegionUS915.c ****         if( chMaskItr == 4 )
 856              		.loc 1 617 0
 857 0048 5079     		ldrb	r0, [r2, #5]
 858 004a 0002     		lsls	r0, r0, #8
 859 004c 0143     		orrs	r1, r0
 860 004e 1953     		strh	r1, [r3, r4]
 623:../../../../../../Middlewares/Third_Party/LoRaWAN/Mac/region/RegionUS915.c ****     }
 861              		.loc 1 623 0
 862 0050 0C34     		adds	r4, r4, #12
 863 0052 185B     		ldrh	r0, [r3, r4]
ARM GAS  C:\Users\EBANO_~1\AppData\Local\Temp\ccFRmLE5.s 			page 29


 864 0054 0140     		ands	r1, r0
 865 0056 1953     		strh	r1, [r3, r4]
 866              	.LVL60:
 616:../../../../../../Middlewares/Third_Party/LoRaWAN/Mac/region/RegionUS915.c ****         NvmCtx.ChannelsMask[chMaskItr] |= (uint16_t) (applyCFList->Payload[cntPayload+1] << 8);
 867              		.loc 1 616 0
 868 0058 9179     		ldrb	r1, [r2, #6]
 869 005a 0C4C     		ldr	r4, .L62+12
 870 005c 1953     		strh	r1, [r3, r4]
 617:../../../../../../Middlewares/Third_Party/LoRaWAN/Mac/region/RegionUS915.c ****         if( chMaskItr == 4 )
 871              		.loc 1 617 0
 872 005e D079     		ldrb	r0, [r2, #7]
 873 0060 0002     		lsls	r0, r0, #8
 874 0062 0143     		orrs	r1, r0
 875 0064 1953     		strh	r1, [r3, r4]
 623:../../../../../../Middlewares/Third_Party/LoRaWAN/Mac/region/RegionUS915.c ****     }
 876              		.loc 1 623 0
 877 0066 0A4C     		ldr	r4, .L62+16
 878 0068 185B     		ldrh	r0, [r3, r4]
 879 006a 0140     		ands	r1, r0
 880 006c E120     		movs	r0, #225
 881 006e 1953     		strh	r1, [r3, r4]
 882              	.LVL61:
 616:../../../../../../Middlewares/Third_Party/LoRaWAN/Mac/region/RegionUS915.c ****         NvmCtx.ChannelsMask[chMaskItr] |= (uint16_t) (applyCFList->Payload[cntPayload+1] << 8);
 883              		.loc 1 616 0
 884 0070 127A     		ldrb	r2, [r2, #8]
 885 0072 0A3C     		subs	r4, r4, #10
 886 0074 1A53     		strh	r2, [r3, r4]
 887 0076 8000     		lsls	r0, r0, #2
 888 0078 195A     		ldrh	r1, [r3, r0]
 623:../../../../../../Middlewares/Third_Party/LoRaWAN/Mac/region/RegionUS915.c ****     }
 889              		.loc 1 623 0
 890 007a 0A40     		ands	r2, r1
 891 007c 1A52     		strh	r2, [r3, r0]
 892              	.LVL62:
 893 007e C3E7     		b	.L59
 894              	.L63:
 895              		.align	2
 896              	.L62:
 897 0080 00000000 		.word	NvmCtx
 898 0084 72030000 		.word	882
 899 0088 7E030000 		.word	894
 900 008c 76030000 		.word	886
 901 0090 82030000 		.word	898
 902              	.LBE27:
 903              		.cfi_endproc
 904              	.LFE51:
 905              		.size	RegionUS915ApplyCFList, .-RegionUS915ApplyCFList
 906              		.section	.text.RegionUS915ChanMaskSet,"ax",%progbits
 907              		.align	1
 908              		.p2align 2,,3
 909              		.global	RegionUS915ChanMaskSet
 910              		.syntax unified
 911              		.code	16
 912              		.thumb_func
 913              		.fpu softvfp
 914              		.type	RegionUS915ChanMaskSet, %function
 915              	RegionUS915ChanMaskSet:
ARM GAS  C:\Users\EBANO_~1\AppData\Local\Temp\ccFRmLE5.s 			page 30


 916              	.LFB52:
 626:../../../../../../Middlewares/Third_Party/LoRaWAN/Mac/region/RegionUS915.c **** 
 627:../../../../../../Middlewares/Third_Party/LoRaWAN/Mac/region/RegionUS915.c **** bool RegionUS915ChanMaskSet( ChanMaskSetParams_t* chanMaskSet )
 628:../../../../../../Middlewares/Third_Party/LoRaWAN/Mac/region/RegionUS915.c **** {
 917              		.loc 1 628 0
 918              		.cfi_startproc
 919              		@ args = 0, pretend = 0, frame = 0
 920              		@ frame_needed = 0, uses_anonymous_args = 0
 921              	.LVL63:
 922 0000 70B5     		push	{r4, r5, r6, lr}
 923              	.LCFI7:
 924              		.cfi_def_cfa_offset 16
 925              		.cfi_offset 4, -16
 926              		.cfi_offset 5, -12
 927              		.cfi_offset 6, -8
 928              		.cfi_offset 14, -4
 629:../../../../../../Middlewares/Third_Party/LoRaWAN/Mac/region/RegionUS915.c ****     uint8_t nbChannels = RegionCommonCountChannels( chanMaskSet->ChannelsMaskIn, 0, 4 );
 929              		.loc 1 629 0
 930 0002 0422     		movs	r2, #4
 628:../../../../../../Middlewares/Third_Party/LoRaWAN/Mac/region/RegionUS915.c ****     uint8_t nbChannels = RegionCommonCountChannels( chanMaskSet->ChannelsMaskIn, 0, 4 );
 931              		.loc 1 628 0
 932 0004 0400     		movs	r4, r0
 933              		.loc 1 629 0
 934 0006 0021     		movs	r1, #0
 935 0008 0068     		ldr	r0, [r0]
 936              	.LVL64:
 937 000a FFF7FEFF 		bl	RegionCommonCountChannels
 938              	.LVL65:
 630:../../../../../../Middlewares/Third_Party/LoRaWAN/Mac/region/RegionUS915.c **** 
 631:../../../../../../Middlewares/Third_Party/LoRaWAN/Mac/region/RegionUS915.c ****     // Check the number of active channels
 632:../../../../../../Middlewares/Third_Party/LoRaWAN/Mac/region/RegionUS915.c ****     if( ( nbChannels < 2 ) &&
 939              		.loc 1 632 0
 940 000e 0128     		cmp	r0, #1
 941 0010 0BD0     		beq	.L70
 633:../../../../../../Middlewares/Third_Party/LoRaWAN/Mac/region/RegionUS915.c ****         ( nbChannels > 0 ) )
 634:../../../../../../Middlewares/Third_Party/LoRaWAN/Mac/region/RegionUS915.c ****     {
 635:../../../../../../Middlewares/Third_Party/LoRaWAN/Mac/region/RegionUS915.c ****         return false;
 636:../../../../../../Middlewares/Third_Party/LoRaWAN/Mac/region/RegionUS915.c ****     }
 637:../../../../../../Middlewares/Third_Party/LoRaWAN/Mac/region/RegionUS915.c **** 
 638:../../../../../../Middlewares/Third_Party/LoRaWAN/Mac/region/RegionUS915.c ****     switch( chanMaskSet->ChannelsMaskType )
 942              		.loc 1 638 0
 943 0012 2579     		ldrb	r5, [r4, #4]
 944 0014 002D     		cmp	r5, #0
 945 0016 0AD0     		beq	.L66
 946 0018 012D     		cmp	r5, #1
 947 001a 06D1     		bne	.L70
 639:../../../../../../Middlewares/Third_Party/LoRaWAN/Mac/region/RegionUS915.c ****     {
 640:../../../../../../Middlewares/Third_Party/LoRaWAN/Mac/region/RegionUS915.c ****         case CHANNELS_MASK:
 641:../../../../../../Middlewares/Third_Party/LoRaWAN/Mac/region/RegionUS915.c ****         {
 642:../../../../../../Middlewares/Third_Party/LoRaWAN/Mac/region/RegionUS915.c ****             RegionCommonChanMaskCopy( NvmCtx.ChannelsMask, chanMaskSet->ChannelsMaskIn, CHANNELS_MA
 643:../../../../../../Middlewares/Third_Party/LoRaWAN/Mac/region/RegionUS915.c **** 
 644:../../../../../../Middlewares/Third_Party/LoRaWAN/Mac/region/RegionUS915.c ****             NvmCtx.ChannelsDefaultMask[4] = NvmCtx.ChannelsDefaultMask[4] & CHANNELS_MASK_500KHZ_MA
 645:../../../../../../Middlewares/Third_Party/LoRaWAN/Mac/region/RegionUS915.c ****             NvmCtx.ChannelsDefaultMask[5] = 0x0000;
 646:../../../../../../Middlewares/Third_Party/LoRaWAN/Mac/region/RegionUS915.c **** 
 647:../../../../../../Middlewares/Third_Party/LoRaWAN/Mac/region/RegionUS915.c ****             for( uint8_t i = 0; i < CHANNELS_MASK_SIZE; i++ )
 648:../../../../../../Middlewares/Third_Party/LoRaWAN/Mac/region/RegionUS915.c ****             { // Copy-And the channels mask
 649:../../../../../../Middlewares/Third_Party/LoRaWAN/Mac/region/RegionUS915.c ****                 NvmCtx.ChannelsMaskRemaining[i] &= NvmCtx.ChannelsMask[i];
ARM GAS  C:\Users\EBANO_~1\AppData\Local\Temp\ccFRmLE5.s 			page 31


 650:../../../../../../Middlewares/Third_Party/LoRaWAN/Mac/region/RegionUS915.c ****             }
 651:../../../../../../Middlewares/Third_Party/LoRaWAN/Mac/region/RegionUS915.c ****             break;
 652:../../../../../../Middlewares/Third_Party/LoRaWAN/Mac/region/RegionUS915.c ****         }
 653:../../../../../../Middlewares/Third_Party/LoRaWAN/Mac/region/RegionUS915.c ****         case CHANNELS_DEFAULT_MASK:
 654:../../../../../../Middlewares/Third_Party/LoRaWAN/Mac/region/RegionUS915.c ****         {
 655:../../../../../../Middlewares/Third_Party/LoRaWAN/Mac/region/RegionUS915.c ****             RegionCommonChanMaskCopy( NvmCtx.ChannelsDefaultMask, chanMaskSet->ChannelsMaskIn, CHAN
 948              		.loc 1 655 0
 949 001c 1748     		ldr	r0, .L71
 950              	.LVL66:
 951 001e 2168     		ldr	r1, [r4]
 952 0020 0622     		movs	r2, #6
 953 0022 FFF7FEFF 		bl	RegionCommonChanMaskCopy
 954              	.LVL67:
 656:../../../../../../Middlewares/Third_Party/LoRaWAN/Mac/region/RegionUS915.c ****             break;
 657:../../../../../../Middlewares/Third_Party/LoRaWAN/Mac/region/RegionUS915.c ****         }
 658:../../../../../../Middlewares/Third_Party/LoRaWAN/Mac/region/RegionUS915.c ****         default:
 659:../../../../../../Middlewares/Third_Party/LoRaWAN/Mac/region/RegionUS915.c ****             return false;
 660:../../../../../../Middlewares/Third_Party/LoRaWAN/Mac/region/RegionUS915.c ****     }
 661:../../../../../../Middlewares/Third_Party/LoRaWAN/Mac/region/RegionUS915.c ****     return true;
 955              		.loc 1 661 0
 956 0026 0120     		movs	r0, #1
 656:../../../../../../Middlewares/Third_Party/LoRaWAN/Mac/region/RegionUS915.c ****             break;
 957              		.loc 1 656 0
 958 0028 00E0     		b	.L65
 959              	.LVL68:
 960              	.L70:
 659:../../../../../../Middlewares/Third_Party/LoRaWAN/Mac/region/RegionUS915.c ****     }
 961              		.loc 1 659 0
 962 002a 0020     		movs	r0, #0
 963              	.LVL69:
 964              	.L65:
 662:../../../../../../Middlewares/Third_Party/LoRaWAN/Mac/region/RegionUS915.c **** }
 965              		.loc 1 662 0
 966              		@ sp needed
 967 002c 70BD     		pop	{r4, r5, r6, pc}
 968              	.LVL70:
 969              	.L66:
 642:../../../../../../Middlewares/Third_Party/LoRaWAN/Mac/region/RegionUS915.c **** 
 970              		.loc 1 642 0
 971 002e 2168     		ldr	r1, [r4]
 972 0030 134C     		ldr	r4, .L71+4
 973              	.LVL71:
 974 0032 0622     		movs	r2, #6
 975 0034 2000     		movs	r0, r4
 976              	.LVL72:
 977 0036 FFF7FEFF 		bl	RegionCommonChanMaskCopy
 978              	.LVL73:
 644:../../../../../../Middlewares/Third_Party/LoRaWAN/Mac/region/RegionUS915.c ****             NvmCtx.ChannelsDefaultMask[5] = 0x0000;
 979              		.loc 1 644 0
 980 003a 124B     		ldr	r3, .L71+8
 661:../../../../../../Middlewares/Third_Party/LoRaWAN/Mac/region/RegionUS915.c **** }
 981              		.loc 1 661 0
 982 003c 0120     		movs	r0, #1
 644:../../../../../../Middlewares/Third_Party/LoRaWAN/Mac/region/RegionUS915.c ****             NvmCtx.ChannelsDefaultMask[5] = 0x0000;
 983              		.loc 1 644 0
 984 003e 9C46     		mov	ip, r3
 985 0040 E423     		movs	r3, #228
ARM GAS  C:\Users\EBANO_~1\AppData\Local\Temp\ccFRmLE5.s 			page 32


 986 0042 6444     		add	r4, r4, ip
 987 0044 9B00     		lsls	r3, r3, #2
 988 0046 E25C     		ldrb	r2, [r4, r3]
 989 0048 E252     		strh	r2, [r4, r3]
 990              	.LBB28:
 649:../../../../../../Middlewares/Third_Party/LoRaWAN/Mac/region/RegionUS915.c ****             }
 991              		.loc 1 649 0
 992 004a DF22     		movs	r2, #223
 993              	.LBE28:
 645:../../../../../../Middlewares/Third_Party/LoRaWAN/Mac/region/RegionUS915.c **** 
 994              		.loc 1 645 0
 995 004c 0E4B     		ldr	r3, .L71+12
 996              	.LBB29:
 649:../../../../../../Middlewares/Third_Party/LoRaWAN/Mac/region/RegionUS915.c ****             }
 997              		.loc 1 649 0
 998 004e 9200     		lsls	r2, r2, #2
 999              	.LBE29:
 645:../../../../../../Middlewares/Third_Party/LoRaWAN/Mac/region/RegionUS915.c **** 
 1000              		.loc 1 645 0
 1001 0050 E552     		strh	r5, [r4, r3]
 1002              	.LBB30:
 649:../../../../../../Middlewares/Third_Party/LoRaWAN/Mac/region/RegionUS915.c ****             }
 1003              		.loc 1 649 0
 1004 0052 223B     		subs	r3, r3, #34
 1005 0054 A158     		ldr	r1, [r4, r2]
 1006 0056 E358     		ldr	r3, [r4, r3]
 1007 0058 0B40     		ands	r3, r1
 1008 005a A350     		str	r3, [r4, r2]
 1009 005c DD23     		movs	r3, #221
 1010 005e 0432     		adds	r2, r2, #4
 1011 0060 9B00     		lsls	r3, r3, #2
 1012 0062 A158     		ldr	r1, [r4, r2]
 1013 0064 E358     		ldr	r3, [r4, r3]
 1014 0066 0B40     		ands	r3, r1
 1015 0068 A350     		str	r3, [r4, r2]
 1016 006a DE23     		movs	r3, #222
 1017 006c 0432     		adds	r2, r2, #4
 1018 006e 9B00     		lsls	r3, r3, #2
 1019 0070 A158     		ldr	r1, [r4, r2]
 1020 0072 E358     		ldr	r3, [r4, r3]
 1021 0074 0B40     		ands	r3, r1
 1022 0076 A350     		str	r3, [r4, r2]
 1023              	.LVL74:
 1024 0078 D8E7     		b	.L65
 1025              	.L72:
 1026 007a C046     		.align	2
 1027              	.L71:
 1028 007c 88030000 		.word	NvmCtx+904
 1029 0080 70030000 		.word	NvmCtx+880
 1030 0084 90FCFFFF 		.word	-880
 1031 0088 92030000 		.word	914
 1032              	.LBE30:
 1033              		.cfi_endproc
 1034              	.LFE52:
 1035              		.size	RegionUS915ChanMaskSet, .-RegionUS915ChanMaskSet
 1036              		.section	.text.RegionUS915ComputeRxWindowParameters,"ax",%progbits
 1037              		.align	1
ARM GAS  C:\Users\EBANO_~1\AppData\Local\Temp\ccFRmLE5.s 			page 33


 1038              		.p2align 2,,3
 1039              		.global	RegionUS915ComputeRxWindowParameters
 1040              		.syntax unified
 1041              		.code	16
 1042              		.thumb_func
 1043              		.fpu softvfp
 1044              		.type	RegionUS915ComputeRxWindowParameters, %function
 1045              	RegionUS915ComputeRxWindowParameters:
 1046              	.LFB53:
 663:../../../../../../Middlewares/Third_Party/LoRaWAN/Mac/region/RegionUS915.c **** 
 664:../../../../../../Middlewares/Third_Party/LoRaWAN/Mac/region/RegionUS915.c **** void RegionUS915ComputeRxWindowParameters( int8_t datarate, uint8_t minRxSymbols, uint32_t rxError,
 665:../../../../../../Middlewares/Third_Party/LoRaWAN/Mac/region/RegionUS915.c **** {
 1047              		.loc 1 665 0
 1048              		.cfi_startproc
 1049              		@ args = 0, pretend = 0, frame = 8
 1050              		@ frame_needed = 0, uses_anonymous_args = 0
 1051              	.LVL75:
 1052 0000 F0B5     		push	{r4, r5, r6, r7, lr}
 1053              	.LCFI8:
 1054              		.cfi_def_cfa_offset 20
 1055              		.cfi_offset 4, -20
 1056              		.cfi_offset 5, -16
 1057              		.cfi_offset 6, -12
 1058              		.cfi_offset 7, -8
 1059              		.cfi_offset 14, -4
 1060 0002 C646     		mov	lr, r8
 1061 0004 00B5     		push	{lr}
 1062              	.LCFI9:
 1063              		.cfi_def_cfa_offset 24
 1064              		.cfi_offset 8, -24
 1065 0006 1C00     		movs	r4, r3
 1066 0008 86B0     		sub	sp, sp, #24
 1067              	.LCFI10:
 1068              		.cfi_def_cfa_offset 48
 1069              		.loc 1 665 0
 1070 000a 0D00     		movs	r5, r1
 1071 000c 9046     		mov	r8, r2
 666:../../../../../../Middlewares/Third_Party/LoRaWAN/Mac/region/RegionUS915.c ****     double tSymbol = 0.0;
 667:../../../../../../Middlewares/Third_Party/LoRaWAN/Mac/region/RegionUS915.c **** 
 668:../../../../../../Middlewares/Third_Party/LoRaWAN/Mac/region/RegionUS915.c ****     // Get the datarate, perform a boundary check
 669:../../../../../../Middlewares/Third_Party/LoRaWAN/Mac/region/RegionUS915.c ****     rxConfigParams->Datarate = MIN( datarate, US915_RX_MAX_DATARATE );
 1072              		.loc 1 669 0
 1073 000e 031C     		adds	r3, r0, #0
 1074              	.LVL76:
 1075 0010 0D28     		cmp	r0, #13
 1076 0012 00DD     		ble	.L74
 1077 0014 0D23     		movs	r3, #13
 1078              	.L74:
 1079 0016 58B2     		sxtb	r0, r3
 1080              	.LVL77:
 1081              	.LBB31:
 1082              	.LBB32:
 201:../../../../../../Middlewares/Third_Party/LoRaWAN/Mac/region/RegionUS915.c ****     {
 1083              		.loc 1 201 0
 1084 0018 154A     		ldr	r2, .L79
 1085              	.LVL78:
 1086 001a 8100     		lsls	r1, r0, #2
ARM GAS  C:\Users\EBANO_~1\AppData\Local\Temp\ccFRmLE5.s 			page 34


 1087              	.LVL79:
 1088              	.LBE32:
 1089              	.LBE31:
 1090              		.loc 1 669 0
 1091 001c 6370     		strb	r3, [r4, #1]
 1092              	.LVL80:
 1093              	.LBB35:
 1094              	.LBB33:
 201:../../../../../../Middlewares/Third_Party/LoRaWAN/Mac/region/RegionUS915.c ****     {
 1095              		.loc 1 201 0
 1096 001e 154E     		ldr	r6, .L79+4
 1097 0020 5358     		ldr	r3, [r2, r1]
 1098 0022 B342     		cmp	r3, r6
 1099 0024 22D0     		beq	.L78
 1100 0026 144E     		ldr	r6, .L79+8
 1101 0028 B446     		mov	ip, r6
 1102 002a 6344     		add	r3, r3, ip
 1103 002c 5E42     		rsbs	r6, r3, #0
 1104 002e 7341     		adcs	r3, r3, r6
 1105 0030 5B00     		lsls	r3, r3, #1
 1106              	.L76:
 1107              	.LBE33:
 1108              	.LBE35:
 670:../../../../../../Middlewares/Third_Party/LoRaWAN/Mac/region/RegionUS915.c ****     rxConfigParams->Bandwidth = GetBandwidth( rxConfigParams->Datarate );
 1109              		.loc 1 670 0
 1110 0032 A370     		strb	r3, [r4, #2]
 671:../../../../../../Middlewares/Third_Party/LoRaWAN/Mac/region/RegionUS915.c **** 
 672:../../../../../../Middlewares/Third_Party/LoRaWAN/Mac/region/RegionUS915.c ****     tSymbol = RegionCommonComputeSymbolTimeLoRa( DataratesUS915[rxConfigParams->Datarate], Bandwidt
 1111              		.loc 1 672 0
 1112 0034 4023     		movs	r3, #64
 1113 0036 5158     		ldr	r1, [r2, r1]
 1114 0038 1218     		adds	r2, r2, r0
 1115 003a D05C     		ldrb	r0, [r2, r3]
 1116 003c FFF7FEFF 		bl	RegionCommonComputeSymbolTimeLoRa
 1117              	.LVL81:
 673:../../../../../../Middlewares/Third_Party/LoRaWAN/Mac/region/RegionUS915.c **** 
 674:../../../../../../Middlewares/Third_Party/LoRaWAN/Mac/region/RegionUS915.c ****     RegionCommonComputeRxWindowParameters( tSymbol, minRxSymbols, rxError, Radio.GetWakeupTime( ), 
 1118              		.loc 1 674 0
 1119 0040 0E4B     		ldr	r3, .L79+12
 672:../../../../../../Middlewares/Third_Party/LoRaWAN/Mac/region/RegionUS915.c **** 
 1120              		.loc 1 672 0
 1121 0042 0600     		movs	r6, r0
 1122              		.loc 1 674 0
 1123 0044 5B6E     		ldr	r3, [r3, #100]
 672:../../../../../../Middlewares/Third_Party/LoRaWAN/Mac/region/RegionUS915.c **** 
 1124              		.loc 1 672 0
 1125 0046 0F00     		movs	r7, r1
 1126              	.LVL82:
 1127              		.loc 1 674 0
 1128 0048 0593     		str	r3, [sp, #20]
 1129 004a 9847     		blx	r3
 1130              	.LVL83:
 1131 004c 2300     		movs	r3, r4
 1132 004e 0834     		adds	r4, r4, #8
 1133              	.LVL84:
 1134 0050 0C33     		adds	r3, r3, #12
 1135              	.LVL85:
ARM GAS  C:\Users\EBANO_~1\AppData\Local\Temp\ccFRmLE5.s 			page 35


 1136 0052 0293     		str	r3, [sp, #8]
 1137 0054 0090     		str	r0, [sp]
 1138 0056 0194     		str	r4, [sp, #4]
 1139 0058 4346     		mov	r3, r8
 1140              	.LVL86:
 1141 005a 2A00     		movs	r2, r5
 1142 005c 3000     		movs	r0, r6
 1143 005e 3900     		movs	r1, r7
 1144 0060 FFF7FEFF 		bl	RegionCommonComputeRxWindowParameters
 1145              	.LVL87:
 675:../../../../../../Middlewares/Third_Party/LoRaWAN/Mac/region/RegionUS915.c **** }
 1146              		.loc 1 675 0
 1147 0064 06B0     		add	sp, sp, #24
 1148              		@ sp needed
 1149              	.LVL88:
 1150              	.LVL89:
 1151              	.LVL90:
 1152 0066 04BC     		pop	{r2}
 1153 0068 9046     		mov	r8, r2
 1154 006a F0BD     		pop	{r4, r5, r6, r7, pc}
 1155              	.LVL91:
 1156              	.L78:
 1157              	.LBB36:
 1158              	.LBB34:
 201:../../../../../../Middlewares/Third_Party/LoRaWAN/Mac/region/RegionUS915.c ****     {
 1159              		.loc 1 201 0
 1160 006c 0123     		movs	r3, #1
 1161 006e E0E7     		b	.L76
 1162              	.L80:
 1163              		.align	2
 1164              	.L79:
 1165 0070 EC000000 		.word	.LANCHOR1
 1166 0074 90D00300 		.word	250000
 1167 0078 E05EF8FF 		.word	-500000
 1168 007c 00000000 		.word	Radio
 1169              	.LBE34:
 1170              	.LBE36:
 1171              		.cfi_endproc
 1172              	.LFE53:
 1173              		.size	RegionUS915ComputeRxWindowParameters, .-RegionUS915ComputeRxWindowParameters
 1174              		.section	.text.RegionUS915RxConfig,"ax",%progbits
 1175              		.align	1
 1176              		.p2align 2,,3
 1177              		.global	RegionUS915RxConfig
 1178              		.syntax unified
 1179              		.code	16
 1180              		.thumb_func
 1181              		.fpu softvfp
 1182              		.type	RegionUS915RxConfig, %function
 1183              	RegionUS915RxConfig:
 1184              	.LFB54:
 676:../../../../../../Middlewares/Third_Party/LoRaWAN/Mac/region/RegionUS915.c **** 
 677:../../../../../../Middlewares/Third_Party/LoRaWAN/Mac/region/RegionUS915.c **** bool RegionUS915RxConfig( RxConfigParams_t* rxConfig, int8_t* datarate )
 678:../../../../../../Middlewares/Third_Party/LoRaWAN/Mac/region/RegionUS915.c **** {
 1185              		.loc 1 678 0
 1186              		.cfi_startproc
 1187              		@ args = 0, pretend = 0, frame = 8
ARM GAS  C:\Users\EBANO_~1\AppData\Local\Temp\ccFRmLE5.s 			page 36


 1188              		@ frame_needed = 0, uses_anonymous_args = 0
 1189              	.LVL92:
 1190 0000 F0B5     		push	{r4, r5, r6, r7, lr}
 1191              	.LCFI11:
 1192              		.cfi_def_cfa_offset 20
 1193              		.cfi_offset 4, -20
 1194              		.cfi_offset 5, -16
 1195              		.cfi_offset 6, -12
 1196              		.cfi_offset 7, -8
 1197              		.cfi_offset 14, -4
 1198 0002 D646     		mov	lr, r10
 1199 0004 4646     		mov	r6, r8
 1200 0006 4F46     		mov	r7, r9
 1201 0008 C0B5     		push	{r6, r7, lr}
 1202              	.LCFI12:
 1203              		.cfi_def_cfa_offset 32
 1204              		.cfi_offset 8, -32
 1205              		.cfi_offset 9, -28
 1206              		.cfi_offset 10, -24
 679:../../../../../../Middlewares/Third_Party/LoRaWAN/Mac/region/RegionUS915.c ****     int8_t dr = rxConfig->Datarate;
 1207              		.loc 1 679 0
 1208 000a 0126     		movs	r6, #1
 680:../../../../../../Middlewares/Third_Party/LoRaWAN/Mac/region/RegionUS915.c ****     uint8_t maxPayload = 0;
 681:../../../../../../Middlewares/Third_Party/LoRaWAN/Mac/region/RegionUS915.c ****     int8_t phyDr = 0;
 682:../../../../../../Middlewares/Third_Party/LoRaWAN/Mac/region/RegionUS915.c ****     uint32_t frequency = rxConfig->Frequency;
 1209              		.loc 1 682 0
 1210 000c 4368     		ldr	r3, [r0, #4]
 683:../../../../../../Middlewares/Third_Party/LoRaWAN/Mac/region/RegionUS915.c **** 
 684:../../../../../../Middlewares/Third_Party/LoRaWAN/Mac/region/RegionUS915.c ****     if( Radio.GetStatus( ) != RF_IDLE )
 1211              		.loc 1 684 0
 1212 000e 284D     		ldr	r5, .L88
 682:../../../../../../Middlewares/Third_Party/LoRaWAN/Mac/region/RegionUS915.c **** 
 1213              		.loc 1 682 0
 1214 0010 9846     		mov	r8, r3
 1215              		.loc 1 684 0
 1216 0012 EB68     		ldr	r3, [r5, #12]
 678:../../../../../../Middlewares/Third_Party/LoRaWAN/Mac/region/RegionUS915.c ****     int8_t dr = rxConfig->Datarate;
 1217              		.loc 1 678 0
 1218 0014 8CB0     		sub	sp, sp, #48
 1219              	.LCFI13:
 1220              		.cfi_def_cfa_offset 80
 679:../../../../../../Middlewares/Third_Party/LoRaWAN/Mac/region/RegionUS915.c ****     uint8_t maxPayload = 0;
 1221              		.loc 1 679 0
 1222 0016 8657     		ldrsb	r6, [r0, r6]
 1223              	.LVL93:
 678:../../../../../../Middlewares/Third_Party/LoRaWAN/Mac/region/RegionUS915.c ****     int8_t dr = rxConfig->Datarate;
 1224              		.loc 1 678 0
 1225 0018 0400     		movs	r4, r0
 1226              		.loc 1 684 0
 1227 001a 0B93     		str	r3, [sp, #44]
 678:../../../../../../Middlewares/Third_Party/LoRaWAN/Mac/region/RegionUS915.c ****     int8_t dr = rxConfig->Datarate;
 1228              		.loc 1 678 0
 1229 001c 8A46     		mov	r10, r1
 1230              		.loc 1 684 0
 1231 001e 9847     		blx	r3
 1232              	.LVL94:
 685:../../../../../../Middlewares/Third_Party/LoRaWAN/Mac/region/RegionUS915.c ****     {
ARM GAS  C:\Users\EBANO_~1\AppData\Local\Temp\ccFRmLE5.s 			page 37


 686:../../../../../../Middlewares/Third_Party/LoRaWAN/Mac/region/RegionUS915.c ****         return false;
 1233              		.loc 1 686 0
 1234 0020 0023     		movs	r3, #0
 684:../../../../../../Middlewares/Third_Party/LoRaWAN/Mac/region/RegionUS915.c ****     {
 1235              		.loc 1 684 0
 1236 0022 0028     		cmp	r0, #0
 1237 0024 38D1     		bne	.L82
 687:../../../../../../Middlewares/Third_Party/LoRaWAN/Mac/region/RegionUS915.c ****     }
 688:../../../../../../Middlewares/Third_Party/LoRaWAN/Mac/region/RegionUS915.c **** 
 689:../../../../../../Middlewares/Third_Party/LoRaWAN/Mac/region/RegionUS915.c ****     if( rxConfig->RxSlot == RX_SLOT_WIN_1 )
 1238              		.loc 1 689 0
 1239 0026 E37C     		ldrb	r3, [r4, #19]
 1240 0028 002B     		cmp	r3, #0
 1241 002a 07D1     		bne	.L83
 690:../../../../../../Middlewares/Third_Party/LoRaWAN/Mac/region/RegionUS915.c ****     {
 691:../../../../../../Middlewares/Third_Party/LoRaWAN/Mac/region/RegionUS915.c ****         // Apply window 1 frequency
 692:../../../../../../Middlewares/Third_Party/LoRaWAN/Mac/region/RegionUS915.c ****         frequency = US915_FIRST_RX1_CHANNEL + ( rxConfig->Channel % 8 ) * US915_STEPWIDTH_RX1_CHANN
 1242              		.loc 1 692 0
 1243 002c 2278     		ldrb	r2, [r4]
 1244 002e 0733     		adds	r3, r3, #7
 1245 0030 1A40     		ands	r2, r3
 1246 0032 204B     		ldr	r3, .L88+4
 1247 0034 5343     		muls	r3, r2
 1248 0036 204A     		ldr	r2, .L88+8
 1249 0038 9046     		mov	r8, r2
 1250              	.LVL95:
 1251 003a 9844     		add	r8, r8, r3
 1252              	.LVL96:
 1253              	.L83:
 693:../../../../../../Middlewares/Third_Party/LoRaWAN/Mac/region/RegionUS915.c ****     }
 694:../../../../../../Middlewares/Third_Party/LoRaWAN/Mac/region/RegionUS915.c **** 
 695:../../../../../../Middlewares/Third_Party/LoRaWAN/Mac/region/RegionUS915.c ****     // Read the physical datarate from the datarates table
 696:../../../../../../Middlewares/Third_Party/LoRaWAN/Mac/region/RegionUS915.c ****     phyDr = DataratesUS915[dr];
 1254              		.loc 1 696 0
 1255 003c 4022     		movs	r2, #64
 1256 003e 1F4B     		ldr	r3, .L88+12
 697:../../../../../../Middlewares/Third_Party/LoRaWAN/Mac/region/RegionUS915.c **** 
 698:../../../../../../Middlewares/Third_Party/LoRaWAN/Mac/region/RegionUS915.c ****     Radio.SetChannel( frequency );
 1257              		.loc 1 698 0
 1258 0040 4046     		mov	r0, r8
 696:../../../../../../Middlewares/Third_Party/LoRaWAN/Mac/region/RegionUS915.c **** 
 1259              		.loc 1 696 0
 1260 0042 9B19     		adds	r3, r3, r6
 1261 0044 9B56     		ldrsb	r3, [r3, r2]
 1262 0046 9946     		mov	r9, r3
 1263              	.LVL97:
 1264              		.loc 1 698 0
 1265 0048 6B69     		ldr	r3, [r5, #20]
 1266 004a 0B93     		str	r3, [sp, #44]
 1267 004c 9847     		blx	r3
 1268              	.LVL98:
 699:../../../../../../Middlewares/Third_Party/LoRaWAN/Mac/region/RegionUS915.c **** 
 700:../../../../../../Middlewares/Third_Party/LoRaWAN/Mac/region/RegionUS915.c ****     // Radio configuration
 701:../../../../../../Middlewares/Third_Party/LoRaWAN/Mac/region/RegionUS915.c ****     Radio.SetRxConfig( MODEM_LORA, rxConfig->Bandwidth, phyDr, 1, 0, 8, rxConfig->WindowTimeout, fa
 1269              		.loc 1 701 0
 1270 004e A37C     		ldrb	r3, [r4, #18]
 1271 0050 2289     		ldrh	r2, [r4, #8]
ARM GAS  C:\Users\EBANO_~1\AppData\Local\Temp\ccFRmLE5.s 			page 38


 1272 0052 0993     		str	r3, [sp, #36]
 1273 0054 0123     		movs	r3, #1
 1274 0056 0893     		str	r3, [sp, #32]
 1275 0058 0023     		movs	r3, #0
 1276 005a 0292     		str	r2, [sp, #8]
 1277 005c 0822     		movs	r2, #8
 1278 005e 0793     		str	r3, [sp, #28]
 1279 0060 0693     		str	r3, [sp, #24]
 1280 0062 0593     		str	r3, [sp, #20]
 1281 0064 0493     		str	r3, [sp, #16]
 1282 0066 0393     		str	r3, [sp, #12]
 1283 0068 0093     		str	r3, [sp]
 1284 006a 2B6A     		ldr	r3, [r5, #32]
 1285 006c 0192     		str	r2, [sp, #4]
 1286 006e 0B93     		str	r3, [sp, #44]
 1287 0070 A178     		ldrb	r1, [r4, #2]
 1288 0072 0123     		movs	r3, #1
 1289 0074 4A46     		mov	r2, r9
 1290 0076 0120     		movs	r0, #1
 1291 0078 0B9F     		ldr	r7, [sp, #44]
 1292 007a B847     		blx	r7
 1293              	.LVL99:
 702:../../../../../../Middlewares/Third_Party/LoRaWAN/Mac/region/RegionUS915.c **** 
 703:../../../../../../Middlewares/Third_Party/LoRaWAN/Mac/region/RegionUS915.c ****     if( rxConfig->RepeaterSupport == true )
 1294              		.loc 1 703 0
 1295 007c 637C     		ldrb	r3, [r4, #17]
 1296 007e 002B     		cmp	r3, #0
 1297 0080 11D1     		bne	.L87
 704:../../../../../../Middlewares/Third_Party/LoRaWAN/Mac/region/RegionUS915.c ****     {
 705:../../../../../../Middlewares/Third_Party/LoRaWAN/Mac/region/RegionUS915.c ****         maxPayload = MaxPayloadOfDatarateRepeaterUS915[dr];
 706:../../../../../../Middlewares/Third_Party/LoRaWAN/Mac/region/RegionUS915.c ****     }
 707:../../../../../../Middlewares/Third_Party/LoRaWAN/Mac/region/RegionUS915.c ****     else
 708:../../../../../../Middlewares/Third_Party/LoRaWAN/Mac/region/RegionUS915.c ****     {
 709:../../../../../../Middlewares/Third_Party/LoRaWAN/Mac/region/RegionUS915.c ****         maxPayload = MaxPayloadOfDatarateUS915[dr];
 1298              		.loc 1 709 0
 1299 0082 0F4B     		ldr	r3, .L88+16
 1300 0084 995D     		ldrb	r1, [r3, r6]
 1301              	.LVL100:
 1302              	.L85:
 710:../../../../../../Middlewares/Third_Party/LoRaWAN/Mac/region/RegionUS915.c ****     }
 711:../../../../../../Middlewares/Third_Party/LoRaWAN/Mac/region/RegionUS915.c ****     Radio.SetMaxPayloadLength( MODEM_LORA, maxPayload + LORA_MAC_FRMPAYLOAD_OVERHEAD );
 1303              		.loc 1 711 0
 1304 0086 EB6D     		ldr	r3, [r5, #92]
 1305 0088 0D31     		adds	r1, r1, #13
 1306              	.LVL101:
 1307 008a C9B2     		uxtb	r1, r1
 1308 008c 0120     		movs	r0, #1
 1309 008e 0B93     		str	r3, [sp, #44]
 1310 0090 9847     		blx	r3
 1311              	.LVL102:
 712:../../../../../../Middlewares/Third_Party/LoRaWAN/Mac/region/RegionUS915.c ****     TVL1( PRINTF( "RX on freq %d Hz at DR %d\n\r", frequency, dr );)
 713:../../../../../../Middlewares/Third_Party/LoRaWAN/Mac/region/RegionUS915.c **** 
 714:../../../../../../Middlewares/Third_Party/LoRaWAN/Mac/region/RegionUS915.c ****     *datarate = (uint8_t) dr;
 1312              		.loc 1 714 0
 1313 0092 5346     		mov	r3, r10
 1314 0094 1E70     		strb	r6, [r3]
 715:../../../../../../Middlewares/Third_Party/LoRaWAN/Mac/region/RegionUS915.c ****     return true;
ARM GAS  C:\Users\EBANO_~1\AppData\Local\Temp\ccFRmLE5.s 			page 39


 1315              		.loc 1 715 0
 1316 0096 0123     		movs	r3, #1
 1317              	.LVL103:
 1318              	.L82:
 716:../../../../../../Middlewares/Third_Party/LoRaWAN/Mac/region/RegionUS915.c **** }
 1319              		.loc 1 716 0
 1320 0098 1800     		movs	r0, r3
 1321 009a 0CB0     		add	sp, sp, #48
 1322              		@ sp needed
 1323              	.LVL104:
 1324              	.LVL105:
 1325              	.LVL106:
 1326              	.LVL107:
 1327 009c 1CBC     		pop	{r2, r3, r4}
 1328 009e 9046     		mov	r8, r2
 1329 00a0 9946     		mov	r9, r3
 1330 00a2 A246     		mov	r10, r4
 1331 00a4 F0BD     		pop	{r4, r5, r6, r7, pc}
 1332              	.LVL108:
 1333              	.L87:
 705:../../../../../../Middlewares/Third_Party/LoRaWAN/Mac/region/RegionUS915.c ****     }
 1334              		.loc 1 705 0
 1335 00a6 064B     		ldr	r3, .L88+16
 1336 00a8 9B19     		adds	r3, r3, r6
 1337 00aa 197C     		ldrb	r1, [r3, #16]
 1338              	.LVL109:
 1339 00ac EBE7     		b	.L85
 1340              	.L89:
 1341 00ae C046     		.align	2
 1342              	.L88:
 1343 00b0 00000000 		.word	Radio
 1344 00b4 C0270900 		.word	600000
 1345 00b8 A0700837 		.word	923300000
 1346 00bc EC000000 		.word	.LANCHOR1
 1347 00c0 50010000 		.word	.LANCHOR0
 1348              		.cfi_endproc
 1349              	.LFE54:
 1350              		.size	RegionUS915RxConfig, .-RegionUS915RxConfig
 1351              		.section	.text.RegionUS915TxConfig,"ax",%progbits
 1352              		.align	1
 1353              		.p2align 2,,3
 1354              		.global	RegionUS915TxConfig
 1355              		.syntax unified
 1356              		.code	16
 1357              		.thumb_func
 1358              		.fpu softvfp
 1359              		.type	RegionUS915TxConfig, %function
 1360              	RegionUS915TxConfig:
 1361              	.LFB55:
 717:../../../../../../Middlewares/Third_Party/LoRaWAN/Mac/region/RegionUS915.c **** 
 718:../../../../../../Middlewares/Third_Party/LoRaWAN/Mac/region/RegionUS915.c **** bool RegionUS915TxConfig( TxConfigParams_t* txConfig, int8_t* txPower, TimerTime_t* txTimeOnAir )
 719:../../../../../../Middlewares/Third_Party/LoRaWAN/Mac/region/RegionUS915.c **** {
 1362              		.loc 1 719 0
 1363              		.cfi_startproc
 1364              		@ args = 0, pretend = 0, frame = 8
 1365              		@ frame_needed = 0, uses_anonymous_args = 0
 1366              	.LVL110:
ARM GAS  C:\Users\EBANO_~1\AppData\Local\Temp\ccFRmLE5.s 			page 40


 1367 0000 F0B5     		push	{r4, r5, r6, r7, lr}
 1368              	.LCFI14:
 1369              		.cfi_def_cfa_offset 20
 1370              		.cfi_offset 4, -20
 1371              		.cfi_offset 5, -16
 1372              		.cfi_offset 6, -12
 1373              		.cfi_offset 7, -8
 1374              		.cfi_offset 14, -4
 1375 0002 5746     		mov	r7, r10
 1376 0004 4546     		mov	r5, r8
 1377 0006 4E46     		mov	r6, r9
 1378 0008 DE46     		mov	lr, fp
 720:../../../../../../Middlewares/Third_Party/LoRaWAN/Mac/region/RegionUS915.c ****     int8_t phyDr = DataratesUS915[txConfig->Datarate];
 1379              		.loc 1 720 0
 1380 000a 0123     		movs	r3, #1
 719:../../../../../../Middlewares/Third_Party/LoRaWAN/Mac/region/RegionUS915.c ****     int8_t phyDr = DataratesUS915[txConfig->Datarate];
 1381              		.loc 1 719 0
 1382 000c 9146     		mov	r9, r2
 1383              		.loc 1 720 0
 1384 000e 4022     		movs	r2, #64
 1385              	.LVL111:
 719:../../../../../../Middlewares/Third_Party/LoRaWAN/Mac/region/RegionUS915.c ****     int8_t phyDr = DataratesUS915[txConfig->Datarate];
 1386              		.loc 1 719 0
 1387 0010 E0B5     		push	{r5, r6, r7, lr}
 1388              	.LCFI15:
 1389              		.cfi_def_cfa_offset 36
 1390              		.cfi_offset 8, -36
 1391              		.cfi_offset 9, -32
 1392              		.cfi_offset 10, -28
 1393              		.cfi_offset 11, -24
 721:../../../../../../Middlewares/Third_Party/LoRaWAN/Mac/region/RegionUS915.c ****     int8_t txPowerLimited = LimitTxPower( txConfig->TxPower, NvmCtx.Bands[NvmCtx.Channels[txConfig-
 1394              		.loc 1 721 0
 1395 0012 0225     		movs	r5, #2
 720:../../../../../../Middlewares/Third_Party/LoRaWAN/Mac/region/RegionUS915.c ****     int8_t phyDr = DataratesUS915[txConfig->Datarate];
 1396              		.loc 1 720 0
 1397 0014 C356     		ldrsb	r3, [r0, r3]
 1398 0016 3E4F     		ldr	r7, .L104
 719:../../../../../../Middlewares/Third_Party/LoRaWAN/Mac/region/RegionUS915.c ****     int8_t phyDr = DataratesUS915[txConfig->Datarate];
 1399              		.loc 1 719 0
 1400 0018 8846     		mov	r8, r1
 720:../../../../../../Middlewares/Third_Party/LoRaWAN/Mac/region/RegionUS915.c ****     int8_t phyDr = DataratesUS915[txConfig->Datarate];
 1401              		.loc 1 720 0
 1402 001a F918     		adds	r1, r7, r3
 1403              	.LVL112:
 1404 001c 8A56     		ldrsb	r2, [r1, r2]
 719:../../../../../../Middlewares/Third_Party/LoRaWAN/Mac/region/RegionUS915.c ****     int8_t phyDr = DataratesUS915[txConfig->Datarate];
 1405              		.loc 1 719 0
 1406 001e 8DB0     		sub	sp, sp, #52
 1407              	.LCFI16:
 1408              		.cfi_def_cfa_offset 88
 719:../../../../../../Middlewares/Third_Party/LoRaWAN/Mac/region/RegionUS915.c ****     int8_t phyDr = DataratesUS915[txConfig->Datarate];
 1409              		.loc 1 719 0
 1410 0020 0400     		movs	r4, r0
 720:../../../../../../Middlewares/Third_Party/LoRaWAN/Mac/region/RegionUS915.c ****     int8_t phyDr = DataratesUS915[txConfig->Datarate];
 1411              		.loc 1 720 0
 1412 0022 9246     		mov	r10, r2
 1413              	.LVL113:
ARM GAS  C:\Users\EBANO_~1\AppData\Local\Temp\ccFRmLE5.s 			page 41


 1414              		.loc 1 721 0
 1415 0024 4557     		ldrsb	r5, [r0, r5]
 1416              	.LVL114:
 1417              	.LBB37:
 1418              	.LBB38:
 220:../../../../../../Middlewares/Third_Party/LoRaWAN/Mac/region/RegionUS915.c ****     {// Limit tx power to max 26dBm
 1419              		.loc 1 220 0
 1420 0026 042B     		cmp	r3, #4
 1421 0028 40D1     		bne	.L91
 222:../../../../../../Middlewares/Third_Party/LoRaWAN/Mac/region/RegionUS915.c ****     }
 1422              		.loc 1 222 0
 1423 002a 2B1C     		adds	r3, r5, #0
 1424              	.LVL115:
 1425 002c 022D     		cmp	r5, #2
 1426 002e 68DB     		blt	.L102
 1427 0030 384E     		ldr	r6, .L104+4
 1428 0032 5DB2     		sxtb	r5, r3
 1429              	.LVL116:
 1430              	.L93:
 1431              	.LBE38:
 1432              	.LBE37:
 1433              	.LBB43:
 1434              	.LBB44:
 209:../../../../../../Middlewares/Third_Party/LoRaWAN/Mac/region/RegionUS915.c ****     }
 1435              		.loc 1 209 0
 1436 0034 0227     		movs	r7, #2
 1437              	.L98:
 1438              	.LVL117:
 1439              	.LBE44:
 1440              	.LBE43:
 722:../../../../../../Middlewares/Third_Party/LoRaWAN/Mac/region/RegionUS915.c ****     uint32_t bandwidth = GetBandwidth( txConfig->Datarate );
 723:../../../../../../Middlewares/Third_Party/LoRaWAN/Mac/region/RegionUS915.c ****     int8_t phyTxPower = 0;
 724:../../../../../../Middlewares/Third_Party/LoRaWAN/Mac/region/RegionUS915.c **** 
 725:../../../../../../Middlewares/Third_Party/LoRaWAN/Mac/region/RegionUS915.c ****     // Calculate physical TX power
 726:../../../../../../Middlewares/Third_Party/LoRaWAN/Mac/region/RegionUS915.c ****     phyTxPower = RegionCommonComputeTxPower( txPowerLimited, US915_DEFAULT_MAX_ERP, 0 );
 1441              		.loc 1 726 0
 1442 0036 3849     		ldr	r1, .L104+8
 1443 0038 0022     		movs	r2, #0
 1444 003a 2800     		movs	r0, r5
 1445 003c FFF7FEFF 		bl	RegionCommonComputeTxPower
 1446              	.LVL118:
 727:../../../../../../Middlewares/Third_Party/LoRaWAN/Mac/region/RegionUS915.c **** 
 728:../../../../../../Middlewares/Third_Party/LoRaWAN/Mac/region/RegionUS915.c ****     // Setup the radio frequency
 729:../../../../../../Middlewares/Third_Party/LoRaWAN/Mac/region/RegionUS915.c ****     Radio.SetChannel( NvmCtx.Channels[txConfig->Channel].Frequency );
 1447              		.loc 1 729 0
 1448 0040 2278     		ldrb	r2, [r4]
 726:../../../../../../Middlewares/Third_Party/LoRaWAN/Mac/region/RegionUS915.c **** 
 1449              		.loc 1 726 0
 1450 0042 8346     		mov	fp, r0
 1451              	.LVL119:
 1452              		.loc 1 729 0
 1453 0044 5300     		lsls	r3, r2, #1
 1454 0046 9B18     		adds	r3, r3, r2
 1455 0048 9B00     		lsls	r3, r3, #2
 1456 004a F058     		ldr	r0, [r6, r3]
 1457 004c 334E     		ldr	r6, .L104+12
 1458 004e 7369     		ldr	r3, [r6, #20]
ARM GAS  C:\Users\EBANO_~1\AppData\Local\Temp\ccFRmLE5.s 			page 42


 1459 0050 0B93     		str	r3, [sp, #44]
 1460 0052 9847     		blx	r3
 1461              	.LVL120:
 730:../../../../../../Middlewares/Third_Party/LoRaWAN/Mac/region/RegionUS915.c **** 
 731:../../../../../../Middlewares/Third_Party/LoRaWAN/Mac/region/RegionUS915.c ****     Radio.SetTxConfig( MODEM_LORA, phyTxPower, 0, bandwidth, phyDr, 1, 8, false, true, 0, 0, false,
 1462              		.loc 1 731 0
 1463 0054 324B     		ldr	r3, .L104+16
 1464 0056 0122     		movs	r2, #1
 1465 0058 0893     		str	r3, [sp, #32]
 1466 005a 0023     		movs	r3, #0
 1467 005c 0793     		str	r3, [sp, #28]
 1468 005e 0693     		str	r3, [sp, #24]
 1469 0060 0593     		str	r3, [sp, #20]
 1470 0062 0393     		str	r3, [sp, #12]
 1471 0064 0833     		adds	r3, r3, #8
 1472 0066 0293     		str	r3, [sp, #8]
 1473 0068 5346     		mov	r3, r10
 1474 006a 0093     		str	r3, [sp]
 1475 006c 736A     		ldr	r3, [r6, #36]
 1476 006e 0492     		str	r2, [sp, #16]
 1477 0070 0B93     		str	r3, [sp, #44]
 1478 0072 0192     		str	r2, [sp, #4]
 1479 0074 3B00     		movs	r3, r7
 1480 0076 0022     		movs	r2, #0
 1481 0078 5946     		mov	r1, fp
 1482 007a 0120     		movs	r0, #1
 1483 007c 0B9F     		ldr	r7, [sp, #44]
 1484 007e B847     		blx	r7
 1485              	.LVL121:
 732:../../../../../../Middlewares/Third_Party/LoRaWAN/Mac/region/RegionUS915.c ****     TVL1( PRINTF( "TX on freq %d Hz at DR %d\n\r", NvmCtx.Channels[txConfig->Channel].Frequency, tx
 733:../../../../../../Middlewares/Third_Party/LoRaWAN/Mac/region/RegionUS915.c **** 
 734:../../../../../../Middlewares/Third_Party/LoRaWAN/Mac/region/RegionUS915.c ****     // Setup maximum payload lenght of the radio driver
 735:../../../../../../Middlewares/Third_Party/LoRaWAN/Mac/region/RegionUS915.c ****     Radio.SetMaxPayloadLength( MODEM_LORA, txConfig->PktLen );
 1486              		.loc 1 735 0
 1487 0080 F36D     		ldr	r3, [r6, #92]
 1488 0082 217B     		ldrb	r1, [r4, #12]
 1489 0084 0120     		movs	r0, #1
 1490 0086 0B93     		str	r3, [sp, #44]
 1491 0088 9847     		blx	r3
 1492              	.LVL122:
 736:../../../../../../Middlewares/Third_Party/LoRaWAN/Mac/region/RegionUS915.c ****     // Get the time-on-air of the next tx frame
 737:../../../../../../Middlewares/Third_Party/LoRaWAN/Mac/region/RegionUS915.c ****     *txTimeOnAir = Radio.TimeOnAir( MODEM_LORA, txConfig->PktLen );
 1493              		.loc 1 737 0
 1494 008a F36A     		ldr	r3, [r6, #44]
 1495 008c 217B     		ldrb	r1, [r4, #12]
 1496 008e 0120     		movs	r0, #1
 1497 0090 0B93     		str	r3, [sp, #44]
 1498 0092 9847     		blx	r3
 1499              	.LVL123:
 1500 0094 4B46     		mov	r3, r9
 1501 0096 1860     		str	r0, [r3]
 738:../../../../../../Middlewares/Third_Party/LoRaWAN/Mac/region/RegionUS915.c ****     *txPower = txPowerLimited;
 1502              		.loc 1 738 0
 1503 0098 4346     		mov	r3, r8
 739:../../../../../../Middlewares/Third_Party/LoRaWAN/Mac/region/RegionUS915.c **** 
 740:../../../../../../Middlewares/Third_Party/LoRaWAN/Mac/region/RegionUS915.c ****     return true;
 741:../../../../../../Middlewares/Third_Party/LoRaWAN/Mac/region/RegionUS915.c **** }
ARM GAS  C:\Users\EBANO_~1\AppData\Local\Temp\ccFRmLE5.s 			page 43


 1504              		.loc 1 741 0
 1505 009a 0120     		movs	r0, #1
 738:../../../../../../Middlewares/Third_Party/LoRaWAN/Mac/region/RegionUS915.c ****     *txPower = txPowerLimited;
 1506              		.loc 1 738 0
 1507 009c 1D70     		strb	r5, [r3]
 1508              		.loc 1 741 0
 1509 009e 0DB0     		add	sp, sp, #52
 1510              		@ sp needed
 1511              	.LVL124:
 1512              	.LVL125:
 1513              	.LVL126:
 1514              	.LVL127:
 1515              	.LVL128:
 1516 00a0 3CBC     		pop	{r2, r3, r4, r5}
 1517 00a2 9046     		mov	r8, r2
 1518 00a4 9946     		mov	r9, r3
 1519 00a6 A246     		mov	r10, r4
 1520 00a8 AB46     		mov	fp, r5
 1521 00aa F0BD     		pop	{r4, r5, r6, r7, pc}
 1522              	.LVL129:
 1523              	.L91:
 721:../../../../../../Middlewares/Third_Party/LoRaWAN/Mac/region/RegionUS915.c ****     uint32_t bandwidth = GetBandwidth( txConfig->Datarate );
 1524              		.loc 1 721 0
 1525 00ac 0278     		ldrb	r2, [r0]
 1526 00ae 194E     		ldr	r6, .L104+4
 1527 00b0 5300     		lsls	r3, r2, #1
 1528              	.LVL130:
 1529 00b2 9B18     		adds	r3, r3, r2
 1530 00b4 9B00     		lsls	r3, r3, #2
 1531 00b6 F318     		adds	r3, r6, r3
 1532 00b8 5B7A     		ldrb	r3, [r3, #9]
 1533              	.LBB46:
 1534              	.LBB39:
 226:../../../../../../Middlewares/Third_Party/LoRaWAN/Mac/region/RegionUS915.c ****         {// Limit tx power to max 21dBm
 1535              		.loc 1 226 0
 1536 00ba 0422     		movs	r2, #4
 1537              	.LBE39:
 1538              	.LBE46:
 721:../../../../../../Middlewares/Third_Party/LoRaWAN/Mac/region/RegionUS915.c ****     uint32_t bandwidth = GetBandwidth( txConfig->Datarate );
 1539              		.loc 1 721 0
 1540 00bc 3633     		adds	r3, r3, #54
 1541 00be 1B01     		lsls	r3, r3, #4
 1542 00c0 F318     		adds	r3, r6, r3
 1543 00c2 9B78     		ldrb	r3, [r3, #2]
 1544              	.LBB47:
 1545              	.LBB40:
 226:../../../../../../Middlewares/Third_Party/LoRaWAN/Mac/region/RegionUS915.c ****         {// Limit tx power to max 21dBm
 1546              		.loc 1 226 0
 1547 00c4 0021     		movs	r1, #0
 1548              	.LBE40:
 1549              	.LBE47:
 721:../../../../../../Middlewares/Third_Party/LoRaWAN/Mac/region/RegionUS915.c ****     uint32_t bandwidth = GetBandwidth( txConfig->Datarate );
 1550              		.loc 1 721 0
 1551 00c6 5BB2     		sxtb	r3, r3
 1552 00c8 9B46     		mov	fp, r3
 1553              	.LBB48:
 1554              	.LBB41:
ARM GAS  C:\Users\EBANO_~1\AppData\Local\Temp\ccFRmLE5.s 			page 44


 226:../../../../../../Middlewares/Third_Party/LoRaWAN/Mac/region/RegionUS915.c ****         {// Limit tx power to max 21dBm
 1555              		.loc 1 226 0
 1556 00ca DC23     		movs	r3, #220
 1557 00cc 9B00     		lsls	r3, r3, #2
 1558 00ce F018     		adds	r0, r6, r3
 1559              	.LVL131:
 1560 00d0 FFF7FEFF 		bl	RegionCommonCountChannels
 1561              	.LVL132:
 228:../../../../../../Middlewares/Third_Party/LoRaWAN/Mac/region/RegionUS915.c ****         }
 1562              		.loc 1 228 0
 1563 00d4 2B1C     		adds	r3, r5, #0
 226:../../../../../../Middlewares/Third_Party/LoRaWAN/Mac/region/RegionUS915.c ****         {// Limit tx power to max 21dBm
 1564              		.loc 1 226 0
 1565 00d6 3128     		cmp	r0, #49
 1566 00d8 0FD9     		bls	.L94
 1567              	.LVL133:
 218:../../../../../../Middlewares/Third_Party/LoRaWAN/Mac/region/RegionUS915.c **** 
 1568              		.loc 1 218 0
 1569 00da 5D45     		cmp	r5, fp
 1570 00dc 15DB     		blt	.L103
 1571              	.LVL134:
 1572              	.L97:
 228:../../../../../../Middlewares/Third_Party/LoRaWAN/Mac/region/RegionUS915.c ****         }
 1573              		.loc 1 228 0
 1574 00de 5DB2     		sxtb	r5, r3
 1575              	.LVL135:
 1576              	.LBE41:
 1577              	.LBE48:
 722:../../../../../../Middlewares/Third_Party/LoRaWAN/Mac/region/RegionUS915.c ****     int8_t phyTxPower = 0;
 1578              		.loc 1 722 0
 1579 00e0 0123     		movs	r3, #1
 1580 00e2 E356     		ldrsb	r3, [r4, r3]
 1581              	.LVL136:
 1582              	.LBB49:
 1583              	.LBB45:
 201:../../../../../../Middlewares/Third_Party/LoRaWAN/Mac/region/RegionUS915.c ****     {
 1584              		.loc 1 201 0
 1585 00e4 0F4A     		ldr	r2, .L104+20
 1586 00e6 9B00     		lsls	r3, r3, #2
 1587              	.LVL137:
 1588 00e8 FB58     		ldr	r3, [r7, r3]
 207:../../../../../../Middlewares/Third_Party/LoRaWAN/Mac/region/RegionUS915.c ****         case 500000:
 1589              		.loc 1 207 0
 1590 00ea 0127     		movs	r7, #1
 201:../../../../../../Middlewares/Third_Party/LoRaWAN/Mac/region/RegionUS915.c ****     {
 1591              		.loc 1 201 0
 1592 00ec 9342     		cmp	r3, r2
 1593 00ee A2D0     		beq	.L98
 1594 00f0 0D4A     		ldr	r2, .L104+24
 205:../../../../../../Middlewares/Third_Party/LoRaWAN/Mac/region/RegionUS915.c ****         case 250000:
 1595              		.loc 1 205 0
 1596 00f2 0027     		movs	r7, #0
 201:../../../../../../Middlewares/Third_Party/LoRaWAN/Mac/region/RegionUS915.c ****     {
 1597              		.loc 1 201 0
 1598 00f4 9342     		cmp	r3, r2
 1599 00f6 9ED1     		bne	.L98
 1600 00f8 9CE7     		b	.L93
ARM GAS  C:\Users\EBANO_~1\AppData\Local\Temp\ccFRmLE5.s 			page 45


 1601              	.LVL138:
 1602              	.L94:
 1603              	.LBE45:
 1604              	.LBE49:
 1605              	.LBB50:
 1606              	.LBB42:
 228:../../../../../../Middlewares/Third_Party/LoRaWAN/Mac/region/RegionUS915.c ****         }
 1607              		.loc 1 228 0
 1608 00fa 052D     		cmp	r5, #5
 1609 00fc EFDA     		bge	.L97
 1610 00fe 0523     		movs	r3, #5
 1611              	.LVL139:
 1612 0100 EDE7     		b	.L97
 1613              	.LVL140:
 1614              	.L102:
 222:../../../../../../Middlewares/Third_Party/LoRaWAN/Mac/region/RegionUS915.c ****     }
 1615              		.loc 1 222 0
 1616 0102 0223     		movs	r3, #2
 1617              	.LVL141:
 1618 0104 034E     		ldr	r6, .L104+4
 1619 0106 5DB2     		sxtb	r5, r3
 1620              	.LVL142:
 1621 0108 94E7     		b	.L93
 1622              	.LVL143:
 1623              	.L103:
 218:../../../../../../Middlewares/Third_Party/LoRaWAN/Mac/region/RegionUS915.c **** 
 1624              		.loc 1 218 0
 1625 010a 5B46     		mov	r3, fp
 1626              	.LVL144:
 1627 010c E7E7     		b	.L97
 1628              	.L105:
 1629 010e C046     		.align	2
 1630              	.L104:
 1631 0110 EC000000 		.word	.LANCHOR1
 1632 0114 00000000 		.word	NvmCtx
 1633 0118 0000F041 		.word	1106247680
 1634 011c 00000000 		.word	Radio
 1635 0120 B80B0000 		.word	3000
 1636 0124 90D00300 		.word	250000
 1637 0128 20A10700 		.word	500000
 1638              	.LBE42:
 1639              	.LBE50:
 1640              		.cfi_endproc
 1641              	.LFE55:
 1642              		.size	RegionUS915TxConfig, .-RegionUS915TxConfig
 1643              		.section	.text.RegionUS915LinkAdrReq,"ax",%progbits
 1644              		.align	1
 1645              		.p2align 2,,3
 1646              		.global	RegionUS915LinkAdrReq
 1647              		.syntax unified
 1648              		.code	16
 1649              		.thumb_func
 1650              		.fpu softvfp
 1651              		.type	RegionUS915LinkAdrReq, %function
 1652              	RegionUS915LinkAdrReq:
 1653              	.LFB56:
 742:../../../../../../Middlewares/Third_Party/LoRaWAN/Mac/region/RegionUS915.c **** 
ARM GAS  C:\Users\EBANO_~1\AppData\Local\Temp\ccFRmLE5.s 			page 46


 743:../../../../../../Middlewares/Third_Party/LoRaWAN/Mac/region/RegionUS915.c **** uint8_t RegionUS915LinkAdrReq( LinkAdrReqParams_t* linkAdrReq, int8_t* drOut, int8_t* txPowOut, uin
 744:../../../../../../Middlewares/Third_Party/LoRaWAN/Mac/region/RegionUS915.c **** {
 1654              		.loc 1 744 0
 1655              		.cfi_startproc
 1656              		@ args = 4, pretend = 0, frame = 56
 1657              		@ frame_needed = 0, uses_anonymous_args = 0
 1658              	.LVL145:
 1659 0000 F0B5     		push	{r4, r5, r6, r7, lr}
 1660              	.LCFI17:
 1661              		.cfi_def_cfa_offset 20
 1662              		.cfi_offset 4, -20
 1663              		.cfi_offset 5, -16
 1664              		.cfi_offset 6, -12
 1665              		.cfi_offset 7, -8
 1666              		.cfi_offset 14, -4
 1667 0002 DE46     		mov	lr, fp
 1668 0004 5746     		mov	r7, r10
 1669 0006 4E46     		mov	r6, r9
 1670 0008 4546     		mov	r5, r8
 1671 000a E0B5     		push	{r5, r6, r7, lr}
 1672              	.LCFI18:
 1673              		.cfi_def_cfa_offset 36
 1674              		.cfi_offset 8, -36
 1675              		.cfi_offset 9, -32
 1676              		.cfi_offset 10, -28
 1677              		.cfi_offset 11, -24
 1678 000c 8FB0     		sub	sp, sp, #60
 1679              	.LCFI19:
 1680              		.cfi_def_cfa_offset 96
 745:../../../../../../Middlewares/Third_Party/LoRaWAN/Mac/region/RegionUS915.c ****     uint8_t status = 0x07;
 746:../../../../../../Middlewares/Third_Party/LoRaWAN/Mac/region/RegionUS915.c ****     RegionCommonLinkAdrParams_t linkAdrParams;
 747:../../../../../../Middlewares/Third_Party/LoRaWAN/Mac/region/RegionUS915.c ****     uint8_t nextIndex = 0;
 748:../../../../../../Middlewares/Third_Party/LoRaWAN/Mac/region/RegionUS915.c ****     uint8_t bytesProcessed = 0;
 749:../../../../../../Middlewares/Third_Party/LoRaWAN/Mac/region/RegionUS915.c ****     uint16_t channelsMask[6] = { 0, 0, 0, 0, 0, 0 };
 1681              		.loc 1 749 0
 1682 000e 03AF     		add	r7, sp, #12
 744:../../../../../../Middlewares/Third_Party/LoRaWAN/Mac/region/RegionUS915.c ****     uint8_t status = 0x07;
 1683              		.loc 1 744 0
 1684 0010 0600     		movs	r6, r0
 1685 0012 8A46     		mov	r10, r1
 1686 0014 9146     		mov	r9, r2
 1687              		.loc 1 749 0
 1688 0016 0021     		movs	r1, #0
 1689              	.LVL146:
 1690 0018 0C22     		movs	r2, #12
 1691              	.LVL147:
 1692 001a 3800     		movs	r0, r7
 1693              	.LVL148:
 744:../../../../../../Middlewares/Third_Party/LoRaWAN/Mac/region/RegionUS915.c ****     uint8_t status = 0x07;
 1694              		.loc 1 744 0
 1695 001c 9846     		mov	r8, r3
 1696              		.loc 1 749 0
 1697 001e FFF7FEFF 		bl	memset
 1698              	.LVL149:
 750:../../../../../../Middlewares/Third_Party/LoRaWAN/Mac/region/RegionUS915.c ****     GetPhyParams_t getPhy;
 751:../../../../../../Middlewares/Third_Party/LoRaWAN/Mac/region/RegionUS915.c ****     PhyParam_t phyParam;
 752:../../../../../../Middlewares/Third_Party/LoRaWAN/Mac/region/RegionUS915.c ****     RegionCommonLinkAdrReqVerifyParams_t linkAdrVerifyParams;
ARM GAS  C:\Users\EBANO_~1\AppData\Local\Temp\ccFRmLE5.s 			page 47


 753:../../../../../../Middlewares/Third_Party/LoRaWAN/Mac/region/RegionUS915.c **** 
 754:../../../../../../Middlewares/Third_Party/LoRaWAN/Mac/region/RegionUS915.c ****     // Initialize local copy of channels mask
 755:../../../../../../Middlewares/Third_Party/LoRaWAN/Mac/region/RegionUS915.c ****     RegionCommonChanMaskCopy( channelsMask, NvmCtx.ChannelsMask, 6 );
 1699              		.loc 1 755 0
 1700 0022 0622     		movs	r2, #6
 1701 0024 A149     		ldr	r1, .L146
 1702 0026 3800     		movs	r0, r7
 1703 0028 FFF7FEFF 		bl	RegionCommonChanMaskCopy
 1704              	.LVL150:
 1705              	.LBB57:
 1706              	.LBB58:
 756:../../../../../../Middlewares/Third_Party/LoRaWAN/Mac/region/RegionUS915.c **** 
 757:../../../../../../Middlewares/Third_Party/LoRaWAN/Mac/region/RegionUS915.c ****     while( bytesProcessed < linkAdrReq->PayloadSize )
 758:../../../../../../Middlewares/Third_Party/LoRaWAN/Mac/region/RegionUS915.c ****     {
 759:../../../../../../Middlewares/Third_Party/LoRaWAN/Mac/region/RegionUS915.c ****         nextIndex = RegionCommonParseLinkAdrReq( &( linkAdrReq->Payload[bytesProcessed] ), &linkAdr
 760:../../../../../../Middlewares/Third_Party/LoRaWAN/Mac/region/RegionUS915.c **** 
 761:../../../../../../Middlewares/Third_Party/LoRaWAN/Mac/region/RegionUS915.c ****         if( nextIndex == 0 )
 762:../../../../../../Middlewares/Third_Party/LoRaWAN/Mac/region/RegionUS915.c ****             break; // break loop, since no more request has been found
 763:../../../../../../Middlewares/Third_Party/LoRaWAN/Mac/region/RegionUS915.c **** 
 764:../../../../../../Middlewares/Third_Party/LoRaWAN/Mac/region/RegionUS915.c ****         // Update bytes processed
 765:../../../../../../Middlewares/Third_Party/LoRaWAN/Mac/region/RegionUS915.c ****         bytesProcessed += nextIndex;
 766:../../../../../../Middlewares/Third_Party/LoRaWAN/Mac/region/RegionUS915.c **** 
 767:../../../../../../Middlewares/Third_Party/LoRaWAN/Mac/region/RegionUS915.c ****         // Revert status, as we only check the last ADR request for the channel mask KO
 768:../../../../../../Middlewares/Third_Party/LoRaWAN/Mac/region/RegionUS915.c ****         status = 0x07;
 769:../../../../../../Middlewares/Third_Party/LoRaWAN/Mac/region/RegionUS915.c **** 
 770:../../../../../../Middlewares/Third_Party/LoRaWAN/Mac/region/RegionUS915.c ****         if( linkAdrParams.ChMaskCtrl == 6 )
 771:../../../../../../Middlewares/Third_Party/LoRaWAN/Mac/region/RegionUS915.c ****         {
 772:../../../../../../Middlewares/Third_Party/LoRaWAN/Mac/region/RegionUS915.c ****             // Enable all 125 kHz channels
 773:../../../../../../Middlewares/Third_Party/LoRaWAN/Mac/region/RegionUS915.c ****             channelsMask[0] = 0xFFFF;
 774:../../../../../../Middlewares/Third_Party/LoRaWAN/Mac/region/RegionUS915.c ****             channelsMask[1] = 0xFFFF;
 775:../../../../../../Middlewares/Third_Party/LoRaWAN/Mac/region/RegionUS915.c ****             channelsMask[2] = 0xFFFF;
 776:../../../../../../Middlewares/Third_Party/LoRaWAN/Mac/region/RegionUS915.c ****             channelsMask[3] = 0xFFFF;
 777:../../../../../../Middlewares/Third_Party/LoRaWAN/Mac/region/RegionUS915.c ****             // Apply chMask to channels 64 to 71
 778:../../../../../../Middlewares/Third_Party/LoRaWAN/Mac/region/RegionUS915.c ****             channelsMask[4] = linkAdrParams.ChMask & CHANNELS_MASK_500KHZ_MASK;
 779:../../../../../../Middlewares/Third_Party/LoRaWAN/Mac/region/RegionUS915.c ****         }
 780:../../../../../../Middlewares/Third_Party/LoRaWAN/Mac/region/RegionUS915.c ****         else if( linkAdrParams.ChMaskCtrl == 7 )
 781:../../../../../../Middlewares/Third_Party/LoRaWAN/Mac/region/RegionUS915.c ****         {
 782:../../../../../../Middlewares/Third_Party/LoRaWAN/Mac/region/RegionUS915.c ****             // Disable all 125 kHz channels
 783:../../../../../../Middlewares/Third_Party/LoRaWAN/Mac/region/RegionUS915.c ****             channelsMask[0] = 0x0000;
 784:../../../../../../Middlewares/Third_Party/LoRaWAN/Mac/region/RegionUS915.c ****             channelsMask[1] = 0x0000;
 785:../../../../../../Middlewares/Third_Party/LoRaWAN/Mac/region/RegionUS915.c ****             channelsMask[2] = 0x0000;
 786:../../../../../../Middlewares/Third_Party/LoRaWAN/Mac/region/RegionUS915.c ****             channelsMask[3] = 0x0000;
 787:../../../../../../Middlewares/Third_Party/LoRaWAN/Mac/region/RegionUS915.c ****             // Apply chMask to channels 64 to 71
 788:../../../../../../Middlewares/Third_Party/LoRaWAN/Mac/region/RegionUS915.c ****             channelsMask[4] = linkAdrParams.ChMask & CHANNELS_MASK_500KHZ_MASK;
 789:../../../../../../Middlewares/Third_Party/LoRaWAN/Mac/region/RegionUS915.c ****         }
 790:../../../../../../Middlewares/Third_Party/LoRaWAN/Mac/region/RegionUS915.c ****         else if( linkAdrParams.ChMaskCtrl == 5 )
 791:../../../../../../Middlewares/Third_Party/LoRaWAN/Mac/region/RegionUS915.c ****         {
 792:../../../../../../Middlewares/Third_Party/LoRaWAN/Mac/region/RegionUS915.c ****             // Start value for comparision
 793:../../../../../../Middlewares/Third_Party/LoRaWAN/Mac/region/RegionUS915.c ****             uint8_t bitMask = 1;
 794:../../../../../../Middlewares/Third_Party/LoRaWAN/Mac/region/RegionUS915.c **** 
 795:../../../../../../Middlewares/Third_Party/LoRaWAN/Mac/region/RegionUS915.c ****             // cntChannelMask for channelsMask[0] until channelsMask[3]
 796:../../../../../../Middlewares/Third_Party/LoRaWAN/Mac/region/RegionUS915.c ****             uint8_t cntChannelMask = 0;
 797:../../../../../../Middlewares/Third_Party/LoRaWAN/Mac/region/RegionUS915.c **** 
 798:../../../../../../Middlewares/Third_Party/LoRaWAN/Mac/region/RegionUS915.c ****             // i will be 1, 2, 3, ..., 7
 799:../../../../../../Middlewares/Third_Party/LoRaWAN/Mac/region/RegionUS915.c ****             for( uint8_t i = 0; i <= 7; i++ )
 800:../../../../../../Middlewares/Third_Party/LoRaWAN/Mac/region/RegionUS915.c ****             {
 801:../../../../../../Middlewares/Third_Party/LoRaWAN/Mac/region/RegionUS915.c ****                 // 8 MSBs of ChMask are RFU
ARM GAS  C:\Users\EBANO_~1\AppData\Local\Temp\ccFRmLE5.s 			page 48


 802:../../../../../../Middlewares/Third_Party/LoRaWAN/Mac/region/RegionUS915.c ****                 // Checking if the ChMask is set, then true
 803:../../../../../../Middlewares/Third_Party/LoRaWAN/Mac/region/RegionUS915.c ****                 if( ( ( linkAdrParams.ChMask & 0x00FF ) & ( bitMask << i ) ) != 0 )
 1707              		.loc 1 803 0
 1708 002c 0123     		movs	r3, #1
 1709              	.LBE58:
 1710              	.LBE57:
 748:../../../../../../Middlewares/Third_Party/LoRaWAN/Mac/region/RegionUS915.c ****     uint16_t channelsMask[6] = { 0, 0, 0, 0, 0, 0 };
 1711              		.loc 1 748 0
 1712 002e 0024     		movs	r4, #0
 1713              	.LBB62:
 1714              	.LBB59:
 1715              		.loc 1 803 0
 1716 0030 9B46     		mov	fp, r3
 1717 0032 01AD     		add	r5, sp, #4
 1718              	.LVL151:
 1719              	.L107:
 1720              	.LBE59:
 1721              	.LBE62:
 757:../../../../../../Middlewares/Third_Party/LoRaWAN/Mac/region/RegionUS915.c ****     {
 1722              		.loc 1 757 0
 1723 0034 337A     		ldrb	r3, [r6, #8]
 1724 0036 A342     		cmp	r3, r4
 1725 0038 15D9     		bls	.L131
 1726              	.L130:
 759:../../../../../../Middlewares/Third_Party/LoRaWAN/Mac/region/RegionUS915.c **** 
 1727              		.loc 1 759 0
 1728 003a 7368     		ldr	r3, [r6, #4]
 1729 003c 2900     		movs	r1, r5
 1730 003e 1819     		adds	r0, r3, r4
 1731 0040 FFF7FEFF 		bl	RegionCommonParseLinkAdrReq
 1732              	.LVL152:
 761:../../../../../../Middlewares/Third_Party/LoRaWAN/Mac/region/RegionUS915.c ****             break; // break loop, since no more request has been found
 1733              		.loc 1 761 0
 1734 0044 0028     		cmp	r0, #0
 1735 0046 0ED0     		beq	.L131
 770:../../../../../../Middlewares/Third_Party/LoRaWAN/Mac/region/RegionUS915.c ****         {
 1736              		.loc 1 770 0
 1737 0048 EB78     		ldrb	r3, [r5, #3]
 765:../../../../../../Middlewares/Third_Party/LoRaWAN/Mac/region/RegionUS915.c **** 
 1738              		.loc 1 765 0
 1739 004a 2418     		adds	r4, r4, r0
 1740              	.LVL153:
 1741 004c E4B2     		uxtb	r4, r4
 1742              	.LVL154:
 1743 004e AA88     		ldrh	r2, [r5, #4]
 770:../../../../../../Middlewares/Third_Party/LoRaWAN/Mac/region/RegionUS915.c ****         {
 1744              		.loc 1 770 0
 1745 0050 062B     		cmp	r3, #6
 1746 0052 48D0     		beq	.L135
 780:../../../../../../Middlewares/Third_Party/LoRaWAN/Mac/region/RegionUS915.c ****         {
 1747              		.loc 1 780 0
 1748 0054 072B     		cmp	r3, #7
 1749 0056 4ED0     		beq	.L136
 790:../../../../../../Middlewares/Third_Party/LoRaWAN/Mac/region/RegionUS915.c ****         {
 1750              		.loc 1 790 0
 1751 0058 052B     		cmp	r3, #5
 1752 005a 53D0     		beq	.L137
ARM GAS  C:\Users\EBANO_~1\AppData\Local\Temp\ccFRmLE5.s 			page 49


 804:../../../../../../Middlewares/Third_Party/LoRaWAN/Mac/region/RegionUS915.c ****                 {
 805:../../../../../../Middlewares/Third_Party/LoRaWAN/Mac/region/RegionUS915.c ****                     if( ( i % 2 ) == 0 )
 806:../../../../../../Middlewares/Third_Party/LoRaWAN/Mac/region/RegionUS915.c ****                     {
 807:../../../../../../Middlewares/Third_Party/LoRaWAN/Mac/region/RegionUS915.c ****                         // Enable a bank of 8 125kHz channels, 8 LSBs
 808:../../../../../../Middlewares/Third_Party/LoRaWAN/Mac/region/RegionUS915.c ****                         channelsMask[cntChannelMask] |= 0x00FF;
 809:../../../../../../Middlewares/Third_Party/LoRaWAN/Mac/region/RegionUS915.c ****                         // Enable the corresponding 500kHz channel
 810:../../../../../../Middlewares/Third_Party/LoRaWAN/Mac/region/RegionUS915.c ****                         channelsMask[4] |= ( bitMask << i );
 811:../../../../../../Middlewares/Third_Party/LoRaWAN/Mac/region/RegionUS915.c ****                     }
 812:../../../../../../Middlewares/Third_Party/LoRaWAN/Mac/region/RegionUS915.c ****                     else
 813:../../../../../../Middlewares/Third_Party/LoRaWAN/Mac/region/RegionUS915.c ****                     {
 814:../../../../../../Middlewares/Third_Party/LoRaWAN/Mac/region/RegionUS915.c ****                         // Enable a bank of 8 125kHz channels, 8 MSBs
 815:../../../../../../Middlewares/Third_Party/LoRaWAN/Mac/region/RegionUS915.c ****                         channelsMask[cntChannelMask] |= 0xFF00;
 816:../../../../../../Middlewares/Third_Party/LoRaWAN/Mac/region/RegionUS915.c ****                         // Enable the corresponding 500kHz channel
 817:../../../../../../Middlewares/Third_Party/LoRaWAN/Mac/region/RegionUS915.c ****                         channelsMask[4] |= ( bitMask << i );
 818:../../../../../../Middlewares/Third_Party/LoRaWAN/Mac/region/RegionUS915.c ****                         // cntChannelMask increment for uneven i
 819:../../../../../../Middlewares/Third_Party/LoRaWAN/Mac/region/RegionUS915.c ****                         cntChannelMask++;
 820:../../../../../../Middlewares/Third_Party/LoRaWAN/Mac/region/RegionUS915.c ****                     }
 821:../../../../../../Middlewares/Third_Party/LoRaWAN/Mac/region/RegionUS915.c ****                 }
 822:../../../../../../Middlewares/Third_Party/LoRaWAN/Mac/region/RegionUS915.c ****                 // ChMask is not set
 823:../../../../../../Middlewares/Third_Party/LoRaWAN/Mac/region/RegionUS915.c ****                 else
 824:../../../../../../Middlewares/Third_Party/LoRaWAN/Mac/region/RegionUS915.c ****                 {
 825:../../../../../../Middlewares/Third_Party/LoRaWAN/Mac/region/RegionUS915.c ****                     if( ( i % 2 ) == 0 )
 826:../../../../../../Middlewares/Third_Party/LoRaWAN/Mac/region/RegionUS915.c ****                     {
 827:../../../../../../Middlewares/Third_Party/LoRaWAN/Mac/region/RegionUS915.c ****                         // Disable a bank of 8 125kHz channels, 8 LSBs
 828:../../../../../../Middlewares/Third_Party/LoRaWAN/Mac/region/RegionUS915.c ****                         channelsMask[cntChannelMask] &= 0xFF00;
 829:../../../../../../Middlewares/Third_Party/LoRaWAN/Mac/region/RegionUS915.c ****                         // Disable the corresponding 500kHz channel
 830:../../../../../../Middlewares/Third_Party/LoRaWAN/Mac/region/RegionUS915.c ****                         channelsMask[4] &= ~( bitMask << i );
 831:../../../../../../Middlewares/Third_Party/LoRaWAN/Mac/region/RegionUS915.c ****                     }
 832:../../../../../../Middlewares/Third_Party/LoRaWAN/Mac/region/RegionUS915.c ****                     else
 833:../../../../../../Middlewares/Third_Party/LoRaWAN/Mac/region/RegionUS915.c ****                     {
 834:../../../../../../Middlewares/Third_Party/LoRaWAN/Mac/region/RegionUS915.c ****                         // Enable a bank of 8 125kHz channels, 8 MSBs
 835:../../../../../../Middlewares/Third_Party/LoRaWAN/Mac/region/RegionUS915.c ****                         channelsMask[cntChannelMask] &= 0x00FF;
 836:../../../../../../Middlewares/Third_Party/LoRaWAN/Mac/region/RegionUS915.c ****                         // Disable the corresponding 500kHz channel
 837:../../../../../../Middlewares/Third_Party/LoRaWAN/Mac/region/RegionUS915.c ****                         channelsMask[4] &= ~( bitMask << i );
 838:../../../../../../Middlewares/Third_Party/LoRaWAN/Mac/region/RegionUS915.c ****                         // cntChannelMask increment for uneven i
 839:../../../../../../Middlewares/Third_Party/LoRaWAN/Mac/region/RegionUS915.c ****                         cntChannelMask++;
 840:../../../../../../Middlewares/Third_Party/LoRaWAN/Mac/region/RegionUS915.c ****                     }
 841:../../../../../../Middlewares/Third_Party/LoRaWAN/Mac/region/RegionUS915.c ****                 }
 842:../../../../../../Middlewares/Third_Party/LoRaWAN/Mac/region/RegionUS915.c ****             }
 843:../../../../../../Middlewares/Third_Party/LoRaWAN/Mac/region/RegionUS915.c ****         }
 844:../../../../../../Middlewares/Third_Party/LoRaWAN/Mac/region/RegionUS915.c ****         else
 845:../../../../../../Middlewares/Third_Party/LoRaWAN/Mac/region/RegionUS915.c ****         {
 846:../../../../../../Middlewares/Third_Party/LoRaWAN/Mac/region/RegionUS915.c ****             channelsMask[linkAdrParams.ChMaskCtrl] = linkAdrParams.ChMask;
 1753              		.loc 1 846 0
 1754 005c 5B00     		lsls	r3, r3, #1
 1755 005e FA52     		strh	r2, [r7, r3]
 757:../../../../../../Middlewares/Third_Party/LoRaWAN/Mac/region/RegionUS915.c ****     {
 1756              		.loc 1 757 0
 1757 0060 337A     		ldrb	r3, [r6, #8]
 1758 0062 A342     		cmp	r3, r4
 1759 0064 E9D8     		bhi	.L130
 1760              	.LVL155:
 1761              	.L131:
 847:../../../../../../Middlewares/Third_Party/LoRaWAN/Mac/region/RegionUS915.c ****         }
 848:../../../../../../Middlewares/Third_Party/LoRaWAN/Mac/region/RegionUS915.c ****     }
 849:../../../../../../Middlewares/Third_Party/LoRaWAN/Mac/region/RegionUS915.c **** 
 850:../../../../../../Middlewares/Third_Party/LoRaWAN/Mac/region/RegionUS915.c ****     // FCC 15.247 paragraph F mandates to hop on at least 2 125 kHz channels
ARM GAS  C:\Users\EBANO_~1\AppData\Local\Temp\ccFRmLE5.s 			page 50


 851:../../../../../../Middlewares/Third_Party/LoRaWAN/Mac/region/RegionUS915.c ****     if( ( linkAdrParams.Datarate < DR_4 ) && ( RegionCommonCountChannels( channelsMask, 0, 4 ) < 2 
 1762              		.loc 1 851 0
 1763 0066 0123     		movs	r3, #1
 1764 0068 EB56     		ldrsb	r3, [r5, r3]
 1765 006a 032B     		cmp	r3, #3
 1766 006c 00DC     		bgt	.LCB1611
 1767 006e 97E0     		b	.L109	@long jump
 1768              	.LCB1611:
 1769              	.L134:
 1770 0070 0722     		movs	r2, #7
 1771              	.LVL156:
 1772              	.L110:
 852:../../../../../../Middlewares/Third_Party/LoRaWAN/Mac/region/RegionUS915.c ****     {
 853:../../../../../../Middlewares/Third_Party/LoRaWAN/Mac/region/RegionUS915.c ****         status &= 0xFE; // Channel mask KO
 854:../../../../../../Middlewares/Third_Party/LoRaWAN/Mac/region/RegionUS915.c ****     }
 855:../../../../../../Middlewares/Third_Party/LoRaWAN/Mac/region/RegionUS915.c **** 
 856:../../../../../../Middlewares/Third_Party/LoRaWAN/Mac/region/RegionUS915.c ****     // Get the minimum possible datarate
 857:../../../../../../Middlewares/Third_Party/LoRaWAN/Mac/region/RegionUS915.c ****     getPhy.Attribute = PHY_MIN_TX_DR;
 858:../../../../../../Middlewares/Third_Party/LoRaWAN/Mac/region/RegionUS915.c ****     getPhy.UplinkDwellTime = linkAdrReq->UplinkDwellTime;
 859:../../../../../../Middlewares/Third_Party/LoRaWAN/Mac/region/RegionUS915.c ****     phyParam = RegionUS915GetPhyParam( &getPhy );
 860:../../../../../../Middlewares/Third_Party/LoRaWAN/Mac/region/RegionUS915.c **** 
 861:../../../../../../Middlewares/Third_Party/LoRaWAN/Mac/region/RegionUS915.c ****     linkAdrVerifyParams.Status = status;
 1773              		.loc 1 861 0
 1774 0072 06A8     		add	r0, sp, #24
 1775 0074 0271     		strb	r2, [r0, #4]
 862:../../../../../../Middlewares/Third_Party/LoRaWAN/Mac/region/RegionUS915.c ****     linkAdrVerifyParams.AdrEnabled = linkAdrReq->AdrEnabled;
 1776              		.loc 1 862 0
 1777 0076 B27A     		ldrb	r2, [r6, #10]
 1778              	.LVL157:
 863:../../../../../../Middlewares/Third_Party/LoRaWAN/Mac/region/RegionUS915.c ****     linkAdrVerifyParams.Datarate = linkAdrParams.Datarate;
 1779              		.loc 1 863 0
 1780 0078 8371     		strb	r3, [r0, #6]
 862:../../../../../../Middlewares/Third_Party/LoRaWAN/Mac/region/RegionUS915.c ****     linkAdrVerifyParams.AdrEnabled = linkAdrReq->AdrEnabled;
 1781              		.loc 1 862 0
 1782 007a 4271     		strb	r2, [r0, #5]
 864:../../../../../../Middlewares/Third_Party/LoRaWAN/Mac/region/RegionUS915.c ****     linkAdrVerifyParams.TxPower = linkAdrParams.TxPower;
 1783              		.loc 1 864 0
 1784 007c AB78     		ldrb	r3, [r5, #2]
 865:../../../../../../Middlewares/Third_Party/LoRaWAN/Mac/region/RegionUS915.c ****     linkAdrVerifyParams.NbRep = linkAdrParams.NbRep;
 866:../../../../../../Middlewares/Third_Party/LoRaWAN/Mac/region/RegionUS915.c ****     linkAdrVerifyParams.CurrentDatarate = linkAdrReq->CurrentDatarate;
 867:../../../../../../Middlewares/Third_Party/LoRaWAN/Mac/region/RegionUS915.c ****     linkAdrVerifyParams.CurrentTxPower = linkAdrReq->CurrentTxPower;
 868:../../../../../../Middlewares/Third_Party/LoRaWAN/Mac/region/RegionUS915.c ****     linkAdrVerifyParams.CurrentNbRep = linkAdrReq->CurrentNbRep;
 869:../../../../../../Middlewares/Third_Party/LoRaWAN/Mac/region/RegionUS915.c ****     linkAdrVerifyParams.NbChannels = US915_MAX_NB_CHANNELS;
 870:../../../../../../Middlewares/Third_Party/LoRaWAN/Mac/region/RegionUS915.c ****     linkAdrVerifyParams.ChannelsMask = channelsMask;
 871:../../../../../../Middlewares/Third_Party/LoRaWAN/Mac/region/RegionUS915.c ****     linkAdrVerifyParams.MinDatarate = ( int8_t )phyParam.Value;
 872:../../../../../../Middlewares/Third_Party/LoRaWAN/Mac/region/RegionUS915.c ****     linkAdrVerifyParams.MaxDatarate = US915_TX_MAX_DATARATE;
 873:../../../../../../Middlewares/Third_Party/LoRaWAN/Mac/region/RegionUS915.c ****     linkAdrVerifyParams.Channels = NvmCtx.Channels;
 874:../../../../../../Middlewares/Third_Party/LoRaWAN/Mac/region/RegionUS915.c ****     linkAdrVerifyParams.MinTxPower = US915_MIN_TX_POWER;
 875:../../../../../../Middlewares/Third_Party/LoRaWAN/Mac/region/RegionUS915.c ****     linkAdrVerifyParams.MaxTxPower = US915_MAX_TX_POWER;
 876:../../../../../../Middlewares/Third_Party/LoRaWAN/Mac/region/RegionUS915.c ****     linkAdrVerifyParams.Version = linkAdrReq->Version;
 877:../../../../../../Middlewares/Third_Party/LoRaWAN/Mac/region/RegionUS915.c **** 
 878:../../../../../../Middlewares/Third_Party/LoRaWAN/Mac/region/RegionUS915.c ****     // Verify the parameters and update, if necessary
 879:../../../../../../Middlewares/Third_Party/LoRaWAN/Mac/region/RegionUS915.c ****     status = RegionCommonLinkAdrReqVerifyParams( &linkAdrVerifyParams, &linkAdrParams.Datarate, &li
 1785              		.loc 1 879 0
 1786 007e 6A46     		mov	r2, sp
 864:../../../../../../Middlewares/Third_Party/LoRaWAN/Mac/region/RegionUS915.c ****     linkAdrVerifyParams.TxPower = linkAdrParams.TxPower;
 1787              		.loc 1 864 0
ARM GAS  C:\Users\EBANO_~1\AppData\Local\Temp\ccFRmLE5.s 			page 51


 1788 0080 C371     		strb	r3, [r0, #7]
 865:../../../../../../Middlewares/Third_Party/LoRaWAN/Mac/region/RegionUS915.c ****     linkAdrVerifyParams.NbRep = linkAdrParams.NbRep;
 1789              		.loc 1 865 0
 1790 0082 2B78     		ldrb	r3, [r5]
 1791              		.loc 1 879 0
 1792 0084 6946     		mov	r1, sp
 865:../../../../../../Middlewares/Third_Party/LoRaWAN/Mac/region/RegionUS915.c ****     linkAdrVerifyParams.NbRep = linkAdrParams.NbRep;
 1793              		.loc 1 865 0
 1794 0086 0372     		strb	r3, [r0, #8]
 866:../../../../../../Middlewares/Third_Party/LoRaWAN/Mac/region/RegionUS915.c ****     linkAdrVerifyParams.CurrentTxPower = linkAdrReq->CurrentTxPower;
 1795              		.loc 1 866 0
 1796 0088 F37A     		ldrb	r3, [r6, #11]
 1797              		.loc 1 879 0
 1798 008a 0632     		adds	r2, r2, #6
 866:../../../../../../Middlewares/Third_Party/LoRaWAN/Mac/region/RegionUS915.c ****     linkAdrVerifyParams.CurrentTxPower = linkAdrReq->CurrentTxPower;
 1799              		.loc 1 866 0
 1800 008c 4372     		strb	r3, [r0, #9]
 867:../../../../../../Middlewares/Third_Party/LoRaWAN/Mac/region/RegionUS915.c ****     linkAdrVerifyParams.CurrentNbRep = linkAdrReq->CurrentNbRep;
 1801              		.loc 1 867 0
 1802 008e 337B     		ldrb	r3, [r6, #12]
 1803              		.loc 1 879 0
 1804 0090 0531     		adds	r1, r1, #5
 867:../../../../../../Middlewares/Third_Party/LoRaWAN/Mac/region/RegionUS915.c ****     linkAdrVerifyParams.CurrentNbRep = linkAdrReq->CurrentNbRep;
 1805              		.loc 1 867 0
 1806 0092 8372     		strb	r3, [r0, #10]
 868:../../../../../../Middlewares/Third_Party/LoRaWAN/Mac/region/RegionUS915.c ****     linkAdrVerifyParams.NbChannels = US915_MAX_NB_CHANNELS;
 1807              		.loc 1 868 0
 1808 0094 737B     		ldrb	r3, [r6, #13]
 870:../../../../../../Middlewares/Third_Party/LoRaWAN/Mac/region/RegionUS915.c ****     linkAdrVerifyParams.MinDatarate = ( int8_t )phyParam.Value;
 1809              		.loc 1 870 0
 1810 0096 0761     		str	r7, [r0, #16]
 868:../../../../../../Middlewares/Third_Party/LoRaWAN/Mac/region/RegionUS915.c ****     linkAdrVerifyParams.NbChannels = US915_MAX_NB_CHANNELS;
 1811              		.loc 1 868 0
 1812 0098 C372     		strb	r3, [r0, #11]
 869:../../../../../../Middlewares/Third_Party/LoRaWAN/Mac/region/RegionUS915.c ****     linkAdrVerifyParams.ChannelsMask = channelsMask;
 1813              		.loc 1 869 0
 1814 009a 4823     		movs	r3, #72
 1815 009c 0373     		strb	r3, [r0, #12]
 871:../../../../../../Middlewares/Third_Party/LoRaWAN/Mac/region/RegionUS915.c ****     linkAdrVerifyParams.MaxDatarate = US915_TX_MAX_DATARATE;
 1816              		.loc 1 871 0
 1817 009e 8023     		movs	r3, #128
 1818 00a0 DB00     		lsls	r3, r3, #3
 1819 00a2 8382     		strh	r3, [r0, #20]
 873:../../../../../../Middlewares/Third_Party/LoRaWAN/Mac/region/RegionUS915.c ****     linkAdrVerifyParams.MinTxPower = US915_MIN_TX_POWER;
 1820              		.loc 1 873 0
 1821 00a4 824B     		ldr	r3, .L146+4
 1822 00a6 8361     		str	r3, [r0, #24]
 1823 00a8 9B46     		mov	fp, r3
 874:../../../../../../Middlewares/Third_Party/LoRaWAN/Mac/region/RegionUS915.c ****     linkAdrVerifyParams.MaxTxPower = US915_MAX_TX_POWER;
 1824              		.loc 1 874 0
 1825 00aa 0A23     		movs	r3, #10
 1826 00ac 8383     		strh	r3, [r0, #28]
 876:../../../../../../Middlewares/Third_Party/LoRaWAN/Mac/region/RegionUS915.c **** 
 1827              		.loc 1 876 0
 1828 00ae 3368     		ldr	r3, [r6]
 1829 00b0 0693     		str	r3, [sp, #24]
 1830              		.loc 1 879 0
ARM GAS  C:\Users\EBANO_~1\AppData\Local\Temp\ccFRmLE5.s 			page 52


 1831 00b2 2B00     		movs	r3, r5
 1832 00b4 FFF7FEFF 		bl	RegionCommonLinkAdrReqVerifyParams
 1833              	.LVL158:
 1834 00b8 0600     		movs	r6, r0
 1835              	.LVL159:
 880:../../../../../../Middlewares/Third_Party/LoRaWAN/Mac/region/RegionUS915.c **** 
 881:../../../../../../Middlewares/Third_Party/LoRaWAN/Mac/region/RegionUS915.c ****     // Update channelsMask if everything is correct
 882:../../../../../../Middlewares/Third_Party/LoRaWAN/Mac/region/RegionUS915.c ****     if( status == 0x07 )
 1836              		.loc 1 882 0
 1837 00ba 0728     		cmp	r0, #7
 1838 00bc 00D1     		bne	.LCB1660
 1839 00be 7BE0     		b	.L138	@long jump
 1840              	.LCB1660:
 1841              	.LVL160:
 1842              	.L133:
 883:../../../../../../Middlewares/Third_Party/LoRaWAN/Mac/region/RegionUS915.c ****     {
 884:../../../../../../Middlewares/Third_Party/LoRaWAN/Mac/region/RegionUS915.c ****         // Copy Mask
 885:../../../../../../Middlewares/Third_Party/LoRaWAN/Mac/region/RegionUS915.c ****         RegionCommonChanMaskCopy( NvmCtx.ChannelsMask, channelsMask, 6 );
 886:../../../../../../Middlewares/Third_Party/LoRaWAN/Mac/region/RegionUS915.c **** 
 887:../../../../../../Middlewares/Third_Party/LoRaWAN/Mac/region/RegionUS915.c ****         NvmCtx.ChannelsMaskRemaining[0] &= NvmCtx.ChannelsMask[0];
 888:../../../../../../Middlewares/Third_Party/LoRaWAN/Mac/region/RegionUS915.c ****         NvmCtx.ChannelsMaskRemaining[1] &= NvmCtx.ChannelsMask[1];
 889:../../../../../../Middlewares/Third_Party/LoRaWAN/Mac/region/RegionUS915.c ****         NvmCtx.ChannelsMaskRemaining[2] &= NvmCtx.ChannelsMask[2];
 890:../../../../../../Middlewares/Third_Party/LoRaWAN/Mac/region/RegionUS915.c ****         NvmCtx.ChannelsMaskRemaining[3] &= NvmCtx.ChannelsMask[3];
 891:../../../../../../Middlewares/Third_Party/LoRaWAN/Mac/region/RegionUS915.c ****         NvmCtx.ChannelsMaskRemaining[4] = NvmCtx.ChannelsMask[4];
 892:../../../../../../Middlewares/Third_Party/LoRaWAN/Mac/region/RegionUS915.c ****         NvmCtx.ChannelsMaskRemaining[5] = NvmCtx.ChannelsMask[5];
 893:../../../../../../Middlewares/Third_Party/LoRaWAN/Mac/region/RegionUS915.c ****     }
 894:../../../../../../Middlewares/Third_Party/LoRaWAN/Mac/region/RegionUS915.c **** 
 895:../../../../../../Middlewares/Third_Party/LoRaWAN/Mac/region/RegionUS915.c ****     // Update status variables
 896:../../../../../../Middlewares/Third_Party/LoRaWAN/Mac/region/RegionUS915.c ****     *drOut = linkAdrParams.Datarate;
 1843              		.loc 1 896 0
 1844 00c0 5246     		mov	r2, r10
 1845 00c2 6B78     		ldrb	r3, [r5, #1]
 897:../../../../../../Middlewares/Third_Party/LoRaWAN/Mac/region/RegionUS915.c ****     *txPowOut = linkAdrParams.TxPower;
 898:../../../../../../Middlewares/Third_Party/LoRaWAN/Mac/region/RegionUS915.c ****     *nbRepOut = linkAdrParams.NbRep;
 899:../../../../../../Middlewares/Third_Party/LoRaWAN/Mac/region/RegionUS915.c ****     *nbBytesParsed = bytesProcessed;
 900:../../../../../../Middlewares/Third_Party/LoRaWAN/Mac/region/RegionUS915.c **** 
 901:../../../../../../Middlewares/Third_Party/LoRaWAN/Mac/region/RegionUS915.c ****     return status;
 902:../../../../../../Middlewares/Third_Party/LoRaWAN/Mac/region/RegionUS915.c **** }
 1846              		.loc 1 902 0
 1847 00c4 3000     		movs	r0, r6
 896:../../../../../../Middlewares/Third_Party/LoRaWAN/Mac/region/RegionUS915.c ****     *txPowOut = linkAdrParams.TxPower;
 1848              		.loc 1 896 0
 1849 00c6 1370     		strb	r3, [r2]
 897:../../../../../../Middlewares/Third_Party/LoRaWAN/Mac/region/RegionUS915.c ****     *txPowOut = linkAdrParams.TxPower;
 1850              		.loc 1 897 0
 1851 00c8 4A46     		mov	r2, r9
 1852 00ca AB78     		ldrb	r3, [r5, #2]
 1853 00cc 1370     		strb	r3, [r2]
 898:../../../../../../Middlewares/Third_Party/LoRaWAN/Mac/region/RegionUS915.c ****     *nbBytesParsed = bytesProcessed;
 1854              		.loc 1 898 0
 1855 00ce 4246     		mov	r2, r8
 1856 00d0 2B78     		ldrb	r3, [r5]
 1857 00d2 1370     		strb	r3, [r2]
 899:../../../../../../Middlewares/Third_Party/LoRaWAN/Mac/region/RegionUS915.c **** 
 1858              		.loc 1 899 0
 1859 00d4 189B     		ldr	r3, [sp, #96]
 1860 00d6 1C70     		strb	r4, [r3]
ARM GAS  C:\Users\EBANO_~1\AppData\Local\Temp\ccFRmLE5.s 			page 53


 1861              		.loc 1 902 0
 1862 00d8 0FB0     		add	sp, sp, #60
 1863              		@ sp needed
 1864              	.LVL161:
 1865              	.LVL162:
 1866              	.LVL163:
 1867              	.LVL164:
 1868 00da 3CBC     		pop	{r2, r3, r4, r5}
 1869 00dc 9046     		mov	r8, r2
 1870 00de 9946     		mov	r9, r3
 1871 00e0 A246     		mov	r10, r4
 1872 00e2 AB46     		mov	fp, r5
 1873 00e4 F0BD     		pop	{r4, r5, r6, r7, pc}
 1874              	.LVL165:
 1875              	.L135:
 773:../../../../../../Middlewares/Third_Party/LoRaWAN/Mac/region/RegionUS915.c ****             channelsMask[1] = 0xFFFF;
 1876              		.loc 1 773 0
 1877 00e6 073B     		subs	r3, r3, #7
 1878 00e8 0393     		str	r3, [sp, #12]
 1879 00ea 0493     		str	r3, [sp, #16]
 778:../../../../../../Middlewares/Third_Party/LoRaWAN/Mac/region/RegionUS915.c ****         }
 1880              		.loc 1 778 0
 1881 00ec 0133     		adds	r3, r3, #1
 1882 00ee FF33     		adds	r3, r3, #255
 1883 00f0 1A40     		ands	r2, r3
 1884 00f2 3A81     		strh	r2, [r7, #8]
 1885 00f4 9EE7     		b	.L107
 1886              	.L136:
 783:../../../../../../Middlewares/Third_Party/LoRaWAN/Mac/region/RegionUS915.c ****             channelsMask[1] = 0x0000;
 1887              		.loc 1 783 0
 1888 00f6 0023     		movs	r3, #0
 1889 00f8 0393     		str	r3, [sp, #12]
 1890 00fa 0493     		str	r3, [sp, #16]
 788:../../../../../../Middlewares/Third_Party/LoRaWAN/Mac/region/RegionUS915.c ****         }
 1891              		.loc 1 788 0
 1892 00fc FF33     		adds	r3, r3, #255
 1893 00fe 1A40     		ands	r2, r3
 1894 0100 3A81     		strh	r2, [r7, #8]
 1895 0102 97E7     		b	.L107
 1896              	.L137:
 1897              	.LVL166:
 1898 0104 0821     		movs	r1, #8
 1899 0106 7B5E     		ldrsh	r3, [r7, r1]
 1900              	.LBB63:
 1901              	.LBB60:
 803:../../../../../../Middlewares/Third_Party/LoRaWAN/Mac/region/RegionUS915.c ****                 {
 1902              		.loc 1 803 0
 1903 0108 5946     		mov	r1, fp
 1904 010a 1142     		tst	r1, r2
 1905 010c 00D0     		beq	.LCB1734
 1906 010e 7DE0     		b	.L115	@long jump
 1907              	.LCB1734:
 830:../../../../../../Middlewares/Third_Party/LoRaWAN/Mac/region/RegionUS915.c ****                     }
 1908              		.loc 1 830 0
 1909 0110 8B43     		bics	r3, r1
 1910 0112 FF21     		movs	r1, #255
 803:../../../../../../Middlewares/Third_Party/LoRaWAN/Mac/region/RegionUS915.c ****                 {
ARM GAS  C:\Users\EBANO_~1\AppData\Local\Temp\ccFRmLE5.s 			page 54


 1911              		.loc 1 803 0
 1912 0114 0220     		movs	r0, #2
 1913              	.LVL167:
 830:../../../../../../Middlewares/Third_Party/LoRaWAN/Mac/region/RegionUS915.c ****                     }
 1914              		.loc 1 830 0
 1915 0116 0902     		lsls	r1, r1, #8
 1916 0118 9BB2     		uxth	r3, r3
 1917 011a 8C46     		mov	ip, r1
 1918 011c 1BB2     		sxth	r3, r3
 1919 011e 0021     		movs	r1, #0
 1920              	.LVL168:
 803:../../../../../../Middlewares/Third_Party/LoRaWAN/Mac/region/RegionUS915.c ****                 {
 1921              		.loc 1 803 0
 1922 0120 1042     		tst	r0, r2
 1923 0122 00D0     		beq	.LCB1749
 1924 0124 7DE0     		b	.L117	@long jump
 1925              	.LCB1749:
 1926              	.L139:
 1927 0126 3980     		strh	r1, [r7]
 1928 0128 0421     		movs	r1, #4
 837:../../../../../../Middlewares/Third_Party/LoRaWAN/Mac/region/RegionUS915.c ****                         // cntChannelMask increment for uneven i
 1929              		.loc 1 837 0
 1930 012a 8343     		bics	r3, r0
 1931 012c 9BB2     		uxth	r3, r3
 1932              	.LVL169:
 1933 012e 1BB2     		sxth	r3, r3
 803:../../../../../../Middlewares/Third_Party/LoRaWAN/Mac/region/RegionUS915.c ****                 {
 1934              		.loc 1 803 0
 1935 0130 1142     		tst	r1, r2
 1936 0132 00D0     		beq	.LCB1763
 1937 0134 7FE0     		b	.L119	@long jump
 1938              	.LCB1763:
 1939              	.L140:
 830:../../../../../../Middlewares/Third_Party/LoRaWAN/Mac/region/RegionUS915.c ****                     }
 1940              		.loc 1 830 0
 1941 0136 8B43     		bics	r3, r1
 1942 0138 FF21     		movs	r1, #255
 803:../../../../../../Middlewares/Third_Party/LoRaWAN/Mac/region/RegionUS915.c ****                 {
 1943              		.loc 1 803 0
 1944 013a 0820     		movs	r0, #8
 830:../../../../../../Middlewares/Third_Party/LoRaWAN/Mac/region/RegionUS915.c ****                     }
 1945              		.loc 1 830 0
 1946 013c 0902     		lsls	r1, r1, #8
 1947 013e 9BB2     		uxth	r3, r3
 1948 0140 8C46     		mov	ip, r1
 1949 0142 1BB2     		sxth	r3, r3
 1950 0144 0021     		movs	r1, #0
 1951              	.LVL170:
 803:../../../../../../Middlewares/Third_Party/LoRaWAN/Mac/region/RegionUS915.c ****                 {
 1952              		.loc 1 803 0
 1953 0146 1042     		tst	r0, r2
 1954 0148 00D0     		beq	.LCB1778
 1955 014a 7FE0     		b	.L121	@long jump
 1956              	.LCB1778:
 1957              	.L141:
 1958 014c 7980     		strh	r1, [r7, #2]
 1959 014e 1021     		movs	r1, #16
ARM GAS  C:\Users\EBANO_~1\AppData\Local\Temp\ccFRmLE5.s 			page 55


 837:../../../../../../Middlewares/Third_Party/LoRaWAN/Mac/region/RegionUS915.c ****                         // cntChannelMask increment for uneven i
 1960              		.loc 1 837 0
 1961 0150 8343     		bics	r3, r0
 1962 0152 9BB2     		uxth	r3, r3
 1963              	.LVL171:
 1964 0154 1BB2     		sxth	r3, r3
 803:../../../../../../Middlewares/Third_Party/LoRaWAN/Mac/region/RegionUS915.c ****                 {
 1965              		.loc 1 803 0
 1966 0156 1142     		tst	r1, r2
 1967 0158 00D0     		beq	.LCB1791
 1968 015a 81E0     		b	.L123	@long jump
 1969              	.LCB1791:
 1970              	.L142:
 830:../../../../../../Middlewares/Third_Party/LoRaWAN/Mac/region/RegionUS915.c ****                     }
 1971              		.loc 1 830 0
 1972 015c 8B43     		bics	r3, r1
 1973 015e FF21     		movs	r1, #255
 1974 0160 0902     		lsls	r1, r1, #8
 1975 0162 8C46     		mov	ip, r1
 803:../../../../../../Middlewares/Third_Party/LoRaWAN/Mac/region/RegionUS915.c ****                 {
 1976              		.loc 1 803 0
 1977 0164 2021     		movs	r1, #32
 830:../../../../../../Middlewares/Third_Party/LoRaWAN/Mac/region/RegionUS915.c ****                     }
 1978              		.loc 1 830 0
 1979 0166 9BB2     		uxth	r3, r3
 1980 0168 0020     		movs	r0, #0
 1981              	.LVL172:
 1982 016a 1BB2     		sxth	r3, r3
 803:../../../../../../Middlewares/Third_Party/LoRaWAN/Mac/region/RegionUS915.c ****                 {
 1983              		.loc 1 803 0
 1984 016c 1142     		tst	r1, r2
 1985 016e 00D0     		beq	.LCB1806
 1986 0170 81E0     		b	.L125	@long jump
 1987              	.LCB1806:
 1988              	.L143:
 837:../../../../../../Middlewares/Third_Party/LoRaWAN/Mac/region/RegionUS915.c ****                         // cntChannelMask increment for uneven i
 1989              		.loc 1 837 0
 1990 0172 8B43     		bics	r3, r1
 803:../../../../../../Middlewares/Third_Party/LoRaWAN/Mac/region/RegionUS915.c ****                 {
 1991              		.loc 1 803 0
 1992 0174 4021     		movs	r1, #64
 837:../../../../../../Middlewares/Third_Party/LoRaWAN/Mac/region/RegionUS915.c ****                         // cntChannelMask increment for uneven i
 1993              		.loc 1 837 0
 1994 0176 9BB2     		uxth	r3, r3
 1995              	.LVL173:
 1996 0178 B880     		strh	r0, [r7, #4]
 1997              	.LVL174:
 1998 017a 1BB2     		sxth	r3, r3
 803:../../../../../../Middlewares/Third_Party/LoRaWAN/Mac/region/RegionUS915.c ****                 {
 1999              		.loc 1 803 0
 2000 017c 1142     		tst	r1, r2
 2001 017e 00D0     		beq	.LCB1819
 2002 0180 83E0     		b	.L127	@long jump
 2003              	.LCB1819:
 2004              	.L144:
 830:../../../../../../Middlewares/Third_Party/LoRaWAN/Mac/region/RegionUS915.c ****                     }
 2005              		.loc 1 830 0
ARM GAS  C:\Users\EBANO_~1\AppData\Local\Temp\ccFRmLE5.s 			page 56


 2006 0182 8B43     		bics	r3, r1
 2007 0184 FF21     		movs	r1, #255
 2008 0186 0902     		lsls	r1, r1, #8
 2009 0188 8C46     		mov	ip, r1
 803:../../../../../../Middlewares/Third_Party/LoRaWAN/Mac/region/RegionUS915.c ****                 {
 2010              		.loc 1 803 0
 2011 018a 8021     		movs	r1, #128
 830:../../../../../../Middlewares/Third_Party/LoRaWAN/Mac/region/RegionUS915.c ****                     }
 2012              		.loc 1 830 0
 2013 018c 9BB2     		uxth	r3, r3
 2014 018e 0020     		movs	r0, #0
 2015              	.LVL175:
 2016 0190 1BB2     		sxth	r3, r3
 803:../../../../../../Middlewares/Third_Party/LoRaWAN/Mac/region/RegionUS915.c ****                 {
 2017              		.loc 1 803 0
 2018 0192 1142     		tst	r1, r2
 2019 0194 00D0     		beq	.LCB1834
 2020 0196 83E0     		b	.L129	@long jump
 2021              	.LCB1834:
 2022              	.L145:
 837:../../../../../../Middlewares/Third_Party/LoRaWAN/Mac/region/RegionUS915.c ****                         // cntChannelMask increment for uneven i
 2023              		.loc 1 837 0
 2024 0198 8B43     		bics	r3, r1
 835:../../../../../../Middlewares/Third_Party/LoRaWAN/Mac/region/RegionUS915.c ****                         // Disable the corresponding 500kHz channel
 2025              		.loc 1 835 0
 2026 019a F880     		strh	r0, [r7, #6]
 837:../../../../../../Middlewares/Third_Party/LoRaWAN/Mac/region/RegionUS915.c ****                         // cntChannelMask increment for uneven i
 2027              		.loc 1 837 0
 2028 019c 3B81     		strh	r3, [r7, #8]
 2029              	.LVL176:
 2030 019e 49E7     		b	.L107
 2031              	.LVL177:
 2032              	.L109:
 2033              	.LBE60:
 2034              	.LBE63:
 851:../../../../../../Middlewares/Third_Party/LoRaWAN/Mac/region/RegionUS915.c ****     {
 2035              		.loc 1 851 0 discriminator 1
 2036 01a0 0422     		movs	r2, #4
 2037 01a2 0021     		movs	r1, #0
 2038 01a4 3800     		movs	r0, r7
 2039 01a6 FFF7FEFF 		bl	RegionCommonCountChannels
 2040              	.LVL178:
 2041 01aa 0123     		movs	r3, #1
 2042 01ac EB56     		ldrsb	r3, [r5, r3]
 2043 01ae 0128     		cmp	r0, #1
 2044 01b0 00D9     		bls	.LCB1859
 2045 01b2 5DE7     		b	.L134	@long jump
 2046              	.LCB1859:
 2047              	.LVL179:
 853:../../../../../../Middlewares/Third_Party/LoRaWAN/Mac/region/RegionUS915.c ****     }
 2048              		.loc 1 853 0
 2049 01b4 0622     		movs	r2, #6
 2050 01b6 5CE7     		b	.L110
 2051              	.LVL180:
 2052              	.L138:
 885:../../../../../../Middlewares/Third_Party/LoRaWAN/Mac/region/RegionUS915.c **** 
 2053              		.loc 1 885 0
ARM GAS  C:\Users\EBANO_~1\AppData\Local\Temp\ccFRmLE5.s 			page 57


 2054 01b8 DC20     		movs	r0, #220
 2055              	.LVL181:
 2056 01ba 8000     		lsls	r0, r0, #2
 2057 01bc 5844     		add	r0, r0, fp
 2058 01be 0622     		movs	r2, #6
 2059 01c0 3900     		movs	r1, r7
 2060 01c2 FFF7FEFF 		bl	RegionCommonChanMaskCopy
 2061              	.LVL182:
 887:../../../../../../Middlewares/Third_Party/LoRaWAN/Mac/region/RegionUS915.c ****         NvmCtx.ChannelsMaskRemaining[1] &= NvmCtx.ChannelsMask[1];
 2062              		.loc 1 887 0
 2063 01c6 DF22     		movs	r2, #223
 2064 01c8 5B46     		mov	r3, fp
 2065 01ca 9200     		lsls	r2, r2, #2
 2066 01cc 995A     		ldrh	r1, [r3, r2]
 2067 01ce DC23     		movs	r3, #220
 2068 01d0 5846     		mov	r0, fp
 2069 01d2 9B00     		lsls	r3, r3, #2
 2070 01d4 C35A     		ldrh	r3, [r0, r3]
 2071 01d6 0B40     		ands	r3, r1
 2072 01d8 8352     		strh	r3, [r0, r2]
 888:../../../../../../Middlewares/Third_Party/LoRaWAN/Mac/region/RegionUS915.c ****         NvmCtx.ChannelsMaskRemaining[2] &= NvmCtx.ChannelsMask[2];
 2073              		.loc 1 888 0
 2074 01da 364A     		ldr	r2, .L146+8
 2075 01dc 364B     		ldr	r3, .L146+12
 2076 01de 815A     		ldrh	r1, [r0, r2]
 2077 01e0 C35A     		ldrh	r3, [r0, r3]
 2078 01e2 0B40     		ands	r3, r1
 2079 01e4 8352     		strh	r3, [r0, r2]
 889:../../../../../../Middlewares/Third_Party/LoRaWAN/Mac/region/RegionUS915.c ****         NvmCtx.ChannelsMaskRemaining[3] &= NvmCtx.ChannelsMask[3];
 2080              		.loc 1 889 0
 2081 01e6 DD23     		movs	r3, #221
 2082 01e8 0232     		adds	r2, r2, #2
 2083 01ea 9B00     		lsls	r3, r3, #2
 2084 01ec 815A     		ldrh	r1, [r0, r2]
 2085 01ee C35A     		ldrh	r3, [r0, r3]
 2086 01f0 0B40     		ands	r3, r1
 2087 01f2 8352     		strh	r3, [r0, r2]
 890:../../../../../../Middlewares/Third_Party/LoRaWAN/Mac/region/RegionUS915.c ****         NvmCtx.ChannelsMaskRemaining[4] = NvmCtx.ChannelsMask[4];
 2088              		.loc 1 890 0
 2089 01f4 314A     		ldr	r2, .L146+16
 2090 01f6 324B     		ldr	r3, .L146+20
 2091 01f8 815A     		ldrh	r1, [r0, r2]
 2092 01fa C35A     		ldrh	r3, [r0, r3]
 2093 01fc 0B40     		ands	r3, r1
 2094 01fe 8352     		strh	r3, [r0, r2]
 891:../../../../../../Middlewares/Third_Party/LoRaWAN/Mac/region/RegionUS915.c ****         NvmCtx.ChannelsMaskRemaining[5] = NvmCtx.ChannelsMask[5];
 2095              		.loc 1 891 0
 2096 0200 DE23     		movs	r3, #222
 2097 0202 9B00     		lsls	r3, r3, #2
 2098 0204 C258     		ldr	r2, [r0, r3]
 2099 0206 0C33     		adds	r3, r3, #12
 2100 0208 C250     		str	r2, [r0, r3]
 2101 020a 59E7     		b	.L133
 2102              	.LVL183:
 2103              	.L115:
 2104              	.LBB64:
 2105              	.LBB61:
ARM GAS  C:\Users\EBANO_~1\AppData\Local\Temp\ccFRmLE5.s 			page 58


 810:../../../../../../Middlewares/Third_Party/LoRaWAN/Mac/region/RegionUS915.c ****                     }
 2106              		.loc 1 810 0
 2107 020c 0121     		movs	r1, #1
 803:../../../../../../Middlewares/Third_Party/LoRaWAN/Mac/region/RegionUS915.c ****                 {
 2108              		.loc 1 803 0
 2109 020e 0220     		movs	r0, #2
 2110              	.LVL184:
 810:../../../../../../Middlewares/Third_Party/LoRaWAN/Mac/region/RegionUS915.c ****                     }
 2111              		.loc 1 810 0
 2112 0210 0B43     		orrs	r3, r1
 2113 0212 2C49     		ldr	r1, .L146+24
 2114 0214 9BB2     		uxth	r3, r3
 2115 0216 8C46     		mov	ip, r1
 2116 0218 1BB2     		sxth	r3, r3
 2117 021a FF21     		movs	r1, #255
 2118              	.LVL185:
 803:../../../../../../Middlewares/Third_Party/LoRaWAN/Mac/region/RegionUS915.c ****                 {
 2119              		.loc 1 803 0
 2120 021c 1042     		tst	r0, r2
 2121 021e 00D1     		bne	.LCB1934
 2122 0220 81E7     		b	.L139	@long jump
 2123              	.LCB1934:
 2124              	.L117:
 817:../../../../../../Middlewares/Third_Party/LoRaWAN/Mac/region/RegionUS915.c ****                         // cntChannelMask increment for uneven i
 2125              		.loc 1 817 0
 2126 0222 0221     		movs	r1, #2
 2127 0224 0B43     		orrs	r3, r1
 815:../../../../../../Middlewares/Third_Party/LoRaWAN/Mac/region/RegionUS915.c ****                         // Enable the corresponding 500kHz channel
 2128              		.loc 1 815 0
 2129 0226 6146     		mov	r1, ip
 2130 0228 3980     		strh	r1, [r7]
 803:../../../../../../Middlewares/Third_Party/LoRaWAN/Mac/region/RegionUS915.c ****                 {
 2131              		.loc 1 803 0
 2132 022a 0421     		movs	r1, #4
 817:../../../../../../Middlewares/Third_Party/LoRaWAN/Mac/region/RegionUS915.c ****                         // cntChannelMask increment for uneven i
 2133              		.loc 1 817 0
 2134 022c 9BB2     		uxth	r3, r3
 2135              	.LVL186:
 2136 022e 1BB2     		sxth	r3, r3
 803:../../../../../../Middlewares/Third_Party/LoRaWAN/Mac/region/RegionUS915.c ****                 {
 2137              		.loc 1 803 0
 2138 0230 1142     		tst	r1, r2
 2139 0232 00D1     		bne	.LCB1947
 2140 0234 7FE7     		b	.L140	@long jump
 2141              	.LCB1947:
 2142              	.L119:
 810:../../../../../../Middlewares/Third_Party/LoRaWAN/Mac/region/RegionUS915.c ****                     }
 2143              		.loc 1 810 0
 2144 0236 0421     		movs	r1, #4
 803:../../../../../../Middlewares/Third_Party/LoRaWAN/Mac/region/RegionUS915.c ****                 {
 2145              		.loc 1 803 0
 2146 0238 0820     		movs	r0, #8
 810:../../../../../../Middlewares/Third_Party/LoRaWAN/Mac/region/RegionUS915.c ****                     }
 2147              		.loc 1 810 0
 2148 023a 0B43     		orrs	r3, r1
 2149 023c 2149     		ldr	r1, .L146+24
 2150 023e 9BB2     		uxth	r3, r3
ARM GAS  C:\Users\EBANO_~1\AppData\Local\Temp\ccFRmLE5.s 			page 59


 2151 0240 8C46     		mov	ip, r1
 2152 0242 1BB2     		sxth	r3, r3
 2153 0244 FF21     		movs	r1, #255
 2154              	.LVL187:
 803:../../../../../../Middlewares/Third_Party/LoRaWAN/Mac/region/RegionUS915.c ****                 {
 2155              		.loc 1 803 0
 2156 0246 1042     		tst	r0, r2
 2157 0248 00D1     		bne	.LCB1960
 2158 024a 7FE7     		b	.L141	@long jump
 2159              	.LCB1960:
 2160              	.L121:
 817:../../../../../../Middlewares/Third_Party/LoRaWAN/Mac/region/RegionUS915.c ****                         // cntChannelMask increment for uneven i
 2161              		.loc 1 817 0
 2162 024c 0821     		movs	r1, #8
 2163 024e 0B43     		orrs	r3, r1
 815:../../../../../../Middlewares/Third_Party/LoRaWAN/Mac/region/RegionUS915.c ****                         // Enable the corresponding 500kHz channel
 2164              		.loc 1 815 0
 2165 0250 6146     		mov	r1, ip
 2166 0252 7980     		strh	r1, [r7, #2]
 803:../../../../../../Middlewares/Third_Party/LoRaWAN/Mac/region/RegionUS915.c ****                 {
 2167              		.loc 1 803 0
 2168 0254 1021     		movs	r1, #16
 817:../../../../../../Middlewares/Third_Party/LoRaWAN/Mac/region/RegionUS915.c ****                         // cntChannelMask increment for uneven i
 2169              		.loc 1 817 0
 2170 0256 9BB2     		uxth	r3, r3
 2171              	.LVL188:
 2172 0258 1BB2     		sxth	r3, r3
 803:../../../../../../Middlewares/Third_Party/LoRaWAN/Mac/region/RegionUS915.c ****                 {
 2173              		.loc 1 803 0
 2174 025a 1142     		tst	r1, r2
 2175 025c 00D1     		bne	.LCB1973
 2176 025e 7DE7     		b	.L142	@long jump
 2177              	.LCB1973:
 2178              	.L123:
 810:../../../../../../Middlewares/Third_Party/LoRaWAN/Mac/region/RegionUS915.c ****                     }
 2179              		.loc 1 810 0
 2180 0260 1021     		movs	r1, #16
 2181 0262 0B43     		orrs	r3, r1
 2182 0264 1749     		ldr	r1, .L146+24
 2183 0266 9BB2     		uxth	r3, r3
 2184 0268 8C46     		mov	ip, r1
 803:../../../../../../Middlewares/Third_Party/LoRaWAN/Mac/region/RegionUS915.c ****                 {
 2185              		.loc 1 803 0
 2186 026a 2021     		movs	r1, #32
 810:../../../../../../Middlewares/Third_Party/LoRaWAN/Mac/region/RegionUS915.c ****                     }
 2187              		.loc 1 810 0
 2188 026c FF20     		movs	r0, #255
 2189              	.LVL189:
 2190 026e 1BB2     		sxth	r3, r3
 803:../../../../../../Middlewares/Third_Party/LoRaWAN/Mac/region/RegionUS915.c ****                 {
 2191              		.loc 1 803 0
 2192 0270 1142     		tst	r1, r2
 2193 0272 00D1     		bne	.LCB1986
 2194 0274 7DE7     		b	.L143	@long jump
 2195              	.LCB1986:
 2196              	.L125:
 817:../../../../../../Middlewares/Third_Party/LoRaWAN/Mac/region/RegionUS915.c ****                         // cntChannelMask increment for uneven i
ARM GAS  C:\Users\EBANO_~1\AppData\Local\Temp\ccFRmLE5.s 			page 60


 2197              		.loc 1 817 0
 2198 0276 2020     		movs	r0, #32
 803:../../../../../../Middlewares/Third_Party/LoRaWAN/Mac/region/RegionUS915.c ****                 {
 2199              		.loc 1 803 0
 2200 0278 4021     		movs	r1, #64
 817:../../../../../../Middlewares/Third_Party/LoRaWAN/Mac/region/RegionUS915.c ****                         // cntChannelMask increment for uneven i
 2201              		.loc 1 817 0
 2202 027a 0343     		orrs	r3, r0
 815:../../../../../../Middlewares/Third_Party/LoRaWAN/Mac/region/RegionUS915.c ****                         // Enable the corresponding 500kHz channel
 2203              		.loc 1 815 0
 2204 027c 6046     		mov	r0, ip
 817:../../../../../../Middlewares/Third_Party/LoRaWAN/Mac/region/RegionUS915.c ****                         // cntChannelMask increment for uneven i
 2205              		.loc 1 817 0
 2206 027e 9BB2     		uxth	r3, r3
 2207              	.LVL190:
 2208 0280 B880     		strh	r0, [r7, #4]
 2209              	.LVL191:
 2210 0282 1BB2     		sxth	r3, r3
 803:../../../../../../Middlewares/Third_Party/LoRaWAN/Mac/region/RegionUS915.c ****                 {
 2211              		.loc 1 803 0
 2212 0284 1142     		tst	r1, r2
 2213 0286 00D1     		bne	.LCB1999
 2214 0288 7BE7     		b	.L144	@long jump
 2215              	.LCB1999:
 2216              	.L127:
 810:../../../../../../Middlewares/Third_Party/LoRaWAN/Mac/region/RegionUS915.c ****                     }
 2217              		.loc 1 810 0
 2218 028a 4021     		movs	r1, #64
 2219 028c 0B43     		orrs	r3, r1
 2220 028e 0D49     		ldr	r1, .L146+24
 2221 0290 9BB2     		uxth	r3, r3
 2222 0292 8C46     		mov	ip, r1
 803:../../../../../../Middlewares/Third_Party/LoRaWAN/Mac/region/RegionUS915.c ****                 {
 2223              		.loc 1 803 0
 2224 0294 8021     		movs	r1, #128
 810:../../../../../../Middlewares/Third_Party/LoRaWAN/Mac/region/RegionUS915.c ****                     }
 2225              		.loc 1 810 0
 2226 0296 FF20     		movs	r0, #255
 2227              	.LVL192:
 2228 0298 1BB2     		sxth	r3, r3
 803:../../../../../../Middlewares/Third_Party/LoRaWAN/Mac/region/RegionUS915.c ****                 {
 2229              		.loc 1 803 0
 2230 029a 1142     		tst	r1, r2
 2231 029c 00D1     		bne	.LCB2012
 2232 029e 7BE7     		b	.L145	@long jump
 2233              	.LCB2012:
 2234              	.L129:
 815:../../../../../../Middlewares/Third_Party/LoRaWAN/Mac/region/RegionUS915.c ****                         // Enable the corresponding 500kHz channel
 2235              		.loc 1 815 0
 2236 02a0 6246     		mov	r2, ip
 2237 02a2 FA80     		strh	r2, [r7, #6]
 817:../../../../../../Middlewares/Third_Party/LoRaWAN/Mac/region/RegionUS915.c ****                         // cntChannelMask increment for uneven i
 2238              		.loc 1 817 0
 2239 02a4 8022     		movs	r2, #128
 2240 02a6 1343     		orrs	r3, r2
 2241 02a8 3B81     		strh	r3, [r7, #8]
 2242              	.LVL193:
ARM GAS  C:\Users\EBANO_~1\AppData\Local\Temp\ccFRmLE5.s 			page 61


 2243 02aa C3E6     		b	.L107
 2244              	.L147:
 2245              		.align	2
 2246              	.L146:
 2247 02ac 70030000 		.word	NvmCtx+880
 2248 02b0 00000000 		.word	NvmCtx
 2249 02b4 7E030000 		.word	894
 2250 02b8 72030000 		.word	882
 2251 02bc 82030000 		.word	898
 2252 02c0 76030000 		.word	886
 2253 02c4 FFFF0000 		.word	65535
 2254              	.LBE61:
 2255              	.LBE64:
 2256              		.cfi_endproc
 2257              	.LFE56:
 2258              		.size	RegionUS915LinkAdrReq, .-RegionUS915LinkAdrReq
 2259              		.global	__aeabi_uidivmod
 2260              		.section	.text.RegionUS915RxParamSetupReq,"ax",%progbits
 2261              		.align	1
 2262              		.p2align 2,,3
 2263              		.global	RegionUS915RxParamSetupReq
 2264              		.syntax unified
 2265              		.code	16
 2266              		.thumb_func
 2267              		.fpu softvfp
 2268              		.type	RegionUS915RxParamSetupReq, %function
 2269              	RegionUS915RxParamSetupReq:
 2270              	.LFB57:
 903:../../../../../../Middlewares/Third_Party/LoRaWAN/Mac/region/RegionUS915.c **** 
 904:../../../../../../Middlewares/Third_Party/LoRaWAN/Mac/region/RegionUS915.c **** uint8_t RegionUS915RxParamSetupReq( RxParamSetupReqParams_t* rxParamSetupReq )
 905:../../../../../../Middlewares/Third_Party/LoRaWAN/Mac/region/RegionUS915.c **** {
 2271              		.loc 1 905 0
 2272              		.cfi_startproc
 2273              		@ args = 0, pretend = 0, frame = 8
 2274              		@ frame_needed = 0, uses_anonymous_args = 0
 2275              	.LVL194:
 2276 0000 70B5     		push	{r4, r5, r6, lr}
 2277              	.LCFI20:
 2278              		.cfi_def_cfa_offset 16
 2279              		.cfi_offset 4, -16
 2280              		.cfi_offset 5, -12
 2281              		.cfi_offset 6, -8
 2282              		.cfi_offset 14, -4
 2283              	.LBB65:
 2284              	.LBB66:
 237:../../../../../../Middlewares/Third_Party/LoRaWAN/Mac/region/RegionUS915.c ****     {
 2285              		.loc 1 237 0
 2286 0002 1F4B     		ldr	r3, .L164
 2287              	.LBE66:
 2288              	.LBE65:
 906:../../../../../../Middlewares/Third_Party/LoRaWAN/Mac/region/RegionUS915.c ****     uint8_t status = 0x07;
 907:../../../../../../Middlewares/Third_Party/LoRaWAN/Mac/region/RegionUS915.c **** 
 908:../../../../../../Middlewares/Third_Party/LoRaWAN/Mac/region/RegionUS915.c ****     // Verify radio frequency
 909:../../../../../../Middlewares/Third_Party/LoRaWAN/Mac/region/RegionUS915.c ****     if( VerifyRfFreq( rxParamSetupReq->Frequency ) == false )
 2289              		.loc 1 909 0
 2290 0004 4568     		ldr	r5, [r0, #4]
 2291              	.LVL195:
ARM GAS  C:\Users\EBANO_~1\AppData\Local\Temp\ccFRmLE5.s 			page 62


 2292              	.LBB70:
 2293              	.LBB67:
 237:../../../../../../Middlewares/Third_Party/LoRaWAN/Mac/region/RegionUS915.c ****     {
 2294              		.loc 1 237 0
 2295 0006 9B6A     		ldr	r3, [r3, #40]
 2296              	.LBE67:
 2297              	.LBE70:
 905:../../../../../../Middlewares/Third_Party/LoRaWAN/Mac/region/RegionUS915.c ****     uint8_t status = 0x07;
 2298              		.loc 1 905 0
 2299 0008 82B0     		sub	sp, sp, #8
 2300              	.LCFI21:
 2301              		.cfi_def_cfa_offset 24
 905:../../../../../../Middlewares/Third_Party/LoRaWAN/Mac/region/RegionUS915.c ****     uint8_t status = 0x07;
 2302              		.loc 1 905 0
 2303 000a 0400     		movs	r4, r0
 2304              	.LBB71:
 2305              	.LBB68:
 237:../../../../../../Middlewares/Third_Party/LoRaWAN/Mac/region/RegionUS915.c ****     {
 2306              		.loc 1 237 0
 2307 000c 2800     		movs	r0, r5
 2308              	.LVL196:
 2309 000e 0193     		str	r3, [sp, #4]
 2310 0010 9847     		blx	r3
 2311              	.LVL197:
 2312 0012 0028     		cmp	r0, #0
 2313 0014 04D0     		beq	.L155
 243:../../../../../../Middlewares/Third_Party/LoRaWAN/Mac/region/RegionUS915.c ****         ( freq > US915_LAST_RX1_CHANNEL ) ||
 2314              		.loc 1 243 0
 2315 0016 1B4B     		ldr	r3, .L164+4
 2316 0018 E818     		adds	r0, r5, r3
 2317 001a 1B4B     		ldr	r3, .L164+8
 2318 001c 9842     		cmp	r0, r3
 2319 001e 26D9     		bls	.L163
 2320              	.L155:
 2321 0020 0425     		movs	r5, #4
 2322              	.LVL198:
 2323              	.LBE68:
 2324              	.LBE71:
 910:../../../../../../Middlewares/Third_Party/LoRaWAN/Mac/region/RegionUS915.c ****     {
 911:../../../../../../Middlewares/Third_Party/LoRaWAN/Mac/region/RegionUS915.c ****         status &= 0xFE; // Channel frequency KO
 2325              		.loc 1 911 0
 2326 0022 0626     		movs	r6, #6
 2327              	.L149:
 2328              	.LVL199:
 912:../../../../../../Middlewares/Third_Party/LoRaWAN/Mac/region/RegionUS915.c ****     }
 913:../../../../../../Middlewares/Third_Party/LoRaWAN/Mac/region/RegionUS915.c **** 
 914:../../../../../../Middlewares/Third_Party/LoRaWAN/Mac/region/RegionUS915.c ****     // Verify datarate
 915:../../../../../../Middlewares/Third_Party/LoRaWAN/Mac/region/RegionUS915.c ****     if( RegionCommonValueInRange( rxParamSetupReq->Datarate, US915_RX_MIN_DATARATE, US915_RX_MAX_DA
 2329              		.loc 1 915 0
 2330 0024 0020     		movs	r0, #0
 2331 0026 0D22     		movs	r2, #13
 2332 0028 2056     		ldrsb	r0, [r4, r0]
 2333 002a 0821     		movs	r1, #8
 2334 002c FFF7FEFF 		bl	RegionCommonValueInRange
 2335              	.LVL200:
 2336 0030 0028     		cmp	r0, #0
 2337 0032 00D0     		beq	.L150
ARM GAS  C:\Users\EBANO_~1\AppData\Local\Temp\ccFRmLE5.s 			page 63


 2338 0034 3500     		movs	r5, r6
 2339              	.L150:
 2340              	.LVL201:
 916:../../../../../../Middlewares/Third_Party/LoRaWAN/Mac/region/RegionUS915.c ****     {
 917:../../../../../../Middlewares/Third_Party/LoRaWAN/Mac/region/RegionUS915.c ****         status &= 0xFD; // Datarate KO
 918:../../../../../../Middlewares/Third_Party/LoRaWAN/Mac/region/RegionUS915.c ****     }
 919:../../../../../../Middlewares/Third_Party/LoRaWAN/Mac/region/RegionUS915.c ****     if( ( RegionCommonValueInRange( rxParamSetupReq->Datarate, DR_5, DR_7 ) == true ) ||
 2341              		.loc 1 919 0
 2342 0036 0020     		movs	r0, #0
 2343 0038 0722     		movs	r2, #7
 2344 003a 2056     		ldrsb	r0, [r4, r0]
 2345 003c 0521     		movs	r1, #5
 2346 003e FFF7FEFF 		bl	RegionCommonValueInRange
 2347              	.LVL202:
 2348 0042 0128     		cmp	r0, #1
 2349 0044 10D0     		beq	.L151
 2350              		.loc 1 919 0 is_stmt 0 discriminator 1
 2351 0046 0023     		movs	r3, #0
 2352 0048 E356     		ldrsb	r3, [r4, r3]
 2353 004a 0D2B     		cmp	r3, #13
 2354 004c 0CDC     		bgt	.L151
 2355              	.L152:
 920:../../../../../../Middlewares/Third_Party/LoRaWAN/Mac/region/RegionUS915.c ****         ( rxParamSetupReq->Datarate > DR_13 ) )
 921:../../../../../../Middlewares/Third_Party/LoRaWAN/Mac/region/RegionUS915.c ****     {
 922:../../../../../../Middlewares/Third_Party/LoRaWAN/Mac/region/RegionUS915.c ****         status &= 0xFD; // Datarate KO
 923:../../../../../../Middlewares/Third_Party/LoRaWAN/Mac/region/RegionUS915.c ****     }
 924:../../../../../../Middlewares/Third_Party/LoRaWAN/Mac/region/RegionUS915.c **** 
 925:../../../../../../Middlewares/Third_Party/LoRaWAN/Mac/region/RegionUS915.c ****     // Verify datarate offset
 926:../../../../../../Middlewares/Third_Party/LoRaWAN/Mac/region/RegionUS915.c ****     if( RegionCommonValueInRange( rxParamSetupReq->DrOffset, US915_MIN_RX1_DR_OFFSET, US915_MAX_RX1
 2356              		.loc 1 926 0 is_stmt 1
 2357 004e 0120     		movs	r0, #1
 2358 0050 0322     		movs	r2, #3
 2359 0052 2056     		ldrsb	r0, [r4, r0]
 2360 0054 0021     		movs	r1, #0
 2361 0056 FFF7FEFF 		bl	RegionCommonValueInRange
 2362              	.LVL203:
 2363 005a 0028     		cmp	r0, #0
 2364 005c 01D1     		bne	.L153
 927:../../../../../../Middlewares/Third_Party/LoRaWAN/Mac/region/RegionUS915.c ****     {
 928:../../../../../../Middlewares/Third_Party/LoRaWAN/Mac/region/RegionUS915.c ****         status &= 0xFB; // Rx1DrOffset range KO
 2365              		.loc 1 928 0
 2366 005e FB23     		movs	r3, #251
 2367 0060 1D40     		ands	r5, r3
 2368              	.LVL204:
 2369              	.L153:
 929:../../../../../../Middlewares/Third_Party/LoRaWAN/Mac/region/RegionUS915.c ****     }
 930:../../../../../../Middlewares/Third_Party/LoRaWAN/Mac/region/RegionUS915.c **** 
 931:../../../../../../Middlewares/Third_Party/LoRaWAN/Mac/region/RegionUS915.c ****     return status;
 932:../../../../../../Middlewares/Third_Party/LoRaWAN/Mac/region/RegionUS915.c **** }
 2370              		.loc 1 932 0
 2371 0062 2800     		movs	r0, r5
 2372 0064 02B0     		add	sp, sp, #8
 2373              		@ sp needed
 2374              	.LVL205:
 2375              	.LVL206:
 2376 0066 70BD     		pop	{r4, r5, r6, pc}
 2377              	.LVL207:
ARM GAS  C:\Users\EBANO_~1\AppData\Local\Temp\ccFRmLE5.s 			page 64


 2378              	.L151:
 922:../../../../../../Middlewares/Third_Party/LoRaWAN/Mac/region/RegionUS915.c ****     }
 2379              		.loc 1 922 0
 2380 0068 FD23     		movs	r3, #253
 2381 006a 1D40     		ands	r5, r3
 2382              	.LVL208:
 2383 006c EFE7     		b	.L152
 2384              	.LVL209:
 2385              	.L163:
 2386              	.LBB72:
 2387              	.LBB69:
 245:../../../../../../Middlewares/Third_Party/LoRaWAN/Mac/region/RegionUS915.c ****     {
 2388              		.loc 1 245 0
 2389 006e 0749     		ldr	r1, .L164+12
 2390 0070 FFF7FEFF 		bl	__aeabi_uidivmod
 2391              	.LVL210:
 244:../../../../../../Middlewares/Third_Party/LoRaWAN/Mac/region/RegionUS915.c ****         ( ( ( freq - ( uint32_t ) US915_FIRST_RX1_CHANNEL ) % ( uint32_t ) US915_STEPWIDTH_RX1_CHAN
 2392              		.loc 1 244 0
 2393 0074 0029     		cmp	r1, #0
 2394 0076 D3D1     		bne	.L155
 2395 0078 0525     		movs	r5, #5
 2396              	.LVL211:
 2397              	.LBE69:
 2398              	.LBE72:
 906:../../../../../../Middlewares/Third_Party/LoRaWAN/Mac/region/RegionUS915.c **** 
 2399              		.loc 1 906 0
 2400 007a 0726     		movs	r6, #7
 2401 007c D2E7     		b	.L149
 2402              	.L165:
 2403 007e C046     		.align	2
 2404              	.L164:
 2405 0080 00000000 		.word	Radio
 2406 0084 608FF7C8 		.word	-923300000
 2407 0088 40164000 		.word	4200000
 2408 008c C0270900 		.word	600000
 2409              		.cfi_endproc
 2410              	.LFE57:
 2411              		.size	RegionUS915RxParamSetupReq, .-RegionUS915RxParamSetupReq
 2412              		.section	.text.RegionUS915NewChannelReq,"ax",%progbits
 2413              		.align	1
 2414              		.p2align 2,,3
 2415              		.global	RegionUS915NewChannelReq
 2416              		.syntax unified
 2417              		.code	16
 2418              		.thumb_func
 2419              		.fpu softvfp
 2420              		.type	RegionUS915NewChannelReq, %function
 2421              	RegionUS915NewChannelReq:
 2422              	.LFB58:
 933:../../../../../../Middlewares/Third_Party/LoRaWAN/Mac/region/RegionUS915.c **** 
 934:../../../../../../Middlewares/Third_Party/LoRaWAN/Mac/region/RegionUS915.c **** uint8_t RegionUS915NewChannelReq( NewChannelReqParams_t* newChannelReq )
 935:../../../../../../Middlewares/Third_Party/LoRaWAN/Mac/region/RegionUS915.c **** {
 2423              		.loc 1 935 0
 2424              		.cfi_startproc
 2425              		@ args = 0, pretend = 0, frame = 0
 2426              		@ frame_needed = 0, uses_anonymous_args = 0
 2427              		@ link register save eliminated.
ARM GAS  C:\Users\EBANO_~1\AppData\Local\Temp\ccFRmLE5.s 			page 65


 2428              	.LVL212:
 936:../../../../../../Middlewares/Third_Party/LoRaWAN/Mac/region/RegionUS915.c ****     // Datarate and frequency KO
 937:../../../../../../Middlewares/Third_Party/LoRaWAN/Mac/region/RegionUS915.c ****     return 0;
 938:../../../../../../Middlewares/Third_Party/LoRaWAN/Mac/region/RegionUS915.c **** }
 2429              		.loc 1 938 0
 2430 0000 0020     		movs	r0, #0
 2431              	.LVL213:
 2432              		@ sp needed
 2433 0002 7047     		bx	lr
 2434              		.cfi_endproc
 2435              	.LFE58:
 2436              		.size	RegionUS915NewChannelReq, .-RegionUS915NewChannelReq
 2437              		.section	.text.RegionUS915TxParamSetupReq,"ax",%progbits
 2438              		.align	1
 2439              		.p2align 2,,3
 2440              		.global	RegionUS915TxParamSetupReq
 2441              		.syntax unified
 2442              		.code	16
 2443              		.thumb_func
 2444              		.fpu softvfp
 2445              		.type	RegionUS915TxParamSetupReq, %function
 2446              	RegionUS915TxParamSetupReq:
 2447              	.LFB59:
 939:../../../../../../Middlewares/Third_Party/LoRaWAN/Mac/region/RegionUS915.c **** 
 940:../../../../../../Middlewares/Third_Party/LoRaWAN/Mac/region/RegionUS915.c **** int8_t RegionUS915TxParamSetupReq( TxParamSetupReqParams_t* txParamSetupReq )
 941:../../../../../../Middlewares/Third_Party/LoRaWAN/Mac/region/RegionUS915.c **** {
 2448              		.loc 1 941 0
 2449              		.cfi_startproc
 2450              		@ args = 0, pretend = 0, frame = 0
 2451              		@ frame_needed = 0, uses_anonymous_args = 0
 2452              		@ link register save eliminated.
 2453              	.LVL214:
 942:../../../../../../Middlewares/Third_Party/LoRaWAN/Mac/region/RegionUS915.c ****     return -1;
 2454              		.loc 1 942 0
 2455 0000 0120     		movs	r0, #1
 2456              	.LVL215:
 943:../../../../../../Middlewares/Third_Party/LoRaWAN/Mac/region/RegionUS915.c **** }
 2457              		.loc 1 943 0
 2458              		@ sp needed
 2459 0002 4042     		rsbs	r0, r0, #0
 2460 0004 7047     		bx	lr
 2461              		.cfi_endproc
 2462              	.LFE59:
 2463              		.size	RegionUS915TxParamSetupReq, .-RegionUS915TxParamSetupReq
 2464 0006 C046     		.section	.text.RegionUS915DlChannelReq,"ax",%progbits
 2465              		.align	1
 2466              		.p2align 2,,3
 2467              		.global	RegionUS915DlChannelReq
 2468              		.syntax unified
 2469              		.code	16
 2470              		.thumb_func
 2471              		.fpu softvfp
 2472              		.type	RegionUS915DlChannelReq, %function
 2473              	RegionUS915DlChannelReq:
 2474              	.LFB70:
 2475              		.cfi_startproc
 2476              		@ args = 0, pretend = 0, frame = 0
ARM GAS  C:\Users\EBANO_~1\AppData\Local\Temp\ccFRmLE5.s 			page 66


 2477              		@ frame_needed = 0, uses_anonymous_args = 0
 2478              		@ link register save eliminated.
 2479 0000 0020     		movs	r0, #0
 2480              		@ sp needed
 2481 0002 7047     		bx	lr
 2482              		.cfi_endproc
 2483              	.LFE70:
 2484              		.size	RegionUS915DlChannelReq, .-RegionUS915DlChannelReq
 2485              		.section	.text.RegionUS915AlternateDr,"ax",%progbits
 2486              		.align	1
 2487              		.p2align 2,,3
 2488              		.global	RegionUS915AlternateDr
 2489              		.syntax unified
 2490              		.code	16
 2491              		.thumb_func
 2492              		.fpu softvfp
 2493              		.type	RegionUS915AlternateDr, %function
 2494              	RegionUS915AlternateDr:
 2495              	.LFB61:
 944:../../../../../../Middlewares/Third_Party/LoRaWAN/Mac/region/RegionUS915.c **** 
 945:../../../../../../Middlewares/Third_Party/LoRaWAN/Mac/region/RegionUS915.c **** uint8_t RegionUS915DlChannelReq( DlChannelReqParams_t* dlChannelReq )
 946:../../../../../../Middlewares/Third_Party/LoRaWAN/Mac/region/RegionUS915.c **** {
 947:../../../../../../Middlewares/Third_Party/LoRaWAN/Mac/region/RegionUS915.c ****     return 0;
 948:../../../../../../Middlewares/Third_Party/LoRaWAN/Mac/region/RegionUS915.c **** }
 949:../../../../../../Middlewares/Third_Party/LoRaWAN/Mac/region/RegionUS915.c **** 
 950:../../../../../../Middlewares/Third_Party/LoRaWAN/Mac/region/RegionUS915.c **** int8_t RegionUS915AlternateDr( int8_t currentDr, AlternateDrType_t type )
 951:../../../../../../Middlewares/Third_Party/LoRaWAN/Mac/region/RegionUS915.c **** {
 2496              		.loc 1 951 0
 2497              		.cfi_startproc
 2498              		@ args = 0, pretend = 0, frame = 0
 2499              		@ frame_needed = 0, uses_anonymous_args = 0
 2500              	.LVL216:
 2501              		.loc 1 951 0
 2502 0000 10B5     		push	{r4, lr}
 2503              	.LCFI22:
 2504              		.cfi_def_cfa_offset 8
 2505              		.cfi_offset 4, -8
 2506              		.cfi_offset 14, -4
 2507 0002 0A4B     		ldr	r3, .L174
 2508 0004 0A4A     		ldr	r2, .L174+4
 2509 0006 985C     		ldrb	r0, [r3, r2]
 2510              	.LVL217:
 952:../../../../../../Middlewares/Third_Party/LoRaWAN/Mac/region/RegionUS915.c ****     // Alternates the data rate according to the channel sequence:
 953:../../../../../../Middlewares/Third_Party/LoRaWAN/Mac/region/RegionUS915.c ****     // Eight times a 125kHz DR_0 and then one 500kHz DR_4 channel
 954:../../../../../../Middlewares/Third_Party/LoRaWAN/Mac/region/RegionUS915.c ****     if( type == ALTERNATE_DR )
 2511              		.loc 1 954 0
 2512 0008 0029     		cmp	r1, #0
 2513 000a 0BD1     		bne	.L170
 955:../../../../../../Middlewares/Third_Party/LoRaWAN/Mac/region/RegionUS915.c ****     {
 956:../../../../../../Middlewares/Third_Party/LoRaWAN/Mac/region/RegionUS915.c ****         NvmCtx.JoinTrialsCounter++;
 2514              		.loc 1 956 0
 2515 000c 0130     		adds	r0, r0, #1
 2516 000e C0B2     		uxtb	r0, r0
 2517              	.L171:
 2518 0010 074A     		ldr	r2, .L174+4
 957:../../../../../../Middlewares/Third_Party/LoRaWAN/Mac/region/RegionUS915.c ****     }
 958:../../../../../../Middlewares/Third_Party/LoRaWAN/Mac/region/RegionUS915.c ****     else
ARM GAS  C:\Users\EBANO_~1\AppData\Local\Temp\ccFRmLE5.s 			page 67


 959:../../../../../../Middlewares/Third_Party/LoRaWAN/Mac/region/RegionUS915.c ****     {
 960:../../../../../../Middlewares/Third_Party/LoRaWAN/Mac/region/RegionUS915.c ****         NvmCtx.JoinTrialsCounter--;
 961:../../../../../../Middlewares/Third_Party/LoRaWAN/Mac/region/RegionUS915.c ****     }
 962:../../../../../../Middlewares/Third_Party/LoRaWAN/Mac/region/RegionUS915.c **** 
 963:../../../../../../Middlewares/Third_Party/LoRaWAN/Mac/region/RegionUS915.c ****     if( NvmCtx.JoinTrialsCounter % 9 == 0 )
 2519              		.loc 1 963 0
 2520 0012 0921     		movs	r1, #9
 2521              	.LVL218:
 2522 0014 9854     		strb	r0, [r3, r2]
 2523 0016 FFF7FEFF 		bl	__aeabi_uidivmod
 2524              	.LVL219:
 2525 001a C9B2     		uxtb	r1, r1
 964:../../../../../../Middlewares/Third_Party/LoRaWAN/Mac/region/RegionUS915.c ****     {
 965:../../../../../../Middlewares/Third_Party/LoRaWAN/Mac/region/RegionUS915.c ****         // Use DR_4 every 9th times.
 966:../../../../../../Middlewares/Third_Party/LoRaWAN/Mac/region/RegionUS915.c ****         currentDr = DR_4;
 2526              		.loc 1 966 0
 2527 001c 4842     		rsbs	r0, r1, #0
 2528 001e 4841     		adcs	r0, r0, r1
 967:../../../../../../Middlewares/Third_Party/LoRaWAN/Mac/region/RegionUS915.c ****     }
 968:../../../../../../Middlewares/Third_Party/LoRaWAN/Mac/region/RegionUS915.c ****     else
 969:../../../../../../Middlewares/Third_Party/LoRaWAN/Mac/region/RegionUS915.c ****     {
 970:../../../../../../Middlewares/Third_Party/LoRaWAN/Mac/region/RegionUS915.c ****         currentDr = DR_0;
 971:../../../../../../Middlewares/Third_Party/LoRaWAN/Mac/region/RegionUS915.c ****     }
 972:../../../../../../Middlewares/Third_Party/LoRaWAN/Mac/region/RegionUS915.c ****     return currentDr;
 973:../../../../../../Middlewares/Third_Party/LoRaWAN/Mac/region/RegionUS915.c **** }
 2529              		.loc 1 973 0
 2530              		@ sp needed
 966:../../../../../../Middlewares/Third_Party/LoRaWAN/Mac/region/RegionUS915.c ****     }
 2531              		.loc 1 966 0
 2532 0020 8000     		lsls	r0, r0, #2
 2533              	.LVL220:
 2534              		.loc 1 973 0
 2535 0022 10BD     		pop	{r4, pc}
 2536              	.LVL221:
 2537              	.L170:
 960:../../../../../../Middlewares/Third_Party/LoRaWAN/Mac/region/RegionUS915.c ****     }
 2538              		.loc 1 960 0
 2539 0024 0138     		subs	r0, r0, #1
 2540 0026 C0B2     		uxtb	r0, r0
 2541 0028 F2E7     		b	.L171
 2542              	.L175:
 2543 002a C046     		.align	2
 2544              	.L174:
 2545 002c 00000000 		.word	NvmCtx
 2546 0030 95030000 		.word	917
 2547              		.cfi_endproc
 2548              	.LFE61:
 2549              		.size	RegionUS915AlternateDr, .-RegionUS915AlternateDr
 2550              		.section	.text.RegionUS915CalcBackOff,"ax",%progbits
 2551              		.align	1
 2552              		.p2align 2,,3
 2553              		.global	RegionUS915CalcBackOff
 2554              		.syntax unified
 2555              		.code	16
 2556              		.thumb_func
 2557              		.fpu softvfp
 2558              		.type	RegionUS915CalcBackOff, %function
ARM GAS  C:\Users\EBANO_~1\AppData\Local\Temp\ccFRmLE5.s 			page 68


 2559              	RegionUS915CalcBackOff:
 2560              	.LFB62:
 974:../../../../../../Middlewares/Third_Party/LoRaWAN/Mac/region/RegionUS915.c **** 
 975:../../../../../../Middlewares/Third_Party/LoRaWAN/Mac/region/RegionUS915.c **** void RegionUS915CalcBackOff( CalcBackOffParams_t* calcBackOff )
 976:../../../../../../Middlewares/Third_Party/LoRaWAN/Mac/region/RegionUS915.c **** {
 2561              		.loc 1 976 0
 2562              		.cfi_startproc
 2563              		@ args = 0, pretend = 0, frame = 24
 2564              		@ frame_needed = 0, uses_anonymous_args = 0
 2565              	.LVL222:
 977:../../../../../../Middlewares/Third_Party/LoRaWAN/Mac/region/RegionUS915.c ****     RegionCommonCalcBackOffParams_t calcBackOffParams;
 978:../../../../../../Middlewares/Third_Party/LoRaWAN/Mac/region/RegionUS915.c **** 
 979:../../../../../../Middlewares/Third_Party/LoRaWAN/Mac/region/RegionUS915.c ****     calcBackOffParams.Channels = NvmCtx.Channels;
 980:../../../../../../Middlewares/Third_Party/LoRaWAN/Mac/region/RegionUS915.c ****     calcBackOffParams.Bands = NvmCtx.Bands;
 2566              		.loc 1 980 0
 2567 0000 D821     		movs	r1, #216
 2568 0002 8900     		lsls	r1, r1, #2
 2569 0004 8C46     		mov	ip, r1
 976:../../../../../../Middlewares/Third_Party/LoRaWAN/Mac/region/RegionUS915.c ****     RegionCommonCalcBackOffParams_t calcBackOffParams;
 2570              		.loc 1 976 0
 2571 0006 00B5     		push	{lr}
 2572              	.LCFI23:
 2573              		.cfi_def_cfa_offset 4
 2574              		.cfi_offset 14, -4
 979:../../../../../../Middlewares/Third_Party/LoRaWAN/Mac/region/RegionUS915.c ****     calcBackOffParams.Bands = NvmCtx.Bands;
 2575              		.loc 1 979 0
 2576 0008 0B4A     		ldr	r2, .L177
 976:../../../../../../Middlewares/Third_Party/LoRaWAN/Mac/region/RegionUS915.c ****     RegionCommonCalcBackOffParams_t calcBackOffParams;
 2577              		.loc 1 976 0
 2578 000a 87B0     		sub	sp, sp, #28
 2579              	.LCFI24:
 2580              		.cfi_def_cfa_offset 32
 979:../../../../../../Middlewares/Third_Party/LoRaWAN/Mac/region/RegionUS915.c ****     calcBackOffParams.Bands = NvmCtx.Bands;
 2581              		.loc 1 979 0
 2582 000c 0192     		str	r2, [sp, #4]
 2583              		.loc 1 980 0
 2584 000e 6244     		add	r2, r2, ip
 2585 0010 0292     		str	r2, [sp, #8]
 981:../../../../../../Middlewares/Third_Party/LoRaWAN/Mac/region/RegionUS915.c ****     calcBackOffParams.LastTxIsJoinRequest = calcBackOff->LastTxIsJoinRequest;
 2586              		.loc 1 981 0
 2587 0012 4278     		ldrb	r2, [r0, #1]
 979:../../../../../../Middlewares/Third_Party/LoRaWAN/Mac/region/RegionUS915.c ****     calcBackOffParams.Bands = NvmCtx.Bands;
 2588              		.loc 1 979 0
 2589 0014 01AB     		add	r3, sp, #4
 2590              		.loc 1 981 0
 2591 0016 1A72     		strb	r2, [r3, #8]
 982:../../../../../../Middlewares/Third_Party/LoRaWAN/Mac/region/RegionUS915.c ****     calcBackOffParams.Joined = calcBackOff->Joined;
 2592              		.loc 1 982 0
 2593 0018 0278     		ldrb	r2, [r0]
 2594 001a 5A72     		strb	r2, [r3, #9]
 983:../../../../../../Middlewares/Third_Party/LoRaWAN/Mac/region/RegionUS915.c ****     calcBackOffParams.DutyCycleEnabled = calcBackOff->DutyCycleEnabled;
 2595              		.loc 1 983 0
 2596 001c 8278     		ldrb	r2, [r0, #2]
 2597 001e 9A72     		strb	r2, [r3, #10]
 984:../../../../../../Middlewares/Third_Party/LoRaWAN/Mac/region/RegionUS915.c ****     calcBackOffParams.Channel = calcBackOff->Channel;
 2598              		.loc 1 984 0
 2599 0020 C278     		ldrb	r2, [r0, #3]
ARM GAS  C:\Users\EBANO_~1\AppData\Local\Temp\ccFRmLE5.s 			page 69


 2600 0022 DA72     		strb	r2, [r3, #11]
 985:../../../../../../Middlewares/Third_Party/LoRaWAN/Mac/region/RegionUS915.c ****     calcBackOffParams.ElapsedTime = calcBackOff->ElapsedTime;
 2601              		.loc 1 985 0
 2602 0024 4268     		ldr	r2, [r0, #4]
 2603 0026 0492     		str	r2, [sp, #16]
 986:../../../../../../Middlewares/Third_Party/LoRaWAN/Mac/region/RegionUS915.c ****     calcBackOffParams.TxTimeOnAir = calcBackOff->TxTimeOnAir;
 2604              		.loc 1 986 0
 2605 0028 8268     		ldr	r2, [r0, #8]
 987:../../../../../../Middlewares/Third_Party/LoRaWAN/Mac/region/RegionUS915.c **** 
 988:../../../../../../Middlewares/Third_Party/LoRaWAN/Mac/region/RegionUS915.c ****     RegionCommonCalcBackOff( &calcBackOffParams );
 2606              		.loc 1 988 0
 2607 002a 1800     		movs	r0, r3
 2608              	.LVL223:
 986:../../../../../../Middlewares/Third_Party/LoRaWAN/Mac/region/RegionUS915.c ****     calcBackOffParams.TxTimeOnAir = calcBackOff->TxTimeOnAir;
 2609              		.loc 1 986 0
 2610 002c 0592     		str	r2, [sp, #20]
 2611              		.loc 1 988 0
 2612 002e FFF7FEFF 		bl	RegionCommonCalcBackOff
 2613              	.LVL224:
 989:../../../../../../Middlewares/Third_Party/LoRaWAN/Mac/region/RegionUS915.c **** }
 2614              		.loc 1 989 0
 2615 0032 07B0     		add	sp, sp, #28
 2616              		@ sp needed
 2617 0034 00BD     		pop	{pc}
 2618              	.L178:
 2619 0036 C046     		.align	2
 2620              	.L177:
 2621 0038 00000000 		.word	NvmCtx
 2622              		.cfi_endproc
 2623              	.LFE62:
 2624              		.size	RegionUS915CalcBackOff, .-RegionUS915CalcBackOff
 2625              		.section	.text.RegionUS915NextChannel,"ax",%progbits
 2626              		.align	1
 2627              		.p2align 2,,3
 2628              		.global	RegionUS915NextChannel
 2629              		.syntax unified
 2630              		.code	16
 2631              		.thumb_func
 2632              		.fpu softvfp
 2633              		.type	RegionUS915NextChannel, %function
 2634              	RegionUS915NextChannel:
 2635              	.LFB63:
 990:../../../../../../Middlewares/Third_Party/LoRaWAN/Mac/region/RegionUS915.c **** 
 991:../../../../../../Middlewares/Third_Party/LoRaWAN/Mac/region/RegionUS915.c **** LoRaMacStatus_t RegionUS915NextChannel( NextChanParams_t* nextChanParams, uint8_t* channel, TimerTi
 992:../../../../../../Middlewares/Third_Party/LoRaWAN/Mac/region/RegionUS915.c **** {
 2636              		.loc 1 992 0
 2637              		.cfi_startproc
 2638              		@ args = 0, pretend = 0, frame = 112
 2639              		@ frame_needed = 0, uses_anonymous_args = 0
 2640              	.LVL225:
 2641 0000 F0B5     		push	{r4, r5, r6, r7, lr}
 2642              	.LCFI25:
 2643              		.cfi_def_cfa_offset 20
 2644              		.cfi_offset 4, -20
 2645              		.cfi_offset 5, -16
 2646              		.cfi_offset 6, -12
 2647              		.cfi_offset 7, -8
ARM GAS  C:\Users\EBANO_~1\AppData\Local\Temp\ccFRmLE5.s 			page 70


 2648              		.cfi_offset 14, -4
 2649 0002 DE46     		mov	lr, fp
 2650 0004 4546     		mov	r5, r8
 2651 0006 5746     		mov	r7, r10
 2652 0008 4E46     		mov	r6, r9
 2653 000a E0B5     		push	{r5, r6, r7, lr}
 2654              	.LCFI26:
 2655              		.cfi_def_cfa_offset 36
 2656              		.cfi_offset 8, -36
 2657              		.cfi_offset 9, -32
 2658              		.cfi_offset 10, -28
 2659              		.cfi_offset 11, -24
 2660 000c 9DB0     		sub	sp, sp, #116
 2661              	.LCFI27:
 2662              		.cfi_def_cfa_offset 152
 2663              		.loc 1 992 0
 2664 000e 0691     		str	r1, [sp, #24]
 2665 0010 0492     		str	r2, [sp, #16]
 993:../../../../../../Middlewares/Third_Party/LoRaWAN/Mac/region/RegionUS915.c ****     uint8_t nbEnabledChannels = 0;
 994:../../../../../../Middlewares/Third_Party/LoRaWAN/Mac/region/RegionUS915.c ****     uint8_t delayTx = 0;
 995:../../../../../../Middlewares/Third_Party/LoRaWAN/Mac/region/RegionUS915.c ****     uint8_t enabledChannels[US915_MAX_NB_CHANNELS] = { 0 };
 2666              		.loc 1 995 0
 2667 0012 0021     		movs	r1, #0
 2668              	.LVL226:
 2669 0014 4822     		movs	r2, #72
 2670              	.LVL227:
 992:../../../../../../Middlewares/Third_Party/LoRaWAN/Mac/region/RegionUS915.c ****     uint8_t nbEnabledChannels = 0;
 2671              		.loc 1 992 0
 2672 0016 8346     		mov	fp, r0
 2673              		.loc 1 995 0
 2674 0018 0AA8     		add	r0, sp, #40
 2675              	.LVL228:
 992:../../../../../../Middlewares/Third_Party/LoRaWAN/Mac/region/RegionUS915.c ****     uint8_t nbEnabledChannels = 0;
 2676              		.loc 1 992 0
 2677 001a 1D00     		movs	r5, r3
 2678              		.loc 1 995 0
 2679 001c FFF7FEFF 		bl	memset
 2680              	.LVL229:
 996:../../../../../../Middlewares/Third_Party/LoRaWAN/Mac/region/RegionUS915.c ****     TimerTime_t nextTxDelay = 0;
 997:../../../../../../Middlewares/Third_Party/LoRaWAN/Mac/region/RegionUS915.c ****     uint8_t newChannelIndex;
 998:../../../../../../Middlewares/Third_Party/LoRaWAN/Mac/region/RegionUS915.c **** 
 999:../../../../../../Middlewares/Third_Party/LoRaWAN/Mac/region/RegionUS915.c ****     // Count 125kHz channels
1000:../../../../../../Middlewares/Third_Party/LoRaWAN/Mac/region/RegionUS915.c ****     if( RegionCommonCountChannels( NvmCtx.ChannelsMaskRemaining, 0, 4 ) == 0 )
 2681              		.loc 1 1000 0
 2682 0020 0422     		movs	r2, #4
 2683 0022 0021     		movs	r1, #0
 2684 0024 B748     		ldr	r0, .L263
 2685 0026 FFF7FEFF 		bl	RegionCommonCountChannels
 2686              	.LVL230:
 2687 002a 041E     		subs	r4, r0, #0
 2688 002c 00D1     		bne	.LCB2388
 2689 002e BEE0     		b	.L256	@long jump
 2690              	.LCB2388:
 2691              	.L180:
1001:../../../../../../Middlewares/Third_Party/LoRaWAN/Mac/region/RegionUS915.c ****     { // Reactivate default channels
1002:../../../../../../Middlewares/Third_Party/LoRaWAN/Mac/region/RegionUS915.c ****         RegionCommonChanMaskCopy( NvmCtx.ChannelsMaskRemaining, NvmCtx.ChannelsMask, 4  );
1003:../../../../../../Middlewares/Third_Party/LoRaWAN/Mac/region/RegionUS915.c **** 
ARM GAS  C:\Users\EBANO_~1\AppData\Local\Temp\ccFRmLE5.s 			page 71


1004:../../../../../../Middlewares/Third_Party/LoRaWAN/Mac/region/RegionUS915.c ****         NvmCtx.JoinChannelGroupsCurrentIndex = 0;
1005:../../../../../../Middlewares/Third_Party/LoRaWAN/Mac/region/RegionUS915.c ****     }
1006:../../../../../../Middlewares/Third_Party/LoRaWAN/Mac/region/RegionUS915.c ****     // Check other channels
1007:../../../../../../Middlewares/Third_Party/LoRaWAN/Mac/region/RegionUS915.c ****     if( nextChanParams->Datarate >= DR_4 )
 2692              		.loc 1 1007 0
 2693 0030 5B46     		mov	r3, fp
 2694 0032 1B7A     		ldrb	r3, [r3, #8]
 2695 0034 5BB2     		sxtb	r3, r3
 2696 0036 032B     		cmp	r3, #3
 2697 0038 06DD     		ble	.L181
1008:../../../../../../Middlewares/Third_Party/LoRaWAN/Mac/region/RegionUS915.c ****     {
1009:../../../../../../Middlewares/Third_Party/LoRaWAN/Mac/region/RegionUS915.c ****         if( ( NvmCtx.ChannelsMaskRemaining[4] & CHANNELS_MASK_500KHZ_MASK ) == 0 )
 2698              		.loc 1 1009 0
 2699 003a E122     		movs	r2, #225
 2700 003c B24B     		ldr	r3, .L263+4
 2701 003e 9200     		lsls	r2, r2, #2
 2702 0040 995C     		ldrb	r1, [r3, r2]
 2703 0042 0029     		cmp	r1, #0
 2704 0044 00D1     		bne	.LCB2403
 2705 0046 A5E0     		b	.L257	@long jump
 2706              	.LCB2403:
 2707              	.L181:
1010:../../../../../../Middlewares/Third_Party/LoRaWAN/Mac/region/RegionUS915.c ****         {
1011:../../../../../../Middlewares/Third_Party/LoRaWAN/Mac/region/RegionUS915.c ****             NvmCtx.ChannelsMaskRemaining[4] = NvmCtx.ChannelsMask[4];
1012:../../../../../../Middlewares/Third_Party/LoRaWAN/Mac/region/RegionUS915.c ****         }
1013:../../../../../../Middlewares/Third_Party/LoRaWAN/Mac/region/RegionUS915.c ****     }
1014:../../../../../../Middlewares/Third_Party/LoRaWAN/Mac/region/RegionUS915.c **** 
1015:../../../../../../Middlewares/Third_Party/LoRaWAN/Mac/region/RegionUS915.c ****     if( nextChanParams->AggrTimeOff <= TimerGetElapsedTime( nextChanParams->LastAggrTx ) )
 2708              		.loc 1 1015 0
 2709 0048 5B46     		mov	r3, fp
 2710 004a 5868     		ldr	r0, [r3, #4]
 2711 004c 1C68     		ldr	r4, [r3]
 2712 004e FFF7FEFF 		bl	TimerGetElapsedTime
 2713              	.LVL231:
 2714 0052 8442     		cmp	r4, r0
 2715 0054 00D9     		bls	.LCB2412
 2716 0056 91E0     		b	.L182	@long jump
 2717              	.LCB2412:
1016:../../../../../../Middlewares/Third_Party/LoRaWAN/Mac/region/RegionUS915.c ****     {
1017:../../../../../../Middlewares/Third_Party/LoRaWAN/Mac/region/RegionUS915.c ****         // Reset Aggregated time off
1018:../../../../../../Middlewares/Third_Party/LoRaWAN/Mac/region/RegionUS915.c ****         *aggregatedTimeOff = 0;
 2718              		.loc 1 1018 0
 2719 0058 0023     		movs	r3, #0
 2720 005a 2B60     		str	r3, [r5]
1019:../../../../../../Middlewares/Third_Party/LoRaWAN/Mac/region/RegionUS915.c **** 
1020:../../../../../../Middlewares/Third_Party/LoRaWAN/Mac/region/RegionUS915.c ****         // Update bands Time OFF
1021:../../../../../../Middlewares/Third_Party/LoRaWAN/Mac/region/RegionUS915.c ****         nextTxDelay = RegionCommonUpdateBandTimeOff( nextChanParams->Joined, nextChanParams->DutyCy
 2721              		.loc 1 1021 0
 2722 005c 5B46     		mov	r3, fp
 2723 005e AB4A     		ldr	r2, .L263+8
 2724 0060 997A     		ldrb	r1, [r3, #10]
 2725 0062 587A     		ldrb	r0, [r3, #9]
 2726 0064 0123     		movs	r3, #1
 2727 0066 FFF7FEFF 		bl	RegionCommonUpdateBandTimeOff
 2728              	.LVL232:
1022:../../../../../../Middlewares/Third_Party/LoRaWAN/Mac/region/RegionUS915.c **** 
1023:../../../../../../Middlewares/Third_Party/LoRaWAN/Mac/region/RegionUS915.c ****         // Search how many channels are enabled
ARM GAS  C:\Users\EBANO_~1\AppData\Local\Temp\ccFRmLE5.s 			page 72


1024:../../../../../../Middlewares/Third_Party/LoRaWAN/Mac/region/RegionUS915.c ****         nbEnabledChannels = CountNbOfEnabledChannels( nextChanParams->Datarate,
 2729              		.loc 1 1024 0
 2730 006a 5B46     		mov	r3, fp
 2731 006c A84A     		ldr	r2, .L263+12
1021:../../../../../../Middlewares/Third_Party/LoRaWAN/Mac/region/RegionUS915.c **** 
 2732              		.loc 1 1021 0
 2733 006e 0590     		str	r0, [sp, #20]
 2734              	.LVL233:
 2735 0070 9446     		mov	ip, r2
 2736              		.loc 1 1024 0
 2737 0072 1B7A     		ldrb	r3, [r3, #8]
 2738 0074 5A46     		mov	r2, fp
 2739 0076 5BB2     		sxtb	r3, r3
 2740 0078 0193     		str	r3, [sp, #4]
 2741              	.LVL234:
 2742 007a A44B     		ldr	r3, .L263+8
 2743              	.LVL235:
 2744              	.LBB83:
 2745              	.LBB84:
 2746              	.LBB85:
 2747              	.LBB86:
 267:../../../../../../Middlewares/Third_Party/LoRaWAN/Mac/region/RegionUS915.c ****             {
 2748              		.loc 1 267 0
 2749 007c 0127     		movs	r7, #1
 2750 007e 6344     		add	r3, r3, ip
 2751              	.LVL236:
 2752 0080 9A46     		mov	r10, r3
 2753              	.LBE86:
 2754              	.LBE85:
 2755              	.LBE84:
 2756              	.LBE83:
 2757              		.loc 1 1024 0
 2758 0082 9846     		mov	r8, r3
 2759 0084 0023     		movs	r3, #0
 2760 0086 9946     		mov	r9, r3
 2761 0088 9B46     		mov	fp, r3
 2762              	.LVL237:
 2763 008a A04E     		ldr	r6, .L263+8
 2764              	.LVL238:
 2765              	.LBB94:
 2766              	.LBB91:
 261:../../../../../../Middlewares/Third_Party/LoRaWAN/Mac/region/RegionUS915.c **** 
 2767              		.loc 1 261 0
 2768 008c 0393     		str	r3, [sp, #12]
 2769 008e 1C36     		adds	r6, r6, #28
 2770              	.LVL239:
 2771 0090 0792     		str	r2, [sp, #28]
 2772              	.LVL240:
 2773              	.L183:
 2774 0092 4B46     		mov	r3, r9
 2775              	.LBE91:
 2776              	.LBE94:
 992:../../../../../../Middlewares/Third_Party/LoRaWAN/Mac/region/RegionUS915.c ****     uint8_t nbEnabledChannels = 0;
 2777              		.loc 1 992 0
 2778 0094 0024     		movs	r4, #0
 2779 0096 DBB2     		uxtb	r3, r3
 2780 0098 0293     		str	r3, [sp, #8]
ARM GAS  C:\Users\EBANO_~1\AppData\Local\Temp\ccFRmLE5.s 			page 73


 2781              	.LVL241:
 2782              	.L186:
 2783              	.LBB95:
 2784              	.LBB92:
 2785              	.LBB89:
 2786              	.LBB87:
 267:../../../../../../Middlewares/Third_Party/LoRaWAN/Mac/region/RegionUS915.c ****             {
 2787              		.loc 1 267 0
 2788 009a 3388     		ldrh	r3, [r6]
 2789 009c 2341     		asrs	r3, r3, r4
 2790 009e 1F42     		tst	r7, r3
 2791 00a0 2AD0     		beq	.L184
 2792 00a2 4B46     		mov	r3, r9
 2793 00a4 1A19     		adds	r2, r3, r4
 2794 00a6 5300     		lsls	r3, r2, #1
 2795 00a8 9B18     		adds	r3, r3, r2
 269:../../../../../../Middlewares/Third_Party/LoRaWAN/Mac/region/RegionUS915.c ****                 { // Check if the channel is enabled
 2796              		.loc 1 269 0
 2797 00aa 4246     		mov	r2, r8
 2798 00ac 6500     		lsls	r5, r4, #1
 2799 00ae 2D19     		adds	r5, r5, r4
 2800 00b0 AD00     		lsls	r5, r5, #2
 2801 00b2 5259     		ldr	r2, [r2, r5]
 2802 00b4 9B00     		lsls	r3, r3, #2
 2803 00b6 5344     		add	r3, r3, r10
 2804 00b8 002A     		cmp	r2, #0
 2805 00ba 1DD0     		beq	.L184
 274:../../../../../../Middlewares/Third_Party/LoRaWAN/Mac/region/RegionUS915.c ****                 { // Check if the current channel selection supports the given datarate
 2806              		.loc 1 274 0
 2807 00bc 197A     		ldrb	r1, [r3, #8]
 273:../../../../../../Middlewares/Third_Party/LoRaWAN/Mac/region/RegionUS915.c ****                                               channels[i + j].DrRange.Fields.Max ) == false )
 2808              		.loc 1 273 0
 2809 00be 0198     		ldr	r0, [sp, #4]
 274:../../../../../../Middlewares/Third_Party/LoRaWAN/Mac/region/RegionUS915.c ****                 { // Check if the current channel selection supports the given datarate
 2810              		.loc 1 274 0
 2811 00c0 4AB2     		sxtb	r2, r1
 273:../../../../../../Middlewares/Third_Party/LoRaWAN/Mac/region/RegionUS915.c ****                                               channels[i + j].DrRange.Fields.Max ) == false )
 2812              		.loc 1 273 0
 2813 00c2 0907     		lsls	r1, r1, #28
 2814 00c4 1211     		asrs	r2, r2, #4
 2815 00c6 0917     		asrs	r1, r1, #28
 2816 00c8 FFF7FEFF 		bl	RegionCommonValueInRange
 2817              	.LVL242:
 2818 00cc 0028     		cmp	r0, #0
 2819 00ce 13D0     		beq	.L184
 278:../../../../../../Middlewares/Third_Party/LoRaWAN/Mac/region/RegionUS915.c ****                 { // Check if the band is available for transmission
 2820              		.loc 1 278 0
 2821 00d0 8E4A     		ldr	r2, .L263+8
 2822              	.LVL243:
 2823 00d2 4544     		add	r5, r5, r8
 2824 00d4 9446     		mov	ip, r2
 2825 00d6 6B7A     		ldrb	r3, [r5, #9]
 2826 00d8 1B01     		lsls	r3, r3, #4
 2827 00da 6344     		add	r3, r3, ip
 2828 00dc DB68     		ldr	r3, [r3, #12]
 2829 00de 002B     		cmp	r3, #0
 2830 00e0 47D1     		bne	.L258
ARM GAS  C:\Users\EBANO_~1\AppData\Local\Temp\ccFRmLE5.s 			page 74


 283:../../../../../../Middlewares/Third_Party/LoRaWAN/Mac/region/RegionUS915.c ****             }
 2831              		.loc 1 283 0
 2832 00e2 5B46     		mov	r3, fp
 2833 00e4 0825     		movs	r5, #8
 2834 00e6 0133     		adds	r3, r3, #1
 2835              	.LVL244:
 2836 00e8 5846     		mov	r0, fp
 2837 00ea DBB2     		uxtb	r3, r3
 2838 00ec 9B46     		mov	fp, r3
 2839 00ee 029A     		ldr	r2, [sp, #8]
 2840              	.LVL245:
 2841 00f0 08A9     		add	r1, sp, #32
 2842 00f2 1219     		adds	r2, r2, r4
 2843 00f4 4919     		adds	r1, r1, r5
 2844 00f6 0A54     		strb	r2, [r1, r0]
 2845              	.LVL246:
 2846              	.L184:
 2847 00f8 0134     		adds	r4, r4, #1
 2848              	.LVL247:
 265:../../../../../../Middlewares/Third_Party/LoRaWAN/Mac/region/RegionUS915.c ****         {
 2849              		.loc 1 265 0
 2850 00fa 102C     		cmp	r4, #16
 2851 00fc CDD1     		bne	.L186
 2852              	.LVL248:
 2853 00fe 1023     		movs	r3, #16
 2854 0100 9C46     		mov	ip, r3
 2855 0102 B033     		adds	r3, r3, #176
 2856 0104 E144     		add	r9, r9, ip
 2857              	.LVL249:
 2858 0106 9C46     		mov	ip, r3
 2859              	.LBE87:
 263:../../../../../../Middlewares/Third_Party/LoRaWAN/Mac/region/RegionUS915.c ****     {
 2860              		.loc 1 263 0
 2861 0108 4B46     		mov	r3, r9
 2862 010a 0236     		adds	r6, r6, #2
 2863 010c E044     		add	r8, r8, ip
 2864 010e 502B     		cmp	r3, #80
 2865 0110 BFD1     		bne	.L183
 2866 0112 5B46     		mov	r3, fp
 2867 0114 5946     		mov	r1, fp
 2868 0116 079A     		ldr	r2, [sp, #28]
 2869              	.LVL250:
 2870              	.LBE89:
 2871              	.LBE92:
 2872              	.LBE95:
1025:../../../../../../Middlewares/Third_Party/LoRaWAN/Mac/region/RegionUS915.c ****                                                       NvmCtx.ChannelsMaskRemaining, NvmCtx.Channels
1026:../../../../../../Middlewares/Third_Party/LoRaWAN/Mac/region/RegionUS915.c ****                                                       NvmCtx.Bands, enabledChannels, &delayTx );
1027:../../../../../../Middlewares/Third_Party/LoRaWAN/Mac/region/RegionUS915.c ****     }
1028:../../../../../../Middlewares/Third_Party/LoRaWAN/Mac/region/RegionUS915.c ****     else
1029:../../../../../../Middlewares/Third_Party/LoRaWAN/Mac/region/RegionUS915.c ****     {
1030:../../../../../../Middlewares/Third_Party/LoRaWAN/Mac/region/RegionUS915.c ****         delayTx++;
1031:../../../../../../Middlewares/Third_Party/LoRaWAN/Mac/region/RegionUS915.c ****         nextTxDelay = nextChanParams->AggrTimeOff - TimerGetElapsedTime( nextChanParams->LastAggrTx
1032:../../../../../../Middlewares/Third_Party/LoRaWAN/Mac/region/RegionUS915.c ****     }
1033:../../../../../../Middlewares/Third_Party/LoRaWAN/Mac/region/RegionUS915.c **** 
1034:../../../../../../Middlewares/Third_Party/LoRaWAN/Mac/region/RegionUS915.c ****     if( nbEnabledChannels > 0 )
 2873              		.loc 1 1034 0
 2874 0118 002B     		cmp	r3, #0
ARM GAS  C:\Users\EBANO_~1\AppData\Local\Temp\ccFRmLE5.s 			page 75


 2875 011a 40D0     		beq	.L259
1035:../../../../../../Middlewares/Third_Party/LoRaWAN/Mac/region/RegionUS915.c ****     {
1036:../../../../../../Middlewares/Third_Party/LoRaWAN/Mac/region/RegionUS915.c ****         if( nextChanParams->Joined == true )
 2876              		.loc 1 1036 0
 2877 011c 537A     		ldrb	r3, [r2, #9]
 2878 011e 002B     		cmp	r3, #0
 2879 0120 4ED1     		bne	.L260
1037:../../../../../../Middlewares/Third_Party/LoRaWAN/Mac/region/RegionUS915.c ****         {
1038:../../../../../../Middlewares/Third_Party/LoRaWAN/Mac/region/RegionUS915.c ****             // Choose randomly on of the remaining channels
1039:../../../../../../Middlewares/Third_Party/LoRaWAN/Mac/region/RegionUS915.c ****             *channel = enabledChannels[randr( 0, nbEnabledChannels - 1 )];
1040:../../../../../../Middlewares/Third_Party/LoRaWAN/Mac/region/RegionUS915.c ****         }
1041:../../../../../../Middlewares/Third_Party/LoRaWAN/Mac/region/RegionUS915.c ****         else
1042:../../../../../../Middlewares/Third_Party/LoRaWAN/Mac/region/RegionUS915.c ****         {
1043:../../../../../../Middlewares/Third_Party/LoRaWAN/Mac/region/RegionUS915.c ****             // For rapid network acquisition in mixed gateway channel plan environments, the device
1044:../../../../../../Middlewares/Third_Party/LoRaWAN/Mac/region/RegionUS915.c ****             // follow a random channel selection sequence. It probes alternating one out of a
1045:../../../../../../Middlewares/Third_Party/LoRaWAN/Mac/region/RegionUS915.c ****             // group of eight 125 kHz channels followed by probing one 500 kHz channel each pass.
1046:../../../../../../Middlewares/Third_Party/LoRaWAN/Mac/region/RegionUS915.c ****             // Each time a 125 kHz channel will be selected from another group.
1047:../../../../../../Middlewares/Third_Party/LoRaWAN/Mac/region/RegionUS915.c **** 
1048:../../../../../../Middlewares/Third_Party/LoRaWAN/Mac/region/RegionUS915.c ****             // 125kHz Channels (0 - 63) DR0
1049:../../../../../../Middlewares/Third_Party/LoRaWAN/Mac/region/RegionUS915.c ****             if( nextChanParams->Datarate == DR_0 )
 2880              		.loc 1 1049 0
 2881 0122 137A     		ldrb	r3, [r2, #8]
 2882 0124 5BB2     		sxtb	r3, r3
 2883 0126 002B     		cmp	r3, #0
 2884 0128 55D0     		beq	.L193
 2885              	.LVL251:
 2886              	.LBB96:
1050:../../../../../../Middlewares/Third_Party/LoRaWAN/Mac/region/RegionUS915.c ****             {
1051:../../../../../../Middlewares/Third_Party/LoRaWAN/Mac/region/RegionUS915.c ****                 if( ComputeNext125kHzJoinChannel( &newChannelIndex ) == LORAMAC_STATUS_PARAMETER_IN
1052:../../../../../../Middlewares/Third_Party/LoRaWAN/Mac/region/RegionUS915.c ****                 {
1053:../../../../../../Middlewares/Third_Party/LoRaWAN/Mac/region/RegionUS915.c ****                     return LORAMAC_STATUS_PARAMETER_INVALID;
1054:../../../../../../Middlewares/Third_Party/LoRaWAN/Mac/region/RegionUS915.c ****                 }
1055:../../../../../../Middlewares/Third_Party/LoRaWAN/Mac/region/RegionUS915.c ****                 *channel = newChannelIndex;
1056:../../../../../../Middlewares/Third_Party/LoRaWAN/Mac/region/RegionUS915.c ****             }
1057:../../../../../../Middlewares/Third_Party/LoRaWAN/Mac/region/RegionUS915.c ****             // 500kHz Channels (64 - 71) DR4
1058:../../../../../../Middlewares/Third_Party/LoRaWAN/Mac/region/RegionUS915.c ****             else
1059:../../../../../../Middlewares/Third_Party/LoRaWAN/Mac/region/RegionUS915.c ****             {
1060:../../../../../../Middlewares/Third_Party/LoRaWAN/Mac/region/RegionUS915.c ****                 // Choose the next available channel
1061:../../../../../../Middlewares/Third_Party/LoRaWAN/Mac/region/RegionUS915.c ****                 uint8_t i = 0;
1062:../../../../../../Middlewares/Third_Party/LoRaWAN/Mac/region/RegionUS915.c ****                 while( ( ( NvmCtx.ChannelsMaskRemaining[4] & CHANNELS_MASK_500KHZ_MASK ) & ( 1 << i
 2887              		.loc 1 1062 0
 2888 012a E123     		movs	r3, #225
 2889 012c 764A     		ldr	r2, .L263+4
 2890 012e 9B00     		lsls	r3, r3, #2
 2891 0130 D15A     		ldrh	r1, [r2, r3]
 2892 0132 D45C     		ldrb	r4, [r2, r3]
 2893 0134 0120     		movs	r0, #1
1061:../../../../../../Middlewares/Third_Party/LoRaWAN/Mac/region/RegionUS915.c ****                 while( ( ( NvmCtx.ChannelsMaskRemaining[4] & CHANNELS_MASK_500KHZ_MASK ) & ( 1 << i
 2894              		.loc 1 1061 0
 2895 0136 0023     		movs	r3, #0
 2896              		.loc 1 1062 0
 2897 0138 CA07     		lsls	r2, r1, #31
 2898 013a 01D5     		bpl	.L194
 2899 013c D2E0     		b	.L261
 2900              	.LVL252:
 2901              	.L222:
1063:../../../../../../Middlewares/Third_Party/LoRaWAN/Mac/region/RegionUS915.c ****                 {
ARM GAS  C:\Users\EBANO_~1\AppData\Local\Temp\ccFRmLE5.s 			page 76


1064:../../../../../../Middlewares/Third_Party/LoRaWAN/Mac/region/RegionUS915.c ****                     i++;
 2902              		.loc 1 1064 0
 2903 013e 1300     		movs	r3, r2
 2904              	.LVL253:
 2905              	.L194:
1062:../../../../../../Middlewares/Third_Party/LoRaWAN/Mac/region/RegionUS915.c ****                 {
 2906              		.loc 1 1062 0
 2907 0140 2100     		movs	r1, r4
 2908              		.loc 1 1064 0
 2909 0142 5A1C     		adds	r2, r3, #1
 2910 0144 D2B2     		uxtb	r2, r2
 2911              	.LVL254:
1062:../../../../../../Middlewares/Third_Party/LoRaWAN/Mac/region/RegionUS915.c ****                 {
 2912              		.loc 1 1062 0
 2913 0146 1141     		asrs	r1, r1, r2
 2914 0148 0842     		tst	r0, r1
 2915 014a F8D0     		beq	.L222
 2916 014c 4133     		adds	r3, r3, #65
 2917 014e D9B2     		uxtb	r1, r3
 2918              	.LVL255:
 2919              	.L195:
1065:../../../../../../Middlewares/Third_Party/LoRaWAN/Mac/region/RegionUS915.c ****                 }
1066:../../../../../../Middlewares/Third_Party/LoRaWAN/Mac/region/RegionUS915.c ****                 *channel = 64 + i;
 2920              		.loc 1 1066 0
 2921 0150 069B     		ldr	r3, [sp, #24]
 2922 0152 1970     		strb	r1, [r3]
 2923              	.L192:
 2924              	.LBE96:
1067:../../../../../../Middlewares/Third_Party/LoRaWAN/Mac/region/RegionUS915.c ****             }
1068:../../../../../../Middlewares/Third_Party/LoRaWAN/Mac/region/RegionUS915.c ****         }
1069:../../../../../../Middlewares/Third_Party/LoRaWAN/Mac/region/RegionUS915.c **** 
1070:../../../../../../Middlewares/Third_Party/LoRaWAN/Mac/region/RegionUS915.c ****         // Disable the channel in the mask
1071:../../../../../../Middlewares/Third_Party/LoRaWAN/Mac/region/RegionUS915.c ****         RegionCommonChanDisable( NvmCtx.ChannelsMaskRemaining, *channel, US915_MAX_NB_CHANNELS );
 2925              		.loc 1 1071 0
 2926 0154 4822     		movs	r2, #72
 2927 0156 6B48     		ldr	r0, .L263
 2928 0158 FFF7FEFF 		bl	RegionCommonChanDisable
 2929              	.LVL256:
1072:../../../../../../Middlewares/Third_Party/LoRaWAN/Mac/region/RegionUS915.c **** 
1073:../../../../../../Middlewares/Third_Party/LoRaWAN/Mac/region/RegionUS915.c ****         *time = 0;
 2930              		.loc 1 1073 0
 2931 015c 0023     		movs	r3, #0
1074:../../../../../../Middlewares/Third_Party/LoRaWAN/Mac/region/RegionUS915.c ****         return LORAMAC_STATUS_OK;
 2932              		.loc 1 1074 0
 2933 015e 0020     		movs	r0, #0
1073:../../../../../../Middlewares/Third_Party/LoRaWAN/Mac/region/RegionUS915.c ****         return LORAMAC_STATUS_OK;
 2934              		.loc 1 1073 0
 2935 0160 049A     		ldr	r2, [sp, #16]
 2936 0162 1360     		str	r3, [r2]
 2937              	.LVL257:
 2938              	.L254:
1075:../../../../../../Middlewares/Third_Party/LoRaWAN/Mac/region/RegionUS915.c ****     }
1076:../../../../../../Middlewares/Third_Party/LoRaWAN/Mac/region/RegionUS915.c ****     else
1077:../../../../../../Middlewares/Third_Party/LoRaWAN/Mac/region/RegionUS915.c ****     {
1078:../../../../../../Middlewares/Third_Party/LoRaWAN/Mac/region/RegionUS915.c ****         if( delayTx > 0 )
1079:../../../../../../Middlewares/Third_Party/LoRaWAN/Mac/region/RegionUS915.c ****         {
1080:../../../../../../Middlewares/Third_Party/LoRaWAN/Mac/region/RegionUS915.c ****             // Delay transmission due to AggregatedTimeOff or to a band time off
ARM GAS  C:\Users\EBANO_~1\AppData\Local\Temp\ccFRmLE5.s 			page 77


1081:../../../../../../Middlewares/Third_Party/LoRaWAN/Mac/region/RegionUS915.c ****             *time = nextTxDelay;
1082:../../../../../../Middlewares/Third_Party/LoRaWAN/Mac/region/RegionUS915.c ****             return LORAMAC_STATUS_DUTYCYCLE_RESTRICTED;
1083:../../../../../../Middlewares/Third_Party/LoRaWAN/Mac/region/RegionUS915.c ****         }
1084:../../../../../../Middlewares/Third_Party/LoRaWAN/Mac/region/RegionUS915.c ****         // Datarate not supported by any channel
1085:../../../../../../Middlewares/Third_Party/LoRaWAN/Mac/region/RegionUS915.c ****         *time = 0;
1086:../../../../../../Middlewares/Third_Party/LoRaWAN/Mac/region/RegionUS915.c ****         return LORAMAC_STATUS_NO_CHANNEL_FOUND;
1087:../../../../../../Middlewares/Third_Party/LoRaWAN/Mac/region/RegionUS915.c ****     }
1088:../../../../../../Middlewares/Third_Party/LoRaWAN/Mac/region/RegionUS915.c **** }
 2939              		.loc 1 1088 0
 2940 0164 1DB0     		add	sp, sp, #116
 2941              		@ sp needed
 2942 0166 3CBC     		pop	{r2, r3, r4, r5}
 2943 0168 9046     		mov	r8, r2
 2944 016a 9946     		mov	r9, r3
 2945 016c A246     		mov	r10, r4
 2946 016e AB46     		mov	fp, r5
 2947 0170 F0BD     		pop	{r4, r5, r6, r7, pc}
 2948              	.LVL258:
 2949              	.L258:
 2950              	.LBB97:
 2951              	.LBB93:
 2952              	.LBB90:
 2953              	.LBB88:
 280:../../../../../../Middlewares/Third_Party/LoRaWAN/Mac/region/RegionUS915.c ****                     continue;
 2954              		.loc 1 280 0
 2955 0172 039B     		ldr	r3, [sp, #12]
 2956 0174 0133     		adds	r3, r3, #1
 2957 0176 DBB2     		uxtb	r3, r3
 2958 0178 0393     		str	r3, [sp, #12]
 2959              	.LVL259:
 2960 017a BDE7     		b	.L184
 2961              	.LVL260:
 2962              	.L182:
 2963              	.LBE88:
 2964              	.LBE90:
 2965              	.LBE93:
 2966              	.LBE97:
1031:../../../../../../Middlewares/Third_Party/LoRaWAN/Mac/region/RegionUS915.c ****     }
 2967              		.loc 1 1031 0
 2968 017c 5B46     		mov	r3, fp
 2969 017e 5868     		ldr	r0, [r3, #4]
 2970 0180 1C68     		ldr	r4, [r3]
 2971 0182 FFF7FEFF 		bl	TimerGetElapsedTime
 2972              	.LVL261:
 2973 0186 231A     		subs	r3, r4, r0
 2974 0188 0593     		str	r3, [sp, #20]
 2975              	.LVL262:
 2976              	.L190:
1081:../../../../../../Middlewares/Third_Party/LoRaWAN/Mac/region/RegionUS915.c ****             return LORAMAC_STATUS_DUTYCYCLE_RESTRICTED;
 2977              		.loc 1 1081 0
 2978 018a 049B     		ldr	r3, [sp, #16]
 2979 018c 059A     		ldr	r2, [sp, #20]
1082:../../../../../../Middlewares/Third_Party/LoRaWAN/Mac/region/RegionUS915.c ****         }
 2980              		.loc 1 1082 0
 2981 018e 0B20     		movs	r0, #11
1081:../../../../../../Middlewares/Third_Party/LoRaWAN/Mac/region/RegionUS915.c ****             return LORAMAC_STATUS_DUTYCYCLE_RESTRICTED;
 2982              		.loc 1 1081 0
ARM GAS  C:\Users\EBANO_~1\AppData\Local\Temp\ccFRmLE5.s 			page 78


 2983 0190 1A60     		str	r2, [r3]
1082:../../../../../../Middlewares/Third_Party/LoRaWAN/Mac/region/RegionUS915.c ****         }
 2984              		.loc 1 1082 0
 2985 0192 E7E7     		b	.L254
 2986              	.LVL263:
 2987              	.L257:
1011:../../../../../../Middlewares/Third_Party/LoRaWAN/Mac/region/RegionUS915.c ****         }
 2988              		.loc 1 1011 0
 2989 0194 DE21     		movs	r1, #222
 2990 0196 8900     		lsls	r1, r1, #2
 2991 0198 595A     		ldrh	r1, [r3, r1]
 2992 019a 9952     		strh	r1, [r3, r2]
 2993 019c 54E7     		b	.L181
 2994              	.LVL264:
 2995              	.L259:
1078:../../../../../../Middlewares/Third_Party/LoRaWAN/Mac/region/RegionUS915.c ****         {
 2996              		.loc 1 1078 0
 2997 019e 039B     		ldr	r3, [sp, #12]
 2998 01a0 002B     		cmp	r3, #0
 2999 01a2 F2D1     		bne	.L190
 3000 01a4 1A00     		movs	r2, r3
1085:../../../../../../Middlewares/Third_Party/LoRaWAN/Mac/region/RegionUS915.c ****         return LORAMAC_STATUS_NO_CHANNEL_FOUND;
 3001              		.loc 1 1085 0
 3002 01a6 049B     		ldr	r3, [sp, #16]
1086:../../../../../../Middlewares/Third_Party/LoRaWAN/Mac/region/RegionUS915.c ****     }
 3003              		.loc 1 1086 0
 3004 01a8 0C20     		movs	r0, #12
1085:../../../../../../Middlewares/Third_Party/LoRaWAN/Mac/region/RegionUS915.c ****         return LORAMAC_STATUS_NO_CHANNEL_FOUND;
 3005              		.loc 1 1085 0
 3006 01aa 1A60     		str	r2, [r3]
1086:../../../../../../Middlewares/Third_Party/LoRaWAN/Mac/region/RegionUS915.c ****     }
 3007              		.loc 1 1086 0
 3008 01ac DAE7     		b	.L254
 3009              	.LVL265:
 3010              	.L256:
1002:../../../../../../Middlewares/Third_Party/LoRaWAN/Mac/region/RegionUS915.c **** 
 3011              		.loc 1 1002 0
 3012 01ae 5549     		ldr	r1, .L263
 3013 01b0 0422     		movs	r2, #4
 3014 01b2 0C39     		subs	r1, r1, #12
 3015 01b4 5348     		ldr	r0, .L263
 3016 01b6 FFF7FEFF 		bl	RegionCommonChanMaskCopy
 3017              	.LVL266:
1004:../../../../../../Middlewares/Third_Party/LoRaWAN/Mac/region/RegionUS915.c ****     }
 3018              		.loc 1 1004 0
 3019 01ba 524B     		ldr	r3, .L263
 3020 01bc 1C76     		strb	r4, [r3, #24]
 3021 01be 37E7     		b	.L180
 3022              	.LVL267:
 3023              	.L260:
1039:../../../../../../Middlewares/Third_Party/LoRaWAN/Mac/region/RegionUS915.c ****         }
 3024              		.loc 1 1039 0
 3025 01c0 0139     		subs	r1, r1, #1
 3026 01c2 0020     		movs	r0, #0
 3027 01c4 FFF7FEFF 		bl	randr
 3028              	.LVL268:
 3029 01c8 0822     		movs	r2, #8
ARM GAS  C:\Users\EBANO_~1\AppData\Local\Temp\ccFRmLE5.s 			page 79


 3030 01ca 08AB     		add	r3, sp, #32
 3031 01cc 9B18     		adds	r3, r3, r2
 3032 01ce 195C     		ldrb	r1, [r3, r0]
 3033 01d0 069B     		ldr	r3, [sp, #24]
 3034 01d2 1970     		strb	r1, [r3]
 3035 01d4 BEE7     		b	.L192
 3036              	.L193:
 3037              	.LVL269:
 3038              	.LBB98:
 3039              	.LBB99:
 146:../../../../../../Middlewares/Third_Party/LoRaWAN/Mac/region/RegionUS915.c ****     uint8_t availableChannels = 0;
 3040              		.loc 1 146 0
 3041 01d6 0822     		movs	r2, #8
 3042 01d8 0021     		movs	r1, #0
 3043 01da 08A8     		add	r0, sp, #32
 3044 01dc FFF7FEFF 		bl	memset
 3045              	.LVL270:
 148:../../../../../../Middlewares/Third_Party/LoRaWAN/Mac/region/RegionUS915.c **** 
 3046              		.loc 1 148 0
 3047 01e0 E523     		movs	r3, #229
 3048 01e2 494E     		ldr	r6, .L263+4
 3049 01e4 9B00     		lsls	r3, r3, #2
 3050 01e6 F45C     		ldrb	r4, [r6, r3]
 3051              	.LVL271:
 163:../../../../../../Middlewares/Third_Party/LoRaWAN/Mac/region/RegionUS915.c ****         }
 3052              		.loc 1 163 0
 3053 01e8 FF23     		movs	r3, #255
 3054 01ea 9A46     		mov	r10, r3
 3055              	.LBB100:
 3056              	.LBB101:
 3057              	.LBB102:
 123:../../../../../../Middlewares/Third_Party/LoRaWAN/Mac/region/RegionUS915.c ****         {
 3058              		.loc 1 123 0
 3059 01ec 0023     		movs	r3, #0
 3060 01ee 9B46     		mov	fp, r3
 126:../../../../../../Middlewares/Third_Party/LoRaWAN/Mac/region/RegionUS915.c ****             // Increment counter of available channels if the current channel is available
 3061              		.loc 1 126 0
 3062 01f0 0233     		adds	r3, r3, #2
 3063 01f2 9C46     		mov	ip, r3
 123:../../../../../../Middlewares/Third_Party/LoRaWAN/Mac/region/RegionUS915.c ****         {
 3064              		.loc 1 123 0
 3065 01f4 0633     		adds	r3, r3, #6
 3066 01f6 9846     		mov	r8, r3
 3067 01f8 0833     		adds	r3, r3, #8
 3068              	.LBE102:
 3069              	.LBE101:
 3070              	.LBE100:
 161:../../../../../../Middlewares/Third_Party/LoRaWAN/Mac/region/RegionUS915.c ****         {
 3071              		.loc 1 161 0
 3072 01fa 0122     		movs	r2, #1
 3073              	.LBB111:
 3074              	.LBB107:
 3075              	.LBB103:
 123:../../../../../../Middlewares/Third_Party/LoRaWAN/Mac/region/RegionUS915.c ****         {
 3076              		.loc 1 123 0
 3077 01fc 0427     		movs	r7, #4
 3078 01fe 9946     		mov	r9, r3
ARM GAS  C:\Users\EBANO_~1\AppData\Local\Temp\ccFRmLE5.s 			page 80


 3079              	.LVL272:
 3080              	.L211:
 3081              	.LBE103:
 3082              	.LBE107:
 3083              	.LBE111:
 158:../../../../../../Middlewares/Third_Party/LoRaWAN/Mac/region/RegionUS915.c **** 
 3084              		.loc 1 158 0
 3085 0200 6308     		lsrs	r3, r4, #1
 3086 0202 DBB2     		uxtb	r3, r3
 3087 0204 BD33     		adds	r3, r3, #189
 3088 0206 FF33     		adds	r3, r3, #255
 3089 0208 5B00     		lsls	r3, r3, #1
 3090 020a F318     		adds	r3, r6, r3
 3091 020c 9988     		ldrh	r1, [r3, #4]
 167:../../../../../../Middlewares/Third_Party/LoRaWAN/Mac/region/RegionUS915.c ****         }
 3092              		.loc 1 167 0
 3093 020e 0B0A     		lsrs	r3, r1, #8
 161:../../../../../../Middlewares/Third_Party/LoRaWAN/Mac/region/RegionUS915.c ****         {
 3094              		.loc 1 161 0
 3095 0210 2242     		tst	r2, r4
 3096 0212 01D1     		bne	.L197
 163:../../../../../../Middlewares/Third_Party/LoRaWAN/Mac/region/RegionUS915.c ****         }
 3097              		.loc 1 163 0
 3098 0214 5346     		mov	r3, r10
 3099 0216 0B40     		ands	r3, r1
 3100              	.LVL273:
 3101              	.L197:
 3102              	.LBB112:
 3103              	.LBB108:
 3104              	.LBB104:
 123:../../../../../../Middlewares/Third_Party/LoRaWAN/Mac/region/RegionUS915.c ****         {
 3105              		.loc 1 123 0
 3106 0218 1A42     		tst	r2, r3
 3107 021a 5ED0     		beq	.L220
 126:../../../../../../Middlewares/Third_Party/LoRaWAN/Mac/region/RegionUS915.c ****             // Increment counter of available channels if the current channel is available
 3108              		.loc 1 126 0
 3109 021c 5846     		mov	r0, fp
 3110 021e 08A9     		add	r1, sp, #32
 3111              	.LVL274:
 3112 0220 0870     		strb	r0, [r1]
 3113              	.LVL275:
 3114 0222 0221     		movs	r1, #2
 3115              	.LVL276:
 3116 0224 0125     		movs	r5, #1
 3117 0226 0191     		str	r1, [sp, #4]
 128:../../../../../../Middlewares/Third_Party/LoRaWAN/Mac/region/RegionUS915.c ****         }
 3118              		.loc 1 128 0
 3119 0228 0139     		subs	r1, r1, #1
 3120              	.LVL277:
 3121              	.L198:
 123:../../../../../../Middlewares/Third_Party/LoRaWAN/Mac/region/RegionUS915.c ****         {
 3122              		.loc 1 123 0
 3123 022a 6046     		mov	r0, ip
 3124 022c 1842     		tst	r0, r3
 3125 022e 02D0     		beq	.L199
 126:../../../../../../Middlewares/Third_Party/LoRaWAN/Mac/region/RegionUS915.c ****             // Increment counter of available channels if the current channel is available
 3126              		.loc 1 126 0
ARM GAS  C:\Users\EBANO_~1\AppData\Local\Temp\ccFRmLE5.s 			page 81


 3127 0230 08A9     		add	r1, sp, #32
 3128              	.LVL278:
 3129 0232 4A55     		strb	r2, [r1, r5]
 3130              	.LVL279:
 128:../../../../../../Middlewares/Third_Party/LoRaWAN/Mac/region/RegionUS915.c ****         }
 3131              		.loc 1 128 0
 3132 0234 0199     		ldr	r1, [sp, #4]
 3133              	.LVL280:
 3134              	.L199:
 123:../../../../../../Middlewares/Third_Party/LoRaWAN/Mac/region/RegionUS915.c ****         {
 3135              		.loc 1 123 0
 3136 0236 1F42     		tst	r7, r3
 3137 0238 04D0     		beq	.L200
 126:../../../../../../Middlewares/Third_Party/LoRaWAN/Mac/region/RegionUS915.c ****             // Increment counter of available channels if the current channel is available
 3138              		.loc 1 126 0
 3139 023a 6546     		mov	r5, ip
 3140 023c 08A8     		add	r0, sp, #32
 3141              	.LVL281:
 3142 023e 4554     		strb	r5, [r0, r1]
 128:../../../../../../Middlewares/Third_Party/LoRaWAN/Mac/region/RegionUS915.c ****         }
 3143              		.loc 1 128 0
 3144 0240 0131     		adds	r1, r1, #1
 3145              	.LVL282:
 3146 0242 C9B2     		uxtb	r1, r1
 3147              	.LVL283:
 3148              	.L200:
 123:../../../../../../Middlewares/Third_Party/LoRaWAN/Mac/region/RegionUS915.c ****         {
 3149              		.loc 1 123 0
 3150 0244 4046     		mov	r0, r8
 3151 0246 1842     		tst	r0, r3
 3152 0248 04D0     		beq	.L201
 126:../../../../../../Middlewares/Third_Party/LoRaWAN/Mac/region/RegionUS915.c ****             // Increment counter of available channels if the current channel is available
 3153              		.loc 1 126 0
 3154 024a 0325     		movs	r5, #3
 3155 024c 08A8     		add	r0, sp, #32
 3156              	.LVL284:
 3157 024e 4554     		strb	r5, [r0, r1]
 128:../../../../../../Middlewares/Third_Party/LoRaWAN/Mac/region/RegionUS915.c ****         }
 3158              		.loc 1 128 0
 3159 0250 0131     		adds	r1, r1, #1
 3160              	.LVL285:
 3161 0252 C9B2     		uxtb	r1, r1
 3162              	.LVL286:
 3163              	.L201:
 123:../../../../../../Middlewares/Third_Party/LoRaWAN/Mac/region/RegionUS915.c ****         {
 3164              		.loc 1 123 0
 3165 0254 4846     		mov	r0, r9
 3166 0256 1842     		tst	r0, r3
 3167 0258 03D0     		beq	.L202
 126:../../../../../../Middlewares/Third_Party/LoRaWAN/Mac/region/RegionUS915.c ****             // Increment counter of available channels if the current channel is available
 3168              		.loc 1 126 0
 3169 025a 08A8     		add	r0, sp, #32
 3170              	.LVL287:
 3171 025c 4754     		strb	r7, [r0, r1]
 128:../../../../../../Middlewares/Third_Party/LoRaWAN/Mac/region/RegionUS915.c ****         }
 3172              		.loc 1 128 0
 3173 025e 0131     		adds	r1, r1, #1
ARM GAS  C:\Users\EBANO_~1\AppData\Local\Temp\ccFRmLE5.s 			page 82


 3174              	.LVL288:
 3175 0260 C9B2     		uxtb	r1, r1
 3176              	.LVL289:
 3177              	.L202:
 123:../../../../../../Middlewares/Third_Party/LoRaWAN/Mac/region/RegionUS915.c ****         {
 3178              		.loc 1 123 0
 3179 0262 9806     		lsls	r0, r3, #26
 3180 0264 04D5     		bpl	.L203
 126:../../../../../../Middlewares/Third_Party/LoRaWAN/Mac/region/RegionUS915.c ****             // Increment counter of available channels if the current channel is available
 3181              		.loc 1 126 0
 3182 0266 0520     		movs	r0, #5
 3183 0268 08AD     		add	r5, sp, #32
 3184              	.LVL290:
 3185 026a 6854     		strb	r0, [r5, r1]
 128:../../../../../../Middlewares/Third_Party/LoRaWAN/Mac/region/RegionUS915.c ****         }
 3186              		.loc 1 128 0
 3187 026c 0131     		adds	r1, r1, #1
 3188              	.LVL291:
 3189 026e C9B2     		uxtb	r1, r1
 3190              	.LVL292:
 3191              	.L203:
 3192 0270 651C     		adds	r5, r4, #1
 3193 0272 D811     		asrs	r0, r3, #7
 3194 0274 EDB2     		uxtb	r5, r5
 123:../../../../../../Middlewares/Third_Party/LoRaWAN/Mac/region/RegionUS915.c ****         {
 3195              		.loc 1 123 0
 3196 0276 5B06     		lsls	r3, r3, #25
 3197 0278 20D5     		bpl	.L204
 3198              	.LVL293:
 126:../../../../../../Middlewares/Third_Party/LoRaWAN/Mac/region/RegionUS915.c ****             // Increment counter of available channels if the current channel is available
 3199              		.loc 1 126 0
 3200 027a 0623     		movs	r3, #6
 3201 027c 08AA     		add	r2, sp, #32
 3202              	.LVL294:
 3203 027e 5354     		strb	r3, [r2, r1]
 128:../../../../../../Middlewares/Third_Party/LoRaWAN/Mac/region/RegionUS915.c ****         }
 3204              		.loc 1 128 0
 3205 0280 0131     		adds	r1, r1, #1
 3206              	.LVL295:
 3207 0282 C9B2     		uxtb	r1, r1
 3208              	.LVL296:
 123:../../../../../../Middlewares/Third_Party/LoRaWAN/Mac/region/RegionUS915.c ****         {
 3209              		.loc 1 123 0
 3210 0284 0028     		cmp	r0, #0
 3211 0286 04D0     		beq	.L206
 3212              	.LVL297:
 3213              	.L205:
 126:../../../../../../Middlewares/Third_Party/LoRaWAN/Mac/region/RegionUS915.c ****             // Increment counter of available channels if the current channel is available
 3214              		.loc 1 126 0
 3215 0288 0723     		movs	r3, #7
 3216 028a 08AA     		add	r2, sp, #32
 3217              	.LVL298:
 3218 028c 5354     		strb	r3, [r2, r1]
 128:../../../../../../Middlewares/Third_Party/LoRaWAN/Mac/region/RegionUS915.c ****         }
 3219              		.loc 1 128 0
 3220 028e 0131     		adds	r1, r1, #1
 3221 0290 C9B2     		uxtb	r1, r1
ARM GAS  C:\Users\EBANO_~1\AppData\Local\Temp\ccFRmLE5.s 			page 83


 3222              	.LVL299:
 3223              	.L206:
 3224              	.LBE104:
 3225              	.LBE108:
 3226              	.LBE112:
 179:../../../../../../Middlewares/Third_Party/LoRaWAN/Mac/region/RegionUS915.c ****         }
 3227              		.loc 1 179 0
 3228 0292 0139     		subs	r1, r1, #1
 3229              	.LVL300:
 3230 0294 0020     		movs	r0, #0
 3231 0296 FFF7FEFF 		bl	randr
 3232              	.LVL301:
 3233 029a 08AB     		add	r3, sp, #32
 3234 029c 195C     		ldrb	r1, [r3, r0]
 186:../../../../../../Middlewares/Third_Party/LoRaWAN/Mac/region/RegionUS915.c ****         }
 3235              		.loc 1 186 0
 3236 029e 0722     		movs	r2, #7
 3237 02a0 0023     		movs	r3, #0
 3238 02a2 AA42     		cmp	r2, r5
 3239 02a4 5B41     		adcs	r3, r3, r3
 179:../../../../../../Middlewares/Third_Party/LoRaWAN/Mac/region/RegionUS915.c ****         }
 3240              		.loc 1 179 0
 3241 02a6 E400     		lsls	r4, r4, #3
 3242 02a8 6118     		adds	r1, r4, r1
 186:../../../../../../Middlewares/Third_Party/LoRaWAN/Mac/region/RegionUS915.c ****         }
 3243              		.loc 1 186 0
 3244 02aa 5B42     		rsbs	r3, r3, #0
 179:../../../../../../Middlewares/Third_Party/LoRaWAN/Mac/region/RegionUS915.c ****         }
 3245              		.loc 1 179 0
 3246 02ac C9B2     		uxtb	r1, r1
 3247              	.LVL302:
 186:../../../../../../Middlewares/Third_Party/LoRaWAN/Mac/region/RegionUS915.c ****         }
 3248              		.loc 1 186 0
 3249 02ae 1D40     		ands	r5, r3
 3250              	.L217:
 3251              	.LVL303:
 192:../../../../../../Middlewares/Third_Party/LoRaWAN/Mac/region/RegionUS915.c ****         return LORAMAC_STATUS_OK;
 3252              		.loc 1 192 0
 3253 02b0 E523     		movs	r3, #229
 3254 02b2 9B00     		lsls	r3, r3, #2
 3255 02b4 F554     		strb	r5, [r6, r3]
 3256              	.LVL304:
 3257              	.LBE99:
 3258              	.LBE98:
1055:../../../../../../Middlewares/Third_Party/LoRaWAN/Mac/region/RegionUS915.c ****             }
 3259              		.loc 1 1055 0
 3260 02b6 069B     		ldr	r3, [sp, #24]
 3261 02b8 1970     		strb	r1, [r3]
 3262 02ba 4BE7     		b	.L192
 3263              	.LVL305:
 3264              	.L204:
 3265              	.LBB118:
 3266              	.LBB115:
 3267              	.LBB113:
 3268              	.LBB109:
 3269              	.LBB105:
 123:../../../../../../Middlewares/Third_Party/LoRaWAN/Mac/region/RegionUS915.c ****         {
ARM GAS  C:\Users\EBANO_~1\AppData\Local\Temp\ccFRmLE5.s 			page 84


 3270              		.loc 1 123 0
 3271 02bc 0028     		cmp	r0, #0
 3272 02be E3D1     		bne	.L205
 3273              	.LVL306:
 3274              	.LBE105:
 3275              	.LBE109:
 3276              	.LBE113:
 176:../../../../../../Middlewares/Third_Party/LoRaWAN/Mac/region/RegionUS915.c ****         {
 3277              		.loc 1 176 0
 3278 02c0 0029     		cmp	r1, #0
 3279 02c2 11D1     		bne	.L262
 186:../../../../../../Middlewares/Third_Party/LoRaWAN/Mac/region/RegionUS915.c ****         }
 3280              		.loc 1 186 0
 3281 02c4 0024     		movs	r4, #0
 184:../../../../../../Middlewares/Third_Party/LoRaWAN/Mac/region/RegionUS915.c ****         {
 3282              		.loc 1 184 0
 3283 02c6 072D     		cmp	r5, #7
 3284 02c8 00D8     		bhi	.L216
 3285              	.LVL307:
 3286 02ca 2C00     		movs	r4, r5
 3287              	.LVL308:
 3288              	.L216:
 188:../../../../../../Middlewares/Third_Party/LoRaWAN/Mac/region/RegionUS915.c **** 
 3289              		.loc 1 188 0
 3290 02cc E523     		movs	r3, #229
 3291 02ce 9B00     		lsls	r3, r3, #2
 3292 02d0 F35C     		ldrb	r3, [r6, r3]
 3293 02d2 A342     		cmp	r3, r4
 3294 02d4 94D1     		bne	.L211
 3295              	.LVL309:
 3296              	.LBE115:
 3297              	.LBE118:
1053:../../../../../../Middlewares/Third_Party/LoRaWAN/Mac/region/RegionUS915.c ****                 }
 3298              		.loc 1 1053 0
 3299 02d6 0320     		movs	r0, #3
 3300              	.LVL310:
 3301 02d8 44E7     		b	.L254
 3302              	.LVL311:
 3303              	.L220:
 3304              	.LBB119:
 3305              	.LBB116:
 3306              	.LBB114:
 3307              	.LBB110:
 3308              	.LBB106:
 123:../../../../../../Middlewares/Third_Party/LoRaWAN/Mac/region/RegionUS915.c ****         {
 3309              		.loc 1 123 0
 3310 02da 0121     		movs	r1, #1
 3311 02dc 0025     		movs	r5, #0
 3312 02de 0191     		str	r1, [sp, #4]
 3313              	.LBE106:
 119:../../../../../../Middlewares/Third_Party/LoRaWAN/Mac/region/RegionUS915.c ****     for( uint8_t i = 0; i < 8; i++ )
 3314              		.loc 1 119 0
 3315 02e0 0021     		movs	r1, #0
 3316 02e2 A2E7     		b	.L198
 3317              	.LVL312:
 3318              	.L261:
 3319              	.LBE110:
ARM GAS  C:\Users\EBANO_~1\AppData\Local\Temp\ccFRmLE5.s 			page 85


 3320              	.LBE114:
 3321              	.LBE116:
 3322              	.LBE119:
 3323              	.LBB120:
1062:../../../../../../Middlewares/Third_Party/LoRaWAN/Mac/region/RegionUS915.c ****                 {
 3324              		.loc 1 1062 0
 3325 02e4 4021     		movs	r1, #64
 3326 02e6 33E7     		b	.L195
 3327              	.LVL313:
 3328              	.L262:
 3329              	.LBE120:
 3330              	.LBB121:
 3331              	.LBB117:
 179:../../../../../../Middlewares/Third_Party/LoRaWAN/Mac/region/RegionUS915.c ****         }
 3332              		.loc 1 179 0
 3333 02e8 0139     		subs	r1, r1, #1
 3334 02ea 0020     		movs	r0, #0
 3335 02ec FFF7FEFF 		bl	randr
 3336              	.LVL314:
 3337 02f0 08AB     		add	r3, sp, #32
 3338 02f2 E100     		lsls	r1, r4, #3
 3339 02f4 1C5C     		ldrb	r4, [r3, r0]
 3340 02f6 0919     		adds	r1, r1, r4
 3341 02f8 C9B2     		uxtb	r1, r1
 3342              	.LVL315:
 184:../../../../../../Middlewares/Third_Party/LoRaWAN/Mac/region/RegionUS915.c ****         {
 3343              		.loc 1 184 0
 3344 02fa 072D     		cmp	r5, #7
 3345 02fc D8D9     		bls	.L217
 186:../../../../../../Middlewares/Third_Party/LoRaWAN/Mac/region/RegionUS915.c ****         }
 3346              		.loc 1 186 0
 3347 02fe 0025     		movs	r5, #0
 3348 0300 D6E7     		b	.L217
 3349              	.L264:
 3350 0302 C046     		.align	2
 3351              	.L263:
 3352 0304 7C030000 		.word	NvmCtx+892
 3353 0308 00000000 		.word	NvmCtx
 3354 030c 60030000 		.word	NvmCtx+864
 3355 0310 A0FCFFFF 		.word	-864
 3356              	.LBE117:
 3357              	.LBE121:
 3358              		.cfi_endproc
 3359              	.LFE63:
 3360              		.size	RegionUS915NextChannel, .-RegionUS915NextChannel
 3361              		.section	.text.RegionUS915ChannelAdd,"ax",%progbits
 3362              		.align	1
 3363              		.p2align 2,,3
 3364              		.global	RegionUS915ChannelAdd
 3365              		.syntax unified
 3366              		.code	16
 3367              		.thumb_func
 3368              		.fpu softvfp
 3369              		.type	RegionUS915ChannelAdd, %function
 3370              	RegionUS915ChannelAdd:
 3371              	.LFB64:
1089:../../../../../../Middlewares/Third_Party/LoRaWAN/Mac/region/RegionUS915.c **** 
ARM GAS  C:\Users\EBANO_~1\AppData\Local\Temp\ccFRmLE5.s 			page 86


1090:../../../../../../Middlewares/Third_Party/LoRaWAN/Mac/region/RegionUS915.c **** LoRaMacStatus_t RegionUS915ChannelAdd( ChannelAddParams_t* channelAdd )
1091:../../../../../../Middlewares/Third_Party/LoRaWAN/Mac/region/RegionUS915.c **** {
 3372              		.loc 1 1091 0
 3373              		.cfi_startproc
 3374              		@ args = 0, pretend = 0, frame = 0
 3375              		@ frame_needed = 0, uses_anonymous_args = 0
 3376              		@ link register save eliminated.
 3377              	.LVL316:
1092:../../../../../../Middlewares/Third_Party/LoRaWAN/Mac/region/RegionUS915.c ****     return LORAMAC_STATUS_PARAMETER_INVALID;
1093:../../../../../../Middlewares/Third_Party/LoRaWAN/Mac/region/RegionUS915.c **** }
 3378              		.loc 1 1093 0
 3379 0000 0320     		movs	r0, #3
 3380              	.LVL317:
 3381              		@ sp needed
 3382 0002 7047     		bx	lr
 3383              		.cfi_endproc
 3384              	.LFE64:
 3385              		.size	RegionUS915ChannelAdd, .-RegionUS915ChannelAdd
 3386              		.section	.text.RegionUS915ChannelsRemove,"ax",%progbits
 3387              		.align	1
 3388              		.p2align 2,,3
 3389              		.global	RegionUS915ChannelsRemove
 3390              		.syntax unified
 3391              		.code	16
 3392              		.thumb_func
 3393              		.fpu softvfp
 3394              		.type	RegionUS915ChannelsRemove, %function
 3395              	RegionUS915ChannelsRemove:
 3396              	.LFB65:
1094:../../../../../../Middlewares/Third_Party/LoRaWAN/Mac/region/RegionUS915.c **** 
1095:../../../../../../Middlewares/Third_Party/LoRaWAN/Mac/region/RegionUS915.c **** bool RegionUS915ChannelsRemove( ChannelRemoveParams_t* channelRemove  )
1096:../../../../../../Middlewares/Third_Party/LoRaWAN/Mac/region/RegionUS915.c **** {
 3397              		.loc 1 1096 0
 3398              		.cfi_startproc
 3399              		@ args = 0, pretend = 0, frame = 0
 3400              		@ frame_needed = 0, uses_anonymous_args = 0
 3401              		@ link register save eliminated.
 3402              	.LVL318:
1097:../../../../../../Middlewares/Third_Party/LoRaWAN/Mac/region/RegionUS915.c ****     return LORAMAC_STATUS_PARAMETER_INVALID;
1098:../../../../../../Middlewares/Third_Party/LoRaWAN/Mac/region/RegionUS915.c **** }
 3403              		.loc 1 1098 0
 3404 0000 0120     		movs	r0, #1
 3405              	.LVL319:
 3406              		@ sp needed
 3407 0002 7047     		bx	lr
 3408              		.cfi_endproc
 3409              	.LFE65:
 3410              		.size	RegionUS915ChannelsRemove, .-RegionUS915ChannelsRemove
 3411              		.section	.text.RegionUS915SetContinuousWave,"ax",%progbits
 3412              		.align	1
 3413              		.p2align 2,,3
 3414              		.global	RegionUS915SetContinuousWave
 3415              		.syntax unified
 3416              		.code	16
 3417              		.thumb_func
 3418              		.fpu softvfp
 3419              		.type	RegionUS915SetContinuousWave, %function
ARM GAS  C:\Users\EBANO_~1\AppData\Local\Temp\ccFRmLE5.s 			page 87


 3420              	RegionUS915SetContinuousWave:
 3421              	.LFB66:
1099:../../../../../../Middlewares/Third_Party/LoRaWAN/Mac/region/RegionUS915.c **** 
1100:../../../../../../Middlewares/Third_Party/LoRaWAN/Mac/region/RegionUS915.c **** void RegionUS915SetContinuousWave( ContinuousWaveParams_t* continuousWave )
1101:../../../../../../Middlewares/Third_Party/LoRaWAN/Mac/region/RegionUS915.c **** {
 3422              		.loc 1 1101 0
 3423              		.cfi_startproc
 3424              		@ args = 0, pretend = 0, frame = 8
 3425              		@ frame_needed = 0, uses_anonymous_args = 0
 3426              	.LVL320:
 3427              	.LBB122:
 3428              	.LBB123:
 220:../../../../../../Middlewares/Third_Party/LoRaWAN/Mac/region/RegionUS915.c ****     {// Limit tx power to max 26dBm
 3429              		.loc 1 220 0
 3430 0000 0123     		movs	r3, #1
 3431              	.LBE123:
 3432              	.LBE122:
 3433              		.loc 1 1101 0
 3434 0002 F0B5     		push	{r4, r5, r6, r7, lr}
 3435              	.LCFI28:
 3436              		.cfi_def_cfa_offset 20
 3437              		.cfi_offset 4, -20
 3438              		.cfi_offset 5, -16
 3439              		.cfi_offset 6, -12
 3440              		.cfi_offset 7, -8
 3441              		.cfi_offset 14, -4
1102:../../../../../../Middlewares/Third_Party/LoRaWAN/Mac/region/RegionUS915.c ****     int8_t txPowerLimited = LimitTxPower( continuousWave->TxPower, NvmCtx.Bands[NvmCtx.Channels[con
 3442              		.loc 1 1102 0
 3443 0004 0226     		movs	r6, #2
 3444              	.LBB129:
 3445              	.LBB124:
 220:../../../../../../Middlewares/Third_Party/LoRaWAN/Mac/region/RegionUS915.c ****     {// Limit tx power to max 26dBm
 3446              		.loc 1 220 0
 3447 0006 C356     		ldrsb	r3, [r0, r3]
 3448              	.LBE124:
 3449              	.LBE129:
1101:../../../../../../Middlewares/Third_Party/LoRaWAN/Mac/region/RegionUS915.c ****     int8_t txPowerLimited = LimitTxPower( continuousWave->TxPower, NvmCtx.Bands[NvmCtx.Channels[con
 3450              		.loc 1 1101 0
 3451 0008 83B0     		sub	sp, sp, #12
 3452              	.LCFI29:
 3453              		.cfi_def_cfa_offset 32
1101:../../../../../../Middlewares/Third_Party/LoRaWAN/Mac/region/RegionUS915.c ****     int8_t txPowerLimited = LimitTxPower( continuousWave->TxPower, NvmCtx.Bands[NvmCtx.Channels[con
 3454              		.loc 1 1101 0
 3455 000a 0400     		movs	r4, r0
 3456              		.loc 1 1102 0
 3457 000c 8657     		ldrsb	r6, [r0, r6]
 3458 000e 0278     		ldrb	r2, [r0]
 3459              	.LVL321:
 3460              	.LBB130:
 3461              	.LBB125:
 220:../../../../../../Middlewares/Third_Party/LoRaWAN/Mac/region/RegionUS915.c ****     {// Limit tx power to max 26dBm
 3462              		.loc 1 220 0
 3463 0010 042B     		cmp	r3, #4
 3464 0012 2ED0     		beq	.L274
 3465              	.LBE125:
 3466              	.LBE130:
 3467              		.loc 1 1102 0
ARM GAS  C:\Users\EBANO_~1\AppData\Local\Temp\ccFRmLE5.s 			page 88


 3468 0014 0227     		movs	r7, #2
 3469 0016 5300     		lsls	r3, r2, #1
 3470 0018 1A4D     		ldr	r5, .L277
 3471 001a 9B18     		adds	r3, r3, r2
 3472 001c 9B00     		lsls	r3, r3, #2
 3473 001e EB18     		adds	r3, r5, r3
 3474 0020 5B7A     		ldrb	r3, [r3, #9]
 3475              	.LBB131:
 3476              	.LBB126:
 226:../../../../../../Middlewares/Third_Party/LoRaWAN/Mac/region/RegionUS915.c ****         {// Limit tx power to max 21dBm
 3477              		.loc 1 226 0
 3478 0022 0422     		movs	r2, #4
 3479              	.LVL322:
 3480              	.LBE126:
 3481              	.LBE131:
 3482              		.loc 1 1102 0
 3483 0024 3633     		adds	r3, r3, #54
 3484 0026 1B01     		lsls	r3, r3, #4
 3485 0028 EB18     		adds	r3, r5, r3
 3486 002a DF57     		ldrsb	r7, [r3, r7]
 3487              	.LBB132:
 3488              	.LBB127:
 226:../../../../../../Middlewares/Third_Party/LoRaWAN/Mac/region/RegionUS915.c ****         {// Limit tx power to max 21dBm
 3489              		.loc 1 226 0
 3490 002c DC23     		movs	r3, #220
 3491 002e 9B00     		lsls	r3, r3, #2
 3492 0030 E818     		adds	r0, r5, r3
 3493              	.LVL323:
 3494 0032 0021     		movs	r1, #0
 3495 0034 FFF7FEFF 		bl	RegionCommonCountChannels
 3496              	.LVL324:
 3497 0038 3128     		cmp	r0, #49
 3498 003a 15D8     		bhi	.L275
 228:../../../../../../Middlewares/Third_Party/LoRaWAN/Mac/region/RegionUS915.c ****         }
 3499              		.loc 1 228 0
 3500 003c 301C     		adds	r0, r6, #0
 3501 003e 052E     		cmp	r6, #5
 3502 0040 1EDB     		blt	.L276
 3503              	.L273:
 3504 0042 2278     		ldrb	r2, [r4]
 3505 0044 40B2     		sxtb	r0, r0
 3506              	.L270:
 3507              	.LVL325:
 3508              	.LBE127:
 3509              	.LBE132:
1103:../../../../../../Middlewares/Third_Party/LoRaWAN/Mac/region/RegionUS915.c ****     int8_t phyTxPower = 0;
1104:../../../../../../Middlewares/Third_Party/LoRaWAN/Mac/region/RegionUS915.c ****     uint32_t frequency = NvmCtx.Channels[continuousWave->Channel].Frequency;
 3510              		.loc 1 1104 0
 3511 0046 5300     		lsls	r3, r2, #1
 3512 0048 9B18     		adds	r3, r3, r2
 3513 004a 9B00     		lsls	r3, r3, #2
1105:../../../../../../Middlewares/Third_Party/LoRaWAN/Mac/region/RegionUS915.c **** 
1106:../../../../../../Middlewares/Third_Party/LoRaWAN/Mac/region/RegionUS915.c ****     // Calculate physical TX power
1107:../../../../../../Middlewares/Third_Party/LoRaWAN/Mac/region/RegionUS915.c ****     phyTxPower = RegionCommonComputeTxPower( txPowerLimited, US915_DEFAULT_MAX_ERP, 0 );
 3514              		.loc 1 1107 0
 3515 004c 0022     		movs	r2, #0
 3516 004e 0E49     		ldr	r1, .L277+4
ARM GAS  C:\Users\EBANO_~1\AppData\Local\Temp\ccFRmLE5.s 			page 89


1104:../../../../../../Middlewares/Third_Party/LoRaWAN/Mac/region/RegionUS915.c **** 
 3517              		.loc 1 1104 0
 3518 0050 ED58     		ldr	r5, [r5, r3]
 3519              	.LVL326:
 3520              		.loc 1 1107 0
 3521 0052 FFF7FEFF 		bl	RegionCommonComputeTxPower
 3522              	.LVL327:
1108:../../../../../../Middlewares/Third_Party/LoRaWAN/Mac/region/RegionUS915.c **** 
1109:../../../../../../Middlewares/Third_Party/LoRaWAN/Mac/region/RegionUS915.c ****     Radio.SetTxContinuousWave( frequency, phyTxPower, continuousWave->Timeout );
 3523              		.loc 1 1109 0
 3524 0056 0D4B     		ldr	r3, .L277+8
1107:../../../../../../Middlewares/Third_Party/LoRaWAN/Mac/region/RegionUS915.c **** 
 3525              		.loc 1 1107 0
 3526 0058 0100     		movs	r1, r0
 3527              	.LVL328:
 3528              		.loc 1 1109 0
 3529 005a 5B6C     		ldr	r3, [r3, #68]
 3530 005c A289     		ldrh	r2, [r4, #12]
 3531 005e 2800     		movs	r0, r5
 3532 0060 0193     		str	r3, [sp, #4]
 3533 0062 9847     		blx	r3
 3534              	.LVL329:
1110:../../../../../../Middlewares/Third_Party/LoRaWAN/Mac/region/RegionUS915.c **** }
 3535              		.loc 1 1110 0
 3536 0064 03B0     		add	sp, sp, #12
 3537              		@ sp needed
 3538              	.LVL330:
 3539              	.LVL331:
 3540 0066 F0BD     		pop	{r4, r5, r6, r7, pc}
 3541              	.LVL332:
 3542              	.L275:
 3543              	.LBB133:
 3544              	.LBB128:
 218:../../../../../../Middlewares/Third_Party/LoRaWAN/Mac/region/RegionUS915.c **** 
 3545              		.loc 1 218 0
 3546 0068 301C     		adds	r0, r6, #0
 3547 006a BE42     		cmp	r6, r7
 3548 006c E9DA     		bge	.L273
 3549              	.LVL333:
 3550 006e 381C     		adds	r0, r7, #0
 3551              	.LVL334:
 3552 0070 E7E7     		b	.L273
 3553              	.LVL335:
 3554              	.L274:
 222:../../../../../../Middlewares/Third_Party/LoRaWAN/Mac/region/RegionUS915.c ****     }
 3555              		.loc 1 222 0
 3556 0072 301C     		adds	r0, r6, #0
 3557              	.LVL336:
 3558 0074 022E     		cmp	r6, #2
 3559 0076 00DA     		bge	.L269
 3560              	.LVL337:
 3561 0078 0220     		movs	r0, #2
 3562              	.LVL338:
 3563              	.L269:
 3564 007a 40B2     		sxtb	r0, r0
 3565              	.LVL339:
 3566 007c 014D     		ldr	r5, .L277
ARM GAS  C:\Users\EBANO_~1\AppData\Local\Temp\ccFRmLE5.s 			page 90


 3567 007e E2E7     		b	.L270
 3568              	.LVL340:
 3569              	.L276:
 228:../../../../../../Middlewares/Third_Party/LoRaWAN/Mac/region/RegionUS915.c ****         }
 3570              		.loc 1 228 0
 3571 0080 0520     		movs	r0, #5
 3572              	.LVL341:
 3573 0082 DEE7     		b	.L273
 3574              	.L278:
 3575              		.align	2
 3576              	.L277:
 3577 0084 00000000 		.word	NvmCtx
 3578 0088 0000F041 		.word	1106247680
 3579 008c 00000000 		.word	Radio
 3580              	.LBE128:
 3581              	.LBE133:
 3582              		.cfi_endproc
 3583              	.LFE66:
 3584              		.size	RegionUS915SetContinuousWave, .-RegionUS915SetContinuousWave
 3585              		.section	.text.RegionUS915ApplyDrOffset,"ax",%progbits
 3586              		.align	1
 3587              		.p2align 2,,3
 3588              		.global	RegionUS915ApplyDrOffset
 3589              		.syntax unified
 3590              		.code	16
 3591              		.thumb_func
 3592              		.fpu softvfp
 3593              		.type	RegionUS915ApplyDrOffset, %function
 3594              	RegionUS915ApplyDrOffset:
 3595              	.LFB67:
1111:../../../../../../Middlewares/Third_Party/LoRaWAN/Mac/region/RegionUS915.c **** 
1112:../../../../../../Middlewares/Third_Party/LoRaWAN/Mac/region/RegionUS915.c **** uint8_t RegionUS915ApplyDrOffset( uint8_t downlinkDwellTime, int8_t dr, int8_t drOffset )
1113:../../../../../../Middlewares/Third_Party/LoRaWAN/Mac/region/RegionUS915.c **** {
 3596              		.loc 1 1113 0
 3597              		.cfi_startproc
 3598              		@ args = 0, pretend = 0, frame = 0
 3599              		@ frame_needed = 0, uses_anonymous_args = 0
 3600              		@ link register save eliminated.
 3601              	.LVL342:
1114:../../../../../../Middlewares/Third_Party/LoRaWAN/Mac/region/RegionUS915.c ****     int8_t datarate = DatarateOffsetsUS915[dr][drOffset];
 3602              		.loc 1 1114 0
 3603 0000 8B00     		lsls	r3, r1, #2
 3604 0002 0549     		ldr	r1, .L281
 3605              	.LVL343:
1115:../../../../../../Middlewares/Third_Party/LoRaWAN/Mac/region/RegionUS915.c **** 
1116:../../../../../../Middlewares/Third_Party/LoRaWAN/Mac/region/RegionUS915.c ****     if( datarate < 0 )
1117:../../../../../../Middlewares/Third_Party/LoRaWAN/Mac/region/RegionUS915.c ****     {
1118:../../../../../../Middlewares/Third_Party/LoRaWAN/Mac/region/RegionUS915.c ****         datarate = DR_0;
1119:../../../../../../Middlewares/Third_Party/LoRaWAN/Mac/region/RegionUS915.c ****     }
1120:../../../../../../Middlewares/Third_Party/LoRaWAN/Mac/region/RegionUS915.c ****     return datarate;
1121:../../../../../../Middlewares/Third_Party/LoRaWAN/Mac/region/RegionUS915.c **** }
 3606              		.loc 1 1121 0
 3607              		@ sp needed
1114:../../../../../../Middlewares/Third_Party/LoRaWAN/Mac/region/RegionUS915.c ****     int8_t datarate = DatarateOffsetsUS915[dr][drOffset];
 3608              		.loc 1 1114 0
 3609 0004 C918     		adds	r1, r1, r3
 3610 0006 5023     		movs	r3, #80
ARM GAS  C:\Users\EBANO_~1\AppData\Local\Temp\ccFRmLE5.s 			page 91


 3611 0008 8A18     		adds	r2, r1, r2
 3612              	.LVL344:
 3613 000a D356     		ldrsb	r3, [r2, r3]
 3614              	.LVL345:
1120:../../../../../../Middlewares/Third_Party/LoRaWAN/Mac/region/RegionUS915.c **** }
 3615              		.loc 1 1120 0
 3616 000c D843     		mvns	r0, r3
 3617              	.LVL346:
 3618 000e C017     		asrs	r0, r0, #31
 3619 0010 1840     		ands	r0, r3
 3620 0012 C0B2     		uxtb	r0, r0
 3621              		.loc 1 1121 0
 3622 0014 7047     		bx	lr
 3623              	.L282:
 3624 0016 C046     		.align	2
 3625              	.L281:
 3626 0018 EC000000 		.word	.LANCHOR1
 3627              		.cfi_endproc
 3628              	.LFE67:
 3629              		.size	RegionUS915ApplyDrOffset, .-RegionUS915ApplyDrOffset
 3630              		.section	.text.RegionUS915RxBeaconSetup,"ax",%progbits
 3631              		.align	1
 3632              		.p2align 2,,3
 3633              		.global	RegionUS915RxBeaconSetup
 3634              		.syntax unified
 3635              		.code	16
 3636              		.thumb_func
 3637              		.fpu softvfp
 3638              		.type	RegionUS915RxBeaconSetup, %function
 3639              	RegionUS915RxBeaconSetup:
 3640              	.LFB68:
1122:../../../../../../Middlewares/Third_Party/LoRaWAN/Mac/region/RegionUS915.c **** 
1123:../../../../../../Middlewares/Third_Party/LoRaWAN/Mac/region/RegionUS915.c **** void RegionUS915RxBeaconSetup( RxBeaconSetup_t* rxBeaconSetup, uint8_t* outDr )
1124:../../../../../../Middlewares/Third_Party/LoRaWAN/Mac/region/RegionUS915.c **** {
 3641              		.loc 1 1124 0
 3642              		.cfi_startproc
 3643              		@ args = 0, pretend = 0, frame = 24
 3644              		@ frame_needed = 0, uses_anonymous_args = 0
 3645              	.LVL347:
 3646 0000 10B5     		push	{r4, lr}
 3647              	.LCFI30:
 3648              		.cfi_def_cfa_offset 8
 3649              		.cfi_offset 4, -8
 3650              		.cfi_offset 14, -4
1125:../../../../../../Middlewares/Third_Party/LoRaWAN/Mac/region/RegionUS915.c ****     RegionCommonRxBeaconSetupParams_t regionCommonRxBeaconSetup;
1126:../../../../../../Middlewares/Third_Party/LoRaWAN/Mac/region/RegionUS915.c **** 
1127:../../../../../../Middlewares/Third_Party/LoRaWAN/Mac/region/RegionUS915.c ****     regionCommonRxBeaconSetup.Datarates = DataratesUS915;
 3651              		.loc 1 1127 0
 3652 0002 0B4A     		ldr	r2, .L284
1124:../../../../../../Middlewares/Third_Party/LoRaWAN/Mac/region/RegionUS915.c ****     RegionCommonRxBeaconSetupParams_t regionCommonRxBeaconSetup;
 3653              		.loc 1 1124 0
 3654 0004 86B0     		sub	sp, sp, #24
 3655              	.LCFI31:
 3656              		.cfi_def_cfa_offset 32
 3657              		.loc 1 1127 0
 3658 0006 4032     		adds	r2, r2, #64
 3659 0008 0192     		str	r2, [sp, #4]
ARM GAS  C:\Users\EBANO_~1\AppData\Local\Temp\ccFRmLE5.s 			page 92


1128:../../../../../../Middlewares/Third_Party/LoRaWAN/Mac/region/RegionUS915.c ****     regionCommonRxBeaconSetup.Frequency = rxBeaconSetup->Frequency;
 3660              		.loc 1 1128 0
 3661 000a 8268     		ldr	r2, [r0, #8]
1127:../../../../../../Middlewares/Third_Party/LoRaWAN/Mac/region/RegionUS915.c ****     regionCommonRxBeaconSetup.Frequency = rxBeaconSetup->Frequency;
 3662              		.loc 1 1127 0
 3663 000c 01AB     		add	r3, sp, #4
 3664              		.loc 1 1128 0
 3665 000e 0292     		str	r2, [sp, #8]
1129:../../../../../../Middlewares/Third_Party/LoRaWAN/Mac/region/RegionUS915.c ****     regionCommonRxBeaconSetup.BeaconSize = US915_BEACON_SIZE;
 3666              		.loc 1 1129 0
 3667 0010 084A     		ldr	r2, .L284+4
1124:../../../../../../Middlewares/Third_Party/LoRaWAN/Mac/region/RegionUS915.c ****     RegionCommonRxBeaconSetupParams_t regionCommonRxBeaconSetup;
 3668              		.loc 1 1124 0
 3669 0012 0C00     		movs	r4, r1
 3670              		.loc 1 1129 0
 3671 0014 1A81     		strh	r2, [r3, #8]
1130:../../../../../../Middlewares/Third_Party/LoRaWAN/Mac/region/RegionUS915.c ****     regionCommonRxBeaconSetup.BeaconDatarate = US915_BEACON_CHANNEL_DR;
 3672              		.loc 1 1130 0
 3673 0016 0222     		movs	r2, #2
 3674 0018 9A72     		strb	r2, [r3, #10]
1131:../../../../../../Middlewares/Third_Party/LoRaWAN/Mac/region/RegionUS915.c ****     regionCommonRxBeaconSetup.BeaconChannelBW = US915_BEACON_CHANNEL_BW;
1132:../../../../../../Middlewares/Third_Party/LoRaWAN/Mac/region/RegionUS915.c ****     regionCommonRxBeaconSetup.RxTime = rxBeaconSetup->RxTime;
 3675              		.loc 1 1132 0
 3676 001a 4268     		ldr	r2, [r0, #4]
 3677 001c 0492     		str	r2, [sp, #16]
1133:../../../../../../Middlewares/Third_Party/LoRaWAN/Mac/region/RegionUS915.c ****     regionCommonRxBeaconSetup.SymbolTimeout = rxBeaconSetup->SymbolTimeout;
 3678              		.loc 1 1133 0
 3679 001e 0288     		ldrh	r2, [r0]
1134:../../../../../../Middlewares/Third_Party/LoRaWAN/Mac/region/RegionUS915.c **** 
1135:../../../../../../Middlewares/Third_Party/LoRaWAN/Mac/region/RegionUS915.c ****     RegionCommonRxBeaconSetup( &regionCommonRxBeaconSetup );
 3680              		.loc 1 1135 0
 3681 0020 1800     		movs	r0, r3
 3682              	.LVL348:
1133:../../../../../../Middlewares/Third_Party/LoRaWAN/Mac/region/RegionUS915.c ****     regionCommonRxBeaconSetup.SymbolTimeout = rxBeaconSetup->SymbolTimeout;
 3683              		.loc 1 1133 0
 3684 0022 1A82     		strh	r2, [r3, #16]
 3685              		.loc 1 1135 0
 3686 0024 FFF7FEFF 		bl	RegionCommonRxBeaconSetup
 3687              	.LVL349:
1136:../../../../../../Middlewares/Third_Party/LoRaWAN/Mac/region/RegionUS915.c **** 
1137:../../../../../../Middlewares/Third_Party/LoRaWAN/Mac/region/RegionUS915.c ****     // Store downlink datarate
1138:../../../../../../Middlewares/Third_Party/LoRaWAN/Mac/region/RegionUS915.c ****     *outDr = US915_BEACON_CHANNEL_DR;
 3688              		.loc 1 1138 0
 3689 0028 0823     		movs	r3, #8
 3690 002a 2370     		strb	r3, [r4]
1139:../../../../../../Middlewares/Third_Party/LoRaWAN/Mac/region/RegionUS915.c **** }
 3691              		.loc 1 1139 0
 3692 002c 06B0     		add	sp, sp, #24
 3693              		@ sp needed
 3694              	.LVL350:
 3695 002e 10BD     		pop	{r4, pc}
 3696              	.L285:
 3697              		.align	2
 3698              	.L284:
 3699 0030 EC000000 		.word	.LANCHOR1
 3700 0034 17080000 		.word	2071
 3701              		.cfi_endproc
ARM GAS  C:\Users\EBANO_~1\AppData\Local\Temp\ccFRmLE5.s 			page 93


 3702              	.LFE68:
 3703              		.size	RegionUS915RxBeaconSetup, .-RegionUS915RxBeaconSetup
 3704              		.bss
 3705              		.align	2
 3706              		.type	NvmCtx, %object
 3707              		.size	NvmCtx, 920
 3708              	NvmCtx:
 3709 0000 00000000 		.space	920
 3709      00000000 
 3709      00000000 
 3709      00000000 
 3709      00000000 
 3710              		.section	.rodata
 3711              		.align	2
 3712              		.set	.LANCHOR1,. + 0
 3713              		.type	BandwidthsUS915, %object
 3714              		.size	BandwidthsUS915, 64
 3715              	BandwidthsUS915:
 3716 00ec 48E80100 		.word	125000
 3717 00f0 48E80100 		.word	125000
 3718 00f4 48E80100 		.word	125000
 3719 00f8 48E80100 		.word	125000
 3720 00fc 20A10700 		.word	500000
 3721 0100 00000000 		.word	0
 3722 0104 00000000 		.word	0
 3723 0108 00000000 		.word	0
 3724 010c 20A10700 		.word	500000
 3725 0110 20A10700 		.word	500000
 3726 0114 20A10700 		.word	500000
 3727 0118 20A10700 		.word	500000
 3728 011c 20A10700 		.word	500000
 3729 0120 20A10700 		.word	500000
 3730 0124 00000000 		.word	0
 3731 0128 00000000 		.word	0
 3732              		.type	DataratesUS915, %object
 3733              		.size	DataratesUS915, 16
 3734              	DataratesUS915:
 3735 012c 0A       		.byte	10
 3736 012d 09       		.byte	9
 3737 012e 08       		.byte	8
 3738 012f 07       		.byte	7
 3739 0130 08       		.byte	8
 3740 0131 00       		.byte	0
 3741 0132 00       		.byte	0
 3742 0133 00       		.byte	0
 3743 0134 0C       		.byte	12
 3744 0135 0B       		.byte	11
 3745 0136 0A       		.byte	10
 3746 0137 09       		.byte	9
 3747 0138 08       		.byte	8
 3748 0139 07       		.byte	7
 3749 013a 00       		.byte	0
 3750 013b 00       		.byte	0
 3751              		.type	DatarateOffsetsUS915, %object
 3752              		.size	DatarateOffsetsUS915, 20
 3753              	DatarateOffsetsUS915:
 3754 013c 0A       		.byte	10
ARM GAS  C:\Users\EBANO_~1\AppData\Local\Temp\ccFRmLE5.s 			page 94


 3755 013d 09       		.byte	9
 3756 013e 08       		.byte	8
 3757 013f 08       		.byte	8
 3758 0140 0B       		.byte	11
 3759 0141 0A       		.byte	10
 3760 0142 09       		.byte	9
 3761 0143 08       		.byte	8
 3762 0144 0C       		.byte	12
 3763 0145 0B       		.byte	11
 3764 0146 0A       		.byte	10
 3765 0147 09       		.byte	9
 3766 0148 0D       		.byte	13
 3767 0149 0C       		.byte	12
 3768 014a 0B       		.byte	11
 3769 014b 0A       		.byte	10
 3770 014c 0D       		.byte	13
 3771 014d 0D       		.byte	13
 3772 014e 0C       		.byte	12
 3773 014f 0B       		.byte	11
 3774              		.align	2
 3775              		.set	.LANCHOR0,. + 0
 3776              		.type	MaxPayloadOfDatarateUS915, %object
 3777              		.size	MaxPayloadOfDatarateUS915, 16
 3778              	MaxPayloadOfDatarateUS915:
 3779 0150 0B       		.byte	11
 3780 0151 35       		.byte	53
 3781 0152 7D       		.byte	125
 3782 0153 F2       		.byte	-14
 3783 0154 F2       		.byte	-14
 3784 0155 00       		.byte	0
 3785 0156 00       		.byte	0
 3786 0157 00       		.byte	0
 3787 0158 35       		.byte	53
 3788 0159 81       		.byte	-127
 3789 015a F2       		.byte	-14
 3790 015b F2       		.byte	-14
 3791 015c F2       		.byte	-14
 3792 015d F2       		.byte	-14
 3793 015e 00       		.byte	0
 3794 015f 00       		.byte	0
 3795              		.type	MaxPayloadOfDatarateRepeaterUS915, %object
 3796              		.size	MaxPayloadOfDatarateRepeaterUS915, 16
 3797              	MaxPayloadOfDatarateRepeaterUS915:
 3798 0160 0B       		.byte	11
 3799 0161 35       		.byte	53
 3800 0162 7D       		.byte	125
 3801 0163 F2       		.byte	-14
 3802 0164 F2       		.byte	-14
 3803 0165 00       		.byte	0
 3804 0166 00       		.byte	0
 3805 0167 00       		.byte	0
 3806 0168 21       		.byte	33
 3807 0169 6D       		.byte	109
 3808 016a DE       		.byte	-34
 3809 016b DE       		.byte	-34
 3810 016c DE       		.byte	-34
 3811 016d DE       		.byte	-34
ARM GAS  C:\Users\EBANO_~1\AppData\Local\Temp\ccFRmLE5.s 			page 95


 3812 016e 00       		.byte	0
 3813 016f 00       		.byte	0
 3814              		.text
 3815              	.Letext0:
 3816              		.file 2 "c:\\program files (x86)\\gnu tools arm embedded\\7 2018-q2-update\\arm-none-eabi\\include
 3817              		.file 3 "c:\\program files (x86)\\gnu tools arm embedded\\7 2018-q2-update\\arm-none-eabi\\include
 3818              		.file 4 "../../../../../../Drivers/CMSIS/Device/ST/STM32L0xx/Include/system_stm32l0xx.h"
 3819              		.file 5 "c:\\program files (x86)\\gnu tools arm embedded\\7 2018-q2-update\\lib\\gcc\\arm-none-eab
 3820              		.file 6 "c:\\program files (x86)\\gnu tools arm embedded\\7 2018-q2-update\\arm-none-eabi\\include
 3821              		.file 7 "c:\\program files (x86)\\gnu tools arm embedded\\7 2018-q2-update\\arm-none-eabi\\include
 3822              		.file 8 "c:\\program files (x86)\\gnu tools arm embedded\\7 2018-q2-update\\arm-none-eabi\\include
 3823              		.file 9 "c:\\program files (x86)\\gnu tools arm embedded\\7 2018-q2-update\\arm-none-eabi\\include
 3824              		.file 10 "../../../../../../Middlewares/Third_Party/LoRaWAN/Utilities/utilities.h"
 3825              		.file 11 "../../../../../../Middlewares/Third_Party/LoRaWAN/Mac/LoRaMacTypes.h"
 3826              		.file 12 "c:\\program files (x86)\\gnu tools arm embedded\\7 2018-q2-update\\arm-none-eabi\\includ
 3827              		.file 13 "../../../../../../Middlewares/Third_Party/LoRaWAN/Phy/radio.h"
 3828              		.file 14 "../../../../../../Middlewares/Third_Party/LoRaWAN/Mac/LoRaMac.h"
 3829              		.file 15 "../../../../../../Middlewares/Third_Party/LoRaWAN/Mac/region/Region.h"
 3830              		.file 16 "../../../../../../Middlewares/Third_Party/LoRaWAN/Mac/region/RegionCommon.h"
 3831              		.file 17 "../../../../../../Middlewares/Third_Party/LoRaWAN/Mac/region/RegionUS915.h"
 3832              		.file 18 "../../../../../../Middlewares/Third_Party/LoRaWAN/Utilities/timeServer.h"
 3833              		.file 19 "<built-in>"
 3834              		.section	.debug_info,"",%progbits
 3835              	.Ldebug_info0:
 3836 0000 41320000 		.4byte	0x3241
 3837 0004 0200     		.2byte	0x2
 3838 0006 00000000 		.4byte	.Ldebug_abbrev0
 3839 000a 04       		.byte	0x4
 3840 000b 01       		.uleb128 0x1
 3841 000c B4090000 		.4byte	.LASF567
 3842 0010 0C       		.byte	0xc
 3843 0011 CB170000 		.4byte	.LASF568
 3844 0015 0C080000 		.4byte	.LASF569
 3845 0019 30020000 		.4byte	.Ldebug_ranges0+0x230
 3846 001d 00000000 		.4byte	0
 3847 0021 00000000 		.4byte	0
 3848 0025 00000000 		.4byte	.Ldebug_line0
 3849 0029 02       		.uleb128 0x2
 3850 002a 01       		.byte	0x1
 3851 002b 06       		.byte	0x6
 3852 002c E8120000 		.4byte	.LASF2
 3853 0030 03       		.uleb128 0x3
 3854 0031 5B210000 		.4byte	.LASF0
 3855 0035 02       		.byte	0x2
 3856 0036 29       		.byte	0x29
 3857 0037 29000000 		.4byte	0x29
 3858 003b 03       		.uleb128 0x3
 3859 003c C5000000 		.4byte	.LASF1
 3860 0040 02       		.byte	0x2
 3861 0041 2B       		.byte	0x2b
 3862 0042 46000000 		.4byte	0x46
 3863 0046 02       		.uleb128 0x2
 3864 0047 01       		.byte	0x1
 3865 0048 08       		.byte	0x8
 3866 0049 A4070000 		.4byte	.LASF3
 3867 004d 03       		.uleb128 0x3
 3868 004e 41060000 		.4byte	.LASF4
ARM GAS  C:\Users\EBANO_~1\AppData\Local\Temp\ccFRmLE5.s 			page 96


 3869 0052 02       		.byte	0x2
 3870 0053 37       		.byte	0x37
 3871 0054 58000000 		.4byte	0x58
 3872 0058 02       		.uleb128 0x2
 3873 0059 02       		.byte	0x2
 3874 005a 05       		.byte	0x5
 3875 005b 01220000 		.4byte	.LASF5
 3876 005f 03       		.uleb128 0x3
 3877 0060 57060000 		.4byte	.LASF6
 3878 0064 02       		.byte	0x2
 3879 0065 39       		.byte	0x39
 3880 0066 6A000000 		.4byte	0x6a
 3881 006a 02       		.uleb128 0x2
 3882 006b 02       		.byte	0x2
 3883 006c 07       		.byte	0x7
 3884 006d D5120000 		.4byte	.LASF7
 3885 0071 03       		.uleb128 0x3
 3886 0072 7B1A0000 		.4byte	.LASF8
 3887 0076 02       		.byte	0x2
 3888 0077 4D       		.byte	0x4d
 3889 0078 7C000000 		.4byte	0x7c
 3890 007c 02       		.uleb128 0x2
 3891 007d 04       		.byte	0x4
 3892 007e 05       		.byte	0x5
 3893 007f E2140000 		.4byte	.LASF9
 3894 0083 03       		.uleb128 0x3
 3895 0084 8E1A0000 		.4byte	.LASF10
 3896 0088 02       		.byte	0x2
 3897 0089 4F       		.byte	0x4f
 3898 008a 8E000000 		.4byte	0x8e
 3899 008e 02       		.uleb128 0x2
 3900 008f 04       		.byte	0x4
 3901 0090 07       		.byte	0x7
 3902 0091 26160000 		.4byte	.LASF11
 3903 0095 02       		.uleb128 0x2
 3904 0096 08       		.byte	0x8
 3905 0097 05       		.byte	0x5
 3906 0098 551F0000 		.4byte	.LASF12
 3907 009c 02       		.uleb128 0x2
 3908 009d 08       		.byte	0x8
 3909 009e 07       		.byte	0x7
 3910 009f 911C0000 		.4byte	.LASF13
 3911 00a3 04       		.uleb128 0x4
 3912 00a4 04       		.byte	0x4
 3913 00a5 05       		.byte	0x5
 3914 00a6 696E7400 		.ascii	"int\000"
 3915 00aa 02       		.uleb128 0x2
 3916 00ab 04       		.byte	0x4
 3917 00ac 07       		.byte	0x7
 3918 00ad 90210000 		.4byte	.LASF14
 3919 00b1 03       		.uleb128 0x3
 3920 00b2 D4110000 		.4byte	.LASF15
 3921 00b6 03       		.byte	0x3
 3922 00b7 14       		.byte	0x14
 3923 00b8 30000000 		.4byte	0x30
 3924 00bc 05       		.uleb128 0x5
 3925 00bd B1000000 		.4byte	0xb1
ARM GAS  C:\Users\EBANO_~1\AppData\Local\Temp\ccFRmLE5.s 			page 97


 3926 00c1 03       		.uleb128 0x3
 3927 00c2 F50B0000 		.4byte	.LASF16
 3928 00c6 03       		.byte	0x3
 3929 00c7 18       		.byte	0x18
 3930 00c8 3B000000 		.4byte	0x3b
 3931 00cc 05       		.uleb128 0x5
 3932 00cd C1000000 		.4byte	0xc1
 3933 00d1 03       		.uleb128 0x3
 3934 00d2 B6120000 		.4byte	.LASF17
 3935 00d6 03       		.byte	0x3
 3936 00d7 20       		.byte	0x20
 3937 00d8 4D000000 		.4byte	0x4d
 3938 00dc 03       		.uleb128 0x3
 3939 00dd 53010000 		.4byte	.LASF18
 3940 00e1 03       		.byte	0x3
 3941 00e2 24       		.byte	0x24
 3942 00e3 5F000000 		.4byte	0x5f
 3943 00e7 03       		.uleb128 0x3
 3944 00e8 01030000 		.4byte	.LASF19
 3945 00ec 03       		.byte	0x3
 3946 00ed 2C       		.byte	0x2c
 3947 00ee 71000000 		.4byte	0x71
 3948 00f2 03       		.uleb128 0x3
 3949 00f3 9B150000 		.4byte	.LASF20
 3950 00f7 03       		.byte	0x3
 3951 00f8 30       		.byte	0x30
 3952 00f9 83000000 		.4byte	0x83
 3953 00fd 05       		.uleb128 0x5
 3954 00fe F2000000 		.4byte	0xf2
 3955 0102 06       		.uleb128 0x6
 3956 0103 A8130000 		.4byte	.LASF21
 3957 0107 04       		.byte	0x4
 3958 0108 4A       		.byte	0x4a
 3959 0109 F2000000 		.4byte	0xf2
 3960 010d 01       		.byte	0x1
 3961 010e 01       		.byte	0x1
 3962 010f 07       		.uleb128 0x7
 3963 0110 CC000000 		.4byte	0xcc
 3964 0114 1F010000 		.4byte	0x11f
 3965 0118 08       		.uleb128 0x8
 3966 0119 AA000000 		.4byte	0xaa
 3967 011d 0F       		.byte	0xf
 3968 011e 00       		.byte	0
 3969 011f 05       		.uleb128 0x5
 3970 0120 0F010000 		.4byte	0x10f
 3971 0124 06       		.uleb128 0x6
 3972 0125 1D200000 		.4byte	.LASF22
 3973 0129 04       		.byte	0x4
 3974 012a 4D       		.byte	0x4d
 3975 012b 1F010000 		.4byte	0x11f
 3976 012f 01       		.byte	0x1
 3977 0130 01       		.byte	0x1
 3978 0131 07       		.uleb128 0x7
 3979 0132 CC000000 		.4byte	0xcc
 3980 0136 41010000 		.4byte	0x141
 3981 013a 08       		.uleb128 0x8
 3982 013b AA000000 		.4byte	0xaa
ARM GAS  C:\Users\EBANO_~1\AppData\Local\Temp\ccFRmLE5.s 			page 98


 3983 013f 07       		.byte	0x7
 3984 0140 00       		.byte	0
 3985 0141 05       		.uleb128 0x5
 3986 0142 31010000 		.4byte	0x131
 3987 0146 06       		.uleb128 0x6
 3988 0147 FF160000 		.4byte	.LASF23
 3989 014b 04       		.byte	0x4
 3990 014c 4E       		.byte	0x4e
 3991 014d 41010000 		.4byte	0x141
 3992 0151 01       		.byte	0x1
 3993 0152 01       		.byte	0x1
 3994 0153 07       		.uleb128 0x7
 3995 0154 CC000000 		.4byte	0xcc
 3996 0158 63010000 		.4byte	0x163
 3997 015c 08       		.uleb128 0x8
 3998 015d AA000000 		.4byte	0xaa
 3999 0161 08       		.byte	0x8
 4000 0162 00       		.byte	0
 4001 0163 05       		.uleb128 0x5
 4002 0164 53010000 		.4byte	0x153
 4003 0168 06       		.uleb128 0x6
 4004 0169 E0190000 		.4byte	.LASF24
 4005 016d 04       		.byte	0x4
 4006 016e 4F       		.byte	0x4f
 4007 016f 63010000 		.4byte	0x163
 4008 0173 01       		.byte	0x1
 4009 0174 01       		.byte	0x1
 4010 0175 03       		.uleb128 0x3
 4011 0176 D70B0000 		.4byte	.LASF25
 4012 017a 05       		.byte	0x5
 4013 017b D8       		.byte	0xd8
 4014 017c AA000000 		.4byte	0xaa
 4015 0180 02       		.uleb128 0x2
 4016 0181 08       		.byte	0x8
 4017 0182 04       		.byte	0x4
 4018 0183 E4150000 		.4byte	.LASF26
 4019 0187 09       		.uleb128 0x9
 4020 0188 04       		.byte	0x4
 4021 0189 03       		.uleb128 0x3
 4022 018a FE050000 		.4byte	.LASF27
 4023 018e 06       		.byte	0x6
 4024 018f 22       		.byte	0x22
 4025 0190 94010000 		.4byte	0x194
 4026 0194 0A       		.uleb128 0xa
 4027 0195 04       		.byte	0x4
 4028 0196 9A010000 		.4byte	0x19a
 4029 019a 0B       		.uleb128 0xb
 4030 019b ED040000 		.4byte	.LASF134
 4031 019f 01       		.byte	0x1
 4032 01a0 03       		.uleb128 0x3
 4033 01a1 940B0000 		.4byte	.LASF28
 4034 01a5 07       		.byte	0x7
 4035 01a6 2C       		.byte	0x2c
 4036 01a7 7C000000 		.4byte	0x7c
 4037 01ab 03       		.uleb128 0x3
 4038 01ac 041A0000 		.4byte	.LASF29
 4039 01b0 07       		.byte	0x7
ARM GAS  C:\Users\EBANO_~1\AppData\Local\Temp\ccFRmLE5.s 			page 99


 4040 01b1 72       		.byte	0x72
 4041 01b2 7C000000 		.4byte	0x7c
 4042 01b6 0C       		.uleb128 0xc
 4043 01b7 970D0000 		.4byte	.LASF30
 4044 01bb 05       		.byte	0x5
 4045 01bc 6501     		.2byte	0x165
 4046 01be AA000000 		.4byte	0xaa
 4047 01c2 0D       		.uleb128 0xd
 4048 01c3 04       		.byte	0x4
 4049 01c4 07       		.byte	0x7
 4050 01c5 A6       		.byte	0xa6
 4051 01c6 E1010000 		.4byte	0x1e1
 4052 01ca 0E       		.uleb128 0xe
 4053 01cb 39140000 		.4byte	.LASF31
 4054 01cf 07       		.byte	0x7
 4055 01d0 A8       		.byte	0xa8
 4056 01d1 B6010000 		.4byte	0x1b6
 4057 01d5 0E       		.uleb128 0xe
 4058 01d6 3D0D0000 		.4byte	.LASF32
 4059 01da 07       		.byte	0x7
 4060 01db A9       		.byte	0xa9
 4061 01dc E1010000 		.4byte	0x1e1
 4062 01e0 00       		.byte	0
 4063 01e1 07       		.uleb128 0x7
 4064 01e2 46000000 		.4byte	0x46
 4065 01e6 F1010000 		.4byte	0x1f1
 4066 01ea 08       		.uleb128 0x8
 4067 01eb AA000000 		.4byte	0xaa
 4068 01ef 03       		.byte	0x3
 4069 01f0 00       		.byte	0
 4070 01f1 0F       		.uleb128 0xf
 4071 01f2 08       		.byte	0x8
 4072 01f3 07       		.byte	0x7
 4073 01f4 A3       		.byte	0xa3
 4074 01f5 16020000 		.4byte	0x216
 4075 01f9 10       		.uleb128 0x10
 4076 01fa ED0B0000 		.4byte	.LASF33
 4077 01fe 07       		.byte	0x7
 4078 01ff A5       		.byte	0xa5
 4079 0200 A3000000 		.4byte	0xa3
 4080 0204 02       		.byte	0x2
 4081 0205 23       		.byte	0x23
 4082 0206 00       		.uleb128 0
 4083 0207 10       		.uleb128 0x10
 4084 0208 C11A0000 		.4byte	.LASF34
 4085 020c 07       		.byte	0x7
 4086 020d AA       		.byte	0xaa
 4087 020e C2010000 		.4byte	0x1c2
 4088 0212 02       		.byte	0x2
 4089 0213 23       		.byte	0x23
 4090 0214 04       		.uleb128 0x4
 4091 0215 00       		.byte	0
 4092 0216 03       		.uleb128 0x3
 4093 0217 581A0000 		.4byte	.LASF35
 4094 021b 07       		.byte	0x7
 4095 021c AB       		.byte	0xab
 4096 021d F1010000 		.4byte	0x1f1
ARM GAS  C:\Users\EBANO_~1\AppData\Local\Temp\ccFRmLE5.s 			page 100


 4097 0221 03       		.uleb128 0x3
 4098 0222 B01E0000 		.4byte	.LASF36
 4099 0226 07       		.byte	0x7
 4100 0227 AF       		.byte	0xaf
 4101 0228 89010000 		.4byte	0x189
 4102 022c 03       		.uleb128 0x3
 4103 022d 00120000 		.4byte	.LASF37
 4104 0231 08       		.byte	0x8
 4105 0232 16       		.byte	0x16
 4106 0233 8E000000 		.4byte	0x8e
 4107 0237 11       		.uleb128 0x11
 4108 0238 87170000 		.4byte	.LASF42
 4109 023c 18       		.byte	0x18
 4110 023d 08       		.byte	0x8
 4111 023e 2F       		.byte	0x2f
 4112 023f 96020000 		.4byte	0x296
 4113 0243 10       		.uleb128 0x10
 4114 0244 120F0000 		.4byte	.LASF38
 4115 0248 08       		.byte	0x8
 4116 0249 31       		.byte	0x31
 4117 024a 96020000 		.4byte	0x296
 4118 024e 02       		.byte	0x2
 4119 024f 23       		.byte	0x23
 4120 0250 00       		.uleb128 0
 4121 0251 12       		.uleb128 0x12
 4122 0252 5F6B00   		.ascii	"_k\000"
 4123 0255 08       		.byte	0x8
 4124 0256 32       		.byte	0x32
 4125 0257 A3000000 		.4byte	0xa3
 4126 025b 02       		.byte	0x2
 4127 025c 23       		.byte	0x23
 4128 025d 04       		.uleb128 0x4
 4129 025e 10       		.uleb128 0x10
 4130 025f C2150000 		.4byte	.LASF39
 4131 0263 08       		.byte	0x8
 4132 0264 32       		.byte	0x32
 4133 0265 A3000000 		.4byte	0xa3
 4134 0269 02       		.byte	0x2
 4135 026a 23       		.byte	0x23
 4136 026b 08       		.uleb128 0x8
 4137 026c 10       		.uleb128 0x10
 4138 026d 55210000 		.4byte	.LASF40
 4139 0271 08       		.byte	0x8
 4140 0272 32       		.byte	0x32
 4141 0273 A3000000 		.4byte	0xa3
 4142 0277 02       		.byte	0x2
 4143 0278 23       		.byte	0x23
 4144 0279 0C       		.uleb128 0xc
 4145 027a 10       		.uleb128 0x10
 4146 027b F7070000 		.4byte	.LASF41
 4147 027f 08       		.byte	0x8
 4148 0280 32       		.byte	0x32
 4149 0281 A3000000 		.4byte	0xa3
 4150 0285 02       		.byte	0x2
 4151 0286 23       		.byte	0x23
 4152 0287 10       		.uleb128 0x10
 4153 0288 12       		.uleb128 0x12
ARM GAS  C:\Users\EBANO_~1\AppData\Local\Temp\ccFRmLE5.s 			page 101


 4154 0289 5F7800   		.ascii	"_x\000"
 4155 028c 08       		.byte	0x8
 4156 028d 33       		.byte	0x33
 4157 028e 9C020000 		.4byte	0x29c
 4158 0292 02       		.byte	0x2
 4159 0293 23       		.byte	0x23
 4160 0294 14       		.uleb128 0x14
 4161 0295 00       		.byte	0
 4162 0296 0A       		.uleb128 0xa
 4163 0297 04       		.byte	0x4
 4164 0298 37020000 		.4byte	0x237
 4165 029c 07       		.uleb128 0x7
 4166 029d 2C020000 		.4byte	0x22c
 4167 02a1 AC020000 		.4byte	0x2ac
 4168 02a5 08       		.uleb128 0x8
 4169 02a6 AA000000 		.4byte	0xaa
 4170 02aa 00       		.byte	0
 4171 02ab 00       		.byte	0
 4172 02ac 11       		.uleb128 0x11
 4173 02ad 94050000 		.4byte	.LASF43
 4174 02b1 24       		.byte	0x24
 4175 02b2 08       		.byte	0x8
 4176 02b3 37       		.byte	0x37
 4177 02b4 37030000 		.4byte	0x337
 4178 02b8 10       		.uleb128 0x10
 4179 02b9 B3100000 		.4byte	.LASF44
 4180 02bd 08       		.byte	0x8
 4181 02be 39       		.byte	0x39
 4182 02bf A3000000 		.4byte	0xa3
 4183 02c3 02       		.byte	0x2
 4184 02c4 23       		.byte	0x23
 4185 02c5 00       		.uleb128 0
 4186 02c6 10       		.uleb128 0x10
 4187 02c7 64210000 		.4byte	.LASF45
 4188 02cb 08       		.byte	0x8
 4189 02cc 3A       		.byte	0x3a
 4190 02cd A3000000 		.4byte	0xa3
 4191 02d1 02       		.byte	0x2
 4192 02d2 23       		.byte	0x23
 4193 02d3 04       		.uleb128 0x4
 4194 02d4 10       		.uleb128 0x10
 4195 02d5 530D0000 		.4byte	.LASF46
 4196 02d9 08       		.byte	0x8
 4197 02da 3B       		.byte	0x3b
 4198 02db A3000000 		.4byte	0xa3
 4199 02df 02       		.byte	0x2
 4200 02e0 23       		.byte	0x23
 4201 02e1 08       		.uleb128 0x8
 4202 02e2 10       		.uleb128 0x10
 4203 02e3 620E0000 		.4byte	.LASF47
 4204 02e7 08       		.byte	0x8
 4205 02e8 3C       		.byte	0x3c
 4206 02e9 A3000000 		.4byte	0xa3
 4207 02ed 02       		.byte	0x2
 4208 02ee 23       		.byte	0x23
 4209 02ef 0C       		.uleb128 0xc
 4210 02f0 10       		.uleb128 0x10
ARM GAS  C:\Users\EBANO_~1\AppData\Local\Temp\ccFRmLE5.s 			page 102


 4211 02f1 23010000 		.4byte	.LASF48
 4212 02f5 08       		.byte	0x8
 4213 02f6 3D       		.byte	0x3d
 4214 02f7 A3000000 		.4byte	0xa3
 4215 02fb 02       		.byte	0x2
 4216 02fc 23       		.byte	0x23
 4217 02fd 10       		.uleb128 0x10
 4218 02fe 10       		.uleb128 0x10
 4219 02ff 6C090000 		.4byte	.LASF49
 4220 0303 08       		.byte	0x8
 4221 0304 3E       		.byte	0x3e
 4222 0305 A3000000 		.4byte	0xa3
 4223 0309 02       		.byte	0x2
 4224 030a 23       		.byte	0x23
 4225 030b 14       		.uleb128 0x14
 4226 030c 10       		.uleb128 0x10
 4227 030d 4A070000 		.4byte	.LASF50
 4228 0311 08       		.byte	0x8
 4229 0312 3F       		.byte	0x3f
 4230 0313 A3000000 		.4byte	0xa3
 4231 0317 02       		.byte	0x2
 4232 0318 23       		.byte	0x23
 4233 0319 18       		.uleb128 0x18
 4234 031a 10       		.uleb128 0x10
 4235 031b CC050000 		.4byte	.LASF51
 4236 031f 08       		.byte	0x8
 4237 0320 40       		.byte	0x40
 4238 0321 A3000000 		.4byte	0xa3
 4239 0325 02       		.byte	0x2
 4240 0326 23       		.byte	0x23
 4241 0327 1C       		.uleb128 0x1c
 4242 0328 10       		.uleb128 0x10
 4243 0329 54070000 		.4byte	.LASF52
 4244 032d 08       		.byte	0x8
 4245 032e 41       		.byte	0x41
 4246 032f A3000000 		.4byte	0xa3
 4247 0333 02       		.byte	0x2
 4248 0334 23       		.byte	0x23
 4249 0335 20       		.uleb128 0x20
 4250 0336 00       		.byte	0
 4251 0337 13       		.uleb128 0x13
 4252 0338 BC100000 		.4byte	.LASF53
 4253 033c 0801     		.2byte	0x108
 4254 033e 08       		.byte	0x8
 4255 033f 4A       		.byte	0x4a
 4256 0340 80030000 		.4byte	0x380
 4257 0344 10       		.uleb128 0x10
 4258 0345 6C0E0000 		.4byte	.LASF54
 4259 0349 08       		.byte	0x8
 4260 034a 4B       		.byte	0x4b
 4261 034b 80030000 		.4byte	0x380
 4262 034f 02       		.byte	0x2
 4263 0350 23       		.byte	0x23
 4264 0351 00       		.uleb128 0
 4265 0352 10       		.uleb128 0x10
 4266 0353 23070000 		.4byte	.LASF55
 4267 0357 08       		.byte	0x8
ARM GAS  C:\Users\EBANO_~1\AppData\Local\Temp\ccFRmLE5.s 			page 103


 4268 0358 4C       		.byte	0x4c
 4269 0359 80030000 		.4byte	0x380
 4270 035d 03       		.byte	0x3
 4271 035e 23       		.byte	0x23
 4272 035f 8001     		.uleb128 0x80
 4273 0361 10       		.uleb128 0x10
 4274 0362 2C010000 		.4byte	.LASF56
 4275 0366 08       		.byte	0x8
 4276 0367 4E       		.byte	0x4e
 4277 0368 2C020000 		.4byte	0x22c
 4278 036c 03       		.byte	0x3
 4279 036d 23       		.byte	0x23
 4280 036e 8002     		.uleb128 0x100
 4281 0370 10       		.uleb128 0x10
 4282 0371 D91A0000 		.4byte	.LASF57
 4283 0375 08       		.byte	0x8
 4284 0376 51       		.byte	0x51
 4285 0377 2C020000 		.4byte	0x22c
 4286 037b 03       		.byte	0x3
 4287 037c 23       		.byte	0x23
 4288 037d 8402     		.uleb128 0x104
 4289 037f 00       		.byte	0
 4290 0380 07       		.uleb128 0x7
 4291 0381 87010000 		.4byte	0x187
 4292 0385 90030000 		.4byte	0x390
 4293 0389 08       		.uleb128 0x8
 4294 038a AA000000 		.4byte	0xaa
 4295 038e 1F       		.byte	0x1f
 4296 038f 00       		.byte	0
 4297 0390 13       		.uleb128 0x13
 4298 0391 09010000 		.4byte	.LASF58
 4299 0395 9001     		.2byte	0x190
 4300 0397 08       		.byte	0x8
 4301 0398 5D       		.byte	0x5d
 4302 0399 D7030000 		.4byte	0x3d7
 4303 039d 10       		.uleb128 0x10
 4304 039e 120F0000 		.4byte	.LASF38
 4305 03a2 08       		.byte	0x8
 4306 03a3 5E       		.byte	0x5e
 4307 03a4 D7030000 		.4byte	0x3d7
 4308 03a8 02       		.byte	0x2
 4309 03a9 23       		.byte	0x23
 4310 03aa 00       		.uleb128 0
 4311 03ab 10       		.uleb128 0x10
 4312 03ac 3A010000 		.4byte	.LASF59
 4313 03b0 08       		.byte	0x8
 4314 03b1 5F       		.byte	0x5f
 4315 03b2 A3000000 		.4byte	0xa3
 4316 03b6 02       		.byte	0x2
 4317 03b7 23       		.byte	0x23
 4318 03b8 04       		.uleb128 0x4
 4319 03b9 10       		.uleb128 0x10
 4320 03ba 421A0000 		.4byte	.LASF60
 4321 03be 08       		.byte	0x8
 4322 03bf 61       		.byte	0x61
 4323 03c0 DD030000 		.4byte	0x3dd
 4324 03c4 02       		.byte	0x2
ARM GAS  C:\Users\EBANO_~1\AppData\Local\Temp\ccFRmLE5.s 			page 104


 4325 03c5 23       		.byte	0x23
 4326 03c6 08       		.uleb128 0x8
 4327 03c7 10       		.uleb128 0x10
 4328 03c8 BC100000 		.4byte	.LASF53
 4329 03cc 08       		.byte	0x8
 4330 03cd 62       		.byte	0x62
 4331 03ce 37030000 		.4byte	0x337
 4332 03d2 03       		.byte	0x3
 4333 03d3 23       		.byte	0x23
 4334 03d4 8801     		.uleb128 0x88
 4335 03d6 00       		.byte	0
 4336 03d7 0A       		.uleb128 0xa
 4337 03d8 04       		.byte	0x4
 4338 03d9 90030000 		.4byte	0x390
 4339 03dd 07       		.uleb128 0x7
 4340 03de ED030000 		.4byte	0x3ed
 4341 03e2 ED030000 		.4byte	0x3ed
 4342 03e6 08       		.uleb128 0x8
 4343 03e7 AA000000 		.4byte	0xaa
 4344 03eb 1F       		.byte	0x1f
 4345 03ec 00       		.byte	0
 4346 03ed 0A       		.uleb128 0xa
 4347 03ee 04       		.byte	0x4
 4348 03ef F3030000 		.4byte	0x3f3
 4349 03f3 14       		.uleb128 0x14
 4350 03f4 01       		.byte	0x1
 4351 03f5 11       		.uleb128 0x11
 4352 03f6 D4130000 		.4byte	.LASF61
 4353 03fa 08       		.byte	0x8
 4354 03fb 08       		.byte	0x8
 4355 03fc 75       		.byte	0x75
 4356 03fd 1E040000 		.4byte	0x41e
 4357 0401 10       		.uleb128 0x10
 4358 0402 47050000 		.4byte	.LASF62
 4359 0406 08       		.byte	0x8
 4360 0407 76       		.byte	0x76
 4361 0408 1E040000 		.4byte	0x41e
 4362 040c 02       		.byte	0x2
 4363 040d 23       		.byte	0x23
 4364 040e 00       		.uleb128 0
 4365 040f 10       		.uleb128 0x10
 4366 0410 AD080000 		.4byte	.LASF63
 4367 0414 08       		.byte	0x8
 4368 0415 77       		.byte	0x77
 4369 0416 A3000000 		.4byte	0xa3
 4370 041a 02       		.byte	0x2
 4371 041b 23       		.byte	0x23
 4372 041c 04       		.uleb128 0x4
 4373 041d 00       		.byte	0
 4374 041e 0A       		.uleb128 0xa
 4375 041f 04       		.byte	0x4
 4376 0420 46000000 		.4byte	0x46
 4377 0424 11       		.uleb128 0x11
 4378 0425 291A0000 		.4byte	.LASF64
 4379 0429 68       		.byte	0x68
 4380 042a 08       		.byte	0x8
 4381 042b B5       		.byte	0xb5
ARM GAS  C:\Users\EBANO_~1\AppData\Local\Temp\ccFRmLE5.s 			page 105


 4382 042c 7E050000 		.4byte	0x57e
 4383 0430 12       		.uleb128 0x12
 4384 0431 5F7000   		.ascii	"_p\000"
 4385 0434 08       		.byte	0x8
 4386 0435 B6       		.byte	0xb6
 4387 0436 1E040000 		.4byte	0x41e
 4388 043a 02       		.byte	0x2
 4389 043b 23       		.byte	0x23
 4390 043c 00       		.uleb128 0
 4391 043d 12       		.uleb128 0x12
 4392 043e 5F7200   		.ascii	"_r\000"
 4393 0441 08       		.byte	0x8
 4394 0442 B7       		.byte	0xb7
 4395 0443 A3000000 		.4byte	0xa3
 4396 0447 02       		.byte	0x2
 4397 0448 23       		.byte	0x23
 4398 0449 04       		.uleb128 0x4
 4399 044a 12       		.uleb128 0x12
 4400 044b 5F7700   		.ascii	"_w\000"
 4401 044e 08       		.byte	0x8
 4402 044f B8       		.byte	0xb8
 4403 0450 A3000000 		.4byte	0xa3
 4404 0454 02       		.byte	0x2
 4405 0455 23       		.byte	0x23
 4406 0456 08       		.uleb128 0x8
 4407 0457 10       		.uleb128 0x10
 4408 0458 9E010000 		.4byte	.LASF65
 4409 045c 08       		.byte	0x8
 4410 045d B9       		.byte	0xb9
 4411 045e 58000000 		.4byte	0x58
 4412 0462 02       		.byte	0x2
 4413 0463 23       		.byte	0x23
 4414 0464 0C       		.uleb128 0xc
 4415 0465 10       		.uleb128 0x10
 4416 0466 141A0000 		.4byte	.LASF66
 4417 046a 08       		.byte	0x8
 4418 046b BA       		.byte	0xba
 4419 046c 58000000 		.4byte	0x58
 4420 0470 02       		.byte	0x2
 4421 0471 23       		.byte	0x23
 4422 0472 0E       		.uleb128 0xe
 4423 0473 12       		.uleb128 0x12
 4424 0474 5F626600 		.ascii	"_bf\000"
 4425 0478 08       		.byte	0x8
 4426 0479 BB       		.byte	0xbb
 4427 047a F5030000 		.4byte	0x3f5
 4428 047e 02       		.byte	0x2
 4429 047f 23       		.byte	0x23
 4430 0480 10       		.uleb128 0x10
 4431 0481 10       		.uleb128 0x10
 4432 0482 BB030000 		.4byte	.LASF67
 4433 0486 08       		.byte	0x8
 4434 0487 BC       		.byte	0xbc
 4435 0488 A3000000 		.4byte	0xa3
 4436 048c 02       		.byte	0x2
 4437 048d 23       		.byte	0x23
 4438 048e 18       		.uleb128 0x18
ARM GAS  C:\Users\EBANO_~1\AppData\Local\Temp\ccFRmLE5.s 			page 106


 4439 048f 10       		.uleb128 0x10
 4440 0490 4B0F0000 		.4byte	.LASF68
 4441 0494 08       		.byte	0x8
 4442 0495 C3       		.byte	0xc3
 4443 0496 87010000 		.4byte	0x187
 4444 049a 02       		.byte	0x2
 4445 049b 23       		.byte	0x23
 4446 049c 1C       		.uleb128 0x1c
 4447 049d 10       		.uleb128 0x10
 4448 049e 3D220000 		.4byte	.LASF69
 4449 04a2 08       		.byte	0x8
 4450 04a3 C5       		.byte	0xc5
 4451 04a4 18070000 		.4byte	0x718
 4452 04a8 02       		.byte	0x2
 4453 04a9 23       		.byte	0x23
 4454 04aa 20       		.uleb128 0x20
 4455 04ab 10       		.uleb128 0x10
 4456 04ac C6080000 		.4byte	.LASF70
 4457 04b0 08       		.byte	0x8
 4458 04b1 C7       		.byte	0xc7
 4459 04b2 43070000 		.4byte	0x743
 4460 04b6 02       		.byte	0x2
 4461 04b7 23       		.byte	0x23
 4462 04b8 24       		.uleb128 0x24
 4463 04b9 10       		.uleb128 0x10
 4464 04ba A3120000 		.4byte	.LASF71
 4465 04be 08       		.byte	0x8
 4466 04bf CA       		.byte	0xca
 4467 04c0 68070000 		.4byte	0x768
 4468 04c4 02       		.byte	0x2
 4469 04c5 23       		.byte	0x23
 4470 04c6 28       		.uleb128 0x28
 4471 04c7 10       		.uleb128 0x10
 4472 04c8 9A160000 		.4byte	.LASF72
 4473 04cc 08       		.byte	0x8
 4474 04cd CB       		.byte	0xcb
 4475 04ce 83070000 		.4byte	0x783
 4476 04d2 02       		.byte	0x2
 4477 04d3 23       		.byte	0x23
 4478 04d4 2C       		.uleb128 0x2c
 4479 04d5 12       		.uleb128 0x12
 4480 04d6 5F756200 		.ascii	"_ub\000"
 4481 04da 08       		.byte	0x8
 4482 04db CE       		.byte	0xce
 4483 04dc F5030000 		.4byte	0x3f5
 4484 04e0 02       		.byte	0x2
 4485 04e1 23       		.byte	0x23
 4486 04e2 30       		.uleb128 0x30
 4487 04e3 12       		.uleb128 0x12
 4488 04e4 5F757000 		.ascii	"_up\000"
 4489 04e8 08       		.byte	0x8
 4490 04e9 CF       		.byte	0xcf
 4491 04ea 1E040000 		.4byte	0x41e
 4492 04ee 02       		.byte	0x2
 4493 04ef 23       		.byte	0x23
 4494 04f0 38       		.uleb128 0x38
 4495 04f1 12       		.uleb128 0x12
ARM GAS  C:\Users\EBANO_~1\AppData\Local\Temp\ccFRmLE5.s 			page 107


 4496 04f2 5F757200 		.ascii	"_ur\000"
 4497 04f6 08       		.byte	0x8
 4498 04f7 D0       		.byte	0xd0
 4499 04f8 A3000000 		.4byte	0xa3
 4500 04fc 02       		.byte	0x2
 4501 04fd 23       		.byte	0x23
 4502 04fe 3C       		.uleb128 0x3c
 4503 04ff 10       		.uleb128 0x10
 4504 0500 59190000 		.4byte	.LASF73
 4505 0504 08       		.byte	0x8
 4506 0505 D3       		.byte	0xd3
 4507 0506 89070000 		.4byte	0x789
 4508 050a 02       		.byte	0x2
 4509 050b 23       		.byte	0x23
 4510 050c 40       		.uleb128 0x40
 4511 050d 10       		.uleb128 0x10
 4512 050e 4C020000 		.4byte	.LASF74
 4513 0512 08       		.byte	0x8
 4514 0513 D4       		.byte	0xd4
 4515 0514 99070000 		.4byte	0x799
 4516 0518 02       		.byte	0x2
 4517 0519 23       		.byte	0x23
 4518 051a 43       		.uleb128 0x43
 4519 051b 12       		.uleb128 0x12
 4520 051c 5F6C6200 		.ascii	"_lb\000"
 4521 0520 08       		.byte	0x8
 4522 0521 D7       		.byte	0xd7
 4523 0522 F5030000 		.4byte	0x3f5
 4524 0526 02       		.byte	0x2
 4525 0527 23       		.byte	0x23
 4526 0528 44       		.uleb128 0x44
 4527 0529 10       		.uleb128 0x10
 4528 052a 41190000 		.4byte	.LASF75
 4529 052e 08       		.byte	0x8
 4530 052f DA       		.byte	0xda
 4531 0530 A3000000 		.4byte	0xa3
 4532 0534 02       		.byte	0x2
 4533 0535 23       		.byte	0x23
 4534 0536 4C       		.uleb128 0x4c
 4535 0537 10       		.uleb128 0x10
 4536 0538 A0130000 		.4byte	.LASF76
 4537 053c 08       		.byte	0x8
 4538 053d DB       		.byte	0xdb
 4539 053e A0010000 		.4byte	0x1a0
 4540 0542 02       		.byte	0x2
 4541 0543 23       		.byte	0x23
 4542 0544 50       		.uleb128 0x50
 4543 0545 10       		.uleb128 0x10
 4544 0546 20040000 		.4byte	.LASF77
 4545 054a 08       		.byte	0x8
 4546 054b DE       		.byte	0xde
 4547 054c 9D050000 		.4byte	0x59d
 4548 0550 02       		.byte	0x2
 4549 0551 23       		.byte	0x23
 4550 0552 54       		.uleb128 0x54
 4551 0553 10       		.uleb128 0x10
 4552 0554 46020000 		.4byte	.LASF78
ARM GAS  C:\Users\EBANO_~1\AppData\Local\Temp\ccFRmLE5.s 			page 108


 4553 0558 08       		.byte	0x8
 4554 0559 E2       		.byte	0xe2
 4555 055a 21020000 		.4byte	0x221
 4556 055e 02       		.byte	0x2
 4557 055f 23       		.byte	0x23
 4558 0560 58       		.uleb128 0x58
 4559 0561 10       		.uleb128 0x10
 4560 0562 F4000000 		.4byte	.LASF79
 4561 0566 08       		.byte	0x8
 4562 0567 E4       		.byte	0xe4
 4563 0568 16020000 		.4byte	0x216
 4564 056c 02       		.byte	0x2
 4565 056d 23       		.byte	0x23
 4566 056e 5C       		.uleb128 0x5c
 4567 056f 10       		.uleb128 0x10
 4568 0570 A31F0000 		.4byte	.LASF80
 4569 0574 08       		.byte	0x8
 4570 0575 E5       		.byte	0xe5
 4571 0576 A3000000 		.4byte	0xa3
 4572 057a 02       		.byte	0x2
 4573 057b 23       		.byte	0x23
 4574 057c 64       		.uleb128 0x64
 4575 057d 00       		.byte	0
 4576 057e 15       		.uleb128 0x15
 4577 057f 01       		.byte	0x1
 4578 0580 A3000000 		.4byte	0xa3
 4579 0584 9D050000 		.4byte	0x59d
 4580 0588 16       		.uleb128 0x16
 4581 0589 9D050000 		.4byte	0x59d
 4582 058d 16       		.uleb128 0x16
 4583 058e 87010000 		.4byte	0x187
 4584 0592 16       		.uleb128 0x16
 4585 0593 06070000 		.4byte	0x706
 4586 0597 16       		.uleb128 0x16
 4587 0598 A3000000 		.4byte	0xa3
 4588 059c 00       		.byte	0
 4589 059d 0A       		.uleb128 0xa
 4590 059e 04       		.byte	0x4
 4591 059f A8050000 		.4byte	0x5a8
 4592 05a3 05       		.uleb128 0x5
 4593 05a4 9D050000 		.4byte	0x59d
 4594 05a8 17       		.uleb128 0x17
 4595 05a9 F4040000 		.4byte	.LASF81
 4596 05ad 2804     		.2byte	0x428
 4597 05af 08       		.byte	0x8
 4598 05b0 6002     		.2byte	0x260
 4599 05b2 06070000 		.4byte	0x706
 4600 05b6 18       		.uleb128 0x18
 4601 05b7 3F0E0000 		.4byte	.LASF82
 4602 05bb 08       		.byte	0x8
 4603 05bc 6202     		.2byte	0x262
 4604 05be A3000000 		.4byte	0xa3
 4605 05c2 02       		.byte	0x2
 4606 05c3 23       		.byte	0x23
 4607 05c4 00       		.uleb128 0
 4608 05c5 18       		.uleb128 0x18
 4609 05c6 1B0B0000 		.4byte	.LASF83
ARM GAS  C:\Users\EBANO_~1\AppData\Local\Temp\ccFRmLE5.s 			page 109


 4610 05ca 08       		.byte	0x8
 4611 05cb 6702     		.2byte	0x267
 4612 05cd F6070000 		.4byte	0x7f6
 4613 05d1 02       		.byte	0x2
 4614 05d2 23       		.byte	0x23
 4615 05d3 04       		.uleb128 0x4
 4616 05d4 18       		.uleb128 0x18
 4617 05d5 B2070000 		.4byte	.LASF84
 4618 05d9 08       		.byte	0x8
 4619 05da 6702     		.2byte	0x267
 4620 05dc F6070000 		.4byte	0x7f6
 4621 05e0 02       		.byte	0x2
 4622 05e1 23       		.byte	0x23
 4623 05e2 08       		.uleb128 0x8
 4624 05e3 18       		.uleb128 0x18
 4625 05e4 04070000 		.4byte	.LASF85
 4626 05e8 08       		.byte	0x8
 4627 05e9 6702     		.2byte	0x267
 4628 05eb F6070000 		.4byte	0x7f6
 4629 05ef 02       		.byte	0x2
 4630 05f0 23       		.byte	0x23
 4631 05f1 0C       		.uleb128 0xc
 4632 05f2 18       		.uleb128 0x18
 4633 05f3 35010000 		.4byte	.LASF86
 4634 05f7 08       		.byte	0x8
 4635 05f8 6902     		.2byte	0x269
 4636 05fa A3000000 		.4byte	0xa3
 4637 05fe 02       		.byte	0x2
 4638 05ff 23       		.byte	0x23
 4639 0600 10       		.uleb128 0x10
 4640 0601 18       		.uleb128 0x18
 4641 0602 64150000 		.4byte	.LASF87
 4642 0606 08       		.byte	0x8
 4643 0607 6A02     		.2byte	0x26a
 4644 0609 110A0000 		.4byte	0xa11
 4645 060d 02       		.byte	0x2
 4646 060e 23       		.byte	0x23
 4647 060f 14       		.uleb128 0x14
 4648 0610 18       		.uleb128 0x18
 4649 0611 061E0000 		.4byte	.LASF88
 4650 0615 08       		.byte	0x8
 4651 0616 6D02     		.2byte	0x26d
 4652 0618 A3000000 		.4byte	0xa3
 4653 061c 02       		.byte	0x2
 4654 061d 23       		.byte	0x23
 4655 061e 30       		.uleb128 0x30
 4656 061f 18       		.uleb128 0x18
 4657 0620 E21F0000 		.4byte	.LASF89
 4658 0624 08       		.byte	0x8
 4659 0625 6E02     		.2byte	0x26e
 4660 0627 270A0000 		.4byte	0xa27
 4661 062b 02       		.byte	0x2
 4662 062c 23       		.byte	0x23
 4663 062d 34       		.uleb128 0x34
 4664 062e 18       		.uleb128 0x18
 4665 062f 611E0000 		.4byte	.LASF90
 4666 0633 08       		.byte	0x8
ARM GAS  C:\Users\EBANO_~1\AppData\Local\Temp\ccFRmLE5.s 			page 110


 4667 0634 7002     		.2byte	0x270
 4668 0636 A3000000 		.4byte	0xa3
 4669 063a 02       		.byte	0x2
 4670 063b 23       		.byte	0x23
 4671 063c 38       		.uleb128 0x38
 4672 063d 18       		.uleb128 0x18
 4673 063e 9D190000 		.4byte	.LASF91
 4674 0642 08       		.byte	0x8
 4675 0643 7202     		.2byte	0x272
 4676 0645 390A0000 		.4byte	0xa39
 4677 0649 02       		.byte	0x2
 4678 064a 23       		.byte	0x23
 4679 064b 3C       		.uleb128 0x3c
 4680 064c 18       		.uleb128 0x18
 4681 064d 0C070000 		.4byte	.LASF92
 4682 0651 08       		.byte	0x8
 4683 0652 7502     		.2byte	0x275
 4684 0654 96020000 		.4byte	0x296
 4685 0658 02       		.byte	0x2
 4686 0659 23       		.byte	0x23
 4687 065a 40       		.uleb128 0x40
 4688 065b 18       		.uleb128 0x18
 4689 065c FA060000 		.4byte	.LASF93
 4690 0660 08       		.byte	0x8
 4691 0661 7602     		.2byte	0x276
 4692 0663 A3000000 		.4byte	0xa3
 4693 0667 02       		.byte	0x2
 4694 0668 23       		.byte	0x23
 4695 0669 44       		.uleb128 0x44
 4696 066a 18       		.uleb128 0x18
 4697 066b 281B0000 		.4byte	.LASF94
 4698 066f 08       		.byte	0x8
 4699 0670 7702     		.2byte	0x277
 4700 0672 96020000 		.4byte	0x296
 4701 0676 02       		.byte	0x2
 4702 0677 23       		.byte	0x23
 4703 0678 48       		.uleb128 0x48
 4704 0679 18       		.uleb128 0x18
 4705 067a 6E130000 		.4byte	.LASF95
 4706 067e 08       		.byte	0x8
 4707 067f 7802     		.2byte	0x278
 4708 0681 3F0A0000 		.4byte	0xa3f
 4709 0685 02       		.byte	0x2
 4710 0686 23       		.byte	0x23
 4711 0687 4C       		.uleb128 0x4c
 4712 0688 18       		.uleb128 0x18
 4713 0689 D1010000 		.4byte	.LASF96
 4714 068d 08       		.byte	0x8
 4715 068e 7B02     		.2byte	0x27b
 4716 0690 A3000000 		.4byte	0xa3
 4717 0694 02       		.byte	0x2
 4718 0695 23       		.byte	0x23
 4719 0696 50       		.uleb128 0x50
 4720 0697 18       		.uleb128 0x18
 4721 0698 9E0C0000 		.4byte	.LASF97
 4722 069c 08       		.byte	0x8
 4723 069d 7C02     		.2byte	0x27c
ARM GAS  C:\Users\EBANO_~1\AppData\Local\Temp\ccFRmLE5.s 			page 111


 4724 069f 06070000 		.4byte	0x706
 4725 06a3 02       		.byte	0x2
 4726 06a4 23       		.byte	0x23
 4727 06a5 54       		.uleb128 0x54
 4728 06a6 18       		.uleb128 0x18
 4729 06a7 9E0D0000 		.4byte	.LASF98
 4730 06ab 08       		.byte	0x8
 4731 06ac 9F02     		.2byte	0x29f
 4732 06ae EF090000 		.4byte	0x9ef
 4733 06b2 02       		.byte	0x2
 4734 06b3 23       		.byte	0x23
 4735 06b4 58       		.uleb128 0x58
 4736 06b5 18       		.uleb128 0x18
 4737 06b6 09010000 		.4byte	.LASF58
 4738 06ba 08       		.byte	0x8
 4739 06bb A302     		.2byte	0x2a3
 4740 06bd D7030000 		.4byte	0x3d7
 4741 06c1 03       		.byte	0x3
 4742 06c2 23       		.byte	0x23
 4743 06c3 C802     		.uleb128 0x148
 4744 06c5 18       		.uleb128 0x18
 4745 06c6 1F180000 		.4byte	.LASF99
 4746 06ca 08       		.byte	0x8
 4747 06cb A402     		.2byte	0x2a4
 4748 06cd 90030000 		.4byte	0x390
 4749 06d1 03       		.byte	0x3
 4750 06d2 23       		.byte	0x23
 4751 06d3 CC02     		.uleb128 0x14c
 4752 06d5 18       		.uleb128 0x18
 4753 06d6 11020000 		.4byte	.LASF100
 4754 06da 08       		.byte	0x8
 4755 06db A802     		.2byte	0x2a8
 4756 06dd 510A0000 		.4byte	0xa51
 4757 06e1 03       		.byte	0x3
 4758 06e2 23       		.byte	0x23
 4759 06e3 DC05     		.uleb128 0x2dc
 4760 06e5 18       		.uleb128 0x18
 4761 06e6 84190000 		.4byte	.LASF101
 4762 06ea 08       		.byte	0x8
 4763 06eb AD02     		.2byte	0x2ad
 4764 06ed B5070000 		.4byte	0x7b5
 4765 06f1 03       		.byte	0x3
 4766 06f2 23       		.byte	0x23
 4767 06f3 E005     		.uleb128 0x2e0
 4768 06f5 18       		.uleb128 0x18
 4769 06f6 42050000 		.4byte	.LASF102
 4770 06fa 08       		.byte	0x8
 4771 06fb AF02     		.2byte	0x2af
 4772 06fd 5D0A0000 		.4byte	0xa5d
 4773 0701 03       		.byte	0x3
 4774 0702 23       		.byte	0x23
 4775 0703 EC05     		.uleb128 0x2ec
 4776 0705 00       		.byte	0
 4777 0706 0A       		.uleb128 0xa
 4778 0707 04       		.byte	0x4
 4779 0708 0C070000 		.4byte	0x70c
 4780 070c 02       		.uleb128 0x2
ARM GAS  C:\Users\EBANO_~1\AppData\Local\Temp\ccFRmLE5.s 			page 112


 4781 070d 01       		.byte	0x1
 4782 070e 08       		.byte	0x8
 4783 070f B2160000 		.4byte	.LASF103
 4784 0713 05       		.uleb128 0x5
 4785 0714 0C070000 		.4byte	0x70c
 4786 0718 0A       		.uleb128 0xa
 4787 0719 04       		.byte	0x4
 4788 071a 7E050000 		.4byte	0x57e
 4789 071e 15       		.uleb128 0x15
 4790 071f 01       		.byte	0x1
 4791 0720 A3000000 		.4byte	0xa3
 4792 0724 3D070000 		.4byte	0x73d
 4793 0728 16       		.uleb128 0x16
 4794 0729 9D050000 		.4byte	0x59d
 4795 072d 16       		.uleb128 0x16
 4796 072e 87010000 		.4byte	0x187
 4797 0732 16       		.uleb128 0x16
 4798 0733 3D070000 		.4byte	0x73d
 4799 0737 16       		.uleb128 0x16
 4800 0738 A3000000 		.4byte	0xa3
 4801 073c 00       		.byte	0
 4802 073d 0A       		.uleb128 0xa
 4803 073e 04       		.byte	0x4
 4804 073f 13070000 		.4byte	0x713
 4805 0743 0A       		.uleb128 0xa
 4806 0744 04       		.byte	0x4
 4807 0745 1E070000 		.4byte	0x71e
 4808 0749 15       		.uleb128 0x15
 4809 074a 01       		.byte	0x1
 4810 074b AB010000 		.4byte	0x1ab
 4811 074f 68070000 		.4byte	0x768
 4812 0753 16       		.uleb128 0x16
 4813 0754 9D050000 		.4byte	0x59d
 4814 0758 16       		.uleb128 0x16
 4815 0759 87010000 		.4byte	0x187
 4816 075d 16       		.uleb128 0x16
 4817 075e AB010000 		.4byte	0x1ab
 4818 0762 16       		.uleb128 0x16
 4819 0763 A3000000 		.4byte	0xa3
 4820 0767 00       		.byte	0
 4821 0768 0A       		.uleb128 0xa
 4822 0769 04       		.byte	0x4
 4823 076a 49070000 		.4byte	0x749
 4824 076e 15       		.uleb128 0x15
 4825 076f 01       		.byte	0x1
 4826 0770 A3000000 		.4byte	0xa3
 4827 0774 83070000 		.4byte	0x783
 4828 0778 16       		.uleb128 0x16
 4829 0779 9D050000 		.4byte	0x59d
 4830 077d 16       		.uleb128 0x16
 4831 077e 87010000 		.4byte	0x187
 4832 0782 00       		.byte	0
 4833 0783 0A       		.uleb128 0xa
 4834 0784 04       		.byte	0x4
 4835 0785 6E070000 		.4byte	0x76e
 4836 0789 07       		.uleb128 0x7
 4837 078a 46000000 		.4byte	0x46
ARM GAS  C:\Users\EBANO_~1\AppData\Local\Temp\ccFRmLE5.s 			page 113


 4838 078e 99070000 		.4byte	0x799
 4839 0792 08       		.uleb128 0x8
 4840 0793 AA000000 		.4byte	0xaa
 4841 0797 02       		.byte	0x2
 4842 0798 00       		.byte	0
 4843 0799 07       		.uleb128 0x7
 4844 079a 46000000 		.4byte	0x46
 4845 079e A9070000 		.4byte	0x7a9
 4846 07a2 08       		.uleb128 0x8
 4847 07a3 AA000000 		.4byte	0xaa
 4848 07a7 00       		.byte	0
 4849 07a8 00       		.byte	0
 4850 07a9 0C       		.uleb128 0xc
 4851 07aa F6200000 		.4byte	.LASF104
 4852 07ae 08       		.byte	0x8
 4853 07af 1F01     		.2byte	0x11f
 4854 07b1 24040000 		.4byte	0x424
 4855 07b5 19       		.uleb128 0x19
 4856 07b6 D3160000 		.4byte	.LASF105
 4857 07ba 0C       		.byte	0xc
 4858 07bb 08       		.byte	0x8
 4859 07bc 2301     		.2byte	0x123
 4860 07be F0070000 		.4byte	0x7f0
 4861 07c2 18       		.uleb128 0x18
 4862 07c3 120F0000 		.4byte	.LASF38
 4863 07c7 08       		.byte	0x8
 4864 07c8 2501     		.2byte	0x125
 4865 07ca F0070000 		.4byte	0x7f0
 4866 07ce 02       		.byte	0x2
 4867 07cf 23       		.byte	0x23
 4868 07d0 00       		.uleb128 0
 4869 07d1 18       		.uleb128 0x18
 4870 07d2 CB0D0000 		.4byte	.LASF106
 4871 07d6 08       		.byte	0x8
 4872 07d7 2601     		.2byte	0x126
 4873 07d9 A3000000 		.4byte	0xa3
 4874 07dd 02       		.byte	0x2
 4875 07de 23       		.byte	0x23
 4876 07df 04       		.uleb128 0x4
 4877 07e0 18       		.uleb128 0x18
 4878 07e1 5E150000 		.4byte	.LASF107
 4879 07e5 08       		.byte	0x8
 4880 07e6 2701     		.2byte	0x127
 4881 07e8 F6070000 		.4byte	0x7f6
 4882 07ec 02       		.byte	0x2
 4883 07ed 23       		.byte	0x23
 4884 07ee 08       		.uleb128 0x8
 4885 07ef 00       		.byte	0
 4886 07f0 0A       		.uleb128 0xa
 4887 07f1 04       		.byte	0x4
 4888 07f2 B5070000 		.4byte	0x7b5
 4889 07f6 0A       		.uleb128 0xa
 4890 07f7 04       		.byte	0x4
 4891 07f8 A9070000 		.4byte	0x7a9
 4892 07fc 19       		.uleb128 0x19
 4893 07fd 5B220000 		.4byte	.LASF108
 4894 0801 0E       		.byte	0xe
ARM GAS  C:\Users\EBANO_~1\AppData\Local\Temp\ccFRmLE5.s 			page 114


 4895 0802 08       		.byte	0x8
 4896 0803 3F01     		.2byte	0x13f
 4897 0805 37080000 		.4byte	0x837
 4898 0809 18       		.uleb128 0x18
 4899 080a 91120000 		.4byte	.LASF109
 4900 080e 08       		.byte	0x8
 4901 080f 4001     		.2byte	0x140
 4902 0811 37080000 		.4byte	0x837
 4903 0815 02       		.byte	0x2
 4904 0816 23       		.byte	0x23
 4905 0817 00       		.uleb128 0
 4906 0818 18       		.uleb128 0x18
 4907 0819 4C0A0000 		.4byte	.LASF110
 4908 081d 08       		.byte	0x8
 4909 081e 4101     		.2byte	0x141
 4910 0820 37080000 		.4byte	0x837
 4911 0824 02       		.byte	0x2
 4912 0825 23       		.byte	0x23
 4913 0826 06       		.uleb128 0x6
 4914 0827 18       		.uleb128 0x18
 4915 0828 23030000 		.4byte	.LASF111
 4916 082c 08       		.byte	0x8
 4917 082d 4201     		.2byte	0x142
 4918 082f 6A000000 		.4byte	0x6a
 4919 0833 02       		.byte	0x2
 4920 0834 23       		.byte	0x23
 4921 0835 0C       		.uleb128 0xc
 4922 0836 00       		.byte	0
 4923 0837 07       		.uleb128 0x7
 4924 0838 6A000000 		.4byte	0x6a
 4925 083c 47080000 		.4byte	0x847
 4926 0840 08       		.uleb128 0x8
 4927 0841 AA000000 		.4byte	0xaa
 4928 0845 02       		.byte	0x2
 4929 0846 00       		.byte	0
 4930 0847 1A       		.uleb128 0x1a
 4931 0848 D0       		.byte	0xd0
 4932 0849 08       		.byte	0x8
 4933 084a 8002     		.2byte	0x280
 4934 084c 77090000 		.4byte	0x977
 4935 0850 18       		.uleb128 0x18
 4936 0851 75060000 		.4byte	.LASF112
 4937 0855 08       		.byte	0x8
 4938 0856 8202     		.2byte	0x282
 4939 0858 AA000000 		.4byte	0xaa
 4940 085c 02       		.byte	0x2
 4941 085d 23       		.byte	0x23
 4942 085e 00       		.uleb128 0
 4943 085f 18       		.uleb128 0x18
 4944 0860 66120000 		.4byte	.LASF113
 4945 0864 08       		.byte	0x8
 4946 0865 8302     		.2byte	0x283
 4947 0867 06070000 		.4byte	0x706
 4948 086b 02       		.byte	0x2
 4949 086c 23       		.byte	0x23
 4950 086d 04       		.uleb128 0x4
 4951 086e 18       		.uleb128 0x18
ARM GAS  C:\Users\EBANO_~1\AppData\Local\Temp\ccFRmLE5.s 			page 115


 4952 086f 20140000 		.4byte	.LASF114
 4953 0873 08       		.byte	0x8
 4954 0874 8402     		.2byte	0x284
 4955 0876 77090000 		.4byte	0x977
 4956 087a 02       		.byte	0x2
 4957 087b 23       		.byte	0x23
 4958 087c 08       		.uleb128 0x8
 4959 087d 18       		.uleb128 0x18
 4960 087e DE0B0000 		.4byte	.LASF115
 4961 0882 08       		.byte	0x8
 4962 0883 8502     		.2byte	0x285
 4963 0885 AC020000 		.4byte	0x2ac
 4964 0889 02       		.byte	0x2
 4965 088a 23       		.byte	0x23
 4966 088b 24       		.uleb128 0x24
 4967 088c 18       		.uleb128 0x18
 4968 088d F31C0000 		.4byte	.LASF116
 4969 0891 08       		.byte	0x8
 4970 0892 8602     		.2byte	0x286
 4971 0894 A3000000 		.4byte	0xa3
 4972 0898 02       		.byte	0x2
 4973 0899 23       		.byte	0x23
 4974 089a 48       		.uleb128 0x48
 4975 089b 18       		.uleb128 0x18
 4976 089c 83150000 		.4byte	.LASF117
 4977 08a0 08       		.byte	0x8
 4978 08a1 8702     		.2byte	0x287
 4979 08a3 9C000000 		.4byte	0x9c
 4980 08a7 02       		.byte	0x2
 4981 08a8 23       		.byte	0x23
 4982 08a9 50       		.uleb128 0x50
 4983 08aa 18       		.uleb128 0x18
 4984 08ab 9D210000 		.4byte	.LASF118
 4985 08af 08       		.byte	0x8
 4986 08b0 8802     		.2byte	0x288
 4987 08b2 FC070000 		.4byte	0x7fc
 4988 08b6 02       		.byte	0x2
 4989 08b7 23       		.byte	0x23
 4990 08b8 58       		.uleb128 0x58
 4991 08b9 18       		.uleb128 0x18
 4992 08ba 77190000 		.4byte	.LASF119
 4993 08be 08       		.byte	0x8
 4994 08bf 8902     		.2byte	0x289
 4995 08c1 16020000 		.4byte	0x216
 4996 08c5 02       		.byte	0x2
 4997 08c6 23       		.byte	0x23
 4998 08c7 68       		.uleb128 0x68
 4999 08c8 18       		.uleb128 0x18
 5000 08c9 53050000 		.4byte	.LASF120
 5001 08cd 08       		.byte	0x8
 5002 08ce 8A02     		.2byte	0x28a
 5003 08d0 16020000 		.4byte	0x216
 5004 08d4 02       		.byte	0x2
 5005 08d5 23       		.byte	0x23
 5006 08d6 70       		.uleb128 0x70
 5007 08d7 18       		.uleb128 0x18
 5008 08d8 FB140000 		.4byte	.LASF121
ARM GAS  C:\Users\EBANO_~1\AppData\Local\Temp\ccFRmLE5.s 			page 116


 5009 08dc 08       		.byte	0x8
 5010 08dd 8B02     		.2byte	0x28b
 5011 08df 16020000 		.4byte	0x216
 5012 08e3 02       		.byte	0x2
 5013 08e4 23       		.byte	0x23
 5014 08e5 78       		.uleb128 0x78
 5015 08e6 18       		.uleb128 0x18
 5016 08e7 DB130000 		.4byte	.LASF122
 5017 08eb 08       		.byte	0x8
 5018 08ec 8C02     		.2byte	0x28c
 5019 08ee 87090000 		.4byte	0x987
 5020 08f2 03       		.byte	0x3
 5021 08f3 23       		.byte	0x23
 5022 08f4 8001     		.uleb128 0x80
 5023 08f6 18       		.uleb128 0x18
 5024 08f7 3F0F0000 		.4byte	.LASF123
 5025 08fb 08       		.byte	0x8
 5026 08fc 8D02     		.2byte	0x28d
 5027 08fe 97090000 		.4byte	0x997
 5028 0902 03       		.byte	0x3
 5029 0903 23       		.byte	0x23
 5030 0904 8801     		.uleb128 0x88
 5031 0906 18       		.uleb128 0x18
 5032 0907 5A180000 		.4byte	.LASF124
 5033 090b 08       		.byte	0x8
 5034 090c 8E02     		.2byte	0x28e
 5035 090e A3000000 		.4byte	0xa3
 5036 0912 03       		.byte	0x3
 5037 0913 23       		.byte	0x23
 5038 0914 A001     		.uleb128 0xa0
 5039 0916 18       		.uleb128 0x18
 5040 0917 A00A0000 		.4byte	.LASF125
 5041 091b 08       		.byte	0x8
 5042 091c 8F02     		.2byte	0x28f
 5043 091e 16020000 		.4byte	0x216
 5044 0922 03       		.byte	0x3
 5045 0923 23       		.byte	0x23
 5046 0924 A401     		.uleb128 0xa4
 5047 0926 18       		.uleb128 0x18
 5048 0927 440D0000 		.4byte	.LASF126
 5049 092b 08       		.byte	0x8
 5050 092c 9002     		.2byte	0x290
 5051 092e 16020000 		.4byte	0x216
 5052 0932 03       		.byte	0x3
 5053 0933 23       		.byte	0x23
 5054 0934 AC01     		.uleb128 0xac
 5055 0936 18       		.uleb128 0x18
 5056 0937 E6070000 		.4byte	.LASF127
 5057 093b 08       		.byte	0x8
 5058 093c 9102     		.2byte	0x291
 5059 093e 16020000 		.4byte	0x216
 5060 0942 03       		.byte	0x3
 5061 0943 23       		.byte	0x23
 5062 0944 B401     		.uleb128 0xb4
 5063 0946 18       		.uleb128 0x18
 5064 0947 12110000 		.4byte	.LASF128
 5065 094b 08       		.byte	0x8
ARM GAS  C:\Users\EBANO_~1\AppData\Local\Temp\ccFRmLE5.s 			page 117


 5066 094c 9202     		.2byte	0x292
 5067 094e 16020000 		.4byte	0x216
 5068 0952 03       		.byte	0x3
 5069 0953 23       		.byte	0x23
 5070 0954 BC01     		.uleb128 0xbc
 5071 0956 18       		.uleb128 0x18
 5072 0957 61140000 		.4byte	.LASF129
 5073 095b 08       		.byte	0x8
 5074 095c 9302     		.2byte	0x293
 5075 095e 16020000 		.4byte	0x216
 5076 0962 03       		.byte	0x3
 5077 0963 23       		.byte	0x23
 5078 0964 C401     		.uleb128 0xc4
 5079 0966 18       		.uleb128 0x18
 5080 0967 631A0000 		.4byte	.LASF130
 5081 096b 08       		.byte	0x8
 5082 096c 9402     		.2byte	0x294
 5083 096e A3000000 		.4byte	0xa3
 5084 0972 03       		.byte	0x3
 5085 0973 23       		.byte	0x23
 5086 0974 CC01     		.uleb128 0xcc
 5087 0976 00       		.byte	0
 5088 0977 07       		.uleb128 0x7
 5089 0978 0C070000 		.4byte	0x70c
 5090 097c 87090000 		.4byte	0x987
 5091 0980 08       		.uleb128 0x8
 5092 0981 AA000000 		.4byte	0xaa
 5093 0985 19       		.byte	0x19
 5094 0986 00       		.byte	0
 5095 0987 07       		.uleb128 0x7
 5096 0988 0C070000 		.4byte	0x70c
 5097 098c 97090000 		.4byte	0x997
 5098 0990 08       		.uleb128 0x8
 5099 0991 AA000000 		.4byte	0xaa
 5100 0995 07       		.byte	0x7
 5101 0996 00       		.byte	0
 5102 0997 07       		.uleb128 0x7
 5103 0998 0C070000 		.4byte	0x70c
 5104 099c A7090000 		.4byte	0x9a7
 5105 09a0 08       		.uleb128 0x8
 5106 09a1 AA000000 		.4byte	0xaa
 5107 09a5 17       		.byte	0x17
 5108 09a6 00       		.byte	0
 5109 09a7 1A       		.uleb128 0x1a
 5110 09a8 F0       		.byte	0xf0
 5111 09a9 08       		.byte	0x8
 5112 09aa 9902     		.2byte	0x299
 5113 09ac CF090000 		.4byte	0x9cf
 5114 09b0 18       		.uleb128 0x18
 5115 09b1 7C150000 		.4byte	.LASF131
 5116 09b5 08       		.byte	0x8
 5117 09b6 9C02     		.2byte	0x29c
 5118 09b8 CF090000 		.4byte	0x9cf
 5119 09bc 02       		.byte	0x2
 5120 09bd 23       		.byte	0x23
 5121 09be 00       		.uleb128 0
 5122 09bf 18       		.uleb128 0x18
ARM GAS  C:\Users\EBANO_~1\AppData\Local\Temp\ccFRmLE5.s 			page 118


 5123 09c0 300B0000 		.4byte	.LASF132
 5124 09c4 08       		.byte	0x8
 5125 09c5 9D02     		.2byte	0x29d
 5126 09c7 DF090000 		.4byte	0x9df
 5127 09cb 02       		.byte	0x2
 5128 09cc 23       		.byte	0x23
 5129 09cd 78       		.uleb128 0x78
 5130 09ce 00       		.byte	0
 5131 09cf 07       		.uleb128 0x7
 5132 09d0 1E040000 		.4byte	0x41e
 5133 09d4 DF090000 		.4byte	0x9df
 5134 09d8 08       		.uleb128 0x8
 5135 09d9 AA000000 		.4byte	0xaa
 5136 09dd 1D       		.byte	0x1d
 5137 09de 00       		.byte	0
 5138 09df 07       		.uleb128 0x7
 5139 09e0 AA000000 		.4byte	0xaa
 5140 09e4 EF090000 		.4byte	0x9ef
 5141 09e8 08       		.uleb128 0x8
 5142 09e9 AA000000 		.4byte	0xaa
 5143 09ed 1D       		.byte	0x1d
 5144 09ee 00       		.byte	0
 5145 09ef 1B       		.uleb128 0x1b
 5146 09f0 F0       		.byte	0xf0
 5147 09f1 08       		.byte	0x8
 5148 09f2 7E02     		.2byte	0x27e
 5149 09f4 110A0000 		.4byte	0xa11
 5150 09f8 1C       		.uleb128 0x1c
 5151 09f9 F4040000 		.4byte	.LASF81
 5152 09fd 08       		.byte	0x8
 5153 09fe 9502     		.2byte	0x295
 5154 0a00 47080000 		.4byte	0x847
 5155 0a04 1C       		.uleb128 0x1c
 5156 0a05 52020000 		.4byte	.LASF133
 5157 0a09 08       		.byte	0x8
 5158 0a0a 9E02     		.2byte	0x29e
 5159 0a0c A7090000 		.4byte	0x9a7
 5160 0a10 00       		.byte	0
 5161 0a11 07       		.uleb128 0x7
 5162 0a12 0C070000 		.4byte	0x70c
 5163 0a16 210A0000 		.4byte	0xa21
 5164 0a1a 08       		.uleb128 0x8
 5165 0a1b AA000000 		.4byte	0xaa
 5166 0a1f 18       		.byte	0x18
 5167 0a20 00       		.byte	0
 5168 0a21 0B       		.uleb128 0xb
 5169 0a22 8C190000 		.4byte	.LASF135
 5170 0a26 01       		.byte	0x1
 5171 0a27 0A       		.uleb128 0xa
 5172 0a28 04       		.byte	0x4
 5173 0a29 210A0000 		.4byte	0xa21
 5174 0a2d 1D       		.uleb128 0x1d
 5175 0a2e 01       		.byte	0x1
 5176 0a2f 390A0000 		.4byte	0xa39
 5177 0a33 16       		.uleb128 0x16
 5178 0a34 9D050000 		.4byte	0x59d
 5179 0a38 00       		.byte	0
ARM GAS  C:\Users\EBANO_~1\AppData\Local\Temp\ccFRmLE5.s 			page 119


 5180 0a39 0A       		.uleb128 0xa
 5181 0a3a 04       		.byte	0x4
 5182 0a3b 2D0A0000 		.4byte	0xa2d
 5183 0a3f 0A       		.uleb128 0xa
 5184 0a40 04       		.byte	0x4
 5185 0a41 96020000 		.4byte	0x296
 5186 0a45 1D       		.uleb128 0x1d
 5187 0a46 01       		.byte	0x1
 5188 0a47 510A0000 		.4byte	0xa51
 5189 0a4b 16       		.uleb128 0x16
 5190 0a4c A3000000 		.4byte	0xa3
 5191 0a50 00       		.byte	0
 5192 0a51 0A       		.uleb128 0xa
 5193 0a52 04       		.byte	0x4
 5194 0a53 570A0000 		.4byte	0xa57
 5195 0a57 0A       		.uleb128 0xa
 5196 0a58 04       		.byte	0x4
 5197 0a59 450A0000 		.4byte	0xa45
 5198 0a5d 07       		.uleb128 0x7
 5199 0a5e A9070000 		.4byte	0x7a9
 5200 0a62 6D0A0000 		.4byte	0xa6d
 5201 0a66 08       		.uleb128 0x8
 5202 0a67 AA000000 		.4byte	0xaa
 5203 0a6b 02       		.byte	0x2
 5204 0a6c 00       		.byte	0
 5205 0a6d 1E       		.uleb128 0x1e
 5206 0a6e 35190000 		.4byte	.LASF136
 5207 0a72 08       		.byte	0x8
 5208 0a73 2E03     		.2byte	0x32e
 5209 0a75 9D050000 		.4byte	0x59d
 5210 0a79 01       		.byte	0x1
 5211 0a7a 01       		.byte	0x1
 5212 0a7b 1E       		.uleb128 0x1e
 5213 0a7c E51D0000 		.4byte	.LASF137
 5214 0a80 08       		.byte	0x8
 5215 0a81 2F03     		.2byte	0x32f
 5216 0a83 A3050000 		.4byte	0x5a3
 5217 0a87 01       		.byte	0x1
 5218 0a88 01       		.byte	0x1
 5219 0a89 0A       		.uleb128 0xa
 5220 0a8a 04       		.byte	0x4
 5221 0a8b C1000000 		.4byte	0xc1
 5222 0a8f 06       		.uleb128 0x6
 5223 0a90 F0150000 		.4byte	.LASF138
 5224 0a94 09       		.byte	0x9
 5225 0a95 63       		.byte	0x63
 5226 0a96 06070000 		.4byte	0x706
 5227 0a9a 01       		.byte	0x1
 5228 0a9b 01       		.byte	0x1
 5229 0a9c 03       		.uleb128 0x3
 5230 0a9d B51B0000 		.4byte	.LASF139
 5231 0aa1 0A       		.byte	0xa
 5232 0aa2 3D       		.byte	0x3d
 5233 0aa3 F2000000 		.4byte	0xf2
 5234 0aa7 11       		.uleb128 0x11
 5235 0aa8 B10B0000 		.4byte	.LASF140
 5236 0aac 04       		.byte	0x4
ARM GAS  C:\Users\EBANO_~1\AppData\Local\Temp\ccFRmLE5.s 			page 120


 5237 0aad 0A       		.byte	0xa
 5238 0aae 5F       		.byte	0x5f
 5239 0aaf EC0A0000 		.4byte	0xaec
 5240 0ab3 12       		.uleb128 0x12
 5241 0ab4 52667500 		.ascii	"Rfu\000"
 5242 0ab8 0A       		.byte	0xa
 5243 0ab9 61       		.byte	0x61
 5244 0aba C1000000 		.4byte	0xc1
 5245 0abe 02       		.byte	0x2
 5246 0abf 23       		.byte	0x23
 5247 0ac0 00       		.uleb128 0
 5248 0ac1 10       		.uleb128 0x10
 5249 0ac2 99000000 		.4byte	.LASF141
 5250 0ac6 0A       		.byte	0xa
 5251 0ac7 62       		.byte	0x62
 5252 0ac8 C1000000 		.4byte	0xc1
 5253 0acc 02       		.byte	0x2
 5254 0acd 23       		.byte	0x23
 5255 0ace 01       		.uleb128 0x1
 5256 0acf 10       		.uleb128 0x10
 5257 0ad0 CF020000 		.4byte	.LASF142
 5258 0ad4 0A       		.byte	0xa
 5259 0ad5 63       		.byte	0x63
 5260 0ad6 C1000000 		.4byte	0xc1
 5261 0ada 02       		.byte	0x2
 5262 0adb 23       		.byte	0x23
 5263 0adc 02       		.uleb128 0x2
 5264 0add 10       		.uleb128 0x10
 5265 0ade C31D0000 		.4byte	.LASF143
 5266 0ae2 0A       		.byte	0xa
 5267 0ae3 64       		.byte	0x64
 5268 0ae4 C1000000 		.4byte	0xc1
 5269 0ae8 02       		.byte	0x2
 5270 0ae9 23       		.byte	0x23
 5271 0aea 03       		.uleb128 0x3
 5272 0aeb 00       		.byte	0
 5273 0aec 1F       		.uleb128 0x1f
 5274 0aed C50B0000 		.4byte	.LASF205
 5275 0af1 04       		.byte	0x4
 5276 0af2 0A       		.byte	0xa
 5277 0af3 5D       		.byte	0x5d
 5278 0af4 0F0B0000 		.4byte	0xb0f
 5279 0af8 0E       		.uleb128 0xe
 5280 0af9 2E120000 		.4byte	.LASF144
 5281 0afd 0A       		.byte	0xa
 5282 0afe 65       		.byte	0x65
 5283 0aff A70A0000 		.4byte	0xaa7
 5284 0b03 0E       		.uleb128 0xe
 5285 0b04 A2210000 		.4byte	.LASF145
 5286 0b08 0A       		.byte	0xa
 5287 0b09 66       		.byte	0x66
 5288 0b0a F2000000 		.4byte	0xf2
 5289 0b0e 00       		.byte	0
 5290 0b0f 03       		.uleb128 0x3
 5291 0b10 BB0B0000 		.4byte	.LASF146
 5292 0b14 0A       		.byte	0xa
 5293 0b15 67       		.byte	0x67
ARM GAS  C:\Users\EBANO_~1\AppData\Local\Temp\ccFRmLE5.s 			page 121


 5294 0b16 EC0A0000 		.4byte	0xaec
 5295 0b1a 02       		.uleb128 0x2
 5296 0b1b 01       		.byte	0x1
 5297 0b1c 02       		.byte	0x2
 5298 0b1d EE000000 		.4byte	.LASF147
 5299 0b21 19       		.uleb128 0x19
 5300 0b22 400C0000 		.4byte	.LASF148
 5301 0b26 10       		.byte	0x10
 5302 0b27 0B       		.byte	0xb
 5303 0b28 D301     		.2byte	0x1d3
 5304 0b2a 7A0B0000 		.4byte	0xb7a
 5305 0b2e 18       		.uleb128 0x18
 5306 0b2f 9F020000 		.4byte	.LASF149
 5307 0b33 0B       		.byte	0xb
 5308 0b34 D801     		.2byte	0x1d8
 5309 0b36 DC000000 		.4byte	0xdc
 5310 0b3a 02       		.byte	0x2
 5311 0b3b 23       		.byte	0x23
 5312 0b3c 00       		.uleb128 0
 5313 0b3d 18       		.uleb128 0x18
 5314 0b3e 40030000 		.4byte	.LASF150
 5315 0b42 0B       		.byte	0xb
 5316 0b43 DC01     		.2byte	0x1dc
 5317 0b45 B1000000 		.4byte	0xb1
 5318 0b49 02       		.byte	0x2
 5319 0b4a 23       		.byte	0x23
 5320 0b4b 02       		.uleb128 0x2
 5321 0b4c 18       		.uleb128 0x18
 5322 0b4d 021D0000 		.4byte	.LASF151
 5323 0b51 0B       		.byte	0xb
 5324 0b52 E001     		.2byte	0x1e0
 5325 0b54 9C0A0000 		.4byte	0xa9c
 5326 0b58 02       		.byte	0x2
 5327 0b59 23       		.byte	0x23
 5328 0b5a 04       		.uleb128 0x4
 5329 0b5b 18       		.uleb128 0x18
 5330 0b5c 80050000 		.4byte	.LASF152
 5331 0b60 0B       		.byte	0xb
 5332 0b61 E401     		.2byte	0x1e4
 5333 0b63 9C0A0000 		.4byte	0xa9c
 5334 0b67 02       		.byte	0x2
 5335 0b68 23       		.byte	0x23
 5336 0b69 08       		.uleb128 0x8
 5337 0b6a 18       		.uleb128 0x18
 5338 0b6b 9C070000 		.4byte	.LASF153
 5339 0b6f 0B       		.byte	0xb
 5340 0b70 E801     		.2byte	0x1e8
 5341 0b72 9C0A0000 		.4byte	0xa9c
 5342 0b76 02       		.byte	0x2
 5343 0b77 23       		.byte	0x23
 5344 0b78 0C       		.uleb128 0xc
 5345 0b79 00       		.byte	0
 5346 0b7a 0C       		.uleb128 0xc
 5347 0b7b EE020000 		.4byte	.LASF154
 5348 0b7f 0B       		.byte	0xb
 5349 0b80 E901     		.2byte	0x1e9
 5350 0b82 210B0000 		.4byte	0xb21
ARM GAS  C:\Users\EBANO_~1\AppData\Local\Temp\ccFRmLE5.s 			page 122


 5351 0b86 06       		.uleb128 0x6
 5352 0b87 531C0000 		.4byte	.LASF155
 5353 0b8b 0C       		.byte	0xc
 5354 0b8c 9A       		.byte	0x9a
 5355 0b8d 7C000000 		.4byte	0x7c
 5356 0b91 01       		.byte	0x1
 5357 0b92 01       		.byte	0x1
 5358 0b93 06       		.uleb128 0x6
 5359 0b94 81040000 		.4byte	.LASF156
 5360 0b98 0C       		.byte	0xc
 5361 0b99 9B       		.byte	0x9b
 5362 0b9a A3000000 		.4byte	0xa3
 5363 0b9e 01       		.byte	0x1
 5364 0b9f 01       		.byte	0x1
 5365 0ba0 07       		.uleb128 0x7
 5366 0ba1 06070000 		.4byte	0x706
 5367 0ba5 B00B0000 		.4byte	0xbb0
 5368 0ba9 08       		.uleb128 0x8
 5369 0baa AA000000 		.4byte	0xaa
 5370 0bae 01       		.byte	0x1
 5371 0baf 00       		.byte	0
 5372 0bb0 06       		.uleb128 0x6
 5373 0bb1 A00F0000 		.4byte	.LASF157
 5374 0bb5 0C       		.byte	0xc
 5375 0bb6 9E       		.byte	0x9e
 5376 0bb7 A00B0000 		.4byte	0xba0
 5377 0bbb 01       		.byte	0x1
 5378 0bbc 01       		.byte	0x1
 5379 0bbd 20       		.uleb128 0x20
 5380 0bbe 07       		.byte	0x7
 5381 0bbf 01       		.byte	0x1
 5382 0bc0 46000000 		.4byte	0x46
 5383 0bc4 0D       		.byte	0xd
 5384 0bc5 21       		.byte	0x21
 5385 0bc6 D70B0000 		.4byte	0xbd7
 5386 0bca 21       		.uleb128 0x21
 5387 0bcb 5D0D0000 		.4byte	.LASF158
 5388 0bcf 00       		.byte	0
 5389 0bd0 21       		.uleb128 0x21
 5390 0bd1 861C0000 		.4byte	.LASF159
 5391 0bd5 01       		.byte	0x1
 5392 0bd6 00       		.byte	0
 5393 0bd7 03       		.uleb128 0x3
 5394 0bd8 000E0000 		.4byte	.LASF160
 5395 0bdc 0D       		.byte	0xd
 5396 0bdd 24       		.byte	0x24
 5397 0bde BD0B0000 		.4byte	0xbbd
 5398 0be2 20       		.uleb128 0x20
 5399 0be3 07       		.byte	0x7
 5400 0be4 01       		.byte	0x1
 5401 0be5 46000000 		.4byte	0x46
 5402 0be9 0D       		.byte	0xd
 5403 0bea 2A       		.byte	0x2a
 5404 0beb 080C0000 		.4byte	0xc08
 5405 0bef 21       		.uleb128 0x21
 5406 0bf0 38030000 		.4byte	.LASF161
 5407 0bf4 00       		.byte	0
ARM GAS  C:\Users\EBANO_~1\AppData\Local\Temp\ccFRmLE5.s 			page 123


 5408 0bf5 21       		.uleb128 0x21
 5409 0bf6 F00F0000 		.4byte	.LASF162
 5410 0bfa 01       		.byte	0x1
 5411 0bfb 21       		.uleb128 0x21
 5412 0bfc 351B0000 		.4byte	.LASF163
 5413 0c00 02       		.byte	0x2
 5414 0c01 21       		.uleb128 0x21
 5415 0c02 CC160000 		.4byte	.LASF164
 5416 0c06 03       		.byte	0x3
 5417 0c07 00       		.byte	0
 5418 0c08 03       		.uleb128 0x3
 5419 0c09 48110000 		.4byte	.LASF165
 5420 0c0d 0D       		.byte	0xd
 5421 0c0e 2F       		.byte	0x2f
 5422 0c0f E20B0000 		.4byte	0xbe2
 5423 0c13 0F       		.uleb128 0xf
 5424 0c14 1C       		.byte	0x1c
 5425 0c15 0D       		.byte	0xd
 5426 0c16 34       		.byte	0x34
 5427 0c17 7E0C0000 		.4byte	0xc7e
 5428 0c1b 10       		.uleb128 0x10
 5429 0c1c 4C090000 		.4byte	.LASF166
 5430 0c20 0D       		.byte	0xd
 5431 0c21 39       		.byte	0x39
 5432 0c22 ED030000 		.4byte	0x3ed
 5433 0c26 02       		.byte	0x2
 5434 0c27 23       		.byte	0x23
 5435 0c28 00       		.uleb128 0
 5436 0c29 10       		.uleb128 0x10
 5437 0c2a 95020000 		.4byte	.LASF167
 5438 0c2e 0D       		.byte	0xd
 5439 0c2f 3D       		.byte	0x3d
 5440 0c30 ED030000 		.4byte	0x3ed
 5441 0c34 02       		.byte	0x2
 5442 0c35 23       		.byte	0x23
 5443 0c36 04       		.uleb128 0x4
 5444 0c37 10       		.uleb128 0x10
 5445 0c38 140B0000 		.4byte	.LASF168
 5446 0c3c 0D       		.byte	0xd
 5447 0c3d 48       		.byte	0x48
 5448 0c3e 990C0000 		.4byte	0xc99
 5449 0c42 02       		.byte	0x2
 5450 0c43 23       		.byte	0x23
 5451 0c44 08       		.uleb128 0x8
 5452 0c45 10       		.uleb128 0x10
 5453 0c46 7C020000 		.4byte	.LASF169
 5454 0c4a 0D       		.byte	0xd
 5455 0c4b 4C       		.byte	0x4c
 5456 0c4c ED030000 		.4byte	0x3ed
 5457 0c50 02       		.byte	0x2
 5458 0c51 23       		.byte	0x23
 5459 0c52 0C       		.uleb128 0xc
 5460 0c53 10       		.uleb128 0x10
 5461 0c54 4B010000 		.4byte	.LASF170
 5462 0c58 0D       		.byte	0xd
 5463 0c59 50       		.byte	0x50
 5464 0c5a ED030000 		.4byte	0x3ed
ARM GAS  C:\Users\EBANO_~1\AppData\Local\Temp\ccFRmLE5.s 			page 124


 5465 0c5e 02       		.byte	0x2
 5466 0c5f 23       		.byte	0x23
 5467 0c60 10       		.uleb128 0x10
 5468 0c61 10       		.uleb128 0x10
 5469 0c62 180F0000 		.4byte	.LASF171
 5470 0c66 0D       		.byte	0xd
 5471 0c67 56       		.byte	0x56
 5472 0c68 AB0C0000 		.4byte	0xcab
 5473 0c6c 02       		.byte	0x2
 5474 0c6d 23       		.byte	0x23
 5475 0c6e 14       		.uleb128 0x14
 5476 0c6f 10       		.uleb128 0x10
 5477 0c70 DA1F0000 		.4byte	.LASF172
 5478 0c74 0D       		.byte	0xd
 5479 0c75 5D       		.byte	0x5d
 5480 0c76 BD0C0000 		.4byte	0xcbd
 5481 0c7a 02       		.byte	0x2
 5482 0c7b 23       		.byte	0x23
 5483 0c7c 18       		.uleb128 0x18
 5484 0c7d 00       		.byte	0
 5485 0c7e 1D       		.uleb128 0x1d
 5486 0c7f 01       		.byte	0x1
 5487 0c80 990C0000 		.4byte	0xc99
 5488 0c84 16       		.uleb128 0x16
 5489 0c85 890A0000 		.4byte	0xa89
 5490 0c89 16       		.uleb128 0x16
 5491 0c8a DC000000 		.4byte	0xdc
 5492 0c8e 16       		.uleb128 0x16
 5493 0c8f D1000000 		.4byte	0xd1
 5494 0c93 16       		.uleb128 0x16
 5495 0c94 B1000000 		.4byte	0xb1
 5496 0c98 00       		.byte	0
 5497 0c99 0A       		.uleb128 0xa
 5498 0c9a 04       		.byte	0x4
 5499 0c9b 7E0C0000 		.4byte	0xc7e
 5500 0c9f 1D       		.uleb128 0x1d
 5501 0ca0 01       		.byte	0x1
 5502 0ca1 AB0C0000 		.4byte	0xcab
 5503 0ca5 16       		.uleb128 0x16
 5504 0ca6 C1000000 		.4byte	0xc1
 5505 0caa 00       		.byte	0
 5506 0cab 0A       		.uleb128 0xa
 5507 0cac 04       		.byte	0x4
 5508 0cad 9F0C0000 		.4byte	0xc9f
 5509 0cb1 1D       		.uleb128 0x1d
 5510 0cb2 01       		.byte	0x1
 5511 0cb3 BD0C0000 		.4byte	0xcbd
 5512 0cb7 16       		.uleb128 0x16
 5513 0cb8 1A0B0000 		.4byte	0xb1a
 5514 0cbc 00       		.byte	0
 5515 0cbd 0A       		.uleb128 0xa
 5516 0cbe 04       		.byte	0x4
 5517 0cbf B10C0000 		.4byte	0xcb1
 5518 0cc3 03       		.uleb128 0x3
 5519 0cc4 EA1E0000 		.4byte	.LASF173
 5520 0cc8 0D       		.byte	0xd
 5521 0cc9 5E       		.byte	0x5e
ARM GAS  C:\Users\EBANO_~1\AppData\Local\Temp\ccFRmLE5.s 			page 125


 5522 0cca 130C0000 		.4byte	0xc13
 5523 0cce 11       		.uleb128 0x11
 5524 0ccf DA030000 		.4byte	.LASF174
 5525 0cd3 74       		.byte	0x74
 5526 0cd4 0D       		.byte	0xd
 5527 0cd5 63       		.byte	0x63
 5528 0cd6 820E0000 		.4byte	0xe82
 5529 0cda 10       		.uleb128 0x10
 5530 0cdb 67130000 		.4byte	.LASF175
 5531 0cdf 0D       		.byte	0xd
 5532 0ce0 68       		.byte	0x68
 5533 0ce1 ED030000 		.4byte	0x3ed
 5534 0ce5 02       		.byte	0x2
 5535 0ce6 23       		.byte	0x23
 5536 0ce7 00       		.uleb128 0
 5537 0ce8 10       		.uleb128 0x10
 5538 0ce9 F0080000 		.4byte	.LASF176
 5539 0ced 0D       		.byte	0xd
 5540 0cee 6C       		.byte	0x6c
 5541 0cef ED030000 		.4byte	0x3ed
 5542 0cf3 02       		.byte	0x2
 5543 0cf4 23       		.byte	0x23
 5544 0cf5 04       		.uleb128 0x4
 5545 0cf6 10       		.uleb128 0x10
 5546 0cf7 2E1D0000 		.4byte	.LASF177
 5547 0cfb 0D       		.byte	0xd
 5548 0cfc 73       		.byte	0x73
 5549 0cfd 9D0E0000 		.4byte	0xe9d
 5550 0d01 02       		.byte	0x2
 5551 0d02 23       		.byte	0x23
 5552 0d03 08       		.uleb128 0x8
 5553 0d04 10       		.uleb128 0x10
 5554 0d05 5D100000 		.4byte	.LASF178
 5555 0d09 0D       		.byte	0xd
 5556 0d0a 79       		.byte	0x79
 5557 0d0b A90E0000 		.4byte	0xea9
 5558 0d0f 02       		.byte	0x2
 5559 0d10 23       		.byte	0x23
 5560 0d11 0C       		.uleb128 0xc
 5561 0d12 10       		.uleb128 0x10
 5562 0d13 F9080000 		.4byte	.LASF179
 5563 0d17 0D       		.byte	0xd
 5564 0d18 7F       		.byte	0x7f
 5565 0d19 BB0E0000 		.4byte	0xebb
 5566 0d1d 02       		.byte	0x2
 5567 0d1e 23       		.byte	0x23
 5568 0d1f 10       		.uleb128 0x10
 5569 0d20 10       		.uleb128 0x10
 5570 0d21 B6170000 		.4byte	.LASF180
 5571 0d25 0D       		.byte	0xd
 5572 0d26 85       		.byte	0x85
 5573 0d27 CD0E0000 		.4byte	0xecd
 5574 0d2b 02       		.byte	0x2
 5575 0d2c 23       		.byte	0x23
 5576 0d2d 14       		.uleb128 0x14
 5577 0d2e 10       		.uleb128 0x10
 5578 0d2f 8C160000 		.4byte	.LASF181
ARM GAS  C:\Users\EBANO_~1\AppData\Local\Temp\ccFRmLE5.s 			page 126


 5579 0d33 0D       		.byte	0xd
 5580 0d34 90       		.byte	0x90
 5581 0d35 F20E0000 		.4byte	0xef2
 5582 0d39 02       		.byte	0x2
 5583 0d3a 23       		.byte	0x23
 5584 0d3b 18       		.uleb128 0x18
 5585 0d3c 10       		.uleb128 0x10
 5586 0d3d 440B0000 		.4byte	.LASF182
 5587 0d41 0D       		.byte	0xd
 5588 0d42 9B       		.byte	0x9b
 5589 0d43 FE0E0000 		.4byte	0xefe
 5590 0d47 02       		.byte	0x2
 5591 0d48 23       		.byte	0x23
 5592 0d49 1C       		.uleb128 0x1c
 5593 0d4a 10       		.uleb128 0x10
 5594 0d4b 31220000 		.4byte	.LASF183
 5595 0d4f 0D       		.byte	0xd
 5596 0d50 C3       		.byte	0xc3
 5597 0d51 510F0000 		.4byte	0xf51
 5598 0d55 02       		.byte	0x2
 5599 0d56 23       		.byte	0x23
 5600 0d57 20       		.uleb128 0x20
 5601 0d58 10       		.uleb128 0x10
 5602 0d59 7E100000 		.4byte	.LASF184
 5603 0d5d 0D       		.byte	0xd
 5604 0d5e ED       		.byte	0xed
 5605 0d5f 9F0F0000 		.4byte	0xf9f
 5606 0d63 02       		.byte	0x2
 5607 0d64 23       		.byte	0x23
 5608 0d65 24       		.uleb128 0x24
 5609 0d66 10       		.uleb128 0x10
 5610 0d67 73120000 		.4byte	.LASF185
 5611 0d6b 0D       		.byte	0xd
 5612 0d6c F8       		.byte	0xf8
 5613 0d6d B50F0000 		.4byte	0xfb5
 5614 0d71 02       		.byte	0x2
 5615 0d72 23       		.byte	0x23
 5616 0d73 28       		.uleb128 0x28
 5617 0d74 18       		.uleb128 0x18
 5618 0d75 CA130000 		.4byte	.LASF186
 5619 0d79 0D       		.byte	0xd
 5620 0d7a 0301     		.2byte	0x103
 5621 0d7c D00F0000 		.4byte	0xfd0
 5622 0d80 02       		.byte	0x2
 5623 0d81 23       		.byte	0x23
 5624 0d82 2C       		.uleb128 0x2c
 5625 0d83 18       		.uleb128 0x18
 5626 0d84 891E0000 		.4byte	.LASF187
 5627 0d88 0D       		.byte	0xd
 5628 0d89 0B01     		.2byte	0x10b
 5629 0d8b E70F0000 		.4byte	0xfe7
 5630 0d8f 02       		.byte	0x2
 5631 0d90 23       		.byte	0x23
 5632 0d91 30       		.uleb128 0x30
 5633 0d92 18       		.uleb128 0x18
 5634 0d93 A30D0000 		.4byte	.LASF188
 5635 0d97 0D       		.byte	0xd
ARM GAS  C:\Users\EBANO_~1\AppData\Local\Temp\ccFRmLE5.s 			page 127


 5636 0d98 0F01     		.2byte	0x10f
 5637 0d9a ED030000 		.4byte	0x3ed
 5638 0d9e 02       		.byte	0x2
 5639 0d9f 23       		.byte	0x23
 5640 0da0 34       		.uleb128 0x34
 5641 0da1 18       		.uleb128 0x18
 5642 0da2 2E050000 		.4byte	.LASF189
 5643 0da6 0D       		.byte	0xd
 5644 0da7 1301     		.2byte	0x113
 5645 0da9 ED030000 		.4byte	0x3ed
 5646 0dad 02       		.byte	0x2
 5647 0dae 23       		.byte	0x23
 5648 0daf 38       		.uleb128 0x38
 5649 0db0 22       		.uleb128 0x22
 5650 0db1 527800   		.ascii	"Rx\000"
 5651 0db4 0D       		.byte	0xd
 5652 0db5 1901     		.2byte	0x119
 5653 0db7 CD0E0000 		.4byte	0xecd
 5654 0dbb 02       		.byte	0x2
 5655 0dbc 23       		.byte	0x23
 5656 0dbd 3C       		.uleb128 0x3c
 5657 0dbe 18       		.uleb128 0x18
 5658 0dbf 820A0000 		.4byte	.LASF190
 5659 0dc3 0D       		.byte	0xd
 5660 0dc4 1D01     		.2byte	0x11d
 5661 0dc6 ED030000 		.4byte	0x3ed
 5662 0dca 02       		.byte	0x2
 5663 0dcb 23       		.byte	0x23
 5664 0dcc 40       		.uleb128 0x40
 5665 0dcd 18       		.uleb128 0x18
 5666 0dce D0150000 		.4byte	.LASF191
 5667 0dd2 0D       		.byte	0xd
 5668 0dd3 2501     		.2byte	0x125
 5669 0dd5 03100000 		.4byte	0x1003
 5670 0dd9 02       		.byte	0x2
 5671 0dda 23       		.byte	0x23
 5672 0ddb 44       		.uleb128 0x44
 5673 0ddc 18       		.uleb128 0x18
 5674 0ddd 6B1C0000 		.4byte	.LASF192
 5675 0de1 0D       		.byte	0xd
 5676 0de2 2B01     		.2byte	0x12b
 5677 0de4 19100000 		.4byte	0x1019
 5678 0de8 02       		.byte	0x2
 5679 0de9 23       		.byte	0x23
 5680 0dea 48       		.uleb128 0x48
 5681 0deb 18       		.uleb128 0x18
 5682 0dec 4D050000 		.4byte	.LASF193
 5683 0df0 0D       		.byte	0xd
 5684 0df1 3201     		.2byte	0x132
 5685 0df3 30100000 		.4byte	0x1030
 5686 0df7 02       		.byte	0x2
 5687 0df8 23       		.byte	0x23
 5688 0df9 4C       		.uleb128 0x4c
 5689 0dfa 18       		.uleb128 0x18
 5690 0dfb 8F050000 		.4byte	.LASF194
 5691 0dff 0D       		.byte	0xd
 5692 0e00 3901     		.2byte	0x139
ARM GAS  C:\Users\EBANO_~1\AppData\Local\Temp\ccFRmLE5.s 			page 128


 5693 0e02 46100000 		.4byte	0x1046
 5694 0e06 02       		.byte	0x2
 5695 0e07 23       		.byte	0x23
 5696 0e08 50       		.uleb128 0x50
 5697 0e09 18       		.uleb128 0x18
 5698 0e0a 3F010000 		.4byte	.LASF195
 5699 0e0e 0D       		.byte	0xd
 5700 0e0f 4101     		.2byte	0x141
 5701 0e11 62100000 		.4byte	0x1062
 5702 0e15 02       		.byte	0x2
 5703 0e16 23       		.byte	0x23
 5704 0e17 54       		.uleb128 0x54
 5705 0e18 18       		.uleb128 0x18
 5706 0e19 5C010000 		.4byte	.LASF196
 5707 0e1d 0D       		.byte	0xd
 5708 0e1e 4901     		.2byte	0x149
 5709 0e20 62100000 		.4byte	0x1062
 5710 0e24 02       		.byte	0x2
 5711 0e25 23       		.byte	0x23
 5712 0e26 58       		.uleb128 0x58
 5713 0e27 18       		.uleb128 0x18
 5714 0e28 60040000 		.4byte	.LASF197
 5715 0e2c 0D       		.byte	0xd
 5716 0e2d 5001     		.2byte	0x150
 5717 0e2f 79100000 		.4byte	0x1079
 5718 0e33 02       		.byte	0x2
 5719 0e34 23       		.byte	0x23
 5720 0e35 5C       		.uleb128 0x5c
 5721 0e36 18       		.uleb128 0x18
 5722 0e37 A1160000 		.4byte	.LASF198
 5723 0e3b 0D       		.byte	0xd
 5724 0e3c 5801     		.2byte	0x158
 5725 0e3e BD0C0000 		.4byte	0xcbd
 5726 0e42 02       		.byte	0x2
 5727 0e43 23       		.byte	0x23
 5728 0e44 60       		.uleb128 0x60
 5729 0e45 18       		.uleb128 0x18
 5730 0e46 8F200000 		.4byte	.LASF199
 5731 0e4a 0D       		.byte	0xd
 5732 0e4b 5E01     		.2byte	0x15e
 5733 0e4d FE0E0000 		.4byte	0xefe
 5734 0e51 02       		.byte	0x2
 5735 0e52 23       		.byte	0x23
 5736 0e53 64       		.uleb128 0x64
 5737 0e54 18       		.uleb128 0x18
 5738 0e55 0D170000 		.4byte	.LASF200
 5739 0e59 0D       		.byte	0xd
 5740 0e5a 6201     		.2byte	0x162
 5741 0e5c ED030000 		.4byte	0x3ed
 5742 0e60 02       		.byte	0x2
 5743 0e61 23       		.byte	0x23
 5744 0e62 68       		.uleb128 0x68
 5745 0e63 18       		.uleb128 0x18
 5746 0e64 37060000 		.4byte	.LASF201
 5747 0e68 0D       		.byte	0xd
 5748 0e69 6E01     		.2byte	0x16e
 5749 0e6b CD0E0000 		.4byte	0xecd
ARM GAS  C:\Users\EBANO_~1\AppData\Local\Temp\ccFRmLE5.s 			page 129


 5750 0e6f 02       		.byte	0x2
 5751 0e70 23       		.byte	0x23
 5752 0e71 6C       		.uleb128 0x6c
 5753 0e72 18       		.uleb128 0x18
 5754 0e73 0D0D0000 		.4byte	.LASF202
 5755 0e77 0D       		.byte	0xd
 5756 0e78 7701     		.2byte	0x177
 5757 0e7a 90100000 		.4byte	0x1090
 5758 0e7e 02       		.byte	0x2
 5759 0e7f 23       		.byte	0x23
 5760 0e80 70       		.uleb128 0x70
 5761 0e81 00       		.byte	0
 5762 0e82 05       		.uleb128 0x5
 5763 0e83 CE0C0000 		.4byte	0xcce
 5764 0e87 15       		.uleb128 0x15
 5765 0e88 01       		.byte	0x1
 5766 0e89 F2000000 		.4byte	0xf2
 5767 0e8d 970E0000 		.4byte	0xe97
 5768 0e91 16       		.uleb128 0x16
 5769 0e92 970E0000 		.4byte	0xe97
 5770 0e96 00       		.byte	0
 5771 0e97 0A       		.uleb128 0xa
 5772 0e98 04       		.byte	0x4
 5773 0e99 C30C0000 		.4byte	0xcc3
 5774 0e9d 0A       		.uleb128 0xa
 5775 0e9e 04       		.byte	0x4
 5776 0e9f 870E0000 		.4byte	0xe87
 5777 0ea3 23       		.uleb128 0x23
 5778 0ea4 01       		.byte	0x1
 5779 0ea5 080C0000 		.4byte	0xc08
 5780 0ea9 0A       		.uleb128 0xa
 5781 0eaa 04       		.byte	0x4
 5782 0eab A30E0000 		.4byte	0xea3
 5783 0eaf 1D       		.uleb128 0x1d
 5784 0eb0 01       		.byte	0x1
 5785 0eb1 BB0E0000 		.4byte	0xebb
 5786 0eb5 16       		.uleb128 0x16
 5787 0eb6 D70B0000 		.4byte	0xbd7
 5788 0eba 00       		.byte	0
 5789 0ebb 0A       		.uleb128 0xa
 5790 0ebc 04       		.byte	0x4
 5791 0ebd AF0E0000 		.4byte	0xeaf
 5792 0ec1 1D       		.uleb128 0x1d
 5793 0ec2 01       		.byte	0x1
 5794 0ec3 CD0E0000 		.4byte	0xecd
 5795 0ec7 16       		.uleb128 0x16
 5796 0ec8 F2000000 		.4byte	0xf2
 5797 0ecc 00       		.byte	0
 5798 0ecd 0A       		.uleb128 0xa
 5799 0ece 04       		.byte	0x4
 5800 0ecf C10E0000 		.4byte	0xec1
 5801 0ed3 15       		.uleb128 0x15
 5802 0ed4 01       		.byte	0x1
 5803 0ed5 1A0B0000 		.4byte	0xb1a
 5804 0ed9 F20E0000 		.4byte	0xef2
 5805 0edd 16       		.uleb128 0x16
 5806 0ede D70B0000 		.4byte	0xbd7
ARM GAS  C:\Users\EBANO_~1\AppData\Local\Temp\ccFRmLE5.s 			page 130


 5807 0ee2 16       		.uleb128 0x16
 5808 0ee3 F2000000 		.4byte	0xf2
 5809 0ee7 16       		.uleb128 0x16
 5810 0ee8 D1000000 		.4byte	0xd1
 5811 0eec 16       		.uleb128 0x16
 5812 0eed F2000000 		.4byte	0xf2
 5813 0ef1 00       		.byte	0
 5814 0ef2 0A       		.uleb128 0xa
 5815 0ef3 04       		.byte	0x4
 5816 0ef4 D30E0000 		.4byte	0xed3
 5817 0ef8 23       		.uleb128 0x23
 5818 0ef9 01       		.byte	0x1
 5819 0efa F2000000 		.4byte	0xf2
 5820 0efe 0A       		.uleb128 0xa
 5821 0eff 04       		.byte	0x4
 5822 0f00 F80E0000 		.4byte	0xef8
 5823 0f04 1D       		.uleb128 0x1d
 5824 0f05 01       		.byte	0x1
 5825 0f06 510F0000 		.4byte	0xf51
 5826 0f0a 16       		.uleb128 0x16
 5827 0f0b D70B0000 		.4byte	0xbd7
 5828 0f0f 16       		.uleb128 0x16
 5829 0f10 F2000000 		.4byte	0xf2
 5830 0f14 16       		.uleb128 0x16
 5831 0f15 F2000000 		.4byte	0xf2
 5832 0f19 16       		.uleb128 0x16
 5833 0f1a C1000000 		.4byte	0xc1
 5834 0f1e 16       		.uleb128 0x16
 5835 0f1f F2000000 		.4byte	0xf2
 5836 0f23 16       		.uleb128 0x16
 5837 0f24 DC000000 		.4byte	0xdc
 5838 0f28 16       		.uleb128 0x16
 5839 0f29 DC000000 		.4byte	0xdc
 5840 0f2d 16       		.uleb128 0x16
 5841 0f2e 1A0B0000 		.4byte	0xb1a
 5842 0f32 16       		.uleb128 0x16
 5843 0f33 C1000000 		.4byte	0xc1
 5844 0f37 16       		.uleb128 0x16
 5845 0f38 1A0B0000 		.4byte	0xb1a
 5846 0f3c 16       		.uleb128 0x16
 5847 0f3d 1A0B0000 		.4byte	0xb1a
 5848 0f41 16       		.uleb128 0x16
 5849 0f42 C1000000 		.4byte	0xc1
 5850 0f46 16       		.uleb128 0x16
 5851 0f47 1A0B0000 		.4byte	0xb1a
 5852 0f4b 16       		.uleb128 0x16
 5853 0f4c 1A0B0000 		.4byte	0xb1a
 5854 0f50 00       		.byte	0
 5855 0f51 0A       		.uleb128 0xa
 5856 0f52 04       		.byte	0x4
 5857 0f53 040F0000 		.4byte	0xf04
 5858 0f57 1D       		.uleb128 0x1d
 5859 0f58 01       		.byte	0x1
 5860 0f59 9F0F0000 		.4byte	0xf9f
 5861 0f5d 16       		.uleb128 0x16
 5862 0f5e D70B0000 		.4byte	0xbd7
 5863 0f62 16       		.uleb128 0x16
ARM GAS  C:\Users\EBANO_~1\AppData\Local\Temp\ccFRmLE5.s 			page 131


 5864 0f63 B1000000 		.4byte	0xb1
 5865 0f67 16       		.uleb128 0x16
 5866 0f68 F2000000 		.4byte	0xf2
 5867 0f6c 16       		.uleb128 0x16
 5868 0f6d F2000000 		.4byte	0xf2
 5869 0f71 16       		.uleb128 0x16
 5870 0f72 F2000000 		.4byte	0xf2
 5871 0f76 16       		.uleb128 0x16
 5872 0f77 C1000000 		.4byte	0xc1
 5873 0f7b 16       		.uleb128 0x16
 5874 0f7c DC000000 		.4byte	0xdc
 5875 0f80 16       		.uleb128 0x16
 5876 0f81 1A0B0000 		.4byte	0xb1a
 5877 0f85 16       		.uleb128 0x16
 5878 0f86 1A0B0000 		.4byte	0xb1a
 5879 0f8a 16       		.uleb128 0x16
 5880 0f8b 1A0B0000 		.4byte	0xb1a
 5881 0f8f 16       		.uleb128 0x16
 5882 0f90 C1000000 		.4byte	0xc1
 5883 0f94 16       		.uleb128 0x16
 5884 0f95 1A0B0000 		.4byte	0xb1a
 5885 0f99 16       		.uleb128 0x16
 5886 0f9a F2000000 		.4byte	0xf2
 5887 0f9e 00       		.byte	0
 5888 0f9f 0A       		.uleb128 0xa
 5889 0fa0 04       		.byte	0x4
 5890 0fa1 570F0000 		.4byte	0xf57
 5891 0fa5 15       		.uleb128 0x15
 5892 0fa6 01       		.byte	0x1
 5893 0fa7 1A0B0000 		.4byte	0xb1a
 5894 0fab B50F0000 		.4byte	0xfb5
 5895 0faf 16       		.uleb128 0x16
 5896 0fb0 F2000000 		.4byte	0xf2
 5897 0fb4 00       		.byte	0
 5898 0fb5 0A       		.uleb128 0xa
 5899 0fb6 04       		.byte	0x4
 5900 0fb7 A50F0000 		.4byte	0xfa5
 5901 0fbb 15       		.uleb128 0x15
 5902 0fbc 01       		.byte	0x1
 5903 0fbd F2000000 		.4byte	0xf2
 5904 0fc1 D00F0000 		.4byte	0xfd0
 5905 0fc5 16       		.uleb128 0x16
 5906 0fc6 D70B0000 		.4byte	0xbd7
 5907 0fca 16       		.uleb128 0x16
 5908 0fcb C1000000 		.4byte	0xc1
 5909 0fcf 00       		.byte	0
 5910 0fd0 0A       		.uleb128 0xa
 5911 0fd1 04       		.byte	0x4
 5912 0fd2 BB0F0000 		.4byte	0xfbb
 5913 0fd6 1D       		.uleb128 0x1d
 5914 0fd7 01       		.byte	0x1
 5915 0fd8 E70F0000 		.4byte	0xfe7
 5916 0fdc 16       		.uleb128 0x16
 5917 0fdd 890A0000 		.4byte	0xa89
 5918 0fe1 16       		.uleb128 0x16
 5919 0fe2 C1000000 		.4byte	0xc1
 5920 0fe6 00       		.byte	0
ARM GAS  C:\Users\EBANO_~1\AppData\Local\Temp\ccFRmLE5.s 			page 132


 5921 0fe7 0A       		.uleb128 0xa
 5922 0fe8 04       		.byte	0x4
 5923 0fe9 D60F0000 		.4byte	0xfd6
 5924 0fed 1D       		.uleb128 0x1d
 5925 0fee 01       		.byte	0x1
 5926 0fef 03100000 		.4byte	0x1003
 5927 0ff3 16       		.uleb128 0x16
 5928 0ff4 F2000000 		.4byte	0xf2
 5929 0ff8 16       		.uleb128 0x16
 5930 0ff9 B1000000 		.4byte	0xb1
 5931 0ffd 16       		.uleb128 0x16
 5932 0ffe DC000000 		.4byte	0xdc
 5933 1002 00       		.byte	0
 5934 1003 0A       		.uleb128 0xa
 5935 1004 04       		.byte	0x4
 5936 1005 ED0F0000 		.4byte	0xfed
 5937 1009 15       		.uleb128 0x15
 5938 100a 01       		.byte	0x1
 5939 100b D1000000 		.4byte	0xd1
 5940 100f 19100000 		.4byte	0x1019
 5941 1013 16       		.uleb128 0x16
 5942 1014 D70B0000 		.4byte	0xbd7
 5943 1018 00       		.byte	0
 5944 1019 0A       		.uleb128 0xa
 5945 101a 04       		.byte	0x4
 5946 101b 09100000 		.4byte	0x1009
 5947 101f 1D       		.uleb128 0x1d
 5948 1020 01       		.byte	0x1
 5949 1021 30100000 		.4byte	0x1030
 5950 1025 16       		.uleb128 0x16
 5951 1026 DC000000 		.4byte	0xdc
 5952 102a 16       		.uleb128 0x16
 5953 102b C1000000 		.4byte	0xc1
 5954 102f 00       		.byte	0
 5955 1030 0A       		.uleb128 0xa
 5956 1031 04       		.byte	0x4
 5957 1032 1F100000 		.4byte	0x101f
 5958 1036 15       		.uleb128 0x15
 5959 1037 01       		.byte	0x1
 5960 1038 C1000000 		.4byte	0xc1
 5961 103c 46100000 		.4byte	0x1046
 5962 1040 16       		.uleb128 0x16
 5963 1041 DC000000 		.4byte	0xdc
 5964 1045 00       		.byte	0
 5965 1046 0A       		.uleb128 0xa
 5966 1047 04       		.byte	0x4
 5967 1048 36100000 		.4byte	0x1036
 5968 104c 1D       		.uleb128 0x1d
 5969 104d 01       		.byte	0x1
 5970 104e 62100000 		.4byte	0x1062
 5971 1052 16       		.uleb128 0x16
 5972 1053 DC000000 		.4byte	0xdc
 5973 1057 16       		.uleb128 0x16
 5974 1058 890A0000 		.4byte	0xa89
 5975 105c 16       		.uleb128 0x16
 5976 105d C1000000 		.4byte	0xc1
 5977 1061 00       		.byte	0
ARM GAS  C:\Users\EBANO_~1\AppData\Local\Temp\ccFRmLE5.s 			page 133


 5978 1062 0A       		.uleb128 0xa
 5979 1063 04       		.byte	0x4
 5980 1064 4C100000 		.4byte	0x104c
 5981 1068 1D       		.uleb128 0x1d
 5982 1069 01       		.byte	0x1
 5983 106a 79100000 		.4byte	0x1079
 5984 106e 16       		.uleb128 0x16
 5985 106f D70B0000 		.4byte	0xbd7
 5986 1073 16       		.uleb128 0x16
 5987 1074 C1000000 		.4byte	0xc1
 5988 1078 00       		.byte	0
 5989 1079 0A       		.uleb128 0xa
 5990 107a 04       		.byte	0x4
 5991 107b 68100000 		.4byte	0x1068
 5992 107f 1D       		.uleb128 0x1d
 5993 1080 01       		.byte	0x1
 5994 1081 90100000 		.4byte	0x1090
 5995 1085 16       		.uleb128 0x16
 5996 1086 F2000000 		.4byte	0xf2
 5997 108a 16       		.uleb128 0x16
 5998 108b F2000000 		.4byte	0xf2
 5999 108f 00       		.byte	0
 6000 1090 0A       		.uleb128 0xa
 6001 1091 04       		.byte	0x4
 6002 1092 7F100000 		.4byte	0x107f
 6003 1096 1E       		.uleb128 0x1e
 6004 1097 AE090000 		.4byte	.LASF203
 6005 109b 0D       		.byte	0xd
 6006 109c 8001     		.2byte	0x180
 6007 109e 820E0000 		.4byte	0xe82
 6008 10a2 01       		.byte	0x1
 6009 10a3 01       		.byte	0x1
 6010 10a4 11       		.uleb128 0x11
 6011 10a5 61200000 		.4byte	.LASF204
 6012 10a9 01       		.byte	0x1
 6013 10aa 0E       		.byte	0xe
 6014 10ab B4       		.byte	0xb4
 6015 10ac D3100000 		.4byte	0x10d3
 6016 10b0 24       		.uleb128 0x24
 6017 10b1 4D696E00 		.ascii	"Min\000"
 6018 10b5 0E       		.byte	0xe
 6019 10b6 BD       		.byte	0xbd
 6020 10b7 B1000000 		.4byte	0xb1
 6021 10bb 01       		.byte	0x1
 6022 10bc 04       		.byte	0x4
 6023 10bd 04       		.byte	0x4
 6024 10be 02       		.byte	0x2
 6025 10bf 23       		.byte	0x23
 6026 10c0 00       		.uleb128 0
 6027 10c1 24       		.uleb128 0x24
 6028 10c2 4D617800 		.ascii	"Max\000"
 6029 10c6 0E       		.byte	0xe
 6030 10c7 C5       		.byte	0xc5
 6031 10c8 B1000000 		.4byte	0xb1
 6032 10cc 01       		.byte	0x1
 6033 10cd 04       		.byte	0x4
 6034 10ce 00       		.byte	0
ARM GAS  C:\Users\EBANO_~1\AppData\Local\Temp\ccFRmLE5.s 			page 134


 6035 10cf 02       		.byte	0x2
 6036 10d0 23       		.byte	0x23
 6037 10d1 00       		.uleb128 0
 6038 10d2 00       		.byte	0
 6039 10d3 1F       		.uleb128 0x1f
 6040 10d4 76090000 		.4byte	.LASF206
 6041 10d8 01       		.byte	0x1
 6042 10d9 0E       		.byte	0xe
 6043 10da AB       		.byte	0xab
 6044 10db F6100000 		.4byte	0x10f6
 6045 10df 0E       		.uleb128 0xe
 6046 10e0 A2210000 		.4byte	.LASF145
 6047 10e4 0E       		.byte	0xe
 6048 10e5 B0       		.byte	0xb0
 6049 10e6 B1000000 		.4byte	0xb1
 6050 10ea 0E       		.uleb128 0xe
 6051 10eb 2E120000 		.4byte	.LASF144
 6052 10ef 0E       		.byte	0xe
 6053 10f0 C6       		.byte	0xc6
 6054 10f1 A4100000 		.4byte	0x10a4
 6055 10f5 00       		.byte	0
 6056 10f6 03       		.uleb128 0x3
 6057 10f7 FC070000 		.4byte	.LASF207
 6058 10fb 0E       		.byte	0xe
 6059 10fc C7       		.byte	0xc7
 6060 10fd D3100000 		.4byte	0x10d3
 6061 1101 11       		.uleb128 0x11
 6062 1102 1A1A0000 		.4byte	.LASF208
 6063 1106 0C       		.byte	0xc
 6064 1107 0E       		.byte	0xe
 6065 1108 CC       		.byte	0xcc
 6066 1109 46110000 		.4byte	0x1146
 6067 110d 10       		.uleb128 0x10
 6068 110e C91D0000 		.4byte	.LASF209
 6069 1112 0E       		.byte	0xe
 6070 1113 D1       		.byte	0xd1
 6071 1114 F2000000 		.4byte	0xf2
 6072 1118 02       		.byte	0x2
 6073 1119 23       		.byte	0x23
 6074 111a 00       		.uleb128 0
 6075 111b 10       		.uleb128 0x10
 6076 111c A9120000 		.4byte	.LASF210
 6077 1120 0E       		.byte	0xe
 6078 1121 D5       		.byte	0xd5
 6079 1122 F2000000 		.4byte	0xf2
 6080 1126 02       		.byte	0x2
 6081 1127 23       		.byte	0x23
 6082 1128 04       		.uleb128 0x4
 6083 1129 10       		.uleb128 0x10
 6084 112a 06060000 		.4byte	.LASF211
 6085 112e 0E       		.byte	0xe
 6086 112f D9       		.byte	0xd9
 6087 1130 F6100000 		.4byte	0x10f6
 6088 1134 02       		.byte	0x2
 6089 1135 23       		.byte	0x23
 6090 1136 08       		.uleb128 0x8
 6091 1137 10       		.uleb128 0x10
ARM GAS  C:\Users\EBANO_~1\AppData\Local\Temp\ccFRmLE5.s 			page 135


 6092 1138 7F090000 		.4byte	.LASF212
 6093 113c 0E       		.byte	0xe
 6094 113d DD       		.byte	0xdd
 6095 113e C1000000 		.4byte	0xc1
 6096 1142 02       		.byte	0x2
 6097 1143 23       		.byte	0x23
 6098 1144 09       		.uleb128 0x9
 6099 1145 00       		.byte	0
 6100 1146 03       		.uleb128 0x3
 6101 1147 8A100000 		.4byte	.LASF213
 6102 114b 0E       		.byte	0xe
 6103 114c DE       		.byte	0xde
 6104 114d 01110000 		.4byte	0x1101
 6105 1151 25       		.uleb128 0x25
 6106 1152 8F0C0000 		.4byte	.LASF221
 6107 1156 07       		.byte	0x7
 6108 1157 01       		.byte	0x1
 6109 1158 46000000 		.4byte	0x46
 6110 115c 0E       		.byte	0xe
 6111 115d F6       		.byte	0xf6
 6112 115e 81110000 		.4byte	0x1181
 6113 1162 21       		.uleb128 0x21
 6114 1163 BA190000 		.4byte	.LASF214
 6115 1167 00       		.byte	0
 6116 1168 21       		.uleb128 0x21
 6117 1169 C8190000 		.4byte	.LASF215
 6118 116d 01       		.byte	0x1
 6119 116e 21       		.uleb128 0x21
 6120 116f 00000000 		.4byte	.LASF216
 6121 1173 02       		.byte	0x2
 6122 1174 21       		.uleb128 0x21
 6123 1175 FD200000 		.4byte	.LASF217
 6124 1179 03       		.byte	0x3
 6125 117a 21       		.uleb128 0x21
 6126 117b F20C0000 		.4byte	.LASF218
 6127 117f 04       		.byte	0x4
 6128 1180 00       		.byte	0
 6129 1181 0C       		.uleb128 0xc
 6130 1182 E00F0000 		.4byte	.LASF219
 6131 1186 0E       		.byte	0xe
 6132 1187 0C01     		.2byte	0x10c
 6133 1189 51110000 		.4byte	0x1151
 6134 118d 02       		.uleb128 0x2
 6135 118e 04       		.byte	0x4
 6136 118f 04       		.byte	0x4
 6137 1190 06080000 		.4byte	.LASF220
 6138 1194 0A       		.uleb128 0xa
 6139 1195 04       		.byte	0x4
 6140 1196 46110000 		.4byte	0x1146
 6141 119a 0A       		.uleb128 0xa
 6142 119b 04       		.byte	0x4
 6143 119c DC000000 		.4byte	0xdc
 6144 11a0 26       		.uleb128 0x26
 6145 11a1 B9040000 		.4byte	.LASF222
 6146 11a5 07       		.byte	0x7
 6147 11a6 01       		.byte	0x1
 6148 11a7 46000000 		.4byte	0x46
ARM GAS  C:\Users\EBANO_~1\AppData\Local\Temp\ccFRmLE5.s 			page 136


 6149 11ab 0E       		.byte	0xe
 6150 11ac 2508     		.2byte	0x825
 6151 11ae 3D120000 		.4byte	0x123d
 6152 11b2 21       		.uleb128 0x21
 6153 11b3 37180000 		.4byte	.LASF223
 6154 11b7 00       		.byte	0
 6155 11b8 21       		.uleb128 0x21
 6156 11b9 9A100000 		.4byte	.LASF224
 6157 11bd 01       		.byte	0x1
 6158 11be 21       		.uleb128 0x21
 6159 11bf A8210000 		.4byte	.LASF225
 6160 11c3 02       		.byte	0x2
 6161 11c4 21       		.uleb128 0x21
 6162 11c5 09090000 		.4byte	.LASF226
 6163 11c9 03       		.byte	0x3
 6164 11ca 21       		.uleb128 0x21
 6165 11cb 5A170000 		.4byte	.LASF227
 6166 11cf 04       		.byte	0x4
 6167 11d0 21       		.uleb128 0x21
 6168 11d1 EA1F0000 		.4byte	.LASF228
 6169 11d5 05       		.byte	0x5
 6170 11d6 21       		.uleb128 0x21
 6171 11d7 631F0000 		.4byte	.LASF229
 6172 11db 06       		.byte	0x6
 6173 11dc 21       		.uleb128 0x21
 6174 11dd F0010000 		.4byte	.LASF230
 6175 11e1 07       		.byte	0x7
 6176 11e2 21       		.uleb128 0x21
 6177 11e3 80070000 		.4byte	.LASF231
 6178 11e7 08       		.byte	0x8
 6179 11e8 21       		.uleb128 0x21
 6180 11e9 BC0F0000 		.4byte	.LASF232
 6181 11ed 09       		.byte	0x9
 6182 11ee 21       		.uleb128 0x21
 6183 11ef D8210000 		.4byte	.LASF233
 6184 11f3 0A       		.byte	0xa
 6185 11f4 21       		.uleb128 0x21
 6186 11f5 FB040000 		.4byte	.LASF234
 6187 11f9 0B       		.byte	0xb
 6188 11fa 21       		.uleb128 0x21
 6189 11fb F61A0000 		.4byte	.LASF235
 6190 11ff 0C       		.byte	0xc
 6191 1200 21       		.uleb128 0x21
 6192 1201 DB110000 		.4byte	.LASF236
 6193 1205 0D       		.byte	0xd
 6194 1206 21       		.uleb128 0x21
 6195 1207 CA100000 		.4byte	.LASF237
 6196 120b 0E       		.byte	0xe
 6197 120c 21       		.uleb128 0x21
 6198 120d 2B210000 		.4byte	.LASF238
 6199 1211 0F       		.byte	0xf
 6200 1212 21       		.uleb128 0x21
 6201 1213 C51E0000 		.4byte	.LASF239
 6202 1217 10       		.byte	0x10
 6203 1218 21       		.uleb128 0x21
 6204 1219 4B030000 		.4byte	.LASF240
 6205 121d 11       		.byte	0x11
ARM GAS  C:\Users\EBANO_~1\AppData\Local\Temp\ccFRmLE5.s 			page 137


 6206 121e 21       		.uleb128 0x21
 6207 121f DC0A0000 		.4byte	.LASF241
 6208 1223 12       		.byte	0x12
 6209 1224 21       		.uleb128 0x21
 6210 1225 E00D0000 		.4byte	.LASF242
 6211 1229 13       		.byte	0x13
 6212 122a 21       		.uleb128 0x21
 6213 122b 861F0000 		.4byte	.LASF243
 6214 122f 14       		.byte	0x14
 6215 1230 21       		.uleb128 0x21
 6216 1231 8E1D0000 		.4byte	.LASF244
 6217 1235 15       		.byte	0x15
 6218 1236 21       		.uleb128 0x21
 6219 1237 FE0F0000 		.4byte	.LASF245
 6220 123b 16       		.byte	0x16
 6221 123c 00       		.byte	0
 6222 123d 0C       		.uleb128 0xc
 6223 123e 201F0000 		.4byte	.LASF246
 6224 1242 0E       		.byte	0xe
 6225 1243 8508     		.2byte	0x885
 6226 1245 A0110000 		.4byte	0x11a0
 6227 1249 27       		.uleb128 0x27
 6228 124a AD200000 		.4byte	.LASF431
 6229 124e 0E       		.byte	0xe
 6230 124f 2509     		.2byte	0x925
 6231 1251 1F010000 		.4byte	0x11f
 6232 1255 10       		.byte	0x10
 6233 1256 08       		.byte	0x8
 6234 1257 0A       		.byte	0xa
 6235 1258 0C       		.byte	0xc
 6236 1259 0D       		.byte	0xd
 6237 125a 0E       		.byte	0xe
 6238 125b 10       		.byte	0x10
 6239 125c 12       		.byte	0x12
 6240 125d 14       		.byte	0x14
 6241 125e 15       		.byte	0x15
 6242 125f 18       		.byte	0x18
 6243 1260 1A       		.byte	0x1a
 6244 1261 1B       		.byte	0x1b
 6245 1262 1D       		.byte	0x1d
 6246 1263 1E       		.byte	0x1e
 6247 1264 21       		.byte	0x21
 6248 1265 24       		.byte	0x24
 6249 1266 26       		.uleb128 0x26
 6250 1267 9F080000 		.4byte	.LASF247
 6251 126b 07       		.byte	0x7
 6252 126c 01       		.byte	0x1
 6253 126d 46000000 		.4byte	0x46
 6254 1271 0F       		.byte	0xf
 6255 1272 1202     		.2byte	0x212
 6256 1274 B7130000 		.4byte	0x13b7
 6257 1278 21       		.uleb128 0x21
 6258 1279 220B0000 		.4byte	.LASF248
 6259 127d 00       		.byte	0
 6260 127e 21       		.uleb128 0x21
 6261 127f 460C0000 		.4byte	.LASF249
 6262 1283 01       		.byte	0x1
ARM GAS  C:\Users\EBANO_~1\AppData\Local\Temp\ccFRmLE5.s 			page 138


 6263 1284 21       		.uleb128 0x21
 6264 1285 5D1C0000 		.4byte	.LASF250
 6265 1289 02       		.byte	0x2
 6266 128a 21       		.uleb128 0x21
 6267 128b 67100000 		.4byte	.LASF251
 6268 128f 03       		.byte	0x3
 6269 1290 21       		.uleb128 0x21
 6270 1291 1F1C0000 		.4byte	.LASF252
 6271 1295 04       		.byte	0x4
 6272 1296 21       		.uleb128 0x21
 6273 1297 4C170000 		.4byte	.LASF253
 6274 129b 05       		.byte	0x5
 6275 129c 21       		.uleb128 0x21
 6276 129d DD050000 		.4byte	.LASF254
 6277 12a1 06       		.byte	0x6
 6278 12a2 21       		.uleb128 0x21
 6279 12a3 830E0000 		.4byte	.LASF255
 6280 12a7 07       		.byte	0x7
 6281 12a8 21       		.uleb128 0x21
 6282 12a9 A9170000 		.4byte	.LASF256
 6283 12ad 08       		.byte	0x8
 6284 12ae 21       		.uleb128 0x21
 6285 12af 49180000 		.4byte	.LASF257
 6286 12b3 09       		.byte	0x9
 6287 12b4 21       		.uleb128 0x21
 6288 12b5 C4030000 		.4byte	.LASF258
 6289 12b9 0A       		.byte	0xa
 6290 12ba 21       		.uleb128 0x21
 6291 12bb FC100000 		.4byte	.LASF259
 6292 12bf 0B       		.byte	0xb
 6293 12c0 21       		.uleb128 0x21
 6294 12c1 870D0000 		.4byte	.LASF260
 6295 12c5 0C       		.byte	0xc
 6296 12c6 21       		.uleb128 0x21
 6297 12c7 431B0000 		.4byte	.LASF261
 6298 12cb 0D       		.byte	0xd
 6299 12cc 21       		.uleb128 0x21
 6300 12cd 11140000 		.4byte	.LASF262
 6301 12d1 0E       		.byte	0xe
 6302 12d2 21       		.uleb128 0x21
 6303 12d3 820B0000 		.4byte	.LASF263
 6304 12d7 0F       		.byte	0xf
 6305 12d8 21       		.uleb128 0x21
 6306 12d9 7A0F0000 		.4byte	.LASF264
 6307 12dd 10       		.byte	0x10
 6308 12de 21       		.uleb128 0x21
 6309 12df 8D0F0000 		.4byte	.LASF265
 6310 12e3 11       		.byte	0x11
 6311 12e4 21       		.uleb128 0x21
 6312 12e5 62000000 		.4byte	.LASF266
 6313 12e9 12       		.byte	0x12
 6314 12ea 21       		.uleb128 0x21
 6315 12eb 79000000 		.4byte	.LASF267
 6316 12ef 13       		.byte	0x13
 6317 12f0 21       		.uleb128 0x21
 6318 12f1 F1180000 		.4byte	.LASF268
 6319 12f5 14       		.byte	0x14
ARM GAS  C:\Users\EBANO_~1\AppData\Local\Temp\ccFRmLE5.s 			page 139


 6320 12f6 21       		.uleb128 0x21
 6321 12f7 991A0000 		.4byte	.LASF269
 6322 12fb 15       		.byte	0x15
 6323 12fc 21       		.uleb128 0x21
 6324 12fd 62060000 		.4byte	.LASF270
 6325 1301 16       		.byte	0x16
 6326 1302 21       		.uleb128 0x21
 6327 1303 7F080000 		.4byte	.LASF271
 6328 1307 17       		.byte	0x17
 6329 1308 21       		.uleb128 0x21
 6330 1309 530F0000 		.4byte	.LASF272
 6331 130d 18       		.byte	0x18
 6332 130e 21       		.uleb128 0x21
 6333 130f B11D0000 		.4byte	.LASF273
 6334 1313 19       		.byte	0x19
 6335 1314 21       		.uleb128 0x21
 6336 1315 92060000 		.4byte	.LASF274
 6337 1319 1A       		.byte	0x1a
 6338 131a 21       		.uleb128 0x21
 6339 131b FA150000 		.4byte	.LASF275
 6340 131f 1B       		.byte	0x1b
 6341 1320 21       		.uleb128 0x21
 6342 1321 2B200000 		.4byte	.LASF276
 6343 1325 1C       		.byte	0x1c
 6344 1326 21       		.uleb128 0x21
 6345 1327 93180000 		.4byte	.LASF277
 6346 132b 1D       		.byte	0x1d
 6347 132c 21       		.uleb128 0x21
 6348 132d C70E0000 		.4byte	.LASF278
 6349 1331 1E       		.byte	0x1e
 6350 1332 21       		.uleb128 0x21
 6351 1333 66190000 		.4byte	.LASF279
 6352 1337 1F       		.byte	0x1f
 6353 1338 21       		.uleb128 0x21
 6354 1339 B7160000 		.4byte	.LASF280
 6355 133d 20       		.byte	0x20
 6356 133e 21       		.uleb128 0x21
 6357 133f AC0E0000 		.4byte	.LASF281
 6358 1343 21       		.byte	0x21
 6359 1344 21       		.uleb128 0x21
 6360 1345 7F180000 		.4byte	.LASF282
 6361 1349 22       		.byte	0x22
 6362 134a 21       		.uleb128 0x21
 6363 134b 26020000 		.4byte	.LASF283
 6364 134f 23       		.byte	0x23
 6365 1350 21       		.uleb128 0x21
 6366 1351 AF020000 		.4byte	.LASF284
 6367 1355 24       		.byte	0x24
 6368 1356 21       		.uleb128 0x21
 6369 1357 E8060000 		.4byte	.LASF285
 6370 135b 25       		.byte	0x25
 6371 135c 21       		.uleb128 0x21
 6372 135d 4E120000 		.4byte	.LASF286
 6373 1361 26       		.byte	0x26
 6374 1362 21       		.uleb128 0x21
 6375 1363 460E0000 		.4byte	.LASF287
 6376 1367 27       		.byte	0x27
ARM GAS  C:\Users\EBANO_~1\AppData\Local\Temp\ccFRmLE5.s 			page 140


 6377 1368 21       		.uleb128 0x21
 6378 1369 720C0000 		.4byte	.LASF288
 6379 136d 28       		.byte	0x28
 6380 136e 21       		.uleb128 0x21
 6381 136f EF0E0000 		.4byte	.LASF289
 6382 1373 29       		.byte	0x29
 6383 1374 21       		.uleb128 0x21
 6384 1375 FD0B0000 		.4byte	.LASF290
 6385 1379 2A       		.byte	0x2a
 6386 137a 21       		.uleb128 0x21
 6387 137b 0B220000 		.4byte	.LASF291
 6388 137f 2B       		.byte	0x2b
 6389 1380 21       		.uleb128 0x21
 6390 1381 0E060000 		.4byte	.LASF292
 6391 1385 2C       		.byte	0x2c
 6392 1386 21       		.uleb128 0x21
 6393 1387 AB1F0000 		.4byte	.LASF293
 6394 138b 2D       		.byte	0x2d
 6395 138c 21       		.uleb128 0x21
 6396 138d 771B0000 		.4byte	.LASF294
 6397 1391 2E       		.byte	0x2e
 6398 1392 21       		.uleb128 0x21
 6399 1393 67180000 		.4byte	.LASF295
 6400 1397 2F       		.byte	0x2f
 6401 1398 21       		.uleb128 0x21
 6402 1399 11010000 		.4byte	.LASF296
 6403 139d 30       		.byte	0x30
 6404 139e 21       		.uleb128 0x21
 6405 139f 08120000 		.4byte	.LASF297
 6406 13a3 31       		.byte	0x31
 6407 13a4 21       		.uleb128 0x21
 6408 13a5 230C0000 		.4byte	.LASF298
 6409 13a9 32       		.byte	0x32
 6410 13aa 21       		.uleb128 0x21
 6411 13ab BE120000 		.4byte	.LASF299
 6412 13af 33       		.byte	0x33
 6413 13b0 21       		.uleb128 0x21
 6414 13b1 8E1E0000 		.4byte	.LASF300
 6415 13b5 34       		.byte	0x34
 6416 13b6 00       		.byte	0
 6417 13b7 0C       		.uleb128 0xc
 6418 13b8 86020000 		.4byte	.LASF301
 6419 13bc 0F       		.byte	0xf
 6420 13bd EE02     		.2byte	0x2ee
 6421 13bf 66120000 		.4byte	0x1266
 6422 13c3 26       		.uleb128 0x26
 6423 13c4 D6190000 		.4byte	.LASF302
 6424 13c8 07       		.byte	0x7
 6425 13c9 01       		.byte	0x1
 6426 13ca 46000000 		.4byte	0x46
 6427 13ce 0F       		.byte	0xf
 6428 13cf F302     		.2byte	0x2f3
 6429 13d1 E8130000 		.4byte	0x13e8
 6430 13d5 21       		.uleb128 0x21
 6431 13d6 740E0000 		.4byte	.LASF303
 6432 13da 00       		.byte	0
 6433 13db 21       		.uleb128 0x21
ARM GAS  C:\Users\EBANO_~1\AppData\Local\Temp\ccFRmLE5.s 			page 141


 6434 13dc 331E0000 		.4byte	.LASF304
 6435 13e0 01       		.byte	0x1
 6436 13e1 21       		.uleb128 0x21
 6437 13e2 E91B0000 		.4byte	.LASF305
 6438 13e6 02       		.byte	0x2
 6439 13e7 00       		.byte	0
 6440 13e8 0C       		.uleb128 0xc
 6441 13e9 61050000 		.4byte	.LASF306
 6442 13ed 0F       		.byte	0xf
 6443 13ee 0203     		.2byte	0x302
 6444 13f0 C3130000 		.4byte	0x13c3
 6445 13f4 26       		.uleb128 0x26
 6446 13f5 7E160000 		.4byte	.LASF307
 6447 13f9 07       		.byte	0x7
 6448 13fa 01       		.byte	0x1
 6449 13fb 46000000 		.4byte	0x46
 6450 13ff 0F       		.byte	0xf
 6451 1400 0403     		.2byte	0x304
 6452 1402 13140000 		.4byte	0x1413
 6453 1406 21       		.uleb128 0x21
 6454 1407 43150000 		.4byte	.LASF308
 6455 140b 00       		.byte	0
 6456 140c 21       		.uleb128 0x21
 6457 140d AD180000 		.4byte	.LASF309
 6458 1411 01       		.byte	0x1
 6459 1412 00       		.byte	0
 6460 1413 0C       		.uleb128 0xc
 6461 1414 C2010000 		.4byte	.LASF310
 6462 1418 0F       		.byte	0xf
 6463 1419 0E03     		.2byte	0x30e
 6464 141b F4130000 		.4byte	0x13f4
 6465 141f 19       		.uleb128 0x19
 6466 1420 CF000000 		.4byte	.LASF311
 6467 1424 03       		.byte	0x3
 6468 1425 0F       		.byte	0xf
 6469 1426 1303     		.2byte	0x313
 6470 1428 5A140000 		.4byte	0x145a
 6471 142c 18       		.uleb128 0x18
 6472 142d 55040000 		.4byte	.LASF312
 6473 1431 0F       		.byte	0xf
 6474 1432 1803     		.2byte	0x318
 6475 1434 C1000000 		.4byte	0xc1
 6476 1438 02       		.byte	0x2
 6477 1439 23       		.byte	0x23
 6478 143a 00       		.uleb128 0
 6479 143b 18       		.uleb128 0x18
 6480 143c 90000000 		.4byte	.LASF313
 6481 1440 0F       		.byte	0xf
 6482 1441 1C03     		.2byte	0x31c
 6483 1443 C1000000 		.4byte	0xc1
 6484 1447 02       		.byte	0x2
 6485 1448 23       		.byte	0x23
 6486 1449 01       		.uleb128 0x1
 6487 144a 18       		.uleb128 0x18
 6488 144b 75100000 		.4byte	.LASF314
 6489 144f 0F       		.byte	0xf
 6490 1450 2003     		.2byte	0x320
ARM GAS  C:\Users\EBANO_~1\AppData\Local\Temp\ccFRmLE5.s 			page 142


 6491 1452 C1000000 		.4byte	0xc1
 6492 1456 02       		.byte	0x2
 6493 1457 23       		.byte	0x23
 6494 1458 02       		.uleb128 0x2
 6495 1459 00       		.byte	0
 6496 145a 0C       		.uleb128 0xc
 6497 145b 6C1A0000 		.4byte	.LASF315
 6498 145f 0F       		.byte	0xf
 6499 1460 2103     		.2byte	0x321
 6500 1462 1F140000 		.4byte	0x141f
 6501 1466 28       		.uleb128 0x28
 6502 1467 C1170000 		.4byte	.LASF316
 6503 146b 04       		.byte	0x4
 6504 146c 0F       		.byte	0xf
 6505 146d 2603     		.2byte	0x326
 6506 146f B0140000 		.4byte	0x14b0
 6507 1473 1C       		.uleb128 0x1c
 6508 1474 A2210000 		.4byte	.LASF145
 6509 1478 0F       		.byte	0xf
 6510 1479 2B03     		.2byte	0x32b
 6511 147b F2000000 		.4byte	0xf2
 6512 147f 1C       		.uleb128 0x1c
 6513 1480 AE1B0000 		.4byte	.LASF317
 6514 1484 0F       		.byte	0xf
 6515 1485 2F03     		.2byte	0x32f
 6516 1487 8D110000 		.4byte	0x118d
 6517 148b 1C       		.uleb128 0x1c
 6518 148c 7C1E0000 		.4byte	.LASF318
 6519 1490 0F       		.byte	0xf
 6520 1491 3303     		.2byte	0x333
 6521 1493 9A110000 		.4byte	0x119a
 6522 1497 1C       		.uleb128 0x1c
 6523 1498 0E0E0000 		.4byte	.LASF319
 6524 149c 0F       		.byte	0xf
 6525 149d 3703     		.2byte	0x337
 6526 149f 94110000 		.4byte	0x1194
 6527 14a3 1C       		.uleb128 0x1c
 6528 14a4 28100000 		.4byte	.LASF320
 6529 14a8 0F       		.byte	0xf
 6530 14a9 3B03     		.2byte	0x33b
 6531 14ab 5A140000 		.4byte	0x145a
 6532 14af 00       		.byte	0
 6533 14b0 0C       		.uleb128 0xc
 6534 14b1 E5130000 		.4byte	.LASF321
 6535 14b5 0F       		.byte	0xf
 6536 14b6 3C03     		.2byte	0x33c
 6537 14b8 66140000 		.4byte	0x1466
 6538 14bc 19       		.uleb128 0x19
 6539 14bd D20D0000 		.4byte	.LASF322
 6540 14c1 04       		.byte	0x4
 6541 14c2 0F       		.byte	0xf
 6542 14c3 4103     		.2byte	0x341
 6543 14c5 06150000 		.4byte	0x1506
 6544 14c9 18       		.uleb128 0x18
 6545 14ca 95080000 		.4byte	.LASF323
 6546 14ce 0F       		.byte	0xf
 6547 14cf 4603     		.2byte	0x346
ARM GAS  C:\Users\EBANO_~1\AppData\Local\Temp\ccFRmLE5.s 			page 143


 6548 14d1 B7130000 		.4byte	0x13b7
 6549 14d5 02       		.byte	0x2
 6550 14d6 23       		.byte	0x23
 6551 14d7 00       		.uleb128 0
 6552 14d8 18       		.uleb128 0x18
 6553 14d9 A71E0000 		.4byte	.LASF324
 6554 14dd 0F       		.byte	0xf
 6555 14de 4C03     		.2byte	0x34c
 6556 14e0 B1000000 		.4byte	0xb1
 6557 14e4 02       		.byte	0x2
 6558 14e5 23       		.byte	0x23
 6559 14e6 01       		.uleb128 0x1
 6560 14e7 18       		.uleb128 0x18
 6561 14e8 A91A0000 		.4byte	.LASF325
 6562 14ec 0F       		.byte	0xf
 6563 14ed 5303     		.2byte	0x353
 6564 14ef C1000000 		.4byte	0xc1
 6565 14f3 02       		.byte	0x2
 6566 14f4 23       		.byte	0x23
 6567 14f5 02       		.uleb128 0x2
 6568 14f6 18       		.uleb128 0x18
 6569 14f7 B8130000 		.4byte	.LASF326
 6570 14fb 0F       		.byte	0xf
 6571 14fc 5A03     		.2byte	0x35a
 6572 14fe C1000000 		.4byte	0xc1
 6573 1502 02       		.byte	0x2
 6574 1503 23       		.byte	0x23
 6575 1504 03       		.uleb128 0x3
 6576 1505 00       		.byte	0
 6577 1506 0C       		.uleb128 0xc
 6578 1507 1F050000 		.4byte	.LASF327
 6579 150b 0F       		.byte	0xf
 6580 150c 5B03     		.2byte	0x35b
 6581 150e BC140000 		.4byte	0x14bc
 6582 1512 19       		.uleb128 0x19
 6583 1513 F0130000 		.4byte	.LASF328
 6584 1517 08       		.byte	0x8
 6585 1518 0F       		.byte	0xf
 6586 1519 6003     		.2byte	0x360
 6587 151b 4D150000 		.4byte	0x154d
 6588 151f 18       		.uleb128 0x18
 6589 1520 0C1A0000 		.4byte	.LASF329
 6590 1524 0F       		.byte	0xf
 6591 1525 6503     		.2byte	0x365
 6592 1527 C1000000 		.4byte	0xc1
 6593 152b 02       		.byte	0x2
 6594 152c 23       		.byte	0x23
 6595 152d 00       		.uleb128 0
 6596 152e 18       		.uleb128 0x18
 6597 152f A8110000 		.4byte	.LASF330
 6598 1533 0F       		.byte	0xf
 6599 1534 6903     		.2byte	0x369
 6600 1536 1A0B0000 		.4byte	0xb1a
 6601 153a 02       		.byte	0x2
 6602 153b 23       		.byte	0x23
 6603 153c 01       		.uleb128 0x1
 6604 153d 18       		.uleb128 0x18
ARM GAS  C:\Users\EBANO_~1\AppData\Local\Temp\ccFRmLE5.s 			page 144


 6605 153e 80050000 		.4byte	.LASF152
 6606 1542 0F       		.byte	0xf
 6607 1543 6D03     		.2byte	0x36d
 6608 1545 9C0A0000 		.4byte	0xa9c
 6609 1549 02       		.byte	0x2
 6610 154a 23       		.byte	0x23
 6611 154b 04       		.uleb128 0x4
 6612 154c 00       		.byte	0
 6613 154d 0C       		.uleb128 0xc
 6614 154e 170E0000 		.4byte	.LASF331
 6615 1552 0F       		.byte	0xf
 6616 1553 6E03     		.2byte	0x36e
 6617 1555 12150000 		.4byte	0x1512
 6618 1559 19       		.uleb128 0x19
 6619 155a 02190000 		.4byte	.LASF332
 6620 155e 08       		.byte	0x8
 6621 155f 0F       		.byte	0xf
 6622 1560 7303     		.2byte	0x373
 6623 1562 85150000 		.4byte	0x1585
 6624 1566 18       		.uleb128 0x18
 6625 1567 4A200000 		.4byte	.LASF333
 6626 156b 0F       		.byte	0xf
 6627 156c 7803     		.2byte	0x378
 6628 156e 87010000 		.4byte	0x187
 6629 1572 02       		.byte	0x2
 6630 1573 23       		.byte	0x23
 6631 1574 00       		.uleb128 0
 6632 1575 18       		.uleb128 0x18
 6633 1576 650B0000 		.4byte	.LASF334
 6634 157a 0F       		.byte	0xf
 6635 157b 7C03     		.2byte	0x37c
 6636 157d E8130000 		.4byte	0x13e8
 6637 1581 02       		.byte	0x2
 6638 1582 23       		.byte	0x23
 6639 1583 04       		.uleb128 0x4
 6640 1584 00       		.byte	0
 6641 1585 0C       		.uleb128 0xc
 6642 1586 C20C0000 		.4byte	.LASF335
 6643 158a 0F       		.byte	0xf
 6644 158b 7D03     		.2byte	0x37d
 6645 158d 59150000 		.4byte	0x1559
 6646 1591 19       		.uleb128 0x19
 6647 1592 BA070000 		.4byte	.LASF336
 6648 1596 04       		.byte	0x4
 6649 1597 0F       		.byte	0xf
 6650 1598 8203     		.2byte	0x382
 6651 159a AE150000 		.4byte	0x15ae
 6652 159e 18       		.uleb128 0x18
 6653 159f 390B0000 		.4byte	.LASF337
 6654 15a3 0F       		.byte	0xf
 6655 15a4 8703     		.2byte	0x387
 6656 15a6 75010000 		.4byte	0x175
 6657 15aa 02       		.byte	0x2
 6658 15ab 23       		.byte	0x23
 6659 15ac 00       		.uleb128 0
 6660 15ad 00       		.byte	0
 6661 15ae 0C       		.uleb128 0xc
ARM GAS  C:\Users\EBANO_~1\AppData\Local\Temp\ccFRmLE5.s 			page 145


 6662 15af 0B130000 		.4byte	.LASF338
 6663 15b3 0F       		.byte	0xf
 6664 15b4 8803     		.2byte	0x388
 6665 15b6 91150000 		.4byte	0x1591
 6666 15ba 19       		.uleb128 0x19
 6667 15bb 82060000 		.4byte	.LASF339
 6668 15bf 03       		.byte	0x3
 6669 15c0 0F       		.byte	0xf
 6670 15c1 9B03     		.2byte	0x39b
 6671 15c3 F5150000 		.4byte	0x15f5
 6672 15c7 18       		.uleb128 0x18
 6673 15c8 A71E0000 		.4byte	.LASF324
 6674 15cc 0F       		.byte	0xf
 6675 15cd A003     		.2byte	0x3a0
 6676 15cf B1000000 		.4byte	0xb1
 6677 15d3 02       		.byte	0x2
 6678 15d4 23       		.byte	0x23
 6679 15d5 00       		.uleb128 0
 6680 15d6 18       		.uleb128 0x18
 6681 15d7 B8130000 		.4byte	.LASF326
 6682 15db 0F       		.byte	0xf
 6683 15dc A403     		.2byte	0x3a4
 6684 15de C1000000 		.4byte	0xc1
 6685 15e2 02       		.byte	0x2
 6686 15e3 23       		.byte	0x23
 6687 15e4 01       		.uleb128 0x1
 6688 15e5 18       		.uleb128 0x18
 6689 15e6 A91A0000 		.4byte	.LASF325
 6690 15ea 0F       		.byte	0xf
 6691 15eb A803     		.2byte	0x3a8
 6692 15ed C1000000 		.4byte	0xc1
 6693 15f1 02       		.byte	0x2
 6694 15f2 23       		.byte	0x23
 6695 15f3 02       		.uleb128 0x2
 6696 15f4 00       		.byte	0
 6697 15f5 28       		.uleb128 0x28
 6698 15f6 1D210000 		.4byte	.LASF340
 6699 15fa 03       		.byte	0x3
 6700 15fb 0F       		.byte	0xf
 6701 15fc 8E03     		.2byte	0x38e
 6702 15fe 27160000 		.4byte	0x1627
 6703 1602 1C       		.uleb128 0x1c
 6704 1603 2D1B0000 		.4byte	.LASF341
 6705 1607 0F       		.byte	0xf
 6706 1608 9303     		.2byte	0x393
 6707 160a B1000000 		.4byte	0xb1
 6708 160e 1C       		.uleb128 0x1c
 6709 160f A41B0000 		.4byte	.LASF342
 6710 1613 0F       		.byte	0xf
 6711 1614 9703     		.2byte	0x397
 6712 1616 1A0B0000 		.4byte	0xb1a
 6713 161a 1C       		.uleb128 0x1c
 6714 161b C0020000 		.4byte	.LASF343
 6715 161f 0F       		.byte	0xf
 6716 1620 A903     		.2byte	0x3a9
 6717 1622 BA150000 		.4byte	0x15ba
 6718 1626 00       		.byte	0
ARM GAS  C:\Users\EBANO_~1\AppData\Local\Temp\ccFRmLE5.s 			page 146


 6719 1627 0C       		.uleb128 0xc
 6720 1628 6D210000 		.4byte	.LASF344
 6721 162c 0F       		.byte	0xf
 6722 162d AA03     		.2byte	0x3aa
 6723 162f F5150000 		.4byte	0x15f5
 6724 1633 19       		.uleb128 0x19
 6725 1634 B80D0000 		.4byte	.LASF345
 6726 1638 08       		.byte	0x8
 6727 1639 0F       		.byte	0xf
 6728 163a AF03     		.2byte	0x3af
 6729 163c 5F160000 		.4byte	0x165f
 6730 1640 18       		.uleb128 0x18
 6731 1641 7A0B0000 		.4byte	.LASF346
 6732 1645 0F       		.byte	0xf
 6733 1646 B403     		.2byte	0x3b4
 6734 1648 890A0000 		.4byte	0xa89
 6735 164c 02       		.byte	0x2
 6736 164d 23       		.byte	0x23
 6737 164e 00       		.uleb128 0
 6738 164f 18       		.uleb128 0x18
 6739 1650 AE100000 		.4byte	.LASF347
 6740 1654 0F       		.byte	0xf
 6741 1655 B803     		.2byte	0x3b8
 6742 1657 C1000000 		.4byte	0xc1
 6743 165b 02       		.byte	0x2
 6744 165c 23       		.byte	0x23
 6745 165d 04       		.uleb128 0x4
 6746 165e 00       		.byte	0
 6747 165f 0C       		.uleb128 0xc
 6748 1660 730D0000 		.4byte	.LASF348
 6749 1664 0F       		.byte	0xf
 6750 1665 B903     		.2byte	0x3b9
 6751 1667 33160000 		.4byte	0x1633
 6752 166b 19       		.uleb128 0x19
 6753 166c 0A200000 		.4byte	.LASF349
 6754 1670 08       		.byte	0x8
 6755 1671 0F       		.byte	0xf
 6756 1672 BE03     		.2byte	0x3be
 6757 1674 97160000 		.4byte	0x1697
 6758 1678 18       		.uleb128 0x18
 6759 1679 28180000 		.4byte	.LASF350
 6760 167d 0F       		.byte	0xf
 6761 167e C303     		.2byte	0x3c3
 6762 1680 9A110000 		.4byte	0x119a
 6763 1684 02       		.byte	0x2
 6764 1685 23       		.byte	0x23
 6765 1686 00       		.uleb128 0
 6766 1687 18       		.uleb128 0x18
 6767 1688 471A0000 		.4byte	.LASF351
 6768 168c 0F       		.byte	0xf
 6769 168d C703     		.2byte	0x3c7
 6770 168f 13140000 		.4byte	0x1413
 6771 1693 02       		.byte	0x2
 6772 1694 23       		.byte	0x23
 6773 1695 04       		.uleb128 0x4
 6774 1696 00       		.byte	0
 6775 1697 0C       		.uleb128 0xc
ARM GAS  C:\Users\EBANO_~1\AppData\Local\Temp\ccFRmLE5.s 			page 147


 6776 1698 A80F0000 		.4byte	.LASF352
 6777 169c 0F       		.byte	0xf
 6778 169d C803     		.2byte	0x3c8
 6779 169f 6B160000 		.4byte	0x166b
 6780 16a3 19       		.uleb128 0x19
 6781 16a4 1E120000 		.4byte	.LASF353
 6782 16a8 14       		.byte	0x14
 6783 16a9 0F       		.byte	0xf
 6784 16aa CD03     		.2byte	0x3cd
 6785 16ac 56170000 		.4byte	0x1756
 6786 16b0 18       		.uleb128 0x18
 6787 16b1 0C1A0000 		.4byte	.LASF329
 6788 16b5 0F       		.byte	0xf
 6789 16b6 D203     		.2byte	0x3d2
 6790 16b8 C1000000 		.4byte	0xc1
 6791 16bc 02       		.byte	0x2
 6792 16bd 23       		.byte	0x23
 6793 16be 00       		.uleb128 0
 6794 16bf 18       		.uleb128 0x18
 6795 16c0 A71E0000 		.4byte	.LASF324
 6796 16c4 0F       		.byte	0xf
 6797 16c5 D603     		.2byte	0x3d6
 6798 16c7 B1000000 		.4byte	0xb1
 6799 16cb 02       		.byte	0x2
 6800 16cc 23       		.byte	0x23
 6801 16cd 01       		.uleb128 0x1
 6802 16ce 18       		.uleb128 0x18
 6803 16cf 9A1B0000 		.4byte	.LASF354
 6804 16d3 0F       		.byte	0xf
 6805 16d4 DA03     		.2byte	0x3da
 6806 16d6 C1000000 		.4byte	0xc1
 6807 16da 02       		.byte	0x2
 6808 16db 23       		.byte	0x23
 6809 16dc 02       		.uleb128 0x2
 6810 16dd 18       		.uleb128 0x18
 6811 16de A6020000 		.4byte	.LASF355
 6812 16e2 0F       		.byte	0xf
 6813 16e3 DE03     		.2byte	0x3de
 6814 16e5 B1000000 		.4byte	0xb1
 6815 16e9 02       		.byte	0x2
 6816 16ea 23       		.byte	0x23
 6817 16eb 03       		.uleb128 0x3
 6818 16ec 18       		.uleb128 0x18
 6819 16ed C91D0000 		.4byte	.LASF209
 6820 16f1 0F       		.byte	0xf
 6821 16f2 E203     		.2byte	0x3e2
 6822 16f4 F2000000 		.4byte	0xf2
 6823 16f8 02       		.byte	0x2
 6824 16f9 23       		.byte	0x23
 6825 16fa 04       		.uleb128 0x4
 6826 16fb 18       		.uleb128 0x18
 6827 16fc 96090000 		.4byte	.LASF356
 6828 1700 0F       		.byte	0xf
 6829 1701 E603     		.2byte	0x3e6
 6830 1703 F2000000 		.4byte	0xf2
 6831 1707 02       		.byte	0x2
 6832 1708 23       		.byte	0x23
ARM GAS  C:\Users\EBANO_~1\AppData\Local\Temp\ccFRmLE5.s 			page 148


 6833 1709 08       		.uleb128 0x8
 6834 170a 18       		.uleb128 0x18
 6835 170b DB060000 		.4byte	.LASF357
 6836 170f 0F       		.byte	0xf
 6837 1710 EA03     		.2byte	0x3ea
 6838 1712 E7000000 		.4byte	0xe7
 6839 1716 02       		.byte	0x2
 6840 1717 23       		.byte	0x23
 6841 1718 0C       		.uleb128 0xc
 6842 1719 18       		.uleb128 0x18
 6843 171a B8130000 		.4byte	.LASF326
 6844 171e 0F       		.byte	0xf
 6845 171f EE03     		.2byte	0x3ee
 6846 1721 C1000000 		.4byte	0xc1
 6847 1725 02       		.byte	0x2
 6848 1726 23       		.byte	0x23
 6849 1727 10       		.uleb128 0x10
 6850 1728 18       		.uleb128 0x18
 6851 1729 E20C0000 		.4byte	.LASF358
 6852 172d 0F       		.byte	0xf
 6853 172e F203     		.2byte	0x3f2
 6854 1730 1A0B0000 		.4byte	0xb1a
 6855 1734 02       		.byte	0x2
 6856 1735 23       		.byte	0x23
 6857 1736 11       		.uleb128 0x11
 6858 1737 18       		.uleb128 0x18
 6859 1738 DC1B0000 		.4byte	.LASF359
 6860 173c 0F       		.byte	0xf
 6861 173d F603     		.2byte	0x3f6
 6862 173f 1A0B0000 		.4byte	0xb1a
 6863 1743 02       		.byte	0x2
 6864 1744 23       		.byte	0x23
 6865 1745 12       		.uleb128 0x12
 6866 1746 18       		.uleb128 0x18
 6867 1747 02090000 		.4byte	.LASF360
 6868 174b 0F       		.byte	0xf
 6869 174c FA03     		.2byte	0x3fa
 6870 174e 81110000 		.4byte	0x1181
 6871 1752 02       		.byte	0x2
 6872 1753 23       		.byte	0x23
 6873 1754 13       		.uleb128 0x13
 6874 1755 00       		.byte	0
 6875 1756 0C       		.uleb128 0xc
 6876 1757 DD000000 		.4byte	.LASF361
 6877 175b 0F       		.byte	0xf
 6878 175c FB03     		.2byte	0x3fb
 6879 175e A3160000 		.4byte	0x16a3
 6880 1762 19       		.uleb128 0x19
 6881 1763 21110000 		.4byte	.LASF362
 6882 1767 10       		.byte	0x10
 6883 1768 0F       		.byte	0xf
 6884 1769 0004     		.2byte	0x400
 6885 176b CA170000 		.4byte	0x17ca
 6886 176f 18       		.uleb128 0x18
 6887 1770 0C1A0000 		.4byte	.LASF329
 6888 1774 0F       		.byte	0xf
 6889 1775 0504     		.2byte	0x405
ARM GAS  C:\Users\EBANO_~1\AppData\Local\Temp\ccFRmLE5.s 			page 149


 6890 1777 C1000000 		.4byte	0xc1
 6891 177b 02       		.byte	0x2
 6892 177c 23       		.byte	0x23
 6893 177d 00       		.uleb128 0
 6894 177e 18       		.uleb128 0x18
 6895 177f A71E0000 		.4byte	.LASF324
 6896 1783 0F       		.byte	0xf
 6897 1784 0904     		.2byte	0x409
 6898 1786 B1000000 		.4byte	0xb1
 6899 178a 02       		.byte	0x2
 6900 178b 23       		.byte	0x23
 6901 178c 01       		.uleb128 0x1
 6902 178d 18       		.uleb128 0x18
 6903 178e 2D1B0000 		.4byte	.LASF341
 6904 1792 0F       		.byte	0xf
 6905 1793 0D04     		.2byte	0x40d
 6906 1795 B1000000 		.4byte	0xb1
 6907 1799 02       		.byte	0x2
 6908 179a 23       		.byte	0x23
 6909 179b 02       		.uleb128 0x2
 6910 179c 18       		.uleb128 0x18
 6911 179d 74040000 		.4byte	.LASF363
 6912 17a1 0F       		.byte	0xf
 6913 17a2 1104     		.2byte	0x411
 6914 17a4 8D110000 		.4byte	0x118d
 6915 17a8 02       		.byte	0x2
 6916 17a9 23       		.byte	0x23
 6917 17aa 04       		.uleb128 0x4
 6918 17ab 18       		.uleb128 0x18
 6919 17ac 05140000 		.4byte	.LASF364
 6920 17b0 0F       		.byte	0xf
 6921 17b1 1504     		.2byte	0x415
 6922 17b3 8D110000 		.4byte	0x118d
 6923 17b7 02       		.byte	0x2
 6924 17b8 23       		.byte	0x23
 6925 17b9 08       		.uleb128 0x8
 6926 17ba 18       		.uleb128 0x18
 6927 17bb 56100000 		.4byte	.LASF365
 6928 17bf 0F       		.byte	0xf
 6929 17c0 1904     		.2byte	0x419
 6930 17c2 DC000000 		.4byte	0xdc
 6931 17c6 02       		.byte	0x2
 6932 17c7 23       		.byte	0x23
 6933 17c8 0C       		.uleb128 0xc
 6934 17c9 00       		.byte	0
 6935 17ca 0C       		.uleb128 0xc
 6936 17cb C7210000 		.4byte	.LASF366
 6937 17cf 0F       		.byte	0xf
 6938 17d0 1A04     		.2byte	0x41a
 6939 17d2 62170000 		.4byte	0x1762
 6940 17d6 19       		.uleb128 0x19
 6941 17d7 84090000 		.4byte	.LASF367
 6942 17db 10       		.byte	0x10
 6943 17dc 0F       		.byte	0xf
 6944 17dd 1F04     		.2byte	0x41f
 6945 17df 5C180000 		.4byte	0x185c
 6946 17e3 18       		.uleb128 0x18
ARM GAS  C:\Users\EBANO_~1\AppData\Local\Temp\ccFRmLE5.s 			page 150


 6947 17e4 BE080000 		.4byte	.LASF368
 6948 17e8 0F       		.byte	0xf
 6949 17e9 2404     		.2byte	0x424
 6950 17eb 0F0B0000 		.4byte	0xb0f
 6951 17ef 02       		.byte	0x2
 6952 17f0 23       		.byte	0x23
 6953 17f1 00       		.uleb128 0
 6954 17f2 18       		.uleb128 0x18
 6955 17f3 7A0B0000 		.4byte	.LASF346
 6956 17f7 0F       		.byte	0xf
 6957 17f8 2804     		.2byte	0x428
 6958 17fa 890A0000 		.4byte	0xa89
 6959 17fe 02       		.byte	0x2
 6960 17ff 23       		.byte	0x23
 6961 1800 04       		.uleb128 0x4
 6962 1801 18       		.uleb128 0x18
 6963 1802 97120000 		.4byte	.LASF369
 6964 1806 0F       		.byte	0xf
 6965 1807 2C04     		.2byte	0x42c
 6966 1809 C1000000 		.4byte	0xc1
 6967 180d 02       		.byte	0x2
 6968 180e 23       		.byte	0x23
 6969 180f 08       		.uleb128 0x8
 6970 1810 18       		.uleb128 0x18
 6971 1811 A91A0000 		.4byte	.LASF325
 6972 1815 0F       		.byte	0xf
 6973 1816 3004     		.2byte	0x430
 6974 1818 C1000000 		.4byte	0xc1
 6975 181c 02       		.byte	0x2
 6976 181d 23       		.byte	0x23
 6977 181e 09       		.uleb128 0x9
 6978 181f 18       		.uleb128 0x18
 6979 1820 1B020000 		.4byte	.LASF370
 6980 1824 0F       		.byte	0xf
 6981 1825 3404     		.2byte	0x434
 6982 1827 1A0B0000 		.4byte	0xb1a
 6983 182b 02       		.byte	0x2
 6984 182c 23       		.byte	0x23
 6985 182d 0A       		.uleb128 0xa
 6986 182e 18       		.uleb128 0x18
 6987 182f 6A0B0000 		.4byte	.LASF371
 6988 1833 0F       		.byte	0xf
 6989 1834 3804     		.2byte	0x438
 6990 1836 B1000000 		.4byte	0xb1
 6991 183a 02       		.byte	0x2
 6992 183b 23       		.byte	0x23
 6993 183c 0B       		.uleb128 0xb
 6994 183d 18       		.uleb128 0x18
 6995 183e 2E150000 		.4byte	.LASF372
 6996 1842 0F       		.byte	0xf
 6997 1843 3C04     		.2byte	0x43c
 6998 1845 B1000000 		.4byte	0xb1
 6999 1849 02       		.byte	0x2
 7000 184a 23       		.byte	0x23
 7001 184b 0C       		.uleb128 0xc
 7002 184c 18       		.uleb128 0x18
 7003 184d 301F0000 		.4byte	.LASF373
ARM GAS  C:\Users\EBANO_~1\AppData\Local\Temp\ccFRmLE5.s 			page 151


 7004 1851 0F       		.byte	0xf
 7005 1852 4004     		.2byte	0x440
 7006 1854 C1000000 		.4byte	0xc1
 7007 1858 02       		.byte	0x2
 7008 1859 23       		.byte	0x23
 7009 185a 0D       		.uleb128 0xd
 7010 185b 00       		.byte	0
 7011 185c 0C       		.uleb128 0xc
 7012 185d D5200000 		.4byte	.LASF374
 7013 1861 0F       		.byte	0xf
 7014 1862 4104     		.2byte	0x441
 7015 1864 D6170000 		.4byte	0x17d6
 7016 1868 19       		.uleb128 0x19
 7017 1869 71030000 		.4byte	.LASF375
 7018 186d 08       		.byte	0x8
 7019 186e 0F       		.byte	0xf
 7020 186f 4604     		.2byte	0x446
 7021 1871 A3180000 		.4byte	0x18a3
 7022 1875 18       		.uleb128 0x18
 7023 1876 A71E0000 		.4byte	.LASF324
 7024 187a 0F       		.byte	0xf
 7025 187b 4B04     		.2byte	0x44b
 7026 187d B1000000 		.4byte	0xb1
 7027 1881 02       		.byte	0x2
 7028 1882 23       		.byte	0x23
 7029 1883 00       		.uleb128 0
 7030 1884 18       		.uleb128 0x18
 7031 1885 A6020000 		.4byte	.LASF355
 7032 1889 0F       		.byte	0xf
 7033 188a 4F04     		.2byte	0x44f
 7034 188c B1000000 		.4byte	0xb1
 7035 1890 02       		.byte	0x2
 7036 1891 23       		.byte	0x23
 7037 1892 01       		.uleb128 0x1
 7038 1893 18       		.uleb128 0x18
 7039 1894 C91D0000 		.4byte	.LASF209
 7040 1898 0F       		.byte	0xf
 7041 1899 5304     		.2byte	0x453
 7042 189b F2000000 		.4byte	0xf2
 7043 189f 02       		.byte	0x2
 7044 18a0 23       		.byte	0x23
 7045 18a1 04       		.uleb128 0x4
 7046 18a2 00       		.byte	0
 7047 18a3 0C       		.uleb128 0xc
 7048 18a4 EA030000 		.4byte	.LASF376
 7049 18a8 0F       		.byte	0xf
 7050 18a9 5404     		.2byte	0x454
 7051 18ab 68180000 		.4byte	0x1868
 7052 18af 19       		.uleb128 0x19
 7053 18b0 8B0A0000 		.4byte	.LASF377
 7054 18b4 08       		.byte	0x8
 7055 18b5 0F       		.byte	0xf
 7056 18b6 5904     		.2byte	0x459
 7057 18b8 DB180000 		.4byte	0x18db
 7058 18bc 18       		.uleb128 0x18
 7059 18bd 1F1E0000 		.4byte	.LASF378
 7060 18c1 0F       		.byte	0xf
ARM GAS  C:\Users\EBANO_~1\AppData\Local\Temp\ccFRmLE5.s 			page 152


 7061 18c2 5E04     		.2byte	0x45e
 7062 18c4 94110000 		.4byte	0x1194
 7063 18c8 02       		.byte	0x2
 7064 18c9 23       		.byte	0x23
 7065 18ca 00       		.uleb128 0
 7066 18cb 18       		.uleb128 0x18
 7067 18cc 67030000 		.4byte	.LASF379
 7068 18d0 0F       		.byte	0xf
 7069 18d1 6204     		.2byte	0x462
 7070 18d3 B1000000 		.4byte	0xb1
 7071 18d7 02       		.byte	0x2
 7072 18d8 23       		.byte	0x23
 7073 18d9 04       		.uleb128 0x4
 7074 18da 00       		.byte	0
 7075 18db 0C       		.uleb128 0xc
 7076 18dc FE0A0000 		.4byte	.LASF380
 7077 18e0 0F       		.byte	0xf
 7078 18e1 6304     		.2byte	0x463
 7079 18e3 AF180000 		.4byte	0x18af
 7080 18e7 19       		.uleb128 0x19
 7081 18e8 F4120000 		.4byte	.LASF381
 7082 18ec 03       		.byte	0x3
 7083 18ed 0F       		.byte	0xf
 7084 18ee 6804     		.2byte	0x468
 7085 18f0 22190000 		.4byte	0x1922
 7086 18f4 18       		.uleb128 0x18
 7087 18f5 A91A0000 		.4byte	.LASF325
 7088 18f9 0F       		.byte	0xf
 7089 18fa 6D04     		.2byte	0x46d
 7090 18fc C1000000 		.4byte	0xc1
 7091 1900 02       		.byte	0x2
 7092 1901 23       		.byte	0x23
 7093 1902 00       		.uleb128 0
 7094 1903 18       		.uleb128 0x18
 7095 1904 B8130000 		.4byte	.LASF326
 7096 1908 0F       		.byte	0xf
 7097 1909 7104     		.2byte	0x471
 7098 190b C1000000 		.4byte	0xc1
 7099 190f 02       		.byte	0x2
 7100 1910 23       		.byte	0x23
 7101 1911 01       		.uleb128 0x1
 7102 1912 18       		.uleb128 0x18
 7103 1913 74040000 		.4byte	.LASF363
 7104 1917 0F       		.byte	0xf
 7105 1918 7504     		.2byte	0x475
 7106 191a C1000000 		.4byte	0xc1
 7107 191e 02       		.byte	0x2
 7108 191f 23       		.byte	0x23
 7109 1920 02       		.uleb128 0x2
 7110 1921 00       		.byte	0
 7111 1922 0C       		.uleb128 0xc
 7112 1923 0E160000 		.4byte	.LASF382
 7113 1927 0F       		.byte	0xf
 7114 1928 7604     		.2byte	0x476
 7115 192a E7180000 		.4byte	0x18e7
 7116 192e 19       		.uleb128 0x19
 7117 192f C1200000 		.4byte	.LASF383
ARM GAS  C:\Users\EBANO_~1\AppData\Local\Temp\ccFRmLE5.s 			page 153


 7118 1933 08       		.byte	0x8
 7119 1934 0F       		.byte	0xf
 7120 1935 7B04     		.2byte	0x47b
 7121 1937 5A190000 		.4byte	0x195a
 7122 193b 18       		.uleb128 0x18
 7123 193c 67030000 		.4byte	.LASF379
 7124 1940 0F       		.byte	0xf
 7125 1941 8004     		.2byte	0x480
 7126 1943 C1000000 		.4byte	0xc1
 7127 1947 02       		.byte	0x2
 7128 1948 23       		.byte	0x23
 7129 1949 00       		.uleb128 0
 7130 194a 18       		.uleb128 0x18
 7131 194b A9120000 		.4byte	.LASF210
 7132 194f 0F       		.byte	0xf
 7133 1950 8404     		.2byte	0x484
 7134 1952 F2000000 		.4byte	0xf2
 7135 1956 02       		.byte	0x2
 7136 1957 23       		.byte	0x23
 7137 1958 04       		.uleb128 0x4
 7138 1959 00       		.byte	0
 7139 195a 0C       		.uleb128 0xc
 7140 195b 32130000 		.4byte	.LASF384
 7141 195f 0F       		.byte	0xf
 7142 1960 8504     		.2byte	0x485
 7143 1962 2E190000 		.4byte	0x192e
 7144 1966 26       		.uleb128 0x26
 7145 1967 CD080000 		.4byte	.LASF385
 7146 196b 07       		.byte	0x7
 7147 196c 01       		.byte	0x1
 7148 196d 46000000 		.4byte	0x46
 7149 1971 0F       		.byte	0xf
 7150 1972 8A04     		.2byte	0x48a
 7151 1974 85190000 		.4byte	0x1985
 7152 1978 21       		.uleb128 0x21
 7153 1979 8F170000 		.4byte	.LASF386
 7154 197d 00       		.byte	0
 7155 197e 21       		.uleb128 0x21
 7156 197f 13100000 		.4byte	.LASF387
 7157 1983 01       		.byte	0x1
 7158 1984 00       		.byte	0
 7159 1985 0C       		.uleb128 0xc
 7160 1986 321C0000 		.4byte	.LASF388
 7161 198a 0F       		.byte	0xf
 7162 198b 9404     		.2byte	0x494
 7163 198d 66190000 		.4byte	0x1966
 7164 1991 19       		.uleb128 0x19
 7165 1992 37070000 		.4byte	.LASF389
 7166 1996 0C       		.byte	0xc
 7167 1997 0F       		.byte	0xf
 7168 1998 9904     		.2byte	0x499
 7169 199a F9190000 		.4byte	0x19f9
 7170 199e 18       		.uleb128 0x18
 7171 199f A8110000 		.4byte	.LASF330
 7172 19a3 0F       		.byte	0xf
 7173 19a4 9E04     		.2byte	0x49e
 7174 19a6 1A0B0000 		.4byte	0xb1a
ARM GAS  C:\Users\EBANO_~1\AppData\Local\Temp\ccFRmLE5.s 			page 154


 7175 19aa 02       		.byte	0x2
 7176 19ab 23       		.byte	0x23
 7177 19ac 00       		.uleb128 0
 7178 19ad 18       		.uleb128 0x18
 7179 19ae 63220000 		.4byte	.LASF390
 7180 19b2 0F       		.byte	0xf
 7181 19b3 A204     		.2byte	0x4a2
 7182 19b5 1A0B0000 		.4byte	0xb1a
 7183 19b9 02       		.byte	0x2
 7184 19ba 23       		.byte	0x23
 7185 19bb 01       		.uleb128 0x1
 7186 19bc 18       		.uleb128 0x18
 7187 19bd 72140000 		.4byte	.LASF391
 7188 19c1 0F       		.byte	0xf
 7189 19c2 A604     		.2byte	0x4a6
 7190 19c4 1A0B0000 		.4byte	0xb1a
 7191 19c8 02       		.byte	0x2
 7192 19c9 23       		.byte	0x23
 7193 19ca 02       		.uleb128 0x2
 7194 19cb 18       		.uleb128 0x18
 7195 19cc 0C1A0000 		.4byte	.LASF329
 7196 19d0 0F       		.byte	0xf
 7197 19d1 AA04     		.2byte	0x4aa
 7198 19d3 C1000000 		.4byte	0xc1
 7199 19d7 02       		.byte	0x2
 7200 19d8 23       		.byte	0x23
 7201 19d9 03       		.uleb128 0x3
 7202 19da 18       		.uleb128 0x18
 7203 19db E30E0000 		.4byte	.LASF392
 7204 19df 0F       		.byte	0xf
 7205 19e0 AE04     		.2byte	0x4ae
 7206 19e2 9C0A0000 		.4byte	0xa9c
 7207 19e6 02       		.byte	0x2
 7208 19e7 23       		.byte	0x23
 7209 19e8 04       		.uleb128 0x4
 7210 19e9 18       		.uleb128 0x18
 7211 19ea 3A020000 		.4byte	.LASF393
 7212 19ee 0F       		.byte	0xf
 7213 19ef B204     		.2byte	0x4b2
 7214 19f1 9C0A0000 		.4byte	0xa9c
 7215 19f5 02       		.byte	0x2
 7216 19f6 23       		.byte	0x23
 7217 19f7 08       		.uleb128 0x8
 7218 19f8 00       		.byte	0
 7219 19f9 0C       		.uleb128 0xc
 7220 19fa EB160000 		.4byte	.LASF394
 7221 19fe 0F       		.byte	0xf
 7222 19ff B304     		.2byte	0x4b3
 7223 1a01 91190000 		.4byte	0x1991
 7224 1a05 19       		.uleb128 0x19
 7225 1a06 9D200000 		.4byte	.LASF395
 7226 1a0a 0C       		.byte	0xc
 7227 1a0b 0F       		.byte	0xf
 7228 1a0c B804     		.2byte	0x4b8
 7229 1a0e 5E1A0000 		.4byte	0x1a5e
 7230 1a12 18       		.uleb128 0x18
 7231 1a13 F5020000 		.4byte	.LASF396
ARM GAS  C:\Users\EBANO_~1\AppData\Local\Temp\ccFRmLE5.s 			page 155


 7232 1a17 0F       		.byte	0xf
 7233 1a18 BD04     		.2byte	0x4bd
 7234 1a1a 9C0A0000 		.4byte	0xa9c
 7235 1a1e 02       		.byte	0x2
 7236 1a1f 23       		.byte	0x23
 7237 1a20 00       		.uleb128 0
 7238 1a21 18       		.uleb128 0x18
 7239 1a22 60020000 		.4byte	.LASF397
 7240 1a26 0F       		.byte	0xf
 7241 1a27 C104     		.2byte	0x4c1
 7242 1a29 9C0A0000 		.4byte	0xa9c
 7243 1a2d 02       		.byte	0x2
 7244 1a2e 23       		.byte	0x23
 7245 1a2f 04       		.uleb128 0x4
 7246 1a30 18       		.uleb128 0x18
 7247 1a31 A71E0000 		.4byte	.LASF324
 7248 1a35 0F       		.byte	0xf
 7249 1a36 C504     		.2byte	0x4c5
 7250 1a38 B1000000 		.4byte	0xb1
 7251 1a3c 02       		.byte	0x2
 7252 1a3d 23       		.byte	0x23
 7253 1a3e 08       		.uleb128 0x8
 7254 1a3f 18       		.uleb128 0x18
 7255 1a40 A8110000 		.4byte	.LASF330
 7256 1a44 0F       		.byte	0xf
 7257 1a45 C904     		.2byte	0x4c9
 7258 1a47 1A0B0000 		.4byte	0xb1a
 7259 1a4b 02       		.byte	0x2
 7260 1a4c 23       		.byte	0x23
 7261 1a4d 09       		.uleb128 0x9
 7262 1a4e 18       		.uleb128 0x18
 7263 1a4f 72140000 		.4byte	.LASF391
 7264 1a53 0F       		.byte	0xf
 7265 1a54 CD04     		.2byte	0x4cd
 7266 1a56 1A0B0000 		.4byte	0xb1a
 7267 1a5a 02       		.byte	0x2
 7268 1a5b 23       		.byte	0x23
 7269 1a5c 0A       		.uleb128 0xa
 7270 1a5d 00       		.byte	0
 7271 1a5e 0C       		.uleb128 0xc
 7272 1a5f 6B020000 		.4byte	.LASF398
 7273 1a63 0F       		.byte	0xf
 7274 1a64 CE04     		.2byte	0x4ce
 7275 1a66 051A0000 		.4byte	0x1a05
 7276 1a6a 19       		.uleb128 0x19
 7277 1a6b EC050000 		.4byte	.LASF399
 7278 1a6f 08       		.byte	0x8
 7279 1a70 0F       		.byte	0xf
 7280 1a71 D304     		.2byte	0x4d3
 7281 1a73 961A0000 		.4byte	0x1a96
 7282 1a77 18       		.uleb128 0x18
 7283 1a78 1F1E0000 		.4byte	.LASF378
 7284 1a7c 0F       		.byte	0xf
 7285 1a7d D804     		.2byte	0x4d8
 7286 1a7f 94110000 		.4byte	0x1194
 7287 1a83 02       		.byte	0x2
 7288 1a84 23       		.byte	0x23
ARM GAS  C:\Users\EBANO_~1\AppData\Local\Temp\ccFRmLE5.s 			page 156


 7289 1a85 00       		.uleb128 0
 7290 1a86 18       		.uleb128 0x18
 7291 1a87 67030000 		.4byte	.LASF379
 7292 1a8b 0F       		.byte	0xf
 7293 1a8c DC04     		.2byte	0x4dc
 7294 1a8e C1000000 		.4byte	0xc1
 7295 1a92 02       		.byte	0x2
 7296 1a93 23       		.byte	0x23
 7297 1a94 04       		.uleb128 0x4
 7298 1a95 00       		.byte	0
 7299 1a96 0C       		.uleb128 0xc
 7300 1a97 54130000 		.4byte	.LASF400
 7301 1a9b 0F       		.byte	0xf
 7302 1a9c DD04     		.2byte	0x4dd
 7303 1a9e 6A1A0000 		.4byte	0x1a6a
 7304 1aa2 19       		.uleb128 0x19
 7305 1aa3 411D0000 		.4byte	.LASF401
 7306 1aa7 01       		.byte	0x1
 7307 1aa8 0F       		.byte	0xf
 7308 1aa9 E204     		.2byte	0x4e2
 7309 1aab BF1A0000 		.4byte	0x1abf
 7310 1aaf 18       		.uleb128 0x18
 7311 1ab0 67030000 		.4byte	.LASF379
 7312 1ab4 0F       		.byte	0xf
 7313 1ab5 E704     		.2byte	0x4e7
 7314 1ab7 C1000000 		.4byte	0xc1
 7315 1abb 02       		.byte	0x2
 7316 1abc 23       		.byte	0x23
 7317 1abd 00       		.uleb128 0
 7318 1abe 00       		.byte	0
 7319 1abf 0C       		.uleb128 0xc
 7320 1ac0 36090000 		.4byte	.LASF402
 7321 1ac4 0F       		.byte	0xf
 7322 1ac5 E804     		.2byte	0x4e8
 7323 1ac7 A21A0000 		.4byte	0x1aa2
 7324 1acb 19       		.uleb128 0x19
 7325 1acc 781D0000 		.4byte	.LASF403
 7326 1ad0 10       		.byte	0x10
 7327 1ad1 0F       		.byte	0xf
 7328 1ad2 ED04     		.2byte	0x4ed
 7329 1ad4 331B0000 		.4byte	0x1b33
 7330 1ad8 18       		.uleb128 0x18
 7331 1ad9 0C1A0000 		.4byte	.LASF329
 7332 1add 0F       		.byte	0xf
 7333 1ade F204     		.2byte	0x4f2
 7334 1ae0 C1000000 		.4byte	0xc1
 7335 1ae4 02       		.byte	0x2
 7336 1ae5 23       		.byte	0x23
 7337 1ae6 00       		.uleb128 0
 7338 1ae7 18       		.uleb128 0x18
 7339 1ae8 A71E0000 		.4byte	.LASF324
 7340 1aec 0F       		.byte	0xf
 7341 1aed F604     		.2byte	0x4f6
 7342 1aef B1000000 		.4byte	0xb1
 7343 1af3 02       		.byte	0x2
 7344 1af4 23       		.byte	0x23
 7345 1af5 01       		.uleb128 0x1
ARM GAS  C:\Users\EBANO_~1\AppData\Local\Temp\ccFRmLE5.s 			page 157


 7346 1af6 18       		.uleb128 0x18
 7347 1af7 2D1B0000 		.4byte	.LASF341
 7348 1afb 0F       		.byte	0xf
 7349 1afc FA04     		.2byte	0x4fa
 7350 1afe B1000000 		.4byte	0xb1
 7351 1b02 02       		.byte	0x2
 7352 1b03 23       		.byte	0x23
 7353 1b04 02       		.uleb128 0x2
 7354 1b05 18       		.uleb128 0x18
 7355 1b06 74040000 		.4byte	.LASF363
 7356 1b0a 0F       		.byte	0xf
 7357 1b0b FE04     		.2byte	0x4fe
 7358 1b0d 8D110000 		.4byte	0x118d
 7359 1b11 02       		.byte	0x2
 7360 1b12 23       		.byte	0x23
 7361 1b13 04       		.uleb128 0x4
 7362 1b14 18       		.uleb128 0x18
 7363 1b15 05140000 		.4byte	.LASF364
 7364 1b19 0F       		.byte	0xf
 7365 1b1a 0205     		.2byte	0x502
 7366 1b1c 8D110000 		.4byte	0x118d
 7367 1b20 02       		.byte	0x2
 7368 1b21 23       		.byte	0x23
 7369 1b22 08       		.uleb128 0x8
 7370 1b23 18       		.uleb128 0x18
 7371 1b24 4B0B0000 		.4byte	.LASF404
 7372 1b28 0F       		.byte	0xf
 7373 1b29 0605     		.2byte	0x506
 7374 1b2b DC000000 		.4byte	0xdc
 7375 1b2f 02       		.byte	0x2
 7376 1b30 23       		.byte	0x23
 7377 1b31 0C       		.uleb128 0xc
 7378 1b32 00       		.byte	0
 7379 1b33 0C       		.uleb128 0xc
 7380 1b34 AB150000 		.4byte	.LASF405
 7381 1b38 0F       		.byte	0xf
 7382 1b39 0705     		.2byte	0x507
 7383 1b3b CB1A0000 		.4byte	0x1acb
 7384 1b3f 19       		.uleb128 0x19
 7385 1b40 C6060000 		.4byte	.LASF406
 7386 1b44 0C       		.byte	0xc
 7387 1b45 0F       		.byte	0xf
 7388 1b46 0C05     		.2byte	0x50c
 7389 1b48 7A1B0000 		.4byte	0x1b7a
 7390 1b4c 18       		.uleb128 0x18
 7391 1b4d F81D0000 		.4byte	.LASF407
 7392 1b51 0F       		.byte	0xf
 7393 1b52 1105     		.2byte	0x511
 7394 1b54 DC000000 		.4byte	0xdc
 7395 1b58 02       		.byte	0x2
 7396 1b59 23       		.byte	0x23
 7397 1b5a 00       		.uleb128 0
 7398 1b5b 18       		.uleb128 0x18
 7399 1b5c 730F0000 		.4byte	.LASF408
 7400 1b60 0F       		.byte	0xf
 7401 1b61 1505     		.2byte	0x515
 7402 1b63 F2000000 		.4byte	0xf2
ARM GAS  C:\Users\EBANO_~1\AppData\Local\Temp\ccFRmLE5.s 			page 158


 7403 1b67 02       		.byte	0x2
 7404 1b68 23       		.byte	0x23
 7405 1b69 04       		.uleb128 0x4
 7406 1b6a 18       		.uleb128 0x18
 7407 1b6b C91D0000 		.4byte	.LASF209
 7408 1b6f 0F       		.byte	0xf
 7409 1b70 1905     		.2byte	0x519
 7410 1b72 F2000000 		.4byte	0xf2
 7411 1b76 02       		.byte	0x2
 7412 1b77 23       		.byte	0x23
 7413 1b78 08       		.uleb128 0x8
 7414 1b79 00       		.byte	0
 7415 1b7a 0C       		.uleb128 0xc
 7416 1b7b 51200000 		.4byte	.LASF409
 7417 1b7f 0F       		.byte	0xf
 7418 1b80 1A05     		.2byte	0x51a
 7419 1b82 3F1B0000 		.4byte	0x1b3f
 7420 1b86 11       		.uleb128 0x11
 7421 1b87 C11B0000 		.4byte	.LASF410
 7422 1b8b 06       		.byte	0x6
 7423 1b8c 10       		.byte	0x10
 7424 1b8d 2B       		.byte	0x2b
 7425 1b8e D91B0000 		.4byte	0x1bd9
 7426 1b92 10       		.uleb128 0x10
 7427 1b93 3C050000 		.4byte	.LASF411
 7428 1b97 10       		.byte	0x10
 7429 1b98 30       		.byte	0x30
 7430 1b99 C1000000 		.4byte	0xc1
 7431 1b9d 02       		.byte	0x2
 7432 1b9e 23       		.byte	0x23
 7433 1b9f 00       		.uleb128 0
 7434 1ba0 10       		.uleb128 0x10
 7435 1ba1 A71E0000 		.4byte	.LASF324
 7436 1ba5 10       		.byte	0x10
 7437 1ba6 34       		.byte	0x34
 7438 1ba7 B1000000 		.4byte	0xb1
 7439 1bab 02       		.byte	0x2
 7440 1bac 23       		.byte	0x23
 7441 1bad 01       		.uleb128 0x1
 7442 1bae 10       		.uleb128 0x10
 7443 1baf 2D1B0000 		.4byte	.LASF341
 7444 1bb3 10       		.byte	0x10
 7445 1bb4 38       		.byte	0x38
 7446 1bb5 B1000000 		.4byte	0xb1
 7447 1bb9 02       		.byte	0x2
 7448 1bba 23       		.byte	0x23
 7449 1bbb 02       		.uleb128 0x2
 7450 1bbc 10       		.uleb128 0x10
 7451 1bbd E5080000 		.4byte	.LASF412
 7452 1bc1 10       		.byte	0x10
 7453 1bc2 3C       		.byte	0x3c
 7454 1bc3 C1000000 		.4byte	0xc1
 7455 1bc7 02       		.byte	0x2
 7456 1bc8 23       		.byte	0x23
 7457 1bc9 03       		.uleb128 0x3
 7458 1bca 10       		.uleb128 0x10
 7459 1bcb 5B0E0000 		.4byte	.LASF413
ARM GAS  C:\Users\EBANO_~1\AppData\Local\Temp\ccFRmLE5.s 			page 159


 7460 1bcf 10       		.byte	0x10
 7461 1bd0 40       		.byte	0x40
 7462 1bd1 DC000000 		.4byte	0xdc
 7463 1bd5 02       		.byte	0x2
 7464 1bd6 23       		.byte	0x23
 7465 1bd7 04       		.uleb128 0x4
 7466 1bd8 00       		.byte	0
 7467 1bd9 03       		.uleb128 0x3
 7468 1bda A60C0000 		.4byte	.LASF414
 7469 1bde 10       		.byte	0x10
 7470 1bdf 41       		.byte	0x41
 7471 1be0 861B0000 		.4byte	0x1b86
 7472 1be4 11       		.uleb128 0x11
 7473 1be5 27000000 		.4byte	.LASF415
 7474 1be9 20       		.byte	0x20
 7475 1bea 10       		.byte	0x10
 7476 1beb 43       		.byte	0x43
 7477 1bec D11C0000 		.4byte	0x1cd1
 7478 1bf0 10       		.uleb128 0x10
 7479 1bf1 BE080000 		.4byte	.LASF368
 7480 1bf5 10       		.byte	0x10
 7481 1bf6 48       		.byte	0x48
 7482 1bf7 0F0B0000 		.4byte	0xb0f
 7483 1bfb 02       		.byte	0x2
 7484 1bfc 23       		.byte	0x23
 7485 1bfd 00       		.uleb128 0
 7486 1bfe 10       		.uleb128 0x10
 7487 1bff A4150000 		.4byte	.LASF416
 7488 1c03 10       		.byte	0x10
 7489 1c04 4C       		.byte	0x4c
 7490 1c05 C1000000 		.4byte	0xc1
 7491 1c09 02       		.byte	0x2
 7492 1c0a 23       		.byte	0x23
 7493 1c0b 04       		.uleb128 0x4
 7494 1c0c 10       		.uleb128 0x10
 7495 1c0d 1B020000 		.4byte	.LASF370
 7496 1c11 10       		.byte	0x10
 7497 1c12 50       		.byte	0x50
 7498 1c13 1A0B0000 		.4byte	0xb1a
 7499 1c17 02       		.byte	0x2
 7500 1c18 23       		.byte	0x23
 7501 1c19 05       		.uleb128 0x5
 7502 1c1a 10       		.uleb128 0x10
 7503 1c1b A71E0000 		.4byte	.LASF324
 7504 1c1f 10       		.byte	0x10
 7505 1c20 54       		.byte	0x54
 7506 1c21 B1000000 		.4byte	0xb1
 7507 1c25 02       		.byte	0x2
 7508 1c26 23       		.byte	0x23
 7509 1c27 06       		.uleb128 0x6
 7510 1c28 10       		.uleb128 0x10
 7511 1c29 2D1B0000 		.4byte	.LASF341
 7512 1c2d 10       		.byte	0x10
 7513 1c2e 58       		.byte	0x58
 7514 1c2f B1000000 		.4byte	0xb1
 7515 1c33 02       		.byte	0x2
 7516 1c34 23       		.byte	0x23
ARM GAS  C:\Users\EBANO_~1\AppData\Local\Temp\ccFRmLE5.s 			page 160


 7517 1c35 07       		.uleb128 0x7
 7518 1c36 10       		.uleb128 0x10
 7519 1c37 3C050000 		.4byte	.LASF411
 7520 1c3b 10       		.byte	0x10
 7521 1c3c 5C       		.byte	0x5c
 7522 1c3d C1000000 		.4byte	0xc1
 7523 1c41 02       		.byte	0x2
 7524 1c42 23       		.byte	0x23
 7525 1c43 08       		.uleb128 0x8
 7526 1c44 10       		.uleb128 0x10
 7527 1c45 6A0B0000 		.4byte	.LASF371
 7528 1c49 10       		.byte	0x10
 7529 1c4a 60       		.byte	0x60
 7530 1c4b B1000000 		.4byte	0xb1
 7531 1c4f 02       		.byte	0x2
 7532 1c50 23       		.byte	0x23
 7533 1c51 09       		.uleb128 0x9
 7534 1c52 10       		.uleb128 0x10
 7535 1c53 2E150000 		.4byte	.LASF372
 7536 1c57 10       		.byte	0x10
 7537 1c58 64       		.byte	0x64
 7538 1c59 B1000000 		.4byte	0xb1
 7539 1c5d 02       		.byte	0x2
 7540 1c5e 23       		.byte	0x23
 7541 1c5f 0A       		.uleb128 0xa
 7542 1c60 10       		.uleb128 0x10
 7543 1c61 301F0000 		.4byte	.LASF373
 7544 1c65 10       		.byte	0x10
 7545 1c66 68       		.byte	0x68
 7546 1c67 B1000000 		.4byte	0xb1
 7547 1c6b 02       		.byte	0x2
 7548 1c6c 23       		.byte	0x23
 7549 1c6d 0B       		.uleb128 0xb
 7550 1c6e 10       		.uleb128 0x10
 7551 1c6f D70C0000 		.4byte	.LASF417
 7552 1c73 10       		.byte	0x10
 7553 1c74 6C       		.byte	0x6c
 7554 1c75 C1000000 		.4byte	0xc1
 7555 1c79 02       		.byte	0x2
 7556 1c7a 23       		.byte	0x23
 7557 1c7b 0C       		.uleb128 0xc
 7558 1c7c 10       		.uleb128 0x10
 7559 1c7d 7C1E0000 		.4byte	.LASF318
 7560 1c81 10       		.byte	0x10
 7561 1c82 70       		.byte	0x70
 7562 1c83 9A110000 		.4byte	0x119a
 7563 1c87 02       		.byte	0x2
 7564 1c88 23       		.byte	0x23
 7565 1c89 10       		.uleb128 0x10
 7566 1c8a 10       		.uleb128 0x10
 7567 1c8b AD040000 		.4byte	.LASF418
 7568 1c8f 10       		.byte	0x10
 7569 1c90 74       		.byte	0x74
 7570 1c91 B1000000 		.4byte	0xb1
 7571 1c95 02       		.byte	0x2
 7572 1c96 23       		.byte	0x23
 7573 1c97 14       		.uleb128 0x14
ARM GAS  C:\Users\EBANO_~1\AppData\Local\Temp\ccFRmLE5.s 			page 161


 7574 1c98 10       		.uleb128 0x10
 7575 1c99 2A090000 		.4byte	.LASF419
 7576 1c9d 10       		.byte	0x10
 7577 1c9e 78       		.byte	0x78
 7578 1c9f B1000000 		.4byte	0xb1
 7579 1ca3 02       		.byte	0x2
 7580 1ca4 23       		.byte	0x23
 7581 1ca5 15       		.uleb128 0x15
 7582 1ca6 10       		.uleb128 0x10
 7583 1ca7 0E0E0000 		.4byte	.LASF319
 7584 1cab 10       		.byte	0x10
 7585 1cac 7C       		.byte	0x7c
 7586 1cad 94110000 		.4byte	0x1194
 7587 1cb1 02       		.byte	0x2
 7588 1cb2 23       		.byte	0x23
 7589 1cb3 18       		.uleb128 0x18
 7590 1cb4 10       		.uleb128 0x10
 7591 1cb5 D5020000 		.4byte	.LASF420
 7592 1cb9 10       		.byte	0x10
 7593 1cba 80       		.byte	0x80
 7594 1cbb B1000000 		.4byte	0xb1
 7595 1cbf 02       		.byte	0x2
 7596 1cc0 23       		.byte	0x23
 7597 1cc1 1C       		.uleb128 0x1c
 7598 1cc2 10       		.uleb128 0x10
 7599 1cc3 75050000 		.4byte	.LASF421
 7600 1cc7 10       		.byte	0x10
 7601 1cc8 84       		.byte	0x84
 7602 1cc9 B1000000 		.4byte	0xb1
 7603 1ccd 02       		.byte	0x2
 7604 1cce 23       		.byte	0x23
 7605 1ccf 1D       		.uleb128 0x1d
 7606 1cd0 00       		.byte	0
 7607 1cd1 03       		.uleb128 0x3
 7608 1cd2 09150000 		.4byte	.LASF422
 7609 1cd6 10       		.byte	0x10
 7610 1cd7 85       		.byte	0x85
 7611 1cd8 E41B0000 		.4byte	0x1be4
 7612 1cdc 11       		.uleb128 0x11
 7613 1cdd 16190000 		.4byte	.LASF423
 7614 1ce1 14       		.byte	0x14
 7615 1ce2 10       		.byte	0x10
 7616 1ce3 87       		.byte	0x87
 7617 1ce4 591D0000 		.4byte	0x1d59
 7618 1ce8 10       		.uleb128 0x10
 7619 1ce9 0E0E0000 		.4byte	.LASF319
 7620 1ced 10       		.byte	0x10
 7621 1cee 8C       		.byte	0x8c
 7622 1cef 94110000 		.4byte	0x1194
 7623 1cf3 02       		.byte	0x2
 7624 1cf4 23       		.byte	0x23
 7625 1cf5 00       		.uleb128 0
 7626 1cf6 10       		.uleb128 0x10
 7627 1cf7 3D150000 		.4byte	.LASF424
 7628 1cfb 10       		.byte	0x10
 7629 1cfc 90       		.byte	0x90
 7630 1cfd 591D0000 		.4byte	0x1d59
ARM GAS  C:\Users\EBANO_~1\AppData\Local\Temp\ccFRmLE5.s 			page 162


 7631 1d01 02       		.byte	0x2
 7632 1d02 23       		.byte	0x23
 7633 1d03 04       		.uleb128 0x4
 7634 1d04 10       		.uleb128 0x10
 7635 1d05 63220000 		.4byte	.LASF390
 7636 1d09 10       		.byte	0x10
 7637 1d0a 94       		.byte	0x94
 7638 1d0b 1A0B0000 		.4byte	0xb1a
 7639 1d0f 02       		.byte	0x2
 7640 1d10 23       		.byte	0x23
 7641 1d11 08       		.uleb128 0x8
 7642 1d12 10       		.uleb128 0x10
 7643 1d13 A8110000 		.4byte	.LASF330
 7644 1d17 10       		.byte	0x10
 7645 1d18 98       		.byte	0x98
 7646 1d19 1A0B0000 		.4byte	0xb1a
 7647 1d1d 02       		.byte	0x2
 7648 1d1e 23       		.byte	0x23
 7649 1d1f 09       		.uleb128 0x9
 7650 1d20 10       		.uleb128 0x10
 7651 1d21 72140000 		.4byte	.LASF391
 7652 1d25 10       		.byte	0x10
 7653 1d26 9C       		.byte	0x9c
 7654 1d27 1A0B0000 		.4byte	0xb1a
 7655 1d2b 02       		.byte	0x2
 7656 1d2c 23       		.byte	0x23
 7657 1d2d 0A       		.uleb128 0xa
 7658 1d2e 10       		.uleb128 0x10
 7659 1d2f 0C1A0000 		.4byte	.LASF329
 7660 1d33 10       		.byte	0x10
 7661 1d34 A0       		.byte	0xa0
 7662 1d35 C1000000 		.4byte	0xc1
 7663 1d39 02       		.byte	0x2
 7664 1d3a 23       		.byte	0x23
 7665 1d3b 0B       		.uleb128 0xb
 7666 1d3c 10       		.uleb128 0x10
 7667 1d3d E30E0000 		.4byte	.LASF392
 7668 1d41 10       		.byte	0x10
 7669 1d42 A4       		.byte	0xa4
 7670 1d43 9C0A0000 		.4byte	0xa9c
 7671 1d47 02       		.byte	0x2
 7672 1d48 23       		.byte	0x23
 7673 1d49 0C       		.uleb128 0xc
 7674 1d4a 10       		.uleb128 0x10
 7675 1d4b 3A020000 		.4byte	.LASF393
 7676 1d4f 10       		.byte	0x10
 7677 1d50 A8       		.byte	0xa8
 7678 1d51 9C0A0000 		.4byte	0xa9c
 7679 1d55 02       		.byte	0x2
 7680 1d56 23       		.byte	0x23
 7681 1d57 10       		.uleb128 0x10
 7682 1d58 00       		.byte	0
 7683 1d59 0A       		.uleb128 0xa
 7684 1d5a 04       		.byte	0x4
 7685 1d5b 7A0B0000 		.4byte	0xb7a
 7686 1d5f 03       		.uleb128 0x3
 7687 1d60 FF1B0000 		.4byte	.LASF425
ARM GAS  C:\Users\EBANO_~1\AppData\Local\Temp\ccFRmLE5.s 			page 163


 7688 1d64 10       		.byte	0x10
 7689 1d65 A9       		.byte	0xa9
 7690 1d66 DC1C0000 		.4byte	0x1cdc
 7691 1d6a 11       		.uleb128 0x11
 7692 1d6b 34040000 		.4byte	.LASF426
 7693 1d6f 14       		.byte	0x14
 7694 1d70 10       		.byte	0x10
 7695 1d71 AB       		.byte	0xab
 7696 1d72 D91D0000 		.4byte	0x1dd9
 7697 1d76 10       		.uleb128 0x10
 7698 1d77 BB000000 		.4byte	.LASF427
 7699 1d7b 10       		.byte	0x10
 7700 1d7c B0       		.byte	0xb0
 7701 1d7d D91D0000 		.4byte	0x1dd9
 7702 1d81 02       		.byte	0x2
 7703 1d82 23       		.byte	0x23
 7704 1d83 00       		.uleb128 0
 7705 1d84 10       		.uleb128 0x10
 7706 1d85 C91D0000 		.4byte	.LASF209
 7707 1d89 10       		.byte	0x10
 7708 1d8a B4       		.byte	0xb4
 7709 1d8b F2000000 		.4byte	0xf2
 7710 1d8f 02       		.byte	0x2
 7711 1d90 23       		.byte	0x23
 7712 1d91 04       		.uleb128 0x4
 7713 1d92 10       		.uleb128 0x10
 7714 1d93 55040000 		.4byte	.LASF312
 7715 1d97 10       		.byte	0x10
 7716 1d98 B8       		.byte	0xb8
 7717 1d99 C1000000 		.4byte	0xc1
 7718 1d9d 02       		.byte	0x2
 7719 1d9e 23       		.byte	0x23
 7720 1d9f 08       		.uleb128 0x8
 7721 1da0 10       		.uleb128 0x10
 7722 1da1 14070000 		.4byte	.LASF428
 7723 1da5 10       		.byte	0x10
 7724 1da6 BC       		.byte	0xbc
 7725 1da7 C1000000 		.4byte	0xc1
 7726 1dab 02       		.byte	0x2
 7727 1dac 23       		.byte	0x23
 7728 1dad 09       		.uleb128 0x9
 7729 1dae 10       		.uleb128 0x10
 7730 1daf 90130000 		.4byte	.LASF429
 7731 1db3 10       		.byte	0x10
 7732 1db4 C0       		.byte	0xc0
 7733 1db5 C1000000 		.4byte	0xc1
 7734 1db9 02       		.byte	0x2
 7735 1dba 23       		.byte	0x23
 7736 1dbb 0A       		.uleb128 0xa
 7737 1dbc 10       		.uleb128 0x10
 7738 1dbd 730F0000 		.4byte	.LASF408
 7739 1dc1 10       		.byte	0x10
 7740 1dc2 C4       		.byte	0xc4
 7741 1dc3 F2000000 		.4byte	0xf2
 7742 1dc7 02       		.byte	0x2
 7743 1dc8 23       		.byte	0x23
 7744 1dc9 0C       		.uleb128 0xc
ARM GAS  C:\Users\EBANO_~1\AppData\Local\Temp\ccFRmLE5.s 			page 164


 7745 1dca 10       		.uleb128 0x10
 7746 1dcb F81D0000 		.4byte	.LASF407
 7747 1dcf 10       		.byte	0x10
 7748 1dd0 C8       		.byte	0xc8
 7749 1dd1 DC000000 		.4byte	0xdc
 7750 1dd5 02       		.byte	0x2
 7751 1dd6 23       		.byte	0x23
 7752 1dd7 10       		.uleb128 0x10
 7753 1dd8 00       		.byte	0
 7754 1dd9 0A       		.uleb128 0xa
 7755 1dda 04       		.byte	0x4
 7756 1ddb CC000000 		.4byte	0xcc
 7757 1ddf 03       		.uleb128 0x3
 7758 1de0 7C010000 		.4byte	.LASF430
 7759 1de4 10       		.byte	0x10
 7760 1de5 C9       		.byte	0xc9
 7761 1de6 6A1D0000 		.4byte	0x1d6a
 7762 1dea 29       		.uleb128 0x29
 7763 1deb 441C0000 		.4byte	.LASF432
 7764 1def 11       		.byte	0x11
 7765 1df0 F9       		.byte	0xf9
 7766 1df1 1F010000 		.4byte	0x11f
 7767 1df5 05       		.byte	0x5
 7768 1df6 03       		.byte	0x3
 7769 1df7 2C010000 		.4byte	DataratesUS915
 7770 1dfb 07       		.uleb128 0x7
 7771 1dfc FD000000 		.4byte	0xfd
 7772 1e00 0B1E0000 		.4byte	0x1e0b
 7773 1e04 08       		.uleb128 0x8
 7774 1e05 AA000000 		.4byte	0xaa
 7775 1e09 0F       		.byte	0xf
 7776 1e0a 00       		.byte	0
 7777 1e0b 05       		.uleb128 0x5
 7778 1e0c FB1D0000 		.4byte	0x1dfb
 7779 1e10 29       		.uleb128 0x29
 7780 1e11 EB140000 		.4byte	.LASF433
 7781 1e15 11       		.byte	0x11
 7782 1e16 FE       		.byte	0xfe
 7783 1e17 0B1E0000 		.4byte	0x1e0b
 7784 1e1b 05       		.byte	0x5
 7785 1e1c 03       		.byte	0x3
 7786 1e1d EC000000 		.4byte	BandwidthsUS915
 7787 1e21 07       		.uleb128 0x7
 7788 1e22 BC000000 		.4byte	0xbc
 7789 1e26 371E0000 		.4byte	0x1e37
 7790 1e2a 08       		.uleb128 0x8
 7791 1e2b AA000000 		.4byte	0xaa
 7792 1e2f 04       		.byte	0x4
 7793 1e30 08       		.uleb128 0x8
 7794 1e31 AA000000 		.4byte	0xaa
 7795 1e35 03       		.byte	0x3
 7796 1e36 00       		.byte	0
 7797 1e37 05       		.uleb128 0x5
 7798 1e38 211E0000 		.4byte	0x1e21
 7799 1e3c 2A       		.uleb128 0x2a
 7800 1e3d 1D130000 		.4byte	.LASF434
 7801 1e41 11       		.byte	0x11
ARM GAS  C:\Users\EBANO_~1\AppData\Local\Temp\ccFRmLE5.s 			page 165


 7802 1e42 0301     		.2byte	0x103
 7803 1e44 371E0000 		.4byte	0x1e37
 7804 1e48 05       		.byte	0x5
 7805 1e49 03       		.byte	0x3
 7806 1e4a 3C010000 		.4byte	DatarateOffsetsUS915
 7807 1e4e 2A       		.uleb128 0x2a
 7808 1e4f D7180000 		.4byte	.LASF435
 7809 1e53 11       		.byte	0x11
 7810 1e54 0F01     		.2byte	0x10f
 7811 1e56 1F010000 		.4byte	0x11f
 7812 1e5a 05       		.byte	0x5
 7813 1e5b 03       		.byte	0x3
 7814 1e5c 50010000 		.4byte	MaxPayloadOfDatarateUS915
 7815 1e60 2A       		.uleb128 0x2a
 7816 1e61 8B040000 		.4byte	.LASF436
 7817 1e65 11       		.byte	0x11
 7818 1e66 1401     		.2byte	0x114
 7819 1e68 1F010000 		.4byte	0x11f
 7820 1e6c 05       		.byte	0x5
 7821 1e6d 03       		.byte	0x3
 7822 1e6e 60010000 		.4byte	MaxPayloadOfDatarateRepeaterUS915
 7823 1e72 13       		.uleb128 0x13
 7824 1e73 14000000 		.4byte	.LASF437
 7825 1e77 9803     		.2byte	0x398
 7826 1e79 01       		.byte	0x1
 7827 1e7a 2E       		.byte	0x2e
 7828 1e7b E81E0000 		.4byte	0x1ee8
 7829 1e7f 10       		.uleb128 0x10
 7830 1e80 0E0E0000 		.4byte	.LASF319
 7831 1e84 01       		.byte	0x1
 7832 1e85 33       		.byte	0x33
 7833 1e86 E81E0000 		.4byte	0x1ee8
 7834 1e8a 02       		.byte	0x2
 7835 1e8b 23       		.byte	0x23
 7836 1e8c 00       		.uleb128 0
 7837 1e8d 10       		.uleb128 0x10
 7838 1e8e 3D150000 		.4byte	.LASF424
 7839 1e92 01       		.byte	0x1
 7840 1e93 37       		.byte	0x37
 7841 1e94 F81E0000 		.4byte	0x1ef8
 7842 1e98 03       		.byte	0x3
 7843 1e99 23       		.byte	0x23
 7844 1e9a E006     		.uleb128 0x360
 7845 1e9c 10       		.uleb128 0x10
 7846 1e9d 7C1E0000 		.4byte	.LASF318
 7847 1ea1 01       		.byte	0x1
 7848 1ea2 3B       		.byte	0x3b
 7849 1ea3 081F0000 		.4byte	0x1f08
 7850 1ea7 03       		.byte	0x3
 7851 1ea8 23       		.byte	0x23
 7852 1ea9 F006     		.uleb128 0x370
 7853 1eab 10       		.uleb128 0x10
 7854 1eac 5C110000 		.4byte	.LASF438
 7855 1eb0 01       		.byte	0x1
 7856 1eb1 3F       		.byte	0x3f
 7857 1eb2 081F0000 		.4byte	0x1f08
 7858 1eb6 03       		.byte	0x3
ARM GAS  C:\Users\EBANO_~1\AppData\Local\Temp\ccFRmLE5.s 			page 166


 7859 1eb7 23       		.byte	0x23
 7860 1eb8 FC06     		.uleb128 0x37c
 7861 1eba 10       		.uleb128 0x10
 7862 1ebb 38160000 		.4byte	.LASF439
 7863 1ebf 01       		.byte	0x1
 7864 1ec0 43       		.byte	0x43
 7865 1ec1 081F0000 		.4byte	0x1f08
 7866 1ec5 03       		.byte	0x3
 7867 1ec6 23       		.byte	0x23
 7868 1ec7 8807     		.uleb128 0x388
 7869 1ec9 10       		.uleb128 0x10
 7870 1eca 02040000 		.4byte	.LASF440
 7871 1ece 01       		.byte	0x1
 7872 1ecf 47       		.byte	0x47
 7873 1ed0 C1000000 		.4byte	0xc1
 7874 1ed4 03       		.byte	0x3
 7875 1ed5 23       		.byte	0x23
 7876 1ed6 9407     		.uleb128 0x394
 7877 1ed8 10       		.uleb128 0x10
 7878 1ed9 1C0D0000 		.4byte	.LASF441
 7879 1edd 01       		.byte	0x1
 7880 1ede 4B       		.byte	0x4b
 7881 1edf C1000000 		.4byte	0xc1
 7882 1ee3 03       		.byte	0x3
 7883 1ee4 23       		.byte	0x23
 7884 1ee5 9507     		.uleb128 0x395
 7885 1ee7 00       		.byte	0
 7886 1ee8 07       		.uleb128 0x7
 7887 1ee9 46110000 		.4byte	0x1146
 7888 1eed F81E0000 		.4byte	0x1ef8
 7889 1ef1 08       		.uleb128 0x8
 7890 1ef2 AA000000 		.4byte	0xaa
 7891 1ef6 47       		.byte	0x47
 7892 1ef7 00       		.byte	0
 7893 1ef8 07       		.uleb128 0x7
 7894 1ef9 7A0B0000 		.4byte	0xb7a
 7895 1efd 081F0000 		.4byte	0x1f08
 7896 1f01 08       		.uleb128 0x8
 7897 1f02 AA000000 		.4byte	0xaa
 7898 1f06 00       		.byte	0
 7899 1f07 00       		.byte	0
 7900 1f08 07       		.uleb128 0x7
 7901 1f09 DC000000 		.4byte	0xdc
 7902 1f0d 181F0000 		.4byte	0x1f18
 7903 1f11 08       		.uleb128 0x8
 7904 1f12 AA000000 		.4byte	0xaa
 7905 1f16 05       		.byte	0x5
 7906 1f17 00       		.byte	0
 7907 1f18 03       		.uleb128 0x3
 7908 1f19 C3180000 		.4byte	.LASF442
 7909 1f1d 01       		.byte	0x1
 7910 1f1e 4C       		.byte	0x4c
 7911 1f1f 721E0000 		.4byte	0x1e72
 7912 1f23 29       		.uleb128 0x29
 7913 1f24 4A200000 		.4byte	.LASF333
 7914 1f28 01       		.byte	0x1
 7915 1f29 51       		.byte	0x51
ARM GAS  C:\Users\EBANO_~1\AppData\Local\Temp\ccFRmLE5.s 			page 167


 7916 1f2a 181F0000 		.4byte	0x1f18
 7917 1f2e 05       		.byte	0x5
 7918 1f2f 03       		.byte	0x3
 7919 1f30 00000000 		.4byte	NvmCtx
 7920 1f34 2B       		.uleb128 0x2b
 7921 1f35 01       		.byte	0x1
 7922 1f36 151D0000 		.4byte	.LASF449
 7923 1f3a 01       		.byte	0x1
 7924 1f3b 6304     		.2byte	0x463
 7925 1f3d 01       		.byte	0x1
 7926 1f3e 00000000 		.4byte	.LFB68
 7927 1f42 38000000 		.4byte	.LFE68
 7928 1f46 00000000 		.4byte	.LLST112
 7929 1f4a 01       		.byte	0x1
 7930 1f4b 8F1F0000 		.4byte	0x1f8f
 7931 1f4f 2C       		.uleb128 0x2c
 7932 1f50 331D0000 		.4byte	.LASF443
 7933 1f54 01       		.byte	0x1
 7934 1f55 6304     		.2byte	0x463
 7935 1f57 8F1F0000 		.4byte	0x1f8f
 7936 1f5b 2C000000 		.4byte	.LLST113
 7937 1f5f 2C       		.uleb128 0x2c
 7938 1f60 940E0000 		.4byte	.LASF444
 7939 1f64 01       		.byte	0x1
 7940 1f65 6304     		.2byte	0x463
 7941 1f67 890A0000 		.4byte	0xa89
 7942 1f6b 4D000000 		.4byte	.LLST114
 7943 1f6f 2A       		.uleb128 0x2a
 7944 1f70 061F0000 		.4byte	.LASF445
 7945 1f74 01       		.byte	0x1
 7946 1f75 6504     		.2byte	0x465
 7947 1f77 DF1D0000 		.4byte	0x1ddf
 7948 1f7b 02       		.byte	0x2
 7949 1f7c 91       		.byte	0x91
 7950 1f7d 64       		.sleb128 -28
 7951 1f7e 2D       		.uleb128 0x2d
 7952 1f7f 28000000 		.4byte	.LVL349
 7953 1f83 57310000 		.4byte	0x3157
 7954 1f87 2E       		.uleb128 0x2e
 7955 1f88 01       		.byte	0x1
 7956 1f89 50       		.byte	0x50
 7957 1f8a 02       		.byte	0x2
 7958 1f8b 91       		.byte	0x91
 7959 1f8c 64       		.sleb128 -28
 7960 1f8d 00       		.byte	0
 7961 1f8e 00       		.byte	0
 7962 1f8f 0A       		.uleb128 0xa
 7963 1f90 04       		.byte	0x4
 7964 1f91 7A1B0000 		.4byte	0x1b7a
 7965 1f95 2F       		.uleb128 0x2f
 7966 1f96 01       		.byte	0x1
 7967 1f97 A2000000 		.4byte	.LASF454
 7968 1f9b 01       		.byte	0x1
 7969 1f9c 5804     		.2byte	0x458
 7970 1f9e 01       		.byte	0x1
 7971 1f9f C1000000 		.4byte	0xc1
 7972 1fa3 00000000 		.4byte	.LFB67
ARM GAS  C:\Users\EBANO_~1\AppData\Local\Temp\ccFRmLE5.s 			page 168


 7973 1fa7 1C000000 		.4byte	.LFE67
 7974 1fab 02       		.byte	0x2
 7975 1fac 7D       		.byte	0x7d
 7976 1fad 00       		.sleb128 0
 7977 1fae 01       		.byte	0x1
 7978 1faf FD1F0000 		.4byte	0x1ffd
 7979 1fb3 2C       		.uleb128 0x2c
 7980 1fb4 161B0000 		.4byte	.LASF446
 7981 1fb8 01       		.byte	0x1
 7982 1fb9 5804     		.2byte	0x458
 7983 1fbb C1000000 		.4byte	0xc1
 7984 1fbf 79000000 		.4byte	.LLST109
 7985 1fc3 30       		.uleb128 0x30
 7986 1fc4 647200   		.ascii	"dr\000"
 7987 1fc7 01       		.byte	0x1
 7988 1fc8 5804     		.2byte	0x458
 7989 1fca B1000000 		.4byte	0xb1
 7990 1fce 9A000000 		.4byte	.LLST110
 7991 1fd2 2C       		.uleb128 0x2c
 7992 1fd3 F8210000 		.4byte	.LASF447
 7993 1fd7 01       		.byte	0x1
 7994 1fd8 5804     		.2byte	0x458
 7995 1fda B1000000 		.4byte	0xb1
 7996 1fde BB000000 		.4byte	.LLST111
 7997 1fe2 2A       		.uleb128 0x2a
 7998 1fe3 6C050000 		.4byte	.LASF448
 7999 1fe7 01       		.byte	0x1
 8000 1fe8 5A04     		.2byte	0x45a
 8001 1fea B1000000 		.4byte	0xb1
 8002 1fee 0D       		.byte	0xd
 8003 1fef 73       		.byte	0x73
 8004 1ff0 00       		.sleb128 0
 8005 1ff1 12       		.byte	0x12
 8006 1ff2 30       		.byte	0x30
 8007 1ff3 16       		.byte	0x16
 8008 1ff4 14       		.byte	0x14
 8009 1ff5 2B       		.byte	0x2b
 8010 1ff6 28       		.byte	0x28
 8011 1ff7 0100     		.2byte	0x1
 8012 1ff9 16       		.byte	0x16
 8013 1ffa 13       		.byte	0x13
 8014 1ffb 9F       		.byte	0x9f
 8015 1ffc 00       		.byte	0
 8016 1ffd 2B       		.uleb128 0x2b
 8017 1ffe 01       		.byte	0x1
 8018 1fff A5010000 		.4byte	.LASF450
 8019 2003 01       		.byte	0x1
 8020 2004 4C04     		.2byte	0x44c
 8021 2006 01       		.byte	0x1
 8022 2007 00000000 		.4byte	.LFB66
 8023 200b 90000000 		.4byte	.LFE66
 8024 200f DC000000 		.4byte	.LLST100
 8025 2013 01       		.byte	0x1
 8026 2014 CD200000 		.4byte	0x20cd
 8027 2018 2C       		.uleb128 0x2c
 8028 2019 AC060000 		.4byte	.LASF451
 8029 201d 01       		.byte	0x1
ARM GAS  C:\Users\EBANO_~1\AppData\Local\Temp\ccFRmLE5.s 			page 169


 8030 201e 4C04     		.2byte	0x44c
 8031 2020 CD200000 		.4byte	0x20cd
 8032 2024 08010000 		.4byte	.LLST101
 8033 2028 31       		.uleb128 0x31
 8034 2029 A7140000 		.4byte	.LASF492
 8035 202d 01       		.byte	0x1
 8036 202e 4E04     		.2byte	0x44e
 8037 2030 B1000000 		.4byte	0xb1
 8038 2034 32       		.uleb128 0x32
 8039 2035 BB060000 		.4byte	.LASF452
 8040 2039 01       		.byte	0x1
 8041 203a 4F04     		.2byte	0x44f
 8042 203c B1000000 		.4byte	0xb1
 8043 2040 55010000 		.4byte	.LLST102
 8044 2044 32       		.uleb128 0x32
 8045 2045 13210000 		.4byte	.LASF453
 8046 2049 01       		.byte	0x1
 8047 204a 5004     		.2byte	0x450
 8048 204c F2000000 		.4byte	0xf2
 8049 2050 74010000 		.4byte	.LLST103
 8050 2054 33       		.uleb128 0x33
 8051 2055 842F0000 		.4byte	0x2f84
 8052 2059 00000000 		.4byte	.LBB122
 8053 205d F8010000 		.4byte	.Ldebug_ranges0+0x1f8
 8054 2061 01       		.byte	0x1
 8055 2062 4E04     		.2byte	0x44e
 8056 2064 B7200000 		.4byte	0x20b7
 8057 2068 34       		.uleb128 0x34
 8058 2069 B62F0000 		.4byte	0x2fb6
 8059 206d 87010000 		.4byte	.LLST104
 8060 2071 34       		.uleb128 0x34
 8061 2072 AB2F0000 		.4byte	0x2fab
 8062 2076 AF010000 		.4byte	.LLST105
 8063 207a 34       		.uleb128 0x34
 8064 207b A02F0000 		.4byte	0x2fa0
 8065 207f E7010000 		.4byte	.LLST106
 8066 2083 34       		.uleb128 0x34
 8067 2084 952F0000 		.4byte	0x2f95
 8068 2088 85020000 		.4byte	.LLST107
 8069 208c 35       		.uleb128 0x35
 8070 208d F8010000 		.4byte	.Ldebug_ranges0+0x1f8
 8071 2091 36       		.uleb128 0x36
 8072 2092 C12F0000 		.4byte	0x2fc1
 8073 2096 E5020000 		.4byte	.LLST108
 8074 209a 2D       		.uleb128 0x2d
 8075 209b 38000000 		.4byte	.LVL324
 8076 209f 65310000 		.4byte	0x3165
 8077 20a3 2E       		.uleb128 0x2e
 8078 20a4 01       		.byte	0x1
 8079 20a5 50       		.byte	0x50
 8080 20a6 03       		.byte	0x3
 8081 20a7 75       		.byte	0x75
 8082 20a8 F006     		.sleb128 880
 8083 20aa 2E       		.uleb128 0x2e
 8084 20ab 01       		.byte	0x1
 8085 20ac 51       		.byte	0x51
 8086 20ad 01       		.byte	0x1
ARM GAS  C:\Users\EBANO_~1\AppData\Local\Temp\ccFRmLE5.s 			page 170


 8087 20ae 30       		.byte	0x30
 8088 20af 2E       		.uleb128 0x2e
 8089 20b0 01       		.byte	0x1
 8090 20b1 52       		.byte	0x52
 8091 20b2 01       		.byte	0x1
 8092 20b3 34       		.byte	0x34
 8093 20b4 00       		.byte	0
 8094 20b5 00       		.byte	0
 8095 20b6 00       		.byte	0
 8096 20b7 37       		.uleb128 0x37
 8097 20b8 56000000 		.4byte	.LVL327
 8098 20bc 73310000 		.4byte	0x3173
 8099 20c0 38       		.uleb128 0x38
 8100 20c1 64000000 		.4byte	.LVL329
 8101 20c5 2E       		.uleb128 0x2e
 8102 20c6 01       		.byte	0x1
 8103 20c7 50       		.byte	0x50
 8104 20c8 02       		.byte	0x2
 8105 20c9 75       		.byte	0x75
 8106 20ca 00       		.sleb128 0
 8107 20cb 00       		.byte	0
 8108 20cc 00       		.byte	0
 8109 20cd 0A       		.uleb128 0xa
 8110 20ce 04       		.byte	0x4
 8111 20cf 331B0000 		.4byte	0x1b33
 8112 20d3 2F       		.uleb128 0x2f
 8113 20d4 01       		.byte	0x1
 8114 20d5 09030000 		.4byte	.LASF455
 8115 20d9 01       		.byte	0x1
 8116 20da 4704     		.2byte	0x447
 8117 20dc 01       		.byte	0x1
 8118 20dd 1A0B0000 		.4byte	0xb1a
 8119 20e1 00000000 		.4byte	.LFB65
 8120 20e5 04000000 		.4byte	.LFE65
 8121 20e9 02       		.byte	0x2
 8122 20ea 7D       		.byte	0x7d
 8123 20eb 00       		.sleb128 0
 8124 20ec 01       		.byte	0x1
 8125 20ed 02210000 		.4byte	0x2102
 8126 20f1 2C       		.uleb128 0x2c
 8127 20f2 E8200000 		.4byte	.LASF456
 8128 20f6 01       		.byte	0x1
 8129 20f7 4704     		.2byte	0x447
 8130 20f9 02210000 		.4byte	0x2102
 8131 20fd 1D040000 		.4byte	.LLST99
 8132 2101 00       		.byte	0
 8133 2102 0A       		.uleb128 0xa
 8134 2103 04       		.byte	0x4
 8135 2104 BF1A0000 		.4byte	0x1abf
 8136 2108 2F       		.uleb128 0x2f
 8137 2109 01       		.byte	0x1
 8138 210a 9B0B0000 		.4byte	.LASF457
 8139 210e 01       		.byte	0x1
 8140 210f 4204     		.2byte	0x442
 8141 2111 01       		.byte	0x1
 8142 2112 3D120000 		.4byte	0x123d
 8143 2116 00000000 		.4byte	.LFB64
ARM GAS  C:\Users\EBANO_~1\AppData\Local\Temp\ccFRmLE5.s 			page 171


 8144 211a 04000000 		.4byte	.LFE64
 8145 211e 02       		.byte	0x2
 8146 211f 7D       		.byte	0x7d
 8147 2120 00       		.sleb128 0
 8148 2121 01       		.byte	0x1
 8149 2122 37210000 		.4byte	0x2137
 8150 2126 2C       		.uleb128 0x2c
 8151 2127 3F140000 		.4byte	.LASF458
 8152 212b 01       		.byte	0x1
 8153 212c 4204     		.2byte	0x442
 8154 212e 37210000 		.4byte	0x2137
 8155 2132 3E040000 		.4byte	.LLST98
 8156 2136 00       		.byte	0
 8157 2137 0A       		.uleb128 0xa
 8158 2138 04       		.byte	0x4
 8159 2139 961A0000 		.4byte	0x1a96
 8160 213d 39       		.uleb128 0x39
 8161 213e 01       		.byte	0x1
 8162 213f 4A140000 		.4byte	.LASF459
 8163 2143 01       		.byte	0x1
 8164 2144 DF03     		.2byte	0x3df
 8165 2146 01       		.byte	0x1
 8166 2147 3D120000 		.4byte	0x123d
 8167 214b 00000000 		.4byte	.LFB63
 8168 214f 14030000 		.4byte	.LFE63
 8169 2153 5F040000 		.4byte	.LLST68
 8170 2157 01       		.byte	0x1
 8171 2158 46240000 		.4byte	0x2446
 8172 215c 2C       		.uleb128 0x2c
 8173 215d 4A190000 		.4byte	.LASF460
 8174 2161 01       		.byte	0x1
 8175 2162 DF03     		.2byte	0x3df
 8176 2164 46240000 		.4byte	0x2446
 8177 2168 98040000 		.4byte	.LLST69
 8178 216c 2C       		.uleb128 0x2c
 8179 216d 35100000 		.4byte	.LASF461
 8180 2171 01       		.byte	0x1
 8181 2172 DF03     		.2byte	0x3df
 8182 2174 890A0000 		.4byte	0xa89
 8183 2178 32050000 		.4byte	.LLST70
 8184 217c 2C       		.uleb128 0x2c
 8185 217d BD0A0000 		.4byte	.LASF462
 8186 2181 01       		.byte	0x1
 8187 2182 DF03     		.2byte	0x3df
 8188 2184 4C240000 		.4byte	0x244c
 8189 2188 52050000 		.4byte	.LLST71
 8190 218c 2C       		.uleb128 0x2c
 8191 218d 2D0E0000 		.4byte	.LASF463
 8192 2191 01       		.byte	0x1
 8193 2192 DF03     		.2byte	0x3df
 8194 2194 4C240000 		.4byte	0x244c
 8195 2198 72050000 		.4byte	.LLST72
 8196 219c 32       		.uleb128 0x32
 8197 219d D9160000 		.4byte	.LASF464
 8198 21a1 01       		.byte	0x1
 8199 21a2 E103     		.2byte	0x3e1
 8200 21a4 C1000000 		.4byte	0xc1
ARM GAS  C:\Users\EBANO_~1\AppData\Local\Temp\ccFRmLE5.s 			page 172


 8201 21a8 E9050000 		.4byte	.LLST73
 8202 21ac 32       		.uleb128 0x32
 8203 21ad 5F070000 		.4byte	.LASF465
 8204 21b1 01       		.byte	0x1
 8205 21b2 E203     		.2byte	0x3e2
 8206 21b4 C1000000 		.4byte	0xc1
 8207 21b8 21060000 		.4byte	.LLST74
 8208 21bc 2A       		.uleb128 0x2a
 8209 21bd C91A0000 		.4byte	.LASF466
 8210 21c1 01       		.byte	0x1
 8211 21c2 E303     		.2byte	0x3e3
 8212 21c4 52240000 		.4byte	0x2452
 8213 21c8 03       		.byte	0x3
 8214 21c9 91       		.byte	0x91
 8215 21ca 907F     		.sleb128 -112
 8216 21cc 32       		.uleb128 0x32
 8217 21cd 7B170000 		.4byte	.LASF467
 8218 21d1 01       		.byte	0x1
 8219 21d2 E403     		.2byte	0x3e4
 8220 21d4 9C0A0000 		.4byte	0xa9c
 8221 21d8 99060000 		.4byte	.LLST75
 8222 21dc 32       		.uleb128 0x32
 8223 21dd 6E160000 		.4byte	.LASF468
 8224 21e1 01       		.byte	0x1
 8225 21e2 E503     		.2byte	0x3e5
 8226 21e4 C1000000 		.4byte	0xc1
 8227 21e8 10070000 		.4byte	.LLST76
 8228 21ec 3A       		.uleb128 0x3a
 8229 21ed 58010000 		.4byte	.Ldebug_ranges0+0x158
 8230 21f1 04220000 		.4byte	0x2204
 8231 21f5 3B       		.uleb128 0x3b
 8232 21f6 6900     		.ascii	"i\000"
 8233 21f8 01       		.byte	0x1
 8234 21f9 2504     		.2byte	0x425
 8235 21fb C1000000 		.4byte	0xc1
 8236 21ff 2E070000 		.4byte	.LLST88
 8237 2203 00       		.byte	0
 8238 2204 33       		.uleb128 0x33
 8239 2205 D22E0000 		.4byte	0x2ed2
 8240 2209 7C000000 		.4byte	.LBB83
 8241 220d F0000000 		.4byte	.Ldebug_ranges0+0xf0
 8242 2211 01       		.byte	0x1
 8243 2212 0004     		.2byte	0x400
 8244 2214 A9220000 		.4byte	0x22a9
 8245 2218 34       		.uleb128 0x34
 8246 2219 F02E0000 		.4byte	0x2ef0
 8247 221d 6F070000 		.4byte	.LLST77
 8248 2221 34       		.uleb128 0x34
 8249 2222 FC2E0000 		.4byte	0x2efc
 8250 2226 97070000 		.4byte	.LLST78
 8251 222a 34       		.uleb128 0x34
 8252 222b 082F0000 		.4byte	0x2f08
 8253 222f BF070000 		.4byte	.LLST79
 8254 2233 34       		.uleb128 0x34
 8255 2234 202F0000 		.4byte	0x2f20
 8256 2238 3E080000 		.4byte	.LLST80
 8257 223c 34       		.uleb128 0x34
ARM GAS  C:\Users\EBANO_~1\AppData\Local\Temp\ccFRmLE5.s 			page 173


 8258 223d 142F0000 		.4byte	0x2f14
 8259 2241 66080000 		.4byte	.LLST81
 8260 2245 34       		.uleb128 0x34
 8261 2246 E42E0000 		.4byte	0x2ee4
 8262 224a 8A080000 		.4byte	.LLST82
 8263 224e 35       		.uleb128 0x35
 8264 224f F0000000 		.4byte	.Ldebug_ranges0+0xf0
 8265 2253 36       		.uleb128 0x36
 8266 2254 2C2F0000 		.4byte	0x2f2c
 8267 2258 AC080000 		.4byte	.LLST83
 8268 225c 36       		.uleb128 0x36
 8269 225d 382F0000 		.4byte	0x2f38
 8270 2261 EC080000 		.4byte	.LLST84
 8271 2265 3C       		.uleb128 0x3c
 8272 2266 442F0000 		.4byte	0x2f44
 8273 226a 18010000 		.4byte	.Ldebug_ranges0+0x118
 8274 226e 36       		.uleb128 0x36
 8275 226f 452F0000 		.4byte	0x2f45
 8276 2273 1A090000 		.4byte	.LLST85
 8277 2277 36       		.uleb128 0x36
 8278 2278 4F2F0000 		.4byte	0x2f4f
 8279 227c 55090000 		.4byte	.LLST86
 8280 2280 3C       		.uleb128 0x3c
 8281 2281 592F0000 		.4byte	0x2f59
 8282 2285 38010000 		.4byte	.Ldebug_ranges0+0x138
 8283 2289 36       		.uleb128 0x36
 8284 228a 5A2F0000 		.4byte	0x2f5a
 8285 228e 69090000 		.4byte	.LLST87
 8286 2292 2D       		.uleb128 0x2d
 8287 2293 CC000000 		.4byte	.LVL242
 8288 2297 81310000 		.4byte	0x3181
 8289 229b 2E       		.uleb128 0x2e
 8290 229c 01       		.byte	0x1
 8291 229d 50       		.byte	0x50
 8292 229e 05       		.byte	0x5
 8293 229f 91       		.byte	0x91
 8294 22a0 EC7E     		.sleb128 -148
 8295 22a2 94       		.byte	0x94
 8296 22a3 01       		.byte	0x1
 8297 22a4 00       		.byte	0
 8298 22a5 00       		.byte	0
 8299 22a6 00       		.byte	0
 8300 22a7 00       		.byte	0
 8301 22a8 00       		.byte	0
 8302 22a9 33       		.uleb128 0x33
 8303 22aa EA2F0000 		.4byte	0x2fea
 8304 22ae D6010000 		.4byte	.LBB98
 8305 22b2 70010000 		.4byte	.Ldebug_ranges0+0x170
 8306 22b6 01       		.byte	0x1
 8307 22b7 1B04     		.2byte	0x41b
 8308 22b9 7F230000 		.4byte	0x237f
 8309 22bd 34       		.uleb128 0x34
 8310 22be FB2F0000 		.4byte	0x2ffb
 8311 22c2 94090000 		.4byte	.LLST89
 8312 22c6 35       		.uleb128 0x35
 8313 22c7 70010000 		.4byte	.Ldebug_ranges0+0x170
 8314 22cb 36       		.uleb128 0x36
ARM GAS  C:\Users\EBANO_~1\AppData\Local\Temp\ccFRmLE5.s 			page 174


 8315 22cc 06300000 		.4byte	0x3006
 8316 22d0 DC090000 		.4byte	.LLST90
 8317 22d4 36       		.uleb128 0x36
 8318 22d5 11300000 		.4byte	0x3011
 8319 22d9 F3090000 		.4byte	.LLST91
 8320 22dd 3D       		.uleb128 0x3d
 8321 22de 1C300000 		.4byte	0x301c
 8322 22e2 03       		.byte	0x3
 8323 22e3 91       		.byte	0x91
 8324 22e4 887F     		.sleb128 -120
 8325 22e6 36       		.uleb128 0x36
 8326 22e7 27300000 		.4byte	0x3027
 8327 22eb 110A0000 		.4byte	.LLST92
 8328 22ef 36       		.uleb128 0x36
 8329 22f0 32300000 		.4byte	0x3032
 8330 22f4 AA0A0000 		.4byte	.LLST93
 8331 22f8 3E       		.uleb128 0x3e
 8332 22f9 4E300000 		.4byte	0x304e
 8333 22fd EC010000 		.4byte	.LBB100
 8334 2301 98010000 		.4byte	.Ldebug_ranges0+0x198
 8335 2305 01       		.byte	0x1
 8336 2306 AB       		.byte	0xab
 8337 2307 3A230000 		.4byte	0x233a
 8338 230b 34       		.uleb128 0x34
 8339 230c 75300000 		.4byte	0x3075
 8340 2310 D50A0000 		.4byte	.LLST94
 8341 2314 34       		.uleb128 0x34
 8342 2315 6A300000 		.4byte	0x306a
 8343 2319 F3090000 		.4byte	.LLST91
 8344 231d 34       		.uleb128 0x34
 8345 231e 5F300000 		.4byte	0x305f
 8346 2322 0D0B0000 		.4byte	.LLST96
 8347 2326 3C       		.uleb128 0x3c
 8348 2327 80300000 		.4byte	0x3080
 8349 232b C8010000 		.4byte	.Ldebug_ranges0+0x1c8
 8350 232f 36       		.uleb128 0x36
 8351 2330 81300000 		.4byte	0x3081
 8352 2334 F90B0000 		.4byte	.LLST97
 8353 2338 00       		.byte	0
 8354 2339 00       		.byte	0
 8355 233a 3F       		.uleb128 0x3f
 8356 233b E0010000 		.4byte	.LVL270
 8357 233f 8E310000 		.4byte	0x318e
 8358 2343 59230000 		.4byte	0x2359
 8359 2347 2E       		.uleb128 0x2e
 8360 2348 01       		.byte	0x1
 8361 2349 50       		.byte	0x50
 8362 234a 03       		.byte	0x3
 8363 234b 91       		.byte	0x91
 8364 234c 887F     		.sleb128 -120
 8365 234e 2E       		.uleb128 0x2e
 8366 234f 01       		.byte	0x1
 8367 2350 51       		.byte	0x51
 8368 2351 01       		.byte	0x1
 8369 2352 30       		.byte	0x30
 8370 2353 2E       		.uleb128 0x2e
 8371 2354 01       		.byte	0x1
ARM GAS  C:\Users\EBANO_~1\AppData\Local\Temp\ccFRmLE5.s 			page 175


 8372 2355 52       		.byte	0x52
 8373 2356 01       		.byte	0x1
 8374 2357 38       		.byte	0x38
 8375 2358 00       		.byte	0
 8376 2359 3F       		.uleb128 0x3f
 8377 235a 9A020000 		.4byte	.LVL301
 8378 235e 9F310000 		.4byte	0x319f
 8379 2362 6D230000 		.4byte	0x236d
 8380 2366 2E       		.uleb128 0x2e
 8381 2367 01       		.byte	0x1
 8382 2368 50       		.byte	0x50
 8383 2369 02       		.byte	0x2
 8384 236a 7B       		.byte	0x7b
 8385 236b 00       		.sleb128 0
 8386 236c 00       		.byte	0
 8387 236d 2D       		.uleb128 0x2d
 8388 236e F0020000 		.4byte	.LVL314
 8389 2372 9F310000 		.4byte	0x319f
 8390 2376 2E       		.uleb128 0x2e
 8391 2377 01       		.byte	0x1
 8392 2378 50       		.byte	0x50
 8393 2379 02       		.byte	0x2
 8394 237a 7B       		.byte	0x7b
 8395 237b 00       		.sleb128 0
 8396 237c 00       		.byte	0
 8397 237d 00       		.byte	0
 8398 237e 00       		.byte	0
 8399 237f 3F       		.uleb128 0x3f
 8400 2380 20000000 		.4byte	.LVL229
 8401 2384 8E310000 		.4byte	0x318e
 8402 2388 9F230000 		.4byte	0x239f
 8403 238c 2E       		.uleb128 0x2e
 8404 238d 01       		.byte	0x1
 8405 238e 50       		.byte	0x50
 8406 238f 03       		.byte	0x3
 8407 2390 91       		.byte	0x91
 8408 2391 907F     		.sleb128 -112
 8409 2393 2E       		.uleb128 0x2e
 8410 2394 01       		.byte	0x1
 8411 2395 51       		.byte	0x51
 8412 2396 01       		.byte	0x1
 8413 2397 30       		.byte	0x30
 8414 2398 2E       		.uleb128 0x2e
 8415 2399 01       		.byte	0x1
 8416 239a 52       		.byte	0x52
 8417 239b 02       		.byte	0x2
 8418 239c 08       		.byte	0x8
 8419 239d 48       		.byte	0x48
 8420 239e 00       		.byte	0
 8421 239f 3F       		.uleb128 0x3f
 8422 23a0 2A000000 		.4byte	.LVL230
 8423 23a4 65310000 		.4byte	0x3165
 8424 23a8 C0230000 		.4byte	0x23c0
 8425 23ac 2E       		.uleb128 0x2e
 8426 23ad 01       		.byte	0x1
 8427 23ae 50       		.byte	0x50
 8428 23af 05       		.byte	0x5
ARM GAS  C:\Users\EBANO_~1\AppData\Local\Temp\ccFRmLE5.s 			page 176


 8429 23b0 03       		.byte	0x3
 8430 23b1 7C030000 		.4byte	NvmCtx+892
 8431 23b5 2E       		.uleb128 0x2e
 8432 23b6 01       		.byte	0x1
 8433 23b7 51       		.byte	0x51
 8434 23b8 01       		.byte	0x1
 8435 23b9 30       		.byte	0x30
 8436 23ba 2E       		.uleb128 0x2e
 8437 23bb 01       		.byte	0x1
 8438 23bc 52       		.byte	0x52
 8439 23bd 01       		.byte	0x1
 8440 23be 34       		.byte	0x34
 8441 23bf 00       		.byte	0
 8442 23c0 37       		.uleb128 0x37
 8443 23c1 52000000 		.4byte	.LVL231
 8444 23c5 AC310000 		.4byte	0x31ac
 8445 23c9 3F       		.uleb128 0x3f
 8446 23ca 6A000000 		.4byte	.LVL232
 8447 23ce B9310000 		.4byte	0x31b9
 8448 23d2 E5230000 		.4byte	0x23e5
 8449 23d6 2E       		.uleb128 0x2e
 8450 23d7 01       		.byte	0x1
 8451 23d8 52       		.byte	0x52
 8452 23d9 05       		.byte	0x5
 8453 23da 03       		.byte	0x3
 8454 23db 60030000 		.4byte	NvmCtx+864
 8455 23df 2E       		.uleb128 0x2e
 8456 23e0 01       		.byte	0x1
 8457 23e1 53       		.byte	0x53
 8458 23e2 01       		.byte	0x1
 8459 23e3 31       		.byte	0x31
 8460 23e4 00       		.byte	0
 8461 23e5 3F       		.uleb128 0x3f
 8462 23e6 5C010000 		.4byte	.LVL256
 8463 23ea C7310000 		.4byte	0x31c7
 8464 23ee 02240000 		.4byte	0x2402
 8465 23f2 2E       		.uleb128 0x2e
 8466 23f3 01       		.byte	0x1
 8467 23f4 50       		.byte	0x50
 8468 23f5 05       		.byte	0x5
 8469 23f6 03       		.byte	0x3
 8470 23f7 7C030000 		.4byte	NvmCtx+892
 8471 23fb 2E       		.uleb128 0x2e
 8472 23fc 01       		.byte	0x1
 8473 23fd 52       		.byte	0x52
 8474 23fe 02       		.byte	0x2
 8475 23ff 08       		.byte	0x8
 8476 2400 48       		.byte	0x48
 8477 2401 00       		.byte	0
 8478 2402 37       		.uleb128 0x37
 8479 2403 86010000 		.4byte	.LVL261
 8480 2407 AC310000 		.4byte	0x31ac
 8481 240b 3F       		.uleb128 0x3f
 8482 240c BA010000 		.4byte	.LVL266
 8483 2410 D5310000 		.4byte	0x31d5
 8484 2414 30240000 		.4byte	0x2430
 8485 2418 2E       		.uleb128 0x2e
ARM GAS  C:\Users\EBANO_~1\AppData\Local\Temp\ccFRmLE5.s 			page 177


 8486 2419 01       		.byte	0x1
 8487 241a 50       		.byte	0x50
 8488 241b 05       		.byte	0x5
 8489 241c 03       		.byte	0x3
 8490 241d 7C030000 		.4byte	NvmCtx+892
 8491 2421 2E       		.uleb128 0x2e
 8492 2422 01       		.byte	0x1
 8493 2423 51       		.byte	0x51
 8494 2424 05       		.byte	0x5
 8495 2425 03       		.byte	0x3
 8496 2426 70030000 		.4byte	NvmCtx+880
 8497 242a 2E       		.uleb128 0x2e
 8498 242b 01       		.byte	0x1
 8499 242c 52       		.byte	0x52
 8500 242d 01       		.byte	0x1
 8501 242e 34       		.byte	0x34
 8502 242f 00       		.byte	0
 8503 2430 2D       		.uleb128 0x2d
 8504 2431 C8010000 		.4byte	.LVL268
 8505 2435 9F310000 		.4byte	0x319f
 8506 2439 2E       		.uleb128 0x2e
 8507 243a 01       		.byte	0x1
 8508 243b 50       		.byte	0x50
 8509 243c 01       		.byte	0x1
 8510 243d 30       		.byte	0x30
 8511 243e 2E       		.uleb128 0x2e
 8512 243f 01       		.byte	0x1
 8513 2440 51       		.byte	0x51
 8514 2441 02       		.byte	0x2
 8515 2442 7B       		.byte	0x7b
 8516 2443 7F       		.sleb128 -1
 8517 2444 00       		.byte	0
 8518 2445 00       		.byte	0
 8519 2446 0A       		.uleb128 0xa
 8520 2447 04       		.byte	0x4
 8521 2448 5E1A0000 		.4byte	0x1a5e
 8522 244c 0A       		.uleb128 0xa
 8523 244d 04       		.byte	0x4
 8524 244e 9C0A0000 		.4byte	0xa9c
 8525 2452 07       		.uleb128 0x7
 8526 2453 C1000000 		.4byte	0xc1
 8527 2457 62240000 		.4byte	0x2462
 8528 245b 08       		.uleb128 0x8
 8529 245c AA000000 		.4byte	0xaa
 8530 2460 47       		.byte	0x47
 8531 2461 00       		.byte	0
 8532 2462 2B       		.uleb128 0x2b
 8533 2463 01       		.byte	0x1
 8534 2464 99050000 		.4byte	.LASF469
 8535 2468 01       		.byte	0x1
 8536 2469 CF03     		.2byte	0x3cf
 8537 246b 01       		.byte	0x1
 8538 246c 00000000 		.4byte	.LFB62
 8539 2470 3C000000 		.4byte	.LFE62
 8540 2474 790C0000 		.4byte	.LLST66
 8541 2478 01       		.byte	0x1
 8542 2479 AD240000 		.4byte	0x24ad
ARM GAS  C:\Users\EBANO_~1\AppData\Local\Temp\ccFRmLE5.s 			page 178


 8543 247d 2C       		.uleb128 0x2c
 8544 247e 670D0000 		.4byte	.LASF470
 8545 2482 01       		.byte	0x1
 8546 2483 CF03     		.2byte	0x3cf
 8547 2485 AD240000 		.4byte	0x24ad
 8548 2489 A50C0000 		.4byte	.LLST67
 8549 248d 2A       		.uleb128 0x2a
 8550 248e 38200000 		.4byte	.LASF471
 8551 2492 01       		.byte	0x1
 8552 2493 D103     		.2byte	0x3d1
 8553 2495 5F1D0000 		.4byte	0x1d5f
 8554 2499 02       		.byte	0x2
 8555 249a 91       		.byte	0x91
 8556 249b 64       		.sleb128 -28
 8557 249c 2D       		.uleb128 0x2d
 8558 249d 32000000 		.4byte	.LVL224
 8559 24a1 E3310000 		.4byte	0x31e3
 8560 24a5 2E       		.uleb128 0x2e
 8561 24a6 01       		.byte	0x1
 8562 24a7 50       		.byte	0x50
 8563 24a8 02       		.byte	0x2
 8564 24a9 91       		.byte	0x91
 8565 24aa 64       		.sleb128 -28
 8566 24ab 00       		.byte	0
 8567 24ac 00       		.byte	0
 8568 24ad 0A       		.uleb128 0xa
 8569 24ae 04       		.byte	0x4
 8570 24af F9190000 		.4byte	0x19f9
 8571 24b3 40       		.uleb128 0x40
 8572 24b4 01       		.byte	0x1
 8573 24b5 520A0000 		.4byte	.LASF472
 8574 24b9 01       		.byte	0x1
 8575 24ba B603     		.2byte	0x3b6
 8576 24bc 01       		.byte	0x1
 8577 24bd B1000000 		.4byte	0xb1
 8578 24c1 00000000 		.4byte	.LFB61
 8579 24c5 34000000 		.4byte	.LFE61
 8580 24c9 C60C0000 		.4byte	.LLST63
 8581 24cd 01       		.byte	0x1
 8582 24ce F3240000 		.4byte	0x24f3
 8583 24d2 2C       		.uleb128 0x2c
 8584 24d3 83140000 		.4byte	.LASF473
 8585 24d7 01       		.byte	0x1
 8586 24d8 B603     		.2byte	0x3b6
 8587 24da B1000000 		.4byte	0xb1
 8588 24de E60C0000 		.4byte	.LLST64
 8589 24e2 2C       		.uleb128 0x2c
 8590 24e3 E7050000 		.4byte	.LASF474
 8591 24e7 01       		.byte	0x1
 8592 24e8 B603     		.2byte	0x3b6
 8593 24ea 85190000 		.4byte	0x1985
 8594 24ee 200D0000 		.4byte	.LLST65
 8595 24f2 00       		.byte	0
 8596 24f3 41       		.uleb128 0x41
 8597 24f4 01       		.byte	0x1
 8598 24f5 3D1F0000 		.4byte	.LASF570
 8599 24f9 01       		.byte	0x1
ARM GAS  C:\Users\EBANO_~1\AppData\Local\Temp\ccFRmLE5.s 			page 179


 8600 24fa B103     		.2byte	0x3b1
 8601 24fc 01       		.byte	0x1
 8602 24fd C1000000 		.4byte	0xc1
 8603 2501 12250000 		.4byte	0x2512
 8604 2505 42       		.uleb128 0x42
 8605 2506 84120000 		.4byte	.LASF477
 8606 250a 01       		.byte	0x1
 8607 250b B103     		.2byte	0x3b1
 8608 250d 12250000 		.4byte	0x2512
 8609 2511 00       		.byte	0
 8610 2512 0A       		.uleb128 0xa
 8611 2513 04       		.byte	0x4
 8612 2514 5A190000 		.4byte	0x195a
 8613 2518 2F       		.uleb128 0x2f
 8614 2519 01       		.byte	0x1
 8615 251a CB070000 		.4byte	.LASF475
 8616 251e 01       		.byte	0x1
 8617 251f AC03     		.2byte	0x3ac
 8618 2521 01       		.byte	0x1
 8619 2522 B1000000 		.4byte	0xb1
 8620 2526 00000000 		.4byte	.LFB59
 8621 252a 06000000 		.4byte	.LFE59
 8622 252e 02       		.byte	0x2
 8623 252f 7D       		.byte	0x7d
 8624 2530 00       		.sleb128 0
 8625 2531 01       		.byte	0x1
 8626 2532 47250000 		.4byte	0x2547
 8627 2536 2C       		.uleb128 0x2c
 8628 2537 6C1E0000 		.4byte	.LASF476
 8629 253b 01       		.byte	0x1
 8630 253c AC03     		.2byte	0x3ac
 8631 253e 47250000 		.4byte	0x2547
 8632 2542 4C0D0000 		.4byte	.LLST62
 8633 2546 00       		.byte	0
 8634 2547 0A       		.uleb128 0xa
 8635 2548 04       		.byte	0x4
 8636 2549 22190000 		.4byte	0x1922
 8637 254d 43       		.uleb128 0x43
 8638 254e 01       		.byte	0x1
 8639 254f 35120000 		.4byte	.LASF529
 8640 2553 01       		.byte	0x1
 8641 2554 A603     		.2byte	0x3a6
 8642 2556 01       		.byte	0x1
 8643 2557 C1000000 		.4byte	0xc1
 8644 255b 01       		.byte	0x1
 8645 255c 6D250000 		.4byte	0x256d
 8646 2560 42       		.uleb128 0x42
 8647 2561 E0020000 		.4byte	.LASF478
 8648 2565 01       		.byte	0x1
 8649 2566 A603     		.2byte	0x3a6
 8650 2568 6D250000 		.4byte	0x256d
 8651 256c 00       		.byte	0
 8652 256d 0A       		.uleb128 0xa
 8653 256e 04       		.byte	0x4
 8654 256f DB180000 		.4byte	0x18db
 8655 2573 40       		.uleb128 0x40
 8656 2574 01       		.byte	0x1
ARM GAS  C:\Users\EBANO_~1\AppData\Local\Temp\ccFRmLE5.s 			page 180


 8657 2575 8F030000 		.4byte	.LASF479
 8658 2579 01       		.byte	0x1
 8659 257a 8803     		.2byte	0x388
 8660 257c 01       		.byte	0x1
 8661 257d C1000000 		.4byte	0xc1
 8662 2581 00000000 		.4byte	.LFB57
 8663 2585 90000000 		.4byte	.LFE57
 8664 2589 6D0D0000 		.4byte	.LLST57
 8665 258d 01       		.byte	0x1
 8666 258e 21260000 		.4byte	0x2621
 8667 2592 2C       		.uleb128 0x2c
 8668 2593 28030000 		.4byte	.LASF480
 8669 2597 01       		.byte	0x1
 8670 2598 8803     		.2byte	0x388
 8671 259a 21260000 		.4byte	0x2621
 8672 259e 990D0000 		.4byte	.LLST58
 8673 25a2 32       		.uleb128 0x32
 8674 25a3 DE080000 		.4byte	.LASF481
 8675 25a7 01       		.byte	0x1
 8676 25a8 8A03     		.2byte	0x38a
 8677 25aa C1000000 		.4byte	0xc1
 8678 25ae D00D0000 		.4byte	.LLST59
 8679 25b2 33       		.uleb128 0x33
 8680 25b3 672F0000 		.4byte	0x2f67
 8681 25b7 02000000 		.4byte	.LBB65
 8682 25bb C8000000 		.4byte	.Ldebug_ranges0+0xc8
 8683 25bf 01       		.byte	0x1
 8684 25c0 8D03     		.2byte	0x38d
 8685 25c2 DC250000 		.4byte	0x25dc
 8686 25c6 34       		.uleb128 0x34
 8687 25c7 782F0000 		.4byte	0x2f78
 8688 25cb 110E0000 		.4byte	.LLST60
 8689 25cf 38       		.uleb128 0x38
 8690 25d0 12000000 		.4byte	.LVL197
 8691 25d4 2E       		.uleb128 0x2e
 8692 25d5 01       		.byte	0x1
 8693 25d6 50       		.byte	0x50
 8694 25d7 02       		.byte	0x2
 8695 25d8 75       		.byte	0x75
 8696 25d9 00       		.sleb128 0
 8697 25da 00       		.byte	0
 8698 25db 00       		.byte	0
 8699 25dc 3F       		.uleb128 0x3f
 8700 25dd 30000000 		.4byte	.LVL200
 8701 25e1 81310000 		.4byte	0x3181
 8702 25e5 F4250000 		.4byte	0x25f4
 8703 25e9 2E       		.uleb128 0x2e
 8704 25ea 01       		.byte	0x1
 8705 25eb 51       		.byte	0x51
 8706 25ec 01       		.byte	0x1
 8707 25ed 38       		.byte	0x38
 8708 25ee 2E       		.uleb128 0x2e
 8709 25ef 01       		.byte	0x1
 8710 25f0 52       		.byte	0x52
 8711 25f1 01       		.byte	0x1
 8712 25f2 3D       		.byte	0x3d
 8713 25f3 00       		.byte	0
ARM GAS  C:\Users\EBANO_~1\AppData\Local\Temp\ccFRmLE5.s 			page 181


 8714 25f4 3F       		.uleb128 0x3f
 8715 25f5 42000000 		.4byte	.LVL202
 8716 25f9 81310000 		.4byte	0x3181
 8717 25fd 0C260000 		.4byte	0x260c
 8718 2601 2E       		.uleb128 0x2e
 8719 2602 01       		.byte	0x1
 8720 2603 51       		.byte	0x51
 8721 2604 01       		.byte	0x1
 8722 2605 35       		.byte	0x35
 8723 2606 2E       		.uleb128 0x2e
 8724 2607 01       		.byte	0x1
 8725 2608 52       		.byte	0x52
 8726 2609 01       		.byte	0x1
 8727 260a 37       		.byte	0x37
 8728 260b 00       		.byte	0
 8729 260c 2D       		.uleb128 0x2d
 8730 260d 5A000000 		.4byte	.LVL203
 8731 2611 81310000 		.4byte	0x3181
 8732 2615 2E       		.uleb128 0x2e
 8733 2616 01       		.byte	0x1
 8734 2617 51       		.byte	0x51
 8735 2618 01       		.byte	0x1
 8736 2619 30       		.byte	0x30
 8737 261a 2E       		.uleb128 0x2e
 8738 261b 01       		.byte	0x1
 8739 261c 52       		.byte	0x52
 8740 261d 01       		.byte	0x1
 8741 261e 33       		.byte	0x33
 8742 261f 00       		.byte	0
 8743 2620 00       		.byte	0
 8744 2621 0A       		.uleb128 0xa
 8745 2622 04       		.byte	0x4
 8746 2623 A3180000 		.4byte	0x18a3
 8747 2627 39       		.uleb128 0x39
 8748 2628 01       		.byte	0x1
 8749 2629 701C0000 		.4byte	.LASF482
 8750 262d 01       		.byte	0x1
 8751 262e E702     		.2byte	0x2e7
 8752 2630 01       		.byte	0x1
 8753 2631 C1000000 		.4byte	0xc1
 8754 2635 00000000 		.4byte	.LFB56
 8755 2639 C8020000 		.4byte	.LFE56
 8756 263d 2F0E0000 		.4byte	.LLST47
 8757 2641 01       		.byte	0x1
 8758 2642 FD270000 		.4byte	0x27fd
 8759 2646 2C       		.uleb128 0x2c
 8760 2647 9D110000 		.4byte	.LASF483
 8761 264b 01       		.byte	0x1
 8762 264c E702     		.2byte	0x2e7
 8763 264e FD270000 		.4byte	0x27fd
 8764 2652 680E0000 		.4byte	.LLST48
 8765 2656 2C       		.uleb128 0x2c
 8766 2657 97190000 		.4byte	.LASF484
 8767 265b 01       		.byte	0x1
 8768 265c E702     		.2byte	0x2e7
 8769 265e 03280000 		.4byte	0x2803
 8770 2662 B80E0000 		.4byte	.LLST49
ARM GAS  C:\Users\EBANO_~1\AppData\Local\Temp\ccFRmLE5.s 			page 182


 8771 2666 2C       		.uleb128 0x2c
 8772 2667 16180000 		.4byte	.LASF485
 8773 266b 01       		.byte	0x1
 8774 266c E702     		.2byte	0x2e7
 8775 266e 03280000 		.4byte	0x2803
 8776 2672 EF0E0000 		.4byte	.LLST50
 8777 2676 2C       		.uleb128 0x2c
 8778 2677 F3100000 		.4byte	.LASF486
 8779 267b 01       		.byte	0x1
 8780 267c E702     		.2byte	0x2e7
 8781 267e 890A0000 		.4byte	0xa89
 8782 2682 260F0000 		.4byte	.LLST51
 8783 2686 44       		.uleb128 0x44
 8784 2687 2A0F0000 		.4byte	.LASF487
 8785 268b 01       		.byte	0x1
 8786 268c E702     		.2byte	0x2e7
 8787 268e 890A0000 		.4byte	0xa89
 8788 2692 02       		.byte	0x2
 8789 2693 91       		.byte	0x91
 8790 2694 00       		.sleb128 0
 8791 2695 32       		.uleb128 0x32
 8792 2696 DE080000 		.4byte	.LASF481
 8793 269a 01       		.byte	0x1
 8794 269b E902     		.2byte	0x2e9
 8795 269d C1000000 		.4byte	0xc1
 8796 26a1 5A0F0000 		.4byte	.LLST52
 8797 26a5 2A       		.uleb128 0x2a
 8798 26a6 F81E0000 		.4byte	.LASF488
 8799 26aa 01       		.byte	0x1
 8800 26ab EA02     		.2byte	0x2ea
 8801 26ad D91B0000 		.4byte	0x1bd9
 8802 26b1 03       		.byte	0x3
 8803 26b2 91       		.byte	0x91
 8804 26b3 A47F     		.sleb128 -92
 8805 26b5 32       		.uleb128 0x32
 8806 26b6 780A0000 		.4byte	.LASF489
 8807 26ba 01       		.byte	0x1
 8808 26bb EB02     		.2byte	0x2eb
 8809 26bd C1000000 		.4byte	0xc1
 8810 26c1 BF0F0000 		.4byte	.LLST53
 8811 26c5 32       		.uleb128 0x32
 8812 26c6 2E0D0000 		.4byte	.LASF490
 8813 26ca 01       		.byte	0x1
 8814 26cb EC02     		.2byte	0x2ec
 8815 26cd C1000000 		.4byte	0xc1
 8816 26d1 F40F0000 		.4byte	.LLST54
 8817 26d5 2A       		.uleb128 0x2a
 8818 26d6 D5140000 		.4byte	.LASF491
 8819 26da 01       		.byte	0x1
 8820 26db ED02     		.2byte	0x2ed
 8821 26dd 081F0000 		.4byte	0x1f08
 8822 26e1 03       		.byte	0x3
 8823 26e2 91       		.byte	0x91
 8824 26e3 AC7F     		.sleb128 -84
 8825 26e5 31       		.uleb128 0x31
 8826 26e6 5F190000 		.4byte	.LASF493
 8827 26ea 01       		.byte	0x1
ARM GAS  C:\Users\EBANO_~1\AppData\Local\Temp\ccFRmLE5.s 			page 183


 8828 26eb EE02     		.2byte	0x2ee
 8829 26ed 06150000 		.4byte	0x1506
 8830 26f1 31       		.uleb128 0x31
 8831 26f2 C8040000 		.4byte	.LASF494
 8832 26f6 01       		.byte	0x1
 8833 26f7 EF02     		.2byte	0x2ef
 8834 26f9 B0140000 		.4byte	0x14b0
 8835 26fd 2A       		.uleb128 0x2a
 8836 26fe DF1C0000 		.4byte	.LASF495
 8837 2702 01       		.byte	0x1
 8838 2703 F002     		.2byte	0x2f0
 8839 2705 D11C0000 		.4byte	0x1cd1
 8840 2709 03       		.byte	0x3
 8841 270a 91       		.byte	0x91
 8842 270b B87F     		.sleb128 -72
 8843 270d 3A       		.uleb128 0x3a
 8844 270e A0000000 		.4byte	.Ldebug_ranges0+0xa0
 8845 2712 47270000 		.4byte	0x2747
 8846 2716 31       		.uleb128 0x31
 8847 2717 2F070000 		.4byte	.LASF496
 8848 271b 01       		.byte	0x1
 8849 271c 1903     		.2byte	0x319
 8850 271e C1000000 		.4byte	0xc1
 8851 2722 32       		.uleb128 0x32
 8852 2723 A90D0000 		.4byte	.LASF497
 8853 2727 01       		.byte	0x1
 8854 2728 1C03     		.2byte	0x31c
 8855 272a C1000000 		.4byte	0xc1
 8856 272e 35100000 		.4byte	.LLST55
 8857 2732 35       		.uleb128 0x35
 8858 2733 A0000000 		.4byte	.Ldebug_ranges0+0xa0
 8859 2737 3B       		.uleb128 0x3b
 8860 2738 6900     		.ascii	"i\000"
 8861 273a 01       		.byte	0x1
 8862 273b 1F03     		.2byte	0x31f
 8863 273d C1000000 		.4byte	0xc1
 8864 2741 B5100000 		.4byte	.LLST56
 8865 2745 00       		.byte	0
 8866 2746 00       		.byte	0
 8867 2747 3F       		.uleb128 0x3f
 8868 2748 22000000 		.4byte	.LVL149
 8869 274c 8E310000 		.4byte	0x318e
 8870 2750 65270000 		.4byte	0x2765
 8871 2754 2E       		.uleb128 0x2e
 8872 2755 01       		.byte	0x1
 8873 2756 50       		.byte	0x50
 8874 2757 02       		.byte	0x2
 8875 2758 77       		.byte	0x77
 8876 2759 00       		.sleb128 0
 8877 275a 2E       		.uleb128 0x2e
 8878 275b 01       		.byte	0x1
 8879 275c 51       		.byte	0x51
 8880 275d 01       		.byte	0x1
 8881 275e 30       		.byte	0x30
 8882 275f 2E       		.uleb128 0x2e
 8883 2760 01       		.byte	0x1
 8884 2761 52       		.byte	0x52
ARM GAS  C:\Users\EBANO_~1\AppData\Local\Temp\ccFRmLE5.s 			page 184


 8885 2762 01       		.byte	0x1
 8886 2763 3C       		.byte	0x3c
 8887 2764 00       		.byte	0
 8888 2765 3F       		.uleb128 0x3f
 8889 2766 2C000000 		.4byte	.LVL150
 8890 276a D5310000 		.4byte	0x31d5
 8891 276e 87270000 		.4byte	0x2787
 8892 2772 2E       		.uleb128 0x2e
 8893 2773 01       		.byte	0x1
 8894 2774 50       		.byte	0x50
 8895 2775 02       		.byte	0x2
 8896 2776 77       		.byte	0x77
 8897 2777 00       		.sleb128 0
 8898 2778 2E       		.uleb128 0x2e
 8899 2779 01       		.byte	0x1
 8900 277a 51       		.byte	0x51
 8901 277b 05       		.byte	0x5
 8902 277c 03       		.byte	0x3
 8903 277d 70030000 		.4byte	NvmCtx+880
 8904 2781 2E       		.uleb128 0x2e
 8905 2782 01       		.byte	0x1
 8906 2783 52       		.byte	0x52
 8907 2784 01       		.byte	0x1
 8908 2785 36       		.byte	0x36
 8909 2786 00       		.byte	0
 8910 2787 3F       		.uleb128 0x3f
 8911 2788 44000000 		.4byte	.LVL152
 8912 278c F1310000 		.4byte	0x31f1
 8913 2790 9B270000 		.4byte	0x279b
 8914 2794 2E       		.uleb128 0x2e
 8915 2795 01       		.byte	0x1
 8916 2796 51       		.byte	0x51
 8917 2797 02       		.byte	0x2
 8918 2798 75       		.byte	0x75
 8919 2799 00       		.sleb128 0
 8920 279a 00       		.byte	0
 8921 279b 3F       		.uleb128 0x3f
 8922 279c B8000000 		.4byte	.LVL158
 8923 27a0 FF310000 		.4byte	0x31ff
 8924 27a4 C2270000 		.4byte	0x27c2
 8925 27a8 2E       		.uleb128 0x2e
 8926 27a9 01       		.byte	0x1
 8927 27aa 50       		.byte	0x50
 8928 27ab 03       		.byte	0x3
 8929 27ac 91       		.byte	0x91
 8930 27ad B87F     		.sleb128 -72
 8931 27af 2E       		.uleb128 0x2e
 8932 27b0 01       		.byte	0x1
 8933 27b1 51       		.byte	0x51
 8934 27b2 02       		.byte	0x2
 8935 27b3 7D       		.byte	0x7d
 8936 27b4 05       		.sleb128 5
 8937 27b5 2E       		.uleb128 0x2e
 8938 27b6 01       		.byte	0x1
 8939 27b7 52       		.byte	0x52
 8940 27b8 02       		.byte	0x2
 8941 27b9 7D       		.byte	0x7d
ARM GAS  C:\Users\EBANO_~1\AppData\Local\Temp\ccFRmLE5.s 			page 185


 8942 27ba 06       		.sleb128 6
 8943 27bb 2E       		.uleb128 0x2e
 8944 27bc 01       		.byte	0x1
 8945 27bd 53       		.byte	0x53
 8946 27be 02       		.byte	0x2
 8947 27bf 75       		.byte	0x75
 8948 27c0 00       		.sleb128 0
 8949 27c1 00       		.byte	0
 8950 27c2 3F       		.uleb128 0x3f
 8951 27c3 AA010000 		.4byte	.LVL178
 8952 27c7 65310000 		.4byte	0x3165
 8953 27cb E0270000 		.4byte	0x27e0
 8954 27cf 2E       		.uleb128 0x2e
 8955 27d0 01       		.byte	0x1
 8956 27d1 50       		.byte	0x50
 8957 27d2 02       		.byte	0x2
 8958 27d3 77       		.byte	0x77
 8959 27d4 00       		.sleb128 0
 8960 27d5 2E       		.uleb128 0x2e
 8961 27d6 01       		.byte	0x1
 8962 27d7 51       		.byte	0x51
 8963 27d8 01       		.byte	0x1
 8964 27d9 30       		.byte	0x30
 8965 27da 2E       		.uleb128 0x2e
 8966 27db 01       		.byte	0x1
 8967 27dc 52       		.byte	0x52
 8968 27dd 01       		.byte	0x1
 8969 27de 34       		.byte	0x34
 8970 27df 00       		.byte	0
 8971 27e0 2D       		.uleb128 0x2d
 8972 27e1 C6010000 		.4byte	.LVL182
 8973 27e5 D5310000 		.4byte	0x31d5
 8974 27e9 2E       		.uleb128 0x2e
 8975 27ea 01       		.byte	0x1
 8976 27eb 50       		.byte	0x50
 8977 27ec 03       		.byte	0x3
 8978 27ed 7B       		.byte	0x7b
 8979 27ee F006     		.sleb128 880
 8980 27f0 2E       		.uleb128 0x2e
 8981 27f1 01       		.byte	0x1
 8982 27f2 51       		.byte	0x51
 8983 27f3 02       		.byte	0x2
 8984 27f4 77       		.byte	0x77
 8985 27f5 00       		.sleb128 0
 8986 27f6 2E       		.uleb128 0x2e
 8987 27f7 01       		.byte	0x1
 8988 27f8 52       		.byte	0x52
 8989 27f9 01       		.byte	0x1
 8990 27fa 36       		.byte	0x36
 8991 27fb 00       		.byte	0
 8992 27fc 00       		.byte	0
 8993 27fd 0A       		.uleb128 0xa
 8994 27fe 04       		.byte	0x4
 8995 27ff 5C180000 		.4byte	0x185c
 8996 2803 0A       		.uleb128 0xa
 8997 2804 04       		.byte	0x4
 8998 2805 B1000000 		.4byte	0xb1
ARM GAS  C:\Users\EBANO_~1\AppData\Local\Temp\ccFRmLE5.s 			page 186


 8999 2809 39       		.uleb128 0x39
 9000 280a 01       		.byte	0x1
 9001 280b 7C210000 		.4byte	.LASF498
 9002 280f 01       		.byte	0x1
 9003 2810 CE02     		.2byte	0x2ce
 9004 2812 01       		.byte	0x1
 9005 2813 1A0B0000 		.4byte	0xb1a
 9006 2817 00000000 		.4byte	.LFB55
 9007 281b 2C010000 		.4byte	.LFE55
 9008 281f 7D110000 		.4byte	.LLST35
 9009 2823 01       		.byte	0x1
 9010 2824 A7290000 		.4byte	0x29a7
 9011 2828 2C       		.uleb128 0x2c
 9012 2829 291C0000 		.4byte	.LASF499
 9013 282d 01       		.byte	0x1
 9014 282e CE02     		.2byte	0x2ce
 9015 2830 A7290000 		.4byte	0x29a7
 9016 2834 B6110000 		.4byte	.LLST36
 9017 2838 2C       		.uleb128 0x2c
 9018 2839 95110000 		.4byte	.LASF500
 9019 283d 01       		.byte	0x1
 9020 283e CE02     		.2byte	0x2ce
 9021 2840 03280000 		.4byte	0x2803
 9022 2844 0E120000 		.4byte	.LLST37
 9023 2848 2C       		.uleb128 0x2c
 9024 2849 2D140000 		.4byte	.LASF501
 9025 284d 01       		.byte	0x1
 9026 284e CE02     		.2byte	0x2ce
 9027 2850 4C240000 		.4byte	0x244c
 9028 2854 42120000 		.4byte	.LLST38
 9029 2858 32       		.uleb128 0x32
 9030 2859 36050000 		.4byte	.LASF502
 9031 285d 01       		.byte	0x1
 9032 285e D002     		.2byte	0x2d0
 9033 2860 B1000000 		.4byte	0xb1
 9034 2864 79120000 		.4byte	.LLST39
 9035 2868 31       		.uleb128 0x31
 9036 2869 A7140000 		.4byte	.LASF492
 9037 286d 01       		.byte	0x1
 9038 286e D102     		.2byte	0x2d1
 9039 2870 B1000000 		.4byte	0xb1
 9040 2874 31       		.uleb128 0x31
 9041 2875 311A0000 		.4byte	.LASF503
 9042 2879 01       		.byte	0x1
 9043 287a D202     		.2byte	0x2d2
 9044 287c F2000000 		.4byte	0xf2
 9045 2880 32       		.uleb128 0x32
 9046 2881 BB060000 		.4byte	.LASF452
 9047 2885 01       		.byte	0x1
 9048 2886 D302     		.2byte	0x2d3
 9049 2888 B1000000 		.4byte	0xb1
 9050 288c 97120000 		.4byte	.LLST40
 9051 2890 33       		.uleb128 0x33
 9052 2891 842F0000 		.4byte	0x2f84
 9053 2895 26000000 		.4byte	.LBB37
 9054 2899 58000000 		.4byte	.Ldebug_ranges0+0x58
 9055 289d 01       		.byte	0x1
ARM GAS  C:\Users\EBANO_~1\AppData\Local\Temp\ccFRmLE5.s 			page 187


 9056 289e D102     		.2byte	0x2d1
 9057 28a0 F3280000 		.4byte	0x28f3
 9058 28a4 34       		.uleb128 0x34
 9059 28a5 B62F0000 		.4byte	0x2fb6
 9060 28a9 B6120000 		.4byte	.LLST41
 9061 28ad 34       		.uleb128 0x34
 9062 28ae AB2F0000 		.4byte	0x2fab
 9063 28b2 FE120000 		.4byte	.LLST42
 9064 28b6 34       		.uleb128 0x34
 9065 28b7 A02F0000 		.4byte	0x2fa0
 9066 28bb 4C130000 		.4byte	.LLST43
 9067 28bf 34       		.uleb128 0x34
 9068 28c0 952F0000 		.4byte	0x2f95
 9069 28c4 F4130000 		.4byte	.LLST44
 9070 28c8 35       		.uleb128 0x35
 9071 28c9 58000000 		.4byte	.Ldebug_ranges0+0x58
 9072 28cd 36       		.uleb128 0x36
 9073 28ce C12F0000 		.4byte	0x2fc1
 9074 28d2 6A140000 		.4byte	.LLST45
 9075 28d6 2D       		.uleb128 0x2d
 9076 28d7 D4000000 		.4byte	.LVL132
 9077 28db 65310000 		.4byte	0x3165
 9078 28df 2E       		.uleb128 0x2e
 9079 28e0 01       		.byte	0x1
 9080 28e1 50       		.byte	0x50
 9081 28e2 03       		.byte	0x3
 9082 28e3 76       		.byte	0x76
 9083 28e4 F006     		.sleb128 880
 9084 28e6 2E       		.uleb128 0x2e
 9085 28e7 01       		.byte	0x1
 9086 28e8 51       		.byte	0x51
 9087 28e9 01       		.byte	0x1
 9088 28ea 30       		.byte	0x30
 9089 28eb 2E       		.uleb128 0x2e
 9090 28ec 01       		.byte	0x1
 9091 28ed 52       		.byte	0x52
 9092 28ee 01       		.byte	0x1
 9093 28ef 34       		.byte	0x34
 9094 28f0 00       		.byte	0
 9095 28f1 00       		.byte	0
 9096 28f2 00       		.byte	0
 9097 28f3 33       		.uleb128 0x33
 9098 28f4 CD2F0000 		.4byte	0x2fcd
 9099 28f8 34000000 		.4byte	.LBB43
 9100 28fc 88000000 		.4byte	.Ldebug_ranges0+0x88
 9101 2900 01       		.byte	0x1
 9102 2901 D202     		.2byte	0x2d2
 9103 2903 11290000 		.4byte	0x2911
 9104 2907 34       		.uleb128 0x34
 9105 2908 DE2F0000 		.4byte	0x2fde
 9106 290c 80150000 		.4byte	.LLST46
 9107 2910 00       		.byte	0
 9108 2911 3F       		.uleb128 0x3f
 9109 2912 40000000 		.4byte	.LVL118
 9110 2916 73310000 		.4byte	0x3173
 9111 291a 25290000 		.4byte	0x2925
 9112 291e 2E       		.uleb128 0x2e
ARM GAS  C:\Users\EBANO_~1\AppData\Local\Temp\ccFRmLE5.s 			page 188


 9113 291f 01       		.byte	0x1
 9114 2920 50       		.byte	0x50
 9115 2921 02       		.byte	0x2
 9116 2922 75       		.byte	0x75
 9117 2923 00       		.sleb128 0
 9118 2924 00       		.byte	0
 9119 2925 45       		.uleb128 0x45
 9120 2926 54000000 		.4byte	.LVL120
 9121 292a 03       		.byte	0x3
 9122 292b 76       		.byte	0x76
 9123 292c 14       		.sleb128 20
 9124 292d 06       		.byte	0x6
 9125 292e 46       		.uleb128 0x46
 9126 292f 80000000 		.4byte	.LVL121
 9127 2933 02       		.byte	0x2
 9128 2934 77       		.byte	0x77
 9129 2935 00       		.sleb128 0
 9130 2936 84290000 		.4byte	0x2984
 9131 293a 2E       		.uleb128 0x2e
 9132 293b 01       		.byte	0x1
 9133 293c 50       		.byte	0x50
 9134 293d 01       		.byte	0x1
 9135 293e 31       		.byte	0x31
 9136 293f 2E       		.uleb128 0x2e
 9137 2940 01       		.byte	0x1
 9138 2941 51       		.byte	0x51
 9139 2942 02       		.byte	0x2
 9140 2943 7B       		.byte	0x7b
 9141 2944 00       		.sleb128 0
 9142 2945 2E       		.uleb128 0x2e
 9143 2946 01       		.byte	0x1
 9144 2947 52       		.byte	0x52
 9145 2948 01       		.byte	0x1
 9146 2949 30       		.byte	0x30
 9147 294a 2E       		.uleb128 0x2e
 9148 294b 02       		.byte	0x2
 9149 294c 7D       		.byte	0x7d
 9150 294d 00       		.sleb128 0
 9151 294e 02       		.byte	0x2
 9152 294f 7A       		.byte	0x7a
 9153 2950 00       		.sleb128 0
 9154 2951 2E       		.uleb128 0x2e
 9155 2952 02       		.byte	0x2
 9156 2953 7D       		.byte	0x7d
 9157 2954 04       		.sleb128 4
 9158 2955 01       		.byte	0x1
 9159 2956 31       		.byte	0x31
 9160 2957 2E       		.uleb128 0x2e
 9161 2958 02       		.byte	0x2
 9162 2959 7D       		.byte	0x7d
 9163 295a 08       		.sleb128 8
 9164 295b 01       		.byte	0x1
 9165 295c 38       		.byte	0x38
 9166 295d 2E       		.uleb128 0x2e
 9167 295e 02       		.byte	0x2
 9168 295f 7D       		.byte	0x7d
 9169 2960 0C       		.sleb128 12
ARM GAS  C:\Users\EBANO_~1\AppData\Local\Temp\ccFRmLE5.s 			page 189


 9170 2961 01       		.byte	0x1
 9171 2962 30       		.byte	0x30
 9172 2963 2E       		.uleb128 0x2e
 9173 2964 02       		.byte	0x2
 9174 2965 7D       		.byte	0x7d
 9175 2966 10       		.sleb128 16
 9176 2967 01       		.byte	0x1
 9177 2968 31       		.byte	0x31
 9178 2969 2E       		.uleb128 0x2e
 9179 296a 02       		.byte	0x2
 9180 296b 7D       		.byte	0x7d
 9181 296c 14       		.sleb128 20
 9182 296d 01       		.byte	0x1
 9183 296e 30       		.byte	0x30
 9184 296f 2E       		.uleb128 0x2e
 9185 2970 02       		.byte	0x2
 9186 2971 7D       		.byte	0x7d
 9187 2972 18       		.sleb128 24
 9188 2973 01       		.byte	0x1
 9189 2974 30       		.byte	0x30
 9190 2975 2E       		.uleb128 0x2e
 9191 2976 02       		.byte	0x2
 9192 2977 7D       		.byte	0x7d
 9193 2978 1C       		.sleb128 28
 9194 2979 01       		.byte	0x1
 9195 297a 30       		.byte	0x30
 9196 297b 2E       		.uleb128 0x2e
 9197 297c 02       		.byte	0x2
 9198 297d 7D       		.byte	0x7d
 9199 297e 20       		.sleb128 32
 9200 297f 03       		.byte	0x3
 9201 2980 0A       		.byte	0xa
 9202 2981 B80B     		.2byte	0xbb8
 9203 2983 00       		.byte	0
 9204 2984 46       		.uleb128 0x46
 9205 2985 8A000000 		.4byte	.LVL122
 9206 2989 03       		.byte	0x3
 9207 298a 91       		.byte	0x91
 9208 298b 54       		.sleb128 -44
 9209 298c 06       		.byte	0x6
 9210 298d 97290000 		.4byte	0x2997
 9211 2991 2E       		.uleb128 0x2e
 9212 2992 01       		.byte	0x1
 9213 2993 50       		.byte	0x50
 9214 2994 01       		.byte	0x1
 9215 2995 31       		.byte	0x31
 9216 2996 00       		.byte	0
 9217 2997 47       		.uleb128 0x47
 9218 2998 94000000 		.4byte	.LVL123
 9219 299c 03       		.byte	0x3
 9220 299d 91       		.byte	0x91
 9221 299e 54       		.sleb128 -44
 9222 299f 06       		.byte	0x6
 9223 29a0 2E       		.uleb128 0x2e
 9224 29a1 01       		.byte	0x1
 9225 29a2 50       		.byte	0x50
 9226 29a3 01       		.byte	0x1
ARM GAS  C:\Users\EBANO_~1\AppData\Local\Temp\ccFRmLE5.s 			page 190


 9227 29a4 31       		.byte	0x31
 9228 29a5 00       		.byte	0
 9229 29a6 00       		.byte	0
 9230 29a7 0A       		.uleb128 0xa
 9231 29a8 04       		.byte	0x4
 9232 29a9 CA170000 		.4byte	0x17ca
 9233 29ad 39       		.uleb128 0x39
 9234 29ae 01       		.byte	0x1
 9235 29af C61F0000 		.4byte	.LASF504
 9236 29b3 01       		.byte	0x1
 9237 29b4 A502     		.2byte	0x2a5
 9238 29b6 01       		.byte	0x1
 9239 29b7 1A0B0000 		.4byte	0xb1a
 9240 29bb 00000000 		.4byte	.LFB54
 9241 29bf C4000000 		.4byte	.LFE54
 9242 29c3 CC150000 		.4byte	.LLST28
 9243 29c7 01       		.byte	0x1
 9244 29c8 A52A0000 		.4byte	0x2aa5
 9245 29cc 2C       		.uleb128 0x2c
 9246 29cd 851A0000 		.4byte	.LASF505
 9247 29d1 01       		.byte	0x1
 9248 29d2 A502     		.2byte	0x2a5
 9249 29d4 A52A0000 		.4byte	0x2aa5
 9250 29d8 05160000 		.4byte	.LLST29
 9251 29dc 2C       		.uleb128 0x2c
 9252 29dd 6C050000 		.4byte	.LASF448
 9253 29e1 01       		.byte	0x1
 9254 29e2 A502     		.2byte	0x2a5
 9255 29e4 03280000 		.4byte	0x2803
 9256 29e8 3C160000 		.4byte	.LLST30
 9257 29ec 3B       		.uleb128 0x3b
 9258 29ed 647200   		.ascii	"dr\000"
 9259 29f0 01       		.byte	0x1
 9260 29f1 A702     		.2byte	0x2a7
 9261 29f3 B1000000 		.4byte	0xb1
 9262 29f7 73160000 		.4byte	.LLST31
 9263 29fb 32       		.uleb128 0x32
 9264 29fc CA140000 		.4byte	.LASF506
 9265 2a00 01       		.byte	0x1
 9266 2a01 A802     		.2byte	0x2a8
 9267 2a03 C1000000 		.4byte	0xc1
 9268 2a07 91160000 		.4byte	.LLST32
 9269 2a0b 32       		.uleb128 0x32
 9270 2a0c 36050000 		.4byte	.LASF502
 9271 2a10 01       		.byte	0x1
 9272 2a11 A902     		.2byte	0x2a9
 9273 2a13 B1000000 		.4byte	0xb1
 9274 2a17 C7160000 		.4byte	.LLST33
 9275 2a1b 32       		.uleb128 0x32
 9276 2a1c 13210000 		.4byte	.LASF453
 9277 2a20 01       		.byte	0x1
 9278 2a21 AA02     		.2byte	0x2aa
 9279 2a23 F2000000 		.4byte	0xf2
 9280 2a27 F1160000 		.4byte	.LLST34
 9281 2a2b 45       		.uleb128 0x45
 9282 2a2c 20000000 		.4byte	.LVL94
 9283 2a30 03       		.byte	0x3
ARM GAS  C:\Users\EBANO_~1\AppData\Local\Temp\ccFRmLE5.s 			page 191


 9284 2a31 75       		.byte	0x75
 9285 2a32 0C       		.sleb128 12
 9286 2a33 06       		.byte	0x6
 9287 2a34 46       		.uleb128 0x46
 9288 2a35 4E000000 		.4byte	.LVL98
 9289 2a39 03       		.byte	0x3
 9290 2a3a 91       		.byte	0x91
 9291 2a3b 5C       		.sleb128 -36
 9292 2a3c 06       		.byte	0x6
 9293 2a3d 482A0000 		.4byte	0x2a48
 9294 2a41 2E       		.uleb128 0x2e
 9295 2a42 01       		.byte	0x1
 9296 2a43 50       		.byte	0x50
 9297 2a44 02       		.byte	0x2
 9298 2a45 78       		.byte	0x78
 9299 2a46 00       		.sleb128 0
 9300 2a47 00       		.byte	0
 9301 2a48 46       		.uleb128 0x46
 9302 2a49 7C000000 		.4byte	.LVL99
 9303 2a4d 02       		.byte	0x2
 9304 2a4e 77       		.byte	0x77
 9305 2a4f 00       		.sleb128 0
 9306 2a50 952A0000 		.4byte	0x2a95
 9307 2a54 2E       		.uleb128 0x2e
 9308 2a55 01       		.byte	0x1
 9309 2a56 50       		.byte	0x50
 9310 2a57 01       		.byte	0x1
 9311 2a58 31       		.byte	0x31
 9312 2a59 2E       		.uleb128 0x2e
 9313 2a5a 01       		.byte	0x1
 9314 2a5b 52       		.byte	0x52
 9315 2a5c 02       		.byte	0x2
 9316 2a5d 79       		.byte	0x79
 9317 2a5e 00       		.sleb128 0
 9318 2a5f 2E       		.uleb128 0x2e
 9319 2a60 01       		.byte	0x1
 9320 2a61 53       		.byte	0x53
 9321 2a62 01       		.byte	0x1
 9322 2a63 31       		.byte	0x31
 9323 2a64 2E       		.uleb128 0x2e
 9324 2a65 02       		.byte	0x2
 9325 2a66 7D       		.byte	0x7d
 9326 2a67 00       		.sleb128 0
 9327 2a68 01       		.byte	0x1
 9328 2a69 30       		.byte	0x30
 9329 2a6a 2E       		.uleb128 0x2e
 9330 2a6b 02       		.byte	0x2
 9331 2a6c 7D       		.byte	0x7d
 9332 2a6d 04       		.sleb128 4
 9333 2a6e 01       		.byte	0x1
 9334 2a6f 38       		.byte	0x38
 9335 2a70 2E       		.uleb128 0x2e
 9336 2a71 02       		.byte	0x2
 9337 2a72 7D       		.byte	0x7d
 9338 2a73 0C       		.sleb128 12
 9339 2a74 01       		.byte	0x1
 9340 2a75 30       		.byte	0x30
ARM GAS  C:\Users\EBANO_~1\AppData\Local\Temp\ccFRmLE5.s 			page 192


 9341 2a76 2E       		.uleb128 0x2e
 9342 2a77 02       		.byte	0x2
 9343 2a78 7D       		.byte	0x7d
 9344 2a79 10       		.sleb128 16
 9345 2a7a 01       		.byte	0x1
 9346 2a7b 30       		.byte	0x30
 9347 2a7c 2E       		.uleb128 0x2e
 9348 2a7d 02       		.byte	0x2
 9349 2a7e 7D       		.byte	0x7d
 9350 2a7f 14       		.sleb128 20
 9351 2a80 01       		.byte	0x1
 9352 2a81 30       		.byte	0x30
 9353 2a82 2E       		.uleb128 0x2e
 9354 2a83 02       		.byte	0x2
 9355 2a84 7D       		.byte	0x7d
 9356 2a85 18       		.sleb128 24
 9357 2a86 01       		.byte	0x1
 9358 2a87 30       		.byte	0x30
 9359 2a88 2E       		.uleb128 0x2e
 9360 2a89 02       		.byte	0x2
 9361 2a8a 7D       		.byte	0x7d
 9362 2a8b 1C       		.sleb128 28
 9363 2a8c 01       		.byte	0x1
 9364 2a8d 30       		.byte	0x30
 9365 2a8e 2E       		.uleb128 0x2e
 9366 2a8f 02       		.byte	0x2
 9367 2a90 7D       		.byte	0x7d
 9368 2a91 20       		.sleb128 32
 9369 2a92 01       		.byte	0x1
 9370 2a93 31       		.byte	0x31
 9371 2a94 00       		.byte	0
 9372 2a95 47       		.uleb128 0x47
 9373 2a96 92000000 		.4byte	.LVL102
 9374 2a9a 03       		.byte	0x3
 9375 2a9b 91       		.byte	0x91
 9376 2a9c 5C       		.sleb128 -36
 9377 2a9d 06       		.byte	0x6
 9378 2a9e 2E       		.uleb128 0x2e
 9379 2a9f 01       		.byte	0x1
 9380 2aa0 50       		.byte	0x50
 9381 2aa1 01       		.byte	0x1
 9382 2aa2 31       		.byte	0x31
 9383 2aa3 00       		.byte	0
 9384 2aa4 00       		.byte	0
 9385 2aa5 0A       		.uleb128 0xa
 9386 2aa6 04       		.byte	0x4
 9387 2aa7 56170000 		.4byte	0x1756
 9388 2aab 2B       		.uleb128 0x2b
 9389 2aac 01       		.byte	0x1
 9390 2aad AF110000 		.4byte	.LASF507
 9391 2ab1 01       		.byte	0x1
 9392 2ab2 9802     		.2byte	0x298
 9393 2ab4 01       		.byte	0x1
 9394 2ab5 00000000 		.4byte	.LFB53
 9395 2ab9 80000000 		.4byte	.LFE53
 9396 2abd 1A170000 		.4byte	.LLST22
 9397 2ac1 01       		.byte	0x1
ARM GAS  C:\Users\EBANO_~1\AppData\Local\Temp\ccFRmLE5.s 			page 193


 9398 2ac2 632B0000 		.4byte	0x2b63
 9399 2ac6 2C       		.uleb128 0x2c
 9400 2ac7 6C050000 		.4byte	.LASF448
 9401 2acb 01       		.byte	0x1
 9402 2acc 9802     		.2byte	0x298
 9403 2ace B1000000 		.4byte	0xb1
 9404 2ad2 52170000 		.4byte	.LLST23
 9405 2ad6 2C       		.uleb128 0x2c
 9406 2ad7 6F150000 		.4byte	.LASF508
 9407 2adb 01       		.byte	0x1
 9408 2adc 9802     		.2byte	0x298
 9409 2ade C1000000 		.4byte	0xc1
 9410 2ae2 73170000 		.4byte	.LLST24
 9411 2ae6 2C       		.uleb128 0x2c
 9412 2ae7 A7190000 		.4byte	.LASF509
 9413 2aeb 01       		.byte	0x1
 9414 2aec 9802     		.2byte	0x298
 9415 2aee F2000000 		.4byte	0xf2
 9416 2af2 94170000 		.4byte	.LLST25
 9417 2af6 2C       		.uleb128 0x2c
 9418 2af7 AE0A0000 		.4byte	.LASF510
 9419 2afb 01       		.byte	0x1
 9420 2afc 9802     		.2byte	0x298
 9421 2afe A52A0000 		.4byte	0x2aa5
 9422 2b02 CB170000 		.4byte	.LLST26
 9423 2b06 32       		.uleb128 0x32
 9424 2b07 B91A0000 		.4byte	.LASF511
 9425 2b0b 01       		.byte	0x1
 9426 2b0c 9A02     		.2byte	0x29a
 9427 2b0e 632B0000 		.4byte	0x2b63
 9428 2b12 37180000 		.4byte	.LLST27
 9429 2b16 33       		.uleb128 0x33
 9430 2b17 CD2F0000 		.4byte	0x2fcd
 9431 2b1b 18000000 		.4byte	.LBB31
 9432 2b1f 38000000 		.4byte	.Ldebug_ranges0+0x38
 9433 2b23 01       		.byte	0x1
 9434 2b24 9E02     		.2byte	0x29e
 9435 2b26 302B0000 		.4byte	0x2b30
 9436 2b2a 48       		.uleb128 0x48
 9437 2b2b DE2F0000 		.4byte	0x2fde
 9438 2b2f 00       		.byte	0
 9439 2b30 37       		.uleb128 0x37
 9440 2b31 40000000 		.4byte	.LVL81
 9441 2b35 0D320000 		.4byte	0x320d
 9442 2b39 49       		.uleb128 0x49
 9443 2b3a 4C000000 		.4byte	.LVL83
 9444 2b3e 2D       		.uleb128 0x2d
 9445 2b3f 64000000 		.4byte	.LVL87
 9446 2b43 1B320000 		.4byte	0x321b
 9447 2b47 2E       		.uleb128 0x2e
 9448 2b48 01       		.byte	0x1
 9449 2b49 52       		.byte	0x52
 9450 2b4a 02       		.byte	0x2
 9451 2b4b 75       		.byte	0x75
 9452 2b4c 00       		.sleb128 0
 9453 2b4d 2E       		.uleb128 0x2e
 9454 2b4e 01       		.byte	0x1
ARM GAS  C:\Users\EBANO_~1\AppData\Local\Temp\ccFRmLE5.s 			page 194


 9455 2b4f 53       		.byte	0x53
 9456 2b50 02       		.byte	0x2
 9457 2b51 78       		.byte	0x78
 9458 2b52 00       		.sleb128 0
 9459 2b53 2E       		.uleb128 0x2e
 9460 2b54 02       		.byte	0x2
 9461 2b55 7D       		.byte	0x7d
 9462 2b56 04       		.sleb128 4
 9463 2b57 02       		.byte	0x2
 9464 2b58 74       		.byte	0x74
 9465 2b59 00       		.sleb128 0
 9466 2b5a 2E       		.uleb128 0x2e
 9467 2b5b 02       		.byte	0x2
 9468 2b5c 7D       		.byte	0x7d
 9469 2b5d 08       		.sleb128 8
 9470 2b5e 02       		.byte	0x2
 9471 2b5f 74       		.byte	0x74
 9472 2b60 04       		.sleb128 4
 9473 2b61 00       		.byte	0
 9474 2b62 00       		.byte	0
 9475 2b63 02       		.uleb128 0x2
 9476 2b64 08       		.byte	0x8
 9477 2b65 04       		.byte	0x4
 9478 2b66 3B1A0000 		.4byte	.LASF512
 9479 2b6a 39       		.uleb128 0x39
 9480 2b6b 01       		.byte	0x1
 9481 2b6c D9010000 		.4byte	.LASF513
 9482 2b70 01       		.byte	0x1
 9483 2b71 7302     		.2byte	0x273
 9484 2b73 01       		.byte	0x1
 9485 2b74 1A0B0000 		.4byte	0xb1a
 9486 2b78 00000000 		.4byte	.LFB52
 9487 2b7c 8C000000 		.4byte	.LFE52
 9488 2b80 77180000 		.4byte	.LLST19
 9489 2b84 01       		.byte	0x1
 9490 2b85 072C0000 		.4byte	0x2c07
 9491 2b89 2C       		.uleb128 0x2c
 9492 2b8a FD000000 		.4byte	.LASF514
 9493 2b8e 01       		.byte	0x1
 9494 2b8f 7302     		.2byte	0x273
 9495 2b91 072C0000 		.4byte	0x2c07
 9496 2b95 97180000 		.4byte	.LLST20
 9497 2b99 32       		.uleb128 0x32
 9498 2b9a B3080000 		.4byte	.LASF515
 9499 2b9e 01       		.byte	0x1
 9500 2b9f 7502     		.2byte	0x275
 9501 2ba1 C1000000 		.4byte	0xc1
 9502 2ba5 DC180000 		.4byte	.LLST21
 9503 2ba9 3A       		.uleb128 0x3a
 9504 2baa 18000000 		.4byte	.Ldebug_ranges0+0x18
 9505 2bae BD2B0000 		.4byte	0x2bbd
 9506 2bb2 4A       		.uleb128 0x4a
 9507 2bb3 6900     		.ascii	"i\000"
 9508 2bb5 01       		.byte	0x1
 9509 2bb6 8702     		.2byte	0x287
 9510 2bb8 C1000000 		.4byte	0xc1
 9511 2bbc 00       		.byte	0
ARM GAS  C:\Users\EBANO_~1\AppData\Local\Temp\ccFRmLE5.s 			page 195


 9512 2bbd 3F       		.uleb128 0x3f
 9513 2bbe 0E000000 		.4byte	.LVL65
 9514 2bc2 65310000 		.4byte	0x3165
 9515 2bc6 D52B0000 		.4byte	0x2bd5
 9516 2bca 2E       		.uleb128 0x2e
 9517 2bcb 01       		.byte	0x1
 9518 2bcc 51       		.byte	0x51
 9519 2bcd 01       		.byte	0x1
 9520 2bce 30       		.byte	0x30
 9521 2bcf 2E       		.uleb128 0x2e
 9522 2bd0 01       		.byte	0x1
 9523 2bd1 52       		.byte	0x52
 9524 2bd2 01       		.byte	0x1
 9525 2bd3 34       		.byte	0x34
 9526 2bd4 00       		.byte	0
 9527 2bd5 3F       		.uleb128 0x3f
 9528 2bd6 26000000 		.4byte	.LVL67
 9529 2bda D5310000 		.4byte	0x31d5
 9530 2bde F12B0000 		.4byte	0x2bf1
 9531 2be2 2E       		.uleb128 0x2e
 9532 2be3 01       		.byte	0x1
 9533 2be4 50       		.byte	0x50
 9534 2be5 05       		.byte	0x5
 9535 2be6 03       		.byte	0x3
 9536 2be7 88030000 		.4byte	NvmCtx+904
 9537 2beb 2E       		.uleb128 0x2e
 9538 2bec 01       		.byte	0x1
 9539 2bed 52       		.byte	0x52
 9540 2bee 01       		.byte	0x1
 9541 2bef 36       		.byte	0x36
 9542 2bf0 00       		.byte	0
 9543 2bf1 2D       		.uleb128 0x2d
 9544 2bf2 3A000000 		.4byte	.LVL73
 9545 2bf6 D5310000 		.4byte	0x31d5
 9546 2bfa 2E       		.uleb128 0x2e
 9547 2bfb 01       		.byte	0x1
 9548 2bfc 50       		.byte	0x50
 9549 2bfd 02       		.byte	0x2
 9550 2bfe 74       		.byte	0x74
 9551 2bff 00       		.sleb128 0
 9552 2c00 2E       		.uleb128 0x2e
 9553 2c01 01       		.byte	0x1
 9554 2c02 52       		.byte	0x52
 9555 2c03 01       		.byte	0x1
 9556 2c04 36       		.byte	0x36
 9557 2c05 00       		.byte	0
 9558 2c06 00       		.byte	0
 9559 2c07 0A       		.uleb128 0xa
 9560 2c08 04       		.byte	0x4
 9561 2c09 97160000 		.4byte	0x1697
 9562 2c0d 2B       		.uleb128 0x2b
 9563 2c0e 01       		.byte	0x1
 9564 2c0f 4B000000 		.4byte	.LASF516
 9565 2c13 01       		.byte	0x1
 9566 2c14 5702     		.2byte	0x257
 9567 2c16 01       		.byte	0x1
 9568 2c17 00000000 		.4byte	.LFB51
ARM GAS  C:\Users\EBANO_~1\AppData\Local\Temp\ccFRmLE5.s 			page 196


 9569 2c1b 94000000 		.4byte	.LFE51
 9570 2c1f 05190000 		.4byte	.LLST15
 9571 2c23 01       		.byte	0x1
 9572 2c24 632C0000 		.4byte	0x2c63
 9573 2c28 2C       		.uleb128 0x2c
 9574 2c29 4B060000 		.4byte	.LASF517
 9575 2c2d 01       		.byte	0x1
 9576 2c2e 5702     		.2byte	0x257
 9577 2c30 632C0000 		.4byte	0x2c63
 9578 2c34 25190000 		.4byte	.LLST16
 9579 2c38 4B       		.uleb128 0x4b
 9580 2c39 12000000 		.4byte	.LBB27
 9581 2c3d 94000000 		.4byte	.LBE27
 9582 2c41 32       		.uleb128 0x32
 9583 2c42 A4090000 		.4byte	.LASF518
 9584 2c46 01       		.byte	0x1
 9585 2c47 6602     		.2byte	0x266
 9586 2c49 C1000000 		.4byte	0xc1
 9587 2c4d 5F190000 		.4byte	.LLST17
 9588 2c51 32       		.uleb128 0x32
 9589 2c52 AF190000 		.4byte	.LASF519
 9590 2c56 01       		.byte	0x1
 9591 2c57 6602     		.2byte	0x266
 9592 2c59 C1000000 		.4byte	0xc1
 9593 2c5d AF190000 		.4byte	.LLST18
 9594 2c61 00       		.byte	0
 9595 2c62 00       		.byte	0
 9596 2c63 0A       		.uleb128 0xa
 9597 2c64 04       		.byte	0x4
 9598 2c65 5F160000 		.4byte	0x165f
 9599 2c69 39       		.uleb128 0x39
 9600 2c6a 01       		.byte	0x1
 9601 2c6b 530B0000 		.4byte	.LASF520
 9602 2c6f 01       		.byte	0x1
 9603 2c70 3802     		.2byte	0x238
 9604 2c72 01       		.byte	0x1
 9605 2c73 1A0B0000 		.4byte	0xb1a
 9606 2c77 00000000 		.4byte	.LFB50
 9607 2c7b 6C000000 		.4byte	.LFE50
 9608 2c7f FF190000 		.4byte	.LLST12
 9609 2c83 01       		.byte	0x1
 9610 2c84 052D0000 		.4byte	0x2d05
 9611 2c88 2C       		.uleb128 0x2c
 9612 2c89 88030000 		.4byte	.LASF521
 9613 2c8d 01       		.byte	0x1
 9614 2c8e 3802     		.2byte	0x238
 9615 2c90 052D0000 		.4byte	0x2d05
 9616 2c94 1F1A0000 		.4byte	.LLST13
 9617 2c98 2C       		.uleb128 0x2c
 9618 2c99 8E150000 		.4byte	.LASF522
 9619 2c9d 01       		.byte	0x1
 9620 2c9e 3802     		.2byte	0x238
 9621 2ca0 B7130000 		.4byte	0x13b7
 9622 2ca4 A41A0000 		.4byte	.LLST14
 9623 2ca8 3F       		.uleb128 0x3f
 9624 2ca9 1E000000 		.4byte	.LVL41
 9625 2cad 81310000 		.4byte	0x3181
ARM GAS  C:\Users\EBANO_~1\AppData\Local\Temp\ccFRmLE5.s 			page 197


 9626 2cb1 C02C0000 		.4byte	0x2cc0
 9627 2cb5 2E       		.uleb128 0x2e
 9628 2cb6 01       		.byte	0x1
 9629 2cb7 51       		.byte	0x51
 9630 2cb8 01       		.byte	0x1
 9631 2cb9 30       		.byte	0x30
 9632 2cba 2E       		.uleb128 0x2e
 9633 2cbb 01       		.byte	0x1
 9634 2cbc 52       		.byte	0x52
 9635 2cbd 01       		.byte	0x1
 9636 2cbe 3A       		.byte	0x3a
 9637 2cbf 00       		.byte	0
 9638 2cc0 3F       		.uleb128 0x3f
 9639 2cc1 32000000 		.4byte	.LVL44
 9640 2cc5 81310000 		.4byte	0x3181
 9641 2cc9 D82C0000 		.4byte	0x2cd8
 9642 2ccd 2E       		.uleb128 0x2e
 9643 2cce 01       		.byte	0x1
 9644 2ccf 51       		.byte	0x51
 9645 2cd0 01       		.byte	0x1
 9646 2cd1 38       		.byte	0x38
 9647 2cd2 2E       		.uleb128 0x2e
 9648 2cd3 01       		.byte	0x1
 9649 2cd4 52       		.byte	0x52
 9650 2cd5 01       		.byte	0x1
 9651 2cd6 3D       		.byte	0x3d
 9652 2cd7 00       		.byte	0
 9653 2cd8 3F       		.uleb128 0x3f
 9654 2cd9 46000000 		.4byte	.LVL47
 9655 2cdd 81310000 		.4byte	0x3181
 9656 2ce1 F02C0000 		.4byte	0x2cf0
 9657 2ce5 2E       		.uleb128 0x2e
 9658 2ce6 01       		.byte	0x1
 9659 2ce7 51       		.byte	0x51
 9660 2ce8 01       		.byte	0x1
 9661 2ce9 30       		.byte	0x30
 9662 2cea 2E       		.uleb128 0x2e
 9663 2ceb 01       		.byte	0x1
 9664 2cec 52       		.byte	0x52
 9665 2ced 01       		.byte	0x1
 9666 2cee 35       		.byte	0x35
 9667 2cef 00       		.byte	0
 9668 2cf0 2D       		.uleb128 0x2d
 9669 2cf1 5A000000 		.4byte	.LVL50
 9670 2cf5 81310000 		.4byte	0x3181
 9671 2cf9 2E       		.uleb128 0x2e
 9672 2cfa 01       		.byte	0x1
 9673 2cfb 51       		.byte	0x51
 9674 2cfc 01       		.byte	0x1
 9675 2cfd 30       		.byte	0x30
 9676 2cfe 2E       		.uleb128 0x2e
 9677 2cff 01       		.byte	0x1
 9678 2d00 52       		.byte	0x52
 9679 2d01 01       		.byte	0x1
 9680 2d02 34       		.byte	0x34
 9681 2d03 00       		.byte	0
 9682 2d04 00       		.byte	0
ARM GAS  C:\Users\EBANO_~1\AppData\Local\Temp\ccFRmLE5.s 			page 198


 9683 2d05 0A       		.uleb128 0xa
 9684 2d06 04       		.byte	0x4
 9685 2d07 27160000 		.4byte	0x1627
 9686 2d0b 2F       		.uleb128 0x2f
 9687 2d0c 01       		.byte	0x1
 9688 2d0d E11A0000 		.4byte	.LASF523
 9689 2d11 01       		.byte	0x1
 9690 2d12 3202     		.2byte	0x232
 9691 2d14 01       		.byte	0x1
 9692 2d15 87010000 		.4byte	0x187
 9693 2d19 00000000 		.4byte	.LFB49
 9694 2d1d 10000000 		.4byte	.LFE49
 9695 2d21 02       		.byte	0x2
 9696 2d22 7D       		.byte	0x7d
 9697 2d23 00       		.sleb128 0
 9698 2d24 01       		.byte	0x1
 9699 2d25 3A2D0000 		.4byte	0x2d3a
 9700 2d29 2C       		.uleb128 0x2c
 9701 2d2a 380F0000 		.4byte	.LASF524
 9702 2d2e 01       		.byte	0x1
 9703 2d2f 3202     		.2byte	0x232
 9704 2d31 3A2D0000 		.4byte	0x2d3a
 9705 2d35 C51A0000 		.4byte	.LLST11
 9706 2d39 00       		.byte	0
 9707 2d3a 0A       		.uleb128 0xa
 9708 2d3b 04       		.byte	0x4
 9709 2d3c AE150000 		.4byte	0x15ae
 9710 2d40 2B       		.uleb128 0x2b
 9711 2d41 01       		.byte	0x1
 9712 2d42 78130000 		.4byte	.LASF525
 9713 2d46 01       		.byte	0x1
 9714 2d47 E501     		.2byte	0x1e5
 9715 2d49 01       		.byte	0x1
 9716 2d4a 00000000 		.4byte	.LFB48
 9717 2d4e 6C010000 		.4byte	.LFE48
 9718 2d52 E61A0000 		.4byte	.LLST7
 9719 2d56 01       		.byte	0x1
 9720 2d57 5F2E0000 		.4byte	0x2e5f
 9721 2d5b 2C       		.uleb128 0x2c
 9722 2d5c 380F0000 		.4byte	.LASF524
 9723 2d60 01       		.byte	0x1
 9724 2d61 E501     		.2byte	0x1e5
 9725 2d63 5F2E0000 		.4byte	0x2e5f
 9726 2d67 121B0000 		.4byte	.LLST8
 9727 2d6b 2A       		.uleb128 0x2a
 9728 2d6c CA150000 		.4byte	.LASF526
 9729 2d70 01       		.byte	0x1
 9730 2d71 E701     		.2byte	0x1e7
 9731 2d73 F81E0000 		.4byte	0x1ef8
 9732 2d77 02       		.byte	0x2
 9733 2d78 91       		.byte	0x91
 9734 2d79 60       		.sleb128 -32
 9735 2d7a 3A       		.uleb128 0x3a
 9736 2d7b 00000000 		.4byte	.Ldebug_ranges0+0
 9737 2d7f 922D0000 		.4byte	0x2d92
 9738 2d83 3B       		.uleb128 0x3b
 9739 2d84 6900     		.ascii	"i\000"
ARM GAS  C:\Users\EBANO_~1\AppData\Local\Temp\ccFRmLE5.s 			page 199


 9740 2d86 01       		.byte	0x1
 9741 2d87 FB01     		.2byte	0x1fb
 9742 2d89 C1000000 		.4byte	0xc1
 9743 2d8d 651B0000 		.4byte	.LLST9
 9744 2d91 00       		.byte	0
 9745 2d92 4C       		.uleb128 0x4c
 9746 2d93 64000000 		.4byte	.LBB25
 9747 2d97 BC000000 		.4byte	.LBE25
 9748 2d9b AE2D0000 		.4byte	0x2dae
 9749 2d9f 3B       		.uleb128 0x3b
 9750 2da0 6900     		.ascii	"i\000"
 9751 2da2 01       		.byte	0x1
 9752 2da3 0202     		.2byte	0x202
 9753 2da5 C1000000 		.4byte	0xc1
 9754 2da9 791B0000 		.4byte	.LLST10
 9755 2dad 00       		.byte	0
 9756 2dae 4C       		.uleb128 0x4c
 9757 2daf FC000000 		.4byte	.LBB26
 9758 2db3 6C010000 		.4byte	.LBE26
 9759 2db7 C62D0000 		.4byte	0x2dc6
 9760 2dbb 4A       		.uleb128 0x4a
 9761 2dbc 6900     		.ascii	"i\000"
 9762 2dbe 01       		.byte	0x1
 9763 2dbf 2502     		.2byte	0x225
 9764 2dc1 C1000000 		.4byte	0xc1
 9765 2dc5 00       		.byte	0
 9766 2dc6 3F       		.uleb128 0x3f
 9767 2dc7 32000000 		.4byte	.LVL15
 9768 2dcb 29320000 		.4byte	0x3229
 9769 2dcf E42D0000 		.4byte	0x2de4
 9770 2dd3 2E       		.uleb128 0x2e
 9771 2dd4 01       		.byte	0x1
 9772 2dd5 50       		.byte	0x50
 9773 2dd6 05       		.byte	0x5
 9774 2dd7 03       		.byte	0x3
 9775 2dd8 00000000 		.4byte	NvmCtx
 9776 2ddc 2E       		.uleb128 0x2e
 9777 2ddd 01       		.byte	0x1
 9778 2dde 52       		.byte	0x52
 9779 2ddf 03       		.byte	0x3
 9780 2de0 0A       		.byte	0xa
 9781 2de1 9803     		.2byte	0x398
 9782 2de3 00       		.byte	0
 9783 2de4 3F       		.uleb128 0x3f
 9784 2de5 42000000 		.4byte	.LVL18
 9785 2de9 29320000 		.4byte	0x3229
 9786 2ded 032E0000 		.4byte	0x2e03
 9787 2df1 2E       		.uleb128 0x2e
 9788 2df2 01       		.byte	0x1
 9789 2df3 50       		.byte	0x50
 9790 2df4 02       		.byte	0x2
 9791 2df5 74       		.byte	0x74
 9792 2df6 00       		.sleb128 0
 9793 2df7 2E       		.uleb128 0x2e
 9794 2df8 01       		.byte	0x1
 9795 2df9 51       		.byte	0x51
 9796 2dfa 02       		.byte	0x2
ARM GAS  C:\Users\EBANO_~1\AppData\Local\Temp\ccFRmLE5.s 			page 200


 9797 2dfb 7D       		.byte	0x7d
 9798 2dfc 00       		.sleb128 0
 9799 2dfd 2E       		.uleb128 0x2e
 9800 2dfe 01       		.byte	0x1
 9801 2dff 52       		.byte	0x52
 9802 2e00 01       		.byte	0x1
 9803 2e01 40       		.byte	0x40
 9804 2e02 00       		.byte	0
 9805 2e03 3F       		.uleb128 0x3f
 9806 2e04 DE000000 		.4byte	.LVL30
 9807 2e08 D5310000 		.4byte	0x31d5
 9808 2e0c 232E0000 		.4byte	0x2e23
 9809 2e10 2E       		.uleb128 0x2e
 9810 2e11 01       		.byte	0x1
 9811 2e12 50       		.byte	0x50
 9812 2e13 02       		.byte	0x2
 9813 2e14 75       		.byte	0x75
 9814 2e15 00       		.sleb128 0
 9815 2e16 2E       		.uleb128 0x2e
 9816 2e17 01       		.byte	0x1
 9817 2e18 51       		.byte	0x51
 9818 2e19 03       		.byte	0x3
 9819 2e1a 74       		.byte	0x74
 9820 2e1b 8807     		.sleb128 904
 9821 2e1d 2E       		.uleb128 0x2e
 9822 2e1e 01       		.byte	0x1
 9823 2e1f 52       		.byte	0x52
 9824 2e20 01       		.byte	0x1
 9825 2e21 36       		.byte	0x36
 9826 2e22 00       		.byte	0
 9827 2e23 3F       		.uleb128 0x3f
 9828 2e24 EC000000 		.4byte	.LVL31
 9829 2e28 D5310000 		.4byte	0x31d5
 9830 2e2c 432E0000 		.4byte	0x2e43
 9831 2e30 2E       		.uleb128 0x2e
 9832 2e31 01       		.byte	0x1
 9833 2e32 50       		.byte	0x50
 9834 2e33 03       		.byte	0x3
 9835 2e34 74       		.byte	0x74
 9836 2e35 FC06     		.sleb128 892
 9837 2e37 2E       		.uleb128 0x2e
 9838 2e38 01       		.byte	0x1
 9839 2e39 51       		.byte	0x51
 9840 2e3a 02       		.byte	0x2
 9841 2e3b 75       		.byte	0x75
 9842 2e3c 00       		.sleb128 0
 9843 2e3d 2E       		.uleb128 0x2e
 9844 2e3e 01       		.byte	0x1
 9845 2e3f 52       		.byte	0x52
 9846 2e40 01       		.byte	0x1
 9847 2e41 36       		.byte	0x36
 9848 2e42 00       		.byte	0
 9849 2e43 2D       		.uleb128 0x2d
 9850 2e44 FC000000 		.4byte	.LVL34
 9851 2e48 D5310000 		.4byte	0x31d5
 9852 2e4c 2E       		.uleb128 0x2e
 9853 2e4d 01       		.byte	0x1
ARM GAS  C:\Users\EBANO_~1\AppData\Local\Temp\ccFRmLE5.s 			page 201


 9854 2e4e 50       		.byte	0x50
 9855 2e4f 02       		.byte	0x2
 9856 2e50 74       		.byte	0x74
 9857 2e51 68       		.sleb128 -24
 9858 2e52 2E       		.uleb128 0x2e
 9859 2e53 01       		.byte	0x1
 9860 2e54 51       		.byte	0x51
 9861 2e55 02       		.byte	0x2
 9862 2e56 74       		.byte	0x74
 9863 2e57 00       		.sleb128 0
 9864 2e58 2E       		.uleb128 0x2e
 9865 2e59 01       		.byte	0x1
 9866 2e5a 52       		.byte	0x52
 9867 2e5b 01       		.byte	0x1
 9868 2e5c 36       		.byte	0x36
 9869 2e5d 00       		.byte	0
 9870 2e5e 00       		.byte	0
 9871 2e5f 0A       		.uleb128 0xa
 9872 2e60 04       		.byte	0x4
 9873 2e61 85150000 		.4byte	0x1585
 9874 2e65 2B       		.uleb128 0x2b
 9875 2e66 01       		.byte	0x1
 9876 2e67 3D100000 		.4byte	.LASF527
 9877 2e6b 01       		.byte	0x1
 9878 2e6c E001     		.2byte	0x1e0
 9879 2e6e 01       		.byte	0x1
 9880 2e6f 00000000 		.4byte	.LFB47
 9881 2e73 24000000 		.4byte	.LFE47
 9882 2e77 F61B0000 		.4byte	.LLST5
 9883 2e7b 01       		.byte	0x1
 9884 2e7c 9A2E0000 		.4byte	0x2e9a
 9885 2e80 2C       		.uleb128 0x2c
 9886 2e81 D6050000 		.4byte	.LASF528
 9887 2e85 01       		.byte	0x1
 9888 2e86 E001     		.2byte	0x1e0
 9889 2e88 9A2E0000 		.4byte	0x2e9a
 9890 2e8c 161C0000 		.4byte	.LLST6
 9891 2e90 37       		.uleb128 0x37
 9892 2e91 1E000000 		.4byte	.LVL12
 9893 2e95 36320000 		.4byte	0x3236
 9894 2e99 00       		.byte	0
 9895 2e9a 0A       		.uleb128 0xa
 9896 2e9b 04       		.byte	0x4
 9897 2e9c 4D150000 		.4byte	0x154d
 9898 2ea0 43       		.uleb128 0x43
 9899 2ea1 01       		.byte	0x1
 9900 2ea2 31110000 		.4byte	.LASF530
 9901 2ea6 01       		.byte	0x1
 9902 2ea7 2401     		.2byte	0x124
 9903 2ea9 01       		.byte	0x1
 9904 2eaa B0140000 		.4byte	0x14b0
 9905 2eae 01       		.byte	0x1
 9906 2eaf CC2E0000 		.4byte	0x2ecc
 9907 2eb3 42       		.uleb128 0x42
 9908 2eb4 5F190000 		.4byte	.LASF493
 9909 2eb8 01       		.byte	0x1
 9910 2eb9 2401     		.2byte	0x124
ARM GAS  C:\Users\EBANO_~1\AppData\Local\Temp\ccFRmLE5.s 			page 202


 9911 2ebb CC2E0000 		.4byte	0x2ecc
 9912 2ebf 31       		.uleb128 0x31
 9913 2ec0 C8040000 		.4byte	.LASF494
 9914 2ec4 01       		.byte	0x1
 9915 2ec5 2601     		.2byte	0x126
 9916 2ec7 B0140000 		.4byte	0x14b0
 9917 2ecb 00       		.byte	0
 9918 2ecc 0A       		.uleb128 0xa
 9919 2ecd 04       		.byte	0x4
 9920 2ece 06150000 		.4byte	0x1506
 9921 2ed2 4D       		.uleb128 0x4d
 9922 2ed3 53090000 		.4byte	.LASF533
 9923 2ed7 01       		.byte	0x1
 9924 2ed8 0201     		.2byte	0x102
 9925 2eda 01       		.byte	0x1
 9926 2edb C1000000 		.4byte	0xc1
 9927 2edf 01       		.byte	0x1
 9928 2ee0 672F0000 		.4byte	0x2f67
 9929 2ee4 42       		.uleb128 0x42
 9930 2ee5 6C050000 		.4byte	.LASF448
 9931 2ee9 01       		.byte	0x1
 9932 2eea 0201     		.2byte	0x102
 9933 2eec C1000000 		.4byte	0xc1
 9934 2ef0 42       		.uleb128 0x42
 9935 2ef1 D5140000 		.4byte	.LASF491
 9936 2ef5 01       		.byte	0x1
 9937 2ef6 0201     		.2byte	0x102
 9938 2ef8 9A110000 		.4byte	0x119a
 9939 2efc 42       		.uleb128 0x42
 9940 2efd 2A1E0000 		.4byte	.LASF531
 9941 2f01 01       		.byte	0x1
 9942 2f02 0201     		.2byte	0x102
 9943 2f04 94110000 		.4byte	0x1194
 9944 2f08 42       		.uleb128 0x42
 9945 2f09 CA150000 		.4byte	.LASF526
 9946 2f0d 01       		.byte	0x1
 9947 2f0e 0201     		.2byte	0x102
 9948 2f10 591D0000 		.4byte	0x1d59
 9949 2f14 42       		.uleb128 0x42
 9950 2f15 C91A0000 		.4byte	.LASF466
 9951 2f19 01       		.byte	0x1
 9952 2f1a 0201     		.2byte	0x102
 9953 2f1c 890A0000 		.4byte	0xa89
 9954 2f20 42       		.uleb128 0x42
 9955 2f21 5F070000 		.4byte	.LASF465
 9956 2f25 01       		.byte	0x1
 9957 2f26 0201     		.2byte	0x102
 9958 2f28 890A0000 		.4byte	0xa89
 9959 2f2c 31       		.uleb128 0x31
 9960 2f2d D9160000 		.4byte	.LASF464
 9961 2f31 01       		.byte	0x1
 9962 2f32 0401     		.2byte	0x104
 9963 2f34 C1000000 		.4byte	0xc1
 9964 2f38 31       		.uleb128 0x31
 9965 2f39 D31D0000 		.4byte	.LASF532
 9966 2f3d 01       		.byte	0x1
 9967 2f3e 0501     		.2byte	0x105
ARM GAS  C:\Users\EBANO_~1\AppData\Local\Temp\ccFRmLE5.s 			page 203


 9968 2f40 C1000000 		.4byte	0xc1
 9969 2f44 4E       		.uleb128 0x4e
 9970 2f45 4A       		.uleb128 0x4a
 9971 2f46 6900     		.ascii	"i\000"
 9972 2f48 01       		.byte	0x1
 9973 2f49 0701     		.2byte	0x107
 9974 2f4b C1000000 		.4byte	0xc1
 9975 2f4f 4A       		.uleb128 0x4a
 9976 2f50 6B00     		.ascii	"k\000"
 9977 2f52 01       		.byte	0x1
 9978 2f53 0701     		.2byte	0x107
 9979 2f55 C1000000 		.4byte	0xc1
 9980 2f59 4E       		.uleb128 0x4e
 9981 2f5a 4A       		.uleb128 0x4a
 9982 2f5b 6A00     		.ascii	"j\000"
 9983 2f5d 01       		.byte	0x1
 9984 2f5e 0901     		.2byte	0x109
 9985 2f60 C1000000 		.4byte	0xc1
 9986 2f64 00       		.byte	0
 9987 2f65 00       		.byte	0
 9988 2f66 00       		.byte	0
 9989 2f67 4F       		.uleb128 0x4f
 9990 2f68 51150000 		.4byte	.LASF534
 9991 2f6c 01       		.byte	0x1
 9992 2f6d EA       		.byte	0xea
 9993 2f6e 01       		.byte	0x1
 9994 2f6f 1A0B0000 		.4byte	0xb1a
 9995 2f73 01       		.byte	0x1
 9996 2f74 842F0000 		.4byte	0x2f84
 9997 2f78 50       		.uleb128 0x50
 9998 2f79 7C040000 		.4byte	.LASF535
 9999 2f7d 01       		.byte	0x1
 10000 2f7e EA       		.byte	0xea
 10001 2f7f F2000000 		.4byte	0xf2
 10002 2f83 00       		.byte	0
 10003 2f84 4F       		.uleb128 0x4f
 10004 2f85 47130000 		.4byte	.LASF536
 10005 2f89 01       		.byte	0x1
 10006 2f8a D5       		.byte	0xd5
 10007 2f8b 01       		.byte	0x1
 10008 2f8c B1000000 		.4byte	0xb1
 10009 2f90 01       		.byte	0x1
 10010 2f91 CD2F0000 		.4byte	0x2fcd
 10011 2f95 50       		.uleb128 0x50
 10012 2f96 95110000 		.4byte	.LASF500
 10013 2f9a 01       		.byte	0x1
 10014 2f9b D5       		.byte	0xd5
 10015 2f9c B1000000 		.4byte	0xb1
 10016 2fa0 50       		.uleb128 0x50
 10017 2fa1 690A0000 		.4byte	.LASF537
 10018 2fa5 01       		.byte	0x1
 10019 2fa6 D5       		.byte	0xd5
 10020 2fa7 B1000000 		.4byte	0xb1
 10021 2fab 50       		.uleb128 0x50
 10022 2fac 6C050000 		.4byte	.LASF448
 10023 2fb0 01       		.byte	0x1
 10024 2fb1 D5       		.byte	0xd5
ARM GAS  C:\Users\EBANO_~1\AppData\Local\Temp\ccFRmLE5.s 			page 204


 10025 2fb2 B1000000 		.4byte	0xb1
 10026 2fb6 50       		.uleb128 0x50
 10027 2fb7 D5140000 		.4byte	.LASF491
 10028 2fbb 01       		.byte	0x1
 10029 2fbc D5       		.byte	0xd5
 10030 2fbd 9A110000 		.4byte	0x119a
 10031 2fc1 51       		.uleb128 0x51
 10032 2fc2 26040000 		.4byte	.LASF538
 10033 2fc6 01       		.byte	0x1
 10034 2fc7 D7       		.byte	0xd7
 10035 2fc8 B1000000 		.4byte	0xb1
 10036 2fcc 00       		.byte	0
 10037 2fcd 4F       		.uleb128 0x4f
 10038 2fce 9C170000 		.4byte	.LASF539
 10039 2fd2 01       		.byte	0x1
 10040 2fd3 C7       		.byte	0xc7
 10041 2fd4 01       		.byte	0x1
 10042 2fd5 F2000000 		.4byte	0xf2
 10043 2fd9 01       		.byte	0x1
 10044 2fda EA2F0000 		.4byte	0x2fea
 10045 2fde 50       		.uleb128 0x50
 10046 2fdf CF0B0000 		.4byte	.LASF540
 10047 2fe3 01       		.byte	0x1
 10048 2fe4 C7       		.byte	0xc7
 10049 2fe5 F2000000 		.4byte	0xf2
 10050 2fe9 00       		.byte	0
 10051 2fea 4F       		.uleb128 0x4f
 10052 2feb A81C0000 		.4byte	.LASF541
 10053 2fef 01       		.byte	0x1
 10054 2ff0 8E       		.byte	0x8e
 10055 2ff1 01       		.byte	0x1
 10056 2ff2 3D120000 		.4byte	0x123d
 10057 2ff6 01       		.byte	0x1
 10058 2ff7 3E300000 		.4byte	0x303e
 10059 2ffb 50       		.uleb128 0x50
 10060 2ffc 6E160000 		.4byte	.LASF468
 10061 3000 01       		.byte	0x1
 10062 3001 8E       		.byte	0x8e
 10063 3002 890A0000 		.4byte	0xa89
 10064 3006 51       		.uleb128 0x51
 10065 3007 561D0000 		.4byte	.LASF542
 10066 300b 01       		.byte	0x1
 10067 300c 90       		.byte	0x90
 10068 300d C1000000 		.4byte	0xc1
 10069 3011 51       		.uleb128 0x51
 10070 3012 67010000 		.4byte	.LASF543
 10071 3016 01       		.byte	0x1
 10072 3017 91       		.byte	0x91
 10073 3018 DC000000 		.4byte	0xdc
 10074 301c 51       		.uleb128 0x51
 10075 301d 5C1B0000 		.4byte	.LASF544
 10076 3021 01       		.byte	0x1
 10077 3022 92       		.byte	0x92
 10078 3023 3E300000 		.4byte	0x303e
 10079 3027 51       		.uleb128 0x51
 10080 3028 9A0E0000 		.4byte	.LASF545
 10081 302c 01       		.byte	0x1
ARM GAS  C:\Users\EBANO_~1\AppData\Local\Temp\ccFRmLE5.s 			page 205


 10082 302d 93       		.byte	0x93
 10083 302e C1000000 		.4byte	0xc1
 10084 3032 51       		.uleb128 0x51
 10085 3033 561E0000 		.4byte	.LASF546
 10086 3037 01       		.byte	0x1
 10087 3038 94       		.byte	0x94
 10088 3039 C1000000 		.4byte	0xc1
 10089 303d 00       		.byte	0
 10090 303e 07       		.uleb128 0x7
 10091 303f C1000000 		.4byte	0xc1
 10092 3043 4E300000 		.4byte	0x304e
 10093 3047 08       		.uleb128 0x8
 10094 3048 AA000000 		.4byte	0xaa
 10095 304c 07       		.byte	0x7
 10096 304d 00       		.byte	0
 10097 304e 4F       		.uleb128 0x4f
 10098 304f D1040000 		.4byte	.LASF547
 10099 3053 01       		.byte	0x1
 10100 3054 6E       		.byte	0x6e
 10101 3055 01       		.byte	0x1
 10102 3056 3D120000 		.4byte	0x123d
 10103 305a 01       		.byte	0x1
 10104 305b 8C300000 		.4byte	0x308c
 10105 305f 50       		.uleb128 0x50
 10106 3060 5C1B0000 		.4byte	.LASF544
 10107 3064 01       		.byte	0x1
 10108 3065 6E       		.byte	0x6e
 10109 3066 890A0000 		.4byte	0xa89
 10110 306a 50       		.uleb128 0x50
 10111 306b 67010000 		.4byte	.LASF543
 10112 306f 01       		.byte	0x1
 10113 3070 6E       		.byte	0x6e
 10114 3071 DC000000 		.4byte	0xdc
 10115 3075 50       		.uleb128 0x50
 10116 3076 9A0E0000 		.4byte	.LASF545
 10117 307a 01       		.byte	0x1
 10118 307b 6E       		.byte	0x6e
 10119 307c 890A0000 		.4byte	0xa89
 10120 3080 4E       		.uleb128 0x4e
 10121 3081 52       		.uleb128 0x52
 10122 3082 6900     		.ascii	"i\000"
 10123 3084 01       		.byte	0x1
 10124 3085 78       		.byte	0x78
 10125 3086 C1000000 		.4byte	0xc1
 10126 308a 00       		.byte	0
 10127 308b 00       		.byte	0
 10128 308c 4F       		.uleb128 0x4f
 10129 308d 620F0000 		.4byte	.LASF548
 10130 3091 01       		.byte	0x1
 10131 3092 54       		.byte	0x54
 10132 3093 01       		.byte	0x1
 10133 3094 B1000000 		.4byte	0xb1
 10134 3098 01       		.byte	0x1
 10135 3099 BE300000 		.4byte	0x30be
 10136 309d 53       		.uleb128 0x53
 10137 309e 647200   		.ascii	"dr\000"
 10138 30a1 01       		.byte	0x1
ARM GAS  C:\Users\EBANO_~1\AppData\Local\Temp\ccFRmLE5.s 			page 206


 10139 30a2 54       		.byte	0x54
 10140 30a3 B1000000 		.4byte	0xb1
 10141 30a7 50       		.uleb128 0x50
 10142 30a8 C10E0000 		.4byte	.LASF549
 10143 30ac 01       		.byte	0x1
 10144 30ad 54       		.byte	0x54
 10145 30ae B1000000 		.4byte	0xb1
 10146 30b2 51       		.uleb128 0x51
 10147 30b3 B91E0000 		.4byte	.LASF550
 10148 30b7 01       		.byte	0x1
 10149 30b8 56       		.byte	0x56
 10150 30b9 C1000000 		.4byte	0xc1
 10151 30bd 00       		.byte	0
 10152 30be 54       		.uleb128 0x54
 10153 30bf A02E0000 		.4byte	0x2ea0
 10154 30c3 00000000 		.4byte	.LFB46
 10155 30c7 08010000 		.4byte	.LFE46
 10156 30cb 371C0000 		.4byte	.LLST0
 10157 30cf 01       		.byte	0x1
 10158 30d0 38310000 		.4byte	0x3138
 10159 30d4 34       		.uleb128 0x34
 10160 30d5 B32E0000 		.4byte	0x2eb3
 10161 30d9 631C0000 		.4byte	.LLST1
 10162 30dd 3D       		.uleb128 0x3d
 10163 30de BF2E0000 		.4byte	0x2ebf
 10164 30e2 02       		.byte	0x2
 10165 30e3 91       		.byte	0x91
 10166 30e4 70       		.sleb128 -16
 10167 30e5 55       		.uleb128 0x55
 10168 30e6 8C300000 		.4byte	0x308c
 10169 30ea 30000000 		.4byte	.LBB21
 10170 30ee 3A000000 		.4byte	.LBE21
 10171 30f2 01       		.byte	0x1
 10172 30f3 3B01     		.2byte	0x13b
 10173 30f5 1F310000 		.4byte	0x311f
 10174 30f9 34       		.uleb128 0x34
 10175 30fa A7300000 		.4byte	0x30a7
 10176 30fe A81C0000 		.4byte	.LLST2
 10177 3102 34       		.uleb128 0x34
 10178 3103 9D300000 		.4byte	0x309d
 10179 3107 BC1C0000 		.4byte	.LLST3
 10180 310b 4B       		.uleb128 0x4b
 10181 310c 30000000 		.4byte	.LBB22
 10182 3110 3A000000 		.4byte	.LBE22
 10183 3114 36       		.uleb128 0x36
 10184 3115 B2300000 		.4byte	0x30b2
 10185 3119 DC1C0000 		.4byte	.LLST4
 10186 311d 00       		.byte	0
 10187 311e 00       		.byte	0
 10188 311f 2D       		.uleb128 0x2d
 10189 3120 96000000 		.4byte	.LVL8
 10190 3124 9F310000 		.4byte	0x319f
 10191 3128 2E       		.uleb128 0x2e
 10192 3129 01       		.byte	0x1
 10193 312a 50       		.byte	0x50
 10194 312b 03       		.byte	0x3
 10195 312c 0B       		.byte	0xb
ARM GAS  C:\Users\EBANO_~1\AppData\Local\Temp\ccFRmLE5.s 			page 207


 10196 312d 18FC     		.2byte	0xfc18
 10197 312f 2E       		.uleb128 0x2e
 10198 3130 01       		.byte	0x1
 10199 3131 51       		.byte	0x51
 10200 3132 03       		.byte	0x3
 10201 3133 0A       		.byte	0xa
 10202 3134 E803     		.2byte	0x3e8
 10203 3136 00       		.byte	0
 10204 3137 00       		.byte	0
 10205 3138 56       		.uleb128 0x56
 10206 3139 4D250000 		.4byte	0x254d
 10207 313d 00000000 		.4byte	.LFB58
 10208 3141 04000000 		.4byte	.LFE58
 10209 3145 02       		.byte	0x2
 10210 3146 7D       		.byte	0x7d
 10211 3147 00       		.sleb128 0
 10212 3148 01       		.byte	0x1
 10213 3149 57310000 		.4byte	0x3157
 10214 314d 34       		.uleb128 0x34
 10215 314e 60250000 		.4byte	0x2560
 10216 3152 0A1D0000 		.4byte	.LLST61
 10217 3156 00       		.byte	0
 10218 3157 57       		.uleb128 0x57
 10219 3158 01       		.byte	0x1
 10220 3159 01       		.byte	0x1
 10221 315a C51C0000 		.4byte	.LASF551
 10222 315e C51C0000 		.4byte	.LASF551
 10223 3162 10       		.byte	0x10
 10224 3163 9F01     		.2byte	0x19f
 10225 3165 57       		.uleb128 0x57
 10226 3166 01       		.byte	0x1
 10227 3167 01       		.byte	0x1
 10228 3168 C20A0000 		.4byte	.LASF552
 10229 316c C20A0000 		.4byte	.LASF552
 10230 3170 10       		.byte	0x10
 10231 3171 1201     		.2byte	0x112
 10232 3173 57       		.uleb128 0x57
 10233 3174 01       		.byte	0x1
 10234 3175 01       		.byte	0x1
 10235 3176 18170000 		.4byte	.LASF553
 10236 317a 18170000 		.4byte	.LASF553
 10237 317e 10       		.byte	0x10
 10238 317f 9101     		.2byte	0x191
 10239 3181 58       		.uleb128 0x58
 10240 3182 01       		.byte	0x1
 10241 3183 01       		.byte	0x1
 10242 3184 33170000 		.4byte	.LASF554
 10243 3188 33170000 		.4byte	.LASF554
 10244 318c 10       		.byte	0x10
 10245 318d E1       		.byte	0xe1
 10246 318e 59       		.uleb128 0x59
 10247 318f 01       		.byte	0x1
 10248 3190 01       		.byte	0x1
 10249 3191 55110000 		.4byte	.LASF571
 10250 3195 AA030000 		.4byte	.LASF572
 10251 3199 13       		.byte	0x13
 10252 319a 00       		.byte	0
ARM GAS  C:\Users\EBANO_~1\AppData\Local\Temp\ccFRmLE5.s 			page 208


 10253 319b 55110000 		.4byte	.LASF571
 10254 319f 58       		.uleb128 0x58
 10255 31a0 01       		.byte	0x1
 10256 31a1 01       		.byte	0x1
 10257 31a2 5A020000 		.4byte	.LASF555
 10258 31a6 5A020000 		.4byte	.LASF555
 10259 31aa 0A       		.byte	0xa
 10260 31ab 77       		.byte	0x77
 10261 31ac 58       		.uleb128 0x58
 10262 31ad 01       		.byte	0x1
 10263 31ae 01       		.byte	0x1
 10264 31af B6140000 		.4byte	.LASF556
 10265 31b3 B6140000 		.4byte	.LASF556
 10266 31b7 12       		.byte	0x12
 10267 31b8 94       		.byte	0x94
 10268 31b9 57       		.uleb128 0x57
 10269 31ba 01       		.byte	0x1
 10270 31bb 01       		.byte	0x1
 10271 31bc 540C0000 		.4byte	.LASF557
 10272 31c0 540C0000 		.4byte	.LASF557
 10273 31c4 10       		.byte	0x10
 10274 31c5 3A01     		.2byte	0x13a
 10275 31c7 57       		.uleb128 0x57
 10276 31c8 01       		.byte	0x1
 10277 31c9 01       		.byte	0x1
 10278 31ca 43220000 		.4byte	.LASF558
 10279 31ce 43220000 		.4byte	.LASF558
 10280 31d2 10       		.byte	0x10
 10281 31d3 0401     		.2byte	0x104
 10282 31d5 57       		.uleb128 0x57
 10283 31d6 01       		.byte	0x1
 10284 31d7 01       		.byte	0x1
 10285 31d8 67070000 		.4byte	.LASF559
 10286 31dc 67070000 		.4byte	.LASF559
 10287 31e0 10       		.byte	0x10
 10288 31e1 1E01     		.2byte	0x11e
 10289 31e3 57       		.uleb128 0x57
 10290 31e4 01       		.byte	0x1
 10291 31e5 01       		.byte	0x1
 10292 31e6 EC190000 		.4byte	.LASF560
 10293 31ea EC190000 		.4byte	.LASF560
 10294 31ee 10       		.byte	0x10
 10295 31ef 9801     		.2byte	0x198
 10296 31f1 57       		.uleb128 0x57
 10297 31f2 01       		.byte	0x1
 10298 31f3 01       		.byte	0x1
 10299 31f4 B0050000 		.4byte	.LASF561
 10300 31f8 B0050000 		.4byte	.LASF561
 10301 31fc 10       		.byte	0x10
 10302 31fd 4801     		.2byte	0x148
 10303 31ff 57       		.uleb128 0x57
 10304 3200 01       		.byte	0x1
 10305 3201 01       		.byte	0x1
 10306 3202 72110000 		.4byte	.LASF562
 10307 3206 72110000 		.4byte	.LASF562
 10308 320a 10       		.byte	0x10
 10309 320b 5801     		.2byte	0x158
ARM GAS  C:\Users\EBANO_~1\AppData\Local\Temp\ccFRmLE5.s 			page 209


 10310 320d 57       		.uleb128 0x57
 10311 320e 01       		.byte	0x1
 10312 320f 01       		.byte	0x1
 10313 3210 4C160000 		.4byte	.LASF563
 10314 3214 4C160000 		.4byte	.LASF563
 10315 3218 10       		.byte	0x10
 10316 3219 6301     		.2byte	0x163
 10317 321b 57       		.uleb128 0x57
 10318 321c 01       		.byte	0x1
 10319 321d 01       		.byte	0x1
 10320 321e 69200000 		.4byte	.LASF564
 10321 3222 69200000 		.4byte	.LASF564
 10322 3226 10       		.byte	0x10
 10323 3227 8001     		.2byte	0x180
 10324 3229 58       		.uleb128 0x58
 10325 322a 01       		.byte	0x1
 10326 322b 01       		.byte	0x1
 10327 322c E2030000 		.4byte	.LASF565
 10328 3230 E2030000 		.4byte	.LASF565
 10329 3234 0A       		.byte	0xa
 10330 3235 89       		.byte	0x89
 10331 3236 57       		.uleb128 0x57
 10332 3237 01       		.byte	0x1
 10333 3238 01       		.byte	0x1
 10334 3239 8D140000 		.4byte	.LASF566
 10335 323d 8D140000 		.4byte	.LASF566
 10336 3241 10       		.byte	0x10
 10337 3242 2A01     		.2byte	0x12a
 10338 3244 00       		.byte	0
 10339              		.section	.debug_abbrev,"",%progbits
 10340              	.Ldebug_abbrev0:
 10341 0000 01       		.uleb128 0x1
 10342 0001 11       		.uleb128 0x11
 10343 0002 01       		.byte	0x1
 10344 0003 25       		.uleb128 0x25
 10345 0004 0E       		.uleb128 0xe
 10346 0005 13       		.uleb128 0x13
 10347 0006 0B       		.uleb128 0xb
 10348 0007 03       		.uleb128 0x3
 10349 0008 0E       		.uleb128 0xe
 10350 0009 1B       		.uleb128 0x1b
 10351 000a 0E       		.uleb128 0xe
 10352 000b 55       		.uleb128 0x55
 10353 000c 06       		.uleb128 0x6
 10354 000d 11       		.uleb128 0x11
 10355 000e 01       		.uleb128 0x1
 10356 000f 52       		.uleb128 0x52
 10357 0010 01       		.uleb128 0x1
 10358 0011 10       		.uleb128 0x10
 10359 0012 06       		.uleb128 0x6
 10360 0013 00       		.byte	0
 10361 0014 00       		.byte	0
 10362 0015 02       		.uleb128 0x2
 10363 0016 24       		.uleb128 0x24
 10364 0017 00       		.byte	0
 10365 0018 0B       		.uleb128 0xb
 10366 0019 0B       		.uleb128 0xb
ARM GAS  C:\Users\EBANO_~1\AppData\Local\Temp\ccFRmLE5.s 			page 210


 10367 001a 3E       		.uleb128 0x3e
 10368 001b 0B       		.uleb128 0xb
 10369 001c 03       		.uleb128 0x3
 10370 001d 0E       		.uleb128 0xe
 10371 001e 00       		.byte	0
 10372 001f 00       		.byte	0
 10373 0020 03       		.uleb128 0x3
 10374 0021 16       		.uleb128 0x16
 10375 0022 00       		.byte	0
 10376 0023 03       		.uleb128 0x3
 10377 0024 0E       		.uleb128 0xe
 10378 0025 3A       		.uleb128 0x3a
 10379 0026 0B       		.uleb128 0xb
 10380 0027 3B       		.uleb128 0x3b
 10381 0028 0B       		.uleb128 0xb
 10382 0029 49       		.uleb128 0x49
 10383 002a 13       		.uleb128 0x13
 10384 002b 00       		.byte	0
 10385 002c 00       		.byte	0
 10386 002d 04       		.uleb128 0x4
 10387 002e 24       		.uleb128 0x24
 10388 002f 00       		.byte	0
 10389 0030 0B       		.uleb128 0xb
 10390 0031 0B       		.uleb128 0xb
 10391 0032 3E       		.uleb128 0x3e
 10392 0033 0B       		.uleb128 0xb
 10393 0034 03       		.uleb128 0x3
 10394 0035 08       		.uleb128 0x8
 10395 0036 00       		.byte	0
 10396 0037 00       		.byte	0
 10397 0038 05       		.uleb128 0x5
 10398 0039 26       		.uleb128 0x26
 10399 003a 00       		.byte	0
 10400 003b 49       		.uleb128 0x49
 10401 003c 13       		.uleb128 0x13
 10402 003d 00       		.byte	0
 10403 003e 00       		.byte	0
 10404 003f 06       		.uleb128 0x6
 10405 0040 34       		.uleb128 0x34
 10406 0041 00       		.byte	0
 10407 0042 03       		.uleb128 0x3
 10408 0043 0E       		.uleb128 0xe
 10409 0044 3A       		.uleb128 0x3a
 10410 0045 0B       		.uleb128 0xb
 10411 0046 3B       		.uleb128 0x3b
 10412 0047 0B       		.uleb128 0xb
 10413 0048 49       		.uleb128 0x49
 10414 0049 13       		.uleb128 0x13
 10415 004a 3F       		.uleb128 0x3f
 10416 004b 0C       		.uleb128 0xc
 10417 004c 3C       		.uleb128 0x3c
 10418 004d 0C       		.uleb128 0xc
 10419 004e 00       		.byte	0
 10420 004f 00       		.byte	0
 10421 0050 07       		.uleb128 0x7
 10422 0051 01       		.uleb128 0x1
 10423 0052 01       		.byte	0x1
ARM GAS  C:\Users\EBANO_~1\AppData\Local\Temp\ccFRmLE5.s 			page 211


 10424 0053 49       		.uleb128 0x49
 10425 0054 13       		.uleb128 0x13
 10426 0055 01       		.uleb128 0x1
 10427 0056 13       		.uleb128 0x13
 10428 0057 00       		.byte	0
 10429 0058 00       		.byte	0
 10430 0059 08       		.uleb128 0x8
 10431 005a 21       		.uleb128 0x21
 10432 005b 00       		.byte	0
 10433 005c 49       		.uleb128 0x49
 10434 005d 13       		.uleb128 0x13
 10435 005e 2F       		.uleb128 0x2f
 10436 005f 0B       		.uleb128 0xb
 10437 0060 00       		.byte	0
 10438 0061 00       		.byte	0
 10439 0062 09       		.uleb128 0x9
 10440 0063 0F       		.uleb128 0xf
 10441 0064 00       		.byte	0
 10442 0065 0B       		.uleb128 0xb
 10443 0066 0B       		.uleb128 0xb
 10444 0067 00       		.byte	0
 10445 0068 00       		.byte	0
 10446 0069 0A       		.uleb128 0xa
 10447 006a 0F       		.uleb128 0xf
 10448 006b 00       		.byte	0
 10449 006c 0B       		.uleb128 0xb
 10450 006d 0B       		.uleb128 0xb
 10451 006e 49       		.uleb128 0x49
 10452 006f 13       		.uleb128 0x13
 10453 0070 00       		.byte	0
 10454 0071 00       		.byte	0
 10455 0072 0B       		.uleb128 0xb
 10456 0073 13       		.uleb128 0x13
 10457 0074 00       		.byte	0
 10458 0075 03       		.uleb128 0x3
 10459 0076 0E       		.uleb128 0xe
 10460 0077 3C       		.uleb128 0x3c
 10461 0078 0C       		.uleb128 0xc
 10462 0079 00       		.byte	0
 10463 007a 00       		.byte	0
 10464 007b 0C       		.uleb128 0xc
 10465 007c 16       		.uleb128 0x16
 10466 007d 00       		.byte	0
 10467 007e 03       		.uleb128 0x3
 10468 007f 0E       		.uleb128 0xe
 10469 0080 3A       		.uleb128 0x3a
 10470 0081 0B       		.uleb128 0xb
 10471 0082 3B       		.uleb128 0x3b
 10472 0083 05       		.uleb128 0x5
 10473 0084 49       		.uleb128 0x49
 10474 0085 13       		.uleb128 0x13
 10475 0086 00       		.byte	0
 10476 0087 00       		.byte	0
 10477 0088 0D       		.uleb128 0xd
 10478 0089 17       		.uleb128 0x17
 10479 008a 01       		.byte	0x1
 10480 008b 0B       		.uleb128 0xb
ARM GAS  C:\Users\EBANO_~1\AppData\Local\Temp\ccFRmLE5.s 			page 212


 10481 008c 0B       		.uleb128 0xb
 10482 008d 3A       		.uleb128 0x3a
 10483 008e 0B       		.uleb128 0xb
 10484 008f 3B       		.uleb128 0x3b
 10485 0090 0B       		.uleb128 0xb
 10486 0091 01       		.uleb128 0x1
 10487 0092 13       		.uleb128 0x13
 10488 0093 00       		.byte	0
 10489 0094 00       		.byte	0
 10490 0095 0E       		.uleb128 0xe
 10491 0096 0D       		.uleb128 0xd
 10492 0097 00       		.byte	0
 10493 0098 03       		.uleb128 0x3
 10494 0099 0E       		.uleb128 0xe
 10495 009a 3A       		.uleb128 0x3a
 10496 009b 0B       		.uleb128 0xb
 10497 009c 3B       		.uleb128 0x3b
 10498 009d 0B       		.uleb128 0xb
 10499 009e 49       		.uleb128 0x49
 10500 009f 13       		.uleb128 0x13
 10501 00a0 00       		.byte	0
 10502 00a1 00       		.byte	0
 10503 00a2 0F       		.uleb128 0xf
 10504 00a3 13       		.uleb128 0x13
 10505 00a4 01       		.byte	0x1
 10506 00a5 0B       		.uleb128 0xb
 10507 00a6 0B       		.uleb128 0xb
 10508 00a7 3A       		.uleb128 0x3a
 10509 00a8 0B       		.uleb128 0xb
 10510 00a9 3B       		.uleb128 0x3b
 10511 00aa 0B       		.uleb128 0xb
 10512 00ab 01       		.uleb128 0x1
 10513 00ac 13       		.uleb128 0x13
 10514 00ad 00       		.byte	0
 10515 00ae 00       		.byte	0
 10516 00af 10       		.uleb128 0x10
 10517 00b0 0D       		.uleb128 0xd
 10518 00b1 00       		.byte	0
 10519 00b2 03       		.uleb128 0x3
 10520 00b3 0E       		.uleb128 0xe
 10521 00b4 3A       		.uleb128 0x3a
 10522 00b5 0B       		.uleb128 0xb
 10523 00b6 3B       		.uleb128 0x3b
 10524 00b7 0B       		.uleb128 0xb
 10525 00b8 49       		.uleb128 0x49
 10526 00b9 13       		.uleb128 0x13
 10527 00ba 38       		.uleb128 0x38
 10528 00bb 0A       		.uleb128 0xa
 10529 00bc 00       		.byte	0
 10530 00bd 00       		.byte	0
 10531 00be 11       		.uleb128 0x11
 10532 00bf 13       		.uleb128 0x13
 10533 00c0 01       		.byte	0x1
 10534 00c1 03       		.uleb128 0x3
 10535 00c2 0E       		.uleb128 0xe
 10536 00c3 0B       		.uleb128 0xb
 10537 00c4 0B       		.uleb128 0xb
ARM GAS  C:\Users\EBANO_~1\AppData\Local\Temp\ccFRmLE5.s 			page 213


 10538 00c5 3A       		.uleb128 0x3a
 10539 00c6 0B       		.uleb128 0xb
 10540 00c7 3B       		.uleb128 0x3b
 10541 00c8 0B       		.uleb128 0xb
 10542 00c9 01       		.uleb128 0x1
 10543 00ca 13       		.uleb128 0x13
 10544 00cb 00       		.byte	0
 10545 00cc 00       		.byte	0
 10546 00cd 12       		.uleb128 0x12
 10547 00ce 0D       		.uleb128 0xd
 10548 00cf 00       		.byte	0
 10549 00d0 03       		.uleb128 0x3
 10550 00d1 08       		.uleb128 0x8
 10551 00d2 3A       		.uleb128 0x3a
 10552 00d3 0B       		.uleb128 0xb
 10553 00d4 3B       		.uleb128 0x3b
 10554 00d5 0B       		.uleb128 0xb
 10555 00d6 49       		.uleb128 0x49
 10556 00d7 13       		.uleb128 0x13
 10557 00d8 38       		.uleb128 0x38
 10558 00d9 0A       		.uleb128 0xa
 10559 00da 00       		.byte	0
 10560 00db 00       		.byte	0
 10561 00dc 13       		.uleb128 0x13
 10562 00dd 13       		.uleb128 0x13
 10563 00de 01       		.byte	0x1
 10564 00df 03       		.uleb128 0x3
 10565 00e0 0E       		.uleb128 0xe
 10566 00e1 0B       		.uleb128 0xb
 10567 00e2 05       		.uleb128 0x5
 10568 00e3 3A       		.uleb128 0x3a
 10569 00e4 0B       		.uleb128 0xb
 10570 00e5 3B       		.uleb128 0x3b
 10571 00e6 0B       		.uleb128 0xb
 10572 00e7 01       		.uleb128 0x1
 10573 00e8 13       		.uleb128 0x13
 10574 00e9 00       		.byte	0
 10575 00ea 00       		.byte	0
 10576 00eb 14       		.uleb128 0x14
 10577 00ec 15       		.uleb128 0x15
 10578 00ed 00       		.byte	0
 10579 00ee 27       		.uleb128 0x27
 10580 00ef 0C       		.uleb128 0xc
 10581 00f0 00       		.byte	0
 10582 00f1 00       		.byte	0
 10583 00f2 15       		.uleb128 0x15
 10584 00f3 15       		.uleb128 0x15
 10585 00f4 01       		.byte	0x1
 10586 00f5 27       		.uleb128 0x27
 10587 00f6 0C       		.uleb128 0xc
 10588 00f7 49       		.uleb128 0x49
 10589 00f8 13       		.uleb128 0x13
 10590 00f9 01       		.uleb128 0x1
 10591 00fa 13       		.uleb128 0x13
 10592 00fb 00       		.byte	0
 10593 00fc 00       		.byte	0
 10594 00fd 16       		.uleb128 0x16
ARM GAS  C:\Users\EBANO_~1\AppData\Local\Temp\ccFRmLE5.s 			page 214


 10595 00fe 05       		.uleb128 0x5
 10596 00ff 00       		.byte	0
 10597 0100 49       		.uleb128 0x49
 10598 0101 13       		.uleb128 0x13
 10599 0102 00       		.byte	0
 10600 0103 00       		.byte	0
 10601 0104 17       		.uleb128 0x17
 10602 0105 13       		.uleb128 0x13
 10603 0106 01       		.byte	0x1
 10604 0107 03       		.uleb128 0x3
 10605 0108 0E       		.uleb128 0xe
 10606 0109 0B       		.uleb128 0xb
 10607 010a 05       		.uleb128 0x5
 10608 010b 3A       		.uleb128 0x3a
 10609 010c 0B       		.uleb128 0xb
 10610 010d 3B       		.uleb128 0x3b
 10611 010e 05       		.uleb128 0x5
 10612 010f 01       		.uleb128 0x1
 10613 0110 13       		.uleb128 0x13
 10614 0111 00       		.byte	0
 10615 0112 00       		.byte	0
 10616 0113 18       		.uleb128 0x18
 10617 0114 0D       		.uleb128 0xd
 10618 0115 00       		.byte	0
 10619 0116 03       		.uleb128 0x3
 10620 0117 0E       		.uleb128 0xe
 10621 0118 3A       		.uleb128 0x3a
 10622 0119 0B       		.uleb128 0xb
 10623 011a 3B       		.uleb128 0x3b
 10624 011b 05       		.uleb128 0x5
 10625 011c 49       		.uleb128 0x49
 10626 011d 13       		.uleb128 0x13
 10627 011e 38       		.uleb128 0x38
 10628 011f 0A       		.uleb128 0xa
 10629 0120 00       		.byte	0
 10630 0121 00       		.byte	0
 10631 0122 19       		.uleb128 0x19
 10632 0123 13       		.uleb128 0x13
 10633 0124 01       		.byte	0x1
 10634 0125 03       		.uleb128 0x3
 10635 0126 0E       		.uleb128 0xe
 10636 0127 0B       		.uleb128 0xb
 10637 0128 0B       		.uleb128 0xb
 10638 0129 3A       		.uleb128 0x3a
 10639 012a 0B       		.uleb128 0xb
 10640 012b 3B       		.uleb128 0x3b
 10641 012c 05       		.uleb128 0x5
 10642 012d 01       		.uleb128 0x1
 10643 012e 13       		.uleb128 0x13
 10644 012f 00       		.byte	0
 10645 0130 00       		.byte	0
 10646 0131 1A       		.uleb128 0x1a
 10647 0132 13       		.uleb128 0x13
 10648 0133 01       		.byte	0x1
 10649 0134 0B       		.uleb128 0xb
 10650 0135 0B       		.uleb128 0xb
 10651 0136 3A       		.uleb128 0x3a
ARM GAS  C:\Users\EBANO_~1\AppData\Local\Temp\ccFRmLE5.s 			page 215


 10652 0137 0B       		.uleb128 0xb
 10653 0138 3B       		.uleb128 0x3b
 10654 0139 05       		.uleb128 0x5
 10655 013a 01       		.uleb128 0x1
 10656 013b 13       		.uleb128 0x13
 10657 013c 00       		.byte	0
 10658 013d 00       		.byte	0
 10659 013e 1B       		.uleb128 0x1b
 10660 013f 17       		.uleb128 0x17
 10661 0140 01       		.byte	0x1
 10662 0141 0B       		.uleb128 0xb
 10663 0142 0B       		.uleb128 0xb
 10664 0143 3A       		.uleb128 0x3a
 10665 0144 0B       		.uleb128 0xb
 10666 0145 3B       		.uleb128 0x3b
 10667 0146 05       		.uleb128 0x5
 10668 0147 01       		.uleb128 0x1
 10669 0148 13       		.uleb128 0x13
 10670 0149 00       		.byte	0
 10671 014a 00       		.byte	0
 10672 014b 1C       		.uleb128 0x1c
 10673 014c 0D       		.uleb128 0xd
 10674 014d 00       		.byte	0
 10675 014e 03       		.uleb128 0x3
 10676 014f 0E       		.uleb128 0xe
 10677 0150 3A       		.uleb128 0x3a
 10678 0151 0B       		.uleb128 0xb
 10679 0152 3B       		.uleb128 0x3b
 10680 0153 05       		.uleb128 0x5
 10681 0154 49       		.uleb128 0x49
 10682 0155 13       		.uleb128 0x13
 10683 0156 00       		.byte	0
 10684 0157 00       		.byte	0
 10685 0158 1D       		.uleb128 0x1d
 10686 0159 15       		.uleb128 0x15
 10687 015a 01       		.byte	0x1
 10688 015b 27       		.uleb128 0x27
 10689 015c 0C       		.uleb128 0xc
 10690 015d 01       		.uleb128 0x1
 10691 015e 13       		.uleb128 0x13
 10692 015f 00       		.byte	0
 10693 0160 00       		.byte	0
 10694 0161 1E       		.uleb128 0x1e
 10695 0162 34       		.uleb128 0x34
 10696 0163 00       		.byte	0
 10697 0164 03       		.uleb128 0x3
 10698 0165 0E       		.uleb128 0xe
 10699 0166 3A       		.uleb128 0x3a
 10700 0167 0B       		.uleb128 0xb
 10701 0168 3B       		.uleb128 0x3b
 10702 0169 05       		.uleb128 0x5
 10703 016a 49       		.uleb128 0x49
 10704 016b 13       		.uleb128 0x13
 10705 016c 3F       		.uleb128 0x3f
 10706 016d 0C       		.uleb128 0xc
 10707 016e 3C       		.uleb128 0x3c
 10708 016f 0C       		.uleb128 0xc
ARM GAS  C:\Users\EBANO_~1\AppData\Local\Temp\ccFRmLE5.s 			page 216


 10709 0170 00       		.byte	0
 10710 0171 00       		.byte	0
 10711 0172 1F       		.uleb128 0x1f
 10712 0173 17       		.uleb128 0x17
 10713 0174 01       		.byte	0x1
 10714 0175 03       		.uleb128 0x3
 10715 0176 0E       		.uleb128 0xe
 10716 0177 0B       		.uleb128 0xb
 10717 0178 0B       		.uleb128 0xb
 10718 0179 3A       		.uleb128 0x3a
 10719 017a 0B       		.uleb128 0xb
 10720 017b 3B       		.uleb128 0x3b
 10721 017c 0B       		.uleb128 0xb
 10722 017d 01       		.uleb128 0x1
 10723 017e 13       		.uleb128 0x13
 10724 017f 00       		.byte	0
 10725 0180 00       		.byte	0
 10726 0181 20       		.uleb128 0x20
 10727 0182 04       		.uleb128 0x4
 10728 0183 01       		.byte	0x1
 10729 0184 3E       		.uleb128 0x3e
 10730 0185 0B       		.uleb128 0xb
 10731 0186 0B       		.uleb128 0xb
 10732 0187 0B       		.uleb128 0xb
 10733 0188 49       		.uleb128 0x49
 10734 0189 13       		.uleb128 0x13
 10735 018a 3A       		.uleb128 0x3a
 10736 018b 0B       		.uleb128 0xb
 10737 018c 3B       		.uleb128 0x3b
 10738 018d 0B       		.uleb128 0xb
 10739 018e 01       		.uleb128 0x1
 10740 018f 13       		.uleb128 0x13
 10741 0190 00       		.byte	0
 10742 0191 00       		.byte	0
 10743 0192 21       		.uleb128 0x21
 10744 0193 28       		.uleb128 0x28
 10745 0194 00       		.byte	0
 10746 0195 03       		.uleb128 0x3
 10747 0196 0E       		.uleb128 0xe
 10748 0197 1C       		.uleb128 0x1c
 10749 0198 0B       		.uleb128 0xb
 10750 0199 00       		.byte	0
 10751 019a 00       		.byte	0
 10752 019b 22       		.uleb128 0x22
 10753 019c 0D       		.uleb128 0xd
 10754 019d 00       		.byte	0
 10755 019e 03       		.uleb128 0x3
 10756 019f 08       		.uleb128 0x8
 10757 01a0 3A       		.uleb128 0x3a
 10758 01a1 0B       		.uleb128 0xb
 10759 01a2 3B       		.uleb128 0x3b
 10760 01a3 05       		.uleb128 0x5
 10761 01a4 49       		.uleb128 0x49
 10762 01a5 13       		.uleb128 0x13
 10763 01a6 38       		.uleb128 0x38
 10764 01a7 0A       		.uleb128 0xa
 10765 01a8 00       		.byte	0
ARM GAS  C:\Users\EBANO_~1\AppData\Local\Temp\ccFRmLE5.s 			page 217


 10766 01a9 00       		.byte	0
 10767 01aa 23       		.uleb128 0x23
 10768 01ab 15       		.uleb128 0x15
 10769 01ac 00       		.byte	0
 10770 01ad 27       		.uleb128 0x27
 10771 01ae 0C       		.uleb128 0xc
 10772 01af 49       		.uleb128 0x49
 10773 01b0 13       		.uleb128 0x13
 10774 01b1 00       		.byte	0
 10775 01b2 00       		.byte	0
 10776 01b3 24       		.uleb128 0x24
 10777 01b4 0D       		.uleb128 0xd
 10778 01b5 00       		.byte	0
 10779 01b6 03       		.uleb128 0x3
 10780 01b7 08       		.uleb128 0x8
 10781 01b8 3A       		.uleb128 0x3a
 10782 01b9 0B       		.uleb128 0xb
 10783 01ba 3B       		.uleb128 0x3b
 10784 01bb 0B       		.uleb128 0xb
 10785 01bc 49       		.uleb128 0x49
 10786 01bd 13       		.uleb128 0x13
 10787 01be 0B       		.uleb128 0xb
 10788 01bf 0B       		.uleb128 0xb
 10789 01c0 0D       		.uleb128 0xd
 10790 01c1 0B       		.uleb128 0xb
 10791 01c2 0C       		.uleb128 0xc
 10792 01c3 0B       		.uleb128 0xb
 10793 01c4 38       		.uleb128 0x38
 10794 01c5 0A       		.uleb128 0xa
 10795 01c6 00       		.byte	0
 10796 01c7 00       		.byte	0
 10797 01c8 25       		.uleb128 0x25
 10798 01c9 04       		.uleb128 0x4
 10799 01ca 01       		.byte	0x1
 10800 01cb 03       		.uleb128 0x3
 10801 01cc 0E       		.uleb128 0xe
 10802 01cd 3E       		.uleb128 0x3e
 10803 01ce 0B       		.uleb128 0xb
 10804 01cf 0B       		.uleb128 0xb
 10805 01d0 0B       		.uleb128 0xb
 10806 01d1 49       		.uleb128 0x49
 10807 01d2 13       		.uleb128 0x13
 10808 01d3 3A       		.uleb128 0x3a
 10809 01d4 0B       		.uleb128 0xb
 10810 01d5 3B       		.uleb128 0x3b
 10811 01d6 0B       		.uleb128 0xb
 10812 01d7 01       		.uleb128 0x1
 10813 01d8 13       		.uleb128 0x13
 10814 01d9 00       		.byte	0
 10815 01da 00       		.byte	0
 10816 01db 26       		.uleb128 0x26
 10817 01dc 04       		.uleb128 0x4
 10818 01dd 01       		.byte	0x1
 10819 01de 03       		.uleb128 0x3
 10820 01df 0E       		.uleb128 0xe
 10821 01e0 3E       		.uleb128 0x3e
 10822 01e1 0B       		.uleb128 0xb
ARM GAS  C:\Users\EBANO_~1\AppData\Local\Temp\ccFRmLE5.s 			page 218


 10823 01e2 0B       		.uleb128 0xb
 10824 01e3 0B       		.uleb128 0xb
 10825 01e4 49       		.uleb128 0x49
 10826 01e5 13       		.uleb128 0x13
 10827 01e6 3A       		.uleb128 0x3a
 10828 01e7 0B       		.uleb128 0xb
 10829 01e8 3B       		.uleb128 0x3b
 10830 01e9 05       		.uleb128 0x5
 10831 01ea 01       		.uleb128 0x1
 10832 01eb 13       		.uleb128 0x13
 10833 01ec 00       		.byte	0
 10834 01ed 00       		.byte	0
 10835 01ee 27       		.uleb128 0x27
 10836 01ef 34       		.uleb128 0x34
 10837 01f0 00       		.byte	0
 10838 01f1 03       		.uleb128 0x3
 10839 01f2 0E       		.uleb128 0xe
 10840 01f3 3A       		.uleb128 0x3a
 10841 01f4 0B       		.uleb128 0xb
 10842 01f5 3B       		.uleb128 0x3b
 10843 01f6 05       		.uleb128 0x5
 10844 01f7 49       		.uleb128 0x49
 10845 01f8 13       		.uleb128 0x13
 10846 01f9 1C       		.uleb128 0x1c
 10847 01fa 0A       		.uleb128 0xa
 10848 01fb 00       		.byte	0
 10849 01fc 00       		.byte	0
 10850 01fd 28       		.uleb128 0x28
 10851 01fe 17       		.uleb128 0x17
 10852 01ff 01       		.byte	0x1
 10853 0200 03       		.uleb128 0x3
 10854 0201 0E       		.uleb128 0xe
 10855 0202 0B       		.uleb128 0xb
 10856 0203 0B       		.uleb128 0xb
 10857 0204 3A       		.uleb128 0x3a
 10858 0205 0B       		.uleb128 0xb
 10859 0206 3B       		.uleb128 0x3b
 10860 0207 05       		.uleb128 0x5
 10861 0208 01       		.uleb128 0x1
 10862 0209 13       		.uleb128 0x13
 10863 020a 00       		.byte	0
 10864 020b 00       		.byte	0
 10865 020c 29       		.uleb128 0x29
 10866 020d 34       		.uleb128 0x34
 10867 020e 00       		.byte	0
 10868 020f 03       		.uleb128 0x3
 10869 0210 0E       		.uleb128 0xe
 10870 0211 3A       		.uleb128 0x3a
 10871 0212 0B       		.uleb128 0xb
 10872 0213 3B       		.uleb128 0x3b
 10873 0214 0B       		.uleb128 0xb
 10874 0215 49       		.uleb128 0x49
 10875 0216 13       		.uleb128 0x13
 10876 0217 02       		.uleb128 0x2
 10877 0218 0A       		.uleb128 0xa
 10878 0219 00       		.byte	0
 10879 021a 00       		.byte	0
ARM GAS  C:\Users\EBANO_~1\AppData\Local\Temp\ccFRmLE5.s 			page 219


 10880 021b 2A       		.uleb128 0x2a
 10881 021c 34       		.uleb128 0x34
 10882 021d 00       		.byte	0
 10883 021e 03       		.uleb128 0x3
 10884 021f 0E       		.uleb128 0xe
 10885 0220 3A       		.uleb128 0x3a
 10886 0221 0B       		.uleb128 0xb
 10887 0222 3B       		.uleb128 0x3b
 10888 0223 05       		.uleb128 0x5
 10889 0224 49       		.uleb128 0x49
 10890 0225 13       		.uleb128 0x13
 10891 0226 02       		.uleb128 0x2
 10892 0227 0A       		.uleb128 0xa
 10893 0228 00       		.byte	0
 10894 0229 00       		.byte	0
 10895 022a 2B       		.uleb128 0x2b
 10896 022b 2E       		.uleb128 0x2e
 10897 022c 01       		.byte	0x1
 10898 022d 3F       		.uleb128 0x3f
 10899 022e 0C       		.uleb128 0xc
 10900 022f 03       		.uleb128 0x3
 10901 0230 0E       		.uleb128 0xe
 10902 0231 3A       		.uleb128 0x3a
 10903 0232 0B       		.uleb128 0xb
 10904 0233 3B       		.uleb128 0x3b
 10905 0234 05       		.uleb128 0x5
 10906 0235 27       		.uleb128 0x27
 10907 0236 0C       		.uleb128 0xc
 10908 0237 11       		.uleb128 0x11
 10909 0238 01       		.uleb128 0x1
 10910 0239 12       		.uleb128 0x12
 10911 023a 01       		.uleb128 0x1
 10912 023b 40       		.uleb128 0x40
 10913 023c 06       		.uleb128 0x6
 10914 023d 9742     		.uleb128 0x2117
 10915 023f 0C       		.uleb128 0xc
 10916 0240 01       		.uleb128 0x1
 10917 0241 13       		.uleb128 0x13
 10918 0242 00       		.byte	0
 10919 0243 00       		.byte	0
 10920 0244 2C       		.uleb128 0x2c
 10921 0245 05       		.uleb128 0x5
 10922 0246 00       		.byte	0
 10923 0247 03       		.uleb128 0x3
 10924 0248 0E       		.uleb128 0xe
 10925 0249 3A       		.uleb128 0x3a
 10926 024a 0B       		.uleb128 0xb
 10927 024b 3B       		.uleb128 0x3b
 10928 024c 05       		.uleb128 0x5
 10929 024d 49       		.uleb128 0x49
 10930 024e 13       		.uleb128 0x13
 10931 024f 02       		.uleb128 0x2
 10932 0250 06       		.uleb128 0x6
 10933 0251 00       		.byte	0
 10934 0252 00       		.byte	0
 10935 0253 2D       		.uleb128 0x2d
 10936 0254 898201   		.uleb128 0x4109
ARM GAS  C:\Users\EBANO_~1\AppData\Local\Temp\ccFRmLE5.s 			page 220


 10937 0257 01       		.byte	0x1
 10938 0258 11       		.uleb128 0x11
 10939 0259 01       		.uleb128 0x1
 10940 025a 31       		.uleb128 0x31
 10941 025b 13       		.uleb128 0x13
 10942 025c 00       		.byte	0
 10943 025d 00       		.byte	0
 10944 025e 2E       		.uleb128 0x2e
 10945 025f 8A8201   		.uleb128 0x410a
 10946 0262 00       		.byte	0
 10947 0263 02       		.uleb128 0x2
 10948 0264 0A       		.uleb128 0xa
 10949 0265 9142     		.uleb128 0x2111
 10950 0267 0A       		.uleb128 0xa
 10951 0268 00       		.byte	0
 10952 0269 00       		.byte	0
 10953 026a 2F       		.uleb128 0x2f
 10954 026b 2E       		.uleb128 0x2e
 10955 026c 01       		.byte	0x1
 10956 026d 3F       		.uleb128 0x3f
 10957 026e 0C       		.uleb128 0xc
 10958 026f 03       		.uleb128 0x3
 10959 0270 0E       		.uleb128 0xe
 10960 0271 3A       		.uleb128 0x3a
 10961 0272 0B       		.uleb128 0xb
 10962 0273 3B       		.uleb128 0x3b
 10963 0274 05       		.uleb128 0x5
 10964 0275 27       		.uleb128 0x27
 10965 0276 0C       		.uleb128 0xc
 10966 0277 49       		.uleb128 0x49
 10967 0278 13       		.uleb128 0x13
 10968 0279 11       		.uleb128 0x11
 10969 027a 01       		.uleb128 0x1
 10970 027b 12       		.uleb128 0x12
 10971 027c 01       		.uleb128 0x1
 10972 027d 40       		.uleb128 0x40
 10973 027e 0A       		.uleb128 0xa
 10974 027f 9742     		.uleb128 0x2117
 10975 0281 0C       		.uleb128 0xc
 10976 0282 01       		.uleb128 0x1
 10977 0283 13       		.uleb128 0x13
 10978 0284 00       		.byte	0
 10979 0285 00       		.byte	0
 10980 0286 30       		.uleb128 0x30
 10981 0287 05       		.uleb128 0x5
 10982 0288 00       		.byte	0
 10983 0289 03       		.uleb128 0x3
 10984 028a 08       		.uleb128 0x8
 10985 028b 3A       		.uleb128 0x3a
 10986 028c 0B       		.uleb128 0xb
 10987 028d 3B       		.uleb128 0x3b
 10988 028e 05       		.uleb128 0x5
 10989 028f 49       		.uleb128 0x49
 10990 0290 13       		.uleb128 0x13
 10991 0291 02       		.uleb128 0x2
 10992 0292 06       		.uleb128 0x6
 10993 0293 00       		.byte	0
ARM GAS  C:\Users\EBANO_~1\AppData\Local\Temp\ccFRmLE5.s 			page 221


 10994 0294 00       		.byte	0
 10995 0295 31       		.uleb128 0x31
 10996 0296 34       		.uleb128 0x34
 10997 0297 00       		.byte	0
 10998 0298 03       		.uleb128 0x3
 10999 0299 0E       		.uleb128 0xe
 11000 029a 3A       		.uleb128 0x3a
 11001 029b 0B       		.uleb128 0xb
 11002 029c 3B       		.uleb128 0x3b
 11003 029d 05       		.uleb128 0x5
 11004 029e 49       		.uleb128 0x49
 11005 029f 13       		.uleb128 0x13
 11006 02a0 00       		.byte	0
 11007 02a1 00       		.byte	0
 11008 02a2 32       		.uleb128 0x32
 11009 02a3 34       		.uleb128 0x34
 11010 02a4 00       		.byte	0
 11011 02a5 03       		.uleb128 0x3
 11012 02a6 0E       		.uleb128 0xe
 11013 02a7 3A       		.uleb128 0x3a
 11014 02a8 0B       		.uleb128 0xb
 11015 02a9 3B       		.uleb128 0x3b
 11016 02aa 05       		.uleb128 0x5
 11017 02ab 49       		.uleb128 0x49
 11018 02ac 13       		.uleb128 0x13
 11019 02ad 02       		.uleb128 0x2
 11020 02ae 06       		.uleb128 0x6
 11021 02af 00       		.byte	0
 11022 02b0 00       		.byte	0
 11023 02b1 33       		.uleb128 0x33
 11024 02b2 1D       		.uleb128 0x1d
 11025 02b3 01       		.byte	0x1
 11026 02b4 31       		.uleb128 0x31
 11027 02b5 13       		.uleb128 0x13
 11028 02b6 52       		.uleb128 0x52
 11029 02b7 01       		.uleb128 0x1
 11030 02b8 55       		.uleb128 0x55
 11031 02b9 06       		.uleb128 0x6
 11032 02ba 58       		.uleb128 0x58
 11033 02bb 0B       		.uleb128 0xb
 11034 02bc 59       		.uleb128 0x59
 11035 02bd 05       		.uleb128 0x5
 11036 02be 01       		.uleb128 0x1
 11037 02bf 13       		.uleb128 0x13
 11038 02c0 00       		.byte	0
 11039 02c1 00       		.byte	0
 11040 02c2 34       		.uleb128 0x34
 11041 02c3 05       		.uleb128 0x5
 11042 02c4 00       		.byte	0
 11043 02c5 31       		.uleb128 0x31
 11044 02c6 13       		.uleb128 0x13
 11045 02c7 02       		.uleb128 0x2
 11046 02c8 06       		.uleb128 0x6
 11047 02c9 00       		.byte	0
 11048 02ca 00       		.byte	0
 11049 02cb 35       		.uleb128 0x35
 11050 02cc 0B       		.uleb128 0xb
ARM GAS  C:\Users\EBANO_~1\AppData\Local\Temp\ccFRmLE5.s 			page 222


 11051 02cd 01       		.byte	0x1
 11052 02ce 55       		.uleb128 0x55
 11053 02cf 06       		.uleb128 0x6
 11054 02d0 00       		.byte	0
 11055 02d1 00       		.byte	0
 11056 02d2 36       		.uleb128 0x36
 11057 02d3 34       		.uleb128 0x34
 11058 02d4 00       		.byte	0
 11059 02d5 31       		.uleb128 0x31
 11060 02d6 13       		.uleb128 0x13
 11061 02d7 02       		.uleb128 0x2
 11062 02d8 06       		.uleb128 0x6
 11063 02d9 00       		.byte	0
 11064 02da 00       		.byte	0
 11065 02db 37       		.uleb128 0x37
 11066 02dc 898201   		.uleb128 0x4109
 11067 02df 00       		.byte	0
 11068 02e0 11       		.uleb128 0x11
 11069 02e1 01       		.uleb128 0x1
 11070 02e2 31       		.uleb128 0x31
 11071 02e3 13       		.uleb128 0x13
 11072 02e4 00       		.byte	0
 11073 02e5 00       		.byte	0
 11074 02e6 38       		.uleb128 0x38
 11075 02e7 898201   		.uleb128 0x4109
 11076 02ea 01       		.byte	0x1
 11077 02eb 11       		.uleb128 0x11
 11078 02ec 01       		.uleb128 0x1
 11079 02ed 00       		.byte	0
 11080 02ee 00       		.byte	0
 11081 02ef 39       		.uleb128 0x39
 11082 02f0 2E       		.uleb128 0x2e
 11083 02f1 01       		.byte	0x1
 11084 02f2 3F       		.uleb128 0x3f
 11085 02f3 0C       		.uleb128 0xc
 11086 02f4 03       		.uleb128 0x3
 11087 02f5 0E       		.uleb128 0xe
 11088 02f6 3A       		.uleb128 0x3a
 11089 02f7 0B       		.uleb128 0xb
 11090 02f8 3B       		.uleb128 0x3b
 11091 02f9 05       		.uleb128 0x5
 11092 02fa 27       		.uleb128 0x27
 11093 02fb 0C       		.uleb128 0xc
 11094 02fc 49       		.uleb128 0x49
 11095 02fd 13       		.uleb128 0x13
 11096 02fe 11       		.uleb128 0x11
 11097 02ff 01       		.uleb128 0x1
 11098 0300 12       		.uleb128 0x12
 11099 0301 01       		.uleb128 0x1
 11100 0302 40       		.uleb128 0x40
 11101 0303 06       		.uleb128 0x6
 11102 0304 9742     		.uleb128 0x2117
 11103 0306 0C       		.uleb128 0xc
 11104 0307 01       		.uleb128 0x1
 11105 0308 13       		.uleb128 0x13
 11106 0309 00       		.byte	0
 11107 030a 00       		.byte	0
ARM GAS  C:\Users\EBANO_~1\AppData\Local\Temp\ccFRmLE5.s 			page 223


 11108 030b 3A       		.uleb128 0x3a
 11109 030c 0B       		.uleb128 0xb
 11110 030d 01       		.byte	0x1
 11111 030e 55       		.uleb128 0x55
 11112 030f 06       		.uleb128 0x6
 11113 0310 01       		.uleb128 0x1
 11114 0311 13       		.uleb128 0x13
 11115 0312 00       		.byte	0
 11116 0313 00       		.byte	0
 11117 0314 3B       		.uleb128 0x3b
 11118 0315 34       		.uleb128 0x34
 11119 0316 00       		.byte	0
 11120 0317 03       		.uleb128 0x3
 11121 0318 08       		.uleb128 0x8
 11122 0319 3A       		.uleb128 0x3a
 11123 031a 0B       		.uleb128 0xb
 11124 031b 3B       		.uleb128 0x3b
 11125 031c 05       		.uleb128 0x5
 11126 031d 49       		.uleb128 0x49
 11127 031e 13       		.uleb128 0x13
 11128 031f 02       		.uleb128 0x2
 11129 0320 06       		.uleb128 0x6
 11130 0321 00       		.byte	0
 11131 0322 00       		.byte	0
 11132 0323 3C       		.uleb128 0x3c
 11133 0324 0B       		.uleb128 0xb
 11134 0325 01       		.byte	0x1
 11135 0326 31       		.uleb128 0x31
 11136 0327 13       		.uleb128 0x13
 11137 0328 55       		.uleb128 0x55
 11138 0329 06       		.uleb128 0x6
 11139 032a 00       		.byte	0
 11140 032b 00       		.byte	0
 11141 032c 3D       		.uleb128 0x3d
 11142 032d 34       		.uleb128 0x34
 11143 032e 00       		.byte	0
 11144 032f 31       		.uleb128 0x31
 11145 0330 13       		.uleb128 0x13
 11146 0331 02       		.uleb128 0x2
 11147 0332 0A       		.uleb128 0xa
 11148 0333 00       		.byte	0
 11149 0334 00       		.byte	0
 11150 0335 3E       		.uleb128 0x3e
 11151 0336 1D       		.uleb128 0x1d
 11152 0337 01       		.byte	0x1
 11153 0338 31       		.uleb128 0x31
 11154 0339 13       		.uleb128 0x13
 11155 033a 52       		.uleb128 0x52
 11156 033b 01       		.uleb128 0x1
 11157 033c 55       		.uleb128 0x55
 11158 033d 06       		.uleb128 0x6
 11159 033e 58       		.uleb128 0x58
 11160 033f 0B       		.uleb128 0xb
 11161 0340 59       		.uleb128 0x59
 11162 0341 0B       		.uleb128 0xb
 11163 0342 01       		.uleb128 0x1
 11164 0343 13       		.uleb128 0x13
ARM GAS  C:\Users\EBANO_~1\AppData\Local\Temp\ccFRmLE5.s 			page 224


 11165 0344 00       		.byte	0
 11166 0345 00       		.byte	0
 11167 0346 3F       		.uleb128 0x3f
 11168 0347 898201   		.uleb128 0x4109
 11169 034a 01       		.byte	0x1
 11170 034b 11       		.uleb128 0x11
 11171 034c 01       		.uleb128 0x1
 11172 034d 31       		.uleb128 0x31
 11173 034e 13       		.uleb128 0x13
 11174 034f 01       		.uleb128 0x1
 11175 0350 13       		.uleb128 0x13
 11176 0351 00       		.byte	0
 11177 0352 00       		.byte	0
 11178 0353 40       		.uleb128 0x40
 11179 0354 2E       		.uleb128 0x2e
 11180 0355 01       		.byte	0x1
 11181 0356 3F       		.uleb128 0x3f
 11182 0357 0C       		.uleb128 0xc
 11183 0358 03       		.uleb128 0x3
 11184 0359 0E       		.uleb128 0xe
 11185 035a 3A       		.uleb128 0x3a
 11186 035b 0B       		.uleb128 0xb
 11187 035c 3B       		.uleb128 0x3b
 11188 035d 05       		.uleb128 0x5
 11189 035e 27       		.uleb128 0x27
 11190 035f 0C       		.uleb128 0xc
 11191 0360 49       		.uleb128 0x49
 11192 0361 13       		.uleb128 0x13
 11193 0362 11       		.uleb128 0x11
 11194 0363 01       		.uleb128 0x1
 11195 0364 12       		.uleb128 0x12
 11196 0365 01       		.uleb128 0x1
 11197 0366 40       		.uleb128 0x40
 11198 0367 06       		.uleb128 0x6
 11199 0368 9642     		.uleb128 0x2116
 11200 036a 0C       		.uleb128 0xc
 11201 036b 01       		.uleb128 0x1
 11202 036c 13       		.uleb128 0x13
 11203 036d 00       		.byte	0
 11204 036e 00       		.byte	0
 11205 036f 41       		.uleb128 0x41
 11206 0370 2E       		.uleb128 0x2e
 11207 0371 01       		.byte	0x1
 11208 0372 3F       		.uleb128 0x3f
 11209 0373 0C       		.uleb128 0xc
 11210 0374 03       		.uleb128 0x3
 11211 0375 0E       		.uleb128 0xe
 11212 0376 3A       		.uleb128 0x3a
 11213 0377 0B       		.uleb128 0xb
 11214 0378 3B       		.uleb128 0x3b
 11215 0379 05       		.uleb128 0x5
 11216 037a 27       		.uleb128 0x27
 11217 037b 0C       		.uleb128 0xc
 11218 037c 49       		.uleb128 0x49
 11219 037d 13       		.uleb128 0x13
 11220 037e 01       		.uleb128 0x1
 11221 037f 13       		.uleb128 0x13
ARM GAS  C:\Users\EBANO_~1\AppData\Local\Temp\ccFRmLE5.s 			page 225


 11222 0380 00       		.byte	0
 11223 0381 00       		.byte	0
 11224 0382 42       		.uleb128 0x42
 11225 0383 05       		.uleb128 0x5
 11226 0384 00       		.byte	0
 11227 0385 03       		.uleb128 0x3
 11228 0386 0E       		.uleb128 0xe
 11229 0387 3A       		.uleb128 0x3a
 11230 0388 0B       		.uleb128 0xb
 11231 0389 3B       		.uleb128 0x3b
 11232 038a 05       		.uleb128 0x5
 11233 038b 49       		.uleb128 0x49
 11234 038c 13       		.uleb128 0x13
 11235 038d 00       		.byte	0
 11236 038e 00       		.byte	0
 11237 038f 43       		.uleb128 0x43
 11238 0390 2E       		.uleb128 0x2e
 11239 0391 01       		.byte	0x1
 11240 0392 3F       		.uleb128 0x3f
 11241 0393 0C       		.uleb128 0xc
 11242 0394 03       		.uleb128 0x3
 11243 0395 0E       		.uleb128 0xe
 11244 0396 3A       		.uleb128 0x3a
 11245 0397 0B       		.uleb128 0xb
 11246 0398 3B       		.uleb128 0x3b
 11247 0399 05       		.uleb128 0x5
 11248 039a 27       		.uleb128 0x27
 11249 039b 0C       		.uleb128 0xc
 11250 039c 49       		.uleb128 0x49
 11251 039d 13       		.uleb128 0x13
 11252 039e 20       		.uleb128 0x20
 11253 039f 0B       		.uleb128 0xb
 11254 03a0 01       		.uleb128 0x1
 11255 03a1 13       		.uleb128 0x13
 11256 03a2 00       		.byte	0
 11257 03a3 00       		.byte	0
 11258 03a4 44       		.uleb128 0x44
 11259 03a5 05       		.uleb128 0x5
 11260 03a6 00       		.byte	0
 11261 03a7 03       		.uleb128 0x3
 11262 03a8 0E       		.uleb128 0xe
 11263 03a9 3A       		.uleb128 0x3a
 11264 03aa 0B       		.uleb128 0xb
 11265 03ab 3B       		.uleb128 0x3b
 11266 03ac 05       		.uleb128 0x5
 11267 03ad 49       		.uleb128 0x49
 11268 03ae 13       		.uleb128 0x13
 11269 03af 02       		.uleb128 0x2
 11270 03b0 0A       		.uleb128 0xa
 11271 03b1 00       		.byte	0
 11272 03b2 00       		.byte	0
 11273 03b3 45       		.uleb128 0x45
 11274 03b4 898201   		.uleb128 0x4109
 11275 03b7 00       		.byte	0
 11276 03b8 11       		.uleb128 0x11
 11277 03b9 01       		.uleb128 0x1
 11278 03ba 9342     		.uleb128 0x2113
ARM GAS  C:\Users\EBANO_~1\AppData\Local\Temp\ccFRmLE5.s 			page 226


 11279 03bc 0A       		.uleb128 0xa
 11280 03bd 00       		.byte	0
 11281 03be 00       		.byte	0
 11282 03bf 46       		.uleb128 0x46
 11283 03c0 898201   		.uleb128 0x4109
 11284 03c3 01       		.byte	0x1
 11285 03c4 11       		.uleb128 0x11
 11286 03c5 01       		.uleb128 0x1
 11287 03c6 9342     		.uleb128 0x2113
 11288 03c8 0A       		.uleb128 0xa
 11289 03c9 01       		.uleb128 0x1
 11290 03ca 13       		.uleb128 0x13
 11291 03cb 00       		.byte	0
 11292 03cc 00       		.byte	0
 11293 03cd 47       		.uleb128 0x47
 11294 03ce 898201   		.uleb128 0x4109
 11295 03d1 01       		.byte	0x1
 11296 03d2 11       		.uleb128 0x11
 11297 03d3 01       		.uleb128 0x1
 11298 03d4 9342     		.uleb128 0x2113
 11299 03d6 0A       		.uleb128 0xa
 11300 03d7 00       		.byte	0
 11301 03d8 00       		.byte	0
 11302 03d9 48       		.uleb128 0x48
 11303 03da 05       		.uleb128 0x5
 11304 03db 00       		.byte	0
 11305 03dc 31       		.uleb128 0x31
 11306 03dd 13       		.uleb128 0x13
 11307 03de 00       		.byte	0
 11308 03df 00       		.byte	0
 11309 03e0 49       		.uleb128 0x49
 11310 03e1 898201   		.uleb128 0x4109
 11311 03e4 00       		.byte	0
 11312 03e5 11       		.uleb128 0x11
 11313 03e6 01       		.uleb128 0x1
 11314 03e7 00       		.byte	0
 11315 03e8 00       		.byte	0
 11316 03e9 4A       		.uleb128 0x4a
 11317 03ea 34       		.uleb128 0x34
 11318 03eb 00       		.byte	0
 11319 03ec 03       		.uleb128 0x3
 11320 03ed 08       		.uleb128 0x8
 11321 03ee 3A       		.uleb128 0x3a
 11322 03ef 0B       		.uleb128 0xb
 11323 03f0 3B       		.uleb128 0x3b
 11324 03f1 05       		.uleb128 0x5
 11325 03f2 49       		.uleb128 0x49
 11326 03f3 13       		.uleb128 0x13
 11327 03f4 00       		.byte	0
 11328 03f5 00       		.byte	0
 11329 03f6 4B       		.uleb128 0x4b
 11330 03f7 0B       		.uleb128 0xb
 11331 03f8 01       		.byte	0x1
 11332 03f9 11       		.uleb128 0x11
 11333 03fa 01       		.uleb128 0x1
 11334 03fb 12       		.uleb128 0x12
 11335 03fc 01       		.uleb128 0x1
ARM GAS  C:\Users\EBANO_~1\AppData\Local\Temp\ccFRmLE5.s 			page 227


 11336 03fd 00       		.byte	0
 11337 03fe 00       		.byte	0
 11338 03ff 4C       		.uleb128 0x4c
 11339 0400 0B       		.uleb128 0xb
 11340 0401 01       		.byte	0x1
 11341 0402 11       		.uleb128 0x11
 11342 0403 01       		.uleb128 0x1
 11343 0404 12       		.uleb128 0x12
 11344 0405 01       		.uleb128 0x1
 11345 0406 01       		.uleb128 0x1
 11346 0407 13       		.uleb128 0x13
 11347 0408 00       		.byte	0
 11348 0409 00       		.byte	0
 11349 040a 4D       		.uleb128 0x4d
 11350 040b 2E       		.uleb128 0x2e
 11351 040c 01       		.byte	0x1
 11352 040d 03       		.uleb128 0x3
 11353 040e 0E       		.uleb128 0xe
 11354 040f 3A       		.uleb128 0x3a
 11355 0410 0B       		.uleb128 0xb
 11356 0411 3B       		.uleb128 0x3b
 11357 0412 05       		.uleb128 0x5
 11358 0413 27       		.uleb128 0x27
 11359 0414 0C       		.uleb128 0xc
 11360 0415 49       		.uleb128 0x49
 11361 0416 13       		.uleb128 0x13
 11362 0417 20       		.uleb128 0x20
 11363 0418 0B       		.uleb128 0xb
 11364 0419 01       		.uleb128 0x1
 11365 041a 13       		.uleb128 0x13
 11366 041b 00       		.byte	0
 11367 041c 00       		.byte	0
 11368 041d 4E       		.uleb128 0x4e
 11369 041e 0B       		.uleb128 0xb
 11370 041f 01       		.byte	0x1
 11371 0420 00       		.byte	0
 11372 0421 00       		.byte	0
 11373 0422 4F       		.uleb128 0x4f
 11374 0423 2E       		.uleb128 0x2e
 11375 0424 01       		.byte	0x1
 11376 0425 03       		.uleb128 0x3
 11377 0426 0E       		.uleb128 0xe
 11378 0427 3A       		.uleb128 0x3a
 11379 0428 0B       		.uleb128 0xb
 11380 0429 3B       		.uleb128 0x3b
 11381 042a 0B       		.uleb128 0xb
 11382 042b 27       		.uleb128 0x27
 11383 042c 0C       		.uleb128 0xc
 11384 042d 49       		.uleb128 0x49
 11385 042e 13       		.uleb128 0x13
 11386 042f 20       		.uleb128 0x20
 11387 0430 0B       		.uleb128 0xb
 11388 0431 01       		.uleb128 0x1
 11389 0432 13       		.uleb128 0x13
 11390 0433 00       		.byte	0
 11391 0434 00       		.byte	0
 11392 0435 50       		.uleb128 0x50
ARM GAS  C:\Users\EBANO_~1\AppData\Local\Temp\ccFRmLE5.s 			page 228


 11393 0436 05       		.uleb128 0x5
 11394 0437 00       		.byte	0
 11395 0438 03       		.uleb128 0x3
 11396 0439 0E       		.uleb128 0xe
 11397 043a 3A       		.uleb128 0x3a
 11398 043b 0B       		.uleb128 0xb
 11399 043c 3B       		.uleb128 0x3b
 11400 043d 0B       		.uleb128 0xb
 11401 043e 49       		.uleb128 0x49
 11402 043f 13       		.uleb128 0x13
 11403 0440 00       		.byte	0
 11404 0441 00       		.byte	0
 11405 0442 51       		.uleb128 0x51
 11406 0443 34       		.uleb128 0x34
 11407 0444 00       		.byte	0
 11408 0445 03       		.uleb128 0x3
 11409 0446 0E       		.uleb128 0xe
 11410 0447 3A       		.uleb128 0x3a
 11411 0448 0B       		.uleb128 0xb
 11412 0449 3B       		.uleb128 0x3b
 11413 044a 0B       		.uleb128 0xb
 11414 044b 49       		.uleb128 0x49
 11415 044c 13       		.uleb128 0x13
 11416 044d 00       		.byte	0
 11417 044e 00       		.byte	0
 11418 044f 52       		.uleb128 0x52
 11419 0450 34       		.uleb128 0x34
 11420 0451 00       		.byte	0
 11421 0452 03       		.uleb128 0x3
 11422 0453 08       		.uleb128 0x8
 11423 0454 3A       		.uleb128 0x3a
 11424 0455 0B       		.uleb128 0xb
 11425 0456 3B       		.uleb128 0x3b
 11426 0457 0B       		.uleb128 0xb
 11427 0458 49       		.uleb128 0x49
 11428 0459 13       		.uleb128 0x13
 11429 045a 00       		.byte	0
 11430 045b 00       		.byte	0
 11431 045c 53       		.uleb128 0x53
 11432 045d 05       		.uleb128 0x5
 11433 045e 00       		.byte	0
 11434 045f 03       		.uleb128 0x3
 11435 0460 08       		.uleb128 0x8
 11436 0461 3A       		.uleb128 0x3a
 11437 0462 0B       		.uleb128 0xb
 11438 0463 3B       		.uleb128 0x3b
 11439 0464 0B       		.uleb128 0xb
 11440 0465 49       		.uleb128 0x49
 11441 0466 13       		.uleb128 0x13
 11442 0467 00       		.byte	0
 11443 0468 00       		.byte	0
 11444 0469 54       		.uleb128 0x54
 11445 046a 2E       		.uleb128 0x2e
 11446 046b 01       		.byte	0x1
 11447 046c 31       		.uleb128 0x31
 11448 046d 13       		.uleb128 0x13
 11449 046e 11       		.uleb128 0x11
ARM GAS  C:\Users\EBANO_~1\AppData\Local\Temp\ccFRmLE5.s 			page 229


 11450 046f 01       		.uleb128 0x1
 11451 0470 12       		.uleb128 0x12
 11452 0471 01       		.uleb128 0x1
 11453 0472 40       		.uleb128 0x40
 11454 0473 06       		.uleb128 0x6
 11455 0474 9742     		.uleb128 0x2117
 11456 0476 0C       		.uleb128 0xc
 11457 0477 01       		.uleb128 0x1
 11458 0478 13       		.uleb128 0x13
 11459 0479 00       		.byte	0
 11460 047a 00       		.byte	0
 11461 047b 55       		.uleb128 0x55
 11462 047c 1D       		.uleb128 0x1d
 11463 047d 01       		.byte	0x1
 11464 047e 31       		.uleb128 0x31
 11465 047f 13       		.uleb128 0x13
 11466 0480 11       		.uleb128 0x11
 11467 0481 01       		.uleb128 0x1
 11468 0482 12       		.uleb128 0x12
 11469 0483 01       		.uleb128 0x1
 11470 0484 58       		.uleb128 0x58
 11471 0485 0B       		.uleb128 0xb
 11472 0486 59       		.uleb128 0x59
 11473 0487 05       		.uleb128 0x5
 11474 0488 01       		.uleb128 0x1
 11475 0489 13       		.uleb128 0x13
 11476 048a 00       		.byte	0
 11477 048b 00       		.byte	0
 11478 048c 56       		.uleb128 0x56
 11479 048d 2E       		.uleb128 0x2e
 11480 048e 01       		.byte	0x1
 11481 048f 31       		.uleb128 0x31
 11482 0490 13       		.uleb128 0x13
 11483 0491 11       		.uleb128 0x11
 11484 0492 01       		.uleb128 0x1
 11485 0493 12       		.uleb128 0x12
 11486 0494 01       		.uleb128 0x1
 11487 0495 40       		.uleb128 0x40
 11488 0496 0A       		.uleb128 0xa
 11489 0497 9742     		.uleb128 0x2117
 11490 0499 0C       		.uleb128 0xc
 11491 049a 01       		.uleb128 0x1
 11492 049b 13       		.uleb128 0x13
 11493 049c 00       		.byte	0
 11494 049d 00       		.byte	0
 11495 049e 57       		.uleb128 0x57
 11496 049f 2E       		.uleb128 0x2e
 11497 04a0 00       		.byte	0
 11498 04a1 3F       		.uleb128 0x3f
 11499 04a2 0C       		.uleb128 0xc
 11500 04a3 3C       		.uleb128 0x3c
 11501 04a4 0C       		.uleb128 0xc
 11502 04a5 8740     		.uleb128 0x2007
 11503 04a7 0E       		.uleb128 0xe
 11504 04a8 03       		.uleb128 0x3
 11505 04a9 0E       		.uleb128 0xe
 11506 04aa 3A       		.uleb128 0x3a
ARM GAS  C:\Users\EBANO_~1\AppData\Local\Temp\ccFRmLE5.s 			page 230


 11507 04ab 0B       		.uleb128 0xb
 11508 04ac 3B       		.uleb128 0x3b
 11509 04ad 05       		.uleb128 0x5
 11510 04ae 00       		.byte	0
 11511 04af 00       		.byte	0
 11512 04b0 58       		.uleb128 0x58
 11513 04b1 2E       		.uleb128 0x2e
 11514 04b2 00       		.byte	0
 11515 04b3 3F       		.uleb128 0x3f
 11516 04b4 0C       		.uleb128 0xc
 11517 04b5 3C       		.uleb128 0x3c
 11518 04b6 0C       		.uleb128 0xc
 11519 04b7 8740     		.uleb128 0x2007
 11520 04b9 0E       		.uleb128 0xe
 11521 04ba 03       		.uleb128 0x3
 11522 04bb 0E       		.uleb128 0xe
 11523 04bc 3A       		.uleb128 0x3a
 11524 04bd 0B       		.uleb128 0xb
 11525 04be 3B       		.uleb128 0x3b
 11526 04bf 0B       		.uleb128 0xb
 11527 04c0 00       		.byte	0
 11528 04c1 00       		.byte	0
 11529 04c2 59       		.uleb128 0x59
 11530 04c3 2E       		.uleb128 0x2e
 11531 04c4 00       		.byte	0
 11532 04c5 3F       		.uleb128 0x3f
 11533 04c6 0C       		.uleb128 0xc
 11534 04c7 3C       		.uleb128 0x3c
 11535 04c8 0C       		.uleb128 0xc
 11536 04c9 8740     		.uleb128 0x2007
 11537 04cb 0E       		.uleb128 0xe
 11538 04cc 03       		.uleb128 0x3
 11539 04cd 0E       		.uleb128 0xe
 11540 04ce 3A       		.uleb128 0x3a
 11541 04cf 0B       		.uleb128 0xb
 11542 04d0 3B       		.uleb128 0x3b
 11543 04d1 0B       		.uleb128 0xb
 11544 04d2 8740     		.uleb128 0x2007
 11545 04d4 0E       		.uleb128 0xe
 11546 04d5 00       		.byte	0
 11547 04d6 00       		.byte	0
 11548 04d7 00       		.byte	0
 11549              		.section	.debug_loc,"",%progbits
 11550              	.Ldebug_loc0:
 11551              	.LLST112:
 11552 0000 00000000 		.4byte	.LFB68
 11553 0004 02000000 		.4byte	.LCFI30
 11554 0008 0200     		.2byte	0x2
 11555 000a 7D       		.byte	0x7d
 11556 000b 00       		.sleb128 0
 11557 000c 02000000 		.4byte	.LCFI30
 11558 0010 06000000 		.4byte	.LCFI31
 11559 0014 0200     		.2byte	0x2
 11560 0016 7D       		.byte	0x7d
 11561 0017 08       		.sleb128 8
 11562 0018 06000000 		.4byte	.LCFI31
 11563 001c 38000000 		.4byte	.LFE68
ARM GAS  C:\Users\EBANO_~1\AppData\Local\Temp\ccFRmLE5.s 			page 231


 11564 0020 0200     		.2byte	0x2
 11565 0022 7D       		.byte	0x7d
 11566 0023 20       		.sleb128 32
 11567 0024 00000000 		.4byte	0
 11568 0028 00000000 		.4byte	0
 11569              	.LLST113:
 11570 002c 00000000 		.4byte	.LVL347
 11571 0030 22000000 		.4byte	.LVL348
 11572 0034 0100     		.2byte	0x1
 11573 0036 50       		.byte	0x50
 11574 0037 22000000 		.4byte	.LVL348
 11575 003b 38000000 		.4byte	.LFE68
 11576 003f 0400     		.2byte	0x4
 11577 0041 F3       		.byte	0xf3
 11578 0042 01       		.uleb128 0x1
 11579 0043 50       		.byte	0x50
 11580 0044 9F       		.byte	0x9f
 11581 0045 00000000 		.4byte	0
 11582 0049 00000000 		.4byte	0
 11583              	.LLST114:
 11584 004d 00000000 		.4byte	.LVL347
 11585 0051 27000000 		.4byte	.LVL349-1
 11586 0055 0100     		.2byte	0x1
 11587 0057 51       		.byte	0x51
 11588 0058 27000000 		.4byte	.LVL349-1
 11589 005c 2E000000 		.4byte	.LVL350
 11590 0060 0100     		.2byte	0x1
 11591 0062 54       		.byte	0x54
 11592 0063 2E000000 		.4byte	.LVL350
 11593 0067 38000000 		.4byte	.LFE68
 11594 006b 0400     		.2byte	0x4
 11595 006d F3       		.byte	0xf3
 11596 006e 01       		.uleb128 0x1
 11597 006f 51       		.byte	0x51
 11598 0070 9F       		.byte	0x9f
 11599 0071 00000000 		.4byte	0
 11600 0075 00000000 		.4byte	0
 11601              	.LLST109:
 11602 0079 00000000 		.4byte	.LVL342
 11603 007d 0E000000 		.4byte	.LVL346
 11604 0081 0100     		.2byte	0x1
 11605 0083 50       		.byte	0x50
 11606 0084 0E000000 		.4byte	.LVL346
 11607 0088 1C000000 		.4byte	.LFE67
 11608 008c 0400     		.2byte	0x4
 11609 008e F3       		.byte	0xf3
 11610 008f 01       		.uleb128 0x1
 11611 0090 50       		.byte	0x50
 11612 0091 9F       		.byte	0x9f
 11613 0092 00000000 		.4byte	0
 11614 0096 00000000 		.4byte	0
 11615              	.LLST110:
 11616 009a 00000000 		.4byte	.LVL342
 11617 009e 04000000 		.4byte	.LVL343
 11618 00a2 0100     		.2byte	0x1
 11619 00a4 51       		.byte	0x51
 11620 00a5 04000000 		.4byte	.LVL343
ARM GAS  C:\Users\EBANO_~1\AppData\Local\Temp\ccFRmLE5.s 			page 232


 11621 00a9 1C000000 		.4byte	.LFE67
 11622 00ad 0400     		.2byte	0x4
 11623 00af F3       		.byte	0xf3
 11624 00b0 01       		.uleb128 0x1
 11625 00b1 51       		.byte	0x51
 11626 00b2 9F       		.byte	0x9f
 11627 00b3 00000000 		.4byte	0
 11628 00b7 00000000 		.4byte	0
 11629              	.LLST111:
 11630 00bb 00000000 		.4byte	.LVL342
 11631 00bf 0A000000 		.4byte	.LVL344
 11632 00c3 0100     		.2byte	0x1
 11633 00c5 52       		.byte	0x52
 11634 00c6 0A000000 		.4byte	.LVL344
 11635 00ca 1C000000 		.4byte	.LFE67
 11636 00ce 0400     		.2byte	0x4
 11637 00d0 F3       		.byte	0xf3
 11638 00d1 01       		.uleb128 0x1
 11639 00d2 52       		.byte	0x52
 11640 00d3 9F       		.byte	0x9f
 11641 00d4 00000000 		.4byte	0
 11642 00d8 00000000 		.4byte	0
 11643              	.LLST100:
 11644 00dc 00000000 		.4byte	.LFB66
 11645 00e0 04000000 		.4byte	.LCFI28
 11646 00e4 0200     		.2byte	0x2
 11647 00e6 7D       		.byte	0x7d
 11648 00e7 00       		.sleb128 0
 11649 00e8 04000000 		.4byte	.LCFI28
 11650 00ec 0A000000 		.4byte	.LCFI29
 11651 00f0 0200     		.2byte	0x2
 11652 00f2 7D       		.byte	0x7d
 11653 00f3 14       		.sleb128 20
 11654 00f4 0A000000 		.4byte	.LCFI29
 11655 00f8 90000000 		.4byte	.LFE66
 11656 00fc 0200     		.2byte	0x2
 11657 00fe 7D       		.byte	0x7d
 11658 00ff 20       		.sleb128 32
 11659 0100 00000000 		.4byte	0
 11660 0104 00000000 		.4byte	0
 11661              	.LLST101:
 11662 0108 00000000 		.4byte	.LVL320
 11663 010c 32000000 		.4byte	.LVL323
 11664 0110 0100     		.2byte	0x1
 11665 0112 50       		.byte	0x50
 11666 0113 32000000 		.4byte	.LVL323
 11667 0117 66000000 		.4byte	.LVL330
 11668 011b 0100     		.2byte	0x1
 11669 011d 54       		.byte	0x54
 11670 011e 66000000 		.4byte	.LVL330
 11671 0122 68000000 		.4byte	.LVL332
 11672 0126 0400     		.2byte	0x4
 11673 0128 F3       		.byte	0xf3
 11674 0129 01       		.uleb128 0x1
 11675 012a 50       		.byte	0x50
 11676 012b 9F       		.byte	0x9f
 11677 012c 68000000 		.4byte	.LVL332
ARM GAS  C:\Users\EBANO_~1\AppData\Local\Temp\ccFRmLE5.s 			page 233


 11678 0130 72000000 		.4byte	.LVL335
 11679 0134 0100     		.2byte	0x1
 11680 0136 54       		.byte	0x54
 11681 0137 72000000 		.4byte	.LVL335
 11682 013b 74000000 		.4byte	.LVL336
 11683 013f 0100     		.2byte	0x1
 11684 0141 50       		.byte	0x50
 11685 0142 74000000 		.4byte	.LVL336
 11686 0146 90000000 		.4byte	.LFE66
 11687 014a 0100     		.2byte	0x1
 11688 014c 54       		.byte	0x54
 11689 014d 00000000 		.4byte	0
 11690 0151 00000000 		.4byte	0
 11691              	.LLST102:
 11692 0155 46000000 		.4byte	.LVL325
 11693 0159 5A000000 		.4byte	.LVL328
 11694 015d 0200     		.2byte	0x2
 11695 015f 30       		.byte	0x30
 11696 0160 9F       		.byte	0x9f
 11697 0161 5A000000 		.4byte	.LVL328
 11698 0165 63000000 		.4byte	.LVL329-1
 11699 0169 0100     		.2byte	0x1
 11700 016b 51       		.byte	0x51
 11701 016c 00000000 		.4byte	0
 11702 0170 00000000 		.4byte	0
 11703              	.LLST103:
 11704 0174 52000000 		.4byte	.LVL326
 11705 0178 66000000 		.4byte	.LVL331
 11706 017c 0100     		.2byte	0x1
 11707 017e 55       		.byte	0x55
 11708 017f 00000000 		.4byte	0
 11709 0183 00000000 		.4byte	0
 11710              	.LLST104:
 11711 0187 10000000 		.4byte	.LVL321
 11712 018b 46000000 		.4byte	.LVL325
 11713 018f 0600     		.2byte	0x6
 11714 0191 03       		.byte	0x3
 11715 0192 70030000 		.4byte	NvmCtx+880
 11716 0196 9F       		.byte	0x9f
 11717 0197 68000000 		.4byte	.LVL332
 11718 019b 90000000 		.4byte	.LFE66
 11719 019f 0600     		.2byte	0x6
 11720 01a1 03       		.byte	0x3
 11721 01a2 70030000 		.4byte	NvmCtx+880
 11722 01a6 9F       		.byte	0x9f
 11723 01a7 00000000 		.4byte	0
 11724 01ab 00000000 		.4byte	0
 11725              	.LLST105:
 11726 01af 10000000 		.4byte	.LVL321
 11727 01b3 32000000 		.4byte	.LVL323
 11728 01b7 0200     		.2byte	0x2
 11729 01b9 70       		.byte	0x70
 11730 01ba 01       		.sleb128 1
 11731 01bb 32000000 		.4byte	.LVL323
 11732 01bf 37000000 		.4byte	.LVL324-1
 11733 01c3 0200     		.2byte	0x2
 11734 01c5 74       		.byte	0x74
ARM GAS  C:\Users\EBANO_~1\AppData\Local\Temp\ccFRmLE5.s 			page 234


 11735 01c6 01       		.sleb128 1
 11736 01c7 72000000 		.4byte	.LVL335
 11737 01cb 74000000 		.4byte	.LVL336
 11738 01cf 0200     		.2byte	0x2
 11739 01d1 70       		.byte	0x70
 11740 01d2 01       		.sleb128 1
 11741 01d3 74000000 		.4byte	.LVL336
 11742 01d7 80000000 		.4byte	.LVL340
 11743 01db 0200     		.2byte	0x2
 11744 01dd 74       		.byte	0x74
 11745 01de 01       		.sleb128 1
 11746 01df 00000000 		.4byte	0
 11747 01e3 00000000 		.4byte	0
 11748              	.LLST106:
 11749 01e7 10000000 		.4byte	.LVL321
 11750 01eb 24000000 		.4byte	.LVL322
 11751 01ef 1900     		.2byte	0x19
 11752 01f1 72       		.byte	0x72
 11753 01f2 00       		.sleb128 0
 11754 01f3 3C       		.byte	0x3c
 11755 01f4 1E       		.byte	0x1e
 11756 01f5 03       		.byte	0x3
 11757 01f6 09000000 		.4byte	NvmCtx+9
 11758 01fa 22       		.byte	0x22
 11759 01fb 94       		.byte	0x94
 11760 01fc 01       		.byte	0x1
 11761 01fd 08       		.byte	0x8
 11762 01fe FF       		.byte	0xff
 11763 01ff 1A       		.byte	0x1a
 11764 0200 23       		.byte	0x23
 11765 0201 36       		.uleb128 0x36
 11766 0202 34       		.byte	0x34
 11767 0203 24       		.byte	0x24
 11768 0204 03       		.byte	0x3
 11769 0205 02000000 		.4byte	NvmCtx+2
 11770 0209 22       		.byte	0x22
 11771 020a 24000000 		.4byte	.LVL322
 11772 020e 32000000 		.4byte	.LVL323
 11773 0212 1E00     		.2byte	0x1e
 11774 0214 70       		.byte	0x70
 11775 0215 00       		.sleb128 0
 11776 0216 94       		.byte	0x94
 11777 0217 01       		.byte	0x1
 11778 0218 08       		.byte	0x8
 11779 0219 FF       		.byte	0xff
 11780 021a 1A       		.byte	0x1a
 11781 021b 3C       		.byte	0x3c
 11782 021c 1E       		.byte	0x1e
 11783 021d 03       		.byte	0x3
 11784 021e 09000000 		.4byte	NvmCtx+9
 11785 0222 22       		.byte	0x22
 11786 0223 94       		.byte	0x94
 11787 0224 01       		.byte	0x1
 11788 0225 08       		.byte	0x8
 11789 0226 FF       		.byte	0xff
 11790 0227 1A       		.byte	0x1a
 11791 0228 23       		.byte	0x23
ARM GAS  C:\Users\EBANO_~1\AppData\Local\Temp\ccFRmLE5.s 			page 235


 11792 0229 36       		.uleb128 0x36
 11793 022a 34       		.byte	0x34
 11794 022b 24       		.byte	0x24
 11795 022c 03       		.byte	0x3
 11796 022d 02000000 		.4byte	NvmCtx+2
 11797 0231 22       		.byte	0x22
 11798 0232 32000000 		.4byte	.LVL323
 11799 0236 37000000 		.4byte	.LVL324-1
 11800 023a 1E00     		.2byte	0x1e
 11801 023c 74       		.byte	0x74
 11802 023d 00       		.sleb128 0
 11803 023e 94       		.byte	0x94
 11804 023f 01       		.byte	0x1
 11805 0240 08       		.byte	0x8
 11806 0241 FF       		.byte	0xff
 11807 0242 1A       		.byte	0x1a
 11808 0243 3C       		.byte	0x3c
 11809 0244 1E       		.byte	0x1e
 11810 0245 03       		.byte	0x3
 11811 0246 09000000 		.4byte	NvmCtx+9
 11812 024a 22       		.byte	0x22
 11813 024b 94       		.byte	0x94
 11814 024c 01       		.byte	0x1
 11815 024d 08       		.byte	0x8
 11816 024e FF       		.byte	0xff
 11817 024f 1A       		.byte	0x1a
 11818 0250 23       		.byte	0x23
 11819 0251 36       		.uleb128 0x36
 11820 0252 34       		.byte	0x34
 11821 0253 24       		.byte	0x24
 11822 0254 03       		.byte	0x3
 11823 0255 02000000 		.4byte	NvmCtx+2
 11824 0259 22       		.byte	0x22
 11825 025a 72000000 		.4byte	.LVL335
 11826 025e 80000000 		.4byte	.LVL340
 11827 0262 1900     		.2byte	0x19
 11828 0264 72       		.byte	0x72
 11829 0265 00       		.sleb128 0
 11830 0266 3C       		.byte	0x3c
 11831 0267 1E       		.byte	0x1e
 11832 0268 03       		.byte	0x3
 11833 0269 09000000 		.4byte	NvmCtx+9
 11834 026d 22       		.byte	0x22
 11835 026e 94       		.byte	0x94
 11836 026f 01       		.byte	0x1
 11837 0270 08       		.byte	0x8
 11838 0271 FF       		.byte	0xff
 11839 0272 1A       		.byte	0x1a
 11840 0273 23       		.byte	0x23
 11841 0274 36       		.uleb128 0x36
 11842 0275 34       		.byte	0x34
 11843 0276 24       		.byte	0x24
 11844 0277 03       		.byte	0x3
 11845 0278 02000000 		.4byte	NvmCtx+2
 11846 027c 22       		.byte	0x22
 11847 027d 00000000 		.4byte	0
 11848 0281 00000000 		.4byte	0
ARM GAS  C:\Users\EBANO_~1\AppData\Local\Temp\ccFRmLE5.s 			page 236


 11849              	.LLST107:
 11850 0285 10000000 		.4byte	.LVL321
 11851 0289 46000000 		.4byte	.LVL325
 11852 028d 0100     		.2byte	0x1
 11853 028f 56       		.byte	0x56
 11854 0290 68000000 		.4byte	.LVL332
 11855 0294 6E000000 		.4byte	.LVL333
 11856 0298 0100     		.2byte	0x1
 11857 029a 56       		.byte	0x56
 11858 029b 6E000000 		.4byte	.LVL333
 11859 029f 70000000 		.4byte	.LVL334
 11860 02a3 0100     		.2byte	0x1
 11861 02a5 50       		.byte	0x50
 11862 02a6 70000000 		.4byte	.LVL334
 11863 02aa 78000000 		.4byte	.LVL337
 11864 02ae 0100     		.2byte	0x1
 11865 02b0 56       		.byte	0x56
 11866 02b1 78000000 		.4byte	.LVL337
 11867 02b5 7A000000 		.4byte	.LVL338
 11868 02b9 0100     		.2byte	0x1
 11869 02bb 50       		.byte	0x50
 11870 02bc 7A000000 		.4byte	.LVL338
 11871 02c0 80000000 		.4byte	.LVL340
 11872 02c4 0100     		.2byte	0x1
 11873 02c6 56       		.byte	0x56
 11874 02c7 80000000 		.4byte	.LVL340
 11875 02cb 82000000 		.4byte	.LVL341
 11876 02cf 0100     		.2byte	0x1
 11877 02d1 50       		.byte	0x50
 11878 02d2 82000000 		.4byte	.LVL341
 11879 02d6 90000000 		.4byte	.LFE66
 11880 02da 0100     		.2byte	0x1
 11881 02dc 56       		.byte	0x56
 11882 02dd 00000000 		.4byte	0
 11883 02e1 00000000 		.4byte	0
 11884              	.LLST108:
 11885 02e5 10000000 		.4byte	.LVL321
 11886 02e9 24000000 		.4byte	.LVL322
 11887 02ed 2700     		.2byte	0x27
 11888 02ef 72       		.byte	0x72
 11889 02f0 00       		.sleb128 0
 11890 02f1 3C       		.byte	0x3c
 11891 02f2 1E       		.byte	0x1e
 11892 02f3 03       		.byte	0x3
 11893 02f4 09000000 		.4byte	NvmCtx+9
 11894 02f8 22       		.byte	0x22
 11895 02f9 94       		.byte	0x94
 11896 02fa 01       		.byte	0x1
 11897 02fb 08       		.byte	0x8
 11898 02fc FF       		.byte	0xff
 11899 02fd 1A       		.byte	0x1a
 11900 02fe 23       		.byte	0x23
 11901 02ff 36       		.uleb128 0x36
 11902 0300 34       		.byte	0x34
 11903 0301 24       		.byte	0x24
 11904 0302 03       		.byte	0x3
 11905 0303 02000000 		.4byte	NvmCtx+2
ARM GAS  C:\Users\EBANO_~1\AppData\Local\Temp\ccFRmLE5.s 			page 237


 11906 0307 22       		.byte	0x22
 11907 0308 94       		.byte	0x94
 11908 0309 01       		.byte	0x1
 11909 030a 12       		.byte	0x12
 11910 030b 76       		.byte	0x76
 11911 030c 00       		.sleb128 0
 11912 030d 16       		.byte	0x16
 11913 030e 14       		.byte	0x14
 11914 030f 2B       		.byte	0x2b
 11915 0310 28       		.byte	0x28
 11916 0311 0100     		.2byte	0x1
 11917 0313 16       		.byte	0x16
 11918 0314 13       		.byte	0x13
 11919 0315 9F       		.byte	0x9f
 11920 0316 24000000 		.4byte	.LVL322
 11921 031a 32000000 		.4byte	.LVL323
 11922 031e 2C00     		.2byte	0x2c
 11923 0320 70       		.byte	0x70
 11924 0321 00       		.sleb128 0
 11925 0322 94       		.byte	0x94
 11926 0323 01       		.byte	0x1
 11927 0324 08       		.byte	0x8
 11928 0325 FF       		.byte	0xff
 11929 0326 1A       		.byte	0x1a
 11930 0327 3C       		.byte	0x3c
 11931 0328 1E       		.byte	0x1e
 11932 0329 03       		.byte	0x3
 11933 032a 09000000 		.4byte	NvmCtx+9
 11934 032e 22       		.byte	0x22
 11935 032f 94       		.byte	0x94
 11936 0330 01       		.byte	0x1
 11937 0331 08       		.byte	0x8
 11938 0332 FF       		.byte	0xff
 11939 0333 1A       		.byte	0x1a
 11940 0334 23       		.byte	0x23
 11941 0335 36       		.uleb128 0x36
 11942 0336 34       		.byte	0x34
 11943 0337 24       		.byte	0x24
 11944 0338 03       		.byte	0x3
 11945 0339 02000000 		.4byte	NvmCtx+2
 11946 033d 22       		.byte	0x22
 11947 033e 94       		.byte	0x94
 11948 033f 01       		.byte	0x1
 11949 0340 12       		.byte	0x12
 11950 0341 76       		.byte	0x76
 11951 0342 00       		.sleb128 0
 11952 0343 16       		.byte	0x16
 11953 0344 14       		.byte	0x14
 11954 0345 2B       		.byte	0x2b
 11955 0346 28       		.byte	0x28
 11956 0347 0100     		.2byte	0x1
 11957 0349 16       		.byte	0x16
 11958 034a 13       		.byte	0x13
 11959 034b 9F       		.byte	0x9f
 11960 034c 32000000 		.4byte	.LVL323
 11961 0350 37000000 		.4byte	.LVL324-1
 11962 0354 2C00     		.2byte	0x2c
ARM GAS  C:\Users\EBANO_~1\AppData\Local\Temp\ccFRmLE5.s 			page 238


 11963 0356 74       		.byte	0x74
 11964 0357 00       		.sleb128 0
 11965 0358 94       		.byte	0x94
 11966 0359 01       		.byte	0x1
 11967 035a 08       		.byte	0x8
 11968 035b FF       		.byte	0xff
 11969 035c 1A       		.byte	0x1a
 11970 035d 3C       		.byte	0x3c
 11971 035e 1E       		.byte	0x1e
 11972 035f 03       		.byte	0x3
 11973 0360 09000000 		.4byte	NvmCtx+9
 11974 0364 22       		.byte	0x22
 11975 0365 94       		.byte	0x94
 11976 0366 01       		.byte	0x1
 11977 0367 08       		.byte	0x8
 11978 0368 FF       		.byte	0xff
 11979 0369 1A       		.byte	0x1a
 11980 036a 23       		.byte	0x23
 11981 036b 36       		.uleb128 0x36
 11982 036c 34       		.byte	0x34
 11983 036d 24       		.byte	0x24
 11984 036e 03       		.byte	0x3
 11985 036f 02000000 		.4byte	NvmCtx+2
 11986 0373 22       		.byte	0x22
 11987 0374 94       		.byte	0x94
 11988 0375 01       		.byte	0x1
 11989 0376 12       		.byte	0x12
 11990 0377 76       		.byte	0x76
 11991 0378 00       		.sleb128 0
 11992 0379 16       		.byte	0x16
 11993 037a 14       		.byte	0x14
 11994 037b 2B       		.byte	0x2b
 11995 037c 28       		.byte	0x28
 11996 037d 0100     		.2byte	0x1
 11997 037f 16       		.byte	0x16
 11998 0380 13       		.byte	0x13
 11999 0381 9F       		.byte	0x9f
 12000 0382 72000000 		.4byte	.LVL335
 12001 0386 78000000 		.4byte	.LVL337
 12002 038a 2700     		.2byte	0x27
 12003 038c 72       		.byte	0x72
 12004 038d 00       		.sleb128 0
 12005 038e 3C       		.byte	0x3c
 12006 038f 1E       		.byte	0x1e
 12007 0390 03       		.byte	0x3
 12008 0391 09000000 		.4byte	NvmCtx+9
 12009 0395 22       		.byte	0x22
 12010 0396 94       		.byte	0x94
 12011 0397 01       		.byte	0x1
 12012 0398 08       		.byte	0x8
 12013 0399 FF       		.byte	0xff
 12014 039a 1A       		.byte	0x1a
 12015 039b 23       		.byte	0x23
 12016 039c 36       		.uleb128 0x36
 12017 039d 34       		.byte	0x34
 12018 039e 24       		.byte	0x24
 12019 039f 03       		.byte	0x3
ARM GAS  C:\Users\EBANO_~1\AppData\Local\Temp\ccFRmLE5.s 			page 239


 12020 03a0 02000000 		.4byte	NvmCtx+2
 12021 03a4 22       		.byte	0x22
 12022 03a5 94       		.byte	0x94
 12023 03a6 01       		.byte	0x1
 12024 03a7 12       		.byte	0x12
 12025 03a8 76       		.byte	0x76
 12026 03a9 00       		.sleb128 0
 12027 03aa 16       		.byte	0x16
 12028 03ab 14       		.byte	0x14
 12029 03ac 2B       		.byte	0x2b
 12030 03ad 28       		.byte	0x28
 12031 03ae 0100     		.2byte	0x1
 12032 03b0 16       		.byte	0x16
 12033 03b1 13       		.byte	0x13
 12034 03b2 9F       		.byte	0x9f
 12035 03b3 78000000 		.4byte	.LVL337
 12036 03b7 7A000000 		.4byte	.LVL338
 12037 03bb 2700     		.2byte	0x27
 12038 03bd 72       		.byte	0x72
 12039 03be 00       		.sleb128 0
 12040 03bf 3C       		.byte	0x3c
 12041 03c0 1E       		.byte	0x1e
 12042 03c1 03       		.byte	0x3
 12043 03c2 09000000 		.4byte	NvmCtx+9
 12044 03c6 22       		.byte	0x22
 12045 03c7 94       		.byte	0x94
 12046 03c8 01       		.byte	0x1
 12047 03c9 08       		.byte	0x8
 12048 03ca FF       		.byte	0xff
 12049 03cb 1A       		.byte	0x1a
 12050 03cc 23       		.byte	0x23
 12051 03cd 36       		.uleb128 0x36
 12052 03ce 34       		.byte	0x34
 12053 03cf 24       		.byte	0x24
 12054 03d0 03       		.byte	0x3
 12055 03d1 02000000 		.4byte	NvmCtx+2
 12056 03d5 22       		.byte	0x22
 12057 03d6 94       		.byte	0x94
 12058 03d7 01       		.byte	0x1
 12059 03d8 12       		.byte	0x12
 12060 03d9 70       		.byte	0x70
 12061 03da 00       		.sleb128 0
 12062 03db 16       		.byte	0x16
 12063 03dc 14       		.byte	0x14
 12064 03dd 2B       		.byte	0x2b
 12065 03de 28       		.byte	0x28
 12066 03df 0100     		.2byte	0x1
 12067 03e1 16       		.byte	0x16
 12068 03e2 13       		.byte	0x13
 12069 03e3 9F       		.byte	0x9f
 12070 03e4 7A000000 		.4byte	.LVL338
 12071 03e8 7C000000 		.4byte	.LVL339
 12072 03ec 2700     		.2byte	0x27
 12073 03ee 72       		.byte	0x72
 12074 03ef 00       		.sleb128 0
 12075 03f0 3C       		.byte	0x3c
 12076 03f1 1E       		.byte	0x1e
ARM GAS  C:\Users\EBANO_~1\AppData\Local\Temp\ccFRmLE5.s 			page 240


 12077 03f2 03       		.byte	0x3
 12078 03f3 09000000 		.4byte	NvmCtx+9
 12079 03f7 22       		.byte	0x22
 12080 03f8 94       		.byte	0x94
 12081 03f9 01       		.byte	0x1
 12082 03fa 08       		.byte	0x8
 12083 03fb FF       		.byte	0xff
 12084 03fc 1A       		.byte	0x1a
 12085 03fd 23       		.byte	0x23
 12086 03fe 36       		.uleb128 0x36
 12087 03ff 34       		.byte	0x34
 12088 0400 24       		.byte	0x24
 12089 0401 03       		.byte	0x3
 12090 0402 02000000 		.4byte	NvmCtx+2
 12091 0406 22       		.byte	0x22
 12092 0407 94       		.byte	0x94
 12093 0408 01       		.byte	0x1
 12094 0409 12       		.byte	0x12
 12095 040a 76       		.byte	0x76
 12096 040b 00       		.sleb128 0
 12097 040c 16       		.byte	0x16
 12098 040d 14       		.byte	0x14
 12099 040e 2B       		.byte	0x2b
 12100 040f 28       		.byte	0x28
 12101 0410 0100     		.2byte	0x1
 12102 0412 16       		.byte	0x16
 12103 0413 13       		.byte	0x13
 12104 0414 9F       		.byte	0x9f
 12105 0415 00000000 		.4byte	0
 12106 0419 00000000 		.4byte	0
 12107              	.LLST99:
 12108 041d 00000000 		.4byte	.LVL318
 12109 0421 02000000 		.4byte	.LVL319
 12110 0425 0100     		.2byte	0x1
 12111 0427 50       		.byte	0x50
 12112 0428 02000000 		.4byte	.LVL319
 12113 042c 04000000 		.4byte	.LFE65
 12114 0430 0400     		.2byte	0x4
 12115 0432 F3       		.byte	0xf3
 12116 0433 01       		.uleb128 0x1
 12117 0434 50       		.byte	0x50
 12118 0435 9F       		.byte	0x9f
 12119 0436 00000000 		.4byte	0
 12120 043a 00000000 		.4byte	0
 12121              	.LLST98:
 12122 043e 00000000 		.4byte	.LVL316
 12123 0442 02000000 		.4byte	.LVL317
 12124 0446 0100     		.2byte	0x1
 12125 0448 50       		.byte	0x50
 12126 0449 02000000 		.4byte	.LVL317
 12127 044d 04000000 		.4byte	.LFE64
 12128 0451 0400     		.2byte	0x4
 12129 0453 F3       		.byte	0xf3
 12130 0454 01       		.uleb128 0x1
 12131 0455 50       		.byte	0x50
 12132 0456 9F       		.byte	0x9f
 12133 0457 00000000 		.4byte	0
ARM GAS  C:\Users\EBANO_~1\AppData\Local\Temp\ccFRmLE5.s 			page 241


 12134 045b 00000000 		.4byte	0
 12135              	.LLST68:
 12136 045f 00000000 		.4byte	.LFB63
 12137 0463 02000000 		.4byte	.LCFI25
 12138 0467 0200     		.2byte	0x2
 12139 0469 7D       		.byte	0x7d
 12140 046a 00       		.sleb128 0
 12141 046b 02000000 		.4byte	.LCFI25
 12142 046f 0C000000 		.4byte	.LCFI26
 12143 0473 0200     		.2byte	0x2
 12144 0475 7D       		.byte	0x7d
 12145 0476 14       		.sleb128 20
 12146 0477 0C000000 		.4byte	.LCFI26
 12147 047b 0E000000 		.4byte	.LCFI27
 12148 047f 0200     		.2byte	0x2
 12149 0481 7D       		.byte	0x7d
 12150 0482 24       		.sleb128 36
 12151 0483 0E000000 		.4byte	.LCFI27
 12152 0487 14030000 		.4byte	.LFE63
 12153 048b 0300     		.2byte	0x3
 12154 048d 7D       		.byte	0x7d
 12155 048e 9801     		.sleb128 152
 12156 0490 00000000 		.4byte	0
 12157 0494 00000000 		.4byte	0
 12158              	.LLST69:
 12159 0498 00000000 		.4byte	.LVL225
 12160 049c 1A000000 		.4byte	.LVL228
 12161 04a0 0100     		.2byte	0x1
 12162 04a2 50       		.byte	0x50
 12163 04a3 1A000000 		.4byte	.LVL228
 12164 04a7 8A000000 		.4byte	.LVL237
 12165 04ab 0100     		.2byte	0x1
 12166 04ad 5B       		.byte	0x5b
 12167 04ae 8A000000 		.4byte	.LVL237
 12168 04b2 92000000 		.4byte	.LVL240
 12169 04b6 0100     		.2byte	0x1
 12170 04b8 52       		.byte	0x52
 12171 04b9 92000000 		.4byte	.LVL240
 12172 04bd 64010000 		.4byte	.LVL257
 12173 04c1 0300     		.2byte	0x3
 12174 04c3 91       		.byte	0x91
 12175 04c4 847F     		.sleb128 -124
 12176 04c6 64010000 		.4byte	.LVL257
 12177 04ca 72010000 		.4byte	.LVL258
 12178 04ce 0400     		.2byte	0x4
 12179 04d0 F3       		.byte	0xf3
 12180 04d1 01       		.uleb128 0x1
 12181 04d2 50       		.byte	0x50
 12182 04d3 9F       		.byte	0x9f
 12183 04d4 72010000 		.4byte	.LVL258
 12184 04d8 7C010000 		.4byte	.LVL260
 12185 04dc 0300     		.2byte	0x3
 12186 04de 91       		.byte	0x91
 12187 04df 847F     		.sleb128 -124
 12188 04e1 7C010000 		.4byte	.LVL260
 12189 04e5 8A010000 		.4byte	.LVL262
 12190 04e9 0100     		.2byte	0x1
ARM GAS  C:\Users\EBANO_~1\AppData\Local\Temp\ccFRmLE5.s 			page 242


 12191 04eb 5B       		.byte	0x5b
 12192 04ec 8A010000 		.4byte	.LVL262
 12193 04f0 94010000 		.4byte	.LVL263
 12194 04f4 0400     		.2byte	0x4
 12195 04f6 F3       		.byte	0xf3
 12196 04f7 01       		.uleb128 0x1
 12197 04f8 50       		.byte	0x50
 12198 04f9 9F       		.byte	0x9f
 12199 04fa 94010000 		.4byte	.LVL263
 12200 04fe 9E010000 		.4byte	.LVL264
 12201 0502 0100     		.2byte	0x1
 12202 0504 5B       		.byte	0x5b
 12203 0505 9E010000 		.4byte	.LVL264
 12204 0509 AE010000 		.4byte	.LVL265
 12205 050d 0300     		.2byte	0x3
 12206 050f 91       		.byte	0x91
 12207 0510 847F     		.sleb128 -124
 12208 0512 AE010000 		.4byte	.LVL265
 12209 0516 C0010000 		.4byte	.LVL267
 12210 051a 0100     		.2byte	0x1
 12211 051c 5B       		.byte	0x5b
 12212 051d C0010000 		.4byte	.LVL267
 12213 0521 14030000 		.4byte	.LFE63
 12214 0525 0300     		.2byte	0x3
 12215 0527 91       		.byte	0x91
 12216 0528 847F     		.sleb128 -124
 12217 052a 00000000 		.4byte	0
 12218 052e 00000000 		.4byte	0
 12219              	.LLST70:
 12220 0532 00000000 		.4byte	.LVL225
 12221 0536 14000000 		.4byte	.LVL226
 12222 053a 0100     		.2byte	0x1
 12223 053c 51       		.byte	0x51
 12224 053d 14000000 		.4byte	.LVL226
 12225 0541 14030000 		.4byte	.LFE63
 12226 0545 0300     		.2byte	0x3
 12227 0547 91       		.byte	0x91
 12228 0548 807F     		.sleb128 -128
 12229 054a 00000000 		.4byte	0
 12230 054e 00000000 		.4byte	0
 12231              	.LLST71:
 12232 0552 00000000 		.4byte	.LVL225
 12233 0556 16000000 		.4byte	.LVL227
 12234 055a 0100     		.2byte	0x1
 12235 055c 52       		.byte	0x52
 12236 055d 16000000 		.4byte	.LVL227
 12237 0561 14030000 		.4byte	.LFE63
 12238 0565 0300     		.2byte	0x3
 12239 0567 91       		.byte	0x91
 12240 0568 F87E     		.sleb128 -136
 12241 056a 00000000 		.4byte	0
 12242 056e 00000000 		.4byte	0
 12243              	.LLST72:
 12244 0572 00000000 		.4byte	.LVL225
 12245 0576 1F000000 		.4byte	.LVL229-1
 12246 057a 0100     		.2byte	0x1
 12247 057c 53       		.byte	0x53
ARM GAS  C:\Users\EBANO_~1\AppData\Local\Temp\ccFRmLE5.s 			page 243


 12248 057d 1F000000 		.4byte	.LVL229-1
 12249 0581 92000000 		.4byte	.LVL240
 12250 0585 0100     		.2byte	0x1
 12251 0587 55       		.byte	0x55
 12252 0588 92000000 		.4byte	.LVL240
 12253 058c 7C010000 		.4byte	.LVL260
 12254 0590 0400     		.2byte	0x4
 12255 0592 F3       		.byte	0xf3
 12256 0593 01       		.uleb128 0x1
 12257 0594 53       		.byte	0x53
 12258 0595 9F       		.byte	0x9f
 12259 0596 7C010000 		.4byte	.LVL260
 12260 059a 8A010000 		.4byte	.LVL262
 12261 059e 0100     		.2byte	0x1
 12262 05a0 55       		.byte	0x55
 12263 05a1 8A010000 		.4byte	.LVL262
 12264 05a5 94010000 		.4byte	.LVL263
 12265 05a9 0400     		.2byte	0x4
 12266 05ab F3       		.byte	0xf3
 12267 05ac 01       		.uleb128 0x1
 12268 05ad 53       		.byte	0x53
 12269 05ae 9F       		.byte	0x9f
 12270 05af 94010000 		.4byte	.LVL263
 12271 05b3 9E010000 		.4byte	.LVL264
 12272 05b7 0100     		.2byte	0x1
 12273 05b9 55       		.byte	0x55
 12274 05ba 9E010000 		.4byte	.LVL264
 12275 05be AE010000 		.4byte	.LVL265
 12276 05c2 0400     		.2byte	0x4
 12277 05c4 F3       		.byte	0xf3
 12278 05c5 01       		.uleb128 0x1
 12279 05c6 53       		.byte	0x53
 12280 05c7 9F       		.byte	0x9f
 12281 05c8 AE010000 		.4byte	.LVL265
 12282 05cc C0010000 		.4byte	.LVL267
 12283 05d0 0100     		.2byte	0x1
 12284 05d2 55       		.byte	0x55
 12285 05d3 C0010000 		.4byte	.LVL267
 12286 05d7 14030000 		.4byte	.LFE63
 12287 05db 0400     		.2byte	0x4
 12288 05dd F3       		.byte	0xf3
 12289 05de 01       		.uleb128 0x1
 12290 05df 53       		.byte	0x53
 12291 05e0 9F       		.byte	0x9f
 12292 05e1 00000000 		.4byte	0
 12293 05e5 00000000 		.4byte	0
 12294              	.LLST73:
 12295 05e9 00000000 		.4byte	.LVL225
 12296 05ed 18010000 		.4byte	.LVL250
 12297 05f1 0200     		.2byte	0x2
 12298 05f3 30       		.byte	0x30
 12299 05f4 9F       		.byte	0x9f
 12300 05f5 72010000 		.4byte	.LVL258
 12301 05f9 8A010000 		.4byte	.LVL262
 12302 05fd 0200     		.2byte	0x2
 12303 05ff 30       		.byte	0x30
 12304 0600 9F       		.byte	0x9f
ARM GAS  C:\Users\EBANO_~1\AppData\Local\Temp\ccFRmLE5.s 			page 244


 12305 0601 94010000 		.4byte	.LVL263
 12306 0605 9E010000 		.4byte	.LVL264
 12307 0609 0200     		.2byte	0x2
 12308 060b 30       		.byte	0x30
 12309 060c 9F       		.byte	0x9f
 12310 060d AE010000 		.4byte	.LVL265
 12311 0611 C0010000 		.4byte	.LVL267
 12312 0615 0200     		.2byte	0x2
 12313 0617 30       		.byte	0x30
 12314 0618 9F       		.byte	0x9f
 12315 0619 00000000 		.4byte	0
 12316 061d 00000000 		.4byte	0
 12317              	.LLST74:
 12318 0621 00000000 		.4byte	.LVL225
 12319 0625 18010000 		.4byte	.LVL250
 12320 0629 0200     		.2byte	0x2
 12321 062b 30       		.byte	0x30
 12322 062c 9F       		.byte	0x9f
 12323 062d 18010000 		.4byte	.LVL250
 12324 0631 64010000 		.4byte	.LVL257
 12325 0635 0300     		.2byte	0x3
 12326 0637 91       		.byte	0x91
 12327 0638 F47E     		.sleb128 -140
 12328 063a 72010000 		.4byte	.LVL258
 12329 063e 7C010000 		.4byte	.LVL260
 12330 0642 0200     		.2byte	0x2
 12331 0644 30       		.byte	0x30
 12332 0645 9F       		.byte	0x9f
 12333 0646 7C010000 		.4byte	.LVL260
 12334 064a 8A010000 		.4byte	.LVL262
 12335 064e 0200     		.2byte	0x2
 12336 0650 31       		.byte	0x31
 12337 0651 9F       		.byte	0x9f
 12338 0652 94010000 		.4byte	.LVL263
 12339 0656 9E010000 		.4byte	.LVL264
 12340 065a 0200     		.2byte	0x2
 12341 065c 30       		.byte	0x30
 12342 065d 9F       		.byte	0x9f
 12343 065e 9E010000 		.4byte	.LVL264
 12344 0662 AE010000 		.4byte	.LVL265
 12345 0666 0300     		.2byte	0x3
 12346 0668 91       		.byte	0x91
 12347 0669 F47E     		.sleb128 -140
 12348 066b AE010000 		.4byte	.LVL265
 12349 066f C0010000 		.4byte	.LVL267
 12350 0673 0200     		.2byte	0x2
 12351 0675 30       		.byte	0x30
 12352 0676 9F       		.byte	0x9f
 12353 0677 C0010000 		.4byte	.LVL267
 12354 067b D8020000 		.4byte	.LVL310
 12355 067f 0300     		.2byte	0x3
 12356 0681 91       		.byte	0x91
 12357 0682 F47E     		.sleb128 -140
 12358 0684 DA020000 		.4byte	.LVL311
 12359 0688 14030000 		.4byte	.LFE63
 12360 068c 0300     		.2byte	0x3
 12361 068e 91       		.byte	0x91
ARM GAS  C:\Users\EBANO_~1\AppData\Local\Temp\ccFRmLE5.s 			page 245


 12362 068f F47E     		.sleb128 -140
 12363 0691 00000000 		.4byte	0
 12364 0695 00000000 		.4byte	0
 12365              	.LLST75:
 12366 0699 20000000 		.4byte	.LVL229
 12367 069d 70000000 		.4byte	.LVL233
 12368 06a1 0200     		.2byte	0x2
 12369 06a3 30       		.byte	0x30
 12370 06a4 9F       		.byte	0x9f
 12371 06a5 70000000 		.4byte	.LVL233
 12372 06a9 92000000 		.4byte	.LVL240
 12373 06ad 0100     		.2byte	0x1
 12374 06af 50       		.byte	0x50
 12375 06b0 92000000 		.4byte	.LVL240
 12376 06b4 7C010000 		.4byte	.LVL260
 12377 06b8 0300     		.2byte	0x3
 12378 06ba 91       		.byte	0x91
 12379 06bb FC7E     		.sleb128 -132
 12380 06bd 7C010000 		.4byte	.LVL260
 12381 06c1 8A010000 		.4byte	.LVL262
 12382 06c5 0200     		.2byte	0x2
 12383 06c7 30       		.byte	0x30
 12384 06c8 9F       		.byte	0x9f
 12385 06c9 8A010000 		.4byte	.LVL262
 12386 06cd 94010000 		.4byte	.LVL263
 12387 06d1 0300     		.2byte	0x3
 12388 06d3 91       		.byte	0x91
 12389 06d4 FC7E     		.sleb128 -132
 12390 06d6 94010000 		.4byte	.LVL263
 12391 06da 9E010000 		.4byte	.LVL264
 12392 06de 0200     		.2byte	0x2
 12393 06e0 30       		.byte	0x30
 12394 06e1 9F       		.byte	0x9f
 12395 06e2 9E010000 		.4byte	.LVL264
 12396 06e6 AE010000 		.4byte	.LVL265
 12397 06ea 0300     		.2byte	0x3
 12398 06ec 91       		.byte	0x91
 12399 06ed FC7E     		.sleb128 -132
 12400 06ef AE010000 		.4byte	.LVL265
 12401 06f3 C0010000 		.4byte	.LVL267
 12402 06f7 0200     		.2byte	0x2
 12403 06f9 30       		.byte	0x30
 12404 06fa 9F       		.byte	0x9f
 12405 06fb C0010000 		.4byte	.LVL267
 12406 06ff 14030000 		.4byte	.LFE63
 12407 0703 0300     		.2byte	0x3
 12408 0705 91       		.byte	0x91
 12409 0706 FC7E     		.sleb128 -132
 12410 0708 00000000 		.4byte	0
 12411 070c 00000000 		.4byte	0
 12412              	.LLST76:
 12413 0710 AE020000 		.4byte	.LVL302
 12414 0714 BC020000 		.4byte	.LVL305
 12415 0718 0100     		.2byte	0x1
 12416 071a 51       		.byte	0x51
 12417 071b FA020000 		.4byte	.LVL315
 12418 071f 14030000 		.4byte	.LFE63
ARM GAS  C:\Users\EBANO_~1\AppData\Local\Temp\ccFRmLE5.s 			page 246


 12419 0723 0100     		.2byte	0x1
 12420 0725 51       		.byte	0x51
 12421 0726 00000000 		.4byte	0
 12422 072a 00000000 		.4byte	0
 12423              	.LLST88:
 12424 072e 2A010000 		.4byte	.LVL251
 12425 0732 3E010000 		.4byte	.LVL252
 12426 0736 0200     		.2byte	0x2
 12427 0738 30       		.byte	0x30
 12428 0739 9F       		.byte	0x9f
 12429 073a 3E010000 		.4byte	.LVL252
 12430 073e 40010000 		.4byte	.LVL253
 12431 0742 0100     		.2byte	0x1
 12432 0744 52       		.byte	0x52
 12433 0745 40010000 		.4byte	.LVL253
 12434 0749 46010000 		.4byte	.LVL254
 12435 074d 0100     		.2byte	0x1
 12436 074f 53       		.byte	0x53
 12437 0750 46010000 		.4byte	.LVL254
 12438 0754 50010000 		.4byte	.LVL255
 12439 0758 0100     		.2byte	0x1
 12440 075a 52       		.byte	0x52
 12441 075b E4020000 		.4byte	.LVL312
 12442 075f E8020000 		.4byte	.LVL313
 12443 0763 0200     		.2byte	0x2
 12444 0765 30       		.byte	0x30
 12445 0766 9F       		.byte	0x9f
 12446 0767 00000000 		.4byte	0
 12447 076b 00000000 		.4byte	0
 12448              	.LLST77:
 12449 076f 7A000000 		.4byte	.LVL234
 12450 0773 18010000 		.4byte	.LVL250
 12451 0777 0600     		.2byte	0x6
 12452 0779 03       		.byte	0x3
 12453 077a 7C030000 		.4byte	NvmCtx+892
 12454 077e 9F       		.byte	0x9f
 12455 077f 72010000 		.4byte	.LVL258
 12456 0783 7C010000 		.4byte	.LVL260
 12457 0787 0600     		.2byte	0x6
 12458 0789 03       		.byte	0x3
 12459 078a 7C030000 		.4byte	NvmCtx+892
 12460 078e 9F       		.byte	0x9f
 12461 078f 00000000 		.4byte	0
 12462 0793 00000000 		.4byte	0
 12463              	.LLST78:
 12464 0797 7A000000 		.4byte	.LVL234
 12465 079b 18010000 		.4byte	.LVL250
 12466 079f 0600     		.2byte	0x6
 12467 07a1 03       		.byte	0x3
 12468 07a2 00000000 		.4byte	NvmCtx
 12469 07a6 9F       		.byte	0x9f
 12470 07a7 72010000 		.4byte	.LVL258
 12471 07ab 7C010000 		.4byte	.LVL260
 12472 07af 0600     		.2byte	0x6
 12473 07b1 03       		.byte	0x3
 12474 07b2 00000000 		.4byte	NvmCtx
 12475 07b6 9F       		.byte	0x9f
ARM GAS  C:\Users\EBANO_~1\AppData\Local\Temp\ccFRmLE5.s 			page 247


 12476 07b7 00000000 		.4byte	0
 12477 07bb 00000000 		.4byte	0
 12478              	.LLST79:
 12479 07bf 7A000000 		.4byte	.LVL234
 12480 07c3 7C000000 		.4byte	.LVL235
 12481 07c7 0600     		.2byte	0x6
 12482 07c9 03       		.byte	0x3
 12483 07ca 60030000 		.4byte	NvmCtx+864
 12484 07ce 9F       		.byte	0x9f
 12485 07cf 7C000000 		.4byte	.LVL235
 12486 07d3 80000000 		.4byte	.LVL236
 12487 07d7 0100     		.2byte	0x1
 12488 07d9 53       		.byte	0x53
 12489 07da 80000000 		.4byte	.LVL236
 12490 07de 8C000000 		.4byte	.LVL238
 12491 07e2 0600     		.2byte	0x6
 12492 07e4 03       		.byte	0x3
 12493 07e5 60030000 		.4byte	NvmCtx+864
 12494 07e9 9F       		.byte	0x9f
 12495 07ea 8C000000 		.4byte	.LVL238
 12496 07ee 90000000 		.4byte	.LVL239
 12497 07f2 0100     		.2byte	0x1
 12498 07f4 56       		.byte	0x56
 12499 07f5 90000000 		.4byte	.LVL239
 12500 07f9 D2000000 		.4byte	.LVL243
 12501 07fd 0600     		.2byte	0x6
 12502 07ff 03       		.byte	0x3
 12503 0800 60030000 		.4byte	NvmCtx+864
 12504 0804 9F       		.byte	0x9f
 12505 0805 D2000000 		.4byte	.LVL243
 12506 0809 F0000000 		.4byte	.LVL245
 12507 080d 0100     		.2byte	0x1
 12508 080f 52       		.byte	0x52
 12509 0810 F0000000 		.4byte	.LVL245
 12510 0814 F8000000 		.4byte	.LVL246
 12511 0818 0100     		.2byte	0x1
 12512 081a 5C       		.byte	0x5c
 12513 081b F8000000 		.4byte	.LVL246
 12514 081f 18010000 		.4byte	.LVL250
 12515 0823 0600     		.2byte	0x6
 12516 0825 03       		.byte	0x3
 12517 0826 60030000 		.4byte	NvmCtx+864
 12518 082a 9F       		.byte	0x9f
 12519 082b 72010000 		.4byte	.LVL258
 12520 082f 7C010000 		.4byte	.LVL260
 12521 0833 0100     		.2byte	0x1
 12522 0835 52       		.byte	0x52
 12523 0836 00000000 		.4byte	0
 12524 083a 00000000 		.4byte	0
 12525              	.LLST80:
 12526 083e 7A000000 		.4byte	.LVL234
 12527 0842 18010000 		.4byte	.LVL250
 12528 0846 0600     		.2byte	0x6
 12529 0848 F2       		.byte	0xf2
 12530 0849 AC210000 		.4byte	.Ldebug_info0+8620
 12531 084d 00       		.sleb128 0
 12532 084e 72010000 		.4byte	.LVL258
ARM GAS  C:\Users\EBANO_~1\AppData\Local\Temp\ccFRmLE5.s 			page 248


 12533 0852 7C010000 		.4byte	.LVL260
 12534 0856 0600     		.2byte	0x6
 12535 0858 F2       		.byte	0xf2
 12536 0859 AC210000 		.4byte	.Ldebug_info0+8620
 12537 085d 00       		.sleb128 0
 12538 085e 00000000 		.4byte	0
 12539 0862 00000000 		.4byte	0
 12540              	.LLST81:
 12541 0866 7A000000 		.4byte	.LVL234
 12542 086a 18010000 		.4byte	.LVL250
 12543 086e 0400     		.2byte	0x4
 12544 0870 91       		.byte	0x91
 12545 0871 907F     		.sleb128 -112
 12546 0873 9F       		.byte	0x9f
 12547 0874 72010000 		.4byte	.LVL258
 12548 0878 7C010000 		.4byte	.LVL260
 12549 087c 0400     		.2byte	0x4
 12550 087e 91       		.byte	0x91
 12551 087f 907F     		.sleb128 -112
 12552 0881 9F       		.byte	0x9f
 12553 0882 00000000 		.4byte	0
 12554 0886 00000000 		.4byte	0
 12555              	.LLST82:
 12556 088a 7A000000 		.4byte	.LVL234
 12557 088e 18010000 		.4byte	.LVL250
 12558 0892 0300     		.2byte	0x3
 12559 0894 91       		.byte	0x91
 12560 0895 EC7E     		.sleb128 -148
 12561 0897 72010000 		.4byte	.LVL258
 12562 089b 7C010000 		.4byte	.LVL260
 12563 089f 0300     		.2byte	0x3
 12564 08a1 91       		.byte	0x91
 12565 08a2 EC7E     		.sleb128 -148
 12566 08a4 00000000 		.4byte	0
 12567 08a8 00000000 		.4byte	0
 12568              	.LLST83:
 12569 08ac 7A000000 		.4byte	.LVL234
 12570 08b0 92000000 		.4byte	.LVL240
 12571 08b4 0200     		.2byte	0x2
 12572 08b6 30       		.byte	0x30
 12573 08b7 9F       		.byte	0x9f
 12574 08b8 9A000000 		.4byte	.LVL241
 12575 08bc E8000000 		.4byte	.LVL244
 12576 08c0 0100     		.2byte	0x1
 12577 08c2 5B       		.byte	0x5b
 12578 08c3 E8000000 		.4byte	.LVL244
 12579 08c7 F8000000 		.4byte	.LVL246
 12580 08cb 0100     		.2byte	0x1
 12581 08cd 53       		.byte	0x53
 12582 08ce F8000000 		.4byte	.LVL246
 12583 08d2 18010000 		.4byte	.LVL250
 12584 08d6 0100     		.2byte	0x1
 12585 08d8 5B       		.byte	0x5b
 12586 08d9 72010000 		.4byte	.LVL258
 12587 08dd 7C010000 		.4byte	.LVL260
 12588 08e1 0100     		.2byte	0x1
 12589 08e3 5B       		.byte	0x5b
ARM GAS  C:\Users\EBANO_~1\AppData\Local\Temp\ccFRmLE5.s 			page 249


 12590 08e4 00000000 		.4byte	0
 12591 08e8 00000000 		.4byte	0
 12592              	.LLST84:
 12593 08ec 7A000000 		.4byte	.LVL234
 12594 08f0 92000000 		.4byte	.LVL240
 12595 08f4 0200     		.2byte	0x2
 12596 08f6 30       		.byte	0x30
 12597 08f7 9F       		.byte	0x9f
 12598 08f8 9A000000 		.4byte	.LVL241
 12599 08fc 18010000 		.4byte	.LVL250
 12600 0900 0300     		.2byte	0x3
 12601 0902 91       		.byte	0x91
 12602 0903 F47E     		.sleb128 -140
 12603 0905 72010000 		.4byte	.LVL258
 12604 0909 7C010000 		.4byte	.LVL260
 12605 090d 0300     		.2byte	0x3
 12606 090f 91       		.byte	0x91
 12607 0910 F47E     		.sleb128 -140
 12608 0912 00000000 		.4byte	0
 12609 0916 00000000 		.4byte	0
 12610              	.LLST85:
 12611 091a 7A000000 		.4byte	.LVL234
 12612 091e 92000000 		.4byte	.LVL240
 12613 0922 0200     		.2byte	0x2
 12614 0924 30       		.byte	0x30
 12615 0925 9F       		.byte	0x9f
 12616 0926 9A000000 		.4byte	.LVL241
 12617 092a FE000000 		.4byte	.LVL248
 12618 092e 0300     		.2byte	0x3
 12619 0930 91       		.byte	0x91
 12620 0931 F07E     		.sleb128 -144
 12621 0933 FE000000 		.4byte	.LVL248
 12622 0937 06010000 		.4byte	.LVL249
 12623 093b 0300     		.2byte	0x3
 12624 093d 79       		.byte	0x79
 12625 093e 10       		.sleb128 16
 12626 093f 9F       		.byte	0x9f
 12627 0940 72010000 		.4byte	.LVL258
 12628 0944 7C010000 		.4byte	.LVL260
 12629 0948 0300     		.2byte	0x3
 12630 094a 91       		.byte	0x91
 12631 094b F07E     		.sleb128 -144
 12632 094d 00000000 		.4byte	0
 12633 0951 00000000 		.4byte	0
 12634              	.LLST86:
 12635 0955 7A000000 		.4byte	.LVL234
 12636 0959 92000000 		.4byte	.LVL240
 12637 095d 0200     		.2byte	0x2
 12638 095f 30       		.byte	0x30
 12639 0960 9F       		.byte	0x9f
 12640 0961 00000000 		.4byte	0
 12641 0965 00000000 		.4byte	0
 12642              	.LLST87:
 12643 0969 9A000000 		.4byte	.LVL241
 12644 096d F8000000 		.4byte	.LVL246
 12645 0971 0100     		.2byte	0x1
 12646 0973 54       		.byte	0x54
ARM GAS  C:\Users\EBANO_~1\AppData\Local\Temp\ccFRmLE5.s 			page 250


 12647 0974 F8000000 		.4byte	.LVL246
 12648 0978 FA000000 		.4byte	.LVL247
 12649 097c 0300     		.2byte	0x3
 12650 097e 74       		.byte	0x74
 12651 097f 01       		.sleb128 1
 12652 0980 9F       		.byte	0x9f
 12653 0981 72010000 		.4byte	.LVL258
 12654 0985 7C010000 		.4byte	.LVL260
 12655 0989 0100     		.2byte	0x1
 12656 098b 54       		.byte	0x54
 12657 098c 00000000 		.4byte	0
 12658 0990 00000000 		.4byte	0
 12659              	.LLST89:
 12660 0994 D6010000 		.4byte	.LVL269
 12661 0998 B6020000 		.4byte	.LVL304
 12662 099c 0600     		.2byte	0x6
 12663 099e F2       		.byte	0xf2
 12664 099f DC210000 		.4byte	.Ldebug_info0+8668
 12665 09a3 00       		.sleb128 0
 12666 09a4 BC020000 		.4byte	.LVL305
 12667 09a8 D6020000 		.4byte	.LVL309
 12668 09ac 0600     		.2byte	0x6
 12669 09ae F2       		.byte	0xf2
 12670 09af DC210000 		.4byte	.Ldebug_info0+8668
 12671 09b3 00       		.sleb128 0
 12672 09b4 DA020000 		.4byte	.LVL311
 12673 09b8 E4020000 		.4byte	.LVL312
 12674 09bc 0600     		.2byte	0x6
 12675 09be F2       		.byte	0xf2
 12676 09bf DC210000 		.4byte	.Ldebug_info0+8668
 12677 09c3 00       		.sleb128 0
 12678 09c4 E8020000 		.4byte	.LVL313
 12679 09c8 14030000 		.4byte	.LFE63
 12680 09cc 0600     		.2byte	0x6
 12681 09ce F2       		.byte	0xf2
 12682 09cf DC210000 		.4byte	.Ldebug_info0+8668
 12683 09d3 00       		.sleb128 0
 12684 09d4 00000000 		.4byte	0
 12685 09d8 00000000 		.4byte	0
 12686              	.LLST90:
 12687 09dc CA020000 		.4byte	.LVL307
 12688 09e0 CC020000 		.4byte	.LVL308
 12689 09e4 0500     		.2byte	0x5
 12690 09e6 75       		.byte	0x75
 12691 09e7 00       		.sleb128 0
 12692 09e8 31       		.byte	0x31
 12693 09e9 25       		.byte	0x25
 12694 09ea 9F       		.byte	0x9f
 12695 09eb 00000000 		.4byte	0
 12696 09ef 00000000 		.4byte	0
 12697              	.LLST91:
 12698 09f3 18020000 		.4byte	.LVL273
 12699 09f7 7A020000 		.4byte	.LVL293
 12700 09fb 0100     		.2byte	0x1
 12701 09fd 53       		.byte	0x53
 12702 09fe DA020000 		.4byte	.LVL311
 12703 0a02 E4020000 		.4byte	.LVL312
ARM GAS  C:\Users\EBANO_~1\AppData\Local\Temp\ccFRmLE5.s 			page 251


 12704 0a06 0100     		.2byte	0x1
 12705 0a08 53       		.byte	0x53
 12706 0a09 00000000 		.4byte	0
 12707 0a0d 00000000 		.4byte	0
 12708              	.LLST92:
 12709 0a11 E0010000 		.4byte	.LVL270
 12710 0a15 00020000 		.4byte	.LVL272
 12711 0a19 0200     		.2byte	0x2
 12712 0a1b 30       		.byte	0x30
 12713 0a1c 9F       		.byte	0x9f
 12714 0a1d 18020000 		.4byte	.LVL273
 12715 0a21 22020000 		.4byte	.LVL275
 12716 0a25 0200     		.2byte	0x2
 12717 0a27 30       		.byte	0x30
 12718 0a28 9F       		.byte	0x9f
 12719 0a29 22020000 		.4byte	.LVL275
 12720 0a2d 2A020000 		.4byte	.LVL277
 12721 0a31 0200     		.2byte	0x2
 12722 0a33 31       		.byte	0x31
 12723 0a34 9F       		.byte	0x9f
 12724 0a35 34020000 		.4byte	.LVL279
 12725 0a39 36020000 		.4byte	.LVL280
 12726 0a3d 0800     		.2byte	0x8
 12727 0a3f 91       		.byte	0x91
 12728 0a40 EC7E     		.sleb128 -148
 12729 0a42 94       		.byte	0x94
 12730 0a43 01       		.byte	0x1
 12731 0a44 23       		.byte	0x23
 12732 0a45 01       		.uleb128 0x1
 12733 0a46 9F       		.byte	0x9f
 12734 0a47 42020000 		.4byte	.LVL282
 12735 0a4b 44020000 		.4byte	.LVL283
 12736 0a4f 0100     		.2byte	0x1
 12737 0a51 51       		.byte	0x51
 12738 0a52 52020000 		.4byte	.LVL285
 12739 0a56 54020000 		.4byte	.LVL286
 12740 0a5a 0100     		.2byte	0x1
 12741 0a5c 51       		.byte	0x51
 12742 0a5d 60020000 		.4byte	.LVL288
 12743 0a61 62020000 		.4byte	.LVL289
 12744 0a65 0100     		.2byte	0x1
 12745 0a67 51       		.byte	0x51
 12746 0a68 6E020000 		.4byte	.LVL291
 12747 0a6c 70020000 		.4byte	.LVL292
 12748 0a70 0100     		.2byte	0x1
 12749 0a72 51       		.byte	0x51
 12750 0a73 82020000 		.4byte	.LVL295
 12751 0a77 88020000 		.4byte	.LVL297
 12752 0a7b 0100     		.2byte	0x1
 12753 0a7d 51       		.byte	0x51
 12754 0a7e 92020000 		.4byte	.LVL299
 12755 0a82 94020000 		.4byte	.LVL300
 12756 0a86 0100     		.2byte	0x1
 12757 0a88 51       		.byte	0x51
 12758 0a89 94020000 		.4byte	.LVL300
 12759 0a8d 99020000 		.4byte	.LVL301-1
 12760 0a91 0300     		.2byte	0x3
ARM GAS  C:\Users\EBANO_~1\AppData\Local\Temp\ccFRmLE5.s 			page 252


 12761 0a93 71       		.byte	0x71
 12762 0a94 01       		.sleb128 1
 12763 0a95 9F       		.byte	0x9f
 12764 0a96 DA020000 		.4byte	.LVL311
 12765 0a9a E4020000 		.4byte	.LVL312
 12766 0a9e 0200     		.2byte	0x2
 12767 0aa0 30       		.byte	0x30
 12768 0aa1 9F       		.byte	0x9f
 12769 0aa2 00000000 		.4byte	0
 12770 0aa6 00000000 		.4byte	0
 12771              	.LLST93:
 12772 0aaa E8010000 		.4byte	.LVL271
 12773 0aae 00020000 		.4byte	.LVL272
 12774 0ab2 0100     		.2byte	0x1
 12775 0ab4 54       		.byte	0x54
 12776 0ab5 B0020000 		.4byte	.LVL303
 12777 0ab9 B6020000 		.4byte	.LVL304
 12778 0abd 0100     		.2byte	0x1
 12779 0abf 55       		.byte	0x55
 12780 0ac0 CA020000 		.4byte	.LVL307
 12781 0ac4 CC020000 		.4byte	.LVL308
 12782 0ac8 0300     		.2byte	0x3
 12783 0aca 75       		.byte	0x75
 12784 0acb 01       		.sleb128 1
 12785 0acc 9F       		.byte	0x9f
 12786 0acd 00000000 		.4byte	0
 12787 0ad1 00000000 		.4byte	0
 12788              	.LLST94:
 12789 0ad5 18020000 		.4byte	.LVL273
 12790 0ad9 92020000 		.4byte	.LVL299
 12791 0add 0600     		.2byte	0x6
 12792 0adf F2       		.byte	0xf2
 12793 0ae0 E6220000 		.4byte	.Ldebug_info0+8934
 12794 0ae4 00       		.sleb128 0
 12795 0ae5 BC020000 		.4byte	.LVL305
 12796 0ae9 C0020000 		.4byte	.LVL306
 12797 0aed 0600     		.2byte	0x6
 12798 0aef F2       		.byte	0xf2
 12799 0af0 E6220000 		.4byte	.Ldebug_info0+8934
 12800 0af4 00       		.sleb128 0
 12801 0af5 DA020000 		.4byte	.LVL311
 12802 0af9 E4020000 		.4byte	.LVL312
 12803 0afd 0600     		.2byte	0x6
 12804 0aff F2       		.byte	0xf2
 12805 0b00 E6220000 		.4byte	.Ldebug_info0+8934
 12806 0b04 00       		.sleb128 0
 12807 0b05 00000000 		.4byte	0
 12808 0b09 00000000 		.4byte	0
 12809              	.LLST96:
 12810 0b0d 18020000 		.4byte	.LVL273
 12811 0b11 20020000 		.4byte	.LVL274
 12812 0b15 0400     		.2byte	0x4
 12813 0b17 91       		.byte	0x91
 12814 0b18 887F     		.sleb128 -120
 12815 0b1a 9F       		.byte	0x9f
 12816 0b1b 20020000 		.4byte	.LVL274
 12817 0b1f 24020000 		.4byte	.LVL276
ARM GAS  C:\Users\EBANO_~1\AppData\Local\Temp\ccFRmLE5.s 			page 253


 12818 0b23 0100     		.2byte	0x1
 12819 0b25 51       		.byte	0x51
 12820 0b26 24020000 		.4byte	.LVL276
 12821 0b2a 32020000 		.4byte	.LVL278
 12822 0b2e 0400     		.2byte	0x4
 12823 0b30 91       		.byte	0x91
 12824 0b31 887F     		.sleb128 -120
 12825 0b33 9F       		.byte	0x9f
 12826 0b34 32020000 		.4byte	.LVL278
 12827 0b38 36020000 		.4byte	.LVL280
 12828 0b3c 0100     		.2byte	0x1
 12829 0b3e 51       		.byte	0x51
 12830 0b3f 36020000 		.4byte	.LVL280
 12831 0b43 3E020000 		.4byte	.LVL281
 12832 0b47 0400     		.2byte	0x4
 12833 0b49 91       		.byte	0x91
 12834 0b4a 887F     		.sleb128 -120
 12835 0b4c 9F       		.byte	0x9f
 12836 0b4d 3E020000 		.4byte	.LVL281
 12837 0b51 44020000 		.4byte	.LVL283
 12838 0b55 0100     		.2byte	0x1
 12839 0b57 50       		.byte	0x50
 12840 0b58 44020000 		.4byte	.LVL283
 12841 0b5c 4E020000 		.4byte	.LVL284
 12842 0b60 0400     		.2byte	0x4
 12843 0b62 91       		.byte	0x91
 12844 0b63 887F     		.sleb128 -120
 12845 0b65 9F       		.byte	0x9f
 12846 0b66 4E020000 		.4byte	.LVL284
 12847 0b6a 54020000 		.4byte	.LVL286
 12848 0b6e 0100     		.2byte	0x1
 12849 0b70 50       		.byte	0x50
 12850 0b71 54020000 		.4byte	.LVL286
 12851 0b75 5C020000 		.4byte	.LVL287
 12852 0b79 0400     		.2byte	0x4
 12853 0b7b 91       		.byte	0x91
 12854 0b7c 887F     		.sleb128 -120
 12855 0b7e 9F       		.byte	0x9f
 12856 0b7f 5C020000 		.4byte	.LVL287
 12857 0b83 62020000 		.4byte	.LVL289
 12858 0b87 0100     		.2byte	0x1
 12859 0b89 50       		.byte	0x50
 12860 0b8a 62020000 		.4byte	.LVL289
 12861 0b8e 6A020000 		.4byte	.LVL290
 12862 0b92 0400     		.2byte	0x4
 12863 0b94 91       		.byte	0x91
 12864 0b95 887F     		.sleb128 -120
 12865 0b97 9F       		.byte	0x9f
 12866 0b98 6A020000 		.4byte	.LVL290
 12867 0b9c 70020000 		.4byte	.LVL292
 12868 0ba0 0100     		.2byte	0x1
 12869 0ba2 55       		.byte	0x55
 12870 0ba3 70020000 		.4byte	.LVL292
 12871 0ba7 7E020000 		.4byte	.LVL294
 12872 0bab 0400     		.2byte	0x4
 12873 0bad 91       		.byte	0x91
 12874 0bae 887F     		.sleb128 -120
ARM GAS  C:\Users\EBANO_~1\AppData\Local\Temp\ccFRmLE5.s 			page 254


 12875 0bb0 9F       		.byte	0x9f
 12876 0bb1 7E020000 		.4byte	.LVL294
 12877 0bb5 88020000 		.4byte	.LVL297
 12878 0bb9 0100     		.2byte	0x1
 12879 0bbb 52       		.byte	0x52
 12880 0bbc 88020000 		.4byte	.LVL297
 12881 0bc0 8C020000 		.4byte	.LVL298
 12882 0bc4 0400     		.2byte	0x4
 12883 0bc6 91       		.byte	0x91
 12884 0bc7 887F     		.sleb128 -120
 12885 0bc9 9F       		.byte	0x9f
 12886 0bca 8C020000 		.4byte	.LVL298
 12887 0bce 92020000 		.4byte	.LVL299
 12888 0bd2 0100     		.2byte	0x1
 12889 0bd4 52       		.byte	0x52
 12890 0bd5 BC020000 		.4byte	.LVL305
 12891 0bd9 C0020000 		.4byte	.LVL306
 12892 0bdd 0400     		.2byte	0x4
 12893 0bdf 91       		.byte	0x91
 12894 0be0 887F     		.sleb128 -120
 12895 0be2 9F       		.byte	0x9f
 12896 0be3 DA020000 		.4byte	.LVL311
 12897 0be7 E4020000 		.4byte	.LVL312
 12898 0beb 0400     		.2byte	0x4
 12899 0bed 91       		.byte	0x91
 12900 0bee 887F     		.sleb128 -120
 12901 0bf0 9F       		.byte	0x9f
 12902 0bf1 00000000 		.4byte	0
 12903 0bf5 00000000 		.4byte	0
 12904              	.LLST97:
 12905 0bf9 18020000 		.4byte	.LVL273
 12906 0bfd 2A020000 		.4byte	.LVL277
 12907 0c01 0200     		.2byte	0x2
 12908 0c03 30       		.byte	0x30
 12909 0c04 9F       		.byte	0x9f
 12910 0c05 2A020000 		.4byte	.LVL277
 12911 0c09 36020000 		.4byte	.LVL280
 12912 0c0d 0200     		.2byte	0x2
 12913 0c0f 31       		.byte	0x31
 12914 0c10 9F       		.byte	0x9f
 12915 0c11 36020000 		.4byte	.LVL280
 12916 0c15 44020000 		.4byte	.LVL283
 12917 0c19 0200     		.2byte	0x2
 12918 0c1b 32       		.byte	0x32
 12919 0c1c 9F       		.byte	0x9f
 12920 0c1d 44020000 		.4byte	.LVL283
 12921 0c21 54020000 		.4byte	.LVL286
 12922 0c25 0200     		.2byte	0x2
 12923 0c27 33       		.byte	0x33
 12924 0c28 9F       		.byte	0x9f
 12925 0c29 54020000 		.4byte	.LVL286
 12926 0c2d 62020000 		.4byte	.LVL289
 12927 0c31 0200     		.2byte	0x2
 12928 0c33 34       		.byte	0x34
 12929 0c34 9F       		.byte	0x9f
 12930 0c35 62020000 		.4byte	.LVL289
 12931 0c39 70020000 		.4byte	.LVL292
ARM GAS  C:\Users\EBANO_~1\AppData\Local\Temp\ccFRmLE5.s 			page 255


 12932 0c3d 0200     		.2byte	0x2
 12933 0c3f 35       		.byte	0x35
 12934 0c40 9F       		.byte	0x9f
 12935 0c41 70020000 		.4byte	.LVL292
 12936 0c45 84020000 		.4byte	.LVL296
 12937 0c49 0200     		.2byte	0x2
 12938 0c4b 36       		.byte	0x36
 12939 0c4c 9F       		.byte	0x9f
 12940 0c4d 84020000 		.4byte	.LVL296
 12941 0c51 92020000 		.4byte	.LVL299
 12942 0c55 0200     		.2byte	0x2
 12943 0c57 37       		.byte	0x37
 12944 0c58 9F       		.byte	0x9f
 12945 0c59 BC020000 		.4byte	.LVL305
 12946 0c5d C0020000 		.4byte	.LVL306
 12947 0c61 0200     		.2byte	0x2
 12948 0c63 37       		.byte	0x37
 12949 0c64 9F       		.byte	0x9f
 12950 0c65 DA020000 		.4byte	.LVL311
 12951 0c69 E4020000 		.4byte	.LVL312
 12952 0c6d 0200     		.2byte	0x2
 12953 0c6f 30       		.byte	0x30
 12954 0c70 9F       		.byte	0x9f
 12955 0c71 00000000 		.4byte	0
 12956 0c75 00000000 		.4byte	0
 12957              	.LLST66:
 12958 0c79 00000000 		.4byte	.LFB62
 12959 0c7d 08000000 		.4byte	.LCFI23
 12960 0c81 0200     		.2byte	0x2
 12961 0c83 7D       		.byte	0x7d
 12962 0c84 00       		.sleb128 0
 12963 0c85 08000000 		.4byte	.LCFI23
 12964 0c89 0C000000 		.4byte	.LCFI24
 12965 0c8d 0200     		.2byte	0x2
 12966 0c8f 7D       		.byte	0x7d
 12967 0c90 04       		.sleb128 4
 12968 0c91 0C000000 		.4byte	.LCFI24
 12969 0c95 3C000000 		.4byte	.LFE62
 12970 0c99 0200     		.2byte	0x2
 12971 0c9b 7D       		.byte	0x7d
 12972 0c9c 20       		.sleb128 32
 12973 0c9d 00000000 		.4byte	0
 12974 0ca1 00000000 		.4byte	0
 12975              	.LLST67:
 12976 0ca5 00000000 		.4byte	.LVL222
 12977 0ca9 2C000000 		.4byte	.LVL223
 12978 0cad 0100     		.2byte	0x1
 12979 0caf 50       		.byte	0x50
 12980 0cb0 2C000000 		.4byte	.LVL223
 12981 0cb4 3C000000 		.4byte	.LFE62
 12982 0cb8 0400     		.2byte	0x4
 12983 0cba F3       		.byte	0xf3
 12984 0cbb 01       		.uleb128 0x1
 12985 0cbc 50       		.byte	0x50
 12986 0cbd 9F       		.byte	0x9f
 12987 0cbe 00000000 		.4byte	0
 12988 0cc2 00000000 		.4byte	0
ARM GAS  C:\Users\EBANO_~1\AppData\Local\Temp\ccFRmLE5.s 			page 256


 12989              	.LLST63:
 12990 0cc6 00000000 		.4byte	.LFB61
 12991 0cca 02000000 		.4byte	.LCFI22
 12992 0cce 0200     		.2byte	0x2
 12993 0cd0 7D       		.byte	0x7d
 12994 0cd1 00       		.sleb128 0
 12995 0cd2 02000000 		.4byte	.LCFI22
 12996 0cd6 34000000 		.4byte	.LFE61
 12997 0cda 0200     		.2byte	0x2
 12998 0cdc 7D       		.byte	0x7d
 12999 0cdd 08       		.sleb128 8
 13000 0cde 00000000 		.4byte	0
 13001 0ce2 00000000 		.4byte	0
 13002              	.LLST64:
 13003 0ce6 00000000 		.4byte	.LVL216
 13004 0cea 08000000 		.4byte	.LVL217
 13005 0cee 0100     		.2byte	0x1
 13006 0cf0 50       		.byte	0x50
 13007 0cf1 08000000 		.4byte	.LVL217
 13008 0cf5 22000000 		.4byte	.LVL220
 13009 0cf9 0400     		.2byte	0x4
 13010 0cfb F3       		.byte	0xf3
 13011 0cfc 01       		.uleb128 0x1
 13012 0cfd 50       		.byte	0x50
 13013 0cfe 9F       		.byte	0x9f
 13014 0cff 22000000 		.4byte	.LVL220
 13015 0d03 24000000 		.4byte	.LVL221
 13016 0d07 0100     		.2byte	0x1
 13017 0d09 50       		.byte	0x50
 13018 0d0a 24000000 		.4byte	.LVL221
 13019 0d0e 34000000 		.4byte	.LFE61
 13020 0d12 0400     		.2byte	0x4
 13021 0d14 F3       		.byte	0xf3
 13022 0d15 01       		.uleb128 0x1
 13023 0d16 50       		.byte	0x50
 13024 0d17 9F       		.byte	0x9f
 13025 0d18 00000000 		.4byte	0
 13026 0d1c 00000000 		.4byte	0
 13027              	.LLST65:
 13028 0d20 00000000 		.4byte	.LVL216
 13029 0d24 14000000 		.4byte	.LVL218
 13030 0d28 0100     		.2byte	0x1
 13031 0d2a 51       		.byte	0x51
 13032 0d2b 14000000 		.4byte	.LVL218
 13033 0d2f 24000000 		.4byte	.LVL221
 13034 0d33 0400     		.2byte	0x4
 13035 0d35 F3       		.byte	0xf3
 13036 0d36 01       		.uleb128 0x1
 13037 0d37 51       		.byte	0x51
 13038 0d38 9F       		.byte	0x9f
 13039 0d39 24000000 		.4byte	.LVL221
 13040 0d3d 34000000 		.4byte	.LFE61
 13041 0d41 0100     		.2byte	0x1
 13042 0d43 51       		.byte	0x51
 13043 0d44 00000000 		.4byte	0
 13044 0d48 00000000 		.4byte	0
 13045              	.LLST62:
ARM GAS  C:\Users\EBANO_~1\AppData\Local\Temp\ccFRmLE5.s 			page 257


 13046 0d4c 00000000 		.4byte	.LVL214
 13047 0d50 02000000 		.4byte	.LVL215
 13048 0d54 0100     		.2byte	0x1
 13049 0d56 50       		.byte	0x50
 13050 0d57 02000000 		.4byte	.LVL215
 13051 0d5b 06000000 		.4byte	.LFE59
 13052 0d5f 0400     		.2byte	0x4
 13053 0d61 F3       		.byte	0xf3
 13054 0d62 01       		.uleb128 0x1
 13055 0d63 50       		.byte	0x50
 13056 0d64 9F       		.byte	0x9f
 13057 0d65 00000000 		.4byte	0
 13058 0d69 00000000 		.4byte	0
 13059              	.LLST57:
 13060 0d6d 00000000 		.4byte	.LFB57
 13061 0d71 02000000 		.4byte	.LCFI20
 13062 0d75 0200     		.2byte	0x2
 13063 0d77 7D       		.byte	0x7d
 13064 0d78 00       		.sleb128 0
 13065 0d79 02000000 		.4byte	.LCFI20
 13066 0d7d 0A000000 		.4byte	.LCFI21
 13067 0d81 0200     		.2byte	0x2
 13068 0d83 7D       		.byte	0x7d
 13069 0d84 10       		.sleb128 16
 13070 0d85 0A000000 		.4byte	.LCFI21
 13071 0d89 90000000 		.4byte	.LFE57
 13072 0d8d 0200     		.2byte	0x2
 13073 0d8f 7D       		.byte	0x7d
 13074 0d90 18       		.sleb128 24
 13075 0d91 00000000 		.4byte	0
 13076 0d95 00000000 		.4byte	0
 13077              	.LLST58:
 13078 0d99 00000000 		.4byte	.LVL194
 13079 0d9d 0E000000 		.4byte	.LVL196
 13080 0da1 0100     		.2byte	0x1
 13081 0da3 50       		.byte	0x50
 13082 0da4 0E000000 		.4byte	.LVL196
 13083 0da8 66000000 		.4byte	.LVL205
 13084 0dac 0100     		.2byte	0x1
 13085 0dae 54       		.byte	0x54
 13086 0daf 66000000 		.4byte	.LVL205
 13087 0db3 68000000 		.4byte	.LVL207
 13088 0db7 0400     		.2byte	0x4
 13089 0db9 F3       		.byte	0xf3
 13090 0dba 01       		.uleb128 0x1
 13091 0dbb 50       		.byte	0x50
 13092 0dbc 9F       		.byte	0x9f
 13093 0dbd 68000000 		.4byte	.LVL207
 13094 0dc1 90000000 		.4byte	.LFE57
 13095 0dc5 0100     		.2byte	0x1
 13096 0dc7 54       		.byte	0x54
 13097 0dc8 00000000 		.4byte	0
 13098 0dcc 00000000 		.4byte	0
 13099              	.LLST59:
 13100 0dd0 00000000 		.4byte	.LVL194
 13101 0dd4 24000000 		.4byte	.LVL199
 13102 0dd8 0200     		.2byte	0x2
ARM GAS  C:\Users\EBANO_~1\AppData\Local\Temp\ccFRmLE5.s 			page 258


 13103 0dda 37       		.byte	0x37
 13104 0ddb 9F       		.byte	0x9f
 13105 0ddc 24000000 		.4byte	.LVL199
 13106 0de0 36000000 		.4byte	.LVL201
 13107 0de4 0100     		.2byte	0x1
 13108 0de6 56       		.byte	0x56
 13109 0de7 36000000 		.4byte	.LVL201
 13110 0deb 66000000 		.4byte	.LVL206
 13111 0def 0100     		.2byte	0x1
 13112 0df1 55       		.byte	0x55
 13113 0df2 68000000 		.4byte	.LVL207
 13114 0df6 6E000000 		.4byte	.LVL209
 13115 0dfa 0100     		.2byte	0x1
 13116 0dfc 55       		.byte	0x55
 13117 0dfd 6E000000 		.4byte	.LVL209
 13118 0e01 90000000 		.4byte	.LFE57
 13119 0e05 0200     		.2byte	0x2
 13120 0e07 37       		.byte	0x37
 13121 0e08 9F       		.byte	0x9f
 13122 0e09 00000000 		.4byte	0
 13123 0e0d 00000000 		.4byte	0
 13124              	.LLST60:
 13125 0e11 06000000 		.4byte	.LVL195
 13126 0e15 22000000 		.4byte	.LVL198
 13127 0e19 0100     		.2byte	0x1
 13128 0e1b 55       		.byte	0x55
 13129 0e1c 6E000000 		.4byte	.LVL209
 13130 0e20 7A000000 		.4byte	.LVL211
 13131 0e24 0100     		.2byte	0x1
 13132 0e26 55       		.byte	0x55
 13133 0e27 00000000 		.4byte	0
 13134 0e2b 00000000 		.4byte	0
 13135              	.LLST47:
 13136 0e2f 00000000 		.4byte	.LFB56
 13137 0e33 02000000 		.4byte	.LCFI17
 13138 0e37 0200     		.2byte	0x2
 13139 0e39 7D       		.byte	0x7d
 13140 0e3a 00       		.sleb128 0
 13141 0e3b 02000000 		.4byte	.LCFI17
 13142 0e3f 0C000000 		.4byte	.LCFI18
 13143 0e43 0200     		.2byte	0x2
 13144 0e45 7D       		.byte	0x7d
 13145 0e46 14       		.sleb128 20
 13146 0e47 0C000000 		.4byte	.LCFI18
 13147 0e4b 0E000000 		.4byte	.LCFI19
 13148 0e4f 0200     		.2byte	0x2
 13149 0e51 7D       		.byte	0x7d
 13150 0e52 24       		.sleb128 36
 13151 0e53 0E000000 		.4byte	.LCFI19
 13152 0e57 C8020000 		.4byte	.LFE56
 13153 0e5b 0300     		.2byte	0x3
 13154 0e5d 7D       		.byte	0x7d
 13155 0e5e E000     		.sleb128 96
 13156 0e60 00000000 		.4byte	0
 13157 0e64 00000000 		.4byte	0
 13158              	.LLST48:
 13159 0e68 00000000 		.4byte	.LVL145
ARM GAS  C:\Users\EBANO_~1\AppData\Local\Temp\ccFRmLE5.s 			page 259


 13160 0e6c 1C000000 		.4byte	.LVL148
 13161 0e70 0100     		.2byte	0x1
 13162 0e72 50       		.byte	0x50
 13163 0e73 1C000000 		.4byte	.LVL148
 13164 0e77 BA000000 		.4byte	.LVL159
 13165 0e7b 0100     		.2byte	0x1
 13166 0e7d 56       		.byte	0x56
 13167 0e7e BA000000 		.4byte	.LVL159
 13168 0e82 E6000000 		.4byte	.LVL165
 13169 0e86 0400     		.2byte	0x4
 13170 0e88 F3       		.byte	0xf3
 13171 0e89 01       		.uleb128 0x1
 13172 0e8a 50       		.byte	0x50
 13173 0e8b 9F       		.byte	0x9f
 13174 0e8c E6000000 		.4byte	.LVL165
 13175 0e90 B8010000 		.4byte	.LVL180
 13176 0e94 0100     		.2byte	0x1
 13177 0e96 56       		.byte	0x56
 13178 0e97 B8010000 		.4byte	.LVL180
 13179 0e9b 0C020000 		.4byte	.LVL183
 13180 0e9f 0400     		.2byte	0x4
 13181 0ea1 F3       		.byte	0xf3
 13182 0ea2 01       		.uleb128 0x1
 13183 0ea3 50       		.byte	0x50
 13184 0ea4 9F       		.byte	0x9f
 13185 0ea5 0C020000 		.4byte	.LVL183
 13186 0ea9 C8020000 		.4byte	.LFE56
 13187 0ead 0100     		.2byte	0x1
 13188 0eaf 56       		.byte	0x56
 13189 0eb0 00000000 		.4byte	0
 13190 0eb4 00000000 		.4byte	0
 13191              	.LLST49:
 13192 0eb8 00000000 		.4byte	.LVL145
 13193 0ebc 18000000 		.4byte	.LVL146
 13194 0ec0 0100     		.2byte	0x1
 13195 0ec2 51       		.byte	0x51
 13196 0ec3 18000000 		.4byte	.LVL146
 13197 0ec7 DA000000 		.4byte	.LVL164
 13198 0ecb 0100     		.2byte	0x1
 13199 0ecd 5A       		.byte	0x5a
 13200 0ece DA000000 		.4byte	.LVL164
 13201 0ed2 E6000000 		.4byte	.LVL165
 13202 0ed6 0400     		.2byte	0x4
 13203 0ed8 F3       		.byte	0xf3
 13204 0ed9 01       		.uleb128 0x1
 13205 0eda 51       		.byte	0x51
 13206 0edb 9F       		.byte	0x9f
 13207 0edc E6000000 		.4byte	.LVL165
 13208 0ee0 C8020000 		.4byte	.LFE56
 13209 0ee4 0100     		.2byte	0x1
 13210 0ee6 5A       		.byte	0x5a
 13211 0ee7 00000000 		.4byte	0
 13212 0eeb 00000000 		.4byte	0
 13213              	.LLST50:
 13214 0eef 00000000 		.4byte	.LVL145
 13215 0ef3 1A000000 		.4byte	.LVL147
 13216 0ef7 0100     		.2byte	0x1
ARM GAS  C:\Users\EBANO_~1\AppData\Local\Temp\ccFRmLE5.s 			page 260


 13217 0ef9 52       		.byte	0x52
 13218 0efa 1A000000 		.4byte	.LVL147
 13219 0efe DA000000 		.4byte	.LVL163
 13220 0f02 0100     		.2byte	0x1
 13221 0f04 59       		.byte	0x59
 13222 0f05 DA000000 		.4byte	.LVL163
 13223 0f09 E6000000 		.4byte	.LVL165
 13224 0f0d 0400     		.2byte	0x4
 13225 0f0f F3       		.byte	0xf3
 13226 0f10 01       		.uleb128 0x1
 13227 0f11 52       		.byte	0x52
 13228 0f12 9F       		.byte	0x9f
 13229 0f13 E6000000 		.4byte	.LVL165
 13230 0f17 C8020000 		.4byte	.LFE56
 13231 0f1b 0100     		.2byte	0x1
 13232 0f1d 59       		.byte	0x59
 13233 0f1e 00000000 		.4byte	0
 13234 0f22 00000000 		.4byte	0
 13235              	.LLST51:
 13236 0f26 00000000 		.4byte	.LVL145
 13237 0f2a 21000000 		.4byte	.LVL149-1
 13238 0f2e 0100     		.2byte	0x1
 13239 0f30 53       		.byte	0x53
 13240 0f31 21000000 		.4byte	.LVL149-1
 13241 0f35 DA000000 		.4byte	.LVL162
 13242 0f39 0100     		.2byte	0x1
 13243 0f3b 58       		.byte	0x58
 13244 0f3c DA000000 		.4byte	.LVL162
 13245 0f40 E6000000 		.4byte	.LVL165
 13246 0f44 0100     		.2byte	0x1
 13247 0f46 52       		.byte	0x52
 13248 0f47 E6000000 		.4byte	.LVL165
 13249 0f4b C8020000 		.4byte	.LFE56
 13250 0f4f 0100     		.2byte	0x1
 13251 0f51 58       		.byte	0x58
 13252 0f52 00000000 		.4byte	0
 13253 0f56 00000000 		.4byte	0
 13254              	.LLST52:
 13255 0f5a 00000000 		.4byte	.LVL145
 13256 0f5e 72000000 		.4byte	.LVL156
 13257 0f62 0200     		.2byte	0x2
 13258 0f64 37       		.byte	0x37
 13259 0f65 9F       		.byte	0x9f
 13260 0f66 72000000 		.4byte	.LVL156
 13261 0f6a 78000000 		.4byte	.LVL157
 13262 0f6e 0100     		.2byte	0x1
 13263 0f70 52       		.byte	0x52
 13264 0f71 78000000 		.4byte	.LVL157
 13265 0f75 B7000000 		.4byte	.LVL158-1
 13266 0f79 0200     		.2byte	0x2
 13267 0f7b 70       		.byte	0x70
 13268 0f7c 04       		.sleb128 4
 13269 0f7d BA000000 		.4byte	.LVL159
 13270 0f81 C0000000 		.4byte	.LVL160
 13271 0f85 0100     		.2byte	0x1
 13272 0f87 50       		.byte	0x50
 13273 0f88 E6000000 		.4byte	.LVL165
ARM GAS  C:\Users\EBANO_~1\AppData\Local\Temp\ccFRmLE5.s 			page 261


 13274 0f8c B4010000 		.4byte	.LVL179
 13275 0f90 0200     		.2byte	0x2
 13276 0f92 37       		.byte	0x37
 13277 0f93 9F       		.byte	0x9f
 13278 0f94 B4010000 		.4byte	.LVL179
 13279 0f98 B8010000 		.4byte	.LVL180
 13280 0f9c 0200     		.2byte	0x2
 13281 0f9e 36       		.byte	0x36
 13282 0f9f 9F       		.byte	0x9f
 13283 0fa0 B8010000 		.4byte	.LVL180
 13284 0fa4 BA010000 		.4byte	.LVL181
 13285 0fa8 0100     		.2byte	0x1
 13286 0faa 50       		.byte	0x50
 13287 0fab 0C020000 		.4byte	.LVL183
 13288 0faf C8020000 		.4byte	.LFE56
 13289 0fb3 0200     		.2byte	0x2
 13290 0fb5 37       		.byte	0x37
 13291 0fb6 9F       		.byte	0x9f
 13292 0fb7 00000000 		.4byte	0
 13293 0fbb 00000000 		.4byte	0
 13294              	.LLST53:
 13295 0fbf 00000000 		.4byte	.LVL145
 13296 0fc3 34000000 		.4byte	.LVL151
 13297 0fc7 0200     		.2byte	0x2
 13298 0fc9 30       		.byte	0x30
 13299 0fca 9F       		.byte	0x9f
 13300 0fcb 44000000 		.4byte	.LVL152
 13301 0fcf 66000000 		.4byte	.LVL155
 13302 0fd3 0100     		.2byte	0x1
 13303 0fd5 50       		.byte	0x50
 13304 0fd6 E6000000 		.4byte	.LVL165
 13305 0fda 16010000 		.4byte	.LVL167
 13306 0fde 0100     		.2byte	0x1
 13307 0fe0 50       		.byte	0x50
 13308 0fe1 0C020000 		.4byte	.LVL183
 13309 0fe5 10020000 		.4byte	.LVL184
 13310 0fe9 0100     		.2byte	0x1
 13311 0feb 50       		.byte	0x50
 13312 0fec 00000000 		.4byte	0
 13313 0ff0 00000000 		.4byte	0
 13314              	.LLST54:
 13315 0ff4 00000000 		.4byte	.LVL145
 13316 0ff8 34000000 		.4byte	.LVL151
 13317 0ffc 0200     		.2byte	0x2
 13318 0ffe 30       		.byte	0x30
 13319 0fff 9F       		.byte	0x9f
 13320 1000 34000000 		.4byte	.LVL151
 13321 1004 4C000000 		.4byte	.LVL153
 13322 1008 0100     		.2byte	0x1
 13323 100a 54       		.byte	0x54
 13324 100b 4E000000 		.4byte	.LVL154
 13325 100f DA000000 		.4byte	.LVL161
 13326 1013 0100     		.2byte	0x1
 13327 1015 54       		.byte	0x54
 13328 1016 DA000000 		.4byte	.LVL161
 13329 101a E6000000 		.4byte	.LVL165
 13330 101e 0200     		.2byte	0x2
ARM GAS  C:\Users\EBANO_~1\AppData\Local\Temp\ccFRmLE5.s 			page 262


 13331 1020 73       		.byte	0x73
 13332 1021 00       		.sleb128 0
 13333 1022 E6000000 		.4byte	.LVL165
 13334 1026 C8020000 		.4byte	.LFE56
 13335 102a 0100     		.2byte	0x1
 13336 102c 54       		.byte	0x54
 13337 102d 00000000 		.4byte	0
 13338 1031 00000000 		.4byte	0
 13339              	.LLST55:
 13340 1035 04010000 		.4byte	.LVL166
 13341 1039 2E010000 		.4byte	.LVL169
 13342 103d 0200     		.2byte	0x2
 13343 103f 30       		.byte	0x30
 13344 1040 9F       		.byte	0x9f
 13345 1041 2E010000 		.4byte	.LVL169
 13346 1045 54010000 		.4byte	.LVL171
 13347 1049 0200     		.2byte	0x2
 13348 104b 31       		.byte	0x31
 13349 104c 9F       		.byte	0x9f
 13350 104d 54010000 		.4byte	.LVL171
 13351 1051 78010000 		.4byte	.LVL173
 13352 1055 0200     		.2byte	0x2
 13353 1057 32       		.byte	0x32
 13354 1058 9F       		.byte	0x9f
 13355 1059 78010000 		.4byte	.LVL173
 13356 105d 9E010000 		.4byte	.LVL176
 13357 1061 0200     		.2byte	0x2
 13358 1063 33       		.byte	0x33
 13359 1064 9F       		.byte	0x9f
 13360 1065 9E010000 		.4byte	.LVL176
 13361 1069 A0010000 		.4byte	.LVL177
 13362 106d 0200     		.2byte	0x2
 13363 106f 34       		.byte	0x34
 13364 1070 9F       		.byte	0x9f
 13365 1071 0C020000 		.4byte	.LVL183
 13366 1075 2E020000 		.4byte	.LVL186
 13367 1079 0200     		.2byte	0x2
 13368 107b 30       		.byte	0x30
 13369 107c 9F       		.byte	0x9f
 13370 107d 2E020000 		.4byte	.LVL186
 13371 1081 58020000 		.4byte	.LVL188
 13372 1085 0200     		.2byte	0x2
 13373 1087 31       		.byte	0x31
 13374 1088 9F       		.byte	0x9f
 13375 1089 58020000 		.4byte	.LVL188
 13376 108d 80020000 		.4byte	.LVL190
 13377 1091 0200     		.2byte	0x2
 13378 1093 32       		.byte	0x32
 13379 1094 9F       		.byte	0x9f
 13380 1095 80020000 		.4byte	.LVL190
 13381 1099 AA020000 		.4byte	.LVL193
 13382 109d 0200     		.2byte	0x2
 13383 109f 33       		.byte	0x33
 13384 10a0 9F       		.byte	0x9f
 13385 10a1 AA020000 		.4byte	.LVL193
 13386 10a5 C8020000 		.4byte	.LFE56
 13387 10a9 0200     		.2byte	0x2
ARM GAS  C:\Users\EBANO_~1\AppData\Local\Temp\ccFRmLE5.s 			page 263


 13388 10ab 34       		.byte	0x34
 13389 10ac 9F       		.byte	0x9f
 13390 10ad 00000000 		.4byte	0
 13391 10b1 00000000 		.4byte	0
 13392              	.LLST56:
 13393 10b5 04010000 		.4byte	.LVL166
 13394 10b9 20010000 		.4byte	.LVL168
 13395 10bd 0200     		.2byte	0x2
 13396 10bf 30       		.byte	0x30
 13397 10c0 9F       		.byte	0x9f
 13398 10c1 20010000 		.4byte	.LVL168
 13399 10c5 2E010000 		.4byte	.LVL169
 13400 10c9 0200     		.2byte	0x2
 13401 10cb 31       		.byte	0x31
 13402 10cc 9F       		.byte	0x9f
 13403 10cd 2E010000 		.4byte	.LVL169
 13404 10d1 46010000 		.4byte	.LVL170
 13405 10d5 0200     		.2byte	0x2
 13406 10d7 32       		.byte	0x32
 13407 10d8 9F       		.byte	0x9f
 13408 10d9 46010000 		.4byte	.LVL170
 13409 10dd 54010000 		.4byte	.LVL171
 13410 10e1 0200     		.2byte	0x2
 13411 10e3 33       		.byte	0x33
 13412 10e4 9F       		.byte	0x9f
 13413 10e5 54010000 		.4byte	.LVL171
 13414 10e9 6A010000 		.4byte	.LVL172
 13415 10ed 0200     		.2byte	0x2
 13416 10ef 34       		.byte	0x34
 13417 10f0 9F       		.byte	0x9f
 13418 10f1 6A010000 		.4byte	.LVL172
 13419 10f5 7A010000 		.4byte	.LVL174
 13420 10f9 0200     		.2byte	0x2
 13421 10fb 35       		.byte	0x35
 13422 10fc 9F       		.byte	0x9f
 13423 10fd 7A010000 		.4byte	.LVL174
 13424 1101 90010000 		.4byte	.LVL175
 13425 1105 0200     		.2byte	0x2
 13426 1107 36       		.byte	0x36
 13427 1108 9F       		.byte	0x9f
 13428 1109 90010000 		.4byte	.LVL175
 13429 110d A0010000 		.4byte	.LVL177
 13430 1111 0200     		.2byte	0x2
 13431 1113 37       		.byte	0x37
 13432 1114 9F       		.byte	0x9f
 13433 1115 0C020000 		.4byte	.LVL183
 13434 1119 1C020000 		.4byte	.LVL185
 13435 111d 0200     		.2byte	0x2
 13436 111f 30       		.byte	0x30
 13437 1120 9F       		.byte	0x9f
 13438 1121 1C020000 		.4byte	.LVL185
 13439 1125 2E020000 		.4byte	.LVL186
 13440 1129 0200     		.2byte	0x2
 13441 112b 31       		.byte	0x31
 13442 112c 9F       		.byte	0x9f
 13443 112d 2E020000 		.4byte	.LVL186
 13444 1131 46020000 		.4byte	.LVL187
ARM GAS  C:\Users\EBANO_~1\AppData\Local\Temp\ccFRmLE5.s 			page 264


 13445 1135 0200     		.2byte	0x2
 13446 1137 32       		.byte	0x32
 13447 1138 9F       		.byte	0x9f
 13448 1139 46020000 		.4byte	.LVL187
 13449 113d 58020000 		.4byte	.LVL188
 13450 1141 0200     		.2byte	0x2
 13451 1143 33       		.byte	0x33
 13452 1144 9F       		.byte	0x9f
 13453 1145 58020000 		.4byte	.LVL188
 13454 1149 6E020000 		.4byte	.LVL189
 13455 114d 0200     		.2byte	0x2
 13456 114f 34       		.byte	0x34
 13457 1150 9F       		.byte	0x9f
 13458 1151 6E020000 		.4byte	.LVL189
 13459 1155 82020000 		.4byte	.LVL191
 13460 1159 0200     		.2byte	0x2
 13461 115b 35       		.byte	0x35
 13462 115c 9F       		.byte	0x9f
 13463 115d 82020000 		.4byte	.LVL191
 13464 1161 98020000 		.4byte	.LVL192
 13465 1165 0200     		.2byte	0x2
 13466 1167 36       		.byte	0x36
 13467 1168 9F       		.byte	0x9f
 13468 1169 98020000 		.4byte	.LVL192
 13469 116d C8020000 		.4byte	.LFE56
 13470 1171 0200     		.2byte	0x2
 13471 1173 37       		.byte	0x37
 13472 1174 9F       		.byte	0x9f
 13473 1175 00000000 		.4byte	0
 13474 1179 00000000 		.4byte	0
 13475              	.LLST35:
 13476 117d 00000000 		.4byte	.LFB55
 13477 1181 02000000 		.4byte	.LCFI14
 13478 1185 0200     		.2byte	0x2
 13479 1187 7D       		.byte	0x7d
 13480 1188 00       		.sleb128 0
 13481 1189 02000000 		.4byte	.LCFI14
 13482 118d 12000000 		.4byte	.LCFI15
 13483 1191 0200     		.2byte	0x2
 13484 1193 7D       		.byte	0x7d
 13485 1194 14       		.sleb128 20
 13486 1195 12000000 		.4byte	.LCFI15
 13487 1199 20000000 		.4byte	.LCFI16
 13488 119d 0200     		.2byte	0x2
 13489 119f 7D       		.byte	0x7d
 13490 11a0 24       		.sleb128 36
 13491 11a1 20000000 		.4byte	.LCFI16
 13492 11a5 2C010000 		.4byte	.LFE55
 13493 11a9 0300     		.2byte	0x3
 13494 11ab 7D       		.byte	0x7d
 13495 11ac D800     		.sleb128 88
 13496 11ae 00000000 		.4byte	0
 13497 11b2 00000000 		.4byte	0
 13498              	.LLST36:
 13499 11b6 00000000 		.4byte	.LVL110
 13500 11ba 34000000 		.4byte	.LVL116
 13501 11be 0100     		.2byte	0x1
ARM GAS  C:\Users\EBANO_~1\AppData\Local\Temp\ccFRmLE5.s 			page 265


 13502 11c0 50       		.byte	0x50
 13503 11c1 34000000 		.4byte	.LVL116
 13504 11c5 A0000000 		.4byte	.LVL124
 13505 11c9 0100     		.2byte	0x1
 13506 11cb 54       		.byte	0x54
 13507 11cc A0000000 		.4byte	.LVL124
 13508 11d0 AC000000 		.4byte	.LVL129
 13509 11d4 0400     		.2byte	0x4
 13510 11d6 F3       		.byte	0xf3
 13511 11d7 01       		.uleb128 0x1
 13512 11d8 50       		.byte	0x50
 13513 11d9 9F       		.byte	0x9f
 13514 11da AC000000 		.4byte	.LVL129
 13515 11de D0000000 		.4byte	.LVL131
 13516 11e2 0100     		.2byte	0x1
 13517 11e4 50       		.byte	0x50
 13518 11e5 D0000000 		.4byte	.LVL131
 13519 11e9 02010000 		.4byte	.LVL140
 13520 11ed 0100     		.2byte	0x1
 13521 11ef 54       		.byte	0x54
 13522 11f0 02010000 		.4byte	.LVL140
 13523 11f4 0A010000 		.4byte	.LVL143
 13524 11f8 0100     		.2byte	0x1
 13525 11fa 50       		.byte	0x50
 13526 11fb 0A010000 		.4byte	.LVL143
 13527 11ff 2C010000 		.4byte	.LFE55
 13528 1203 0100     		.2byte	0x1
 13529 1205 54       		.byte	0x54
 13530 1206 00000000 		.4byte	0
 13531 120a 00000000 		.4byte	0
 13532              	.LLST37:
 13533 120e 00000000 		.4byte	.LVL110
 13534 1212 1C000000 		.4byte	.LVL112
 13535 1216 0100     		.2byte	0x1
 13536 1218 51       		.byte	0x51
 13537 1219 1C000000 		.4byte	.LVL112
 13538 121d A0000000 		.4byte	.LVL125
 13539 1221 0100     		.2byte	0x1
 13540 1223 58       		.byte	0x58
 13541 1224 A0000000 		.4byte	.LVL125
 13542 1228 AC000000 		.4byte	.LVL129
 13543 122c 0100     		.2byte	0x1
 13544 122e 53       		.byte	0x53
 13545 122f AC000000 		.4byte	.LVL129
 13546 1233 2C010000 		.4byte	.LFE55
 13547 1237 0100     		.2byte	0x1
 13548 1239 58       		.byte	0x58
 13549 123a 00000000 		.4byte	0
 13550 123e 00000000 		.4byte	0
 13551              	.LLST38:
 13552 1242 00000000 		.4byte	.LVL110
 13553 1246 10000000 		.4byte	.LVL111
 13554 124a 0100     		.2byte	0x1
 13555 124c 52       		.byte	0x52
 13556 124d 10000000 		.4byte	.LVL111
 13557 1251 A0000000 		.4byte	.LVL126
 13558 1255 0100     		.2byte	0x1
ARM GAS  C:\Users\EBANO_~1\AppData\Local\Temp\ccFRmLE5.s 			page 266


 13559 1257 59       		.byte	0x59
 13560 1258 A0000000 		.4byte	.LVL126
 13561 125c AC000000 		.4byte	.LVL129
 13562 1260 0400     		.2byte	0x4
 13563 1262 F3       		.byte	0xf3
 13564 1263 01       		.uleb128 0x1
 13565 1264 52       		.byte	0x52
 13566 1265 9F       		.byte	0x9f
 13567 1266 AC000000 		.4byte	.LVL129
 13568 126a 2C010000 		.4byte	.LFE55
 13569 126e 0100     		.2byte	0x1
 13570 1270 59       		.byte	0x59
 13571 1271 00000000 		.4byte	0
 13572 1275 00000000 		.4byte	0
 13573              	.LLST39:
 13574 1279 24000000 		.4byte	.LVL113
 13575 127d A0000000 		.4byte	.LVL127
 13576 1281 0100     		.2byte	0x1
 13577 1283 5A       		.byte	0x5a
 13578 1284 AC000000 		.4byte	.LVL129
 13579 1288 2C010000 		.4byte	.LFE55
 13580 128c 0100     		.2byte	0x1
 13581 128e 5A       		.byte	0x5a
 13582 128f 00000000 		.4byte	0
 13583 1293 00000000 		.4byte	0
 13584              	.LLST40:
 13585 1297 36000000 		.4byte	.LVL117
 13586 129b 44000000 		.4byte	.LVL119
 13587 129f 0200     		.2byte	0x2
 13588 12a1 30       		.byte	0x30
 13589 12a2 9F       		.byte	0x9f
 13590 12a3 44000000 		.4byte	.LVL119
 13591 12a7 A0000000 		.4byte	.LVL128
 13592 12ab 0100     		.2byte	0x1
 13593 12ad 5B       		.byte	0x5b
 13594 12ae 00000000 		.4byte	0
 13595 12b2 00000000 		.4byte	0
 13596              	.LLST41:
 13597 12b6 26000000 		.4byte	.LVL114
 13598 12ba 34000000 		.4byte	.LVL116
 13599 12be 0600     		.2byte	0x6
 13600 12c0 03       		.byte	0x3
 13601 12c1 70030000 		.4byte	NvmCtx+880
 13602 12c5 9F       		.byte	0x9f
 13603 12c6 AC000000 		.4byte	.LVL129
 13604 12ca E0000000 		.4byte	.LVL135
 13605 12ce 0600     		.2byte	0x6
 13606 12d0 03       		.byte	0x3
 13607 12d1 70030000 		.4byte	NvmCtx+880
 13608 12d5 9F       		.byte	0x9f
 13609 12d6 FA000000 		.4byte	.LVL138
 13610 12da 08010000 		.4byte	.LVL142
 13611 12de 0600     		.2byte	0x6
 13612 12e0 03       		.byte	0x3
 13613 12e1 70030000 		.4byte	NvmCtx+880
 13614 12e5 9F       		.byte	0x9f
 13615 12e6 0A010000 		.4byte	.LVL143
ARM GAS  C:\Users\EBANO_~1\AppData\Local\Temp\ccFRmLE5.s 			page 267


 13616 12ea 2C010000 		.4byte	.LFE55
 13617 12ee 0600     		.2byte	0x6
 13618 12f0 03       		.byte	0x3
 13619 12f1 70030000 		.4byte	NvmCtx+880
 13620 12f5 9F       		.byte	0x9f
 13621 12f6 00000000 		.4byte	0
 13622 12fa 00000000 		.4byte	0
 13623              	.LLST42:
 13624 12fe 26000000 		.4byte	.LVL114
 13625 1302 2C000000 		.4byte	.LVL115
 13626 1306 0100     		.2byte	0x1
 13627 1308 53       		.byte	0x53
 13628 1309 2C000000 		.4byte	.LVL115
 13629 130d 34000000 		.4byte	.LVL116
 13630 1311 0200     		.2byte	0x2
 13631 1313 70       		.byte	0x70
 13632 1314 01       		.sleb128 1
 13633 1315 AC000000 		.4byte	.LVL129
 13634 1319 B2000000 		.4byte	.LVL130
 13635 131d 0100     		.2byte	0x1
 13636 131f 53       		.byte	0x53
 13637 1320 B2000000 		.4byte	.LVL130
 13638 1324 D0000000 		.4byte	.LVL131
 13639 1328 0200     		.2byte	0x2
 13640 132a 70       		.byte	0x70
 13641 132b 01       		.sleb128 1
 13642 132c D0000000 		.4byte	.LVL131
 13643 1330 D3000000 		.4byte	.LVL132-1
 13644 1334 0200     		.2byte	0x2
 13645 1336 74       		.byte	0x74
 13646 1337 01       		.sleb128 1
 13647 1338 02010000 		.4byte	.LVL140
 13648 133c 08010000 		.4byte	.LVL142
 13649 1340 0200     		.2byte	0x2
 13650 1342 70       		.byte	0x70
 13651 1343 01       		.sleb128 1
 13652 1344 00000000 		.4byte	0
 13653 1348 00000000 		.4byte	0
 13654              	.LLST43:
 13655 134c 26000000 		.4byte	.LVL114
 13656 1350 34000000 		.4byte	.LVL116
 13657 1354 1E00     		.2byte	0x1e
 13658 1356 70       		.byte	0x70
 13659 1357 00       		.sleb128 0
 13660 1358 94       		.byte	0x94
 13661 1359 01       		.byte	0x1
 13662 135a 08       		.byte	0x8
 13663 135b FF       		.byte	0xff
 13664 135c 1A       		.byte	0x1a
 13665 135d 3C       		.byte	0x3c
 13666 135e 1E       		.byte	0x1e
 13667 135f 03       		.byte	0x3
 13668 1360 09000000 		.4byte	NvmCtx+9
 13669 1364 22       		.byte	0x22
 13670 1365 94       		.byte	0x94
 13671 1366 01       		.byte	0x1
 13672 1367 08       		.byte	0x8
ARM GAS  C:\Users\EBANO_~1\AppData\Local\Temp\ccFRmLE5.s 			page 268


 13673 1368 FF       		.byte	0xff
 13674 1369 1A       		.byte	0x1a
 13675 136a 23       		.byte	0x23
 13676 136b 36       		.uleb128 0x36
 13677 136c 34       		.byte	0x34
 13678 136d 24       		.byte	0x24
 13679 136e 03       		.byte	0x3
 13680 136f 02000000 		.4byte	NvmCtx+2
 13681 1373 22       		.byte	0x22
 13682 1374 AC000000 		.4byte	.LVL129
 13683 1378 D0000000 		.4byte	.LVL131
 13684 137c 1E00     		.2byte	0x1e
 13685 137e 70       		.byte	0x70
 13686 137f 00       		.sleb128 0
 13687 1380 94       		.byte	0x94
 13688 1381 01       		.byte	0x1
 13689 1382 08       		.byte	0x8
 13690 1383 FF       		.byte	0xff
 13691 1384 1A       		.byte	0x1a
 13692 1385 3C       		.byte	0x3c
 13693 1386 1E       		.byte	0x1e
 13694 1387 03       		.byte	0x3
 13695 1388 09000000 		.4byte	NvmCtx+9
 13696 138c 22       		.byte	0x22
 13697 138d 94       		.byte	0x94
 13698 138e 01       		.byte	0x1
 13699 138f 08       		.byte	0x8
 13700 1390 FF       		.byte	0xff
 13701 1391 1A       		.byte	0x1a
 13702 1392 23       		.byte	0x23
 13703 1393 36       		.uleb128 0x36
 13704 1394 34       		.byte	0x34
 13705 1395 24       		.byte	0x24
 13706 1396 03       		.byte	0x3
 13707 1397 02000000 		.4byte	NvmCtx+2
 13708 139b 22       		.byte	0x22
 13709 139c D0000000 		.4byte	.LVL131
 13710 13a0 D3000000 		.4byte	.LVL132-1
 13711 13a4 1E00     		.2byte	0x1e
 13712 13a6 74       		.byte	0x74
 13713 13a7 00       		.sleb128 0
 13714 13a8 94       		.byte	0x94
 13715 13a9 01       		.byte	0x1
 13716 13aa 08       		.byte	0x8
 13717 13ab FF       		.byte	0xff
 13718 13ac 1A       		.byte	0x1a
 13719 13ad 3C       		.byte	0x3c
 13720 13ae 1E       		.byte	0x1e
 13721 13af 03       		.byte	0x3
 13722 13b0 09000000 		.4byte	NvmCtx+9
 13723 13b4 22       		.byte	0x22
 13724 13b5 94       		.byte	0x94
 13725 13b6 01       		.byte	0x1
 13726 13b7 08       		.byte	0x8
 13727 13b8 FF       		.byte	0xff
 13728 13b9 1A       		.byte	0x1a
 13729 13ba 23       		.byte	0x23
ARM GAS  C:\Users\EBANO_~1\AppData\Local\Temp\ccFRmLE5.s 			page 269


 13730 13bb 36       		.uleb128 0x36
 13731 13bc 34       		.byte	0x34
 13732 13bd 24       		.byte	0x24
 13733 13be 03       		.byte	0x3
 13734 13bf 02000000 		.4byte	NvmCtx+2
 13735 13c3 22       		.byte	0x22
 13736 13c4 02010000 		.4byte	.LVL140
 13737 13c8 08010000 		.4byte	.LVL142
 13738 13cc 1E00     		.2byte	0x1e
 13739 13ce 70       		.byte	0x70
 13740 13cf 00       		.sleb128 0
 13741 13d0 94       		.byte	0x94
 13742 13d1 01       		.byte	0x1
 13743 13d2 08       		.byte	0x8
 13744 13d3 FF       		.byte	0xff
 13745 13d4 1A       		.byte	0x1a
 13746 13d5 3C       		.byte	0x3c
 13747 13d6 1E       		.byte	0x1e
 13748 13d7 03       		.byte	0x3
 13749 13d8 09000000 		.4byte	NvmCtx+9
 13750 13dc 22       		.byte	0x22
 13751 13dd 94       		.byte	0x94
 13752 13de 01       		.byte	0x1
 13753 13df 08       		.byte	0x8
 13754 13e0 FF       		.byte	0xff
 13755 13e1 1A       		.byte	0x1a
 13756 13e2 23       		.byte	0x23
 13757 13e3 36       		.uleb128 0x36
 13758 13e4 34       		.byte	0x34
 13759 13e5 24       		.byte	0x24
 13760 13e6 03       		.byte	0x3
 13761 13e7 02000000 		.4byte	NvmCtx+2
 13762 13eb 22       		.byte	0x22
 13763 13ec 00000000 		.4byte	0
 13764 13f0 00000000 		.4byte	0
 13765              	.LLST44:
 13766 13f4 26000000 		.4byte	.LVL114
 13767 13f8 34000000 		.4byte	.LVL116
 13768 13fc 0100     		.2byte	0x1
 13769 13fe 55       		.byte	0x55
 13770 13ff AC000000 		.4byte	.LVL129
 13771 1403 DA000000 		.4byte	.LVL133
 13772 1407 0100     		.2byte	0x1
 13773 1409 55       		.byte	0x55
 13774 140a DA000000 		.4byte	.LVL133
 13775 140e DE000000 		.4byte	.LVL134
 13776 1412 0100     		.2byte	0x1
 13777 1414 53       		.byte	0x53
 13778 1415 DE000000 		.4byte	.LVL134
 13779 1419 E0000000 		.4byte	.LVL135
 13780 141d 0100     		.2byte	0x1
 13781 141f 55       		.byte	0x55
 13782 1420 FA000000 		.4byte	.LVL138
 13783 1424 00010000 		.4byte	.LVL139
 13784 1428 0100     		.2byte	0x1
 13785 142a 53       		.byte	0x53
 13786 142b 00010000 		.4byte	.LVL139
ARM GAS  C:\Users\EBANO_~1\AppData\Local\Temp\ccFRmLE5.s 			page 270


 13787 142f 02010000 		.4byte	.LVL140
 13788 1433 0100     		.2byte	0x1
 13789 1435 55       		.byte	0x55
 13790 1436 02010000 		.4byte	.LVL140
 13791 143a 04010000 		.4byte	.LVL141
 13792 143e 0100     		.2byte	0x1
 13793 1440 53       		.byte	0x53
 13794 1441 04010000 		.4byte	.LVL141
 13795 1445 08010000 		.4byte	.LVL142
 13796 1449 0100     		.2byte	0x1
 13797 144b 55       		.byte	0x55
 13798 144c 0A010000 		.4byte	.LVL143
 13799 1450 0C010000 		.4byte	.LVL144
 13800 1454 0100     		.2byte	0x1
 13801 1456 53       		.byte	0x53
 13802 1457 0C010000 		.4byte	.LVL144
 13803 145b 2C010000 		.4byte	.LFE55
 13804 145f 0100     		.2byte	0x1
 13805 1461 55       		.byte	0x55
 13806 1462 00000000 		.4byte	0
 13807 1466 00000000 		.4byte	0
 13808              	.LLST45:
 13809 146a 26000000 		.4byte	.LVL114
 13810 146e 34000000 		.4byte	.LVL116
 13811 1472 2C00     		.2byte	0x2c
 13812 1474 70       		.byte	0x70
 13813 1475 00       		.sleb128 0
 13814 1476 94       		.byte	0x94
 13815 1477 01       		.byte	0x1
 13816 1478 08       		.byte	0x8
 13817 1479 FF       		.byte	0xff
 13818 147a 1A       		.byte	0x1a
 13819 147b 3C       		.byte	0x3c
 13820 147c 1E       		.byte	0x1e
 13821 147d 03       		.byte	0x3
 13822 147e 09000000 		.4byte	NvmCtx+9
 13823 1482 22       		.byte	0x22
 13824 1483 94       		.byte	0x94
 13825 1484 01       		.byte	0x1
 13826 1485 08       		.byte	0x8
 13827 1486 FF       		.byte	0xff
 13828 1487 1A       		.byte	0x1a
 13829 1488 23       		.byte	0x23
 13830 1489 36       		.uleb128 0x36
 13831 148a 34       		.byte	0x34
 13832 148b 24       		.byte	0x24
 13833 148c 03       		.byte	0x3
 13834 148d 02000000 		.4byte	NvmCtx+2
 13835 1491 22       		.byte	0x22
 13836 1492 94       		.byte	0x94
 13837 1493 01       		.byte	0x1
 13838 1494 12       		.byte	0x12
 13839 1495 75       		.byte	0x75
 13840 1496 00       		.sleb128 0
 13841 1497 16       		.byte	0x16
 13842 1498 14       		.byte	0x14
 13843 1499 2B       		.byte	0x2b
ARM GAS  C:\Users\EBANO_~1\AppData\Local\Temp\ccFRmLE5.s 			page 271


 13844 149a 28       		.byte	0x28
 13845 149b 0100     		.2byte	0x1
 13846 149d 16       		.byte	0x16
 13847 149e 13       		.byte	0x13
 13848 149f 9F       		.byte	0x9f
 13849 14a0 AC000000 		.4byte	.LVL129
 13850 14a4 D0000000 		.4byte	.LVL131
 13851 14a8 2C00     		.2byte	0x2c
 13852 14aa 70       		.byte	0x70
 13853 14ab 00       		.sleb128 0
 13854 14ac 94       		.byte	0x94
 13855 14ad 01       		.byte	0x1
 13856 14ae 08       		.byte	0x8
 13857 14af FF       		.byte	0xff
 13858 14b0 1A       		.byte	0x1a
 13859 14b1 3C       		.byte	0x3c
 13860 14b2 1E       		.byte	0x1e
 13861 14b3 03       		.byte	0x3
 13862 14b4 09000000 		.4byte	NvmCtx+9
 13863 14b8 22       		.byte	0x22
 13864 14b9 94       		.byte	0x94
 13865 14ba 01       		.byte	0x1
 13866 14bb 08       		.byte	0x8
 13867 14bc FF       		.byte	0xff
 13868 14bd 1A       		.byte	0x1a
 13869 14be 23       		.byte	0x23
 13870 14bf 36       		.uleb128 0x36
 13871 14c0 34       		.byte	0x34
 13872 14c1 24       		.byte	0x24
 13873 14c2 03       		.byte	0x3
 13874 14c3 02000000 		.4byte	NvmCtx+2
 13875 14c7 22       		.byte	0x22
 13876 14c8 94       		.byte	0x94
 13877 14c9 01       		.byte	0x1
 13878 14ca 12       		.byte	0x12
 13879 14cb 75       		.byte	0x75
 13880 14cc 00       		.sleb128 0
 13881 14cd 16       		.byte	0x16
 13882 14ce 14       		.byte	0x14
 13883 14cf 2B       		.byte	0x2b
 13884 14d0 28       		.byte	0x28
 13885 14d1 0100     		.2byte	0x1
 13886 14d3 16       		.byte	0x16
 13887 14d4 13       		.byte	0x13
 13888 14d5 9F       		.byte	0x9f
 13889 14d6 D0000000 		.4byte	.LVL131
 13890 14da D3000000 		.4byte	.LVL132-1
 13891 14de 2C00     		.2byte	0x2c
 13892 14e0 74       		.byte	0x74
 13893 14e1 00       		.sleb128 0
 13894 14e2 94       		.byte	0x94
 13895 14e3 01       		.byte	0x1
 13896 14e4 08       		.byte	0x8
 13897 14e5 FF       		.byte	0xff
 13898 14e6 1A       		.byte	0x1a
 13899 14e7 3C       		.byte	0x3c
 13900 14e8 1E       		.byte	0x1e
ARM GAS  C:\Users\EBANO_~1\AppData\Local\Temp\ccFRmLE5.s 			page 272


 13901 14e9 03       		.byte	0x3
 13902 14ea 09000000 		.4byte	NvmCtx+9
 13903 14ee 22       		.byte	0x22
 13904 14ef 94       		.byte	0x94
 13905 14f0 01       		.byte	0x1
 13906 14f1 08       		.byte	0x8
 13907 14f2 FF       		.byte	0xff
 13908 14f3 1A       		.byte	0x1a
 13909 14f4 23       		.byte	0x23
 13910 14f5 36       		.uleb128 0x36
 13911 14f6 34       		.byte	0x34
 13912 14f7 24       		.byte	0x24
 13913 14f8 03       		.byte	0x3
 13914 14f9 02000000 		.4byte	NvmCtx+2
 13915 14fd 22       		.byte	0x22
 13916 14fe 94       		.byte	0x94
 13917 14ff 01       		.byte	0x1
 13918 1500 12       		.byte	0x12
 13919 1501 75       		.byte	0x75
 13920 1502 00       		.sleb128 0
 13921 1503 16       		.byte	0x16
 13922 1504 14       		.byte	0x14
 13923 1505 2B       		.byte	0x2b
 13924 1506 28       		.byte	0x28
 13925 1507 0100     		.2byte	0x1
 13926 1509 16       		.byte	0x16
 13927 150a 13       		.byte	0x13
 13928 150b 9F       		.byte	0x9f
 13929 150c 02010000 		.4byte	.LVL140
 13930 1510 04010000 		.4byte	.LVL141
 13931 1514 2C00     		.2byte	0x2c
 13932 1516 70       		.byte	0x70
 13933 1517 00       		.sleb128 0
 13934 1518 94       		.byte	0x94
 13935 1519 01       		.byte	0x1
 13936 151a 08       		.byte	0x8
 13937 151b FF       		.byte	0xff
 13938 151c 1A       		.byte	0x1a
 13939 151d 3C       		.byte	0x3c
 13940 151e 1E       		.byte	0x1e
 13941 151f 03       		.byte	0x3
 13942 1520 09000000 		.4byte	NvmCtx+9
 13943 1524 22       		.byte	0x22
 13944 1525 94       		.byte	0x94
 13945 1526 01       		.byte	0x1
 13946 1527 08       		.byte	0x8
 13947 1528 FF       		.byte	0xff
 13948 1529 1A       		.byte	0x1a
 13949 152a 23       		.byte	0x23
 13950 152b 36       		.uleb128 0x36
 13951 152c 34       		.byte	0x34
 13952 152d 24       		.byte	0x24
 13953 152e 03       		.byte	0x3
 13954 152f 02000000 		.4byte	NvmCtx+2
 13955 1533 22       		.byte	0x22
 13956 1534 94       		.byte	0x94
 13957 1535 01       		.byte	0x1
ARM GAS  C:\Users\EBANO_~1\AppData\Local\Temp\ccFRmLE5.s 			page 273


 13958 1536 12       		.byte	0x12
 13959 1537 73       		.byte	0x73
 13960 1538 00       		.sleb128 0
 13961 1539 16       		.byte	0x16
 13962 153a 14       		.byte	0x14
 13963 153b 2B       		.byte	0x2b
 13964 153c 28       		.byte	0x28
 13965 153d 0100     		.2byte	0x1
 13966 153f 16       		.byte	0x16
 13967 1540 13       		.byte	0x13
 13968 1541 9F       		.byte	0x9f
 13969 1542 04010000 		.4byte	.LVL141
 13970 1546 08010000 		.4byte	.LVL142
 13971 154a 2C00     		.2byte	0x2c
 13972 154c 70       		.byte	0x70
 13973 154d 00       		.sleb128 0
 13974 154e 94       		.byte	0x94
 13975 154f 01       		.byte	0x1
 13976 1550 08       		.byte	0x8
 13977 1551 FF       		.byte	0xff
 13978 1552 1A       		.byte	0x1a
 13979 1553 3C       		.byte	0x3c
 13980 1554 1E       		.byte	0x1e
 13981 1555 03       		.byte	0x3
 13982 1556 09000000 		.4byte	NvmCtx+9
 13983 155a 22       		.byte	0x22
 13984 155b 94       		.byte	0x94
 13985 155c 01       		.byte	0x1
 13986 155d 08       		.byte	0x8
 13987 155e FF       		.byte	0xff
 13988 155f 1A       		.byte	0x1a
 13989 1560 23       		.byte	0x23
 13990 1561 36       		.uleb128 0x36
 13991 1562 34       		.byte	0x34
 13992 1563 24       		.byte	0x24
 13993 1564 03       		.byte	0x3
 13994 1565 02000000 		.4byte	NvmCtx+2
 13995 1569 22       		.byte	0x22
 13996 156a 94       		.byte	0x94
 13997 156b 01       		.byte	0x1
 13998 156c 12       		.byte	0x12
 13999 156d 75       		.byte	0x75
 14000 156e 00       		.sleb128 0
 14001 156f 16       		.byte	0x16
 14002 1570 14       		.byte	0x14
 14003 1571 2B       		.byte	0x2b
 14004 1572 28       		.byte	0x28
 14005 1573 0100     		.2byte	0x1
 14006 1575 16       		.byte	0x16
 14007 1576 13       		.byte	0x13
 14008 1577 9F       		.byte	0x9f
 14009 1578 00000000 		.4byte	0
 14010 157c 00000000 		.4byte	0
 14011              	.LLST46:
 14012 1580 E0000000 		.4byte	.LVL135
 14013 1584 E4000000 		.4byte	.LVL136
 14014 1588 0900     		.2byte	0x9
ARM GAS  C:\Users\EBANO_~1\AppData\Local\Temp\ccFRmLE5.s 			page 274


 14015 158a 74       		.byte	0x74
 14016 158b 01       		.sleb128 1
 14017 158c 94       		.byte	0x94
 14018 158d 01       		.byte	0x1
 14019 158e 48       		.byte	0x48
 14020 158f 24       		.byte	0x24
 14021 1590 48       		.byte	0x48
 14022 1591 26       		.byte	0x26
 14023 1592 9F       		.byte	0x9f
 14024 1593 E4000000 		.4byte	.LVL136
 14025 1597 E8000000 		.4byte	.LVL137
 14026 159b 0100     		.2byte	0x1
 14027 159d 53       		.byte	0x53
 14028 159e E8000000 		.4byte	.LVL137
 14029 15a2 FA000000 		.4byte	.LVL138
 14030 15a6 0900     		.2byte	0x9
 14031 15a8 74       		.byte	0x74
 14032 15a9 01       		.sleb128 1
 14033 15aa 94       		.byte	0x94
 14034 15ab 01       		.byte	0x1
 14035 15ac 48       		.byte	0x48
 14036 15ad 24       		.byte	0x24
 14037 15ae 48       		.byte	0x48
 14038 15af 26       		.byte	0x26
 14039 15b0 9F       		.byte	0x9f
 14040 15b1 08010000 		.4byte	.LVL142
 14041 15b5 0A010000 		.4byte	.LVL143
 14042 15b9 0900     		.2byte	0x9
 14043 15bb 70       		.byte	0x70
 14044 15bc 01       		.sleb128 1
 14045 15bd 94       		.byte	0x94
 14046 15be 01       		.byte	0x1
 14047 15bf 48       		.byte	0x48
 14048 15c0 24       		.byte	0x24
 14049 15c1 48       		.byte	0x48
 14050 15c2 26       		.byte	0x26
 14051 15c3 9F       		.byte	0x9f
 14052 15c4 00000000 		.4byte	0
 14053 15c8 00000000 		.4byte	0
 14054              	.LLST28:
 14055 15cc 00000000 		.4byte	.LFB54
 14056 15d0 02000000 		.4byte	.LCFI11
 14057 15d4 0200     		.2byte	0x2
 14058 15d6 7D       		.byte	0x7d
 14059 15d7 00       		.sleb128 0
 14060 15d8 02000000 		.4byte	.LCFI11
 14061 15dc 0A000000 		.4byte	.LCFI12
 14062 15e0 0200     		.2byte	0x2
 14063 15e2 7D       		.byte	0x7d
 14064 15e3 14       		.sleb128 20
 14065 15e4 0A000000 		.4byte	.LCFI12
 14066 15e8 16000000 		.4byte	.LCFI13
 14067 15ec 0200     		.2byte	0x2
 14068 15ee 7D       		.byte	0x7d
 14069 15ef 20       		.sleb128 32
 14070 15f0 16000000 		.4byte	.LCFI13
 14071 15f4 C4000000 		.4byte	.LFE54
ARM GAS  C:\Users\EBANO_~1\AppData\Local\Temp\ccFRmLE5.s 			page 275


 14072 15f8 0300     		.2byte	0x3
 14073 15fa 7D       		.byte	0x7d
 14074 15fb D000     		.sleb128 80
 14075 15fd 00000000 		.4byte	0
 14076 1601 00000000 		.4byte	0
 14077              	.LLST29:
 14078 1605 00000000 		.4byte	.LVL92
 14079 1609 1F000000 		.4byte	.LVL94-1
 14080 160d 0100     		.2byte	0x1
 14081 160f 50       		.byte	0x50
 14082 1610 1F000000 		.4byte	.LVL94-1
 14083 1614 9C000000 		.4byte	.LVL104
 14084 1618 0100     		.2byte	0x1
 14085 161a 54       		.byte	0x54
 14086 161b 9C000000 		.4byte	.LVL104
 14087 161f A6000000 		.4byte	.LVL108
 14088 1623 0400     		.2byte	0x4
 14089 1625 F3       		.byte	0xf3
 14090 1626 01       		.uleb128 0x1
 14091 1627 50       		.byte	0x50
 14092 1628 9F       		.byte	0x9f
 14093 1629 A6000000 		.4byte	.LVL108
 14094 162d C4000000 		.4byte	.LFE54
 14095 1631 0100     		.2byte	0x1
 14096 1633 54       		.byte	0x54
 14097 1634 00000000 		.4byte	0
 14098 1638 00000000 		.4byte	0
 14099              	.LLST30:
 14100 163c 00000000 		.4byte	.LVL92
 14101 1640 1F000000 		.4byte	.LVL94-1
 14102 1644 0100     		.2byte	0x1
 14103 1646 51       		.byte	0x51
 14104 1647 1F000000 		.4byte	.LVL94-1
 14105 164b 9C000000 		.4byte	.LVL107
 14106 164f 0100     		.2byte	0x1
 14107 1651 5A       		.byte	0x5a
 14108 1652 9C000000 		.4byte	.LVL107
 14109 1656 A6000000 		.4byte	.LVL108
 14110 165a 0400     		.2byte	0x4
 14111 165c F3       		.byte	0xf3
 14112 165d 01       		.uleb128 0x1
 14113 165e 51       		.byte	0x51
 14114 165f 9F       		.byte	0x9f
 14115 1660 A6000000 		.4byte	.LVL108
 14116 1664 C4000000 		.4byte	.LFE54
 14117 1668 0100     		.2byte	0x1
 14118 166a 5A       		.byte	0x5a
 14119 166b 00000000 		.4byte	0
 14120 166f 00000000 		.4byte	0
 14121              	.LLST31:
 14122 1673 18000000 		.4byte	.LVL93
 14123 1677 9C000000 		.4byte	.LVL105
 14124 167b 0100     		.2byte	0x1
 14125 167d 56       		.byte	0x56
 14126 167e A6000000 		.4byte	.LVL108
 14127 1682 C4000000 		.4byte	.LFE54
 14128 1686 0100     		.2byte	0x1
ARM GAS  C:\Users\EBANO_~1\AppData\Local\Temp\ccFRmLE5.s 			page 276


 14129 1688 56       		.byte	0x56
 14130 1689 00000000 		.4byte	0
 14131 168d 00000000 		.4byte	0
 14132              	.LLST32:
 14133 1691 18000000 		.4byte	.LVL93
 14134 1695 86000000 		.4byte	.LVL100
 14135 1699 0200     		.2byte	0x2
 14136 169b 30       		.byte	0x30
 14137 169c 9F       		.byte	0x9f
 14138 169d 86000000 		.4byte	.LVL100
 14139 16a1 8A000000 		.4byte	.LVL101
 14140 16a5 0100     		.2byte	0x1
 14141 16a7 51       		.byte	0x51
 14142 16a8 A6000000 		.4byte	.LVL108
 14143 16ac AC000000 		.4byte	.LVL109
 14144 16b0 0200     		.2byte	0x2
 14145 16b2 30       		.byte	0x30
 14146 16b3 9F       		.byte	0x9f
 14147 16b4 AC000000 		.4byte	.LVL109
 14148 16b8 C4000000 		.4byte	.LFE54
 14149 16bc 0100     		.2byte	0x1
 14150 16be 51       		.byte	0x51
 14151 16bf 00000000 		.4byte	0
 14152 16c3 00000000 		.4byte	0
 14153              	.LLST33:
 14154 16c7 18000000 		.4byte	.LVL93
 14155 16cb 48000000 		.4byte	.LVL97
 14156 16cf 0200     		.2byte	0x2
 14157 16d1 30       		.byte	0x30
 14158 16d2 9F       		.byte	0x9f
 14159 16d3 48000000 		.4byte	.LVL97
 14160 16d7 98000000 		.4byte	.LVL103
 14161 16db 0100     		.2byte	0x1
 14162 16dd 59       		.byte	0x59
 14163 16de A6000000 		.4byte	.LVL108
 14164 16e2 C4000000 		.4byte	.LFE54
 14165 16e6 0100     		.2byte	0x1
 14166 16e8 59       		.byte	0x59
 14167 16e9 00000000 		.4byte	0
 14168 16ed 00000000 		.4byte	0
 14169              	.LLST34:
 14170 16f1 18000000 		.4byte	.LVL93
 14171 16f5 3A000000 		.4byte	.LVL95
 14172 16f9 0100     		.2byte	0x1
 14173 16fb 58       		.byte	0x58
 14174 16fc 3C000000 		.4byte	.LVL96
 14175 1700 9C000000 		.4byte	.LVL106
 14176 1704 0100     		.2byte	0x1
 14177 1706 58       		.byte	0x58
 14178 1707 A6000000 		.4byte	.LVL108
 14179 170b C4000000 		.4byte	.LFE54
 14180 170f 0100     		.2byte	0x1
 14181 1711 58       		.byte	0x58
 14182 1712 00000000 		.4byte	0
 14183 1716 00000000 		.4byte	0
 14184              	.LLST22:
 14185 171a 00000000 		.4byte	.LFB53
ARM GAS  C:\Users\EBANO_~1\AppData\Local\Temp\ccFRmLE5.s 			page 277


 14186 171e 02000000 		.4byte	.LCFI8
 14187 1722 0200     		.2byte	0x2
 14188 1724 7D       		.byte	0x7d
 14189 1725 00       		.sleb128 0
 14190 1726 02000000 		.4byte	.LCFI8
 14191 172a 06000000 		.4byte	.LCFI9
 14192 172e 0200     		.2byte	0x2
 14193 1730 7D       		.byte	0x7d
 14194 1731 14       		.sleb128 20
 14195 1732 06000000 		.4byte	.LCFI9
 14196 1736 0A000000 		.4byte	.LCFI10
 14197 173a 0200     		.2byte	0x2
 14198 173c 7D       		.byte	0x7d
 14199 173d 18       		.sleb128 24
 14200 173e 0A000000 		.4byte	.LCFI10
 14201 1742 80000000 		.4byte	.LFE53
 14202 1746 0200     		.2byte	0x2
 14203 1748 7D       		.byte	0x7d
 14204 1749 30       		.sleb128 48
 14205 174a 00000000 		.4byte	0
 14206 174e 00000000 		.4byte	0
 14207              	.LLST23:
 14208 1752 00000000 		.4byte	.LVL75
 14209 1756 18000000 		.4byte	.LVL77
 14210 175a 0100     		.2byte	0x1
 14211 175c 50       		.byte	0x50
 14212 175d 18000000 		.4byte	.LVL77
 14213 1761 80000000 		.4byte	.LFE53
 14214 1765 0400     		.2byte	0x4
 14215 1767 F3       		.byte	0xf3
 14216 1768 01       		.uleb128 0x1
 14217 1769 50       		.byte	0x50
 14218 176a 9F       		.byte	0x9f
 14219 176b 00000000 		.4byte	0
 14220 176f 00000000 		.4byte	0
 14221              	.LLST24:
 14222 1773 00000000 		.4byte	.LVL75
 14223 1777 1C000000 		.4byte	.LVL79
 14224 177b 0100     		.2byte	0x1
 14225 177d 51       		.byte	0x51
 14226 177e 1C000000 		.4byte	.LVL79
 14227 1782 80000000 		.4byte	.LFE53
 14228 1786 0400     		.2byte	0x4
 14229 1788 F3       		.byte	0xf3
 14230 1789 01       		.uleb128 0x1
 14231 178a 51       		.byte	0x51
 14232 178b 9F       		.byte	0x9f
 14233 178c 00000000 		.4byte	0
 14234 1790 00000000 		.4byte	0
 14235              	.LLST25:
 14236 1794 00000000 		.4byte	.LVL75
 14237 1798 1A000000 		.4byte	.LVL78
 14238 179c 0100     		.2byte	0x1
 14239 179e 52       		.byte	0x52
 14240 179f 1A000000 		.4byte	.LVL78
 14241 17a3 66000000 		.4byte	.LVL90
 14242 17a7 0100     		.2byte	0x1
ARM GAS  C:\Users\EBANO_~1\AppData\Local\Temp\ccFRmLE5.s 			page 278


 14243 17a9 58       		.byte	0x58
 14244 17aa 66000000 		.4byte	.LVL90
 14245 17ae 6C000000 		.4byte	.LVL91
 14246 17b2 0400     		.2byte	0x4
 14247 17b4 F3       		.byte	0xf3
 14248 17b5 01       		.uleb128 0x1
 14249 17b6 52       		.byte	0x52
 14250 17b7 9F       		.byte	0x9f
 14251 17b8 6C000000 		.4byte	.LVL91
 14252 17bc 80000000 		.4byte	.LFE53
 14253 17c0 0100     		.2byte	0x1
 14254 17c2 58       		.byte	0x58
 14255 17c3 00000000 		.4byte	0
 14256 17c7 00000000 		.4byte	0
 14257              	.LLST26:
 14258 17cb 00000000 		.4byte	.LVL75
 14259 17cf 10000000 		.4byte	.LVL76
 14260 17d3 0100     		.2byte	0x1
 14261 17d5 53       		.byte	0x53
 14262 17d6 10000000 		.4byte	.LVL76
 14263 17da 50000000 		.4byte	.LVL84
 14264 17de 0100     		.2byte	0x1
 14265 17e0 54       		.byte	0x54
 14266 17e1 50000000 		.4byte	.LVL84
 14267 17e5 52000000 		.4byte	.LVL85
 14268 17e9 0100     		.2byte	0x1
 14269 17eb 53       		.byte	0x53
 14270 17ec 52000000 		.4byte	.LVL85
 14271 17f0 5A000000 		.4byte	.LVL86
 14272 17f4 0300     		.2byte	0x3
 14273 17f6 73       		.byte	0x73
 14274 17f7 74       		.sleb128 -12
 14275 17f8 9F       		.byte	0x9f
 14276 17f9 5A000000 		.4byte	.LVL86
 14277 17fd 63000000 		.4byte	.LVL87-1
 14278 1801 0600     		.2byte	0x6
 14279 1803 91       		.byte	0x91
 14280 1804 58       		.sleb128 -40
 14281 1805 06       		.byte	0x6
 14282 1806 3C       		.byte	0x3c
 14283 1807 1C       		.byte	0x1c
 14284 1808 9F       		.byte	0x9f
 14285 1809 63000000 		.4byte	.LVL87-1
 14286 180d 66000000 		.4byte	.LVL88
 14287 1811 0300     		.2byte	0x3
 14288 1813 74       		.byte	0x74
 14289 1814 78       		.sleb128 -8
 14290 1815 9F       		.byte	0x9f
 14291 1816 66000000 		.4byte	.LVL88
 14292 181a 6C000000 		.4byte	.LVL91
 14293 181e 0400     		.2byte	0x4
 14294 1820 F3       		.byte	0xf3
 14295 1821 01       		.uleb128 0x1
 14296 1822 53       		.byte	0x53
 14297 1823 9F       		.byte	0x9f
 14298 1824 6C000000 		.4byte	.LVL91
 14299 1828 80000000 		.4byte	.LFE53
ARM GAS  C:\Users\EBANO_~1\AppData\Local\Temp\ccFRmLE5.s 			page 279


 14300 182c 0100     		.2byte	0x1
 14301 182e 54       		.byte	0x54
 14302 182f 00000000 		.4byte	0
 14303 1833 00000000 		.4byte	0
 14304              	.LLST27:
 14305 1837 00000000 		.4byte	.LVL75
 14306 183b 48000000 		.4byte	.LVL82
 14307 183f 0A00     		.2byte	0xa
 14308 1841 9E       		.byte	0x9e
 14309 1842 08       		.uleb128 0x8
 14310 1843 00000000 		.4byte	0
 14311 1847 00000000 		.4byte	0
 14312 184b 48000000 		.4byte	.LVL82
 14313 184f 66000000 		.4byte	.LVL89
 14314 1853 0600     		.2byte	0x6
 14315 1855 56       		.byte	0x56
 14316 1856 93       		.byte	0x93
 14317 1857 04       		.uleb128 0x4
 14318 1858 57       		.byte	0x57
 14319 1859 93       		.byte	0x93
 14320 185a 04       		.uleb128 0x4
 14321 185b 6C000000 		.4byte	.LVL91
 14322 185f 80000000 		.4byte	.LFE53
 14323 1863 0A00     		.2byte	0xa
 14324 1865 9E       		.byte	0x9e
 14325 1866 08       		.uleb128 0x8
 14326 1867 00000000 		.4byte	0
 14327 186b 00000000 		.4byte	0
 14328 186f 00000000 		.4byte	0
 14329 1873 00000000 		.4byte	0
 14330              	.LLST19:
 14331 1877 00000000 		.4byte	.LFB52
 14332 187b 02000000 		.4byte	.LCFI7
 14333 187f 0200     		.2byte	0x2
 14334 1881 7D       		.byte	0x7d
 14335 1882 00       		.sleb128 0
 14336 1883 02000000 		.4byte	.LCFI7
 14337 1887 8C000000 		.4byte	.LFE52
 14338 188b 0200     		.2byte	0x2
 14339 188d 7D       		.byte	0x7d
 14340 188e 10       		.sleb128 16
 14341 188f 00000000 		.4byte	0
 14342 1893 00000000 		.4byte	0
 14343              	.LLST20:
 14344 1897 00000000 		.4byte	.LVL63
 14345 189b 0A000000 		.4byte	.LVL64
 14346 189f 0100     		.2byte	0x1
 14347 18a1 50       		.byte	0x50
 14348 18a2 0A000000 		.4byte	.LVL64
 14349 18a6 2C000000 		.4byte	.LVL69
 14350 18aa 0100     		.2byte	0x1
 14351 18ac 54       		.byte	0x54
 14352 18ad 2C000000 		.4byte	.LVL69
 14353 18b1 2E000000 		.4byte	.LVL70
 14354 18b5 0400     		.2byte	0x4
 14355 18b7 F3       		.byte	0xf3
 14356 18b8 01       		.uleb128 0x1
ARM GAS  C:\Users\EBANO_~1\AppData\Local\Temp\ccFRmLE5.s 			page 280


 14357 18b9 50       		.byte	0x50
 14358 18ba 9F       		.byte	0x9f
 14359 18bb 2E000000 		.4byte	.LVL70
 14360 18bf 32000000 		.4byte	.LVL71
 14361 18c3 0100     		.2byte	0x1
 14362 18c5 54       		.byte	0x54
 14363 18c6 32000000 		.4byte	.LVL71
 14364 18ca 8C000000 		.4byte	.LFE52
 14365 18ce 0400     		.2byte	0x4
 14366 18d0 F3       		.byte	0xf3
 14367 18d1 01       		.uleb128 0x1
 14368 18d2 50       		.byte	0x50
 14369 18d3 9F       		.byte	0x9f
 14370 18d4 00000000 		.4byte	0
 14371 18d8 00000000 		.4byte	0
 14372              	.LLST21:
 14373 18dc 0E000000 		.4byte	.LVL65
 14374 18e0 1E000000 		.4byte	.LVL66
 14375 18e4 0100     		.2byte	0x1
 14376 18e6 50       		.byte	0x50
 14377 18e7 2A000000 		.4byte	.LVL68
 14378 18eb 2C000000 		.4byte	.LVL69
 14379 18ef 0100     		.2byte	0x1
 14380 18f1 50       		.byte	0x50
 14381 18f2 2E000000 		.4byte	.LVL70
 14382 18f6 36000000 		.4byte	.LVL72
 14383 18fa 0100     		.2byte	0x1
 14384 18fc 50       		.byte	0x50
 14385 18fd 00000000 		.4byte	0
 14386 1901 00000000 		.4byte	0
 14387              	.LLST15:
 14388 1905 00000000 		.4byte	.LFB51
 14389 1909 02000000 		.4byte	.LCFI6
 14390 190d 0200     		.2byte	0x2
 14391 190f 7D       		.byte	0x7d
 14392 1910 00       		.sleb128 0
 14393 1911 02000000 		.4byte	.LCFI6
 14394 1915 94000000 		.4byte	.LFE51
 14395 1919 0200     		.2byte	0x2
 14396 191b 7D       		.byte	0x7d
 14397 191c 08       		.sleb128 8
 14398 191d 00000000 		.4byte	0
 14399 1921 00000000 		.4byte	0
 14400              	.LLST16:
 14401 1925 00000000 		.4byte	.LVL53
 14402 1929 08000000 		.4byte	.LVL54
 14403 192d 0100     		.2byte	0x1
 14404 192f 50       		.byte	0x50
 14405 1930 08000000 		.4byte	.LVL54
 14406 1934 0A000000 		.4byte	.LVL55
 14407 1938 0400     		.2byte	0x4
 14408 193a F3       		.byte	0xf3
 14409 193b 01       		.uleb128 0x1
 14410 193c 50       		.byte	0x50
 14411 193d 9F       		.byte	0x9f
 14412 193e 0A000000 		.4byte	.LVL55
 14413 1942 1E000000 		.4byte	.LVL57
ARM GAS  C:\Users\EBANO_~1\AppData\Local\Temp\ccFRmLE5.s 			page 281


 14414 1946 0100     		.2byte	0x1
 14415 1948 50       		.byte	0x50
 14416 1949 1E000000 		.4byte	.LVL57
 14417 194d 94000000 		.4byte	.LFE51
 14418 1951 0400     		.2byte	0x4
 14419 1953 F3       		.byte	0xf3
 14420 1954 01       		.uleb128 0x1
 14421 1955 50       		.byte	0x50
 14422 1956 9F       		.byte	0x9f
 14423 1957 00000000 		.4byte	0
 14424 195b 00000000 		.4byte	0
 14425              	.LLST17:
 14426 195f 12000000 		.4byte	.LVL56
 14427 1963 2C000000 		.4byte	.LVL58
 14428 1967 0200     		.2byte	0x2
 14429 1969 30       		.byte	0x30
 14430 196a 9F       		.byte	0x9f
 14431 196b 2C000000 		.4byte	.LVL58
 14432 196f 42000000 		.4byte	.LVL59
 14433 1973 0200     		.2byte	0x2
 14434 1975 31       		.byte	0x31
 14435 1976 9F       		.byte	0x9f
 14436 1977 42000000 		.4byte	.LVL59
 14437 197b 58000000 		.4byte	.LVL60
 14438 197f 0200     		.2byte	0x2
 14439 1981 32       		.byte	0x32
 14440 1982 9F       		.byte	0x9f
 14441 1983 58000000 		.4byte	.LVL60
 14442 1987 70000000 		.4byte	.LVL61
 14443 198b 0200     		.2byte	0x2
 14444 198d 33       		.byte	0x33
 14445 198e 9F       		.byte	0x9f
 14446 198f 70000000 		.4byte	.LVL61
 14447 1993 7E000000 		.4byte	.LVL62
 14448 1997 0200     		.2byte	0x2
 14449 1999 34       		.byte	0x34
 14450 199a 9F       		.byte	0x9f
 14451 199b 7E000000 		.4byte	.LVL62
 14452 199f 94000000 		.4byte	.LFE51
 14453 19a3 0200     		.2byte	0x2
 14454 19a5 31       		.byte	0x31
 14455 19a6 9F       		.byte	0x9f
 14456 19a7 00000000 		.4byte	0
 14457 19ab 00000000 		.4byte	0
 14458              	.LLST18:
 14459 19af 12000000 		.4byte	.LVL56
 14460 19b3 2C000000 		.4byte	.LVL58
 14461 19b7 0200     		.2byte	0x2
 14462 19b9 30       		.byte	0x30
 14463 19ba 9F       		.byte	0x9f
 14464 19bb 2C000000 		.4byte	.LVL58
 14465 19bf 42000000 		.4byte	.LVL59
 14466 19c3 0200     		.2byte	0x2
 14467 19c5 32       		.byte	0x32
 14468 19c6 9F       		.byte	0x9f
 14469 19c7 42000000 		.4byte	.LVL59
 14470 19cb 58000000 		.4byte	.LVL60
ARM GAS  C:\Users\EBANO_~1\AppData\Local\Temp\ccFRmLE5.s 			page 282


 14471 19cf 0200     		.2byte	0x2
 14472 19d1 34       		.byte	0x34
 14473 19d2 9F       		.byte	0x9f
 14474 19d3 58000000 		.4byte	.LVL60
 14475 19d7 70000000 		.4byte	.LVL61
 14476 19db 0200     		.2byte	0x2
 14477 19dd 36       		.byte	0x36
 14478 19de 9F       		.byte	0x9f
 14479 19df 70000000 		.4byte	.LVL61
 14480 19e3 7E000000 		.4byte	.LVL62
 14481 19e7 0200     		.2byte	0x2
 14482 19e9 38       		.byte	0x38
 14483 19ea 9F       		.byte	0x9f
 14484 19eb 7E000000 		.4byte	.LVL62
 14485 19ef 94000000 		.4byte	.LFE51
 14486 19f3 0200     		.2byte	0x2
 14487 19f5 32       		.byte	0x32
 14488 19f6 9F       		.byte	0x9f
 14489 19f7 00000000 		.4byte	0
 14490 19fb 00000000 		.4byte	0
 14491              	.LLST12:
 14492 19ff 00000000 		.4byte	.LFB50
 14493 1a03 06000000 		.4byte	.LCFI5
 14494 1a07 0200     		.2byte	0x2
 14495 1a09 7D       		.byte	0x7d
 14496 1a0a 00       		.sleb128 0
 14497 1a0b 06000000 		.4byte	.LCFI5
 14498 1a0f 6C000000 		.4byte	.LFE50
 14499 1a13 0200     		.2byte	0x2
 14500 1a15 7D       		.byte	0x7d
 14501 1a16 08       		.sleb128 8
 14502 1a17 00000000 		.4byte	0
 14503 1a1b 00000000 		.4byte	0
 14504              	.LLST13:
 14505 1a1f 00000000 		.4byte	.LVL38
 14506 1a23 14000000 		.4byte	.LVL40
 14507 1a27 0100     		.2byte	0x1
 14508 1a29 50       		.byte	0x50
 14509 1a2a 14000000 		.4byte	.LVL40
 14510 1a2e 26000000 		.4byte	.LVL42
 14511 1a32 0400     		.2byte	0x4
 14512 1a34 F3       		.byte	0xf3
 14513 1a35 01       		.uleb128 0x1
 14514 1a36 50       		.byte	0x50
 14515 1a37 9F       		.byte	0x9f
 14516 1a38 26000000 		.4byte	.LVL42
 14517 1a3c 28000000 		.4byte	.LVL43
 14518 1a40 0100     		.2byte	0x1
 14519 1a42 50       		.byte	0x50
 14520 1a43 28000000 		.4byte	.LVL43
 14521 1a47 3A000000 		.4byte	.LVL45
 14522 1a4b 0400     		.2byte	0x4
 14523 1a4d F3       		.byte	0xf3
 14524 1a4e 01       		.uleb128 0x1
 14525 1a4f 50       		.byte	0x50
 14526 1a50 9F       		.byte	0x9f
 14527 1a51 3A000000 		.4byte	.LVL45
ARM GAS  C:\Users\EBANO_~1\AppData\Local\Temp\ccFRmLE5.s 			page 283


 14528 1a55 3C000000 		.4byte	.LVL46
 14529 1a59 0100     		.2byte	0x1
 14530 1a5b 50       		.byte	0x50
 14531 1a5c 3C000000 		.4byte	.LVL46
 14532 1a60 4E000000 		.4byte	.LVL48
 14533 1a64 0400     		.2byte	0x4
 14534 1a66 F3       		.byte	0xf3
 14535 1a67 01       		.uleb128 0x1
 14536 1a68 50       		.byte	0x50
 14537 1a69 9F       		.byte	0x9f
 14538 1a6a 4E000000 		.4byte	.LVL48
 14539 1a6e 50000000 		.4byte	.LVL49
 14540 1a72 0100     		.2byte	0x1
 14541 1a74 50       		.byte	0x50
 14542 1a75 50000000 		.4byte	.LVL49
 14543 1a79 62000000 		.4byte	.LVL51
 14544 1a7d 0400     		.2byte	0x4
 14545 1a7f F3       		.byte	0xf3
 14546 1a80 01       		.uleb128 0x1
 14547 1a81 50       		.byte	0x50
 14548 1a82 9F       		.byte	0x9f
 14549 1a83 62000000 		.4byte	.LVL51
 14550 1a87 64000000 		.4byte	.LVL52
 14551 1a8b 0100     		.2byte	0x1
 14552 1a8d 50       		.byte	0x50
 14553 1a8e 64000000 		.4byte	.LVL52
 14554 1a92 6C000000 		.4byte	.LFE50
 14555 1a96 0400     		.2byte	0x4
 14556 1a98 F3       		.byte	0xf3
 14557 1a99 01       		.uleb128 0x1
 14558 1a9a 50       		.byte	0x50
 14559 1a9b 9F       		.byte	0x9f
 14560 1a9c 00000000 		.4byte	0
 14561 1aa0 00000000 		.4byte	0
 14562              	.LLST14:
 14563 1aa4 00000000 		.4byte	.LVL38
 14564 1aa8 02000000 		.4byte	.LVL39
 14565 1aac 0100     		.2byte	0x1
 14566 1aae 51       		.byte	0x51
 14567 1aaf 02000000 		.4byte	.LVL39
 14568 1ab3 6C000000 		.4byte	.LFE50
 14569 1ab7 0400     		.2byte	0x4
 14570 1ab9 F3       		.byte	0xf3
 14571 1aba 01       		.uleb128 0x1
 14572 1abb 51       		.byte	0x51
 14573 1abc 9F       		.byte	0x9f
 14574 1abd 00000000 		.4byte	0
 14575 1ac1 00000000 		.4byte	0
 14576              	.LLST11:
 14577 1ac5 00000000 		.4byte	.LVL36
 14578 1ac9 08000000 		.4byte	.LVL37
 14579 1acd 0100     		.2byte	0x1
 14580 1acf 50       		.byte	0x50
 14581 1ad0 08000000 		.4byte	.LVL37
 14582 1ad4 10000000 		.4byte	.LFE49
 14583 1ad8 0400     		.2byte	0x4
 14584 1ada F3       		.byte	0xf3
ARM GAS  C:\Users\EBANO_~1\AppData\Local\Temp\ccFRmLE5.s 			page 284


 14585 1adb 01       		.uleb128 0x1
 14586 1adc 50       		.byte	0x50
 14587 1add 9F       		.byte	0x9f
 14588 1ade 00000000 		.4byte	0
 14589 1ae2 00000000 		.4byte	0
 14590              	.LLST7:
 14591 1ae6 00000000 		.4byte	.LFB48
 14592 1aea 02000000 		.4byte	.LCFI3
 14593 1aee 0200     		.2byte	0x2
 14594 1af0 7D       		.byte	0x7d
 14595 1af1 00       		.sleb128 0
 14596 1af2 02000000 		.4byte	.LCFI3
 14597 1af6 04000000 		.4byte	.LCFI4
 14598 1afa 0200     		.2byte	0x2
 14599 1afc 7D       		.byte	0x7d
 14600 1afd 0C       		.sleb128 12
 14601 1afe 04000000 		.4byte	.LCFI4
 14602 1b02 6C010000 		.4byte	.LFE48
 14603 1b06 0200     		.2byte	0x2
 14604 1b08 7D       		.byte	0x7d
 14605 1b09 20       		.sleb128 32
 14606 1b0a 00000000 		.4byte	0
 14607 1b0e 00000000 		.4byte	0
 14608              	.LLST8:
 14609 1b12 00000000 		.4byte	.LVL13
 14610 1b16 2C000000 		.4byte	.LVL14
 14611 1b1a 0100     		.2byte	0x1
 14612 1b1c 50       		.byte	0x50
 14613 1b1d 2C000000 		.4byte	.LVL14
 14614 1b21 36000000 		.4byte	.LVL16
 14615 1b25 0400     		.2byte	0x4
 14616 1b27 F3       		.byte	0xf3
 14617 1b28 01       		.uleb128 0x1
 14618 1b29 50       		.byte	0x50
 14619 1b2a 9F       		.byte	0x9f
 14620 1b2b 36000000 		.4byte	.LVL16
 14621 1b2f 3C000000 		.4byte	.LVL17
 14622 1b33 0100     		.2byte	0x1
 14623 1b35 50       		.byte	0x50
 14624 1b36 3C000000 		.4byte	.LVL17
 14625 1b3a EE000000 		.4byte	.LVL32
 14626 1b3e 0400     		.2byte	0x4
 14627 1b40 F3       		.byte	0xf3
 14628 1b41 01       		.uleb128 0x1
 14629 1b42 50       		.byte	0x50
 14630 1b43 9F       		.byte	0x9f
 14631 1b44 EE000000 		.4byte	.LVL32
 14632 1b48 F4000000 		.4byte	.LVL33
 14633 1b4c 0100     		.2byte	0x1
 14634 1b4e 50       		.byte	0x50
 14635 1b4f F4000000 		.4byte	.LVL33
 14636 1b53 6C010000 		.4byte	.LFE48
 14637 1b57 0400     		.2byte	0x4
 14638 1b59 F3       		.byte	0xf3
 14639 1b5a 01       		.uleb128 0x1
 14640 1b5b 50       		.byte	0x50
 14641 1b5c 9F       		.byte	0x9f
ARM GAS  C:\Users\EBANO_~1\AppData\Local\Temp\ccFRmLE5.s 			page 285


 14642 1b5d 00000000 		.4byte	0
 14643 1b61 00000000 		.4byte	0
 14644              	.LLST9:
 14645 1b65 48000000 		.4byte	.LVL19
 14646 1b69 52000000 		.4byte	.LVL20
 14647 1b6d 0200     		.2byte	0x2
 14648 1b6f 30       		.byte	0x30
 14649 1b70 9F       		.byte	0x9f
 14650 1b71 00000000 		.4byte	0
 14651 1b75 00000000 		.4byte	0
 14652              	.LLST10:
 14653 1b79 64000000 		.4byte	.LVL21
 14654 1b7d 78000000 		.4byte	.LVL22
 14655 1b81 0300     		.2byte	0x3
 14656 1b83 08       		.byte	0x8
 14657 1b84 40       		.byte	0x40
 14658 1b85 9F       		.byte	0x9f
 14659 1b86 78000000 		.4byte	.LVL22
 14660 1b8a 82000000 		.4byte	.LVL23
 14661 1b8e 0300     		.2byte	0x3
 14662 1b90 08       		.byte	0x8
 14663 1b91 41       		.byte	0x41
 14664 1b92 9F       		.byte	0x9f
 14665 1b93 82000000 		.4byte	.LVL23
 14666 1b97 8C000000 		.4byte	.LVL24
 14667 1b9b 0300     		.2byte	0x3
 14668 1b9d 08       		.byte	0x8
 14669 1b9e 42       		.byte	0x42
 14670 1b9f 9F       		.byte	0x9f
 14671 1ba0 8C000000 		.4byte	.LVL24
 14672 1ba4 96000000 		.4byte	.LVL25
 14673 1ba8 0300     		.2byte	0x3
 14674 1baa 08       		.byte	0x8
 14675 1bab 43       		.byte	0x43
 14676 1bac 9F       		.byte	0x9f
 14677 1bad 96000000 		.4byte	.LVL25
 14678 1bb1 A0000000 		.4byte	.LVL26
 14679 1bb5 0300     		.2byte	0x3
 14680 1bb7 08       		.byte	0x8
 14681 1bb8 44       		.byte	0x44
 14682 1bb9 9F       		.byte	0x9f
 14683 1bba A0000000 		.4byte	.LVL26
 14684 1bbe AA000000 		.4byte	.LVL27
 14685 1bc2 0300     		.2byte	0x3
 14686 1bc4 08       		.byte	0x8
 14687 1bc5 45       		.byte	0x45
 14688 1bc6 9F       		.byte	0x9f
 14689 1bc7 AA000000 		.4byte	.LVL27
 14690 1bcb B4000000 		.4byte	.LVL28
 14691 1bcf 0300     		.2byte	0x3
 14692 1bd1 08       		.byte	0x8
 14693 1bd2 46       		.byte	0x46
 14694 1bd3 9F       		.byte	0x9f
 14695 1bd4 B4000000 		.4byte	.LVL28
 14696 1bd8 BC000000 		.4byte	.LVL29
 14697 1bdc 0300     		.2byte	0x3
 14698 1bde 08       		.byte	0x8
ARM GAS  C:\Users\EBANO_~1\AppData\Local\Temp\ccFRmLE5.s 			page 286


 14699 1bdf 47       		.byte	0x47
 14700 1be0 9F       		.byte	0x9f
 14701 1be1 BC000000 		.4byte	.LVL29
 14702 1be5 EE000000 		.4byte	.LVL32
 14703 1be9 0300     		.2byte	0x3
 14704 1beb 08       		.byte	0x8
 14705 1bec 48       		.byte	0x48
 14706 1bed 9F       		.byte	0x9f
 14707 1bee 00000000 		.4byte	0
 14708 1bf2 00000000 		.4byte	0
 14709              	.LLST5:
 14710 1bf6 00000000 		.4byte	.LFB47
 14711 1bfa 04000000 		.4byte	.LCFI2
 14712 1bfe 0200     		.2byte	0x2
 14713 1c00 7D       		.byte	0x7d
 14714 1c01 00       		.sleb128 0
 14715 1c02 04000000 		.4byte	.LCFI2
 14716 1c06 24000000 		.4byte	.LFE47
 14717 1c0a 0200     		.2byte	0x2
 14718 1c0c 7D       		.byte	0x7d
 14719 1c0d 08       		.sleb128 8
 14720 1c0e 00000000 		.4byte	0
 14721 1c12 00000000 		.4byte	0
 14722              	.LLST6:
 14723 1c16 00000000 		.4byte	.LVL10
 14724 1c1a 1A000000 		.4byte	.LVL11
 14725 1c1e 0100     		.2byte	0x1
 14726 1c20 50       		.byte	0x50
 14727 1c21 1A000000 		.4byte	.LVL11
 14728 1c25 24000000 		.4byte	.LFE47
 14729 1c29 0400     		.2byte	0x4
 14730 1c2b F3       		.byte	0xf3
 14731 1c2c 01       		.uleb128 0x1
 14732 1c2d 50       		.byte	0x50
 14733 1c2e 9F       		.byte	0x9f
 14734 1c2f 00000000 		.4byte	0
 14735 1c33 00000000 		.4byte	0
 14736              	.LLST0:
 14737 1c37 00000000 		.4byte	.LFB46
 14738 1c3b 04000000 		.4byte	.LCFI0
 14739 1c3f 0200     		.2byte	0x2
 14740 1c41 7D       		.byte	0x7d
 14741 1c42 00       		.sleb128 0
 14742 1c43 04000000 		.4byte	.LCFI0
 14743 1c47 06000000 		.4byte	.LCFI1
 14744 1c4b 0200     		.2byte	0x2
 14745 1c4d 7D       		.byte	0x7d
 14746 1c4e 04       		.sleb128 4
 14747 1c4f 06000000 		.4byte	.LCFI1
 14748 1c53 08010000 		.4byte	.LFE46
 14749 1c57 0200     		.2byte	0x2
 14750 1c59 7D       		.byte	0x7d
 14751 1c5a 10       		.sleb128 16
 14752 1c5b 00000000 		.4byte	0
 14753 1c5f 00000000 		.4byte	0
 14754              	.LLST1:
 14755 1c63 00000000 		.4byte	.LVL0
ARM GAS  C:\Users\EBANO_~1\AppData\Local\Temp\ccFRmLE5.s 			page 287


 14756 1c67 1A000000 		.4byte	.LVL1
 14757 1c6b 0100     		.2byte	0x1
 14758 1c6d 50       		.byte	0x50
 14759 1c6e 1A000000 		.4byte	.LVL1
 14760 1c72 20000000 		.4byte	.LVL2
 14761 1c76 0400     		.2byte	0x4
 14762 1c78 F3       		.byte	0xf3
 14763 1c79 01       		.uleb128 0x1
 14764 1c7a 50       		.byte	0x50
 14765 1c7b 9F       		.byte	0x9f
 14766 1c7c 20000000 		.4byte	.LVL2
 14767 1c80 90000000 		.4byte	.LVL7
 14768 1c84 0100     		.2byte	0x1
 14769 1c86 50       		.byte	0x50
 14770 1c87 90000000 		.4byte	.LVL7
 14771 1c8b A2000000 		.4byte	.LVL9
 14772 1c8f 0400     		.2byte	0x4
 14773 1c91 F3       		.byte	0xf3
 14774 1c92 01       		.uleb128 0x1
 14775 1c93 50       		.byte	0x50
 14776 1c94 9F       		.byte	0x9f
 14777 1c95 A2000000 		.4byte	.LVL9
 14778 1c99 08010000 		.4byte	.LFE46
 14779 1c9d 0100     		.2byte	0x1
 14780 1c9f 50       		.byte	0x50
 14781 1ca0 00000000 		.4byte	0
 14782 1ca4 00000000 		.4byte	0
 14783              	.LLST2:
 14784 1ca8 30000000 		.4byte	.LVL3
 14785 1cac 3A000000 		.4byte	.LVL6
 14786 1cb0 0200     		.2byte	0x2
 14787 1cb2 30       		.byte	0x30
 14788 1cb3 9F       		.byte	0x9f
 14789 1cb4 00000000 		.4byte	0
 14790 1cb8 00000000 		.4byte	0
 14791              	.LLST3:
 14792 1cbc 30000000 		.4byte	.LVL3
 14793 1cc0 38000000 		.4byte	.LVL5
 14794 1cc4 0100     		.2byte	0x1
 14795 1cc6 53       		.byte	0x53
 14796 1cc7 38000000 		.4byte	.LVL5
 14797 1ccb 3A000000 		.4byte	.LVL6
 14798 1ccf 0300     		.2byte	0x3
 14799 1cd1 73       		.byte	0x73
 14800 1cd2 01       		.sleb128 1
 14801 1cd3 9F       		.byte	0x9f
 14802 1cd4 00000000 		.4byte	0
 14803 1cd8 00000000 		.4byte	0
 14804              	.LLST4:
 14805 1cdc 30000000 		.4byte	.LVL3
 14806 1ce0 36000000 		.4byte	.LVL4
 14807 1ce4 0200     		.2byte	0x2
 14808 1ce6 30       		.byte	0x30
 14809 1ce7 9F       		.byte	0x9f
 14810 1ce8 36000000 		.4byte	.LVL4
 14811 1cec 38000000 		.4byte	.LVL5
 14812 1cf0 0300     		.2byte	0x3
ARM GAS  C:\Users\EBANO_~1\AppData\Local\Temp\ccFRmLE5.s 			page 288


 14813 1cf2 73       		.byte	0x73
 14814 1cf3 7F       		.sleb128 -1
 14815 1cf4 9F       		.byte	0x9f
 14816 1cf5 38000000 		.4byte	.LVL5
 14817 1cf9 3A000000 		.4byte	.LVL6
 14818 1cfd 0300     		.2byte	0x3
 14819 1cff 73       		.byte	0x73
 14820 1d00 00       		.sleb128 0
 14821 1d01 9F       		.byte	0x9f
 14822 1d02 00000000 		.4byte	0
 14823 1d06 00000000 		.4byte	0
 14824              	.LLST61:
 14825 1d0a 00000000 		.4byte	.LVL212
 14826 1d0e 02000000 		.4byte	.LVL213
 14827 1d12 0100     		.2byte	0x1
 14828 1d14 50       		.byte	0x50
 14829 1d15 02000000 		.4byte	.LVL213
 14830 1d19 04000000 		.4byte	.LFE58
 14831 1d1d 0400     		.2byte	0x4
 14832 1d1f F3       		.byte	0xf3
 14833 1d20 01       		.uleb128 0x1
 14834 1d21 50       		.byte	0x50
 14835 1d22 9F       		.byte	0x9f
 14836 1d23 00000000 		.4byte	0
 14837 1d27 00000000 		.4byte	0
 14838              		.section	.debug_aranges,"",%progbits
 14839 0000 C4000000 		.4byte	0xc4
 14840 0004 0200     		.2byte	0x2
 14841 0006 00000000 		.4byte	.Ldebug_info0
 14842 000a 04       		.byte	0x4
 14843 000b 00       		.byte	0
 14844 000c 0000     		.2byte	0
 14845 000e 0000     		.2byte	0
 14846 0010 00000000 		.4byte	.LFB46
 14847 0014 08010000 		.4byte	.LFE46-.LFB46
 14848 0018 00000000 		.4byte	.LFB47
 14849 001c 24000000 		.4byte	.LFE47-.LFB47
 14850 0020 00000000 		.4byte	.LFB48
 14851 0024 6C010000 		.4byte	.LFE48-.LFB48
 14852 0028 00000000 		.4byte	.LFB49
 14853 002c 10000000 		.4byte	.LFE49-.LFB49
 14854 0030 00000000 		.4byte	.LFB50
 14855 0034 6C000000 		.4byte	.LFE50-.LFB50
 14856 0038 00000000 		.4byte	.LFB51
 14857 003c 94000000 		.4byte	.LFE51-.LFB51
 14858 0040 00000000 		.4byte	.LFB52
 14859 0044 8C000000 		.4byte	.LFE52-.LFB52
 14860 0048 00000000 		.4byte	.LFB53
 14861 004c 80000000 		.4byte	.LFE53-.LFB53
 14862 0050 00000000 		.4byte	.LFB54
 14863 0054 C4000000 		.4byte	.LFE54-.LFB54
 14864 0058 00000000 		.4byte	.LFB55
 14865 005c 2C010000 		.4byte	.LFE55-.LFB55
 14866 0060 00000000 		.4byte	.LFB56
 14867 0064 C8020000 		.4byte	.LFE56-.LFB56
 14868 0068 00000000 		.4byte	.LFB57
 14869 006c 90000000 		.4byte	.LFE57-.LFB57
ARM GAS  C:\Users\EBANO_~1\AppData\Local\Temp\ccFRmLE5.s 			page 289


 14870 0070 00000000 		.4byte	.LFB58
 14871 0074 04000000 		.4byte	.LFE58-.LFB58
 14872 0078 00000000 		.4byte	.LFB59
 14873 007c 06000000 		.4byte	.LFE59-.LFB59
 14874 0080 00000000 		.4byte	.LFB61
 14875 0084 34000000 		.4byte	.LFE61-.LFB61
 14876 0088 00000000 		.4byte	.LFB62
 14877 008c 3C000000 		.4byte	.LFE62-.LFB62
 14878 0090 00000000 		.4byte	.LFB63
 14879 0094 14030000 		.4byte	.LFE63-.LFB63
 14880 0098 00000000 		.4byte	.LFB64
 14881 009c 04000000 		.4byte	.LFE64-.LFB64
 14882 00a0 00000000 		.4byte	.LFB65
 14883 00a4 04000000 		.4byte	.LFE65-.LFB65
 14884 00a8 00000000 		.4byte	.LFB66
 14885 00ac 90000000 		.4byte	.LFE66-.LFB66
 14886 00b0 00000000 		.4byte	.LFB67
 14887 00b4 1C000000 		.4byte	.LFE67-.LFB67
 14888 00b8 00000000 		.4byte	.LFB68
 14889 00bc 38000000 		.4byte	.LFE68-.LFB68
 14890 00c0 00000000 		.4byte	0
 14891 00c4 00000000 		.4byte	0
 14892              		.section	.debug_ranges,"",%progbits
 14893              	.Ldebug_ranges0:
 14894 0000 4A000000 		.4byte	.LBB23
 14895 0004 4E000000 		.4byte	.LBE23
 14896 0008 54000000 		.4byte	.LBB24
 14897 000c 64000000 		.4byte	.LBE24
 14898 0010 00000000 		.4byte	0
 14899 0014 00000000 		.4byte	0
 14900 0018 4A000000 		.4byte	.LBB28
 14901 001c 4C000000 		.4byte	.LBE28
 14902 0020 4E000000 		.4byte	.LBB29
 14903 0024 50000000 		.4byte	.LBE29
 14904 0028 52000000 		.4byte	.LBB30
 14905 002c 8C000000 		.4byte	.LBE30
 14906 0030 00000000 		.4byte	0
 14907 0034 00000000 		.4byte	0
 14908 0038 18000000 		.4byte	.LBB31
 14909 003c 1C000000 		.4byte	.LBE31
 14910 0040 1E000000 		.4byte	.LBB35
 14911 0044 32000000 		.4byte	.LBE35
 14912 0048 6C000000 		.4byte	.LBB36
 14913 004c 80000000 		.4byte	.LBE36
 14914 0050 00000000 		.4byte	0
 14915 0054 00000000 		.4byte	0
 14916 0058 26000000 		.4byte	.LBB37
 14917 005c 34000000 		.4byte	.LBE37
 14918 0060 BA000000 		.4byte	.LBB46
 14919 0064 BC000000 		.4byte	.LBE46
 14920 0068 C4000000 		.4byte	.LBB47
 14921 006c C6000000 		.4byte	.LBE47
 14922 0070 CA000000 		.4byte	.LBB48
 14923 0074 E0000000 		.4byte	.LBE48
 14924 0078 FA000000 		.4byte	.LBB50
 14925 007c 2C010000 		.4byte	.LBE50
 14926 0080 00000000 		.4byte	0
ARM GAS  C:\Users\EBANO_~1\AppData\Local\Temp\ccFRmLE5.s 			page 290


 14927 0084 00000000 		.4byte	0
 14928 0088 34000000 		.4byte	.LBB43
 14929 008c 36000000 		.4byte	.LBE43
 14930 0090 E4000000 		.4byte	.LBB49
 14931 0094 FA000000 		.4byte	.LBE49
 14932 0098 00000000 		.4byte	0
 14933 009c 00000000 		.4byte	0
 14934 00a0 2C000000 		.4byte	.LBB57
 14935 00a4 2E000000 		.4byte	.LBE57
 14936 00a8 30000000 		.4byte	.LBB62
 14937 00ac 34000000 		.4byte	.LBE62
 14938 00b0 08010000 		.4byte	.LBB63
 14939 00b4 A0010000 		.4byte	.LBE63
 14940 00b8 0C020000 		.4byte	.LBB64
 14941 00bc C8020000 		.4byte	.LBE64
 14942 00c0 00000000 		.4byte	0
 14943 00c4 00000000 		.4byte	0
 14944 00c8 02000000 		.4byte	.LBB65
 14945 00cc 04000000 		.4byte	.LBE65
 14946 00d0 06000000 		.4byte	.LBB70
 14947 00d4 08000000 		.4byte	.LBE70
 14948 00d8 0C000000 		.4byte	.LBB71
 14949 00dc 22000000 		.4byte	.LBE71
 14950 00e0 6E000000 		.4byte	.LBB72
 14951 00e4 7A000000 		.4byte	.LBE72
 14952 00e8 00000000 		.4byte	0
 14953 00ec 00000000 		.4byte	0
 14954 00f0 7C000000 		.4byte	.LBB83
 14955 00f4 82000000 		.4byte	.LBE83
 14956 00f8 8C000000 		.4byte	.LBB94
 14957 00fc 94000000 		.4byte	.LBE94
 14958 0100 9A000000 		.4byte	.LBB95
 14959 0104 18010000 		.4byte	.LBE95
 14960 0108 72010000 		.4byte	.LBB97
 14961 010c 7C010000 		.4byte	.LBE97
 14962 0110 00000000 		.4byte	0
 14963 0114 00000000 		.4byte	0
 14964 0118 7C000000 		.4byte	.LBB85
 14965 011c 82000000 		.4byte	.LBE85
 14966 0120 9A000000 		.4byte	.LBB89
 14967 0124 18010000 		.4byte	.LBE89
 14968 0128 72010000 		.4byte	.LBB90
 14969 012c 7C010000 		.4byte	.LBE90
 14970 0130 00000000 		.4byte	0
 14971 0134 00000000 		.4byte	0
 14972 0138 7C000000 		.4byte	.LBB86
 14973 013c 82000000 		.4byte	.LBE86
 14974 0140 9A000000 		.4byte	.LBB87
 14975 0144 08010000 		.4byte	.LBE87
 14976 0148 72010000 		.4byte	.LBB88
 14977 014c 7C010000 		.4byte	.LBE88
 14978 0150 00000000 		.4byte	0
 14979 0154 00000000 		.4byte	0
 14980 0158 2A010000 		.4byte	.LBB96
 14981 015c 54010000 		.4byte	.LBE96
 14982 0160 E4020000 		.4byte	.LBB120
 14983 0164 E8020000 		.4byte	.LBE120
ARM GAS  C:\Users\EBANO_~1\AppData\Local\Temp\ccFRmLE5.s 			page 291


 14984 0168 00000000 		.4byte	0
 14985 016c 00000000 		.4byte	0
 14986 0170 D6010000 		.4byte	.LBB98
 14987 0174 B6020000 		.4byte	.LBE98
 14988 0178 BC020000 		.4byte	.LBB118
 14989 017c D6020000 		.4byte	.LBE118
 14990 0180 DA020000 		.4byte	.LBB119
 14991 0184 E4020000 		.4byte	.LBE119
 14992 0188 E8020000 		.4byte	.LBB121
 14993 018c 14030000 		.4byte	.LBE121
 14994 0190 00000000 		.4byte	0
 14995 0194 00000000 		.4byte	0
 14996 0198 EC010000 		.4byte	.LBB100
 14997 019c FA010000 		.4byte	.LBE100
 14998 01a0 FC010000 		.4byte	.LBB111
 14999 01a4 00020000 		.4byte	.LBE111
 15000 01a8 18020000 		.4byte	.LBB112
 15001 01ac 92020000 		.4byte	.LBE112
 15002 01b0 BC020000 		.4byte	.LBB113
 15003 01b4 C0020000 		.4byte	.LBE113
 15004 01b8 DA020000 		.4byte	.LBB114
 15005 01bc E4020000 		.4byte	.LBE114
 15006 01c0 00000000 		.4byte	0
 15007 01c4 00000000 		.4byte	0
 15008 01c8 EC010000 		.4byte	.LBB102
 15009 01cc FA010000 		.4byte	.LBE102
 15010 01d0 FC010000 		.4byte	.LBB103
 15011 01d4 00020000 		.4byte	.LBE103
 15012 01d8 18020000 		.4byte	.LBB104
 15013 01dc 92020000 		.4byte	.LBE104
 15014 01e0 BC020000 		.4byte	.LBB105
 15015 01e4 C0020000 		.4byte	.LBE105
 15016 01e8 DA020000 		.4byte	.LBB106
 15017 01ec E0020000 		.4byte	.LBE106
 15018 01f0 00000000 		.4byte	0
 15019 01f4 00000000 		.4byte	0
 15020 01f8 00000000 		.4byte	.LBB122
 15021 01fc 02000000 		.4byte	.LBE122
 15022 0200 06000000 		.4byte	.LBB129
 15023 0204 08000000 		.4byte	.LBE129
 15024 0208 10000000 		.4byte	.LBB130
 15025 020c 14000000 		.4byte	.LBE130
 15026 0210 22000000 		.4byte	.LBB131
 15027 0214 24000000 		.4byte	.LBE131
 15028 0218 2C000000 		.4byte	.LBB132
 15029 021c 46000000 		.4byte	.LBE132
 15030 0220 68000000 		.4byte	.LBB133
 15031 0224 90000000 		.4byte	.LBE133
 15032 0228 00000000 		.4byte	0
 15033 022c 00000000 		.4byte	0
 15034 0230 00000000 		.4byte	.LFB46
 15035 0234 08010000 		.4byte	.LFE46
 15036 0238 00000000 		.4byte	.LFB47
 15037 023c 24000000 		.4byte	.LFE47
 15038 0240 00000000 		.4byte	.LFB48
 15039 0244 6C010000 		.4byte	.LFE48
 15040 0248 00000000 		.4byte	.LFB49
ARM GAS  C:\Users\EBANO_~1\AppData\Local\Temp\ccFRmLE5.s 			page 292


 15041 024c 10000000 		.4byte	.LFE49
 15042 0250 00000000 		.4byte	.LFB50
 15043 0254 6C000000 		.4byte	.LFE50
 15044 0258 00000000 		.4byte	.LFB51
 15045 025c 94000000 		.4byte	.LFE51
 15046 0260 00000000 		.4byte	.LFB52
 15047 0264 8C000000 		.4byte	.LFE52
 15048 0268 00000000 		.4byte	.LFB53
 15049 026c 80000000 		.4byte	.LFE53
 15050 0270 00000000 		.4byte	.LFB54
 15051 0274 C4000000 		.4byte	.LFE54
 15052 0278 00000000 		.4byte	.LFB55
 15053 027c 2C010000 		.4byte	.LFE55
 15054 0280 00000000 		.4byte	.LFB56
 15055 0284 C8020000 		.4byte	.LFE56
 15056 0288 00000000 		.4byte	.LFB57
 15057 028c 90000000 		.4byte	.LFE57
 15058 0290 00000000 		.4byte	.LFB58
 15059 0294 04000000 		.4byte	.LFE58
 15060 0298 00000000 		.4byte	.LFB59
 15061 029c 06000000 		.4byte	.LFE59
 15062 02a0 00000000 		.4byte	.LFB61
 15063 02a4 34000000 		.4byte	.LFE61
 15064 02a8 00000000 		.4byte	.LFB62
 15065 02ac 3C000000 		.4byte	.LFE62
 15066 02b0 00000000 		.4byte	.LFB63
 15067 02b4 14030000 		.4byte	.LFE63
 15068 02b8 00000000 		.4byte	.LFB64
 15069 02bc 04000000 		.4byte	.LFE64
 15070 02c0 00000000 		.4byte	.LFB65
 15071 02c4 04000000 		.4byte	.LFE65
 15072 02c8 00000000 		.4byte	.LFB66
 15073 02cc 90000000 		.4byte	.LFE66
 15074 02d0 00000000 		.4byte	.LFB67
 15075 02d4 1C000000 		.4byte	.LFE67
 15076 02d8 00000000 		.4byte	.LFB68
 15077 02dc 38000000 		.4byte	.LFE68
 15078 02e0 00000000 		.4byte	0
 15079 02e4 00000000 		.4byte	0
 15080              		.section	.debug_line,"",%progbits
 15081              	.Ldebug_line0:
 15082 0000 4C090000 		.section	.debug_str,"MS",%progbits,1
 15082      0200B303 
 15082      00000201 
 15082      FB0E0D00 
 15082      01010101 
 15083              	.LASF216:
 15084 0000 52585F53 		.ascii	"RX_SLOT_WIN_CLASS_C\000"
 15084      4C4F545F 
 15084      57494E5F 
 15084      434C4153 
 15084      535F4300 
 15085              	.LASF437:
 15086 0014 73526567 		.ascii	"sRegionUS915NvmCtx\000"
 15086      696F6E55 
 15086      53393135 
 15086      4E766D43 
ARM GAS  C:\Users\EBANO_~1\AppData\Local\Temp\ccFRmLE5.s 			page 293


 15086      747800
 15087              	.LASF415:
 15088 0027 73526567 		.ascii	"sRegionCommonLinkAdrReqVerifyParams\000"
 15088      696F6E43 
 15088      6F6D6D6F 
 15088      6E4C696E 
 15088      6B416472 
 15089              	.LASF516:
 15090 004b 52656769 		.ascii	"RegionUS915ApplyCFList\000"
 15090      6F6E5553 
 15090      39313541 
 15090      70706C79 
 15090      43464C69 
 15091              	.LASF266:
 15092 0062 5048595F 		.ascii	"PHY_JOIN_ACCEPT_DELAY1\000"
 15092      4A4F494E 
 15092      5F414343 
 15092      4550545F 
 15092      44454C41 
 15093              	.LASF267:
 15094 0079 5048595F 		.ascii	"PHY_JOIN_ACCEPT_DELAY2\000"
 15094      4A4F494E 
 15094      5F414343 
 15094      4550545F 
 15094      44454C41 
 15095              	.LASF313:
 15096 0090 52667531 		.ascii	"Rfu1Size\000"
 15096      53697A65 
 15096      00
 15097              	.LASF141:
 15098 0099 52657669 		.ascii	"Revision\000"
 15098      73696F6E 
 15098      00
 15099              	.LASF454:
 15100 00a2 52656769 		.ascii	"RegionUS915ApplyDrOffset\000"
 15100      6F6E5553 
 15100      39313541 
 15100      70706C79 
 15100      44724F66 
 15101              	.LASF427:
 15102 00bb 44617461 		.ascii	"Datarates\000"
 15102      72617465 
 15102      7300
 15103              	.LASF1:
 15104 00c5 5F5F7569 		.ascii	"__uint8_t\000"
 15104      6E74385F 
 15104      7400
 15105              	.LASF311:
 15106 00cf 73426561 		.ascii	"sBeaconFormat\000"
 15106      636F6E46 
 15106      6F726D61 
 15106      7400
 15107              	.LASF361:
 15108 00dd 5278436F 		.ascii	"RxConfigParams_t\000"
 15108      6E666967 
 15108      50617261 
 15108      6D735F74 
ARM GAS  C:\Users\EBANO_~1\AppData\Local\Temp\ccFRmLE5.s 			page 294


 15108      00
 15109              	.LASF147:
 15110 00ee 5F426F6F 		.ascii	"_Bool\000"
 15110      6C00
 15111              	.LASF79:
 15112 00f4 5F6D6273 		.ascii	"_mbstate\000"
 15112      74617465 
 15112      00
 15113              	.LASF514:
 15114 00fd 6368616E 		.ascii	"chanMaskSet\000"
 15114      4D61736B 
 15114      53657400 
 15115              	.LASF58:
 15116 0109 5F617465 		.ascii	"_atexit\000"
 15116      78697400 
 15117              	.LASF296:
 15118 0111 5048595F 		.ascii	"PHY_BEACON_FORMAT\000"
 15118      42454143 
 15118      4F4E5F46 
 15118      4F524D41 
 15118      5400
 15119              	.LASF48:
 15120 0123 5F5F746D 		.ascii	"__tm_mon\000"
 15120      5F6D6F6E 
 15120      00
 15121              	.LASF56:
 15122 012c 5F666E74 		.ascii	"_fntypes\000"
 15122      79706573 
 15122      00
 15123              	.LASF86:
 15124 0135 5F696E63 		.ascii	"_inc\000"
 15124      00
 15125              	.LASF59:
 15126 013a 5F696E64 		.ascii	"_ind\000"
 15126      00
 15127              	.LASF195:
 15128 013f 57726974 		.ascii	"WriteBuffer\000"
 15128      65427566 
 15128      66657200 
 15129              	.LASF170:
 15130 014b 52784572 		.ascii	"RxError\000"
 15130      726F7200 
 15131              	.LASF18:
 15132 0153 75696E74 		.ascii	"uint16_t\000"
 15132      31365F74 
 15132      00
 15133              	.LASF196:
 15134 015c 52656164 		.ascii	"ReadBuffer\000"
 15134      42756666 
 15134      657200
 15135              	.LASF543:
 15136 0167 6368616E 		.ascii	"channelMaskRemaining\000"
 15136      6E656C4D 
 15136      61736B52 
 15136      656D6169 
 15136      6E696E67 
 15137              	.LASF430:
ARM GAS  C:\Users\EBANO_~1\AppData\Local\Temp\ccFRmLE5.s 			page 295


 15138 017c 52656769 		.ascii	"RegionCommonRxBeaconSetupParams_t\000"
 15138      6F6E436F 
 15138      6D6D6F6E 
 15138      52784265 
 15138      61636F6E 
 15139              	.LASF65:
 15140 019e 5F666C61 		.ascii	"_flags\000"
 15140      677300
 15141              	.LASF450:
 15142 01a5 52656769 		.ascii	"RegionUS915SetContinuousWave\000"
 15142      6F6E5553 
 15142      39313553 
 15142      6574436F 
 15142      6E74696E 
 15143              	.LASF310:
 15144 01c2 4368616E 		.ascii	"ChannelsMask_t\000"
 15144      6E656C73 
 15144      4D61736B 
 15144      5F7400
 15145              	.LASF96:
 15146 01d1 5F637674 		.ascii	"_cvtlen\000"
 15146      6C656E00 
 15147              	.LASF513:
 15148 01d9 52656769 		.ascii	"RegionUS915ChanMaskSet\000"
 15148      6F6E5553 
 15148      39313543 
 15148      68616E4D 
 15148      61736B53 
 15149              	.LASF230:
 15150 01f0 4C4F5241 		.ascii	"LORAMAC_STATUS_NO_NETWORK_JOINED\000"
 15150      4D41435F 
 15150      53544154 
 15150      55535F4E 
 15150      4F5F4E45 
 15151              	.LASF100:
 15152 0211 5F736967 		.ascii	"_sig_func\000"
 15152      5F66756E 
 15152      6300
 15153              	.LASF370:
 15154 021b 41647245 		.ascii	"AdrEnabled\000"
 15154      6E61626C 
 15154      656400
 15155              	.LASF283:
 15156 0226 5048595F 		.ascii	"PHY_BEACON_RESERVED\000"
 15156      42454143 
 15156      4F4E5F52 
 15156      45534552 
 15156      56454400 
 15157              	.LASF393:
 15158 023a 54785469 		.ascii	"TxTimeOnAir\000"
 15158      6D654F6E 
 15158      41697200 
 15159              	.LASF78:
 15160 0246 5F6C6F63 		.ascii	"_lock\000"
 15160      6B00
 15161              	.LASF74:
 15162 024c 5F6E6275 		.ascii	"_nbuf\000"
ARM GAS  C:\Users\EBANO_~1\AppData\Local\Temp\ccFRmLE5.s 			page 296


 15162      6600
 15163              	.LASF133:
 15164 0252 5F756E75 		.ascii	"_unused\000"
 15164      73656400 
 15165              	.LASF555:
 15166 025a 72616E64 		.ascii	"randr\000"
 15166      7200
 15167              	.LASF397:
 15168 0260 4C617374 		.ascii	"LastAggrTx\000"
 15168      41676772 
 15168      547800
 15169              	.LASF398:
 15170 026b 4E657874 		.ascii	"NextChanParams_t\000"
 15170      4368616E 
 15170      50617261 
 15170      6D735F74 
 15170      00
 15171              	.LASF169:
 15172 027c 52785469 		.ascii	"RxTimeout\000"
 15172      6D656F75 
 15172      7400
 15173              	.LASF301:
 15174 0286 50687941 		.ascii	"PhyAttribute_t\000"
 15174      74747269 
 15174      62757465 
 15174      5F7400
 15175              	.LASF167:
 15176 0295 54785469 		.ascii	"TxTimeout\000"
 15176      6D656F75 
 15176      7400
 15177              	.LASF149:
 15178 029f 44437963 		.ascii	"DCycle\000"
 15178      6C6500
 15179              	.LASF355:
 15180 02a6 44724F66 		.ascii	"DrOffset\000"
 15180      66736574 
 15180      00
 15181              	.LASF284:
 15182 02af 5048595F 		.ascii	"PHY_BEACON_GUARD\000"
 15182      42454143 
 15182      4F4E5F47 
 15182      55415244 
 15182      00
 15183              	.LASF343:
 15184 02c0 44617461 		.ascii	"DatarateParams\000"
 15184      72617465 
 15184      50617261 
 15184      6D7300
 15185              	.LASF142:
 15186 02cf 4D696E6F 		.ascii	"Minor\000"
 15186      7200
 15187              	.LASF420:
 15188 02d5 4D696E54 		.ascii	"MinTxPower\000"
 15188      78506F77 
 15188      657200
 15189              	.LASF478:
 15190 02e0 6E657743 		.ascii	"newChannelReq\000"
ARM GAS  C:\Users\EBANO_~1\AppData\Local\Temp\ccFRmLE5.s 			page 297


 15190      68616E6E 
 15190      656C5265 
 15190      7100
 15191              	.LASF154:
 15192 02ee 42616E64 		.ascii	"Band_t\000"
 15192      5F7400
 15193              	.LASF396:
 15194 02f5 41676772 		.ascii	"AggrTimeOff\000"
 15194      54696D65 
 15194      4F666600 
 15195              	.LASF19:
 15196 0301 696E7433 		.ascii	"int32_t\000"
 15196      325F7400 
 15197              	.LASF455:
 15198 0309 52656769 		.ascii	"RegionUS915ChannelsRemove\000"
 15198      6F6E5553 
 15198      39313543 
 15198      68616E6E 
 15198      656C7352 
 15199              	.LASF111:
 15200 0323 5F616464 		.ascii	"_add\000"
 15200      00
 15201              	.LASF480:
 15202 0328 72785061 		.ascii	"rxParamSetupReq\000"
 15202      72616D53 
 15202      65747570 
 15202      52657100 
 15203              	.LASF161:
 15204 0338 52465F49 		.ascii	"RF_IDLE\000"
 15204      444C4500 
 15205              	.LASF150:
 15206 0340 54784D61 		.ascii	"TxMaxPower\000"
 15206      78506F77 
 15206      657200
 15207              	.LASF240:
 15208 034b 4C4F5241 		.ascii	"LORAMAC_STATUS_CRYPTO_ERROR\000"
 15208      4D41435F 
 15208      53544154 
 15208      55535F43 
 15208      52595054 
 15209              	.LASF379:
 15210 0367 4368616E 		.ascii	"ChannelId\000"
 15210      6E656C49 
 15210      6400
 15211              	.LASF375:
 15212 0371 73527850 		.ascii	"sRxParamSetupReqParams\000"
 15212      6172616D 
 15212      53657475 
 15212      70526571 
 15212      50617261 
 15213              	.LASF521:
 15214 0388 76657269 		.ascii	"verify\000"
 15214      667900
 15215              	.LASF479:
 15216 038f 52656769 		.ascii	"RegionUS915RxParamSetupReq\000"
 15216      6F6E5553 
 15216      39313552 
ARM GAS  C:\Users\EBANO_~1\AppData\Local\Temp\ccFRmLE5.s 			page 298


 15216      78506172 
 15216      616D5365 
 15217              	.LASF572:
 15218 03aa 5F5F6275 		.ascii	"__builtin_memset\000"
 15218      696C7469 
 15218      6E5F6D65 
 15218      6D736574 
 15218      00
 15219              	.LASF67:
 15220 03bb 5F6C6266 		.ascii	"_lbfsize\000"
 15220      73697A65 
 15220      00
 15221              	.LASF258:
 15222 03c4 5048595F 		.ascii	"PHY_DEF_ADR_ACK_LIMIT\000"
 15222      4445465F 
 15222      4144525F 
 15222      41434B5F 
 15222      4C494D49 
 15223              	.LASF174:
 15224 03da 52616469 		.ascii	"Radio_s\000"
 15224      6F5F7300 
 15225              	.LASF565:
 15226 03e2 6D656D63 		.ascii	"memcpy1\000"
 15226      70793100 
 15227              	.LASF376:
 15228 03ea 52785061 		.ascii	"RxParamSetupReqParams_t\000"
 15228      72616D53 
 15228      65747570 
 15228      52657150 
 15228      6172616D 
 15229              	.LASF440:
 15230 0402 4A6F696E 		.ascii	"JoinChannelGroupsCurrentIndex\000"
 15230      4368616E 
 15230      6E656C47 
 15230      726F7570 
 15230      73437572 
 15231              	.LASF77:
 15232 0420 5F646174 		.ascii	"_data\000"
 15232      6100
 15233              	.LASF538:
 15234 0426 7478506F 		.ascii	"txPowerResult\000"
 15234      77657252 
 15234      6573756C 
 15234      7400
 15235              	.LASF426:
 15236 0434 73526567 		.ascii	"sRegionCommonRxBeaconSetupParams\000"
 15236      696F6E43 
 15236      6F6D6D6F 
 15236      6E527842 
 15236      6561636F 
 15237              	.LASF312:
 15238 0455 42656163 		.ascii	"BeaconSize\000"
 15238      6F6E5369 
 15238      7A6500
 15239              	.LASF197:
 15240 0460 5365744D 		.ascii	"SetMaxPayloadLength\000"
 15240      61785061 
ARM GAS  C:\Users\EBANO_~1\AppData\Local\Temp\ccFRmLE5.s 			page 299


 15240      796C6F61 
 15240      644C656E 
 15240      67746800 
 15241              	.LASF363:
 15242 0474 4D617845 		.ascii	"MaxEirp\000"
 15242      69727000 
 15243              	.LASF535:
 15244 047c 66726571 		.ascii	"freq\000"
 15244      00
 15245              	.LASF156:
 15246 0481 5F646179 		.ascii	"_daylight\000"
 15246      6C696768 
 15246      7400
 15247              	.LASF436:
 15248 048b 4D617850 		.ascii	"MaxPayloadOfDatarateRepeaterUS915\000"
 15248      61796C6F 
 15248      61644F66 
 15248      44617461 
 15248      72617465 
 15249              	.LASF418:
 15250 04ad 4D696E44 		.ascii	"MinDatarate\000"
 15250      61746172 
 15250      61746500 
 15251              	.LASF222:
 15252 04b9 654C6F52 		.ascii	"eLoRaMacStatus\000"
 15252      614D6163 
 15252      53746174 
 15252      757300
 15253              	.LASF494:
 15254 04c8 70687950 		.ascii	"phyParam\000"
 15254      6172616D 
 15254      00
 15255              	.LASF547:
 15256 04d1 46696E64 		.ascii	"FindAvailable125kHzChannels\000"
 15256      41766169 
 15256      6C61626C 
 15256      65313235 
 15256      6B487A43 
 15257              	.LASF134:
 15258 04ed 5F5F6C6F 		.ascii	"__lock\000"
 15258      636B00
 15259              	.LASF81:
 15260 04f4 5F726565 		.ascii	"_reent\000"
 15260      6E7400
 15261              	.LASF234:
 15262 04fb 4C4F5241 		.ascii	"LORAMAC_STATUS_DUTYCYCLE_RESTRICTED\000"
 15262      4D41435F 
 15262      53544154 
 15262      55535F44 
 15262      55545943 
 15263              	.LASF327:
 15264 051f 47657450 		.ascii	"GetPhyParams_t\000"
 15264      68795061 
 15264      72616D73 
 15264      5F7400
 15265              	.LASF189:
 15266 052e 5374616E 		.ascii	"Standby\000"
ARM GAS  C:\Users\EBANO_~1\AppData\Local\Temp\ccFRmLE5.s 			page 300


 15266      64627900 
 15267              	.LASF502:
 15268 0536 70687944 		.ascii	"phyDr\000"
 15268      7200
 15269              	.LASF411:
 15270 053c 4E625265 		.ascii	"NbRep\000"
 15270      7000
 15271              	.LASF102:
 15272 0542 5F5F7366 		.ascii	"__sf\000"
 15272      00
 15273              	.LASF62:
 15274 0547 5F626173 		.ascii	"_base\000"
 15274      6500
 15275              	.LASF193:
 15276 054d 57726974 		.ascii	"Write\000"
 15276      6500
 15277              	.LASF120:
 15278 0553 5F6D6274 		.ascii	"_mbtowc_state\000"
 15278      6F77635F 
 15278      73746174 
 15278      6500
 15279              	.LASF306:
 15280 0561 496E6974 		.ascii	"InitType_t\000"
 15280      54797065 
 15280      5F7400
 15281              	.LASF448:
 15282 056c 64617461 		.ascii	"datarate\000"
 15282      72617465 
 15282      00
 15283              	.LASF421:
 15284 0575 4D617854 		.ascii	"MaxTxPower\000"
 15284      78506F77 
 15284      657200
 15285              	.LASF152:
 15286 0580 4C617374 		.ascii	"LastTxDoneTime\000"
 15286      5478446F 
 15286      6E655469 
 15286      6D6500
 15287              	.LASF194:
 15288 058f 52656164 		.ascii	"Read\000"
 15288      00
 15289              	.LASF43:
 15290 0594 5F5F746D 		.ascii	"__tm\000"
 15290      00
 15291              	.LASF469:
 15292 0599 52656769 		.ascii	"RegionUS915CalcBackOff\000"
 15292      6F6E5553 
 15292      39313543 
 15292      616C6342 
 15292      61636B4F 
 15293              	.LASF561:
 15294 05b0 52656769 		.ascii	"RegionCommonParseLinkAdrReq\000"
 15294      6F6E436F 
 15294      6D6D6F6E 
 15294      50617273 
 15294      654C696E 
 15295              	.LASF51:
ARM GAS  C:\Users\EBANO_~1\AppData\Local\Temp\ccFRmLE5.s 			page 301


 15296 05cc 5F5F746D 		.ascii	"__tm_yday\000"
 15296      5F796461 
 15296      7900
 15297              	.LASF528:
 15298 05d6 7478446F 		.ascii	"txDone\000"
 15298      6E6500
 15299              	.LASF254:
 15300 05dd 5048595F 		.ascii	"PHY_RX_DR\000"
 15300      52585F44 
 15300      5200
 15301              	.LASF474:
 15302 05e7 74797065 		.ascii	"type\000"
 15302      00
 15303              	.LASF399:
 15304 05ec 73436861 		.ascii	"sChannelAddParams\000"
 15304      6E6E656C 
 15304      41646450 
 15304      6172616D 
 15304      7300
 15305              	.LASF27:
 15306 05fe 5F4C4F43 		.ascii	"_LOCK_T\000"
 15306      4B5F5400 
 15307              	.LASF211:
 15308 0606 44725261 		.ascii	"DrRange\000"
 15308      6E676500 
 15309              	.LASF292:
 15310 060e 5048595F 		.ascii	"PHY_PING_SLOT_SYMBOL_TO_EXPANSION_FACTOR\000"
 15310      50494E47 
 15310      5F534C4F 
 15310      545F5359 
 15310      4D424F4C 
 15311              	.LASF201:
 15312 0637 5278426F 		.ascii	"RxBoosted\000"
 15312      6F737465 
 15312      6400
 15313              	.LASF4:
 15314 0641 5F5F696E 		.ascii	"__int16_t\000"
 15314      7431365F 
 15314      7400
 15315              	.LASF517:
 15316 064b 6170706C 		.ascii	"applyCFList\000"
 15316      7943464C 
 15316      69737400 
 15317              	.LASF6:
 15318 0657 5F5F7569 		.ascii	"__uint16_t\000"
 15318      6E743136 
 15318      5F7400
 15319              	.LASF270:
 15320 0662 5048595F 		.ascii	"PHY_DEF_DR1_OFFSET\000"
 15320      4445465F 
 15320      4452315F 
 15320      4F464653 
 15320      455400
 15321              	.LASF112:
 15322 0675 5F756E75 		.ascii	"_unused_rand\000"
 15322      7365645F 
 15322      72616E64 
ARM GAS  C:\Users\EBANO_~1\AppData\Local\Temp\ccFRmLE5.s 			page 302


 15322      00
 15323              	.LASF339:
 15324 0682 73446174 		.ascii	"sDatarateParams\000"
 15324      61726174 
 15324      65506172 
 15324      616D7300 
 15325              	.LASF274:
 15326 0692 5048595F 		.ascii	"PHY_CHANNELS_DEFAULT_MASK\000"
 15326      4348414E 
 15326      4E454C53 
 15326      5F444546 
 15326      41554C54 
 15327              	.LASF451:
 15328 06ac 636F6E74 		.ascii	"continuousWave\000"
 15328      696E756F 
 15328      75735761 
 15328      766500
 15329              	.LASF452:
 15330 06bb 70687954 		.ascii	"phyTxPower\000"
 15330      78506F77 
 15330      657200
 15331              	.LASF406:
 15332 06c6 73527842 		.ascii	"sRxBeaconSetupParams\000"
 15332      6561636F 
 15332      6E536574 
 15332      75705061 
 15332      72616D73 
 15333              	.LASF357:
 15334 06db 57696E64 		.ascii	"WindowOffset\000"
 15334      6F774F66 
 15334      66736574 
 15334      00
 15335              	.LASF285:
 15336 06e8 5048595F 		.ascii	"PHY_BEACON_WINDOW\000"
 15336      42454143 
 15336      4F4E5F57 
 15336      494E444F 
 15336      5700
 15337              	.LASF93:
 15338 06fa 5F726573 		.ascii	"_result_k\000"
 15338      756C745F 
 15338      6B00
 15339              	.LASF85:
 15340 0704 5F737464 		.ascii	"_stderr\000"
 15340      65727200 
 15341              	.LASF92:
 15342 070c 5F726573 		.ascii	"_result\000"
 15342      756C7400 
 15343              	.LASF428:
 15344 0714 42656163 		.ascii	"BeaconDatarate\000"
 15344      6F6E4461 
 15344      74617261 
 15344      746500
 15345              	.LASF55:
 15346 0723 5F64736F 		.ascii	"_dso_handle\000"
 15346      5F68616E 
 15346      646C6500 
ARM GAS  C:\Users\EBANO_~1\AppData\Local\Temp\ccFRmLE5.s 			page 303


 15347              	.LASF496:
 15348 072f 6269744D 		.ascii	"bitMask\000"
 15348      61736B00 
 15349              	.LASF389:
 15350 0737 7343616C 		.ascii	"sCalcBackOffParams\000"
 15350      63426163 
 15350      6B4F6666 
 15350      50617261 
 15350      6D7300
 15351              	.LASF50:
 15352 074a 5F5F746D 		.ascii	"__tm_wday\000"
 15352      5F776461 
 15352      7900
 15353              	.LASF52:
 15354 0754 5F5F746D 		.ascii	"__tm_isdst\000"
 15354      5F697364 
 15354      737400
 15355              	.LASF465:
 15356 075f 64656C61 		.ascii	"delayTx\000"
 15356      79547800 
 15357              	.LASF559:
 15358 0767 52656769 		.ascii	"RegionCommonChanMaskCopy\000"
 15358      6F6E436F 
 15358      6D6D6F6E 
 15358      4368616E 
 15358      4D61736B 
 15359              	.LASF231:
 15360 0780 4C4F5241 		.ascii	"LORAMAC_STATUS_LENGTH_ERROR\000"
 15360      4D41435F 
 15360      53544154 
 15360      55535F4C 
 15360      454E4754 
 15361              	.LASF153:
 15362 079c 54696D65 		.ascii	"TimeOff\000"
 15362      4F666600 
 15363              	.LASF3:
 15364 07a4 756E7369 		.ascii	"unsigned char\000"
 15364      676E6564 
 15364      20636861 
 15364      7200
 15365              	.LASF84:
 15366 07b2 5F737464 		.ascii	"_stdout\000"
 15366      6F757400 
 15367              	.LASF336:
 15368 07ba 73476574 		.ascii	"sGetNvmCtxParams\000"
 15368      4E766D43 
 15368      74785061 
 15368      72616D73 
 15368      00
 15369              	.LASF475:
 15370 07cb 52656769 		.ascii	"RegionUS915TxParamSetupReq\000"
 15370      6F6E5553 
 15370      39313554 
 15370      78506172 
 15370      616D5365 
 15371              	.LASF127:
 15372 07e6 5F6D6273 		.ascii	"_mbsrtowcs_state\000"
ARM GAS  C:\Users\EBANO_~1\AppData\Local\Temp\ccFRmLE5.s 			page 304


 15372      72746F77 
 15372      63735F73 
 15372      74617465 
 15372      00
 15373              	.LASF41:
 15374 07f7 5F776473 		.ascii	"_wds\000"
 15374      00
 15375              	.LASF207:
 15376 07fc 44725261 		.ascii	"DrRange_t\000"
 15376      6E67655F 
 15376      7400
 15377              	.LASF220:
 15378 0806 666C6F61 		.ascii	"float\000"
 15378      7400
 15379              	.LASF569:
 15380 080c 443A5C67 		.ascii	"D:\\git_pessoal\\keil_gcc\\STM32CubeExpansion_LRWAN"
 15380      69745F70 
 15380      6573736F 
 15380      616C5C6B 
 15380      65696C5F 
 15381 083c 5F56312E 		.ascii	"_V1.2.1\\Projects\\B-L072Z-LRWAN1\\Applications\\Lo"
 15381      322E315C 
 15381      50726F6A 
 15381      65637473 
 15381      5C422D4C 
 15382 086b 52615C45 		.ascii	"Ra\\End_Node\\MDK-ARM\000"
 15382      6E645F4E 
 15382      6F64655C 
 15382      4D444B2D 
 15382      41524D00 
 15383              	.LASF271:
 15384 087f 5048595F 		.ascii	"PHY_DEF_RX2_FREQUENCY\000"
 15384      4445465F 
 15384      5258325F 
 15384      46524551 
 15384      55454E43 
 15385              	.LASF323:
 15386 0895 41747472 		.ascii	"Attribute\000"
 15386      69627574 
 15386      6500
 15387              	.LASF247:
 15388 089f 65506879 		.ascii	"ePhyAttribute\000"
 15388      41747472 
 15388      69627574 
 15388      6500
 15389              	.LASF63:
 15390 08ad 5F73697A 		.ascii	"_size\000"
 15390      6500
 15391              	.LASF515:
 15392 08b3 6E624368 		.ascii	"nbChannels\000"
 15392      616E6E65 
 15392      6C7300
 15393              	.LASF368:
 15394 08be 56657273 		.ascii	"Version\000"
 15394      696F6E00 
 15395              	.LASF70:
 15396 08c6 5F777269 		.ascii	"_write\000"
ARM GAS  C:\Users\EBANO_~1\AppData\Local\Temp\ccFRmLE5.s 			page 305


 15396      746500
 15397              	.LASF385:
 15398 08cd 65416C74 		.ascii	"eAlternateDrType\000"
 15398      65726E61 
 15398      74654472 
 15398      54797065 
 15398      00
 15399              	.LASF481:
 15400 08de 73746174 		.ascii	"status\000"
 15400      757300
 15401              	.LASF412:
 15402 08e5 43684D61 		.ascii	"ChMaskCtrl\000"
 15402      736B4374 
 15402      726C00
 15403              	.LASF176:
 15404 08f0 496F4465 		.ascii	"IoDeInit\000"
 15404      496E6974 
 15404      00
 15405              	.LASF179:
 15406 08f9 5365744D 		.ascii	"SetModem\000"
 15406      6F64656D 
 15406      00
 15407              	.LASF360:
 15408 0902 5278536C 		.ascii	"RxSlot\000"
 15408      6F7400
 15409              	.LASF226:
 15410 0909 4C4F5241 		.ascii	"LORAMAC_STATUS_PARAMETER_INVALID\000"
 15410      4D41435F 
 15410      53544154 
 15410      55535F50 
 15410      4152414D 
 15411              	.LASF419:
 15412 092a 4D617844 		.ascii	"MaxDatarate\000"
 15412      61746172 
 15412      61746500 
 15413              	.LASF402:
 15414 0936 4368616E 		.ascii	"ChannelRemoveParams_t\000"
 15414      6E656C52 
 15414      656D6F76 
 15414      65506172 
 15414      616D735F 
 15415              	.LASF166:
 15416 094c 5478446F 		.ascii	"TxDone\000"
 15416      6E6500
 15417              	.LASF533:
 15418 0953 436F756E 		.ascii	"CountNbOfEnabledChannels\000"
 15418      744E624F 
 15418      66456E61 
 15418      626C6564 
 15418      4368616E 
 15419              	.LASF49:
 15420 096c 5F5F746D 		.ascii	"__tm_year\000"
 15420      5F796561 
 15420      7200
 15421              	.LASF206:
 15422 0976 75447252 		.ascii	"uDrRange\000"
 15422      616E6765 
ARM GAS  C:\Users\EBANO_~1\AppData\Local\Temp\ccFRmLE5.s 			page 306


 15422      00
 15423              	.LASF212:
 15424 097f 42616E64 		.ascii	"Band\000"
 15424      00
 15425              	.LASF367:
 15426 0984 734C696E 		.ascii	"sLinkAdrReqParams\000"
 15426      6B416472 
 15426      52657150 
 15426      6172616D 
 15426      7300
 15427              	.LASF356:
 15428 0996 57696E64 		.ascii	"WindowTimeout\000"
 15428      6F775469 
 15428      6D656F75 
 15428      7400
 15429              	.LASF518:
 15430 09a4 63684D61 		.ascii	"chMaskItr\000"
 15430      736B4974 
 15430      7200
 15431              	.LASF203:
 15432 09ae 52616469 		.ascii	"Radio\000"
 15432      6F00
 15433              	.LASF567:
 15434 09b4 474E5520 		.ascii	"GNU C11 7.3.1 20180622 (release) [ARM/embedded-7-br"
 15434      43313120 
 15434      372E332E 
 15434      31203230 
 15434      31383036 
 15435 09e7 616E6368 		.ascii	"anch revision 261907] -mcpu=cortex-m0plus -mthumb -"
 15435      20726576 
 15435      6973696F 
 15435      6E203236 
 15435      31393037 
 15436 0a1a 6D666C6F 		.ascii	"mfloat-abi=soft -gdwarf-2 -O3 -ffunction-sections\000"
 15436      61742D61 
 15436      62693D73 
 15436      6F667420 
 15436      2D676477 
 15437              	.LASF110:
 15438 0a4c 5F6D756C 		.ascii	"_mult\000"
 15438      7400
 15439              	.LASF472:
 15440 0a52 52656769 		.ascii	"RegionUS915AlternateDr\000"
 15440      6F6E5553 
 15440      39313541 
 15440      6C746572 
 15440      6E617465 
 15441              	.LASF537:
 15442 0a69 6D617842 		.ascii	"maxBandTxPower\000"
 15442      616E6454 
 15442      78506F77 
 15442      657200
 15443              	.LASF489:
 15444 0a78 6E657874 		.ascii	"nextIndex\000"
 15444      496E6465 
 15444      7800
 15445              	.LASF190:
ARM GAS  C:\Users\EBANO_~1\AppData\Local\Temp\ccFRmLE5.s 			page 307


 15446 0a82 53746172 		.ascii	"StartCad\000"
 15446      74436164 
 15446      00
 15447              	.LASF377:
 15448 0a8b 734E6577 		.ascii	"sNewChannelReqParams\000"
 15448      4368616E 
 15448      6E656C52 
 15448      65715061 
 15448      72616D73 
 15449              	.LASF125:
 15450 0aa0 5F6D6272 		.ascii	"_mbrlen_state\000"
 15450      6C656E5F 
 15450      73746174 
 15450      6500
 15451              	.LASF510:
 15452 0aae 7278436F 		.ascii	"rxConfigParams\000"
 15452      6E666967 
 15452      50617261 
 15452      6D7300
 15453              	.LASF462:
 15454 0abd 74696D65 		.ascii	"time\000"
 15454      00
 15455              	.LASF552:
 15456 0ac2 52656769 		.ascii	"RegionCommonCountChannels\000"
 15456      6F6E436F 
 15456      6D6D6F6E 
 15456      436F756E 
 15456      74436861 
 15457              	.LASF241:
 15458 0adc 4C4F5241 		.ascii	"LORAMAC_STATUS_FCNT_HANDLER_ERROR\000"
 15458      4D41435F 
 15458      53544154 
 15458      55535F46 
 15458      434E545F 
 15459              	.LASF380:
 15460 0afe 4E657743 		.ascii	"NewChannelReqParams_t\000"
 15460      68616E6E 
 15460      656C5265 
 15460      71506172 
 15460      616D735F 
 15461              	.LASF168:
 15462 0b14 5278446F 		.ascii	"RxDone\000"
 15462      6E6500
 15463              	.LASF83:
 15464 0b1b 5F737464 		.ascii	"_stdin\000"
 15464      696E00
 15465              	.LASF248:
 15466 0b22 5048595F 		.ascii	"PHY_MIN_RX_DR\000"
 15466      4D494E5F 
 15466      52585F44 
 15466      5200
 15467              	.LASF132:
 15468 0b30 5F6E6D61 		.ascii	"_nmalloc\000"
 15468      6C6C6F63 
 15468      00
 15469              	.LASF337:
 15470 0b39 6E766D43 		.ascii	"nvmCtxSize\000"
ARM GAS  C:\Users\EBANO_~1\AppData\Local\Temp\ccFRmLE5.s 			page 308


 15470      74785369 
 15470      7A6500
 15471              	.LASF182:
 15472 0b44 52616E64 		.ascii	"Random\000"
 15472      6F6D00
 15473              	.LASF404:
 15474 0b4b 54696D65 		.ascii	"Timeout\000"
 15474      6F757400 
 15475              	.LASF520:
 15476 0b53 52656769 		.ascii	"RegionUS915Verify\000"
 15476      6F6E5553 
 15476      39313556 
 15476      65726966 
 15476      7900
 15477              	.LASF334:
 15478 0b65 54797065 		.ascii	"Type\000"
 15478      00
 15479              	.LASF371:
 15480 0b6a 43757272 		.ascii	"CurrentDatarate\000"
 15480      656E7444 
 15480      61746172 
 15480      61746500 
 15481              	.LASF346:
 15482 0b7a 5061796C 		.ascii	"Payload\000"
 15482      6F616400 
 15483              	.LASF263:
 15484 0b82 5048595F 		.ascii	"PHY_MAX_RX_WINDOW\000"
 15484      4D41585F 
 15484      52585F57 
 15484      494E444F 
 15484      5700
 15485              	.LASF28:
 15486 0b94 5F6F6666 		.ascii	"_off_t\000"
 15486      5F7400
 15487              	.LASF457:
 15488 0b9b 52656769 		.ascii	"RegionUS915ChannelAdd\000"
 15488      6F6E5553 
 15488      39313543 
 15488      68616E6E 
 15488      656C4164 
 15489              	.LASF140:
 15490 0bb1 56657273 		.ascii	"Version_s\000"
 15490      696F6E5F 
 15490      7300
 15491              	.LASF146:
 15492 0bbb 56657273 		.ascii	"Version_t\000"
 15492      696F6E5F 
 15492      7400
 15493              	.LASF205:
 15494 0bc5 56657273 		.ascii	"Version_u\000"
 15494      696F6E5F 
 15494      7500
 15495              	.LASF540:
 15496 0bcf 6472496E 		.ascii	"drIndex\000"
 15496      64657800 
 15497              	.LASF25:
 15498 0bd7 73697A65 		.ascii	"size_t\000"
ARM GAS  C:\Users\EBANO_~1\AppData\Local\Temp\ccFRmLE5.s 			page 309


 15498      5F7400
 15499              	.LASF115:
 15500 0bde 5F6C6F63 		.ascii	"_localtime_buf\000"
 15500      616C7469 
 15500      6D655F62 
 15500      756600
 15501              	.LASF33:
 15502 0bed 5F5F636F 		.ascii	"__count\000"
 15502      756E7400 
 15503              	.LASF16:
 15504 0bf5 75696E74 		.ascii	"uint8_t\000"
 15504      385F7400 
 15505              	.LASF290:
 15506 0bfd 5048595F 		.ascii	"PHY_PING_SLOT_SYMBOL_TO_EXPANSION_MAX\000"
 15506      50494E47 
 15506      5F534C4F 
 15506      545F5359 
 15506      4D424F4C 
 15507              	.LASF298:
 15508 0c23 5048595F 		.ascii	"PHY_BEACON_CHANNEL_STEPWIDTH\000"
 15508      42454143 
 15508      4F4E5F43 
 15508      48414E4E 
 15508      454C5F53 
 15509              	.LASF148:
 15510 0c40 7342616E 		.ascii	"sBand\000"
 15510      6400
 15511              	.LASF249:
 15512 0c46 5048595F 		.ascii	"PHY_MIN_TX_DR\000"
 15512      4D494E5F 
 15512      54585F44 
 15512      5200
 15513              	.LASF557:
 15514 0c54 52656769 		.ascii	"RegionCommonUpdateBandTimeOff\000"
 15514      6F6E436F 
 15514      6D6D6F6E 
 15514      55706461 
 15514      74654261 
 15515              	.LASF288:
 15516 0c72 5048595F 		.ascii	"PHY_BEACON_SYMBOL_TO_DEFAULT\000"
 15516      42454143 
 15516      4F4E5F53 
 15516      594D424F 
 15516      4C5F544F 
 15517              	.LASF221:
 15518 0c8f 654C6F52 		.ascii	"eLoRaMacRxSlot\000"
 15518      614D6163 
 15518      5278536C 
 15518      6F7400
 15519              	.LASF97:
 15520 0c9e 5F637674 		.ascii	"_cvtbuf\000"
 15520      62756600 
 15521              	.LASF414:
 15522 0ca6 52656769 		.ascii	"RegionCommonLinkAdrParams_t\000"
 15522      6F6E436F 
 15522      6D6D6F6E 
 15522      4C696E6B 
ARM GAS  C:\Users\EBANO_~1\AppData\Local\Temp\ccFRmLE5.s 			page 310


 15522      41647250 
 15523              	.LASF335:
 15524 0cc2 496E6974 		.ascii	"InitDefaultsParams_t\000"
 15524      44656661 
 15524      756C7473 
 15524      50617261 
 15524      6D735F74 
 15525              	.LASF417:
 15526 0cd7 4E624368 		.ascii	"NbChannels\000"
 15526      616E6E65 
 15526      6C7300
 15527              	.LASF358:
 15528 0ce2 52657065 		.ascii	"RepeaterSupport\000"
 15528      61746572 
 15528      53757070 
 15528      6F727400 
 15529              	.LASF218:
 15530 0cf2 52585F53 		.ascii	"RX_SLOT_WIN_MULTICAST_SLOT\000"
 15530      4C4F545F 
 15530      57494E5F 
 15530      4D554C54 
 15530      49434153 
 15531              	.LASF202:
 15532 0d0d 53657452 		.ascii	"SetRxDutyCycle\000"
 15532      78447574 
 15532      79437963 
 15532      6C6500
 15533              	.LASF441:
 15534 0d1c 4A6F696E 		.ascii	"JoinTrialsCounter\000"
 15534      54726961 
 15534      6C73436F 
 15534      756E7465 
 15534      7200
 15535              	.LASF490:
 15536 0d2e 62797465 		.ascii	"bytesProcessed\000"
 15536      7350726F 
 15536      63657373 
 15536      656400
 15537              	.LASF32:
 15538 0d3d 5F5F7763 		.ascii	"__wchb\000"
 15538      686200
 15539              	.LASF126:
 15540 0d44 5F6D6272 		.ascii	"_mbrtowc_state\000"
 15540      746F7763 
 15540      5F737461 
 15540      746500
 15541              	.LASF46:
 15542 0d53 5F5F746D 		.ascii	"__tm_hour\000"
 15542      5F686F75 
 15542      7200
 15543              	.LASF158:
 15544 0d5d 4D4F4445 		.ascii	"MODEM_FSK\000"
 15544      4D5F4653 
 15544      4B00
 15545              	.LASF470:
 15546 0d67 63616C63 		.ascii	"calcBackOff\000"
 15546      4261636B 
ARM GAS  C:\Users\EBANO_~1\AppData\Local\Temp\ccFRmLE5.s 			page 311


 15546      4F666600 
 15547              	.LASF348:
 15548 0d73 4170706C 		.ascii	"ApplyCFListParams_t\000"
 15548      7943464C 
 15548      69737450 
 15548      6172616D 
 15548      735F7400 
 15549              	.LASF260:
 15550 0d87 5048595F 		.ascii	"PHY_MAX_PAYLOAD\000"
 15550      4D41585F 
 15550      5041594C 
 15550      4F414400 
 15551              	.LASF30:
 15552 0d97 77696E74 		.ascii	"wint_t\000"
 15552      5F7400
 15553              	.LASF98:
 15554 0d9e 5F6E6577 		.ascii	"_new\000"
 15554      00
 15555              	.LASF188:
 15556 0da3 536C6565 		.ascii	"Sleep\000"
 15556      7000
 15557              	.LASF497:
 15558 0da9 636E7443 		.ascii	"cntChannelMask\000"
 15558      68616E6E 
 15558      656C4D61 
 15558      736B00
 15559              	.LASF345:
 15560 0db8 73417070 		.ascii	"sApplyCFListParams\000"
 15560      6C794346 
 15560      4C697374 
 15560      50617261 
 15560      6D7300
 15561              	.LASF106:
 15562 0dcb 5F6E696F 		.ascii	"_niobs\000"
 15562      627300
 15563              	.LASF322:
 15564 0dd2 73476574 		.ascii	"sGetPhyParams\000"
 15564      50687950 
 15564      6172616D 
 15564      7300
 15565              	.LASF242:
 15566 0de0 4C4F5241 		.ascii	"LORAMAC_STATUS_MAC_COMMAD_ERROR\000"
 15566      4D41435F 
 15566      53544154 
 15566      55535F4D 
 15566      41435F43 
 15567              	.LASF160:
 15568 0e00 52616469 		.ascii	"RadioModems_t\000"
 15568      6F4D6F64 
 15568      656D735F 
 15568      7400
 15569              	.LASF319:
 15570 0e0e 4368616E 		.ascii	"Channels\000"
 15570      6E656C73 
 15570      00
 15571              	.LASF331:
 15572 0e17 53657442 		.ascii	"SetBandTxDoneParams_t\000"
ARM GAS  C:\Users\EBANO_~1\AppData\Local\Temp\ccFRmLE5.s 			page 312


 15572      616E6454 
 15572      78446F6E 
 15572      65506172 
 15572      616D735F 
 15573              	.LASF463:
 15574 0e2d 61676772 		.ascii	"aggregatedTimeOff\000"
 15574      65676174 
 15574      65645469 
 15574      6D654F66 
 15574      6600
 15575              	.LASF82:
 15576 0e3f 5F657272 		.ascii	"_errno\000"
 15576      6E6F00
 15577              	.LASF287:
 15578 0e46 5048595F 		.ascii	"PHY_PING_SLOT_WINDOW\000"
 15578      50494E47 
 15578      5F534C4F 
 15578      545F5749 
 15578      4E444F57 
 15579              	.LASF413:
 15580 0e5b 43684D61 		.ascii	"ChMask\000"
 15580      736B00
 15581              	.LASF47:
 15582 0e62 5F5F746D 		.ascii	"__tm_mday\000"
 15582      5F6D6461 
 15582      7900
 15583              	.LASF54:
 15584 0e6c 5F666E61 		.ascii	"_fnargs\000"
 15584      72677300 
 15585              	.LASF303:
 15586 0e74 494E4954 		.ascii	"INIT_TYPE_INIT\000"
 15586      5F545950 
 15586      455F494E 
 15586      495400
 15587              	.LASF255:
 15588 0e83 5048595F 		.ascii	"PHY_MAX_TX_POWER\000"
 15588      4D41585F 
 15588      54585F50 
 15588      4F574552 
 15588      00
 15589              	.LASF444:
 15590 0e94 6F757444 		.ascii	"outDr\000"
 15590      7200
 15591              	.LASF545:
 15592 0e9a 61766169 		.ascii	"availableChannels\000"
 15592      6C61626C 
 15592      65436861 
 15592      6E6E656C 
 15592      7300
 15593              	.LASF281:
 15594 0eac 5048595F 		.ascii	"PHY_NEXT_LOWER_TX_DR\000"
 15594      4E455854 
 15594      5F4C4F57 
 15594      45525F54 
 15594      585F4452 
 15595              	.LASF549:
 15596 0ec1 6D696E44 		.ascii	"minDr\000"
ARM GAS  C:\Users\EBANO_~1\AppData\Local\Temp\ccFRmLE5.s 			page 313


 15596      7200
 15597              	.LASF278:
 15598 0ec7 5048595F 		.ascii	"PHY_DEF_DOWNLINK_DWELL_TIME\000"
 15598      4445465F 
 15598      444F574E 
 15598      4C494E4B 
 15598      5F445745 
 15599              	.LASF392:
 15600 0ee3 456C6170 		.ascii	"ElapsedTime\000"
 15600      73656454 
 15600      696D6500 
 15601              	.LASF289:
 15602 0eef 5048595F 		.ascii	"PHY_BEACON_SYMBOL_TO_EXPANSION_MAX\000"
 15602      42454143 
 15602      4F4E5F53 
 15602      594D424F 
 15602      4C5F544F 
 15603              	.LASF38:
 15604 0f12 5F6E6578 		.ascii	"_next\000"
 15604      7400
 15605              	.LASF171:
 15606 0f18 46687373 		.ascii	"FhssChangeChannel\000"
 15606      4368616E 
 15606      67654368 
 15606      616E6E65 
 15606      6C00
 15607              	.LASF487:
 15608 0f2a 6E624279 		.ascii	"nbBytesParsed\000"
 15608      74657350 
 15608      61727365 
 15608      6400
 15609              	.LASF524:
 15610 0f38 70617261 		.ascii	"params\000"
 15610      6D7300
 15611              	.LASF123:
 15612 0f3f 5F736967 		.ascii	"_signal_buf\000"
 15612      6E616C5F 
 15612      62756600 
 15613              	.LASF68:
 15614 0f4b 5F636F6F 		.ascii	"_cookie\000"
 15614      6B696500 
 15615              	.LASF272:
 15616 0f53 5048595F 		.ascii	"PHY_DEF_RX2_DR\000"
 15616      4445465F 
 15616      5258325F 
 15616      445200
 15617              	.LASF548:
 15618 0f62 4765744E 		.ascii	"GetNextLowerTxDr\000"
 15618      6578744C 
 15618      6F776572 
 15618      54784472 
 15618      00
 15619              	.LASF408:
 15620 0f73 52785469 		.ascii	"RxTime\000"
 15620      6D6500
 15621              	.LASF264:
 15622 0f7a 5048595F 		.ascii	"PHY_RECEIVE_DELAY1\000"
ARM GAS  C:\Users\EBANO_~1\AppData\Local\Temp\ccFRmLE5.s 			page 314


 15622      52454345 
 15622      4956455F 
 15622      44454C41 
 15622      593100
 15623              	.LASF265:
 15624 0f8d 5048595F 		.ascii	"PHY_RECEIVE_DELAY2\000"
 15624      52454345 
 15624      4956455F 
 15624      44454C41 
 15624      593200
 15625              	.LASF157:
 15626 0fa0 5F747A6E 		.ascii	"_tzname\000"
 15626      616D6500 
 15627              	.LASF352:
 15628 0fa8 4368616E 		.ascii	"ChanMaskSetParams_t\000"
 15628      4D61736B 
 15628      53657450 
 15628      6172616D 
 15628      735F7400 
 15629              	.LASF232:
 15630 0fbc 4C4F5241 		.ascii	"LORAMAC_STATUS_REGION_NOT_SUPPORTED\000"
 15630      4D41435F 
 15630      53544154 
 15630      55535F52 
 15630      4547494F 
 15631              	.LASF219:
 15632 0fe0 4C6F5261 		.ascii	"LoRaMacRxSlot_t\000"
 15632      4D616352 
 15632      78536C6F 
 15632      745F7400 
 15633              	.LASF162:
 15634 0ff0 52465F52 		.ascii	"RF_RX_RUNNING\000"
 15634      585F5255 
 15634      4E4E494E 
 15634      4700
 15635              	.LASF245:
 15636 0ffe 4C4F5241 		.ascii	"LORAMAC_STATUS_ERROR\000"
 15636      4D41435F 
 15636      53544154 
 15636      55535F45 
 15636      52524F52 
 15637              	.LASF387:
 15638 1013 414C5445 		.ascii	"ALTERNATE_DR_RESTORE\000"
 15638      524E4154 
 15638      455F4452 
 15638      5F524553 
 15638      544F5245 
 15639              	.LASF320:
 15640 1028 42656163 		.ascii	"BeaconFormat\000"
 15640      6F6E466F 
 15640      726D6174 
 15640      00
 15641              	.LASF461:
 15642 1035 6368616E 		.ascii	"channel\000"
 15642      6E656C00 
 15643              	.LASF527:
 15644 103d 52656769 		.ascii	"RegionUS915SetBandTxDone\000"
ARM GAS  C:\Users\EBANO_~1\AppData\Local\Temp\ccFRmLE5.s 			page 315


 15644      6F6E5553 
 15644      39313553 
 15644      65744261 
 15644      6E645478 
 15645              	.LASF365:
 15646 1056 506B744C 		.ascii	"PktLen\000"
 15646      656E00
 15647              	.LASF178:
 15648 105d 47657453 		.ascii	"GetStatus\000"
 15648      74617475 
 15648      7300
 15649              	.LASF251:
 15650 1067 5048595F 		.ascii	"PHY_MAX_TX_DR\000"
 15650      4D41585F 
 15650      54585F44 
 15650      5200
 15651              	.LASF314:
 15652 1075 52667532 		.ascii	"Rfu2Size\000"
 15652      53697A65 
 15652      00
 15653              	.LASF184:
 15654 107e 53657454 		.ascii	"SetTxConfig\000"
 15654      78436F6E 
 15654      66696700 
 15655              	.LASF213:
 15656 108a 4368616E 		.ascii	"ChannelParams_t\000"
 15656      6E656C50 
 15656      6172616D 
 15656      735F7400 
 15657              	.LASF224:
 15658 109a 4C4F5241 		.ascii	"LORAMAC_STATUS_BUSY\000"
 15658      4D41435F 
 15658      53544154 
 15658      55535F42 
 15658      55535900 
 15659              	.LASF347:
 15660 10ae 53697A65 		.ascii	"Size\000"
 15660      00
 15661              	.LASF44:
 15662 10b3 5F5F746D 		.ascii	"__tm_sec\000"
 15662      5F736563 
 15662      00
 15663              	.LASF53:
 15664 10bc 5F6F6E5F 		.ascii	"_on_exit_args\000"
 15664      65786974 
 15664      5F617267 
 15664      7300
 15665              	.LASF237:
 15666 10ca 4C4F5241 		.ascii	"LORAMAC_STATUS_BUSY_BEACON_RESERVED_TIME\000"
 15666      4D41435F 
 15666      53544154 
 15666      55535F42 
 15666      5553595F 
 15667              	.LASF486:
 15668 10f3 6E625265 		.ascii	"nbRepOut\000"
 15668      704F7574 
 15668      00
ARM GAS  C:\Users\EBANO_~1\AppData\Local\Temp\ccFRmLE5.s 			page 316


 15669              	.LASF259:
 15670 10fc 5048595F 		.ascii	"PHY_DEF_ADR_ACK_DELAY\000"
 15670      4445465F 
 15670      4144525F 
 15670      41434B5F 
 15670      44454C41 
 15671              	.LASF128:
 15672 1112 5F776372 		.ascii	"_wcrtomb_state\000"
 15672      746F6D62 
 15672      5F737461 
 15672      746500
 15673              	.LASF362:
 15674 1121 73547843 		.ascii	"sTxConfigParams\000"
 15674      6F6E6669 
 15674      67506172 
 15674      616D7300 
 15675              	.LASF530:
 15676 1131 52656769 		.ascii	"RegionUS915GetPhyParam\000"
 15676      6F6E5553 
 15676      39313547 
 15676      65745068 
 15676      79506172 
 15677              	.LASF165:
 15678 1148 52616469 		.ascii	"RadioState_t\000"
 15678      6F537461 
 15678      74655F74 
 15678      00
 15679              	.LASF571:
 15680 1155 6D656D73 		.ascii	"memset\000"
 15680      657400
 15681              	.LASF438:
 15682 115c 4368616E 		.ascii	"ChannelsMaskRemaining\000"
 15682      6E656C73 
 15682      4D61736B 
 15682      52656D61 
 15682      696E696E 
 15683              	.LASF562:
 15684 1172 52656769 		.ascii	"RegionCommonLinkAdrReqVerifyParams\000"
 15684      6F6E436F 
 15684      6D6D6F6E 
 15684      4C696E6B 
 15684      41647252 
 15685              	.LASF500:
 15686 1195 7478506F 		.ascii	"txPower\000"
 15686      77657200 
 15687              	.LASF483:
 15688 119d 6C696E6B 		.ascii	"linkAdrReq\000"
 15688      41647252 
 15688      657100
 15689              	.LASF330:
 15690 11a8 4A6F696E 		.ascii	"Joined\000"
 15690      656400
 15691              	.LASF507:
 15692 11af 52656769 		.ascii	"RegionUS915ComputeRxWindowParameters\000"
 15692      6F6E5553 
 15692      39313543 
 15692      6F6D7075 
ARM GAS  C:\Users\EBANO_~1\AppData\Local\Temp\ccFRmLE5.s 			page 317


 15692      74655278 
 15693              	.LASF15:
 15694 11d4 696E7438 		.ascii	"int8_t\000"
 15694      5F7400
 15695              	.LASF236:
 15696 11db 4C4F5241 		.ascii	"LORAMAC_STATUS_NO_FREE_CHANNEL_FOUND\000"
 15696      4D41435F 
 15696      53544154 
 15696      55535F4E 
 15696      4F5F4652 
 15697              	.LASF37:
 15698 1200 5F5F554C 		.ascii	"__ULong\000"
 15698      6F6E6700 
 15699              	.LASF297:
 15700 1208 5048595F 		.ascii	"PHY_BEACON_CHANNEL_DR\000"
 15700      42454143 
 15700      4F4E5F43 
 15700      48414E4E 
 15700      454C5F44 
 15701              	.LASF353:
 15702 121e 73527843 		.ascii	"sRxConfigParams\000"
 15702      6F6E6669 
 15702      67506172 
 15702      616D7300 
 15703              	.LASF144:
 15704 122e 4669656C 		.ascii	"Fields\000"
 15704      647300
 15705              	.LASF529:
 15706 1235 52656769 		.ascii	"RegionUS915NewChannelReq\000"
 15706      6F6E5553 
 15706      3931354E 
 15706      65774368 
 15706      616E6E65 
 15707              	.LASF286:
 15708 124e 5048595F 		.ascii	"PHY_BEACON_WINDOW_SLOTS\000"
 15708      42454143 
 15708      4F4E5F57 
 15708      494E444F 
 15708      575F534C 
 15709              	.LASF113:
 15710 1266 5F737472 		.ascii	"_strtok_last\000"
 15710      746F6B5F 
 15710      6C617374 
 15710      00
 15711              	.LASF185:
 15712 1273 43686563 		.ascii	"CheckRfFrequency\000"
 15712      6B526646 
 15712      72657175 
 15712      656E6379 
 15712      00
 15713              	.LASF477:
 15714 1284 646C4368 		.ascii	"dlChannelReq\000"
 15714      616E6E65 
 15714      6C526571 
 15714      00
 15715              	.LASF109:
 15716 1291 5F736565 		.ascii	"_seed\000"
ARM GAS  C:\Users\EBANO_~1\AppData\Local\Temp\ccFRmLE5.s 			page 318


 15716      6400
 15717              	.LASF369:
 15718 1297 5061796C 		.ascii	"PayloadSize\000"
 15718      6F616453 
 15718      697A6500 
 15719              	.LASF71:
 15720 12a3 5F736565 		.ascii	"_seek\000"
 15720      6B00
 15721              	.LASF210:
 15722 12a9 52783146 		.ascii	"Rx1Frequency\000"
 15722      72657175 
 15722      656E6379 
 15722      00
 15723              	.LASF17:
 15724 12b6 696E7431 		.ascii	"int16_t\000"
 15724      365F7400 
 15725              	.LASF299:
 15726 12be 5048595F 		.ascii	"PHY_BEACON_NB_CHANNELS\000"
 15726      42454143 
 15726      4F4E5F4E 
 15726      425F4348 
 15726      414E4E45 
 15727              	.LASF7:
 15728 12d5 73686F72 		.ascii	"short unsigned int\000"
 15728      7420756E 
 15728      7369676E 
 15728      65642069 
 15728      6E7400
 15729              	.LASF2:
 15730 12e8 7369676E 		.ascii	"signed char\000"
 15730      65642063 
 15730      68617200 
 15731              	.LASF381:
 15732 12f4 73547850 		.ascii	"sTxParamSetupReqParams\000"
 15732      6172616D 
 15732      53657475 
 15732      70526571 
 15732      50617261 
 15733              	.LASF338:
 15734 130b 4765744E 		.ascii	"GetNvmCtxParams_t\000"
 15734      766D4374 
 15734      78506172 
 15734      616D735F 
 15734      7400
 15735              	.LASF434:
 15736 131d 44617461 		.ascii	"DatarateOffsetsUS915\000"
 15736      72617465 
 15736      4F666673 
 15736      65747355 
 15736      53393135 
 15737              	.LASF384:
 15738 1332 446C4368 		.ascii	"DlChannelReqParams_t\000"
 15738      616E6E65 
 15738      6C526571 
 15738      50617261 
 15738      6D735F74 
 15739              	.LASF536:
ARM GAS  C:\Users\EBANO_~1\AppData\Local\Temp\ccFRmLE5.s 			page 319


 15740 1347 4C696D69 		.ascii	"LimitTxPower\000"
 15740      74547850 
 15740      6F776572 
 15740      00
 15741              	.LASF400:
 15742 1354 4368616E 		.ascii	"ChannelAddParams_t\000"
 15742      6E656C41 
 15742      64645061 
 15742      72616D73 
 15742      5F7400
 15743              	.LASF175:
 15744 1367 496F496E 		.ascii	"IoInit\000"
 15744      697400
 15745              	.LASF95:
 15746 136e 5F667265 		.ascii	"_freelist\000"
 15746      656C6973 
 15746      7400
 15747              	.LASF525:
 15748 1378 52656769 		.ascii	"RegionUS915InitDefaults\000"
 15748      6F6E5553 
 15748      39313549 
 15748      6E697444 
 15748      65666175 
 15749              	.LASF429:
 15750 1390 42656163 		.ascii	"BeaconChannelBW\000"
 15750      6F6E4368 
 15750      616E6E65 
 15750      6C425700 
 15751              	.LASF76:
 15752 13a0 5F6F6666 		.ascii	"_offset\000"
 15752      73657400 
 15753              	.LASF21:
 15754 13a8 53797374 		.ascii	"SystemCoreClock\000"
 15754      656D436F 
 15754      7265436C 
 15754      6F636B00 
 15755              	.LASF326:
 15756 13b8 446F776E 		.ascii	"DownlinkDwellTime\000"
 15756      6C696E6B 
 15756      4477656C 
 15756      6C54696D 
 15756      6500
 15757              	.LASF186:
 15758 13ca 54696D65 		.ascii	"TimeOnAir\000"
 15758      4F6E4169 
 15758      7200
 15759              	.LASF61:
 15760 13d4 5F5F7362 		.ascii	"__sbuf\000"
 15760      756600
 15761              	.LASF122:
 15762 13db 5F6C3634 		.ascii	"_l64a_buf\000"
 15762      615F6275 
 15762      6600
 15763              	.LASF321:
 15764 13e5 50687950 		.ascii	"PhyParam_t\000"
 15764      6172616D 
 15764      5F7400
ARM GAS  C:\Users\EBANO_~1\AppData\Local\Temp\ccFRmLE5.s 			page 320


 15765              	.LASF328:
 15766 13f0 73536574 		.ascii	"sSetBandTxDoneParams\000"
 15766      42616E64 
 15766      5478446F 
 15766      6E655061 
 15766      72616D73 
 15767              	.LASF364:
 15768 1405 416E7465 		.ascii	"AntennaGain\000"
 15768      6E6E6147 
 15768      61696E00 
 15769              	.LASF262:
 15770 1411 5048595F 		.ascii	"PHY_DUTY_CYCLE\000"
 15770      44555459 
 15770      5F435943 
 15770      4C4500
 15771              	.LASF114:
 15772 1420 5F617363 		.ascii	"_asctime_buf\000"
 15772      74696D65 
 15772      5F627566 
 15772      00
 15773              	.LASF501:
 15774 142d 74785469 		.ascii	"txTimeOnAir\000"
 15774      6D654F6E 
 15774      41697200 
 15775              	.LASF31:
 15776 1439 5F5F7763 		.ascii	"__wch\000"
 15776      6800
 15777              	.LASF458:
 15778 143f 6368616E 		.ascii	"channelAdd\000"
 15778      6E656C41 
 15778      646400
 15779              	.LASF459:
 15780 144a 52656769 		.ascii	"RegionUS915NextChannel\000"
 15780      6F6E5553 
 15780      3931354E 
 15780      65787443 
 15780      68616E6E 
 15781              	.LASF129:
 15782 1461 5F776373 		.ascii	"_wcsrtombs_state\000"
 15782      72746F6D 
 15782      62735F73 
 15782      74617465 
 15782      00
 15783              	.LASF391:
 15784 1472 44757479 		.ascii	"DutyCycleEnabled\000"
 15784      4379636C 
 15784      65456E61 
 15784      626C6564 
 15784      00
 15785              	.LASF473:
 15786 1483 63757272 		.ascii	"currentDr\000"
 15786      656E7444 
 15786      7200
 15787              	.LASF566:
 15788 148d 52656769 		.ascii	"RegionCommonSetBandTxDone\000"
 15788      6F6E436F 
 15788      6D6D6F6E 
ARM GAS  C:\Users\EBANO_~1\AppData\Local\Temp\ccFRmLE5.s 			page 321


 15788      53657442 
 15788      616E6454 
 15789              	.LASF492:
 15790 14a7 7478506F 		.ascii	"txPowerLimited\000"
 15790      7765724C 
 15790      696D6974 
 15790      656400
 15791              	.LASF556:
 15792 14b6 54696D65 		.ascii	"TimerGetElapsedTime\000"
 15792      72476574 
 15792      456C6170 
 15792      73656454 
 15792      696D6500 
 15793              	.LASF506:
 15794 14ca 6D617850 		.ascii	"maxPayload\000"
 15794      61796C6F 
 15794      616400
 15795              	.LASF491:
 15796 14d5 6368616E 		.ascii	"channelsMask\000"
 15796      6E656C73 
 15796      4D61736B 
 15796      00
 15797              	.LASF9:
 15798 14e2 6C6F6E67 		.ascii	"long int\000"
 15798      20696E74 
 15798      00
 15799              	.LASF433:
 15800 14eb 42616E64 		.ascii	"BandwidthsUS915\000"
 15800      77696474 
 15800      68735553 
 15800      39313500 
 15801              	.LASF121:
 15802 14fb 5F776374 		.ascii	"_wctomb_state\000"
 15802      6F6D625F 
 15802      73746174 
 15802      6500
 15803              	.LASF422:
 15804 1509 52656769 		.ascii	"RegionCommonLinkAdrReqVerifyParams_t\000"
 15804      6F6E436F 
 15804      6D6D6F6E 
 15804      4C696E6B 
 15804      41647252 
 15805              	.LASF372:
 15806 152e 43757272 		.ascii	"CurrentTxPower\000"
 15806      656E7454 
 15806      78506F77 
 15806      657200
 15807              	.LASF424:
 15808 153d 42616E64 		.ascii	"Bands\000"
 15808      7300
 15809              	.LASF308:
 15810 1543 4348414E 		.ascii	"CHANNELS_MASK\000"
 15810      4E454C53 
 15810      5F4D4153 
 15810      4B00
 15811              	.LASF534:
 15812 1551 56657269 		.ascii	"VerifyRfFreq\000"
ARM GAS  C:\Users\EBANO_~1\AppData\Local\Temp\ccFRmLE5.s 			page 322


 15812      66795266 
 15812      46726571 
 15812      00
 15813              	.LASF107:
 15814 155e 5F696F62 		.ascii	"_iobs\000"
 15814      7300
 15815              	.LASF87:
 15816 1564 5F656D65 		.ascii	"_emergency\000"
 15816      7267656E 
 15816      637900
 15817              	.LASF508:
 15818 156f 6D696E52 		.ascii	"minRxSymbols\000"
 15818      7853796D 
 15818      626F6C73 
 15818      00
 15819              	.LASF131:
 15820 157c 5F6E6578 		.ascii	"_nextf\000"
 15820      746600
 15821              	.LASF117:
 15822 1583 5F72616E 		.ascii	"_rand_next\000"
 15822      645F6E65 
 15822      787400
 15823              	.LASF522:
 15824 158e 70687941 		.ascii	"phyAttribute\000"
 15824      74747269 
 15824      62757465 
 15824      00
 15825              	.LASF20:
 15826 159b 75696E74 		.ascii	"uint32_t\000"
 15826      33325F74 
 15826      00
 15827              	.LASF416:
 15828 15a4 53746174 		.ascii	"Status\000"
 15828      757300
 15829              	.LASF405:
 15830 15ab 436F6E74 		.ascii	"ContinuousWaveParams_t\000"
 15830      696E756F 
 15830      75735761 
 15830      76655061 
 15830      72616D73 
 15831              	.LASF39:
 15832 15c2 5F6D6178 		.ascii	"_maxwds\000"
 15832      77647300 
 15833              	.LASF526:
 15834 15ca 62616E64 		.ascii	"bands\000"
 15834      7300
 15835              	.LASF191:
 15836 15d0 53657454 		.ascii	"SetTxContinuousWave\000"
 15836      78436F6E 
 15836      74696E75 
 15836      6F757357 
 15836      61766500 
 15837              	.LASF26:
 15838 15e4 6C6F6E67 		.ascii	"long double\000"
 15838      20646F75 
 15838      626C6500 
 15839              	.LASF138:
ARM GAS  C:\Users\EBANO_~1\AppData\Local\Temp\ccFRmLE5.s 			page 323


 15840 15f0 7375626F 		.ascii	"suboptarg\000"
 15840      70746172 
 15840      6700
 15841              	.LASF275:
 15842 15fa 5048595F 		.ascii	"PHY_MAX_NB_CHANNELS\000"
 15842      4D41585F 
 15842      4E425F43 
 15842      48414E4E 
 15842      454C5300 
 15843              	.LASF382:
 15844 160e 54785061 		.ascii	"TxParamSetupReqParams_t\000"
 15844      72616D53 
 15844      65747570 
 15844      52657150 
 15844      6172616D 
 15845              	.LASF11:
 15846 1626 6C6F6E67 		.ascii	"long unsigned int\000"
 15846      20756E73 
 15846      69676E65 
 15846      6420696E 
 15846      7400
 15847              	.LASF439:
 15848 1638 4368616E 		.ascii	"ChannelsDefaultMask\000"
 15848      6E656C73 
 15848      44656661 
 15848      756C744D 
 15848      61736B00 
 15849              	.LASF563:
 15850 164c 52656769 		.ascii	"RegionCommonComputeSymbolTimeLoRa\000"
 15850      6F6E436F 
 15850      6D6D6F6E 
 15850      436F6D70 
 15850      75746553 
 15851              	.LASF468:
 15852 166e 6E657743 		.ascii	"newChannelIndex\000"
 15852      68616E6E 
 15852      656C496E 
 15852      64657800 
 15853              	.LASF307:
 15854 167e 65436861 		.ascii	"eChannelsMask\000"
 15854      6E6E656C 
 15854      734D6173 
 15854      6B00
 15855              	.LASF181:
 15856 168c 49734368 		.ascii	"IsChannelFree\000"
 15856      616E6E65 
 15856      6C467265 
 15856      6500
 15857              	.LASF72:
 15858 169a 5F636C6F 		.ascii	"_close\000"
 15858      736500
 15859              	.LASF198:
 15860 16a1 53657450 		.ascii	"SetPublicNetwork\000"
 15860      75626C69 
 15860      634E6574 
 15860      776F726B 
 15860      00
ARM GAS  C:\Users\EBANO_~1\AppData\Local\Temp\ccFRmLE5.s 			page 324


 15861              	.LASF103:
 15862 16b2 63686172 		.ascii	"char\000"
 15862      00
 15863              	.LASF280:
 15864 16b7 5048595F 		.ascii	"PHY_DEF_ANTENNA_GAIN\000"
 15864      4445465F 
 15864      414E5445 
 15864      4E4E415F 
 15864      4741494E 
 15865              	.LASF164:
 15866 16cc 52465F43 		.ascii	"RF_CAD\000"
 15866      414400
 15867              	.LASF105:
 15868 16d3 5F676C75 		.ascii	"_glue\000"
 15868      6500
 15869              	.LASF464:
 15870 16d9 6E62456E 		.ascii	"nbEnabledChannels\000"
 15870      61626C65 
 15870      64436861 
 15870      6E6E656C 
 15870      7300
 15871              	.LASF394:
 15872 16eb 43616C63 		.ascii	"CalcBackOffParams_t\000"
 15872      4261636B 
 15872      4F666650 
 15872      6172616D 
 15872      735F7400 
 15873              	.LASF23:
 15874 16ff 41504250 		.ascii	"APBPrescTable\000"
 15874      72657363 
 15874      5461626C 
 15874      6500
 15875              	.LASF200:
 15876 170d 49727150 		.ascii	"IrqProcess\000"
 15876      726F6365 
 15876      737300
 15877              	.LASF553:
 15878 1718 52656769 		.ascii	"RegionCommonComputeTxPower\000"
 15878      6F6E436F 
 15878      6D6D6F6E 
 15878      436F6D70 
 15878      75746554 
 15879              	.LASF554:
 15880 1733 52656769 		.ascii	"RegionCommonValueInRange\000"
 15880      6F6E436F 
 15880      6D6D6F6E 
 15880      56616C75 
 15880      65496E52 
 15881              	.LASF253:
 15882 174c 5048595F 		.ascii	"PHY_DEF_TX_DR\000"
 15882      4445465F 
 15882      54585F44 
 15882      5200
 15883              	.LASF227:
 15884 175a 4C4F5241 		.ascii	"LORAMAC_STATUS_FREQUENCY_INVALID\000"
 15884      4D41435F 
 15884      53544154 
ARM GAS  C:\Users\EBANO_~1\AppData\Local\Temp\ccFRmLE5.s 			page 325


 15884      55535F46 
 15884      52455155 
 15885              	.LASF467:
 15886 177b 6E657874 		.ascii	"nextTxDelay\000"
 15886      54784465 
 15886      6C617900 
 15887              	.LASF42:
 15888 1787 5F426967 		.ascii	"_Bigint\000"
 15888      696E7400 
 15889              	.LASF386:
 15890 178f 414C5445 		.ascii	"ALTERNATE_DR\000"
 15890      524E4154 
 15890      455F4452 
 15890      00
 15891              	.LASF539:
 15892 179c 47657442 		.ascii	"GetBandwidth\000"
 15892      616E6477 
 15892      69647468 
 15892      00
 15893              	.LASF256:
 15894 17a9 5048595F 		.ascii	"PHY_TX_POWER\000"
 15894      54585F50 
 15894      4F574552 
 15894      00
 15895              	.LASF180:
 15896 17b6 53657443 		.ascii	"SetChannel\000"
 15896      68616E6E 
 15896      656C00
 15897              	.LASF316:
 15898 17c1 75506879 		.ascii	"uPhyParam\000"
 15898      50617261 
 15898      6D00
 15899              	.LASF568:
 15900 17cb 2E2E2F2E 		.ascii	"../../../../../../Middlewares/Third_Party/LoRaWAN/M"
 15900      2E2F2E2E 
 15900      2F2E2E2F 
 15900      2E2E2F2E 
 15900      2E2F4D69 
 15901 17fe 61632F72 		.ascii	"ac/region/RegionUS915.c\000"
 15901      6567696F 
 15901      6E2F5265 
 15901      67696F6E 
 15901      55533931 
 15902              	.LASF485:
 15903 1816 7478506F 		.ascii	"txPowOut\000"
 15903      774F7574 
 15903      00
 15904              	.LASF99:
 15905 181f 5F617465 		.ascii	"_atexit0\000"
 15905      78697430 
 15905      00
 15906              	.LASF350:
 15907 1828 4368616E 		.ascii	"ChannelsMaskIn\000"
 15907      6E656C73 
 15907      4D61736B 
 15907      496E00
 15908              	.LASF223:
ARM GAS  C:\Users\EBANO_~1\AppData\Local\Temp\ccFRmLE5.s 			page 326


 15909 1837 4C4F5241 		.ascii	"LORAMAC_STATUS_OK\000"
 15909      4D41435F 
 15909      53544154 
 15909      55535F4F 
 15909      4B00
 15910              	.LASF257:
 15911 1849 5048595F 		.ascii	"PHY_DEF_TX_POWER\000"
 15911      4445465F 
 15911      54585F50 
 15911      4F574552 
 15911      00
 15912              	.LASF124:
 15913 185a 5F676574 		.ascii	"_getdate_err\000"
 15913      64617465 
 15913      5F657272 
 15913      00
 15914              	.LASF295:
 15915 1867 5048595F 		.ascii	"PHY_BEACON_CHANNEL_FREQ\000"
 15915      42454143 
 15915      4F4E5F43 
 15915      48414E4E 
 15915      454C5F46 
 15916              	.LASF282:
 15917 187f 5048595F 		.ascii	"PHY_BEACON_INTERVAL\000"
 15917      42454143 
 15917      4F4E5F49 
 15917      4E544552 
 15917      56414C00 
 15918              	.LASF277:
 15919 1893 5048595F 		.ascii	"PHY_DEF_UPLINK_DWELL_TIME\000"
 15919      4445465F 
 15919      55504C49 
 15919      4E4B5F44 
 15919      57454C4C 
 15920              	.LASF309:
 15921 18ad 4348414E 		.ascii	"CHANNELS_DEFAULT_MASK\000"
 15921      4E454C53 
 15921      5F444546 
 15921      41554C54 
 15921      5F4D4153 
 15922              	.LASF442:
 15923 18c3 52656769 		.ascii	"RegionUS915NvmCtx_t\000"
 15923      6F6E5553 
 15923      3931354E 
 15923      766D4374 
 15923      785F7400 
 15924              	.LASF435:
 15925 18d7 4D617850 		.ascii	"MaxPayloadOfDatarateUS915\000"
 15925      61796C6F 
 15925      61644F66 
 15925      44617461 
 15925      72617465 
 15926              	.LASF268:
 15927 18f1 5048595F 		.ascii	"PHY_MAX_FCNT_GAP\000"
 15927      4D41585F 
 15927      46434E54 
 15927      5F474150 
ARM GAS  C:\Users\EBANO_~1\AppData\Local\Temp\ccFRmLE5.s 			page 327


 15927      00
 15928              	.LASF332:
 15929 1902 73496E69 		.ascii	"sInitDefaultsParams\000"
 15929      74446566 
 15929      61756C74 
 15929      73506172 
 15929      616D7300 
 15930              	.LASF423:
 15931 1916 73526567 		.ascii	"sRegionCommonCalcBackOffParams\000"
 15931      696F6E43 
 15931      6F6D6D6F 
 15931      6E43616C 
 15931      63426163 
 15932              	.LASF136:
 15933 1935 5F696D70 		.ascii	"_impure_ptr\000"
 15933      7572655F 
 15933      70747200 
 15934              	.LASF75:
 15935 1941 5F626C6B 		.ascii	"_blksize\000"
 15935      73697A65 
 15935      00
 15936              	.LASF460:
 15937 194a 6E657874 		.ascii	"nextChanParams\000"
 15937      4368616E 
 15937      50617261 
 15937      6D7300
 15938              	.LASF73:
 15939 1959 5F756275 		.ascii	"_ubuf\000"
 15939      6600
 15940              	.LASF493:
 15941 195f 67657450 		.ascii	"getPhy\000"
 15941      687900
 15942              	.LASF279:
 15943 1966 5048595F 		.ascii	"PHY_DEF_MAX_EIRP\000"
 15943      4445465F 
 15943      4D41585F 
 15943      45495250 
 15943      00
 15944              	.LASF119:
 15945 1977 5F6D626C 		.ascii	"_mblen_state\000"
 15945      656E5F73 
 15945      74617465 
 15945      00
 15946              	.LASF101:
 15947 1984 5F5F7367 		.ascii	"__sglue\000"
 15947      6C756500 
 15948              	.LASF135:
 15949 198c 5F5F6C6F 		.ascii	"__locale_t\000"
 15949      63616C65 
 15949      5F7400
 15950              	.LASF484:
 15951 1997 64724F75 		.ascii	"drOut\000"
 15951      7400
 15952              	.LASF91:
 15953 199d 5F5F636C 		.ascii	"__cleanup\000"
 15953      65616E75 
 15953      7000
ARM GAS  C:\Users\EBANO_~1\AppData\Local\Temp\ccFRmLE5.s 			page 328


 15954              	.LASF509:
 15955 19a7 72784572 		.ascii	"rxError\000"
 15955      726F7200 
 15956              	.LASF519:
 15957 19af 636E7450 		.ascii	"cntPayload\000"
 15957      61796C6F 
 15957      616400
 15958              	.LASF214:
 15959 19ba 52585F53 		.ascii	"RX_SLOT_WIN_1\000"
 15959      4C4F545F 
 15959      57494E5F 
 15959      3100
 15960              	.LASF215:
 15961 19c8 52585F53 		.ascii	"RX_SLOT_WIN_2\000"
 15961      4C4F545F 
 15961      57494E5F 
 15961      3200
 15962              	.LASF302:
 15963 19d6 65496E69 		.ascii	"eInitType\000"
 15963      74547970 
 15963      6500
 15964              	.LASF24:
 15965 19e0 504C4C4D 		.ascii	"PLLMulTable\000"
 15965      756C5461 
 15965      626C6500 
 15966              	.LASF560:
 15967 19ec 52656769 		.ascii	"RegionCommonCalcBackOff\000"
 15967      6F6E436F 
 15967      6D6D6F6E 
 15967      43616C63 
 15967      4261636B 
 15968              	.LASF29:
 15969 1a04 5F66706F 		.ascii	"_fpos_t\000"
 15969      735F7400 
 15970              	.LASF329:
 15971 1a0c 4368616E 		.ascii	"Channel\000"
 15971      6E656C00 
 15972              	.LASF66:
 15973 1a14 5F66696C 		.ascii	"_file\000"
 15973      6500
 15974              	.LASF208:
 15975 1a1a 73436861 		.ascii	"sChannelParams\000"
 15975      6E6E656C 
 15975      50617261 
 15975      6D7300
 15976              	.LASF64:
 15977 1a29 5F5F7346 		.ascii	"__sFILE\000"
 15977      494C4500 
 15978              	.LASF503:
 15979 1a31 62616E64 		.ascii	"bandwidth\000"
 15979      77696474 
 15979      6800
 15980              	.LASF512:
 15981 1a3b 646F7562 		.ascii	"double\000"
 15981      6C6500
 15982              	.LASF60:
 15983 1a42 5F666E73 		.ascii	"_fns\000"
ARM GAS  C:\Users\EBANO_~1\AppData\Local\Temp\ccFRmLE5.s 			page 329


 15983      00
 15984              	.LASF351:
 15985 1a47 4368616E 		.ascii	"ChannelsMaskType\000"
 15985      6E656C73 
 15985      4D61736B 
 15985      54797065 
 15985      00
 15986              	.LASF35:
 15987 1a58 5F6D6273 		.ascii	"_mbstate_t\000"
 15987      74617465 
 15987      5F7400
 15988              	.LASF130:
 15989 1a63 5F685F65 		.ascii	"_h_errno\000"
 15989      72726E6F 
 15989      00
 15990              	.LASF315:
 15991 1a6c 42656163 		.ascii	"BeaconFormat_t\000"
 15991      6F6E466F 
 15991      726D6174 
 15991      5F7400
 15992              	.LASF8:
 15993 1a7b 5F5F696E 		.ascii	"__int32_t\000"
 15993      7433325F 
 15993      7400
 15994              	.LASF505:
 15995 1a85 7278436F 		.ascii	"rxConfig\000"
 15995      6E666967 
 15995      00
 15996              	.LASF10:
 15997 1a8e 5F5F7569 		.ascii	"__uint32_t\000"
 15997      6E743332 
 15997      5F7400
 15998              	.LASF269:
 15999 1a99 5048595F 		.ascii	"PHY_ACK_TIMEOUT\000"
 15999      41434B5F 
 15999      54494D45 
 15999      4F555400 
 16000              	.LASF325:
 16001 1aa9 55706C69 		.ascii	"UplinkDwellTime\000"
 16001      6E6B4477 
 16001      656C6C54 
 16001      696D6500 
 16002              	.LASF511:
 16003 1ab9 7453796D 		.ascii	"tSymbol\000"
 16003      626F6C00 
 16004              	.LASF34:
 16005 1ac1 5F5F7661 		.ascii	"__value\000"
 16005      6C756500 
 16006              	.LASF466:
 16007 1ac9 656E6162 		.ascii	"enabledChannels\000"
 16007      6C656443 
 16007      68616E6E 
 16007      656C7300 
 16008              	.LASF57:
 16009 1ad9 5F69735F 		.ascii	"_is_cxa\000"
 16009      63786100 
 16010              	.LASF523:
ARM GAS  C:\Users\EBANO_~1\AppData\Local\Temp\ccFRmLE5.s 			page 330


 16011 1ae1 52656769 		.ascii	"RegionUS915GetNvmCtx\000"
 16011      6F6E5553 
 16011      39313547 
 16011      65744E76 
 16011      6D437478 
 16012              	.LASF235:
 16013 1af6 4C4F5241 		.ascii	"LORAMAC_STATUS_NO_CHANNEL_FOUND\000"
 16013      4D41435F 
 16013      53544154 
 16013      55535F4E 
 16013      4F5F4348 
 16014              	.LASF446:
 16015 1b16 646F776E 		.ascii	"downlinkDwellTime\000"
 16015      6C696E6B 
 16015      4477656C 
 16015      6C54696D 
 16015      6500
 16016              	.LASF94:
 16017 1b28 5F703573 		.ascii	"_p5s\000"
 16017      00
 16018              	.LASF341:
 16019 1b2d 5478506F 		.ascii	"TxPower\000"
 16019      77657200 
 16020              	.LASF163:
 16021 1b35 52465F54 		.ascii	"RF_TX_RUNNING\000"
 16021      585F5255 
 16021      4E4E494E 
 16021      4700
 16022              	.LASF261:
 16023 1b43 5048595F 		.ascii	"PHY_MAX_PAYLOAD_REPEATER\000"
 16023      4D41585F 
 16023      5041594C 
 16023      4F41445F 
 16023      52455045 
 16024              	.LASF544:
 16025 1b5c 66696E64 		.ascii	"findAvailableChannelsIndex\000"
 16025      41766169 
 16025      6C61626C 
 16025      65436861 
 16025      6E6E656C 
 16026              	.LASF294:
 16027 1b77 5048595F 		.ascii	"PHY_BEACON_DELAY_BEACON_TIMING_ANS\000"
 16027      42454143 
 16027      4F4E5F44 
 16027      454C4159 
 16027      5F424541 
 16028              	.LASF354:
 16029 1b9a 42616E64 		.ascii	"Bandwidth\000"
 16029      77696474 
 16029      6800
 16030              	.LASF342:
 16031 1ba4 44757479 		.ascii	"DutyCycle\000"
 16031      4379636C 
 16031      6500
 16032              	.LASF317:
 16033 1bae 6656616C 		.ascii	"fValue\000"
 16033      756500
ARM GAS  C:\Users\EBANO_~1\AppData\Local\Temp\ccFRmLE5.s 			page 331


 16034              	.LASF139:
 16035 1bb5 54696D65 		.ascii	"TimerTime_t\000"
 16035      7254696D 
 16035      655F7400 
 16036              	.LASF410:
 16037 1bc1 73526567 		.ascii	"sRegionCommonLinkAdrParams\000"
 16037      696F6E43 
 16037      6F6D6D6F 
 16037      6E4C696E 
 16037      6B416472 
 16038              	.LASF359:
 16039 1bdc 5278436F 		.ascii	"RxContinuous\000"
 16039      6E74696E 
 16039      756F7573 
 16039      00
 16040              	.LASF305:
 16041 1be9 494E4954 		.ascii	"INIT_TYPE_RESTORE_CTX\000"
 16041      5F545950 
 16041      455F5245 
 16041      53544F52 
 16041      455F4354 
 16042              	.LASF425:
 16043 1bff 52656769 		.ascii	"RegionCommonCalcBackOffParams_t\000"
 16043      6F6E436F 
 16043      6D6D6F6E 
 16043      43616C63 
 16043      4261636B 
 16044              	.LASF252:
 16045 1c1f 5048595F 		.ascii	"PHY_TX_DR\000"
 16045      54585F44 
 16045      5200
 16046              	.LASF499:
 16047 1c29 7478436F 		.ascii	"txConfig\000"
 16047      6E666967 
 16047      00
 16048              	.LASF388:
 16049 1c32 416C7465 		.ascii	"AlternateDrType_t\000"
 16049      726E6174 
 16049      65447254 
 16049      7970655F 
 16049      7400
 16050              	.LASF432:
 16051 1c44 44617461 		.ascii	"DataratesUS915\000"
 16051      72617465 
 16051      73555339 
 16051      313500
 16052              	.LASF155:
 16053 1c53 5F74696D 		.ascii	"_timezone\000"
 16053      657A6F6E 
 16053      6500
 16054              	.LASF250:
 16055 1c5d 5048595F 		.ascii	"PHY_MAX_RX_DR\000"
 16055      4D41585F 
 16055      52585F44 
 16055      5200
 16056              	.LASF192:
 16057 1c6b 52737369 		.ascii	"Rssi\000"
ARM GAS  C:\Users\EBANO_~1\AppData\Local\Temp\ccFRmLE5.s 			page 332


 16057      00
 16058              	.LASF482:
 16059 1c70 52656769 		.ascii	"RegionUS915LinkAdrReq\000"
 16059      6F6E5553 
 16059      3931354C 
 16059      696E6B41 
 16059      64725265 
 16060              	.LASF159:
 16061 1c86 4D4F4445 		.ascii	"MODEM_LORA\000"
 16061      4D5F4C4F 
 16061      524100
 16062              	.LASF13:
 16063 1c91 6C6F6E67 		.ascii	"long long unsigned int\000"
 16063      206C6F6E 
 16063      6720756E 
 16063      7369676E 
 16063      65642069 
 16064              	.LASF541:
 16065 1ca8 436F6D70 		.ascii	"ComputeNext125kHzJoinChannel\000"
 16065      7574654E 
 16065      65787431 
 16065      32356B48 
 16065      7A4A6F69 
 16066              	.LASF551:
 16067 1cc5 52656769 		.ascii	"RegionCommonRxBeaconSetup\000"
 16067      6F6E436F 
 16067      6D6D6F6E 
 16067      52784265 
 16067      61636F6E 
 16068              	.LASF495:
 16069 1cdf 6C696E6B 		.ascii	"linkAdrVerifyParams\000"
 16069      41647256 
 16069      65726966 
 16069      79506172 
 16069      616D7300 
 16070              	.LASF116:
 16071 1cf3 5F67616D 		.ascii	"_gamma_signgam\000"
 16071      6D615F73 
 16071      69676E67 
 16071      616D00
 16072              	.LASF151:
 16073 1d02 4C617374 		.ascii	"LastJoinTxDoneTime\000"
 16073      4A6F696E 
 16073      5478446F 
 16073      6E655469 
 16073      6D6500
 16074              	.LASF449:
 16075 1d15 52656769 		.ascii	"RegionUS915RxBeaconSetup\000"
 16075      6F6E5553 
 16075      39313552 
 16075      78426561 
 16075      636F6E53 
 16076              	.LASF177:
 16077 1d2e 496E6974 		.ascii	"Init\000"
 16077      00
 16078              	.LASF443:
 16079 1d33 72784265 		.ascii	"rxBeaconSetup\000"
ARM GAS  C:\Users\EBANO_~1\AppData\Local\Temp\ccFRmLE5.s 			page 333


 16079      61636F6E 
 16079      53657475 
 16079      7000
 16080              	.LASF401:
 16081 1d41 73436861 		.ascii	"sChannelRemoveParams\000"
 16081      6E6E656C 
 16081      52656D6F 
 16081      76655061 
 16081      72616D73 
 16082              	.LASF542:
 16083 1d56 63757272 		.ascii	"currentChannelsMaskRemainingIndex\000"
 16083      656E7443 
 16083      68616E6E 
 16083      656C734D 
 16083      61736B52 
 16084              	.LASF403:
 16085 1d78 73436F6E 		.ascii	"sContinuousWaveParams\000"
 16085      74696E75 
 16085      6F757357 
 16085      61766550 
 16085      6172616D 
 16086              	.LASF244:
 16087 1d8e 4C4F5241 		.ascii	"LORAMAC_STATUS_CONFIRM_QUEUE_ERROR\000"
 16087      4D41435F 
 16087      53544154 
 16087      55535F43 
 16087      4F4E4649 
 16088              	.LASF273:
 16089 1db1 5048595F 		.ascii	"PHY_CHANNELS_MASK\000"
 16089      4348414E 
 16089      4E454C53 
 16089      5F4D4153 
 16089      4B00
 16090              	.LASF143:
 16091 1dc3 4D616A6F 		.ascii	"Major\000"
 16091      7200
 16092              	.LASF209:
 16093 1dc9 46726571 		.ascii	"Frequency\000"
 16093      75656E63 
 16093      7900
 16094              	.LASF532:
 16095 1dd3 64656C61 		.ascii	"delayTransmission\000"
 16095      79547261 
 16095      6E736D69 
 16095      7373696F 
 16095      6E00
 16096              	.LASF137:
 16097 1de5 5F676C6F 		.ascii	"_global_impure_ptr\000"
 16097      62616C5F 
 16097      696D7075 
 16097      72655F70 
 16097      747200
 16098              	.LASF407:
 16099 1df8 53796D62 		.ascii	"SymbolTimeout\000"
 16099      6F6C5469 
 16099      6D656F75 
 16099      7400
ARM GAS  C:\Users\EBANO_~1\AppData\Local\Temp\ccFRmLE5.s 			page 334


 16100              	.LASF88:
 16101 1e06 5F756E73 		.ascii	"_unspecified_locale_info\000"
 16101      70656369 
 16101      66696564 
 16101      5F6C6F63 
 16101      616C655F 
 16102              	.LASF378:
 16103 1e1f 4E657743 		.ascii	"NewChannel\000"
 16103      68616E6E 
 16103      656C00
 16104              	.LASF531:
 16105 1e2a 6368616E 		.ascii	"channels\000"
 16105      6E656C73 
 16105      00
 16106              	.LASF304:
 16107 1e33 494E4954 		.ascii	"INIT_TYPE_RESTORE_DEFAULT_CHANNELS\000"
 16107      5F545950 
 16107      455F5245 
 16107      53544F52 
 16107      455F4445 
 16108              	.LASF546:
 16109 1e56 73746172 		.ascii	"startIndex\000"
 16109      74496E64 
 16109      657800
 16110              	.LASF90:
 16111 1e61 5F5F7364 		.ascii	"__sdidinit\000"
 16111      6964696E 
 16111      697400
 16112              	.LASF476:
 16113 1e6c 74785061 		.ascii	"txParamSetupReq\000"
 16113      72616D53 
 16113      65747570 
 16113      52657100 
 16114              	.LASF318:
 16115 1e7c 4368616E 		.ascii	"ChannelsMask\000"
 16115      6E656C73 
 16115      4D61736B 
 16115      00
 16116              	.LASF187:
 16117 1e89 53656E64 		.ascii	"Send\000"
 16117      00
 16118              	.LASF300:
 16119 1e8e 5048595F 		.ascii	"PHY_PING_SLOT_CHANNEL_DR\000"
 16119      50494E47 
 16119      5F534C4F 
 16119      545F4348 
 16119      414E4E45 
 16120              	.LASF324:
 16121 1ea7 44617461 		.ascii	"Datarate\000"
 16121      72617465 
 16121      00
 16122              	.LASF36:
 16123 1eb0 5F666C6F 		.ascii	"_flock_t\000"
 16123      636B5F74 
 16123      00
 16124              	.LASF550:
 16125 1eb9 6E657874 		.ascii	"nextLowerDr\000"
ARM GAS  C:\Users\EBANO_~1\AppData\Local\Temp\ccFRmLE5.s 			page 335


 16125      4C6F7765 
 16125      72447200 
 16126              	.LASF239:
 16127 1ec5 4C4F5241 		.ascii	"LORAMAC_STATUS_BUSY_UPLINK_COLLISION\000"
 16127      4D41435F 
 16127      53544154 
 16127      55535F42 
 16127      5553595F 
 16128              	.LASF173:
 16129 1eea 52616469 		.ascii	"RadioEvents_t\000"
 16129      6F457665 
 16129      6E74735F 
 16129      7400
 16130              	.LASF488:
 16131 1ef8 6C696E6B 		.ascii	"linkAdrParams\000"
 16131      41647250 
 16131      6172616D 
 16131      7300
 16132              	.LASF445:
 16133 1f06 72656769 		.ascii	"regionCommonRxBeaconSetup\000"
 16133      6F6E436F 
 16133      6D6D6F6E 
 16133      52784265 
 16133      61636F6E 
 16134              	.LASF246:
 16135 1f20 4C6F5261 		.ascii	"LoRaMacStatus_t\000"
 16135      4D616353 
 16135      74617475 
 16135      735F7400 
 16136              	.LASF373:
 16137 1f30 43757272 		.ascii	"CurrentNbRep\000"
 16137      656E744E 
 16137      62526570 
 16137      00
 16138              	.LASF570:
 16139 1f3d 52656769 		.ascii	"RegionUS915DlChannelReq\000"
 16139      6F6E5553 
 16139      39313544 
 16139      6C436861 
 16139      6E6E656C 
 16140              	.LASF12:
 16141 1f55 6C6F6E67 		.ascii	"long long int\000"
 16141      206C6F6E 
 16141      6720696E 
 16141      7400
 16142              	.LASF229:
 16143 1f63 4C4F5241 		.ascii	"LORAMAC_STATUS_FREQ_AND_DR_INVALID\000"
 16143      4D41435F 
 16143      53544154 
 16143      55535F46 
 16143      5245515F 
 16144              	.LASF243:
 16145 1f86 4C4F5241 		.ascii	"LORAMAC_STATUS_CLASS_B_ERROR\000"
 16145      4D41435F 
 16145      53544154 
 16145      55535F43 
 16145      4C415353 
ARM GAS  C:\Users\EBANO_~1\AppData\Local\Temp\ccFRmLE5.s 			page 336


 16146              	.LASF80:
 16147 1fa3 5F666C61 		.ascii	"_flags2\000"
 16147      67733200 
 16148              	.LASF293:
 16149 1fab 5048595F 		.ascii	"PHY_MAX_BEACON_LESS_PERIOD\000"
 16149      4D41585F 
 16149      42454143 
 16149      4F4E5F4C 
 16149      4553535F 
 16150              	.LASF504:
 16151 1fc6 52656769 		.ascii	"RegionUS915RxConfig\000"
 16151      6F6E5553 
 16151      39313552 
 16151      78436F6E 
 16151      66696700 
 16152              	.LASF172:
 16153 1fda 43616444 		.ascii	"CadDone\000"
 16153      6F6E6500 
 16154              	.LASF89:
 16155 1fe2 5F6C6F63 		.ascii	"_locale\000"
 16155      616C6500 
 16156              	.LASF228:
 16157 1fea 4C4F5241 		.ascii	"LORAMAC_STATUS_DATARATE_INVALID\000"
 16157      4D41435F 
 16157      53544154 
 16157      55535F44 
 16157      41544152 
 16158              	.LASF349:
 16159 200a 73436861 		.ascii	"sChanMaskSetParams\000"
 16159      6E4D6173 
 16159      6B536574 
 16159      50617261 
 16159      6D7300
 16160              	.LASF22:
 16161 201d 41484250 		.ascii	"AHBPrescTable\000"
 16161      72657363 
 16161      5461626C 
 16161      6500
 16162              	.LASF276:
 16163 202b 5048595F 		.ascii	"PHY_CHANNELS\000"
 16163      4348414E 
 16163      4E454C53 
 16163      00
 16164              	.LASF471:
 16165 2038 63616C63 		.ascii	"calcBackOffParams\000"
 16165      4261636B 
 16165      4F666650 
 16165      6172616D 
 16165      7300
 16166              	.LASF333:
 16167 204a 4E766D43 		.ascii	"NvmCtx\000"
 16167      747800
 16168              	.LASF409:
 16169 2051 52784265 		.ascii	"RxBeaconSetup_t\000"
 16169      61636F6E 
 16169      53657475 
 16169      705F7400 
ARM GAS  C:\Users\EBANO_~1\AppData\Local\Temp\ccFRmLE5.s 			page 337


 16170              	.LASF204:
 16171 2061 73466965 		.ascii	"sFields\000"
 16171      6C647300 
 16172              	.LASF564:
 16173 2069 52656769 		.ascii	"RegionCommonComputeRxWindowParameters\000"
 16173      6F6E436F 
 16173      6D6D6F6E 
 16173      436F6D70 
 16173      75746552 
 16174              	.LASF199:
 16175 208f 47657457 		.ascii	"GetWakeupTime\000"
 16175      616B6575 
 16175      7054696D 
 16175      6500
 16176              	.LASF395:
 16177 209d 734E6578 		.ascii	"sNextChanParams\000"
 16177      74436861 
 16177      6E506172 
 16177      616D7300 
 16178              	.LASF431:
 16179 20ad 4C6F5261 		.ascii	"LoRaMacMaxEirpTable\000"
 16179      4D61634D 
 16179      61784569 
 16179      72705461 
 16179      626C6500 
 16180              	.LASF383:
 16181 20c1 73446C43 		.ascii	"sDlChannelReqParams\000"
 16181      68616E6E 
 16181      656C5265 
 16181      71506172 
 16181      616D7300 
 16182              	.LASF374:
 16183 20d5 4C696E6B 		.ascii	"LinkAdrReqParams_t\000"
 16183      41647252 
 16183      65715061 
 16183      72616D73 
 16183      5F7400
 16184              	.LASF456:
 16185 20e8 6368616E 		.ascii	"channelRemove\000"
 16185      6E656C52 
 16185      656D6F76 
 16185      6500
 16186              	.LASF104:
 16187 20f6 5F5F4649 		.ascii	"__FILE\000"
 16187      4C4500
 16188              	.LASF217:
 16189 20fd 52585F53 		.ascii	"RX_SLOT_WIN_PING_SLOT\000"
 16189      4C4F545F 
 16189      57494E5F 
 16189      50494E47 
 16189      5F534C4F 
 16190              	.LASF453:
 16191 2113 66726571 		.ascii	"frequency\000"
 16191      75656E63 
 16191      7900
 16192              	.LASF340:
 16193 211d 75566572 		.ascii	"uVerifyParams\000"
ARM GAS  C:\Users\EBANO_~1\AppData\Local\Temp\ccFRmLE5.s 			page 338


 16193      69667950 
 16193      6172616D 
 16193      7300
 16194              	.LASF238:
 16195 212b 4C4F5241 		.ascii	"LORAMAC_STATUS_BUSY_PING_SLOT_WINDOW_TIME\000"
 16195      4D41435F 
 16195      53544154 
 16195      55535F42 
 16195      5553595F 
 16196              	.LASF40:
 16197 2155 5F736967 		.ascii	"_sign\000"
 16197      6E00
 16198              	.LASF0:
 16199 215b 5F5F696E 		.ascii	"__int8_t\000"
 16199      74385F74 
 16199      00
 16200              	.LASF45:
 16201 2164 5F5F746D 		.ascii	"__tm_min\000"
 16201      5F6D696E 
 16201      00
 16202              	.LASF344:
 16203 216d 56657269 		.ascii	"VerifyParams_t\000"
 16203      66795061 
 16203      72616D73 
 16203      5F7400
 16204              	.LASF498:
 16205 217c 52656769 		.ascii	"RegionUS915TxConfig\000"
 16205      6F6E5553 
 16205      39313554 
 16205      78436F6E 
 16205      66696700 
 16206              	.LASF14:
 16207 2190 756E7369 		.ascii	"unsigned int\000"
 16207      676E6564 
 16207      20696E74 
 16207      00
 16208              	.LASF118:
 16209 219d 5F723438 		.ascii	"_r48\000"
 16209      00
 16210              	.LASF145:
 16211 21a2 56616C75 		.ascii	"Value\000"
 16211      6500
 16212              	.LASF225:
 16213 21a8 4C4F5241 		.ascii	"LORAMAC_STATUS_SERVICE_UNKNOWN\000"
 16213      4D41435F 
 16213      53544154 
 16213      55535F53 
 16213      45525649 
 16214              	.LASF366:
 16215 21c7 5478436F 		.ascii	"TxConfigParams_t\000"
 16215      6E666967 
 16215      50617261 
 16215      6D735F74 
 16215      00
 16216              	.LASF233:
 16217 21d8 4C4F5241 		.ascii	"LORAMAC_STATUS_SKIPPED_APP_DATA\000"
 16217      4D41435F 
ARM GAS  C:\Users\EBANO_~1\AppData\Local\Temp\ccFRmLE5.s 			page 339


 16217      53544154 
 16217      55535F53 
 16217      4B495050 
 16218              	.LASF447:
 16219 21f8 64724F66 		.ascii	"drOffset\000"
 16219      66736574 
 16219      00
 16220              	.LASF5:
 16221 2201 73686F72 		.ascii	"short int\000"
 16221      7420696E 
 16221      7400
 16222              	.LASF291:
 16223 220b 5048595F 		.ascii	"PHY_BEACON_SYMBOL_TO_EXPANSION_FACTOR\000"
 16223      42454143 
 16223      4F4E5F53 
 16223      594D424F 
 16223      4C5F544F 
 16224              	.LASF183:
 16225 2231 53657452 		.ascii	"SetRxConfig\000"
 16225      78436F6E 
 16225      66696700 
 16226              	.LASF69:
 16227 223d 5F726561 		.ascii	"_read\000"
 16227      6400
 16228              	.LASF558:
 16229 2243 52656769 		.ascii	"RegionCommonChanDisable\000"
 16229      6F6E436F 
 16229      6D6D6F6E 
 16229      4368616E 
 16229      44697361 
 16230              	.LASF108:
 16231 225b 5F72616E 		.ascii	"_rand48\000"
 16231      64343800 
 16232              	.LASF390:
 16233 2263 4C617374 		.ascii	"LastTxIsJoinRequest\000"
 16233      54784973 
 16233      4A6F696E 
 16233      52657175 
 16233      65737400 
 16234              		.ident	"GCC: (GNU Tools for Arm Embedded Processors 7-2018-q2-update) 7.3.1 20180622 (release) [AR
ARM GAS  C:\Users\EBANO_~1\AppData\Local\Temp\ccFRmLE5.s 			page 340


DEFINED SYMBOLS
                            *ABS*:00000000 RegionUS915.c
C:\Users\EBANO_~1\AppData\Local\Temp\ccFRmLE5.s:16     .text.RegionUS915GetPhyParam:00000000 $t
C:\Users\EBANO_~1\AppData\Local\Temp\ccFRmLE5.s:24     .text.RegionUS915GetPhyParam:00000000 RegionUS915GetPhyParam
C:\Users\EBANO_~1\AppData\Local\Temp\ccFRmLE5.s:53     .rodata:00000000 $d
C:\Users\EBANO_~1\AppData\Local\Temp\ccFRmLE5.s:292    .text.RegionUS915GetPhyParam:000000d4 $d
C:\Users\EBANO_~1\AppData\Local\Temp\ccFRmLE5.s:3708   .bss:00000000 NvmCtx
C:\Users\EBANO_~1\AppData\Local\Temp\ccFRmLE5.s:309    .text.RegionUS915SetBandTxDone:00000000 $t
C:\Users\EBANO_~1\AppData\Local\Temp\ccFRmLE5.s:317    .text.RegionUS915SetBandTxDone:00000000 RegionUS915SetBandTxDone
C:\Users\EBANO_~1\AppData\Local\Temp\ccFRmLE5.s:353    .text.RegionUS915SetBandTxDone:00000020 $d
C:\Users\EBANO_~1\AppData\Local\Temp\ccFRmLE5.s:358    .text.RegionUS915InitDefaults:00000000 $t
C:\Users\EBANO_~1\AppData\Local\Temp\ccFRmLE5.s:366    .text.RegionUS915InitDefaults:00000000 RegionUS915InitDefaults
C:\Users\EBANO_~1\AppData\Local\Temp\ccFRmLE5.s:614    .text.RegionUS915InitDefaults:00000130 $d
C:\Users\EBANO_~1\AppData\Local\Temp\ccFRmLE5.s:634    .text.RegionUS915GetNvmCtx:00000000 $t
C:\Users\EBANO_~1\AppData\Local\Temp\ccFRmLE5.s:642    .text.RegionUS915GetNvmCtx:00000000 RegionUS915GetNvmCtx
C:\Users\EBANO_~1\AppData\Local\Temp\ccFRmLE5.s:662    .text.RegionUS915GetNvmCtx:0000000c $d
C:\Users\EBANO_~1\AppData\Local\Temp\ccFRmLE5.s:667    .text.RegionUS915Verify:00000000 $t
C:\Users\EBANO_~1\AppData\Local\Temp\ccFRmLE5.s:675    .text.RegionUS915Verify:00000000 RegionUS915Verify
C:\Users\EBANO_~1\AppData\Local\Temp\ccFRmLE5.s:776    .text.RegionUS915Verify:00000068 $d
C:\Users\EBANO_~1\AppData\Local\Temp\ccFRmLE5.s:781    .text.RegionUS915ApplyCFList:00000000 $t
C:\Users\EBANO_~1\AppData\Local\Temp\ccFRmLE5.s:789    .text.RegionUS915ApplyCFList:00000000 RegionUS915ApplyCFList
C:\Users\EBANO_~1\AppData\Local\Temp\ccFRmLE5.s:897    .text.RegionUS915ApplyCFList:00000080 $d
C:\Users\EBANO_~1\AppData\Local\Temp\ccFRmLE5.s:907    .text.RegionUS915ChanMaskSet:00000000 $t
C:\Users\EBANO_~1\AppData\Local\Temp\ccFRmLE5.s:915    .text.RegionUS915ChanMaskSet:00000000 RegionUS915ChanMaskSet
C:\Users\EBANO_~1\AppData\Local\Temp\ccFRmLE5.s:1028   .text.RegionUS915ChanMaskSet:0000007c $d
C:\Users\EBANO_~1\AppData\Local\Temp\ccFRmLE5.s:1037   .text.RegionUS915ComputeRxWindowParameters:00000000 $t
C:\Users\EBANO_~1\AppData\Local\Temp\ccFRmLE5.s:1045   .text.RegionUS915ComputeRxWindowParameters:00000000 RegionUS915ComputeRxWindowParameters
C:\Users\EBANO_~1\AppData\Local\Temp\ccFRmLE5.s:1165   .text.RegionUS915ComputeRxWindowParameters:00000070 $d
C:\Users\EBANO_~1\AppData\Local\Temp\ccFRmLE5.s:1175   .text.RegionUS915RxConfig:00000000 $t
C:\Users\EBANO_~1\AppData\Local\Temp\ccFRmLE5.s:1183   .text.RegionUS915RxConfig:00000000 RegionUS915RxConfig
C:\Users\EBANO_~1\AppData\Local\Temp\ccFRmLE5.s:1343   .text.RegionUS915RxConfig:000000b0 $d
C:\Users\EBANO_~1\AppData\Local\Temp\ccFRmLE5.s:1352   .text.RegionUS915TxConfig:00000000 $t
C:\Users\EBANO_~1\AppData\Local\Temp\ccFRmLE5.s:1360   .text.RegionUS915TxConfig:00000000 RegionUS915TxConfig
C:\Users\EBANO_~1\AppData\Local\Temp\ccFRmLE5.s:1631   .text.RegionUS915TxConfig:00000110 $d
C:\Users\EBANO_~1\AppData\Local\Temp\ccFRmLE5.s:1644   .text.RegionUS915LinkAdrReq:00000000 $t
C:\Users\EBANO_~1\AppData\Local\Temp\ccFRmLE5.s:1652   .text.RegionUS915LinkAdrReq:00000000 RegionUS915LinkAdrReq
C:\Users\EBANO_~1\AppData\Local\Temp\ccFRmLE5.s:2247   .text.RegionUS915LinkAdrReq:000002ac $d
C:\Users\EBANO_~1\AppData\Local\Temp\ccFRmLE5.s:2261   .text.RegionUS915RxParamSetupReq:00000000 $t
C:\Users\EBANO_~1\AppData\Local\Temp\ccFRmLE5.s:2269   .text.RegionUS915RxParamSetupReq:00000000 RegionUS915RxParamSetupReq
C:\Users\EBANO_~1\AppData\Local\Temp\ccFRmLE5.s:2405   .text.RegionUS915RxParamSetupReq:00000080 $d
C:\Users\EBANO_~1\AppData\Local\Temp\ccFRmLE5.s:2413   .text.RegionUS915NewChannelReq:00000000 $t
C:\Users\EBANO_~1\AppData\Local\Temp\ccFRmLE5.s:2421   .text.RegionUS915NewChannelReq:00000000 RegionUS915NewChannelReq
C:\Users\EBANO_~1\AppData\Local\Temp\ccFRmLE5.s:2438   .text.RegionUS915TxParamSetupReq:00000000 $t
C:\Users\EBANO_~1\AppData\Local\Temp\ccFRmLE5.s:2446   .text.RegionUS915TxParamSetupReq:00000000 RegionUS915TxParamSetupReq
C:\Users\EBANO_~1\AppData\Local\Temp\ccFRmLE5.s:2465   .text.RegionUS915DlChannelReq:00000000 $t
C:\Users\EBANO_~1\AppData\Local\Temp\ccFRmLE5.s:2473   .text.RegionUS915DlChannelReq:00000000 RegionUS915DlChannelReq
C:\Users\EBANO_~1\AppData\Local\Temp\ccFRmLE5.s:2486   .text.RegionUS915AlternateDr:00000000 $t
C:\Users\EBANO_~1\AppData\Local\Temp\ccFRmLE5.s:2494   .text.RegionUS915AlternateDr:00000000 RegionUS915AlternateDr
C:\Users\EBANO_~1\AppData\Local\Temp\ccFRmLE5.s:2545   .text.RegionUS915AlternateDr:0000002c $d
C:\Users\EBANO_~1\AppData\Local\Temp\ccFRmLE5.s:2551   .text.RegionUS915CalcBackOff:00000000 $t
C:\Users\EBANO_~1\AppData\Local\Temp\ccFRmLE5.s:2559   .text.RegionUS915CalcBackOff:00000000 RegionUS915CalcBackOff
C:\Users\EBANO_~1\AppData\Local\Temp\ccFRmLE5.s:2621   .text.RegionUS915CalcBackOff:00000038 $d
C:\Users\EBANO_~1\AppData\Local\Temp\ccFRmLE5.s:2626   .text.RegionUS915NextChannel:00000000 $t
C:\Users\EBANO_~1\AppData\Local\Temp\ccFRmLE5.s:2634   .text.RegionUS915NextChannel:00000000 RegionUS915NextChannel
C:\Users\EBANO_~1\AppData\Local\Temp\ccFRmLE5.s:3352   .text.RegionUS915NextChannel:00000304 $d
C:\Users\EBANO_~1\AppData\Local\Temp\ccFRmLE5.s:3362   .text.RegionUS915ChannelAdd:00000000 $t
C:\Users\EBANO_~1\AppData\Local\Temp\ccFRmLE5.s:3370   .text.RegionUS915ChannelAdd:00000000 RegionUS915ChannelAdd
ARM GAS  C:\Users\EBANO_~1\AppData\Local\Temp\ccFRmLE5.s 			page 341


C:\Users\EBANO_~1\AppData\Local\Temp\ccFRmLE5.s:3387   .text.RegionUS915ChannelsRemove:00000000 $t
C:\Users\EBANO_~1\AppData\Local\Temp\ccFRmLE5.s:3395   .text.RegionUS915ChannelsRemove:00000000 RegionUS915ChannelsRemove
C:\Users\EBANO_~1\AppData\Local\Temp\ccFRmLE5.s:3412   .text.RegionUS915SetContinuousWave:00000000 $t
C:\Users\EBANO_~1\AppData\Local\Temp\ccFRmLE5.s:3420   .text.RegionUS915SetContinuousWave:00000000 RegionUS915SetContinuousWave
C:\Users\EBANO_~1\AppData\Local\Temp\ccFRmLE5.s:3577   .text.RegionUS915SetContinuousWave:00000084 $d
C:\Users\EBANO_~1\AppData\Local\Temp\ccFRmLE5.s:3586   .text.RegionUS915ApplyDrOffset:00000000 $t
C:\Users\EBANO_~1\AppData\Local\Temp\ccFRmLE5.s:3594   .text.RegionUS915ApplyDrOffset:00000000 RegionUS915ApplyDrOffset
C:\Users\EBANO_~1\AppData\Local\Temp\ccFRmLE5.s:3626   .text.RegionUS915ApplyDrOffset:00000018 $d
C:\Users\EBANO_~1\AppData\Local\Temp\ccFRmLE5.s:3631   .text.RegionUS915RxBeaconSetup:00000000 $t
C:\Users\EBANO_~1\AppData\Local\Temp\ccFRmLE5.s:3639   .text.RegionUS915RxBeaconSetup:00000000 RegionUS915RxBeaconSetup
C:\Users\EBANO_~1\AppData\Local\Temp\ccFRmLE5.s:3699   .text.RegionUS915RxBeaconSetup:00000030 $d
C:\Users\EBANO_~1\AppData\Local\Temp\ccFRmLE5.s:3705   .bss:00000000 $d
C:\Users\EBANO_~1\AppData\Local\Temp\ccFRmLE5.s:3715   .rodata:000000ec BandwidthsUS915
C:\Users\EBANO_~1\AppData\Local\Temp\ccFRmLE5.s:3734   .rodata:0000012c DataratesUS915
C:\Users\EBANO_~1\AppData\Local\Temp\ccFRmLE5.s:3753   .rodata:0000013c DatarateOffsetsUS915
C:\Users\EBANO_~1\AppData\Local\Temp\ccFRmLE5.s:3778   .rodata:00000150 MaxPayloadOfDatarateUS915
C:\Users\EBANO_~1\AppData\Local\Temp\ccFRmLE5.s:3797   .rodata:00000160 MaxPayloadOfDatarateRepeaterUS915

UNDEFINED SYMBOLS
randr
RegionCommonSetBandTxDone
memcpy1
RegionCommonChanMaskCopy
RegionCommonValueInRange
RegionCommonCountChannels
RegionCommonComputeSymbolTimeLoRa
RegionCommonComputeRxWindowParameters
Radio
RegionCommonComputeTxPower
memset
RegionCommonParseLinkAdrReq
RegionCommonLinkAdrReqVerifyParams
__aeabi_uidivmod
RegionCommonCalcBackOff
TimerGetElapsedTime
RegionCommonUpdateBandTimeOff
RegionCommonChanDisable
RegionCommonRxBeaconSetup
