ARM GAS  C:\Users\EBANO_~1\AppData\Local\Temp\ccizkeXa.s 			page 1


   1              		.cpu cortex-m0plus
   2              		.eabi_attribute 20, 1
   3              		.eabi_attribute 21, 1
   4              		.eabi_attribute 23, 3
   5              		.eabi_attribute 24, 1
   6              		.eabi_attribute 25, 1
   7              		.eabi_attribute 26, 1
   8              		.eabi_attribute 30, 2
   9              		.eabi_attribute 34, 0
  10              		.eabi_attribute 18, 4
  11              		.file	"RegionCommon.c"
  12              		.text
  13              	.Ltext0:
  14              		.cfi_sections	.debug_frame
  15              		.section	.text.RegionCommonGetJoinDc,"ax",%progbits
  16              		.align	1
  17              		.p2align 2,,3
  18              		.global	RegionCommonGetJoinDc
  19              		.syntax unified
  20              		.code	16
  21              		.thumb_func
  22              		.fpu softvfp
  23              		.type	RegionCommonGetJoinDc, %function
  24              	RegionCommonGetJoinDc:
  25              	.LFB40:
  26              		.file 1 "../../../../../../Middlewares/Third_Party/LoRaWAN/Mac/region/RegionCommon.c"
   1:../../../../../../Middlewares/Third_Party/LoRaWAN/Mac/region/RegionCommon.c **** /*!
   2:../../../../../../Middlewares/Third_Party/LoRaWAN/Mac/region/RegionCommon.c ****  * \file      RegionCommon.c
   3:../../../../../../Middlewares/Third_Party/LoRaWAN/Mac/region/RegionCommon.c ****  *
   4:../../../../../../Middlewares/Third_Party/LoRaWAN/Mac/region/RegionCommon.c ****  * \brief     LoRa MAC common region implementation
   5:../../../../../../Middlewares/Third_Party/LoRaWAN/Mac/region/RegionCommon.c ****  *
   6:../../../../../../Middlewares/Third_Party/LoRaWAN/Mac/region/RegionCommon.c ****  * \copyright Revised BSD License, see section \ref LICENSE.
   7:../../../../../../Middlewares/Third_Party/LoRaWAN/Mac/region/RegionCommon.c ****  *
   8:../../../../../../Middlewares/Third_Party/LoRaWAN/Mac/region/RegionCommon.c ****  * \code
   9:../../../../../../Middlewares/Third_Party/LoRaWAN/Mac/region/RegionCommon.c ****  *                ______                              _
  10:../../../../../../Middlewares/Third_Party/LoRaWAN/Mac/region/RegionCommon.c ****  *               / _____)             _              | |
  11:../../../../../../Middlewares/Third_Party/LoRaWAN/Mac/region/RegionCommon.c ****  *              ( (____  _____ ____ _| |_ _____  ____| |__
  12:../../../../../../Middlewares/Third_Party/LoRaWAN/Mac/region/RegionCommon.c ****  *               \____ \| ___ |    (_   _) ___ |/ ___)  _ \
  13:../../../../../../Middlewares/Third_Party/LoRaWAN/Mac/region/RegionCommon.c ****  *               _____) ) ____| | | || |_| ____( (___| | | |
  14:../../../../../../Middlewares/Third_Party/LoRaWAN/Mac/region/RegionCommon.c ****  *              (______/|_____)_|_|_| \__)_____)\____)_| |_|
  15:../../../../../../Middlewares/Third_Party/LoRaWAN/Mac/region/RegionCommon.c ****  *              (C)2013-2017 Semtech
  16:../../../../../../Middlewares/Third_Party/LoRaWAN/Mac/region/RegionCommon.c ****  *
  17:../../../../../../Middlewares/Third_Party/LoRaWAN/Mac/region/RegionCommon.c ****  *               ___ _____ _   ___ _  _____ ___  ___  ___ ___
  18:../../../../../../Middlewares/Third_Party/LoRaWAN/Mac/region/RegionCommon.c ****  *              / __|_   _/_\ / __| |/ / __/ _ \| _ \/ __| __|
  19:../../../../../../Middlewares/Third_Party/LoRaWAN/Mac/region/RegionCommon.c ****  *              \__ \ | |/ _ \ (__| ' <| _| (_) |   / (__| _|
  20:../../../../../../Middlewares/Third_Party/LoRaWAN/Mac/region/RegionCommon.c ****  *              |___/ |_/_/ \_\___|_|\_\_| \___/|_|_\\___|___|
  21:../../../../../../Middlewares/Third_Party/LoRaWAN/Mac/region/RegionCommon.c ****  *              embedded.connectivity.solutions===============
  22:../../../../../../Middlewares/Third_Party/LoRaWAN/Mac/region/RegionCommon.c ****  *
  23:../../../../../../Middlewares/Third_Party/LoRaWAN/Mac/region/RegionCommon.c ****  * \endcode
  24:../../../../../../Middlewares/Third_Party/LoRaWAN/Mac/region/RegionCommon.c ****  *
  25:../../../../../../Middlewares/Third_Party/LoRaWAN/Mac/region/RegionCommon.c ****  * \author    Miguel Luis ( Semtech )
  26:../../../../../../Middlewares/Third_Party/LoRaWAN/Mac/region/RegionCommon.c ****  *
  27:../../../../../../Middlewares/Third_Party/LoRaWAN/Mac/region/RegionCommon.c ****  * \author    Gregory Cristian ( Semtech )
  28:../../../../../../Middlewares/Third_Party/LoRaWAN/Mac/region/RegionCommon.c ****  *
  29:../../../../../../Middlewares/Third_Party/LoRaWAN/Mac/region/RegionCommon.c ****  * \author    Daniel Jaeckle ( STACKFORCE )
  30:../../../../../../Middlewares/Third_Party/LoRaWAN/Mac/region/RegionCommon.c ****  */
  31:../../../../../../Middlewares/Third_Party/LoRaWAN/Mac/region/RegionCommon.c **** #include <math.h>
ARM GAS  C:\Users\EBANO_~1\AppData\Local\Temp\ccizkeXa.s 			page 2


  32:../../../../../../Middlewares/Third_Party/LoRaWAN/Mac/region/RegionCommon.c **** #include "radio.h"
  33:../../../../../../Middlewares/Third_Party/LoRaWAN/Mac/region/RegionCommon.c **** #include "utilities.h"
  34:../../../../../../Middlewares/Third_Party/LoRaWAN/Mac/region/RegionCommon.c **** #include "RegionCommon.h"
  35:../../../../../../Middlewares/Third_Party/LoRaWAN/Mac/region/RegionCommon.c **** 
  36:../../../../../../Middlewares/Third_Party/LoRaWAN/Mac/region/RegionCommon.c **** #define BACKOFF_DC_1_HOUR       100
  37:../../../../../../Middlewares/Third_Party/LoRaWAN/Mac/region/RegionCommon.c **** #define BACKOFF_DC_10_HOURS     1000
  38:../../../../../../Middlewares/Third_Party/LoRaWAN/Mac/region/RegionCommon.c **** #define BACKOFF_DC_24_HOURS     10000
  39:../../../../../../Middlewares/Third_Party/LoRaWAN/Mac/region/RegionCommon.c **** 
  40:../../../../../../Middlewares/Third_Party/LoRaWAN/Mac/region/RegionCommon.c **** static uint8_t CountChannels( uint16_t mask, uint8_t nbBits )
  41:../../../../../../Middlewares/Third_Party/LoRaWAN/Mac/region/RegionCommon.c **** {
  42:../../../../../../Middlewares/Third_Party/LoRaWAN/Mac/region/RegionCommon.c ****     uint8_t nbActiveBits = 0;
  43:../../../../../../Middlewares/Third_Party/LoRaWAN/Mac/region/RegionCommon.c **** 
  44:../../../../../../Middlewares/Third_Party/LoRaWAN/Mac/region/RegionCommon.c ****     for( uint8_t j = 0; j < nbBits; j++ )
  45:../../../../../../Middlewares/Third_Party/LoRaWAN/Mac/region/RegionCommon.c ****     {
  46:../../../../../../Middlewares/Third_Party/LoRaWAN/Mac/region/RegionCommon.c ****         if( ( mask & ( 1 << j ) ) == ( 1 << j ) )
  47:../../../../../../Middlewares/Third_Party/LoRaWAN/Mac/region/RegionCommon.c ****         {
  48:../../../../../../Middlewares/Third_Party/LoRaWAN/Mac/region/RegionCommon.c ****             nbActiveBits++;
  49:../../../../../../Middlewares/Third_Party/LoRaWAN/Mac/region/RegionCommon.c ****         }
  50:../../../../../../Middlewares/Third_Party/LoRaWAN/Mac/region/RegionCommon.c ****     }
  51:../../../../../../Middlewares/Third_Party/LoRaWAN/Mac/region/RegionCommon.c ****     return nbActiveBits;
  52:../../../../../../Middlewares/Third_Party/LoRaWAN/Mac/region/RegionCommon.c **** }
  53:../../../../../../Middlewares/Third_Party/LoRaWAN/Mac/region/RegionCommon.c **** 
  54:../../../../../../Middlewares/Third_Party/LoRaWAN/Mac/region/RegionCommon.c **** uint16_t RegionCommonGetJoinDc( TimerTime_t elapsedTime )
  55:../../../../../../Middlewares/Third_Party/LoRaWAN/Mac/region/RegionCommon.c **** {
  27              		.loc 1 55 0
  28              		.cfi_startproc
  29              		@ args = 0, pretend = 0, frame = 0
  30              		@ frame_needed = 0, uses_anonymous_args = 0
  31              		@ link register save eliminated.
  32              	.LVL0:
  56:../../../../../../Middlewares/Third_Party/LoRaWAN/Mac/region/RegionCommon.c ****     uint16_t dutyCycle = 0;
  57:../../../../../../Middlewares/Third_Party/LoRaWAN/Mac/region/RegionCommon.c **** 
  58:../../../../../../Middlewares/Third_Party/LoRaWAN/Mac/region/RegionCommon.c ****     if( elapsedTime < 3600000 )
  33              		.loc 1 58 0
  34 0000 074B     		ldr	r3, .L6
  55:../../../../../../Middlewares/Third_Party/LoRaWAN/Mac/region/RegionCommon.c ****     uint16_t dutyCycle = 0;
  35              		.loc 1 55 0
  36 0002 0200     		movs	r2, r0
  59:../../../../../../Middlewares/Third_Party/LoRaWAN/Mac/region/RegionCommon.c ****     {
  60:../../../../../../Middlewares/Third_Party/LoRaWAN/Mac/region/RegionCommon.c ****         dutyCycle = BACKOFF_DC_1_HOUR;
  37              		.loc 1 60 0
  38 0004 6420     		movs	r0, #100
  39              	.LVL1:
  58:../../../../../../Middlewares/Third_Party/LoRaWAN/Mac/region/RegionCommon.c ****     {
  40              		.loc 1 58 0
  41 0006 9A42     		cmp	r2, r3
  42 0008 09D9     		bls	.L2
  61:../../../../../../Middlewares/Third_Party/LoRaWAN/Mac/region/RegionCommon.c ****     }
  62:../../../../../../Middlewares/Third_Party/LoRaWAN/Mac/region/RegionCommon.c ****     else if( elapsedTime < ( 3600000 + 36000000 ) )
  63:../../../../../../Middlewares/Third_Party/LoRaWAN/Mac/region/RegionCommon.c ****     {
  64:../../../../../../Middlewares/Third_Party/LoRaWAN/Mac/region/RegionCommon.c ****         dutyCycle = BACKOFF_DC_10_HOURS;
  65:../../../../../../Middlewares/Third_Party/LoRaWAN/Mac/region/RegionCommon.c ****     }
  66:../../../../../../Middlewares/Third_Party/LoRaWAN/Mac/region/RegionCommon.c ****     else
  67:../../../../../../Middlewares/Third_Party/LoRaWAN/Mac/region/RegionCommon.c ****     {
  68:../../../../../../Middlewares/Third_Party/LoRaWAN/Mac/region/RegionCommon.c ****         dutyCycle = BACKOFF_DC_24_HOURS;
  43              		.loc 1 68 0
  44 000a 0023     		movs	r3, #0
ARM GAS  C:\Users\EBANO_~1\AppData\Local\Temp\ccizkeXa.s 			page 3


  45 000c 0549     		ldr	r1, .L6+4
  46 000e 9142     		cmp	r1, r2
  47 0010 5B41     		adcs	r3, r3, r3
  48 0012 5842     		rsbs	r0, r3, #0
  49 0014 044B     		ldr	r3, .L6+8
  50 0016 1840     		ands	r0, r3
  51 0018 044B     		ldr	r3, .L6+12
  52 001a 9C46     		mov	ip, r3
  53 001c 6044     		add	r0, r0, ip
  54              	.L2:
  55              	.LVL2:
  69:../../../../../../Middlewares/Third_Party/LoRaWAN/Mac/region/RegionCommon.c ****     }
  70:../../../../../../Middlewares/Third_Party/LoRaWAN/Mac/region/RegionCommon.c ****     return dutyCycle;
  71:../../../../../../Middlewares/Third_Party/LoRaWAN/Mac/region/RegionCommon.c **** }
  56              		.loc 1 71 0
  57              		@ sp needed
  58 001e 7047     		bx	lr
  59              	.L7:
  60              		.align	2
  61              	.L6:
  62 0020 7FEE3600 		.word	3599999
  63 0024 7F3F5C02 		.word	39599999
  64 0028 D8DCFFFF 		.word	-9000
  65 002c 10270000 		.word	10000
  66              		.cfi_endproc
  67              	.LFE40:
  68              		.size	RegionCommonGetJoinDc, .-RegionCommonGetJoinDc
  69              		.section	.text.RegionCommonChanVerifyDr,"ax",%progbits
  70              		.align	1
  71              		.p2align 2,,3
  72              		.global	RegionCommonChanVerifyDr
  73              		.syntax unified
  74              		.code	16
  75              		.thumb_func
  76              		.fpu softvfp
  77              		.type	RegionCommonChanVerifyDr, %function
  78              	RegionCommonChanVerifyDr:
  79              	.LFB41:
  72:../../../../../../Middlewares/Third_Party/LoRaWAN/Mac/region/RegionCommon.c **** 
  73:../../../../../../Middlewares/Third_Party/LoRaWAN/Mac/region/RegionCommon.c **** bool RegionCommonChanVerifyDr( uint8_t nbChannels, uint16_t* channelsMask, int8_t dr, int8_t minDr,
  74:../../../../../../Middlewares/Third_Party/LoRaWAN/Mac/region/RegionCommon.c **** {
  80              		.loc 1 74 0
  81              		.cfi_startproc
  82              		@ args = 8, pretend = 0, frame = 0
  83              		@ frame_needed = 0, uses_anonymous_args = 0
  84              	.LVL3:
  85 0000 F0B5     		push	{r4, r5, r6, r7, lr}
  86              	.LCFI0:
  87              		.cfi_def_cfa_offset 20
  88              		.cfi_offset 4, -20
  89              		.cfi_offset 5, -16
  90              		.cfi_offset 6, -12
  91              		.cfi_offset 7, -8
  92              		.cfi_offset 14, -4
  93 0002 4546     		mov	r5, r8
  94 0004 DE46     		mov	lr, fp
  95 0006 5746     		mov	r7, r10
ARM GAS  C:\Users\EBANO_~1\AppData\Local\Temp\ccizkeXa.s 			page 4


  96 0008 4E46     		mov	r6, r9
  97 000a E0B5     		push	{r5, r6, r7, lr}
  98              	.LCFI1:
  99              		.cfi_def_cfa_offset 36
 100              		.cfi_offset 8, -36
 101              		.cfi_offset 9, -32
 102              		.cfi_offset 10, -28
 103              		.cfi_offset 11, -24
 104              		.loc 1 74 0
 105 000c 8846     		mov	r8, r1
 106 000e 1100     		movs	r1, r2
 107              	.LVL4:
 108 0010 09AA     		add	r2, sp, #36
 109              	.LVL5:
 110 0012 1278     		ldrb	r2, [r2]
 111              	.LVL6:
 112 0014 8446     		mov	ip, r0
 113 0016 52B2     		sxtb	r2, r2
 114              	.LVL7:
  75:../../../../../../Middlewares/Third_Party/LoRaWAN/Mac/region/RegionCommon.c ****     if( RegionCommonValueInRange( dr, minDr, maxDr ) == 0 )
  76:../../../../../../Middlewares/Third_Party/LoRaWAN/Mac/region/RegionCommon.c ****     {
  77:../../../../../../Middlewares/Third_Party/LoRaWAN/Mac/region/RegionCommon.c ****         return false;
 115              		.loc 1 77 0
 116 0018 0020     		movs	r0, #0
 117              	.LVL8:
 118              	.LBB36:
 119              	.LBB37:
  78:../../../../../../Middlewares/Third_Party/LoRaWAN/Mac/region/RegionCommon.c ****     }
  79:../../../../../../Middlewares/Third_Party/LoRaWAN/Mac/region/RegionCommon.c **** 
  80:../../../../../../Middlewares/Third_Party/LoRaWAN/Mac/region/RegionCommon.c ****     for( uint8_t i = 0, k = 0; i < nbChannels; i += 16, k++ )
  81:../../../../../../Middlewares/Third_Party/LoRaWAN/Mac/region/RegionCommon.c ****     {
  82:../../../../../../Middlewares/Third_Party/LoRaWAN/Mac/region/RegionCommon.c ****         for( uint8_t j = 0; j < 16; j++ )
  83:../../../../../../Middlewares/Third_Party/LoRaWAN/Mac/region/RegionCommon.c ****         {
  84:../../../../../../Middlewares/Third_Party/LoRaWAN/Mac/region/RegionCommon.c ****             if( ( ( channelsMask[k] & ( 1 << j ) ) != 0 ) )
  85:../../../../../../Middlewares/Third_Party/LoRaWAN/Mac/region/RegionCommon.c ****             {// Check datarate validity for enabled channels
  86:../../../../../../Middlewares/Third_Party/LoRaWAN/Mac/region/RegionCommon.c ****                 if( RegionCommonValueInRange( dr, ( channels[i + j].DrRange.Fields.Min & 0x0F ),
  87:../../../../../../Middlewares/Third_Party/LoRaWAN/Mac/region/RegionCommon.c ****                                                   ( channels[i + j].DrRange.Fields.Max & 0x0F ) ) =
  88:../../../../../../Middlewares/Third_Party/LoRaWAN/Mac/region/RegionCommon.c ****                 {
  89:../../../../../../Middlewares/Third_Party/LoRaWAN/Mac/region/RegionCommon.c ****                     // At least 1 channel has been found we can return OK.
  90:../../../../../../Middlewares/Third_Party/LoRaWAN/Mac/region/RegionCommon.c ****                     return true;
  91:../../../../../../Middlewares/Third_Party/LoRaWAN/Mac/region/RegionCommon.c ****                 }
  92:../../../../../../Middlewares/Third_Party/LoRaWAN/Mac/region/RegionCommon.c ****             }
  93:../../../../../../Middlewares/Third_Party/LoRaWAN/Mac/region/RegionCommon.c ****         }
  94:../../../../../../Middlewares/Third_Party/LoRaWAN/Mac/region/RegionCommon.c ****     }
  95:../../../../../../Middlewares/Third_Party/LoRaWAN/Mac/region/RegionCommon.c ****     return false;
  96:../../../../../../Middlewares/Third_Party/LoRaWAN/Mac/region/RegionCommon.c **** }
  97:../../../../../../Middlewares/Third_Party/LoRaWAN/Mac/region/RegionCommon.c **** 
  98:../../../../../../Middlewares/Third_Party/LoRaWAN/Mac/region/RegionCommon.c **** uint8_t RegionCommonValueInRange( int8_t value, int8_t min, int8_t max )
  99:../../../../../../Middlewares/Third_Party/LoRaWAN/Mac/region/RegionCommon.c **** {
 100:../../../../../../Middlewares/Third_Party/LoRaWAN/Mac/region/RegionCommon.c ****     if( ( value >= min ) && ( value <= max ) )
 120              		.loc 1 100 0
 121 001a 9942     		cmp	r1, r3
 122 001c 33DB     		blt	.L9
 123 001e 9142     		cmp	r1, r2
 124 0020 31DC     		bgt	.L9
 125              	.LVL9:
 126              	.LBE37:
ARM GAS  C:\Users\EBANO_~1\AppData\Local\Temp\ccizkeXa.s 			page 5


 127              	.LBE36:
 128              	.LBB38:
 129              	.LBB39:
  80:../../../../../../Middlewares/Third_Party/LoRaWAN/Mac/region/RegionCommon.c ****     {
 130              		.loc 1 80 0
 131 0022 6346     		mov	r3, ip
 132              	.LVL10:
 133 0024 002B     		cmp	r3, #0
 134 0026 2ED0     		beq	.L9
 135 0028 0023     		movs	r3, #0
 136              	.LBB40:
  84:../../../../../../Middlewares/Third_Party/LoRaWAN/Mac/region/RegionCommon.c ****             {// Check datarate validity for enabled channels
 137              		.loc 1 84 0
 138 002a 0122     		movs	r2, #1
 139              	.LVL11:
 140              	.LBE40:
  80:../../../../../../Middlewares/Third_Party/LoRaWAN/Mac/region/RegionCommon.c ****     {
 141              		.loc 1 80 0
 142 002c 9946     		mov	r9, r3
 143 002e 9A46     		mov	r10, r3
 144              	.LBB43:
  86:../../../../../../Middlewares/Third_Party/LoRaWAN/Mac/region/RegionCommon.c ****                                                   ( channels[i + j].DrRange.Fields.Max & 0x0F ) ) =
 145              		.loc 1 86 0
 146 0030 0F30     		adds	r0, r0, #15
 147              	.LVL12:
 148              	.L12:
  84:../../../../../../Middlewares/Third_Party/LoRaWAN/Mac/region/RegionCommon.c ****             {// Check datarate validity for enabled channels
 149              		.loc 1 84 0
 150 0032 5346     		mov	r3, r10
 151 0034 4446     		mov	r4, r8
 152 0036 5B00     		lsls	r3, r3, #1
 153 0038 1F5B     		ldrh	r7, [r3, r4]
 154 003a 4B46     		mov	r3, r9
 155 003c 5D00     		lsls	r5, r3, #1
 156 003e 0A9B     		ldr	r3, [sp, #40]
 157 0040 0024     		movs	r4, #0
 158 0042 9B46     		mov	fp, r3
 159 0044 4D44     		add	r5, r5, r9
 160 0046 AD00     		lsls	r5, r5, #2
 161 0048 5D44     		add	r5, r5, fp
 162              	.L11:
 163              	.LVL13:
 164 004a 3B00     		movs	r3, r7
 165 004c 2341     		asrs	r3, r3, r4
 166 004e 1A42     		tst	r2, r3
 167 0050 0AD0     		beq	.L10
  87:../../../../../../Middlewares/Third_Party/LoRaWAN/Mac/region/RegionCommon.c ****                 {
 168              		.loc 1 87 0
 169 0052 2B7A     		ldrb	r3, [r5, #8]
 170 0054 5EB2     		sxtb	r6, r3
  86:../../../../../../Middlewares/Third_Party/LoRaWAN/Mac/region/RegionCommon.c ****                                                   ( channels[i + j].DrRange.Fields.Max & 0x0F ) ) =
 171              		.loc 1 86 0
 172 0056 1B07     		lsls	r3, r3, #28
 173 0058 1B17     		asrs	r3, r3, #28
  87:../../../../../../Middlewares/Third_Party/LoRaWAN/Mac/region/RegionCommon.c ****                 {
 174              		.loc 1 87 0
 175 005a 3611     		asrs	r6, r6, #4
ARM GAS  C:\Users\EBANO_~1\AppData\Local\Temp\ccizkeXa.s 			page 6


 176              	.LVL14:
 177              	.LBB41:
 178              	.LBB42:
 179              		.loc 1 100 0
 180 005c 0340     		ands	r3, r0
 181 005e 9942     		cmp	r1, r3
 182 0060 02DB     		blt	.L10
 183 0062 0640     		ands	r6, r0
 184              	.LVL15:
 185 0064 B142     		cmp	r1, r6
 186 0066 14DD     		ble	.L16
 187              	.LVL16:
 188              	.L10:
 189 0068 0134     		adds	r4, r4, #1
 190              	.LVL17:
 191 006a 0C35     		adds	r5, r5, #12
 192              	.LBE42:
 193              	.LBE41:
  82:../../../../../../Middlewares/Third_Party/LoRaWAN/Mac/region/RegionCommon.c ****         {
 194              		.loc 1 82 0
 195 006c 102C     		cmp	r4, #16
 196 006e ECD1     		bne	.L11
 197              	.LBE43:
  80:../../../../../../Middlewares/Third_Party/LoRaWAN/Mac/region/RegionCommon.c ****     {
 198              		.loc 1 80 0
 199 0070 4B46     		mov	r3, r9
 200 0072 1033     		adds	r3, r3, #16
 201 0074 DBB2     		uxtb	r3, r3
 202 0076 9946     		mov	r9, r3
 203              	.LVL18:
 204 0078 5346     		mov	r3, r10
 205 007a 0133     		adds	r3, r3, #1
 206 007c DBB2     		uxtb	r3, r3
 207 007e 9A46     		mov	r10, r3
 208              	.LVL19:
 209 0080 CC45     		cmp	ip, r9
 210 0082 D6D8     		bhi	.L12
 211              	.LBE39:
 212              	.LBE38:
  77:../../../../../../Middlewares/Third_Party/LoRaWAN/Mac/region/RegionCommon.c ****     }
 213              		.loc 1 77 0
 214 0084 0020     		movs	r0, #0
 215              	.LVL20:
 216              	.L9:
  96:../../../../../../Middlewares/Third_Party/LoRaWAN/Mac/region/RegionCommon.c **** 
 217              		.loc 1 96 0
 218              		@ sp needed
 219              	.LVL21:
 220 0086 3CBC     		pop	{r2, r3, r4, r5}
 221 0088 9046     		mov	r8, r2
 222 008a 9946     		mov	r9, r3
 223 008c A246     		mov	r10, r4
 224 008e AB46     		mov	fp, r5
 225 0090 F0BD     		pop	{r4, r5, r6, r7, pc}
 226              	.LVL22:
 227              	.L16:
 228              	.LBB46:
ARM GAS  C:\Users\EBANO_~1\AppData\Local\Temp\ccizkeXa.s 			page 7


 229              	.LBB45:
 230              	.LBB44:
  90:../../../../../../Middlewares/Third_Party/LoRaWAN/Mac/region/RegionCommon.c ****                 }
 231              		.loc 1 90 0
 232 0092 0120     		movs	r0, #1
 233 0094 F7E7     		b	.L9
 234              	.LBE44:
 235              	.LBE45:
 236              	.LBE46:
 237              		.cfi_endproc
 238              	.LFE41:
 239              		.size	RegionCommonChanVerifyDr, .-RegionCommonChanVerifyDr
 240 0096 C046     		.section	.text.RegionCommonValueInRange,"ax",%progbits
 241              		.align	1
 242              		.p2align 2,,3
 243              		.global	RegionCommonValueInRange
 244              		.syntax unified
 245              		.code	16
 246              		.thumb_func
 247              		.fpu softvfp
 248              		.type	RegionCommonValueInRange, %function
 249              	RegionCommonValueInRange:
 250              	.LFB42:
  99:../../../../../../Middlewares/Third_Party/LoRaWAN/Mac/region/RegionCommon.c ****     if( ( value >= min ) && ( value <= max ) )
 251              		.loc 1 99 0
 252              		.cfi_startproc
 253              		@ args = 0, pretend = 0, frame = 0
 254              		@ frame_needed = 0, uses_anonymous_args = 0
 255              		@ link register save eliminated.
 256              	.LVL23:
 101:../../../../../../Middlewares/Third_Party/LoRaWAN/Mac/region/RegionCommon.c ****     {
 102:../../../../../../Middlewares/Third_Party/LoRaWAN/Mac/region/RegionCommon.c ****         return 1;
 103:../../../../../../Middlewares/Third_Party/LoRaWAN/Mac/region/RegionCommon.c ****     }
 104:../../../../../../Middlewares/Third_Party/LoRaWAN/Mac/region/RegionCommon.c ****     return 0;
 257              		.loc 1 104 0
 258 0000 0023     		movs	r3, #0
 100:../../../../../../Middlewares/Third_Party/LoRaWAN/Mac/region/RegionCommon.c ****     {
 259              		.loc 1 100 0
 260 0002 8842     		cmp	r0, r1
 261 0004 04DB     		blt	.L23
 100:../../../../../../Middlewares/Third_Party/LoRaWAN/Mac/region/RegionCommon.c ****     {
 262              		.loc 1 100 0 is_stmt 0 discriminator 1
 263 0006 C30F     		lsrs	r3, r0, #31
 264 0008 D117     		asrs	r1, r2, #31
 265              	.LVL24:
 266 000a 8242     		cmp	r2, r0
 267 000c 4B41     		adcs	r3, r3, r1
 102:../../../../../../Middlewares/Third_Party/LoRaWAN/Mac/region/RegionCommon.c ****     }
 268              		.loc 1 102 0 is_stmt 1 discriminator 1
 269 000e DBB2     		uxtb	r3, r3
 270              	.L23:
 105:../../../../../../Middlewares/Third_Party/LoRaWAN/Mac/region/RegionCommon.c **** }
 271              		.loc 1 105 0
 272 0010 1800     		movs	r0, r3
 273              	.LVL25:
 274              		@ sp needed
 275 0012 7047     		bx	lr
ARM GAS  C:\Users\EBANO_~1\AppData\Local\Temp\ccizkeXa.s 			page 8


 276              		.cfi_endproc
 277              	.LFE42:
 278              		.size	RegionCommonValueInRange, .-RegionCommonValueInRange
 279              		.section	.text.RegionCommonChanDisable,"ax",%progbits
 280              		.align	1
 281              		.p2align 2,,3
 282              		.global	RegionCommonChanDisable
 283              		.syntax unified
 284              		.code	16
 285              		.thumb_func
 286              		.fpu softvfp
 287              		.type	RegionCommonChanDisable, %function
 288              	RegionCommonChanDisable:
 289              	.LFB43:
 106:../../../../../../Middlewares/Third_Party/LoRaWAN/Mac/region/RegionCommon.c **** 
 107:../../../../../../Middlewares/Third_Party/LoRaWAN/Mac/region/RegionCommon.c **** bool RegionCommonChanDisable( uint16_t* channelsMask, uint8_t id, uint8_t maxChannels )
 108:../../../../../../Middlewares/Third_Party/LoRaWAN/Mac/region/RegionCommon.c **** {
 290              		.loc 1 108 0
 291              		.cfi_startproc
 292              		@ args = 0, pretend = 0, frame = 0
 293              		@ frame_needed = 0, uses_anonymous_args = 0
 294              	.LVL26:
 295 0000 30B5     		push	{r4, r5, lr}
 296              	.LCFI2:
 297              		.cfi_def_cfa_offset 12
 298              		.cfi_offset 4, -12
 299              		.cfi_offset 5, -8
 300              		.cfi_offset 14, -4
 109:../../../../../../Middlewares/Third_Party/LoRaWAN/Mac/region/RegionCommon.c ****     uint8_t index = id / 16;
 301              		.loc 1 109 0
 302 0002 0B09     		lsrs	r3, r1, #4
 303              	.LVL27:
 110:../../../../../../Middlewares/Third_Party/LoRaWAN/Mac/region/RegionCommon.c **** 
 111:../../../../../../Middlewares/Third_Party/LoRaWAN/Mac/region/RegionCommon.c ****     if( ( index > ( maxChannels / 16 ) ) || ( id >= maxChannels ) )
 304              		.loc 1 111 0
 305 0004 1509     		lsrs	r5, r2, #4
 112:../../../../../../Middlewares/Third_Party/LoRaWAN/Mac/region/RegionCommon.c ****     {
 113:../../../../../../Middlewares/Third_Party/LoRaWAN/Mac/region/RegionCommon.c ****         return false;
 306              		.loc 1 113 0
 307 0006 0024     		movs	r4, #0
 111:../../../../../../Middlewares/Third_Party/LoRaWAN/Mac/region/RegionCommon.c ****     {
 308              		.loc 1 111 0
 309 0008 9D42     		cmp	r5, r3
 310 000a 0BD3     		bcc	.L26
 111:../../../../../../Middlewares/Third_Party/LoRaWAN/Mac/region/RegionCommon.c ****     {
 311              		.loc 1 111 0 is_stmt 0 discriminator 1
 312 000c 9142     		cmp	r1, r2
 313 000e 09D2     		bcs	.L26
 114:../../../../../../Middlewares/Third_Party/LoRaWAN/Mac/region/RegionCommon.c ****     }
 115:../../../../../../Middlewares/Third_Party/LoRaWAN/Mac/region/RegionCommon.c **** 
 116:../../../../../../Middlewares/Third_Party/LoRaWAN/Mac/region/RegionCommon.c ****     // Deactivate channel
 117:../../../../../../Middlewares/Third_Party/LoRaWAN/Mac/region/RegionCommon.c ****     channelsMask[index] &= ~( 1 << ( id % 16 ) );
 314              		.loc 1 117 0 is_stmt 1
 315 0010 0F22     		movs	r2, #15
 316              	.LVL28:
 317 0012 0A40     		ands	r2, r1
 318 0014 0121     		movs	r1, #1
ARM GAS  C:\Users\EBANO_~1\AppData\Local\Temp\ccizkeXa.s 			page 9


 319              	.LVL29:
 320 0016 9140     		lsls	r1, r1, r2
 321 0018 5B00     		lsls	r3, r3, #1
 322              	.LVL30:
 323 001a C318     		adds	r3, r0, r3
 324 001c 1A88     		ldrh	r2, [r3]
 118:../../../../../../Middlewares/Third_Party/LoRaWAN/Mac/region/RegionCommon.c **** 
 119:../../../../../../Middlewares/Third_Party/LoRaWAN/Mac/region/RegionCommon.c ****     return true;
 325              		.loc 1 119 0
 326 001e 0134     		adds	r4, r4, #1
 117:../../../../../../Middlewares/Third_Party/LoRaWAN/Mac/region/RegionCommon.c **** 
 327              		.loc 1 117 0
 328 0020 8A43     		bics	r2, r1
 329 0022 1A80     		strh	r2, [r3]
 330              	.L26:
 120:../../../../../../Middlewares/Third_Party/LoRaWAN/Mac/region/RegionCommon.c **** }
 331              		.loc 1 120 0
 332 0024 2000     		movs	r0, r4
 333              	.LVL31:
 334              		@ sp needed
 335 0026 30BD     		pop	{r4, r5, pc}
 336              		.cfi_endproc
 337              	.LFE43:
 338              		.size	RegionCommonChanDisable, .-RegionCommonChanDisable
 339              		.section	.text.RegionCommonCountChannels,"ax",%progbits
 340              		.align	1
 341              		.p2align 2,,3
 342              		.global	RegionCommonCountChannels
 343              		.syntax unified
 344              		.code	16
 345              		.thumb_func
 346              		.fpu softvfp
 347              		.type	RegionCommonCountChannels, %function
 348              	RegionCommonCountChannels:
 349              	.LFB44:
 121:../../../../../../Middlewares/Third_Party/LoRaWAN/Mac/region/RegionCommon.c **** 
 122:../../../../../../Middlewares/Third_Party/LoRaWAN/Mac/region/RegionCommon.c **** uint8_t RegionCommonCountChannels( uint16_t* channelsMask, uint8_t startIdx, uint8_t stopIdx )
 123:../../../../../../Middlewares/Third_Party/LoRaWAN/Mac/region/RegionCommon.c **** {
 350              		.loc 1 123 0
 351              		.cfi_startproc
 352              		@ args = 0, pretend = 0, frame = 0
 353              		@ frame_needed = 0, uses_anonymous_args = 0
 354              	.LVL32:
 355 0000 F0B5     		push	{r4, r5, r6, r7, lr}
 356              	.LCFI3:
 357              		.cfi_def_cfa_offset 20
 358              		.cfi_offset 4, -20
 359              		.cfi_offset 5, -16
 360              		.cfi_offset 6, -12
 361              		.cfi_offset 7, -8
 362              		.cfi_offset 14, -4
 363 0002 DE46     		mov	lr, fp
 364 0004 5746     		mov	r7, r10
 365 0006 4E46     		mov	r6, r9
 366 0008 4546     		mov	r5, r8
 367 000a E0B5     		push	{r5, r6, r7, lr}
 368              	.LCFI4:
ARM GAS  C:\Users\EBANO_~1\AppData\Local\Temp\ccizkeXa.s 			page 10


 369              		.cfi_def_cfa_offset 36
 370              		.cfi_offset 8, -36
 371              		.cfi_offset 9, -32
 372              		.cfi_offset 10, -28
 373              		.cfi_offset 11, -24
 124:../../../../../../Middlewares/Third_Party/LoRaWAN/Mac/region/RegionCommon.c ****     uint8_t nbChannels = 0;
 125:../../../../../../Middlewares/Third_Party/LoRaWAN/Mac/region/RegionCommon.c **** 
 126:../../../../../../Middlewares/Third_Party/LoRaWAN/Mac/region/RegionCommon.c ****     if( channelsMask == NULL )
 374              		.loc 1 126 0
 375 000c 0028     		cmp	r0, #0
 376 000e 6BD0     		beq	.L50
 377              	.LVL33:
 378              	.LBB47:
 127:../../../../../../Middlewares/Third_Party/LoRaWAN/Mac/region/RegionCommon.c ****     {
 128:../../../../../../Middlewares/Third_Party/LoRaWAN/Mac/region/RegionCommon.c ****         return 0;
 129:../../../../../../Middlewares/Third_Party/LoRaWAN/Mac/region/RegionCommon.c ****     }
 130:../../../../../../Middlewares/Third_Party/LoRaWAN/Mac/region/RegionCommon.c **** 
 131:../../../../../../Middlewares/Third_Party/LoRaWAN/Mac/region/RegionCommon.c ****     for( uint8_t i = startIdx; i < stopIdx; i++ )
 379              		.loc 1 131 0
 380 0010 9142     		cmp	r1, r2
 381 0012 69D2     		bcs	.L50
 382 0014 013A     		subs	r2, r2, #1
 383              	.LVL34:
 384 0016 531A     		subs	r3, r2, r1
 385 0018 DBB2     		uxtb	r3, r3
 386 001a 4C00     		lsls	r4, r1, #1
 387 001c 5918     		adds	r1, r3, r1
 388              	.LVL35:
 389              	.LBB48:
 390              	.LBB49:
  42:../../../../../../Middlewares/Third_Party/LoRaWAN/Mac/region/RegionCommon.c **** 
 391              		.loc 1 42 0
 392 001e 0123     		movs	r3, #1
 393 0020 9B46     		mov	fp, r3
 394              	.LBB50:
  46:../../../../../../Middlewares/Third_Party/LoRaWAN/Mac/region/RegionCommon.c ****         {
 395              		.loc 1 46 0
 396 0022 0133     		adds	r3, r3, #1
 397 0024 9A46     		mov	r10, r3
 398 0026 0233     		adds	r3, r3, #2
 399 0028 9946     		mov	r9, r3
 400 002a 0433     		adds	r3, r3, #4
 401 002c 0419     		adds	r4, r0, r4
 402 002e 4900     		lsls	r1, r1, #1
 403 0030 0230     		adds	r0, r0, #2
 404              	.LVL36:
 405 0032 9846     		mov	r8, r3
 406 0034 0833     		adds	r3, r3, #8
 407 0036 0918     		adds	r1, r1, r0
 408 0038 9C46     		mov	ip, r3
 409              	.LBE50:
 410              	.LBE49:
 411              	.LBE48:
 412              	.LBE47:
 124:../../../../../../Middlewares/Third_Party/LoRaWAN/Mac/region/RegionCommon.c **** 
 413              		.loc 1 124 0
 414 003a 0020     		movs	r0, #0
ARM GAS  C:\Users\EBANO_~1\AppData\Local\Temp\ccizkeXa.s 			page 11


 415              	.LVL37:
 416              	.LBB61:
 417              	.LBB58:
 418              	.LBB55:
 419              	.LBB51:
  46:../../../../../../Middlewares/Third_Party/LoRaWAN/Mac/region/RegionCommon.c ****         {
 420              		.loc 1 46 0
 421 003c 2027     		movs	r7, #32
 422 003e 4026     		movs	r6, #64
 423              	.LVL38:
 424              	.L31:
 425              	.LBE51:
  42:../../../../../../Middlewares/Third_Party/LoRaWAN/Mac/region/RegionCommon.c **** 
 426              		.loc 1 42 0
 427 0040 5B46     		mov	r3, fp
 428              	.LBB52:
  46:../../../../../../Middlewares/Third_Party/LoRaWAN/Mac/region/RegionCommon.c ****         {
 429              		.loc 1 46 0
 430 0042 5546     		mov	r5, r10
 431              	.LBE52:
 432              	.LBE55:
 433              	.LBE58:
 132:../../../../../../Middlewares/Third_Party/LoRaWAN/Mac/region/RegionCommon.c ****     {
 133:../../../../../../Middlewares/Third_Party/LoRaWAN/Mac/region/RegionCommon.c ****         nbChannels += CountChannels( channelsMask[i], 16 );
 434              		.loc 1 133 0
 435 0044 2288     		ldrh	r2, [r4]
 436              	.LVL39:
 437              	.LBB59:
 438              	.LBB56:
  42:../../../../../../Middlewares/Third_Party/LoRaWAN/Mac/region/RegionCommon.c **** 
 439              		.loc 1 42 0
 440 0046 1340     		ands	r3, r2
 441              	.LVL40:
 442              	.LBB53:
  46:../../../../../../Middlewares/Third_Party/LoRaWAN/Mac/region/RegionCommon.c ****         {
 443              		.loc 1 46 0
 444 0048 1542     		tst	r5, r2
 445 004a 00D0     		beq	.L32
  48:../../../../../../Middlewares/Third_Party/LoRaWAN/Mac/region/RegionCommon.c ****         }
 446              		.loc 1 48 0
 447 004c 0133     		adds	r3, r3, #1
 448              	.LVL41:
 449              	.L32:
  46:../../../../../../Middlewares/Third_Party/LoRaWAN/Mac/region/RegionCommon.c ****         {
 450              		.loc 1 46 0
 451 004e 4D46     		mov	r5, r9
 452 0050 1542     		tst	r5, r2
 453 0052 01D0     		beq	.L33
  48:../../../../../../Middlewares/Third_Party/LoRaWAN/Mac/region/RegionCommon.c ****         }
 454              		.loc 1 48 0
 455 0054 0133     		adds	r3, r3, #1
 456              	.LVL42:
 457 0056 DBB2     		uxtb	r3, r3
 458              	.LVL43:
 459              	.L33:
  46:../../../../../../Middlewares/Third_Party/LoRaWAN/Mac/region/RegionCommon.c ****         {
 460              		.loc 1 46 0
ARM GAS  C:\Users\EBANO_~1\AppData\Local\Temp\ccizkeXa.s 			page 12


 461 0058 4546     		mov	r5, r8
 462 005a 1542     		tst	r5, r2
 463 005c 01D0     		beq	.L34
  48:../../../../../../Middlewares/Third_Party/LoRaWAN/Mac/region/RegionCommon.c ****         }
 464              		.loc 1 48 0
 465 005e 0133     		adds	r3, r3, #1
 466              	.LVL44:
 467 0060 DBB2     		uxtb	r3, r3
 468              	.LVL45:
 469              	.L34:
  46:../../../../../../Middlewares/Third_Party/LoRaWAN/Mac/region/RegionCommon.c ****         {
 470              		.loc 1 46 0
 471 0062 6546     		mov	r5, ip
 472 0064 1542     		tst	r5, r2
 473 0066 01D0     		beq	.L35
  48:../../../../../../Middlewares/Third_Party/LoRaWAN/Mac/region/RegionCommon.c ****         }
 474              		.loc 1 48 0
 475 0068 0133     		adds	r3, r3, #1
 476              	.LVL46:
 477 006a DBB2     		uxtb	r3, r3
 478              	.LVL47:
 479              	.L35:
  46:../../../../../../Middlewares/Third_Party/LoRaWAN/Mac/region/RegionCommon.c ****         {
 480              		.loc 1 46 0
 481 006c 1742     		tst	r7, r2
 482 006e 01D0     		beq	.L36
  48:../../../../../../Middlewares/Third_Party/LoRaWAN/Mac/region/RegionCommon.c ****         }
 483              		.loc 1 48 0
 484 0070 0133     		adds	r3, r3, #1
 485              	.LVL48:
 486 0072 DBB2     		uxtb	r3, r3
 487              	.LVL49:
 488              	.L36:
  46:../../../../../../Middlewares/Third_Party/LoRaWAN/Mac/region/RegionCommon.c ****         {
 489              		.loc 1 46 0
 490 0074 1642     		tst	r6, r2
 491 0076 01D0     		beq	.L37
  48:../../../../../../Middlewares/Third_Party/LoRaWAN/Mac/region/RegionCommon.c ****         }
 492              		.loc 1 48 0
 493 0078 0133     		adds	r3, r3, #1
 494              	.LVL50:
 495 007a DBB2     		uxtb	r3, r3
 496              	.LVL51:
 497              	.L37:
  46:../../../../../../Middlewares/Third_Party/LoRaWAN/Mac/region/RegionCommon.c ****         {
 498              		.loc 1 46 0
 499 007c 8025     		movs	r5, #128
 500 007e 1542     		tst	r5, r2
 501 0080 01D0     		beq	.L38
  48:../../../../../../Middlewares/Third_Party/LoRaWAN/Mac/region/RegionCommon.c ****         }
 502              		.loc 1 48 0
 503 0082 0133     		adds	r3, r3, #1
 504              	.LVL52:
 505 0084 DBB2     		uxtb	r3, r3
 506              	.LVL53:
 507              	.L38:
  46:../../../../../../Middlewares/Third_Party/LoRaWAN/Mac/region/RegionCommon.c ****         {
ARM GAS  C:\Users\EBANO_~1\AppData\Local\Temp\ccizkeXa.s 			page 13


 508              		.loc 1 46 0
 509 0086 D505     		lsls	r5, r2, #23
 510 0088 01D5     		bpl	.L39
  48:../../../../../../Middlewares/Third_Party/LoRaWAN/Mac/region/RegionCommon.c ****         }
 511              		.loc 1 48 0
 512 008a 0133     		adds	r3, r3, #1
 513              	.LVL54:
 514 008c DBB2     		uxtb	r3, r3
 515              	.LVL55:
 516              	.L39:
  46:../../../../../../Middlewares/Third_Party/LoRaWAN/Mac/region/RegionCommon.c ****         {
 517              		.loc 1 46 0
 518 008e 9505     		lsls	r5, r2, #22
 519 0090 01D5     		bpl	.L40
  48:../../../../../../Middlewares/Third_Party/LoRaWAN/Mac/region/RegionCommon.c ****         }
 520              		.loc 1 48 0
 521 0092 0133     		adds	r3, r3, #1
 522              	.LVL56:
 523 0094 DBB2     		uxtb	r3, r3
 524              	.LVL57:
 525              	.L40:
  46:../../../../../../Middlewares/Third_Party/LoRaWAN/Mac/region/RegionCommon.c ****         {
 526              		.loc 1 46 0
 527 0096 5505     		lsls	r5, r2, #21
 528 0098 01D5     		bpl	.L41
  48:../../../../../../Middlewares/Third_Party/LoRaWAN/Mac/region/RegionCommon.c ****         }
 529              		.loc 1 48 0
 530 009a 0133     		adds	r3, r3, #1
 531              	.LVL58:
 532 009c DBB2     		uxtb	r3, r3
 533              	.LVL59:
 534              	.L41:
  46:../../../../../../Middlewares/Third_Party/LoRaWAN/Mac/region/RegionCommon.c ****         {
 535              		.loc 1 46 0
 536 009e 1505     		lsls	r5, r2, #20
 537 00a0 01D5     		bpl	.L42
  48:../../../../../../Middlewares/Third_Party/LoRaWAN/Mac/region/RegionCommon.c ****         }
 538              		.loc 1 48 0
 539 00a2 0133     		adds	r3, r3, #1
 540              	.LVL60:
 541 00a4 DBB2     		uxtb	r3, r3
 542              	.LVL61:
 543              	.L42:
  46:../../../../../../Middlewares/Third_Party/LoRaWAN/Mac/region/RegionCommon.c ****         {
 544              		.loc 1 46 0
 545 00a6 D504     		lsls	r5, r2, #19
 546 00a8 01D5     		bpl	.L43
  48:../../../../../../Middlewares/Third_Party/LoRaWAN/Mac/region/RegionCommon.c ****         }
 547              		.loc 1 48 0
 548 00aa 0133     		adds	r3, r3, #1
 549              	.LVL62:
 550 00ac DBB2     		uxtb	r3, r3
 551              	.LVL63:
 552              	.L43:
  46:../../../../../../Middlewares/Third_Party/LoRaWAN/Mac/region/RegionCommon.c ****         {
 553              		.loc 1 46 0
 554 00ae 9504     		lsls	r5, r2, #18
ARM GAS  C:\Users\EBANO_~1\AppData\Local\Temp\ccizkeXa.s 			page 14


 555 00b0 01D5     		bpl	.L44
  48:../../../../../../Middlewares/Third_Party/LoRaWAN/Mac/region/RegionCommon.c ****         }
 556              		.loc 1 48 0
 557 00b2 0133     		adds	r3, r3, #1
 558              	.LVL64:
 559 00b4 DBB2     		uxtb	r3, r3
 560              	.LVL65:
 561              	.L44:
  46:../../../../../../Middlewares/Third_Party/LoRaWAN/Mac/region/RegionCommon.c ****         {
 562              		.loc 1 46 0
 563 00b6 5504     		lsls	r5, r2, #17
 564 00b8 01D5     		bpl	.L45
  48:../../../../../../Middlewares/Third_Party/LoRaWAN/Mac/region/RegionCommon.c ****         }
 565              		.loc 1 48 0
 566 00ba 0133     		adds	r3, r3, #1
 567              	.LVL66:
 568 00bc DBB2     		uxtb	r3, r3
 569              	.LVL67:
 570              	.L45:
  46:../../../../../../Middlewares/Third_Party/LoRaWAN/Mac/region/RegionCommon.c ****         {
 571              		.loc 1 46 0
 572 00be 12B2     		sxth	r2, r2
 573 00c0 002A     		cmp	r2, #0
 574 00c2 0ADB     		blt	.L93
 575              	.LVL68:
 576              	.LBE53:
 577              	.LBE56:
 578              	.LBE59:
 579              		.loc 1 133 0
 580 00c4 C018     		adds	r0, r0, r3
 581              	.LVL69:
 582 00c6 0234     		adds	r4, r4, #2
 583 00c8 C0B2     		uxtb	r0, r0
 584              	.LVL70:
 131:../../../../../../Middlewares/Third_Party/LoRaWAN/Mac/region/RegionCommon.c ****     {
 585              		.loc 1 131 0
 586 00ca A142     		cmp	r1, r4
 587 00cc B8D1     		bne	.L31
 588              	.LVL71:
 589              	.L30:
 590              	.LBE61:
 134:../../../../../../Middlewares/Third_Party/LoRaWAN/Mac/region/RegionCommon.c ****     }
 135:../../../../../../Middlewares/Third_Party/LoRaWAN/Mac/region/RegionCommon.c **** 
 136:../../../../../../Middlewares/Third_Party/LoRaWAN/Mac/region/RegionCommon.c ****     return nbChannels;
 137:../../../../../../Middlewares/Third_Party/LoRaWAN/Mac/region/RegionCommon.c **** }
 591              		.loc 1 137 0
 592              		@ sp needed
 593 00ce 3CBC     		pop	{r2, r3, r4, r5}
 594 00d0 9046     		mov	r8, r2
 595 00d2 9946     		mov	r9, r3
 596 00d4 A246     		mov	r10, r4
 597 00d6 AB46     		mov	fp, r5
 598 00d8 F0BD     		pop	{r4, r5, r6, r7, pc}
 599              	.LVL72:
 600              	.L93:
 601              	.LBB62:
 602              	.LBB60:
ARM GAS  C:\Users\EBANO_~1\AppData\Local\Temp\ccizkeXa.s 			page 15


 603              	.LBB57:
 604              	.LBB54:
  48:../../../../../../Middlewares/Third_Party/LoRaWAN/Mac/region/RegionCommon.c ****         }
 605              		.loc 1 48 0
 606 00da 0133     		adds	r3, r3, #1
 607              	.LBE54:
 608              	.LBE57:
 609              	.LBE60:
 133:../../../../../../Middlewares/Third_Party/LoRaWAN/Mac/region/RegionCommon.c ****     }
 610              		.loc 1 133 0
 611 00dc C018     		adds	r0, r0, r3
 612              	.LVL73:
 613 00de 0234     		adds	r4, r4, #2
 614 00e0 C0B2     		uxtb	r0, r0
 615              	.LVL74:
 131:../../../../../../Middlewares/Third_Party/LoRaWAN/Mac/region/RegionCommon.c ****     {
 616              		.loc 1 131 0
 617 00e2 A142     		cmp	r1, r4
 618 00e4 ACD1     		bne	.L31
 619 00e6 F2E7     		b	.L30
 620              	.LVL75:
 621              	.L50:
 622              	.LBE62:
 128:../../../../../../Middlewares/Third_Party/LoRaWAN/Mac/region/RegionCommon.c ****     }
 623              		.loc 1 128 0
 624 00e8 0020     		movs	r0, #0
 625              	.LVL76:
 626 00ea F0E7     		b	.L30
 627              		.cfi_endproc
 628              	.LFE44:
 629              		.size	RegionCommonCountChannels, .-RegionCommonCountChannels
 630              		.section	.text.RegionCommonChanMaskCopy,"ax",%progbits
 631              		.align	1
 632              		.p2align 2,,3
 633              		.global	RegionCommonChanMaskCopy
 634              		.syntax unified
 635              		.code	16
 636              		.thumb_func
 637              		.fpu softvfp
 638              		.type	RegionCommonChanMaskCopy, %function
 639              	RegionCommonChanMaskCopy:
 640              	.LFB45:
 138:../../../../../../Middlewares/Third_Party/LoRaWAN/Mac/region/RegionCommon.c **** 
 139:../../../../../../Middlewares/Third_Party/LoRaWAN/Mac/region/RegionCommon.c **** void RegionCommonChanMaskCopy( uint16_t* channelsMaskDest, uint16_t* channelsMaskSrc, uint8_t len )
 140:../../../../../../Middlewares/Third_Party/LoRaWAN/Mac/region/RegionCommon.c **** {
 641              		.loc 1 140 0
 642              		.cfi_startproc
 643              		@ args = 0, pretend = 0, frame = 0
 644              		@ frame_needed = 0, uses_anonymous_args = 0
 645              	.LVL77:
 646 0000 70B5     		push	{r4, r5, r6, lr}
 647              	.LCFI5:
 648              		.cfi_def_cfa_offset 16
 649              		.cfi_offset 4, -16
 650              		.cfi_offset 5, -12
 651              		.cfi_offset 6, -8
 652              		.cfi_offset 14, -4
ARM GAS  C:\Users\EBANO_~1\AppData\Local\Temp\ccizkeXa.s 			page 16


 141:../../../../../../Middlewares/Third_Party/LoRaWAN/Mac/region/RegionCommon.c ****     if( ( channelsMaskDest != NULL ) && ( channelsMaskSrc != NULL ) )
 653              		.loc 1 141 0
 654 0002 0028     		cmp	r0, #0
 655 0004 29D0     		beq	.L94
 656              		.loc 1 141 0 is_stmt 0 discriminator 1
 657 0006 0029     		cmp	r1, #0
 658 0008 27D0     		beq	.L94
 659              	.LVL78:
 660              	.LBB63:
 142:../../../../../../Middlewares/Third_Party/LoRaWAN/Mac/region/RegionCommon.c ****     {
 143:../../../../../../Middlewares/Third_Party/LoRaWAN/Mac/region/RegionCommon.c ****         for( uint8_t i = 0; i < len; i++ )
 661              		.loc 1 143 0 is_stmt 1
 662 000a 002A     		cmp	r2, #0
 663 000c 25D0     		beq	.L94
 664 000e 0023     		movs	r3, #0
 665 0010 1D00     		movs	r5, r3
 666 0012 041D     		adds	r4, r0, #4
 667 0014 A142     		cmp	r1, r4
 668 0016 5D41     		adcs	r5, r5, r3
 669 0018 2C00     		movs	r4, r5
 670 001a 0D1D     		adds	r5, r1, #4
 671 001c A842     		cmp	r0, r5
 672 001e 5B41     		adcs	r3, r3, r3
 673 0020 2343     		orrs	r3, r4
 674 0022 0C24     		movs	r4, #12
 675 0024 9442     		cmp	r4, r2
 676 0026 A441     		sbcs	r4, r4, r4
 677 0028 6442     		rsbs	r4, r4, #0
 678 002a 1C42     		tst	r4, r3
 679 002c 16D0     		beq	.L96
 680 002e 0300     		movs	r3, r0
 681 0030 0B43     		orrs	r3, r1
 682 0032 9B07     		lsls	r3, r3, #30
 683 0034 12D1     		bne	.L96
 684 0036 0023     		movs	r3, #0
 685 0038 0024     		movs	r4, #0
 686 003a 5608     		lsrs	r6, r2, #1
 687              	.LVL79:
 688              	.L97:
 144:../../../../../../Middlewares/Third_Party/LoRaWAN/Mac/region/RegionCommon.c ****         {
 145:../../../../../../Middlewares/Third_Party/LoRaWAN/Mac/region/RegionCommon.c ****             channelsMaskDest[i] = channelsMaskSrc[i];
 689              		.loc 1 145 0 discriminator 3
 690 003c CD58     		ldr	r5, [r1, r3]
 691 003e 0134     		adds	r4, r4, #1
 692 0040 C550     		str	r5, [r0, r3]
 693 0042 E5B2     		uxtb	r5, r4
 694 0044 0433     		adds	r3, r3, #4
 695 0046 B542     		cmp	r5, r6
 696 0048 F8D3     		bcc	.L97
 697 004a 0123     		movs	r3, #1
 698 004c 1400     		movs	r4, r2
 699 004e 9C43     		bics	r4, r3
 700 0050 A242     		cmp	r2, r4
 701 0052 02D0     		beq	.L94
 702              	.LVL80:
 703              		.loc 1 145 0 is_stmt 0
 704 0054 6300     		lsls	r3, r4, #1
ARM GAS  C:\Users\EBANO_~1\AppData\Local\Temp\ccizkeXa.s 			page 17


 705 0056 CA5A     		ldrh	r2, [r1, r3]
 706              	.LVL81:
 707 0058 C252     		strh	r2, [r0, r3]
 708              	.L94:
 709              	.LBE63:
 146:../../../../../../Middlewares/Third_Party/LoRaWAN/Mac/region/RegionCommon.c ****         }
 147:../../../../../../Middlewares/Third_Party/LoRaWAN/Mac/region/RegionCommon.c ****     }
 148:../../../../../../Middlewares/Third_Party/LoRaWAN/Mac/region/RegionCommon.c **** }
 710              		.loc 1 148 0 is_stmt 1
 711              		@ sp needed
 712 005a 70BD     		pop	{r4, r5, r6, pc}
 713              	.LVL82:
 714              	.L96:
 715              	.LBB64:
 143:../../../../../../Middlewares/Third_Party/LoRaWAN/Mac/region/RegionCommon.c ****         {
 716              		.loc 1 143 0
 717 005c 0023     		movs	r3, #0
 718 005e 013A     		subs	r2, r2, #1
 719              	.LVL83:
 720 0060 D2B2     		uxtb	r2, r2
 721 0062 0132     		adds	r2, r2, #1
 722 0064 5200     		lsls	r2, r2, #1
 723              	.LVL84:
 724              	.L99:
 145:../../../../../../Middlewares/Third_Party/LoRaWAN/Mac/region/RegionCommon.c ****         }
 725              		.loc 1 145 0
 726 0066 CC5A     		ldrh	r4, [r1, r3]
 727 0068 C452     		strh	r4, [r0, r3]
 728 006a 0233     		adds	r3, r3, #2
 143:../../../../../../Middlewares/Third_Party/LoRaWAN/Mac/region/RegionCommon.c ****         {
 729              		.loc 1 143 0
 730 006c 9A42     		cmp	r2, r3
 731 006e FAD1     		bne	.L99
 732 0070 F3E7     		b	.L94
 733              	.LBE64:
 734              		.cfi_endproc
 735              	.LFE45:
 736              		.size	RegionCommonChanMaskCopy, .-RegionCommonChanMaskCopy
 737 0072 C046     		.section	.text.RegionCommonSetBandTxDone,"ax",%progbits
 738              		.align	1
 739              		.p2align 2,,3
 740              		.global	RegionCommonSetBandTxDone
 741              		.syntax unified
 742              		.code	16
 743              		.thumb_func
 744              		.fpu softvfp
 745              		.type	RegionCommonSetBandTxDone, %function
 746              	RegionCommonSetBandTxDone:
 747              	.LFB46:
 149:../../../../../../Middlewares/Third_Party/LoRaWAN/Mac/region/RegionCommon.c **** 
 150:../../../../../../Middlewares/Third_Party/LoRaWAN/Mac/region/RegionCommon.c **** void RegionCommonSetBandTxDone( bool joined, Band_t* band, TimerTime_t lastTxDone )
 151:../../../../../../Middlewares/Third_Party/LoRaWAN/Mac/region/RegionCommon.c **** {
 748              		.loc 1 151 0
 749              		.cfi_startproc
 750              		@ args = 0, pretend = 0, frame = 0
 751              		@ frame_needed = 0, uses_anonymous_args = 0
 752              		@ link register save eliminated.
ARM GAS  C:\Users\EBANO_~1\AppData\Local\Temp\ccizkeXa.s 			page 18


 753              	.LVL85:
 152:../../../../../../Middlewares/Third_Party/LoRaWAN/Mac/region/RegionCommon.c ****     if( joined == true )
 754              		.loc 1 152 0
 755 0000 0028     		cmp	r0, #0
 756 0002 00D1     		bne	.L119
 153:../../../../../../Middlewares/Third_Party/LoRaWAN/Mac/region/RegionCommon.c ****     {
 154:../../../../../../Middlewares/Third_Party/LoRaWAN/Mac/region/RegionCommon.c ****         band->LastTxDoneTime = lastTxDone;
 155:../../../../../../Middlewares/Third_Party/LoRaWAN/Mac/region/RegionCommon.c ****     }
 156:../../../../../../Middlewares/Third_Party/LoRaWAN/Mac/region/RegionCommon.c ****     else
 157:../../../../../../Middlewares/Third_Party/LoRaWAN/Mac/region/RegionCommon.c ****     {
 158:../../../../../../Middlewares/Third_Party/LoRaWAN/Mac/region/RegionCommon.c ****         band->LastTxDoneTime = lastTxDone;
 159:../../../../../../Middlewares/Third_Party/LoRaWAN/Mac/region/RegionCommon.c ****         band->LastJoinTxDoneTime = lastTxDone;
 757              		.loc 1 159 0
 758 0004 4A60     		str	r2, [r1, #4]
 759              	.L119:
 760 0006 8A60     		str	r2, [r1, #8]
 160:../../../../../../Middlewares/Third_Party/LoRaWAN/Mac/region/RegionCommon.c ****     }
 161:../../../../../../Middlewares/Third_Party/LoRaWAN/Mac/region/RegionCommon.c **** }
 761              		.loc 1 161 0
 762              		@ sp needed
 763 0008 7047     		bx	lr
 764              		.cfi_endproc
 765              	.LFE46:
 766              		.size	RegionCommonSetBandTxDone, .-RegionCommonSetBandTxDone
 767 000a C046     		.section	.text.RegionCommonUpdateBandTimeOff,"ax",%progbits
 768              		.align	1
 769              		.p2align 2,,3
 770              		.global	RegionCommonUpdateBandTimeOff
 771              		.syntax unified
 772              		.code	16
 773              		.thumb_func
 774              		.fpu softvfp
 775              		.type	RegionCommonUpdateBandTimeOff, %function
 776              	RegionCommonUpdateBandTimeOff:
 777              	.LFB47:
 162:../../../../../../Middlewares/Third_Party/LoRaWAN/Mac/region/RegionCommon.c **** 
 163:../../../../../../Middlewares/Third_Party/LoRaWAN/Mac/region/RegionCommon.c **** TimerTime_t RegionCommonUpdateBandTimeOff( bool joined, bool dutyCycle, Band_t* bands, uint8_t nbBa
 164:../../../../../../Middlewares/Third_Party/LoRaWAN/Mac/region/RegionCommon.c **** {
 778              		.loc 1 164 0
 779              		.cfi_startproc
 780              		@ args = 0, pretend = 0, frame = 0
 781              		@ frame_needed = 0, uses_anonymous_args = 0
 782              	.LVL86:
 783 0000 F0B5     		push	{r4, r5, r6, r7, lr}
 784              	.LCFI6:
 785              		.cfi_def_cfa_offset 20
 786              		.cfi_offset 4, -20
 787              		.cfi_offset 5, -16
 788              		.cfi_offset 6, -12
 789              		.cfi_offset 7, -8
 790              		.cfi_offset 14, -4
 791 0002 4F46     		mov	r7, r9
 792 0004 4646     		mov	r6, r8
 793 0006 D646     		mov	lr, r10
 794 0008 C0B5     		push	{r6, r7, lr}
 795              	.LCFI7:
 796              		.cfi_def_cfa_offset 32
ARM GAS  C:\Users\EBANO_~1\AppData\Local\Temp\ccizkeXa.s 			page 19


 797              		.cfi_offset 8, -32
 798              		.cfi_offset 9, -28
 799              		.cfi_offset 10, -24
 800              		.loc 1 164 0
 801 000a 0700     		movs	r7, r0
 802 000c 0E00     		movs	r6, r1
 803              	.LBB65:
 165:../../../../../../Middlewares/Third_Party/LoRaWAN/Mac/region/RegionCommon.c ****     TimerTime_t nextTxDelay = ( TimerTime_t )( -1 );
 166:../../../../../../Middlewares/Third_Party/LoRaWAN/Mac/region/RegionCommon.c **** 
 167:../../../../../../Middlewares/Third_Party/LoRaWAN/Mac/region/RegionCommon.c ****     // Update bands Time OFF
 168:../../../../../../Middlewares/Third_Party/LoRaWAN/Mac/region/RegionCommon.c ****     for( uint8_t i = 0; i < nbBands; i++ )
 804              		.loc 1 168 0
 805 000e 002B     		cmp	r3, #0
 806 0010 5DD0     		beq	.L133
 807 0012 013B     		subs	r3, r3, #1
 808              	.LVL87:
 809 0014 DDB2     		uxtb	r5, r3
 810              	.LBE65:
 165:../../../../../../Middlewares/Third_Party/LoRaWAN/Mac/region/RegionCommon.c ****     TimerTime_t nextTxDelay = ( TimerTime_t )( -1 );
 811              		.loc 1 165 0
 812 0016 0123     		movs	r3, #1
 813 0018 5B42     		rsbs	r3, r3, #0
 814 001a 9846     		mov	r8, r3
 815              	.LBB68:
 169:../../../../../../Middlewares/Third_Party/LoRaWAN/Mac/region/RegionCommon.c ****     {
 170:../../../../../../Middlewares/Third_Party/LoRaWAN/Mac/region/RegionCommon.c ****         if( joined == false )
 171:../../../../../../Middlewares/Third_Party/LoRaWAN/Mac/region/RegionCommon.c ****         {
 172:../../../../../../Middlewares/Third_Party/LoRaWAN/Mac/region/RegionCommon.c ****             TimerTime_t txDoneTime =  MAX( TimerGetElapsedTime( bands[i].LastJoinTxDoneTime ),
 173:../../../../../../Middlewares/Third_Party/LoRaWAN/Mac/region/RegionCommon.c ****                                         ( dutyCycle == true ) ? TimerGetElapsedTime( bands[i].LastT
 174:../../../../../../Middlewares/Third_Party/LoRaWAN/Mac/region/RegionCommon.c **** 
 175:../../../../../../Middlewares/Third_Party/LoRaWAN/Mac/region/RegionCommon.c ****             if( bands[i].TimeOff <= txDoneTime )
 176:../../../../../../Middlewares/Third_Party/LoRaWAN/Mac/region/RegionCommon.c ****             {
 177:../../../../../../Middlewares/Third_Party/LoRaWAN/Mac/region/RegionCommon.c ****                 bands[i].TimeOff = 0;
 178:../../../../../../Middlewares/Third_Party/LoRaWAN/Mac/region/RegionCommon.c ****             }
 179:../../../../../../Middlewares/Third_Party/LoRaWAN/Mac/region/RegionCommon.c ****             if( bands[i].TimeOff != 0 )
 180:../../../../../../Middlewares/Third_Party/LoRaWAN/Mac/region/RegionCommon.c ****             {
 181:../../../../../../Middlewares/Third_Party/LoRaWAN/Mac/region/RegionCommon.c ****                 nextTxDelay = MIN( bands[i].TimeOff - txDoneTime, nextTxDelay );
 182:../../../../../../Middlewares/Third_Party/LoRaWAN/Mac/region/RegionCommon.c ****             }
 183:../../../../../../Middlewares/Third_Party/LoRaWAN/Mac/region/RegionCommon.c ****         }
 184:../../../../../../Middlewares/Third_Party/LoRaWAN/Mac/region/RegionCommon.c ****         else
 185:../../../../../../Middlewares/Third_Party/LoRaWAN/Mac/region/RegionCommon.c ****         {
 186:../../../../../../Middlewares/Third_Party/LoRaWAN/Mac/region/RegionCommon.c ****             if( dutyCycle == true )
 187:../../../../../../Middlewares/Third_Party/LoRaWAN/Mac/region/RegionCommon.c ****             {
 188:../../../../../../Middlewares/Third_Party/LoRaWAN/Mac/region/RegionCommon.c ****                 if( bands[i].TimeOff <= TimerGetElapsedTime( bands[i].LastTxDoneTime ) )
 189:../../../../../../Middlewares/Third_Party/LoRaWAN/Mac/region/RegionCommon.c ****                 {
 190:../../../../../../Middlewares/Third_Party/LoRaWAN/Mac/region/RegionCommon.c ****                     bands[i].TimeOff = 0;
 191:../../../../../../Middlewares/Third_Party/LoRaWAN/Mac/region/RegionCommon.c ****                 }
 192:../../../../../../Middlewares/Third_Party/LoRaWAN/Mac/region/RegionCommon.c ****                 if( bands[i].TimeOff != 0 )
 193:../../../../../../Middlewares/Third_Party/LoRaWAN/Mac/region/RegionCommon.c ****                 {
 194:../../../../../../Middlewares/Third_Party/LoRaWAN/Mac/region/RegionCommon.c ****                     nextTxDelay = MIN( bands[i].TimeOff - TimerGetElapsedTime( bands[i].LastTxDoneT
 195:../../../../../../Middlewares/Third_Party/LoRaWAN/Mac/region/RegionCommon.c ****                                        nextTxDelay );
 196:../../../../../../Middlewares/Third_Party/LoRaWAN/Mac/region/RegionCommon.c ****                 }
 197:../../../../../../Middlewares/Third_Party/LoRaWAN/Mac/region/RegionCommon.c ****             }
 198:../../../../../../Middlewares/Third_Party/LoRaWAN/Mac/region/RegionCommon.c ****             else
 199:../../../../../../Middlewares/Third_Party/LoRaWAN/Mac/region/RegionCommon.c ****             {
 200:../../../../../../Middlewares/Third_Party/LoRaWAN/Mac/region/RegionCommon.c ****                 nextTxDelay = 0;
 816              		.loc 1 200 0
ARM GAS  C:\Users\EBANO_~1\AppData\Local\Temp\ccizkeXa.s 			page 20


 817 001c 0023     		movs	r3, #0
 818 001e 141D     		adds	r4, r2, #4
 819 0020 2D01     		lsls	r5, r5, #4
 820 0022 1432     		adds	r2, r2, #20
 821              	.LVL88:
 822 0024 AD18     		adds	r5, r5, r2
 823 0026 9946     		mov	r9, r3
 824 0028 07E0     		b	.L131
 825              	.LVL89:
 826              	.L122:
 186:../../../../../../Middlewares/Third_Party/LoRaWAN/Mac/region/RegionCommon.c ****             {
 827              		.loc 1 186 0
 828 002a 002E     		cmp	r6, #0
 829 002c 25D1     		bne	.L142
 830              	.LVL90:
 831              		.loc 1 200 0
 832 002e 0023     		movs	r3, #0
 833 0030 9846     		mov	r8, r3
 201:../../../../../../Middlewares/Third_Party/LoRaWAN/Mac/region/RegionCommon.c ****                 bands[i].TimeOff = 0;
 834              		.loc 1 201 0
 835 0032 A660     		str	r6, [r4, #8]
 836              	.LVL91:
 837              	.L127:
 838 0034 1034     		adds	r4, r4, #16
 168:../../../../../../Middlewares/Third_Party/LoRaWAN/Mac/region/RegionCommon.c ****     {
 839              		.loc 1 168 0 discriminator 2
 840 0036 A542     		cmp	r5, r4
 841 0038 16D0     		beq	.L120
 842              	.LVL92:
 843              	.L131:
 170:../../../../../../Middlewares/Third_Party/LoRaWAN/Mac/region/RegionCommon.c ****         {
 844              		.loc 1 170 0
 845 003a 002F     		cmp	r7, #0
 846 003c F5D1     		bne	.L122
 847              	.LBB66:
 172:../../../../../../Middlewares/Third_Party/LoRaWAN/Mac/region/RegionCommon.c ****                                         ( dutyCycle == true ) ? TimerGetElapsedTime( bands[i].LastT
 848              		.loc 1 172 0
 849 003e 2068     		ldr	r0, [r4]
 850 0040 FFF7FEFF 		bl	TimerGetElapsedTime
 851              	.LVL93:
 852 0044 8246     		mov	r10, r0
 853 0046 002E     		cmp	r6, #0
 854 0048 32D1     		bne	.L143
 855 004a 0028     		cmp	r0, #0
 856 004c 35D1     		bne	.L132
 857              	.L125:
 858              	.LVL94:
 175:../../../../../../Middlewares/Third_Party/LoRaWAN/Mac/region/RegionCommon.c ****             {
 859              		.loc 1 175 0 discriminator 12
 860 004e A068     		ldr	r0, [r4, #8]
 861 0050 5045     		cmp	r0, r10
 862 0052 0FD9     		bls	.L141
 179:../../../../../../Middlewares/Third_Party/LoRaWAN/Mac/region/RegionCommon.c ****             {
 863              		.loc 1 179 0
 864 0054 0028     		cmp	r0, #0
 865 0056 EDD0     		beq	.L127
 181:../../../../../../Middlewares/Third_Party/LoRaWAN/Mac/region/RegionCommon.c ****             }
ARM GAS  C:\Users\EBANO_~1\AppData\Local\Temp\ccizkeXa.s 			page 21


 866              		.loc 1 181 0
 867 0058 5346     		mov	r3, r10
 868 005a C01A     		subs	r0, r0, r3
 869 005c 8045     		cmp	r8, r0
 870 005e E9D9     		bls	.L127
 871 0060 1034     		adds	r4, r4, #16
 872 0062 8046     		mov	r8, r0
 873              	.LVL95:
 874              	.LBE66:
 168:../../../../../../Middlewares/Third_Party/LoRaWAN/Mac/region/RegionCommon.c ****     {
 875              		.loc 1 168 0
 876 0064 A542     		cmp	r5, r4
 877 0066 E8D1     		bne	.L131
 878              	.LVL96:
 879              	.L120:
 880              	.LBE68:
 202:../../../../../../Middlewares/Third_Party/LoRaWAN/Mac/region/RegionCommon.c ****             }
 203:../../../../../../Middlewares/Third_Party/LoRaWAN/Mac/region/RegionCommon.c ****         }
 204:../../../../../../Middlewares/Third_Party/LoRaWAN/Mac/region/RegionCommon.c ****     }
 205:../../../../../../Middlewares/Third_Party/LoRaWAN/Mac/region/RegionCommon.c ****     return nextTxDelay;
 206:../../../../../../Middlewares/Third_Party/LoRaWAN/Mac/region/RegionCommon.c **** }
 881              		.loc 1 206 0
 882 0068 4046     		mov	r0, r8
 883              		@ sp needed
 884 006a 1CBC     		pop	{r2, r3, r4}
 885 006c 9046     		mov	r8, r2
 886 006e 9946     		mov	r9, r3
 887 0070 A246     		mov	r10, r4
 888 0072 F0BD     		pop	{r4, r5, r6, r7, pc}
 889              	.LVL97:
 890              	.L141:
 891              	.LBB69:
 190:../../../../../../Middlewares/Third_Party/LoRaWAN/Mac/region/RegionCommon.c ****                 }
 892              		.loc 1 190 0
 893 0074 4B46     		mov	r3, r9
 894 0076 A360     		str	r3, [r4, #8]
 895 0078 DCE7     		b	.L127
 896              	.L142:
 188:../../../../../../Middlewares/Third_Party/LoRaWAN/Mac/region/RegionCommon.c ****                 {
 897              		.loc 1 188 0
 898 007a A368     		ldr	r3, [r4, #8]
 899 007c 6068     		ldr	r0, [r4, #4]
 900 007e 9A46     		mov	r10, r3
 901 0080 FFF7FEFF 		bl	TimerGetElapsedTime
 902              	.LVL98:
 903 0084 8245     		cmp	r10, r0
 904 0086 F5D9     		bls	.L141
 192:../../../../../../Middlewares/Third_Party/LoRaWAN/Mac/region/RegionCommon.c ****                 {
 905              		.loc 1 192 0
 906 0088 A368     		ldr	r3, [r4, #8]
 907 008a 9A46     		mov	r10, r3
 908 008c 002B     		cmp	r3, #0
 909 008e D1D0     		beq	.L127
 194:../../../../../../Middlewares/Third_Party/LoRaWAN/Mac/region/RegionCommon.c ****                                        nextTxDelay );
 910              		.loc 1 194 0
 911 0090 6068     		ldr	r0, [r4, #4]
 912 0092 FFF7FEFF 		bl	TimerGetElapsedTime
ARM GAS  C:\Users\EBANO_~1\AppData\Local\Temp\ccizkeXa.s 			page 22


 913              	.LVL99:
 914 0096 5346     		mov	r3, r10
 915 0098 181A     		subs	r0, r3, r0
 916 009a 4045     		cmp	r0, r8
 917 009c CAD2     		bcs	.L127
 194:../../../../../../Middlewares/Third_Party/LoRaWAN/Mac/region/RegionCommon.c ****                                        nextTxDelay );
 918              		.loc 1 194 0 is_stmt 0 discriminator 1
 919 009e A368     		ldr	r3, [r4, #8]
 920 00a0 6068     		ldr	r0, [r4, #4]
 921 00a2 9846     		mov	r8, r3
 922              	.LVL100:
 923 00a4 FFF7FEFF 		bl	TimerGetElapsedTime
 924              	.LVL101:
 925 00a8 4346     		mov	r3, r8
 926 00aa 1B1A     		subs	r3, r3, r0
 927 00ac 9846     		mov	r8, r3
 928 00ae C1E7     		b	.L127
 929              	.LVL102:
 930              	.L143:
 931              	.LBB67:
 172:../../../../../../Middlewares/Third_Party/LoRaWAN/Mac/region/RegionCommon.c ****                                         ( dutyCycle == true ) ? TimerGetElapsedTime( bands[i].LastT
 932              		.loc 1 172 0 is_stmt 1 discriminator 1
 933 00b0 6068     		ldr	r0, [r4, #4]
 934 00b2 FFF7FEFF 		bl	TimerGetElapsedTime
 935              	.LVL103:
 936 00b6 8245     		cmp	r10, r0
 937 00b8 04D9     		bls	.L124
 938              	.L132:
 172:../../../../../../Middlewares/Third_Party/LoRaWAN/Mac/region/RegionCommon.c ****                                         ( dutyCycle == true ) ? TimerGetElapsedTime( bands[i].LastT
 939              		.loc 1 172 0 is_stmt 0
 940 00ba 2068     		ldr	r0, [r4]
 941 00bc FFF7FEFF 		bl	TimerGetElapsedTime
 942              	.LVL104:
 943 00c0 8246     		mov	r10, r0
 944 00c2 C4E7     		b	.L125
 945              	.L124:
 172:../../../../../../Middlewares/Third_Party/LoRaWAN/Mac/region/RegionCommon.c ****                                         ( dutyCycle == true ) ? TimerGetElapsedTime( bands[i].LastT
 946              		.loc 1 172 0 discriminator 8
 947 00c4 6068     		ldr	r0, [r4, #4]
 948 00c6 FFF7FEFF 		bl	TimerGetElapsedTime
 949              	.LVL105:
 950 00ca 8246     		mov	r10, r0
 951 00cc BFE7     		b	.L125
 952              	.LVL106:
 953              	.L133:
 954              	.LBE67:
 955              	.LBE69:
 165:../../../../../../Middlewares/Third_Party/LoRaWAN/Mac/region/RegionCommon.c **** 
 956              		.loc 1 165 0 is_stmt 1
 957 00ce 0123     		movs	r3, #1
 958              	.LVL107:
 959 00d0 5B42     		rsbs	r3, r3, #0
 960 00d2 9846     		mov	r8, r3
 205:../../../../../../Middlewares/Third_Party/LoRaWAN/Mac/region/RegionCommon.c **** }
 961              		.loc 1 205 0
 962 00d4 C8E7     		b	.L120
 963              		.cfi_endproc
ARM GAS  C:\Users\EBANO_~1\AppData\Local\Temp\ccizkeXa.s 			page 23


 964              	.LFE47:
 965              		.size	RegionCommonUpdateBandTimeOff, .-RegionCommonUpdateBandTimeOff
 966 00d6 C046     		.section	.text.RegionCommonParseLinkAdrReq,"ax",%progbits
 967              		.align	1
 968              		.p2align 2,,3
 969              		.global	RegionCommonParseLinkAdrReq
 970              		.syntax unified
 971              		.code	16
 972              		.thumb_func
 973              		.fpu softvfp
 974              		.type	RegionCommonParseLinkAdrReq, %function
 975              	RegionCommonParseLinkAdrReq:
 976              	.LFB48:
 207:../../../../../../Middlewares/Third_Party/LoRaWAN/Mac/region/RegionCommon.c **** 
 208:../../../../../../Middlewares/Third_Party/LoRaWAN/Mac/region/RegionCommon.c **** uint8_t RegionCommonParseLinkAdrReq( uint8_t* payload, RegionCommonLinkAdrParams_t* linkAdrParams )
 209:../../../../../../Middlewares/Third_Party/LoRaWAN/Mac/region/RegionCommon.c **** {
 977              		.loc 1 209 0
 978              		.cfi_startproc
 979              		@ args = 0, pretend = 0, frame = 0
 980              		@ frame_needed = 0, uses_anonymous_args = 0
 981              	.LVL108:
 982 0000 10B5     		push	{r4, lr}
 983              	.LCFI8:
 984              		.cfi_def_cfa_offset 8
 985              		.cfi_offset 4, -8
 986              		.cfi_offset 14, -4
 210:../../../../../../Middlewares/Third_Party/LoRaWAN/Mac/region/RegionCommon.c ****     uint8_t retIndex = 0;
 211:../../../../../../Middlewares/Third_Party/LoRaWAN/Mac/region/RegionCommon.c **** 
 212:../../../../../../Middlewares/Third_Party/LoRaWAN/Mac/region/RegionCommon.c ****     if( payload[0] == SRV_MAC_LINK_ADR_REQ )
 987              		.loc 1 212 0
 988 0002 0278     		ldrb	r2, [r0]
 209:../../../../../../Middlewares/Third_Party/LoRaWAN/Mac/region/RegionCommon.c ****     uint8_t retIndex = 0;
 989              		.loc 1 209 0
 990 0004 0300     		movs	r3, r0
 210:../../../../../../Middlewares/Third_Party/LoRaWAN/Mac/region/RegionCommon.c ****     uint8_t retIndex = 0;
 991              		.loc 1 210 0
 992 0006 0020     		movs	r0, #0
 993              	.LVL109:
 994              		.loc 1 212 0
 995 0008 032A     		cmp	r2, #3
 996 000a 00D0     		beq	.L147
 997              	.LVL110:
 998              	.L145:
 213:../../../../../../Middlewares/Third_Party/LoRaWAN/Mac/region/RegionCommon.c ****     {
 214:../../../../../../Middlewares/Third_Party/LoRaWAN/Mac/region/RegionCommon.c ****         // Parse datarate and tx power
 215:../../../../../../Middlewares/Third_Party/LoRaWAN/Mac/region/RegionCommon.c ****         linkAdrParams->Datarate = payload[1];
 216:../../../../../../Middlewares/Third_Party/LoRaWAN/Mac/region/RegionCommon.c ****         linkAdrParams->TxPower = linkAdrParams->Datarate & 0x0F;
 217:../../../../../../Middlewares/Third_Party/LoRaWAN/Mac/region/RegionCommon.c ****         linkAdrParams->Datarate = ( linkAdrParams->Datarate >> 4 ) & 0x0F;
 218:../../../../../../Middlewares/Third_Party/LoRaWAN/Mac/region/RegionCommon.c ****         // Parse ChMask
 219:../../../../../../Middlewares/Third_Party/LoRaWAN/Mac/region/RegionCommon.c ****         linkAdrParams->ChMask = ( uint16_t )payload[2];
 220:../../../../../../Middlewares/Third_Party/LoRaWAN/Mac/region/RegionCommon.c ****         linkAdrParams->ChMask |= ( uint16_t )payload[3] << 8;
 221:../../../../../../Middlewares/Third_Party/LoRaWAN/Mac/region/RegionCommon.c ****         // Parse ChMaskCtrl and nbRep
 222:../../../../../../Middlewares/Third_Party/LoRaWAN/Mac/region/RegionCommon.c ****         linkAdrParams->NbRep = payload[4];
 223:../../../../../../Middlewares/Third_Party/LoRaWAN/Mac/region/RegionCommon.c ****         linkAdrParams->ChMaskCtrl = ( linkAdrParams->NbRep >> 4 ) & 0x07;
 224:../../../../../../Middlewares/Third_Party/LoRaWAN/Mac/region/RegionCommon.c ****         linkAdrParams->NbRep &= 0x0F;
 225:../../../../../../Middlewares/Third_Party/LoRaWAN/Mac/region/RegionCommon.c **** 
 226:../../../../../../Middlewares/Third_Party/LoRaWAN/Mac/region/RegionCommon.c ****         // LinkAdrReq has 4 bytes length + 1 byte CMD
ARM GAS  C:\Users\EBANO_~1\AppData\Local\Temp\ccizkeXa.s 			page 24


 227:../../../../../../Middlewares/Third_Party/LoRaWAN/Mac/region/RegionCommon.c ****         retIndex = 5;
 228:../../../../../../Middlewares/Third_Party/LoRaWAN/Mac/region/RegionCommon.c ****     }
 229:../../../../../../Middlewares/Third_Party/LoRaWAN/Mac/region/RegionCommon.c ****     return retIndex;
 230:../../../../../../Middlewares/Third_Party/LoRaWAN/Mac/region/RegionCommon.c **** }
 999              		.loc 1 230 0
 1000              		@ sp needed
 1001 000c 10BD     		pop	{r4, pc}
 1002              	.LVL111:
 1003              	.L147:
 216:../../../../../../Middlewares/Third_Party/LoRaWAN/Mac/region/RegionCommon.c ****         linkAdrParams->Datarate = ( linkAdrParams->Datarate >> 4 ) & 0x0F;
 1004              		.loc 1 216 0
 1005 000e 0C32     		adds	r2, r2, #12
 1006 0010 1400     		movs	r4, r2
 215:../../../../../../Middlewares/Third_Party/LoRaWAN/Mac/region/RegionCommon.c ****         linkAdrParams->TxPower = linkAdrParams->Datarate & 0x0F;
 1007              		.loc 1 215 0
 1008 0012 5878     		ldrb	r0, [r3, #1]
 216:../../../../../../Middlewares/Third_Party/LoRaWAN/Mac/region/RegionCommon.c ****         linkAdrParams->Datarate = ( linkAdrParams->Datarate >> 4 ) & 0x0F;
 1009              		.loc 1 216 0
 1010 0014 0440     		ands	r4, r0
 217:../../../../../../Middlewares/Third_Party/LoRaWAN/Mac/region/RegionCommon.c ****         // Parse ChMask
 1011              		.loc 1 217 0
 1012 0016 0009     		lsrs	r0, r0, #4
 216:../../../../../../Middlewares/Third_Party/LoRaWAN/Mac/region/RegionCommon.c ****         linkAdrParams->Datarate = ( linkAdrParams->Datarate >> 4 ) & 0x0F;
 1013              		.loc 1 216 0
 1014 0018 8C70     		strb	r4, [r1, #2]
 217:../../../../../../Middlewares/Third_Party/LoRaWAN/Mac/region/RegionCommon.c ****         // Parse ChMask
 1015              		.loc 1 217 0
 1016 001a 4870     		strb	r0, [r1, #1]
 219:../../../../../../Middlewares/Third_Party/LoRaWAN/Mac/region/RegionCommon.c ****         linkAdrParams->ChMask |= ( uint16_t )payload[3] << 8;
 1017              		.loc 1 219 0
 1018 001c 9878     		ldrb	r0, [r3, #2]
 1019 001e 8880     		strh	r0, [r1, #4]
 220:../../../../../../Middlewares/Third_Party/LoRaWAN/Mac/region/RegionCommon.c ****         // Parse ChMaskCtrl and nbRep
 1020              		.loc 1 220 0
 1021 0020 DC78     		ldrb	r4, [r3, #3]
 1022 0022 2402     		lsls	r4, r4, #8
 1023 0024 2043     		orrs	r0, r4
 1024 0026 8880     		strh	r0, [r1, #4]
 222:../../../../../../Middlewares/Third_Party/LoRaWAN/Mac/region/RegionCommon.c ****         linkAdrParams->ChMaskCtrl = ( linkAdrParams->NbRep >> 4 ) & 0x07;
 1025              		.loc 1 222 0
 1026 0028 1879     		ldrb	r0, [r3, #4]
 223:../../../../../../Middlewares/Third_Party/LoRaWAN/Mac/region/RegionCommon.c ****         linkAdrParams->NbRep &= 0x0F;
 1027              		.loc 1 223 0
 1028 002a 4306     		lsls	r3, r0, #25
 1029              	.LVL112:
 224:../../../../../../Middlewares/Third_Party/LoRaWAN/Mac/region/RegionCommon.c **** 
 1030              		.loc 1 224 0
 1031 002c 0240     		ands	r2, r0
 223:../../../../../../Middlewares/Third_Party/LoRaWAN/Mac/region/RegionCommon.c ****         linkAdrParams->NbRep &= 0x0F;
 1032              		.loc 1 223 0
 1033 002e 5B0F     		lsrs	r3, r3, #29
 1034 0030 CB70     		strb	r3, [r1, #3]
 224:../../../../../../Middlewares/Third_Party/LoRaWAN/Mac/region/RegionCommon.c **** 
 1035              		.loc 1 224 0
 1036 0032 0A70     		strb	r2, [r1]
 1037              	.LVL113:
 227:../../../../../../Middlewares/Third_Party/LoRaWAN/Mac/region/RegionCommon.c ****     }
ARM GAS  C:\Users\EBANO_~1\AppData\Local\Temp\ccizkeXa.s 			page 25


 1038              		.loc 1 227 0
 1039 0034 0520     		movs	r0, #5
 1040 0036 E9E7     		b	.L145
 1041              		.cfi_endproc
 1042              	.LFE48:
 1043              		.size	RegionCommonParseLinkAdrReq, .-RegionCommonParseLinkAdrReq
 1044              		.section	.text.RegionCommonLinkAdrReqVerifyParams,"ax",%progbits
 1045              		.align	1
 1046              		.p2align 2,,3
 1047              		.global	RegionCommonLinkAdrReqVerifyParams
 1048              		.syntax unified
 1049              		.code	16
 1050              		.thumb_func
 1051              		.fpu softvfp
 1052              		.type	RegionCommonLinkAdrReqVerifyParams, %function
 1053              	RegionCommonLinkAdrReqVerifyParams:
 1054              	.LFB49:
 231:../../../../../../Middlewares/Third_Party/LoRaWAN/Mac/region/RegionCommon.c **** 
 232:../../../../../../Middlewares/Third_Party/LoRaWAN/Mac/region/RegionCommon.c **** uint8_t RegionCommonLinkAdrReqVerifyParams( RegionCommonLinkAdrReqVerifyParams_t* verifyParams, int
 233:../../../../../../Middlewares/Third_Party/LoRaWAN/Mac/region/RegionCommon.c **** {
 1055              		.loc 1 233 0
 1056              		.cfi_startproc
 1057              		@ args = 0, pretend = 0, frame = 32
 1058              		@ frame_needed = 0, uses_anonymous_args = 0
 1059              	.LVL114:
 1060 0000 F0B5     		push	{r4, r5, r6, r7, lr}
 1061              	.LCFI9:
 1062              		.cfi_def_cfa_offset 20
 1063              		.cfi_offset 4, -20
 1064              		.cfi_offset 5, -16
 1065              		.cfi_offset 6, -12
 1066              		.cfi_offset 7, -8
 1067              		.cfi_offset 14, -4
 1068 0002 DE46     		mov	lr, fp
 1069 0004 4546     		mov	r5, r8
 1070 0006 5746     		mov	r7, r10
 1071 0008 4E46     		mov	r6, r9
 1072 000a E0B5     		push	{r5, r6, r7, lr}
 1073              	.LCFI10:
 1074              		.cfi_def_cfa_offset 36
 1075              		.cfi_offset 8, -36
 1076              		.cfi_offset 9, -32
 1077              		.cfi_offset 10, -28
 1078              		.cfi_offset 11, -24
 1079 000c 89B0     		sub	sp, sp, #36
 1080              	.LCFI11:
 1081              		.cfi_def_cfa_offset 72
 1082              		.loc 1 233 0
 1083 000e 0091     		str	r1, [sp]
 234:../../../../../../Middlewares/Third_Party/LoRaWAN/Mac/region/RegionCommon.c ****     uint8_t status = verifyParams->Status;
 235:../../../../../../Middlewares/Third_Party/LoRaWAN/Mac/region/RegionCommon.c ****     int8_t datarate = verifyParams->Datarate;
 236:../../../../../../Middlewares/Third_Party/LoRaWAN/Mac/region/RegionCommon.c ****     int8_t txPower = verifyParams->TxPower;
 1084              		.loc 1 236 0
 1085 0010 0721     		movs	r1, #7
 1086              	.LVL115:
 233:../../../../../../Middlewares/Third_Party/LoRaWAN/Mac/region/RegionCommon.c ****     uint8_t status = verifyParams->Status;
 1087              		.loc 1 233 0
ARM GAS  C:\Users\EBANO_~1\AppData\Local\Temp\ccizkeXa.s 			page 26


 1088 0012 9B46     		mov	fp, r3
 235:../../../../../../Middlewares/Third_Party/LoRaWAN/Mac/region/RegionCommon.c ****     int8_t txPower = verifyParams->TxPower;
 1089              		.loc 1 235 0
 1090 0014 0623     		movs	r3, #6
 1091              	.LVL116:
 233:../../../../../../Middlewares/Third_Party/LoRaWAN/Mac/region/RegionCommon.c ****     uint8_t status = verifyParams->Status;
 1092              		.loc 1 233 0
 1093 0016 0192     		str	r2, [sp, #4]
 1094              		.loc 1 236 0
 1095 0018 4156     		ldrsb	r1, [r0, r1]
 234:../../../../../../Middlewares/Third_Party/LoRaWAN/Mac/region/RegionCommon.c ****     uint8_t status = verifyParams->Status;
 1096              		.loc 1 234 0
 1097 001a 0279     		ldrb	r2, [r0, #4]
 1098              	.LVL117:
 1099              		.loc 1 236 0
 1100 001c 8846     		mov	r8, r1
 237:../../../../../../Middlewares/Third_Party/LoRaWAN/Mac/region/RegionCommon.c ****     int8_t nbRepetitions = verifyParams->NbRep;
 238:../../../../../../Middlewares/Third_Party/LoRaWAN/Mac/region/RegionCommon.c **** 
 239:../../../../../../Middlewares/Third_Party/LoRaWAN/Mac/region/RegionCommon.c ****     // Handle the case when ADR is off.
 240:../../../../../../Middlewares/Third_Party/LoRaWAN/Mac/region/RegionCommon.c ****     if( verifyParams->AdrEnabled == false )
 1101              		.loc 1 240 0
 1102 001e 4179     		ldrb	r1, [r0, #5]
 235:../../../../../../Middlewares/Third_Party/LoRaWAN/Mac/region/RegionCommon.c ****     int8_t txPower = verifyParams->TxPower;
 1103              		.loc 1 235 0
 1104 0020 C356     		ldrsb	r3, [r0, r3]
 1105              	.LVL118:
 237:../../../../../../Middlewares/Third_Party/LoRaWAN/Mac/region/RegionCommon.c ****     int8_t nbRepetitions = verifyParams->NbRep;
 1106              		.loc 1 237 0
 1107 0022 047A     		ldrb	r4, [r0, #8]
 1108              	.LVL119:
 1109              		.loc 1 240 0
 1110 0024 0029     		cmp	r1, #0
 1111 0026 14D0     		beq	.L149
 237:../../../../../../Middlewares/Third_Party/LoRaWAN/Mac/region/RegionCommon.c ****     int8_t nbRepetitions = verifyParams->NbRep;
 1112              		.loc 1 237 0
 1113 0028 61B2     		sxtb	r1, r4
 1114 002a 8946     		mov	r9, r1
 1115              	.LVL120:
 241:../../../../../../Middlewares/Third_Party/LoRaWAN/Mac/region/RegionCommon.c ****     {
 242:../../../../../../Middlewares/Third_Party/LoRaWAN/Mac/region/RegionCommon.c ****         // When ADR is off, we are allowed to change the channels mask
 243:../../../../../../Middlewares/Third_Party/LoRaWAN/Mac/region/RegionCommon.c ****         nbRepetitions = verifyParams->CurrentNbRep;
 244:../../../../../../Middlewares/Third_Party/LoRaWAN/Mac/region/RegionCommon.c ****         datarate =  verifyParams->CurrentDatarate;
 245:../../../../../../Middlewares/Third_Party/LoRaWAN/Mac/region/RegionCommon.c ****         txPower =  verifyParams->CurrentTxPower;
 246:../../../../../../Middlewares/Third_Party/LoRaWAN/Mac/region/RegionCommon.c ****     }
 247:../../../../../../Middlewares/Third_Party/LoRaWAN/Mac/region/RegionCommon.c **** 
 248:../../../../../../Middlewares/Third_Party/LoRaWAN/Mac/region/RegionCommon.c ****     if( status != 0 )
 1116              		.loc 1 248 0
 1117 002c 002A     		cmp	r2, #0
 1118 002e 1AD1     		bne	.L151
 1119              	.L173:
 1120 0030 4946     		mov	r1, r9
 1121 0032 C8B2     		uxtb	r0, r1
 1122              	.LVL121:
 1123 0034 4146     		mov	r1, r8
 1124              	.LVL122:
 1125              	.L152:
 249:../../../../../../Middlewares/Third_Party/LoRaWAN/Mac/region/RegionCommon.c ****     {
ARM GAS  C:\Users\EBANO_~1\AppData\Local\Temp\ccizkeXa.s 			page 27


 250:../../../../../../Middlewares/Third_Party/LoRaWAN/Mac/region/RegionCommon.c ****         // Verify datarate. The variable phyParam. Value contains the minimum allowed datarate.
 251:../../../../../../Middlewares/Third_Party/LoRaWAN/Mac/region/RegionCommon.c ****         if( RegionCommonChanVerifyDr( verifyParams->NbChannels, verifyParams->ChannelsMask, datarat
 252:../../../../../../Middlewares/Third_Party/LoRaWAN/Mac/region/RegionCommon.c ****                                       verifyParams->MinDatarate, verifyParams->MaxDatarate, verifyP
 253:../../../../../../Middlewares/Third_Party/LoRaWAN/Mac/region/RegionCommon.c ****         {
 254:../../../../../../Middlewares/Third_Party/LoRaWAN/Mac/region/RegionCommon.c ****             status &= 0xFD; // Datarate KO
 255:../../../../../../Middlewares/Third_Party/LoRaWAN/Mac/region/RegionCommon.c ****         }
 256:../../../../../../Middlewares/Third_Party/LoRaWAN/Mac/region/RegionCommon.c **** 
 257:../../../../../../Middlewares/Third_Party/LoRaWAN/Mac/region/RegionCommon.c ****         // Verify tx power
 258:../../../../../../Middlewares/Third_Party/LoRaWAN/Mac/region/RegionCommon.c ****         if( RegionCommonValueInRange( txPower, verifyParams->MaxTxPower, verifyParams->MinTxPower )
 259:../../../../../../Middlewares/Third_Party/LoRaWAN/Mac/region/RegionCommon.c ****         {
 260:../../../../../../Middlewares/Third_Party/LoRaWAN/Mac/region/RegionCommon.c ****             // Verify if the maximum TX power is exceeded
 261:../../../../../../Middlewares/Third_Party/LoRaWAN/Mac/region/RegionCommon.c ****             if( verifyParams->MaxTxPower > txPower )
 262:../../../../../../Middlewares/Third_Party/LoRaWAN/Mac/region/RegionCommon.c ****             { // Apply maximum TX power. Accept TX power.
 263:../../../../../../Middlewares/Third_Party/LoRaWAN/Mac/region/RegionCommon.c ****                 txPower = verifyParams->MaxTxPower;
 264:../../../../../../Middlewares/Third_Party/LoRaWAN/Mac/region/RegionCommon.c ****             }
 265:../../../../../../Middlewares/Third_Party/LoRaWAN/Mac/region/RegionCommon.c ****             else
 266:../../../../../../Middlewares/Third_Party/LoRaWAN/Mac/region/RegionCommon.c ****             {
 267:../../../../../../Middlewares/Third_Party/LoRaWAN/Mac/region/RegionCommon.c ****                 status &= 0xFB; // TxPower KO
 268:../../../../../../Middlewares/Third_Party/LoRaWAN/Mac/region/RegionCommon.c ****             }
 269:../../../../../../Middlewares/Third_Party/LoRaWAN/Mac/region/RegionCommon.c ****         }
 270:../../../../../../Middlewares/Third_Party/LoRaWAN/Mac/region/RegionCommon.c ****     }
 271:../../../../../../Middlewares/Third_Party/LoRaWAN/Mac/region/RegionCommon.c **** 
 272:../../../../../../Middlewares/Third_Party/LoRaWAN/Mac/region/RegionCommon.c ****     // If the status is ok, verify the NbRep
 273:../../../../../../Middlewares/Third_Party/LoRaWAN/Mac/region/RegionCommon.c ****     if( status == 0x07 )
 274:../../../../../../Middlewares/Third_Party/LoRaWAN/Mac/region/RegionCommon.c ****     {
 275:../../../../../../Middlewares/Third_Party/LoRaWAN/Mac/region/RegionCommon.c ****         if( nbRepetitions == 0 )
 276:../../../../../../Middlewares/Third_Party/LoRaWAN/Mac/region/RegionCommon.c ****         { // Restore the default value according to the LoRaWAN specification
 277:../../../../../../Middlewares/Third_Party/LoRaWAN/Mac/region/RegionCommon.c ****             nbRepetitions = 1;
 278:../../../../../../Middlewares/Third_Party/LoRaWAN/Mac/region/RegionCommon.c ****         }
 279:../../../../../../Middlewares/Third_Party/LoRaWAN/Mac/region/RegionCommon.c ****     }
 280:../../../../../../Middlewares/Third_Party/LoRaWAN/Mac/region/RegionCommon.c **** 
 281:../../../../../../Middlewares/Third_Party/LoRaWAN/Mac/region/RegionCommon.c ****     // Apply changes
 282:../../../../../../Middlewares/Third_Party/LoRaWAN/Mac/region/RegionCommon.c ****     *dr = datarate;
 1126              		.loc 1 282 0
 1127 0036 009C     		ldr	r4, [sp]
 1128 0038 2370     		strb	r3, [r4]
 283:../../../../../../Middlewares/Third_Party/LoRaWAN/Mac/region/RegionCommon.c ****     *txPow = txPower;
 1129              		.loc 1 283 0
 1130 003a 019B     		ldr	r3, [sp, #4]
 1131              	.LVL123:
 1132 003c 1970     		strb	r1, [r3]
 1133              	.LVL124:
 284:../../../../../../Middlewares/Third_Party/LoRaWAN/Mac/region/RegionCommon.c ****     *nbRep = nbRepetitions;
 1134              		.loc 1 284 0
 1135 003e 5B46     		mov	r3, fp
 1136 0040 1870     		strb	r0, [r3]
 285:../../../../../../Middlewares/Third_Party/LoRaWAN/Mac/region/RegionCommon.c **** 
 286:../../../../../../Middlewares/Third_Party/LoRaWAN/Mac/region/RegionCommon.c ****     return status;
 287:../../../../../../Middlewares/Third_Party/LoRaWAN/Mac/region/RegionCommon.c **** }
 1137              		.loc 1 287 0
 1138 0042 1000     		movs	r0, r2
 1139 0044 09B0     		add	sp, sp, #36
 1140              	.LVL125:
 1141              		@ sp needed
 1142              	.LVL126:
 1143 0046 3CBC     		pop	{r2, r3, r4, r5}
 1144 0048 9046     		mov	r8, r2
ARM GAS  C:\Users\EBANO_~1\AppData\Local\Temp\ccizkeXa.s 			page 28


 1145 004a 9946     		mov	r9, r3
 1146 004c A246     		mov	r10, r4
 1147 004e AB46     		mov	fp, r5
 1148 0050 F0BD     		pop	{r4, r5, r6, r7, pc}
 1149              	.LVL127:
 1150              	.L149:
 243:../../../../../../Middlewares/Third_Party/LoRaWAN/Mac/region/RegionCommon.c ****         datarate =  verifyParams->CurrentDatarate;
 1151              		.loc 1 243 0
 1152 0052 0B23     		movs	r3, #11
 1153              	.LVL128:
 245:../../../../../../Middlewares/Third_Party/LoRaWAN/Mac/region/RegionCommon.c ****     }
 1154              		.loc 1 245 0
 1155 0054 0A21     		movs	r1, #10
 243:../../../../../../Middlewares/Third_Party/LoRaWAN/Mac/region/RegionCommon.c ****         datarate =  verifyParams->CurrentDatarate;
 1156              		.loc 1 243 0
 1157 0056 C356     		ldrsb	r3, [r0, r3]
 245:../../../../../../Middlewares/Third_Party/LoRaWAN/Mac/region/RegionCommon.c ****     }
 1158              		.loc 1 245 0
 1159 0058 4156     		ldrsb	r1, [r0, r1]
 243:../../../../../../Middlewares/Third_Party/LoRaWAN/Mac/region/RegionCommon.c ****         datarate =  verifyParams->CurrentDatarate;
 1160              		.loc 1 243 0
 1161 005a 9946     		mov	r9, r3
 1162              	.LVL129:
 244:../../../../../../Middlewares/Third_Party/LoRaWAN/Mac/region/RegionCommon.c ****         txPower =  verifyParams->CurrentTxPower;
 1163              		.loc 1 244 0
 1164 005c 0923     		movs	r3, #9
 245:../../../../../../Middlewares/Third_Party/LoRaWAN/Mac/region/RegionCommon.c ****     }
 1165              		.loc 1 245 0
 1166 005e 8846     		mov	r8, r1
 1167              	.LVL130:
 244:../../../../../../Middlewares/Third_Party/LoRaWAN/Mac/region/RegionCommon.c ****         txPower =  verifyParams->CurrentTxPower;
 1168              		.loc 1 244 0
 1169 0060 C356     		ldrsb	r3, [r0, r3]
 1170              	.LVL131:
 248:../../../../../../Middlewares/Third_Party/LoRaWAN/Mac/region/RegionCommon.c ****     {
 1171              		.loc 1 248 0
 1172 0062 002A     		cmp	r2, #0
 1173 0064 E4D0     		beq	.L173
 1174              	.L151:
 1175              	.LVL132:
 1176              	.LBB84:
 1177              	.LBB85:
 1178              	.LBB86:
 100:../../../../../../Middlewares/Third_Party/LoRaWAN/Mac/region/RegionCommon.c ****     {
 1179              		.loc 1 100 0
 1180 0066 1421     		movs	r1, #20
 1181 0068 4156     		ldrsb	r1, [r0, r1]
 1182 006a 9942     		cmp	r1, r3
 1183 006c 13DD     		ble	.L174
 1184              	.LVL133:
 1185              	.L153:
 1186              	.LBE86:
 1187              	.LBE85:
 1188              	.LBE84:
 254:../../../../../../Middlewares/Third_Party/LoRaWAN/Mac/region/RegionCommon.c ****         }
 1189              		.loc 1 254 0
 1190 006e 0221     		movs	r1, #2
ARM GAS  C:\Users\EBANO_~1\AppData\Local\Temp\ccizkeXa.s 			page 29


 1191 0070 8A43     		bics	r2, r1
 1192              	.LVL134:
 1193              	.L155:
 258:../../../../../../Middlewares/Third_Party/LoRaWAN/Mac/region/RegionCommon.c ****         {
 1194              		.loc 1 258 0
 1195 0072 1D21     		movs	r1, #29
 1196 0074 4156     		ldrsb	r1, [r0, r1]
 1197 0076 007F     		ldrb	r0, [r0, #28]
 1198 0078 40B2     		sxtb	r0, r0
 1199              	.LVL135:
 1200              	.LBB103:
 1201              	.LBB104:
 100:../../../../../../Middlewares/Third_Party/LoRaWAN/Mac/region/RegionCommon.c ****     {
 1202              		.loc 1 100 0
 1203 007a 4145     		cmp	r1, r8
 1204 007c 02DC     		bgt	.L158
 1205 007e 4146     		mov	r1, r8
 1206              	.LVL136:
 1207 0080 4045     		cmp	r0, r8
 1208 0082 4FDB     		blt	.L175
 1209              	.LVL137:
 1210              	.L158:
 1211              	.LBE104:
 1212              	.LBE103:
 273:../../../../../../Middlewares/Third_Party/LoRaWAN/Mac/region/RegionCommon.c ****     {
 1213              		.loc 1 273 0
 1214 0084 072A     		cmp	r2, #7
 1215 0086 03D1     		bne	.L172
 275:../../../../../../Middlewares/Third_Party/LoRaWAN/Mac/region/RegionCommon.c ****         { // Restore the default value according to the LoRaWAN specification
 1216              		.loc 1 275 0
 1217 0088 4C46     		mov	r4, r9
 1218 008a 0120     		movs	r0, #1
 1219 008c 002C     		cmp	r4, #0
 1220 008e D2D0     		beq	.L152
 1221              	.L172:
 1222 0090 4846     		mov	r0, r9
 1223 0092 C0B2     		uxtb	r0, r0
 1224 0094 CFE7     		b	.L152
 1225              	.LVL138:
 1226              	.L174:
 1227              	.LBB105:
 1228              	.LBB88:
 1229              	.LBB87:
 100:../../../../../../Middlewares/Third_Party/LoRaWAN/Mac/region/RegionCommon.c ****     {
 1230              		.loc 1 100 0
 1231 0096 1521     		movs	r1, #21
 1232 0098 4156     		ldrsb	r1, [r0, r1]
 1233 009a 9942     		cmp	r1, r3
 1234 009c E7DB     		blt	.L153
 1235              	.LBE87:
 1236              	.LBE88:
 1237              	.LBE105:
 251:../../../../../../Middlewares/Third_Party/LoRaWAN/Mac/region/RegionCommon.c ****                                       verifyParams->MinDatarate, verifyParams->MaxDatarate, verifyP
 1238              		.loc 1 251 0
 1239 009e 017B     		ldrb	r1, [r0, #12]
 1240 00a0 0591     		str	r1, [sp, #20]
 1241              	.LVL139:
ARM GAS  C:\Users\EBANO_~1\AppData\Local\Temp\ccizkeXa.s 			page 30


 1242              	.LBB106:
 1243              	.LBB89:
 1244              	.LBB90:
  80:../../../../../../Middlewares/Third_Party/LoRaWAN/Mac/region/RegionCommon.c ****     {
 1245              		.loc 1 80 0
 1246 00a2 0029     		cmp	r1, #0
 1247 00a4 E3D0     		beq	.L153
 1248              	.LBE90:
 1249              	.LBE89:
 1250              	.LBE106:
 251:../../../../../../Middlewares/Third_Party/LoRaWAN/Mac/region/RegionCommon.c ****                                       verifyParams->MinDatarate, verifyParams->MaxDatarate, verifyP
 1251              		.loc 1 251 0
 1252 00a6 0169     		ldr	r1, [r0, #16]
 1253              	.LBB107:
 1254              	.LBB100:
 1255              	.LBB97:
 1256              	.LBB91:
  84:../../../../../../Middlewares/Third_Party/LoRaWAN/Mac/region/RegionCommon.c ****             {// Check datarate validity for enabled channels
 1257              		.loc 1 84 0
 1258 00a8 0125     		movs	r5, #1
 1259              	.LBE91:
 1260              	.LBE97:
 1261              	.LBE100:
 1262              	.LBE107:
 251:../../../../../../Middlewares/Third_Party/LoRaWAN/Mac/region/RegionCommon.c ****                                       verifyParams->MinDatarate, verifyParams->MaxDatarate, verifyP
 1263              		.loc 1 251 0
 1264 00aa 0391     		str	r1, [sp, #12]
 1265 00ac 8169     		ldr	r1, [r0, #24]
 1266              	.LBB108:
 1267              	.LBB101:
 1268              	.LBB98:
  80:../../../../../../Middlewares/Third_Party/LoRaWAN/Mac/region/RegionCommon.c ****     {
 1269              		.loc 1 80 0
 1270 00ae 0024     		movs	r4, #0
 1271              	.LBE98:
 1272              	.LBE101:
 1273              	.LBE108:
 251:../../../../../../Middlewares/Third_Party/LoRaWAN/Mac/region/RegionCommon.c ****                                       verifyParams->MinDatarate, verifyParams->MaxDatarate, verifyP
 1274              		.loc 1 251 0
 1275 00b0 0491     		str	r1, [sp, #16]
 1276              	.LBB109:
 1277              	.LBB102:
 1278              	.LBB99:
  80:../../../../../../Middlewares/Third_Party/LoRaWAN/Mac/region/RegionCommon.c ****     {
 1279              		.loc 1 80 0
 1280 00b2 0021     		movs	r1, #0
 1281              	.LBB96:
  84:../../../../../../Middlewares/Third_Party/LoRaWAN/Mac/region/RegionCommon.c ****             {// Check datarate validity for enabled channels
 1282              		.loc 1 84 0
 1283 00b4 AC46     		mov	ip, r5
  86:../../../../../../Middlewares/Third_Party/LoRaWAN/Mac/region/RegionCommon.c ****                                                   ( channels[i + j].DrRange.Fields.Max & 0x0F ) ) =
 1284              		.loc 1 86 0
 1285 00b6 0E35     		adds	r5, r5, #14
 1286 00b8 AA46     		mov	r10, r5
 1287 00ba 4546     		mov	r5, r8
 1288 00bc 1600     		movs	r6, r2
 1289 00be 0790     		str	r0, [sp, #28]
ARM GAS  C:\Users\EBANO_~1\AppData\Local\Temp\ccizkeXa.s 			page 31


 1290 00c0 0A00     		movs	r2, r1
 1291              	.LVL140:
 1292 00c2 2000     		movs	r0, r4
 1293              	.LVL141:
 1294 00c4 0695     		str	r5, [sp, #24]
 1295              	.LVL142:
 1296              	.L157:
  84:../../../../../../Middlewares/Third_Party/LoRaWAN/Mac/region/RegionCommon.c ****             {// Check datarate validity for enabled channels
 1297              		.loc 1 84 0
 1298 00c6 039C     		ldr	r4, [sp, #12]
 1299 00c8 4100     		lsls	r1, r0, #1
 1300 00ca 0F5B     		ldrh	r7, [r1, r4]
 1301 00cc 0499     		ldr	r1, [sp, #16]
 1302 00ce 5500     		lsls	r5, r2, #1
 1303 00d0 8846     		mov	r8, r1
 1304 00d2 AD18     		adds	r5, r5, r2
 1305 00d4 AD00     		lsls	r5, r5, #2
 1306 00d6 4544     		add	r5, r5, r8
 1307 00d8 0024     		movs	r4, #0
 1308 00da B046     		mov	r8, r6
 1309 00dc 0292     		str	r2, [sp, #8]
 1310              	.LVL143:
 1311              	.L156:
 1312 00de 3900     		movs	r1, r7
 1313 00e0 6646     		mov	r6, ip
 1314 00e2 2141     		asrs	r1, r1, r4
 1315 00e4 0E42     		tst	r6, r1
 1316 00e6 0BD0     		beq	.L154
 1317              	.LBB92:
 1318              	.LBB93:
 100:../../../../../../Middlewares/Third_Party/LoRaWAN/Mac/region/RegionCommon.c ****     {
 1319              		.loc 1 100 0
 1320 00e8 5246     		mov	r2, r10
 1321              	.LBE93:
 1322              	.LBE92:
  87:../../../../../../Middlewares/Third_Party/LoRaWAN/Mac/region/RegionCommon.c ****                 {
 1323              		.loc 1 87 0
 1324 00ea 297A     		ldrb	r1, [r5, #8]
 1325 00ec 4EB2     		sxtb	r6, r1
  86:../../../../../../Middlewares/Third_Party/LoRaWAN/Mac/region/RegionCommon.c ****                                                   ( channels[i + j].DrRange.Fields.Max & 0x0F ) ) =
 1326              		.loc 1 86 0
 1327 00ee 0907     		lsls	r1, r1, #28
 1328 00f0 0917     		asrs	r1, r1, #28
  87:../../../../../../Middlewares/Third_Party/LoRaWAN/Mac/region/RegionCommon.c ****                 {
 1329              		.loc 1 87 0
 1330 00f2 3611     		asrs	r6, r6, #4
 1331              	.LVL144:
 1332              	.LBB95:
 1333              	.LBB94:
 100:../../../../../../Middlewares/Third_Party/LoRaWAN/Mac/region/RegionCommon.c ****     {
 1334              		.loc 1 100 0
 1335 00f4 1140     		ands	r1, r2
 1336 00f6 8B42     		cmp	r3, r1
 1337 00f8 02DB     		blt	.L154
 1338 00fa 1640     		ands	r6, r2
 1339              	.LVL145:
 1340 00fc B342     		cmp	r3, r6
ARM GAS  C:\Users\EBANO_~1\AppData\Local\Temp\ccizkeXa.s 			page 32


 1341 00fe 14DD     		ble	.L171
 1342              	.LVL146:
 1343              	.L154:
 1344 0100 0134     		adds	r4, r4, #1
 1345              	.LVL147:
 1346 0102 0C35     		adds	r5, r5, #12
 1347              	.LBE94:
 1348              	.LBE95:
  82:../../../../../../Middlewares/Third_Party/LoRaWAN/Mac/region/RegionCommon.c ****         {
 1349              		.loc 1 82 0
 1350 0104 102C     		cmp	r4, #16
 1351 0106 EAD1     		bne	.L156
 1352 0108 029A     		ldr	r2, [sp, #8]
 1353              	.LBE96:
  80:../../../../../../Middlewares/Third_Party/LoRaWAN/Mac/region/RegionCommon.c ****     {
 1354              		.loc 1 80 0
 1355 010a 0599     		ldr	r1, [sp, #20]
 1356 010c 1032     		adds	r2, r2, #16
 1357 010e 0130     		adds	r0, r0, #1
 1358              	.LVL148:
 1359 0110 D2B2     		uxtb	r2, r2
 1360              	.LVL149:
 1361 0112 4646     		mov	r6, r8
 1362 0114 C0B2     		uxtb	r0, r0
 1363              	.LVL150:
 1364 0116 9142     		cmp	r1, r2
 1365 0118 D5D8     		bhi	.L157
 1366              	.LVL151:
 1367 011a 0699     		ldr	r1, [sp, #24]
 1368 011c 4246     		mov	r2, r8
 1369              	.LVL152:
 1370 011e 0798     		ldr	r0, [sp, #28]
 1371              	.LVL153:
 1372 0120 8846     		mov	r8, r1
 1373 0122 A4E7     		b	.L153
 1374              	.LVL154:
 1375              	.L175:
 1376              	.LBE99:
 1377              	.LBE102:
 1378              	.LBE109:
 267:../../../../../../Middlewares/Third_Party/LoRaWAN/Mac/region/RegionCommon.c ****             }
 1379              		.loc 1 267 0
 1380 0124 0420     		movs	r0, #4
 1381 0126 8243     		bics	r2, r0
 1382              	.LVL155:
 1383 0128 ACE7     		b	.L158
 1384              	.LVL156:
 1385              	.L171:
 1386 012a 0699     		ldr	r1, [sp, #24]
 1387 012c 4246     		mov	r2, r8
 1388 012e 0798     		ldr	r0, [sp, #28]
 1389              	.LVL157:
 1390 0130 8846     		mov	r8, r1
 1391              	.LVL158:
 1392 0132 9EE7     		b	.L155
 1393              		.cfi_endproc
 1394              	.LFE49:
ARM GAS  C:\Users\EBANO_~1\AppData\Local\Temp\ccizkeXa.s 			page 33


 1395              		.size	RegionCommonLinkAdrReqVerifyParams, .-RegionCommonLinkAdrReqVerifyParams
 1396              		.global	__aeabi_i2d
 1397              		.global	__aeabi_ui2d
 1398              		.global	__aeabi_ddiv
 1399              		.global	__aeabi_dmul
 1400              		.section	.text.RegionCommonComputeSymbolTimeLoRa,"ax",%progbits
 1401              		.align	1
 1402              		.p2align 2,,3
 1403              		.global	RegionCommonComputeSymbolTimeLoRa
 1404              		.syntax unified
 1405              		.code	16
 1406              		.thumb_func
 1407              		.fpu softvfp
 1408              		.type	RegionCommonComputeSymbolTimeLoRa, %function
 1409              	RegionCommonComputeSymbolTimeLoRa:
 1410              	.LFB50:
 288:../../../../../../Middlewares/Third_Party/LoRaWAN/Mac/region/RegionCommon.c **** 
 289:../../../../../../Middlewares/Third_Party/LoRaWAN/Mac/region/RegionCommon.c **** double RegionCommonComputeSymbolTimeLoRa( uint8_t phyDr, uint32_t bandwidth )
 290:../../../../../../Middlewares/Third_Party/LoRaWAN/Mac/region/RegionCommon.c **** {
 1411              		.loc 1 290 0
 1412              		.cfi_startproc
 1413              		@ args = 0, pretend = 0, frame = 0
 1414              		@ frame_needed = 0, uses_anonymous_args = 0
 1415              	.LVL159:
 291:../../../../../../Middlewares/Third_Party/LoRaWAN/Mac/region/RegionCommon.c ****     return ( ( double )( 1 << phyDr ) / ( double )bandwidth ) * 1000;
 1416              		.loc 1 291 0
 1417 0000 0123     		movs	r3, #1
 1418 0002 8340     		lsls	r3, r3, r0
 290:../../../../../../Middlewares/Third_Party/LoRaWAN/Mac/region/RegionCommon.c ****     return ( ( double )( 1 << phyDr ) / ( double )bandwidth ) * 1000;
 1419              		.loc 1 290 0
 1420 0004 70B5     		push	{r4, r5, r6, lr}
 1421              	.LCFI12:
 1422              		.cfi_def_cfa_offset 16
 1423              		.cfi_offset 4, -16
 1424              		.cfi_offset 5, -12
 1425              		.cfi_offset 6, -8
 1426              		.cfi_offset 14, -4
 1427              		.loc 1 291 0
 1428 0006 1800     		movs	r0, r3
 1429              	.LVL160:
 290:../../../../../../Middlewares/Third_Party/LoRaWAN/Mac/region/RegionCommon.c ****     return ( ( double )( 1 << phyDr ) / ( double )bandwidth ) * 1000;
 1430              		.loc 1 290 0
 1431 0008 0E00     		movs	r6, r1
 1432              		.loc 1 291 0
 1433 000a FFF7FEFF 		bl	__aeabi_i2d
 1434              	.LVL161:
 1435 000e 0400     		movs	r4, r0
 1436 0010 3000     		movs	r0, r6
 1437 0012 0D00     		movs	r5, r1
 1438 0014 FFF7FEFF 		bl	__aeabi_ui2d
 1439              	.LVL162:
 1440 0018 0200     		movs	r2, r0
 1441 001a 0B00     		movs	r3, r1
 1442 001c 2000     		movs	r0, r4
 1443 001e 2900     		movs	r1, r5
 1444 0020 FFF7FEFF 		bl	__aeabi_ddiv
 1445              	.LVL163:
ARM GAS  C:\Users\EBANO_~1\AppData\Local\Temp\ccizkeXa.s 			page 34


 1446 0024 0022     		movs	r2, #0
 1447 0026 024B     		ldr	r3, .L177
 1448 0028 FFF7FEFF 		bl	__aeabi_dmul
 1449              	.LVL164:
 292:../../../../../../Middlewares/Third_Party/LoRaWAN/Mac/region/RegionCommon.c **** }
 1450              		.loc 1 292 0
 1451              		@ sp needed
 1452              	.LVL165:
 1453 002c 70BD     		pop	{r4, r5, r6, pc}
 1454              	.L178:
 1455 002e C046     		.align	2
 1456              	.L177:
 1457 0030 00408F40 		.word	1083129856
 1458              		.cfi_endproc
 1459              	.LFE50:
 1460              		.size	RegionCommonComputeSymbolTimeLoRa, .-RegionCommonComputeSymbolTimeLoRa
 1461              		.section	.text.RegionCommonComputeSymbolTimeFsk,"ax",%progbits
 1462              		.align	1
 1463              		.p2align 2,,3
 1464              		.global	RegionCommonComputeSymbolTimeFsk
 1465              		.syntax unified
 1466              		.code	16
 1467              		.thumb_func
 1468              		.fpu softvfp
 1469              		.type	RegionCommonComputeSymbolTimeFsk, %function
 1470              	RegionCommonComputeSymbolTimeFsk:
 1471              	.LFB51:
 293:../../../../../../Middlewares/Third_Party/LoRaWAN/Mac/region/RegionCommon.c **** 
 294:../../../../../../Middlewares/Third_Party/LoRaWAN/Mac/region/RegionCommon.c **** double RegionCommonComputeSymbolTimeFsk( uint8_t phyDr )
 295:../../../../../../Middlewares/Third_Party/LoRaWAN/Mac/region/RegionCommon.c **** {
 1472              		.loc 1 295 0
 1473              		.cfi_startproc
 1474              		@ args = 0, pretend = 0, frame = 0
 1475              		@ frame_needed = 0, uses_anonymous_args = 0
 1476              	.LVL166:
 1477 0000 10B5     		push	{r4, lr}
 1478              	.LCFI13:
 1479              		.cfi_def_cfa_offset 8
 1480              		.cfi_offset 4, -8
 1481              		.cfi_offset 14, -4
 296:../../../../../../Middlewares/Third_Party/LoRaWAN/Mac/region/RegionCommon.c ****     return ( 8.0 / ( double )phyDr ); // 1 symbol equals 1 byte
 1482              		.loc 1 296 0
 1483 0002 FFF7FEFF 		bl	__aeabi_ui2d
 1484              	.LVL167:
 1485 0006 0200     		movs	r2, r0
 1486 0008 0B00     		movs	r3, r1
 1487 000a 0020     		movs	r0, #0
 1488 000c 0149     		ldr	r1, .L180
 1489 000e FFF7FEFF 		bl	__aeabi_ddiv
 1490              	.LVL168:
 297:../../../../../../Middlewares/Third_Party/LoRaWAN/Mac/region/RegionCommon.c **** }
 1491              		.loc 1 297 0
 1492              		@ sp needed
 1493 0012 10BD     		pop	{r4, pc}
 1494              	.L181:
 1495              		.align	2
 1496              	.L180:
ARM GAS  C:\Users\EBANO_~1\AppData\Local\Temp\ccizkeXa.s 			page 35


 1497 0014 00002040 		.word	1075838976
 1498              		.cfi_endproc
 1499              	.LFE51:
 1500              		.size	RegionCommonComputeSymbolTimeFsk, .-RegionCommonComputeSymbolTimeFsk
 1501              		.global	__aeabi_dadd
 1502              		.global	__aeabi_d2uiz
 1503              		.global	__aeabi_dsub
 1504              		.global	__aeabi_d2iz
 1505              		.section	.text.RegionCommonComputeRxWindowParameters,"ax",%progbits
 1506              		.align	1
 1507              		.p2align 2,,3
 1508              		.global	RegionCommonComputeRxWindowParameters
 1509              		.syntax unified
 1510              		.code	16
 1511              		.thumb_func
 1512              		.fpu softvfp
 1513              		.type	RegionCommonComputeRxWindowParameters, %function
 1514              	RegionCommonComputeRxWindowParameters:
 1515              	.LFB52:
 298:../../../../../../Middlewares/Third_Party/LoRaWAN/Mac/region/RegionCommon.c **** 
 299:../../../../../../Middlewares/Third_Party/LoRaWAN/Mac/region/RegionCommon.c **** void RegionCommonComputeRxWindowParameters( double tSymbol, uint8_t minRxSymbols, uint32_t rxError,
 300:../../../../../../Middlewares/Third_Party/LoRaWAN/Mac/region/RegionCommon.c **** {
 1516              		.loc 1 300 0
 1517              		.cfi_startproc
 1518              		@ args = 12, pretend = 0, frame = 0
 1519              		@ frame_needed = 0, uses_anonymous_args = 0
 1520              	.LVL169:
 1521 0000 F8B5     		push	{r3, r4, r5, r6, r7, lr}
 1522              	.LCFI14:
 1523              		.cfi_def_cfa_offset 24
 1524              		.cfi_offset 3, -24
 1525              		.cfi_offset 4, -20
 1526              		.cfi_offset 5, -16
 1527              		.cfi_offset 6, -12
 1528              		.cfi_offset 7, -8
 1529              		.cfi_offset 14, -4
 1530 0002 CE46     		mov	lr, r9
 1531 0004 4746     		mov	r7, r8
 1532 0006 0400     		movs	r4, r0
 1533 0008 0D00     		movs	r5, r1
 1534 000a 9846     		mov	r8, r3
 301:../../../../../../Middlewares/Third_Party/LoRaWAN/Mac/region/RegionCommon.c ****     *windowTimeout = MAX( ( uint32_t )ceil( ( ( 2 * minRxSymbols - 8 ) * tSymbol + 2 * rxError ) / 
 1535              		.loc 1 301 0
 1536 000c 101F     		subs	r0, r2, #4
 1537              	.LVL170:
 300:../../../../../../Middlewares/Third_Party/LoRaWAN/Mac/region/RegionCommon.c ****     *windowTimeout = MAX( ( uint32_t )ceil( ( ( 2 * minRxSymbols - 8 ) * tSymbol + 2 * rxError ) / 
 1538              		.loc 1 300 0
 1539 000e 80B5     		push	{r7, lr}
 1540              	.LCFI15:
 1541              		.cfi_def_cfa_offset 32
 1542              		.cfi_offset 8, -32
 1543              		.cfi_offset 9, -28
 1544              		.loc 1 301 0
 1545 0010 4000     		lsls	r0, r0, #1
 300:../../../../../../Middlewares/Third_Party/LoRaWAN/Mac/region/RegionCommon.c ****     *windowTimeout = MAX( ( uint32_t )ceil( ( ( 2 * minRxSymbols - 8 ) * tSymbol + 2 * rxError ) / 
 1546              		.loc 1 300 0
 1547 0012 9146     		mov	r9, r2
ARM GAS  C:\Users\EBANO_~1\AppData\Local\Temp\ccizkeXa.s 			page 36


 1548              		.loc 1 301 0
 1549 0014 FFF7FEFF 		bl	__aeabi_i2d
 1550              	.LVL171:
 1551 0018 2200     		movs	r2, r4
 1552 001a 2B00     		movs	r3, r5
 1553 001c FFF7FEFF 		bl	__aeabi_dmul
 1554              	.LVL172:
 1555 0020 4346     		mov	r3, r8
 1556 0022 0600     		movs	r6, r0
 1557 0024 5800     		lsls	r0, r3, #1
 1558 0026 0F00     		movs	r7, r1
 1559 0028 FFF7FEFF 		bl	__aeabi_ui2d
 1560              	.LVL173:
 1561 002c 0200     		movs	r2, r0
 1562 002e 0B00     		movs	r3, r1
 1563 0030 3000     		movs	r0, r6
 1564 0032 3900     		movs	r1, r7
 1565 0034 FFF7FEFF 		bl	__aeabi_dadd
 1566              	.LVL174:
 1567 0038 2200     		movs	r2, r4
 1568 003a 2B00     		movs	r3, r5
 1569 003c FFF7FEFF 		bl	__aeabi_ddiv
 1570              	.LVL175:
 1571 0040 FFF7FEFF 		bl	ceil
 1572              	.LVL176:
 1573 0044 FFF7FEFF 		bl	__aeabi_d2uiz
 1574              	.LVL177:
 1575 0048 8046     		mov	r8, r0
 1576              	.LVL178:
 1577 004a 4845     		cmp	r0, r9
 1578 004c 00D2     		bcs	.L183
 1579 004e C846     		mov	r8, r9
 1580              	.L183:
 1581 0050 4246     		mov	r2, r8
 1582 0052 099B     		ldr	r3, [sp, #36]
 302:../../../../../../Middlewares/Third_Party/LoRaWAN/Mac/region/RegionCommon.c ****     *windowOffset = ( int32_t )ceil( ( 4.0 * tSymbol ) - ( ( *windowTimeout * tSymbol ) / 2.0 ) - w
 1583              		.loc 1 302 0
 1584 0054 2000     		movs	r0, r4
 301:../../../../../../Middlewares/Third_Party/LoRaWAN/Mac/region/RegionCommon.c ****     *windowTimeout = MAX( ( uint32_t )ceil( ( ( 2 * minRxSymbols - 8 ) * tSymbol + 2 * rxError ) / 
 1585              		.loc 1 301 0
 1586 0056 1A60     		str	r2, [r3]
 1587              		.loc 1 302 0
 1588 0058 2900     		movs	r1, r5
 1589 005a 0022     		movs	r2, #0
 1590 005c 154B     		ldr	r3, .L184
 1591 005e FFF7FEFF 		bl	__aeabi_dmul
 1592              	.LVL179:
 1593 0062 0600     		movs	r6, r0
 1594 0064 4046     		mov	r0, r8
 1595 0066 0F00     		movs	r7, r1
 1596 0068 FFF7FEFF 		bl	__aeabi_ui2d
 1597              	.LVL180:
 1598 006c 2200     		movs	r2, r4
 1599 006e 2B00     		movs	r3, r5
 1600 0070 FFF7FEFF 		bl	__aeabi_dmul
 1601              	.LVL181:
 1602 0074 0022     		movs	r2, #0
ARM GAS  C:\Users\EBANO_~1\AppData\Local\Temp\ccizkeXa.s 			page 37


 1603 0076 104B     		ldr	r3, .L184+4
 1604 0078 FFF7FEFF 		bl	__aeabi_dmul
 1605              	.LVL182:
 1606 007c 0200     		movs	r2, r0
 1607 007e 0B00     		movs	r3, r1
 1608 0080 3000     		movs	r0, r6
 1609 0082 3900     		movs	r1, r7
 1610 0084 FFF7FEFF 		bl	__aeabi_dsub
 1611              	.LVL183:
 1612 0088 0400     		movs	r4, r0
 1613 008a 0898     		ldr	r0, [sp, #32]
 1614 008c 0D00     		movs	r5, r1
 1615 008e FFF7FEFF 		bl	__aeabi_ui2d
 1616              	.LVL184:
 1617 0092 0200     		movs	r2, r0
 1618 0094 0B00     		movs	r3, r1
 1619 0096 2000     		movs	r0, r4
 1620 0098 2900     		movs	r1, r5
 1621 009a FFF7FEFF 		bl	__aeabi_dsub
 1622              	.LVL185:
 1623 009e FFF7FEFF 		bl	ceil
 1624              	.LVL186:
 1625 00a2 FFF7FEFF 		bl	__aeabi_d2iz
 1626              	.LVL187:
 1627 00a6 0A9B     		ldr	r3, [sp, #40]
 303:../../../../../../Middlewares/Third_Party/LoRaWAN/Mac/region/RegionCommon.c **** }
 1628              		.loc 1 303 0
 1629              		@ sp needed
 302:../../../../../../Middlewares/Third_Party/LoRaWAN/Mac/region/RegionCommon.c ****     *windowOffset = ( int32_t )ceil( ( 4.0 * tSymbol ) - ( ( *windowTimeout * tSymbol ) / 2.0 ) - w
 1630              		.loc 1 302 0
 1631 00a8 1860     		str	r0, [r3]
 1632              		.loc 1 303 0
 1633 00aa 0CBC     		pop	{r2, r3}
 1634 00ac 9046     		mov	r8, r2
 1635 00ae 9946     		mov	r9, r3
 1636 00b0 F8BD     		pop	{r3, r4, r5, r6, r7, pc}
 1637              	.L185:
 1638 00b2 C046     		.align	2
 1639              	.L184:
 1640 00b4 00001040 		.word	1074790400
 1641 00b8 0000E03F 		.word	1071644672
 1642              		.cfi_endproc
 1643              	.LFE52:
 1644              		.size	RegionCommonComputeRxWindowParameters, .-RegionCommonComputeRxWindowParameters
 1645              		.global	__aeabi_ui2f
 1646              		.global	__aeabi_fsub
 1647              		.global	__aeabi_f2d
 1648              		.section	.text.RegionCommonComputeTxPower,"ax",%progbits
 1649              		.align	1
 1650              		.p2align 2,,3
 1651              		.global	RegionCommonComputeTxPower
 1652              		.syntax unified
 1653              		.code	16
 1654              		.thumb_func
 1655              		.fpu softvfp
 1656              		.type	RegionCommonComputeTxPower, %function
 1657              	RegionCommonComputeTxPower:
ARM GAS  C:\Users\EBANO_~1\AppData\Local\Temp\ccizkeXa.s 			page 38


 1658              	.LFB53:
 304:../../../../../../Middlewares/Third_Party/LoRaWAN/Mac/region/RegionCommon.c **** 
 305:../../../../../../Middlewares/Third_Party/LoRaWAN/Mac/region/RegionCommon.c **** int8_t RegionCommonComputeTxPower( int8_t txPowerIndex, float maxEirp, float antennaGain )
 306:../../../../../../Middlewares/Third_Party/LoRaWAN/Mac/region/RegionCommon.c **** {
 1659              		.loc 1 306 0
 1660              		.cfi_startproc
 1661              		@ args = 0, pretend = 0, frame = 0
 1662              		@ frame_needed = 0, uses_anonymous_args = 0
 1663              	.LVL188:
 1664 0000 70B5     		push	{r4, r5, r6, lr}
 1665              	.LCFI16:
 1666              		.cfi_def_cfa_offset 16
 1667              		.cfi_offset 4, -16
 1668              		.cfi_offset 5, -12
 1669              		.cfi_offset 6, -8
 1670              		.cfi_offset 14, -4
 307:../../../../../../Middlewares/Third_Party/LoRaWAN/Mac/region/RegionCommon.c ****     int8_t phyTxPower = 0;
 308:../../../../../../Middlewares/Third_Party/LoRaWAN/Mac/region/RegionCommon.c **** 
 309:../../../../../../Middlewares/Third_Party/LoRaWAN/Mac/region/RegionCommon.c ****     phyTxPower = ( int8_t )floor( ( maxEirp - ( txPowerIndex * 2U ) ) - antennaGain );
 1671              		.loc 1 309 0
 1672 0002 4000     		lsls	r0, r0, #1
 1673              	.LVL189:
 306:../../../../../../Middlewares/Third_Party/LoRaWAN/Mac/region/RegionCommon.c ****     int8_t phyTxPower = 0;
 1674              		.loc 1 306 0
 1675 0004 141C     		adds	r4, r2, #0
 1676 0006 0D1C     		adds	r5, r1, #0
 1677              		.loc 1 309 0
 1678 0008 FFF7FEFF 		bl	__aeabi_ui2f
 1679              	.LVL190:
 1680 000c 011C     		adds	r1, r0, #0
 1681 000e 281C     		adds	r0, r5, #0
 1682 0010 FFF7FEFF 		bl	__aeabi_fsub
 1683              	.LVL191:
 1684 0014 211C     		adds	r1, r4, #0
 1685 0016 FFF7FEFF 		bl	__aeabi_fsub
 1686              	.LVL192:
 1687 001a FFF7FEFF 		bl	__aeabi_f2d
 1688              	.LVL193:
 1689 001e FFF7FEFF 		bl	floor
 1690              	.LVL194:
 1691 0022 FFF7FEFF 		bl	__aeabi_d2iz
 1692              	.LVL195:
 310:../../../../../../Middlewares/Third_Party/LoRaWAN/Mac/region/RegionCommon.c **** 
 311:../../../../../../Middlewares/Third_Party/LoRaWAN/Mac/region/RegionCommon.c ****     return phyTxPower;
 312:../../../../../../Middlewares/Third_Party/LoRaWAN/Mac/region/RegionCommon.c **** }
 1693              		.loc 1 312 0
 1694              		@ sp needed
 311:../../../../../../Middlewares/Third_Party/LoRaWAN/Mac/region/RegionCommon.c **** }
 1695              		.loc 1 311 0
 1696 0026 40B2     		sxtb	r0, r0
 1697              	.LVL196:
 1698              	.LVL197:
 1699              		.loc 1 312 0
 1700 0028 70BD     		pop	{r4, r5, r6, pc}
 1701              		.cfi_endproc
 1702              	.LFE53:
 1703              		.size	RegionCommonComputeTxPower, .-RegionCommonComputeTxPower
ARM GAS  C:\Users\EBANO_~1\AppData\Local\Temp\ccizkeXa.s 			page 39


 1704 002a C046     		.section	.text.RegionCommonCalcBackOff,"ax",%progbits
 1705              		.align	1
 1706              		.p2align 2,,3
 1707              		.global	RegionCommonCalcBackOff
 1708              		.syntax unified
 1709              		.code	16
 1710              		.thumb_func
 1711              		.fpu softvfp
 1712              		.type	RegionCommonCalcBackOff, %function
 1713              	RegionCommonCalcBackOff:
 1714              	.LFB54:
 313:../../../../../../Middlewares/Third_Party/LoRaWAN/Mac/region/RegionCommon.c **** 
 314:../../../../../../Middlewares/Third_Party/LoRaWAN/Mac/region/RegionCommon.c **** void RegionCommonCalcBackOff( RegionCommonCalcBackOffParams_t* calcBackOffParams )
 315:../../../../../../Middlewares/Third_Party/LoRaWAN/Mac/region/RegionCommon.c **** {
 1715              		.loc 1 315 0
 1716              		.cfi_startproc
 1717              		@ args = 0, pretend = 0, frame = 0
 1718              		@ frame_needed = 0, uses_anonymous_args = 0
 1719              	.LVL198:
 316:../../../../../../Middlewares/Third_Party/LoRaWAN/Mac/region/RegionCommon.c ****     uint8_t bandIdx = calcBackOffParams->Channels[calcBackOffParams->Channel].Band;
 1720              		.loc 1 316 0
 1721 0000 C27A     		ldrb	r2, [r0, #11]
 1722              	.LVL199:
 315:../../../../../../Middlewares/Third_Party/LoRaWAN/Mac/region/RegionCommon.c ****     uint8_t bandIdx = calcBackOffParams->Channels[calcBackOffParams->Channel].Band;
 1723              		.loc 1 315 0
 1724 0002 70B5     		push	{r4, r5, r6, lr}
 1725              	.LCFI17:
 1726              		.cfi_def_cfa_offset 16
 1727              		.cfi_offset 4, -16
 1728              		.cfi_offset 5, -12
 1729              		.cfi_offset 6, -8
 1730              		.cfi_offset 14, -4
 1731              		.loc 1 316 0
 1732 0004 5300     		lsls	r3, r2, #1
 1733 0006 9B18     		adds	r3, r3, r2
 1734 0008 0268     		ldr	r2, [r0]
 1735              	.LVL200:
 1736 000a 9B00     		lsls	r3, r3, #2
 1737 000c 9446     		mov	ip, r2
 317:../../../../../../Middlewares/Third_Party/LoRaWAN/Mac/region/RegionCommon.c ****     uint16_t dutyCycle = calcBackOffParams->Bands[bandIdx].DCycle;
 1738              		.loc 1 317 0
 1739 000e 4268     		ldr	r2, [r0, #4]
 316:../../../../../../Middlewares/Third_Party/LoRaWAN/Mac/region/RegionCommon.c ****     uint8_t bandIdx = calcBackOffParams->Channels[calcBackOffParams->Channel].Band;
 1740              		.loc 1 316 0
 1741 0010 6344     		add	r3, r3, ip
 1742              		.loc 1 317 0
 1743 0012 9446     		mov	ip, r2
 318:../../../../../../Middlewares/Third_Party/LoRaWAN/Mac/region/RegionCommon.c ****     uint16_t joinDutyCycle = 0;
 319:../../../../../../Middlewares/Third_Party/LoRaWAN/Mac/region/RegionCommon.c **** 
 320:../../../../../../Middlewares/Third_Party/LoRaWAN/Mac/region/RegionCommon.c ****     // Reset time-off to initial value.
 321:../../../../../../Middlewares/Third_Party/LoRaWAN/Mac/region/RegionCommon.c ****     calcBackOffParams->Bands[bandIdx].TimeOff = 0;
 1744              		.loc 1 321 0
 1745 0014 0022     		movs	r2, #0
 317:../../../../../../Middlewares/Third_Party/LoRaWAN/Mac/region/RegionCommon.c ****     uint16_t dutyCycle = calcBackOffParams->Bands[bandIdx].DCycle;
 1746              		.loc 1 317 0
 1747 0016 5B7A     		ldrb	r3, [r3, #9]
 1748 0018 1B01     		lsls	r3, r3, #4
ARM GAS  C:\Users\EBANO_~1\AppData\Local\Temp\ccizkeXa.s 			page 40


 1749 001a 6344     		add	r3, r3, ip
 1750              		.loc 1 321 0
 1751 001c DA60     		str	r2, [r3, #12]
 1752              	.LVL201:
 322:../../../../../../Middlewares/Third_Party/LoRaWAN/Mac/region/RegionCommon.c **** 
 323:../../../../../../Middlewares/Third_Party/LoRaWAN/Mac/region/RegionCommon.c ****     if( calcBackOffParams->Joined == false )
 1753              		.loc 1 323 0
 1754 001e 427A     		ldrb	r2, [r0, #9]
 317:../../../../../../Middlewares/Third_Party/LoRaWAN/Mac/region/RegionCommon.c ****     uint16_t joinDutyCycle = 0;
 1755              		.loc 1 317 0
 1756 0020 1988     		ldrh	r1, [r3]
 1757              	.LVL202:
 1758 0022 847A     		ldrb	r4, [r0, #10]
 1759              		.loc 1 323 0
 1760 0024 002A     		cmp	r2, #0
 1761 0026 0AD1     		bne	.L188
 324:../../../../../../Middlewares/Third_Party/LoRaWAN/Mac/region/RegionCommon.c ****     {
 325:../../../../../../Middlewares/Third_Party/LoRaWAN/Mac/region/RegionCommon.c ****         // Get the join duty cycle
 326:../../../../../../Middlewares/Third_Party/LoRaWAN/Mac/region/RegionCommon.c ****         joinDutyCycle = RegionCommonGetJoinDc( calcBackOffParams->ElapsedTime );
 1762              		.loc 1 326 0
 1763 0028 C568     		ldr	r5, [r0, #12]
 1764              	.LVL203:
 1765              	.LBB110:
 1766              	.LBB111:
  58:../../../../../../Middlewares/Third_Party/LoRaWAN/Mac/region/RegionCommon.c ****     {
 1767              		.loc 1 58 0
 1768 002a 164E     		ldr	r6, .L204
  60:../../../../../../Middlewares/Third_Party/LoRaWAN/Mac/region/RegionCommon.c ****     }
 1769              		.loc 1 60 0
 1770 002c 6432     		adds	r2, r2, #100
  58:../../../../../../Middlewares/Third_Party/LoRaWAN/Mac/region/RegionCommon.c ****     {
 1771              		.loc 1 58 0
 1772 002e B542     		cmp	r5, r6
 1773 0030 0CD8     		bhi	.L201
 1774              	.LVL204:
 1775              	.LBE111:
 1776              	.LBE110:
 327:../../../../../../Middlewares/Third_Party/LoRaWAN/Mac/region/RegionCommon.c ****         // Apply the most restricting duty cycle
 328:../../../../../../Middlewares/Third_Party/LoRaWAN/Mac/region/RegionCommon.c ****         dutyCycle = MAX( dutyCycle, joinDutyCycle );
 329:../../../../../../Middlewares/Third_Party/LoRaWAN/Mac/region/RegionCommon.c ****         // Reset the timeoff if the last frame was not a join request and when the duty cycle is no
 330:../../../../../../Middlewares/Third_Party/LoRaWAN/Mac/region/RegionCommon.c ****         if( ( calcBackOffParams->DutyCycleEnabled == false ) && ( calcBackOffParams->LastTxIsJoinRe
 1777              		.loc 1 330 0
 1778 0032 002C     		cmp	r4, #0
 1779 0034 15D1     		bne	.L190
 1780              	.LVL205:
 1781              	.L202:
 1782              		.loc 1 330 0 is_stmt 0 discriminator 1
 1783 0036 047A     		ldrb	r4, [r0, #8]
 1784 0038 002C     		cmp	r4, #0
 1785 003a 12D1     		bne	.L190
 1786              	.L187:
 331:../../../../../../Middlewares/Third_Party/LoRaWAN/Mac/region/RegionCommon.c ****         {
 332:../../../../../../Middlewares/Third_Party/LoRaWAN/Mac/region/RegionCommon.c ****             // This is the case when the duty cycle is off and the last uplink frame was not a join
 333:../../../../../../Middlewares/Third_Party/LoRaWAN/Mac/region/RegionCommon.c ****             // This could happen in case of a rejoin, e.g. in compliance test mode.
 334:../../../../../../Middlewares/Third_Party/LoRaWAN/Mac/region/RegionCommon.c ****             // In this special case we have to set the time off to 0, since the join duty cycle sha
 335:../../../../../../Middlewares/Third_Party/LoRaWAN/Mac/region/RegionCommon.c ****             // be applied after the first join request.
 336:../../../../../../Middlewares/Third_Party/LoRaWAN/Mac/region/RegionCommon.c ****             calcBackOffParams->Bands[bandIdx].TimeOff = 0;
ARM GAS  C:\Users\EBANO_~1\AppData\Local\Temp\ccizkeXa.s 			page 41


 337:../../../../../../Middlewares/Third_Party/LoRaWAN/Mac/region/RegionCommon.c ****         }
 338:../../../../../../Middlewares/Third_Party/LoRaWAN/Mac/region/RegionCommon.c ****         else
 339:../../../../../../Middlewares/Third_Party/LoRaWAN/Mac/region/RegionCommon.c ****         {
 340:../../../../../../Middlewares/Third_Party/LoRaWAN/Mac/region/RegionCommon.c ****             // Apply band time-off.
 341:../../../../../../Middlewares/Third_Party/LoRaWAN/Mac/region/RegionCommon.c ****             calcBackOffParams->Bands[bandIdx].TimeOff = calcBackOffParams->TxTimeOnAir * dutyCycle 
 342:../../../../../../Middlewares/Third_Party/LoRaWAN/Mac/region/RegionCommon.c ****         }
 343:../../../../../../Middlewares/Third_Party/LoRaWAN/Mac/region/RegionCommon.c ****     }
 344:../../../../../../Middlewares/Third_Party/LoRaWAN/Mac/region/RegionCommon.c ****     else
 345:../../../../../../Middlewares/Third_Party/LoRaWAN/Mac/region/RegionCommon.c ****     {
 346:../../../../../../Middlewares/Third_Party/LoRaWAN/Mac/region/RegionCommon.c ****         if( calcBackOffParams->DutyCycleEnabled == true )
 347:../../../../../../Middlewares/Third_Party/LoRaWAN/Mac/region/RegionCommon.c ****         {
 348:../../../../../../Middlewares/Third_Party/LoRaWAN/Mac/region/RegionCommon.c ****             calcBackOffParams->Bands[bandIdx].TimeOff = calcBackOffParams->TxTimeOnAir * dutyCycle 
 349:../../../../../../Middlewares/Third_Party/LoRaWAN/Mac/region/RegionCommon.c ****         }
 350:../../../../../../Middlewares/Third_Party/LoRaWAN/Mac/region/RegionCommon.c ****         else
 351:../../../../../../Middlewares/Third_Party/LoRaWAN/Mac/region/RegionCommon.c ****         {
 352:../../../../../../Middlewares/Third_Party/LoRaWAN/Mac/region/RegionCommon.c ****             calcBackOffParams->Bands[bandIdx].TimeOff = 0;
 353:../../../../../../Middlewares/Third_Party/LoRaWAN/Mac/region/RegionCommon.c ****         }
 354:../../../../../../Middlewares/Third_Party/LoRaWAN/Mac/region/RegionCommon.c ****     }
 355:../../../../../../Middlewares/Third_Party/LoRaWAN/Mac/region/RegionCommon.c **** }
 1787              		.loc 1 355 0 is_stmt 1
 1788              		@ sp needed
 1789 003c 70BD     		pop	{r4, r5, r6, pc}
 1790              	.LVL206:
 1791              	.L188:
 346:../../../../../../Middlewares/Third_Party/LoRaWAN/Mac/region/RegionCommon.c ****         {
 1792              		.loc 1 346 0
 1793 003e 002C     		cmp	r4, #0
 1794 0040 FCD0     		beq	.L187
 348:../../../../../../Middlewares/Third_Party/LoRaWAN/Mac/region/RegionCommon.c ****         }
 1795              		.loc 1 348 0
 1796 0042 0269     		ldr	r2, [r0, #16]
 1797 0044 0139     		subs	r1, r1, #1
 1798              	.LVL207:
 1799 0046 5143     		muls	r1, r2
 1800              	.LVL208:
 1801 0048 D960     		str	r1, [r3, #12]
 1802              		.loc 1 355 0
 1803 004a F7E7     		b	.L187
 1804              	.LVL209:
 1805              	.L201:
 1806              	.LBB113:
 1807              	.LBB112:
  64:../../../../../../Middlewares/Third_Party/LoRaWAN/Mac/region/RegionCommon.c ****     }
 1808              		.loc 1 64 0
 1809 004c 0E4A     		ldr	r2, .L204+4
 1810 004e AA42     		cmp	r2, r5
 1811 0050 9241     		sbcs	r2, r2, r2
 1812 0052 0E4D     		ldr	r5, .L204+8
 1813              	.LVL210:
 1814 0054 2A40     		ands	r2, r5
 1815 0056 FA25     		movs	r5, #250
 1816 0058 AD00     		lsls	r5, r5, #2
 1817 005a AC46     		mov	ip, r5
 1818 005c 6244     		add	r2, r2, ip
 1819              	.LVL211:
 1820              	.LBE112:
 1821              	.LBE113:
ARM GAS  C:\Users\EBANO_~1\AppData\Local\Temp\ccizkeXa.s 			page 42


 330:../../../../../../Middlewares/Third_Party/LoRaWAN/Mac/region/RegionCommon.c ****         {
 1822              		.loc 1 330 0
 1823 005e 002C     		cmp	r4, #0
 1824 0060 E9D0     		beq	.L202
 1825              	.LVL212:
 1826              	.L190:
 328:../../../../../../Middlewares/Third_Party/LoRaWAN/Mac/region/RegionCommon.c ****         // Reset the timeoff if the last frame was not a join request and when the duty cycle is no
 1827              		.loc 1 328 0
 1828 0062 0C1C     		adds	r4, r1, #0
 1829 0064 9142     		cmp	r1, r2
 1830 0066 05D3     		bcc	.L203
 341:../../../../../../Middlewares/Third_Party/LoRaWAN/Mac/region/RegionCommon.c ****         }
 1831              		.loc 1 341 0
 1832 0068 0269     		ldr	r2, [r0, #16]
 1833 006a A4B2     		uxth	r4, r4
 1834 006c 013C     		subs	r4, r4, #1
 1835 006e 5443     		muls	r4, r2
 1836 0070 DC60     		str	r4, [r3, #12]
 1837 0072 E3E7     		b	.L187
 1838              	.L203:
 328:../../../../../../Middlewares/Third_Party/LoRaWAN/Mac/region/RegionCommon.c ****         // Reset the timeoff if the last frame was not a join request and when the duty cycle is no
 1839              		.loc 1 328 0
 1840 0074 141C     		adds	r4, r2, #0
 341:../../../../../../Middlewares/Third_Party/LoRaWAN/Mac/region/RegionCommon.c ****         }
 1841              		.loc 1 341 0
 1842 0076 A4B2     		uxth	r4, r4
 1843 0078 0269     		ldr	r2, [r0, #16]
 1844 007a 013C     		subs	r4, r4, #1
 1845 007c 5443     		muls	r4, r2
 1846 007e DC60     		str	r4, [r3, #12]
 1847 0080 DCE7     		b	.L187
 1848              	.L205:
 1849 0082 C046     		.align	2
 1850              	.L204:
 1851 0084 7FEE3600 		.word	3599999
 1852 0088 7F3F5C02 		.word	39599999
 1853 008c 28230000 		.word	9000
 1854              		.cfi_endproc
 1855              	.LFE54:
 1856              		.size	RegionCommonCalcBackOff, .-RegionCommonCalcBackOff
 1857              		.section	.text.RegionCommonRxBeaconSetup,"ax",%progbits
 1858              		.align	1
 1859              		.p2align 2,,3
 1860              		.global	RegionCommonRxBeaconSetup
 1861              		.syntax unified
 1862              		.code	16
 1863              		.thumb_func
 1864              		.fpu softvfp
 1865              		.type	RegionCommonRxBeaconSetup, %function
 1866              	RegionCommonRxBeaconSetup:
 1867              	.LFB55:
 356:../../../../../../Middlewares/Third_Party/LoRaWAN/Mac/region/RegionCommon.c **** 
 357:../../../../../../Middlewares/Third_Party/LoRaWAN/Mac/region/RegionCommon.c **** 
 358:../../../../../../Middlewares/Third_Party/LoRaWAN/Mac/region/RegionCommon.c **** void RegionCommonRxBeaconSetup( RegionCommonRxBeaconSetupParams_t* rxBeaconSetupParams )
 359:../../../../../../Middlewares/Third_Party/LoRaWAN/Mac/region/RegionCommon.c **** {
 1868              		.loc 1 359 0
 1869              		.cfi_startproc
ARM GAS  C:\Users\EBANO_~1\AppData\Local\Temp\ccizkeXa.s 			page 43


 1870              		@ args = 0, pretend = 0, frame = 0
 1871              		@ frame_needed = 0, uses_anonymous_args = 0
 1872              	.LVL213:
 1873 0000 70B5     		push	{r4, r5, r6, lr}
 1874              	.LCFI18:
 1875              		.cfi_def_cfa_offset 16
 1876              		.cfi_offset 4, -16
 1877              		.cfi_offset 5, -12
 1878              		.cfi_offset 6, -8
 1879              		.cfi_offset 14, -4
 1880 0002 0400     		movs	r4, r0
 360:../../../../../../Middlewares/Third_Party/LoRaWAN/Mac/region/RegionCommon.c ****     bool rxContinuous = true;
 361:../../../../../../Middlewares/Third_Party/LoRaWAN/Mac/region/RegionCommon.c ****     uint8_t datarate;
 362:../../../../../../Middlewares/Third_Party/LoRaWAN/Mac/region/RegionCommon.c **** 
 363:../../../../../../Middlewares/Third_Party/LoRaWAN/Mac/region/RegionCommon.c ****     // Set the radio into sleep mode
 364:../../../../../../Middlewares/Third_Party/LoRaWAN/Mac/region/RegionCommon.c ****     Radio.Sleep( );
 1881              		.loc 1 364 0
 1882 0004 144D     		ldr	r5, .L207
 359:../../../../../../Middlewares/Third_Party/LoRaWAN/Mac/region/RegionCommon.c ****     bool rxContinuous = true;
 1883              		.loc 1 359 0
 1884 0006 8AB0     		sub	sp, sp, #40
 1885              	.LCFI19:
 1886              		.cfi_def_cfa_offset 56
 1887              		.loc 1 364 0
 1888 0008 6B6B     		ldr	r3, [r5, #52]
 1889 000a 9847     		blx	r3
 1890              	.LVL214:
 365:../../../../../../Middlewares/Third_Party/LoRaWAN/Mac/region/RegionCommon.c **** 
 366:../../../../../../Middlewares/Third_Party/LoRaWAN/Mac/region/RegionCommon.c ****     // Setup frequency and payload length
 367:../../../../../../Middlewares/Third_Party/LoRaWAN/Mac/region/RegionCommon.c ****     Radio.SetChannel( rxBeaconSetupParams->Frequency );
 1891              		.loc 1 367 0
 1892 000c 6068     		ldr	r0, [r4, #4]
 1893 000e 6B69     		ldr	r3, [r5, #20]
 1894 0010 9847     		blx	r3
 1895              	.LVL215:
 368:../../../../../../Middlewares/Third_Party/LoRaWAN/Mac/region/RegionCommon.c ****     Radio.SetMaxPayloadLength( MODEM_LORA, rxBeaconSetupParams->BeaconSize );
 1896              		.loc 1 368 0
 1897 0012 217A     		ldrb	r1, [r4, #8]
 1898 0014 0120     		movs	r0, #1
 1899 0016 EB6D     		ldr	r3, [r5, #92]
 1900 0018 9847     		blx	r3
 1901              	.LVL216:
 369:../../../../../../Middlewares/Third_Party/LoRaWAN/Mac/region/RegionCommon.c **** 
 370:../../../../../../Middlewares/Third_Party/LoRaWAN/Mac/region/RegionCommon.c ****     // Check the RX continuous mode
 371:../../../../../../Middlewares/Third_Party/LoRaWAN/Mac/region/RegionCommon.c ****     if( rxBeaconSetupParams->RxTime != 0 )
 372:../../../../../../Middlewares/Third_Party/LoRaWAN/Mac/region/RegionCommon.c ****     {
 373:../../../../../../Middlewares/Third_Party/LoRaWAN/Mac/region/RegionCommon.c ****         rxContinuous = false;
 374:../../../../../../Middlewares/Third_Party/LoRaWAN/Mac/region/RegionCommon.c ****     }
 375:../../../../../../Middlewares/Third_Party/LoRaWAN/Mac/region/RegionCommon.c **** 
 376:../../../../../../Middlewares/Third_Party/LoRaWAN/Mac/region/RegionCommon.c ****     // Get region specific datarate
 377:../../../../../../Middlewares/Third_Party/LoRaWAN/Mac/region/RegionCommon.c ****     datarate = rxBeaconSetupParams->Datarates[rxBeaconSetupParams->BeaconDatarate];
 1902              		.loc 1 377 0
 1903 001a 637A     		ldrb	r3, [r4, #9]
 378:../../../../../../Middlewares/Third_Party/LoRaWAN/Mac/region/RegionCommon.c **** 
 379:../../../../../../Middlewares/Third_Party/LoRaWAN/Mac/region/RegionCommon.c ****     // Setup radio
 380:../../../../../../Middlewares/Third_Party/LoRaWAN/Mac/region/RegionCommon.c ****     Radio.SetRxConfig( MODEM_LORA, rxBeaconSetupParams->BeaconChannelBW, datarate,
 1904              		.loc 1 380 0
ARM GAS  C:\Users\EBANO_~1\AppData\Local\Temp\ccizkeXa.s 			page 44


 1905 001c 2268     		ldr	r2, [r4]
 1906 001e A17A     		ldrb	r1, [r4, #10]
 1907 0020 D25C     		ldrb	r2, [r2, r3]
 371:../../../../../../Middlewares/Third_Party/LoRaWAN/Mac/region/RegionCommon.c ****     {
 1908              		.loc 1 371 0
 1909 0022 E368     		ldr	r3, [r4, #12]
 1910              		.loc 1 380 0
 1911 0024 2E6A     		ldr	r6, [r5, #32]
 371:../../../../../../Middlewares/Third_Party/LoRaWAN/Mac/region/RegionCommon.c ****     {
 1912              		.loc 1 371 0
 1913 0026 5842     		rsbs	r0, r3, #0
 1914 0028 4341     		adcs	r3, r3, r0
 1915              		.loc 1 380 0
 1916 002a 207A     		ldrb	r0, [r4, #8]
 1917 002c 0993     		str	r3, [sp, #36]
 1918              	.LVL217:
 1919 002e 0490     		str	r0, [sp, #16]
 1920 0030 0120     		movs	r0, #1
 1921 0032 0390     		str	r0, [sp, #12]
 1922 0034 208A     		ldrh	r0, [r4, #16]
 1923 0036 0023     		movs	r3, #0
 1924 0038 0290     		str	r0, [sp, #8]
 1925 003a 0A20     		movs	r0, #10
 1926 003c 0893     		str	r3, [sp, #32]
 1927 003e 0793     		str	r3, [sp, #28]
 1928 0040 0693     		str	r3, [sp, #24]
 1929 0042 0593     		str	r3, [sp, #20]
 1930 0044 0190     		str	r0, [sp, #4]
 1931 0046 0093     		str	r3, [sp]
 1932 0048 0938     		subs	r0, r0, #9
 1933 004a 0133     		adds	r3, r3, #1
 1934 004c B047     		blx	r6
 1935              	.LVL218:
 381:../../../../../../Middlewares/Third_Party/LoRaWAN/Mac/region/RegionCommon.c ****                        1, 0, 10, rxBeaconSetupParams->SymbolTimeout, true, rxBeaconSetupParams->Bea
 382:../../../../../../Middlewares/Third_Party/LoRaWAN/Mac/region/RegionCommon.c **** 
 383:../../../../../../Middlewares/Third_Party/LoRaWAN/Mac/region/RegionCommon.c ****     Radio.Rx( rxBeaconSetupParams->RxTime );
 1936              		.loc 1 383 0
 1937 004e E068     		ldr	r0, [r4, #12]
 1938 0050 EB6B     		ldr	r3, [r5, #60]
 1939 0052 9847     		blx	r3
 1940              	.LVL219:
 384:../../../../../../Middlewares/Third_Party/LoRaWAN/Mac/region/RegionCommon.c **** }
 1941              		.loc 1 384 0
 1942 0054 0AB0     		add	sp, sp, #40
 1943              		@ sp needed
 1944              	.LVL220:
 1945 0056 70BD     		pop	{r4, r5, r6, pc}
 1946              	.L208:
 1947              		.align	2
 1948              	.L207:
 1949 0058 00000000 		.word	Radio
 1950              		.cfi_endproc
 1951              	.LFE55:
 1952              		.size	RegionCommonRxBeaconSetup, .-RegionCommonRxBeaconSetup
 1953              		.text
 1954              	.Letext0:
 1955              		.file 2 "c:\\program files (x86)\\gnu tools arm embedded\\7 2018-q2-update\\arm-none-eabi\\include
ARM GAS  C:\Users\EBANO_~1\AppData\Local\Temp\ccizkeXa.s 			page 45


 1956              		.file 3 "c:\\program files (x86)\\gnu tools arm embedded\\7 2018-q2-update\\arm-none-eabi\\include
 1957              		.file 4 "c:\\program files (x86)\\gnu tools arm embedded\\7 2018-q2-update\\arm-none-eabi\\include
 1958              		.file 5 "c:\\program files (x86)\\gnu tools arm embedded\\7 2018-q2-update\\lib\\gcc\\arm-none-eab
 1959              		.file 6 "c:\\program files (x86)\\gnu tools arm embedded\\7 2018-q2-update\\arm-none-eabi\\include
 1960              		.file 7 "c:\\program files (x86)\\gnu tools arm embedded\\7 2018-q2-update\\arm-none-eabi\\include
 1961              		.file 8 "c:\\program files (x86)\\gnu tools arm embedded\\7 2018-q2-update\\arm-none-eabi\\include
 1962              		.file 9 "../../../../../../Middlewares/Third_Party/LoRaWAN/Phy/radio.h"
 1963              		.file 10 "../../../../../../Drivers/CMSIS/Device/ST/STM32L0xx/Include/system_stm32l0xx.h"
 1964              		.file 11 "c:\\program files (x86)\\gnu tools arm embedded\\7 2018-q2-update\\arm-none-eabi\\includ
 1965              		.file 12 "../../../../../../Middlewares/Third_Party/LoRaWAN/Utilities/utilities.h"
 1966              		.file 13 "../../../../../../Middlewares/Third_Party/LoRaWAN/Mac/LoRaMacTypes.h"
 1967              		.file 14 "c:\\program files (x86)\\gnu tools arm embedded\\7 2018-q2-update\\arm-none-eabi\\includ
 1968              		.file 15 "../../../../../../Middlewares/Third_Party/LoRaWAN/Mac/LoRaMac.h"
 1969              		.file 16 "../../../../../../Middlewares/Third_Party/LoRaWAN/Mac/region/RegionCommon.h"
 1970              		.file 17 "../../../../../../Middlewares/Third_Party/LoRaWAN/Utilities/timeServer.h"