ARM GAS  C:\Users\EBANO_~1\AppData\Local\Temp\ccpYmjAB.s 			page 1


   1              		.cpu cortex-m0plus
   2              		.eabi_attribute 20, 1
   3              		.eabi_attribute 21, 1
   4              		.eabi_attribute 23, 3
   5              		.eabi_attribute 24, 1
   6              		.eabi_attribute 25, 1
   7              		.eabi_attribute 26, 1
   8              		.eabi_attribute 30, 2
   9              		.eabi_attribute 34, 0
  10              		.eabi_attribute 18, 4
  11              		.file	"RegionEU433.c"
  12              		.text
  13              	.Ltext0:
  14              		.cfi_sections	.debug_frame
  15              		.section	.text.RegionEU433GetPhyParam,"ax",%progbits
  16              		.align	1
  17              		.p2align 2,,3
  18              		.global	RegionEU433GetPhyParam
  19              		.syntax unified
  20              		.code	16
  21              		.thumb_func
  22              		.fpu softvfp
  23              		.type	RegionEU433GetPhyParam, %function
  24              	RegionEU433GetPhyParam:
  25              	.LFB44:
  26              		.file 1 "../../../../../../Middlewares/Third_Party/LoRaWAN/Mac/region/RegionEU433.c"
   1:../../../../../../Middlewares/Third_Party/LoRaWAN/Mac/region/RegionEU433.c **** /*!
   2:../../../../../../Middlewares/Third_Party/LoRaWAN/Mac/region/RegionEU433.c ****  * \file      RegionEU433.c
   3:../../../../../../Middlewares/Third_Party/LoRaWAN/Mac/region/RegionEU433.c ****  *
   4:../../../../../../Middlewares/Third_Party/LoRaWAN/Mac/region/RegionEU433.c ****  * \brief     Region implementation for EU433
   5:../../../../../../Middlewares/Third_Party/LoRaWAN/Mac/region/RegionEU433.c ****  *
   6:../../../../../../Middlewares/Third_Party/LoRaWAN/Mac/region/RegionEU433.c ****  * \copyright Revised BSD License, see section \ref LICENSE.
   7:../../../../../../Middlewares/Third_Party/LoRaWAN/Mac/region/RegionEU433.c ****  *
   8:../../../../../../Middlewares/Third_Party/LoRaWAN/Mac/region/RegionEU433.c ****  * \code
   9:../../../../../../Middlewares/Third_Party/LoRaWAN/Mac/region/RegionEU433.c ****  *                ______                              _
  10:../../../../../../Middlewares/Third_Party/LoRaWAN/Mac/region/RegionEU433.c ****  *               / _____)             _              | |
  11:../../../../../../Middlewares/Third_Party/LoRaWAN/Mac/region/RegionEU433.c ****  *              ( (____  _____ ____ _| |_ _____  ____| |__
  12:../../../../../../Middlewares/Third_Party/LoRaWAN/Mac/region/RegionEU433.c ****  *               \____ \| ___ |    (_   _) ___ |/ ___)  _ \
  13:../../../../../../Middlewares/Third_Party/LoRaWAN/Mac/region/RegionEU433.c ****  *               _____) ) ____| | | || |_| ____( (___| | | |
  14:../../../../../../Middlewares/Third_Party/LoRaWAN/Mac/region/RegionEU433.c ****  *              (______/|_____)_|_|_| \__)_____)\____)_| |_|
  15:../../../../../../Middlewares/Third_Party/LoRaWAN/Mac/region/RegionEU433.c ****  *              (C)2013-2017 Semtech
  16:../../../../../../Middlewares/Third_Party/LoRaWAN/Mac/region/RegionEU433.c ****  *
  17:../../../../../../Middlewares/Third_Party/LoRaWAN/Mac/region/RegionEU433.c ****  *               ___ _____ _   ___ _  _____ ___  ___  ___ ___
  18:../../../../../../Middlewares/Third_Party/LoRaWAN/Mac/region/RegionEU433.c ****  *              / __|_   _/_\ / __| |/ / __/ _ \| _ \/ __| __|
  19:../../../../../../Middlewares/Third_Party/LoRaWAN/Mac/region/RegionEU433.c ****  *              \__ \ | |/ _ \ (__| ' <| _| (_) |   / (__| _|
  20:../../../../../../Middlewares/Third_Party/LoRaWAN/Mac/region/RegionEU433.c ****  *              |___/ |_/_/ \_\___|_|\_\_| \___/|_|_\\___|___|
  21:../../../../../../Middlewares/Third_Party/LoRaWAN/Mac/region/RegionEU433.c ****  *              embedded.connectivity.solutions===============
  22:../../../../../../Middlewares/Third_Party/LoRaWAN/Mac/region/RegionEU433.c ****  *
  23:../../../../../../Middlewares/Third_Party/LoRaWAN/Mac/region/RegionEU433.c ****  * \endcode
  24:../../../../../../Middlewares/Third_Party/LoRaWAN/Mac/region/RegionEU433.c ****  *
  25:../../../../../../Middlewares/Third_Party/LoRaWAN/Mac/region/RegionEU433.c ****  * \author    Miguel Luis ( Semtech )
  26:../../../../../../Middlewares/Third_Party/LoRaWAN/Mac/region/RegionEU433.c ****  *
  27:../../../../../../Middlewares/Third_Party/LoRaWAN/Mac/region/RegionEU433.c ****  * \author    Gregory Cristian ( Semtech )
  28:../../../../../../Middlewares/Third_Party/LoRaWAN/Mac/region/RegionEU433.c ****  *
  29:../../../../../../Middlewares/Third_Party/LoRaWAN/Mac/region/RegionEU433.c ****  * \author    Daniel Jaeckle ( STACKFORCE )
  30:../../../../../../Middlewares/Third_Party/LoRaWAN/Mac/region/RegionEU433.c **** */
  31:../../../../../../Middlewares/Third_Party/LoRaWAN/Mac/region/RegionEU433.c **** #include "utilities.h"
ARM GAS  C:\Users\EBANO_~1\AppData\Local\Temp\ccpYmjAB.s 			page 2


  32:../../../../../../Middlewares/Third_Party/LoRaWAN/Mac/region/RegionEU433.c **** 
  33:../../../../../../Middlewares/Third_Party/LoRaWAN/Mac/region/RegionEU433.c **** #include "RegionCommon.h"
  34:../../../../../../Middlewares/Third_Party/LoRaWAN/Mac/region/RegionEU433.c **** #include "RegionEU433.h"
  35:../../../../../../Middlewares/Third_Party/LoRaWAN/Mac/region/RegionEU433.c **** #include "util_console.h"
  36:../../../../../../Middlewares/Third_Party/LoRaWAN/Mac/region/RegionEU433.c **** 
  37:../../../../../../Middlewares/Third_Party/LoRaWAN/Mac/region/RegionEU433.c **** // Definitions
  38:../../../../../../Middlewares/Third_Party/LoRaWAN/Mac/region/RegionEU433.c **** #define CHANNELS_MASK_SIZE              1
  39:../../../../../../Middlewares/Third_Party/LoRaWAN/Mac/region/RegionEU433.c **** 
  40:../../../../../../Middlewares/Third_Party/LoRaWAN/Mac/region/RegionEU433.c **** /*!
  41:../../../../../../Middlewares/Third_Party/LoRaWAN/Mac/region/RegionEU433.c ****  * Region specific context
  42:../../../../../../Middlewares/Third_Party/LoRaWAN/Mac/region/RegionEU433.c ****  */
  43:../../../../../../Middlewares/Third_Party/LoRaWAN/Mac/region/RegionEU433.c **** typedef struct sRegionEU433NvmCtx
  44:../../../../../../Middlewares/Third_Party/LoRaWAN/Mac/region/RegionEU433.c **** {
  45:../../../../../../Middlewares/Third_Party/LoRaWAN/Mac/region/RegionEU433.c ****     /*!
  46:../../../../../../Middlewares/Third_Party/LoRaWAN/Mac/region/RegionEU433.c ****      * LoRaMAC channels
  47:../../../../../../Middlewares/Third_Party/LoRaWAN/Mac/region/RegionEU433.c ****      */
  48:../../../../../../Middlewares/Third_Party/LoRaWAN/Mac/region/RegionEU433.c ****     ChannelParams_t Channels[ EU433_MAX_NB_CHANNELS ];
  49:../../../../../../Middlewares/Third_Party/LoRaWAN/Mac/region/RegionEU433.c ****     /*!
  50:../../../../../../Middlewares/Third_Party/LoRaWAN/Mac/region/RegionEU433.c ****      * LoRaMac bands
  51:../../../../../../Middlewares/Third_Party/LoRaWAN/Mac/region/RegionEU433.c ****      */
  52:../../../../../../Middlewares/Third_Party/LoRaWAN/Mac/region/RegionEU433.c ****     Band_t Bands[ EU433_MAX_NB_BANDS ];
  53:../../../../../../Middlewares/Third_Party/LoRaWAN/Mac/region/RegionEU433.c ****     /*!
  54:../../../../../../Middlewares/Third_Party/LoRaWAN/Mac/region/RegionEU433.c ****      * LoRaMac channels mask
  55:../../../../../../Middlewares/Third_Party/LoRaWAN/Mac/region/RegionEU433.c ****      */
  56:../../../../../../Middlewares/Third_Party/LoRaWAN/Mac/region/RegionEU433.c ****     uint16_t ChannelsMask[ CHANNELS_MASK_SIZE ];
  57:../../../../../../Middlewares/Third_Party/LoRaWAN/Mac/region/RegionEU433.c ****     /*!
  58:../../../../../../Middlewares/Third_Party/LoRaWAN/Mac/region/RegionEU433.c ****      * LoRaMac channels default mask
  59:../../../../../../Middlewares/Third_Party/LoRaWAN/Mac/region/RegionEU433.c ****      */
  60:../../../../../../Middlewares/Third_Party/LoRaWAN/Mac/region/RegionEU433.c ****     uint16_t ChannelsDefaultMask[ CHANNELS_MASK_SIZE ];
  61:../../../../../../Middlewares/Third_Party/LoRaWAN/Mac/region/RegionEU433.c **** }RegionEU433NvmCtx_t;
  62:../../../../../../Middlewares/Third_Party/LoRaWAN/Mac/region/RegionEU433.c **** 
  63:../../../../../../Middlewares/Third_Party/LoRaWAN/Mac/region/RegionEU433.c **** /*
  64:../../../../../../Middlewares/Third_Party/LoRaWAN/Mac/region/RegionEU433.c ****  * Non-volatile module context.
  65:../../../../../../Middlewares/Third_Party/LoRaWAN/Mac/region/RegionEU433.c ****  */
  66:../../../../../../Middlewares/Third_Party/LoRaWAN/Mac/region/RegionEU433.c **** static RegionEU433NvmCtx_t NvmCtx;
  67:../../../../../../Middlewares/Third_Party/LoRaWAN/Mac/region/RegionEU433.c **** 
  68:../../../../../../Middlewares/Third_Party/LoRaWAN/Mac/region/RegionEU433.c **** // Static functions
  69:../../../../../../Middlewares/Third_Party/LoRaWAN/Mac/region/RegionEU433.c **** static int8_t GetNextLowerTxDr( int8_t dr, int8_t minDr )
  70:../../../../../../Middlewares/Third_Party/LoRaWAN/Mac/region/RegionEU433.c **** {
  71:../../../../../../Middlewares/Third_Party/LoRaWAN/Mac/region/RegionEU433.c ****     uint8_t nextLowerDr = 0;
  72:../../../../../../Middlewares/Third_Party/LoRaWAN/Mac/region/RegionEU433.c **** 
  73:../../../../../../Middlewares/Third_Party/LoRaWAN/Mac/region/RegionEU433.c ****     if( dr == minDr )
  74:../../../../../../Middlewares/Third_Party/LoRaWAN/Mac/region/RegionEU433.c ****     {
  75:../../../../../../Middlewares/Third_Party/LoRaWAN/Mac/region/RegionEU433.c ****         nextLowerDr = minDr;
  76:../../../../../../Middlewares/Third_Party/LoRaWAN/Mac/region/RegionEU433.c ****     }
  77:../../../../../../Middlewares/Third_Party/LoRaWAN/Mac/region/RegionEU433.c ****     else
  78:../../../../../../Middlewares/Third_Party/LoRaWAN/Mac/region/RegionEU433.c ****     {
  79:../../../../../../Middlewares/Third_Party/LoRaWAN/Mac/region/RegionEU433.c ****         nextLowerDr = dr - 1;
  80:../../../../../../Middlewares/Third_Party/LoRaWAN/Mac/region/RegionEU433.c ****     }
  81:../../../../../../Middlewares/Third_Party/LoRaWAN/Mac/region/RegionEU433.c ****     return nextLowerDr;
  82:../../../../../../Middlewares/Third_Party/LoRaWAN/Mac/region/RegionEU433.c **** }
  83:../../../../../../Middlewares/Third_Party/LoRaWAN/Mac/region/RegionEU433.c **** 
  84:../../../../../../Middlewares/Third_Party/LoRaWAN/Mac/region/RegionEU433.c **** static uint32_t GetBandwidth( uint32_t drIndex )
  85:../../../../../../Middlewares/Third_Party/LoRaWAN/Mac/region/RegionEU433.c **** {
  86:../../../../../../Middlewares/Third_Party/LoRaWAN/Mac/region/RegionEU433.c ****     switch( BandwidthsEU433[drIndex] )
  87:../../../../../../Middlewares/Third_Party/LoRaWAN/Mac/region/RegionEU433.c ****     {
  88:../../../../../../Middlewares/Third_Party/LoRaWAN/Mac/region/RegionEU433.c ****         default:
ARM GAS  C:\Users\EBANO_~1\AppData\Local\Temp\ccpYmjAB.s 			page 3


  89:../../../../../../Middlewares/Third_Party/LoRaWAN/Mac/region/RegionEU433.c ****         case 125000:
  90:../../../../../../Middlewares/Third_Party/LoRaWAN/Mac/region/RegionEU433.c ****             return 0;
  91:../../../../../../Middlewares/Third_Party/LoRaWAN/Mac/region/RegionEU433.c ****         case 250000:
  92:../../../../../../Middlewares/Third_Party/LoRaWAN/Mac/region/RegionEU433.c ****             return 1;
  93:../../../../../../Middlewares/Third_Party/LoRaWAN/Mac/region/RegionEU433.c ****         case 500000:
  94:../../../../../../Middlewares/Third_Party/LoRaWAN/Mac/region/RegionEU433.c ****             return 2;
  95:../../../../../../Middlewares/Third_Party/LoRaWAN/Mac/region/RegionEU433.c ****     }
  96:../../../../../../Middlewares/Third_Party/LoRaWAN/Mac/region/RegionEU433.c **** }
  97:../../../../../../Middlewares/Third_Party/LoRaWAN/Mac/region/RegionEU433.c **** 
  98:../../../../../../Middlewares/Third_Party/LoRaWAN/Mac/region/RegionEU433.c **** static int8_t LimitTxPower( int8_t txPower, int8_t maxBandTxPower, int8_t datarate, uint16_t* chann
  99:../../../../../../Middlewares/Third_Party/LoRaWAN/Mac/region/RegionEU433.c **** {
 100:../../../../../../Middlewares/Third_Party/LoRaWAN/Mac/region/RegionEU433.c ****     int8_t txPowerResult = txPower;
 101:../../../../../../Middlewares/Third_Party/LoRaWAN/Mac/region/RegionEU433.c **** 
 102:../../../../../../Middlewares/Third_Party/LoRaWAN/Mac/region/RegionEU433.c ****     // Limit tx power to the band max
 103:../../../../../../Middlewares/Third_Party/LoRaWAN/Mac/region/RegionEU433.c ****     txPowerResult =  MAX( txPower, maxBandTxPower );
 104:../../../../../../Middlewares/Third_Party/LoRaWAN/Mac/region/RegionEU433.c **** 
 105:../../../../../../Middlewares/Third_Party/LoRaWAN/Mac/region/RegionEU433.c ****     return txPowerResult;
 106:../../../../../../Middlewares/Third_Party/LoRaWAN/Mac/region/RegionEU433.c **** }
 107:../../../../../../Middlewares/Third_Party/LoRaWAN/Mac/region/RegionEU433.c **** 
 108:../../../../../../Middlewares/Third_Party/LoRaWAN/Mac/region/RegionEU433.c **** static bool VerifyRfFreq( uint32_t freq )
 109:../../../../../../Middlewares/Third_Party/LoRaWAN/Mac/region/RegionEU433.c **** {
 110:../../../../../../Middlewares/Third_Party/LoRaWAN/Mac/region/RegionEU433.c ****     // Check radio driver support
 111:../../../../../../Middlewares/Third_Party/LoRaWAN/Mac/region/RegionEU433.c ****     if( Radio.CheckRfFrequency( freq ) == false )
 112:../../../../../../Middlewares/Third_Party/LoRaWAN/Mac/region/RegionEU433.c ****     {
 113:../../../../../../Middlewares/Third_Party/LoRaWAN/Mac/region/RegionEU433.c ****         return false;
 114:../../../../../../Middlewares/Third_Party/LoRaWAN/Mac/region/RegionEU433.c ****     }
 115:../../../../../../Middlewares/Third_Party/LoRaWAN/Mac/region/RegionEU433.c **** 
 116:../../../../../../Middlewares/Third_Party/LoRaWAN/Mac/region/RegionEU433.c ****     if( ( freq < 433175000 ) || ( freq > 434665000 ) )
 117:../../../../../../Middlewares/Third_Party/LoRaWAN/Mac/region/RegionEU433.c ****     {
 118:../../../../../../Middlewares/Third_Party/LoRaWAN/Mac/region/RegionEU433.c ****         return false;
 119:../../../../../../Middlewares/Third_Party/LoRaWAN/Mac/region/RegionEU433.c ****     }
 120:../../../../../../Middlewares/Third_Party/LoRaWAN/Mac/region/RegionEU433.c ****     return true;
 121:../../../../../../Middlewares/Third_Party/LoRaWAN/Mac/region/RegionEU433.c **** }
 122:../../../../../../Middlewares/Third_Party/LoRaWAN/Mac/region/RegionEU433.c **** 
 123:../../../../../../Middlewares/Third_Party/LoRaWAN/Mac/region/RegionEU433.c **** static uint8_t CountNbOfEnabledChannels( bool joined, uint8_t datarate, uint16_t* channelsMask, Cha
 124:../../../../../../Middlewares/Third_Party/LoRaWAN/Mac/region/RegionEU433.c **** {
 125:../../../../../../Middlewares/Third_Party/LoRaWAN/Mac/region/RegionEU433.c ****     uint8_t nbEnabledChannels = 0;
 126:../../../../../../Middlewares/Third_Party/LoRaWAN/Mac/region/RegionEU433.c ****     uint8_t delayTransmission = 0;
 127:../../../../../../Middlewares/Third_Party/LoRaWAN/Mac/region/RegionEU433.c **** 
 128:../../../../../../Middlewares/Third_Party/LoRaWAN/Mac/region/RegionEU433.c ****     for( uint8_t i = 0, k = 0; i < EU433_MAX_NB_CHANNELS; i += 16, k++ )
 129:../../../../../../Middlewares/Third_Party/LoRaWAN/Mac/region/RegionEU433.c ****     {
 130:../../../../../../Middlewares/Third_Party/LoRaWAN/Mac/region/RegionEU433.c ****         for( uint8_t j = 0; j < 16; j++ )
 131:../../../../../../Middlewares/Third_Party/LoRaWAN/Mac/region/RegionEU433.c ****         {
 132:../../../../../../Middlewares/Third_Party/LoRaWAN/Mac/region/RegionEU433.c ****             if( ( channelsMask[k] & ( 1 << j ) ) != 0 )
 133:../../../../../../Middlewares/Third_Party/LoRaWAN/Mac/region/RegionEU433.c ****             {
 134:../../../../../../Middlewares/Third_Party/LoRaWAN/Mac/region/RegionEU433.c ****                 if( channels[i + j].Frequency == 0 )
 135:../../../../../../Middlewares/Third_Party/LoRaWAN/Mac/region/RegionEU433.c ****                 { // Check if the channel is enabled
 136:../../../../../../Middlewares/Third_Party/LoRaWAN/Mac/region/RegionEU433.c ****                     continue;
 137:../../../../../../Middlewares/Third_Party/LoRaWAN/Mac/region/RegionEU433.c ****                 }
 138:../../../../../../Middlewares/Third_Party/LoRaWAN/Mac/region/RegionEU433.c ****                 if( joined == false )
 139:../../../../../../Middlewares/Third_Party/LoRaWAN/Mac/region/RegionEU433.c ****                 {
 140:../../../../../../Middlewares/Third_Party/LoRaWAN/Mac/region/RegionEU433.c ****                     if( ( EU433_JOIN_CHANNELS & ( 1 << j ) ) == 0 )
 141:../../../../../../Middlewares/Third_Party/LoRaWAN/Mac/region/RegionEU433.c ****                     {
 142:../../../../../../Middlewares/Third_Party/LoRaWAN/Mac/region/RegionEU433.c ****                         continue;
 143:../../../../../../Middlewares/Third_Party/LoRaWAN/Mac/region/RegionEU433.c ****                     }
 144:../../../../../../Middlewares/Third_Party/LoRaWAN/Mac/region/RegionEU433.c ****                 }
 145:../../../../../../Middlewares/Third_Party/LoRaWAN/Mac/region/RegionEU433.c ****                 if( RegionCommonValueInRange( datarate, channels[i + j].DrRange.Fields.Min,
ARM GAS  C:\Users\EBANO_~1\AppData\Local\Temp\ccpYmjAB.s 			page 4


 146:../../../../../../Middlewares/Third_Party/LoRaWAN/Mac/region/RegionEU433.c ****                                               channels[i + j].DrRange.Fields.Max ) == false )
 147:../../../../../../Middlewares/Third_Party/LoRaWAN/Mac/region/RegionEU433.c ****                 { // Check if the current channel selection supports the given datarate
 148:../../../../../../Middlewares/Third_Party/LoRaWAN/Mac/region/RegionEU433.c ****                     continue;
 149:../../../../../../Middlewares/Third_Party/LoRaWAN/Mac/region/RegionEU433.c ****                 }
 150:../../../../../../Middlewares/Third_Party/LoRaWAN/Mac/region/RegionEU433.c ****                 if( bands[channels[i + j].Band].TimeOff > 0 )
 151:../../../../../../Middlewares/Third_Party/LoRaWAN/Mac/region/RegionEU433.c ****                 { // Check if the band is available for transmission
 152:../../../../../../Middlewares/Third_Party/LoRaWAN/Mac/region/RegionEU433.c ****                     delayTransmission++;
 153:../../../../../../Middlewares/Third_Party/LoRaWAN/Mac/region/RegionEU433.c ****                     continue;
 154:../../../../../../Middlewares/Third_Party/LoRaWAN/Mac/region/RegionEU433.c ****                 }
 155:../../../../../../Middlewares/Third_Party/LoRaWAN/Mac/region/RegionEU433.c ****                 enabledChannels[nbEnabledChannels++] = i + j;
 156:../../../../../../Middlewares/Third_Party/LoRaWAN/Mac/region/RegionEU433.c ****             }
 157:../../../../../../Middlewares/Third_Party/LoRaWAN/Mac/region/RegionEU433.c ****         }
 158:../../../../../../Middlewares/Third_Party/LoRaWAN/Mac/region/RegionEU433.c ****     }
 159:../../../../../../Middlewares/Third_Party/LoRaWAN/Mac/region/RegionEU433.c **** 
 160:../../../../../../Middlewares/Third_Party/LoRaWAN/Mac/region/RegionEU433.c ****     *delayTx = delayTransmission;
 161:../../../../../../Middlewares/Third_Party/LoRaWAN/Mac/region/RegionEU433.c ****     return nbEnabledChannels;
 162:../../../../../../Middlewares/Third_Party/LoRaWAN/Mac/region/RegionEU433.c **** }
 163:../../../../../../Middlewares/Third_Party/LoRaWAN/Mac/region/RegionEU433.c **** 
 164:../../../../../../Middlewares/Third_Party/LoRaWAN/Mac/region/RegionEU433.c **** PhyParam_t RegionEU433GetPhyParam( GetPhyParams_t* getPhy )
 165:../../../../../../Middlewares/Third_Party/LoRaWAN/Mac/region/RegionEU433.c **** {
  27              		.loc 1 165 0
  28              		.cfi_startproc
  29              		@ args = 0, pretend = 0, frame = 8
  30              		@ frame_needed = 0, uses_anonymous_args = 0
  31              	.LVL0:
 166:../../../../../../Middlewares/Third_Party/LoRaWAN/Mac/region/RegionEU433.c ****     PhyParam_t phyParam = { 0 };
  32              		.loc 1 166 0
  33 0000 0023     		movs	r3, #0
 165:../../../../../../Middlewares/Third_Party/LoRaWAN/Mac/region/RegionEU433.c ****     PhyParam_t phyParam = { 0 };
  34              		.loc 1 165 0
  35 0002 00B5     		push	{lr}
  36              	.LCFI0:
  37              		.cfi_def_cfa_offset 4
  38              		.cfi_offset 14, -4
  39 0004 83B0     		sub	sp, sp, #12
  40              	.LCFI1:
  41              		.cfi_def_cfa_offset 16
  42              		.loc 1 166 0
  43 0006 0093     		str	r3, [sp]
 167:../../../../../../Middlewares/Third_Party/LoRaWAN/Mac/region/RegionEU433.c **** 
 168:../../../../../../Middlewares/Third_Party/LoRaWAN/Mac/region/RegionEU433.c ****     switch( getPhy->Attribute )
  44              		.loc 1 168 0
  45 0008 0378     		ldrb	r3, [r0]
  46 000a 0A3B     		subs	r3, r3, #10
  47 000c DBB2     		uxtb	r3, r3
  48 000e 2A2B     		cmp	r3, #42
  49 0010 05D8     		bhi	.L2
  50 0012 304A     		ldr	r2, .L30
  51 0014 9B00     		lsls	r3, r3, #2
  52 0016 D358     		ldr	r3, [r2, r3]
  53 0018 9F46     		mov	pc, r3
  54              		.section	.rodata
  55              		.align	2
  56              	.L4:
  57 0000 AE000000 		.word	.L3
  58 0004 30000000 		.word	.L5
  59 0008 C8000000 		.word	.L6
ARM GAS  C:\Users\EBANO_~1\AppData\Local\Temp\ccpYmjAB.s 			page 5


  60 000c BA000000 		.word	.L7
  61 0010 B4000000 		.word	.L8
  62 0014 5E000000 		.word	.L9
  63 0018 56000000 		.word	.L10
  64 001c 4E000000 		.word	.L11
  65 0020 64000000 		.word	.L12
  66 0024 92000000 		.word	.L13
  67 0028 8A000000 		.word	.L14
  68 002c 98000000 		.word	.L15
  69 0030 1E000000 		.word	.L2
  70 0034 24000000 		.word	.L16
  71 0038 1E000000 		.word	.L2
  72 003c 42000000 		.word	.L17
  73 0040 1A000000 		.word	.L18
  74 0044 3C000000 		.word	.L19
  75 0048 36000000 		.word	.L20
  76 004c 1E000000 		.word	.L2
  77 0050 1E000000 		.word	.L2
  78 0054 48000000 		.word	.L21
  79 0058 6A000000 		.word	.L22
  80 005c 78000000 		.word	.L23
  81 0060 1E000000 		.word	.L2
  82 0064 1E000000 		.word	.L2
  83 0068 1E000000 		.word	.L2
  84 006c 1E000000 		.word	.L2
  85 0070 1E000000 		.word	.L2
  86 0074 1E000000 		.word	.L2
  87 0078 1E000000 		.word	.L2
  88 007c 1E000000 		.word	.L2
  89 0080 1E000000 		.word	.L2
  90 0084 1E000000 		.word	.L2
  91 0088 1E000000 		.word	.L2
  92 008c 1E000000 		.word	.L2
  93 0090 1E000000 		.word	.L2
  94 0094 24000000 		.word	.L16
  95 0098 70000000 		.word	.L24
  96 009c 2A000000 		.word	.L25
  97 00a0 1E000000 		.word	.L2
  98 00a4 1E000000 		.word	.L2
  99 00a8 2A000000 		.word	.L25
 100              		.section	.text.RegionEU433GetPhyParam
 101              	.L18:
 169:../../../../../../Middlewares/Third_Party/LoRaWAN/Mac/region/RegionEU433.c ****     {
 170:../../../../../../Middlewares/Third_Party/LoRaWAN/Mac/region/RegionEU433.c ****         case PHY_MIN_RX_DR:
 171:../../../../../../Middlewares/Third_Party/LoRaWAN/Mac/region/RegionEU433.c ****         {
 172:../../../../../../Middlewares/Third_Party/LoRaWAN/Mac/region/RegionEU433.c ****             phyParam.Value = EU433_RX_MIN_DATARATE;
 173:../../../../../../Middlewares/Third_Party/LoRaWAN/Mac/region/RegionEU433.c ****             break;
 174:../../../../../../Middlewares/Third_Party/LoRaWAN/Mac/region/RegionEU433.c ****         }
 175:../../../../../../Middlewares/Third_Party/LoRaWAN/Mac/region/RegionEU433.c ****         case PHY_MIN_TX_DR:
 176:../../../../../../Middlewares/Third_Party/LoRaWAN/Mac/region/RegionEU433.c ****         {
 177:../../../../../../Middlewares/Third_Party/LoRaWAN/Mac/region/RegionEU433.c ****             phyParam.Value = EU433_TX_MIN_DATARATE;
 178:../../../../../../Middlewares/Third_Party/LoRaWAN/Mac/region/RegionEU433.c ****             break;
 179:../../../../../../Middlewares/Third_Party/LoRaWAN/Mac/region/RegionEU433.c ****         }
 180:../../../../../../Middlewares/Third_Party/LoRaWAN/Mac/region/RegionEU433.c ****         case PHY_DEF_TX_DR:
 181:../../../../../../Middlewares/Third_Party/LoRaWAN/Mac/region/RegionEU433.c ****         {
 182:../../../../../../Middlewares/Third_Party/LoRaWAN/Mac/region/RegionEU433.c ****             phyParam.Value = EU433_DEFAULT_DATARATE;
 183:../../../../../../Middlewares/Third_Party/LoRaWAN/Mac/region/RegionEU433.c ****             break;
ARM GAS  C:\Users\EBANO_~1\AppData\Local\Temp\ccpYmjAB.s 			page 6


 184:../../../../../../Middlewares/Third_Party/LoRaWAN/Mac/region/RegionEU433.c ****         }
 185:../../../../../../Middlewares/Third_Party/LoRaWAN/Mac/region/RegionEU433.c ****         case PHY_NEXT_LOWER_TX_DR:
 186:../../../../../../Middlewares/Third_Party/LoRaWAN/Mac/region/RegionEU433.c ****         {
 187:../../../../../../Middlewares/Third_Party/LoRaWAN/Mac/region/RegionEU433.c ****             phyParam.Value = GetNextLowerTxDr( getPhy->Datarate, EU433_TX_MIN_DATARATE );
 188:../../../../../../Middlewares/Third_Party/LoRaWAN/Mac/region/RegionEU433.c ****             break;
 189:../../../../../../Middlewares/Third_Party/LoRaWAN/Mac/region/RegionEU433.c ****         }
 190:../../../../../../Middlewares/Third_Party/LoRaWAN/Mac/region/RegionEU433.c ****         case PHY_MAX_TX_POWER:
 191:../../../../../../Middlewares/Third_Party/LoRaWAN/Mac/region/RegionEU433.c ****         {
 192:../../../../../../Middlewares/Third_Party/LoRaWAN/Mac/region/RegionEU433.c ****             phyParam.Value = EU433_MAX_TX_POWER;
 193:../../../../../../Middlewares/Third_Party/LoRaWAN/Mac/region/RegionEU433.c ****             break;
 194:../../../../../../Middlewares/Third_Party/LoRaWAN/Mac/region/RegionEU433.c ****         }
 195:../../../../../../Middlewares/Third_Party/LoRaWAN/Mac/region/RegionEU433.c ****         case PHY_DEF_TX_POWER:
 196:../../../../../../Middlewares/Third_Party/LoRaWAN/Mac/region/RegionEU433.c ****         {
 197:../../../../../../Middlewares/Third_Party/LoRaWAN/Mac/region/RegionEU433.c ****             phyParam.Value = EU433_DEFAULT_TX_POWER;
 198:../../../../../../Middlewares/Third_Party/LoRaWAN/Mac/region/RegionEU433.c ****             break;
 199:../../../../../../Middlewares/Third_Party/LoRaWAN/Mac/region/RegionEU433.c ****         }
 200:../../../../../../Middlewares/Third_Party/LoRaWAN/Mac/region/RegionEU433.c ****         case PHY_DEF_ADR_ACK_LIMIT:
 201:../../../../../../Middlewares/Third_Party/LoRaWAN/Mac/region/RegionEU433.c ****         {
 202:../../../../../../Middlewares/Third_Party/LoRaWAN/Mac/region/RegionEU433.c ****             phyParam.Value = EU433_ADR_ACK_LIMIT;
 203:../../../../../../Middlewares/Third_Party/LoRaWAN/Mac/region/RegionEU433.c ****             break;
 204:../../../../../../Middlewares/Third_Party/LoRaWAN/Mac/region/RegionEU433.c ****         }
 205:../../../../../../Middlewares/Third_Party/LoRaWAN/Mac/region/RegionEU433.c ****         case PHY_DEF_ADR_ACK_DELAY:
 206:../../../../../../Middlewares/Third_Party/LoRaWAN/Mac/region/RegionEU433.c ****         {
 207:../../../../../../Middlewares/Third_Party/LoRaWAN/Mac/region/RegionEU433.c ****             phyParam.Value = EU433_ADR_ACK_DELAY;
 208:../../../../../../Middlewares/Third_Party/LoRaWAN/Mac/region/RegionEU433.c ****             break;
 209:../../../../../../Middlewares/Third_Party/LoRaWAN/Mac/region/RegionEU433.c ****         }
 210:../../../../../../Middlewares/Third_Party/LoRaWAN/Mac/region/RegionEU433.c ****         case PHY_MAX_PAYLOAD:
 211:../../../../../../Middlewares/Third_Party/LoRaWAN/Mac/region/RegionEU433.c ****         {
 212:../../../../../../Middlewares/Third_Party/LoRaWAN/Mac/region/RegionEU433.c ****             phyParam.Value = MaxPayloadOfDatarateEU433[getPhy->Datarate];
 213:../../../../../../Middlewares/Third_Party/LoRaWAN/Mac/region/RegionEU433.c ****             break;
 214:../../../../../../Middlewares/Third_Party/LoRaWAN/Mac/region/RegionEU433.c ****         }
 215:../../../../../../Middlewares/Third_Party/LoRaWAN/Mac/region/RegionEU433.c ****         case PHY_MAX_PAYLOAD_REPEATER:
 216:../../../../../../Middlewares/Third_Party/LoRaWAN/Mac/region/RegionEU433.c ****         {
 217:../../../../../../Middlewares/Third_Party/LoRaWAN/Mac/region/RegionEU433.c ****             phyParam.Value = MaxPayloadOfDatarateRepeaterEU433[getPhy->Datarate];
 218:../../../../../../Middlewares/Third_Party/LoRaWAN/Mac/region/RegionEU433.c ****             break;
 219:../../../../../../Middlewares/Third_Party/LoRaWAN/Mac/region/RegionEU433.c ****         }
 220:../../../../../../Middlewares/Third_Party/LoRaWAN/Mac/region/RegionEU433.c ****         case PHY_DUTY_CYCLE:
 221:../../../../../../Middlewares/Third_Party/LoRaWAN/Mac/region/RegionEU433.c ****         {
 222:../../../../../../Middlewares/Third_Party/LoRaWAN/Mac/region/RegionEU433.c ****             phyParam.Value = EU433_DUTY_CYCLE_ENABLED;
 223:../../../../../../Middlewares/Third_Party/LoRaWAN/Mac/region/RegionEU433.c ****             break;
 224:../../../../../../Middlewares/Third_Party/LoRaWAN/Mac/region/RegionEU433.c ****         }
 225:../../../../../../Middlewares/Third_Party/LoRaWAN/Mac/region/RegionEU433.c ****         case PHY_MAX_RX_WINDOW:
 226:../../../../../../Middlewares/Third_Party/LoRaWAN/Mac/region/RegionEU433.c ****         {
 227:../../../../../../Middlewares/Third_Party/LoRaWAN/Mac/region/RegionEU433.c ****             phyParam.Value = EU433_MAX_RX_WINDOW;
 228:../../../../../../Middlewares/Third_Party/LoRaWAN/Mac/region/RegionEU433.c ****             break;
 229:../../../../../../Middlewares/Third_Party/LoRaWAN/Mac/region/RegionEU433.c ****         }
 230:../../../../../../Middlewares/Third_Party/LoRaWAN/Mac/region/RegionEU433.c ****         case PHY_RECEIVE_DELAY1:
 231:../../../../../../Middlewares/Third_Party/LoRaWAN/Mac/region/RegionEU433.c ****         {
 232:../../../../../../Middlewares/Third_Party/LoRaWAN/Mac/region/RegionEU433.c ****             phyParam.Value = EU433_RECEIVE_DELAY1;
 233:../../../../../../Middlewares/Third_Party/LoRaWAN/Mac/region/RegionEU433.c ****             break;
 234:../../../../../../Middlewares/Third_Party/LoRaWAN/Mac/region/RegionEU433.c ****         }
 235:../../../../../../Middlewares/Third_Party/LoRaWAN/Mac/region/RegionEU433.c ****         case PHY_RECEIVE_DELAY2:
 236:../../../../../../Middlewares/Third_Party/LoRaWAN/Mac/region/RegionEU433.c ****         {
 237:../../../../../../Middlewares/Third_Party/LoRaWAN/Mac/region/RegionEU433.c ****             phyParam.Value = EU433_RECEIVE_DELAY2;
 238:../../../../../../Middlewares/Third_Party/LoRaWAN/Mac/region/RegionEU433.c ****             break;
 239:../../../../../../Middlewares/Third_Party/LoRaWAN/Mac/region/RegionEU433.c ****         }
 240:../../../../../../Middlewares/Third_Party/LoRaWAN/Mac/region/RegionEU433.c ****         case PHY_JOIN_ACCEPT_DELAY1:
ARM GAS  C:\Users\EBANO_~1\AppData\Local\Temp\ccpYmjAB.s 			page 7


 241:../../../../../../Middlewares/Third_Party/LoRaWAN/Mac/region/RegionEU433.c ****         {
 242:../../../../../../Middlewares/Third_Party/LoRaWAN/Mac/region/RegionEU433.c ****             phyParam.Value = EU433_JOIN_ACCEPT_DELAY1;
 243:../../../../../../Middlewares/Third_Party/LoRaWAN/Mac/region/RegionEU433.c ****             break;
 244:../../../../../../Middlewares/Third_Party/LoRaWAN/Mac/region/RegionEU433.c ****         }
 245:../../../../../../Middlewares/Third_Party/LoRaWAN/Mac/region/RegionEU433.c ****         case PHY_JOIN_ACCEPT_DELAY2:
 246:../../../../../../Middlewares/Third_Party/LoRaWAN/Mac/region/RegionEU433.c ****         {
 247:../../../../../../Middlewares/Third_Party/LoRaWAN/Mac/region/RegionEU433.c ****             phyParam.Value = EU433_JOIN_ACCEPT_DELAY2;
 248:../../../../../../Middlewares/Third_Party/LoRaWAN/Mac/region/RegionEU433.c ****             break;
 249:../../../../../../Middlewares/Third_Party/LoRaWAN/Mac/region/RegionEU433.c ****         }
 250:../../../../../../Middlewares/Third_Party/LoRaWAN/Mac/region/RegionEU433.c ****         case PHY_MAX_FCNT_GAP:
 251:../../../../../../Middlewares/Third_Party/LoRaWAN/Mac/region/RegionEU433.c ****         {
 252:../../../../../../Middlewares/Third_Party/LoRaWAN/Mac/region/RegionEU433.c ****             phyParam.Value = EU433_MAX_FCNT_GAP;
 253:../../../../../../Middlewares/Third_Party/LoRaWAN/Mac/region/RegionEU433.c ****             break;
 254:../../../../../../Middlewares/Third_Party/LoRaWAN/Mac/region/RegionEU433.c ****         }
 255:../../../../../../Middlewares/Third_Party/LoRaWAN/Mac/region/RegionEU433.c ****         case PHY_ACK_TIMEOUT:
 256:../../../../../../Middlewares/Third_Party/LoRaWAN/Mac/region/RegionEU433.c ****         {
 257:../../../../../../Middlewares/Third_Party/LoRaWAN/Mac/region/RegionEU433.c ****             phyParam.Value = ( EU433_ACKTIMEOUT + randr( -EU433_ACK_TIMEOUT_RND, EU433_ACK_TIMEOUT_
 258:../../../../../../Middlewares/Third_Party/LoRaWAN/Mac/region/RegionEU433.c ****             break;
 259:../../../../../../Middlewares/Third_Party/LoRaWAN/Mac/region/RegionEU433.c ****         }
 260:../../../../../../Middlewares/Third_Party/LoRaWAN/Mac/region/RegionEU433.c ****         case PHY_DEF_DR1_OFFSET:
 261:../../../../../../Middlewares/Third_Party/LoRaWAN/Mac/region/RegionEU433.c ****         {
 262:../../../../../../Middlewares/Third_Party/LoRaWAN/Mac/region/RegionEU433.c ****             phyParam.Value = EU433_DEFAULT_RX1_DR_OFFSET;
 263:../../../../../../Middlewares/Third_Party/LoRaWAN/Mac/region/RegionEU433.c ****             break;
 264:../../../../../../Middlewares/Third_Party/LoRaWAN/Mac/region/RegionEU433.c ****         }
 265:../../../../../../Middlewares/Third_Party/LoRaWAN/Mac/region/RegionEU433.c ****         case PHY_DEF_RX2_FREQUENCY:
 266:../../../../../../Middlewares/Third_Party/LoRaWAN/Mac/region/RegionEU433.c ****         {
 267:../../../../../../Middlewares/Third_Party/LoRaWAN/Mac/region/RegionEU433.c ****             phyParam.Value = EU433_RX_WND_2_FREQ;
 268:../../../../../../Middlewares/Third_Party/LoRaWAN/Mac/region/RegionEU433.c ****             break;
 269:../../../../../../Middlewares/Third_Party/LoRaWAN/Mac/region/RegionEU433.c ****         }
 270:../../../../../../Middlewares/Third_Party/LoRaWAN/Mac/region/RegionEU433.c ****         case PHY_DEF_RX2_DR:
 271:../../../../../../Middlewares/Third_Party/LoRaWAN/Mac/region/RegionEU433.c ****         {
 272:../../../../../../Middlewares/Third_Party/LoRaWAN/Mac/region/RegionEU433.c ****             phyParam.Value = EU433_RX_WND_2_DR;
 273:../../../../../../Middlewares/Third_Party/LoRaWAN/Mac/region/RegionEU433.c ****             break;
 274:../../../../../../Middlewares/Third_Party/LoRaWAN/Mac/region/RegionEU433.c ****         }
 275:../../../../../../Middlewares/Third_Party/LoRaWAN/Mac/region/RegionEU433.c ****         case PHY_CHANNELS_MASK:
 276:../../../../../../Middlewares/Third_Party/LoRaWAN/Mac/region/RegionEU433.c ****         {
 277:../../../../../../Middlewares/Third_Party/LoRaWAN/Mac/region/RegionEU433.c ****             phyParam.ChannelsMask = NvmCtx.ChannelsMask;
 278:../../../../../../Middlewares/Third_Party/LoRaWAN/Mac/region/RegionEU433.c ****             break;
 279:../../../../../../Middlewares/Third_Party/LoRaWAN/Mac/region/RegionEU433.c ****         }
 280:../../../../../../Middlewares/Third_Party/LoRaWAN/Mac/region/RegionEU433.c ****         case PHY_CHANNELS_DEFAULT_MASK:
 281:../../../../../../Middlewares/Third_Party/LoRaWAN/Mac/region/RegionEU433.c ****         {
 282:../../../../../../Middlewares/Third_Party/LoRaWAN/Mac/region/RegionEU433.c ****             phyParam.ChannelsMask = NvmCtx.ChannelsDefaultMask;
 102              		.loc 1 282 0
 103 001a 2F4B     		ldr	r3, .L30+4
 104 001c 0093     		str	r3, [sp]
 105              	.LVL1:
 106              	.L2:
 283:../../../../../../Middlewares/Third_Party/LoRaWAN/Mac/region/RegionEU433.c ****             break;
 284:../../../../../../Middlewares/Third_Party/LoRaWAN/Mac/region/RegionEU433.c ****         }
 285:../../../../../../Middlewares/Third_Party/LoRaWAN/Mac/region/RegionEU433.c ****         case PHY_MAX_NB_CHANNELS:
 286:../../../../../../Middlewares/Third_Party/LoRaWAN/Mac/region/RegionEU433.c ****         {
 287:../../../../../../Middlewares/Third_Party/LoRaWAN/Mac/region/RegionEU433.c ****             phyParam.Value = EU433_MAX_NB_CHANNELS;
 288:../../../../../../Middlewares/Third_Party/LoRaWAN/Mac/region/RegionEU433.c ****             break;
 289:../../../../../../Middlewares/Third_Party/LoRaWAN/Mac/region/RegionEU433.c ****         }
 290:../../../../../../Middlewares/Third_Party/LoRaWAN/Mac/region/RegionEU433.c ****         case PHY_CHANNELS:
 291:../../../../../../Middlewares/Third_Party/LoRaWAN/Mac/region/RegionEU433.c ****         {
 292:../../../../../../Middlewares/Third_Party/LoRaWAN/Mac/region/RegionEU433.c ****             phyParam.Channels = NvmCtx.Channels;
ARM GAS  C:\Users\EBANO_~1\AppData\Local\Temp\ccpYmjAB.s 			page 8


 293:../../../../../../Middlewares/Third_Party/LoRaWAN/Mac/region/RegionEU433.c ****             break;
 294:../../../../../../Middlewares/Third_Party/LoRaWAN/Mac/region/RegionEU433.c ****         }
 295:../../../../../../Middlewares/Third_Party/LoRaWAN/Mac/region/RegionEU433.c ****         case PHY_DEF_UPLINK_DWELL_TIME:
 296:../../../../../../Middlewares/Third_Party/LoRaWAN/Mac/region/RegionEU433.c ****         case PHY_DEF_DOWNLINK_DWELL_TIME:
 297:../../../../../../Middlewares/Third_Party/LoRaWAN/Mac/region/RegionEU433.c ****         {
 298:../../../../../../Middlewares/Third_Party/LoRaWAN/Mac/region/RegionEU433.c ****             phyParam.Value = 0;
 299:../../../../../../Middlewares/Third_Party/LoRaWAN/Mac/region/RegionEU433.c ****             break;
 300:../../../../../../Middlewares/Third_Party/LoRaWAN/Mac/region/RegionEU433.c ****         }
 301:../../../../../../Middlewares/Third_Party/LoRaWAN/Mac/region/RegionEU433.c ****         case PHY_DEF_MAX_EIRP:
 302:../../../../../../Middlewares/Third_Party/LoRaWAN/Mac/region/RegionEU433.c ****         {
 303:../../../../../../Middlewares/Third_Party/LoRaWAN/Mac/region/RegionEU433.c ****             phyParam.fValue = EU433_DEFAULT_MAX_EIRP;
 304:../../../../../../Middlewares/Third_Party/LoRaWAN/Mac/region/RegionEU433.c ****             break;
 305:../../../../../../Middlewares/Third_Party/LoRaWAN/Mac/region/RegionEU433.c ****         }
 306:../../../../../../Middlewares/Third_Party/LoRaWAN/Mac/region/RegionEU433.c ****         case PHY_DEF_ANTENNA_GAIN:
 307:../../../../../../Middlewares/Third_Party/LoRaWAN/Mac/region/RegionEU433.c ****         {
 308:../../../../../../Middlewares/Third_Party/LoRaWAN/Mac/region/RegionEU433.c ****             phyParam.fValue = EU433_DEFAULT_ANTENNA_GAIN;
 309:../../../../../../Middlewares/Third_Party/LoRaWAN/Mac/region/RegionEU433.c ****             break;
 310:../../../../../../Middlewares/Third_Party/LoRaWAN/Mac/region/RegionEU433.c ****         }
 311:../../../../../../Middlewares/Third_Party/LoRaWAN/Mac/region/RegionEU433.c ****         case PHY_BEACON_CHANNEL_FREQ:
 312:../../../../../../Middlewares/Third_Party/LoRaWAN/Mac/region/RegionEU433.c ****         {
 313:../../../../../../Middlewares/Third_Party/LoRaWAN/Mac/region/RegionEU433.c ****             phyParam.Value = EU433_BEACON_CHANNEL_FREQ;
 314:../../../../../../Middlewares/Third_Party/LoRaWAN/Mac/region/RegionEU433.c ****             break;
 315:../../../../../../Middlewares/Third_Party/LoRaWAN/Mac/region/RegionEU433.c ****         }
 316:../../../../../../Middlewares/Third_Party/LoRaWAN/Mac/region/RegionEU433.c ****         case PHY_BEACON_FORMAT:
 317:../../../../../../Middlewares/Third_Party/LoRaWAN/Mac/region/RegionEU433.c ****         {
 318:../../../../../../Middlewares/Third_Party/LoRaWAN/Mac/region/RegionEU433.c ****             phyParam.BeaconFormat.BeaconSize = EU433_BEACON_SIZE;
 319:../../../../../../Middlewares/Third_Party/LoRaWAN/Mac/region/RegionEU433.c ****             phyParam.BeaconFormat.Rfu1Size = EU433_RFU1_SIZE;
 320:../../../../../../Middlewares/Third_Party/LoRaWAN/Mac/region/RegionEU433.c ****             phyParam.BeaconFormat.Rfu2Size = EU433_RFU2_SIZE;
 321:../../../../../../Middlewares/Third_Party/LoRaWAN/Mac/region/RegionEU433.c ****             break;
 322:../../../../../../Middlewares/Third_Party/LoRaWAN/Mac/region/RegionEU433.c ****         }
 323:../../../../../../Middlewares/Third_Party/LoRaWAN/Mac/region/RegionEU433.c ****         case PHY_BEACON_CHANNEL_DR:
 324:../../../../../../Middlewares/Third_Party/LoRaWAN/Mac/region/RegionEU433.c ****         {
 325:../../../../../../Middlewares/Third_Party/LoRaWAN/Mac/region/RegionEU433.c ****             phyParam.Value = EU433_BEACON_CHANNEL_DR;
 326:../../../../../../Middlewares/Third_Party/LoRaWAN/Mac/region/RegionEU433.c ****             break;
 327:../../../../../../Middlewares/Third_Party/LoRaWAN/Mac/region/RegionEU433.c ****         }
 328:../../../../../../Middlewares/Third_Party/LoRaWAN/Mac/region/RegionEU433.c ****         case PHY_PING_SLOT_CHANNEL_DR:
 329:../../../../../../Middlewares/Third_Party/LoRaWAN/Mac/region/RegionEU433.c ****         {
 330:../../../../../../Middlewares/Third_Party/LoRaWAN/Mac/region/RegionEU433.c ****             phyParam.Value = EU433_PING_SLOT_CHANNEL_DR;
 331:../../../../../../Middlewares/Third_Party/LoRaWAN/Mac/region/RegionEU433.c ****             break;
 332:../../../../../../Middlewares/Third_Party/LoRaWAN/Mac/region/RegionEU433.c ****         }
 333:../../../../../../Middlewares/Third_Party/LoRaWAN/Mac/region/RegionEU433.c ****         default:
 334:../../../../../../Middlewares/Third_Party/LoRaWAN/Mac/region/RegionEU433.c ****         {
 335:../../../../../../Middlewares/Third_Party/LoRaWAN/Mac/region/RegionEU433.c ****             break;
 336:../../../../../../Middlewares/Third_Party/LoRaWAN/Mac/region/RegionEU433.c ****         }
 337:../../../../../../Middlewares/Third_Party/LoRaWAN/Mac/region/RegionEU433.c ****     }
 338:../../../../../../Middlewares/Third_Party/LoRaWAN/Mac/region/RegionEU433.c **** 
 339:../../../../../../Middlewares/Third_Party/LoRaWAN/Mac/region/RegionEU433.c ****     return phyParam;
 340:../../../../../../Middlewares/Third_Party/LoRaWAN/Mac/region/RegionEU433.c **** }
 107              		.loc 1 340 0
 108 001e 0098     		ldr	r0, [sp]
 109 0020 03B0     		add	sp, sp, #12
 110              		@ sp needed
 111 0022 00BD     		pop	{pc}
 112              	.LVL2:
 113              	.L16:
 267:../../../../../../Middlewares/Third_Party/LoRaWAN/Mac/region/RegionEU433.c ****             break;
 114              		.loc 1 267 0
ARM GAS  C:\Users\EBANO_~1\AppData\Local\Temp\ccpYmjAB.s 			page 9


 115 0024 2D4B     		ldr	r3, .L30+8
 116 0026 0093     		str	r3, [sp]
 268:../../../../../../Middlewares/Third_Party/LoRaWAN/Mac/region/RegionEU433.c ****         }
 117              		.loc 1 268 0
 118 0028 F9E7     		b	.L2
 119              	.L25:
 325:../../../../../../Middlewares/Third_Party/LoRaWAN/Mac/region/RegionEU433.c ****             break;
 120              		.loc 1 325 0
 121 002a 0323     		movs	r3, #3
 122 002c 0093     		str	r3, [sp]
 326:../../../../../../Middlewares/Third_Party/LoRaWAN/Mac/region/RegionEU433.c ****         }
 123              		.loc 1 326 0
 124 002e F6E7     		b	.L2
 125              	.L5:
 207:../../../../../../Middlewares/Third_Party/LoRaWAN/Mac/region/RegionEU433.c ****             break;
 126              		.loc 1 207 0
 127 0030 2023     		movs	r3, #32
 128 0032 0093     		str	r3, [sp]
 208:../../../../../../Middlewares/Third_Party/LoRaWAN/Mac/region/RegionEU433.c ****         }
 129              		.loc 1 208 0
 130 0034 F3E7     		b	.L2
 131              	.L20:
 292:../../../../../../Middlewares/Third_Party/LoRaWAN/Mac/region/RegionEU433.c ****             break;
 132              		.loc 1 292 0
 133 0036 2A4B     		ldr	r3, .L30+12
 134 0038 0093     		str	r3, [sp]
 293:../../../../../../Middlewares/Third_Party/LoRaWAN/Mac/region/RegionEU433.c ****         }
 135              		.loc 1 293 0
 136 003a F0E7     		b	.L2
 137              	.L19:
 287:../../../../../../Middlewares/Third_Party/LoRaWAN/Mac/region/RegionEU433.c ****             break;
 138              		.loc 1 287 0
 139 003c 1023     		movs	r3, #16
 140 003e 0093     		str	r3, [sp]
 288:../../../../../../Middlewares/Third_Party/LoRaWAN/Mac/region/RegionEU433.c ****         }
 141              		.loc 1 288 0
 142 0040 EDE7     		b	.L2
 143              	.L17:
 277:../../../../../../Middlewares/Third_Party/LoRaWAN/Mac/region/RegionEU433.c ****             break;
 144              		.loc 1 277 0
 145 0042 284B     		ldr	r3, .L30+16
 146 0044 0093     		str	r3, [sp]
 278:../../../../../../Middlewares/Third_Party/LoRaWAN/Mac/region/RegionEU433.c ****         }
 147              		.loc 1 278 0
 148 0046 EAE7     		b	.L2
 149              	.L21:
 303:../../../../../../Middlewares/Third_Party/LoRaWAN/Mac/region/RegionEU433.c ****             break;
 150              		.loc 1 303 0
 151 0048 274B     		ldr	r3, .L30+20
 152 004a 0093     		str	r3, [sp]
 304:../../../../../../Middlewares/Third_Party/LoRaWAN/Mac/region/RegionEU433.c ****         }
 153              		.loc 1 304 0
 154 004c E7E7     		b	.L2
 155              	.L11:
 237:../../../../../../Middlewares/Third_Party/LoRaWAN/Mac/region/RegionEU433.c ****             break;
 156              		.loc 1 237 0
 157 004e FA23     		movs	r3, #250
ARM GAS  C:\Users\EBANO_~1\AppData\Local\Temp\ccpYmjAB.s 			page 10


 158 0050 DB00     		lsls	r3, r3, #3
 159 0052 0093     		str	r3, [sp]
 238:../../../../../../Middlewares/Third_Party/LoRaWAN/Mac/region/RegionEU433.c ****         }
 160              		.loc 1 238 0
 161 0054 E3E7     		b	.L2
 162              	.L10:
 232:../../../../../../Middlewares/Third_Party/LoRaWAN/Mac/region/RegionEU433.c ****             break;
 163              		.loc 1 232 0
 164 0056 FA23     		movs	r3, #250
 165 0058 9B00     		lsls	r3, r3, #2
 166 005a 0093     		str	r3, [sp]
 233:../../../../../../Middlewares/Third_Party/LoRaWAN/Mac/region/RegionEU433.c ****         }
 167              		.loc 1 233 0
 168 005c DFE7     		b	.L2
 169              	.L9:
 227:../../../../../../Middlewares/Third_Party/LoRaWAN/Mac/region/RegionEU433.c ****             break;
 170              		.loc 1 227 0
 171 005e 234B     		ldr	r3, .L30+24
 172 0060 0093     		str	r3, [sp]
 228:../../../../../../Middlewares/Third_Party/LoRaWAN/Mac/region/RegionEU433.c ****         }
 173              		.loc 1 228 0
 174 0062 DCE7     		b	.L2
 175              	.L12:
 242:../../../../../../Middlewares/Third_Party/LoRaWAN/Mac/region/RegionEU433.c ****             break;
 176              		.loc 1 242 0
 177 0064 224B     		ldr	r3, .L30+28
 178 0066 0093     		str	r3, [sp]
 243:../../../../../../Middlewares/Third_Party/LoRaWAN/Mac/region/RegionEU433.c ****         }
 179              		.loc 1 243 0
 180 0068 D9E7     		b	.L2
 181              	.L22:
 308:../../../../../../Middlewares/Third_Party/LoRaWAN/Mac/region/RegionEU433.c ****             break;
 182              		.loc 1 308 0
 183 006a 224B     		ldr	r3, .L30+32
 184 006c 0093     		str	r3, [sp]
 309:../../../../../../Middlewares/Third_Party/LoRaWAN/Mac/region/RegionEU433.c ****         }
 185              		.loc 1 309 0
 186 006e D6E7     		b	.L2
 187              	.L24:
 318:../../../../../../Middlewares/Third_Party/LoRaWAN/Mac/region/RegionEU433.c ****             phyParam.BeaconFormat.Rfu1Size = EU433_RFU1_SIZE;
 188              		.loc 1 318 0
 189 0070 6A46     		mov	r2, sp
 190 0072 214B     		ldr	r3, .L30+36
 191 0074 1380     		strh	r3, [r2]
 321:../../../../../../Middlewares/Third_Party/LoRaWAN/Mac/region/RegionEU433.c ****         }
 192              		.loc 1 321 0
 193 0076 D2E7     		b	.L2
 194              	.L23:
 187:../../../../../../Middlewares/Third_Party/LoRaWAN/Mac/region/RegionEU433.c ****             break;
 195              		.loc 1 187 0
 196 0078 0123     		movs	r3, #1
 197 007a C356     		ldrsb	r3, [r0, r3]
 198              	.LVL3:
 199              	.LBB22:
 200              	.LBB23:
  73:../../../../../../Middlewares/Third_Party/LoRaWAN/Mac/region/RegionEU433.c ****     {
 201              		.loc 1 73 0
ARM GAS  C:\Users\EBANO_~1\AppData\Local\Temp\ccpYmjAB.s 			page 11


 202 007c 0022     		movs	r2, #0
 203 007e 002B     		cmp	r3, #0
 204 0080 01D0     		beq	.L26
 205              	.LVL4:
  79:../../../../../../Middlewares/Third_Party/LoRaWAN/Mac/region/RegionEU433.c ****     }
 206              		.loc 1 79 0
 207 0082 013B     		subs	r3, r3, #1
 208              	.LVL5:
 209 0084 5AB2     		sxtb	r2, r3
 210              	.LVL6:
 211              	.L26:
 212              	.LBE23:
 213              	.LBE22:
 187:../../../../../../Middlewares/Third_Party/LoRaWAN/Mac/region/RegionEU433.c ****             break;
 214              		.loc 1 187 0
 215 0086 0092     		str	r2, [sp]
 188:../../../../../../Middlewares/Third_Party/LoRaWAN/Mac/region/RegionEU433.c ****         }
 216              		.loc 1 188 0
 217 0088 C9E7     		b	.L2
 218              	.L14:
 252:../../../../../../Middlewares/Third_Party/LoRaWAN/Mac/region/RegionEU433.c ****             break;
 219              		.loc 1 252 0
 220 008a 8023     		movs	r3, #128
 221 008c DB01     		lsls	r3, r3, #7
 222 008e 0093     		str	r3, [sp]
 253:../../../../../../Middlewares/Third_Party/LoRaWAN/Mac/region/RegionEU433.c ****         }
 223              		.loc 1 253 0
 224 0090 C5E7     		b	.L2
 225              	.L13:
 247:../../../../../../Middlewares/Third_Party/LoRaWAN/Mac/region/RegionEU433.c ****             break;
 226              		.loc 1 247 0
 227 0092 1A4B     		ldr	r3, .L30+40
 228 0094 0093     		str	r3, [sp]
 248:../../../../../../Middlewares/Third_Party/LoRaWAN/Mac/region/RegionEU433.c ****         }
 229              		.loc 1 248 0
 230 0096 C2E7     		b	.L2
 231              	.L15:
 257:../../../../../../Middlewares/Third_Party/LoRaWAN/Mac/region/RegionEU433.c ****             break;
 232              		.loc 1 257 0
 233 0098 FA21     		movs	r1, #250
 234 009a 1948     		ldr	r0, .L30+44
 235              	.LVL7:
 236 009c 8900     		lsls	r1, r1, #2
 237 009e FFF7FEFF 		bl	randr
 238              	.LVL8:
 239 00a2 FA23     		movs	r3, #250
 240 00a4 DB00     		lsls	r3, r3, #3
 241 00a6 9C46     		mov	ip, r3
 242 00a8 6044     		add	r0, r0, ip
 243 00aa 0090     		str	r0, [sp]
 258:../../../../../../Middlewares/Third_Party/LoRaWAN/Mac/region/RegionEU433.c ****         }
 244              		.loc 1 258 0
 245 00ac B7E7     		b	.L2
 246              	.LVL9:
 247              	.L3:
 202:../../../../../../Middlewares/Third_Party/LoRaWAN/Mac/region/RegionEU433.c ****             break;
 248              		.loc 1 202 0
ARM GAS  C:\Users\EBANO_~1\AppData\Local\Temp\ccpYmjAB.s 			page 12


 249 00ae 4023     		movs	r3, #64
 250 00b0 0093     		str	r3, [sp]
 203:../../../../../../Middlewares/Third_Party/LoRaWAN/Mac/region/RegionEU433.c ****         }
 251              		.loc 1 203 0
 252 00b2 B4E7     		b	.L2
 253              	.L8:
 222:../../../../../../Middlewares/Third_Party/LoRaWAN/Mac/region/RegionEU433.c ****             break;
 254              		.loc 1 222 0
 255 00b4 0123     		movs	r3, #1
 256 00b6 0093     		str	r3, [sp]
 223:../../../../../../Middlewares/Third_Party/LoRaWAN/Mac/region/RegionEU433.c ****         }
 257              		.loc 1 223 0
 258 00b8 B1E7     		b	.L2
 259              	.L7:
 217:../../../../../../Middlewares/Third_Party/LoRaWAN/Mac/region/RegionEU433.c ****             break;
 260              		.loc 1 217 0
 261 00ba 0122     		movs	r2, #1
 262 00bc 114B     		ldr	r3, .L30+48
 263 00be 8256     		ldrsb	r2, [r0, r2]
 264 00c0 9B18     		adds	r3, r3, r2
 265 00c2 1B7A     		ldrb	r3, [r3, #8]
 266 00c4 0093     		str	r3, [sp]
 218:../../../../../../Middlewares/Third_Party/LoRaWAN/Mac/region/RegionEU433.c ****         }
 267              		.loc 1 218 0
 268 00c6 AAE7     		b	.L2
 269              	.L6:
 212:../../../../../../Middlewares/Third_Party/LoRaWAN/Mac/region/RegionEU433.c ****             break;
 270              		.loc 1 212 0
 271 00c8 0123     		movs	r3, #1
 272 00ca 0E4A     		ldr	r2, .L30+48
 273 00cc C356     		ldrsb	r3, [r0, r3]
 274 00ce D35C     		ldrb	r3, [r2, r3]
 275 00d0 0093     		str	r3, [sp]
 213:../../../../../../Middlewares/Third_Party/LoRaWAN/Mac/region/RegionEU433.c ****         }
 276              		.loc 1 213 0
 277 00d2 A4E7     		b	.L2
 278              	.L31:
 279              		.align	2
 280              	.L30:
 281 00d4 00000000 		.word	.L4
 282 00d8 D2000000 		.word	NvmCtx+210
 283 00dc 2876E819 		.word	434665000
 284 00e0 00000000 		.word	NvmCtx
 285 00e4 D0000000 		.word	NvmCtx+208
 286 00e8 66664241 		.word	1094870630
 287 00ec B80B0000 		.word	3000
 288 00f0 88130000 		.word	5000
 289 00f4 9A990940 		.word	1074370970
 290 00f8 11020000 		.word	529
 291 00fc 70170000 		.word	6000
 292 0100 18FCFFFF 		.word	-1000
 293 0104 00010000 		.word	.LANCHOR0
 294              		.cfi_endproc
 295              	.LFE44:
 296              		.size	RegionEU433GetPhyParam, .-RegionEU433GetPhyParam
 297              		.section	.text.RegionEU433SetBandTxDone,"ax",%progbits
 298              		.align	1
ARM GAS  C:\Users\EBANO_~1\AppData\Local\Temp\ccpYmjAB.s 			page 13


 299              		.p2align 2,,3
 300              		.global	RegionEU433SetBandTxDone
 301              		.syntax unified
 302              		.code	16
 303              		.thumb_func
 304              		.fpu softvfp
 305              		.type	RegionEU433SetBandTxDone, %function
 306              	RegionEU433SetBandTxDone:
 307              	.LFB45:
 341:../../../../../../Middlewares/Third_Party/LoRaWAN/Mac/region/RegionEU433.c **** 
 342:../../../../../../Middlewares/Third_Party/LoRaWAN/Mac/region/RegionEU433.c **** void RegionEU433SetBandTxDone( SetBandTxDoneParams_t* txDone )
 343:../../../../../../Middlewares/Third_Party/LoRaWAN/Mac/region/RegionEU433.c **** {
 308              		.loc 1 343 0
 309              		.cfi_startproc
 310              		@ args = 0, pretend = 0, frame = 0
 311              		@ frame_needed = 0, uses_anonymous_args = 0
 312              	.LVL10:
 344:../../../../../../Middlewares/Third_Party/LoRaWAN/Mac/region/RegionEU433.c ****     RegionCommonSetBandTxDone( txDone->Joined, &NvmCtx.Bands[NvmCtx.Channels[txDone->Channel].Band]
 313              		.loc 1 344 0
 314 0000 0178     		ldrb	r1, [r0]
 343:../../../../../../Middlewares/Third_Party/LoRaWAN/Mac/region/RegionEU433.c ****     RegionCommonSetBandTxDone( txDone->Joined, &NvmCtx.Bands[NvmCtx.Channels[txDone->Channel].Band]
 315              		.loc 1 343 0
 316 0002 10B5     		push	{r4, lr}
 317              	.LCFI2:
 318              		.cfi_def_cfa_offset 8
 319              		.cfi_offset 4, -8
 320              		.cfi_offset 14, -4
 321              		.loc 1 344 0
 322 0004 4B00     		lsls	r3, r1, #1
 323 0006 064C     		ldr	r4, .L33
 324 0008 5B18     		adds	r3, r3, r1
 325 000a 9B00     		lsls	r3, r3, #2
 326 000c E318     		adds	r3, r4, r3
 327 000e 597A     		ldrb	r1, [r3, #9]
 328 0010 4268     		ldr	r2, [r0, #4]
 329 0012 0C31     		adds	r1, r1, #12
 330 0014 0901     		lsls	r1, r1, #4
 331 0016 0919     		adds	r1, r1, r4
 332 0018 4078     		ldrb	r0, [r0, #1]
 333              	.LVL11:
 334 001a FFF7FEFF 		bl	RegionCommonSetBandTxDone
 335              	.LVL12:
 345:../../../../../../Middlewares/Third_Party/LoRaWAN/Mac/region/RegionEU433.c **** }
 336              		.loc 1 345 0
 337              		@ sp needed
 338 001e 10BD     		pop	{r4, pc}
 339              	.L34:
 340              		.align	2
 341              	.L33:
 342 0020 00000000 		.word	NvmCtx
 343              		.cfi_endproc
 344              	.LFE45:
 345              		.size	RegionEU433SetBandTxDone, .-RegionEU433SetBandTxDone
 346              		.section	.text.RegionEU433InitDefaults,"ax",%progbits
 347              		.align	1
 348              		.p2align 2,,3
 349              		.global	RegionEU433InitDefaults
ARM GAS  C:\Users\EBANO_~1\AppData\Local\Temp\ccpYmjAB.s 			page 14


 350              		.syntax unified
 351              		.code	16
 352              		.thumb_func
 353              		.fpu softvfp
 354              		.type	RegionEU433InitDefaults, %function
 355              	RegionEU433InitDefaults:
 356              	.LFB46:
 346:../../../../../../Middlewares/Third_Party/LoRaWAN/Mac/region/RegionEU433.c **** 
 347:../../../../../../Middlewares/Third_Party/LoRaWAN/Mac/region/RegionEU433.c **** void RegionEU433InitDefaults( InitDefaultsParams_t* params )
 348:../../../../../../Middlewares/Third_Party/LoRaWAN/Mac/region/RegionEU433.c **** {
 357              		.loc 1 348 0
 358              		.cfi_startproc
 359              		@ args = 0, pretend = 0, frame = 16
 360              		@ frame_needed = 0, uses_anonymous_args = 0
 361              	.LVL13:
 362 0000 F0B5     		push	{r4, r5, r6, r7, lr}
 363              	.LCFI3:
 364              		.cfi_def_cfa_offset 20
 365              		.cfi_offset 4, -20
 366              		.cfi_offset 5, -16
 367              		.cfi_offset 6, -12
 368              		.cfi_offset 7, -8
 369              		.cfi_offset 14, -4
 370 0002 85B0     		sub	sp, sp, #20
 371              	.LCFI4:
 372              		.cfi_def_cfa_offset 40
 349:../../../../../../Middlewares/Third_Party/LoRaWAN/Mac/region/RegionEU433.c ****     Band_t bands[EU433_MAX_NB_BANDS] =
 373              		.loc 1 349 0
 374 0004 6423     		movs	r3, #100
 375 0006 6A46     		mov	r2, sp
 376 0008 1380     		strh	r3, [r2]
 377 000a 0023     		movs	r3, #0
 378 000c 9370     		strb	r3, [r2, #2]
 379 000e 0193     		str	r3, [sp, #4]
 380 0010 0293     		str	r3, [sp, #8]
 381 0012 0393     		str	r3, [sp, #12]
 350:../../../../../../Middlewares/Third_Party/LoRaWAN/Mac/region/RegionEU433.c ****     {
 351:../../../../../../Middlewares/Third_Party/LoRaWAN/Mac/region/RegionEU433.c ****         EU433_BAND0
 352:../../../../../../Middlewares/Third_Party/LoRaWAN/Mac/region/RegionEU433.c ****     };
 353:../../../../../../Middlewares/Third_Party/LoRaWAN/Mac/region/RegionEU433.c **** 
 354:../../../../../../Middlewares/Third_Party/LoRaWAN/Mac/region/RegionEU433.c ****     switch( params->Type )
 382              		.loc 1 354 0
 383 0014 0379     		ldrb	r3, [r0, #4]
 384 0016 012B     		cmp	r3, #1
 385 0018 2ED0     		beq	.L37
 386 001a 002B     		cmp	r3, #0
 387 001c 0AD0     		beq	.L38
 388 001e 022B     		cmp	r3, #2
 389 0020 06D1     		bne	.L35
 355:../../../../../../Middlewares/Third_Party/LoRaWAN/Mac/region/RegionEU433.c ****     {
 356:../../../../../../Middlewares/Third_Party/LoRaWAN/Mac/region/RegionEU433.c ****         case INIT_TYPE_INIT:
 357:../../../../../../Middlewares/Third_Party/LoRaWAN/Mac/region/RegionEU433.c ****         {
 358:../../../../../../Middlewares/Third_Party/LoRaWAN/Mac/region/RegionEU433.c ****             // Initialize bands
 359:../../../../../../Middlewares/Third_Party/LoRaWAN/Mac/region/RegionEU433.c ****             memcpy1( ( uint8_t* )NvmCtx.Bands, ( uint8_t* )bands, sizeof( Band_t ) * EU433_MAX_NB_B
 360:../../../../../../Middlewares/Third_Party/LoRaWAN/Mac/region/RegionEU433.c **** 
 361:../../../../../../Middlewares/Third_Party/LoRaWAN/Mac/region/RegionEU433.c ****             // Channels
 362:../../../../../../Middlewares/Third_Party/LoRaWAN/Mac/region/RegionEU433.c ****             NvmCtx.Channels[0] = ( ChannelParams_t ) EU433_LC1;
ARM GAS  C:\Users\EBANO_~1\AppData\Local\Temp\ccpYmjAB.s 			page 15


 363:../../../../../../Middlewares/Third_Party/LoRaWAN/Mac/region/RegionEU433.c ****             NvmCtx.Channels[1] = ( ChannelParams_t ) EU433_LC2;
 364:../../../../../../Middlewares/Third_Party/LoRaWAN/Mac/region/RegionEU433.c ****             NvmCtx.Channels[2] = ( ChannelParams_t ) EU433_LC3;
 365:../../../../../../Middlewares/Third_Party/LoRaWAN/Mac/region/RegionEU433.c **** 
 366:../../../../../../Middlewares/Third_Party/LoRaWAN/Mac/region/RegionEU433.c ****             // Initialize the channels default mask
 367:../../../../../../Middlewares/Third_Party/LoRaWAN/Mac/region/RegionEU433.c ****             NvmCtx.ChannelsDefaultMask[0] = LC( 1 ) + LC( 2 ) + LC( 3 );
 368:../../../../../../Middlewares/Third_Party/LoRaWAN/Mac/region/RegionEU433.c ****             // Update the channels mask
 369:../../../../../../Middlewares/Third_Party/LoRaWAN/Mac/region/RegionEU433.c ****             RegionCommonChanMaskCopy( NvmCtx.ChannelsMask, NvmCtx.ChannelsDefaultMask, 1 );
 370:../../../../../../Middlewares/Third_Party/LoRaWAN/Mac/region/RegionEU433.c ****             break;
 371:../../../../../../Middlewares/Third_Party/LoRaWAN/Mac/region/RegionEU433.c ****         }
 372:../../../../../../Middlewares/Third_Party/LoRaWAN/Mac/region/RegionEU433.c ****         case INIT_TYPE_RESTORE_CTX:
 373:../../../../../../Middlewares/Third_Party/LoRaWAN/Mac/region/RegionEU433.c ****         {
 374:../../../../../../Middlewares/Third_Party/LoRaWAN/Mac/region/RegionEU433.c ****             if( params->NvmCtx != 0 )
 390              		.loc 1 374 0
 391 0022 0168     		ldr	r1, [r0]
 392 0024 0029     		cmp	r1, #0
 393 0026 03D0     		beq	.L35
 375:../../../../../../Middlewares/Third_Party/LoRaWAN/Mac/region/RegionEU433.c ****             {
 376:../../../../../../Middlewares/Third_Party/LoRaWAN/Mac/region/RegionEU433.c ****                 memcpy1( (uint8_t*) &NvmCtx, (uint8_t*) params->NvmCtx, sizeof( NvmCtx ) );
 394              		.loc 1 376 0
 395 0028 D422     		movs	r2, #212
 396 002a 1748     		ldr	r0, .L43
 397              	.LVL14:
 398 002c FFF7FEFF 		bl	memcpy1
 399              	.LVL15:
 400              	.L35:
 377:../../../../../../Middlewares/Third_Party/LoRaWAN/Mac/region/RegionEU433.c ****             }
 378:../../../../../../Middlewares/Third_Party/LoRaWAN/Mac/region/RegionEU433.c ****             break;
 379:../../../../../../Middlewares/Third_Party/LoRaWAN/Mac/region/RegionEU433.c ****         }
 380:../../../../../../Middlewares/Third_Party/LoRaWAN/Mac/region/RegionEU433.c ****         case INIT_TYPE_RESTORE_DEFAULT_CHANNELS:
 381:../../../../../../Middlewares/Third_Party/LoRaWAN/Mac/region/RegionEU433.c ****         {
 382:../../../../../../Middlewares/Third_Party/LoRaWAN/Mac/region/RegionEU433.c ****             // Restore channels default mask
 383:../../../../../../Middlewares/Third_Party/LoRaWAN/Mac/region/RegionEU433.c ****             NvmCtx.ChannelsMask[0] |= NvmCtx.ChannelsDefaultMask[0];
 384:../../../../../../Middlewares/Third_Party/LoRaWAN/Mac/region/RegionEU433.c ****             break;
 385:../../../../../../Middlewares/Third_Party/LoRaWAN/Mac/region/RegionEU433.c ****         }
 386:../../../../../../Middlewares/Third_Party/LoRaWAN/Mac/region/RegionEU433.c ****         default:
 387:../../../../../../Middlewares/Third_Party/LoRaWAN/Mac/region/RegionEU433.c ****         {
 388:../../../../../../Middlewares/Third_Party/LoRaWAN/Mac/region/RegionEU433.c ****             break;
 389:../../../../../../Middlewares/Third_Party/LoRaWAN/Mac/region/RegionEU433.c ****         }
 390:../../../../../../Middlewares/Third_Party/LoRaWAN/Mac/region/RegionEU433.c ****     }
 391:../../../../../../Middlewares/Third_Party/LoRaWAN/Mac/region/RegionEU433.c **** }
 401              		.loc 1 391 0
 402 0030 05B0     		add	sp, sp, #20
 403              		@ sp needed
 404 0032 F0BD     		pop	{r4, r5, r6, r7, pc}
 405              	.LVL16:
 406              	.L38:
 359:../../../../../../Middlewares/Third_Party/LoRaWAN/Mac/region/RegionEU433.c **** 
 407              		.loc 1 359 0
 408 0034 154C     		ldr	r4, .L43+4
 409 0036 6946     		mov	r1, sp
 410 0038 2000     		movs	r0, r4
 411              	.LVL17:
 412 003a 1022     		movs	r2, #16
 413 003c FFF7FEFF 		bl	memcpy1
 414              	.LVL18:
 362:../../../../../../Middlewares/Third_Party/LoRaWAN/Mac/region/RegionEU433.c ****             NvmCtx.Channels[1] = ( ChannelParams_t ) EU433_LC2;
 415              		.loc 1 362 0
ARM GAS  C:\Users\EBANO_~1\AppData\Local\Temp\ccpYmjAB.s 			page 16


 416 0040 2200     		movs	r2, r4
 417 0042 134B     		ldr	r3, .L43+8
 418 0044 C03A     		subs	r2, r2, #192
 419 0046 1900     		movs	r1, r3
 420 0048 1000     		movs	r0, r2
 421 004a 1031     		adds	r1, r1, #16
 422 004c E0C9     		ldmia	r1!, {r5, r6, r7}
 423 004e E0C0     		stmia	r0!, {r5, r6, r7}
 363:../../../../../../Middlewares/Third_Party/LoRaWAN/Mac/region/RegionEU433.c ****             NvmCtx.Channels[2] = ( ChannelParams_t ) EU433_LC3;
 424              		.loc 1 363 0
 425 0050 1900     		movs	r1, r3
 426 0052 1C31     		adds	r1, r1, #28
 427 0054 E0C9     		ldmia	r1!, {r5, r6, r7}
 428 0056 E0C0     		stmia	r0!, {r5, r6, r7}
 364:../../../../../../Middlewares/Third_Party/LoRaWAN/Mac/region/RegionEU433.c **** 
 429              		.loc 1 364 0
 430 0058 2100     		movs	r1, r4
 431 005a 2833     		adds	r3, r3, #40
 432 005c A839     		subs	r1, r1, #168
 433 005e 61CB     		ldmia	r3!, {r0, r5, r6}
 434 0060 61C1     		stmia	r1!, {r0, r5, r6}
 367:../../../../../../Middlewares/Third_Party/LoRaWAN/Mac/region/RegionEU433.c ****             // Update the channels mask
 435              		.loc 1 367 0
 436 0062 D223     		movs	r3, #210
 437 0064 0721     		movs	r1, #7
 369:../../../../../../Middlewares/Third_Party/LoRaWAN/Mac/region/RegionEU433.c ****             break;
 438              		.loc 1 369 0
 439 0066 2000     		movs	r0, r4
 367:../../../../../../Middlewares/Third_Party/LoRaWAN/Mac/region/RegionEU433.c ****             // Update the channels mask
 440              		.loc 1 367 0
 441 0068 D152     		strh	r1, [r2, r3]
 369:../../../../../../Middlewares/Third_Party/LoRaWAN/Mac/region/RegionEU433.c ****             break;
 442              		.loc 1 369 0
 443 006a 2100     		movs	r1, r4
 444 006c 1030     		adds	r0, r0, #16
 445 006e 1231     		adds	r1, r1, #18
 446 0070 0122     		movs	r2, #1
 447 0072 FFF7FEFF 		bl	RegionCommonChanMaskCopy
 448              	.LVL19:
 370:../../../../../../Middlewares/Third_Party/LoRaWAN/Mac/region/RegionEU433.c ****         }
 449              		.loc 1 370 0
 450 0076 DBE7     		b	.L35
 451              	.LVL20:
 452              	.L37:
 383:../../../../../../Middlewares/Third_Party/LoRaWAN/Mac/region/RegionEU433.c ****             break;
 453              		.loc 1 383 0
 454 0078 D021     		movs	r1, #208
 455 007a D220     		movs	r0, #210
 456              	.LVL21:
 457 007c 024B     		ldr	r3, .L43
 458 007e 5A5A     		ldrh	r2, [r3, r1]
 459 0080 185A     		ldrh	r0, [r3, r0]
 460 0082 0243     		orrs	r2, r0
 461 0084 5A52     		strh	r2, [r3, r1]
 462              		.loc 1 391 0
 463 0086 D3E7     		b	.L35
 464              	.L44:
ARM GAS  C:\Users\EBANO_~1\AppData\Local\Temp\ccpYmjAB.s 			page 17


 465              		.align	2
 466              	.L43:
 467 0088 00000000 		.word	NvmCtx
 468 008c C0000000 		.word	NvmCtx+192
 469 0090 00010000 		.word	.LANCHOR0
 470              		.cfi_endproc
 471              	.LFE46:
 472              		.size	RegionEU433InitDefaults, .-RegionEU433InitDefaults
 473              		.section	.text.RegionEU433GetNvmCtx,"ax",%progbits
 474              		.align	1
 475              		.p2align 2,,3
 476              		.global	RegionEU433GetNvmCtx
 477              		.syntax unified
 478              		.code	16
 479              		.thumb_func
 480              		.fpu softvfp
 481              		.type	RegionEU433GetNvmCtx, %function
 482              	RegionEU433GetNvmCtx:
 483              	.LFB47:
 392:../../../../../../Middlewares/Third_Party/LoRaWAN/Mac/region/RegionEU433.c **** 
 393:../../../../../../Middlewares/Third_Party/LoRaWAN/Mac/region/RegionEU433.c **** void* RegionEU433GetNvmCtx( GetNvmCtxParams_t* params )
 394:../../../../../../Middlewares/Third_Party/LoRaWAN/Mac/region/RegionEU433.c **** {
 484              		.loc 1 394 0
 485              		.cfi_startproc
 486              		@ args = 0, pretend = 0, frame = 0
 487              		@ frame_needed = 0, uses_anonymous_args = 0
 488              		@ link register save eliminated.
 489              	.LVL22:
 395:../../../../../../Middlewares/Third_Party/LoRaWAN/Mac/region/RegionEU433.c ****     params->nvmCtxSize = sizeof( RegionEU433NvmCtx_t );
 490              		.loc 1 395 0
 491 0000 D423     		movs	r3, #212
 396:../../../../../../Middlewares/Third_Party/LoRaWAN/Mac/region/RegionEU433.c ****     return &NvmCtx;
 397:../../../../../../Middlewares/Third_Party/LoRaWAN/Mac/region/RegionEU433.c **** }
 492              		.loc 1 397 0
 493              		@ sp needed
 395:../../../../../../Middlewares/Third_Party/LoRaWAN/Mac/region/RegionEU433.c ****     params->nvmCtxSize = sizeof( RegionEU433NvmCtx_t );
 494              		.loc 1 395 0
 495 0002 0360     		str	r3, [r0]
 496              		.loc 1 397 0
 497 0004 0048     		ldr	r0, .L46
 498              	.LVL23:
 499 0006 7047     		bx	lr
 500              	.L47:
 501              		.align	2
 502              	.L46:
 503 0008 00000000 		.word	NvmCtx
 504              		.cfi_endproc
 505              	.LFE47:
 506              		.size	RegionEU433GetNvmCtx, .-RegionEU433GetNvmCtx
 507              		.section	.text.RegionEU433Verify,"ax",%progbits
 508              		.align	1
 509              		.p2align 2,,3
 510              		.global	RegionEU433Verify
 511              		.syntax unified
 512              		.code	16
 513              		.thumb_func
 514              		.fpu softvfp
ARM GAS  C:\Users\EBANO_~1\AppData\Local\Temp\ccpYmjAB.s 			page 18


 515              		.type	RegionEU433Verify, %function
 516              	RegionEU433Verify:
 517              	.LFB48:
 398:../../../../../../Middlewares/Third_Party/LoRaWAN/Mac/region/RegionEU433.c **** 
 399:../../../../../../Middlewares/Third_Party/LoRaWAN/Mac/region/RegionEU433.c **** bool RegionEU433Verify( VerifyParams_t* verify, PhyAttribute_t phyAttribute )
 400:../../../../../../Middlewares/Third_Party/LoRaWAN/Mac/region/RegionEU433.c **** {
 518              		.loc 1 400 0
 519              		.cfi_startproc
 520              		@ args = 0, pretend = 0, frame = 0
 521              		@ frame_needed = 0, uses_anonymous_args = 0
 522              	.LVL24:
 401:../../../../../../Middlewares/Third_Party/LoRaWAN/Mac/region/RegionEU433.c ****     switch( phyAttribute )
 523              		.loc 1 401 0
 524 0000 0439     		subs	r1, r1, #4
 525              	.LVL25:
 526 0002 C9B2     		uxtb	r1, r1
 400:../../../../../../Middlewares/Third_Party/LoRaWAN/Mac/region/RegionEU433.c ****     switch( phyAttribute )
 527              		.loc 1 400 0
 528 0004 10B5     		push	{r4, lr}
 529              	.LCFI5:
 530              		.cfi_def_cfa_offset 8
 531              		.cfi_offset 4, -8
 532              		.cfi_offset 14, -4
 533              		.loc 1 401 0
 534 0006 0A29     		cmp	r1, #10
 535 0008 19D8     		bhi	.L49
 536 000a 0E4B     		ldr	r3, .L56
 537 000c 8900     		lsls	r1, r1, #2
 538 000e 5B58     		ldr	r3, [r3, r1]
 539 0010 9F46     		mov	pc, r3
 540              		.section	.rodata
 541              		.align	2
 542              	.L51:
 543 00ac 26000000 		.word	.L50
 544 00b0 12000000 		.word	.L53
 545 00b4 26000000 		.word	.L50
 546 00b8 3E000000 		.word	.L49
 547 00bc 12000000 		.word	.L53
 548 00c0 12000000 		.word	.L53
 549 00c4 3E000000 		.word	.L49
 550 00c8 3E000000 		.word	.L49
 551 00cc 3E000000 		.word	.L49
 552 00d0 3E000000 		.word	.L49
 553 00d4 3A000000 		.word	.L55
 554              		.section	.text.RegionEU433Verify
 555              	.L53:
 402:../../../../../../Middlewares/Third_Party/LoRaWAN/Mac/region/RegionEU433.c ****     {
 403:../../../../../../Middlewares/Third_Party/LoRaWAN/Mac/region/RegionEU433.c ****         case PHY_TX_DR:
 404:../../../../../../Middlewares/Third_Party/LoRaWAN/Mac/region/RegionEU433.c ****         {
 405:../../../../../../Middlewares/Third_Party/LoRaWAN/Mac/region/RegionEU433.c ****             return RegionCommonValueInRange( verify->DatarateParams.Datarate, EU433_TX_MIN_DATARATE
 406:../../../../../../Middlewares/Third_Party/LoRaWAN/Mac/region/RegionEU433.c ****         }
 407:../../../../../../Middlewares/Third_Party/LoRaWAN/Mac/region/RegionEU433.c ****         case PHY_DEF_TX_DR:
 408:../../../../../../Middlewares/Third_Party/LoRaWAN/Mac/region/RegionEU433.c ****         {
 409:../../../../../../Middlewares/Third_Party/LoRaWAN/Mac/region/RegionEU433.c ****             return RegionCommonValueInRange( verify->DatarateParams.Datarate, DR_0, DR_5 );
 410:../../../../../../Middlewares/Third_Party/LoRaWAN/Mac/region/RegionEU433.c ****         }
 411:../../../../../../Middlewares/Third_Party/LoRaWAN/Mac/region/RegionEU433.c ****         case PHY_RX_DR:
 412:../../../../../../Middlewares/Third_Party/LoRaWAN/Mac/region/RegionEU433.c ****         {
ARM GAS  C:\Users\EBANO_~1\AppData\Local\Temp\ccpYmjAB.s 			page 19


 413:../../../../../../Middlewares/Third_Party/LoRaWAN/Mac/region/RegionEU433.c ****             return RegionCommonValueInRange( verify->DatarateParams.Datarate, EU433_RX_MIN_DATARATE
 414:../../../../../../Middlewares/Third_Party/LoRaWAN/Mac/region/RegionEU433.c ****         }
 415:../../../../../../Middlewares/Third_Party/LoRaWAN/Mac/region/RegionEU433.c ****         case PHY_DEF_TX_POWER:
 416:../../../../../../Middlewares/Third_Party/LoRaWAN/Mac/region/RegionEU433.c ****         case PHY_TX_POWER:
 417:../../../../../../Middlewares/Third_Party/LoRaWAN/Mac/region/RegionEU433.c ****         {
 418:../../../../../../Middlewares/Third_Party/LoRaWAN/Mac/region/RegionEU433.c ****             // Remark: switched min and max!
 419:../../../../../../Middlewares/Third_Party/LoRaWAN/Mac/region/RegionEU433.c ****             return RegionCommonValueInRange( verify->TxPower, EU433_MAX_TX_POWER, EU433_MIN_TX_POWE
 556              		.loc 1 419 0
 557 0012 0078     		ldrb	r0, [r0]
 558              	.LVL26:
 559 0014 0522     		movs	r2, #5
 560 0016 40B2     		sxtb	r0, r0
 561 0018 0021     		movs	r1, #0
 562 001a FFF7FEFF 		bl	RegionCommonValueInRange
 563              	.LVL27:
 564 001e 431E     		subs	r3, r0, #1
 565 0020 9841     		sbcs	r0, r0, r3
 566 0022 C0B2     		uxtb	r0, r0
 567              	.L54:
 420:../../../../../../Middlewares/Third_Party/LoRaWAN/Mac/region/RegionEU433.c ****         }
 421:../../../../../../Middlewares/Third_Party/LoRaWAN/Mac/region/RegionEU433.c ****         case PHY_DUTY_CYCLE:
 422:../../../../../../Middlewares/Third_Party/LoRaWAN/Mac/region/RegionEU433.c ****         {
 423:../../../../../../Middlewares/Third_Party/LoRaWAN/Mac/region/RegionEU433.c ****             return EU433_DUTY_CYCLE_ENABLED;
 424:../../../../../../Middlewares/Third_Party/LoRaWAN/Mac/region/RegionEU433.c ****         }
 425:../../../../../../Middlewares/Third_Party/LoRaWAN/Mac/region/RegionEU433.c ****         default:
 426:../../../../../../Middlewares/Third_Party/LoRaWAN/Mac/region/RegionEU433.c ****             return false;
 427:../../../../../../Middlewares/Third_Party/LoRaWAN/Mac/region/RegionEU433.c ****     }
 428:../../../../../../Middlewares/Third_Party/LoRaWAN/Mac/region/RegionEU433.c **** }
 568              		.loc 1 428 0
 569              		@ sp needed
 570 0024 10BD     		pop	{r4, pc}
 571              	.LVL28:
 572              	.L50:
 405:../../../../../../Middlewares/Third_Party/LoRaWAN/Mac/region/RegionEU433.c ****         }
 573              		.loc 1 405 0
 574 0026 0078     		ldrb	r0, [r0]
 575              	.LVL29:
 576 0028 0722     		movs	r2, #7
 577 002a 40B2     		sxtb	r0, r0
 578 002c 0021     		movs	r1, #0
 579 002e FFF7FEFF 		bl	RegionCommonValueInRange
 580              	.LVL30:
 581 0032 431E     		subs	r3, r0, #1
 582 0034 9841     		sbcs	r0, r0, r3
 583 0036 C0B2     		uxtb	r0, r0
 584 0038 F4E7     		b	.L54
 585              	.LVL31:
 586              	.L55:
 423:../../../../../../Middlewares/Third_Party/LoRaWAN/Mac/region/RegionEU433.c ****         }
 587              		.loc 1 423 0
 588 003a 0120     		movs	r0, #1
 589              	.LVL32:
 590 003c F2E7     		b	.L54
 591              	.LVL33:
 592              	.L49:
 426:../../../../../../Middlewares/Third_Party/LoRaWAN/Mac/region/RegionEU433.c ****     }
 593              		.loc 1 426 0
ARM GAS  C:\Users\EBANO_~1\AppData\Local\Temp\ccpYmjAB.s 			page 20


 594 003e 0020     		movs	r0, #0
 595              	.LVL34:
 596 0040 F0E7     		b	.L54
 597              	.L57:
 598 0042 C046     		.align	2
 599              	.L56:
 600 0044 AC000000 		.word	.L51
 601              		.cfi_endproc
 602              	.LFE48:
 603              		.size	RegionEU433Verify, .-RegionEU433Verify
 604              		.section	.text.RegionEU433ApplyCFList,"ax",%progbits
 605              		.align	1
 606              		.p2align 2,,3
 607              		.global	RegionEU433ApplyCFList
 608              		.syntax unified
 609              		.code	16
 610              		.thumb_func
 611              		.fpu softvfp
 612              		.type	RegionEU433ApplyCFList, %function
 613              	RegionEU433ApplyCFList:
 614              	.LFB49:
 429:../../../../../../Middlewares/Third_Party/LoRaWAN/Mac/region/RegionEU433.c **** 
 430:../../../../../../Middlewares/Third_Party/LoRaWAN/Mac/region/RegionEU433.c **** void RegionEU433ApplyCFList( ApplyCFListParams_t* applyCFList )
 431:../../../../../../Middlewares/Third_Party/LoRaWAN/Mac/region/RegionEU433.c **** {
 615              		.loc 1 431 0
 616              		.cfi_startproc
 617              		@ args = 0, pretend = 0, frame = 24
 618              		@ frame_needed = 0, uses_anonymous_args = 0
 619              	.LVL35:
 620 0000 F0B5     		push	{r4, r5, r6, r7, lr}
 621              	.LCFI6:
 622              		.cfi_def_cfa_offset 20
 623              		.cfi_offset 4, -20
 624              		.cfi_offset 5, -16
 625              		.cfi_offset 6, -12
 626              		.cfi_offset 7, -8
 627              		.cfi_offset 14, -4
 628 0002 5746     		mov	r7, r10
 629 0004 DE46     		mov	lr, fp
 630 0006 4E46     		mov	r6, r9
 631 0008 4546     		mov	r5, r8
 432:../../../../../../Middlewares/Third_Party/LoRaWAN/Mac/region/RegionEU433.c ****     ChannelParams_t newChannel;
 433:../../../../../../Middlewares/Third_Party/LoRaWAN/Mac/region/RegionEU433.c ****     ChannelAddParams_t channelAdd;
 434:../../../../../../Middlewares/Third_Party/LoRaWAN/Mac/region/RegionEU433.c ****     ChannelRemoveParams_t channelRemove;
 435:../../../../../../Middlewares/Third_Party/LoRaWAN/Mac/region/RegionEU433.c **** 
 436:../../../../../../Middlewares/Third_Party/LoRaWAN/Mac/region/RegionEU433.c ****     // Setup default datarate range
 437:../../../../../../Middlewares/Third_Party/LoRaWAN/Mac/region/RegionEU433.c ****     newChannel.DrRange.Value = ( DR_5 << 4 ) | DR_0;
 632              		.loc 1 437 0
 633 000a 5023     		movs	r3, #80
 431:../../../../../../Middlewares/Third_Party/LoRaWAN/Mac/region/RegionEU433.c ****     ChannelParams_t newChannel;
 634              		.loc 1 431 0
 635 000c E0B5     		push	{r5, r6, r7, lr}
 636              	.LCFI7:
 637              		.cfi_def_cfa_offset 36
 638              		.cfi_offset 8, -36
 639              		.cfi_offset 9, -32
 640              		.cfi_offset 10, -28
ARM GAS  C:\Users\EBANO_~1\AppData\Local\Temp\ccpYmjAB.s 			page 21


 641              		.cfi_offset 11, -24
 642 000e 87B0     		sub	sp, sp, #28
 643              	.LCFI8:
 644              		.cfi_def_cfa_offset 64
 645              		.loc 1 437 0
 646 0010 03AC     		add	r4, sp, #12
 647 0012 2372     		strb	r3, [r4, #8]
 438:../../../../../../Middlewares/Third_Party/LoRaWAN/Mac/region/RegionEU433.c **** 
 439:../../../../../../Middlewares/Third_Party/LoRaWAN/Mac/region/RegionEU433.c ****     // Size of the optional CF list
 440:../../../../../../Middlewares/Third_Party/LoRaWAN/Mac/region/RegionEU433.c ****     if( applyCFList->Size != 16 )
 648              		.loc 1 440 0
 649 0014 0379     		ldrb	r3, [r0, #4]
 431:../../../../../../Middlewares/Third_Party/LoRaWAN/Mac/region/RegionEU433.c ****     ChannelParams_t newChannel;
 650              		.loc 1 431 0
 651 0016 0700     		movs	r7, r0
 652              		.loc 1 440 0
 653 0018 102B     		cmp	r3, #16
 654 001a 06D0     		beq	.L75
 655              	.LVL36:
 656              	.L58:
 441:../../../../../../Middlewares/Third_Party/LoRaWAN/Mac/region/RegionEU433.c ****     {
 442:../../../../../../Middlewares/Third_Party/LoRaWAN/Mac/region/RegionEU433.c ****         return;
 443:../../../../../../Middlewares/Third_Party/LoRaWAN/Mac/region/RegionEU433.c ****     }
 444:../../../../../../Middlewares/Third_Party/LoRaWAN/Mac/region/RegionEU433.c **** 
 445:../../../../../../Middlewares/Third_Party/LoRaWAN/Mac/region/RegionEU433.c ****     // Last byte CFListType must be 0 to indicate the CFList contains a list of frequencies
 446:../../../../../../Middlewares/Third_Party/LoRaWAN/Mac/region/RegionEU433.c ****     if( applyCFList->Payload[15] != 0 )
 447:../../../../../../Middlewares/Third_Party/LoRaWAN/Mac/region/RegionEU433.c ****     {
 448:../../../../../../Middlewares/Third_Party/LoRaWAN/Mac/region/RegionEU433.c ****         return;
 449:../../../../../../Middlewares/Third_Party/LoRaWAN/Mac/region/RegionEU433.c ****     }
 450:../../../../../../Middlewares/Third_Party/LoRaWAN/Mac/region/RegionEU433.c **** 
 451:../../../../../../Middlewares/Third_Party/LoRaWAN/Mac/region/RegionEU433.c ****     // Last byte is RFU, don't take it into account
 452:../../../../../../Middlewares/Third_Party/LoRaWAN/Mac/region/RegionEU433.c ****     for( uint8_t i = 0, chanIdx = EU433_NUMB_DEFAULT_CHANNELS; chanIdx < EU433_MAX_NB_CHANNELS; i+=
 453:../../../../../../Middlewares/Third_Party/LoRaWAN/Mac/region/RegionEU433.c ****     {
 454:../../../../../../Middlewares/Third_Party/LoRaWAN/Mac/region/RegionEU433.c ****         if( chanIdx < ( EU433_NUMB_CHANNELS_CF_LIST + EU433_NUMB_DEFAULT_CHANNELS ) )
 455:../../../../../../Middlewares/Third_Party/LoRaWAN/Mac/region/RegionEU433.c ****         {
 456:../../../../../../Middlewares/Third_Party/LoRaWAN/Mac/region/RegionEU433.c ****             // Channel frequency
 457:../../../../../../Middlewares/Third_Party/LoRaWAN/Mac/region/RegionEU433.c ****             newChannel.Frequency = (uint32_t) applyCFList->Payload[i];
 458:../../../../../../Middlewares/Third_Party/LoRaWAN/Mac/region/RegionEU433.c ****             newChannel.Frequency |= ( (uint32_t) applyCFList->Payload[i + 1] << 8 );
 459:../../../../../../Middlewares/Third_Party/LoRaWAN/Mac/region/RegionEU433.c ****             newChannel.Frequency |= ( (uint32_t) applyCFList->Payload[i + 2] << 16 );
 460:../../../../../../Middlewares/Third_Party/LoRaWAN/Mac/region/RegionEU433.c ****             newChannel.Frequency *= 100;
 461:../../../../../../Middlewares/Third_Party/LoRaWAN/Mac/region/RegionEU433.c **** 
 462:../../../../../../Middlewares/Third_Party/LoRaWAN/Mac/region/RegionEU433.c ****             // Initialize alternative frequency to 0
 463:../../../../../../Middlewares/Third_Party/LoRaWAN/Mac/region/RegionEU433.c ****             newChannel.Rx1Frequency = 0;
 464:../../../../../../Middlewares/Third_Party/LoRaWAN/Mac/region/RegionEU433.c ****         }
 465:../../../../../../Middlewares/Third_Party/LoRaWAN/Mac/region/RegionEU433.c ****         else
 466:../../../../../../Middlewares/Third_Party/LoRaWAN/Mac/region/RegionEU433.c ****         {
 467:../../../../../../Middlewares/Third_Party/LoRaWAN/Mac/region/RegionEU433.c ****             newChannel.Frequency = 0;
 468:../../../../../../Middlewares/Third_Party/LoRaWAN/Mac/region/RegionEU433.c ****             newChannel.DrRange.Value = 0;
 469:../../../../../../Middlewares/Third_Party/LoRaWAN/Mac/region/RegionEU433.c ****             newChannel.Rx1Frequency = 0;
 470:../../../../../../Middlewares/Third_Party/LoRaWAN/Mac/region/RegionEU433.c ****         }
 471:../../../../../../Middlewares/Third_Party/LoRaWAN/Mac/region/RegionEU433.c **** 
 472:../../../../../../Middlewares/Third_Party/LoRaWAN/Mac/region/RegionEU433.c ****         if( newChannel.Frequency != 0 )
 473:../../../../../../Middlewares/Third_Party/LoRaWAN/Mac/region/RegionEU433.c ****         {
 474:../../../../../../Middlewares/Third_Party/LoRaWAN/Mac/region/RegionEU433.c ****             channelAdd.NewChannel = &newChannel;
 475:../../../../../../Middlewares/Third_Party/LoRaWAN/Mac/region/RegionEU433.c ****             channelAdd.ChannelId = chanIdx;
 476:../../../../../../Middlewares/Third_Party/LoRaWAN/Mac/region/RegionEU433.c **** 
 477:../../../../../../Middlewares/Third_Party/LoRaWAN/Mac/region/RegionEU433.c ****             // Try to add all channels
ARM GAS  C:\Users\EBANO_~1\AppData\Local\Temp\ccpYmjAB.s 			page 22


 478:../../../../../../Middlewares/Third_Party/LoRaWAN/Mac/region/RegionEU433.c ****             RegionEU433ChannelAdd( &channelAdd );
 479:../../../../../../Middlewares/Third_Party/LoRaWAN/Mac/region/RegionEU433.c ****         }
 480:../../../../../../Middlewares/Third_Party/LoRaWAN/Mac/region/RegionEU433.c ****         else
 481:../../../../../../Middlewares/Third_Party/LoRaWAN/Mac/region/RegionEU433.c ****         {
 482:../../../../../../Middlewares/Third_Party/LoRaWAN/Mac/region/RegionEU433.c ****             channelRemove.ChannelId = chanIdx;
 483:../../../../../../Middlewares/Third_Party/LoRaWAN/Mac/region/RegionEU433.c **** 
 484:../../../../../../Middlewares/Third_Party/LoRaWAN/Mac/region/RegionEU433.c ****             RegionEU433ChannelsRemove( &channelRemove );
 485:../../../../../../Middlewares/Third_Party/LoRaWAN/Mac/region/RegionEU433.c ****         }
 486:../../../../../../Middlewares/Third_Party/LoRaWAN/Mac/region/RegionEU433.c ****     }
 487:../../../../../../Middlewares/Third_Party/LoRaWAN/Mac/region/RegionEU433.c **** }
 657              		.loc 1 487 0
 658 001c 07B0     		add	sp, sp, #28
 659              		@ sp needed
 660              	.LVL37:
 661 001e 3CBC     		pop	{r2, r3, r4, r5}
 662 0020 9046     		mov	r8, r2
 663 0022 9946     		mov	r9, r3
 664 0024 A246     		mov	r10, r4
 665 0026 AB46     		mov	fp, r5
 666 0028 F0BD     		pop	{r4, r5, r6, r7, pc}
 667              	.LVL38:
 668              	.L75:
 446:../../../../../../Middlewares/Third_Party/LoRaWAN/Mac/region/RegionEU433.c ****     {
 669              		.loc 1 446 0
 670 002a 0368     		ldr	r3, [r0]
 671 002c DB7B     		ldrb	r3, [r3, #15]
 672 002e 002B     		cmp	r3, #0
 673 0030 F4D1     		bne	.L58
 674              	.LBB31:
 675              	.LBB32:
 676              	.LBB33:
 488:../../../../../../Middlewares/Third_Party/LoRaWAN/Mac/region/RegionEU433.c **** 
 489:../../../../../../Middlewares/Third_Party/LoRaWAN/Mac/region/RegionEU433.c **** bool RegionEU433ChanMaskSet( ChanMaskSetParams_t* chanMaskSet )
 490:../../../../../../Middlewares/Third_Party/LoRaWAN/Mac/region/RegionEU433.c **** {
 491:../../../../../../Middlewares/Third_Party/LoRaWAN/Mac/region/RegionEU433.c ****     switch( chanMaskSet->ChannelsMaskType )
 492:../../../../../../Middlewares/Third_Party/LoRaWAN/Mac/region/RegionEU433.c ****     {
 493:../../../../../../Middlewares/Third_Party/LoRaWAN/Mac/region/RegionEU433.c ****         case CHANNELS_MASK:
 494:../../../../../../Middlewares/Third_Party/LoRaWAN/Mac/region/RegionEU433.c ****         {
 495:../../../../../../Middlewares/Third_Party/LoRaWAN/Mac/region/RegionEU433.c ****             RegionCommonChanMaskCopy( NvmCtx.ChannelsMask, chanMaskSet->ChannelsMaskIn, 1 );
 496:../../../../../../Middlewares/Third_Party/LoRaWAN/Mac/region/RegionEU433.c ****             break;
 497:../../../../../../Middlewares/Third_Party/LoRaWAN/Mac/region/RegionEU433.c ****         }
 498:../../../../../../Middlewares/Third_Party/LoRaWAN/Mac/region/RegionEU433.c ****         case CHANNELS_DEFAULT_MASK:
 499:../../../../../../Middlewares/Third_Party/LoRaWAN/Mac/region/RegionEU433.c ****         {
 500:../../../../../../Middlewares/Third_Party/LoRaWAN/Mac/region/RegionEU433.c ****             RegionCommonChanMaskCopy( NvmCtx.ChannelsDefaultMask, chanMaskSet->ChannelsMaskIn, 1 );
 501:../../../../../../Middlewares/Third_Party/LoRaWAN/Mac/region/RegionEU433.c ****             break;
 502:../../../../../../Middlewares/Third_Party/LoRaWAN/Mac/region/RegionEU433.c ****         }
 503:../../../../../../Middlewares/Third_Party/LoRaWAN/Mac/region/RegionEU433.c ****         default:
 504:../../../../../../Middlewares/Third_Party/LoRaWAN/Mac/region/RegionEU433.c ****             return false;
 505:../../../../../../Middlewares/Third_Party/LoRaWAN/Mac/region/RegionEU433.c ****     }
 506:../../../../../../Middlewares/Third_Party/LoRaWAN/Mac/region/RegionEU433.c ****     return true;
 507:../../../../../../Middlewares/Third_Party/LoRaWAN/Mac/region/RegionEU433.c **** }
 508:../../../../../../Middlewares/Third_Party/LoRaWAN/Mac/region/RegionEU433.c **** 
 509:../../../../../../Middlewares/Third_Party/LoRaWAN/Mac/region/RegionEU433.c **** void RegionEU433ComputeRxWindowParameters( int8_t datarate, uint8_t minRxSymbols, uint32_t rxError,
 510:../../../../../../Middlewares/Third_Party/LoRaWAN/Mac/region/RegionEU433.c **** {
 511:../../../../../../Middlewares/Third_Party/LoRaWAN/Mac/region/RegionEU433.c ****     double tSymbol = 0.0;
 512:../../../../../../Middlewares/Third_Party/LoRaWAN/Mac/region/RegionEU433.c **** 
 513:../../../../../../Middlewares/Third_Party/LoRaWAN/Mac/region/RegionEU433.c ****     // Get the datarate, perform a boundary check
ARM GAS  C:\Users\EBANO_~1\AppData\Local\Temp\ccpYmjAB.s 			page 23


 514:../../../../../../Middlewares/Third_Party/LoRaWAN/Mac/region/RegionEU433.c ****     rxConfigParams->Datarate = MIN( datarate, EU433_RX_MAX_DATARATE );
 515:../../../../../../Middlewares/Third_Party/LoRaWAN/Mac/region/RegionEU433.c ****     rxConfigParams->Bandwidth = GetBandwidth( rxConfigParams->Datarate );
 516:../../../../../../Middlewares/Third_Party/LoRaWAN/Mac/region/RegionEU433.c **** 
 517:../../../../../../Middlewares/Third_Party/LoRaWAN/Mac/region/RegionEU433.c ****     if( rxConfigParams->Datarate == DR_7 )
 518:../../../../../../Middlewares/Third_Party/LoRaWAN/Mac/region/RegionEU433.c ****     { // FSK
 519:../../../../../../Middlewares/Third_Party/LoRaWAN/Mac/region/RegionEU433.c ****         tSymbol = RegionCommonComputeSymbolTimeFsk( DataratesEU433[rxConfigParams->Datarate] );
 520:../../../../../../Middlewares/Third_Party/LoRaWAN/Mac/region/RegionEU433.c ****     }
 521:../../../../../../Middlewares/Third_Party/LoRaWAN/Mac/region/RegionEU433.c ****     else
 522:../../../../../../Middlewares/Third_Party/LoRaWAN/Mac/region/RegionEU433.c ****     { // LoRa
 523:../../../../../../Middlewares/Third_Party/LoRaWAN/Mac/region/RegionEU433.c ****         tSymbol = RegionCommonComputeSymbolTimeLoRa( DataratesEU433[rxConfigParams->Datarate], Band
 524:../../../../../../Middlewares/Third_Party/LoRaWAN/Mac/region/RegionEU433.c ****     }
 525:../../../../../../Middlewares/Third_Party/LoRaWAN/Mac/region/RegionEU433.c **** 
 526:../../../../../../Middlewares/Third_Party/LoRaWAN/Mac/region/RegionEU433.c ****     RegionCommonComputeRxWindowParameters( tSymbol, minRxSymbols, rxError, Radio.GetWakeupTime( ), 
 527:../../../../../../Middlewares/Third_Party/LoRaWAN/Mac/region/RegionEU433.c **** }
 528:../../../../../../Middlewares/Third_Party/LoRaWAN/Mac/region/RegionEU433.c **** 
 529:../../../../../../Middlewares/Third_Party/LoRaWAN/Mac/region/RegionEU433.c **** bool RegionEU433RxConfig( RxConfigParams_t* rxConfig, int8_t* datarate )
 530:../../../../../../Middlewares/Third_Party/LoRaWAN/Mac/region/RegionEU433.c **** {
 531:../../../../../../Middlewares/Third_Party/LoRaWAN/Mac/region/RegionEU433.c ****     RadioModems_t modem;
 532:../../../../../../Middlewares/Third_Party/LoRaWAN/Mac/region/RegionEU433.c ****     int8_t dr = rxConfig->Datarate;
 533:../../../../../../Middlewares/Third_Party/LoRaWAN/Mac/region/RegionEU433.c ****     uint8_t maxPayload = 0;
 534:../../../../../../Middlewares/Third_Party/LoRaWAN/Mac/region/RegionEU433.c ****     int8_t phyDr = 0;
 535:../../../../../../Middlewares/Third_Party/LoRaWAN/Mac/region/RegionEU433.c ****     uint32_t frequency = rxConfig->Frequency;
 536:../../../../../../Middlewares/Third_Party/LoRaWAN/Mac/region/RegionEU433.c **** 
 537:../../../../../../Middlewares/Third_Party/LoRaWAN/Mac/region/RegionEU433.c ****     if( Radio.GetStatus( ) != RF_IDLE )
 538:../../../../../../Middlewares/Third_Party/LoRaWAN/Mac/region/RegionEU433.c ****     {
 539:../../../../../../Middlewares/Third_Party/LoRaWAN/Mac/region/RegionEU433.c ****         return false;
 540:../../../../../../Middlewares/Third_Party/LoRaWAN/Mac/region/RegionEU433.c ****     }
 541:../../../../../../Middlewares/Third_Party/LoRaWAN/Mac/region/RegionEU433.c **** 
 542:../../../../../../Middlewares/Third_Party/LoRaWAN/Mac/region/RegionEU433.c ****     if( rxConfig->RxSlot == RX_SLOT_WIN_1 )
 543:../../../../../../Middlewares/Third_Party/LoRaWAN/Mac/region/RegionEU433.c ****     {
 544:../../../../../../Middlewares/Third_Party/LoRaWAN/Mac/region/RegionEU433.c ****         // Apply window 1 frequency
 545:../../../../../../Middlewares/Third_Party/LoRaWAN/Mac/region/RegionEU433.c ****         frequency = NvmCtx.Channels[rxConfig->Channel].Frequency;
 546:../../../../../../Middlewares/Third_Party/LoRaWAN/Mac/region/RegionEU433.c ****         // Apply the alternative RX 1 window frequency, if it is available
 547:../../../../../../Middlewares/Third_Party/LoRaWAN/Mac/region/RegionEU433.c ****         if( NvmCtx.Channels[rxConfig->Channel].Rx1Frequency != 0 )
 548:../../../../../../Middlewares/Third_Party/LoRaWAN/Mac/region/RegionEU433.c ****         {
 549:../../../../../../Middlewares/Third_Party/LoRaWAN/Mac/region/RegionEU433.c ****             frequency = NvmCtx.Channels[rxConfig->Channel].Rx1Frequency;
 550:../../../../../../Middlewares/Third_Party/LoRaWAN/Mac/region/RegionEU433.c ****         }
 551:../../../../../../Middlewares/Third_Party/LoRaWAN/Mac/region/RegionEU433.c ****     }
 552:../../../../../../Middlewares/Third_Party/LoRaWAN/Mac/region/RegionEU433.c **** 
 553:../../../../../../Middlewares/Third_Party/LoRaWAN/Mac/region/RegionEU433.c ****     // Read the physical datarate from the datarates table
 554:../../../../../../Middlewares/Third_Party/LoRaWAN/Mac/region/RegionEU433.c ****     phyDr = DataratesEU433[dr];
 555:../../../../../../Middlewares/Third_Party/LoRaWAN/Mac/region/RegionEU433.c **** 
 556:../../../../../../Middlewares/Third_Party/LoRaWAN/Mac/region/RegionEU433.c ****     Radio.SetChannel( frequency );
 557:../../../../../../Middlewares/Third_Party/LoRaWAN/Mac/region/RegionEU433.c **** 
 558:../../../../../../Middlewares/Third_Party/LoRaWAN/Mac/region/RegionEU433.c ****     // Radio configuration
 559:../../../../../../Middlewares/Third_Party/LoRaWAN/Mac/region/RegionEU433.c ****     if( dr == DR_7 )
 560:../../../../../../Middlewares/Third_Party/LoRaWAN/Mac/region/RegionEU433.c ****     {
 561:../../../../../../Middlewares/Third_Party/LoRaWAN/Mac/region/RegionEU433.c ****         modem = MODEM_FSK;
 562:../../../../../../Middlewares/Third_Party/LoRaWAN/Mac/region/RegionEU433.c ****         Radio.SetRxConfig( modem, 50000, phyDr * 1000, 0, 83333, 5, rxConfig->WindowTimeout, false,
 563:../../../../../../Middlewares/Third_Party/LoRaWAN/Mac/region/RegionEU433.c ****     }
 564:../../../../../../Middlewares/Third_Party/LoRaWAN/Mac/region/RegionEU433.c ****     else
 565:../../../../../../Middlewares/Third_Party/LoRaWAN/Mac/region/RegionEU433.c ****     {
 566:../../../../../../Middlewares/Third_Party/LoRaWAN/Mac/region/RegionEU433.c ****         modem = MODEM_LORA;
 567:../../../../../../Middlewares/Third_Party/LoRaWAN/Mac/region/RegionEU433.c ****         Radio.SetRxConfig( modem, rxConfig->Bandwidth, phyDr, 1, 0, 8, rxConfig->WindowTimeout, fal
 568:../../../../../../Middlewares/Third_Party/LoRaWAN/Mac/region/RegionEU433.c ****     }
 569:../../../../../../Middlewares/Third_Party/LoRaWAN/Mac/region/RegionEU433.c **** 
 570:../../../../../../Middlewares/Third_Party/LoRaWAN/Mac/region/RegionEU433.c ****     if( rxConfig->RepeaterSupport == true )
ARM GAS  C:\Users\EBANO_~1\AppData\Local\Temp\ccpYmjAB.s 			page 24


 571:../../../../../../Middlewares/Third_Party/LoRaWAN/Mac/region/RegionEU433.c ****     {
 572:../../../../../../Middlewares/Third_Party/LoRaWAN/Mac/region/RegionEU433.c ****         maxPayload = MaxPayloadOfDatarateRepeaterEU433[dr];
 573:../../../../../../Middlewares/Third_Party/LoRaWAN/Mac/region/RegionEU433.c ****     }
 574:../../../../../../Middlewares/Third_Party/LoRaWAN/Mac/region/RegionEU433.c ****     else
 575:../../../../../../Middlewares/Third_Party/LoRaWAN/Mac/region/RegionEU433.c ****     {
 576:../../../../../../Middlewares/Third_Party/LoRaWAN/Mac/region/RegionEU433.c ****         maxPayload = MaxPayloadOfDatarateEU433[dr];
 577:../../../../../../Middlewares/Third_Party/LoRaWAN/Mac/region/RegionEU433.c ****     }
 578:../../../../../../Middlewares/Third_Party/LoRaWAN/Mac/region/RegionEU433.c ****     Radio.SetMaxPayloadLength( modem, maxPayload + LORA_MAC_FRMPAYLOAD_OVERHEAD );
 579:../../../../../../Middlewares/Third_Party/LoRaWAN/Mac/region/RegionEU433.c ****     TVL1( PRINTF( "RX on freq %d Hz at DR %d\n\r", frequency, dr );)
 580:../../../../../../Middlewares/Third_Party/LoRaWAN/Mac/region/RegionEU433.c **** 
 581:../../../../../../Middlewares/Third_Party/LoRaWAN/Mac/region/RegionEU433.c ****     *datarate = (uint8_t) dr;
 582:../../../../../../Middlewares/Third_Party/LoRaWAN/Mac/region/RegionEU433.c ****     return true;
 583:../../../../../../Middlewares/Third_Party/LoRaWAN/Mac/region/RegionEU433.c **** }
 584:../../../../../../Middlewares/Third_Party/LoRaWAN/Mac/region/RegionEU433.c **** 
 585:../../../../../../Middlewares/Third_Party/LoRaWAN/Mac/region/RegionEU433.c **** bool RegionEU433TxConfig( TxConfigParams_t* txConfig, int8_t* txPower, TimerTime_t* txTimeOnAir )
 586:../../../../../../Middlewares/Third_Party/LoRaWAN/Mac/region/RegionEU433.c **** {
 587:../../../../../../Middlewares/Third_Party/LoRaWAN/Mac/region/RegionEU433.c ****     RadioModems_t modem;
 588:../../../../../../Middlewares/Third_Party/LoRaWAN/Mac/region/RegionEU433.c ****     int8_t phyDr = DataratesEU433[txConfig->Datarate];
 589:../../../../../../Middlewares/Third_Party/LoRaWAN/Mac/region/RegionEU433.c ****     int8_t txPowerLimited = LimitTxPower( txConfig->TxPower, NvmCtx.Bands[NvmCtx.Channels[txConfig-
 590:../../../../../../Middlewares/Third_Party/LoRaWAN/Mac/region/RegionEU433.c ****     uint32_t bandwidth = GetBandwidth( txConfig->Datarate );
 591:../../../../../../Middlewares/Third_Party/LoRaWAN/Mac/region/RegionEU433.c ****     int8_t phyTxPower = 0;
 592:../../../../../../Middlewares/Third_Party/LoRaWAN/Mac/region/RegionEU433.c **** 
 593:../../../../../../Middlewares/Third_Party/LoRaWAN/Mac/region/RegionEU433.c ****     // Calculate physical TX power
 594:../../../../../../Middlewares/Third_Party/LoRaWAN/Mac/region/RegionEU433.c ****     phyTxPower = RegionCommonComputeTxPower( txPowerLimited, txConfig->MaxEirp, txConfig->AntennaGa
 595:../../../../../../Middlewares/Third_Party/LoRaWAN/Mac/region/RegionEU433.c **** 
 596:../../../../../../Middlewares/Third_Party/LoRaWAN/Mac/region/RegionEU433.c ****     // Setup the radio frequency
 597:../../../../../../Middlewares/Third_Party/LoRaWAN/Mac/region/RegionEU433.c ****     Radio.SetChannel( NvmCtx.Channels[txConfig->Channel].Frequency );
 598:../../../../../../Middlewares/Third_Party/LoRaWAN/Mac/region/RegionEU433.c **** 
 599:../../../../../../Middlewares/Third_Party/LoRaWAN/Mac/region/RegionEU433.c ****     if( txConfig->Datarate == DR_7 )
 600:../../../../../../Middlewares/Third_Party/LoRaWAN/Mac/region/RegionEU433.c ****     { // High Speed FSK channel
 601:../../../../../../Middlewares/Third_Party/LoRaWAN/Mac/region/RegionEU433.c ****         modem = MODEM_FSK;
 602:../../../../../../Middlewares/Third_Party/LoRaWAN/Mac/region/RegionEU433.c ****         Radio.SetTxConfig( modem, phyTxPower, 25000, bandwidth, phyDr * 1000, 0, 5, false, true, 0,
 603:../../../../../../Middlewares/Third_Party/LoRaWAN/Mac/region/RegionEU433.c ****     }
 604:../../../../../../Middlewares/Third_Party/LoRaWAN/Mac/region/RegionEU433.c ****     else
 605:../../../../../../Middlewares/Third_Party/LoRaWAN/Mac/region/RegionEU433.c ****     {
 606:../../../../../../Middlewares/Third_Party/LoRaWAN/Mac/region/RegionEU433.c ****         modem = MODEM_LORA;
 607:../../../../../../Middlewares/Third_Party/LoRaWAN/Mac/region/RegionEU433.c ****         Radio.SetTxConfig( modem, phyTxPower, 0, bandwidth, phyDr, 1, 8, false, true, 0, 0, false, 
 608:../../../../../../Middlewares/Third_Party/LoRaWAN/Mac/region/RegionEU433.c ****     }
 609:../../../../../../Middlewares/Third_Party/LoRaWAN/Mac/region/RegionEU433.c ****     TVL1( PRINTF( "TX on freq %d Hz at DR %d\n\r", NvmCtx.Channels[txConfig->Channel].Frequency, tx
 610:../../../../../../Middlewares/Third_Party/LoRaWAN/Mac/region/RegionEU433.c **** 
 611:../../../../../../Middlewares/Third_Party/LoRaWAN/Mac/region/RegionEU433.c ****     // Setup maximum payload lenght of the radio driver
 612:../../../../../../Middlewares/Third_Party/LoRaWAN/Mac/region/RegionEU433.c ****     Radio.SetMaxPayloadLength( modem, txConfig->PktLen );
 613:../../../../../../Middlewares/Third_Party/LoRaWAN/Mac/region/RegionEU433.c ****     // Get the time-on-air of the next tx frame
 614:../../../../../../Middlewares/Third_Party/LoRaWAN/Mac/region/RegionEU433.c ****     *txTimeOnAir = Radio.TimeOnAir( modem, txConfig->PktLen );
 615:../../../../../../Middlewares/Third_Party/LoRaWAN/Mac/region/RegionEU433.c **** 
 616:../../../../../../Middlewares/Third_Party/LoRaWAN/Mac/region/RegionEU433.c ****     *txPower = txPowerLimited;
 617:../../../../../../Middlewares/Third_Party/LoRaWAN/Mac/region/RegionEU433.c ****     return true;
 618:../../../../../../Middlewares/Third_Party/LoRaWAN/Mac/region/RegionEU433.c **** }
 619:../../../../../../Middlewares/Third_Party/LoRaWAN/Mac/region/RegionEU433.c **** 
 620:../../../../../../Middlewares/Third_Party/LoRaWAN/Mac/region/RegionEU433.c **** uint8_t RegionEU433LinkAdrReq( LinkAdrReqParams_t* linkAdrReq, int8_t* drOut, int8_t* txPowOut, uin
 621:../../../../../../Middlewares/Third_Party/LoRaWAN/Mac/region/RegionEU433.c **** {
 622:../../../../../../Middlewares/Third_Party/LoRaWAN/Mac/region/RegionEU433.c ****     uint8_t status = 0x07;
 623:../../../../../../Middlewares/Third_Party/LoRaWAN/Mac/region/RegionEU433.c ****     RegionCommonLinkAdrParams_t linkAdrParams;
 624:../../../../../../Middlewares/Third_Party/LoRaWAN/Mac/region/RegionEU433.c ****     uint8_t nextIndex = 0;
 625:../../../../../../Middlewares/Third_Party/LoRaWAN/Mac/region/RegionEU433.c ****     uint8_t bytesProcessed = 0;
 626:../../../../../../Middlewares/Third_Party/LoRaWAN/Mac/region/RegionEU433.c ****     uint16_t chMask = 0;
 627:../../../../../../Middlewares/Third_Party/LoRaWAN/Mac/region/RegionEU433.c ****     GetPhyParams_t getPhy;
ARM GAS  C:\Users\EBANO_~1\AppData\Local\Temp\ccpYmjAB.s 			page 25


 628:../../../../../../Middlewares/Third_Party/LoRaWAN/Mac/region/RegionEU433.c ****     PhyParam_t phyParam;
 629:../../../../../../Middlewares/Third_Party/LoRaWAN/Mac/region/RegionEU433.c ****     RegionCommonLinkAdrReqVerifyParams_t linkAdrVerifyParams;
 630:../../../../../../Middlewares/Third_Party/LoRaWAN/Mac/region/RegionEU433.c **** 
 631:../../../../../../Middlewares/Third_Party/LoRaWAN/Mac/region/RegionEU433.c ****     while( bytesProcessed < linkAdrReq->PayloadSize )
 632:../../../../../../Middlewares/Third_Party/LoRaWAN/Mac/region/RegionEU433.c ****     {
 633:../../../../../../Middlewares/Third_Party/LoRaWAN/Mac/region/RegionEU433.c ****         // Get ADR request parameters
 634:../../../../../../Middlewares/Third_Party/LoRaWAN/Mac/region/RegionEU433.c ****         nextIndex = RegionCommonParseLinkAdrReq( &( linkAdrReq->Payload[bytesProcessed] ), &linkAdr
 635:../../../../../../Middlewares/Third_Party/LoRaWAN/Mac/region/RegionEU433.c **** 
 636:../../../../../../Middlewares/Third_Party/LoRaWAN/Mac/region/RegionEU433.c ****         if( nextIndex == 0 )
 637:../../../../../../Middlewares/Third_Party/LoRaWAN/Mac/region/RegionEU433.c ****             break; // break loop, since no more request has been found
 638:../../../../../../Middlewares/Third_Party/LoRaWAN/Mac/region/RegionEU433.c **** 
 639:../../../../../../Middlewares/Third_Party/LoRaWAN/Mac/region/RegionEU433.c ****         // Update bytes processed
 640:../../../../../../Middlewares/Third_Party/LoRaWAN/Mac/region/RegionEU433.c ****         bytesProcessed += nextIndex;
 641:../../../../../../Middlewares/Third_Party/LoRaWAN/Mac/region/RegionEU433.c **** 
 642:../../../../../../Middlewares/Third_Party/LoRaWAN/Mac/region/RegionEU433.c ****         // Revert status, as we only check the last ADR request for the channel mask KO
 643:../../../../../../Middlewares/Third_Party/LoRaWAN/Mac/region/RegionEU433.c ****         status = 0x07;
 644:../../../../../../Middlewares/Third_Party/LoRaWAN/Mac/region/RegionEU433.c **** 
 645:../../../../../../Middlewares/Third_Party/LoRaWAN/Mac/region/RegionEU433.c ****         // Setup temporary channels mask
 646:../../../../../../Middlewares/Third_Party/LoRaWAN/Mac/region/RegionEU433.c ****         chMask = linkAdrParams.ChMask;
 647:../../../../../../Middlewares/Third_Party/LoRaWAN/Mac/region/RegionEU433.c **** 
 648:../../../../../../Middlewares/Third_Party/LoRaWAN/Mac/region/RegionEU433.c ****         // Verify channels mask
 649:../../../../../../Middlewares/Third_Party/LoRaWAN/Mac/region/RegionEU433.c ****         if( ( linkAdrParams.ChMaskCtrl == 0 ) && ( chMask == 0 ) )
 650:../../../../../../Middlewares/Third_Party/LoRaWAN/Mac/region/RegionEU433.c ****         {
 651:../../../../../../Middlewares/Third_Party/LoRaWAN/Mac/region/RegionEU433.c ****             status &= 0xFE; // Channel mask KO
 652:../../../../../../Middlewares/Third_Party/LoRaWAN/Mac/region/RegionEU433.c ****         }
 653:../../../../../../Middlewares/Third_Party/LoRaWAN/Mac/region/RegionEU433.c ****         else if( ( ( linkAdrParams.ChMaskCtrl >= 1 ) && ( linkAdrParams.ChMaskCtrl <= 5 )) ||
 654:../../../../../../Middlewares/Third_Party/LoRaWAN/Mac/region/RegionEU433.c ****                 ( linkAdrParams.ChMaskCtrl >= 7 ) )
 655:../../../../../../Middlewares/Third_Party/LoRaWAN/Mac/region/RegionEU433.c ****         {
 656:../../../../../../Middlewares/Third_Party/LoRaWAN/Mac/region/RegionEU433.c ****             // RFU
 657:../../../../../../Middlewares/Third_Party/LoRaWAN/Mac/region/RegionEU433.c ****             status &= 0xFE; // Channel mask KO
 658:../../../../../../Middlewares/Third_Party/LoRaWAN/Mac/region/RegionEU433.c ****         }
 659:../../../../../../Middlewares/Third_Party/LoRaWAN/Mac/region/RegionEU433.c ****         else
 660:../../../../../../Middlewares/Third_Party/LoRaWAN/Mac/region/RegionEU433.c ****         {
 661:../../../../../../Middlewares/Third_Party/LoRaWAN/Mac/region/RegionEU433.c ****             for( uint8_t i = 0; i < EU433_MAX_NB_CHANNELS; i++ )
 662:../../../../../../Middlewares/Third_Party/LoRaWAN/Mac/region/RegionEU433.c ****             {
 663:../../../../../../Middlewares/Third_Party/LoRaWAN/Mac/region/RegionEU433.c ****                 if( linkAdrParams.ChMaskCtrl == 6 )
 664:../../../../../../Middlewares/Third_Party/LoRaWAN/Mac/region/RegionEU433.c ****                 {
 665:../../../../../../Middlewares/Third_Party/LoRaWAN/Mac/region/RegionEU433.c ****                     if( NvmCtx.Channels[i].Frequency != 0 )
 666:../../../../../../Middlewares/Third_Party/LoRaWAN/Mac/region/RegionEU433.c ****                     {
 667:../../../../../../Middlewares/Third_Party/LoRaWAN/Mac/region/RegionEU433.c ****                         chMask |= 1 << i;
 668:../../../../../../Middlewares/Third_Party/LoRaWAN/Mac/region/RegionEU433.c ****                     }
 669:../../../../../../Middlewares/Third_Party/LoRaWAN/Mac/region/RegionEU433.c ****                 }
 670:../../../../../../Middlewares/Third_Party/LoRaWAN/Mac/region/RegionEU433.c ****                 else
 671:../../../../../../Middlewares/Third_Party/LoRaWAN/Mac/region/RegionEU433.c ****                 {
 672:../../../../../../Middlewares/Third_Party/LoRaWAN/Mac/region/RegionEU433.c ****                     if( ( ( chMask & ( 1 << i ) ) != 0 ) &&
 673:../../../../../../Middlewares/Third_Party/LoRaWAN/Mac/region/RegionEU433.c ****                         ( NvmCtx.Channels[i].Frequency == 0 ) )
 674:../../../../../../Middlewares/Third_Party/LoRaWAN/Mac/region/RegionEU433.c ****                     {// Trying to enable an undefined channel
 675:../../../../../../Middlewares/Third_Party/LoRaWAN/Mac/region/RegionEU433.c ****                         status &= 0xFE; // Channel mask KO
 676:../../../../../../Middlewares/Third_Party/LoRaWAN/Mac/region/RegionEU433.c ****                     }
 677:../../../../../../Middlewares/Third_Party/LoRaWAN/Mac/region/RegionEU433.c ****                 }
 678:../../../../../../Middlewares/Third_Party/LoRaWAN/Mac/region/RegionEU433.c ****             }
 679:../../../../../../Middlewares/Third_Party/LoRaWAN/Mac/region/RegionEU433.c ****         }
 680:../../../../../../Middlewares/Third_Party/LoRaWAN/Mac/region/RegionEU433.c ****     }
 681:../../../../../../Middlewares/Third_Party/LoRaWAN/Mac/region/RegionEU433.c **** 
 682:../../../../../../Middlewares/Third_Party/LoRaWAN/Mac/region/RegionEU433.c ****         // Get the minimum possible datarate
 683:../../../../../../Middlewares/Third_Party/LoRaWAN/Mac/region/RegionEU433.c ****     getPhy.Attribute = PHY_MIN_TX_DR;
 684:../../../../../../Middlewares/Third_Party/LoRaWAN/Mac/region/RegionEU433.c ****     getPhy.UplinkDwellTime = linkAdrReq->UplinkDwellTime;
ARM GAS  C:\Users\EBANO_~1\AppData\Local\Temp\ccpYmjAB.s 			page 26


 685:../../../../../../Middlewares/Third_Party/LoRaWAN/Mac/region/RegionEU433.c ****     phyParam = RegionEU433GetPhyParam( &getPhy );
 686:../../../../../../Middlewares/Third_Party/LoRaWAN/Mac/region/RegionEU433.c **** 
 687:../../../../../../Middlewares/Third_Party/LoRaWAN/Mac/region/RegionEU433.c ****     linkAdrVerifyParams.Status = status;
 688:../../../../../../Middlewares/Third_Party/LoRaWAN/Mac/region/RegionEU433.c ****     linkAdrVerifyParams.AdrEnabled = linkAdrReq->AdrEnabled;
 689:../../../../../../Middlewares/Third_Party/LoRaWAN/Mac/region/RegionEU433.c ****     linkAdrVerifyParams.Datarate = linkAdrParams.Datarate;
 690:../../../../../../Middlewares/Third_Party/LoRaWAN/Mac/region/RegionEU433.c ****     linkAdrVerifyParams.TxPower = linkAdrParams.TxPower;
 691:../../../../../../Middlewares/Third_Party/LoRaWAN/Mac/region/RegionEU433.c ****     linkAdrVerifyParams.NbRep = linkAdrParams.NbRep;
 692:../../../../../../Middlewares/Third_Party/LoRaWAN/Mac/region/RegionEU433.c ****     linkAdrVerifyParams.CurrentDatarate = linkAdrReq->CurrentDatarate;
 693:../../../../../../Middlewares/Third_Party/LoRaWAN/Mac/region/RegionEU433.c ****     linkAdrVerifyParams.CurrentTxPower = linkAdrReq->CurrentTxPower;
 694:../../../../../../Middlewares/Third_Party/LoRaWAN/Mac/region/RegionEU433.c ****     linkAdrVerifyParams.CurrentNbRep = linkAdrReq->CurrentNbRep;
 695:../../../../../../Middlewares/Third_Party/LoRaWAN/Mac/region/RegionEU433.c ****     linkAdrVerifyParams.NbChannels = EU433_MAX_NB_CHANNELS;
 696:../../../../../../Middlewares/Third_Party/LoRaWAN/Mac/region/RegionEU433.c ****     linkAdrVerifyParams.ChannelsMask = &chMask;
 697:../../../../../../Middlewares/Third_Party/LoRaWAN/Mac/region/RegionEU433.c ****     linkAdrVerifyParams.MinDatarate = ( int8_t )phyParam.Value;
 698:../../../../../../Middlewares/Third_Party/LoRaWAN/Mac/region/RegionEU433.c ****     linkAdrVerifyParams.MaxDatarate = EU433_TX_MAX_DATARATE;
 699:../../../../../../Middlewares/Third_Party/LoRaWAN/Mac/region/RegionEU433.c ****     linkAdrVerifyParams.Channels = NvmCtx.Channels;
 700:../../../../../../Middlewares/Third_Party/LoRaWAN/Mac/region/RegionEU433.c ****     linkAdrVerifyParams.MinTxPower = EU433_MIN_TX_POWER;
 701:../../../../../../Middlewares/Third_Party/LoRaWAN/Mac/region/RegionEU433.c ****     linkAdrVerifyParams.MaxTxPower = EU433_MAX_TX_POWER;
 702:../../../../../../Middlewares/Third_Party/LoRaWAN/Mac/region/RegionEU433.c ****     linkAdrVerifyParams.Version = linkAdrReq->Version;
 703:../../../../../../Middlewares/Third_Party/LoRaWAN/Mac/region/RegionEU433.c **** 
 704:../../../../../../Middlewares/Third_Party/LoRaWAN/Mac/region/RegionEU433.c ****     // Verify the parameters and update, if necessary
 705:../../../../../../Middlewares/Third_Party/LoRaWAN/Mac/region/RegionEU433.c ****     status = RegionCommonLinkAdrReqVerifyParams( &linkAdrVerifyParams, &linkAdrParams.Datarate, &li
 706:../../../../../../Middlewares/Third_Party/LoRaWAN/Mac/region/RegionEU433.c **** 
 707:../../../../../../Middlewares/Third_Party/LoRaWAN/Mac/region/RegionEU433.c ****     // Update channelsMask if everything is correct
 708:../../../../../../Middlewares/Third_Party/LoRaWAN/Mac/region/RegionEU433.c ****     if( status == 0x07 )
 709:../../../../../../Middlewares/Third_Party/LoRaWAN/Mac/region/RegionEU433.c ****     {
 710:../../../../../../Middlewares/Third_Party/LoRaWAN/Mac/region/RegionEU433.c ****         // Set the channels mask to a default value
 711:../../../../../../Middlewares/Third_Party/LoRaWAN/Mac/region/RegionEU433.c ****         memset1( ( uint8_t* ) NvmCtx.ChannelsMask, 0, sizeof( NvmCtx.ChannelsMask ) );
 712:../../../../../../Middlewares/Third_Party/LoRaWAN/Mac/region/RegionEU433.c ****         // Update the channels mask
 713:../../../../../../Middlewares/Third_Party/LoRaWAN/Mac/region/RegionEU433.c ****         NvmCtx.ChannelsMask[0] = chMask;
 714:../../../../../../Middlewares/Third_Party/LoRaWAN/Mac/region/RegionEU433.c ****     }
 715:../../../../../../Middlewares/Third_Party/LoRaWAN/Mac/region/RegionEU433.c **** 
 716:../../../../../../Middlewares/Third_Party/LoRaWAN/Mac/region/RegionEU433.c ****     // Update status variables
 717:../../../../../../Middlewares/Third_Party/LoRaWAN/Mac/region/RegionEU433.c ****     *drOut = linkAdrParams.Datarate;
 718:../../../../../../Middlewares/Third_Party/LoRaWAN/Mac/region/RegionEU433.c ****     *txPowOut = linkAdrParams.TxPower;
 719:../../../../../../Middlewares/Third_Party/LoRaWAN/Mac/region/RegionEU433.c ****     *nbRepOut = linkAdrParams.NbRep;
 720:../../../../../../Middlewares/Third_Party/LoRaWAN/Mac/region/RegionEU433.c ****     *nbBytesParsed = bytesProcessed;
 721:../../../../../../Middlewares/Third_Party/LoRaWAN/Mac/region/RegionEU433.c **** 
 722:../../../../../../Middlewares/Third_Party/LoRaWAN/Mac/region/RegionEU433.c ****     return status;
 723:../../../../../../Middlewares/Third_Party/LoRaWAN/Mac/region/RegionEU433.c **** }
 724:../../../../../../Middlewares/Third_Party/LoRaWAN/Mac/region/RegionEU433.c **** 
 725:../../../../../../Middlewares/Third_Party/LoRaWAN/Mac/region/RegionEU433.c **** uint8_t RegionEU433RxParamSetupReq( RxParamSetupReqParams_t* rxParamSetupReq )
 726:../../../../../../Middlewares/Third_Party/LoRaWAN/Mac/region/RegionEU433.c **** {
 727:../../../../../../Middlewares/Third_Party/LoRaWAN/Mac/region/RegionEU433.c ****     uint8_t status = 0x07;
 728:../../../../../../Middlewares/Third_Party/LoRaWAN/Mac/region/RegionEU433.c **** 
 729:../../../../../../Middlewares/Third_Party/LoRaWAN/Mac/region/RegionEU433.c ****     // Verify radio frequency
 730:../../../../../../Middlewares/Third_Party/LoRaWAN/Mac/region/RegionEU433.c ****     if( VerifyRfFreq( rxParamSetupReq->Frequency ) == false )
 731:../../../../../../Middlewares/Third_Party/LoRaWAN/Mac/region/RegionEU433.c ****     {
 732:../../../../../../Middlewares/Third_Party/LoRaWAN/Mac/region/RegionEU433.c ****         status &= 0xFE; // Channel frequency KO
 733:../../../../../../Middlewares/Third_Party/LoRaWAN/Mac/region/RegionEU433.c ****     }
 734:../../../../../../Middlewares/Third_Party/LoRaWAN/Mac/region/RegionEU433.c **** 
 735:../../../../../../Middlewares/Third_Party/LoRaWAN/Mac/region/RegionEU433.c ****     // Verify datarate
 736:../../../../../../Middlewares/Third_Party/LoRaWAN/Mac/region/RegionEU433.c ****     if( RegionCommonValueInRange( rxParamSetupReq->Datarate, EU433_RX_MIN_DATARATE, EU433_RX_MAX_DA
 737:../../../../../../Middlewares/Third_Party/LoRaWAN/Mac/region/RegionEU433.c ****     {
 738:../../../../../../Middlewares/Third_Party/LoRaWAN/Mac/region/RegionEU433.c ****         status &= 0xFD; // Datarate KO
 739:../../../../../../Middlewares/Third_Party/LoRaWAN/Mac/region/RegionEU433.c ****     }
 740:../../../../../../Middlewares/Third_Party/LoRaWAN/Mac/region/RegionEU433.c **** 
 741:../../../../../../Middlewares/Third_Party/LoRaWAN/Mac/region/RegionEU433.c ****     // Verify datarate offset
ARM GAS  C:\Users\EBANO_~1\AppData\Local\Temp\ccpYmjAB.s 			page 27


 742:../../../../../../Middlewares/Third_Party/LoRaWAN/Mac/region/RegionEU433.c ****     if( RegionCommonValueInRange( rxParamSetupReq->DrOffset, EU433_MIN_RX1_DR_OFFSET, EU433_MAX_RX1
 743:../../../../../../Middlewares/Third_Party/LoRaWAN/Mac/region/RegionEU433.c ****     {
 744:../../../../../../Middlewares/Third_Party/LoRaWAN/Mac/region/RegionEU433.c ****         status &= 0xFB; // Rx1DrOffset range KO
 745:../../../../../../Middlewares/Third_Party/LoRaWAN/Mac/region/RegionEU433.c ****     }
 746:../../../../../../Middlewares/Third_Party/LoRaWAN/Mac/region/RegionEU433.c **** 
 747:../../../../../../Middlewares/Third_Party/LoRaWAN/Mac/region/RegionEU433.c ****     return status;
 748:../../../../../../Middlewares/Third_Party/LoRaWAN/Mac/region/RegionEU433.c **** }
 749:../../../../../../Middlewares/Third_Party/LoRaWAN/Mac/region/RegionEU433.c **** 
 750:../../../../../../Middlewares/Third_Party/LoRaWAN/Mac/region/RegionEU433.c **** uint8_t RegionEU433NewChannelReq( NewChannelReqParams_t* newChannelReq )
 751:../../../../../../Middlewares/Third_Party/LoRaWAN/Mac/region/RegionEU433.c **** {
 752:../../../../../../Middlewares/Third_Party/LoRaWAN/Mac/region/RegionEU433.c ****     uint8_t status = 0x03;
 753:../../../../../../Middlewares/Third_Party/LoRaWAN/Mac/region/RegionEU433.c ****     ChannelAddParams_t channelAdd;
 754:../../../../../../Middlewares/Third_Party/LoRaWAN/Mac/region/RegionEU433.c ****     ChannelRemoveParams_t channelRemove;
 755:../../../../../../Middlewares/Third_Party/LoRaWAN/Mac/region/RegionEU433.c **** 
 756:../../../../../../Middlewares/Third_Party/LoRaWAN/Mac/region/RegionEU433.c ****     if( newChannelReq->NewChannel->Frequency == 0 )
 757:../../../../../../Middlewares/Third_Party/LoRaWAN/Mac/region/RegionEU433.c ****     {
 758:../../../../../../Middlewares/Third_Party/LoRaWAN/Mac/region/RegionEU433.c ****         channelRemove.ChannelId = newChannelReq->ChannelId;
 759:../../../../../../Middlewares/Third_Party/LoRaWAN/Mac/region/RegionEU433.c **** 
 760:../../../../../../Middlewares/Third_Party/LoRaWAN/Mac/region/RegionEU433.c ****         // Remove
 761:../../../../../../Middlewares/Third_Party/LoRaWAN/Mac/region/RegionEU433.c ****         if( RegionEU433ChannelsRemove( &channelRemove ) == false )
 762:../../../../../../Middlewares/Third_Party/LoRaWAN/Mac/region/RegionEU433.c ****         {
 763:../../../../../../Middlewares/Third_Party/LoRaWAN/Mac/region/RegionEU433.c ****             status &= 0xFC;
 764:../../../../../../Middlewares/Third_Party/LoRaWAN/Mac/region/RegionEU433.c ****         }
 765:../../../../../../Middlewares/Third_Party/LoRaWAN/Mac/region/RegionEU433.c ****     }
 766:../../../../../../Middlewares/Third_Party/LoRaWAN/Mac/region/RegionEU433.c ****     else
 767:../../../../../../Middlewares/Third_Party/LoRaWAN/Mac/region/RegionEU433.c ****     {
 768:../../../../../../Middlewares/Third_Party/LoRaWAN/Mac/region/RegionEU433.c ****         channelAdd.NewChannel = newChannelReq->NewChannel;
 769:../../../../../../Middlewares/Third_Party/LoRaWAN/Mac/region/RegionEU433.c ****         channelAdd.ChannelId = newChannelReq->ChannelId;
 770:../../../../../../Middlewares/Third_Party/LoRaWAN/Mac/region/RegionEU433.c **** 
 771:../../../../../../Middlewares/Third_Party/LoRaWAN/Mac/region/RegionEU433.c ****         switch( RegionEU433ChannelAdd( &channelAdd ) )
 772:../../../../../../Middlewares/Third_Party/LoRaWAN/Mac/region/RegionEU433.c ****         {
 773:../../../../../../Middlewares/Third_Party/LoRaWAN/Mac/region/RegionEU433.c ****             case LORAMAC_STATUS_OK:
 774:../../../../../../Middlewares/Third_Party/LoRaWAN/Mac/region/RegionEU433.c ****             {
 775:../../../../../../Middlewares/Third_Party/LoRaWAN/Mac/region/RegionEU433.c ****                 break;
 776:../../../../../../Middlewares/Third_Party/LoRaWAN/Mac/region/RegionEU433.c ****             }
 777:../../../../../../Middlewares/Third_Party/LoRaWAN/Mac/region/RegionEU433.c ****             case LORAMAC_STATUS_FREQUENCY_INVALID:
 778:../../../../../../Middlewares/Third_Party/LoRaWAN/Mac/region/RegionEU433.c ****             {
 779:../../../../../../Middlewares/Third_Party/LoRaWAN/Mac/region/RegionEU433.c ****                 status &= 0xFE;
 780:../../../../../../Middlewares/Third_Party/LoRaWAN/Mac/region/RegionEU433.c ****                 break;
 781:../../../../../../Middlewares/Third_Party/LoRaWAN/Mac/region/RegionEU433.c ****             }
 782:../../../../../../Middlewares/Third_Party/LoRaWAN/Mac/region/RegionEU433.c ****             case LORAMAC_STATUS_DATARATE_INVALID:
 783:../../../../../../Middlewares/Third_Party/LoRaWAN/Mac/region/RegionEU433.c ****             {
 784:../../../../../../Middlewares/Third_Party/LoRaWAN/Mac/region/RegionEU433.c ****                 status &= 0xFD;
 785:../../../../../../Middlewares/Third_Party/LoRaWAN/Mac/region/RegionEU433.c ****                 break;
 786:../../../../../../Middlewares/Third_Party/LoRaWAN/Mac/region/RegionEU433.c ****             }
 787:../../../../../../Middlewares/Third_Party/LoRaWAN/Mac/region/RegionEU433.c ****             case LORAMAC_STATUS_FREQ_AND_DR_INVALID:
 788:../../../../../../Middlewares/Third_Party/LoRaWAN/Mac/region/RegionEU433.c ****             {
 789:../../../../../../Middlewares/Third_Party/LoRaWAN/Mac/region/RegionEU433.c ****                 status &= 0xFC;
 790:../../../../../../Middlewares/Third_Party/LoRaWAN/Mac/region/RegionEU433.c ****                 break;
 791:../../../../../../Middlewares/Third_Party/LoRaWAN/Mac/region/RegionEU433.c ****             }
 792:../../../../../../Middlewares/Third_Party/LoRaWAN/Mac/region/RegionEU433.c ****             default:
 793:../../../../../../Middlewares/Third_Party/LoRaWAN/Mac/region/RegionEU433.c ****             {
 794:../../../../../../Middlewares/Third_Party/LoRaWAN/Mac/region/RegionEU433.c ****                 status &= 0xFC;
 795:../../../../../../Middlewares/Third_Party/LoRaWAN/Mac/region/RegionEU433.c ****                 break;
 796:../../../../../../Middlewares/Third_Party/LoRaWAN/Mac/region/RegionEU433.c ****             }
 797:../../../../../../Middlewares/Third_Party/LoRaWAN/Mac/region/RegionEU433.c ****         }
 798:../../../../../../Middlewares/Third_Party/LoRaWAN/Mac/region/RegionEU433.c ****     }
ARM GAS  C:\Users\EBANO_~1\AppData\Local\Temp\ccpYmjAB.s 			page 28


 799:../../../../../../Middlewares/Third_Party/LoRaWAN/Mac/region/RegionEU433.c **** 
 800:../../../../../../Middlewares/Third_Party/LoRaWAN/Mac/region/RegionEU433.c ****     return status;
 801:../../../../../../Middlewares/Third_Party/LoRaWAN/Mac/region/RegionEU433.c **** }
 802:../../../../../../Middlewares/Third_Party/LoRaWAN/Mac/region/RegionEU433.c **** 
 803:../../../../../../Middlewares/Third_Party/LoRaWAN/Mac/region/RegionEU433.c **** int8_t RegionEU433TxParamSetupReq( TxParamSetupReqParams_t* txParamSetupReq )
 804:../../../../../../Middlewares/Third_Party/LoRaWAN/Mac/region/RegionEU433.c **** {
 805:../../../../../../Middlewares/Third_Party/LoRaWAN/Mac/region/RegionEU433.c ****     return -1;
 806:../../../../../../Middlewares/Third_Party/LoRaWAN/Mac/region/RegionEU433.c **** }
 807:../../../../../../Middlewares/Third_Party/LoRaWAN/Mac/region/RegionEU433.c **** 
 808:../../../../../../Middlewares/Third_Party/LoRaWAN/Mac/region/RegionEU433.c **** uint8_t RegionEU433DlChannelReq( DlChannelReqParams_t* dlChannelReq )
 809:../../../../../../Middlewares/Third_Party/LoRaWAN/Mac/region/RegionEU433.c **** {
 810:../../../../../../Middlewares/Third_Party/LoRaWAN/Mac/region/RegionEU433.c ****     uint8_t status = 0x03;
 811:../../../../../../Middlewares/Third_Party/LoRaWAN/Mac/region/RegionEU433.c **** 
 812:../../../../../../Middlewares/Third_Party/LoRaWAN/Mac/region/RegionEU433.c ****     // Verify if the frequency is supported
 813:../../../../../../Middlewares/Third_Party/LoRaWAN/Mac/region/RegionEU433.c ****     if( VerifyRfFreq( dlChannelReq->Rx1Frequency ) == false )
 814:../../../../../../Middlewares/Third_Party/LoRaWAN/Mac/region/RegionEU433.c ****     {
 815:../../../../../../Middlewares/Third_Party/LoRaWAN/Mac/region/RegionEU433.c ****         status &= 0xFE;
 816:../../../../../../Middlewares/Third_Party/LoRaWAN/Mac/region/RegionEU433.c ****     }
 817:../../../../../../Middlewares/Third_Party/LoRaWAN/Mac/region/RegionEU433.c **** 
 818:../../../../../../Middlewares/Third_Party/LoRaWAN/Mac/region/RegionEU433.c ****     // Verify if an uplink frequency exists
 819:../../../../../../Middlewares/Third_Party/LoRaWAN/Mac/region/RegionEU433.c ****     if( NvmCtx.Channels[dlChannelReq->ChannelId].Frequency == 0 )
 820:../../../../../../Middlewares/Third_Party/LoRaWAN/Mac/region/RegionEU433.c ****     {
 821:../../../../../../Middlewares/Third_Party/LoRaWAN/Mac/region/RegionEU433.c ****         status &= 0xFD;
 822:../../../../../../Middlewares/Third_Party/LoRaWAN/Mac/region/RegionEU433.c ****     }
 823:../../../../../../Middlewares/Third_Party/LoRaWAN/Mac/region/RegionEU433.c **** 
 824:../../../../../../Middlewares/Third_Party/LoRaWAN/Mac/region/RegionEU433.c ****     // Apply Rx1 frequency, if the status is OK
 825:../../../../../../Middlewares/Third_Party/LoRaWAN/Mac/region/RegionEU433.c ****     if( status == 0x03 )
 826:../../../../../../Middlewares/Third_Party/LoRaWAN/Mac/region/RegionEU433.c ****     {
 827:../../../../../../Middlewares/Third_Party/LoRaWAN/Mac/region/RegionEU433.c ****         NvmCtx.Channels[dlChannelReq->ChannelId].Rx1Frequency = dlChannelReq->Rx1Frequency;
 828:../../../../../../Middlewares/Third_Party/LoRaWAN/Mac/region/RegionEU433.c ****     }
 829:../../../../../../Middlewares/Third_Party/LoRaWAN/Mac/region/RegionEU433.c **** 
 830:../../../../../../Middlewares/Third_Party/LoRaWAN/Mac/region/RegionEU433.c ****     return status;
 831:../../../../../../Middlewares/Third_Party/LoRaWAN/Mac/region/RegionEU433.c **** }
 832:../../../../../../Middlewares/Third_Party/LoRaWAN/Mac/region/RegionEU433.c **** 
 833:../../../../../../Middlewares/Third_Party/LoRaWAN/Mac/region/RegionEU433.c **** int8_t RegionEU433AlternateDr( int8_t currentDr, AlternateDrType_t type )
 834:../../../../../../Middlewares/Third_Party/LoRaWAN/Mac/region/RegionEU433.c **** {
 835:../../../../../../Middlewares/Third_Party/LoRaWAN/Mac/region/RegionEU433.c ****     return currentDr;
 836:../../../../../../Middlewares/Third_Party/LoRaWAN/Mac/region/RegionEU433.c **** }
 837:../../../../../../Middlewares/Third_Party/LoRaWAN/Mac/region/RegionEU433.c **** 
 838:../../../../../../Middlewares/Third_Party/LoRaWAN/Mac/region/RegionEU433.c **** void RegionEU433CalcBackOff( CalcBackOffParams_t* calcBackOff )
 839:../../../../../../Middlewares/Third_Party/LoRaWAN/Mac/region/RegionEU433.c **** {
 840:../../../../../../Middlewares/Third_Party/LoRaWAN/Mac/region/RegionEU433.c ****     RegionCommonCalcBackOffParams_t calcBackOffParams;
 841:../../../../../../Middlewares/Third_Party/LoRaWAN/Mac/region/RegionEU433.c **** 
 842:../../../../../../Middlewares/Third_Party/LoRaWAN/Mac/region/RegionEU433.c ****     calcBackOffParams.Channels = NvmCtx.Channels;
 843:../../../../../../Middlewares/Third_Party/LoRaWAN/Mac/region/RegionEU433.c ****     calcBackOffParams.Bands = NvmCtx.Bands;
 844:../../../../../../Middlewares/Third_Party/LoRaWAN/Mac/region/RegionEU433.c ****     calcBackOffParams.LastTxIsJoinRequest = calcBackOff->LastTxIsJoinRequest;
 845:../../../../../../Middlewares/Third_Party/LoRaWAN/Mac/region/RegionEU433.c ****     calcBackOffParams.Joined = calcBackOff->Joined;
 846:../../../../../../Middlewares/Third_Party/LoRaWAN/Mac/region/RegionEU433.c ****     calcBackOffParams.DutyCycleEnabled = calcBackOff->DutyCycleEnabled;
 847:../../../../../../Middlewares/Third_Party/LoRaWAN/Mac/region/RegionEU433.c ****     calcBackOffParams.Channel = calcBackOff->Channel;
 848:../../../../../../Middlewares/Third_Party/LoRaWAN/Mac/region/RegionEU433.c ****     calcBackOffParams.ElapsedTime = calcBackOff->ElapsedTime;
 849:../../../../../../Middlewares/Third_Party/LoRaWAN/Mac/region/RegionEU433.c ****     calcBackOffParams.TxTimeOnAir = calcBackOff->TxTimeOnAir;
 850:../../../../../../Middlewares/Third_Party/LoRaWAN/Mac/region/RegionEU433.c **** 
 851:../../../../../../Middlewares/Third_Party/LoRaWAN/Mac/region/RegionEU433.c ****     RegionCommonCalcBackOff( &calcBackOffParams );
 852:../../../../../../Middlewares/Third_Party/LoRaWAN/Mac/region/RegionEU433.c **** }
 853:../../../../../../Middlewares/Third_Party/LoRaWAN/Mac/region/RegionEU433.c **** 
 854:../../../../../../Middlewares/Third_Party/LoRaWAN/Mac/region/RegionEU433.c **** LoRaMacStatus_t RegionEU433NextChannel( NextChanParams_t* nextChanParams, uint8_t* channel, TimerTi
 855:../../../../../../Middlewares/Third_Party/LoRaWAN/Mac/region/RegionEU433.c **** {
ARM GAS  C:\Users\EBANO_~1\AppData\Local\Temp\ccpYmjAB.s 			page 29


 856:../../../../../../Middlewares/Third_Party/LoRaWAN/Mac/region/RegionEU433.c ****     uint8_t nbEnabledChannels = 0;
 857:../../../../../../Middlewares/Third_Party/LoRaWAN/Mac/region/RegionEU433.c ****     uint8_t delayTx = 0;
 858:../../../../../../Middlewares/Third_Party/LoRaWAN/Mac/region/RegionEU433.c ****     uint8_t enabledChannels[EU433_MAX_NB_CHANNELS] = { 0 };
 859:../../../../../../Middlewares/Third_Party/LoRaWAN/Mac/region/RegionEU433.c ****     TimerTime_t nextTxDelay = 0;
 860:../../../../../../Middlewares/Third_Party/LoRaWAN/Mac/region/RegionEU433.c **** 
 861:../../../../../../Middlewares/Third_Party/LoRaWAN/Mac/region/RegionEU433.c ****     if( RegionCommonCountChannels( NvmCtx.ChannelsMask, 0, 1 ) == 0 )
 862:../../../../../../Middlewares/Third_Party/LoRaWAN/Mac/region/RegionEU433.c ****     { // Reactivate default channels
 863:../../../../../../Middlewares/Third_Party/LoRaWAN/Mac/region/RegionEU433.c ****         NvmCtx.ChannelsMask[0] |= LC( 1 ) + LC( 2 ) + LC( 3 );
 864:../../../../../../Middlewares/Third_Party/LoRaWAN/Mac/region/RegionEU433.c ****     }
 865:../../../../../../Middlewares/Third_Party/LoRaWAN/Mac/region/RegionEU433.c **** 
 866:../../../../../../Middlewares/Third_Party/LoRaWAN/Mac/region/RegionEU433.c ****     if( nextChanParams->AggrTimeOff <= TimerGetElapsedTime( nextChanParams->LastAggrTx ) )
 867:../../../../../../Middlewares/Third_Party/LoRaWAN/Mac/region/RegionEU433.c ****     {
 868:../../../../../../Middlewares/Third_Party/LoRaWAN/Mac/region/RegionEU433.c ****         // Reset Aggregated time off
 869:../../../../../../Middlewares/Third_Party/LoRaWAN/Mac/region/RegionEU433.c ****         *aggregatedTimeOff = 0;
 870:../../../../../../Middlewares/Third_Party/LoRaWAN/Mac/region/RegionEU433.c **** 
 871:../../../../../../Middlewares/Third_Party/LoRaWAN/Mac/region/RegionEU433.c ****         // Update bands Time OFF
 872:../../../../../../Middlewares/Third_Party/LoRaWAN/Mac/region/RegionEU433.c ****         nextTxDelay = RegionCommonUpdateBandTimeOff( nextChanParams->Joined, nextChanParams->DutyCy
 873:../../../../../../Middlewares/Third_Party/LoRaWAN/Mac/region/RegionEU433.c **** 
 874:../../../../../../Middlewares/Third_Party/LoRaWAN/Mac/region/RegionEU433.c ****         // Search how many channels are enabled
 875:../../../../../../Middlewares/Third_Party/LoRaWAN/Mac/region/RegionEU433.c ****         nbEnabledChannels = CountNbOfEnabledChannels( nextChanParams->Joined, nextChanParams->Datar
 876:../../../../../../Middlewares/Third_Party/LoRaWAN/Mac/region/RegionEU433.c ****                                                       NvmCtx.ChannelsMask, NvmCtx.Channels,
 877:../../../../../../Middlewares/Third_Party/LoRaWAN/Mac/region/RegionEU433.c ****                                                       NvmCtx.Bands, enabledChannels, &delayTx );
 878:../../../../../../Middlewares/Third_Party/LoRaWAN/Mac/region/RegionEU433.c ****     }
 879:../../../../../../Middlewares/Third_Party/LoRaWAN/Mac/region/RegionEU433.c ****     else
 880:../../../../../../Middlewares/Third_Party/LoRaWAN/Mac/region/RegionEU433.c ****     {
 881:../../../../../../Middlewares/Third_Party/LoRaWAN/Mac/region/RegionEU433.c ****         delayTx++;
 882:../../../../../../Middlewares/Third_Party/LoRaWAN/Mac/region/RegionEU433.c ****         nextTxDelay = nextChanParams->AggrTimeOff - TimerGetElapsedTime( nextChanParams->LastAggrTx
 883:../../../../../../Middlewares/Third_Party/LoRaWAN/Mac/region/RegionEU433.c ****     }
 884:../../../../../../Middlewares/Third_Party/LoRaWAN/Mac/region/RegionEU433.c **** 
 885:../../../../../../Middlewares/Third_Party/LoRaWAN/Mac/region/RegionEU433.c ****     if( nbEnabledChannels > 0 )
 886:../../../../../../Middlewares/Third_Party/LoRaWAN/Mac/region/RegionEU433.c ****     {
 887:../../../../../../Middlewares/Third_Party/LoRaWAN/Mac/region/RegionEU433.c ****         // We found a valid channel
 888:../../../../../../Middlewares/Third_Party/LoRaWAN/Mac/region/RegionEU433.c ****         *channel = enabledChannels[randr( 0, nbEnabledChannels - 1 )];
 889:../../../../../../Middlewares/Third_Party/LoRaWAN/Mac/region/RegionEU433.c **** 
 890:../../../../../../Middlewares/Third_Party/LoRaWAN/Mac/region/RegionEU433.c ****         *time = 0;
 891:../../../../../../Middlewares/Third_Party/LoRaWAN/Mac/region/RegionEU433.c ****         return LORAMAC_STATUS_OK;
 892:../../../../../../Middlewares/Third_Party/LoRaWAN/Mac/region/RegionEU433.c ****     }
 893:../../../../../../Middlewares/Third_Party/LoRaWAN/Mac/region/RegionEU433.c ****     else
 894:../../../../../../Middlewares/Third_Party/LoRaWAN/Mac/region/RegionEU433.c ****     {
 895:../../../../../../Middlewares/Third_Party/LoRaWAN/Mac/region/RegionEU433.c ****         if( delayTx > 0 )
 896:../../../../../../Middlewares/Third_Party/LoRaWAN/Mac/region/RegionEU433.c ****         {
 897:../../../../../../Middlewares/Third_Party/LoRaWAN/Mac/region/RegionEU433.c ****             // Delay transmission due to AggregatedTimeOff or to a band time off
 898:../../../../../../Middlewares/Third_Party/LoRaWAN/Mac/region/RegionEU433.c ****             *time = nextTxDelay;
 899:../../../../../../Middlewares/Third_Party/LoRaWAN/Mac/region/RegionEU433.c ****             return LORAMAC_STATUS_DUTYCYCLE_RESTRICTED;
 900:../../../../../../Middlewares/Third_Party/LoRaWAN/Mac/region/RegionEU433.c ****         }
 901:../../../../../../Middlewares/Third_Party/LoRaWAN/Mac/region/RegionEU433.c ****         // Datarate not supported by any channel, restore defaults
 902:../../../../../../Middlewares/Third_Party/LoRaWAN/Mac/region/RegionEU433.c ****         NvmCtx.ChannelsMask[0] |= LC( 1 ) + LC( 2 ) + LC( 3 );
 903:../../../../../../Middlewares/Third_Party/LoRaWAN/Mac/region/RegionEU433.c ****         *time = 0;
 904:../../../../../../Middlewares/Third_Party/LoRaWAN/Mac/region/RegionEU433.c ****         return LORAMAC_STATUS_NO_CHANNEL_FOUND;
 905:../../../../../../Middlewares/Third_Party/LoRaWAN/Mac/region/RegionEU433.c ****     }
 906:../../../../../../Middlewares/Third_Party/LoRaWAN/Mac/region/RegionEU433.c **** }
 907:../../../../../../Middlewares/Third_Party/LoRaWAN/Mac/region/RegionEU433.c **** 
 908:../../../../../../Middlewares/Third_Party/LoRaWAN/Mac/region/RegionEU433.c **** LoRaMacStatus_t RegionEU433ChannelAdd( ChannelAddParams_t* channelAdd )
 909:../../../../../../Middlewares/Third_Party/LoRaWAN/Mac/region/RegionEU433.c **** {
 910:../../../../../../Middlewares/Third_Party/LoRaWAN/Mac/region/RegionEU433.c ****     bool drInvalid = false;
 911:../../../../../../Middlewares/Third_Party/LoRaWAN/Mac/region/RegionEU433.c ****     bool freqInvalid = false;
 912:../../../../../../Middlewares/Third_Party/LoRaWAN/Mac/region/RegionEU433.c ****     uint8_t id = channelAdd->ChannelId;
ARM GAS  C:\Users\EBANO_~1\AppData\Local\Temp\ccpYmjAB.s 			page 30


 913:../../../../../../Middlewares/Third_Party/LoRaWAN/Mac/region/RegionEU433.c **** 
 914:../../../../../../Middlewares/Third_Party/LoRaWAN/Mac/region/RegionEU433.c ****     if( id < EU433_NUMB_DEFAULT_CHANNELS )
 915:../../../../../../Middlewares/Third_Party/LoRaWAN/Mac/region/RegionEU433.c ****     {
 916:../../../../../../Middlewares/Third_Party/LoRaWAN/Mac/region/RegionEU433.c ****         return LORAMAC_STATUS_FREQ_AND_DR_INVALID;
 917:../../../../../../Middlewares/Third_Party/LoRaWAN/Mac/region/RegionEU433.c ****     }
 918:../../../../../../Middlewares/Third_Party/LoRaWAN/Mac/region/RegionEU433.c **** 
 919:../../../../../../Middlewares/Third_Party/LoRaWAN/Mac/region/RegionEU433.c ****     if( id >= EU433_MAX_NB_CHANNELS )
 920:../../../../../../Middlewares/Third_Party/LoRaWAN/Mac/region/RegionEU433.c ****     {
 921:../../../../../../Middlewares/Third_Party/LoRaWAN/Mac/region/RegionEU433.c ****         return LORAMAC_STATUS_PARAMETER_INVALID;
 922:../../../../../../Middlewares/Third_Party/LoRaWAN/Mac/region/RegionEU433.c ****     }
 923:../../../../../../Middlewares/Third_Party/LoRaWAN/Mac/region/RegionEU433.c **** 
 924:../../../../../../Middlewares/Third_Party/LoRaWAN/Mac/region/RegionEU433.c ****     // Validate the datarate range
 925:../../../../../../Middlewares/Third_Party/LoRaWAN/Mac/region/RegionEU433.c ****     if( RegionCommonValueInRange( channelAdd->NewChannel->DrRange.Fields.Min, EU433_TX_MIN_DATARATE
 926:../../../../../../Middlewares/Third_Party/LoRaWAN/Mac/region/RegionEU433.c ****     {
 927:../../../../../../Middlewares/Third_Party/LoRaWAN/Mac/region/RegionEU433.c ****         drInvalid = true;
 928:../../../../../../Middlewares/Third_Party/LoRaWAN/Mac/region/RegionEU433.c ****     }
 929:../../../../../../Middlewares/Third_Party/LoRaWAN/Mac/region/RegionEU433.c ****     if( RegionCommonValueInRange( channelAdd->NewChannel->DrRange.Fields.Max, EU433_TX_MIN_DATARATE
 930:../../../../../../Middlewares/Third_Party/LoRaWAN/Mac/region/RegionEU433.c ****     {
 931:../../../../../../Middlewares/Third_Party/LoRaWAN/Mac/region/RegionEU433.c ****         drInvalid = true;
 932:../../../../../../Middlewares/Third_Party/LoRaWAN/Mac/region/RegionEU433.c ****     }
 933:../../../../../../Middlewares/Third_Party/LoRaWAN/Mac/region/RegionEU433.c ****     if( channelAdd->NewChannel->DrRange.Fields.Min > channelAdd->NewChannel->DrRange.Fields.Max )
 934:../../../../../../Middlewares/Third_Party/LoRaWAN/Mac/region/RegionEU433.c ****     {
 935:../../../../../../Middlewares/Third_Party/LoRaWAN/Mac/region/RegionEU433.c ****         drInvalid = true;
 936:../../../../../../Middlewares/Third_Party/LoRaWAN/Mac/region/RegionEU433.c ****     }
 937:../../../../../../Middlewares/Third_Party/LoRaWAN/Mac/region/RegionEU433.c **** 
 938:../../../../../../Middlewares/Third_Party/LoRaWAN/Mac/region/RegionEU433.c ****     // Check frequency
 939:../../../../../../Middlewares/Third_Party/LoRaWAN/Mac/region/RegionEU433.c ****     if( freqInvalid == false )
 940:../../../../../../Middlewares/Third_Party/LoRaWAN/Mac/region/RegionEU433.c ****     {
 941:../../../../../../Middlewares/Third_Party/LoRaWAN/Mac/region/RegionEU433.c ****         if( VerifyRfFreq( channelAdd->NewChannel->Frequency ) == false )
 942:../../../../../../Middlewares/Third_Party/LoRaWAN/Mac/region/RegionEU433.c ****         {
 943:../../../../../../Middlewares/Third_Party/LoRaWAN/Mac/region/RegionEU433.c ****             freqInvalid = true;
 944:../../../../../../Middlewares/Third_Party/LoRaWAN/Mac/region/RegionEU433.c ****         }
 945:../../../../../../Middlewares/Third_Party/LoRaWAN/Mac/region/RegionEU433.c ****     }
 946:../../../../../../Middlewares/Third_Party/LoRaWAN/Mac/region/RegionEU433.c **** 
 947:../../../../../../Middlewares/Third_Party/LoRaWAN/Mac/region/RegionEU433.c ****     // Check status
 948:../../../../../../Middlewares/Third_Party/LoRaWAN/Mac/region/RegionEU433.c ****     if( ( drInvalid == true ) && ( freqInvalid == true ) )
 949:../../../../../../Middlewares/Third_Party/LoRaWAN/Mac/region/RegionEU433.c ****     {
 950:../../../../../../Middlewares/Third_Party/LoRaWAN/Mac/region/RegionEU433.c ****         return LORAMAC_STATUS_FREQ_AND_DR_INVALID;
 951:../../../../../../Middlewares/Third_Party/LoRaWAN/Mac/region/RegionEU433.c ****     }
 952:../../../../../../Middlewares/Third_Party/LoRaWAN/Mac/region/RegionEU433.c ****     if( drInvalid == true )
 953:../../../../../../Middlewares/Third_Party/LoRaWAN/Mac/region/RegionEU433.c ****     {
 954:../../../../../../Middlewares/Third_Party/LoRaWAN/Mac/region/RegionEU433.c ****         return LORAMAC_STATUS_DATARATE_INVALID;
 955:../../../../../../Middlewares/Third_Party/LoRaWAN/Mac/region/RegionEU433.c ****     }
 956:../../../../../../Middlewares/Third_Party/LoRaWAN/Mac/region/RegionEU433.c ****     if( freqInvalid == true )
 957:../../../../../../Middlewares/Third_Party/LoRaWAN/Mac/region/RegionEU433.c ****     {
 958:../../../../../../Middlewares/Third_Party/LoRaWAN/Mac/region/RegionEU433.c ****         return LORAMAC_STATUS_FREQUENCY_INVALID;
 959:../../../../../../Middlewares/Third_Party/LoRaWAN/Mac/region/RegionEU433.c ****     }
 960:../../../../../../Middlewares/Third_Party/LoRaWAN/Mac/region/RegionEU433.c **** 
 961:../../../../../../Middlewares/Third_Party/LoRaWAN/Mac/region/RegionEU433.c ****     memcpy1( ( uint8_t* ) &(NvmCtx.Channels[id]), ( uint8_t* ) channelAdd->NewChannel, sizeof( NvmC
 962:../../../../../../Middlewares/Third_Party/LoRaWAN/Mac/region/RegionEU433.c ****     NvmCtx.Channels[id].Band = 0;
 963:../../../../../../Middlewares/Third_Party/LoRaWAN/Mac/region/RegionEU433.c ****     NvmCtx.ChannelsMask[0] |= ( 1 << id );
 964:../../../../../../Middlewares/Third_Party/LoRaWAN/Mac/region/RegionEU433.c ****     return LORAMAC_STATUS_OK;
 965:../../../../../../Middlewares/Third_Party/LoRaWAN/Mac/region/RegionEU433.c **** }
 966:../../../../../../Middlewares/Third_Party/LoRaWAN/Mac/region/RegionEU433.c **** 
 967:../../../../../../Middlewares/Third_Party/LoRaWAN/Mac/region/RegionEU433.c **** bool RegionEU433ChannelsRemove( ChannelRemoveParams_t* channelRemove  )
 968:../../../../../../Middlewares/Third_Party/LoRaWAN/Mac/region/RegionEU433.c **** {
 969:../../../../../../Middlewares/Third_Party/LoRaWAN/Mac/region/RegionEU433.c ****     uint8_t id = channelRemove->ChannelId;
ARM GAS  C:\Users\EBANO_~1\AppData\Local\Temp\ccpYmjAB.s 			page 31


 970:../../../../../../Middlewares/Third_Party/LoRaWAN/Mac/region/RegionEU433.c **** 
 971:../../../../../../Middlewares/Third_Party/LoRaWAN/Mac/region/RegionEU433.c ****     if( id < EU433_NUMB_DEFAULT_CHANNELS )
 972:../../../../../../Middlewares/Third_Party/LoRaWAN/Mac/region/RegionEU433.c ****     {
 973:../../../../../../Middlewares/Third_Party/LoRaWAN/Mac/region/RegionEU433.c ****         return false;
 974:../../../../../../Middlewares/Third_Party/LoRaWAN/Mac/region/RegionEU433.c ****     }
 975:../../../../../../Middlewares/Third_Party/LoRaWAN/Mac/region/RegionEU433.c **** 
 976:../../../../../../Middlewares/Third_Party/LoRaWAN/Mac/region/RegionEU433.c ****     // Remove the channel from the list of channels
 977:../../../../../../Middlewares/Third_Party/LoRaWAN/Mac/region/RegionEU433.c ****     NvmCtx.Channels[id] = ( ChannelParams_t ){ 0, 0, { 0 }, 0 };
 677              		.loc 1 977 0
 678 0032 3F4B     		ldr	r3, .L76
 679              	.LBE33:
 680              	.LBE32:
 681              	.LBE31:
 682 0034 0126     		movs	r6, #1
 683              	.LBB46:
 684              	.LBB36:
 685              	.LBB34:
 686 0036 9946     		mov	r9, r3
 687 0038 3E4B     		ldr	r3, .L76+4
 688              	.LBE34:
 689              	.LBE36:
 690              	.LBE46:
 691 003a 0325     		movs	r5, #3
 692 003c 9B46     		mov	fp, r3
 693 003e 14E0     		b	.L66
 694              	.LVL39:
 695              	.L60:
 696              	.LBB47:
 467:../../../../../../Middlewares/Third_Party/LoRaWAN/Mac/region/RegionEU433.c ****             newChannel.DrRange.Value = 0;
 697              		.loc 1 467 0
 698 0040 0023     		movs	r3, #0
 699              	.LVL40:
 700 0042 2360     		str	r3, [r4]
 468:../../../../../../Middlewares/Third_Party/LoRaWAN/Mac/region/RegionEU433.c ****             newChannel.Rx1Frequency = 0;
 701              		.loc 1 468 0
 702 0044 2372     		strb	r3, [r4, #8]
 469:../../../../../../Middlewares/Third_Party/LoRaWAN/Mac/region/RegionEU433.c ****         }
 703              		.loc 1 469 0
 704 0046 6360     		str	r3, [r4, #4]
 705              	.L62:
 706              	.LVL41:
 707              	.LBB37:
 708              	.LBB35:
 709              		.loc 1 977 0
 710 0048 6800     		lsls	r0, r5, #1
 711 004a 4019     		adds	r0, r0, r5
 712 004c 8000     		lsls	r0, r0, #2
 713 004e 0C22     		movs	r2, #12
 714 0050 0021     		movs	r1, #0
 715 0052 4844     		add	r0, r0, r9
 716 0054 FFF7FEFF 		bl	memset
 717              	.LVL42:
 978:../../../../../../Middlewares/Third_Party/LoRaWAN/Mac/region/RegionEU433.c **** 
 979:../../../../../../Middlewares/Third_Party/LoRaWAN/Mac/region/RegionEU433.c ****     return RegionCommonChanDisable( NvmCtx.ChannelsMask, id, EU433_MAX_NB_CHANNELS );
 718              		.loc 1 979 0
 719 0058 1022     		movs	r2, #16
 720 005a 4146     		mov	r1, r8
ARM GAS  C:\Users\EBANO_~1\AppData\Local\Temp\ccpYmjAB.s 			page 32


 721 005c 3648     		ldr	r0, .L76+8
 722 005e FFF7FEFF 		bl	RegionCommonChanDisable
 723              	.LVL43:
 724              	.L64:
 725 0062 0336     		adds	r6, r6, #3
 726              	.LVL44:
 727 0064 0135     		adds	r5, r5, #1
 728              	.LVL45:
 729              	.LBE35:
 730              	.LBE37:
 452:../../../../../../Middlewares/Third_Party/LoRaWAN/Mac/region/RegionEU433.c ****     {
 731              		.loc 1 452 0 discriminator 2
 732 0066 282E     		cmp	r6, #40
 733 0068 D8D0     		beq	.L58
 734              	.L66:
 735 006a EBB2     		uxtb	r3, r5
 736 006c 9846     		mov	r8, r3
 737              	.LVL46:
 454:../../../../../../Middlewares/Third_Party/LoRaWAN/Mac/region/RegionEU433.c ****         {
 738              		.loc 1 454 0
 739 006e 072D     		cmp	r5, #7
 740 0070 E6D8     		bhi	.L60
 457:../../../../../../Middlewares/Third_Party/LoRaWAN/Mac/region/RegionEU433.c ****             newChannel.Frequency |= ( (uint32_t) applyCFList->Payload[i + 1] << 8 );
 741              		.loc 1 457 0
 742 0072 3B68     		ldr	r3, [r7]
 743              	.LVL47:
 744 0074 9A19     		adds	r2, r3, r6
 745 0076 511E     		subs	r1, r2, #1
 746 0078 0978     		ldrb	r1, [r1]
 747 007a 2160     		str	r1, [r4]
 458:../../../../../../Middlewares/Third_Party/LoRaWAN/Mac/region/RegionEU433.c ****             newChannel.Frequency |= ( (uint32_t) applyCFList->Payload[i + 2] << 16 );
 748              		.loc 1 458 0
 749 007c 9B5D     		ldrb	r3, [r3, r6]
 750 007e 1B02     		lsls	r3, r3, #8
 751 0080 0B43     		orrs	r3, r1
 752 0082 2360     		str	r3, [r4]
 459:../../../../../../Middlewares/Third_Party/LoRaWAN/Mac/region/RegionEU433.c ****             newChannel.Frequency *= 100;
 753              		.loc 1 459 0
 754 0084 5278     		ldrb	r2, [r2, #1]
 755 0086 1204     		lsls	r2, r2, #16
 756 0088 1343     		orrs	r3, r2
 460:../../../../../../Middlewares/Third_Party/LoRaWAN/Mac/region/RegionEU433.c **** 
 757              		.loc 1 460 0
 758 008a 6422     		movs	r2, #100
 759 008c 5343     		muls	r3, r2
 463:../../../../../../Middlewares/Third_Party/LoRaWAN/Mac/region/RegionEU433.c ****         }
 760              		.loc 1 463 0
 761 008e 0022     		movs	r2, #0
 460:../../../../../../Middlewares/Third_Party/LoRaWAN/Mac/region/RegionEU433.c **** 
 762              		.loc 1 460 0
 763 0090 2360     		str	r3, [r4]
 463:../../../../../../Middlewares/Third_Party/LoRaWAN/Mac/region/RegionEU433.c ****         }
 764              		.loc 1 463 0
 765 0092 6260     		str	r2, [r4, #4]
 472:../../../../../../Middlewares/Third_Party/LoRaWAN/Mac/region/RegionEU433.c ****         {
 766              		.loc 1 472 0
 767 0094 002B     		cmp	r3, #0
ARM GAS  C:\Users\EBANO_~1\AppData\Local\Temp\ccpYmjAB.s 			page 33


 768 0096 D7D0     		beq	.L62
 769              	.LVL48:
 770              	.LBB38:
 771              	.LBB39:
 925:../../../../../../Middlewares/Third_Party/LoRaWAN/Mac/region/RegionEU433.c ****     {
 772              		.loc 1 925 0
 773 0098 207A     		ldrb	r0, [r4, #8]
 774 009a 0722     		movs	r2, #7
 775 009c 0007     		lsls	r0, r0, #28
 776 009e 0021     		movs	r1, #0
 777 00a0 0017     		asrs	r0, r0, #28
 778 00a2 FFF7FEFF 		bl	RegionCommonValueInRange
 779              	.LVL49:
 780 00a6 8046     		mov	r8, r0
 781              	.LVL50:
 929:../../../../../../Middlewares/Third_Party/LoRaWAN/Mac/region/RegionEU433.c ****     {
 782              		.loc 1 929 0
 783 00a8 0820     		movs	r0, #8
 784 00aa 2056     		ldrsb	r0, [r4, r0]
 785 00ac 0722     		movs	r2, #7
 786 00ae 0011     		asrs	r0, r0, #4
 787 00b0 0021     		movs	r1, #0
 788 00b2 FFF7FEFF 		bl	RegionCommonValueInRange
 789              	.LVL51:
 931:../../../../../../Middlewares/Third_Party/LoRaWAN/Mac/region/RegionEU433.c ****     }
 790              		.loc 1 931 0
 791 00b6 0123     		movs	r3, #1
 792 00b8 9A46     		mov	r10, r3
 929:../../../../../../Middlewares/Third_Party/LoRaWAN/Mac/region/RegionEU433.c ****     {
 793              		.loc 1 929 0
 794 00ba 0028     		cmp	r0, #0
 795 00bc 04D0     		beq	.L67
 925:../../../../../../Middlewares/Third_Party/LoRaWAN/Mac/region/RegionEU433.c ****     {
 796              		.loc 1 925 0
 797 00be 4346     		mov	r3, r8
 798 00c0 5A42     		rsbs	r2, r3, #0
 799 00c2 5341     		adcs	r3, r3, r2
 800 00c4 DBB2     		uxtb	r3, r3
 801 00c6 9A46     		mov	r10, r3
 802              	.L67:
 803              	.LVL52:
 804 00c8 2368     		ldr	r3, [r4]
 805 00ca 9846     		mov	r8, r3
 806 00cc 5B46     		mov	r3, fp
 807 00ce 9B6A     		ldr	r3, [r3, #40]
 808              	.LBB40:
 809              	.LBB41:
 111:../../../../../../Middlewares/Third_Party/LoRaWAN/Mac/region/RegionEU433.c ****     {
 810              		.loc 1 111 0
 811 00d0 4046     		mov	r0, r8
 812 00d2 0193     		str	r3, [sp, #4]
 813              	.LBE41:
 814              	.LBE40:
 933:../../../../../../Middlewares/Third_Party/LoRaWAN/Mac/region/RegionEU433.c ****     {
 815              		.loc 1 933 0
 816 00d4 237A     		ldrb	r3, [r4, #8]
 817 00d6 1A07     		lsls	r2, r3, #28
ARM GAS  C:\Users\EBANO_~1\AppData\Local\Temp\ccpYmjAB.s 			page 34


 818 00d8 5BB2     		sxtb	r3, r3
 819 00da 1217     		asrs	r2, r2, #28
 820 00dc 1B11     		asrs	r3, r3, #4
 821 00de 9A42     		cmp	r2, r3
 822 00e0 23DC     		bgt	.L63
 823              	.LVL53:
 824              	.LBB44:
 825              	.LBB42:
 111:../../../../../../Middlewares/Third_Party/LoRaWAN/Mac/region/RegionEU433.c ****     {
 826              		.loc 1 111 0
 827 00e2 019B     		ldr	r3, [sp, #4]
 828 00e4 9847     		blx	r3
 829              	.LVL54:
 830 00e6 0028     		cmp	r0, #0
 831 00e8 BBD0     		beq	.L64
 116:../../../../../../Middlewares/Third_Party/LoRaWAN/Mac/region/RegionEU433.c ****     {
 832              		.loc 1 116 0
 833 00ea 144A     		ldr	r2, .L76+12
 834 00ec 144B     		ldr	r3, .L76+16
 835 00ee 4244     		add	r2, r2, r8
 836 00f0 9A42     		cmp	r2, r3
 837 00f2 B6D8     		bhi	.L64
 838              	.LBE42:
 839              	.LBE44:
 948:../../../../../../Middlewares/Third_Party/LoRaWAN/Mac/region/RegionEU433.c ****     {
 840              		.loc 1 948 0
 841 00f4 5346     		mov	r3, r10
 842 00f6 002B     		cmp	r3, #0
 843 00f8 B3D1     		bne	.L64
 961:../../../../../../Middlewares/Third_Party/LoRaWAN/Mac/region/RegionEU433.c ****     NvmCtx.Channels[id].Band = 0;
 844              		.loc 1 961 0
 845 00fa 0D4B     		ldr	r3, .L76
 846 00fc 6800     		lsls	r0, r5, #1
 847 00fe 9846     		mov	r8, r3
 848 0100 4019     		adds	r0, r0, r5
 849 0102 8000     		lsls	r0, r0, #2
 850 0104 0C22     		movs	r2, #12
 851 0106 2100     		movs	r1, r4
 852 0108 4044     		add	r0, r0, r8
 853 010a FFF7FEFF 		bl	memcpy1
 854              	.LVL55:
 962:../../../../../../Middlewares/Third_Party/LoRaWAN/Mac/region/RegionEU433.c ****     NvmCtx.ChannelsMask[0] |= ( 1 << id );
 855              		.loc 1 962 0
 856 010e 4246     		mov	r2, r8
 857 0110 5146     		mov	r1, r10
 858 0112 B300     		lsls	r3, r6, #2
 859 0114 2933     		adds	r3, r3, #41
 860 0116 D154     		strb	r1, [r2, r3]
 963:../../../../../../Middlewares/Third_Party/LoRaWAN/Mac/region/RegionEU433.c ****     return LORAMAC_STATUS_OK;
 861              		.loc 1 963 0
 862 0118 0122     		movs	r2, #1
 863 011a D021     		movs	r1, #208
 864 011c 4346     		mov	r3, r8
 865 011e AA40     		lsls	r2, r2, r5
 866 0120 5B5A     		ldrh	r3, [r3, r1]
 867 0122 1343     		orrs	r3, r2
 868 0124 4246     		mov	r2, r8
ARM GAS  C:\Users\EBANO_~1\AppData\Local\Temp\ccpYmjAB.s 			page 35


 869 0126 5352     		strh	r3, [r2, r1]
 870 0128 9BE7     		b	.L64
 871              	.L63:
 872              	.LVL56:
 873              	.LBB45:
 874              	.LBB43:
 111:../../../../../../Middlewares/Third_Party/LoRaWAN/Mac/region/RegionEU433.c ****     {
 875              		.loc 1 111 0
 876 012a 019B     		ldr	r3, [sp, #4]
 877 012c 9847     		blx	r3
 878              	.LVL57:
 879 012e 98E7     		b	.L64
 880              	.L77:
 881              		.align	2
 882              	.L76:
 883 0130 00000000 		.word	NvmCtx
 884 0134 00000000 		.word	Radio
 885 0138 D0000000 		.word	NvmCtx+208
 886 013c 28462EE6 		.word	-433175000
 887 0140 50BC1600 		.word	1490000
 888              	.LBE43:
 889              	.LBE45:
 890              	.LBE39:
 891              	.LBE38:
 892              	.LBE47:
 893              		.cfi_endproc
 894              	.LFE49:
 895              		.size	RegionEU433ApplyCFList, .-RegionEU433ApplyCFList
 896              		.section	.text.RegionEU433ChanMaskSet,"ax",%progbits
 897              		.align	1
 898              		.p2align 2,,3
 899              		.global	RegionEU433ChanMaskSet
 900              		.syntax unified
 901              		.code	16
 902              		.thumb_func
 903              		.fpu softvfp
 904              		.type	RegionEU433ChanMaskSet, %function
 905              	RegionEU433ChanMaskSet:
 906              	.LFB50:
 490:../../../../../../Middlewares/Third_Party/LoRaWAN/Mac/region/RegionEU433.c ****     switch( chanMaskSet->ChannelsMaskType )
 907              		.loc 1 490 0
 908              		.cfi_startproc
 909              		@ args = 0, pretend = 0, frame = 0
 910              		@ frame_needed = 0, uses_anonymous_args = 0
 911              	.LVL58:
 912 0000 10B5     		push	{r4, lr}
 913              	.LCFI9:
 914              		.cfi_def_cfa_offset 8
 915              		.cfi_offset 4, -8
 916              		.cfi_offset 14, -4
 491:../../../../../../Middlewares/Third_Party/LoRaWAN/Mac/region/RegionEU433.c ****     {
 917              		.loc 1 491 0
 918 0002 0379     		ldrb	r3, [r0, #4]
 919 0004 002B     		cmp	r3, #0
 920 0006 0AD0     		beq	.L80
 921 0008 012B     		cmp	r3, #1
 922 000a 01D0     		beq	.L81
ARM GAS  C:\Users\EBANO_~1\AppData\Local\Temp\ccpYmjAB.s 			page 36


 504:../../../../../../Middlewares/Third_Party/LoRaWAN/Mac/region/RegionEU433.c ****     }
 923              		.loc 1 504 0
 924 000c 0020     		movs	r0, #0
 925              	.LVL59:
 926              	.L79:
 507:../../../../../../Middlewares/Third_Party/LoRaWAN/Mac/region/RegionEU433.c **** 
 927              		.loc 1 507 0
 928              		@ sp needed
 929 000e 10BD     		pop	{r4, pc}
 930              	.LVL60:
 931              	.L81:
 500:../../../../../../Middlewares/Third_Party/LoRaWAN/Mac/region/RegionEU433.c ****             break;
 932              		.loc 1 500 0
 933 0010 0168     		ldr	r1, [r0]
 934 0012 0122     		movs	r2, #1
 935 0014 0548     		ldr	r0, .L84
 936              	.LVL61:
 937 0016 FFF7FEFF 		bl	RegionCommonChanMaskCopy
 938              	.LVL62:
 506:../../../../../../Middlewares/Third_Party/LoRaWAN/Mac/region/RegionEU433.c **** }
 939              		.loc 1 506 0
 940 001a 0120     		movs	r0, #1
 501:../../../../../../Middlewares/Third_Party/LoRaWAN/Mac/region/RegionEU433.c ****         }
 941              		.loc 1 501 0
 942 001c F7E7     		b	.L79
 943              	.LVL63:
 944              	.L80:
 495:../../../../../../Middlewares/Third_Party/LoRaWAN/Mac/region/RegionEU433.c ****             break;
 945              		.loc 1 495 0
 946 001e 0168     		ldr	r1, [r0]
 947 0020 0122     		movs	r2, #1
 948 0022 0348     		ldr	r0, .L84+4
 949              	.LVL64:
 950 0024 FFF7FEFF 		bl	RegionCommonChanMaskCopy
 951              	.LVL65:
 506:../../../../../../Middlewares/Third_Party/LoRaWAN/Mac/region/RegionEU433.c **** }
 952              		.loc 1 506 0
 953 0028 0120     		movs	r0, #1
 496:../../../../../../Middlewares/Third_Party/LoRaWAN/Mac/region/RegionEU433.c ****         }
 954              		.loc 1 496 0
 955 002a F0E7     		b	.L79
 956              	.L85:
 957              		.align	2
 958              	.L84:
 959 002c D2000000 		.word	NvmCtx+210
 960 0030 D0000000 		.word	NvmCtx+208
 961              		.cfi_endproc
 962              	.LFE50:
 963              		.size	RegionEU433ChanMaskSet, .-RegionEU433ChanMaskSet
 964              		.section	.text.RegionEU433ComputeRxWindowParameters,"ax",%progbits
 965              		.align	1
 966              		.p2align 2,,3
 967              		.global	RegionEU433ComputeRxWindowParameters
 968              		.syntax unified
 969              		.code	16
 970              		.thumb_func
 971              		.fpu softvfp
ARM GAS  C:\Users\EBANO_~1\AppData\Local\Temp\ccpYmjAB.s 			page 37


 972              		.type	RegionEU433ComputeRxWindowParameters, %function
 973              	RegionEU433ComputeRxWindowParameters:
 974              	.LFB51:
 510:../../../../../../Middlewares/Third_Party/LoRaWAN/Mac/region/RegionEU433.c ****     double tSymbol = 0.0;
 975              		.loc 1 510 0
 976              		.cfi_startproc
 977              		@ args = 0, pretend = 0, frame = 8
 978              		@ frame_needed = 0, uses_anonymous_args = 0
 979              	.LVL66:
 980 0000 F0B5     		push	{r4, r5, r6, r7, lr}
 981              	.LCFI10:
 982              		.cfi_def_cfa_offset 20
 983              		.cfi_offset 4, -20
 984              		.cfi_offset 5, -16
 985              		.cfi_offset 6, -12
 986              		.cfi_offset 7, -8
 987              		.cfi_offset 14, -4
 988 0002 C646     		mov	lr, r8
 989 0004 00B5     		push	{lr}
 990              	.LCFI11:
 991              		.cfi_def_cfa_offset 24
 992              		.cfi_offset 8, -24
 993 0006 1C00     		movs	r4, r3
 994 0008 86B0     		sub	sp, sp, #24
 995              	.LCFI12:
 996              		.cfi_def_cfa_offset 48
 510:../../../../../../Middlewares/Third_Party/LoRaWAN/Mac/region/RegionEU433.c ****     double tSymbol = 0.0;
 997              		.loc 1 510 0
 998 000a 0D00     		movs	r5, r1
 999 000c 9046     		mov	r8, r2
 514:../../../../../../Middlewares/Third_Party/LoRaWAN/Mac/region/RegionEU433.c ****     rxConfigParams->Bandwidth = GetBandwidth( rxConfigParams->Datarate );
 1000              		.loc 1 514 0
 1001 000e 031C     		adds	r3, r0, #0
 1002              	.LVL67:
 1003 0010 0728     		cmp	r0, #7
 1004 0012 00DD     		ble	.L87
 1005 0014 0723     		movs	r3, #7
 1006              	.L87:
 1007 0016 5EB2     		sxtb	r6, r3
 1008              	.LBB48:
 1009              	.LBB49:
  86:../../../../../../Middlewares/Third_Party/LoRaWAN/Mac/region/RegionEU433.c ****     {
 1010              		.loc 1 86 0
 1011 0018 1A4A     		ldr	r2, .L95
 1012              	.LVL68:
 1013 001a B100     		lsls	r1, r6, #2
 1014              	.LVL69:
 1015              	.LBE49:
 1016              	.LBE48:
 514:../../../../../../Middlewares/Third_Party/LoRaWAN/Mac/region/RegionEU433.c ****     rxConfigParams->Bandwidth = GetBandwidth( rxConfigParams->Datarate );
 1017              		.loc 1 514 0
 1018 001c 6370     		strb	r3, [r4, #1]
 1019              	.LVL70:
 1020              	.LBB52:
 1021              	.LBB50:
  86:../../../../../../Middlewares/Third_Party/LoRaWAN/Mac/region/RegionEU433.c ****     {
 1022              		.loc 1 86 0
ARM GAS  C:\Users\EBANO_~1\AppData\Local\Temp\ccpYmjAB.s 			page 38


 1023 001e 1A4F     		ldr	r7, .L95+4
 1024 0020 5358     		ldr	r3, [r2, r1]
 1025 0022 BB42     		cmp	r3, r7
 1026 0024 24D0     		beq	.L93
 1027 0026 194F     		ldr	r7, .L95+8
 1028 0028 BC46     		mov	ip, r7
 1029 002a 6344     		add	r3, r3, ip
 1030 002c 5F42     		rsbs	r7, r3, #0
 1031 002e 7B41     		adcs	r3, r3, r7
 1032 0030 5B00     		lsls	r3, r3, #1
 1033              	.LBE50:
 1034              	.LBE52:
 515:../../../../../../Middlewares/Third_Party/LoRaWAN/Mac/region/RegionEU433.c **** 
 1035              		.loc 1 515 0
 1036 0032 A370     		strb	r3, [r4, #2]
 517:../../../../../../Middlewares/Third_Party/LoRaWAN/Mac/region/RegionEU433.c ****     { // FSK
 1037              		.loc 1 517 0
 1038 0034 0628     		cmp	r0, #6
 1039 0036 1FDC     		bgt	.L94
 1040              	.L91:
 523:../../../../../../Middlewares/Third_Party/LoRaWAN/Mac/region/RegionEU433.c ****     }
 1041              		.loc 1 523 0
 1042 0038 2023     		movs	r3, #32
 1043 003a 5158     		ldr	r1, [r2, r1]
 1044 003c 9219     		adds	r2, r2, r6
 1045 003e D05C     		ldrb	r0, [r2, r3]
 1046              	.LVL71:
 1047 0040 FFF7FEFF 		bl	RegionCommonComputeSymbolTimeLoRa
 1048              	.LVL72:
 1049 0044 0600     		movs	r6, r0
 1050 0046 0F00     		movs	r7, r1
 1051              	.LVL73:
 1052              	.L92:
 526:../../../../../../Middlewares/Third_Party/LoRaWAN/Mac/region/RegionEU433.c **** }
 1053              		.loc 1 526 0
 1054 0048 114B     		ldr	r3, .L95+12
 1055 004a 5B6E     		ldr	r3, [r3, #100]
 1056 004c 0593     		str	r3, [sp, #20]
 1057 004e 9847     		blx	r3
 1058              	.LVL74:
 1059 0050 2300     		movs	r3, r4
 1060 0052 0834     		adds	r4, r4, #8
 1061              	.LVL75:
 1062 0054 0C33     		adds	r3, r3, #12
 1063              	.LVL76:
 1064 0056 0293     		str	r3, [sp, #8]
 1065 0058 0090     		str	r0, [sp]
 1066 005a 0194     		str	r4, [sp, #4]
 1067 005c 4346     		mov	r3, r8
 1068              	.LVL77:
 1069 005e 2A00     		movs	r2, r5
 1070 0060 3000     		movs	r0, r6
 1071 0062 3900     		movs	r1, r7
 1072 0064 FFF7FEFF 		bl	RegionCommonComputeRxWindowParameters
 1073              	.LVL78:
 527:../../../../../../Middlewares/Third_Party/LoRaWAN/Mac/region/RegionEU433.c **** 
 1074              		.loc 1 527 0
ARM GAS  C:\Users\EBANO_~1\AppData\Local\Temp\ccpYmjAB.s 			page 39


 1075 0068 06B0     		add	sp, sp, #24
 1076              		@ sp needed
 1077              	.LVL79:
 1078              	.LVL80:
 1079              	.LVL81:
 1080 006a 04BC     		pop	{r2}
 1081 006c 9046     		mov	r8, r2
 1082 006e F0BD     		pop	{r4, r5, r6, r7, pc}
 1083              	.LVL82:
 1084              	.L93:
 1085              	.LBB53:
 1086              	.LBB51:
  86:../../../../../../Middlewares/Third_Party/LoRaWAN/Mac/region/RegionEU433.c ****     {
 1087              		.loc 1 86 0
 1088 0070 0123     		movs	r3, #1
 1089              	.LBE51:
 1090              	.LBE53:
 515:../../../../../../Middlewares/Third_Party/LoRaWAN/Mac/region/RegionEU433.c **** 
 1091              		.loc 1 515 0
 1092 0072 A370     		strb	r3, [r4, #2]
 517:../../../../../../Middlewares/Third_Party/LoRaWAN/Mac/region/RegionEU433.c ****     { // FSK
 1093              		.loc 1 517 0
 1094 0074 0628     		cmp	r0, #6
 1095 0076 DFDD     		ble	.L91
 1096              	.L94:
 519:../../../../../../Middlewares/Third_Party/LoRaWAN/Mac/region/RegionEU433.c ****     }
 1097              		.loc 1 519 0
 1098 0078 3220     		movs	r0, #50
 1099              	.LVL83:
 1100 007a FFF7FEFF 		bl	RegionCommonComputeSymbolTimeFsk
 1101              	.LVL84:
 1102 007e 0600     		movs	r6, r0
 1103 0080 0F00     		movs	r7, r1
 1104              	.LVL85:
 1105 0082 E1E7     		b	.L92
 1106              	.L96:
 1107              		.align	2
 1108              	.L95:
 1109 0084 D8000000 		.word	.LANCHOR1
 1110 0088 90D00300 		.word	250000
 1111 008c E05EF8FF 		.word	-500000
 1112 0090 00000000 		.word	Radio
 1113              		.cfi_endproc
 1114              	.LFE51:
 1115              		.size	RegionEU433ComputeRxWindowParameters, .-RegionEU433ComputeRxWindowParameters
 1116              		.section	.text.RegionEU433RxConfig,"ax",%progbits
 1117              		.align	1
 1118              		.p2align 2,,3
 1119              		.global	RegionEU433RxConfig
 1120              		.syntax unified
 1121              		.code	16
 1122              		.thumb_func
 1123              		.fpu softvfp
 1124              		.type	RegionEU433RxConfig, %function
 1125              	RegionEU433RxConfig:
 1126              	.LFB52:
 530:../../../../../../Middlewares/Third_Party/LoRaWAN/Mac/region/RegionEU433.c ****     RadioModems_t modem;
ARM GAS  C:\Users\EBANO_~1\AppData\Local\Temp\ccpYmjAB.s 			page 40


 1127              		.loc 1 530 0
 1128              		.cfi_startproc
 1129              		@ args = 0, pretend = 0, frame = 8
 1130              		@ frame_needed = 0, uses_anonymous_args = 0
 1131              	.LVL86:
 1132 0000 F0B5     		push	{r4, r5, r6, r7, lr}
 1133              	.LCFI13:
 1134              		.cfi_def_cfa_offset 20
 1135              		.cfi_offset 4, -20
 1136              		.cfi_offset 5, -16
 1137              		.cfi_offset 6, -12
 1138              		.cfi_offset 7, -8
 1139              		.cfi_offset 14, -4
 1140 0002 D646     		mov	lr, r10
 1141 0004 4646     		mov	r6, r8
 1142 0006 4F46     		mov	r7, r9
 1143 0008 C0B5     		push	{r6, r7, lr}
 1144              	.LCFI14:
 1145              		.cfi_def_cfa_offset 32
 1146              		.cfi_offset 8, -32
 1147              		.cfi_offset 9, -28
 1148              		.cfi_offset 10, -24
 532:../../../../../../Middlewares/Third_Party/LoRaWAN/Mac/region/RegionEU433.c ****     uint8_t maxPayload = 0;
 1149              		.loc 1 532 0
 1150 000a 0126     		movs	r6, #1
 535:../../../../../../Middlewares/Third_Party/LoRaWAN/Mac/region/RegionEU433.c **** 
 1151              		.loc 1 535 0
 1152 000c 4368     		ldr	r3, [r0, #4]
 537:../../../../../../Middlewares/Third_Party/LoRaWAN/Mac/region/RegionEU433.c ****     {
 1153              		.loc 1 537 0
 1154 000e 394D     		ldr	r5, .L107
 535:../../../../../../Middlewares/Third_Party/LoRaWAN/Mac/region/RegionEU433.c **** 
 1155              		.loc 1 535 0
 1156 0010 9846     		mov	r8, r3
 537:../../../../../../Middlewares/Third_Party/LoRaWAN/Mac/region/RegionEU433.c ****     {
 1157              		.loc 1 537 0
 1158 0012 EB68     		ldr	r3, [r5, #12]
 530:../../../../../../Middlewares/Third_Party/LoRaWAN/Mac/region/RegionEU433.c ****     RadioModems_t modem;
 1159              		.loc 1 530 0
 1160 0014 8CB0     		sub	sp, sp, #48
 1161              	.LCFI15:
 1162              		.cfi_def_cfa_offset 80
 532:../../../../../../Middlewares/Third_Party/LoRaWAN/Mac/region/RegionEU433.c ****     uint8_t maxPayload = 0;
 1163              		.loc 1 532 0
 1164 0016 8657     		ldrsb	r6, [r0, r6]
 1165              	.LVL87:
 530:../../../../../../Middlewares/Third_Party/LoRaWAN/Mac/region/RegionEU433.c ****     RadioModems_t modem;
 1166              		.loc 1 530 0
 1167 0018 0400     		movs	r4, r0
 537:../../../../../../Middlewares/Third_Party/LoRaWAN/Mac/region/RegionEU433.c ****     {
 1168              		.loc 1 537 0
 1169 001a 0B93     		str	r3, [sp, #44]
 530:../../../../../../Middlewares/Third_Party/LoRaWAN/Mac/region/RegionEU433.c ****     RadioModems_t modem;
 1170              		.loc 1 530 0
 1171 001c 8A46     		mov	r10, r1
 537:../../../../../../Middlewares/Third_Party/LoRaWAN/Mac/region/RegionEU433.c ****     {
 1172              		.loc 1 537 0
ARM GAS  C:\Users\EBANO_~1\AppData\Local\Temp\ccpYmjAB.s 			page 41


 1173 001e 9847     		blx	r3
 1174              	.LVL88:
 539:../../../../../../Middlewares/Third_Party/LoRaWAN/Mac/region/RegionEU433.c ****     }
 1175              		.loc 1 539 0
 1176 0020 0023     		movs	r3, #0
 537:../../../../../../Middlewares/Third_Party/LoRaWAN/Mac/region/RegionEU433.c ****     {
 1177              		.loc 1 537 0
 1178 0022 0028     		cmp	r0, #0
 1179 0024 3ED1     		bne	.L98
 542:../../../../../../Middlewares/Third_Party/LoRaWAN/Mac/region/RegionEU433.c ****     {
 1180              		.loc 1 542 0
 1181 0026 E37C     		ldrb	r3, [r4, #19]
 1182 0028 002B     		cmp	r3, #0
 1183 002a 0AD1     		bne	.L99
 545:../../../../../../Middlewares/Third_Party/LoRaWAN/Mac/region/RegionEU433.c ****         // Apply the alternative RX 1 window frequency, if it is available
 1184              		.loc 1 545 0
 1185 002c 2178     		ldrb	r1, [r4]
 1186 002e 324A     		ldr	r2, .L107+4
 1187 0030 4B00     		lsls	r3, r1, #1
 1188 0032 5B18     		adds	r3, r3, r1
 1189 0034 9B00     		lsls	r3, r3, #2
 1190 0036 9958     		ldr	r1, [r3, r2]
 1191              	.LVL89:
 547:../../../../../../Middlewares/Third_Party/LoRaWAN/Mac/region/RegionEU433.c ****         {
 1192              		.loc 1 547 0
 1193 0038 D318     		adds	r3, r2, r3
 1194 003a 5B68     		ldr	r3, [r3, #4]
 1195 003c 9846     		mov	r8, r3
 1196 003e 002B     		cmp	r3, #0
 1197 0040 56D0     		beq	.L105
 1198              	.LVL90:
 1199              	.L99:
 554:../../../../../../Middlewares/Third_Party/LoRaWAN/Mac/region/RegionEU433.c **** 
 1200              		.loc 1 554 0
 1201 0042 2022     		movs	r2, #32
 1202 0044 2D4B     		ldr	r3, .L107+8
 556:../../../../../../Middlewares/Third_Party/LoRaWAN/Mac/region/RegionEU433.c **** 
 1203              		.loc 1 556 0
 1204 0046 4046     		mov	r0, r8
 554:../../../../../../Middlewares/Third_Party/LoRaWAN/Mac/region/RegionEU433.c **** 
 1205              		.loc 1 554 0
 1206 0048 9B19     		adds	r3, r3, r6
 1207 004a 9B56     		ldrsb	r3, [r3, r2]
 1208 004c 9946     		mov	r9, r3
 1209              	.LVL91:
 556:../../../../../../Middlewares/Third_Party/LoRaWAN/Mac/region/RegionEU433.c **** 
 1210              		.loc 1 556 0
 1211 004e 6B69     		ldr	r3, [r5, #20]
 1212 0050 0B93     		str	r3, [sp, #44]
 1213 0052 9847     		blx	r3
 1214              	.LVL92:
 1215 0054 2B6A     		ldr	r3, [r5, #32]
 1216 0056 0B93     		str	r3, [sp, #44]
 1217 0058 1F00     		movs	r7, r3
 559:../../../../../../Middlewares/Third_Party/LoRaWAN/Mac/region/RegionEU433.c ****     {
 1218              		.loc 1 559 0
 1219 005a 072E     		cmp	r6, #7
ARM GAS  C:\Users\EBANO_~1\AppData\Local\Temp\ccpYmjAB.s 			page 42


 1220 005c 2CD0     		beq	.L106
 1221              	.LVL93:
 567:../../../../../../Middlewares/Third_Party/LoRaWAN/Mac/region/RegionEU433.c ****     }
 1222              		.loc 1 567 0
 1223 005e A37C     		ldrb	r3, [r4, #18]
 1224 0060 2289     		ldrh	r2, [r4, #8]
 1225 0062 0993     		str	r3, [sp, #36]
 1226 0064 0123     		movs	r3, #1
 1227 0066 0292     		str	r2, [sp, #8]
 1228 0068 0893     		str	r3, [sp, #32]
 1229 006a 0822     		movs	r2, #8
 1230 006c 0023     		movs	r3, #0
 1231 006e 0192     		str	r2, [sp, #4]
 1232 0070 0793     		str	r3, [sp, #28]
 1233 0072 0693     		str	r3, [sp, #24]
 1234 0074 0593     		str	r3, [sp, #20]
 1235 0076 0493     		str	r3, [sp, #16]
 1236 0078 0393     		str	r3, [sp, #12]
 1237 007a 0093     		str	r3, [sp]
 1238 007c 0120     		movs	r0, #1
 1239 007e A178     		ldrb	r1, [r4, #2]
 1240 0080 0133     		adds	r3, r3, #1
 1241 0082 4A46     		mov	r2, r9
 1242 0084 B847     		blx	r7
 1243              	.LVL94:
 566:../../../../../../Middlewares/Third_Party/LoRaWAN/Mac/region/RegionEU433.c ****         Radio.SetRxConfig( modem, rxConfig->Bandwidth, phyDr, 1, 0, 8, rxConfig->WindowTimeout, fal
 1244              		.loc 1 566 0
 1245 0086 0120     		movs	r0, #1
 1246              	.LVL95:
 1247              	.L101:
 570:../../../../../../Middlewares/Third_Party/LoRaWAN/Mac/region/RegionEU433.c ****     {
 1248              		.loc 1 570 0
 1249 0088 637C     		ldrb	r3, [r4, #17]
 1250 008a 002B     		cmp	r3, #0
 1251 008c 11D0     		beq	.L102
 572:../../../../../../Middlewares/Third_Party/LoRaWAN/Mac/region/RegionEU433.c ****     }
 1252              		.loc 1 572 0
 1253 008e 1C4B     		ldr	r3, .L107+12
 1254 0090 9B19     		adds	r3, r3, r6
 1255 0092 197A     		ldrb	r1, [r3, #8]
 1256              	.LVL96:
 1257              	.L103:
 578:../../../../../../Middlewares/Third_Party/LoRaWAN/Mac/region/RegionEU433.c ****     TVL1( PRINTF( "RX on freq %d Hz at DR %d\n\r", frequency, dr );)
 1258              		.loc 1 578 0
 1259 0094 EB6D     		ldr	r3, [r5, #92]
 1260 0096 0D31     		adds	r1, r1, #13
 1261              	.LVL97:
 1262 0098 C9B2     		uxtb	r1, r1
 1263 009a 0B93     		str	r3, [sp, #44]
 1264 009c 9847     		blx	r3
 1265              	.LVL98:
 581:../../../../../../Middlewares/Third_Party/LoRaWAN/Mac/region/RegionEU433.c ****     return true;
 1266              		.loc 1 581 0
 1267 009e 5346     		mov	r3, r10
 1268 00a0 1E70     		strb	r6, [r3]
 582:../../../../../../Middlewares/Third_Party/LoRaWAN/Mac/region/RegionEU433.c **** }
 1269              		.loc 1 582 0
ARM GAS  C:\Users\EBANO_~1\AppData\Local\Temp\ccpYmjAB.s 			page 43


 1270 00a2 0123     		movs	r3, #1
 1271              	.LVL99:
 1272              	.L98:
 583:../../../../../../Middlewares/Third_Party/LoRaWAN/Mac/region/RegionEU433.c **** 
 1273              		.loc 1 583 0
 1274 00a4 1800     		movs	r0, r3
 1275 00a6 0CB0     		add	sp, sp, #48
 1276              		@ sp needed
 1277              	.LVL100:
 1278              	.LVL101:
 1279              	.LVL102:
 1280              	.LVL103:
 1281 00a8 1CBC     		pop	{r2, r3, r4}
 1282 00aa 9046     		mov	r8, r2
 1283 00ac 9946     		mov	r9, r3
 1284 00ae A246     		mov	r10, r4
 1285 00b0 F0BD     		pop	{r4, r5, r6, r7, pc}
 1286              	.LVL104:
 1287              	.L102:
 576:../../../../../../Middlewares/Third_Party/LoRaWAN/Mac/region/RegionEU433.c ****     }
 1288              		.loc 1 576 0
 1289 00b2 134B     		ldr	r3, .L107+12
 1290 00b4 995D     		ldrb	r1, [r3, r6]
 1291              	.LVL105:
 1292 00b6 EDE7     		b	.L103
 1293              	.LVL106:
 1294              	.L106:
 562:../../../../../../Middlewares/Third_Party/LoRaWAN/Mac/region/RegionEU433.c ****     }
 1295              		.loc 1 562 0
 1296 00b8 4B46     		mov	r3, r9
 1297 00ba 5A01     		lsls	r2, r3, #5
 1298 00bc D21A     		subs	r2, r2, r3
 1299 00be A37C     		ldrb	r3, [r4, #18]
 1300 00c0 0121     		movs	r1, #1
 1301 00c2 0993     		str	r3, [sp, #36]
 1302 00c4 0023     		movs	r3, #0
 1303 00c6 0893     		str	r3, [sp, #32]
 1304 00c8 0793     		str	r3, [sp, #28]
 1305 00ca 0693     		str	r3, [sp, #24]
 1306 00cc 0493     		str	r3, [sp, #16]
 1307 00ce 0393     		str	r3, [sp, #12]
 1308 00d0 2389     		ldrh	r3, [r4, #8]
 1309 00d2 9200     		lsls	r2, r2, #2
 1310 00d4 0293     		str	r3, [sp, #8]
 1311 00d6 0523     		movs	r3, #5
 1312 00d8 0193     		str	r3, [sp, #4]
 1313 00da 0A4B     		ldr	r3, .L107+16
 1314 00dc 4A44     		add	r2, r2, r9
 1315 00de 0591     		str	r1, [sp, #20]
 1316 00e0 0093     		str	r3, [sp]
 1317 00e2 0020     		movs	r0, #0
 1318 00e4 D200     		lsls	r2, r2, #3
 1319 00e6 0023     		movs	r3, #0
 1320 00e8 0749     		ldr	r1, .L107+20
 1321 00ea B847     		blx	r7
 1322              	.LVL107:
 561:../../../../../../Middlewares/Third_Party/LoRaWAN/Mac/region/RegionEU433.c ****         Radio.SetRxConfig( modem, 50000, phyDr * 1000, 0, 83333, 5, rxConfig->WindowTimeout, false,
ARM GAS  C:\Users\EBANO_~1\AppData\Local\Temp\ccpYmjAB.s 			page 44


 1323              		.loc 1 561 0
 1324 00ec 0020     		movs	r0, #0
 1325 00ee CBE7     		b	.L101
 1326              	.LVL108:
 1327              	.L105:
 545:../../../../../../Middlewares/Third_Party/LoRaWAN/Mac/region/RegionEU433.c ****         // Apply the alternative RX 1 window frequency, if it is available
 1328              		.loc 1 545 0
 1329 00f0 8846     		mov	r8, r1
 1330 00f2 A6E7     		b	.L99
 1331              	.L108:
 1332              		.align	2
 1333              	.L107:
 1334 00f4 00000000 		.word	Radio
 1335 00f8 00000000 		.word	NvmCtx
 1336 00fc D8000000 		.word	.LANCHOR1
 1337 0100 00010000 		.word	.LANCHOR0
 1338 0104 85450100 		.word	83333
 1339 0108 50C30000 		.word	50000
 1340              		.cfi_endproc
 1341              	.LFE52:
 1342              		.size	RegionEU433RxConfig, .-RegionEU433RxConfig
 1343              		.section	.text.RegionEU433TxConfig,"ax",%progbits
 1344              		.align	1
 1345              		.p2align 2,,3
 1346              		.global	RegionEU433TxConfig
 1347              		.syntax unified
 1348              		.code	16
 1349              		.thumb_func
 1350              		.fpu softvfp
 1351              		.type	RegionEU433TxConfig, %function
 1352              	RegionEU433TxConfig:
 1353              	.LFB53:
 586:../../../../../../Middlewares/Third_Party/LoRaWAN/Mac/region/RegionEU433.c ****     RadioModems_t modem;
 1354              		.loc 1 586 0
 1355              		.cfi_startproc
 1356              		@ args = 0, pretend = 0, frame = 8
 1357              		@ frame_needed = 0, uses_anonymous_args = 0
 1358              	.LVL109:
 1359 0000 F0B5     		push	{r4, r5, r6, r7, lr}
 1360              	.LCFI16:
 1361              		.cfi_def_cfa_offset 20
 1362              		.cfi_offset 4, -20
 1363              		.cfi_offset 5, -16
 1364              		.cfi_offset 6, -12
 1365              		.cfi_offset 7, -8
 1366              		.cfi_offset 14, -4
 1367 0002 4546     		mov	r5, r8
 1368 0004 5746     		mov	r7, r10
 1369 0006 4E46     		mov	r6, r9
 1370 0008 DE46     		mov	lr, fp
 1371 000a 9046     		mov	r8, r2
 588:../../../../../../Middlewares/Third_Party/LoRaWAN/Mac/region/RegionEU433.c ****     int8_t txPowerLimited = LimitTxPower( txConfig->TxPower, NvmCtx.Bands[NvmCtx.Channels[txConfig-
 1372              		.loc 1 588 0
 1373 000c 0122     		movs	r2, #1
 1374              	.LVL110:
 586:../../../../../../Middlewares/Third_Party/LoRaWAN/Mac/region/RegionEU433.c ****     RadioModems_t modem;
 1375              		.loc 1 586 0
ARM GAS  C:\Users\EBANO_~1\AppData\Local\Temp\ccpYmjAB.s 			page 45


 1376 000e 0400     		movs	r4, r0
 588:../../../../../../Middlewares/Third_Party/LoRaWAN/Mac/region/RegionEU433.c ****     int8_t txPowerLimited = LimitTxPower( txConfig->TxPower, NvmCtx.Bands[NvmCtx.Channels[txConfig-
 1377              		.loc 1 588 0
 1378 0010 2023     		movs	r3, #32
 586:../../../../../../Middlewares/Third_Party/LoRaWAN/Mac/region/RegionEU433.c ****     RadioModems_t modem;
 1379              		.loc 1 586 0
 1380 0012 E0B5     		push	{r5, r6, r7, lr}
 1381              	.LCFI17:
 1382              		.cfi_def_cfa_offset 36
 1383              		.cfi_offset 8, -36
 1384              		.cfi_offset 9, -32
 1385              		.cfi_offset 10, -28
 1386              		.cfi_offset 11, -24
 1387 0014 8DB0     		sub	sp, sp, #52
 1388              	.LCFI18:
 1389              		.cfi_def_cfa_offset 88
 586:../../../../../../Middlewares/Third_Party/LoRaWAN/Mac/region/RegionEU433.c ****     RadioModems_t modem;
 1390              		.loc 1 586 0
 1391 0016 0A91     		str	r1, [sp, #40]
 588:../../../../../../Middlewares/Third_Party/LoRaWAN/Mac/region/RegionEU433.c ****     int8_t txPowerLimited = LimitTxPower( txConfig->TxPower, NvmCtx.Bands[NvmCtx.Channels[txConfig-
 1392              		.loc 1 588 0
 1393 0018 8256     		ldrsb	r2, [r0, r2]
 1394 001a 4149     		ldr	r1, .L118
 1395              	.LVL111:
 589:../../../../../../Middlewares/Third_Party/LoRaWAN/Mac/region/RegionEU433.c ****     uint32_t bandwidth = GetBandwidth( txConfig->Datarate );
 1396              		.loc 1 589 0
 1397 001c 414D     		ldr	r5, .L118+4
 588:../../../../../../Middlewares/Third_Party/LoRaWAN/Mac/region/RegionEU433.c ****     int8_t txPowerLimited = LimitTxPower( txConfig->TxPower, NvmCtx.Bands[NvmCtx.Channels[txConfig-
 1398              		.loc 1 588 0
 1399 001e 8818     		adds	r0, r1, r2
 1400              	.LVL112:
 1401 0020 C656     		ldrsb	r6, [r0, r3]
 1402              	.LVL113:
 589:../../../../../../Middlewares/Third_Party/LoRaWAN/Mac/region/RegionEU433.c ****     uint32_t bandwidth = GetBandwidth( txConfig->Datarate );
 1403              		.loc 1 589 0
 1404 0022 2078     		ldrb	r0, [r4]
 1405              	.LVL114:
 1406 0024 4300     		lsls	r3, r0, #1
 1407 0026 1B18     		adds	r3, r3, r0
 1408              	.LBB54:
 1409              	.LBB55:
 103:../../../../../../Middlewares/Third_Party/LoRaWAN/Mac/region/RegionEU433.c **** 
 1410              		.loc 1 103 0
 1411 0028 A078     		ldrb	r0, [r4, #2]
 1412              	.LVL115:
 1413              	.LBE55:
 1414              	.LBE54:
 589:../../../../../../Middlewares/Third_Party/LoRaWAN/Mac/region/RegionEU433.c ****     uint32_t bandwidth = GetBandwidth( txConfig->Datarate );
 1415              		.loc 1 589 0
 1416 002a 9B00     		lsls	r3, r3, #2
 1417              	.LBB60:
 1418              	.LBB56:
 103:../../../../../../Middlewares/Third_Party/LoRaWAN/Mac/region/RegionEU433.c **** 
 1419              		.loc 1 103 0
 1420 002c 8446     		mov	ip, r0
 1421 002e 6746     		mov	r7, ip
 1422              	.LBE56:
ARM GAS  C:\Users\EBANO_~1\AppData\Local\Temp\ccpYmjAB.s 			page 46


 1423              	.LBE60:
 589:../../../../../../Middlewares/Third_Party/LoRaWAN/Mac/region/RegionEU433.c ****     uint32_t bandwidth = GetBandwidth( txConfig->Datarate );
 1424              		.loc 1 589 0
 1425 0030 EB18     		adds	r3, r5, r3
 1426 0032 5B7A     		ldrb	r3, [r3, #9]
 1427              	.LBB61:
 1428              	.LBB57:
 103:../../../../../../Middlewares/Third_Party/LoRaWAN/Mac/region/RegionEU433.c **** 
 1429              		.loc 1 103 0
 1430 0034 7FB2     		sxtb	r7, r7
 1431              	.LBE57:
 1432              	.LBE61:
 589:../../../../../../Middlewares/Third_Party/LoRaWAN/Mac/region/RegionEU433.c ****     uint32_t bandwidth = GetBandwidth( txConfig->Datarate );
 1433              		.loc 1 589 0
 1434 0036 0C33     		adds	r3, r3, #12
 1435 0038 1B01     		lsls	r3, r3, #4
 1436 003a EB18     		adds	r3, r5, r3
 1437              	.LBB62:
 1438              	.LBB58:
 103:../../../../../../Middlewares/Third_Party/LoRaWAN/Mac/region/RegionEU433.c **** 
 1439              		.loc 1 103 0
 1440 003c 9B78     		ldrb	r3, [r3, #2]
 1441 003e 181C     		adds	r0, r3, #0
 1442 0040 5BB2     		sxtb	r3, r3
 1443 0042 BB42     		cmp	r3, r7
 1444 0044 00DA     		bge	.L110
 1445 0046 6046     		mov	r0, ip
 1446              	.L110:
 1447 0048 43B2     		sxtb	r3, r0
 1448              	.LBE58:
 1449              	.LBE62:
 1450              	.LBB63:
 1451              	.LBB64:
  86:../../../../../../Middlewares/Third_Party/LoRaWAN/Mac/region/RegionEU433.c ****     {
 1452              		.loc 1 86 0
 1453 004a 9200     		lsls	r2, r2, #2
 1454              	.LVL116:
 1455              	.LBE64:
 1456              	.LBE63:
 1457              	.LBB67:
 1458              	.LBB59:
 103:../../../../../../Middlewares/Third_Party/LoRaWAN/Mac/region/RegionEU433.c **** 
 1459              		.loc 1 103 0
 1460 004c 9946     		mov	r9, r3
 1461              	.LVL117:
 1462              	.LBE59:
 1463              	.LBE67:
 1464              	.LBB68:
 1465              	.LBB65:
  86:../../../../../../Middlewares/Third_Party/LoRaWAN/Mac/region/RegionEU433.c ****     {
 1466              		.loc 1 86 0
 1467 004e 8B58     		ldr	r3, [r1, r2]
 1468 0050 354A     		ldr	r2, .L118+8
 1469 0052 9342     		cmp	r3, r2
 1470 0054 46D0     		beq	.L116
  90:../../../../../../Middlewares/Third_Party/LoRaWAN/Mac/region/RegionEU433.c ****         case 250000:
 1471              		.loc 1 90 0
ARM GAS  C:\Users\EBANO_~1\AppData\Local\Temp\ccpYmjAB.s 			page 47


 1472 0056 354A     		ldr	r2, .L118+12
 1473 0058 9446     		mov	ip, r2
 1474 005a 6344     		add	r3, r3, ip
 1475 005c 5A42     		rsbs	r2, r3, #0
 1476 005e 5341     		adcs	r3, r3, r2
 1477 0060 5B00     		lsls	r3, r3, #1
 1478 0062 9A46     		mov	r10, r3
 1479              	.L112:
 1480              	.LVL118:
 1481              	.LBE65:
 1482              	.LBE68:
 594:../../../../../../Middlewares/Third_Party/LoRaWAN/Mac/region/RegionEU433.c **** 
 1483              		.loc 1 594 0
 1484 0064 A268     		ldr	r2, [r4, #8]
 1485 0066 6168     		ldr	r1, [r4, #4]
 1486 0068 4846     		mov	r0, r9
 1487 006a FFF7FEFF 		bl	RegionCommonComputeTxPower
 1488              	.LVL119:
 597:../../../../../../Middlewares/Third_Party/LoRaWAN/Mac/region/RegionEU433.c **** 
 1489              		.loc 1 597 0
 1490 006e 2278     		ldrb	r2, [r4]
 594:../../../../../../Middlewares/Third_Party/LoRaWAN/Mac/region/RegionEU433.c **** 
 1491              		.loc 1 594 0
 1492 0070 8346     		mov	fp, r0
 1493              	.LVL120:
 597:../../../../../../Middlewares/Third_Party/LoRaWAN/Mac/region/RegionEU433.c **** 
 1494              		.loc 1 597 0
 1495 0072 5300     		lsls	r3, r2, #1
 1496 0074 9B18     		adds	r3, r3, r2
 1497 0076 9B00     		lsls	r3, r3, #2
 1498 0078 E858     		ldr	r0, [r5, r3]
 1499 007a 2D4D     		ldr	r5, .L118+16
 1500 007c 6B69     		ldr	r3, [r5, #20]
 1501 007e 0B93     		str	r3, [sp, #44]
 1502 0080 9847     		blx	r3
 1503              	.LVL121:
 1504 0082 6B6A     		ldr	r3, [r5, #36]
 1505 0084 0B93     		str	r3, [sp, #44]
 599:../../../../../../Middlewares/Third_Party/LoRaWAN/Mac/region/RegionEU433.c ****     { // High Speed FSK channel
 1506              		.loc 1 599 0
 1507 0086 0123     		movs	r3, #1
 1508 0088 E356     		ldrsb	r3, [r4, r3]
 1509 008a 072B     		cmp	r3, #7
 1510 008c 2DD0     		beq	.L117
 1511              	.LVL122:
 607:../../../../../../Middlewares/Third_Party/LoRaWAN/Mac/region/RegionEU433.c ****     }
 1512              		.loc 1 607 0
 1513 008e 294B     		ldr	r3, .L118+20
 1514 0090 0122     		movs	r2, #1
 1515 0092 0893     		str	r3, [sp, #32]
 1516 0094 0023     		movs	r3, #0
 1517 0096 0793     		str	r3, [sp, #28]
 1518 0098 0693     		str	r3, [sp, #24]
 1519 009a 0593     		str	r3, [sp, #20]
 1520 009c 0393     		str	r3, [sp, #12]
 1521 009e 0833     		adds	r3, r3, #8
 1522 00a0 0492     		str	r2, [sp, #16]
ARM GAS  C:\Users\EBANO_~1\AppData\Local\Temp\ccpYmjAB.s 			page 48


 1523 00a2 0293     		str	r3, [sp, #8]
 1524 00a4 0192     		str	r2, [sp, #4]
 1525 00a6 0096     		str	r6, [sp]
 1526 00a8 5346     		mov	r3, r10
 1527 00aa 0B9E     		ldr	r6, [sp, #44]
 1528              	.LVL123:
 1529 00ac 0022     		movs	r2, #0
 1530 00ae 5946     		mov	r1, fp
 1531 00b0 0120     		movs	r0, #1
 1532 00b2 B047     		blx	r6
 1533              	.LVL124:
 606:../../../../../../Middlewares/Third_Party/LoRaWAN/Mac/region/RegionEU433.c ****         Radio.SetTxConfig( modem, phyTxPower, 0, bandwidth, phyDr, 1, 8, false, true, 0, 0, false, 
 1534              		.loc 1 606 0
 1535 00b4 0126     		movs	r6, #1
 1536              	.LVL125:
 1537              	.L115:
 612:../../../../../../Middlewares/Third_Party/LoRaWAN/Mac/region/RegionEU433.c ****     // Get the time-on-air of the next tx frame
 1538              		.loc 1 612 0
 1539 00b6 EB6D     		ldr	r3, [r5, #92]
 1540 00b8 217B     		ldrb	r1, [r4, #12]
 1541 00ba 3000     		movs	r0, r6
 1542 00bc 0B93     		str	r3, [sp, #44]
 1543 00be 9847     		blx	r3
 1544              	.LVL126:
 614:../../../../../../Middlewares/Third_Party/LoRaWAN/Mac/region/RegionEU433.c **** 
 1545              		.loc 1 614 0
 1546 00c0 EB6A     		ldr	r3, [r5, #44]
 1547 00c2 217B     		ldrb	r1, [r4, #12]
 1548 00c4 3000     		movs	r0, r6
 1549 00c6 0B93     		str	r3, [sp, #44]
 1550 00c8 9847     		blx	r3
 1551              	.LVL127:
 1552 00ca 4346     		mov	r3, r8
 1553 00cc 1860     		str	r0, [r3]
 616:../../../../../../Middlewares/Third_Party/LoRaWAN/Mac/region/RegionEU433.c ****     return true;
 1554              		.loc 1 616 0
 1555 00ce 4B46     		mov	r3, r9
 618:../../../../../../Middlewares/Third_Party/LoRaWAN/Mac/region/RegionEU433.c **** 
 1556              		.loc 1 618 0
 1557 00d0 0120     		movs	r0, #1
 616:../../../../../../Middlewares/Third_Party/LoRaWAN/Mac/region/RegionEU433.c ****     return true;
 1558              		.loc 1 616 0
 1559 00d2 0A9A     		ldr	r2, [sp, #40]
 1560 00d4 1370     		strb	r3, [r2]
 618:../../../../../../Middlewares/Third_Party/LoRaWAN/Mac/region/RegionEU433.c **** 
 1561              		.loc 1 618 0
 1562 00d6 0DB0     		add	sp, sp, #52
 1563              		@ sp needed
 1564              	.LVL128:
 1565              	.LVL129:
 1566              	.LVL130:
 1567              	.LVL131:
 1568 00d8 3CBC     		pop	{r2, r3, r4, r5}
 1569 00da 9046     		mov	r8, r2
 1570 00dc 9946     		mov	r9, r3
 1571 00de A246     		mov	r10, r4
 1572 00e0 AB46     		mov	fp, r5
ARM GAS  C:\Users\EBANO_~1\AppData\Local\Temp\ccpYmjAB.s 			page 49


 1573 00e2 F0BD     		pop	{r4, r5, r6, r7, pc}
 1574              	.LVL132:
 1575              	.L116:
 1576              	.LBB69:
 1577              	.LBB66:
  92:../../../../../../Middlewares/Third_Party/LoRaWAN/Mac/region/RegionEU433.c ****         case 500000:
 1578              		.loc 1 92 0
 1579 00e4 0123     		movs	r3, #1
 1580              	.LVL133:
 1581 00e6 9A46     		mov	r10, r3
 1582 00e8 BCE7     		b	.L112
 1583              	.LVL134:
 1584              	.L117:
 1585              	.LBE66:
 1586              	.LBE69:
 602:../../../../../../Middlewares/Third_Party/LoRaWAN/Mac/region/RegionEU433.c ****     }
 1587              		.loc 1 602 0
 1588 00ea 124B     		ldr	r3, .L118+20
 1589 00ec 0122     		movs	r2, #1
 1590 00ee 0893     		str	r3, [sp, #32]
 1591 00f0 0023     		movs	r3, #0
 1592 00f2 0793     		str	r3, [sp, #28]
 1593 00f4 0693     		str	r3, [sp, #24]
 1594 00f6 0593     		str	r3, [sp, #20]
 1595 00f8 0393     		str	r3, [sp, #12]
 1596 00fa 0193     		str	r3, [sp, #4]
 1597 00fc 7301     		lsls	r3, r6, #5
 1598 00fe 9B1B     		subs	r3, r3, r6
 1599 0100 9B00     		lsls	r3, r3, #2
 1600 0102 9E19     		adds	r6, r3, r6
 1601              	.LVL135:
 1602 0104 0492     		str	r2, [sp, #16]
 1603 0106 F600     		lsls	r6, r6, #3
 1604 0108 0432     		adds	r2, r2, #4
 1605 010a 0292     		str	r2, [sp, #8]
 1606 010c 0096     		str	r6, [sp]
 1607 010e 5346     		mov	r3, r10
 1608 0110 0B9E     		ldr	r6, [sp, #44]
 1609 0112 094A     		ldr	r2, .L118+24
 1610 0114 5946     		mov	r1, fp
 1611 0116 0020     		movs	r0, #0
 1612 0118 B047     		blx	r6
 1613              	.LVL136:
 601:../../../../../../Middlewares/Third_Party/LoRaWAN/Mac/region/RegionEU433.c ****         Radio.SetTxConfig( modem, phyTxPower, 25000, bandwidth, phyDr * 1000, 0, 5, false, true, 0,
 1614              		.loc 1 601 0
 1615 011a 0026     		movs	r6, #0
 1616 011c CBE7     		b	.L115
 1617              	.L119:
 1618 011e C046     		.align	2
 1619              	.L118:
 1620 0120 D8000000 		.word	.LANCHOR1
 1621 0124 00000000 		.word	NvmCtx
 1622 0128 90D00300 		.word	250000
 1623 012c E05EF8FF 		.word	-500000
 1624 0130 00000000 		.word	Radio
 1625 0134 B80B0000 		.word	3000
 1626 0138 A8610000 		.word	25000
ARM GAS  C:\Users\EBANO_~1\AppData\Local\Temp\ccpYmjAB.s 			page 50


 1627              		.cfi_endproc
 1628              	.LFE53:
 1629              		.size	RegionEU433TxConfig, .-RegionEU433TxConfig
 1630              		.section	.text.RegionEU433LinkAdrReq,"ax",%progbits
 1631              		.align	1
 1632              		.p2align 2,,3
 1633              		.global	RegionEU433LinkAdrReq
 1634              		.syntax unified
 1635              		.code	16
 1636              		.thumb_func
 1637              		.fpu softvfp
 1638              		.type	RegionEU433LinkAdrReq, %function
 1639              	RegionEU433LinkAdrReq:
 1640              	.LFB54:
 621:../../../../../../Middlewares/Third_Party/LoRaWAN/Mac/region/RegionEU433.c ****     uint8_t status = 0x07;
 1641              		.loc 1 621 0
 1642              		.cfi_startproc
 1643              		@ args = 4, pretend = 0, frame = 56
 1644              		@ frame_needed = 0, uses_anonymous_args = 0
 1645              	.LVL137:
 1646 0000 F0B5     		push	{r4, r5, r6, r7, lr}
 1647              	.LCFI19:
 1648              		.cfi_def_cfa_offset 20
 1649              		.cfi_offset 4, -20
 1650              		.cfi_offset 5, -16
 1651              		.cfi_offset 6, -12
 1652              		.cfi_offset 7, -8
 1653              		.cfi_offset 14, -4
 1654 0002 5746     		mov	r7, r10
 1655 0004 4E46     		mov	r6, r9
 1656 0006 4546     		mov	r5, r8
 1657 0008 DE46     		mov	lr, fp
 1658 000a E0B5     		push	{r5, r6, r7, lr}
 1659              	.LCFI20:
 1660              		.cfi_def_cfa_offset 36
 1661              		.cfi_offset 8, -36
 1662              		.cfi_offset 9, -32
 1663              		.cfi_offset 10, -28
 1664              		.cfi_offset 11, -24
 1665 000c 8FB0     		sub	sp, sp, #60
 1666              	.LCFI21:
 1667              		.cfi_def_cfa_offset 96
 621:../../../../../../Middlewares/Third_Party/LoRaWAN/Mac/region/RegionEU433.c ****     uint8_t status = 0x07;
 1668              		.loc 1 621 0
 1669 000e 0193     		str	r3, [sp, #4]
 626:../../../../../../Middlewares/Third_Party/LoRaWAN/Mac/region/RegionEU433.c ****     GetPhyParams_t getPhy;
 1670              		.loc 1 626 0
 1671 0010 0023     		movs	r3, #0
 1672              	.LVL138:
 621:../../../../../../Middlewares/Third_Party/LoRaWAN/Mac/region/RegionEU433.c ****     uint8_t status = 0x07;
 1673              		.loc 1 621 0
 1674 0012 9246     		mov	r10, r2
 626:../../../../../../Middlewares/Third_Party/LoRaWAN/Mac/region/RegionEU433.c ****     GetPhyParams_t getPhy;
 1675              		.loc 1 626 0
 1676 0014 02AA     		add	r2, sp, #8
 1677              	.LVL139:
 1678 0016 D380     		strh	r3, [r2, #6]
ARM GAS  C:\Users\EBANO_~1\AppData\Local\Temp\ccpYmjAB.s 			page 51


 622:../../../../../../Middlewares/Third_Party/LoRaWAN/Mac/region/RegionEU433.c ****     RegionCommonLinkAdrParams_t linkAdrParams;
 1679              		.loc 1 622 0
 1680 0018 0733     		adds	r3, r3, #7
 621:../../../../../../Middlewares/Third_Party/LoRaWAN/Mac/region/RegionEU433.c ****     uint8_t status = 0x07;
 1681              		.loc 1 621 0
 1682 001a 0600     		movs	r6, r0
 1683 001c 8B46     		mov	fp, r1
 625:../../../../../../Middlewares/Third_Party/LoRaWAN/Mac/region/RegionEU433.c ****     uint16_t chMask = 0;
 1684              		.loc 1 625 0
 1685 001e 0024     		movs	r4, #0
 622:../../../../../../Middlewares/Third_Party/LoRaWAN/Mac/region/RegionEU433.c ****     RegionCommonLinkAdrParams_t linkAdrParams;
 1686              		.loc 1 622 0
 1687 0020 9946     		mov	r9, r3
 1688              	.LBB75:
 665:../../../../../../Middlewares/Third_Party/LoRaWAN/Mac/region/RegionEU433.c ****                     {
 1689              		.loc 1 665 0
 1690 0022 9846     		mov	r8, r3
 1691 0024 B44F     		ldr	r7, .L276
 1692 0026 04AD     		add	r5, sp, #16
 1693              	.LVL140:
 1694              	.L121:
 1695              	.LBE75:
 631:../../../../../../Middlewares/Third_Party/LoRaWAN/Mac/region/RegionEU433.c ****     {
 1696              		.loc 1 631 0
 1697 0028 337A     		ldrb	r3, [r6, #8]
 1698 002a A342     		cmp	r3, r4
 1699 002c 00D8     		bhi	.LCB1556
 1700 002e 93E0     		b	.L166	@long jump
 1701              	.LCB1556:
 1702              	.L165:
 634:../../../../../../Middlewares/Third_Party/LoRaWAN/Mac/region/RegionEU433.c **** 
 1703              		.loc 1 634 0
 1704 0030 7368     		ldr	r3, [r6, #4]
 1705 0032 2900     		movs	r1, r5
 1706 0034 1819     		adds	r0, r3, r4
 1707 0036 FFF7FEFF 		bl	RegionCommonParseLinkAdrReq
 1708              	.LVL141:
 636:../../../../../../Middlewares/Third_Party/LoRaWAN/Mac/region/RegionEU433.c ****             break; // break loop, since no more request has been found
 1709              		.loc 1 636 0
 1710 003a 0028     		cmp	r0, #0
 1711 003c 00D1     		bne	.LCB1568
 1712 003e 8BE0     		b	.L166	@long jump
 1713              	.LCB1568:
 646:../../../../../../Middlewares/Third_Party/LoRaWAN/Mac/region/RegionEU433.c **** 
 1714              		.loc 1 646 0
 1715 0040 AB88     		ldrh	r3, [r5, #4]
 1716 0042 02AA     		add	r2, sp, #8
 1717 0044 D380     		strh	r3, [r2, #6]
 649:../../../../../../Middlewares/Third_Party/LoRaWAN/Mac/region/RegionEU433.c ****         {
 1718              		.loc 1 649 0
 1719 0046 EA78     		ldrb	r2, [r5, #3]
 640:../../../../../../Middlewares/Third_Party/LoRaWAN/Mac/region/RegionEU433.c **** 
 1720              		.loc 1 640 0
 1721 0048 2418     		adds	r4, r4, r0
 1722              	.LVL142:
 1723 004a E4B2     		uxtb	r4, r4
 1724              	.LVL143:
ARM GAS  C:\Users\EBANO_~1\AppData\Local\Temp\ccpYmjAB.s 			page 52


 646:../../../../../../Middlewares/Third_Party/LoRaWAN/Mac/region/RegionEU433.c **** 
 1725              		.loc 1 646 0
 1726 004c 181C     		adds	r0, r3, #0
 1727              	.LVL144:
 649:../../../../../../Middlewares/Third_Party/LoRaWAN/Mac/region/RegionEU433.c ****         {
 1728              		.loc 1 649 0
 1729 004e 002A     		cmp	r2, #0
 1730 0050 00D0     		beq	.LCB1581
 1731 0052 BFE0     		b	.L125	@long jump
 1732              	.LCB1581:
 651:../../../../../../Middlewares/Third_Party/LoRaWAN/Mac/region/RegionEU433.c ****         }
 1733              		.loc 1 651 0 discriminator 1
 1734 0054 0632     		adds	r2, r2, #6
 1735 0056 9146     		mov	r9, r2
 649:../../../../../../Middlewares/Third_Party/LoRaWAN/Mac/region/RegionEU433.c ****         {
 1736              		.loc 1 649 0 discriminator 1
 1737 0058 002B     		cmp	r3, #0
 1738 005a E5D0     		beq	.L121
 1739              	.LVL145:
 1740              	.LBB76:
 672:../../../../../../Middlewares/Third_Party/LoRaWAN/Mac/region/RegionEU433.c ****                         ( NvmCtx.Channels[i].Frequency == 0 ) )
 1741              		.loc 1 672 0
 1742 005c 0722     		movs	r2, #7
 1743 005e 9146     		mov	r9, r2
 1744 0060 DA07     		lsls	r2, r3, #31
 1745 0062 04D5     		bpl	.L129
 1746 0064 3A68     		ldr	r2, [r7]
 1747 0066 511E     		subs	r1, r2, #1
 1748 0068 8A41     		sbcs	r2, r2, r1
 1749 006a 0632     		adds	r2, r2, #6
 1750 006c 9146     		mov	r9, r2
 1751              	.L129:
 1752              	.LVL146:
 1753 006e 9A07     		lsls	r2, r3, #30
 1754 0070 04D5     		bpl	.L130
 1755 0072 FA68     		ldr	r2, [r7, #12]
 1756 0074 002A     		cmp	r2, #0
 1757 0076 01D1     		bne	.L130
 675:../../../../../../Middlewares/Third_Party/LoRaWAN/Mac/region/RegionEU433.c ****                     }
 1758              		.loc 1 675 0
 1759 0078 0632     		adds	r2, r2, #6
 1760 007a 9146     		mov	r9, r2
 1761              	.LVL147:
 1762              	.L130:
 672:../../../../../../Middlewares/Third_Party/LoRaWAN/Mac/region/RegionEU433.c ****                         ( NvmCtx.Channels[i].Frequency == 0 ) )
 1763              		.loc 1 672 0
 1764 007c 5A07     		lsls	r2, r3, #29
 1765 007e 04D5     		bpl	.L131
 1766 0080 BA69     		ldr	r2, [r7, #24]
 1767 0082 002A     		cmp	r2, #0
 1768 0084 01D1     		bne	.L131
 675:../../../../../../Middlewares/Third_Party/LoRaWAN/Mac/region/RegionEU433.c ****                     }
 1769              		.loc 1 675 0
 1770 0086 0632     		adds	r2, r2, #6
 1771 0088 9146     		mov	r9, r2
 1772              	.LVL148:
 1773              	.L131:
ARM GAS  C:\Users\EBANO_~1\AppData\Local\Temp\ccpYmjAB.s 			page 53


 672:../../../../../../Middlewares/Third_Party/LoRaWAN/Mac/region/RegionEU433.c ****                         ( NvmCtx.Channels[i].Frequency == 0 ) )
 1774              		.loc 1 672 0
 1775 008a 1A07     		lsls	r2, r3, #28
 1776 008c 04D5     		bpl	.L132
 1777 008e 7A6A     		ldr	r2, [r7, #36]
 1778 0090 002A     		cmp	r2, #0
 1779 0092 01D1     		bne	.L132
 675:../../../../../../Middlewares/Third_Party/LoRaWAN/Mac/region/RegionEU433.c ****                     }
 1780              		.loc 1 675 0
 1781 0094 0632     		adds	r2, r2, #6
 1782 0096 9146     		mov	r9, r2
 1783              	.LVL149:
 1784              	.L132:
 672:../../../../../../Middlewares/Third_Party/LoRaWAN/Mac/region/RegionEU433.c ****                         ( NvmCtx.Channels[i].Frequency == 0 ) )
 1785              		.loc 1 672 0
 1786 0098 DA06     		lsls	r2, r3, #27
 1787 009a 04D5     		bpl	.L133
 1788 009c 3A6B     		ldr	r2, [r7, #48]
 1789 009e 002A     		cmp	r2, #0
 1790 00a0 01D1     		bne	.L133
 675:../../../../../../Middlewares/Third_Party/LoRaWAN/Mac/region/RegionEU433.c ****                     }
 1791              		.loc 1 675 0
 1792 00a2 0632     		adds	r2, r2, #6
 1793 00a4 9146     		mov	r9, r2
 1794              	.LVL150:
 1795              	.L133:
 672:../../../../../../Middlewares/Third_Party/LoRaWAN/Mac/region/RegionEU433.c ****                         ( NvmCtx.Channels[i].Frequency == 0 ) )
 1796              		.loc 1 672 0
 1797 00a6 9A06     		lsls	r2, r3, #26
 1798 00a8 04D5     		bpl	.L134
 1799 00aa FA6B     		ldr	r2, [r7, #60]
 1800 00ac 002A     		cmp	r2, #0
 1801 00ae 01D1     		bne	.L134
 675:../../../../../../Middlewares/Third_Party/LoRaWAN/Mac/region/RegionEU433.c ****                     }
 1802              		.loc 1 675 0
 1803 00b0 0632     		adds	r2, r2, #6
 1804 00b2 9146     		mov	r9, r2
 1805              	.LVL151:
 1806              	.L134:
 672:../../../../../../Middlewares/Third_Party/LoRaWAN/Mac/region/RegionEU433.c ****                         ( NvmCtx.Channels[i].Frequency == 0 ) )
 1807              		.loc 1 672 0
 1808 00b4 5A06     		lsls	r2, r3, #25
 1809 00b6 04D5     		bpl	.L135
 1810 00b8 BA6C     		ldr	r2, [r7, #72]
 1811 00ba 002A     		cmp	r2, #0
 1812 00bc 01D1     		bne	.L135
 675:../../../../../../Middlewares/Third_Party/LoRaWAN/Mac/region/RegionEU433.c ****                     }
 1813              		.loc 1 675 0
 1814 00be 0632     		adds	r2, r2, #6
 1815 00c0 9146     		mov	r9, r2
 1816              	.LVL152:
 1817              	.L135:
 672:../../../../../../Middlewares/Third_Party/LoRaWAN/Mac/region/RegionEU433.c ****                         ( NvmCtx.Channels[i].Frequency == 0 ) )
 1818              		.loc 1 672 0
 1819 00c2 1A06     		lsls	r2, r3, #24
 1820 00c4 04D5     		bpl	.L136
 1821 00c6 7A6D     		ldr	r2, [r7, #84]
ARM GAS  C:\Users\EBANO_~1\AppData\Local\Temp\ccpYmjAB.s 			page 54


 1822 00c8 002A     		cmp	r2, #0
 1823 00ca 01D1     		bne	.L136
 675:../../../../../../Middlewares/Third_Party/LoRaWAN/Mac/region/RegionEU433.c ****                     }
 1824              		.loc 1 675 0
 1825 00cc 0632     		adds	r2, r2, #6
 1826 00ce 9146     		mov	r9, r2
 1827              	.LVL153:
 1828              	.L136:
 672:../../../../../../Middlewares/Third_Party/LoRaWAN/Mac/region/RegionEU433.c ****                         ( NvmCtx.Channels[i].Frequency == 0 ) )
 1829              		.loc 1 672 0
 1830 00d0 DA05     		lsls	r2, r3, #23
 1831 00d2 04D5     		bpl	.L137
 1832 00d4 3A6E     		ldr	r2, [r7, #96]
 1833 00d6 002A     		cmp	r2, #0
 1834 00d8 01D1     		bne	.L137
 675:../../../../../../Middlewares/Third_Party/LoRaWAN/Mac/region/RegionEU433.c ****                     }
 1835              		.loc 1 675 0
 1836 00da 0632     		adds	r2, r2, #6
 1837 00dc 9146     		mov	r9, r2
 1838              	.LVL154:
 1839              	.L137:
 672:../../../../../../Middlewares/Third_Party/LoRaWAN/Mac/region/RegionEU433.c ****                         ( NvmCtx.Channels[i].Frequency == 0 ) )
 1840              		.loc 1 672 0
 1841 00de 9A05     		lsls	r2, r3, #22
 1842 00e0 04D5     		bpl	.L138
 1843 00e2 FA6E     		ldr	r2, [r7, #108]
 1844 00e4 002A     		cmp	r2, #0
 1845 00e6 01D1     		bne	.L138
 675:../../../../../../Middlewares/Third_Party/LoRaWAN/Mac/region/RegionEU433.c ****                     }
 1846              		.loc 1 675 0
 1847 00e8 0632     		adds	r2, r2, #6
 1848 00ea 9146     		mov	r9, r2
 1849              	.LVL155:
 1850              	.L138:
 672:../../../../../../Middlewares/Third_Party/LoRaWAN/Mac/region/RegionEU433.c ****                         ( NvmCtx.Channels[i].Frequency == 0 ) )
 1851              		.loc 1 672 0
 1852 00ec 5A05     		lsls	r2, r3, #21
 1853 00ee 04D5     		bpl	.L139
 1854 00f0 BA6F     		ldr	r2, [r7, #120]
 1855 00f2 002A     		cmp	r2, #0
 1856 00f4 01D1     		bne	.L139
 675:../../../../../../Middlewares/Third_Party/LoRaWAN/Mac/region/RegionEU433.c ****                     }
 1857              		.loc 1 675 0
 1858 00f6 0632     		adds	r2, r2, #6
 1859 00f8 9146     		mov	r9, r2
 1860              	.LVL156:
 1861              	.L139:
 672:../../../../../../Middlewares/Third_Party/LoRaWAN/Mac/region/RegionEU433.c ****                         ( NvmCtx.Channels[i].Frequency == 0 ) )
 1862              		.loc 1 672 0
 1863 00fa 1A05     		lsls	r2, r3, #20
 1864 00fc 05D5     		bpl	.L140
 673:../../../../../../Middlewares/Third_Party/LoRaWAN/Mac/region/RegionEU433.c ****                     {// Trying to enable an undefined channel
 1865              		.loc 1 673 0
 1866 00fe 8422     		movs	r2, #132
 672:../../../../../../Middlewares/Third_Party/LoRaWAN/Mac/region/RegionEU433.c ****                         ( NvmCtx.Channels[i].Frequency == 0 ) )
 1867              		.loc 1 672 0
 1868 0100 BA58     		ldr	r2, [r7, r2]
ARM GAS  C:\Users\EBANO_~1\AppData\Local\Temp\ccpYmjAB.s 			page 55


 1869 0102 002A     		cmp	r2, #0
 1870 0104 01D1     		bne	.L140
 675:../../../../../../Middlewares/Third_Party/LoRaWAN/Mac/region/RegionEU433.c ****                     }
 1871              		.loc 1 675 0
 1872 0106 0632     		adds	r2, r2, #6
 1873 0108 9146     		mov	r9, r2
 1874              	.LVL157:
 1875              	.L140:
 672:../../../../../../Middlewares/Third_Party/LoRaWAN/Mac/region/RegionEU433.c ****                         ( NvmCtx.Channels[i].Frequency == 0 ) )
 1876              		.loc 1 672 0
 1877 010a DA04     		lsls	r2, r3, #19
 1878 010c 05D5     		bpl	.L141
 673:../../../../../../Middlewares/Third_Party/LoRaWAN/Mac/region/RegionEU433.c ****                     {// Trying to enable an undefined channel
 1879              		.loc 1 673 0
 1880 010e 9022     		movs	r2, #144
 672:../../../../../../Middlewares/Third_Party/LoRaWAN/Mac/region/RegionEU433.c ****                         ( NvmCtx.Channels[i].Frequency == 0 ) )
 1881              		.loc 1 672 0
 1882 0110 BA58     		ldr	r2, [r7, r2]
 1883 0112 002A     		cmp	r2, #0
 1884 0114 01D1     		bne	.L141
 675:../../../../../../Middlewares/Third_Party/LoRaWAN/Mac/region/RegionEU433.c ****                     }
 1885              		.loc 1 675 0
 1886 0116 0632     		adds	r2, r2, #6
 1887 0118 9146     		mov	r9, r2
 1888              	.LVL158:
 1889              	.L141:
 672:../../../../../../Middlewares/Third_Party/LoRaWAN/Mac/region/RegionEU433.c ****                         ( NvmCtx.Channels[i].Frequency == 0 ) )
 1890              		.loc 1 672 0
 1891 011a 9A04     		lsls	r2, r3, #18
 1892 011c 05D5     		bpl	.L142
 673:../../../../../../Middlewares/Third_Party/LoRaWAN/Mac/region/RegionEU433.c ****                     {// Trying to enable an undefined channel
 1893              		.loc 1 673 0
 1894 011e 9C22     		movs	r2, #156
 672:../../../../../../Middlewares/Third_Party/LoRaWAN/Mac/region/RegionEU433.c ****                         ( NvmCtx.Channels[i].Frequency == 0 ) )
 1895              		.loc 1 672 0
 1896 0120 BA58     		ldr	r2, [r7, r2]
 1897 0122 002A     		cmp	r2, #0
 1898 0124 01D1     		bne	.L142
 675:../../../../../../Middlewares/Third_Party/LoRaWAN/Mac/region/RegionEU433.c ****                     }
 1899              		.loc 1 675 0
 1900 0126 0632     		adds	r2, r2, #6
 1901 0128 9146     		mov	r9, r2
 1902              	.LVL159:
 1903              	.L142:
 672:../../../../../../Middlewares/Third_Party/LoRaWAN/Mac/region/RegionEU433.c ****                         ( NvmCtx.Channels[i].Frequency == 0 ) )
 1904              		.loc 1 672 0
 1905 012a 5A04     		lsls	r2, r3, #17
 1906 012c 05D5     		bpl	.L143
 673:../../../../../../Middlewares/Third_Party/LoRaWAN/Mac/region/RegionEU433.c ****                     {// Trying to enable an undefined channel
 1907              		.loc 1 673 0
 1908 012e A822     		movs	r2, #168
 672:../../../../../../Middlewares/Third_Party/LoRaWAN/Mac/region/RegionEU433.c ****                         ( NvmCtx.Channels[i].Frequency == 0 ) )
 1909              		.loc 1 672 0
 1910 0130 BA58     		ldr	r2, [r7, r2]
 1911 0132 002A     		cmp	r2, #0
 1912 0134 01D1     		bne	.L143
 675:../../../../../../Middlewares/Third_Party/LoRaWAN/Mac/region/RegionEU433.c ****                     }
ARM GAS  C:\Users\EBANO_~1\AppData\Local\Temp\ccpYmjAB.s 			page 56


 1913              		.loc 1 675 0
 1914 0136 0632     		adds	r2, r2, #6
 1915 0138 9146     		mov	r9, r2
 1916              	.LVL160:
 1917              	.L143:
 672:../../../../../../Middlewares/Third_Party/LoRaWAN/Mac/region/RegionEU433.c ****                         ( NvmCtx.Channels[i].Frequency == 0 ) )
 1918              		.loc 1 672 0
 1919 013a 1BB2     		sxth	r3, r3
 1920 013c 002B     		cmp	r3, #0
 1921 013e 00DB     		blt	.LCB1831
 1922 0140 72E7     		b	.L121	@long jump
 1923              	.LCB1831:
 673:../../../../../../Middlewares/Third_Party/LoRaWAN/Mac/region/RegionEU433.c ****                     {// Trying to enable an undefined channel
 1924              		.loc 1 673 0
 1925 0142 B423     		movs	r3, #180
 672:../../../../../../Middlewares/Third_Party/LoRaWAN/Mac/region/RegionEU433.c ****                         ( NvmCtx.Channels[i].Frequency == 0 ) )
 1926              		.loc 1 672 0
 1927 0144 FB58     		ldr	r3, [r7, r3]
 1928 0146 002B     		cmp	r3, #0
 1929 0148 00D0     		beq	.LCB1835
 1930 014a 6DE7     		b	.L121	@long jump
 1931              	.LCB1835:
 675:../../../../../../Middlewares/Third_Party/LoRaWAN/Mac/region/RegionEU433.c ****                     }
 1932              		.loc 1 675 0
 1933 014c 0633     		adds	r3, r3, #6
 1934 014e 9946     		mov	r9, r3
 1935              	.LVL161:
 1936              	.LBE76:
 631:../../../../../../Middlewares/Third_Party/LoRaWAN/Mac/region/RegionEU433.c ****     {
 1937              		.loc 1 631 0
 1938 0150 337A     		ldrb	r3, [r6, #8]
 1939 0152 A342     		cmp	r3, r4
 1940 0154 00D9     		bls	.LCB1844
 1941 0156 6BE7     		b	.L165	@long jump
 1942              	.LCB1844:
 1943              	.LVL162:
 1944              	.L166:
 687:../../../../../../Middlewares/Third_Party/LoRaWAN/Mac/region/RegionEU433.c ****     linkAdrVerifyParams.AdrEnabled = linkAdrReq->AdrEnabled;
 1945              		.loc 1 687 0
 1946 0158 4B46     		mov	r3, r9
 1947 015a 06A8     		add	r0, sp, #24
 1948 015c 0371     		strb	r3, [r0, #4]
 688:../../../../../../Middlewares/Third_Party/LoRaWAN/Mac/region/RegionEU433.c ****     linkAdrVerifyParams.Datarate = linkAdrParams.Datarate;
 1949              		.loc 1 688 0
 1950 015e B37A     		ldrb	r3, [r6, #10]
 705:../../../../../../Middlewares/Third_Party/LoRaWAN/Mac/region/RegionEU433.c **** 
 1951              		.loc 1 705 0
 1952 0160 02A9     		add	r1, sp, #8
 688:../../../../../../Middlewares/Third_Party/LoRaWAN/Mac/region/RegionEU433.c ****     linkAdrVerifyParams.Datarate = linkAdrParams.Datarate;
 1953              		.loc 1 688 0
 1954 0162 4371     		strb	r3, [r0, #5]
 689:../../../../../../Middlewares/Third_Party/LoRaWAN/Mac/region/RegionEU433.c ****     linkAdrVerifyParams.TxPower = linkAdrParams.TxPower;
 1955              		.loc 1 689 0
 1956 0164 6B78     		ldrb	r3, [r5, #1]
 705:../../../../../../Middlewares/Third_Party/LoRaWAN/Mac/region/RegionEU433.c **** 
 1957              		.loc 1 705 0
 1958 0166 8C46     		mov	ip, r1
ARM GAS  C:\Users\EBANO_~1\AppData\Local\Temp\ccpYmjAB.s 			page 57


 689:../../../../../../Middlewares/Third_Party/LoRaWAN/Mac/region/RegionEU433.c ****     linkAdrVerifyParams.TxPower = linkAdrParams.TxPower;
 1959              		.loc 1 689 0
 1960 0168 8371     		strb	r3, [r0, #6]
 690:../../../../../../Middlewares/Third_Party/LoRaWAN/Mac/region/RegionEU433.c ****     linkAdrVerifyParams.NbRep = linkAdrParams.NbRep;
 1961              		.loc 1 690 0
 1962 016a AB78     		ldrb	r3, [r5, #2]
 705:../../../../../../Middlewares/Third_Party/LoRaWAN/Mac/region/RegionEU433.c **** 
 1963              		.loc 1 705 0
 1964 016c 0A22     		movs	r2, #10
 690:../../../../../../Middlewares/Third_Party/LoRaWAN/Mac/region/RegionEU433.c ****     linkAdrVerifyParams.NbRep = linkAdrParams.NbRep;
 1965              		.loc 1 690 0
 1966 016e C371     		strb	r3, [r0, #7]
 691:../../../../../../Middlewares/Third_Party/LoRaWAN/Mac/region/RegionEU433.c ****     linkAdrVerifyParams.CurrentDatarate = linkAdrReq->CurrentDatarate;
 1967              		.loc 1 691 0
 1968 0170 2B78     		ldrb	r3, [r5]
 705:../../../../../../Middlewares/Third_Party/LoRaWAN/Mac/region/RegionEU433.c **** 
 1969              		.loc 1 705 0
 1970 0172 0921     		movs	r1, #9
 691:../../../../../../Middlewares/Third_Party/LoRaWAN/Mac/region/RegionEU433.c ****     linkAdrVerifyParams.CurrentDatarate = linkAdrReq->CurrentDatarate;
 1971              		.loc 1 691 0
 1972 0174 0372     		strb	r3, [r0, #8]
 692:../../../../../../Middlewares/Third_Party/LoRaWAN/Mac/region/RegionEU433.c ****     linkAdrVerifyParams.CurrentTxPower = linkAdrReq->CurrentTxPower;
 1973              		.loc 1 692 0
 1974 0176 F37A     		ldrb	r3, [r6, #11]
 705:../../../../../../Middlewares/Third_Party/LoRaWAN/Mac/region/RegionEU433.c **** 
 1975              		.loc 1 705 0
 1976 0178 6244     		add	r2, r2, ip
 692:../../../../../../Middlewares/Third_Party/LoRaWAN/Mac/region/RegionEU433.c ****     linkAdrVerifyParams.CurrentTxPower = linkAdrReq->CurrentTxPower;
 1977              		.loc 1 692 0
 1978 017a 4372     		strb	r3, [r0, #9]
 693:../../../../../../Middlewares/Third_Party/LoRaWAN/Mac/region/RegionEU433.c ****     linkAdrVerifyParams.CurrentNbRep = linkAdrReq->CurrentNbRep;
 1979              		.loc 1 693 0
 1980 017c 337B     		ldrb	r3, [r6, #12]
 705:../../../../../../Middlewares/Third_Party/LoRaWAN/Mac/region/RegionEU433.c **** 
 1981              		.loc 1 705 0
 1982 017e 6144     		add	r1, r1, ip
 693:../../../../../../Middlewares/Third_Party/LoRaWAN/Mac/region/RegionEU433.c ****     linkAdrVerifyParams.CurrentNbRep = linkAdrReq->CurrentNbRep;
 1983              		.loc 1 693 0
 1984 0180 8372     		strb	r3, [r0, #10]
 694:../../../../../../Middlewares/Third_Party/LoRaWAN/Mac/region/RegionEU433.c ****     linkAdrVerifyParams.NbChannels = EU433_MAX_NB_CHANNELS;
 1985              		.loc 1 694 0
 1986 0182 737B     		ldrb	r3, [r6, #13]
 699:../../../../../../Middlewares/Third_Party/LoRaWAN/Mac/region/RegionEU433.c ****     linkAdrVerifyParams.MinTxPower = EU433_MIN_TX_POWER;
 1987              		.loc 1 699 0
 1988 0184 8761     		str	r7, [r0, #24]
 694:../../../../../../Middlewares/Third_Party/LoRaWAN/Mac/region/RegionEU433.c ****     linkAdrVerifyParams.NbChannels = EU433_MAX_NB_CHANNELS;
 1989              		.loc 1 694 0
 1990 0186 C372     		strb	r3, [r0, #11]
 695:../../../../../../Middlewares/Third_Party/LoRaWAN/Mac/region/RegionEU433.c ****     linkAdrVerifyParams.ChannelsMask = &chMask;
 1991              		.loc 1 695 0
 1992 0188 1023     		movs	r3, #16
 1993 018a 0373     		strb	r3, [r0, #12]
 696:../../../../../../Middlewares/Third_Party/LoRaWAN/Mac/region/RegionEU433.c ****     linkAdrVerifyParams.MinDatarate = ( int8_t )phyParam.Value;
 1994              		.loc 1 696 0
 1995 018c 02AB     		add	r3, sp, #8
 1996 018e 0633     		adds	r3, r3, #6
 1997 0190 0361     		str	r3, [r0, #16]
ARM GAS  C:\Users\EBANO_~1\AppData\Local\Temp\ccpYmjAB.s 			page 58


 697:../../../../../../Middlewares/Third_Party/LoRaWAN/Mac/region/RegionEU433.c ****     linkAdrVerifyParams.MaxDatarate = EU433_TX_MAX_DATARATE;
 1998              		.loc 1 697 0
 1999 0192 E023     		movs	r3, #224
 2000 0194 DB00     		lsls	r3, r3, #3
 2001 0196 8382     		strh	r3, [r0, #20]
 700:../../../../../../Middlewares/Third_Party/LoRaWAN/Mac/region/RegionEU433.c ****     linkAdrVerifyParams.MaxTxPower = EU433_MAX_TX_POWER;
 2002              		.loc 1 700 0
 2003 0198 0523     		movs	r3, #5
 2004 019a 8383     		strh	r3, [r0, #28]
 702:../../../../../../Middlewares/Third_Party/LoRaWAN/Mac/region/RegionEU433.c **** 
 2005              		.loc 1 702 0
 2006 019c 3368     		ldr	r3, [r6]
 2007 019e 0693     		str	r3, [sp, #24]
 705:../../../../../../Middlewares/Third_Party/LoRaWAN/Mac/region/RegionEU433.c **** 
 2008              		.loc 1 705 0
 2009 01a0 2B00     		movs	r3, r5
 2010 01a2 FFF7FEFF 		bl	RegionCommonLinkAdrReqVerifyParams
 2011              	.LVL163:
 2012 01a6 0600     		movs	r6, r0
 2013              	.LVL164:
 708:../../../../../../Middlewares/Third_Party/LoRaWAN/Mac/region/RegionEU433.c ****     {
 2014              		.loc 1 708 0
 2015 01a8 0728     		cmp	r0, #7
 2016 01aa 00D1     		bne	.LCB1895
 2017 01ac 91E0     		b	.L274	@long jump
 2018              	.LCB1895:
 2019              	.LVL165:
 2020              	.L124:
 717:../../../../../../Middlewares/Third_Party/LoRaWAN/Mac/region/RegionEU433.c ****     *txPowOut = linkAdrParams.TxPower;
 2021              		.loc 1 717 0
 2022 01ae 5A46     		mov	r2, fp
 2023 01b0 6B78     		ldrb	r3, [r5, #1]
 723:../../../../../../Middlewares/Third_Party/LoRaWAN/Mac/region/RegionEU433.c **** 
 2024              		.loc 1 723 0
 2025 01b2 3000     		movs	r0, r6
 717:../../../../../../Middlewares/Third_Party/LoRaWAN/Mac/region/RegionEU433.c ****     *txPowOut = linkAdrParams.TxPower;
 2026              		.loc 1 717 0
 2027 01b4 1370     		strb	r3, [r2]
 718:../../../../../../Middlewares/Third_Party/LoRaWAN/Mac/region/RegionEU433.c ****     *nbRepOut = linkAdrParams.NbRep;
 2028              		.loc 1 718 0
 2029 01b6 5246     		mov	r2, r10
 2030 01b8 AB78     		ldrb	r3, [r5, #2]
 2031 01ba 1370     		strb	r3, [r2]
 719:../../../../../../Middlewares/Third_Party/LoRaWAN/Mac/region/RegionEU433.c ****     *nbBytesParsed = bytesProcessed;
 2032              		.loc 1 719 0
 2033 01bc 2B78     		ldrb	r3, [r5]
 2034 01be 019A     		ldr	r2, [sp, #4]
 2035 01c0 1370     		strb	r3, [r2]
 720:../../../../../../Middlewares/Third_Party/LoRaWAN/Mac/region/RegionEU433.c **** 
 2036              		.loc 1 720 0
 2037 01c2 189B     		ldr	r3, [sp, #96]
 2038 01c4 1C70     		strb	r4, [r3]
 723:../../../../../../Middlewares/Third_Party/LoRaWAN/Mac/region/RegionEU433.c **** 
 2039              		.loc 1 723 0
 2040 01c6 0FB0     		add	sp, sp, #60
 2041              		@ sp needed
 2042              	.LVL166:
ARM GAS  C:\Users\EBANO_~1\AppData\Local\Temp\ccpYmjAB.s 			page 59


 2043              	.LVL167:
 2044              	.LVL168:
 2045 01c8 3CBC     		pop	{r2, r3, r4, r5}
 2046 01ca 9046     		mov	r8, r2
 2047 01cc 9946     		mov	r9, r3
 2048 01ce A246     		mov	r10, r4
 2049 01d0 AB46     		mov	fp, r5
 2050 01d2 F0BD     		pop	{r4, r5, r6, r7, pc}
 2051              	.LVL169:
 2052              	.L125:
 651:../../../../../../Middlewares/Third_Party/LoRaWAN/Mac/region/RegionEU433.c ****         }
 2053              		.loc 1 651 0
 2054 01d4 0621     		movs	r1, #6
 2055 01d6 8946     		mov	r9, r1
 653:../../../../../../Middlewares/Third_Party/LoRaWAN/Mac/region/RegionEU433.c ****                 ( linkAdrParams.ChMaskCtrl >= 7 ) )
 2056              		.loc 1 653 0
 2057 01d8 511E     		subs	r1, r2, #1
 2058 01da 0429     		cmp	r1, #4
 2059 01dc 00D8     		bhi	.LCB1946
 2060 01de 23E7     		b	.L121	@long jump
 2061              	.LCB1946:
 653:../../../../../../Middlewares/Third_Party/LoRaWAN/Mac/region/RegionEU433.c ****                 ( linkAdrParams.ChMaskCtrl >= 7 ) )
 2062              		.loc 1 653 0 is_stmt 0 discriminator 1
 2063 01e0 062A     		cmp	r2, #6
 2064 01e2 00D0     		beq	.LCB1948
 2065 01e4 20E7     		b	.L121	@long jump
 2066              	.LCB1948:
 2067              	.LVL170:
 2068              	.LBB77:
 665:../../../../../../Middlewares/Third_Party/LoRaWAN/Mac/region/RegionEU433.c ****                     {
 2069              		.loc 1 665 0 is_stmt 1
 2070 01e6 3968     		ldr	r1, [r7]
 2071 01e8 0022     		movs	r2, #0
 2072 01ea 0029     		cmp	r1, #0
 2073 01ec 02D0     		beq	.L146
 667:../../../../../../Middlewares/Third_Party/LoRaWAN/Mac/region/RegionEU433.c ****                     }
 2074              		.loc 1 667 0
 2075 01ee 0123     		movs	r3, #1
 2076 01f0 0132     		adds	r2, r2, #1
 2077 01f2 0343     		orrs	r3, r0
 2078              	.L146:
 2079              	.LVL171:
 665:../../../../../../Middlewares/Third_Party/LoRaWAN/Mac/region/RegionEU433.c ****                     {
 2080              		.loc 1 665 0
 2081 01f4 F968     		ldr	r1, [r7, #12]
 2082 01f6 0029     		cmp	r1, #0
 2083 01f8 02D0     		beq	.L147
 667:../../../../../../Middlewares/Third_Party/LoRaWAN/Mac/region/RegionEU433.c ****                     }
 2084              		.loc 1 667 0
 2085 01fa 0222     		movs	r2, #2
 2086 01fc 1343     		orrs	r3, r2
 2087 01fe 0122     		movs	r2, #1
 2088              	.L147:
 2089              	.LVL172:
 665:../../../../../../Middlewares/Third_Party/LoRaWAN/Mac/region/RegionEU433.c ****                     {
 2090              		.loc 1 665 0
 2091 0200 B969     		ldr	r1, [r7, #24]
ARM GAS  C:\Users\EBANO_~1\AppData\Local\Temp\ccpYmjAB.s 			page 60


 2092 0202 0029     		cmp	r1, #0
 2093 0204 02D0     		beq	.L148
 667:../../../../../../Middlewares/Third_Party/LoRaWAN/Mac/region/RegionEU433.c ****                     }
 2094              		.loc 1 667 0
 2095 0206 0422     		movs	r2, #4
 2096 0208 1343     		orrs	r3, r2
 2097 020a 0122     		movs	r2, #1
 2098              	.L148:
 2099              	.LVL173:
 665:../../../../../../Middlewares/Third_Party/LoRaWAN/Mac/region/RegionEU433.c ****                     {
 2100              		.loc 1 665 0
 2101 020c 796A     		ldr	r1, [r7, #36]
 2102 020e 0029     		cmp	r1, #0
 2103 0210 02D0     		beq	.L149
 667:../../../../../../Middlewares/Third_Party/LoRaWAN/Mac/region/RegionEU433.c ****                     }
 2104              		.loc 1 667 0
 2105 0212 0822     		movs	r2, #8
 2106 0214 1343     		orrs	r3, r2
 2107 0216 0122     		movs	r2, #1
 2108              	.L149:
 2109              	.LVL174:
 665:../../../../../../Middlewares/Third_Party/LoRaWAN/Mac/region/RegionEU433.c ****                     {
 2110              		.loc 1 665 0
 2111 0218 396B     		ldr	r1, [r7, #48]
 2112 021a 0029     		cmp	r1, #0
 2113 021c 02D0     		beq	.L150
 667:../../../../../../Middlewares/Third_Party/LoRaWAN/Mac/region/RegionEU433.c ****                     }
 2114              		.loc 1 667 0
 2115 021e 1022     		movs	r2, #16
 2116 0220 1343     		orrs	r3, r2
 2117 0222 0122     		movs	r2, #1
 2118              	.L150:
 2119              	.LVL175:
 665:../../../../../../Middlewares/Third_Party/LoRaWAN/Mac/region/RegionEU433.c ****                     {
 2120              		.loc 1 665 0
 2121 0224 F96B     		ldr	r1, [r7, #60]
 2122 0226 0029     		cmp	r1, #0
 2123 0228 02D0     		beq	.L151
 667:../../../../../../Middlewares/Third_Party/LoRaWAN/Mac/region/RegionEU433.c ****                     }
 2124              		.loc 1 667 0
 2125 022a 2022     		movs	r2, #32
 2126 022c 1343     		orrs	r3, r2
 2127 022e 0122     		movs	r2, #1
 2128              	.L151:
 2129              	.LVL176:
 665:../../../../../../Middlewares/Third_Party/LoRaWAN/Mac/region/RegionEU433.c ****                     {
 2130              		.loc 1 665 0
 2131 0230 B96C     		ldr	r1, [r7, #72]
 2132 0232 0029     		cmp	r1, #0
 2133 0234 02D0     		beq	.L152
 667:../../../../../../Middlewares/Third_Party/LoRaWAN/Mac/region/RegionEU433.c ****                     }
 2134              		.loc 1 667 0
 2135 0236 4022     		movs	r2, #64
 2136 0238 1343     		orrs	r3, r2
 2137 023a 0122     		movs	r2, #1
 2138              	.L152:
 2139              	.LVL177:
ARM GAS  C:\Users\EBANO_~1\AppData\Local\Temp\ccpYmjAB.s 			page 61


 665:../../../../../../Middlewares/Third_Party/LoRaWAN/Mac/region/RegionEU433.c ****                     {
 2140              		.loc 1 665 0
 2141 023c 796D     		ldr	r1, [r7, #84]
 2142 023e 0029     		cmp	r1, #0
 2143 0240 02D0     		beq	.L153
 667:../../../../../../Middlewares/Third_Party/LoRaWAN/Mac/region/RegionEU433.c ****                     }
 2144              		.loc 1 667 0
 2145 0242 8022     		movs	r2, #128
 2146 0244 1343     		orrs	r3, r2
 2147 0246 0122     		movs	r2, #1
 2148              	.L153:
 2149              	.LVL178:
 665:../../../../../../Middlewares/Third_Party/LoRaWAN/Mac/region/RegionEU433.c ****                     {
 2150              		.loc 1 665 0
 2151 0248 396E     		ldr	r1, [r7, #96]
 2152 024a 0029     		cmp	r1, #0
 2153 024c 03D0     		beq	.L154
 667:../../../../../../Middlewares/Third_Party/LoRaWAN/Mac/region/RegionEU433.c ****                     }
 2154              		.loc 1 667 0
 2155 024e 8022     		movs	r2, #128
 2156 0250 5200     		lsls	r2, r2, #1
 2157 0252 1343     		orrs	r3, r2
 2158 0254 FF3A     		subs	r2, r2, #255
 2159              	.L154:
 2160              	.LVL179:
 665:../../../../../../Middlewares/Third_Party/LoRaWAN/Mac/region/RegionEU433.c ****                     {
 2161              		.loc 1 665 0
 2162 0256 F96E     		ldr	r1, [r7, #108]
 2163 0258 0029     		cmp	r1, #0
 2164 025a 03D0     		beq	.L155
 667:../../../../../../Middlewares/Third_Party/LoRaWAN/Mac/region/RegionEU433.c ****                     }
 2165              		.loc 1 667 0
 2166 025c 8022     		movs	r2, #128
 2167 025e 9200     		lsls	r2, r2, #2
 2168 0260 1343     		orrs	r3, r2
 2169 0262 0122     		movs	r2, #1
 2170              	.L155:
 2171              	.LVL180:
 665:../../../../../../Middlewares/Third_Party/LoRaWAN/Mac/region/RegionEU433.c ****                     {
 2172              		.loc 1 665 0
 2173 0264 B96F     		ldr	r1, [r7, #120]
 2174 0266 0029     		cmp	r1, #0
 2175 0268 03D0     		beq	.L156
 667:../../../../../../Middlewares/Third_Party/LoRaWAN/Mac/region/RegionEU433.c ****                     }
 2176              		.loc 1 667 0
 2177 026a 8022     		movs	r2, #128
 2178 026c D200     		lsls	r2, r2, #3
 2179 026e 1343     		orrs	r3, r2
 2180 0270 0122     		movs	r2, #1
 2181              	.L156:
 2182              	.LVL181:
 665:../../../../../../Middlewares/Third_Party/LoRaWAN/Mac/region/RegionEU433.c ****                     {
 2183              		.loc 1 665 0
 2184 0272 8421     		movs	r1, #132
 2185 0274 7958     		ldr	r1, [r7, r1]
 2186 0276 0029     		cmp	r1, #0
 2187 0278 03D0     		beq	.L157
ARM GAS  C:\Users\EBANO_~1\AppData\Local\Temp\ccpYmjAB.s 			page 62


 667:../../../../../../Middlewares/Third_Party/LoRaWAN/Mac/region/RegionEU433.c ****                     }
 2188              		.loc 1 667 0
 2189 027a 8022     		movs	r2, #128
 2190 027c 1201     		lsls	r2, r2, #4
 2191 027e 1343     		orrs	r3, r2
 2192 0280 0122     		movs	r2, #1
 2193              	.L157:
 2194              	.LVL182:
 665:../../../../../../Middlewares/Third_Party/LoRaWAN/Mac/region/RegionEU433.c ****                     {
 2195              		.loc 1 665 0
 2196 0282 9021     		movs	r1, #144
 2197 0284 7958     		ldr	r1, [r7, r1]
 2198 0286 0029     		cmp	r1, #0
 2199 0288 03D0     		beq	.L158
 667:../../../../../../Middlewares/Third_Party/LoRaWAN/Mac/region/RegionEU433.c ****                     }
 2200              		.loc 1 667 0
 2201 028a 8022     		movs	r2, #128
 2202 028c 5201     		lsls	r2, r2, #5
 2203 028e 1343     		orrs	r3, r2
 2204 0290 0122     		movs	r2, #1
 2205              	.L158:
 2206              	.LVL183:
 665:../../../../../../Middlewares/Third_Party/LoRaWAN/Mac/region/RegionEU433.c ****                     {
 2207              		.loc 1 665 0
 2208 0292 9C21     		movs	r1, #156
 2209 0294 7958     		ldr	r1, [r7, r1]
 2210 0296 0029     		cmp	r1, #0
 2211 0298 26D1     		bne	.L275
 2212              	.LVL184:
 2213 029a A821     		movs	r1, #168
 2214 029c 7958     		ldr	r1, [r7, r1]
 2215 029e 0029     		cmp	r1, #0
 2216 02a0 0DD0     		beq	.L163
 2217              	.L160:
 667:../../../../../../Middlewares/Third_Party/LoRaWAN/Mac/region/RegionEU433.c ****                     }
 2218              		.loc 1 667 0
 2219 02a2 8022     		movs	r2, #128
 2220 02a4 D201     		lsls	r2, r2, #7
 2221 02a6 1343     		orrs	r3, r2
 2222              	.L273:
 2223              	.LVL185:
 665:../../../../../../Middlewares/Third_Party/LoRaWAN/Mac/region/RegionEU433.c ****                     {
 2224              		.loc 1 665 0
 2225 02a8 B422     		movs	r2, #180
 2226 02aa BA58     		ldr	r2, [r7, r2]
 2227 02ac 002A     		cmp	r2, #0
 2228 02ae 02D0     		beq	.L162
 2229              	.L161:
 667:../../../../../../Middlewares/Third_Party/LoRaWAN/Mac/region/RegionEU433.c ****                     }
 2230              		.loc 1 667 0
 2231 02b0 8022     		movs	r2, #128
 2232 02b2 1202     		lsls	r2, r2, #8
 2233 02b4 1343     		orrs	r3, r2
 2234              	.LVL186:
 2235              	.L162:
 2236 02b6 02AA     		add	r2, sp, #8
 2237 02b8 D380     		strh	r3, [r2, #6]
ARM GAS  C:\Users\EBANO_~1\AppData\Local\Temp\ccpYmjAB.s 			page 63


 665:../../../../../../Middlewares/Third_Party/LoRaWAN/Mac/region/RegionEU433.c ****                     {
 2238              		.loc 1 665 0
 2239 02ba C146     		mov	r9, r8
 2240 02bc B4E6     		b	.L121
 2241              	.LVL187:
 2242              	.L163:
 2243 02be B421     		movs	r1, #180
 2244 02c0 7958     		ldr	r1, [r7, r1]
 2245 02c2 0029     		cmp	r1, #0
 2246 02c4 F4D1     		bne	.L161
 2247              	.LVL188:
 2248 02c6 0721     		movs	r1, #7
 2249 02c8 8946     		mov	r9, r1
 2250 02ca 002A     		cmp	r2, #0
 2251 02cc 00D1     		bne	.LCB2166
 2252 02ce ABE6     		b	.L121	@long jump
 2253              	.LCB2166:
 2254 02d0 F1E7     		b	.L162
 2255              	.LVL189:
 2256              	.L274:
 2257              	.LBE77:
 711:../../../../../../Middlewares/Third_Party/LoRaWAN/Mac/region/RegionEU433.c ****         // Update the channels mask
 2258              		.loc 1 711 0
 2259 02d2 3800     		movs	r0, r7
 2260              	.LVL190:
 2261 02d4 0222     		movs	r2, #2
 2262 02d6 D030     		adds	r0, r0, #208
 2263 02d8 0021     		movs	r1, #0
 2264 02da FFF7FEFF 		bl	memset1
 2265              	.LVL191:
 713:../../../../../../Middlewares/Third_Party/LoRaWAN/Mac/region/RegionEU433.c ****     }
 2266              		.loc 1 713 0
 2267 02de 02AB     		add	r3, sp, #8
 2268 02e0 DA88     		ldrh	r2, [r3, #6]
 2269 02e2 D023     		movs	r3, #208
 2270 02e4 FA52     		strh	r2, [r7, r3]
 2271 02e6 62E7     		b	.L124
 2272              	.LVL192:
 2273              	.L275:
 2274              	.LBB78:
 667:../../../../../../Middlewares/Third_Party/LoRaWAN/Mac/region/RegionEU433.c ****                     }
 2275              		.loc 1 667 0
 2276 02e8 8022     		movs	r2, #128
 2277 02ea 9201     		lsls	r2, r2, #6
 2278 02ec 1343     		orrs	r3, r2
 2279              	.LVL193:
 665:../../../../../../Middlewares/Third_Party/LoRaWAN/Mac/region/RegionEU433.c ****                     {
 2280              		.loc 1 665 0
 2281 02ee A822     		movs	r2, #168
 2282 02f0 BA58     		ldr	r2, [r7, r2]
 2283 02f2 002A     		cmp	r2, #0
 2284 02f4 D5D1     		bne	.L160
 2285 02f6 D7E7     		b	.L273
 2286              	.L277:
 2287              		.align	2
 2288              	.L276:
 2289 02f8 00000000 		.word	NvmCtx
ARM GAS  C:\Users\EBANO_~1\AppData\Local\Temp\ccpYmjAB.s 			page 64


 2290              	.LBE78:
 2291              		.cfi_endproc
 2292              	.LFE54:
 2293              		.size	RegionEU433LinkAdrReq, .-RegionEU433LinkAdrReq
 2294              		.section	.text.RegionEU433RxParamSetupReq,"ax",%progbits
 2295              		.align	1
 2296              		.p2align 2,,3
 2297              		.global	RegionEU433RxParamSetupReq
 2298              		.syntax unified
 2299              		.code	16
 2300              		.thumb_func
 2301              		.fpu softvfp
 2302              		.type	RegionEU433RxParamSetupReq, %function
 2303              	RegionEU433RxParamSetupReq:
 2304              	.LFB55:
 726:../../../../../../Middlewares/Third_Party/LoRaWAN/Mac/region/RegionEU433.c ****     uint8_t status = 0x07;
 2305              		.loc 1 726 0
 2306              		.cfi_startproc
 2307              		@ args = 0, pretend = 0, frame = 8
 2308              		@ frame_needed = 0, uses_anonymous_args = 0
 2309              	.LVL194:
 2310 0000 70B5     		push	{r4, r5, r6, lr}
 2311              	.LCFI22:
 2312              		.cfi_def_cfa_offset 16
 2313              		.cfi_offset 4, -16
 2314              		.cfi_offset 5, -12
 2315              		.cfi_offset 6, -8
 2316              		.cfi_offset 14, -4
 2317              	.LBB79:
 2318              	.LBB80:
 111:../../../../../../Middlewares/Third_Party/LoRaWAN/Mac/region/RegionEU433.c ****     {
 2319              		.loc 1 111 0
 2320 0002 154B     		ldr	r3, .L288
 2321              	.LBE80:
 2322              	.LBE79:
 730:../../../../../../Middlewares/Third_Party/LoRaWAN/Mac/region/RegionEU433.c ****     {
 2323              		.loc 1 730 0
 2324 0004 4568     		ldr	r5, [r0, #4]
 2325              	.LVL195:
 2326              	.LBB84:
 2327              	.LBB81:
 111:../../../../../../Middlewares/Third_Party/LoRaWAN/Mac/region/RegionEU433.c ****     {
 2328              		.loc 1 111 0
 2329 0006 9B6A     		ldr	r3, [r3, #40]
 2330              	.LBE81:
 2331              	.LBE84:
 726:../../../../../../Middlewares/Third_Party/LoRaWAN/Mac/region/RegionEU433.c ****     uint8_t status = 0x07;
 2332              		.loc 1 726 0
 2333 0008 82B0     		sub	sp, sp, #8
 2334              	.LCFI23:
 2335              		.cfi_def_cfa_offset 24
 726:../../../../../../Middlewares/Third_Party/LoRaWAN/Mac/region/RegionEU433.c ****     uint8_t status = 0x07;
 2336              		.loc 1 726 0
 2337 000a 0400     		movs	r4, r0
 2338              	.LBB85:
 2339              	.LBB82:
 111:../../../../../../Middlewares/Third_Party/LoRaWAN/Mac/region/RegionEU433.c ****     {
ARM GAS  C:\Users\EBANO_~1\AppData\Local\Temp\ccpYmjAB.s 			page 65


 2340              		.loc 1 111 0
 2341 000c 2800     		movs	r0, r5
 2342              	.LVL196:
 2343 000e 0193     		str	r3, [sp, #4]
 2344 0010 9847     		blx	r3
 2345              	.LVL197:
 2346 0012 0028     		cmp	r0, #0
 2347 0014 05D0     		beq	.L283
 116:../../../../../../Middlewares/Third_Party/LoRaWAN/Mac/region/RegionEU433.c ****     {
 2348              		.loc 1 116 0
 2349 0016 114B     		ldr	r3, .L288+4
 2350 0018 9C46     		mov	ip, r3
 2351 001a 114B     		ldr	r3, .L288+8
 2352 001c 6544     		add	r5, r5, ip
 2353              	.LVL198:
 2354 001e 9D42     		cmp	r5, r3
 2355 0020 17D9     		bls	.L287
 2356              	.LVL199:
 2357              	.L283:
 2358 0022 0425     		movs	r5, #4
 2359              	.LBE82:
 2360              	.LBE85:
 732:../../../../../../Middlewares/Third_Party/LoRaWAN/Mac/region/RegionEU433.c ****     }
 2361              		.loc 1 732 0
 2362 0024 0626     		movs	r6, #6
 2363              	.L279:
 2364              	.LVL200:
 736:../../../../../../Middlewares/Third_Party/LoRaWAN/Mac/region/RegionEU433.c ****     {
 2365              		.loc 1 736 0
 2366 0026 0020     		movs	r0, #0
 2367 0028 0722     		movs	r2, #7
 2368 002a 2056     		ldrsb	r0, [r4, r0]
 2369 002c 0021     		movs	r1, #0
 2370 002e FFF7FEFF 		bl	RegionCommonValueInRange
 2371              	.LVL201:
 2372 0032 0028     		cmp	r0, #0
 2373 0034 00D0     		beq	.L280
 2374 0036 3500     		movs	r5, r6
 2375              	.L280:
 2376              	.LVL202:
 742:../../../../../../Middlewares/Third_Party/LoRaWAN/Mac/region/RegionEU433.c ****     {
 2377              		.loc 1 742 0
 2378 0038 0120     		movs	r0, #1
 2379 003a 0522     		movs	r2, #5
 2380 003c 2056     		ldrsb	r0, [r4, r0]
 2381 003e 0021     		movs	r1, #0
 2382 0040 FFF7FEFF 		bl	RegionCommonValueInRange
 2383              	.LVL203:
 2384 0044 0028     		cmp	r0, #0
 2385 0046 01D1     		bne	.L281
 744:../../../../../../Middlewares/Third_Party/LoRaWAN/Mac/region/RegionEU433.c ****     }
 2386              		.loc 1 744 0
 2387 0048 FB23     		movs	r3, #251
 2388 004a 1D40     		ands	r5, r3
 2389              	.LVL204:
 2390              	.L281:
 748:../../../../../../Middlewares/Third_Party/LoRaWAN/Mac/region/RegionEU433.c **** 
ARM GAS  C:\Users\EBANO_~1\AppData\Local\Temp\ccpYmjAB.s 			page 66


 2391              		.loc 1 748 0
 2392 004c 2800     		movs	r0, r5
 2393 004e 02B0     		add	sp, sp, #8
 2394              		@ sp needed
 2395              	.LVL205:
 2396              	.LVL206:
 2397 0050 70BD     		pop	{r4, r5, r6, pc}
 2398              	.LVL207:
 2399              	.L287:
 2400              	.LBB86:
 2401              	.LBB83:
 116:../../../../../../Middlewares/Third_Party/LoRaWAN/Mac/region/RegionEU433.c ****     {
 2402              		.loc 1 116 0
 2403 0052 0525     		movs	r5, #5
 2404              	.LVL208:
 2405              	.LBE83:
 2406              	.LBE86:
 727:../../../../../../Middlewares/Third_Party/LoRaWAN/Mac/region/RegionEU433.c **** 
 2407              		.loc 1 727 0
 2408 0054 0726     		movs	r6, #7
 2409 0056 E6E7     		b	.L279
 2410              	.L289:
 2411              		.align	2
 2412              	.L288:
 2413 0058 00000000 		.word	Radio
 2414 005c 28462EE6 		.word	-433175000
 2415 0060 50BC1600 		.word	1490000
 2416              		.cfi_endproc
 2417              	.LFE55:
 2418              		.size	RegionEU433RxParamSetupReq, .-RegionEU433RxParamSetupReq
 2419              		.section	.text.RegionEU433NewChannelReq,"ax",%progbits
 2420              		.align	1
 2421              		.p2align 2,,3
 2422              		.global	RegionEU433NewChannelReq
 2423              		.syntax unified
 2424              		.code	16
 2425              		.thumb_func
 2426              		.fpu softvfp
 2427              		.type	RegionEU433NewChannelReq, %function
 2428              	RegionEU433NewChannelReq:
 2429              	.LFB56:
 751:../../../../../../Middlewares/Third_Party/LoRaWAN/Mac/region/RegionEU433.c ****     uint8_t status = 0x03;
 2430              		.loc 1 751 0
 2431              		.cfi_startproc
 2432              		@ args = 0, pretend = 0, frame = 8
 2433              		@ frame_needed = 0, uses_anonymous_args = 0
 2434              	.LVL209:
 2435 0000 F0B5     		push	{r4, r5, r6, r7, lr}
 2436              	.LCFI24:
 2437              		.cfi_def_cfa_offset 20
 2438              		.cfi_offset 4, -20
 2439              		.cfi_offset 5, -16
 2440              		.cfi_offset 6, -12
 2441              		.cfi_offset 7, -8
 2442              		.cfi_offset 14, -4
 2443 0002 C646     		mov	lr, r8
 2444 0004 00B5     		push	{lr}
ARM GAS  C:\Users\EBANO_~1\AppData\Local\Temp\ccpYmjAB.s 			page 67


 2445              	.LCFI25:
 2446              		.cfi_def_cfa_offset 24
 2447              		.cfi_offset 8, -24
 756:../../../../../../Middlewares/Third_Party/LoRaWAN/Mac/region/RegionEU433.c ****     {
 2448              		.loc 1 756 0
 2449 0006 0468     		ldr	r4, [r0]
 751:../../../../../../Middlewares/Third_Party/LoRaWAN/Mac/region/RegionEU433.c ****     uint8_t status = 0x03;
 2450              		.loc 1 751 0
 2451 0008 82B0     		sub	sp, sp, #8
 2452              	.LCFI26:
 2453              		.cfi_def_cfa_offset 32
 756:../../../../../../Middlewares/Third_Party/LoRaWAN/Mac/region/RegionEU433.c ****     {
 2454              		.loc 1 756 0
 2455 000a 2368     		ldr	r3, [r4]
 2456 000c 0579     		ldrb	r5, [r0, #4]
 2457 000e 002B     		cmp	r3, #0
 2458 0010 06D1     		bne	.L291
 2459              	.LVL210:
 2460              	.LBB93:
 2461              	.LBB94:
 971:../../../../../../Middlewares/Third_Party/LoRaWAN/Mac/region/RegionEU433.c ****     {
 2462              		.loc 1 971 0
 2463 0012 022D     		cmp	r5, #2
 2464 0014 4AD8     		bhi	.L310
 2465              	.LVL211:
 2466              	.L292:
 2467              	.LBE94:
 2468              	.LBE93:
 763:../../../../../../Middlewares/Third_Party/LoRaWAN/Mac/region/RegionEU433.c ****         }
 2469              		.loc 1 763 0
 2470 0016 0020     		movs	r0, #0
 2471              	.L305:
 801:../../../../../../Middlewares/Third_Party/LoRaWAN/Mac/region/RegionEU433.c **** 
 2472              		.loc 1 801 0
 2473 0018 02B0     		add	sp, sp, #8
 2474              		@ sp needed
 2475 001a 04BC     		pop	{r2}
 2476 001c 9046     		mov	r8, r2
 2477 001e F0BD     		pop	{r4, r5, r6, r7, pc}
 2478              	.LVL212:
 2479              	.L291:
 2480              	.LBB96:
 2481              	.LBB97:
 914:../../../../../../Middlewares/Third_Party/LoRaWAN/Mac/region/RegionEU433.c ****     {
 2482              		.loc 1 914 0
 2483 0020 EB1E     		subs	r3, r5, #3
 2484 0022 0C2B     		cmp	r3, #12
 2485 0024 F7D8     		bhi	.L292
 925:../../../../../../Middlewares/Third_Party/LoRaWAN/Mac/region/RegionEU433.c ****     {
 2486              		.loc 1 925 0
 2487 0026 207A     		ldrb	r0, [r4, #8]
 2488              	.LVL213:
 2489 0028 0722     		movs	r2, #7
 2490 002a 0007     		lsls	r0, r0, #28
 2491 002c 0021     		movs	r1, #0
 2492 002e 0017     		asrs	r0, r0, #28
 2493 0030 FFF7FEFF 		bl	RegionCommonValueInRange
ARM GAS  C:\Users\EBANO_~1\AppData\Local\Temp\ccpYmjAB.s 			page 68


 2494              	.LVL214:
 2495 0034 0600     		movs	r6, r0
 2496              	.LVL215:
 929:../../../../../../Middlewares/Third_Party/LoRaWAN/Mac/region/RegionEU433.c ****     {
 2497              		.loc 1 929 0
 2498 0036 0820     		movs	r0, #8
 2499 0038 2056     		ldrsb	r0, [r4, r0]
 2500 003a 0722     		movs	r2, #7
 2501 003c 0011     		asrs	r0, r0, #4
 2502 003e 0021     		movs	r1, #0
 2503 0040 FFF7FEFF 		bl	RegionCommonValueInRange
 2504              	.LVL216:
 931:../../../../../../Middlewares/Third_Party/LoRaWAN/Mac/region/RegionEU433.c ****     }
 2505              		.loc 1 931 0
 2506 0044 0127     		movs	r7, #1
 929:../../../../../../Middlewares/Third_Party/LoRaWAN/Mac/region/RegionEU433.c ****     {
 2507              		.loc 1 929 0
 2508 0046 0028     		cmp	r0, #0
 2509 0048 02D0     		beq	.L294
 925:../../../../../../Middlewares/Third_Party/LoRaWAN/Mac/region/RegionEU433.c ****     {
 2510              		.loc 1 925 0
 2511 004a 7742     		rsbs	r7, r6, #0
 2512 004c 7741     		adcs	r7, r7, r6
 2513              	.LVL217:
 2514 004e FFB2     		uxtb	r7, r7
 2515              	.L294:
 2516              	.LVL218:
 2517 0050 294B     		ldr	r3, .L311
 2518 0052 2668     		ldr	r6, [r4]
 2519 0054 9B6A     		ldr	r3, [r3, #40]
 2520              	.LBB98:
 2521              	.LBB99:
 111:../../../../../../Middlewares/Third_Party/LoRaWAN/Mac/region/RegionEU433.c ****     {
 2522              		.loc 1 111 0
 2523 0056 3000     		movs	r0, r6
 2524 0058 0193     		str	r3, [sp, #4]
 2525              	.LBE99:
 2526              	.LBE98:
 933:../../../../../../Middlewares/Third_Party/LoRaWAN/Mac/region/RegionEU433.c ****     {
 2527              		.loc 1 933 0
 2528 005a 237A     		ldrb	r3, [r4, #8]
 2529 005c 1A07     		lsls	r2, r3, #28
 2530 005e 5BB2     		sxtb	r3, r3
 2531 0060 1217     		asrs	r2, r2, #28
 2532 0062 1B11     		asrs	r3, r3, #4
 2533 0064 9A42     		cmp	r2, r3
 2534 0066 39DC     		bgt	.L295
 2535              	.LVL219:
 2536              	.LBB102:
 2537              	.LBB100:
 111:../../../../../../Middlewares/Third_Party/LoRaWAN/Mac/region/RegionEU433.c ****     {
 2538              		.loc 1 111 0
 2539 0068 019B     		ldr	r3, [sp, #4]
 2540 006a 9847     		blx	r3
 2541              	.LVL220:
 2542 006c 0028     		cmp	r0, #0
 2543 006e 31D0     		beq	.L296
ARM GAS  C:\Users\EBANO_~1\AppData\Local\Temp\ccpYmjAB.s 			page 69


 116:../../../../../../Middlewares/Third_Party/LoRaWAN/Mac/region/RegionEU433.c ****     {
 2544              		.loc 1 116 0
 2545 0070 224B     		ldr	r3, .L311+4
 2546 0072 9C46     		mov	ip, r3
 2547 0074 224B     		ldr	r3, .L311+8
 2548 0076 6644     		add	r6, r6, ip
 2549 0078 9E42     		cmp	r6, r3
 2550 007a 2BD8     		bhi	.L296
 2551              	.LBE100:
 2552              	.LBE102:
 948:../../../../../../Middlewares/Third_Party/LoRaWAN/Mac/region/RegionEU433.c ****     {
 2553              		.loc 1 948 0
 2554 007c 002F     		cmp	r7, #0
 2555 007e 38D1     		bne	.L300
 961:../../../../../../Middlewares/Third_Party/LoRaWAN/Mac/region/RegionEU433.c ****     NvmCtx.Channels[id].Band = 0;
 2556              		.loc 1 961 0
 2557 0080 204B     		ldr	r3, .L311+12
 2558 0082 6E00     		lsls	r6, r5, #1
 2559 0084 9846     		mov	r8, r3
 2560 0086 7619     		adds	r6, r6, r5
 2561 0088 B600     		lsls	r6, r6, #2
 2562 008a 4644     		add	r6, r6, r8
 2563 008c 0C22     		movs	r2, #12
 2564 008e 2100     		movs	r1, r4
 2565 0090 3000     		movs	r0, r6
 2566 0092 FFF7FEFF 		bl	memcpy1
 2567              	.LVL221:
 963:../../../../../../Middlewares/Third_Party/LoRaWAN/Mac/region/RegionEU433.c ****     return LORAMAC_STATUS_OK;
 2568              		.loc 1 963 0
 2569 0096 0122     		movs	r2, #1
 2570 0098 D021     		movs	r1, #208
 2571 009a 4346     		mov	r3, r8
 2572 009c AA40     		lsls	r2, r2, r5
 962:../../../../../../Middlewares/Third_Party/LoRaWAN/Mac/region/RegionEU433.c ****     NvmCtx.ChannelsMask[0] |= ( 1 << id );
 2573              		.loc 1 962 0
 2574 009e 7772     		strb	r7, [r6, #9]
 963:../../../../../../Middlewares/Third_Party/LoRaWAN/Mac/region/RegionEU433.c ****     return LORAMAC_STATUS_OK;
 2575              		.loc 1 963 0
 2576 00a0 5B5A     		ldrh	r3, [r3, r1]
 2577              	.LBE97:
 2578              	.LBE96:
 752:../../../../../../Middlewares/Third_Party/LoRaWAN/Mac/region/RegionEU433.c ****     ChannelAddParams_t channelAdd;
 2579              		.loc 1 752 0
 2580 00a2 0320     		movs	r0, #3
 2581              	.LBB107:
 2582              	.LBB104:
 963:../../../../../../Middlewares/Third_Party/LoRaWAN/Mac/region/RegionEU433.c ****     return LORAMAC_STATUS_OK;
 2583              		.loc 1 963 0
 2584 00a4 1343     		orrs	r3, r2
 2585 00a6 4246     		mov	r2, r8
 2586 00a8 5352     		strh	r3, [r2, r1]
 2587              	.LVL222:
 2588              	.LBE104:
 2589              	.LBE107:
 800:../../../../../../Middlewares/Third_Party/LoRaWAN/Mac/region/RegionEU433.c **** }
 2590              		.loc 1 800 0
 2591 00aa B5E7     		b	.L305
ARM GAS  C:\Users\EBANO_~1\AppData\Local\Temp\ccpYmjAB.s 			page 70


 2592              	.LVL223:
 2593              	.L310:
 2594              	.LBB108:
 2595              	.LBB95:
 977:../../../../../../Middlewares/Third_Party/LoRaWAN/Mac/region/RegionEU433.c **** 
 2596              		.loc 1 977 0
 2597 00ac 6800     		lsls	r0, r5, #1
 2598              	.LVL224:
 2599 00ae 154C     		ldr	r4, .L311+12
 2600 00b0 4019     		adds	r0, r0, r5
 2601 00b2 8000     		lsls	r0, r0, #2
 2602 00b4 0C22     		movs	r2, #12
 2603 00b6 0021     		movs	r1, #0
 2604 00b8 2018     		adds	r0, r4, r0
 2605 00ba FFF7FEFF 		bl	memset
 2606              	.LVL225:
 2607              		.loc 1 979 0
 2608 00be 2000     		movs	r0, r4
 2609 00c0 1022     		movs	r2, #16
 2610 00c2 D030     		adds	r0, r0, #208
 2611 00c4 2900     		movs	r1, r5
 2612 00c6 FFF7FEFF 		bl	RegionCommonChanDisable
 2613              	.LVL226:
 2614 00ca 0300     		movs	r3, r0
 2615              	.LVL227:
 2616              	.LBE95:
 2617              	.LBE108:
 752:../../../../../../Middlewares/Third_Party/LoRaWAN/Mac/region/RegionEU433.c ****     ChannelAddParams_t channelAdd;
 2618              		.loc 1 752 0
 2619 00cc 0320     		movs	r0, #3
 761:../../../../../../Middlewares/Third_Party/LoRaWAN/Mac/region/RegionEU433.c ****         {
 2620              		.loc 1 761 0
 2621 00ce 002B     		cmp	r3, #0
 2622 00d0 A2D1     		bne	.L305
 2623 00d2 A0E7     		b	.L292
 2624              	.LVL228:
 2625              	.L296:
 2626              	.LBB109:
 2627              	.LBB105:
 948:../../../../../../Middlewares/Third_Party/LoRaWAN/Mac/region/RegionEU433.c ****     {
 2628              		.loc 1 948 0
 2629 00d4 002F     		cmp	r7, #0
 2630 00d6 9ED1     		bne	.L292
 2631              	.LBE105:
 2632              	.LBE109:
 779:../../../../../../Middlewares/Third_Party/LoRaWAN/Mac/region/RegionEU433.c ****                 break;
 2633              		.loc 1 779 0
 2634 00d8 0220     		movs	r0, #2
 2635 00da 9DE7     		b	.L305
 2636              	.LVL229:
 2637              	.L295:
 2638              	.LBB110:
 2639              	.LBB106:
 2640              	.LBB103:
 2641              	.LBB101:
 111:../../../../../../Middlewares/Third_Party/LoRaWAN/Mac/region/RegionEU433.c ****     {
 2642              		.loc 1 111 0
ARM GAS  C:\Users\EBANO_~1\AppData\Local\Temp\ccpYmjAB.s 			page 71


 2643 00dc 019B     		ldr	r3, [sp, #4]
 2644 00de 9847     		blx	r3
 2645              	.LVL230:
 2646 00e0 0028     		cmp	r0, #0
 2647 00e2 98D0     		beq	.L292
 116:../../../../../../Middlewares/Third_Party/LoRaWAN/Mac/region/RegionEU433.c ****     {
 2648              		.loc 1 116 0
 2649 00e4 054B     		ldr	r3, .L311+4
 2650 00e6 9C46     		mov	ip, r3
 2651 00e8 054B     		ldr	r3, .L311+8
 2652 00ea 6644     		add	r6, r6, ip
 2653 00ec 9E42     		cmp	r6, r3
 2654 00ee 00D9     		bls	.LCB2585
 2655 00f0 91E7     		b	.L292	@long jump
 2656              	.LCB2585:
 2657              	.LVL231:
 2658              	.L300:
 2659              	.LBE101:
 2660              	.LBE103:
 2661              	.LBE106:
 2662              	.LBE110:
 784:../../../../../../Middlewares/Third_Party/LoRaWAN/Mac/region/RegionEU433.c ****                 break;
 2663              		.loc 1 784 0
 2664 00f2 0120     		movs	r0, #1
 2665 00f4 90E7     		b	.L305
 2666              	.L312:
 2667 00f6 C046     		.align	2
 2668              	.L311:
 2669 00f8 00000000 		.word	Radio
 2670 00fc 28462EE6 		.word	-433175000
 2671 0100 50BC1600 		.word	1490000
 2672 0104 00000000 		.word	NvmCtx
 2673              		.cfi_endproc
 2674              	.LFE56:
 2675              		.size	RegionEU433NewChannelReq, .-RegionEU433NewChannelReq
 2676              		.section	.text.RegionEU433TxParamSetupReq,"ax",%progbits
 2677              		.align	1
 2678              		.p2align 2,,3
 2679              		.global	RegionEU433TxParamSetupReq
 2680              		.syntax unified
 2681              		.code	16
 2682              		.thumb_func
 2683              		.fpu softvfp
 2684              		.type	RegionEU433TxParamSetupReq, %function
 2685              	RegionEU433TxParamSetupReq:
 2686              	.LFB57:
 804:../../../../../../Middlewares/Third_Party/LoRaWAN/Mac/region/RegionEU433.c ****     return -1;
 2687              		.loc 1 804 0
 2688              		.cfi_startproc
 2689              		@ args = 0, pretend = 0, frame = 0
 2690              		@ frame_needed = 0, uses_anonymous_args = 0
 2691              		@ link register save eliminated.
 2692              	.LVL232:
 805:../../../../../../Middlewares/Third_Party/LoRaWAN/Mac/region/RegionEU433.c **** }
 2693              		.loc 1 805 0
 2694 0000 0120     		movs	r0, #1
 2695              	.LVL233:
ARM GAS  C:\Users\EBANO_~1\AppData\Local\Temp\ccpYmjAB.s 			page 72


 806:../../../../../../Middlewares/Third_Party/LoRaWAN/Mac/region/RegionEU433.c **** 
 2696              		.loc 1 806 0
 2697              		@ sp needed
 2698 0002 4042     		rsbs	r0, r0, #0
 2699 0004 7047     		bx	lr
 2700              		.cfi_endproc
 2701              	.LFE57:
 2702              		.size	RegionEU433TxParamSetupReq, .-RegionEU433TxParamSetupReq
 2703 0006 C046     		.section	.text.RegionEU433DlChannelReq,"ax",%progbits
 2704              		.align	1
 2705              		.p2align 2,,3
 2706              		.global	RegionEU433DlChannelReq
 2707              		.syntax unified
 2708              		.code	16
 2709              		.thumb_func
 2710              		.fpu softvfp
 2711              		.type	RegionEU433DlChannelReq, %function
 2712              	RegionEU433DlChannelReq:
 2713              	.LFB58:
 809:../../../../../../Middlewares/Third_Party/LoRaWAN/Mac/region/RegionEU433.c ****     uint8_t status = 0x03;
 2714              		.loc 1 809 0
 2715              		.cfi_startproc
 2716              		@ args = 0, pretend = 0, frame = 8
 2717              		@ frame_needed = 0, uses_anonymous_args = 0
 2718              	.LVL234:
 2719 0000 30B5     		push	{r4, r5, lr}
 2720              	.LCFI27:
 2721              		.cfi_def_cfa_offset 12
 2722              		.cfi_offset 4, -12
 2723              		.cfi_offset 5, -8
 2724              		.cfi_offset 14, -4
 2725              	.LBB111:
 2726              	.LBB112:
 111:../../../../../../Middlewares/Third_Party/LoRaWAN/Mac/region/RegionEU433.c ****     {
 2727              		.loc 1 111 0
 2728 0002 174B     		ldr	r3, .L326
 2729              	.LBE112:
 2730              	.LBE111:
 813:../../../../../../Middlewares/Third_Party/LoRaWAN/Mac/region/RegionEU433.c ****     {
 2731              		.loc 1 813 0
 2732 0004 4468     		ldr	r4, [r0, #4]
 2733              	.LVL235:
 2734              	.LBB115:
 2735              	.LBB113:
 111:../../../../../../Middlewares/Third_Party/LoRaWAN/Mac/region/RegionEU433.c ****     {
 2736              		.loc 1 111 0
 2737 0006 9B6A     		ldr	r3, [r3, #40]
 2738              	.LBE113:
 2739              	.LBE115:
 809:../../../../../../Middlewares/Third_Party/LoRaWAN/Mac/region/RegionEU433.c ****     uint8_t status = 0x03;
 2740              		.loc 1 809 0
 2741 0008 83B0     		sub	sp, sp, #12
 2742              	.LCFI28:
 2743              		.cfi_def_cfa_offset 24
 809:../../../../../../Middlewares/Third_Party/LoRaWAN/Mac/region/RegionEU433.c ****     uint8_t status = 0x03;
 2744              		.loc 1 809 0
 2745 000a 0500     		movs	r5, r0
ARM GAS  C:\Users\EBANO_~1\AppData\Local\Temp\ccpYmjAB.s 			page 73


 2746              	.LBB116:
 2747              	.LBB114:
 111:../../../../../../Middlewares/Third_Party/LoRaWAN/Mac/region/RegionEU433.c ****     {
 2748              		.loc 1 111 0
 2749 000c 2000     		movs	r0, r4
 2750              	.LVL236:
 2751 000e 0193     		str	r3, [sp, #4]
 2752 0010 9847     		blx	r3
 2753              	.LVL237:
 2754 0012 0028     		cmp	r0, #0
 2755 0014 19D0     		beq	.L315
 116:../../../../../../Middlewares/Third_Party/LoRaWAN/Mac/region/RegionEU433.c ****     {
 2756              		.loc 1 116 0
 2757 0016 1348     		ldr	r0, .L326+4
 2758 0018 2978     		ldrb	r1, [r5]
 2759 001a 8446     		mov	ip, r0
 2760 001c 4B00     		lsls	r3, r1, #1
 2761 001e 5B18     		adds	r3, r3, r1
 2762 0020 114A     		ldr	r2, .L326+8
 2763 0022 1248     		ldr	r0, .L326+12
 2764 0024 9B00     		lsls	r3, r3, #2
 2765 0026 6444     		add	r4, r4, ip
 2766              	.LVL238:
 2767 0028 9958     		ldr	r1, [r3, r2]
 2768 002a 8442     		cmp	r4, r0
 2769 002c 05D9     		bls	.L325
 2770              	.LVL239:
 2771              	.LBE114:
 2772              	.LBE116:
 815:../../../../../../Middlewares/Third_Party/LoRaWAN/Mac/region/RegionEU433.c ****     }
 2773              		.loc 1 815 0
 2774 002e 0800     		movs	r0, r1
 2775 0030 411E     		subs	r1, r0, #1
 2776 0032 8841     		sbcs	r0, r0, r1
 2777 0034 4000     		lsls	r0, r0, #1
 2778              	.LVL240:
 2779              	.L319:
 831:../../../../../../Middlewares/Third_Party/LoRaWAN/Mac/region/RegionEU433.c **** 
 2780              		.loc 1 831 0
 2781 0036 03B0     		add	sp, sp, #12
 2782              		@ sp needed
 2783              	.LVL241:
 2784 0038 30BD     		pop	{r4, r5, pc}
 2785              	.LVL242:
 2786              	.L325:
 819:../../../../../../Middlewares/Third_Party/LoRaWAN/Mac/region/RegionEU433.c ****     {
 2787              		.loc 1 819 0
 2788 003a 0120     		movs	r0, #1
 2789 003c 0029     		cmp	r1, #0
 2790 003e FAD0     		beq	.L319
 827:../../../../../../Middlewares/Third_Party/LoRaWAN/Mac/region/RegionEU433.c ****     }
 2791              		.loc 1 827 0
 2792 0040 D318     		adds	r3, r2, r3
 2793 0042 6A68     		ldr	r2, [r5, #4]
 2794 0044 0320     		movs	r0, #3
 2795 0046 5A60     		str	r2, [r3, #4]
 2796 0048 F5E7     		b	.L319
ARM GAS  C:\Users\EBANO_~1\AppData\Local\Temp\ccpYmjAB.s 			page 74


 2797              	.LVL243:
 2798              	.L315:
 819:../../../../../../Middlewares/Third_Party/LoRaWAN/Mac/region/RegionEU433.c ****     {
 2799              		.loc 1 819 0
 2800 004a 2A78     		ldrb	r2, [r5]
 2801 004c 5300     		lsls	r3, r2, #1
 2802 004e 9B18     		adds	r3, r3, r2
 2803 0050 054A     		ldr	r2, .L326+8
 2804 0052 9B00     		lsls	r3, r3, #2
 2805 0054 9858     		ldr	r0, [r3, r2]
 2806 0056 431E     		subs	r3, r0, #1
 2807 0058 9841     		sbcs	r0, r0, r3
 2808 005a 4000     		lsls	r0, r0, #1
 2809 005c EBE7     		b	.L319
 2810              	.L327:
 2811 005e C046     		.align	2
 2812              	.L326:
 2813 0060 00000000 		.word	Radio
 2814 0064 28462EE6 		.word	-433175000
 2815 0068 00000000 		.word	NvmCtx
 2816 006c 50BC1600 		.word	1490000
 2817              		.cfi_endproc
 2818              	.LFE58:
 2819              		.size	RegionEU433DlChannelReq, .-RegionEU433DlChannelReq
 2820              		.section	.text.RegionEU433AlternateDr,"ax",%progbits
 2821              		.align	1
 2822              		.p2align 2,,3
 2823              		.global	RegionEU433AlternateDr
 2824              		.syntax unified
 2825              		.code	16
 2826              		.thumb_func
 2827              		.fpu softvfp
 2828              		.type	RegionEU433AlternateDr, %function
 2829              	RegionEU433AlternateDr:
 2830              	.LFB59:
 834:../../../../../../Middlewares/Third_Party/LoRaWAN/Mac/region/RegionEU433.c ****     return currentDr;
 2831              		.loc 1 834 0
 2832              		.cfi_startproc
 2833              		@ args = 0, pretend = 0, frame = 0
 2834              		@ frame_needed = 0, uses_anonymous_args = 0
 2835              		@ link register save eliminated.
 2836              	.LVL244:
 836:../../../../../../Middlewares/Third_Party/LoRaWAN/Mac/region/RegionEU433.c **** 
 2837              		.loc 1 836 0
 2838              		@ sp needed
 2839 0000 7047     		bx	lr
 2840              		.cfi_endproc
 2841              	.LFE59:
 2842              		.size	RegionEU433AlternateDr, .-RegionEU433AlternateDr
 2843 0002 C046     		.section	.text.RegionEU433CalcBackOff,"ax",%progbits
 2844              		.align	1
 2845              		.p2align 2,,3
 2846              		.global	RegionEU433CalcBackOff
 2847              		.syntax unified
 2848              		.code	16
 2849              		.thumb_func
 2850              		.fpu softvfp
ARM GAS  C:\Users\EBANO_~1\AppData\Local\Temp\ccpYmjAB.s 			page 75


 2851              		.type	RegionEU433CalcBackOff, %function
 2852              	RegionEU433CalcBackOff:
 2853              	.LFB60:
 839:../../../../../../Middlewares/Third_Party/LoRaWAN/Mac/region/RegionEU433.c ****     RegionCommonCalcBackOffParams_t calcBackOffParams;
 2854              		.loc 1 839 0
 2855              		.cfi_startproc
 2856              		@ args = 0, pretend = 0, frame = 24
 2857              		@ frame_needed = 0, uses_anonymous_args = 0
 2858              	.LVL245:
 2859 0000 00B5     		push	{lr}
 2860              	.LCFI29:
 2861              		.cfi_def_cfa_offset 4
 2862              		.cfi_offset 14, -4
 842:../../../../../../Middlewares/Third_Party/LoRaWAN/Mac/region/RegionEU433.c ****     calcBackOffParams.Bands = NvmCtx.Bands;
 2863              		.loc 1 842 0
 2864 0002 0B4A     		ldr	r2, .L330
 839:../../../../../../Middlewares/Third_Party/LoRaWAN/Mac/region/RegionEU433.c ****     RegionCommonCalcBackOffParams_t calcBackOffParams;
 2865              		.loc 1 839 0
 2866 0004 87B0     		sub	sp, sp, #28
 2867              	.LCFI30:
 2868              		.cfi_def_cfa_offset 32
 842:../../../../../../Middlewares/Third_Party/LoRaWAN/Mac/region/RegionEU433.c ****     calcBackOffParams.Bands = NvmCtx.Bands;
 2869              		.loc 1 842 0
 2870 0006 0192     		str	r2, [sp, #4]
 843:../../../../../../Middlewares/Third_Party/LoRaWAN/Mac/region/RegionEU433.c ****     calcBackOffParams.LastTxIsJoinRequest = calcBackOff->LastTxIsJoinRequest;
 2871              		.loc 1 843 0
 2872 0008 C032     		adds	r2, r2, #192
 2873 000a 0292     		str	r2, [sp, #8]
 844:../../../../../../Middlewares/Third_Party/LoRaWAN/Mac/region/RegionEU433.c ****     calcBackOffParams.Joined = calcBackOff->Joined;
 2874              		.loc 1 844 0
 2875 000c 4278     		ldrb	r2, [r0, #1]
 842:../../../../../../Middlewares/Third_Party/LoRaWAN/Mac/region/RegionEU433.c ****     calcBackOffParams.Bands = NvmCtx.Bands;
 2876              		.loc 1 842 0
 2877 000e 01AB     		add	r3, sp, #4
 844:../../../../../../Middlewares/Third_Party/LoRaWAN/Mac/region/RegionEU433.c ****     calcBackOffParams.Joined = calcBackOff->Joined;
 2878              		.loc 1 844 0
 2879 0010 1A72     		strb	r2, [r3, #8]
 845:../../../../../../Middlewares/Third_Party/LoRaWAN/Mac/region/RegionEU433.c ****     calcBackOffParams.DutyCycleEnabled = calcBackOff->DutyCycleEnabled;
 2880              		.loc 1 845 0
 2881 0012 0278     		ldrb	r2, [r0]
 2882 0014 5A72     		strb	r2, [r3, #9]
 846:../../../../../../Middlewares/Third_Party/LoRaWAN/Mac/region/RegionEU433.c ****     calcBackOffParams.Channel = calcBackOff->Channel;
 2883              		.loc 1 846 0
 2884 0016 8278     		ldrb	r2, [r0, #2]
 2885 0018 9A72     		strb	r2, [r3, #10]
 847:../../../../../../Middlewares/Third_Party/LoRaWAN/Mac/region/RegionEU433.c ****     calcBackOffParams.ElapsedTime = calcBackOff->ElapsedTime;
 2886              		.loc 1 847 0
 2887 001a C278     		ldrb	r2, [r0, #3]
 2888 001c DA72     		strb	r2, [r3, #11]
 848:../../../../../../Middlewares/Third_Party/LoRaWAN/Mac/region/RegionEU433.c ****     calcBackOffParams.TxTimeOnAir = calcBackOff->TxTimeOnAir;
 2889              		.loc 1 848 0
 2890 001e 4268     		ldr	r2, [r0, #4]
 2891 0020 0492     		str	r2, [sp, #16]
 849:../../../../../../Middlewares/Third_Party/LoRaWAN/Mac/region/RegionEU433.c **** 
 2892              		.loc 1 849 0
 2893 0022 8268     		ldr	r2, [r0, #8]
 851:../../../../../../Middlewares/Third_Party/LoRaWAN/Mac/region/RegionEU433.c **** }
ARM GAS  C:\Users\EBANO_~1\AppData\Local\Temp\ccpYmjAB.s 			page 76


 2894              		.loc 1 851 0
 2895 0024 1800     		movs	r0, r3
 2896              	.LVL246:
 849:../../../../../../Middlewares/Third_Party/LoRaWAN/Mac/region/RegionEU433.c **** 
 2897              		.loc 1 849 0
 2898 0026 0592     		str	r2, [sp, #20]
 851:../../../../../../Middlewares/Third_Party/LoRaWAN/Mac/region/RegionEU433.c **** }
 2899              		.loc 1 851 0
 2900 0028 FFF7FEFF 		bl	RegionCommonCalcBackOff
 2901              	.LVL247:
 852:../../../../../../Middlewares/Third_Party/LoRaWAN/Mac/region/RegionEU433.c **** 
 2902              		.loc 1 852 0
 2903 002c 07B0     		add	sp, sp, #28
 2904              		@ sp needed
 2905 002e 00BD     		pop	{pc}
 2906              	.L331:
 2907              		.align	2
 2908              	.L330:
 2909 0030 00000000 		.word	NvmCtx
 2910              		.cfi_endproc
 2911              	.LFE60:
 2912              		.size	RegionEU433CalcBackOff, .-RegionEU433CalcBackOff
 2913              		.section	.text.RegionEU433NextChannel,"ax",%progbits
 2914              		.align	1
 2915              		.p2align 2,,3
 2916              		.global	RegionEU433NextChannel
 2917              		.syntax unified
 2918              		.code	16
 2919              		.thumb_func
 2920              		.fpu softvfp
 2921              		.type	RegionEU433NextChannel, %function
 2922              	RegionEU433NextChannel:
 2923              	.LFB61:
 855:../../../../../../Middlewares/Third_Party/LoRaWAN/Mac/region/RegionEU433.c ****     uint8_t nbEnabledChannels = 0;
 2924              		.loc 1 855 0
 2925              		.cfi_startproc
 2926              		@ args = 0, pretend = 0, frame = 40
 2927              		@ frame_needed = 0, uses_anonymous_args = 0
 2928              	.LVL248:
 2929 0000 F0B5     		push	{r4, r5, r6, r7, lr}
 2930              	.LCFI31:
 2931              		.cfi_def_cfa_offset 20
 2932              		.cfi_offset 4, -20
 2933              		.cfi_offset 5, -16
 2934              		.cfi_offset 6, -12
 2935              		.cfi_offset 7, -8
 2936              		.cfi_offset 14, -4
 2937 0002 DE46     		mov	lr, fp
 2938 0004 4E46     		mov	r6, r9
 2939 0006 4546     		mov	r5, r8
 2940 0008 5746     		mov	r7, r10
 2941 000a E0B5     		push	{r5, r6, r7, lr}
 2942              	.LCFI32:
 2943              		.cfi_def_cfa_offset 36
 2944              		.cfi_offset 8, -36
 2945              		.cfi_offset 9, -32
 2946              		.cfi_offset 10, -28
ARM GAS  C:\Users\EBANO_~1\AppData\Local\Temp\ccpYmjAB.s 			page 77


 2947              		.cfi_offset 11, -24
 2948 000c 8BB0     		sub	sp, sp, #44
 2949              	.LCFI33:
 2950              		.cfi_def_cfa_offset 80
 855:../../../../../../Middlewares/Third_Party/LoRaWAN/Mac/region/RegionEU433.c ****     uint8_t nbEnabledChannels = 0;
 2951              		.loc 1 855 0
 2952 000e 0491     		str	r1, [sp, #16]
 2953 0010 0400     		movs	r4, r0
 858:../../../../../../Middlewares/Third_Party/LoRaWAN/Mac/region/RegionEU433.c ****     TimerTime_t nextTxDelay = 0;
 2954              		.loc 1 858 0
 2955 0012 0021     		movs	r1, #0
 2956              	.LVL249:
 855:../../../../../../Middlewares/Third_Party/LoRaWAN/Mac/region/RegionEU433.c ****     uint8_t nbEnabledChannels = 0;
 2957              		.loc 1 855 0
 2958 0014 9346     		mov	fp, r2
 858:../../../../../../Middlewares/Third_Party/LoRaWAN/Mac/region/RegionEU433.c ****     TimerTime_t nextTxDelay = 0;
 2959              		.loc 1 858 0
 2960 0016 06A8     		add	r0, sp, #24
 2961              	.LVL250:
 2962 0018 1022     		movs	r2, #16
 2963              	.LVL251:
 855:../../../../../../Middlewares/Third_Party/LoRaWAN/Mac/region/RegionEU433.c ****     uint8_t nbEnabledChannels = 0;
 2964              		.loc 1 855 0
 2965 001a 1E00     		movs	r6, r3
 858:../../../../../../Middlewares/Third_Party/LoRaWAN/Mac/region/RegionEU433.c ****     TimerTime_t nextTxDelay = 0;
 2966              		.loc 1 858 0
 2967 001c FFF7FEFF 		bl	memset
 2968              	.LVL252:
 861:../../../../../../Middlewares/Third_Party/LoRaWAN/Mac/region/RegionEU433.c ****     { // Reactivate default channels
 2969              		.loc 1 861 0
 2970 0020 644D     		ldr	r5, .L371
 2971 0022 0122     		movs	r2, #1
 2972 0024 0021     		movs	r1, #0
 2973 0026 2800     		movs	r0, r5
 2974 0028 FFF7FEFF 		bl	RegionCommonCountChannels
 2975              	.LVL253:
 2976 002c 0028     		cmp	r0, #0
 2977 002e 05D1     		bne	.L333
 863:../../../../../../Middlewares/Third_Party/LoRaWAN/Mac/region/RegionEU433.c ****     }
 2978              		.loc 1 863 0
 2979 0030 D022     		movs	r2, #208
 2980 0032 0721     		movs	r1, #7
 2981 0034 D03D     		subs	r5, r5, #208
 2982 0036 AB5A     		ldrh	r3, [r5, r2]
 2983 0038 0B43     		orrs	r3, r1
 2984 003a AB52     		strh	r3, [r5, r2]
 2985              	.L333:
 866:../../../../../../Middlewares/Third_Party/LoRaWAN/Mac/region/RegionEU433.c ****     {
 2986              		.loc 1 866 0
 2987 003c 6068     		ldr	r0, [r4, #4]
 2988 003e 2568     		ldr	r5, [r4]
 2989 0040 FFF7FEFF 		bl	TimerGetElapsedTime
 2990              	.LVL254:
 2991 0044 8542     		cmp	r5, r0
 2992 0046 62D8     		bhi	.L334
 869:../../../../../../Middlewares/Third_Party/LoRaWAN/Mac/region/RegionEU433.c **** 
 2993              		.loc 1 869 0
ARM GAS  C:\Users\EBANO_~1\AppData\Local\Temp\ccpYmjAB.s 			page 78


 2994 0048 0023     		movs	r3, #0
 872:../../../../../../Middlewares/Third_Party/LoRaWAN/Mac/region/RegionEU433.c **** 
 2995              		.loc 1 872 0
 2996 004a 5B4D     		ldr	r5, .L371+4
 869:../../../../../../Middlewares/Third_Party/LoRaWAN/Mac/region/RegionEU433.c **** 
 2997              		.loc 1 869 0
 2998 004c 3360     		str	r3, [r6]
 872:../../../../../../Middlewares/Third_Party/LoRaWAN/Mac/region/RegionEU433.c **** 
 2999              		.loc 1 872 0
 3000 004e A17A     		ldrb	r1, [r4, #10]
 3001 0050 0133     		adds	r3, r3, #1
 3002 0052 607A     		ldrb	r0, [r4, #9]
 3003 0054 2A00     		movs	r2, r5
 3004 0056 FFF7FEFF 		bl	RegionCommonUpdateBandTimeOff
 3005              	.LVL255:
 875:../../../../../../Middlewares/Third_Party/LoRaWAN/Mac/region/RegionEU433.c ****                                                       NvmCtx.ChannelsMask, NvmCtx.Channels,
 3006              		.loc 1 875 0
 3007 005a 0823     		movs	r3, #8
 872:../../../../../../Middlewares/Third_Party/LoRaWAN/Mac/region/RegionEU433.c **** 
 3008              		.loc 1 872 0
 3009 005c 0390     		str	r0, [sp, #12]
 3010              	.LVL256:
 875:../../../../../../Middlewares/Third_Party/LoRaWAN/Mac/region/RegionEU433.c ****                                                       NvmCtx.ChannelsMask, NvmCtx.Channels,
 3011              		.loc 1 875 0
 3012 005e E356     		ldrsb	r3, [r4, r3]
 3013 0060 0193     		str	r3, [sp, #4]
 3014              	.LVL257:
 3015 0062 637A     		ldrb	r3, [r4, #9]
 3016 0064 002B     		cmp	r3, #0
 3017 0066 5DD1     		bne	.L335
 3018 0068 C03D     		subs	r5, r5, #192
 3019              	.LVL258:
 3020              	.LBB121:
 3021              	.LBB122:
 126:../../../../../../Middlewares/Third_Party/LoRaWAN/Mac/region/RegionEU433.c **** 
 3022              		.loc 1 126 0
 3023 006a 0293     		str	r3, [sp, #8]
 125:../../../../../../Middlewares/Third_Party/LoRaWAN/Mac/region/RegionEU433.c ****     uint8_t delayTransmission = 0;
 3024              		.loc 1 125 0
 3025 006c 9846     		mov	r8, r3
 3026              	.LBB123:
 3027              	.LBB124:
 132:../../../../../../Middlewares/Third_Party/LoRaWAN/Mac/region/RegionEU433.c ****             {
 3028              		.loc 1 132 0
 3029 006e D033     		adds	r3, r3, #208
 3030              	.LBE124:
 3031              	.LBE123:
 3032              	.LBE122:
 3033              	.LBE121:
 875:../../../../../../Middlewares/Third_Party/LoRaWAN/Mac/region/RegionEU433.c ****                                                       NvmCtx.ChannelsMask, NvmCtx.Channels,
 3034              		.loc 1 875 0
 3035 0070 0024     		movs	r4, #0
 3036              	.LVL259:
 3037 0072 2E00     		movs	r6, r5
 3038              	.LVL260:
 3039              	.LBB134:
 3040              	.LBB131:
ARM GAS  C:\Users\EBANO_~1\AppData\Local\Temp\ccpYmjAB.s 			page 79


 3041              	.LBB128:
 3042              	.LBB125:
 132:../../../../../../Middlewares/Third_Party/LoRaWAN/Mac/region/RegionEU433.c ****             {
 3043              		.loc 1 132 0
 3044 0074 9A46     		mov	r10, r3
 3045 0076 0127     		movs	r7, #1
 3046 0078 0BE0     		b	.L338
 3047              	.LVL261:
 3048              	.L337:
 155:../../../../../../Middlewares/Third_Party/LoRaWAN/Mac/region/RegionEU433.c ****             }
 3049              		.loc 1 155 0
 3050 007a 4346     		mov	r3, r8
 3051 007c 0133     		adds	r3, r3, #1
 3052              	.LVL262:
 3053 007e 4146     		mov	r1, r8
 3054 0080 4846     		mov	r0, r9
 3055 0082 DBB2     		uxtb	r3, r3
 3056 0084 9846     		mov	r8, r3
 3057 0086 06AA     		add	r2, sp, #24
 3058              	.LVL263:
 3059 0088 5054     		strb	r0, [r2, r1]
 3060              	.LVL264:
 3061              	.L336:
 3062 008a 0134     		adds	r4, r4, #1
 3063              	.LVL265:
 3064 008c 0C35     		adds	r5, r5, #12
 130:../../../../../../Middlewares/Third_Party/LoRaWAN/Mac/region/RegionEU433.c ****         {
 3065              		.loc 1 130 0
 3066 008e 102C     		cmp	r4, #16
 3067 0090 27D0     		beq	.L339
 3068              	.LVL266:
 3069              	.L338:
 3070 0092 E3B2     		uxtb	r3, r4
 3071 0094 9946     		mov	r9, r3
 3072              	.LVL267:
 132:../../../../../../Middlewares/Third_Party/LoRaWAN/Mac/region/RegionEU433.c ****             {
 3073              		.loc 1 132 0
 3074 0096 5346     		mov	r3, r10
 3075 0098 F35A     		ldrh	r3, [r6, r3]
 3076 009a 2341     		asrs	r3, r3, r4
 3077 009c 1F42     		tst	r7, r3
 3078 009e F4D0     		beq	.L336
 134:../../../../../../Middlewares/Third_Party/LoRaWAN/Mac/region/RegionEU433.c ****                 { // Check if the channel is enabled
 3079              		.loc 1 134 0
 3080 00a0 2B68     		ldr	r3, [r5]
 3081 00a2 002B     		cmp	r3, #0
 3082 00a4 F1D0     		beq	.L336
 140:../../../../../../Middlewares/Third_Party/LoRaWAN/Mac/region/RegionEU433.c ****                     {
 3083              		.loc 1 140 0
 3084 00a6 0723     		movs	r3, #7
 3085 00a8 2341     		asrs	r3, r3, r4
 3086 00aa 1F42     		tst	r7, r3
 3087 00ac EDD0     		beq	.L336
 146:../../../../../../Middlewares/Third_Party/LoRaWAN/Mac/region/RegionEU433.c ****                 { // Check if the current channel selection supports the given datarate
 3088              		.loc 1 146 0
 3089 00ae 297A     		ldrb	r1, [r5, #8]
 145:../../../../../../Middlewares/Third_Party/LoRaWAN/Mac/region/RegionEU433.c ****                                               channels[i + j].DrRange.Fields.Max ) == false )
ARM GAS  C:\Users\EBANO_~1\AppData\Local\Temp\ccpYmjAB.s 			page 80


 3090              		.loc 1 145 0
 3091 00b0 0198     		ldr	r0, [sp, #4]
 146:../../../../../../Middlewares/Third_Party/LoRaWAN/Mac/region/RegionEU433.c ****                 { // Check if the current channel selection supports the given datarate
 3092              		.loc 1 146 0
 3093 00b2 4AB2     		sxtb	r2, r1
 145:../../../../../../Middlewares/Third_Party/LoRaWAN/Mac/region/RegionEU433.c ****                                               channels[i + j].DrRange.Fields.Max ) == false )
 3094              		.loc 1 145 0
 3095 00b4 0907     		lsls	r1, r1, #28
 3096 00b6 1211     		asrs	r2, r2, #4
 3097 00b8 0917     		asrs	r1, r1, #28
 3098 00ba FFF7FEFF 		bl	RegionCommonValueInRange
 3099              	.LVL268:
 3100 00be 0028     		cmp	r0, #0
 3101 00c0 E3D0     		beq	.L336
 150:../../../../../../Middlewares/Third_Party/LoRaWAN/Mac/region/RegionEU433.c ****                 { // Check if the band is available for transmission
 3102              		.loc 1 150 0
 3103 00c2 3200     		movs	r2, r6
 3104 00c4 6B7A     		ldrb	r3, [r5, #9]
 3105 00c6 C032     		adds	r2, r2, #192
 3106 00c8 1B01     		lsls	r3, r3, #4
 3107 00ca 9B18     		adds	r3, r3, r2
 3108 00cc DB68     		ldr	r3, [r3, #12]
 3109 00ce 002B     		cmp	r3, #0
 3110 00d0 D3D0     		beq	.L337
 152:../../../../../../Middlewares/Third_Party/LoRaWAN/Mac/region/RegionEU433.c ****                     continue;
 3111              		.loc 1 152 0
 3112 00d2 029B     		ldr	r3, [sp, #8]
 3113 00d4 0134     		adds	r4, r4, #1
 3114 00d6 0133     		adds	r3, r3, #1
 3115 00d8 DBB2     		uxtb	r3, r3
 3116 00da 0293     		str	r3, [sp, #8]
 3117              	.LVL269:
 3118 00dc 0C35     		adds	r5, r5, #12
 130:../../../../../../Middlewares/Third_Party/LoRaWAN/Mac/region/RegionEU433.c ****         {
 3119              		.loc 1 130 0
 3120 00de 102C     		cmp	r4, #16
 3121 00e0 D7D1     		bne	.L338
 3122              	.LVL270:
 3123              	.L339:
 3124              	.LBE125:
 3125              	.LBE128:
 3126              	.LBE131:
 3127              	.LBE134:
 885:../../../../../../Middlewares/Third_Party/LoRaWAN/Mac/region/RegionEU433.c ****     {
 3128              		.loc 1 885 0
 3129 00e2 4346     		mov	r3, r8
 3130 00e4 002B     		cmp	r3, #0
 3131 00e6 57D1     		bne	.L370
 895:../../../../../../Middlewares/Third_Party/LoRaWAN/Mac/region/RegionEU433.c ****         {
 3132              		.loc 1 895 0
 3133 00e8 029B     		ldr	r3, [sp, #8]
 3134 00ea 002B     		cmp	r3, #0
 3135 00ec 15D1     		bne	.L346
 902:../../../../../../Middlewares/Third_Party/LoRaWAN/Mac/region/RegionEU433.c ****         *time = 0;
 3136              		.loc 1 902 0
 3137 00ee D022     		movs	r2, #208
 3138 00f0 0721     		movs	r1, #7
ARM GAS  C:\Users\EBANO_~1\AppData\Local\Temp\ccpYmjAB.s 			page 81


 3139 00f2 B35A     		ldrh	r3, [r6, r2]
 904:../../../../../../Middlewares/Third_Party/LoRaWAN/Mac/region/RegionEU433.c ****     }
 3140              		.loc 1 904 0
 3141 00f4 0C20     		movs	r0, #12
 902:../../../../../../Middlewares/Third_Party/LoRaWAN/Mac/region/RegionEU433.c ****         *time = 0;
 3142              		.loc 1 902 0
 3143 00f6 0B43     		orrs	r3, r1
 3144 00f8 B352     		strh	r3, [r6, r2]
 903:../../../../../../Middlewares/Third_Party/LoRaWAN/Mac/region/RegionEU433.c ****         return LORAMAC_STATUS_NO_CHANNEL_FOUND;
 3145              		.loc 1 903 0
 3146 00fa 5B46     		mov	r3, fp
 3147 00fc 029A     		ldr	r2, [sp, #8]
 3148 00fe 1A60     		str	r2, [r3]
 3149              	.LVL271:
 3150              	.L347:
 906:../../../../../../Middlewares/Third_Party/LoRaWAN/Mac/region/RegionEU433.c **** 
 3151              		.loc 1 906 0
 3152 0100 0BB0     		add	sp, sp, #44
 3153              		@ sp needed
 3154              	.LVL272:
 3155 0102 3CBC     		pop	{r2, r3, r4, r5}
 3156 0104 9046     		mov	r8, r2
 3157 0106 9946     		mov	r9, r3
 3158 0108 A246     		mov	r10, r4
 3159 010a AB46     		mov	fp, r5
 3160 010c F0BD     		pop	{r4, r5, r6, r7, pc}
 3161              	.LVL273:
 3162              	.L334:
 882:../../../../../../Middlewares/Third_Party/LoRaWAN/Mac/region/RegionEU433.c ****     }
 3163              		.loc 1 882 0
 3164 010e 6068     		ldr	r0, [r4, #4]
 3165 0110 2568     		ldr	r5, [r4]
 3166 0112 FFF7FEFF 		bl	TimerGetElapsedTime
 3167              	.LVL274:
 3168 0116 2B1A     		subs	r3, r5, r0
 3169 0118 0393     		str	r3, [sp, #12]
 3170              	.LVL275:
 3171              	.L346:
 898:../../../../../../Middlewares/Third_Party/LoRaWAN/Mac/region/RegionEU433.c ****             return LORAMAC_STATUS_DUTYCYCLE_RESTRICTED;
 3172              		.loc 1 898 0
 3173 011a 5B46     		mov	r3, fp
 3174 011c 039A     		ldr	r2, [sp, #12]
 899:../../../../../../Middlewares/Third_Party/LoRaWAN/Mac/region/RegionEU433.c ****         }
 3175              		.loc 1 899 0
 3176 011e 0B20     		movs	r0, #11
 898:../../../../../../Middlewares/Third_Party/LoRaWAN/Mac/region/RegionEU433.c ****             return LORAMAC_STATUS_DUTYCYCLE_RESTRICTED;
 3177              		.loc 1 898 0
 3178 0120 1A60     		str	r2, [r3]
 899:../../../../../../Middlewares/Third_Party/LoRaWAN/Mac/region/RegionEU433.c ****         }
 3179              		.loc 1 899 0
 3180 0122 EDE7     		b	.L347
 3181              	.LVL276:
 3182              	.L335:
 3183              	.LBB135:
 3184              	.LBB132:
 126:../../../../../../Middlewares/Third_Party/LoRaWAN/Mac/region/RegionEU433.c **** 
 3185              		.loc 1 126 0
ARM GAS  C:\Users\EBANO_~1\AppData\Local\Temp\ccpYmjAB.s 			page 82


 3186 0124 0023     		movs	r3, #0
 3187 0126 2F00     		movs	r7, r5
 3188 0128 0293     		str	r3, [sp, #8]
 125:../../../../../../Middlewares/Third_Party/LoRaWAN/Mac/region/RegionEU433.c ****     uint8_t delayTransmission = 0;
 3189              		.loc 1 125 0
 3190 012a 9846     		mov	r8, r3
 3191              	.LBB129:
 3192              	.LBB126:
 132:../../../../../../Middlewares/Third_Party/LoRaWAN/Mac/region/RegionEU433.c ****             {
 3193              		.loc 1 132 0
 3194 012c D033     		adds	r3, r3, #208
 3195 012e C03F     		subs	r7, r7, #192
 3196 0130 9A46     		mov	r10, r3
 3197 0132 CF3B     		subs	r3, r3, #207
 3198              	.LBE126:
 3199              	.LBE129:
 3200              	.LBE132:
 3201              	.LBE135:
 875:../../../../../../Middlewares/Third_Party/LoRaWAN/Mac/region/RegionEU433.c ****                                                       NvmCtx.ChannelsMask, NvmCtx.Channels,
 3202              		.loc 1 875 0
 3203 0134 0024     		movs	r4, #0
 3204              	.LVL277:
 3205 0136 3E00     		movs	r6, r7
 3206              	.LVL278:
 3207              	.LBB136:
 3208              	.LBB133:
 3209              	.LBB130:
 3210              	.LBB127:
 132:../../../../../../Middlewares/Third_Party/LoRaWAN/Mac/region/RegionEU433.c ****             {
 3211              		.loc 1 132 0
 3212 0138 9946     		mov	r9, r3
 150:../../../../../../Middlewares/Third_Party/LoRaWAN/Mac/region/RegionEU433.c ****                 { // Check if the band is available for transmission
 3213              		.loc 1 150 0
 3214 013a 0595     		str	r5, [sp, #20]
 3215 013c 03E0     		b	.L341
 3216              	.LVL279:
 3217              	.L342:
 3218 013e 0134     		adds	r4, r4, #1
 3219              	.LVL280:
 3220 0140 0C37     		adds	r7, r7, #12
 130:../../../../../../Middlewares/Third_Party/LoRaWAN/Mac/region/RegionEU433.c ****         {
 3221              		.loc 1 130 0
 3222 0142 102C     		cmp	r4, #16
 3223 0144 CDD0     		beq	.L339
 3224              	.LVL281:
 3225              	.L341:
 132:../../../../../../Middlewares/Third_Party/LoRaWAN/Mac/region/RegionEU433.c ****             {
 3226              		.loc 1 132 0
 3227 0146 5346     		mov	r3, r10
 3228 0148 F35A     		ldrh	r3, [r6, r3]
 3229 014a 4A46     		mov	r2, r9
 3230 014c 2341     		asrs	r3, r3, r4
 3231 014e E5B2     		uxtb	r5, r4
 3232              	.LVL282:
 3233 0150 1A42     		tst	r2, r3
 3234 0152 F4D0     		beq	.L342
 134:../../../../../../Middlewares/Third_Party/LoRaWAN/Mac/region/RegionEU433.c ****                 { // Check if the channel is enabled
ARM GAS  C:\Users\EBANO_~1\AppData\Local\Temp\ccpYmjAB.s 			page 83


 3235              		.loc 1 134 0
 3236 0154 3B68     		ldr	r3, [r7]
 3237 0156 002B     		cmp	r3, #0
 3238 0158 F1D0     		beq	.L342
 146:../../../../../../Middlewares/Third_Party/LoRaWAN/Mac/region/RegionEU433.c ****                 { // Check if the current channel selection supports the given datarate
 3239              		.loc 1 146 0
 3240 015a 397A     		ldrb	r1, [r7, #8]
 145:../../../../../../Middlewares/Third_Party/LoRaWAN/Mac/region/RegionEU433.c ****                                               channels[i + j].DrRange.Fields.Max ) == false )
 3241              		.loc 1 145 0
 3242 015c 0198     		ldr	r0, [sp, #4]
 146:../../../../../../Middlewares/Third_Party/LoRaWAN/Mac/region/RegionEU433.c ****                 { // Check if the current channel selection supports the given datarate
 3243              		.loc 1 146 0
 3244 015e 4AB2     		sxtb	r2, r1
 145:../../../../../../Middlewares/Third_Party/LoRaWAN/Mac/region/RegionEU433.c ****                                               channels[i + j].DrRange.Fields.Max ) == false )
 3245              		.loc 1 145 0
 3246 0160 0907     		lsls	r1, r1, #28
 3247 0162 1211     		asrs	r2, r2, #4
 3248 0164 0917     		asrs	r1, r1, #28
 3249 0166 FFF7FEFF 		bl	RegionCommonValueInRange
 3250              	.LVL283:
 3251 016a 0028     		cmp	r0, #0
 3252 016c E7D0     		beq	.L342
 150:../../../../../../Middlewares/Third_Party/LoRaWAN/Mac/region/RegionEU433.c ****                 { // Check if the band is available for transmission
 3253              		.loc 1 150 0
 3254 016e 059A     		ldr	r2, [sp, #20]
 3255 0170 7B7A     		ldrb	r3, [r7, #9]
 3256 0172 9446     		mov	ip, r2
 3257 0174 1B01     		lsls	r3, r3, #4
 3258 0176 6344     		add	r3, r3, ip
 3259 0178 DB68     		ldr	r3, [r3, #12]
 3260 017a 002B     		cmp	r3, #0
 3261 017c 07D1     		bne	.L343
 155:../../../../../../Middlewares/Third_Party/LoRaWAN/Mac/region/RegionEU433.c ****             }
 3262              		.loc 1 155 0
 3263 017e 4346     		mov	r3, r8
 3264 0180 4146     		mov	r1, r8
 3265 0182 0133     		adds	r3, r3, #1
 3266              	.LVL284:
 3267 0184 06AA     		add	r2, sp, #24
 3268              	.LVL285:
 3269 0186 DBB2     		uxtb	r3, r3
 3270 0188 5554     		strb	r5, [r2, r1]
 3271 018a 9846     		mov	r8, r3
 3272 018c D7E7     		b	.L342
 3273              	.LVL286:
 3274              	.L343:
 152:../../../../../../Middlewares/Third_Party/LoRaWAN/Mac/region/RegionEU433.c ****                     continue;
 3275              		.loc 1 152 0
 3276 018e 029B     		ldr	r3, [sp, #8]
 3277 0190 0133     		adds	r3, r3, #1
 3278 0192 DBB2     		uxtb	r3, r3
 3279 0194 0293     		str	r3, [sp, #8]
 3280              	.LVL287:
 3281 0196 D2E7     		b	.L342
 3282              	.LVL288:
 3283              	.L370:
 3284              	.LBE127:
ARM GAS  C:\Users\EBANO_~1\AppData\Local\Temp\ccpYmjAB.s 			page 84


 3285              	.LBE130:
 3286              	.LBE133:
 3287              	.LBE136:
 888:../../../../../../Middlewares/Third_Party/LoRaWAN/Mac/region/RegionEU433.c **** 
 3288              		.loc 1 888 0
 3289 0198 4146     		mov	r1, r8
 3290 019a 0020     		movs	r0, #0
 3291 019c 0139     		subs	r1, r1, #1
 3292 019e FFF7FEFF 		bl	randr
 3293              	.LVL289:
 3294 01a2 06AB     		add	r3, sp, #24
 3295 01a4 1B5C     		ldrb	r3, [r3, r0]
 3296 01a6 049A     		ldr	r2, [sp, #16]
 891:../../../../../../Middlewares/Third_Party/LoRaWAN/Mac/region/RegionEU433.c ****     }
 3297              		.loc 1 891 0
 3298 01a8 0020     		movs	r0, #0
 888:../../../../../../Middlewares/Third_Party/LoRaWAN/Mac/region/RegionEU433.c **** 
 3299              		.loc 1 888 0
 3300 01aa 1370     		strb	r3, [r2]
 890:../../../../../../Middlewares/Third_Party/LoRaWAN/Mac/region/RegionEU433.c ****         return LORAMAC_STATUS_OK;
 3301              		.loc 1 890 0
 3302 01ac 0023     		movs	r3, #0
 3303 01ae 5A46     		mov	r2, fp
 3304 01b0 1360     		str	r3, [r2]
 891:../../../../../../Middlewares/Third_Party/LoRaWAN/Mac/region/RegionEU433.c ****     }
 3305              		.loc 1 891 0
 3306 01b2 A5E7     		b	.L347
 3307              	.L372:
 3308              		.align	2
 3309              	.L371:
 3310 01b4 D0000000 		.word	NvmCtx+208
 3311 01b8 C0000000 		.word	NvmCtx+192
 3312              		.cfi_endproc
 3313              	.LFE61:
 3314              		.size	RegionEU433NextChannel, .-RegionEU433NextChannel
 3315              		.section	.text.RegionEU433ChannelAdd,"ax",%progbits
 3316              		.align	1
 3317              		.p2align 2,,3
 3318              		.global	RegionEU433ChannelAdd
 3319              		.syntax unified
 3320              		.code	16
 3321              		.thumb_func
 3322              		.fpu softvfp
 3323              		.type	RegionEU433ChannelAdd, %function
 3324              	RegionEU433ChannelAdd:
 3325              	.LFB62:
 909:../../../../../../Middlewares/Third_Party/LoRaWAN/Mac/region/RegionEU433.c ****     bool drInvalid = false;
 3326              		.loc 1 909 0
 3327              		.cfi_startproc
 3328              		@ args = 0, pretend = 0, frame = 8
 3329              		@ frame_needed = 0, uses_anonymous_args = 0
 3330              	.LVL290:
 3331 0000 F0B5     		push	{r4, r5, r6, r7, lr}
 3332              	.LCFI34:
 3333              		.cfi_def_cfa_offset 20
 3334              		.cfi_offset 4, -20
 3335              		.cfi_offset 5, -16
ARM GAS  C:\Users\EBANO_~1\AppData\Local\Temp\ccpYmjAB.s 			page 85


 3336              		.cfi_offset 6, -12
 3337              		.cfi_offset 7, -8
 3338              		.cfi_offset 14, -4
 912:../../../../../../Middlewares/Third_Party/LoRaWAN/Mac/region/RegionEU433.c **** 
 3339              		.loc 1 912 0
 3340 0002 0579     		ldrb	r5, [r0, #4]
 3341              	.LVL291:
 909:../../../../../../Middlewares/Third_Party/LoRaWAN/Mac/region/RegionEU433.c ****     bool drInvalid = false;
 3342              		.loc 1 909 0
 3343 0004 83B0     		sub	sp, sp, #12
 3344              	.LCFI35:
 3345              		.cfi_def_cfa_offset 32
 909:../../../../../../Middlewares/Third_Party/LoRaWAN/Mac/region/RegionEU433.c ****     bool drInvalid = false;
 3346              		.loc 1 909 0
 3347 0006 0400     		movs	r4, r0
 914:../../../../../../Middlewares/Third_Party/LoRaWAN/Mac/region/RegionEU433.c ****     {
 3348              		.loc 1 914 0
 3349 0008 022D     		cmp	r5, #2
 3350 000a 36D9     		bls	.L379
 921:../../../../../../Middlewares/Third_Party/LoRaWAN/Mac/region/RegionEU433.c ****     }
 3351              		.loc 1 921 0
 3352 000c 0320     		movs	r0, #3
 3353              	.LVL292:
 919:../../../../../../Middlewares/Third_Party/LoRaWAN/Mac/region/RegionEU433.c ****     {
 3354              		.loc 1 919 0
 3355 000e 0F2D     		cmp	r5, #15
 3356 0010 27D8     		bhi	.L386
 925:../../../../../../Middlewares/Third_Party/LoRaWAN/Mac/region/RegionEU433.c ****     {
 3357              		.loc 1 925 0
 3358 0012 2368     		ldr	r3, [r4]
 3359 0014 0722     		movs	r2, #7
 3360 0016 187A     		ldrb	r0, [r3, #8]
 3361 0018 0021     		movs	r1, #0
 3362 001a 0007     		lsls	r0, r0, #28
 3363 001c 0017     		asrs	r0, r0, #28
 3364 001e FFF7FEFF 		bl	RegionCommonValueInRange
 3365              	.LVL293:
 3366 0022 0600     		movs	r6, r0
 3367              	.LVL294:
 929:../../../../../../Middlewares/Third_Party/LoRaWAN/Mac/region/RegionEU433.c ****     {
 3368              		.loc 1 929 0
 3369 0024 0820     		movs	r0, #8
 3370 0026 2368     		ldr	r3, [r4]
 3371 0028 0722     		movs	r2, #7
 3372 002a 1856     		ldrsb	r0, [r3, r0]
 3373 002c 0021     		movs	r1, #0
 3374 002e 0011     		asrs	r0, r0, #4
 3375 0030 FFF7FEFF 		bl	RegionCommonValueInRange
 3376              	.LVL295:
 931:../../../../../../Middlewares/Third_Party/LoRaWAN/Mac/region/RegionEU433.c ****     }
 3377              		.loc 1 931 0
 3378 0034 0127     		movs	r7, #1
 929:../../../../../../Middlewares/Third_Party/LoRaWAN/Mac/region/RegionEU433.c ****     {
 3379              		.loc 1 929 0
 3380 0036 0028     		cmp	r0, #0
 3381 0038 21D1     		bne	.L389
 3382              	.LVL296:
ARM GAS  C:\Users\EBANO_~1\AppData\Local\Temp\ccpYmjAB.s 			page 86


 3383              	.L376:
 933:../../../../../../Middlewares/Third_Party/LoRaWAN/Mac/region/RegionEU433.c ****     {
 3384              		.loc 1 933 0
 3385 003a 2368     		ldr	r3, [r4]
 3386 003c 224A     		ldr	r2, .L390
 3387 003e 1E68     		ldr	r6, [r3]
 3388 0040 926A     		ldr	r2, [r2, #40]
 3389 0042 1B7A     		ldrb	r3, [r3, #8]
 3390 0044 0192     		str	r2, [sp, #4]
 3391 0046 1A07     		lsls	r2, r3, #28
 3392 0048 5BB2     		sxtb	r3, r3
 3393 004a 1217     		asrs	r2, r2, #28
 3394 004c 1B11     		asrs	r3, r3, #4
 3395              	.LBB137:
 3396              	.LBB138:
 111:../../../../../../Middlewares/Third_Party/LoRaWAN/Mac/region/RegionEU433.c ****     {
 3397              		.loc 1 111 0
 3398 004e 3000     		movs	r0, r6
 3399              	.LBE138:
 3400              	.LBE137:
 933:../../../../../../Middlewares/Third_Party/LoRaWAN/Mac/region/RegionEU433.c ****     {
 3401              		.loc 1 933 0
 3402 0050 9A42     		cmp	r2, r3
 3403 0052 08DC     		bgt	.L377
 3404              	.LVL297:
 3405              	.LBB142:
 3406              	.LBB139:
 111:../../../../../../Middlewares/Third_Party/LoRaWAN/Mac/region/RegionEU433.c ****     {
 3407              		.loc 1 111 0
 3408 0054 019B     		ldr	r3, [sp, #4]
 3409 0056 9847     		blx	r3
 3410              	.LVL298:
 3411 0058 0028     		cmp	r0, #0
 3412 005a 14D1     		bne	.L378
 3413              	.LVL299:
 3414              	.LBE139:
 3415              	.LBE142:
 948:../../../../../../Middlewares/Third_Party/LoRaWAN/Mac/region/RegionEU433.c ****     {
 3416              		.loc 1 948 0
 3417 005c 002F     		cmp	r7, #0
 3418 005e 0CD1     		bne	.L379
 958:../../../../../../Middlewares/Third_Party/LoRaWAN/Mac/region/RegionEU433.c ****     }
 3419              		.loc 1 958 0
 3420 0060 0430     		adds	r0, r0, #4
 3421              	.LVL300:
 3422              	.L386:
 965:../../../../../../Middlewares/Third_Party/LoRaWAN/Mac/region/RegionEU433.c **** 
 3423              		.loc 1 965 0
 3424 0062 03B0     		add	sp, sp, #12
 3425              		@ sp needed
 3426              	.LVL301:
 3427 0064 F0BD     		pop	{r4, r5, r6, r7, pc}
 3428              	.LVL302:
 3429              	.L377:
 3430              	.LBB143:
 3431              	.LBB140:
 111:../../../../../../Middlewares/Third_Party/LoRaWAN/Mac/region/RegionEU433.c ****     {
ARM GAS  C:\Users\EBANO_~1\AppData\Local\Temp\ccpYmjAB.s 			page 87


 3432              		.loc 1 111 0
 3433 0066 019B     		ldr	r3, [sp, #4]
 3434 0068 9847     		blx	r3
 3435              	.LVL303:
 3436 006a 0028     		cmp	r0, #0
 3437 006c 05D0     		beq	.L379
 116:../../../../../../Middlewares/Third_Party/LoRaWAN/Mac/region/RegionEU433.c ****     {
 3438              		.loc 1 116 0
 3439 006e 174B     		ldr	r3, .L390+4
 3440 0070 9C46     		mov	ip, r3
 3441 0072 174B     		ldr	r3, .L390+8
 3442 0074 6644     		add	r6, r6, ip
 3443 0076 9E42     		cmp	r6, r3
 3444 0078 0FD9     		bls	.L380
 3445              	.LVL304:
 3446              	.L379:
 3447              	.LBE140:
 3448              	.LBE143:
 916:../../../../../../Middlewares/Third_Party/LoRaWAN/Mac/region/RegionEU433.c ****     }
 3449              		.loc 1 916 0
 3450 007a 0620     		movs	r0, #6
 3451 007c F1E7     		b	.L386
 3452              	.LVL305:
 3453              	.L389:
 925:../../../../../../Middlewares/Third_Party/LoRaWAN/Mac/region/RegionEU433.c ****     {
 3454              		.loc 1 925 0
 3455 007e 7742     		rsbs	r7, r6, #0
 3456 0080 7741     		adcs	r7, r7, r6
 3457              	.LVL306:
 3458 0082 FFB2     		uxtb	r7, r7
 3459 0084 D9E7     		b	.L376
 3460              	.LVL307:
 3461              	.L378:
 3462              	.LBB144:
 3463              	.LBB141:
 116:../../../../../../Middlewares/Third_Party/LoRaWAN/Mac/region/RegionEU433.c ****     {
 3464              		.loc 1 116 0
 3465 0086 114B     		ldr	r3, .L390+4
 3466 0088 9C46     		mov	ip, r3
 3467 008a 114B     		ldr	r3, .L390+8
 3468 008c 6644     		add	r6, r6, ip
 3469 008e 9E42     		cmp	r6, r3
 3470 0090 05D9     		bls	.L381
 3471              	.LVL308:
 3472              	.LBE141:
 3473              	.LBE144:
 948:../../../../../../Middlewares/Third_Party/LoRaWAN/Mac/region/RegionEU433.c ****     {
 3474              		.loc 1 948 0
 3475 0092 002F     		cmp	r7, #0
 3476 0094 F1D1     		bne	.L379
 958:../../../../../../Middlewares/Third_Party/LoRaWAN/Mac/region/RegionEU433.c ****     }
 3477              		.loc 1 958 0
 3478 0096 0420     		movs	r0, #4
 3479 0098 E3E7     		b	.L386
 3480              	.LVL309:
 3481              	.L380:
 954:../../../../../../Middlewares/Third_Party/LoRaWAN/Mac/region/RegionEU433.c ****     }
ARM GAS  C:\Users\EBANO_~1\AppData\Local\Temp\ccpYmjAB.s 			page 88


 3482              		.loc 1 954 0
 3483 009a 0520     		movs	r0, #5
 3484 009c E1E7     		b	.L386
 3485              	.LVL310:
 3486              	.L381:
 948:../../../../../../Middlewares/Third_Party/LoRaWAN/Mac/region/RegionEU433.c ****     {
 3487              		.loc 1 948 0
 3488 009e 002F     		cmp	r7, #0
 3489 00a0 FBD1     		bne	.L380
 961:../../../../../../Middlewares/Third_Party/LoRaWAN/Mac/region/RegionEU433.c ****     NvmCtx.Channels[id].Band = 0;
 3490              		.loc 1 961 0
 3491 00a2 2168     		ldr	r1, [r4]
 3492 00a4 6C00     		lsls	r4, r5, #1
 3493              	.LVL311:
 3494 00a6 0B4E     		ldr	r6, .L390+12
 3495 00a8 6419     		adds	r4, r4, r5
 3496 00aa A400     		lsls	r4, r4, #2
 3497 00ac A419     		adds	r4, r4, r6
 3498 00ae 0C22     		movs	r2, #12
 3499 00b0 2000     		movs	r0, r4
 3500 00b2 FFF7FEFF 		bl	memcpy1
 3501              	.LVL312:
 963:../../../../../../Middlewares/Third_Party/LoRaWAN/Mac/region/RegionEU433.c ****     return LORAMAC_STATUS_OK;
 3502              		.loc 1 963 0
 3503 00b6 0122     		movs	r2, #1
 3504 00b8 D021     		movs	r1, #208
 3505 00ba AA40     		lsls	r2, r2, r5
 962:../../../../../../Middlewares/Third_Party/LoRaWAN/Mac/region/RegionEU433.c ****     NvmCtx.ChannelsMask[0] |= ( 1 << id );
 3506              		.loc 1 962 0
 3507 00bc 6772     		strb	r7, [r4, #9]
 963:../../../../../../Middlewares/Third_Party/LoRaWAN/Mac/region/RegionEU433.c ****     return LORAMAC_STATUS_OK;
 3508              		.loc 1 963 0
 3509 00be 735A     		ldrh	r3, [r6, r1]
 964:../../../../../../Middlewares/Third_Party/LoRaWAN/Mac/region/RegionEU433.c **** }
 3510              		.loc 1 964 0
 3511 00c0 0020     		movs	r0, #0
 963:../../../../../../Middlewares/Third_Party/LoRaWAN/Mac/region/RegionEU433.c ****     return LORAMAC_STATUS_OK;
 3512              		.loc 1 963 0
 3513 00c2 1343     		orrs	r3, r2
 3514 00c4 7352     		strh	r3, [r6, r1]
 964:../../../../../../Middlewares/Third_Party/LoRaWAN/Mac/region/RegionEU433.c **** }
 3515              		.loc 1 964 0
 3516 00c6 CCE7     		b	.L386
 3517              	.L391:
 3518              		.align	2
 3519              	.L390:
 3520 00c8 00000000 		.word	Radio
 3521 00cc 28462EE6 		.word	-433175000
 3522 00d0 50BC1600 		.word	1490000
 3523 00d4 00000000 		.word	NvmCtx
 3524              		.cfi_endproc
 3525              	.LFE62:
 3526              		.size	RegionEU433ChannelAdd, .-RegionEU433ChannelAdd
 3527              		.section	.text.RegionEU433ChannelsRemove,"ax",%progbits
 3528              		.align	1
 3529              		.p2align 2,,3
 3530              		.global	RegionEU433ChannelsRemove
ARM GAS  C:\Users\EBANO_~1\AppData\Local\Temp\ccpYmjAB.s 			page 89


 3531              		.syntax unified
 3532              		.code	16
 3533              		.thumb_func
 3534              		.fpu softvfp
 3535              		.type	RegionEU433ChannelsRemove, %function
 3536              	RegionEU433ChannelsRemove:
 3537              	.LFB63:
 968:../../../../../../Middlewares/Third_Party/LoRaWAN/Mac/region/RegionEU433.c ****     uint8_t id = channelRemove->ChannelId;
 3538              		.loc 1 968 0
 3539              		.cfi_startproc
 3540              		@ args = 0, pretend = 0, frame = 0
 3541              		@ frame_needed = 0, uses_anonymous_args = 0
 3542              	.LVL313:
 3543 0000 70B5     		push	{r4, r5, r6, lr}
 3544              	.LCFI36:
 3545              		.cfi_def_cfa_offset 16
 3546              		.cfi_offset 4, -16
 3547              		.cfi_offset 5, -12
 3548              		.cfi_offset 6, -8
 3549              		.cfi_offset 14, -4
 969:../../../../../../Middlewares/Third_Party/LoRaWAN/Mac/region/RegionEU433.c **** 
 3550              		.loc 1 969 0
 3551 0002 0478     		ldrb	r4, [r0]
 3552              	.LVL314:
 973:../../../../../../Middlewares/Third_Party/LoRaWAN/Mac/region/RegionEU433.c ****     }
 3553              		.loc 1 973 0
 3554 0004 0020     		movs	r0, #0
 3555              	.LVL315:
 971:../../../../../../Middlewares/Third_Party/LoRaWAN/Mac/region/RegionEU433.c ****     {
 3556              		.loc 1 971 0
 3557 0006 022C     		cmp	r4, #2
 3558 0008 0ED9     		bls	.L393
 977:../../../../../../Middlewares/Third_Party/LoRaWAN/Mac/region/RegionEU433.c **** 
 3559              		.loc 1 977 0
 3560 000a 6000     		lsls	r0, r4, #1
 3561 000c 074D     		ldr	r5, .L395
 3562 000e 0019     		adds	r0, r0, r4
 3563 0010 8000     		lsls	r0, r0, #2
 3564 0012 0C22     		movs	r2, #12
 3565 0014 0021     		movs	r1, #0
 3566 0016 2818     		adds	r0, r5, r0
 3567 0018 FFF7FEFF 		bl	memset
 3568              	.LVL316:
 3569              		.loc 1 979 0
 3570 001c 2800     		movs	r0, r5
 3571 001e 1022     		movs	r2, #16
 3572 0020 D030     		adds	r0, r0, #208
 3573 0022 2100     		movs	r1, r4
 3574 0024 FFF7FEFF 		bl	RegionCommonChanDisable
 3575              	.LVL317:
 3576              	.L393:
 980:../../../../../../Middlewares/Third_Party/LoRaWAN/Mac/region/RegionEU433.c **** }
 3577              		.loc 1 980 0
 3578              		@ sp needed
 3579              	.LVL318:
 3580 0028 70BD     		pop	{r4, r5, r6, pc}
 3581              	.L396:
ARM GAS  C:\Users\EBANO_~1\AppData\Local\Temp\ccpYmjAB.s 			page 90


 3582 002a C046     		.align	2
 3583              	.L395:
 3584 002c 00000000 		.word	NvmCtx
 3585              		.cfi_endproc
 3586              	.LFE63:
 3587              		.size	RegionEU433ChannelsRemove, .-RegionEU433ChannelsRemove
 3588              		.section	.text.RegionEU433SetContinuousWave,"ax",%progbits
 3589              		.align	1
 3590              		.p2align 2,,3
 3591              		.global	RegionEU433SetContinuousWave
 3592              		.syntax unified
 3593              		.code	16
 3594              		.thumb_func
 3595              		.fpu softvfp
 3596              		.type	RegionEU433SetContinuousWave, %function
 3597              	RegionEU433SetContinuousWave:
 3598              	.LFB64:
 981:../../../../../../Middlewares/Third_Party/LoRaWAN/Mac/region/RegionEU433.c **** 
 982:../../../../../../Middlewares/Third_Party/LoRaWAN/Mac/region/RegionEU433.c **** void RegionEU433SetContinuousWave( ContinuousWaveParams_t* continuousWave )
 983:../../../../../../Middlewares/Third_Party/LoRaWAN/Mac/region/RegionEU433.c **** {
 3599              		.loc 1 983 0
 3600              		.cfi_startproc
 3601              		@ args = 0, pretend = 0, frame = 8
 3602              		@ frame_needed = 0, uses_anonymous_args = 0
 3603              	.LVL319:
 3604 0000 F0B5     		push	{r4, r5, r6, r7, lr}
 3605              	.LCFI37:
 3606              		.cfi_def_cfa_offset 20
 3607              		.cfi_offset 4, -20
 3608              		.cfi_offset 5, -16
 3609              		.cfi_offset 6, -12
 3610              		.cfi_offset 7, -8
 3611              		.cfi_offset 14, -4
 3612 0002 0400     		movs	r4, r0
 984:../../../../../../Middlewares/Third_Party/LoRaWAN/Mac/region/RegionEU433.c ****     int8_t txPowerLimited = LimitTxPower( continuousWave->TxPower, NvmCtx.Bands[NvmCtx.Channels[con
 3613              		.loc 1 984 0
 3614 0004 0278     		ldrb	r2, [r0]
 3615              	.LVL320:
 985:../../../../../../Middlewares/Third_Party/LoRaWAN/Mac/region/RegionEU433.c ****     int8_t phyTxPower = 0;
 986:../../../../../../Middlewares/Third_Party/LoRaWAN/Mac/region/RegionEU433.c ****     uint32_t frequency = NvmCtx.Channels[continuousWave->Channel].Frequency;
 3616              		.loc 1 986 0
 3617 0006 1048     		ldr	r0, .L399
 3618              	.LVL321:
 3619 0008 5300     		lsls	r3, r2, #1
 3620 000a 9B18     		adds	r3, r3, r2
 3621 000c 9B00     		lsls	r3, r3, #2
 3622 000e 1D58     		ldr	r5, [r3, r0]
 3623              	.LVL322:
 984:../../../../../../Middlewares/Third_Party/LoRaWAN/Mac/region/RegionEU433.c ****     int8_t txPowerLimited = LimitTxPower( continuousWave->TxPower, NvmCtx.Bands[NvmCtx.Channels[con
 3624              		.loc 1 984 0
 3625 0010 C318     		adds	r3, r0, r3
 3626 0012 5B7A     		ldrb	r3, [r3, #9]
 3627              	.LBB145:
 3628              	.LBB146:
 103:../../../../../../Middlewares/Third_Party/LoRaWAN/Mac/region/RegionEU433.c **** 
 3629              		.loc 1 103 0
 3630 0014 A678     		ldrb	r6, [r4, #2]
ARM GAS  C:\Users\EBANO_~1\AppData\Local\Temp\ccpYmjAB.s 			page 91


 3631              	.LBE146:
 3632              	.LBE145:
 984:../../../../../../Middlewares/Third_Party/LoRaWAN/Mac/region/RegionEU433.c ****     int8_t txPowerLimited = LimitTxPower( continuousWave->TxPower, NvmCtx.Bands[NvmCtx.Channels[con
 3633              		.loc 1 984 0
 3634 0016 0C33     		adds	r3, r3, #12
 3635 0018 1B01     		lsls	r3, r3, #4
 3636 001a C018     		adds	r0, r0, r3
 3637              	.LBB149:
 3638              	.LBB147:
 103:../../../../../../Middlewares/Third_Party/LoRaWAN/Mac/region/RegionEU433.c **** 
 3639              		.loc 1 103 0
 3640 001c 8378     		ldrb	r3, [r0, #2]
 3641 001e 77B2     		sxtb	r7, r6
 3642 0020 181C     		adds	r0, r3, #0
 3643 0022 5BB2     		sxtb	r3, r3
 3644              	.LBE147:
 3645              	.LBE149:
 983:../../../../../../Middlewares/Third_Party/LoRaWAN/Mac/region/RegionEU433.c ****     int8_t txPowerLimited = LimitTxPower( continuousWave->TxPower, NvmCtx.Bands[NvmCtx.Channels[con
 3646              		.loc 1 983 0
 3647 0024 83B0     		sub	sp, sp, #12
 3648              	.LCFI38:
 3649              		.cfi_def_cfa_offset 32
 987:../../../../../../Middlewares/Third_Party/LoRaWAN/Mac/region/RegionEU433.c **** 
 988:../../../../../../Middlewares/Third_Party/LoRaWAN/Mac/region/RegionEU433.c ****     // Calculate physical TX power
 989:../../../../../../Middlewares/Third_Party/LoRaWAN/Mac/region/RegionEU433.c ****     phyTxPower = RegionCommonComputeTxPower( txPowerLimited, continuousWave->MaxEirp, continuousWav
 3650              		.loc 1 989 0
 3651 0026 A268     		ldr	r2, [r4, #8]
 3652 0028 6168     		ldr	r1, [r4, #4]
 3653              	.LBB150:
 3654              	.LBB148:
 103:../../../../../../Middlewares/Third_Party/LoRaWAN/Mac/region/RegionEU433.c **** 
 3655              		.loc 1 103 0
 3656 002a BB42     		cmp	r3, r7
 3657 002c 00DA     		bge	.L398
 3658 002e 301C     		adds	r0, r6, #0
 3659              	.L398:
 3660              	.LBE148:
 3661              	.LBE150:
 3662              		.loc 1 989 0
 3663 0030 40B2     		sxtb	r0, r0
 3664 0032 FFF7FEFF 		bl	RegionCommonComputeTxPower
 3665              	.LVL323:
 990:../../../../../../Middlewares/Third_Party/LoRaWAN/Mac/region/RegionEU433.c **** 
 991:../../../../../../Middlewares/Third_Party/LoRaWAN/Mac/region/RegionEU433.c ****     Radio.SetTxContinuousWave( frequency, phyTxPower, continuousWave->Timeout );
 3666              		.loc 1 991 0
 3667 0036 054B     		ldr	r3, .L399+4
 989:../../../../../../Middlewares/Third_Party/LoRaWAN/Mac/region/RegionEU433.c **** 
 3668              		.loc 1 989 0
 3669 0038 0100     		movs	r1, r0
 3670              	.LVL324:
 3671              		.loc 1 991 0
 3672 003a 5B6C     		ldr	r3, [r3, #68]
 3673 003c A289     		ldrh	r2, [r4, #12]
 3674 003e 2800     		movs	r0, r5
 3675 0040 0193     		str	r3, [sp, #4]
 3676 0042 9847     		blx	r3
 3677              	.LVL325:
ARM GAS  C:\Users\EBANO_~1\AppData\Local\Temp\ccpYmjAB.s 			page 92


 992:../../../../../../Middlewares/Third_Party/LoRaWAN/Mac/region/RegionEU433.c **** }
 3678              		.loc 1 992 0
 3679 0044 03B0     		add	sp, sp, #12
 3680              		@ sp needed
 3681              	.LVL326:
 3682              	.LVL327:
 3683 0046 F0BD     		pop	{r4, r5, r6, r7, pc}
 3684              	.L400:
 3685              		.align	2
 3686              	.L399:
 3687 0048 00000000 		.word	NvmCtx
 3688 004c 00000000 		.word	Radio
 3689              		.cfi_endproc
 3690              	.LFE64:
 3691              		.size	RegionEU433SetContinuousWave, .-RegionEU433SetContinuousWave
 3692              		.section	.text.RegionEU433ApplyDrOffset,"ax",%progbits
 3693              		.align	1
 3694              		.p2align 2,,3
 3695              		.global	RegionEU433ApplyDrOffset
 3696              		.syntax unified
 3697              		.code	16
 3698              		.thumb_func
 3699              		.fpu softvfp
 3700              		.type	RegionEU433ApplyDrOffset, %function
 3701              	RegionEU433ApplyDrOffset:
 3702              	.LFB65:
 993:../../../../../../Middlewares/Third_Party/LoRaWAN/Mac/region/RegionEU433.c **** 
 994:../../../../../../Middlewares/Third_Party/LoRaWAN/Mac/region/RegionEU433.c **** uint8_t RegionEU433ApplyDrOffset( uint8_t downlinkDwellTime, int8_t dr, int8_t drOffset )
 995:../../../../../../Middlewares/Third_Party/LoRaWAN/Mac/region/RegionEU433.c **** {
 3703              		.loc 1 995 0
 3704              		.cfi_startproc
 3705              		@ args = 0, pretend = 0, frame = 0
 3706              		@ frame_needed = 0, uses_anonymous_args = 0
 3707              		@ link register save eliminated.
 3708              	.LVL328:
 996:../../../../../../Middlewares/Third_Party/LoRaWAN/Mac/region/RegionEU433.c ****     int8_t datarate = dr - drOffset;
 3709              		.loc 1 996 0
 3710 0000 891A     		subs	r1, r1, r2
 3711              	.LVL329:
 3712 0002 49B2     		sxtb	r1, r1
 3713              	.LVL330:
 997:../../../../../../Middlewares/Third_Party/LoRaWAN/Mac/region/RegionEU433.c **** 
 998:../../../../../../Middlewares/Third_Party/LoRaWAN/Mac/region/RegionEU433.c ****     if( datarate < 0 )
 999:../../../../../../Middlewares/Third_Party/LoRaWAN/Mac/region/RegionEU433.c ****     {
1000:../../../../../../Middlewares/Third_Party/LoRaWAN/Mac/region/RegionEU433.c ****         datarate = DR_0;
1001:../../../../../../Middlewares/Third_Party/LoRaWAN/Mac/region/RegionEU433.c ****     }
1002:../../../../../../Middlewares/Third_Party/LoRaWAN/Mac/region/RegionEU433.c ****     return datarate;
 3714              		.loc 1 1002 0
 3715 0004 C843     		mvns	r0, r1
 3716              	.LVL331:
 3717 0006 C017     		asrs	r0, r0, #31
 3718 0008 0840     		ands	r0, r1
 3719 000a C0B2     		uxtb	r0, r0
1003:../../../../../../Middlewares/Third_Party/LoRaWAN/Mac/region/RegionEU433.c **** }
 3720              		.loc 1 1003 0
 3721              		@ sp needed
 3722 000c 7047     		bx	lr
ARM GAS  C:\Users\EBANO_~1\AppData\Local\Temp\ccpYmjAB.s 			page 93


 3723              		.cfi_endproc
 3724              	.LFE65:
 3725              		.size	RegionEU433ApplyDrOffset, .-RegionEU433ApplyDrOffset
 3726 000e C046     		.section	.text.RegionEU433RxBeaconSetup,"ax",%progbits
 3727              		.align	1
 3728              		.p2align 2,,3
 3729              		.global	RegionEU433RxBeaconSetup
 3730              		.syntax unified
 3731              		.code	16
 3732              		.thumb_func
 3733              		.fpu softvfp
 3734              		.type	RegionEU433RxBeaconSetup, %function
 3735              	RegionEU433RxBeaconSetup:
 3736              	.LFB66:
1004:../../../../../../Middlewares/Third_Party/LoRaWAN/Mac/region/RegionEU433.c **** 
1005:../../../../../../Middlewares/Third_Party/LoRaWAN/Mac/region/RegionEU433.c **** void RegionEU433RxBeaconSetup( RxBeaconSetup_t* rxBeaconSetup, uint8_t* outDr )
1006:../../../../../../Middlewares/Third_Party/LoRaWAN/Mac/region/RegionEU433.c **** {
 3737              		.loc 1 1006 0
 3738              		.cfi_startproc
 3739              		@ args = 0, pretend = 0, frame = 24
 3740              		@ frame_needed = 0, uses_anonymous_args = 0
 3741              	.LVL332:
 3742 0000 10B5     		push	{r4, lr}
 3743              	.LCFI39:
 3744              		.cfi_def_cfa_offset 8
 3745              		.cfi_offset 4, -8
 3746              		.cfi_offset 14, -4
1007:../../../../../../Middlewares/Third_Party/LoRaWAN/Mac/region/RegionEU433.c ****     RegionCommonRxBeaconSetupParams_t regionCommonRxBeaconSetup;
1008:../../../../../../Middlewares/Third_Party/LoRaWAN/Mac/region/RegionEU433.c **** 
1009:../../../../../../Middlewares/Third_Party/LoRaWAN/Mac/region/RegionEU433.c ****     regionCommonRxBeaconSetup.Datarates = DataratesEU433;
 3747              		.loc 1 1009 0
 3748 0002 0B4A     		ldr	r2, .L404
1006:../../../../../../Middlewares/Third_Party/LoRaWAN/Mac/region/RegionEU433.c ****     RegionCommonRxBeaconSetupParams_t regionCommonRxBeaconSetup;
 3749              		.loc 1 1006 0
 3750 0004 86B0     		sub	sp, sp, #24
 3751              	.LCFI40:
 3752              		.cfi_def_cfa_offset 32
 3753              		.loc 1 1009 0
 3754 0006 2032     		adds	r2, r2, #32
 3755 0008 0192     		str	r2, [sp, #4]
1010:../../../../../../Middlewares/Third_Party/LoRaWAN/Mac/region/RegionEU433.c ****     regionCommonRxBeaconSetup.Frequency = rxBeaconSetup->Frequency;
 3756              		.loc 1 1010 0
 3757 000a 8268     		ldr	r2, [r0, #8]
1009:../../../../../../Middlewares/Third_Party/LoRaWAN/Mac/region/RegionEU433.c ****     regionCommonRxBeaconSetup.Frequency = rxBeaconSetup->Frequency;
 3758              		.loc 1 1009 0
 3759 000c 01AB     		add	r3, sp, #4
 3760              		.loc 1 1010 0
 3761 000e 0292     		str	r2, [sp, #8]
1011:../../../../../../Middlewares/Third_Party/LoRaWAN/Mac/region/RegionEU433.c ****     regionCommonRxBeaconSetup.BeaconSize = EU433_BEACON_SIZE;
 3762              		.loc 1 1011 0
 3763 0010 084A     		ldr	r2, .L404+4
1006:../../../../../../Middlewares/Third_Party/LoRaWAN/Mac/region/RegionEU433.c ****     RegionCommonRxBeaconSetupParams_t regionCommonRxBeaconSetup;
 3764              		.loc 1 1006 0
 3765 0012 0C00     		movs	r4, r1
 3766              		.loc 1 1011 0
 3767 0014 1A81     		strh	r2, [r3, #8]
1012:../../../../../../Middlewares/Third_Party/LoRaWAN/Mac/region/RegionEU433.c ****     regionCommonRxBeaconSetup.BeaconDatarate = EU433_BEACON_CHANNEL_DR;
ARM GAS  C:\Users\EBANO_~1\AppData\Local\Temp\ccpYmjAB.s 			page 94


 3768              		.loc 1 1012 0
 3769 0016 0022     		movs	r2, #0
 3770 0018 9A72     		strb	r2, [r3, #10]
1013:../../../../../../Middlewares/Third_Party/LoRaWAN/Mac/region/RegionEU433.c ****     regionCommonRxBeaconSetup.BeaconChannelBW = EU433_BEACON_CHANNEL_BW;
1014:../../../../../../Middlewares/Third_Party/LoRaWAN/Mac/region/RegionEU433.c ****    regionCommonRxBeaconSetup.RxTime = rxBeaconSetup->RxTime;
 3771              		.loc 1 1014 0
 3772 001a 4268     		ldr	r2, [r0, #4]
 3773 001c 0492     		str	r2, [sp, #16]
1015:../../../../../../Middlewares/Third_Party/LoRaWAN/Mac/region/RegionEU433.c ****     regionCommonRxBeaconSetup.SymbolTimeout = rxBeaconSetup->SymbolTimeout;
 3774              		.loc 1 1015 0
 3775 001e 0288     		ldrh	r2, [r0]
1016:../../../../../../Middlewares/Third_Party/LoRaWAN/Mac/region/RegionEU433.c **** 
1017:../../../../../../Middlewares/Third_Party/LoRaWAN/Mac/region/RegionEU433.c ****     RegionCommonRxBeaconSetup( &regionCommonRxBeaconSetup );
 3776              		.loc 1 1017 0
 3777 0020 1800     		movs	r0, r3
 3778              	.LVL333:
1015:../../../../../../Middlewares/Third_Party/LoRaWAN/Mac/region/RegionEU433.c ****     regionCommonRxBeaconSetup.SymbolTimeout = rxBeaconSetup->SymbolTimeout;
 3779              		.loc 1 1015 0
 3780 0022 1A82     		strh	r2, [r3, #16]
 3781              		.loc 1 1017 0
 3782 0024 FFF7FEFF 		bl	RegionCommonRxBeaconSetup
 3783              	.LVL334:
1018:../../../../../../Middlewares/Third_Party/LoRaWAN/Mac/region/RegionEU433.c **** 
1019:../../../../../../Middlewares/Third_Party/LoRaWAN/Mac/region/RegionEU433.c ****     // Store downlink datarate
1020:../../../../../../Middlewares/Third_Party/LoRaWAN/Mac/region/RegionEU433.c ****     *outDr = EU433_BEACON_CHANNEL_DR;
 3784              		.loc 1 1020 0
 3785 0028 0323     		movs	r3, #3
 3786 002a 2370     		strb	r3, [r4]
1021:../../../../../../Middlewares/Third_Party/LoRaWAN/Mac/region/RegionEU433.c **** }
 3787              		.loc 1 1021 0
 3788 002c 06B0     		add	sp, sp, #24
 3789              		@ sp needed
 3790              	.LVL335:
 3791 002e 10BD     		pop	{r4, pc}
 3792              	.L405:
 3793              		.align	2
 3794              	.L404:
 3795 0030 D8000000 		.word	.LANCHOR1
 3796 0034 11030000 		.word	785
 3797              		.cfi_endproc
 3798              	.LFE66:
 3799              		.size	RegionEU433RxBeaconSetup, .-RegionEU433RxBeaconSetup
 3800              		.bss
 3801              		.align	2
 3802              		.type	NvmCtx, %object
 3803              		.size	NvmCtx, 212
 3804              	NvmCtx:
 3805 0000 00000000 		.space	212
 3805      00000000 
 3805      00000000 
 3805      00000000 
 3805      00000000 
 3806              		.section	.rodata
 3807              		.align	2
 3808              		.set	.LANCHOR1,. + 0
 3809              		.type	BandwidthsEU433, %object
 3810              		.size	BandwidthsEU433, 32
ARM GAS  C:\Users\EBANO_~1\AppData\Local\Temp\ccpYmjAB.s 			page 95


 3811              	BandwidthsEU433:
 3812 00d8 48E80100 		.word	125000
 3813 00dc 48E80100 		.word	125000
 3814 00e0 48E80100 		.word	125000
 3815 00e4 48E80100 		.word	125000
 3816 00e8 48E80100 		.word	125000
 3817 00ec 48E80100 		.word	125000
 3818 00f0 90D00300 		.word	250000
 3819 00f4 00000000 		.word	0
 3820              		.type	DataratesEU433, %object
 3821              		.size	DataratesEU433, 8
 3822              	DataratesEU433:
 3823 00f8 0C       		.byte	12
 3824 00f9 0B       		.byte	11
 3825 00fa 0A       		.byte	10
 3826 00fb 09       		.byte	9
 3827 00fc 08       		.byte	8
 3828 00fd 07       		.byte	7
 3829 00fe 07       		.byte	7
 3830 00ff 32       		.byte	50
 3831              		.align	2
 3832              		.set	.LANCHOR0,. + 0
 3833              		.type	MaxPayloadOfDatarateEU433, %object
 3834              		.size	MaxPayloadOfDatarateEU433, 8
 3835              	MaxPayloadOfDatarateEU433:
 3836 0100 33       		.byte	51
 3837 0101 33       		.byte	51
 3838 0102 33       		.byte	51
 3839 0103 73       		.byte	115
 3840 0104 F2       		.byte	-14
 3841 0105 F2       		.byte	-14
 3842 0106 F2       		.byte	-14
 3843 0107 F2       		.byte	-14
 3844              		.type	MaxPayloadOfDatarateRepeaterEU433, %object
 3845              		.size	MaxPayloadOfDatarateRepeaterEU433, 8
 3846              	MaxPayloadOfDatarateRepeaterEU433:
 3847 0108 33       		.byte	51
 3848 0109 33       		.byte	51
 3849 010a 33       		.byte	51
 3850 010b 73       		.byte	115
 3851 010c DE       		.byte	-34
 3852 010d DE       		.byte	-34
 3853 010e DE       		.byte	-34
 3854 010f DE       		.byte	-34
 3855              	.LC0:
 3856 0110 D8B9D119 		.word	433175000
 3857 0114 00000000 		.word	0
 3858 0118 50       		.byte	80
 3859 0119 00       		.byte	0
 3860 011a 0000     		.space	2
 3861              	.LC1:
 3862 011c 18C7D419 		.word	433375000
 3863 0120 00000000 		.word	0
 3864 0124 50       		.byte	80
 3865 0125 00       		.byte	0
 3866 0126 0000     		.space	2
 3867              	.LC2:
ARM GAS  C:\Users\EBANO_~1\AppData\Local\Temp\ccpYmjAB.s 			page 96


 3868 0128 58D4D719 		.word	433575000
 3869 012c 00000000 		.word	0
 3870 0130 50       		.byte	80
 3871 0131 00       		.byte	0
 3872 0132 0000     		.space	2
 3873              		.text
 3874              	.Letext0:
 3875              		.file 2 "c:\\program files (x86)\\gnu tools arm embedded\\7 2018-q2-update\\arm-none-eabi\\include
 3876              		.file 3 "c:\\program files (x86)\\gnu tools arm embedded\\7 2018-q2-update\\arm-none-eabi\\include
 3877              		.file 4 "../../../../../../Drivers/CMSIS/Device/ST/STM32L0xx/Include/system_stm32l0xx.h"
 3878              		.file 5 "c:\\program files (x86)\\gnu tools arm embedded\\7 2018-q2-update\\lib\\gcc\\arm-none-eab
 3879              		.file 6 "c:\\program files (x86)\\gnu tools arm embedded\\7 2018-q2-update\\arm-none-eabi\\include
 3880              		.file 7 "c:\\program files (x86)\\gnu tools arm embedded\\7 2018-q2-update\\arm-none-eabi\\include
 3881              		.file 8 "c:\\program files (x86)\\gnu tools arm embedded\\7 2018-q2-update\\arm-none-eabi\\include
 3882              		.file 9 "c:\\program files (x86)\\gnu tools arm embedded\\7 2018-q2-update\\arm-none-eabi\\include
 3883              		.file 10 "../../../../../../Middlewares/Third_Party/LoRaWAN/Utilities/utilities.h"
 3884              		.file 11 "../../../../../../Middlewares/Third_Party/LoRaWAN/Mac/LoRaMacTypes.h"
 3885              		.file 12 "c:\\program files (x86)\\gnu tools arm embedded\\7 2018-q2-update\\arm-none-eabi\\includ
 3886              		.file 13 "../../../../../../Middlewares/Third_Party/LoRaWAN/Phy/radio.h"
 3887              		.file 14 "../../../../../../Middlewares/Third_Party/LoRaWAN/Mac/LoRaMac.h"
 3888              		.file 15 "../../../../../../Middlewares/Third_Party/LoRaWAN/Mac/region/Region.h"
 3889              		.file 16 "../../../../../../Middlewares/Third_Party/LoRaWAN/Mac/region/RegionCommon.h"
 3890              		.file 17 "../../../../../../Middlewares/Third_Party/LoRaWAN/Mac/region/RegionEU433.h"
 3891              		.file 18 "../../../../../../Middlewares/Third_Party/LoRaWAN/Utilities/timeServer.h"
 3892              		.file 19 "<built-in>"
 3893              		.section	.debug_info,"",%progbits
 3894              	.Ldebug_info0:
 3895 0000 7D330000 		.4byte	0x337d
 3896 0004 0200     		.2byte	0x2
 3897 0006 00000000 		.4byte	.Ldebug_abbrev0
 3898 000a 04       		.byte	0x4
 3899 000b 01       		.uleb128 0x1
 3900 000c F2080000 		.4byte	.LASF560
 3901 0010 0C       		.byte	0xc
 3902 0011 13100000 		.4byte	.LASF561
 3903 0015 4F070000 		.4byte	.LASF562
 3904 0019 38020000 		.4byte	.Ldebug_ranges0+0x238
 3905 001d 00000000 		.4byte	0
 3906 0021 00000000 		.4byte	0
 3907 0025 00000000 		.4byte	.Ldebug_line0
 3908 0029 02       		.uleb128 0x2
 3909 002a 01       		.byte	0x1
 3910 002b 06       		.byte	0x6
 3911 002c 0A120000 		.4byte	.LASF2
 3912 0030 03       		.uleb128 0x3
 3913 0031 5A200000 		.4byte	.LASF0
 3914 0035 02       		.byte	0x2
 3915 0036 29       		.byte	0x29
 3916 0037 29000000 		.4byte	0x29
 3917 003b 03       		.uleb128 0x3
 3918 003c 9B000000 		.4byte	.LASF1
 3919 0040 02       		.byte	0x2
 3920 0041 2B       		.byte	0x2b
 3921 0042 46000000 		.4byte	0x46
 3922 0046 02       		.uleb128 0x2
 3923 0047 01       		.byte	0x1
 3924 0048 08       		.byte	0x8
ARM GAS  C:\Users\EBANO_~1\AppData\Local\Temp\ccpYmjAB.s 			page 97


 3925 0049 02070000 		.4byte	.LASF3
 3926 004d 03       		.uleb128 0x3
 3927 004e 95050000 		.4byte	.LASF4
 3928 0052 02       		.byte	0x2
 3929 0053 37       		.byte	0x37
 3930 0054 58000000 		.4byte	0x58
 3931 0058 02       		.uleb128 0x2
 3932 0059 02       		.byte	0x2
 3933 005a 05       		.byte	0x5
 3934 005b 07210000 		.4byte	.LASF5
 3935 005f 03       		.uleb128 0x3
 3936 0060 AB050000 		.4byte	.LASF6
 3937 0064 02       		.byte	0x2
 3938 0065 39       		.byte	0x39
 3939 0066 6A000000 		.4byte	0x6a
 3940 006a 02       		.uleb128 0x2
 3941 006b 02       		.byte	0x2
 3942 006c 07       		.byte	0x7
 3943 006d F7110000 		.4byte	.LASF7
 3944 0071 03       		.uleb128 0x3
 3945 0072 F1190000 		.4byte	.LASF8
 3946 0076 02       		.byte	0x2
 3947 0077 4D       		.byte	0x4d
 3948 0078 7C000000 		.4byte	0x7c
 3949 007c 02       		.uleb128 0x2
 3950 007d 04       		.byte	0x4
 3951 007e 05       		.byte	0x5
 3952 007f 30140000 		.4byte	.LASF9
 3953 0083 03       		.uleb128 0x3
 3954 0084 041A0000 		.4byte	.LASF10
 3955 0088 02       		.byte	0x2
 3956 0089 4F       		.byte	0x4f
 3957 008a 8E000000 		.4byte	0x8e
 3958 008e 02       		.uleb128 0x2
 3959 008f 04       		.byte	0x4
 3960 0090 07       		.byte	0x7
 3961 0091 9C150000 		.4byte	.LASF11
 3962 0095 02       		.uleb128 0x2
 3963 0096 08       		.byte	0x8
 3964 0097 05       		.byte	0x5
 3965 0098 621E0000 		.4byte	.LASF12
 3966 009c 02       		.uleb128 0x2
 3967 009d 08       		.byte	0x8
 3968 009e 07       		.byte	0x7
 3969 009f CB1B0000 		.4byte	.LASF13
 3970 00a3 04       		.uleb128 0x4
 3971 00a4 04       		.byte	0x4
 3972 00a5 05       		.byte	0x5
 3973 00a6 696E7400 		.ascii	"int\000"
 3974 00aa 02       		.uleb128 0x2
 3975 00ab 04       		.byte	0x4
 3976 00ac 07       		.byte	0x7
 3977 00ad 96200000 		.4byte	.LASF14
 3978 00b1 03       		.uleb128 0x3
 3979 00b2 0F110000 		.4byte	.LASF15
 3980 00b6 03       		.byte	0x3
 3981 00b7 14       		.byte	0x14
ARM GAS  C:\Users\EBANO_~1\AppData\Local\Temp\ccpYmjAB.s 			page 98


 3982 00b8 30000000 		.4byte	0x30
 3983 00bc 03       		.uleb128 0x3
 3984 00bd 0A0B0000 		.4byte	.LASF16
 3985 00c1 03       		.byte	0x3
 3986 00c2 18       		.byte	0x18
 3987 00c3 3B000000 		.4byte	0x3b
 3988 00c7 05       		.uleb128 0x5
 3989 00c8 BC000000 		.4byte	0xbc
 3990 00cc 03       		.uleb128 0x3
 3991 00cd D8110000 		.4byte	.LASF17
 3992 00d1 03       		.byte	0x3
 3993 00d2 20       		.byte	0x20
 3994 00d3 4D000000 		.4byte	0x4d
 3995 00d7 03       		.uleb128 0x3
 3996 00d8 5C010000 		.4byte	.LASF18
 3997 00dc 03       		.byte	0x3
 3998 00dd 24       		.byte	0x24
 3999 00de 5F000000 		.4byte	0x5f
 4000 00e2 03       		.uleb128 0x3
 4001 00e3 F5020000 		.4byte	.LASF19
 4002 00e7 03       		.byte	0x3
 4003 00e8 2C       		.byte	0x2c
 4004 00e9 71000000 		.4byte	0x71
 4005 00ed 03       		.uleb128 0x3
 4006 00ee F0140000 		.4byte	.LASF20
 4007 00f2 03       		.byte	0x3
 4008 00f3 30       		.byte	0x30
 4009 00f4 83000000 		.4byte	0x83
 4010 00f8 05       		.uleb128 0x5
 4011 00f9 ED000000 		.4byte	0xed
 4012 00fd 06       		.uleb128 0x6
 4013 00fe DD120000 		.4byte	.LASF21
 4014 0102 04       		.byte	0x4
 4015 0103 4A       		.byte	0x4a
 4016 0104 ED000000 		.4byte	0xed
 4017 0108 01       		.byte	0x1
 4018 0109 01       		.byte	0x1
 4019 010a 07       		.uleb128 0x7
 4020 010b C7000000 		.4byte	0xc7
 4021 010f 1A010000 		.4byte	0x11a
 4022 0113 08       		.uleb128 0x8
 4023 0114 AA000000 		.4byte	0xaa
 4024 0118 0F       		.byte	0xf
 4025 0119 00       		.byte	0
 4026 011a 05       		.uleb128 0x5
 4027 011b 0A010000 		.4byte	0x10a
 4028 011f 06       		.uleb128 0x6
 4029 0120 161F0000 		.4byte	.LASF22
 4030 0124 04       		.byte	0x4
 4031 0125 4D       		.byte	0x4d
 4032 0126 1A010000 		.4byte	0x11a
 4033 012a 01       		.byte	0x1
 4034 012b 01       		.byte	0x1
 4035 012c 07       		.uleb128 0x7
 4036 012d C7000000 		.4byte	0xc7
 4037 0131 3C010000 		.4byte	0x13c
 4038 0135 08       		.uleb128 0x8
ARM GAS  C:\Users\EBANO_~1\AppData\Local\Temp\ccpYmjAB.s 			page 99


 4039 0136 AA000000 		.4byte	0xaa
 4040 013a 07       		.byte	0x7
 4041 013b 00       		.byte	0
 4042 013c 05       		.uleb128 0x5
 4043 013d 2C010000 		.4byte	0x12c
 4044 0141 06       		.uleb128 0x6
 4045 0142 87160000 		.4byte	.LASF23
 4046 0146 04       		.byte	0x4
 4047 0147 4E       		.byte	0x4e
 4048 0148 3C010000 		.4byte	0x13c
 4049 014c 01       		.byte	0x1
 4050 014d 01       		.byte	0x1
 4051 014e 07       		.uleb128 0x7
 4052 014f C7000000 		.4byte	0xc7
 4053 0153 5E010000 		.4byte	0x15e
 4054 0157 08       		.uleb128 0x8
 4055 0158 AA000000 		.4byte	0xaa
 4056 015c 08       		.byte	0x8
 4057 015d 00       		.byte	0
 4058 015e 05       		.uleb128 0x5
 4059 015f 4E010000 		.4byte	0x14e
 4060 0163 06       		.uleb128 0x6
 4061 0164 4B190000 		.4byte	.LASF24
 4062 0168 04       		.byte	0x4
 4063 0169 4F       		.byte	0x4f
 4064 016a 5E010000 		.4byte	0x15e
 4065 016e 01       		.byte	0x1
 4066 016f 01       		.byte	0x1
 4067 0170 03       		.uleb128 0x3
 4068 0171 EC0A0000 		.4byte	.LASF25
 4069 0175 05       		.byte	0x5
 4070 0176 D8       		.byte	0xd8
 4071 0177 AA000000 		.4byte	0xaa
 4072 017b 02       		.uleb128 0x2
 4073 017c 08       		.byte	0x8
 4074 017d 04       		.byte	0x4
 4075 017e 5A150000 		.4byte	.LASF26
 4076 0182 09       		.uleb128 0x9
 4077 0183 04       		.byte	0x4
 4078 0184 03       		.uleb128 0x3
 4079 0185 52050000 		.4byte	.LASF27
 4080 0189 06       		.byte	0x6
 4081 018a 22       		.byte	0x22
 4082 018b 8F010000 		.4byte	0x18f
 4083 018f 0A       		.uleb128 0xa
 4084 0190 04       		.byte	0x4
 4085 0191 95010000 		.4byte	0x195
 4086 0195 0B       		.uleb128 0xb
 4087 0196 58040000 		.4byte	.LASF134
 4088 019a 01       		.byte	0x1
 4089 019b 03       		.uleb128 0x3
 4090 019c BF0A0000 		.4byte	.LASF28
 4091 01a0 07       		.byte	0x7
 4092 01a1 2C       		.byte	0x2c
 4093 01a2 7C000000 		.4byte	0x7c
 4094 01a6 03       		.uleb128 0x3
 4095 01a7 6F190000 		.4byte	.LASF29
ARM GAS  C:\Users\EBANO_~1\AppData\Local\Temp\ccpYmjAB.s 			page 100


 4096 01ab 07       		.byte	0x7
 4097 01ac 72       		.byte	0x72
 4098 01ad 7C000000 		.4byte	0x7c
 4099 01b1 0C       		.uleb128 0xc
 4100 01b2 BF0C0000 		.4byte	.LASF30
 4101 01b6 05       		.byte	0x5
 4102 01b7 6501     		.2byte	0x165
 4103 01b9 AA000000 		.4byte	0xaa
 4104 01bd 0D       		.uleb128 0xd
 4105 01be 04       		.byte	0x4
 4106 01bf 07       		.byte	0x7
 4107 01c0 A6       		.byte	0xa6
 4108 01c1 DC010000 		.4byte	0x1dc
 4109 01c5 0E       		.uleb128 0xe
 4110 01c6 9E130000 		.4byte	.LASF31
 4111 01ca 07       		.byte	0x7
 4112 01cb A8       		.byte	0xa8
 4113 01cc B1010000 		.4byte	0x1b1
 4114 01d0 0E       		.uleb128 0xe
 4115 01d1 650C0000 		.4byte	.LASF32
 4116 01d5 07       		.byte	0x7
 4117 01d6 A9       		.byte	0xa9
 4118 01d7 DC010000 		.4byte	0x1dc
 4119 01db 00       		.byte	0
 4120 01dc 07       		.uleb128 0x7
 4121 01dd 46000000 		.4byte	0x46
 4122 01e1 EC010000 		.4byte	0x1ec
 4123 01e5 08       		.uleb128 0x8
 4124 01e6 AA000000 		.4byte	0xaa
 4125 01ea 03       		.byte	0x3
 4126 01eb 00       		.byte	0
 4127 01ec 0F       		.uleb128 0xf
 4128 01ed 08       		.byte	0x8
 4129 01ee 07       		.byte	0x7
 4130 01ef A3       		.byte	0xa3
 4131 01f0 11020000 		.4byte	0x211
 4132 01f4 10       		.uleb128 0x10
 4133 01f5 020B0000 		.4byte	.LASF33
 4134 01f9 07       		.byte	0x7
 4135 01fa A5       		.byte	0xa5
 4136 01fb A3000000 		.4byte	0xa3
 4137 01ff 02       		.byte	0x2
 4138 0200 23       		.byte	0x23
 4139 0201 00       		.uleb128 0
 4140 0202 10       		.uleb128 0x10
 4141 0203 371A0000 		.4byte	.LASF34
 4142 0207 07       		.byte	0x7
 4143 0208 AA       		.byte	0xaa
 4144 0209 BD010000 		.4byte	0x1bd
 4145 020d 02       		.byte	0x2
 4146 020e 23       		.byte	0x23
 4147 020f 04       		.uleb128 0x4
 4148 0210 00       		.byte	0
 4149 0211 03       		.uleb128 0x3
 4150 0212 CE190000 		.4byte	.LASF35
 4151 0216 07       		.byte	0x7
 4152 0217 AB       		.byte	0xab
ARM GAS  C:\Users\EBANO_~1\AppData\Local\Temp\ccpYmjAB.s 			page 101


 4153 0218 EC010000 		.4byte	0x1ec
 4154 021c 03       		.uleb128 0x3
 4155 021d B51D0000 		.4byte	.LASF36
 4156 0221 07       		.byte	0x7
 4157 0222 AF       		.byte	0xaf
 4158 0223 84010000 		.4byte	0x184
 4159 0227 03       		.uleb128 0x3
 4160 0228 3B110000 		.4byte	.LASF37
 4161 022c 08       		.byte	0x8
 4162 022d 16       		.byte	0x16
 4163 022e 8E000000 		.4byte	0x8e
 4164 0232 11       		.uleb128 0x11
 4165 0233 2E170000 		.4byte	.LASF42
 4166 0237 18       		.byte	0x18
 4167 0238 08       		.byte	0x8
 4168 0239 2F       		.byte	0x2f
 4169 023a 91020000 		.4byte	0x291
 4170 023e 10       		.uleb128 0x10
 4171 023f 290E0000 		.4byte	.LASF38
 4172 0243 08       		.byte	0x8
 4173 0244 31       		.byte	0x31
 4174 0245 91020000 		.4byte	0x291
 4175 0249 02       		.byte	0x2
 4176 024a 23       		.byte	0x23
 4177 024b 00       		.uleb128 0
 4178 024c 12       		.uleb128 0x12
 4179 024d 5F6B00   		.ascii	"_k\000"
 4180 0250 08       		.byte	0x8
 4181 0251 32       		.byte	0x32
 4182 0252 A3000000 		.4byte	0xa3
 4183 0256 02       		.byte	0x2
 4184 0257 23       		.byte	0x23
 4185 0258 04       		.uleb128 0x4
 4186 0259 10       		.uleb128 0x10
 4187 025a 38150000 		.4byte	.LASF39
 4188 025e 08       		.byte	0x8
 4189 025f 32       		.byte	0x32
 4190 0260 A3000000 		.4byte	0xa3
 4191 0264 02       		.byte	0x2
 4192 0265 23       		.byte	0x23
 4193 0266 08       		.uleb128 0x8
 4194 0267 10       		.uleb128 0x10
 4195 0268 54200000 		.4byte	.LASF40
 4196 026c 08       		.byte	0x8
 4197 026d 32       		.byte	0x32
 4198 026e A3000000 		.4byte	0xa3
 4199 0272 02       		.byte	0x2
 4200 0273 23       		.byte	0x23
 4201 0274 0C       		.uleb128 0xc
 4202 0275 10       		.uleb128 0x10
 4203 0276 3A070000 		.4byte	.LASF41
 4204 027a 08       		.byte	0x8
 4205 027b 32       		.byte	0x32
 4206 027c A3000000 		.4byte	0xa3
 4207 0280 02       		.byte	0x2
 4208 0281 23       		.byte	0x23
 4209 0282 10       		.uleb128 0x10
ARM GAS  C:\Users\EBANO_~1\AppData\Local\Temp\ccpYmjAB.s 			page 102


 4210 0283 12       		.uleb128 0x12
 4211 0284 5F7800   		.ascii	"_x\000"
 4212 0287 08       		.byte	0x8
 4213 0288 33       		.byte	0x33
 4214 0289 97020000 		.4byte	0x297
 4215 028d 02       		.byte	0x2
 4216 028e 23       		.byte	0x23
 4217 028f 14       		.uleb128 0x14
 4218 0290 00       		.byte	0
 4219 0291 0A       		.uleb128 0xa
 4220 0292 04       		.byte	0x4
 4221 0293 32020000 		.4byte	0x232
 4222 0297 07       		.uleb128 0x7
 4223 0298 27020000 		.4byte	0x227
 4224 029c A7020000 		.4byte	0x2a7
 4225 02a0 08       		.uleb128 0x8
 4226 02a1 AA000000 		.4byte	0xaa
 4227 02a5 00       		.byte	0
 4228 02a6 00       		.byte	0
 4229 02a7 11       		.uleb128 0x11
 4230 02a8 FF040000 		.4byte	.LASF43
 4231 02ac 24       		.byte	0x24
 4232 02ad 08       		.byte	0x8
 4233 02ae 37       		.byte	0x37
 4234 02af 32030000 		.4byte	0x332
 4235 02b3 10       		.uleb128 0x10
 4236 02b4 D30F0000 		.4byte	.LASF44
 4237 02b8 08       		.byte	0x8
 4238 02b9 39       		.byte	0x39
 4239 02ba A3000000 		.4byte	0xa3
 4240 02be 02       		.byte	0x2
 4241 02bf 23       		.byte	0x23
 4242 02c0 00       		.uleb128 0
 4243 02c1 10       		.uleb128 0x10
 4244 02c2 63200000 		.4byte	.LASF45
 4245 02c6 08       		.byte	0x8
 4246 02c7 3A       		.byte	0x3a
 4247 02c8 A3000000 		.4byte	0xa3
 4248 02cc 02       		.byte	0x2
 4249 02cd 23       		.byte	0x23
 4250 02ce 04       		.uleb128 0x4
 4251 02cf 10       		.uleb128 0x10
 4252 02d0 7B0C0000 		.4byte	.LASF46
 4253 02d4 08       		.byte	0x8
 4254 02d5 3B       		.byte	0x3b
 4255 02d6 A3000000 		.4byte	0xa3
 4256 02da 02       		.byte	0x2
 4257 02db 23       		.byte	0x23
 4258 02dc 08       		.uleb128 0x8
 4259 02dd 10       		.uleb128 0x10
 4260 02de 7B0D0000 		.4byte	.LASF47
 4261 02e2 08       		.byte	0x8
 4262 02e3 3C       		.byte	0x3c
 4263 02e4 A3000000 		.4byte	0xa3
 4264 02e8 02       		.byte	0x2
 4265 02e9 23       		.byte	0x23
 4266 02ea 0C       		.uleb128 0xc
ARM GAS  C:\Users\EBANO_~1\AppData\Local\Temp\ccpYmjAB.s 			page 103


 4267 02eb 10       		.uleb128 0x10
 4268 02ec 2C010000 		.4byte	.LASF48
 4269 02f0 08       		.byte	0x8
 4270 02f1 3D       		.byte	0x3d
 4271 02f2 A3000000 		.4byte	0xa3
 4272 02f6 02       		.byte	0x2
 4273 02f7 23       		.byte	0x23
 4274 02f8 10       		.uleb128 0x10
 4275 02f9 10       		.uleb128 0x10
 4276 02fa B4080000 		.4byte	.LASF49
 4277 02fe 08       		.byte	0x8
 4278 02ff 3E       		.byte	0x3e
 4279 0300 A3000000 		.4byte	0xa3
 4280 0304 02       		.byte	0x2
 4281 0305 23       		.byte	0x23
 4282 0306 14       		.uleb128 0x14
 4283 0307 10       		.uleb128 0x10
 4284 0308 A8060000 		.4byte	.LASF50
 4285 030c 08       		.byte	0x8
 4286 030d 3F       		.byte	0x3f
 4287 030e A3000000 		.4byte	0xa3
 4288 0312 02       		.byte	0x2
 4289 0313 23       		.byte	0x23
 4290 0314 18       		.uleb128 0x18
 4291 0315 10       		.uleb128 0x10
 4292 0316 20050000 		.4byte	.LASF51
 4293 031a 08       		.byte	0x8
 4294 031b 40       		.byte	0x40
 4295 031c A3000000 		.4byte	0xa3
 4296 0320 02       		.byte	0x2
 4297 0321 23       		.byte	0x23
 4298 0322 1C       		.uleb128 0x1c
 4299 0323 10       		.uleb128 0x10
 4300 0324 B2060000 		.4byte	.LASF52
 4301 0328 08       		.byte	0x8
 4302 0329 41       		.byte	0x41
 4303 032a A3000000 		.4byte	0xa3
 4304 032e 02       		.byte	0x2
 4305 032f 23       		.byte	0x23
 4306 0330 20       		.uleb128 0x20
 4307 0331 00       		.byte	0
 4308 0332 13       		.uleb128 0x13
 4309 0333 DC0F0000 		.4byte	.LASF53
 4310 0337 0801     		.2byte	0x108
 4311 0339 08       		.byte	0x8
 4312 033a 4A       		.byte	0x4a
 4313 033b 7B030000 		.4byte	0x37b
 4314 033f 10       		.uleb128 0x10
 4315 0340 850D0000 		.4byte	.LASF54
 4316 0344 08       		.byte	0x8
 4317 0345 4B       		.byte	0x4b
 4318 0346 7B030000 		.4byte	0x37b
 4319 034a 02       		.byte	0x2
 4320 034b 23       		.byte	0x23
 4321 034c 00       		.uleb128 0
 4322 034d 10       		.uleb128 0x10
 4323 034e 89060000 		.4byte	.LASF55
ARM GAS  C:\Users\EBANO_~1\AppData\Local\Temp\ccpYmjAB.s 			page 104


 4324 0352 08       		.byte	0x8
 4325 0353 4C       		.byte	0x4c
 4326 0354 7B030000 		.4byte	0x37b
 4327 0358 03       		.byte	0x3
 4328 0359 23       		.byte	0x23
 4329 035a 8001     		.uleb128 0x80
 4330 035c 10       		.uleb128 0x10
 4331 035d 35010000 		.4byte	.LASF56
 4332 0361 08       		.byte	0x8
 4333 0362 4E       		.byte	0x4e
 4334 0363 27020000 		.4byte	0x227
 4335 0367 03       		.byte	0x3
 4336 0368 23       		.byte	0x23
 4337 0369 8002     		.uleb128 0x100
 4338 036b 10       		.uleb128 0x10
 4339 036c 4F1A0000 		.4byte	.LASF57
 4340 0370 08       		.byte	0x8
 4341 0371 51       		.byte	0x51
 4342 0372 27020000 		.4byte	0x227
 4343 0376 03       		.byte	0x3
 4344 0377 23       		.byte	0x23
 4345 0378 8402     		.uleb128 0x104
 4346 037a 00       		.byte	0
 4347 037b 07       		.uleb128 0x7
 4348 037c 82010000 		.4byte	0x182
 4349 0380 8B030000 		.4byte	0x38b
 4350 0384 08       		.uleb128 0x8
 4351 0385 AA000000 		.4byte	0xaa
 4352 0389 1F       		.byte	0x1f
 4353 038a 00       		.byte	0
 4354 038b 13       		.uleb128 0x13
 4355 038c DF000000 		.4byte	.LASF58
 4356 0390 9001     		.2byte	0x190
 4357 0392 08       		.byte	0x8
 4358 0393 5D       		.byte	0x5d
 4359 0394 D2030000 		.4byte	0x3d2
 4360 0398 10       		.uleb128 0x10
 4361 0399 290E0000 		.4byte	.LASF38
 4362 039d 08       		.byte	0x8
 4363 039e 5E       		.byte	0x5e
 4364 039f D2030000 		.4byte	0x3d2
 4365 03a3 02       		.byte	0x2
 4366 03a4 23       		.byte	0x23
 4367 03a5 00       		.uleb128 0
 4368 03a6 10       		.uleb128 0x10
 4369 03a7 43010000 		.4byte	.LASF59
 4370 03ab 08       		.byte	0x8
 4371 03ac 5F       		.byte	0x5f
 4372 03ad A3000000 		.4byte	0xa3
 4373 03b1 02       		.byte	0x2
 4374 03b2 23       		.byte	0x23
 4375 03b3 04       		.uleb128 0x4
 4376 03b4 10       		.uleb128 0x10
 4377 03b5 B8190000 		.4byte	.LASF60
 4378 03b9 08       		.byte	0x8
 4379 03ba 61       		.byte	0x61
 4380 03bb D8030000 		.4byte	0x3d8
ARM GAS  C:\Users\EBANO_~1\AppData\Local\Temp\ccpYmjAB.s 			page 105


 4381 03bf 02       		.byte	0x2
 4382 03c0 23       		.byte	0x23
 4383 03c1 08       		.uleb128 0x8
 4384 03c2 10       		.uleb128 0x10
 4385 03c3 DC0F0000 		.4byte	.LASF53
 4386 03c7 08       		.byte	0x8
 4387 03c8 62       		.byte	0x62
 4388 03c9 32030000 		.4byte	0x332
 4389 03cd 03       		.byte	0x3
 4390 03ce 23       		.byte	0x23
 4391 03cf 8801     		.uleb128 0x88
 4392 03d1 00       		.byte	0
 4393 03d2 0A       		.uleb128 0xa
 4394 03d3 04       		.byte	0x4
 4395 03d4 8B030000 		.4byte	0x38b
 4396 03d8 07       		.uleb128 0x7
 4397 03d9 E8030000 		.4byte	0x3e8
 4398 03dd E8030000 		.4byte	0x3e8
 4399 03e1 08       		.uleb128 0x8
 4400 03e2 AA000000 		.4byte	0xaa
 4401 03e6 1F       		.byte	0x1f
 4402 03e7 00       		.byte	0
 4403 03e8 0A       		.uleb128 0xa
 4404 03e9 04       		.byte	0x4
 4405 03ea EE030000 		.4byte	0x3ee
 4406 03ee 14       		.uleb128 0x14
 4407 03ef 01       		.byte	0x1
 4408 03f0 11       		.uleb128 0x11
 4409 03f1 09130000 		.4byte	.LASF61
 4410 03f5 08       		.byte	0x8
 4411 03f6 08       		.byte	0x8
 4412 03f7 75       		.byte	0x75
 4413 03f8 19040000 		.4byte	0x419
 4414 03fc 10       		.uleb128 0x10
 4415 03fd B2040000 		.4byte	.LASF62
 4416 0401 08       		.byte	0x8
 4417 0402 76       		.byte	0x76
 4418 0403 19040000 		.4byte	0x419
 4419 0407 02       		.byte	0x2
 4420 0408 23       		.byte	0x23
 4421 0409 00       		.uleb128 0
 4422 040a 10       		.uleb128 0x10
 4423 040b F0070000 		.4byte	.LASF63
 4424 040f 08       		.byte	0x8
 4425 0410 77       		.byte	0x77
 4426 0411 A3000000 		.4byte	0xa3
 4427 0415 02       		.byte	0x2
 4428 0416 23       		.byte	0x23
 4429 0417 04       		.uleb128 0x4
 4430 0418 00       		.byte	0
 4431 0419 0A       		.uleb128 0xa
 4432 041a 04       		.byte	0x4
 4433 041b 46000000 		.4byte	0x46
 4434 041f 11       		.uleb128 0x11
 4435 0420 9F190000 		.4byte	.LASF64
 4436 0424 68       		.byte	0x68
 4437 0425 08       		.byte	0x8
ARM GAS  C:\Users\EBANO_~1\AppData\Local\Temp\ccpYmjAB.s 			page 106


 4438 0426 B5       		.byte	0xb5
 4439 0427 79050000 		.4byte	0x579
 4440 042b 12       		.uleb128 0x12
 4441 042c 5F7000   		.ascii	"_p\000"
 4442 042f 08       		.byte	0x8
 4443 0430 B6       		.byte	0xb6
 4444 0431 19040000 		.4byte	0x419
 4445 0435 02       		.byte	0x2
 4446 0436 23       		.byte	0x23
 4447 0437 00       		.uleb128 0
 4448 0438 12       		.uleb128 0x12
 4449 0439 5F7200   		.ascii	"_r\000"
 4450 043c 08       		.byte	0x8
 4451 043d B7       		.byte	0xb7
 4452 043e A3000000 		.4byte	0xa3
 4453 0442 02       		.byte	0x2
 4454 0443 23       		.byte	0x23
 4455 0444 04       		.uleb128 0x4
 4456 0445 12       		.uleb128 0x12
 4457 0446 5F7700   		.ascii	"_w\000"
 4458 0449 08       		.byte	0x8
 4459 044a B8       		.byte	0xb8
 4460 044b A3000000 		.4byte	0xa3
 4461 044f 02       		.byte	0x2
 4462 0450 23       		.byte	0x23
 4463 0451 08       		.uleb128 0x8
 4464 0452 10       		.uleb128 0x10
 4465 0453 AD010000 		.4byte	.LASF65
 4466 0457 08       		.byte	0x8
 4467 0458 B9       		.byte	0xb9
 4468 0459 58000000 		.4byte	0x58
 4469 045d 02       		.byte	0x2
 4470 045e 23       		.byte	0x23
 4471 045f 0C       		.uleb128 0xc
 4472 0460 10       		.uleb128 0x10
 4473 0461 8A190000 		.4byte	.LASF66
 4474 0465 08       		.byte	0x8
 4475 0466 BA       		.byte	0xba
 4476 0467 58000000 		.4byte	0x58
 4477 046b 02       		.byte	0x2
 4478 046c 23       		.byte	0x23
 4479 046d 0E       		.uleb128 0xe
 4480 046e 12       		.uleb128 0x12
 4481 046f 5F626600 		.ascii	"_bf\000"
 4482 0473 08       		.byte	0x8
 4483 0474 BB       		.byte	0xbb
 4484 0475 F0030000 		.4byte	0x3f0
 4485 0479 02       		.byte	0x2
 4486 047a 23       		.byte	0x23
 4487 047b 10       		.uleb128 0x10
 4488 047c 10       		.uleb128 0x10
 4489 047d 7A030000 		.4byte	.LASF67
 4490 0481 08       		.byte	0x8
 4491 0482 BC       		.byte	0xbc
 4492 0483 A3000000 		.4byte	0xa3
 4493 0487 02       		.byte	0x2
 4494 0488 23       		.byte	0x23
ARM GAS  C:\Users\EBANO_~1\AppData\Local\Temp\ccpYmjAB.s 			page 107


 4495 0489 18       		.uleb128 0x18
 4496 048a 10       		.uleb128 0x10
 4497 048b 790E0000 		.4byte	.LASF68
 4498 048f 08       		.byte	0x8
 4499 0490 C3       		.byte	0xc3
 4500 0491 82010000 		.4byte	0x182
 4501 0495 02       		.byte	0x2
 4502 0496 23       		.byte	0x23
 4503 0497 1C       		.uleb128 0x1c
 4504 0498 10       		.uleb128 0x10
 4505 0499 43210000 		.4byte	.LASF69
 4506 049d 08       		.byte	0x8
 4507 049e C5       		.byte	0xc5
 4508 049f 13070000 		.4byte	0x713
 4509 04a3 02       		.byte	0x2
 4510 04a4 23       		.byte	0x23
 4511 04a5 20       		.uleb128 0x20
 4512 04a6 10       		.uleb128 0x10
 4513 04a7 15080000 		.4byte	.LASF70
 4514 04ab 08       		.byte	0x8
 4515 04ac C7       		.byte	0xc7
 4516 04ad 3E070000 		.4byte	0x73e
 4517 04b1 02       		.byte	0x2
 4518 04b2 23       		.byte	0x23
 4519 04b3 24       		.uleb128 0x24
 4520 04b4 10       		.uleb128 0x10
 4521 04b5 C5110000 		.4byte	.LASF71
 4522 04b9 08       		.byte	0x8
 4523 04ba CA       		.byte	0xca
 4524 04bb 63070000 		.4byte	0x763
 4525 04bf 02       		.byte	0x2
 4526 04c0 23       		.byte	0x23
 4527 04c1 28       		.uleb128 0x28
 4528 04c2 10       		.uleb128 0x10
 4529 04c3 22160000 		.4byte	.LASF72
 4530 04c7 08       		.byte	0x8
 4531 04c8 CB       		.byte	0xcb
 4532 04c9 7E070000 		.4byte	0x77e
 4533 04cd 02       		.byte	0x2
 4534 04ce 23       		.byte	0x23
 4535 04cf 2C       		.uleb128 0x2c
 4536 04d0 12       		.uleb128 0x12
 4537 04d1 5F756200 		.ascii	"_ub\000"
 4538 04d5 08       		.byte	0x8
 4539 04d6 CE       		.byte	0xce
 4540 04d7 F0030000 		.4byte	0x3f0
 4541 04db 02       		.byte	0x2
 4542 04dc 23       		.byte	0x23
 4543 04dd 30       		.uleb128 0x30
 4544 04de 12       		.uleb128 0x12
 4545 04df 5F757000 		.ascii	"_up\000"
 4546 04e3 08       		.byte	0x8
 4547 04e4 CF       		.byte	0xcf
 4548 04e5 19040000 		.4byte	0x419
 4549 04e9 02       		.byte	0x2
 4550 04ea 23       		.byte	0x23
 4551 04eb 38       		.uleb128 0x38
ARM GAS  C:\Users\EBANO_~1\AppData\Local\Temp\ccpYmjAB.s 			page 108


 4552 04ec 12       		.uleb128 0x12
 4553 04ed 5F757200 		.ascii	"_ur\000"
 4554 04f1 08       		.byte	0x8
 4555 04f2 D0       		.byte	0xd0
 4556 04f3 A3000000 		.4byte	0xa3
 4557 04f7 02       		.byte	0x2
 4558 04f8 23       		.byte	0x23
 4559 04f9 3C       		.uleb128 0x3c
 4560 04fa 10       		.uleb128 0x10
 4561 04fb CF180000 		.4byte	.LASF73
 4562 04ff 08       		.byte	0x8
 4563 0500 D3       		.byte	0xd3
 4564 0501 84070000 		.4byte	0x784
 4565 0505 02       		.byte	0x2
 4566 0506 23       		.byte	0x23
 4567 0507 40       		.uleb128 0x40
 4568 0508 10       		.uleb128 0x10
 4569 0509 40020000 		.4byte	.LASF74
 4570 050d 08       		.byte	0x8
 4571 050e D4       		.byte	0xd4
 4572 050f 94070000 		.4byte	0x794
 4573 0513 02       		.byte	0x2
 4574 0514 23       		.byte	0x23
 4575 0515 43       		.uleb128 0x43
 4576 0516 12       		.uleb128 0x12
 4577 0517 5F6C6200 		.ascii	"_lb\000"
 4578 051b 08       		.byte	0x8
 4579 051c D7       		.byte	0xd7
 4580 051d F0030000 		.4byte	0x3f0
 4581 0521 02       		.byte	0x2
 4582 0522 23       		.byte	0x23
 4583 0523 44       		.uleb128 0x44
 4584 0524 10       		.uleb128 0x10
 4585 0525 A1180000 		.4byte	.LASF75
 4586 0529 08       		.byte	0x8
 4587 052a DA       		.byte	0xda
 4588 052b A3000000 		.4byte	0xa3
 4589 052f 02       		.byte	0x2
 4590 0530 23       		.byte	0x23
 4591 0531 4C       		.uleb128 0x4c
 4592 0532 10       		.uleb128 0x10
 4593 0533 D5120000 		.4byte	.LASF76
 4594 0537 08       		.byte	0x8
 4595 0538 DB       		.byte	0xdb
 4596 0539 9B010000 		.4byte	0x19b
 4597 053d 02       		.byte	0x2
 4598 053e 23       		.byte	0x23
 4599 053f 50       		.uleb128 0x50
 4600 0540 10       		.uleb128 0x10
 4601 0541 C9030000 		.4byte	.LASF77
 4602 0545 08       		.byte	0x8
 4603 0546 DE       		.byte	0xde
 4604 0547 98050000 		.4byte	0x598
 4605 054b 02       		.byte	0x2
 4606 054c 23       		.byte	0x23
 4607 054d 54       		.uleb128 0x54
 4608 054e 10       		.uleb128 0x10
ARM GAS  C:\Users\EBANO_~1\AppData\Local\Temp\ccpYmjAB.s 			page 109


 4609 054f 3A020000 		.4byte	.LASF78
 4610 0553 08       		.byte	0x8
 4611 0554 E2       		.byte	0xe2
 4612 0555 1C020000 		.4byte	0x21c
 4613 0559 02       		.byte	0x2
 4614 055a 23       		.byte	0x23
 4615 055b 58       		.uleb128 0x58
 4616 055c 10       		.uleb128 0x10
 4617 055d CA000000 		.4byte	.LASF79
 4618 0561 08       		.byte	0x8
 4619 0562 E4       		.byte	0xe4
 4620 0563 11020000 		.4byte	0x211
 4621 0567 02       		.byte	0x2
 4622 0568 23       		.byte	0x23
 4623 0569 5C       		.uleb128 0x5c
 4624 056a 10       		.uleb128 0x10
 4625 056b B01E0000 		.4byte	.LASF80
 4626 056f 08       		.byte	0x8
 4627 0570 E5       		.byte	0xe5
 4628 0571 A3000000 		.4byte	0xa3
 4629 0575 02       		.byte	0x2
 4630 0576 23       		.byte	0x23
 4631 0577 64       		.uleb128 0x64
 4632 0578 00       		.byte	0
 4633 0579 15       		.uleb128 0x15
 4634 057a 01       		.byte	0x1
 4635 057b A3000000 		.4byte	0xa3
 4636 057f 98050000 		.4byte	0x598
 4637 0583 16       		.uleb128 0x16
 4638 0584 98050000 		.4byte	0x598
 4639 0588 16       		.uleb128 0x16
 4640 0589 82010000 		.4byte	0x182
 4641 058d 16       		.uleb128 0x16
 4642 058e 01070000 		.4byte	0x701
 4643 0592 16       		.uleb128 0x16
 4644 0593 A3000000 		.4byte	0xa3
 4645 0597 00       		.byte	0
 4646 0598 0A       		.uleb128 0xa
 4647 0599 04       		.byte	0x4
 4648 059a A3050000 		.4byte	0x5a3
 4649 059e 05       		.uleb128 0x5
 4650 059f 98050000 		.4byte	0x598
 4651 05a3 17       		.uleb128 0x17
 4652 05a4 5F040000 		.4byte	.LASF81
 4653 05a8 2804     		.2byte	0x428
 4654 05aa 08       		.byte	0x8
 4655 05ab 6002     		.2byte	0x260
 4656 05ad 01070000 		.4byte	0x701
 4657 05b1 18       		.uleb128 0x18
 4658 05b2 580D0000 		.4byte	.LASF82
 4659 05b6 08       		.byte	0x8
 4660 05b7 6202     		.2byte	0x262
 4661 05b9 A3000000 		.4byte	0xa3
 4662 05bd 02       		.byte	0x2
 4663 05be 23       		.byte	0x23
 4664 05bf 00       		.uleb128 0
 4665 05c0 18       		.uleb128 0x18
ARM GAS  C:\Users\EBANO_~1\AppData\Local\Temp\ccpYmjAB.s 			page 110


 4666 05c1 490A0000 		.4byte	.LASF83
 4667 05c5 08       		.byte	0x8
 4668 05c6 6702     		.2byte	0x267
 4669 05c8 F1070000 		.4byte	0x7f1
 4670 05cc 02       		.byte	0x2
 4671 05cd 23       		.byte	0x23
 4672 05ce 04       		.uleb128 0x4
 4673 05cf 18       		.uleb128 0x18
 4674 05d0 10070000 		.4byte	.LASF84
 4675 05d4 08       		.byte	0x8
 4676 05d5 6702     		.2byte	0x267
 4677 05d7 F1070000 		.4byte	0x7f1
 4678 05db 02       		.byte	0x2
 4679 05dc 23       		.byte	0x23
 4680 05dd 08       		.uleb128 0x8
 4681 05de 18       		.uleb128 0x18
 4682 05df 6A060000 		.4byte	.LASF85
 4683 05e3 08       		.byte	0x8
 4684 05e4 6702     		.2byte	0x267
 4685 05e6 F1070000 		.4byte	0x7f1
 4686 05ea 02       		.byte	0x2
 4687 05eb 23       		.byte	0x23
 4688 05ec 0C       		.uleb128 0xc
 4689 05ed 18       		.uleb128 0x18
 4690 05ee 3E010000 		.4byte	.LASF86
 4691 05f2 08       		.byte	0x8
 4692 05f3 6902     		.2byte	0x269
 4693 05f5 A3000000 		.4byte	0xa3
 4694 05f9 02       		.byte	0x2
 4695 05fa 23       		.byte	0x23
 4696 05fb 10       		.uleb128 0x10
 4697 05fc 18       		.uleb128 0x18
 4698 05fd B9140000 		.4byte	.LASF87
 4699 0601 08       		.byte	0x8
 4700 0602 6A02     		.2byte	0x26a
 4701 0604 0C0A0000 		.4byte	0xa0c
 4702 0608 02       		.byte	0x2
 4703 0609 23       		.byte	0x23
 4704 060a 14       		.uleb128 0x14
 4705 060b 18       		.uleb128 0x18
 4706 060c FC1C0000 		.4byte	.LASF88
 4707 0610 08       		.byte	0x8
 4708 0611 6D02     		.2byte	0x26d
 4709 0613 A3000000 		.4byte	0xa3
 4710 0617 02       		.byte	0x2
 4711 0618 23       		.byte	0x23
 4712 0619 30       		.uleb128 0x30
 4713 061a 18       		.uleb128 0x18
 4714 061b DB1E0000 		.4byte	.LASF89
 4715 061f 08       		.byte	0x8
 4716 0620 6E02     		.2byte	0x26e
 4717 0622 220A0000 		.4byte	0xa22
 4718 0626 02       		.byte	0x2
 4719 0627 23       		.byte	0x23
 4720 0628 34       		.uleb128 0x34
 4721 0629 18       		.uleb128 0x18
 4722 062a 661D0000 		.4byte	.LASF90
ARM GAS  C:\Users\EBANO_~1\AppData\Local\Temp\ccpYmjAB.s 			page 111


 4723 062e 08       		.byte	0x8
 4724 062f 7002     		.2byte	0x270
 4725 0631 A3000000 		.4byte	0xa3
 4726 0635 02       		.byte	0x2
 4727 0636 23       		.byte	0x23
 4728 0637 38       		.uleb128 0x38
 4729 0638 18       		.uleb128 0x18
 4730 0639 13190000 		.4byte	.LASF91
 4731 063d 08       		.byte	0x8
 4732 063e 7202     		.2byte	0x272
 4733 0640 340A0000 		.4byte	0xa34
 4734 0644 02       		.byte	0x2
 4735 0645 23       		.byte	0x23
 4736 0646 3C       		.uleb128 0x3c
 4737 0647 18       		.uleb128 0x18
 4738 0648 72060000 		.4byte	.LASF92
 4739 064c 08       		.byte	0x8
 4740 064d 7502     		.2byte	0x275
 4741 064f 91020000 		.4byte	0x291
 4742 0653 02       		.byte	0x2
 4743 0654 23       		.byte	0x23
 4744 0655 40       		.uleb128 0x40
 4745 0656 18       		.uleb128 0x18
 4746 0657 60060000 		.4byte	.LASF93
 4747 065b 08       		.byte	0x8
 4748 065c 7602     		.2byte	0x276
 4749 065e A3000000 		.4byte	0xa3
 4750 0662 02       		.byte	0x2
 4751 0663 23       		.byte	0x23
 4752 0664 44       		.uleb128 0x44
 4753 0665 18       		.uleb128 0x18
 4754 0666 891A0000 		.4byte	.LASF94
 4755 066a 08       		.byte	0x8
 4756 066b 7702     		.2byte	0x277
 4757 066d 91020000 		.4byte	0x291
 4758 0671 02       		.byte	0x2
 4759 0672 23       		.byte	0x23
 4760 0673 48       		.uleb128 0x48
 4761 0674 18       		.uleb128 0x18
 4762 0675 BB120000 		.4byte	.LASF95
 4763 0679 08       		.byte	0x8
 4764 067a 7802     		.2byte	0x278
 4765 067c 3A0A0000 		.4byte	0xa3a
 4766 0680 02       		.byte	0x2
 4767 0681 23       		.byte	0x23
 4768 0682 4C       		.uleb128 0x4c
 4769 0683 18       		.uleb128 0x18
 4770 0684 C3010000 		.4byte	.LASF96
 4771 0688 08       		.byte	0x8
 4772 0689 7B02     		.2byte	0x27b
 4773 068b A3000000 		.4byte	0xa3
 4774 068f 02       		.byte	0x2
 4775 0690 23       		.byte	0x23
 4776 0691 50       		.uleb128 0x50
 4777 0692 18       		.uleb128 0x18
 4778 0693 C80B0000 		.4byte	.LASF97
 4779 0697 08       		.byte	0x8
ARM GAS  C:\Users\EBANO_~1\AppData\Local\Temp\ccpYmjAB.s 			page 112


 4780 0698 7C02     		.2byte	0x27c
 4781 069a 01070000 		.4byte	0x701
 4782 069e 02       		.byte	0x2
 4783 069f 23       		.byte	0x23
 4784 06a0 54       		.uleb128 0x54
 4785 06a1 18       		.uleb128 0x18
 4786 06a2 C60C0000 		.4byte	.LASF98
 4787 06a6 08       		.byte	0x8
 4788 06a7 9F02     		.2byte	0x29f
 4789 06a9 EA090000 		.4byte	0x9ea
 4790 06ad 02       		.byte	0x2
 4791 06ae 23       		.byte	0x23
 4792 06af 58       		.uleb128 0x58
 4793 06b0 18       		.uleb128 0x18
 4794 06b1 DF000000 		.4byte	.LASF58
 4795 06b5 08       		.byte	0x8
 4796 06b6 A302     		.2byte	0x2a3
 4797 06b8 D2030000 		.4byte	0x3d2
 4798 06bc 03       		.byte	0x3
 4799 06bd 23       		.byte	0x23
 4800 06be C802     		.uleb128 0x148
 4801 06c0 18       		.uleb128 0x18
 4802 06c1 7B170000 		.4byte	.LASF99
 4803 06c5 08       		.byte	0x8
 4804 06c6 A402     		.2byte	0x2a4
 4805 06c8 8B030000 		.4byte	0x38b
 4806 06cc 03       		.byte	0x3
 4807 06cd 23       		.byte	0x23
 4808 06ce CC02     		.uleb128 0x14c
 4809 06d0 18       		.uleb128 0x18
 4810 06d1 EC010000 		.4byte	.LASF100
 4811 06d5 08       		.byte	0x8
 4812 06d6 A802     		.2byte	0x2a8
 4813 06d8 4C0A0000 		.4byte	0xa4c
 4814 06dc 03       		.byte	0x3
 4815 06dd 23       		.byte	0x23
 4816 06de DC05     		.uleb128 0x2dc
 4817 06e0 18       		.uleb128 0x18
 4818 06e1 FA180000 		.4byte	.LASF101
 4819 06e5 08       		.byte	0x8
 4820 06e6 AD02     		.2byte	0x2ad
 4821 06e8 B0070000 		.4byte	0x7b0
 4822 06ec 03       		.byte	0x3
 4823 06ed 23       		.byte	0x23
 4824 06ee E005     		.uleb128 0x2e0
 4825 06f0 18       		.uleb128 0x18
 4826 06f1 AD040000 		.4byte	.LASF102
 4827 06f5 08       		.byte	0x8
 4828 06f6 AF02     		.2byte	0x2af
 4829 06f8 580A0000 		.4byte	0xa58
 4830 06fc 03       		.byte	0x3
 4831 06fd 23       		.byte	0x23
 4832 06fe EC05     		.uleb128 0x2ec
 4833 0700 00       		.byte	0
 4834 0701 0A       		.uleb128 0xa
 4835 0702 04       		.byte	0x4
 4836 0703 07070000 		.4byte	0x707
ARM GAS  C:\Users\EBANO_~1\AppData\Local\Temp\ccpYmjAB.s 			page 113


 4837 0707 02       		.uleb128 0x2
 4838 0708 01       		.byte	0x1
 4839 0709 08       		.byte	0x8
 4840 070a 3A160000 		.4byte	.LASF103
 4841 070e 05       		.uleb128 0x5
 4842 070f 07070000 		.4byte	0x707
 4843 0713 0A       		.uleb128 0xa
 4844 0714 04       		.byte	0x4
 4845 0715 79050000 		.4byte	0x579
 4846 0719 15       		.uleb128 0x15
 4847 071a 01       		.byte	0x1
 4848 071b A3000000 		.4byte	0xa3
 4849 071f 38070000 		.4byte	0x738
 4850 0723 16       		.uleb128 0x16
 4851 0724 98050000 		.4byte	0x598
 4852 0728 16       		.uleb128 0x16
 4853 0729 82010000 		.4byte	0x182
 4854 072d 16       		.uleb128 0x16
 4855 072e 38070000 		.4byte	0x738
 4856 0732 16       		.uleb128 0x16
 4857 0733 A3000000 		.4byte	0xa3
 4858 0737 00       		.byte	0
 4859 0738 0A       		.uleb128 0xa
 4860 0739 04       		.byte	0x4
 4861 073a 0E070000 		.4byte	0x70e
 4862 073e 0A       		.uleb128 0xa
 4863 073f 04       		.byte	0x4
 4864 0740 19070000 		.4byte	0x719
 4865 0744 15       		.uleb128 0x15
 4866 0745 01       		.byte	0x1
 4867 0746 A6010000 		.4byte	0x1a6
 4868 074a 63070000 		.4byte	0x763
 4869 074e 16       		.uleb128 0x16
 4870 074f 98050000 		.4byte	0x598
 4871 0753 16       		.uleb128 0x16
 4872 0754 82010000 		.4byte	0x182
 4873 0758 16       		.uleb128 0x16
 4874 0759 A6010000 		.4byte	0x1a6
 4875 075d 16       		.uleb128 0x16
 4876 075e A3000000 		.4byte	0xa3
 4877 0762 00       		.byte	0
 4878 0763 0A       		.uleb128 0xa
 4879 0764 04       		.byte	0x4
 4880 0765 44070000 		.4byte	0x744
 4881 0769 15       		.uleb128 0x15
 4882 076a 01       		.byte	0x1
 4883 076b A3000000 		.4byte	0xa3
 4884 076f 7E070000 		.4byte	0x77e
 4885 0773 16       		.uleb128 0x16
 4886 0774 98050000 		.4byte	0x598
 4887 0778 16       		.uleb128 0x16
 4888 0779 82010000 		.4byte	0x182
 4889 077d 00       		.byte	0
 4890 077e 0A       		.uleb128 0xa
 4891 077f 04       		.byte	0x4
 4892 0780 69070000 		.4byte	0x769
 4893 0784 07       		.uleb128 0x7
ARM GAS  C:\Users\EBANO_~1\AppData\Local\Temp\ccpYmjAB.s 			page 114


 4894 0785 46000000 		.4byte	0x46
 4895 0789 94070000 		.4byte	0x794
 4896 078d 08       		.uleb128 0x8
 4897 078e AA000000 		.4byte	0xaa
 4898 0792 02       		.byte	0x2
 4899 0793 00       		.byte	0
 4900 0794 07       		.uleb128 0x7
 4901 0795 46000000 		.4byte	0x46
 4902 0799 A4070000 		.4byte	0x7a4
 4903 079d 08       		.uleb128 0x8
 4904 079e AA000000 		.4byte	0xaa
 4905 07a2 00       		.byte	0
 4906 07a3 00       		.byte	0
 4907 07a4 0C       		.uleb128 0xc
 4908 07a5 F51F0000 		.4byte	.LASF104
 4909 07a9 08       		.byte	0x8
 4910 07aa 1F01     		.2byte	0x11f
 4911 07ac 1F040000 		.4byte	0x41f
 4912 07b0 19       		.uleb128 0x19
 4913 07b1 5B160000 		.4byte	.LASF105
 4914 07b5 0C       		.byte	0xc
 4915 07b6 08       		.byte	0x8
 4916 07b7 2301     		.2byte	0x123
 4917 07b9 EB070000 		.4byte	0x7eb
 4918 07bd 18       		.uleb128 0x18
 4919 07be 290E0000 		.4byte	.LASF38
 4920 07c2 08       		.byte	0x8
 4921 07c3 2501     		.2byte	0x125
 4922 07c5 EB070000 		.4byte	0x7eb
 4923 07c9 02       		.byte	0x2
 4924 07ca 23       		.byte	0x23
 4925 07cb 00       		.uleb128 0
 4926 07cc 18       		.uleb128 0x18
 4927 07cd E40C0000 		.4byte	.LASF106
 4928 07d1 08       		.byte	0x8
 4929 07d2 2601     		.2byte	0x126
 4930 07d4 A3000000 		.4byte	0xa3
 4931 07d8 02       		.byte	0x2
 4932 07d9 23       		.byte	0x23
 4933 07da 04       		.uleb128 0x4
 4934 07db 18       		.uleb128 0x18
 4935 07dc B3140000 		.4byte	.LASF107
 4936 07e0 08       		.byte	0x8
 4937 07e1 2701     		.2byte	0x127
 4938 07e3 F1070000 		.4byte	0x7f1
 4939 07e7 02       		.byte	0x2
 4940 07e8 23       		.byte	0x23
 4941 07e9 08       		.uleb128 0x8
 4942 07ea 00       		.byte	0
 4943 07eb 0A       		.uleb128 0xa
 4944 07ec 04       		.byte	0x4
 4945 07ed B0070000 		.4byte	0x7b0
 4946 07f1 0A       		.uleb128 0xa
 4947 07f2 04       		.byte	0x4
 4948 07f3 A4070000 		.4byte	0x7a4
 4949 07f7 19       		.uleb128 0x19
 4950 07f8 6D210000 		.4byte	.LASF108
ARM GAS  C:\Users\EBANO_~1\AppData\Local\Temp\ccpYmjAB.s 			page 115


 4951 07fc 0E       		.byte	0xe
 4952 07fd 08       		.byte	0x8
 4953 07fe 3F01     		.2byte	0x13f
 4954 0800 32080000 		.4byte	0x832
 4955 0804 18       		.uleb128 0x18
 4956 0805 B3110000 		.4byte	.LASF109
 4957 0809 08       		.byte	0x8
 4958 080a 4001     		.2byte	0x140
 4959 080c 32080000 		.4byte	0x832
 4960 0810 02       		.byte	0x2
 4961 0811 23       		.byte	0x23
 4962 0812 00       		.uleb128 0
 4963 0813 18       		.uleb128 0x18
 4964 0814 8A090000 		.4byte	.LASF110
 4965 0818 08       		.byte	0x8
 4966 0819 4101     		.2byte	0x141
 4967 081b 32080000 		.4byte	0x832
 4968 081f 02       		.byte	0x2
 4969 0820 23       		.byte	0x23
 4970 0821 06       		.uleb128 0x6
 4971 0822 18       		.uleb128 0x18
 4972 0823 FD020000 		.4byte	.LASF111
 4973 0827 08       		.byte	0x8
 4974 0828 4201     		.2byte	0x142
 4975 082a 6A000000 		.4byte	0x6a
 4976 082e 02       		.byte	0x2
 4977 082f 23       		.byte	0x23
 4978 0830 0C       		.uleb128 0xc
 4979 0831 00       		.byte	0
 4980 0832 07       		.uleb128 0x7
 4981 0833 6A000000 		.4byte	0x6a
 4982 0837 42080000 		.4byte	0x842
 4983 083b 08       		.uleb128 0x8
 4984 083c AA000000 		.4byte	0xaa
 4985 0840 02       		.byte	0x2
 4986 0841 00       		.byte	0
 4987 0842 1A       		.uleb128 0x1a
 4988 0843 D0       		.byte	0xd0
 4989 0844 08       		.byte	0x8
 4990 0845 8002     		.2byte	0x280
 4991 0847 72090000 		.4byte	0x972
 4992 084b 18       		.uleb128 0x18
 4993 084c C9050000 		.4byte	.LASF112
 4994 0850 08       		.byte	0x8
 4995 0851 8202     		.2byte	0x282
 4996 0853 AA000000 		.4byte	0xaa
 4997 0857 02       		.byte	0x2
 4998 0858 23       		.byte	0x23
 4999 0859 00       		.uleb128 0
 5000 085a 18       		.uleb128 0x18
 5001 085b 88110000 		.4byte	.LASF113
 5002 085f 08       		.byte	0x8
 5003 0860 8302     		.2byte	0x283
 5004 0862 01070000 		.4byte	0x701
 5005 0866 02       		.byte	0x2
 5006 0867 23       		.byte	0x23
 5007 0868 04       		.uleb128 0x4
ARM GAS  C:\Users\EBANO_~1\AppData\Local\Temp\ccpYmjAB.s 			page 116


 5008 0869 18       		.uleb128 0x18
 5009 086a 6C130000 		.4byte	.LASF114
 5010 086e 08       		.byte	0x8
 5011 086f 8402     		.2byte	0x284
 5012 0871 72090000 		.4byte	0x972
 5013 0875 02       		.byte	0x2
 5014 0876 23       		.byte	0x23
 5015 0877 08       		.uleb128 0x8
 5016 0878 18       		.uleb128 0x18
 5017 0879 F30A0000 		.4byte	.LASF115
 5018 087d 08       		.byte	0x8
 5019 087e 8502     		.2byte	0x285
 5020 0880 A7020000 		.4byte	0x2a7
 5021 0884 02       		.byte	0x2
 5022 0885 23       		.byte	0x23
 5023 0886 24       		.uleb128 0x24
 5024 0887 18       		.uleb128 0x18
 5025 0888 101C0000 		.4byte	.LASF116
 5026 088c 08       		.byte	0x8
 5027 088d 8602     		.2byte	0x286
 5028 088f A3000000 		.4byte	0xa3
 5029 0893 02       		.byte	0x2
 5030 0894 23       		.byte	0x23
 5031 0895 48       		.uleb128 0x48
 5032 0896 18       		.uleb128 0x18
 5033 0897 D8140000 		.4byte	.LASF117
 5034 089b 08       		.byte	0x8
 5035 089c 8702     		.2byte	0x287
 5036 089e 9C000000 		.4byte	0x9c
 5037 08a2 02       		.byte	0x2
 5038 08a3 23       		.byte	0x23
 5039 08a4 50       		.uleb128 0x50
 5040 08a5 18       		.uleb128 0x18
 5041 08a6 A3200000 		.4byte	.LASF118
 5042 08aa 08       		.byte	0x8
 5043 08ab 8802     		.2byte	0x288
 5044 08ad F7070000 		.4byte	0x7f7
 5045 08b1 02       		.byte	0x2
 5046 08b2 23       		.byte	0x23
 5047 08b3 58       		.uleb128 0x58
 5048 08b4 18       		.uleb128 0x18
 5049 08b5 ED180000 		.4byte	.LASF119
 5050 08b9 08       		.byte	0x8
 5051 08ba 8902     		.2byte	0x289
 5052 08bc 11020000 		.4byte	0x211
 5053 08c0 02       		.byte	0x2
 5054 08c1 23       		.byte	0x23
 5055 08c2 68       		.uleb128 0x68
 5056 08c3 18       		.uleb128 0x18
 5057 08c4 BE040000 		.4byte	.LASF120
 5058 08c8 08       		.byte	0x8
 5059 08c9 8A02     		.2byte	0x28a
 5060 08cb 11020000 		.4byte	0x211
 5061 08cf 02       		.byte	0x2
 5062 08d0 23       		.byte	0x23
 5063 08d1 70       		.uleb128 0x70
 5064 08d2 18       		.uleb128 0x18
ARM GAS  C:\Users\EBANO_~1\AppData\Local\Temp\ccpYmjAB.s 			page 117


 5065 08d3 39140000 		.4byte	.LASF121
 5066 08d7 08       		.byte	0x8
 5067 08d8 8B02     		.2byte	0x28b
 5068 08da 11020000 		.4byte	0x211
 5069 08de 02       		.byte	0x2
 5070 08df 23       		.byte	0x23
 5071 08e0 78       		.uleb128 0x78
 5072 08e1 18       		.uleb128 0x18
 5073 08e2 10130000 		.4byte	.LASF122
 5074 08e6 08       		.byte	0x8
 5075 08e7 8C02     		.2byte	0x28c
 5076 08e9 82090000 		.4byte	0x982
 5077 08ed 03       		.byte	0x3
 5078 08ee 23       		.byte	0x23
 5079 08ef 8001     		.uleb128 0x80
 5080 08f1 18       		.uleb128 0x18
 5081 08f2 6D0E0000 		.4byte	.LASF123
 5082 08f6 08       		.byte	0x8
 5083 08f7 8D02     		.2byte	0x28d
 5084 08f9 92090000 		.4byte	0x992
 5085 08fd 03       		.byte	0x3
 5086 08fe 23       		.byte	0x23
 5087 08ff 8801     		.uleb128 0x88
 5088 0901 18       		.uleb128 0x18
 5089 0902 C9170000 		.4byte	.LASF124
 5090 0906 08       		.byte	0x8
 5091 0907 8E02     		.2byte	0x28e
 5092 0909 A3000000 		.4byte	0xa3
 5093 090d 03       		.byte	0x3
 5094 090e 23       		.byte	0x23
 5095 090f A001     		.uleb128 0xa0
 5096 0911 18       		.uleb128 0x18
 5097 0912 C7090000 		.4byte	.LASF125
 5098 0916 08       		.byte	0x8
 5099 0917 8F02     		.2byte	0x28f
 5100 0919 11020000 		.4byte	0x211
 5101 091d 03       		.byte	0x3
 5102 091e 23       		.byte	0x23
 5103 091f A401     		.uleb128 0xa4
 5104 0921 18       		.uleb128 0x18
 5105 0922 6C0C0000 		.4byte	.LASF126
 5106 0926 08       		.byte	0x8
 5107 0927 9002     		.2byte	0x290
 5108 0929 11020000 		.4byte	0x211
 5109 092d 03       		.byte	0x3
 5110 092e 23       		.byte	0x23
 5111 092f AC01     		.uleb128 0xac
 5112 0931 18       		.uleb128 0x18
 5113 0932 29070000 		.4byte	.LASF127
 5114 0936 08       		.byte	0x8
 5115 0937 9102     		.2byte	0x291
 5116 0939 11020000 		.4byte	0x211
 5117 093d 03       		.byte	0x3
 5118 093e 23       		.byte	0x23
 5119 093f B401     		.uleb128 0xb4
 5120 0941 18       		.uleb128 0x18
 5121 0942 8B100000 		.4byte	.LASF128
ARM GAS  C:\Users\EBANO_~1\AppData\Local\Temp\ccpYmjAB.s 			page 118


 5122 0946 08       		.byte	0x8
 5123 0947 9202     		.2byte	0x292
 5124 0949 11020000 		.4byte	0x211
 5125 094d 03       		.byte	0x3
 5126 094e 23       		.byte	0x23
 5127 094f BC01     		.uleb128 0xbc
 5128 0951 18       		.uleb128 0x18
 5129 0952 AF130000 		.4byte	.LASF129
 5130 0956 08       		.byte	0x8
 5131 0957 9302     		.2byte	0x293
 5132 0959 11020000 		.4byte	0x211
 5133 095d 03       		.byte	0x3
 5134 095e 23       		.byte	0x23
 5135 095f C401     		.uleb128 0xc4
 5136 0961 18       		.uleb128 0x18
 5137 0962 D9190000 		.4byte	.LASF130
 5138 0966 08       		.byte	0x8
 5139 0967 9402     		.2byte	0x294
 5140 0969 A3000000 		.4byte	0xa3
 5141 096d 03       		.byte	0x3
 5142 096e 23       		.byte	0x23
 5143 096f CC01     		.uleb128 0xcc
 5144 0971 00       		.byte	0
 5145 0972 07       		.uleb128 0x7
 5146 0973 07070000 		.4byte	0x707
 5147 0977 82090000 		.4byte	0x982
 5148 097b 08       		.uleb128 0x8
 5149 097c AA000000 		.4byte	0xaa
 5150 0980 19       		.byte	0x19
 5151 0981 00       		.byte	0
 5152 0982 07       		.uleb128 0x7
 5153 0983 07070000 		.4byte	0x707
 5154 0987 92090000 		.4byte	0x992
 5155 098b 08       		.uleb128 0x8
 5156 098c AA000000 		.4byte	0xaa
 5157 0990 07       		.byte	0x7
 5158 0991 00       		.byte	0
 5159 0992 07       		.uleb128 0x7
 5160 0993 07070000 		.4byte	0x707
 5161 0997 A2090000 		.4byte	0x9a2
 5162 099b 08       		.uleb128 0x8
 5163 099c AA000000 		.4byte	0xaa
 5164 09a0 17       		.byte	0x17
 5165 09a1 00       		.byte	0
 5166 09a2 1A       		.uleb128 0x1a
 5167 09a3 F0       		.byte	0xf0
 5168 09a4 08       		.byte	0x8
 5169 09a5 9902     		.2byte	0x299
 5170 09a7 CA090000 		.4byte	0x9ca
 5171 09ab 18       		.uleb128 0x18
 5172 09ac D1140000 		.4byte	.LASF131
 5173 09b0 08       		.byte	0x8
 5174 09b1 9C02     		.2byte	0x29c
 5175 09b3 CA090000 		.4byte	0x9ca
 5176 09b7 02       		.byte	0x2
 5177 09b8 23       		.byte	0x23
 5178 09b9 00       		.uleb128 0
ARM GAS  C:\Users\EBANO_~1\AppData\Local\Temp\ccpYmjAB.s 			page 119


 5179 09ba 18       		.uleb128 0x18
 5180 09bb 5E0A0000 		.4byte	.LASF132
 5181 09bf 08       		.byte	0x8
 5182 09c0 9D02     		.2byte	0x29d
 5183 09c2 DA090000 		.4byte	0x9da
 5184 09c6 02       		.byte	0x2
 5185 09c7 23       		.byte	0x23
 5186 09c8 78       		.uleb128 0x78
 5187 09c9 00       		.byte	0
 5188 09ca 07       		.uleb128 0x7
 5189 09cb 19040000 		.4byte	0x419
 5190 09cf DA090000 		.4byte	0x9da
 5191 09d3 08       		.uleb128 0x8
 5192 09d4 AA000000 		.4byte	0xaa
 5193 09d8 1D       		.byte	0x1d
 5194 09d9 00       		.byte	0
 5195 09da 07       		.uleb128 0x7
 5196 09db AA000000 		.4byte	0xaa
 5197 09df EA090000 		.4byte	0x9ea
 5198 09e3 08       		.uleb128 0x8
 5199 09e4 AA000000 		.4byte	0xaa
 5200 09e8 1D       		.byte	0x1d
 5201 09e9 00       		.byte	0
 5202 09ea 1B       		.uleb128 0x1b
 5203 09eb F0       		.byte	0xf0
 5204 09ec 08       		.byte	0x8
 5205 09ed 7E02     		.2byte	0x27e
 5206 09ef 0C0A0000 		.4byte	0xa0c
 5207 09f3 1C       		.uleb128 0x1c
 5208 09f4 5F040000 		.4byte	.LASF81
 5209 09f8 08       		.byte	0x8
 5210 09f9 9502     		.2byte	0x295
 5211 09fb 42080000 		.4byte	0x842
 5212 09ff 1C       		.uleb128 0x1c
 5213 0a00 46020000 		.4byte	.LASF133
 5214 0a04 08       		.byte	0x8
 5215 0a05 9E02     		.2byte	0x29e
 5216 0a07 A2090000 		.4byte	0x9a2
 5217 0a0b 00       		.byte	0
 5218 0a0c 07       		.uleb128 0x7
 5219 0a0d 07070000 		.4byte	0x707
 5220 0a11 1C0A0000 		.4byte	0xa1c
 5221 0a15 08       		.uleb128 0x8
 5222 0a16 AA000000 		.4byte	0xaa
 5223 0a1a 18       		.byte	0x18
 5224 0a1b 00       		.byte	0
 5225 0a1c 0B       		.uleb128 0xb
 5226 0a1d 02190000 		.4byte	.LASF135
 5227 0a21 01       		.byte	0x1
 5228 0a22 0A       		.uleb128 0xa
 5229 0a23 04       		.byte	0x4
 5230 0a24 1C0A0000 		.4byte	0xa1c
 5231 0a28 1D       		.uleb128 0x1d
 5232 0a29 01       		.byte	0x1
 5233 0a2a 340A0000 		.4byte	0xa34
 5234 0a2e 16       		.uleb128 0x16
 5235 0a2f 98050000 		.4byte	0x598
ARM GAS  C:\Users\EBANO_~1\AppData\Local\Temp\ccpYmjAB.s 			page 120


 5236 0a33 00       		.byte	0
 5237 0a34 0A       		.uleb128 0xa
 5238 0a35 04       		.byte	0x4
 5239 0a36 280A0000 		.4byte	0xa28
 5240 0a3a 0A       		.uleb128 0xa
 5241 0a3b 04       		.byte	0x4
 5242 0a3c 91020000 		.4byte	0x291
 5243 0a40 1D       		.uleb128 0x1d
 5244 0a41 01       		.byte	0x1
 5245 0a42 4C0A0000 		.4byte	0xa4c
 5246 0a46 16       		.uleb128 0x16
 5247 0a47 A3000000 		.4byte	0xa3
 5248 0a4b 00       		.byte	0
 5249 0a4c 0A       		.uleb128 0xa
 5250 0a4d 04       		.byte	0x4
 5251 0a4e 520A0000 		.4byte	0xa52
 5252 0a52 0A       		.uleb128 0xa
 5253 0a53 04       		.byte	0x4
 5254 0a54 400A0000 		.4byte	0xa40
 5255 0a58 07       		.uleb128 0x7
 5256 0a59 A4070000 		.4byte	0x7a4
 5257 0a5d 680A0000 		.4byte	0xa68
 5258 0a61 08       		.uleb128 0x8
 5259 0a62 AA000000 		.4byte	0xaa
 5260 0a66 02       		.byte	0x2
 5261 0a67 00       		.byte	0
 5262 0a68 1E       		.uleb128 0x1e
 5263 0a69 95180000 		.4byte	.LASF136
 5264 0a6d 08       		.byte	0x8
 5265 0a6e 2E03     		.2byte	0x32e
 5266 0a70 98050000 		.4byte	0x598
 5267 0a74 01       		.byte	0x1
 5268 0a75 01       		.byte	0x1
 5269 0a76 1E       		.uleb128 0x1e
 5270 0a77 DB1C0000 		.4byte	.LASF137
 5271 0a7b 08       		.byte	0x8
 5272 0a7c 2F03     		.2byte	0x32f
 5273 0a7e 9E050000 		.4byte	0x59e
 5274 0a82 01       		.byte	0x1
 5275 0a83 01       		.byte	0x1
 5276 0a84 0A       		.uleb128 0xa
 5277 0a85 04       		.byte	0x4
 5278 0a86 BC000000 		.4byte	0xbc
 5279 0a8a 06       		.uleb128 0x6
 5280 0a8b 66150000 		.4byte	.LASF138
 5281 0a8f 09       		.byte	0x9
 5282 0a90 63       		.byte	0x63
 5283 0a91 01070000 		.4byte	0x701
 5284 0a95 01       		.byte	0x1
 5285 0a96 01       		.byte	0x1
 5286 0a97 03       		.uleb128 0x3
 5287 0a98 FB1A0000 		.4byte	.LASF139
 5288 0a9c 0A       		.byte	0xa
 5289 0a9d 3D       		.byte	0x3d
 5290 0a9e ED000000 		.4byte	0xed
 5291 0aa2 11       		.uleb128 0x11
 5292 0aa3 C60A0000 		.4byte	.LASF140
ARM GAS  C:\Users\EBANO_~1\AppData\Local\Temp\ccpYmjAB.s 			page 121


 5293 0aa7 04       		.byte	0x4
 5294 0aa8 0A       		.byte	0xa
 5295 0aa9 5F       		.byte	0x5f
 5296 0aaa E70A0000 		.4byte	0xae7
 5297 0aae 12       		.uleb128 0x12
 5298 0aaf 52667500 		.ascii	"Rfu\000"
 5299 0ab3 0A       		.byte	0xa
 5300 0ab4 61       		.byte	0x61
 5301 0ab5 BC000000 		.4byte	0xbc
 5302 0ab9 02       		.byte	0x2
 5303 0aba 23       		.byte	0x23
 5304 0abb 00       		.uleb128 0
 5305 0abc 10       		.uleb128 0x10
 5306 0abd 6F000000 		.4byte	.LASF141
 5307 0ac1 0A       		.byte	0xa
 5308 0ac2 62       		.byte	0x62
 5309 0ac3 BC000000 		.4byte	0xbc
 5310 0ac7 02       		.byte	0x2
 5311 0ac8 23       		.byte	0x23
 5312 0ac9 01       		.uleb128 0x1
 5313 0aca 10       		.uleb128 0x10
 5314 0acb C3020000 		.4byte	.LASF142
 5315 0acf 0A       		.byte	0xa
 5316 0ad0 63       		.byte	0x63
 5317 0ad1 BC000000 		.4byte	0xbc
 5318 0ad5 02       		.byte	0x2
 5319 0ad6 23       		.byte	0x23
 5320 0ad7 02       		.uleb128 0x2
 5321 0ad8 10       		.uleb128 0x10
 5322 0ad9 A51C0000 		.4byte	.LASF143
 5323 0add 0A       		.byte	0xa
 5324 0ade 64       		.byte	0x64
 5325 0adf BC000000 		.4byte	0xbc
 5326 0ae3 02       		.byte	0x2
 5327 0ae4 23       		.byte	0x23
 5328 0ae5 03       		.uleb128 0x3
 5329 0ae6 00       		.byte	0
 5330 0ae7 1F       		.uleb128 0x1f
 5331 0ae8 DA0A0000 		.4byte	.LASF205
 5332 0aec 04       		.byte	0x4
 5333 0aed 0A       		.byte	0xa
 5334 0aee 5D       		.byte	0x5d
 5335 0aef 0A0B0000 		.4byte	0xb0a
 5336 0af3 0E       		.uleb128 0xe
 5337 0af4 69110000 		.4byte	.LASF144
 5338 0af8 0A       		.byte	0xa
 5339 0af9 65       		.byte	0x65
 5340 0afa A20A0000 		.4byte	0xaa2
 5341 0afe 0E       		.uleb128 0xe
 5342 0aff A8200000 		.4byte	.LASF145
 5343 0b03 0A       		.byte	0xa
 5344 0b04 66       		.byte	0x66
 5345 0b05 ED000000 		.4byte	0xed
 5346 0b09 00       		.byte	0
 5347 0b0a 03       		.uleb128 0x3
 5348 0b0b D00A0000 		.4byte	.LASF146
 5349 0b0f 0A       		.byte	0xa
ARM GAS  C:\Users\EBANO_~1\AppData\Local\Temp\ccpYmjAB.s 			page 122


 5350 0b10 67       		.byte	0x67
 5351 0b11 E70A0000 		.4byte	0xae7
 5352 0b15 02       		.uleb128 0x2
 5353 0b16 01       		.byte	0x1
 5354 0b17 02       		.byte	0x2
 5355 0b18 C4000000 		.4byte	.LASF147
 5356 0b1c 19       		.uleb128 0x19
 5357 0b1d 6A0B0000 		.4byte	.LASF148
 5358 0b21 10       		.byte	0x10
 5359 0b22 0B       		.byte	0xb
 5360 0b23 D301     		.2byte	0x1d3
 5361 0b25 750B0000 		.4byte	0xb75
 5362 0b29 18       		.uleb128 0x18
 5363 0b2a 93020000 		.4byte	.LASF149
 5364 0b2e 0B       		.byte	0xb
 5365 0b2f D801     		.2byte	0x1d8
 5366 0b31 D7000000 		.4byte	0xd7
 5367 0b35 02       		.byte	0x2
 5368 0b36 23       		.byte	0x23
 5369 0b37 00       		.uleb128 0
 5370 0b38 18       		.uleb128 0x18
 5371 0b39 1A030000 		.4byte	.LASF150
 5372 0b3d 0B       		.byte	0xb
 5373 0b3e DC01     		.2byte	0x1dc
 5374 0b40 B1000000 		.4byte	0xb1
 5375 0b44 02       		.byte	0x2
 5376 0b45 23       		.byte	0x23
 5377 0b46 02       		.uleb128 0x2
 5378 0b47 18       		.uleb128 0x18
 5379 0b48 1F1C0000 		.4byte	.LASF151
 5380 0b4c 0B       		.byte	0xb
 5381 0b4d E001     		.2byte	0x1e0
 5382 0b4f 970A0000 		.4byte	0xa97
 5383 0b53 02       		.byte	0x2
 5384 0b54 23       		.byte	0x23
 5385 0b55 04       		.uleb128 0x4
 5386 0b56 18       		.uleb128 0x18
 5387 0b57 EB040000 		.4byte	.LASF152
 5388 0b5b 0B       		.byte	0xb
 5389 0b5c E401     		.2byte	0x1e4
 5390 0b5e 970A0000 		.4byte	0xa97
 5391 0b62 02       		.byte	0x2
 5392 0b63 23       		.byte	0x23
 5393 0b64 08       		.uleb128 0x8
 5394 0b65 18       		.uleb128 0x18
 5395 0b66 FA060000 		.4byte	.LASF153
 5396 0b6a 0B       		.byte	0xb
 5397 0b6b E801     		.2byte	0x1e8
 5398 0b6d 970A0000 		.4byte	0xa97
 5399 0b71 02       		.byte	0x2
 5400 0b72 23       		.byte	0x23
 5401 0b73 0C       		.uleb128 0xc
 5402 0b74 00       		.byte	0
 5403 0b75 0C       		.uleb128 0xc
 5404 0b76 E2020000 		.4byte	.LASF154
 5405 0b7a 0B       		.byte	0xb
 5406 0b7b E901     		.2byte	0x1e9
ARM GAS  C:\Users\EBANO_~1\AppData\Local\Temp\ccpYmjAB.s 			page 123


 5407 0b7d 1C0B0000 		.4byte	0xb1c
 5408 0b81 06       		.uleb128 0x6
 5409 0b82 A31B0000 		.4byte	.LASF155
 5410 0b86 0C       		.byte	0xc
 5411 0b87 9A       		.byte	0x9a
 5412 0b88 7C000000 		.4byte	0x7c
 5413 0b8c 01       		.byte	0x1
 5414 0b8d 01       		.byte	0x1
 5415 0b8e 06       		.uleb128 0x6
 5416 0b8f 2A040000 		.4byte	.LASF156
 5417 0b93 0C       		.byte	0xc
 5418 0b94 9B       		.byte	0x9b
 5419 0b95 A3000000 		.4byte	0xa3
 5420 0b99 01       		.byte	0x1
 5421 0b9a 01       		.byte	0x1
 5422 0b9b 07       		.uleb128 0x7
 5423 0b9c 01070000 		.4byte	0x701
 5424 0ba0 AB0B0000 		.4byte	0xbab
 5425 0ba4 08       		.uleb128 0x8
 5426 0ba5 AA000000 		.4byte	0xaa
 5427 0ba9 01       		.byte	0x1
 5428 0baa 00       		.byte	0
 5429 0bab 06       		.uleb128 0x6
 5430 0bac CE0E0000 		.4byte	.LASF157
 5431 0bb0 0C       		.byte	0xc
 5432 0bb1 9E       		.byte	0x9e
 5433 0bb2 9B0B0000 		.4byte	0xb9b
 5434 0bb6 01       		.byte	0x1
 5435 0bb7 01       		.byte	0x1
 5436 0bb8 20       		.uleb128 0x20
 5437 0bb9 07       		.byte	0x7
 5438 0bba 01       		.byte	0x1
 5439 0bbb 46000000 		.4byte	0x46
 5440 0bbf 0D       		.byte	0xd
 5441 0bc0 21       		.byte	0x21
 5442 0bc1 D20B0000 		.4byte	0xbd2
 5443 0bc5 21       		.uleb128 0x21
 5444 0bc6 850C0000 		.4byte	.LASF158
 5445 0bca 00       		.byte	0
 5446 0bcb 21       		.uleb128 0x21
 5447 0bcc C01B0000 		.4byte	.LASF159
 5448 0bd0 01       		.byte	0x1
 5449 0bd1 00       		.byte	0
 5450 0bd2 03       		.uleb128 0x3
 5451 0bd3 190D0000 		.4byte	.LASF160
 5452 0bd7 0D       		.byte	0xd
 5453 0bd8 24       		.byte	0x24
 5454 0bd9 B80B0000 		.4byte	0xbb8
 5455 0bdd 20       		.uleb128 0x20
 5456 0bde 07       		.byte	0x7
 5457 0bdf 01       		.byte	0x1
 5458 0be0 46000000 		.4byte	0x46
 5459 0be4 0D       		.byte	0xd
 5460 0be5 2A       		.byte	0x2a
 5461 0be6 030C0000 		.4byte	0xc03
 5462 0bea 21       		.uleb128 0x21
 5463 0beb 12030000 		.4byte	.LASF161
ARM GAS  C:\Users\EBANO_~1\AppData\Local\Temp\ccpYmjAB.s 			page 124


 5464 0bef 00       		.byte	0
 5465 0bf0 21       		.uleb128 0x21
 5466 0bf1 1E0F0000 		.4byte	.LASF162
 5467 0bf5 01       		.byte	0x1
 5468 0bf6 21       		.uleb128 0x21
 5469 0bf7 961A0000 		.4byte	.LASF163
 5470 0bfb 02       		.byte	0x2
 5471 0bfc 21       		.uleb128 0x21
 5472 0bfd 54160000 		.4byte	.LASF164
 5473 0c01 03       		.byte	0x3
 5474 0c02 00       		.byte	0
 5475 0c03 03       		.uleb128 0x3
 5476 0c04 AA100000 		.4byte	.LASF165
 5477 0c08 0D       		.byte	0xd
 5478 0c09 2F       		.byte	0x2f
 5479 0c0a DD0B0000 		.4byte	0xbdd
 5480 0c0e 0F       		.uleb128 0xf
 5481 0c0f 1C       		.byte	0x1c
 5482 0c10 0D       		.byte	0xd
 5483 0c11 34       		.byte	0x34
 5484 0c12 790C0000 		.4byte	0xc79
 5485 0c16 10       		.uleb128 0x10
 5486 0c17 94080000 		.4byte	.LASF166
 5487 0c1b 0D       		.byte	0xd
 5488 0c1c 39       		.byte	0x39
 5489 0c1d E8030000 		.4byte	0x3e8
 5490 0c21 02       		.byte	0x2
 5491 0c22 23       		.byte	0x23
 5492 0c23 00       		.uleb128 0
 5493 0c24 10       		.uleb128 0x10
 5494 0c25 89020000 		.4byte	.LASF167
 5495 0c29 0D       		.byte	0xd
 5496 0c2a 3D       		.byte	0x3d
 5497 0c2b E8030000 		.4byte	0x3e8
 5498 0c2f 02       		.byte	0x2
 5499 0c30 23       		.byte	0x23
 5500 0c31 04       		.uleb128 0x4
 5501 0c32 10       		.uleb128 0x10
 5502 0c33 420A0000 		.4byte	.LASF168
 5503 0c37 0D       		.byte	0xd
 5504 0c38 48       		.byte	0x48
 5505 0c39 940C0000 		.4byte	0xc94
 5506 0c3d 02       		.byte	0x2
 5507 0c3e 23       		.byte	0x23
 5508 0c3f 08       		.uleb128 0x8
 5509 0c40 10       		.uleb128 0x10
 5510 0c41 70020000 		.4byte	.LASF169
 5511 0c45 0D       		.byte	0xd
 5512 0c46 4C       		.byte	0x4c
 5513 0c47 E8030000 		.4byte	0x3e8
 5514 0c4b 02       		.byte	0x2
 5515 0c4c 23       		.byte	0x23
 5516 0c4d 0C       		.uleb128 0xc
 5517 0c4e 10       		.uleb128 0x10
 5518 0c4f 54010000 		.4byte	.LASF170
 5519 0c53 0D       		.byte	0xd
 5520 0c54 50       		.byte	0x50
ARM GAS  C:\Users\EBANO_~1\AppData\Local\Temp\ccpYmjAB.s 			page 125


 5521 0c55 E8030000 		.4byte	0x3e8
 5522 0c59 02       		.byte	0x2
 5523 0c5a 23       		.byte	0x23
 5524 0c5b 10       		.uleb128 0x10
 5525 0c5c 10       		.uleb128 0x10
 5526 0c5d 2F0E0000 		.4byte	.LASF171
 5527 0c61 0D       		.byte	0xd
 5528 0c62 56       		.byte	0x56
 5529 0c63 A60C0000 		.4byte	0xca6
 5530 0c67 02       		.byte	0x2
 5531 0c68 23       		.byte	0x23
 5532 0c69 14       		.uleb128 0x14
 5533 0c6a 10       		.uleb128 0x10
 5534 0c6b D31E0000 		.4byte	.LASF172
 5535 0c6f 0D       		.byte	0xd
 5536 0c70 5D       		.byte	0x5d
 5537 0c71 B80C0000 		.4byte	0xcb8
 5538 0c75 02       		.byte	0x2
 5539 0c76 23       		.byte	0x23
 5540 0c77 18       		.uleb128 0x18
 5541 0c78 00       		.byte	0
 5542 0c79 1D       		.uleb128 0x1d
 5543 0c7a 01       		.byte	0x1
 5544 0c7b 940C0000 		.4byte	0xc94
 5545 0c7f 16       		.uleb128 0x16
 5546 0c80 840A0000 		.4byte	0xa84
 5547 0c84 16       		.uleb128 0x16
 5548 0c85 D7000000 		.4byte	0xd7
 5549 0c89 16       		.uleb128 0x16
 5550 0c8a CC000000 		.4byte	0xcc
 5551 0c8e 16       		.uleb128 0x16
 5552 0c8f B1000000 		.4byte	0xb1
 5553 0c93 00       		.byte	0
 5554 0c94 0A       		.uleb128 0xa
 5555 0c95 04       		.byte	0x4
 5556 0c96 790C0000 		.4byte	0xc79
 5557 0c9a 1D       		.uleb128 0x1d
 5558 0c9b 01       		.byte	0x1
 5559 0c9c A60C0000 		.4byte	0xca6
 5560 0ca0 16       		.uleb128 0x16
 5561 0ca1 BC000000 		.4byte	0xbc
 5562 0ca5 00       		.byte	0
 5563 0ca6 0A       		.uleb128 0xa
 5564 0ca7 04       		.byte	0x4
 5565 0ca8 9A0C0000 		.4byte	0xc9a
 5566 0cac 1D       		.uleb128 0x1d
 5567 0cad 01       		.byte	0x1
 5568 0cae B80C0000 		.4byte	0xcb8
 5569 0cb2 16       		.uleb128 0x16
 5570 0cb3 150B0000 		.4byte	0xb15
 5571 0cb7 00       		.byte	0
 5572 0cb8 0A       		.uleb128 0xa
 5573 0cb9 04       		.byte	0x4
 5574 0cba AC0C0000 		.4byte	0xcac
 5575 0cbe 03       		.uleb128 0x3
 5576 0cbf F51D0000 		.4byte	.LASF173
 5577 0cc3 0D       		.byte	0xd
ARM GAS  C:\Users\EBANO_~1\AppData\Local\Temp\ccpYmjAB.s 			page 126


 5578 0cc4 5E       		.byte	0x5e
 5579 0cc5 0E0C0000 		.4byte	0xc0e
 5580 0cc9 11       		.uleb128 0x11
 5581 0cca 99030000 		.4byte	.LASF174
 5582 0cce 74       		.byte	0x74
 5583 0ccf 0D       		.byte	0xd
 5584 0cd0 63       		.byte	0x63
 5585 0cd1 7D0E0000 		.4byte	0xe7d
 5586 0cd5 10       		.uleb128 0x10
 5587 0cd6 B4120000 		.4byte	.LASF175
 5588 0cda 0D       		.byte	0xd
 5589 0cdb 68       		.byte	0x68
 5590 0cdc E8030000 		.4byte	0x3e8
 5591 0ce0 02       		.byte	0x2
 5592 0ce1 23       		.byte	0x23
 5593 0ce2 00       		.uleb128 0
 5594 0ce3 10       		.uleb128 0x10
 5595 0ce4 38080000 		.4byte	.LASF176
 5596 0ce8 0D       		.byte	0xd
 5597 0ce9 6C       		.byte	0x6c
 5598 0cea E8030000 		.4byte	0x3e8
 5599 0cee 02       		.byte	0x2
 5600 0cef 23       		.byte	0x23
 5601 0cf0 04       		.uleb128 0x4
 5602 0cf1 10       		.uleb128 0x10
 5603 0cf2 321C0000 		.4byte	.LASF177
 5604 0cf6 0D       		.byte	0xd
 5605 0cf7 73       		.byte	0x73
 5606 0cf8 980E0000 		.4byte	0xe98
 5607 0cfc 02       		.byte	0x2
 5608 0cfd 23       		.byte	0x23
 5609 0cfe 08       		.uleb128 0x8
 5610 0cff 10       		.uleb128 0x10
 5611 0d00 7D0F0000 		.4byte	.LASF178
 5612 0d04 0D       		.byte	0xd
 5613 0d05 79       		.byte	0x79
 5614 0d06 A40E0000 		.4byte	0xea4
 5615 0d0a 02       		.byte	0x2
 5616 0d0b 23       		.byte	0x23
 5617 0d0c 0C       		.uleb128 0xc
 5618 0d0d 10       		.uleb128 0x10
 5619 0d0e 41080000 		.4byte	.LASF179
 5620 0d12 0D       		.byte	0xd
 5621 0d13 7F       		.byte	0x7f
 5622 0d14 B60E0000 		.4byte	0xeb6
 5623 0d18 02       		.byte	0x2
 5624 0d19 23       		.byte	0x23
 5625 0d1a 10       		.uleb128 0x10
 5626 0d1b 10       		.uleb128 0x10
 5627 0d1c 5D170000 		.4byte	.LASF180
 5628 0d20 0D       		.byte	0xd
 5629 0d21 85       		.byte	0x85
 5630 0d22 C80E0000 		.4byte	0xec8
 5631 0d26 02       		.byte	0x2
 5632 0d27 23       		.byte	0x23
 5633 0d28 14       		.uleb128 0x14
 5634 0d29 10       		.uleb128 0x10
ARM GAS  C:\Users\EBANO_~1\AppData\Local\Temp\ccpYmjAB.s 			page 127


 5635 0d2a 14160000 		.4byte	.LASF181
 5636 0d2e 0D       		.byte	0xd
 5637 0d2f 90       		.byte	0x90
 5638 0d30 ED0E0000 		.4byte	0xeed
 5639 0d34 02       		.byte	0x2
 5640 0d35 23       		.byte	0x23
 5641 0d36 18       		.uleb128 0x18
 5642 0d37 10       		.uleb128 0x10
 5643 0d38 720A0000 		.4byte	.LASF182
 5644 0d3c 0D       		.byte	0xd
 5645 0d3d 9B       		.byte	0x9b
 5646 0d3e F90E0000 		.4byte	0xef9
 5647 0d42 02       		.byte	0x2
 5648 0d43 23       		.byte	0x23
 5649 0d44 1C       		.uleb128 0x1c
 5650 0d45 10       		.uleb128 0x10
 5651 0d46 37210000 		.4byte	.LASF183
 5652 0d4a 0D       		.byte	0xd
 5653 0d4b C3       		.byte	0xc3
 5654 0d4c 4C0F0000 		.4byte	0xf4c
 5655 0d50 02       		.byte	0x2
 5656 0d51 23       		.byte	0x23
 5657 0d52 20       		.uleb128 0x20
 5658 0d53 10       		.uleb128 0x10
 5659 0d54 9E0F0000 		.4byte	.LASF184
 5660 0d58 0D       		.byte	0xd
 5661 0d59 ED       		.byte	0xed
 5662 0d5a 9A0F0000 		.4byte	0xf9a
 5663 0d5e 02       		.byte	0x2
 5664 0d5f 23       		.byte	0x23
 5665 0d60 24       		.uleb128 0x24
 5666 0d61 10       		.uleb128 0x10
 5667 0d62 95110000 		.4byte	.LASF185
 5668 0d66 0D       		.byte	0xd
 5669 0d67 F8       		.byte	0xf8
 5670 0d68 B00F0000 		.4byte	0xfb0
 5671 0d6c 02       		.byte	0x2
 5672 0d6d 23       		.byte	0x23
 5673 0d6e 28       		.uleb128 0x28
 5674 0d6f 18       		.uleb128 0x18
 5675 0d70 FF120000 		.4byte	.LASF186
 5676 0d74 0D       		.byte	0xd
 5677 0d75 0301     		.2byte	0x103
 5678 0d77 CB0F0000 		.4byte	0xfcb
 5679 0d7b 02       		.byte	0x2
 5680 0d7c 23       		.byte	0x23
 5681 0d7d 2C       		.uleb128 0x2c
 5682 0d7e 18       		.uleb128 0x18
 5683 0d7f 8E1D0000 		.4byte	.LASF187
 5684 0d83 0D       		.byte	0xd
 5685 0d84 0B01     		.2byte	0x10b
 5686 0d86 E20F0000 		.4byte	0xfe2
 5687 0d8a 02       		.byte	0x2
 5688 0d8b 23       		.byte	0x23
 5689 0d8c 30       		.uleb128 0x30
 5690 0d8d 18       		.uleb128 0x18
 5691 0d8e CB0C0000 		.4byte	.LASF188
ARM GAS  C:\Users\EBANO_~1\AppData\Local\Temp\ccpYmjAB.s 			page 128


 5692 0d92 0D       		.byte	0xd
 5693 0d93 0F01     		.2byte	0x10f
 5694 0d95 E8030000 		.4byte	0x3e8
 5695 0d99 02       		.byte	0x2
 5696 0d9a 23       		.byte	0x23
 5697 0d9b 34       		.uleb128 0x34
 5698 0d9c 18       		.uleb128 0x18
 5699 0d9d 99040000 		.4byte	.LASF189
 5700 0da1 0D       		.byte	0xd
 5701 0da2 1301     		.2byte	0x113
 5702 0da4 E8030000 		.4byte	0x3e8
 5703 0da8 02       		.byte	0x2
 5704 0da9 23       		.byte	0x23
 5705 0daa 38       		.uleb128 0x38
 5706 0dab 22       		.uleb128 0x22
 5707 0dac 527800   		.ascii	"Rx\000"
 5708 0daf 0D       		.byte	0xd
 5709 0db0 1901     		.2byte	0x119
 5710 0db2 C80E0000 		.4byte	0xec8
 5711 0db6 02       		.byte	0x2
 5712 0db7 23       		.byte	0x23
 5713 0db8 3C       		.uleb128 0x3c
 5714 0db9 18       		.uleb128 0x18
 5715 0dba A9090000 		.4byte	.LASF190
 5716 0dbe 0D       		.byte	0xd
 5717 0dbf 1D01     		.2byte	0x11d
 5718 0dc1 E8030000 		.4byte	0x3e8
 5719 0dc5 02       		.byte	0x2
 5720 0dc6 23       		.byte	0x23
 5721 0dc7 40       		.uleb128 0x40
 5722 0dc8 18       		.uleb128 0x18
 5723 0dc9 46150000 		.4byte	.LASF191
 5724 0dcd 0D       		.byte	0xd
 5725 0dce 2501     		.2byte	0x125
 5726 0dd0 FE0F0000 		.4byte	0xffe
 5727 0dd4 02       		.byte	0x2
 5728 0dd5 23       		.byte	0x23
 5729 0dd6 44       		.uleb128 0x44
 5730 0dd7 18       		.uleb128 0x18
 5731 0dd8 BB1B0000 		.4byte	.LASF192
 5732 0ddc 0D       		.byte	0xd
 5733 0ddd 2B01     		.2byte	0x12b
 5734 0ddf 14100000 		.4byte	0x1014
 5735 0de3 02       		.byte	0x2
 5736 0de4 23       		.byte	0x23
 5737 0de5 48       		.uleb128 0x48
 5738 0de6 18       		.uleb128 0x18
 5739 0de7 B8040000 		.4byte	.LASF193
 5740 0deb 0D       		.byte	0xd
 5741 0dec 3201     		.2byte	0x132
 5742 0dee 2B100000 		.4byte	0x102b
 5743 0df2 02       		.byte	0x2
 5744 0df3 23       		.byte	0x23
 5745 0df4 4C       		.uleb128 0x4c
 5746 0df5 18       		.uleb128 0x18
 5747 0df6 FA040000 		.4byte	.LASF194
 5748 0dfa 0D       		.byte	0xd
ARM GAS  C:\Users\EBANO_~1\AppData\Local\Temp\ccpYmjAB.s 			page 129


 5749 0dfb 3901     		.2byte	0x139
 5750 0dfd 41100000 		.4byte	0x1041
 5751 0e01 02       		.byte	0x2
 5752 0e02 23       		.byte	0x23
 5753 0e03 50       		.uleb128 0x50
 5754 0e04 18       		.uleb128 0x18
 5755 0e05 48010000 		.4byte	.LASF195
 5756 0e09 0D       		.byte	0xd
 5757 0e0a 4101     		.2byte	0x141
 5758 0e0c 5D100000 		.4byte	0x105d
 5759 0e10 02       		.byte	0x2
 5760 0e11 23       		.byte	0x23
 5761 0e12 54       		.uleb128 0x54
 5762 0e13 18       		.uleb128 0x18
 5763 0e14 80010000 		.4byte	.LASF196
 5764 0e18 0D       		.byte	0xd
 5765 0e19 4901     		.2byte	0x149
 5766 0e1b 5D100000 		.4byte	0x105d
 5767 0e1f 02       		.byte	0x2
 5768 0e20 23       		.byte	0x23
 5769 0e21 58       		.uleb128 0x58
 5770 0e22 18       		.uleb128 0x18
 5771 0e23 09040000 		.4byte	.LASF197
 5772 0e27 0D       		.byte	0xd
 5773 0e28 5001     		.2byte	0x150
 5774 0e2a 74100000 		.4byte	0x1074
 5775 0e2e 02       		.byte	0x2
 5776 0e2f 23       		.byte	0x23
 5777 0e30 5C       		.uleb128 0x5c
 5778 0e31 18       		.uleb128 0x18
 5779 0e32 29160000 		.4byte	.LASF198
 5780 0e36 0D       		.byte	0xd
 5781 0e37 5801     		.2byte	0x158
 5782 0e39 B80C0000 		.4byte	0xcb8
 5783 0e3d 02       		.byte	0x2
 5784 0e3e 23       		.byte	0x23
 5785 0e3f 60       		.uleb128 0x60
 5786 0e40 18       		.uleb128 0x18
 5787 0e41 8E1F0000 		.4byte	.LASF199
 5788 0e45 0D       		.byte	0xd
 5789 0e46 5E01     		.2byte	0x15e
 5790 0e48 F90E0000 		.4byte	0xef9
 5791 0e4c 02       		.byte	0x2
 5792 0e4d 23       		.byte	0x23
 5793 0e4e 64       		.uleb128 0x64
 5794 0e4f 18       		.uleb128 0x18
 5795 0e50 95160000 		.4byte	.LASF200
 5796 0e54 0D       		.byte	0xd
 5797 0e55 6201     		.2byte	0x162
 5798 0e57 E8030000 		.4byte	0x3e8
 5799 0e5b 02       		.byte	0x2
 5800 0e5c 23       		.byte	0x23
 5801 0e5d 68       		.uleb128 0x68
 5802 0e5e 18       		.uleb128 0x18
 5803 0e5f 8B050000 		.4byte	.LASF201
 5804 0e63 0D       		.byte	0xd
 5805 0e64 6E01     		.2byte	0x16e
ARM GAS  C:\Users\EBANO_~1\AppData\Local\Temp\ccpYmjAB.s 			page 130


 5806 0e66 C80E0000 		.4byte	0xec8
 5807 0e6a 02       		.byte	0x2
 5808 0e6b 23       		.byte	0x23
 5809 0e6c 6C       		.uleb128 0x6c
 5810 0e6d 18       		.uleb128 0x18
 5811 0e6e 370C0000 		.4byte	.LASF202
 5812 0e72 0D       		.byte	0xd
 5813 0e73 7701     		.2byte	0x177
 5814 0e75 8B100000 		.4byte	0x108b
 5815 0e79 02       		.byte	0x2
 5816 0e7a 23       		.byte	0x23
 5817 0e7b 70       		.uleb128 0x70
 5818 0e7c 00       		.byte	0
 5819 0e7d 05       		.uleb128 0x5
 5820 0e7e C90C0000 		.4byte	0xcc9
 5821 0e82 15       		.uleb128 0x15
 5822 0e83 01       		.byte	0x1
 5823 0e84 ED000000 		.4byte	0xed
 5824 0e88 920E0000 		.4byte	0xe92
 5825 0e8c 16       		.uleb128 0x16
 5826 0e8d 920E0000 		.4byte	0xe92
 5827 0e91 00       		.byte	0
 5828 0e92 0A       		.uleb128 0xa
 5829 0e93 04       		.byte	0x4
 5830 0e94 BE0C0000 		.4byte	0xcbe
 5831 0e98 0A       		.uleb128 0xa
 5832 0e99 04       		.byte	0x4
 5833 0e9a 820E0000 		.4byte	0xe82
 5834 0e9e 23       		.uleb128 0x23
 5835 0e9f 01       		.byte	0x1
 5836 0ea0 030C0000 		.4byte	0xc03
 5837 0ea4 0A       		.uleb128 0xa
 5838 0ea5 04       		.byte	0x4
 5839 0ea6 9E0E0000 		.4byte	0xe9e
 5840 0eaa 1D       		.uleb128 0x1d
 5841 0eab 01       		.byte	0x1
 5842 0eac B60E0000 		.4byte	0xeb6
 5843 0eb0 16       		.uleb128 0x16
 5844 0eb1 D20B0000 		.4byte	0xbd2
 5845 0eb5 00       		.byte	0
 5846 0eb6 0A       		.uleb128 0xa
 5847 0eb7 04       		.byte	0x4
 5848 0eb8 AA0E0000 		.4byte	0xeaa
 5849 0ebc 1D       		.uleb128 0x1d
 5850 0ebd 01       		.byte	0x1
 5851 0ebe C80E0000 		.4byte	0xec8
 5852 0ec2 16       		.uleb128 0x16
 5853 0ec3 ED000000 		.4byte	0xed
 5854 0ec7 00       		.byte	0
 5855 0ec8 0A       		.uleb128 0xa
 5856 0ec9 04       		.byte	0x4
 5857 0eca BC0E0000 		.4byte	0xebc
 5858 0ece 15       		.uleb128 0x15
 5859 0ecf 01       		.byte	0x1
 5860 0ed0 150B0000 		.4byte	0xb15
 5861 0ed4 ED0E0000 		.4byte	0xeed
 5862 0ed8 16       		.uleb128 0x16
ARM GAS  C:\Users\EBANO_~1\AppData\Local\Temp\ccpYmjAB.s 			page 131


 5863 0ed9 D20B0000 		.4byte	0xbd2
 5864 0edd 16       		.uleb128 0x16
 5865 0ede ED000000 		.4byte	0xed
 5866 0ee2 16       		.uleb128 0x16
 5867 0ee3 CC000000 		.4byte	0xcc
 5868 0ee7 16       		.uleb128 0x16
 5869 0ee8 ED000000 		.4byte	0xed
 5870 0eec 00       		.byte	0
 5871 0eed 0A       		.uleb128 0xa
 5872 0eee 04       		.byte	0x4
 5873 0eef CE0E0000 		.4byte	0xece
 5874 0ef3 23       		.uleb128 0x23
 5875 0ef4 01       		.byte	0x1
 5876 0ef5 ED000000 		.4byte	0xed
 5877 0ef9 0A       		.uleb128 0xa
 5878 0efa 04       		.byte	0x4
 5879 0efb F30E0000 		.4byte	0xef3
 5880 0eff 1D       		.uleb128 0x1d
 5881 0f00 01       		.byte	0x1
 5882 0f01 4C0F0000 		.4byte	0xf4c
 5883 0f05 16       		.uleb128 0x16
 5884 0f06 D20B0000 		.4byte	0xbd2
 5885 0f0a 16       		.uleb128 0x16
 5886 0f0b ED000000 		.4byte	0xed
 5887 0f0f 16       		.uleb128 0x16
 5888 0f10 ED000000 		.4byte	0xed
 5889 0f14 16       		.uleb128 0x16
 5890 0f15 BC000000 		.4byte	0xbc
 5891 0f19 16       		.uleb128 0x16
 5892 0f1a ED000000 		.4byte	0xed
 5893 0f1e 16       		.uleb128 0x16
 5894 0f1f D7000000 		.4byte	0xd7
 5895 0f23 16       		.uleb128 0x16
 5896 0f24 D7000000 		.4byte	0xd7
 5897 0f28 16       		.uleb128 0x16
 5898 0f29 150B0000 		.4byte	0xb15
 5899 0f2d 16       		.uleb128 0x16
 5900 0f2e BC000000 		.4byte	0xbc
 5901 0f32 16       		.uleb128 0x16
 5902 0f33 150B0000 		.4byte	0xb15
 5903 0f37 16       		.uleb128 0x16
 5904 0f38 150B0000 		.4byte	0xb15
 5905 0f3c 16       		.uleb128 0x16
 5906 0f3d BC000000 		.4byte	0xbc
 5907 0f41 16       		.uleb128 0x16
 5908 0f42 150B0000 		.4byte	0xb15
 5909 0f46 16       		.uleb128 0x16
 5910 0f47 150B0000 		.4byte	0xb15
 5911 0f4b 00       		.byte	0
 5912 0f4c 0A       		.uleb128 0xa
 5913 0f4d 04       		.byte	0x4
 5914 0f4e FF0E0000 		.4byte	0xeff
 5915 0f52 1D       		.uleb128 0x1d
 5916 0f53 01       		.byte	0x1
 5917 0f54 9A0F0000 		.4byte	0xf9a
 5918 0f58 16       		.uleb128 0x16
 5919 0f59 D20B0000 		.4byte	0xbd2
ARM GAS  C:\Users\EBANO_~1\AppData\Local\Temp\ccpYmjAB.s 			page 132


 5920 0f5d 16       		.uleb128 0x16
 5921 0f5e B1000000 		.4byte	0xb1
 5922 0f62 16       		.uleb128 0x16
 5923 0f63 ED000000 		.4byte	0xed
 5924 0f67 16       		.uleb128 0x16
 5925 0f68 ED000000 		.4byte	0xed
 5926 0f6c 16       		.uleb128 0x16
 5927 0f6d ED000000 		.4byte	0xed
 5928 0f71 16       		.uleb128 0x16
 5929 0f72 BC000000 		.4byte	0xbc
 5930 0f76 16       		.uleb128 0x16
 5931 0f77 D7000000 		.4byte	0xd7
 5932 0f7b 16       		.uleb128 0x16
 5933 0f7c 150B0000 		.4byte	0xb15
 5934 0f80 16       		.uleb128 0x16
 5935 0f81 150B0000 		.4byte	0xb15
 5936 0f85 16       		.uleb128 0x16
 5937 0f86 150B0000 		.4byte	0xb15
 5938 0f8a 16       		.uleb128 0x16
 5939 0f8b BC000000 		.4byte	0xbc
 5940 0f8f 16       		.uleb128 0x16
 5941 0f90 150B0000 		.4byte	0xb15
 5942 0f94 16       		.uleb128 0x16
 5943 0f95 ED000000 		.4byte	0xed
 5944 0f99 00       		.byte	0
 5945 0f9a 0A       		.uleb128 0xa
 5946 0f9b 04       		.byte	0x4
 5947 0f9c 520F0000 		.4byte	0xf52
 5948 0fa0 15       		.uleb128 0x15
 5949 0fa1 01       		.byte	0x1
 5950 0fa2 150B0000 		.4byte	0xb15
 5951 0fa6 B00F0000 		.4byte	0xfb0
 5952 0faa 16       		.uleb128 0x16
 5953 0fab ED000000 		.4byte	0xed
 5954 0faf 00       		.byte	0
 5955 0fb0 0A       		.uleb128 0xa
 5956 0fb1 04       		.byte	0x4
 5957 0fb2 A00F0000 		.4byte	0xfa0
 5958 0fb6 15       		.uleb128 0x15
 5959 0fb7 01       		.byte	0x1
 5960 0fb8 ED000000 		.4byte	0xed
 5961 0fbc CB0F0000 		.4byte	0xfcb
 5962 0fc0 16       		.uleb128 0x16
 5963 0fc1 D20B0000 		.4byte	0xbd2
 5964 0fc5 16       		.uleb128 0x16
 5965 0fc6 BC000000 		.4byte	0xbc
 5966 0fca 00       		.byte	0
 5967 0fcb 0A       		.uleb128 0xa
 5968 0fcc 04       		.byte	0x4
 5969 0fcd B60F0000 		.4byte	0xfb6
 5970 0fd1 1D       		.uleb128 0x1d
 5971 0fd2 01       		.byte	0x1
 5972 0fd3 E20F0000 		.4byte	0xfe2
 5973 0fd7 16       		.uleb128 0x16
 5974 0fd8 840A0000 		.4byte	0xa84
 5975 0fdc 16       		.uleb128 0x16
 5976 0fdd BC000000 		.4byte	0xbc
ARM GAS  C:\Users\EBANO_~1\AppData\Local\Temp\ccpYmjAB.s 			page 133


 5977 0fe1 00       		.byte	0
 5978 0fe2 0A       		.uleb128 0xa
 5979 0fe3 04       		.byte	0x4
 5980 0fe4 D10F0000 		.4byte	0xfd1
 5981 0fe8 1D       		.uleb128 0x1d
 5982 0fe9 01       		.byte	0x1
 5983 0fea FE0F0000 		.4byte	0xffe
 5984 0fee 16       		.uleb128 0x16
 5985 0fef ED000000 		.4byte	0xed
 5986 0ff3 16       		.uleb128 0x16
 5987 0ff4 B1000000 		.4byte	0xb1
 5988 0ff8 16       		.uleb128 0x16
 5989 0ff9 D7000000 		.4byte	0xd7
 5990 0ffd 00       		.byte	0
 5991 0ffe 0A       		.uleb128 0xa
 5992 0fff 04       		.byte	0x4
 5993 1000 E80F0000 		.4byte	0xfe8
 5994 1004 15       		.uleb128 0x15
 5995 1005 01       		.byte	0x1
 5996 1006 CC000000 		.4byte	0xcc
 5997 100a 14100000 		.4byte	0x1014
 5998 100e 16       		.uleb128 0x16
 5999 100f D20B0000 		.4byte	0xbd2
 6000 1013 00       		.byte	0
 6001 1014 0A       		.uleb128 0xa
 6002 1015 04       		.byte	0x4
 6003 1016 04100000 		.4byte	0x1004
 6004 101a 1D       		.uleb128 0x1d
 6005 101b 01       		.byte	0x1
 6006 101c 2B100000 		.4byte	0x102b
 6007 1020 16       		.uleb128 0x16
 6008 1021 D7000000 		.4byte	0xd7
 6009 1025 16       		.uleb128 0x16
 6010 1026 BC000000 		.4byte	0xbc
 6011 102a 00       		.byte	0
 6012 102b 0A       		.uleb128 0xa
 6013 102c 04       		.byte	0x4
 6014 102d 1A100000 		.4byte	0x101a
 6015 1031 15       		.uleb128 0x15
 6016 1032 01       		.byte	0x1
 6017 1033 BC000000 		.4byte	0xbc
 6018 1037 41100000 		.4byte	0x1041
 6019 103b 16       		.uleb128 0x16
 6020 103c D7000000 		.4byte	0xd7
 6021 1040 00       		.byte	0
 6022 1041 0A       		.uleb128 0xa
 6023 1042 04       		.byte	0x4
 6024 1043 31100000 		.4byte	0x1031
 6025 1047 1D       		.uleb128 0x1d
 6026 1048 01       		.byte	0x1
 6027 1049 5D100000 		.4byte	0x105d
 6028 104d 16       		.uleb128 0x16
 6029 104e D7000000 		.4byte	0xd7
 6030 1052 16       		.uleb128 0x16
 6031 1053 840A0000 		.4byte	0xa84
 6032 1057 16       		.uleb128 0x16
 6033 1058 BC000000 		.4byte	0xbc
ARM GAS  C:\Users\EBANO_~1\AppData\Local\Temp\ccpYmjAB.s 			page 134


 6034 105c 00       		.byte	0
 6035 105d 0A       		.uleb128 0xa
 6036 105e 04       		.byte	0x4
 6037 105f 47100000 		.4byte	0x1047
 6038 1063 1D       		.uleb128 0x1d
 6039 1064 01       		.byte	0x1
 6040 1065 74100000 		.4byte	0x1074
 6041 1069 16       		.uleb128 0x16
 6042 106a D20B0000 		.4byte	0xbd2
 6043 106e 16       		.uleb128 0x16
 6044 106f BC000000 		.4byte	0xbc
 6045 1073 00       		.byte	0
 6046 1074 0A       		.uleb128 0xa
 6047 1075 04       		.byte	0x4
 6048 1076 63100000 		.4byte	0x1063
 6049 107a 1D       		.uleb128 0x1d
 6050 107b 01       		.byte	0x1
 6051 107c 8B100000 		.4byte	0x108b
 6052 1080 16       		.uleb128 0x16
 6053 1081 ED000000 		.4byte	0xed
 6054 1085 16       		.uleb128 0x16
 6055 1086 ED000000 		.4byte	0xed
 6056 108a 00       		.byte	0
 6057 108b 0A       		.uleb128 0xa
 6058 108c 04       		.byte	0x4
 6059 108d 7A100000 		.4byte	0x107a
 6060 1091 1E       		.uleb128 0x1e
 6061 1092 EC080000 		.4byte	.LASF203
 6062 1096 0D       		.byte	0xd
 6063 1097 8001     		.2byte	0x180
 6064 1099 7D0E0000 		.4byte	0xe7d
 6065 109d 01       		.byte	0x1
 6066 109e 01       		.byte	0x1
 6067 109f 11       		.uleb128 0x11
 6068 10a0 601F0000 		.4byte	.LASF204
 6069 10a4 01       		.byte	0x1
 6070 10a5 0E       		.byte	0xe
 6071 10a6 B4       		.byte	0xb4
 6072 10a7 CE100000 		.4byte	0x10ce
 6073 10ab 24       		.uleb128 0x24
 6074 10ac 4D696E00 		.ascii	"Min\000"
 6075 10b0 0E       		.byte	0xe
 6076 10b1 BD       		.byte	0xbd
 6077 10b2 B1000000 		.4byte	0xb1
 6078 10b6 01       		.byte	0x1
 6079 10b7 04       		.byte	0x4
 6080 10b8 04       		.byte	0x4
 6081 10b9 02       		.byte	0x2
 6082 10ba 23       		.byte	0x23
 6083 10bb 00       		.uleb128 0
 6084 10bc 24       		.uleb128 0x24
 6085 10bd 4D617800 		.ascii	"Max\000"
 6086 10c1 0E       		.byte	0xe
 6087 10c2 C5       		.byte	0xc5
 6088 10c3 B1000000 		.4byte	0xb1
 6089 10c7 01       		.byte	0x1
 6090 10c8 04       		.byte	0x4
ARM GAS  C:\Users\EBANO_~1\AppData\Local\Temp\ccpYmjAB.s 			page 135


 6091 10c9 00       		.byte	0
 6092 10ca 02       		.byte	0x2
 6093 10cb 23       		.byte	0x23
 6094 10cc 00       		.uleb128 0
 6095 10cd 00       		.byte	0
 6096 10ce 1F       		.uleb128 0x1f
 6097 10cf BE080000 		.4byte	.LASF206
 6098 10d3 01       		.byte	0x1
 6099 10d4 0E       		.byte	0xe
 6100 10d5 AB       		.byte	0xab
 6101 10d6 F1100000 		.4byte	0x10f1
 6102 10da 0E       		.uleb128 0xe
 6103 10db A8200000 		.4byte	.LASF145
 6104 10df 0E       		.byte	0xe
 6105 10e0 B0       		.byte	0xb0
 6106 10e1 B1000000 		.4byte	0xb1
 6107 10e5 0E       		.uleb128 0xe
 6108 10e6 69110000 		.4byte	.LASF144
 6109 10ea 0E       		.byte	0xe
 6110 10eb C6       		.byte	0xc6
 6111 10ec 9F100000 		.4byte	0x109f
 6112 10f0 00       		.byte	0
 6113 10f1 03       		.uleb128 0x3
 6114 10f2 3F070000 		.4byte	.LASF207
 6115 10f6 0E       		.byte	0xe
 6116 10f7 C7       		.byte	0xc7
 6117 10f8 CE100000 		.4byte	0x10ce
 6118 10fc 11       		.uleb128 0x11
 6119 10fd 90190000 		.4byte	.LASF208
 6120 1101 0C       		.byte	0xc
 6121 1102 0E       		.byte	0xe
 6122 1103 CC       		.byte	0xcc
 6123 1104 41110000 		.4byte	0x1141
 6124 1108 10       		.uleb128 0x10
 6125 1109 AB1C0000 		.4byte	.LASF209
 6126 110d 0E       		.byte	0xe
 6127 110e D1       		.byte	0xd1
 6128 110f ED000000 		.4byte	0xed
 6129 1113 02       		.byte	0x2
 6130 1114 23       		.byte	0x23
 6131 1115 00       		.uleb128 0
 6132 1116 10       		.uleb128 0x10
 6133 1117 CB110000 		.4byte	.LASF210
 6134 111b 0E       		.byte	0xe
 6135 111c D5       		.byte	0xd5
 6136 111d ED000000 		.4byte	0xed
 6137 1121 02       		.byte	0x2
 6138 1122 23       		.byte	0x23
 6139 1123 04       		.uleb128 0x4
 6140 1124 10       		.uleb128 0x10
 6141 1125 5A050000 		.4byte	.LASF211
 6142 1129 0E       		.byte	0xe
 6143 112a D9       		.byte	0xd9
 6144 112b F1100000 		.4byte	0x10f1
 6145 112f 02       		.byte	0x2
 6146 1130 23       		.byte	0x23
 6147 1131 08       		.uleb128 0x8
ARM GAS  C:\Users\EBANO_~1\AppData\Local\Temp\ccpYmjAB.s 			page 136


 6148 1132 10       		.uleb128 0x10
 6149 1133 C7080000 		.4byte	.LASF212
 6150 1137 0E       		.byte	0xe
 6151 1138 DD       		.byte	0xdd
 6152 1139 BC000000 		.4byte	0xbc
 6153 113d 02       		.byte	0x2
 6154 113e 23       		.byte	0x23
 6155 113f 09       		.uleb128 0x9
 6156 1140 00       		.byte	0
 6157 1141 03       		.uleb128 0x3
 6158 1142 AA0F0000 		.4byte	.LASF213
 6159 1146 0E       		.byte	0xe
 6160 1147 DE       		.byte	0xde
 6161 1148 FC100000 		.4byte	0x10fc
 6162 114c 25       		.uleb128 0x25
 6163 114d B90B0000 		.4byte	.LASF221
 6164 1151 07       		.byte	0x7
 6165 1152 01       		.byte	0x1
 6166 1153 46000000 		.4byte	0x46
 6167 1157 0E       		.byte	0xe
 6168 1158 F6       		.byte	0xf6
 6169 1159 7C110000 		.4byte	0x117c
 6170 115d 21       		.uleb128 0x21
 6171 115e 25190000 		.4byte	.LASF214
 6172 1162 00       		.byte	0
 6173 1163 21       		.uleb128 0x21
 6174 1164 33190000 		.4byte	.LASF215
 6175 1168 01       		.byte	0x1
 6176 1169 21       		.uleb128 0x21
 6177 116a 00000000 		.4byte	.LASF216
 6178 116e 02       		.byte	0x2
 6179 116f 21       		.uleb128 0x21
 6180 1170 FC1F0000 		.4byte	.LASF217
 6181 1174 03       		.byte	0x3
 6182 1175 21       		.uleb128 0x21
 6183 1176 1C0C0000 		.4byte	.LASF218
 6184 117a 04       		.byte	0x4
 6185 117b 00       		.byte	0
 6186 117c 0C       		.uleb128 0xc
 6187 117d 0E0F0000 		.4byte	.LASF219
 6188 1181 0E       		.byte	0xe
 6189 1182 0C01     		.2byte	0x10c
 6190 1184 4C110000 		.4byte	0x114c
 6191 1188 02       		.uleb128 0x2
 6192 1189 04       		.byte	0x4
 6193 118a 04       		.byte	0x4
 6194 118b 49070000 		.4byte	.LASF220
 6195 118f 0A       		.uleb128 0xa
 6196 1190 04       		.byte	0x4
 6197 1191 41110000 		.4byte	0x1141
 6198 1195 0A       		.uleb128 0xa
 6199 1196 04       		.byte	0x4
 6200 1197 D7000000 		.4byte	0xd7
 6201 119b 26       		.uleb128 0x26
 6202 119c 40040000 		.4byte	.LASF222
 6203 11a0 07       		.byte	0x7
 6204 11a1 01       		.byte	0x1
ARM GAS  C:\Users\EBANO_~1\AppData\Local\Temp\ccpYmjAB.s 			page 137


 6205 11a2 46000000 		.4byte	0x46
 6206 11a6 0E       		.byte	0xe
 6207 11a7 2508     		.2byte	0x825
 6208 11a9 38120000 		.4byte	0x1238
 6209 11ad 21       		.uleb128 0x21
 6210 11ae A6170000 		.4byte	.LASF223
 6211 11b2 00       		.byte	0
 6212 11b3 21       		.uleb128 0x21
 6213 11b4 BA0F0000 		.4byte	.LASF224
 6214 11b8 01       		.byte	0x1
 6215 11b9 21       		.uleb128 0x21
 6216 11ba AE200000 		.4byte	.LASF225
 6217 11be 02       		.byte	0x2
 6218 11bf 21       		.uleb128 0x21
 6219 11c0 51080000 		.4byte	.LASF226
 6220 11c4 03       		.byte	0x3
 6221 11c5 21       		.uleb128 0x21
 6222 11c6 E2160000 		.4byte	.LASF227
 6223 11ca 04       		.byte	0x4
 6224 11cb 21       		.uleb128 0x21
 6225 11cc E31E0000 		.4byte	.LASF228
 6226 11d0 05       		.byte	0x5
 6227 11d1 21       		.uleb128 0x21
 6228 11d2 701E0000 		.4byte	.LASF229
 6229 11d6 06       		.byte	0x6
 6230 11d7 21       		.uleb128 0x21
 6231 11d8 CB010000 		.4byte	.LASF230
 6232 11dc 07       		.byte	0x7
 6233 11dd 21       		.uleb128 0x21
 6234 11de DE060000 		.4byte	.LASF231
 6235 11e2 08       		.byte	0x8
 6236 11e3 21       		.uleb128 0x21
 6237 11e4 EA0E0000 		.4byte	.LASF232
 6238 11e8 09       		.byte	0x9
 6239 11e9 21       		.uleb128 0x21
 6240 11ea DE200000 		.4byte	.LASF233
 6241 11ee 0A       		.byte	0xa
 6242 11ef 21       		.uleb128 0x21
 6243 11f0 66040000 		.4byte	.LASF234
 6244 11f4 0B       		.byte	0xb
 6245 11f5 21       		.uleb128 0x21
 6246 11f6 571A0000 		.4byte	.LASF235
 6247 11fa 0C       		.byte	0xc
 6248 11fb 21       		.uleb128 0x21
 6249 11fc 16110000 		.4byte	.LASF236
 6250 1200 0D       		.byte	0xd
 6251 1201 21       		.uleb128 0x21
 6252 1202 EA0F0000 		.4byte	.LASF237
 6253 1206 0E       		.byte	0xe
 6254 1207 21       		.uleb128 0x21
 6255 1208 2A200000 		.4byte	.LASF238
 6256 120c 0F       		.byte	0xf
 6257 120d 21       		.uleb128 0x21
 6258 120e CA1D0000 		.4byte	.LASF239
 6259 1212 10       		.byte	0x10
 6260 1213 21       		.uleb128 0x21
 6261 1214 25030000 		.4byte	.LASF240
ARM GAS  C:\Users\EBANO_~1\AppData\Local\Temp\ccpYmjAB.s 			page 138


 6262 1218 11       		.byte	0x11
 6263 1219 21       		.uleb128 0x21
 6264 121a 030A0000 		.4byte	.LASF241
 6265 121e 12       		.byte	0x12
 6266 121f 21       		.uleb128 0x21
 6267 1220 F90C0000 		.4byte	.LASF242
 6268 1224 13       		.byte	0x13
 6269 1225 21       		.uleb128 0x21
 6270 1226 931E0000 		.4byte	.LASF243
 6271 122a 14       		.byte	0x14
 6272 122b 21       		.uleb128 0x21
 6273 122c 701C0000 		.4byte	.LASF244
 6274 1230 15       		.byte	0x15
 6275 1231 21       		.uleb128 0x21
 6276 1232 2C0F0000 		.4byte	.LASF245
 6277 1236 16       		.byte	0x16
 6278 1237 00       		.byte	0
 6279 1238 0C       		.uleb128 0xc
 6280 1239 2B1E0000 		.4byte	.LASF246
 6281 123d 0E       		.byte	0xe
 6282 123e 8508     		.2byte	0x885
 6283 1240 9B110000 		.4byte	0x119b
 6284 1244 27       		.uleb128 0x27
 6285 1245 AC1F0000 		.4byte	.LASF431
 6286 1249 0E       		.byte	0xe
 6287 124a 2509     		.2byte	0x925
 6288 124c 1A010000 		.4byte	0x11a
 6289 1250 10       		.byte	0x10
 6290 1251 08       		.byte	0x8
 6291 1252 0A       		.byte	0xa
 6292 1253 0C       		.byte	0xc
 6293 1254 0D       		.byte	0xd
 6294 1255 0E       		.byte	0xe
 6295 1256 10       		.byte	0x10
 6296 1257 12       		.byte	0x12
 6297 1258 14       		.byte	0x14
 6298 1259 15       		.byte	0x15
 6299 125a 18       		.byte	0x18
 6300 125b 1A       		.byte	0x1a
 6301 125c 1B       		.byte	0x1b
 6302 125d 1D       		.byte	0x1d
 6303 125e 1E       		.byte	0x1e
 6304 125f 21       		.byte	0x21
 6305 1260 24       		.byte	0x24
 6306 1261 26       		.uleb128 0x26
 6307 1262 E2070000 		.4byte	.LASF247
 6308 1266 07       		.byte	0x7
 6309 1267 01       		.byte	0x1
 6310 1268 46000000 		.4byte	0x46
 6311 126c 0F       		.byte	0xf
 6312 126d 1202     		.2byte	0x212
 6313 126f B2130000 		.4byte	0x13b2
 6314 1273 21       		.uleb128 0x21
 6315 1274 500A0000 		.4byte	.LASF248
 6316 1278 00       		.byte	0
 6317 1279 21       		.uleb128 0x21
 6318 127a 700B0000 		.4byte	.LASF249
ARM GAS  C:\Users\EBANO_~1\AppData\Local\Temp\ccpYmjAB.s 			page 139


 6319 127e 01       		.byte	0x1
 6320 127f 21       		.uleb128 0x21
 6321 1280 AD1B0000 		.4byte	.LASF250
 6322 1284 02       		.byte	0x2
 6323 1285 21       		.uleb128 0x21
 6324 1286 870F0000 		.4byte	.LASF251
 6325 128a 03       		.byte	0x3
 6326 128b 21       		.uleb128 0x21
 6327 128c 7E1B0000 		.4byte	.LASF252
 6328 1290 04       		.byte	0x4
 6329 1291 21       		.uleb128 0x21
 6330 1292 D4160000 		.4byte	.LASF253
 6331 1296 05       		.byte	0x5
 6332 1297 21       		.uleb128 0x21
 6333 1298 31050000 		.4byte	.LASF254
 6334 129c 06       		.byte	0x6
 6335 129d 21       		.uleb128 0x21
 6336 129e 9C0D0000 		.4byte	.LASF255
 6337 12a2 07       		.byte	0x7
 6338 12a3 21       		.uleb128 0x21
 6339 12a4 50170000 		.4byte	.LASF256
 6340 12a8 08       		.byte	0x8
 6341 12a9 21       		.uleb128 0x21
 6342 12aa B8170000 		.4byte	.LASF257
 6343 12ae 09       		.byte	0x9
 6344 12af 21       		.uleb128 0x21
 6345 12b0 83030000 		.4byte	.LASF258
 6346 12b4 0A       		.byte	0xa
 6347 12b5 21       		.uleb128 0x21
 6348 12b6 75100000 		.4byte	.LASF259
 6349 12ba 0B       		.byte	0xb
 6350 12bb 21       		.uleb128 0x21
 6351 12bc AF0C0000 		.4byte	.LASF260
 6352 12c0 0C       		.byte	0xc
 6353 12c1 21       		.uleb128 0x21
 6354 12c2 A41A0000 		.4byte	.LASF261
 6355 12c6 0D       		.byte	0xd
 6356 12c7 21       		.uleb128 0x21
 6357 12c8 46130000 		.4byte	.LASF262
 6358 12cc 0E       		.byte	0xe
 6359 12cd 21       		.uleb128 0x21
 6360 12ce AD0A0000 		.4byte	.LASF263
 6361 12d2 0F       		.byte	0xf
 6362 12d3 21       		.uleb128 0x21
 6363 12d4 A80E0000 		.4byte	.LASF264
 6364 12d8 10       		.byte	0x10
 6365 12d9 21       		.uleb128 0x21
 6366 12da BB0E0000 		.4byte	.LASF265
 6367 12de 11       		.byte	0x11
 6368 12df 21       		.uleb128 0x21
 6369 12e0 38000000 		.4byte	.LASF266
 6370 12e4 12       		.byte	0x12
 6371 12e5 21       		.uleb128 0x21
 6372 12e6 4F000000 		.4byte	.LASF267
 6373 12ea 13       		.byte	0x13
 6374 12eb 21       		.uleb128 0x21
 6375 12ec 51180000 		.4byte	.LASF268
ARM GAS  C:\Users\EBANO_~1\AppData\Local\Temp\ccpYmjAB.s 			page 140


 6376 12f0 14       		.byte	0x14
 6377 12f1 21       		.uleb128 0x21
 6378 12f2 0F1A0000 		.4byte	.LASF269
 6379 12f6 15       		.byte	0x15
 6380 12f7 21       		.uleb128 0x21
 6381 12f8 B6050000 		.4byte	.LASF270
 6382 12fc 16       		.byte	0x16
 6383 12fd 21       		.uleb128 0x21
 6384 12fe C2070000 		.4byte	.LASF271
 6385 1302 17       		.byte	0x17
 6386 1303 21       		.uleb128 0x21
 6387 1304 810E0000 		.4byte	.LASF272
 6388 1308 18       		.byte	0x18
 6389 1309 21       		.uleb128 0x21
 6390 130a 931C0000 		.4byte	.LASF273
 6391 130e 19       		.byte	0x19
 6392 130f 21       		.uleb128 0x21
 6393 1310 E6050000 		.4byte	.LASF274
 6394 1314 1A       		.byte	0x1a
 6395 1315 21       		.uleb128 0x21
 6396 1316 70150000 		.4byte	.LASF275
 6397 131a 1B       		.byte	0x1b
 6398 131b 21       		.uleb128 0x21
 6399 131c 241F0000 		.4byte	.LASF276
 6400 1320 1C       		.byte	0x1c
 6401 1321 21       		.uleb128 0x21
 6402 1322 0A180000 		.4byte	.LASF277
 6403 1326 1D       		.byte	0x1d
 6404 1327 21       		.uleb128 0x21
 6405 1328 DE0D0000 		.4byte	.LASF278
 6406 132c 1E       		.byte	0x1e
 6407 132d 21       		.uleb128 0x21
 6408 132e DC180000 		.4byte	.LASF279
 6409 1332 1F       		.byte	0x1f
 6410 1333 21       		.uleb128 0x21
 6411 1334 3F160000 		.4byte	.LASF280
 6412 1338 20       		.byte	0x20
 6413 1339 21       		.uleb128 0x21
 6414 133a B30D0000 		.4byte	.LASF281
 6415 133e 21       		.byte	0x21
 6416 133f 21       		.uleb128 0x21
 6417 1340 F6170000 		.4byte	.LASF282
 6418 1344 22       		.byte	0x22
 6419 1345 21       		.uleb128 0x21
 6420 1346 1A020000 		.4byte	.LASF283
 6421 134a 23       		.byte	0x23
 6422 134b 21       		.uleb128 0x21
 6423 134c A3020000 		.4byte	.LASF284
 6424 1350 24       		.byte	0x24
 6425 1351 21       		.uleb128 0x21
 6426 1352 4E060000 		.4byte	.LASF285
 6427 1356 25       		.byte	0x25
 6428 1357 21       		.uleb128 0x21
 6429 1358 70110000 		.4byte	.LASF286
 6430 135c 26       		.byte	0x26
 6431 135d 21       		.uleb128 0x21
 6432 135e 5F0D0000 		.4byte	.LASF287
ARM GAS  C:\Users\EBANO_~1\AppData\Local\Temp\ccpYmjAB.s 			page 141


 6433 1362 27       		.byte	0x27
 6434 1363 21       		.uleb128 0x21
 6435 1364 9C0B0000 		.4byte	.LASF288
 6436 1368 28       		.byte	0x28
 6437 1369 21       		.uleb128 0x21
 6438 136a 060E0000 		.4byte	.LASF289
 6439 136e 29       		.byte	0x29
 6440 136f 21       		.uleb128 0x21
 6441 1370 120B0000 		.4byte	.LASF290
 6442 1374 2A       		.byte	0x2a
 6443 1375 21       		.uleb128 0x21
 6444 1376 11210000 		.4byte	.LASF291
 6445 137a 2B       		.byte	0x2b
 6446 137b 21       		.uleb128 0x21
 6447 137c 62050000 		.4byte	.LASF292
 6448 1380 2C       		.byte	0x2c
 6449 1381 21       		.uleb128 0x21
 6450 1382 B81E0000 		.4byte	.LASF293
 6451 1386 2D       		.byte	0x2d
 6452 1387 21       		.uleb128 0x21
 6453 1388 BD1A0000 		.4byte	.LASF294
 6454 138c 2E       		.byte	0x2e
 6455 138d 21       		.uleb128 0x21
 6456 138e DE170000 		.4byte	.LASF295
 6457 1392 2F       		.byte	0x2f
 6458 1393 21       		.uleb128 0x21
 6459 1394 E7000000 		.4byte	.LASF296
 6460 1398 30       		.byte	0x30
 6461 1399 21       		.uleb128 0x21
 6462 139a 43110000 		.4byte	.LASF297
 6463 139e 31       		.byte	0x31
 6464 139f 21       		.uleb128 0x21
 6465 13a0 380B0000 		.4byte	.LASF298
 6466 13a4 32       		.byte	0x32
 6467 13a5 21       		.uleb128 0x21
 6468 13a6 E0110000 		.4byte	.LASF299
 6469 13aa 33       		.byte	0x33
 6470 13ab 21       		.uleb128 0x21
 6471 13ac 931D0000 		.4byte	.LASF300
 6472 13b0 34       		.byte	0x34
 6473 13b1 00       		.byte	0
 6474 13b2 0C       		.uleb128 0xc
 6475 13b3 7A020000 		.4byte	.LASF301
 6476 13b7 0F       		.byte	0xf
 6477 13b8 EE02     		.2byte	0x2ee
 6478 13ba 61120000 		.4byte	0x1261
 6479 13be 26       		.uleb128 0x26
 6480 13bf 41190000 		.4byte	.LASF302
 6481 13c3 07       		.byte	0x7
 6482 13c4 01       		.byte	0x1
 6483 13c5 46000000 		.4byte	0x46
 6484 13c9 0F       		.byte	0xf
 6485 13ca F302     		.2byte	0x2f3
 6486 13cc E3130000 		.4byte	0x13e3
 6487 13d0 21       		.uleb128 0x21
 6488 13d1 8D0D0000 		.4byte	.LASF303
 6489 13d5 00       		.byte	0
ARM GAS  C:\Users\EBANO_~1\AppData\Local\Temp\ccpYmjAB.s 			page 142


 6490 13d6 21       		.uleb128 0x21
 6491 13d7 291D0000 		.4byte	.LASF304
 6492 13db 01       		.byte	0x1
 6493 13dc 21       		.uleb128 0x21
 6494 13dd 2F1B0000 		.4byte	.LASF305
 6495 13e1 02       		.byte	0x2
 6496 13e2 00       		.byte	0
 6497 13e3 0C       		.uleb128 0xc
 6498 13e4 CC040000 		.4byte	.LASF306
 6499 13e8 0F       		.byte	0xf
 6500 13e9 0203     		.2byte	0x302
 6501 13eb BE130000 		.4byte	0x13be
 6502 13ef 26       		.uleb128 0x26
 6503 13f0 06160000 		.4byte	.LASF307
 6504 13f4 07       		.byte	0x7
 6505 13f5 01       		.byte	0x1
 6506 13f6 46000000 		.4byte	0x46
 6507 13fa 0F       		.byte	0xf
 6508 13fb 0403     		.2byte	0x304
 6509 13fd 0E140000 		.4byte	0x140e
 6510 1401 21       		.uleb128 0x21
 6511 1402 98140000 		.4byte	.LASF308
 6512 1406 00       		.byte	0
 6513 1407 21       		.uleb128 0x21
 6514 1408 24180000 		.4byte	.LASF309
 6515 140c 01       		.byte	0x1
 6516 140d 00       		.byte	0
 6517 140e 0C       		.uleb128 0xc
 6518 140f B4010000 		.4byte	.LASF310
 6519 1413 0F       		.byte	0xf
 6520 1414 0E03     		.2byte	0x30e
 6521 1416 EF130000 		.4byte	0x13ef
 6522 141a 19       		.uleb128 0x19
 6523 141b A5000000 		.4byte	.LASF311
 6524 141f 03       		.byte	0x3
 6525 1420 0F       		.byte	0xf
 6526 1421 1303     		.2byte	0x313
 6527 1423 55140000 		.4byte	0x1455
 6528 1427 18       		.uleb128 0x18
 6529 1428 FE030000 		.4byte	.LASF312
 6530 142c 0F       		.byte	0xf
 6531 142d 1803     		.2byte	0x318
 6532 142f BC000000 		.4byte	0xbc
 6533 1433 02       		.byte	0x2
 6534 1434 23       		.byte	0x23
 6535 1435 00       		.uleb128 0
 6536 1436 18       		.uleb128 0x18
 6537 1437 66000000 		.4byte	.LASF313
 6538 143b 0F       		.byte	0xf
 6539 143c 1C03     		.2byte	0x31c
 6540 143e BC000000 		.4byte	0xbc
 6541 1442 02       		.byte	0x2
 6542 1443 23       		.byte	0x23
 6543 1444 01       		.uleb128 0x1
 6544 1445 18       		.uleb128 0x18
 6545 1446 950F0000 		.4byte	.LASF314
 6546 144a 0F       		.byte	0xf
ARM GAS  C:\Users\EBANO_~1\AppData\Local\Temp\ccpYmjAB.s 			page 143


 6547 144b 2003     		.2byte	0x320
 6548 144d BC000000 		.4byte	0xbc
 6549 1451 02       		.byte	0x2
 6550 1452 23       		.byte	0x23
 6551 1453 02       		.uleb128 0x2
 6552 1454 00       		.byte	0
 6553 1455 0C       		.uleb128 0xc
 6554 1456 E2190000 		.4byte	.LASF315
 6555 145a 0F       		.byte	0xf
 6556 145b 2103     		.2byte	0x321
 6557 145d 1A140000 		.4byte	0x141a
 6558 1461 28       		.uleb128 0x28
 6559 1462 68170000 		.4byte	.LASF316
 6560 1466 04       		.byte	0x4
 6561 1467 0F       		.byte	0xf
 6562 1468 2603     		.2byte	0x326
 6563 146a AB140000 		.4byte	0x14ab
 6564 146e 1C       		.uleb128 0x1c
 6565 146f A8200000 		.4byte	.LASF145
 6566 1473 0F       		.byte	0xf
 6567 1474 2B03     		.2byte	0x32b
 6568 1476 ED000000 		.4byte	0xed
 6569 147a 1C       		.uleb128 0x1c
 6570 147b F41A0000 		.4byte	.LASF317
 6571 147f 0F       		.byte	0xf
 6572 1480 2F03     		.2byte	0x32f
 6573 1482 88110000 		.4byte	0x1188
 6574 1486 1C       		.uleb128 0x1c
 6575 1487 811D0000 		.4byte	.LASF318
 6576 148b 0F       		.byte	0xf
 6577 148c 3303     		.2byte	0x333
 6578 148e 95110000 		.4byte	0x1195
 6579 1492 1C       		.uleb128 0x1c
 6580 1493 270D0000 		.4byte	.LASF319
 6581 1497 0F       		.byte	0xf
 6582 1498 3703     		.2byte	0x337
 6583 149a 8F110000 		.4byte	0x118f
 6584 149e 1C       		.uleb128 0x1c
 6585 149f 610F0000 		.4byte	.LASF320
 6586 14a3 0F       		.byte	0xf
 6587 14a4 3B03     		.2byte	0x33b
 6588 14a6 55140000 		.4byte	0x1455
 6589 14aa 00       		.byte	0
 6590 14ab 0C       		.uleb128 0xc
 6591 14ac 1A130000 		.4byte	.LASF321
 6592 14b0 0F       		.byte	0xf
 6593 14b1 3C03     		.2byte	0x33c
 6594 14b3 61140000 		.4byte	0x1461
 6595 14b7 19       		.uleb128 0x19
 6596 14b8 EB0C0000 		.4byte	.LASF322
 6597 14bc 04       		.byte	0x4
 6598 14bd 0F       		.byte	0xf
 6599 14be 4103     		.2byte	0x341
 6600 14c0 01150000 		.4byte	0x1501
 6601 14c4 18       		.uleb128 0x18
 6602 14c5 D8070000 		.4byte	.LASF323
 6603 14c9 0F       		.byte	0xf
ARM GAS  C:\Users\EBANO_~1\AppData\Local\Temp\ccpYmjAB.s 			page 144


 6604 14ca 4603     		.2byte	0x346
 6605 14cc B2130000 		.4byte	0x13b2
 6606 14d0 02       		.byte	0x2
 6607 14d1 23       		.byte	0x23
 6608 14d2 00       		.uleb128 0
 6609 14d3 18       		.uleb128 0x18
 6610 14d4 AC1D0000 		.4byte	.LASF324
 6611 14d8 0F       		.byte	0xf
 6612 14d9 4C03     		.2byte	0x34c
 6613 14db B1000000 		.4byte	0xb1
 6614 14df 02       		.byte	0x2
 6615 14e0 23       		.byte	0x23
 6616 14e1 01       		.uleb128 0x1
 6617 14e2 18       		.uleb128 0x18
 6618 14e3 1F1A0000 		.4byte	.LASF325
 6619 14e7 0F       		.byte	0xf
 6620 14e8 5303     		.2byte	0x353
 6621 14ea BC000000 		.4byte	0xbc
 6622 14ee 02       		.byte	0x2
 6623 14ef 23       		.byte	0x23
 6624 14f0 02       		.uleb128 0x2
 6625 14f1 18       		.uleb128 0x18
 6626 14f2 ED120000 		.4byte	.LASF326
 6627 14f6 0F       		.byte	0xf
 6628 14f7 5A03     		.2byte	0x35a
 6629 14f9 BC000000 		.4byte	0xbc
 6630 14fd 02       		.byte	0x2
 6631 14fe 23       		.byte	0x23
 6632 14ff 03       		.uleb128 0x3
 6633 1500 00       		.byte	0
 6634 1501 0C       		.uleb128 0xc
 6635 1502 8A040000 		.4byte	.LASF327
 6636 1506 0F       		.byte	0xf
 6637 1507 5B03     		.2byte	0x35b
 6638 1509 B7140000 		.4byte	0x14b7
 6639 150d 19       		.uleb128 0x19
 6640 150e 25130000 		.4byte	.LASF328
 6641 1512 08       		.byte	0x8
 6642 1513 0F       		.byte	0xf
 6643 1514 6003     		.2byte	0x360
 6644 1516 48150000 		.4byte	0x1548
 6645 151a 18       		.uleb128 0x18
 6646 151b 82190000 		.4byte	.LASF329
 6647 151f 0F       		.byte	0xf
 6648 1520 6503     		.2byte	0x365
 6649 1522 BC000000 		.4byte	0xbc
 6650 1526 02       		.byte	0x2
 6651 1527 23       		.byte	0x23
 6652 1528 00       		.uleb128 0
 6653 1529 18       		.uleb128 0x18
 6654 152a 08110000 		.4byte	.LASF330
 6655 152e 0F       		.byte	0xf
 6656 152f 6903     		.2byte	0x369
 6657 1531 150B0000 		.4byte	0xb15
 6658 1535 02       		.byte	0x2
 6659 1536 23       		.byte	0x23
 6660 1537 01       		.uleb128 0x1
ARM GAS  C:\Users\EBANO_~1\AppData\Local\Temp\ccpYmjAB.s 			page 145


 6661 1538 18       		.uleb128 0x18
 6662 1539 EB040000 		.4byte	.LASF152
 6663 153d 0F       		.byte	0xf
 6664 153e 6D03     		.2byte	0x36d
 6665 1540 970A0000 		.4byte	0xa97
 6666 1544 02       		.byte	0x2
 6667 1545 23       		.byte	0x23
 6668 1546 04       		.uleb128 0x4
 6669 1547 00       		.byte	0
 6670 1548 0C       		.uleb128 0xc
 6671 1549 300D0000 		.4byte	.LASF331
 6672 154d 0F       		.byte	0xf
 6673 154e 6E03     		.2byte	0x36e
 6674 1550 0D150000 		.4byte	0x150d
 6675 1554 19       		.uleb128 0x19
 6676 1555 62180000 		.4byte	.LASF332
 6677 1559 08       		.byte	0x8
 6678 155a 0F       		.byte	0xf
 6679 155b 7303     		.2byte	0x373
 6680 155d 80150000 		.4byte	0x1580
 6681 1561 18       		.uleb128 0x18
 6682 1562 431F0000 		.4byte	.LASF333
 6683 1566 0F       		.byte	0xf
 6684 1567 7803     		.2byte	0x378
 6685 1569 82010000 		.4byte	0x182
 6686 156d 02       		.byte	0x2
 6687 156e 23       		.byte	0x23
 6688 156f 00       		.uleb128 0
 6689 1570 18       		.uleb128 0x18
 6690 1571 810A0000 		.4byte	.LASF334
 6691 1575 0F       		.byte	0xf
 6692 1576 7C03     		.2byte	0x37c
 6693 1578 E3130000 		.4byte	0x13e3
 6694 157c 02       		.byte	0x2
 6695 157d 23       		.byte	0x23
 6696 157e 04       		.uleb128 0x4
 6697 157f 00       		.byte	0
 6698 1580 0C       		.uleb128 0xc
 6699 1581 EC0B0000 		.4byte	.LASF335
 6700 1585 0F       		.byte	0xf
 6701 1586 7D03     		.2byte	0x37d
 6702 1588 54150000 		.4byte	0x1554
 6703 158c 19       		.uleb128 0x19
 6704 158d 18070000 		.4byte	.LASF336
 6705 1591 04       		.byte	0x4
 6706 1592 0F       		.byte	0xf
 6707 1593 8203     		.2byte	0x382
 6708 1595 A9150000 		.4byte	0x15a9
 6709 1599 18       		.uleb128 0x18
 6710 159a 670A0000 		.4byte	.LASF337
 6711 159e 0F       		.byte	0xf
 6712 159f 8703     		.2byte	0x387
 6713 15a1 70010000 		.4byte	0x170
 6714 15a5 02       		.byte	0x2
 6715 15a6 23       		.byte	0x23
 6716 15a7 00       		.uleb128 0
 6717 15a8 00       		.byte	0
ARM GAS  C:\Users\EBANO_~1\AppData\Local\Temp\ccpYmjAB.s 			page 146


 6718 15a9 0C       		.uleb128 0xc
 6719 15aa 66120000 		.4byte	.LASF338
 6720 15ae 0F       		.byte	0xf
 6721 15af 8803     		.2byte	0x388
 6722 15b1 8C150000 		.4byte	0x158c
 6723 15b5 19       		.uleb128 0x19
 6724 15b6 D6050000 		.4byte	.LASF339
 6725 15ba 03       		.byte	0x3
 6726 15bb 0F       		.byte	0xf
 6727 15bc 9B03     		.2byte	0x39b
 6728 15be F0150000 		.4byte	0x15f0
 6729 15c2 18       		.uleb128 0x18
 6730 15c3 AC1D0000 		.4byte	.LASF324
 6731 15c7 0F       		.byte	0xf
 6732 15c8 A003     		.2byte	0x3a0
 6733 15ca B1000000 		.4byte	0xb1
 6734 15ce 02       		.byte	0x2
 6735 15cf 23       		.byte	0x23
 6736 15d0 00       		.uleb128 0
 6737 15d1 18       		.uleb128 0x18
 6738 15d2 ED120000 		.4byte	.LASF326
 6739 15d6 0F       		.byte	0xf
 6740 15d7 A403     		.2byte	0x3a4
 6741 15d9 BC000000 		.4byte	0xbc
 6742 15dd 02       		.byte	0x2
 6743 15de 23       		.byte	0x23
 6744 15df 01       		.uleb128 0x1
 6745 15e0 18       		.uleb128 0x18
 6746 15e1 1F1A0000 		.4byte	.LASF325
 6747 15e5 0F       		.byte	0xf
 6748 15e6 A803     		.2byte	0x3a8
 6749 15e8 BC000000 		.4byte	0xbc
 6750 15ec 02       		.byte	0x2
 6751 15ed 23       		.byte	0x23
 6752 15ee 02       		.uleb128 0x2
 6753 15ef 00       		.byte	0
 6754 15f0 28       		.uleb128 0x28
 6755 15f1 1C200000 		.4byte	.LASF340
 6756 15f5 03       		.byte	0x3
 6757 15f6 0F       		.byte	0xf
 6758 15f7 8E03     		.2byte	0x38e
 6759 15f9 22160000 		.4byte	0x1622
 6760 15fd 1C       		.uleb128 0x1c
 6761 15fe 8E1A0000 		.4byte	.LASF341
 6762 1602 0F       		.byte	0xf
 6763 1603 9303     		.2byte	0x393
 6764 1605 B1000000 		.4byte	0xb1
 6765 1609 1C       		.uleb128 0x1c
 6766 160a EA1A0000 		.4byte	.LASF342
 6767 160e 0F       		.byte	0xf
 6768 160f 9703     		.2byte	0x397
 6769 1611 150B0000 		.4byte	0xb15
 6770 1615 1C       		.uleb128 0x1c
 6771 1616 B4020000 		.4byte	.LASF343
 6772 161a 0F       		.byte	0xf
 6773 161b A903     		.2byte	0x3a9
 6774 161d B5150000 		.4byte	0x15b5
ARM GAS  C:\Users\EBANO_~1\AppData\Local\Temp\ccpYmjAB.s 			page 147


 6775 1621 00       		.byte	0
 6776 1622 0C       		.uleb128 0xc
 6777 1623 6C200000 		.4byte	.LASF344
 6778 1627 0F       		.byte	0xf
 6779 1628 AA03     		.2byte	0x3aa
 6780 162a F0150000 		.4byte	0x15f0
 6781 162e 19       		.uleb128 0x19
 6782 162f D10C0000 		.4byte	.LASF345
 6783 1633 08       		.byte	0x8
 6784 1634 0F       		.byte	0xf
 6785 1635 AF03     		.2byte	0x3af
 6786 1637 5A160000 		.4byte	0x165a
 6787 163b 18       		.uleb128 0x18
 6788 163c A50A0000 		.4byte	.LASF346
 6789 1640 0F       		.byte	0xf
 6790 1641 B403     		.2byte	0x3b4
 6791 1643 840A0000 		.4byte	0xa84
 6792 1647 02       		.byte	0x2
 6793 1648 23       		.byte	0x23
 6794 1649 00       		.uleb128 0
 6795 164a 18       		.uleb128 0x18
 6796 164b CE0F0000 		.4byte	.LASF347
 6797 164f 0F       		.byte	0xf
 6798 1650 B803     		.2byte	0x3b8
 6799 1652 BC000000 		.4byte	0xbc
 6800 1656 02       		.byte	0x2
 6801 1657 23       		.byte	0x23
 6802 1658 04       		.uleb128 0x4
 6803 1659 00       		.byte	0
 6804 165a 0C       		.uleb128 0xc
 6805 165b 9B0C0000 		.4byte	.LASF348
 6806 165f 0F       		.byte	0xf
 6807 1660 B903     		.2byte	0x3b9
 6808 1662 2E160000 		.4byte	0x162e
 6809 1666 19       		.uleb128 0x19
 6810 1667 031F0000 		.4byte	.LASF349
 6811 166b 08       		.byte	0x8
 6812 166c 0F       		.byte	0xf
 6813 166d BE03     		.2byte	0x3be
 6814 166f 92160000 		.4byte	0x1692
 6815 1673 18       		.uleb128 0x18
 6816 1674 84170000 		.4byte	.LASF350
 6817 1678 0F       		.byte	0xf
 6818 1679 C303     		.2byte	0x3c3
 6819 167b 95110000 		.4byte	0x1195
 6820 167f 02       		.byte	0x2
 6821 1680 23       		.byte	0x23
 6822 1681 00       		.uleb128 0
 6823 1682 18       		.uleb128 0x18
 6824 1683 BD190000 		.4byte	.LASF351
 6825 1687 0F       		.byte	0xf
 6826 1688 C703     		.2byte	0x3c7
 6827 168a 0E140000 		.4byte	0x140e
 6828 168e 02       		.byte	0x2
 6829 168f 23       		.byte	0x23
 6830 1690 04       		.uleb128 0x4
 6831 1691 00       		.byte	0
ARM GAS  C:\Users\EBANO_~1\AppData\Local\Temp\ccpYmjAB.s 			page 148


 6832 1692 0C       		.uleb128 0xc
 6833 1693 D60E0000 		.4byte	.LASF352
 6834 1697 0F       		.byte	0xf
 6835 1698 C803     		.2byte	0x3c8
 6836 169a 66160000 		.4byte	0x1666
 6837 169e 19       		.uleb128 0x19
 6838 169f 59110000 		.4byte	.LASF353
 6839 16a3 14       		.byte	0x14
 6840 16a4 0F       		.byte	0xf
 6841 16a5 CD03     		.2byte	0x3cd
 6842 16a7 51170000 		.4byte	0x1751
 6843 16ab 18       		.uleb128 0x18
 6844 16ac 82190000 		.4byte	.LASF329
 6845 16b0 0F       		.byte	0xf
 6846 16b1 D203     		.2byte	0x3d2
 6847 16b3 BC000000 		.4byte	0xbc
 6848 16b7 02       		.byte	0x2
 6849 16b8 23       		.byte	0x23
 6850 16b9 00       		.uleb128 0
 6851 16ba 18       		.uleb128 0x18
 6852 16bb AC1D0000 		.4byte	.LASF324
 6853 16bf 0F       		.byte	0xf
 6854 16c0 D603     		.2byte	0x3d6
 6855 16c2 B1000000 		.4byte	0xb1
 6856 16c6 02       		.byte	0x2
 6857 16c7 23       		.byte	0x23
 6858 16c8 01       		.uleb128 0x1
 6859 16c9 18       		.uleb128 0x18
 6860 16ca E01A0000 		.4byte	.LASF354
 6861 16ce 0F       		.byte	0xf
 6862 16cf DA03     		.2byte	0x3da
 6863 16d1 BC000000 		.4byte	0xbc
 6864 16d5 02       		.byte	0x2
 6865 16d6 23       		.byte	0x23
 6866 16d7 02       		.uleb128 0x2
 6867 16d8 18       		.uleb128 0x18
 6868 16d9 9A020000 		.4byte	.LASF355
 6869 16dd 0F       		.byte	0xf
 6870 16de DE03     		.2byte	0x3de
 6871 16e0 B1000000 		.4byte	0xb1
 6872 16e4 02       		.byte	0x2
 6873 16e5 23       		.byte	0x23
 6874 16e6 03       		.uleb128 0x3
 6875 16e7 18       		.uleb128 0x18
 6876 16e8 AB1C0000 		.4byte	.LASF209
 6877 16ec 0F       		.byte	0xf
 6878 16ed E203     		.2byte	0x3e2
 6879 16ef ED000000 		.4byte	0xed
 6880 16f3 02       		.byte	0x2
 6881 16f4 23       		.byte	0x23
 6882 16f5 04       		.uleb128 0x4
 6883 16f6 18       		.uleb128 0x18
 6884 16f7 DE080000 		.4byte	.LASF356
 6885 16fb 0F       		.byte	0xf
 6886 16fc E603     		.2byte	0x3e6
 6887 16fe ED000000 		.4byte	0xed
 6888 1702 02       		.byte	0x2
ARM GAS  C:\Users\EBANO_~1\AppData\Local\Temp\ccpYmjAB.s 			page 149


 6889 1703 23       		.byte	0x23
 6890 1704 08       		.uleb128 0x8
 6891 1705 18       		.uleb128 0x18
 6892 1706 41060000 		.4byte	.LASF357
 6893 170a 0F       		.byte	0xf
 6894 170b EA03     		.2byte	0x3ea
 6895 170d E2000000 		.4byte	0xe2
 6896 1711 02       		.byte	0x2
 6897 1712 23       		.byte	0x23
 6898 1713 0C       		.uleb128 0xc
 6899 1714 18       		.uleb128 0x18
 6900 1715 ED120000 		.4byte	.LASF326
 6901 1719 0F       		.byte	0xf
 6902 171a EE03     		.2byte	0x3ee
 6903 171c BC000000 		.4byte	0xbc
 6904 1720 02       		.byte	0x2
 6905 1721 23       		.byte	0x23
 6906 1722 10       		.uleb128 0x10
 6907 1723 18       		.uleb128 0x18
 6908 1724 0C0C0000 		.4byte	.LASF358
 6909 1728 0F       		.byte	0xf
 6910 1729 F203     		.2byte	0x3f2
 6911 172b 150B0000 		.4byte	0xb15
 6912 172f 02       		.byte	0x2
 6913 1730 23       		.byte	0x23
 6914 1731 11       		.uleb128 0x11
 6915 1732 18       		.uleb128 0x18
 6916 1733 221B0000 		.4byte	.LASF359
 6917 1737 0F       		.byte	0xf
 6918 1738 F603     		.2byte	0x3f6
 6919 173a 150B0000 		.4byte	0xb15
 6920 173e 02       		.byte	0x2
 6921 173f 23       		.byte	0x23
 6922 1740 12       		.uleb128 0x12
 6923 1741 18       		.uleb128 0x18
 6924 1742 4A080000 		.4byte	.LASF360
 6925 1746 0F       		.byte	0xf
 6926 1747 FA03     		.2byte	0x3fa
 6927 1749 7C110000 		.4byte	0x117c
 6928 174d 02       		.byte	0x2
 6929 174e 23       		.byte	0x23
 6930 174f 13       		.uleb128 0x13
 6931 1750 00       		.byte	0
 6932 1751 0C       		.uleb128 0xc
 6933 1752 B3000000 		.4byte	.LASF361
 6934 1756 0F       		.byte	0xf
 6935 1757 FB03     		.2byte	0x3fb
 6936 1759 9E160000 		.4byte	0x169e
 6937 175d 19       		.uleb128 0x19
 6938 175e 9A100000 		.4byte	.LASF362
 6939 1762 10       		.byte	0x10
 6940 1763 0F       		.byte	0xf
 6941 1764 0004     		.2byte	0x400
 6942 1766 C5170000 		.4byte	0x17c5
 6943 176a 18       		.uleb128 0x18
 6944 176b 82190000 		.4byte	.LASF329
 6945 176f 0F       		.byte	0xf
ARM GAS  C:\Users\EBANO_~1\AppData\Local\Temp\ccpYmjAB.s 			page 150


 6946 1770 0504     		.2byte	0x405
 6947 1772 BC000000 		.4byte	0xbc
 6948 1776 02       		.byte	0x2
 6949 1777 23       		.byte	0x23
 6950 1778 00       		.uleb128 0
 6951 1779 18       		.uleb128 0x18
 6952 177a AC1D0000 		.4byte	.LASF324
 6953 177e 0F       		.byte	0xf
 6954 177f 0904     		.2byte	0x409
 6955 1781 B1000000 		.4byte	0xb1
 6956 1785 02       		.byte	0x2
 6957 1786 23       		.byte	0x23
 6958 1787 01       		.uleb128 0x1
 6959 1788 18       		.uleb128 0x18
 6960 1789 8E1A0000 		.4byte	.LASF341
 6961 178d 0F       		.byte	0xf
 6962 178e 0D04     		.2byte	0x40d
 6963 1790 B1000000 		.4byte	0xb1
 6964 1794 02       		.byte	0x2
 6965 1795 23       		.byte	0x23
 6966 1796 02       		.uleb128 0x2
 6967 1797 18       		.uleb128 0x18
 6968 1798 1D040000 		.4byte	.LASF363
 6969 179c 0F       		.byte	0xf
 6970 179d 1104     		.2byte	0x411
 6971 179f 88110000 		.4byte	0x1188
 6972 17a3 02       		.byte	0x2
 6973 17a4 23       		.byte	0x23
 6974 17a5 04       		.uleb128 0x4
 6975 17a6 18       		.uleb128 0x18
 6976 17a7 3A130000 		.4byte	.LASF364
 6977 17ab 0F       		.byte	0xf
 6978 17ac 1504     		.2byte	0x415
 6979 17ae 88110000 		.4byte	0x1188
 6980 17b2 02       		.byte	0x2
 6981 17b3 23       		.byte	0x23
 6982 17b4 08       		.uleb128 0x8
 6983 17b5 18       		.uleb128 0x18
 6984 17b6 760F0000 		.4byte	.LASF365
 6985 17ba 0F       		.byte	0xf
 6986 17bb 1904     		.2byte	0x419
 6987 17bd D7000000 		.4byte	0xd7
 6988 17c1 02       		.byte	0x2
 6989 17c2 23       		.byte	0x23
 6990 17c3 0C       		.uleb128 0xc
 6991 17c4 00       		.byte	0
 6992 17c5 0C       		.uleb128 0xc
 6993 17c6 CD200000 		.4byte	.LASF366
 6994 17ca 0F       		.byte	0xf
 6995 17cb 1A04     		.2byte	0x41a
 6996 17cd 5D170000 		.4byte	0x175d
 6997 17d1 19       		.uleb128 0x19
 6998 17d2 CC080000 		.4byte	.LASF367
 6999 17d6 10       		.byte	0x10
 7000 17d7 0F       		.byte	0xf
 7001 17d8 1F04     		.2byte	0x41f
 7002 17da 57180000 		.4byte	0x1857
ARM GAS  C:\Users\EBANO_~1\AppData\Local\Temp\ccpYmjAB.s 			page 151


 7003 17de 18       		.uleb128 0x18
 7004 17df 0D080000 		.4byte	.LASF368
 7005 17e3 0F       		.byte	0xf
 7006 17e4 2404     		.2byte	0x424
 7007 17e6 0A0B0000 		.4byte	0xb0a
 7008 17ea 02       		.byte	0x2
 7009 17eb 23       		.byte	0x23
 7010 17ec 00       		.uleb128 0
 7011 17ed 18       		.uleb128 0x18
 7012 17ee A50A0000 		.4byte	.LASF346
 7013 17f2 0F       		.byte	0xf
 7014 17f3 2804     		.2byte	0x428
 7015 17f5 840A0000 		.4byte	0xa84
 7016 17f9 02       		.byte	0x2
 7017 17fa 23       		.byte	0x23
 7018 17fb 04       		.uleb128 0x4
 7019 17fc 18       		.uleb128 0x18
 7020 17fd B9110000 		.4byte	.LASF369
 7021 1801 0F       		.byte	0xf
 7022 1802 2C04     		.2byte	0x42c
 7023 1804 BC000000 		.4byte	0xbc
 7024 1808 02       		.byte	0x2
 7025 1809 23       		.byte	0x23
 7026 180a 08       		.uleb128 0x8
 7027 180b 18       		.uleb128 0x18
 7028 180c 1F1A0000 		.4byte	.LASF325
 7029 1810 0F       		.byte	0xf
 7030 1811 3004     		.2byte	0x430
 7031 1813 BC000000 		.4byte	0xbc
 7032 1817 02       		.byte	0x2
 7033 1818 23       		.byte	0x23
 7034 1819 09       		.uleb128 0x9
 7035 181a 18       		.uleb128 0x18
 7036 181b 0F020000 		.4byte	.LASF370
 7037 181f 0F       		.byte	0xf
 7038 1820 3404     		.2byte	0x434
 7039 1822 150B0000 		.4byte	0xb15
 7040 1826 02       		.byte	0x2
 7041 1827 23       		.byte	0x23
 7042 1828 0A       		.uleb128 0xa
 7043 1829 18       		.uleb128 0x18
 7044 182a 950A0000 		.4byte	.LASF371
 7045 182e 0F       		.byte	0xf
 7046 182f 3804     		.2byte	0x438
 7047 1831 B1000000 		.4byte	0xb1
 7048 1835 02       		.byte	0x2
 7049 1836 23       		.byte	0x23
 7050 1837 0B       		.uleb128 0xb
 7051 1838 18       		.uleb128 0x18
 7052 1839 83140000 		.4byte	.LASF372
 7053 183d 0F       		.byte	0xf
 7054 183e 3C04     		.2byte	0x43c
 7055 1840 B1000000 		.4byte	0xb1
 7056 1844 02       		.byte	0x2
 7057 1845 23       		.byte	0x23
 7058 1846 0C       		.uleb128 0xc
 7059 1847 18       		.uleb128 0x18
ARM GAS  C:\Users\EBANO_~1\AppData\Local\Temp\ccpYmjAB.s 			page 152


 7060 1848 3B1E0000 		.4byte	.LASF373
 7061 184c 0F       		.byte	0xf
 7062 184d 4004     		.2byte	0x440
 7063 184f BC000000 		.4byte	0xbc
 7064 1853 02       		.byte	0x2
 7065 1854 23       		.byte	0x23
 7066 1855 0D       		.uleb128 0xd
 7067 1856 00       		.byte	0
 7068 1857 0C       		.uleb128 0xc
 7069 1858 D41F0000 		.4byte	.LASF374
 7070 185c 0F       		.byte	0xf
 7071 185d 4104     		.2byte	0x441
 7072 185f D1170000 		.4byte	0x17d1
 7073 1863 19       		.uleb128 0x19
 7074 1864 4B030000 		.4byte	.LASF375
 7075 1868 08       		.byte	0x8
 7076 1869 0F       		.byte	0xf
 7077 186a 4604     		.2byte	0x446
 7078 186c 9E180000 		.4byte	0x189e
 7079 1870 18       		.uleb128 0x18
 7080 1871 AC1D0000 		.4byte	.LASF324
 7081 1875 0F       		.byte	0xf
 7082 1876 4B04     		.2byte	0x44b
 7083 1878 B1000000 		.4byte	0xb1
 7084 187c 02       		.byte	0x2
 7085 187d 23       		.byte	0x23
 7086 187e 00       		.uleb128 0
 7087 187f 18       		.uleb128 0x18
 7088 1880 9A020000 		.4byte	.LASF355
 7089 1884 0F       		.byte	0xf
 7090 1885 4F04     		.2byte	0x44f
 7091 1887 B1000000 		.4byte	0xb1
 7092 188b 02       		.byte	0x2
 7093 188c 23       		.byte	0x23
 7094 188d 01       		.uleb128 0x1
 7095 188e 18       		.uleb128 0x18
 7096 188f AB1C0000 		.4byte	.LASF209
 7097 1893 0F       		.byte	0xf
 7098 1894 5304     		.2byte	0x453
 7099 1896 ED000000 		.4byte	0xed
 7100 189a 02       		.byte	0x2
 7101 189b 23       		.byte	0x23
 7102 189c 04       		.uleb128 0x4
 7103 189d 00       		.byte	0
 7104 189e 0C       		.uleb128 0xc
 7105 189f A9030000 		.4byte	.LASF376
 7106 18a3 0F       		.byte	0xf
 7107 18a4 5404     		.2byte	0x454
 7108 18a6 63180000 		.4byte	0x1863
 7109 18aa 19       		.uleb128 0x19
 7110 18ab B2090000 		.4byte	.LASF377
 7111 18af 08       		.byte	0x8
 7112 18b0 0F       		.byte	0xf
 7113 18b1 5904     		.2byte	0x459
 7114 18b3 D6180000 		.4byte	0x18d6
 7115 18b7 18       		.uleb128 0x18
 7116 18b8 151D0000 		.4byte	.LASF378
ARM GAS  C:\Users\EBANO_~1\AppData\Local\Temp\ccpYmjAB.s 			page 153


 7117 18bc 0F       		.byte	0xf
 7118 18bd 5E04     		.2byte	0x45e
 7119 18bf 8F110000 		.4byte	0x118f
 7120 18c3 02       		.byte	0x2
 7121 18c4 23       		.byte	0x23
 7122 18c5 00       		.uleb128 0
 7123 18c6 18       		.uleb128 0x18
 7124 18c7 41030000 		.4byte	.LASF379
 7125 18cb 0F       		.byte	0xf
 7126 18cc 6204     		.2byte	0x462
 7127 18ce B1000000 		.4byte	0xb1
 7128 18d2 02       		.byte	0x2
 7129 18d3 23       		.byte	0x23
 7130 18d4 04       		.uleb128 0x4
 7131 18d5 00       		.byte	0
 7132 18d6 0C       		.uleb128 0xc
 7133 18d7 2C0A0000 		.4byte	.LASF380
 7134 18db 0F       		.byte	0xf
 7135 18dc 6304     		.2byte	0x463
 7136 18de AA180000 		.4byte	0x18aa
 7137 18e2 19       		.uleb128 0x19
 7138 18e3 3B120000 		.4byte	.LASF381
 7139 18e7 03       		.byte	0x3
 7140 18e8 0F       		.byte	0xf
 7141 18e9 6804     		.2byte	0x468
 7142 18eb 1D190000 		.4byte	0x191d
 7143 18ef 18       		.uleb128 0x18
 7144 18f0 1F1A0000 		.4byte	.LASF325
 7145 18f4 0F       		.byte	0xf
 7146 18f5 6D04     		.2byte	0x46d
 7147 18f7 BC000000 		.4byte	0xbc
 7148 18fb 02       		.byte	0x2
 7149 18fc 23       		.byte	0x23
 7150 18fd 00       		.uleb128 0
 7151 18fe 18       		.uleb128 0x18
 7152 18ff ED120000 		.4byte	.LASF326
 7153 1903 0F       		.byte	0xf
 7154 1904 7104     		.2byte	0x471
 7155 1906 BC000000 		.4byte	0xbc
 7156 190a 02       		.byte	0x2
 7157 190b 23       		.byte	0x23
 7158 190c 01       		.uleb128 0x1
 7159 190d 18       		.uleb128 0x18
 7160 190e 1D040000 		.4byte	.LASF363
 7161 1912 0F       		.byte	0xf
 7162 1913 7504     		.2byte	0x475
 7163 1915 BC000000 		.4byte	0xbc
 7164 1919 02       		.byte	0x2
 7165 191a 23       		.byte	0x23
 7166 191b 02       		.uleb128 0x2
 7167 191c 00       		.byte	0
 7168 191d 0C       		.uleb128 0xc
 7169 191e 84150000 		.4byte	.LASF382
 7170 1922 0F       		.byte	0xf
 7171 1923 7604     		.2byte	0x476
 7172 1925 E2180000 		.4byte	0x18e2
 7173 1929 19       		.uleb128 0x19
ARM GAS  C:\Users\EBANO_~1\AppData\Local\Temp\ccpYmjAB.s 			page 154


 7174 192a C01F0000 		.4byte	.LASF383
 7175 192e 08       		.byte	0x8
 7176 192f 0F       		.byte	0xf
 7177 1930 7B04     		.2byte	0x47b
 7178 1932 55190000 		.4byte	0x1955
 7179 1936 18       		.uleb128 0x18
 7180 1937 41030000 		.4byte	.LASF379
 7181 193b 0F       		.byte	0xf
 7182 193c 8004     		.2byte	0x480
 7183 193e BC000000 		.4byte	0xbc
 7184 1942 02       		.byte	0x2
 7185 1943 23       		.byte	0x23
 7186 1944 00       		.uleb128 0
 7187 1945 18       		.uleb128 0x18
 7188 1946 CB110000 		.4byte	.LASF210
 7189 194a 0F       		.byte	0xf
 7190 194b 8404     		.2byte	0x484
 7191 194d ED000000 		.4byte	0xed
 7192 1951 02       		.byte	0x2
 7193 1952 23       		.byte	0x23
 7194 1953 04       		.uleb128 0x4
 7195 1954 00       		.byte	0
 7196 1955 0C       		.uleb128 0xc
 7197 1956 7F120000 		.4byte	.LASF384
 7198 195a 0F       		.byte	0xf
 7199 195b 8504     		.2byte	0x485
 7200 195d 29190000 		.4byte	0x1929
 7201 1961 26       		.uleb128 0x26
 7202 1962 1C080000 		.4byte	.LASF385
 7203 1966 07       		.byte	0x7
 7204 1967 01       		.byte	0x1
 7205 1968 46000000 		.4byte	0x46
 7206 196c 0F       		.byte	0xf
 7207 196d 8A04     		.2byte	0x48a
 7208 196f 80190000 		.4byte	0x1980
 7209 1973 21       		.uleb128 0x21
 7210 1974 36170000 		.4byte	.LASF386
 7211 1978 00       		.byte	0
 7212 1979 21       		.uleb128 0x21
 7213 197a 410F0000 		.4byte	.LASF387
 7214 197e 01       		.byte	0x1
 7215 197f 00       		.byte	0
 7216 1980 0C       		.uleb128 0xc
 7217 1981 911B0000 		.4byte	.LASF388
 7218 1985 0F       		.byte	0xf
 7219 1986 9404     		.2byte	0x494
 7220 1988 61190000 		.4byte	0x1961
 7221 198c 19       		.uleb128 0x19
 7222 198d 95060000 		.4byte	.LASF389
 7223 1991 0C       		.byte	0xc
 7224 1992 0F       		.byte	0xf
 7225 1993 9904     		.2byte	0x499
 7226 1995 F4190000 		.4byte	0x19f4
 7227 1999 18       		.uleb128 0x18
 7228 199a 08110000 		.4byte	.LASF330
 7229 199e 0F       		.byte	0xf
 7230 199f 9E04     		.2byte	0x49e
ARM GAS  C:\Users\EBANO_~1\AppData\Local\Temp\ccpYmjAB.s 			page 155


 7231 19a1 150B0000 		.4byte	0xb15
 7232 19a5 02       		.byte	0x2
 7233 19a6 23       		.byte	0x23
 7234 19a7 00       		.uleb128 0
 7235 19a8 18       		.uleb128 0x18
 7236 19a9 7F210000 		.4byte	.LASF390
 7237 19ad 0F       		.byte	0xf
 7238 19ae A204     		.2byte	0x4a2
 7239 19b0 150B0000 		.4byte	0xb15
 7240 19b4 02       		.byte	0x2
 7241 19b5 23       		.byte	0x23
 7242 19b6 01       		.uleb128 0x1
 7243 19b7 18       		.uleb128 0x18
 7244 19b8 C0130000 		.4byte	.LASF391
 7245 19bc 0F       		.byte	0xf
 7246 19bd A604     		.2byte	0x4a6
 7247 19bf 150B0000 		.4byte	0xb15
 7248 19c3 02       		.byte	0x2
 7249 19c4 23       		.byte	0x23
 7250 19c5 02       		.uleb128 0x2
 7251 19c6 18       		.uleb128 0x18
 7252 19c7 82190000 		.4byte	.LASF329
 7253 19cb 0F       		.byte	0xf
 7254 19cc AA04     		.2byte	0x4aa
 7255 19ce BC000000 		.4byte	0xbc
 7256 19d2 02       		.byte	0x2
 7257 19d3 23       		.byte	0x23
 7258 19d4 03       		.uleb128 0x3
 7259 19d5 18       		.uleb128 0x18
 7260 19d6 FA0D0000 		.4byte	.LASF392
 7261 19da 0F       		.byte	0xf
 7262 19db AE04     		.2byte	0x4ae
 7263 19dd 970A0000 		.4byte	0xa97
 7264 19e1 02       		.byte	0x2
 7265 19e2 23       		.byte	0x23
 7266 19e3 04       		.uleb128 0x4
 7267 19e4 18       		.uleb128 0x18
 7268 19e5 2E020000 		.4byte	.LASF393
 7269 19e9 0F       		.byte	0xf
 7270 19ea B204     		.2byte	0x4b2
 7271 19ec 970A0000 		.4byte	0xa97
 7272 19f0 02       		.byte	0x2
 7273 19f1 23       		.byte	0x23
 7274 19f2 08       		.uleb128 0x8
 7275 19f3 00       		.byte	0
 7276 19f4 0C       		.uleb128 0xc
 7277 19f5 73160000 		.4byte	.LASF394
 7278 19f9 0F       		.byte	0xf
 7279 19fa B304     		.2byte	0x4b3
 7280 19fc 8C190000 		.4byte	0x198c
 7281 1a00 19       		.uleb128 0x19
 7282 1a01 9C1F0000 		.4byte	.LASF395
 7283 1a05 0C       		.byte	0xc
 7284 1a06 0F       		.byte	0xf
 7285 1a07 B804     		.2byte	0x4b8
 7286 1a09 591A0000 		.4byte	0x1a59
 7287 1a0d 18       		.uleb128 0x18
ARM GAS  C:\Users\EBANO_~1\AppData\Local\Temp\ccpYmjAB.s 			page 156


 7288 1a0e E9020000 		.4byte	.LASF396
 7289 1a12 0F       		.byte	0xf
 7290 1a13 BD04     		.2byte	0x4bd
 7291 1a15 970A0000 		.4byte	0xa97
 7292 1a19 02       		.byte	0x2
 7293 1a1a 23       		.byte	0x23
 7294 1a1b 00       		.uleb128 0
 7295 1a1c 18       		.uleb128 0x18
 7296 1a1d 54020000 		.4byte	.LASF397
 7297 1a21 0F       		.byte	0xf
 7298 1a22 C104     		.2byte	0x4c1
 7299 1a24 970A0000 		.4byte	0xa97
 7300 1a28 02       		.byte	0x2
 7301 1a29 23       		.byte	0x23
 7302 1a2a 04       		.uleb128 0x4
 7303 1a2b 18       		.uleb128 0x18
 7304 1a2c AC1D0000 		.4byte	.LASF324
 7305 1a30 0F       		.byte	0xf
 7306 1a31 C504     		.2byte	0x4c5
 7307 1a33 B1000000 		.4byte	0xb1
 7308 1a37 02       		.byte	0x2
 7309 1a38 23       		.byte	0x23
 7310 1a39 08       		.uleb128 0x8
 7311 1a3a 18       		.uleb128 0x18
 7312 1a3b 08110000 		.4byte	.LASF330
 7313 1a3f 0F       		.byte	0xf
 7314 1a40 C904     		.2byte	0x4c9
 7315 1a42 150B0000 		.4byte	0xb15
 7316 1a46 02       		.byte	0x2
 7317 1a47 23       		.byte	0x23
 7318 1a48 09       		.uleb128 0x9
 7319 1a49 18       		.uleb128 0x18
 7320 1a4a C0130000 		.4byte	.LASF391
 7321 1a4e 0F       		.byte	0xf
 7322 1a4f CD04     		.2byte	0x4cd
 7323 1a51 150B0000 		.4byte	0xb15
 7324 1a55 02       		.byte	0x2
 7325 1a56 23       		.byte	0x23
 7326 1a57 0A       		.uleb128 0xa
 7327 1a58 00       		.byte	0
 7328 1a59 0C       		.uleb128 0xc
 7329 1a5a 5F020000 		.4byte	.LASF398
 7330 1a5e 0F       		.byte	0xf
 7331 1a5f CE04     		.2byte	0x4ce
 7332 1a61 001A0000 		.4byte	0x1a00
 7333 1a65 19       		.uleb128 0x19
 7334 1a66 40050000 		.4byte	.LASF399
 7335 1a6a 08       		.byte	0x8
 7336 1a6b 0F       		.byte	0xf
 7337 1a6c D304     		.2byte	0x4d3
 7338 1a6e 911A0000 		.4byte	0x1a91
 7339 1a72 18       		.uleb128 0x18
 7340 1a73 151D0000 		.4byte	.LASF378
 7341 1a77 0F       		.byte	0xf
 7342 1a78 D804     		.2byte	0x4d8
 7343 1a7a 8F110000 		.4byte	0x118f
 7344 1a7e 02       		.byte	0x2
ARM GAS  C:\Users\EBANO_~1\AppData\Local\Temp\ccpYmjAB.s 			page 157


 7345 1a7f 23       		.byte	0x23
 7346 1a80 00       		.uleb128 0
 7347 1a81 18       		.uleb128 0x18
 7348 1a82 41030000 		.4byte	.LASF379
 7349 1a86 0F       		.byte	0xf
 7350 1a87 DC04     		.2byte	0x4dc
 7351 1a89 BC000000 		.4byte	0xbc
 7352 1a8d 02       		.byte	0x2
 7353 1a8e 23       		.byte	0x23
 7354 1a8f 04       		.uleb128 0x4
 7355 1a90 00       		.byte	0
 7356 1a91 0C       		.uleb128 0xc
 7357 1a92 A1120000 		.4byte	.LASF400
 7358 1a96 0F       		.byte	0xf
 7359 1a97 DD04     		.2byte	0x4dd
 7360 1a99 651A0000 		.4byte	0x1a65
 7361 1a9d 19       		.uleb128 0x19
 7362 1a9e 451C0000 		.4byte	.LASF401
 7363 1aa2 01       		.byte	0x1
 7364 1aa3 0F       		.byte	0xf
 7365 1aa4 E204     		.2byte	0x4e2
 7366 1aa6 BA1A0000 		.4byte	0x1aba
 7367 1aaa 18       		.uleb128 0x18
 7368 1aab 41030000 		.4byte	.LASF379
 7369 1aaf 0F       		.byte	0xf
 7370 1ab0 E704     		.2byte	0x4e7
 7371 1ab2 BC000000 		.4byte	0xbc
 7372 1ab6 02       		.byte	0x2
 7373 1ab7 23       		.byte	0x23
 7374 1ab8 00       		.uleb128 0
 7375 1ab9 00       		.byte	0
 7376 1aba 0C       		.uleb128 0xc
 7377 1abb 7E080000 		.4byte	.LASF402
 7378 1abf 0F       		.byte	0xf
 7379 1ac0 E804     		.2byte	0x4e8
 7380 1ac2 9D1A0000 		.4byte	0x1a9d
 7381 1ac6 19       		.uleb128 0x19
 7382 1ac7 5A1C0000 		.4byte	.LASF403
 7383 1acb 10       		.byte	0x10
 7384 1acc 0F       		.byte	0xf
 7385 1acd ED04     		.2byte	0x4ed
 7386 1acf 2E1B0000 		.4byte	0x1b2e
 7387 1ad3 18       		.uleb128 0x18
 7388 1ad4 82190000 		.4byte	.LASF329
 7389 1ad8 0F       		.byte	0xf
 7390 1ad9 F204     		.2byte	0x4f2
 7391 1adb BC000000 		.4byte	0xbc
 7392 1adf 02       		.byte	0x2
 7393 1ae0 23       		.byte	0x23
 7394 1ae1 00       		.uleb128 0
 7395 1ae2 18       		.uleb128 0x18
 7396 1ae3 AC1D0000 		.4byte	.LASF324
 7397 1ae7 0F       		.byte	0xf
 7398 1ae8 F604     		.2byte	0x4f6
 7399 1aea B1000000 		.4byte	0xb1
 7400 1aee 02       		.byte	0x2
 7401 1aef 23       		.byte	0x23
ARM GAS  C:\Users\EBANO_~1\AppData\Local\Temp\ccpYmjAB.s 			page 158


 7402 1af0 01       		.uleb128 0x1
 7403 1af1 18       		.uleb128 0x18
 7404 1af2 8E1A0000 		.4byte	.LASF341
 7405 1af6 0F       		.byte	0xf
 7406 1af7 FA04     		.2byte	0x4fa
 7407 1af9 B1000000 		.4byte	0xb1
 7408 1afd 02       		.byte	0x2
 7409 1afe 23       		.byte	0x23
 7410 1aff 02       		.uleb128 0x2
 7411 1b00 18       		.uleb128 0x18
 7412 1b01 1D040000 		.4byte	.LASF363
 7413 1b05 0F       		.byte	0xf
 7414 1b06 FE04     		.2byte	0x4fe
 7415 1b08 88110000 		.4byte	0x1188
 7416 1b0c 02       		.byte	0x2
 7417 1b0d 23       		.byte	0x23
 7418 1b0e 04       		.uleb128 0x4
 7419 1b0f 18       		.uleb128 0x18
 7420 1b10 3A130000 		.4byte	.LASF364
 7421 1b14 0F       		.byte	0xf
 7422 1b15 0205     		.2byte	0x502
 7423 1b17 88110000 		.4byte	0x1188
 7424 1b1b 02       		.byte	0x2
 7425 1b1c 23       		.byte	0x23
 7426 1b1d 08       		.uleb128 0x8
 7427 1b1e 18       		.uleb128 0x18
 7428 1b1f 790A0000 		.4byte	.LASF404
 7429 1b23 0F       		.byte	0xf
 7430 1b24 0605     		.2byte	0x506
 7431 1b26 D7000000 		.4byte	0xd7
 7432 1b2a 02       		.byte	0x2
 7433 1b2b 23       		.byte	0x23
 7434 1b2c 0C       		.uleb128 0xc
 7435 1b2d 00       		.byte	0
 7436 1b2e 0C       		.uleb128 0xc
 7437 1b2f 21150000 		.4byte	.LASF405
 7438 1b33 0F       		.byte	0xf
 7439 1b34 0705     		.2byte	0x507
 7440 1b36 C61A0000 		.4byte	0x1ac6
 7441 1b3a 19       		.uleb128 0x19
 7442 1b3b 2C060000 		.4byte	.LASF406
 7443 1b3f 0C       		.byte	0xc
 7444 1b40 0F       		.byte	0xf
 7445 1b41 0C05     		.2byte	0x50c
 7446 1b43 751B0000 		.4byte	0x1b75
 7447 1b47 18       		.uleb128 0x18
 7448 1b48 EE1C0000 		.4byte	.LASF407
 7449 1b4c 0F       		.byte	0xf
 7450 1b4d 1105     		.2byte	0x511
 7451 1b4f D7000000 		.4byte	0xd7
 7452 1b53 02       		.byte	0x2
 7453 1b54 23       		.byte	0x23
 7454 1b55 00       		.uleb128 0
 7455 1b56 18       		.uleb128 0x18
 7456 1b57 A10E0000 		.4byte	.LASF408
 7457 1b5b 0F       		.byte	0xf
 7458 1b5c 1505     		.2byte	0x515
ARM GAS  C:\Users\EBANO_~1\AppData\Local\Temp\ccpYmjAB.s 			page 159


 7459 1b5e ED000000 		.4byte	0xed
 7460 1b62 02       		.byte	0x2
 7461 1b63 23       		.byte	0x23
 7462 1b64 04       		.uleb128 0x4
 7463 1b65 18       		.uleb128 0x18
 7464 1b66 AB1C0000 		.4byte	.LASF209
 7465 1b6a 0F       		.byte	0xf
 7466 1b6b 1905     		.2byte	0x519
 7467 1b6d ED000000 		.4byte	0xed
 7468 1b71 02       		.byte	0x2
 7469 1b72 23       		.byte	0x23
 7470 1b73 08       		.uleb128 0x8
 7471 1b74 00       		.byte	0
 7472 1b75 0C       		.uleb128 0xc
 7473 1b76 501F0000 		.4byte	.LASF409
 7474 1b7a 0F       		.byte	0xf
 7475 1b7b 1A05     		.2byte	0x51a
 7476 1b7d 3A1B0000 		.4byte	0x1b3a
 7477 1b81 11       		.uleb128 0x11
 7478 1b82 071B0000 		.4byte	.LASF410
 7479 1b86 06       		.byte	0x6
 7480 1b87 10       		.byte	0x10
 7481 1b88 2B       		.byte	0x2b
 7482 1b89 D41B0000 		.4byte	0x1bd4
 7483 1b8d 10       		.uleb128 0x10
 7484 1b8e A7040000 		.4byte	.LASF411
 7485 1b92 10       		.byte	0x10
 7486 1b93 30       		.byte	0x30
 7487 1b94 BC000000 		.4byte	0xbc
 7488 1b98 02       		.byte	0x2
 7489 1b99 23       		.byte	0x23
 7490 1b9a 00       		.uleb128 0
 7491 1b9b 10       		.uleb128 0x10
 7492 1b9c AC1D0000 		.4byte	.LASF324
 7493 1ba0 10       		.byte	0x10
 7494 1ba1 34       		.byte	0x34
 7495 1ba2 B1000000 		.4byte	0xb1
 7496 1ba6 02       		.byte	0x2
 7497 1ba7 23       		.byte	0x23
 7498 1ba8 01       		.uleb128 0x1
 7499 1ba9 10       		.uleb128 0x10
 7500 1baa 8E1A0000 		.4byte	.LASF341
 7501 1bae 10       		.byte	0x10
 7502 1baf 38       		.byte	0x38
 7503 1bb0 B1000000 		.4byte	0xb1
 7504 1bb4 02       		.byte	0x2
 7505 1bb5 23       		.byte	0x23
 7506 1bb6 02       		.uleb128 0x2
 7507 1bb7 10       		.uleb128 0x10
 7508 1bb8 2D080000 		.4byte	.LASF412
 7509 1bbc 10       		.byte	0x10
 7510 1bbd 3C       		.byte	0x3c
 7511 1bbe BC000000 		.4byte	0xbc
 7512 1bc2 02       		.byte	0x2
 7513 1bc3 23       		.byte	0x23
 7514 1bc4 03       		.uleb128 0x3
 7515 1bc5 10       		.uleb128 0x10
ARM GAS  C:\Users\EBANO_~1\AppData\Local\Temp\ccpYmjAB.s 			page 160


 7516 1bc6 740D0000 		.4byte	.LASF413
 7517 1bca 10       		.byte	0x10
 7518 1bcb 40       		.byte	0x40
 7519 1bcc D7000000 		.4byte	0xd7
 7520 1bd0 02       		.byte	0x2
 7521 1bd1 23       		.byte	0x23
 7522 1bd2 04       		.uleb128 0x4
 7523 1bd3 00       		.byte	0
 7524 1bd4 03       		.uleb128 0x3
 7525 1bd5 D00B0000 		.4byte	.LASF414
 7526 1bd9 10       		.byte	0x10
 7527 1bda 41       		.byte	0x41
 7528 1bdb 811B0000 		.4byte	0x1b81
 7529 1bdf 11       		.uleb128 0x11
 7530 1be0 14000000 		.4byte	.LASF415
 7531 1be4 20       		.byte	0x20
 7532 1be5 10       		.byte	0x10
 7533 1be6 43       		.byte	0x43
 7534 1be7 CC1C0000 		.4byte	0x1ccc
 7535 1beb 10       		.uleb128 0x10
 7536 1bec 0D080000 		.4byte	.LASF368
 7537 1bf0 10       		.byte	0x10
 7538 1bf1 48       		.byte	0x48
 7539 1bf2 0A0B0000 		.4byte	0xb0a
 7540 1bf6 02       		.byte	0x2
 7541 1bf7 23       		.byte	0x23
 7542 1bf8 00       		.uleb128 0
 7543 1bf9 10       		.uleb128 0x10
 7544 1bfa F9140000 		.4byte	.LASF416
 7545 1bfe 10       		.byte	0x10
 7546 1bff 4C       		.byte	0x4c
 7547 1c00 BC000000 		.4byte	0xbc
 7548 1c04 02       		.byte	0x2
 7549 1c05 23       		.byte	0x23
 7550 1c06 04       		.uleb128 0x4
 7551 1c07 10       		.uleb128 0x10
 7552 1c08 0F020000 		.4byte	.LASF370
 7553 1c0c 10       		.byte	0x10
 7554 1c0d 50       		.byte	0x50
 7555 1c0e 150B0000 		.4byte	0xb15
 7556 1c12 02       		.byte	0x2
 7557 1c13 23       		.byte	0x23
 7558 1c14 05       		.uleb128 0x5
 7559 1c15 10       		.uleb128 0x10
 7560 1c16 AC1D0000 		.4byte	.LASF324
 7561 1c1a 10       		.byte	0x10
 7562 1c1b 54       		.byte	0x54
 7563 1c1c B1000000 		.4byte	0xb1
 7564 1c20 02       		.byte	0x2
 7565 1c21 23       		.byte	0x23
 7566 1c22 06       		.uleb128 0x6
 7567 1c23 10       		.uleb128 0x10
 7568 1c24 8E1A0000 		.4byte	.LASF341
 7569 1c28 10       		.byte	0x10
 7570 1c29 58       		.byte	0x58
 7571 1c2a B1000000 		.4byte	0xb1
 7572 1c2e 02       		.byte	0x2
ARM GAS  C:\Users\EBANO_~1\AppData\Local\Temp\ccpYmjAB.s 			page 161


 7573 1c2f 23       		.byte	0x23
 7574 1c30 07       		.uleb128 0x7
 7575 1c31 10       		.uleb128 0x10
 7576 1c32 A7040000 		.4byte	.LASF411
 7577 1c36 10       		.byte	0x10
 7578 1c37 5C       		.byte	0x5c
 7579 1c38 BC000000 		.4byte	0xbc
 7580 1c3c 02       		.byte	0x2
 7581 1c3d 23       		.byte	0x23
 7582 1c3e 08       		.uleb128 0x8
 7583 1c3f 10       		.uleb128 0x10
 7584 1c40 950A0000 		.4byte	.LASF371
 7585 1c44 10       		.byte	0x10
 7586 1c45 60       		.byte	0x60
 7587 1c46 B1000000 		.4byte	0xb1
 7588 1c4a 02       		.byte	0x2
 7589 1c4b 23       		.byte	0x23
 7590 1c4c 09       		.uleb128 0x9
 7591 1c4d 10       		.uleb128 0x10
 7592 1c4e 83140000 		.4byte	.LASF372
 7593 1c52 10       		.byte	0x10
 7594 1c53 64       		.byte	0x64
 7595 1c54 B1000000 		.4byte	0xb1
 7596 1c58 02       		.byte	0x2
 7597 1c59 23       		.byte	0x23
 7598 1c5a 0A       		.uleb128 0xa
 7599 1c5b 10       		.uleb128 0x10
 7600 1c5c 3B1E0000 		.4byte	.LASF373
 7601 1c60 10       		.byte	0x10
 7602 1c61 68       		.byte	0x68
 7603 1c62 B1000000 		.4byte	0xb1
 7604 1c66 02       		.byte	0x2
 7605 1c67 23       		.byte	0x23
 7606 1c68 0B       		.uleb128 0xb
 7607 1c69 10       		.uleb128 0x10
 7608 1c6a 010C0000 		.4byte	.LASF417
 7609 1c6e 10       		.byte	0x10
 7610 1c6f 6C       		.byte	0x6c
 7611 1c70 BC000000 		.4byte	0xbc
 7612 1c74 02       		.byte	0x2
 7613 1c75 23       		.byte	0x23
 7614 1c76 0C       		.uleb128 0xc
 7615 1c77 10       		.uleb128 0x10
 7616 1c78 811D0000 		.4byte	.LASF318
 7617 1c7c 10       		.byte	0x10
 7618 1c7d 70       		.byte	0x70
 7619 1c7e 95110000 		.4byte	0x1195
 7620 1c82 02       		.byte	0x2
 7621 1c83 23       		.byte	0x23
 7622 1c84 10       		.uleb128 0x10
 7623 1c85 10       		.uleb128 0x10
 7624 1c86 34040000 		.4byte	.LASF418
 7625 1c8a 10       		.byte	0x10
 7626 1c8b 74       		.byte	0x74
 7627 1c8c B1000000 		.4byte	0xb1
 7628 1c90 02       		.byte	0x2
 7629 1c91 23       		.byte	0x23
ARM GAS  C:\Users\EBANO_~1\AppData\Local\Temp\ccpYmjAB.s 			page 162


 7630 1c92 14       		.uleb128 0x14
 7631 1c93 10       		.uleb128 0x10
 7632 1c94 72080000 		.4byte	.LASF419
 7633 1c98 10       		.byte	0x10
 7634 1c99 78       		.byte	0x78
 7635 1c9a B1000000 		.4byte	0xb1
 7636 1c9e 02       		.byte	0x2
 7637 1c9f 23       		.byte	0x23
 7638 1ca0 15       		.uleb128 0x15
 7639 1ca1 10       		.uleb128 0x10
 7640 1ca2 270D0000 		.4byte	.LASF319
 7641 1ca6 10       		.byte	0x10
 7642 1ca7 7C       		.byte	0x7c
 7643 1ca8 8F110000 		.4byte	0x118f
 7644 1cac 02       		.byte	0x2
 7645 1cad 23       		.byte	0x23
 7646 1cae 18       		.uleb128 0x18
 7647 1caf 10       		.uleb128 0x10
 7648 1cb0 C9020000 		.4byte	.LASF420
 7649 1cb4 10       		.byte	0x10
 7650 1cb5 80       		.byte	0x80
 7651 1cb6 B1000000 		.4byte	0xb1
 7652 1cba 02       		.byte	0x2
 7653 1cbb 23       		.byte	0x23
 7654 1cbc 1C       		.uleb128 0x1c
 7655 1cbd 10       		.uleb128 0x10
 7656 1cbe E0040000 		.4byte	.LASF421
 7657 1cc2 10       		.byte	0x10
 7658 1cc3 84       		.byte	0x84
 7659 1cc4 B1000000 		.4byte	0xb1
 7660 1cc8 02       		.byte	0x2
 7661 1cc9 23       		.byte	0x23
 7662 1cca 1D       		.uleb128 0x1d
 7663 1ccb 00       		.byte	0
 7664 1ccc 03       		.uleb128 0x3
 7665 1ccd 5E140000 		.4byte	.LASF422
 7666 1cd1 10       		.byte	0x10
 7667 1cd2 85       		.byte	0x85
 7668 1cd3 DF1B0000 		.4byte	0x1bdf
 7669 1cd7 11       		.uleb128 0x11
 7670 1cd8 76180000 		.4byte	.LASF423
 7671 1cdc 14       		.byte	0x14
 7672 1cdd 10       		.byte	0x10
 7673 1cde 87       		.byte	0x87
 7674 1cdf 541D0000 		.4byte	0x1d54
 7675 1ce3 10       		.uleb128 0x10
 7676 1ce4 270D0000 		.4byte	.LASF319
 7677 1ce8 10       		.byte	0x10
 7678 1ce9 8C       		.byte	0x8c
 7679 1cea 8F110000 		.4byte	0x118f
 7680 1cee 02       		.byte	0x2
 7681 1cef 23       		.byte	0x23
 7682 1cf0 00       		.uleb128 0
 7683 1cf1 10       		.uleb128 0x10
 7684 1cf2 92140000 		.4byte	.LASF424
 7685 1cf6 10       		.byte	0x10
 7686 1cf7 90       		.byte	0x90
ARM GAS  C:\Users\EBANO_~1\AppData\Local\Temp\ccpYmjAB.s 			page 163


 7687 1cf8 541D0000 		.4byte	0x1d54
 7688 1cfc 02       		.byte	0x2
 7689 1cfd 23       		.byte	0x23
 7690 1cfe 04       		.uleb128 0x4
 7691 1cff 10       		.uleb128 0x10
 7692 1d00 7F210000 		.4byte	.LASF390
 7693 1d04 10       		.byte	0x10
 7694 1d05 94       		.byte	0x94
 7695 1d06 150B0000 		.4byte	0xb15
 7696 1d0a 02       		.byte	0x2
 7697 1d0b 23       		.byte	0x23
 7698 1d0c 08       		.uleb128 0x8
 7699 1d0d 10       		.uleb128 0x10
 7700 1d0e 08110000 		.4byte	.LASF330
 7701 1d12 10       		.byte	0x10
 7702 1d13 98       		.byte	0x98
 7703 1d14 150B0000 		.4byte	0xb15
 7704 1d18 02       		.byte	0x2
 7705 1d19 23       		.byte	0x23
 7706 1d1a 09       		.uleb128 0x9
 7707 1d1b 10       		.uleb128 0x10
 7708 1d1c C0130000 		.4byte	.LASF391
 7709 1d20 10       		.byte	0x10
 7710 1d21 9C       		.byte	0x9c
 7711 1d22 150B0000 		.4byte	0xb15
 7712 1d26 02       		.byte	0x2
 7713 1d27 23       		.byte	0x23
 7714 1d28 0A       		.uleb128 0xa
 7715 1d29 10       		.uleb128 0x10
 7716 1d2a 82190000 		.4byte	.LASF329
 7717 1d2e 10       		.byte	0x10
 7718 1d2f A0       		.byte	0xa0
 7719 1d30 BC000000 		.4byte	0xbc
 7720 1d34 02       		.byte	0x2
 7721 1d35 23       		.byte	0x23
 7722 1d36 0B       		.uleb128 0xb
 7723 1d37 10       		.uleb128 0x10
 7724 1d38 FA0D0000 		.4byte	.LASF392
 7725 1d3c 10       		.byte	0x10
 7726 1d3d A4       		.byte	0xa4
 7727 1d3e 970A0000 		.4byte	0xa97
 7728 1d42 02       		.byte	0x2
 7729 1d43 23       		.byte	0x23
 7730 1d44 0C       		.uleb128 0xc
 7731 1d45 10       		.uleb128 0x10
 7732 1d46 2E020000 		.4byte	.LASF393
 7733 1d4a 10       		.byte	0x10
 7734 1d4b A8       		.byte	0xa8
 7735 1d4c 970A0000 		.4byte	0xa97
 7736 1d50 02       		.byte	0x2
 7737 1d51 23       		.byte	0x23
 7738 1d52 10       		.uleb128 0x10
 7739 1d53 00       		.byte	0
 7740 1d54 0A       		.uleb128 0xa
 7741 1d55 04       		.byte	0x4
 7742 1d56 750B0000 		.4byte	0xb75
 7743 1d5a 03       		.uleb128 0x3
ARM GAS  C:\Users\EBANO_~1\AppData\Local\Temp\ccpYmjAB.s 			page 164


 7744 1d5b 451B0000 		.4byte	.LASF425
 7745 1d5f 10       		.byte	0x10
 7746 1d60 A9       		.byte	0xa9
 7747 1d61 D71C0000 		.4byte	0x1cd7
 7748 1d65 11       		.uleb128 0x11
 7749 1d66 DD030000 		.4byte	.LASF426
 7750 1d6a 14       		.byte	0x14
 7751 1d6b 10       		.byte	0x10
 7752 1d6c AB       		.byte	0xab
 7753 1d6d D41D0000 		.4byte	0x1dd4
 7754 1d71 10       		.uleb128 0x10
 7755 1d72 78000000 		.4byte	.LASF427
 7756 1d76 10       		.byte	0x10
 7757 1d77 B0       		.byte	0xb0
 7758 1d78 D41D0000 		.4byte	0x1dd4
 7759 1d7c 02       		.byte	0x2
 7760 1d7d 23       		.byte	0x23
 7761 1d7e 00       		.uleb128 0
 7762 1d7f 10       		.uleb128 0x10
 7763 1d80 AB1C0000 		.4byte	.LASF209
 7764 1d84 10       		.byte	0x10
 7765 1d85 B4       		.byte	0xb4
 7766 1d86 ED000000 		.4byte	0xed
 7767 1d8a 02       		.byte	0x2
 7768 1d8b 23       		.byte	0x23
 7769 1d8c 04       		.uleb128 0x4
 7770 1d8d 10       		.uleb128 0x10
 7771 1d8e FE030000 		.4byte	.LASF312
 7772 1d92 10       		.byte	0x10
 7773 1d93 B8       		.byte	0xb8
 7774 1d94 BC000000 		.4byte	0xbc
 7775 1d98 02       		.byte	0x2
 7776 1d99 23       		.byte	0x23
 7777 1d9a 08       		.uleb128 0x8
 7778 1d9b 10       		.uleb128 0x10
 7779 1d9c 7A060000 		.4byte	.LASF428
 7780 1da0 10       		.byte	0x10
 7781 1da1 BC       		.byte	0xbc
 7782 1da2 BC000000 		.4byte	0xbc
 7783 1da6 02       		.byte	0x2
 7784 1da7 23       		.byte	0x23
 7785 1da8 09       		.uleb128 0x9
 7786 1da9 10       		.uleb128 0x10
 7787 1daa C5120000 		.4byte	.LASF429
 7788 1dae 10       		.byte	0x10
 7789 1daf C0       		.byte	0xc0
 7790 1db0 BC000000 		.4byte	0xbc
 7791 1db4 02       		.byte	0x2
 7792 1db5 23       		.byte	0x23
 7793 1db6 0A       		.uleb128 0xa
 7794 1db7 10       		.uleb128 0x10
 7795 1db8 A10E0000 		.4byte	.LASF408
 7796 1dbc 10       		.byte	0x10
 7797 1dbd C4       		.byte	0xc4
 7798 1dbe ED000000 		.4byte	0xed
 7799 1dc2 02       		.byte	0x2
 7800 1dc3 23       		.byte	0x23
ARM GAS  C:\Users\EBANO_~1\AppData\Local\Temp\ccpYmjAB.s 			page 165


 7801 1dc4 0C       		.uleb128 0xc
 7802 1dc5 10       		.uleb128 0x10
 7803 1dc6 EE1C0000 		.4byte	.LASF407
 7804 1dca 10       		.byte	0x10
 7805 1dcb C8       		.byte	0xc8
 7806 1dcc D7000000 		.4byte	0xd7
 7807 1dd0 02       		.byte	0x2
 7808 1dd1 23       		.byte	0x23
 7809 1dd2 10       		.uleb128 0x10
 7810 1dd3 00       		.byte	0
 7811 1dd4 0A       		.uleb128 0xa
 7812 1dd5 04       		.byte	0x4
 7813 1dd6 C7000000 		.4byte	0xc7
 7814 1dda 03       		.uleb128 0x3
 7815 1ddb 8B010000 		.4byte	.LASF430
 7816 1ddf 10       		.byte	0x10
 7817 1de0 C9       		.byte	0xc9
 7818 1de1 651D0000 		.4byte	0x1d65
 7819 1de5 29       		.uleb128 0x29
 7820 1de6 860A0000 		.4byte	.LASF432
 7821 1dea 11       		.byte	0x11
 7822 1deb 0D01     		.2byte	0x10d
 7823 1ded 3C010000 		.4byte	0x13c
 7824 1df1 05       		.byte	0x5
 7825 1df2 03       		.byte	0x3
 7826 1df3 F8000000 		.4byte	DataratesEU433
 7827 1df7 07       		.uleb128 0x7
 7828 1df8 F8000000 		.4byte	0xf8
 7829 1dfc 071E0000 		.4byte	0x1e07
 7830 1e00 08       		.uleb128 0x8
 7831 1e01 AA000000 		.4byte	0xaa
 7832 1e05 07       		.byte	0x7
 7833 1e06 00       		.byte	0
 7834 1e07 05       		.uleb128 0x5
 7835 1e08 F71D0000 		.4byte	0x1df7
 7836 1e0c 29       		.uleb128 0x29
 7837 1e0d 550C0000 		.4byte	.LASF433
 7838 1e11 11       		.byte	0x11
 7839 1e12 1201     		.2byte	0x112
 7840 1e14 071E0000 		.4byte	0x1e07
 7841 1e18 05       		.byte	0x5
 7842 1e19 03       		.byte	0x3
 7843 1e1a D8000000 		.4byte	BandwidthsEU433
 7844 1e1e 29       		.uleb128 0x29
 7845 1e1f 4C1D0000 		.4byte	.LASF434
 7846 1e23 11       		.byte	0x11
 7847 1e24 1701     		.2byte	0x117
 7848 1e26 3C010000 		.4byte	0x13c
 7849 1e2a 05       		.byte	0x5
 7850 1e2b 03       		.byte	0x3
 7851 1e2c 00010000 		.4byte	MaxPayloadOfDatarateEU433
 7852 1e30 29       		.uleb128 0x29
 7853 1e31 E4150000 		.4byte	.LASF435
 7854 1e35 11       		.byte	0x11
 7855 1e36 1C01     		.2byte	0x11c
 7856 1e38 3C010000 		.4byte	0x13c
 7857 1e3c 05       		.byte	0x5
ARM GAS  C:\Users\EBANO_~1\AppData\Local\Temp\ccpYmjAB.s 			page 166


 7858 1e3d 03       		.byte	0x3
 7859 1e3e 08010000 		.4byte	MaxPayloadOfDatarateRepeaterEU433
 7860 1e42 11       		.uleb128 0x11
 7861 1e43 93170000 		.4byte	.LASF436
 7862 1e47 D4       		.byte	0xd4
 7863 1e48 01       		.byte	0x1
 7864 1e49 2B       		.byte	0x2b
 7865 1e4a 8A1E0000 		.4byte	0x1e8a
 7866 1e4e 10       		.uleb128 0x10
 7867 1e4f 270D0000 		.4byte	.LASF319
 7868 1e53 01       		.byte	0x1
 7869 1e54 30       		.byte	0x30
 7870 1e55 8A1E0000 		.4byte	0x1e8a
 7871 1e59 02       		.byte	0x2
 7872 1e5a 23       		.byte	0x23
 7873 1e5b 00       		.uleb128 0
 7874 1e5c 10       		.uleb128 0x10
 7875 1e5d 92140000 		.4byte	.LASF424
 7876 1e61 01       		.byte	0x1
 7877 1e62 34       		.byte	0x34
 7878 1e63 9A1E0000 		.4byte	0x1e9a
 7879 1e67 03       		.byte	0x3
 7880 1e68 23       		.byte	0x23
 7881 1e69 C001     		.uleb128 0xc0
 7882 1e6b 10       		.uleb128 0x10
 7883 1e6c 811D0000 		.4byte	.LASF318
 7884 1e70 01       		.byte	0x1
 7885 1e71 38       		.byte	0x38
 7886 1e72 AA1E0000 		.4byte	0x1eaa
 7887 1e76 03       		.byte	0x3
 7888 1e77 23       		.byte	0x23
 7889 1e78 D001     		.uleb128 0xd0
 7890 1e7a 10       		.uleb128 0x10
 7891 1e7b AE150000 		.4byte	.LASF437
 7892 1e7f 01       		.byte	0x1
 7893 1e80 3C       		.byte	0x3c
 7894 1e81 AA1E0000 		.4byte	0x1eaa
 7895 1e85 03       		.byte	0x3
 7896 1e86 23       		.byte	0x23
 7897 1e87 D201     		.uleb128 0xd2
 7898 1e89 00       		.byte	0
 7899 1e8a 07       		.uleb128 0x7
 7900 1e8b 41110000 		.4byte	0x1141
 7901 1e8f 9A1E0000 		.4byte	0x1e9a
 7902 1e93 08       		.uleb128 0x8
 7903 1e94 AA000000 		.4byte	0xaa
 7904 1e98 0F       		.byte	0xf
 7905 1e99 00       		.byte	0
 7906 1e9a 07       		.uleb128 0x7
 7907 1e9b 750B0000 		.4byte	0xb75
 7908 1e9f AA1E0000 		.4byte	0x1eaa
 7909 1ea3 08       		.uleb128 0x8
 7910 1ea4 AA000000 		.4byte	0xaa
 7911 1ea8 00       		.byte	0
 7912 1ea9 00       		.byte	0
 7913 1eaa 07       		.uleb128 0x7
 7914 1eab D7000000 		.4byte	0xd7
ARM GAS  C:\Users\EBANO_~1\AppData\Local\Temp\ccpYmjAB.s 			page 167


 7915 1eaf BA1E0000 		.4byte	0x1eba
 7916 1eb3 08       		.uleb128 0x8
 7917 1eb4 AA000000 		.4byte	0xaa
 7918 1eb8 00       		.byte	0
 7919 1eb9 00       		.byte	0
 7920 1eba 03       		.uleb128 0x3
 7921 1ebb C71C0000 		.4byte	.LASF438
 7922 1ebf 01       		.byte	0x1
 7923 1ec0 3D       		.byte	0x3d
 7924 1ec1 421E0000 		.4byte	0x1e42
 7925 1ec5 2A       		.uleb128 0x2a
 7926 1ec6 431F0000 		.4byte	.LASF333
 7927 1eca 01       		.byte	0x1
 7928 1ecb 42       		.byte	0x42
 7929 1ecc BA1E0000 		.4byte	0x1eba
 7930 1ed0 05       		.byte	0x5
 7931 1ed1 03       		.byte	0x3
 7932 1ed2 00000000 		.4byte	NvmCtx
 7933 1ed6 2B       		.uleb128 0x2b
 7934 1ed7 01       		.byte	0x1
 7935 1ed8 651B0000 		.4byte	.LASF445
 7936 1edc 01       		.byte	0x1
 7937 1edd ED03     		.2byte	0x3ed
 7938 1edf 01       		.byte	0x1
 7939 1ee0 00000000 		.4byte	.LFB66
 7940 1ee4 38000000 		.4byte	.LFE66
 7941 1ee8 00000000 		.4byte	.LLST113
 7942 1eec 01       		.byte	0x1
 7943 1eed 311F0000 		.4byte	0x1f31
 7944 1ef1 2C       		.uleb128 0x2c
 7945 1ef2 371C0000 		.4byte	.LASF439
 7946 1ef6 01       		.byte	0x1
 7947 1ef7 ED03     		.2byte	0x3ed
 7948 1ef9 311F0000 		.4byte	0x1f31
 7949 1efd 2C000000 		.4byte	.LLST114
 7950 1f01 2C       		.uleb128 0x2c
 7951 1f02 AD0D0000 		.4byte	.LASF440
 7952 1f06 01       		.byte	0x1
 7953 1f07 ED03     		.2byte	0x3ed
 7954 1f09 840A0000 		.4byte	0xa84
 7955 1f0d 4D000000 		.4byte	.LLST115
 7956 1f11 29       		.uleb128 0x29
 7957 1f12 111E0000 		.4byte	.LASF441
 7958 1f16 01       		.byte	0x1
 7959 1f17 EF03     		.2byte	0x3ef
 7960 1f19 DA1D0000 		.4byte	0x1dda
 7961 1f1d 02       		.byte	0x2
 7962 1f1e 91       		.byte	0x91
 7963 1f1f 64       		.sleb128 -28
 7964 1f20 2D       		.uleb128 0x2d
 7965 1f21 28000000 		.4byte	.LVL334
 7966 1f25 78320000 		.4byte	0x3278
 7967 1f29 2E       		.uleb128 0x2e
 7968 1f2a 01       		.byte	0x1
 7969 1f2b 50       		.byte	0x50
 7970 1f2c 02       		.byte	0x2
 7971 1f2d 91       		.byte	0x91
ARM GAS  C:\Users\EBANO_~1\AppData\Local\Temp\ccpYmjAB.s 			page 168


 7972 1f2e 64       		.sleb128 -28
 7973 1f2f 00       		.byte	0
 7974 1f30 00       		.byte	0
 7975 1f31 0A       		.uleb128 0xa
 7976 1f32 04       		.byte	0x4
 7977 1f33 751B0000 		.4byte	0x1b75
 7978 1f37 2F       		.uleb128 0x2f
 7979 1f38 01       		.byte	0x1
 7980 1f39 79130000 		.4byte	.LASF457
 7981 1f3d 01       		.byte	0x1
 7982 1f3e E203     		.2byte	0x3e2
 7983 1f40 01       		.byte	0x1
 7984 1f41 BC000000 		.4byte	0xbc
 7985 1f45 00000000 		.4byte	.LFB65
 7986 1f49 0E000000 		.4byte	.LFE65
 7987 1f4d 02       		.byte	0x2
 7988 1f4e 7D       		.byte	0x7d
 7989 1f4f 00       		.sleb128 0
 7990 1f50 01       		.byte	0x1
 7991 1f51 9D1F0000 		.4byte	0x1f9d
 7992 1f55 2C       		.uleb128 0x2c
 7993 1f56 771A0000 		.4byte	.LASF442
 7994 1f5a 01       		.byte	0x1
 7995 1f5b E203     		.2byte	0x3e2
 7996 1f5d BC000000 		.4byte	0xbc
 7997 1f61 79000000 		.4byte	.LLST111
 7998 1f65 30       		.uleb128 0x30
 7999 1f66 647200   		.ascii	"dr\000"
 8000 1f69 01       		.byte	0x1
 8001 1f6a E203     		.2byte	0x3e2
 8002 1f6c B1000000 		.4byte	0xb1
 8003 1f70 9A000000 		.4byte	.LLST112
 8004 1f74 31       		.uleb128 0x31
 8005 1f75 FE200000 		.4byte	.LASF443
 8006 1f79 01       		.byte	0x1
 8007 1f7a E203     		.2byte	0x3e2
 8008 1f7c B1000000 		.4byte	0xb1
 8009 1f80 01       		.byte	0x1
 8010 1f81 52       		.byte	0x52
 8011 1f82 29       		.uleb128 0x29
 8012 1f83 D7040000 		.4byte	.LASF444
 8013 1f87 01       		.byte	0x1
 8014 1f88 E403     		.2byte	0x3e4
 8015 1f8a B1000000 		.4byte	0xb1
 8016 1f8e 0D       		.byte	0xd
 8017 1f8f 71       		.byte	0x71
 8018 1f90 00       		.sleb128 0
 8019 1f91 12       		.byte	0x12
 8020 1f92 30       		.byte	0x30
 8021 1f93 16       		.byte	0x16
 8022 1f94 14       		.byte	0x14
 8023 1f95 2B       		.byte	0x2b
 8024 1f96 28       		.byte	0x28
 8025 1f97 0100     		.2byte	0x1
 8026 1f99 16       		.byte	0x16
 8027 1f9a 13       		.byte	0x13
 8028 1f9b 9F       		.byte	0x9f
ARM GAS  C:\Users\EBANO_~1\AppData\Local\Temp\ccpYmjAB.s 			page 169


 8029 1f9c 00       		.byte	0
 8030 1f9d 2B       		.uleb128 0x2b
 8031 1f9e 01       		.byte	0x1
 8032 1f9f 0F060000 		.4byte	.LASF446
 8033 1fa3 01       		.byte	0x1
 8034 1fa4 D603     		.2byte	0x3d6
 8035 1fa6 01       		.byte	0x1
 8036 1fa7 00000000 		.4byte	.LFB64
 8037 1fab 50000000 		.4byte	.LFE64
 8038 1faf BB000000 		.4byte	.LLST106
 8039 1fb3 01       		.byte	0x1
 8040 1fb4 49200000 		.4byte	0x2049
 8041 1fb8 2C       		.uleb128 0x2c
 8042 1fb9 00060000 		.4byte	.LASF447
 8043 1fbd 01       		.byte	0x1
 8044 1fbe D603     		.2byte	0x3d6
 8045 1fc0 49200000 		.4byte	0x2049
 8046 1fc4 E7000000 		.4byte	.LLST107
 8047 1fc8 32       		.uleb128 0x32
 8048 1fc9 F5130000 		.4byte	.LASF450
 8049 1fcd 01       		.byte	0x1
 8050 1fce D803     		.2byte	0x3d8
 8051 1fd0 B1000000 		.4byte	0xb1
 8052 1fd4 33       		.uleb128 0x33
 8053 1fd5 560F0000 		.4byte	.LASF448
 8054 1fd9 01       		.byte	0x1
 8055 1fda D903     		.2byte	0x3d9
 8056 1fdc B1000000 		.4byte	0xb1
 8057 1fe0 13010000 		.4byte	.LLST108
 8058 1fe4 33       		.uleb128 0x33
 8059 1fe5 12200000 		.4byte	.LASF449
 8060 1fe9 01       		.byte	0x1
 8061 1fea DA03     		.2byte	0x3da
 8062 1fec ED000000 		.4byte	0xed
 8063 1ff0 32010000 		.4byte	.LLST109
 8064 1ff4 34       		.uleb128 0x34
 8065 1ff5 43300000 		.4byte	0x3043
 8066 1ff9 14000000 		.4byte	.LBB145
 8067 1ffd 18020000 		.4byte	.Ldebug_ranges0+0x218
 8068 2001 01       		.byte	0x1
 8069 2002 D803     		.2byte	0x3d8
 8070 2004 33200000 		.4byte	0x2033
 8071 2008 35       		.uleb128 0x35
 8072 2009 6A300000 		.4byte	0x306a
 8073 200d 45010000 		.4byte	.LLST110
 8074 2011 36       		.uleb128 0x36
 8075 2012 75300000 		.4byte	0x3075
 8076 2016 06       		.byte	0x6
 8077 2017 03       		.byte	0x3
 8078 2018 D0000000 		.4byte	NvmCtx+208
 8079 201c 9F       		.byte	0x9f
 8080 201d 37       		.uleb128 0x37
 8081 201e 5F300000 		.4byte	0x305f
 8082 2022 37       		.uleb128 0x37
 8083 2023 54300000 		.4byte	0x3054
 8084 2027 38       		.uleb128 0x38
 8085 2028 18020000 		.4byte	.Ldebug_ranges0+0x218
ARM GAS  C:\Users\EBANO_~1\AppData\Local\Temp\ccpYmjAB.s 			page 170


 8086 202c 39       		.uleb128 0x39
 8087 202d 80300000 		.4byte	0x3080
 8088 2031 00       		.byte	0
 8089 2032 00       		.byte	0
 8090 2033 3A       		.uleb128 0x3a
 8091 2034 36000000 		.4byte	.LVL323
 8092 2038 86320000 		.4byte	0x3286
 8093 203c 3B       		.uleb128 0x3b
 8094 203d 44000000 		.4byte	.LVL325
 8095 2041 2E       		.uleb128 0x2e
 8096 2042 01       		.byte	0x1
 8097 2043 50       		.byte	0x50
 8098 2044 02       		.byte	0x2
 8099 2045 75       		.byte	0x75
 8100 2046 00       		.sleb128 0
 8101 2047 00       		.byte	0
 8102 2048 00       		.byte	0
 8103 2049 0A       		.uleb128 0xa
 8104 204a 04       		.byte	0x4
 8105 204b 2E1B0000 		.4byte	0x1b2e
 8106 204f 3C       		.uleb128 0x3c
 8107 2050 01       		.byte	0x1
 8108 2051 481E0000 		.4byte	.LASF451
 8109 2055 01       		.byte	0x1
 8110 2056 C703     		.2byte	0x3c7
 8111 2058 01       		.byte	0x1
 8112 2059 150B0000 		.4byte	0xb15
 8113 205d 01       		.byte	0x1
 8114 205e 7A200000 		.4byte	0x207a
 8115 2062 3D       		.uleb128 0x3d
 8116 2063 E71F0000 		.4byte	.LASF453
 8117 2067 01       		.byte	0x1
 8118 2068 C703     		.2byte	0x3c7
 8119 206a 7A200000 		.4byte	0x207a
 8120 206e 3E       		.uleb128 0x3e
 8121 206f 696400   		.ascii	"id\000"
 8122 2072 01       		.byte	0x1
 8123 2073 C903     		.2byte	0x3c9
 8124 2075 BC000000 		.4byte	0xbc
 8125 2079 00       		.byte	0
 8126 207a 0A       		.uleb128 0xa
 8127 207b 04       		.byte	0x4
 8128 207c BA1A0000 		.4byte	0x1aba
 8129 2080 3C       		.uleb128 0x3c
 8130 2081 01       		.byte	0x1
 8131 2082 B9180000 		.4byte	.LASF452
 8132 2086 01       		.byte	0x1
 8133 2087 8C03     		.2byte	0x38c
 8134 2089 01       		.byte	0x1
 8135 208a 38120000 		.4byte	0x1238
 8136 208e 01       		.byte	0x1
 8137 208f C3200000 		.4byte	0x20c3
 8138 2093 3D       		.uleb128 0x3d
 8139 2094 A4130000 		.4byte	.LASF454
 8140 2098 01       		.byte	0x1
 8141 2099 8C03     		.2byte	0x38c
 8142 209b C3200000 		.4byte	0x20c3
ARM GAS  C:\Users\EBANO_~1\AppData\Local\Temp\ccpYmjAB.s 			page 171


 8143 209f 32       		.uleb128 0x32
 8144 20a0 75210000 		.4byte	.LASF455
 8145 20a4 01       		.byte	0x1
 8146 20a5 8E03     		.2byte	0x38e
 8147 20a7 150B0000 		.4byte	0xb15
 8148 20ab 32       		.uleb128 0x32
 8149 20ac 49210000 		.4byte	.LASF456
 8150 20b0 01       		.byte	0x1
 8151 20b1 8F03     		.2byte	0x38f
 8152 20b3 150B0000 		.4byte	0xb15
 8153 20b7 3E       		.uleb128 0x3e
 8154 20b8 696400   		.ascii	"id\000"
 8155 20bb 01       		.byte	0x1
 8156 20bc 9003     		.2byte	0x390
 8157 20be BC000000 		.4byte	0xbc
 8158 20c2 00       		.byte	0
 8159 20c3 0A       		.uleb128 0xa
 8160 20c4 04       		.byte	0x4
 8161 20c5 911A0000 		.4byte	0x1a91
 8162 20c9 3F       		.uleb128 0x3f
 8163 20ca 01       		.byte	0x1
 8164 20cb 55130000 		.4byte	.LASF458
 8165 20cf 01       		.byte	0x1
 8166 20d0 5603     		.2byte	0x356
 8167 20d2 01       		.byte	0x1
 8168 20d3 38120000 		.4byte	0x1238
 8169 20d7 00000000 		.4byte	.LFB61
 8170 20db BC010000 		.4byte	.LFE61
 8171 20df 65010000 		.4byte	.LLST77
 8172 20e3 01       		.byte	0x1
 8173 20e4 A9220000 		.4byte	0x22a9
 8174 20e8 2C       		.uleb128 0x2c
 8175 20e9 AA180000 		.4byte	.LASF459
 8176 20ed 01       		.byte	0x1
 8177 20ee 5603     		.2byte	0x356
 8178 20f0 A9220000 		.4byte	0x22a9
 8179 20f4 9E010000 		.4byte	.LLST78
 8180 20f8 2C       		.uleb128 0x2c
 8181 20f9 6E0F0000 		.4byte	.LASF460
 8182 20fd 01       		.byte	0x1
 8183 20fe 5603     		.2byte	0x356
 8184 2100 840A0000 		.4byte	0xa84
 8185 2104 FC010000 		.4byte	.LLST79
 8186 2108 2C       		.uleb128 0x2c
 8187 2109 E4090000 		.4byte	.LASF461
 8188 210d 01       		.byte	0x1
 8189 210e 5603     		.2byte	0x356
 8190 2110 AF220000 		.4byte	0x22af
 8191 2114 1B020000 		.4byte	.LLST80
 8192 2118 2C       		.uleb128 0x2c
 8193 2119 460D0000 		.4byte	.LASF462
 8194 211d 01       		.byte	0x1
 8195 211e 5603     		.2byte	0x356
 8196 2120 AF220000 		.4byte	0x22af
 8197 2124 52020000 		.4byte	.LLST81
 8198 2128 33       		.uleb128 0x33
 8199 2129 61160000 		.4byte	.LASF463
ARM GAS  C:\Users\EBANO_~1\AppData\Local\Temp\ccpYmjAB.s 			page 172


 8200 212d 01       		.byte	0x1
 8201 212e 5803     		.2byte	0x358
 8202 2130 BC000000 		.4byte	0xbc
 8203 2134 B0020000 		.4byte	.LLST82
 8204 2138 33       		.uleb128 0x33
 8205 2139 BD060000 		.4byte	.LASF464
 8206 213d 01       		.byte	0x1
 8207 213e 5903     		.2byte	0x359
 8208 2140 BC000000 		.4byte	0xbc
 8209 2144 DC020000 		.4byte	.LLST83
 8210 2148 29       		.uleb128 0x29
 8211 2149 3F1A0000 		.4byte	.LASF465
 8212 214d 01       		.byte	0x1
 8213 214e 5A03     		.2byte	0x35a
 8214 2150 B5220000 		.4byte	0x22b5
 8215 2154 02       		.byte	0x2
 8216 2155 91       		.byte	0x91
 8217 2156 48       		.sleb128 -56
 8218 2157 33       		.uleb128 0x33
 8219 2158 03170000 		.4byte	.LASF466
 8220 215c 01       		.byte	0x1
 8221 215d 5B03     		.2byte	0x35b
 8222 215f 970A0000 		.4byte	0xa97
 8223 2163 22030000 		.4byte	.LLST84
 8224 2167 34       		.uleb128 0x34
 8225 2168 922F0000 		.4byte	0x2f92
 8226 216c 6A000000 		.4byte	.LBB121
 8227 2170 A0010000 		.4byte	.Ldebug_ranges0+0x1a0
 8228 2174 01       		.byte	0x1
 8229 2175 6B03     		.2byte	0x36b
 8230 2177 2C220000 		.4byte	0x222c
 8231 217b 35       		.uleb128 0x35
 8232 217c B92F0000 		.4byte	0x2fb9
 8233 2180 7F030000 		.4byte	.LLST85
 8234 2184 35       		.uleb128 0x35
 8235 2185 C42F0000 		.4byte	0x2fc4
 8236 2189 A7030000 		.4byte	.LLST86
 8237 218d 35       		.uleb128 0x35
 8238 218e CF2F0000 		.4byte	0x2fcf
 8239 2192 CF030000 		.4byte	.LLST87
 8240 2196 35       		.uleb128 0x35
 8241 2197 E52F0000 		.4byte	0x2fe5
 8242 219b 09040000 		.4byte	.LLST88
 8243 219f 35       		.uleb128 0x35
 8244 21a0 DA2F0000 		.4byte	0x2fda
 8245 21a4 31040000 		.4byte	.LLST89
 8246 21a8 35       		.uleb128 0x35
 8247 21a9 AE2F0000 		.4byte	0x2fae
 8248 21ad 83040000 		.4byte	.LLST90
 8249 21b1 35       		.uleb128 0x35
 8250 21b2 A32F0000 		.4byte	0x2fa3
 8251 21b6 A5040000 		.4byte	.LLST91
 8252 21ba 38       		.uleb128 0x38
 8253 21bb A0010000 		.4byte	.Ldebug_ranges0+0x1a0
 8254 21bf 40       		.uleb128 0x40
 8255 21c0 F02F0000 		.4byte	0x2ff0
 8256 21c4 ED040000 		.4byte	.LLST92
ARM GAS  C:\Users\EBANO_~1\AppData\Local\Temp\ccpYmjAB.s 			page 173


 8257 21c8 40       		.uleb128 0x40
 8258 21c9 FB2F0000 		.4byte	0x2ffb
 8259 21cd 65050000 		.4byte	.LLST93
 8260 21d1 41       		.uleb128 0x41
 8261 21d2 06300000 		.4byte	0x3006
 8262 21d6 C8010000 		.4byte	.Ldebug_ranges0+0x1c8
 8263 21da 40       		.uleb128 0x40
 8264 21db 07300000 		.4byte	0x3007
 8265 21df B9050000 		.4byte	.LLST94
 8266 21e3 40       		.uleb128 0x40
 8267 21e4 10300000 		.4byte	0x3010
 8268 21e8 B9050000 		.4byte	.LLST94
 8269 21ec 41       		.uleb128 0x41
 8270 21ed 19300000 		.4byte	0x3019
 8271 21f1 C8010000 		.4byte	.Ldebug_ranges0+0x1c8
 8272 21f5 40       		.uleb128 0x40
 8273 21f6 1A300000 		.4byte	0x301a
 8274 21fa D9050000 		.4byte	.LLST96
 8275 21fe 42       		.uleb128 0x42
 8276 21ff BE000000 		.4byte	.LVL268
 8277 2203 94320000 		.4byte	0x3294
 8278 2207 15220000 		.4byte	0x2215
 8279 220b 2E       		.uleb128 0x2e
 8280 220c 01       		.byte	0x1
 8281 220d 50       		.byte	0x50
 8282 220e 05       		.byte	0x5
 8283 220f 91       		.byte	0x91
 8284 2210 B47F     		.sleb128 -76
 8285 2212 94       		.byte	0x94
 8286 2213 01       		.byte	0x1
 8287 2214 00       		.byte	0
 8288 2215 2D       		.uleb128 0x2d
 8289 2216 6A010000 		.4byte	.LVL283
 8290 221a 94320000 		.4byte	0x3294
 8291 221e 2E       		.uleb128 0x2e
 8292 221f 01       		.byte	0x1
 8293 2220 50       		.byte	0x50
 8294 2221 05       		.byte	0x5
 8295 2222 91       		.byte	0x91
 8296 2223 B47F     		.sleb128 -76
 8297 2225 94       		.byte	0x94
 8298 2226 01       		.byte	0x1
 8299 2227 00       		.byte	0
 8300 2228 00       		.byte	0
 8301 2229 00       		.byte	0
 8302 222a 00       		.byte	0
 8303 222b 00       		.byte	0
 8304 222c 42       		.uleb128 0x42
 8305 222d 20000000 		.4byte	.LVL252
 8306 2231 A1320000 		.4byte	0x32a1
 8307 2235 4A220000 		.4byte	0x224a
 8308 2239 2E       		.uleb128 0x2e
 8309 223a 01       		.byte	0x1
 8310 223b 50       		.byte	0x50
 8311 223c 02       		.byte	0x2
 8312 223d 91       		.byte	0x91
 8313 223e 48       		.sleb128 -56
ARM GAS  C:\Users\EBANO_~1\AppData\Local\Temp\ccpYmjAB.s 			page 174


 8314 223f 2E       		.uleb128 0x2e
 8315 2240 01       		.byte	0x1
 8316 2241 51       		.byte	0x51
 8317 2242 01       		.byte	0x1
 8318 2243 30       		.byte	0x30
 8319 2244 2E       		.uleb128 0x2e
 8320 2245 01       		.byte	0x1
 8321 2246 52       		.byte	0x52
 8322 2247 01       		.byte	0x1
 8323 2248 40       		.byte	0x40
 8324 2249 00       		.byte	0
 8325 224a 42       		.uleb128 0x42
 8326 224b 2C000000 		.4byte	.LVL253
 8327 224f B2320000 		.4byte	0x32b2
 8328 2253 68220000 		.4byte	0x2268
 8329 2257 2E       		.uleb128 0x2e
 8330 2258 01       		.byte	0x1
 8331 2259 50       		.byte	0x50
 8332 225a 02       		.byte	0x2
 8333 225b 75       		.byte	0x75
 8334 225c 00       		.sleb128 0
 8335 225d 2E       		.uleb128 0x2e
 8336 225e 01       		.byte	0x1
 8337 225f 51       		.byte	0x51
 8338 2260 01       		.byte	0x1
 8339 2261 30       		.byte	0x30
 8340 2262 2E       		.uleb128 0x2e
 8341 2263 01       		.byte	0x1
 8342 2264 52       		.byte	0x52
 8343 2265 01       		.byte	0x1
 8344 2266 31       		.byte	0x31
 8345 2267 00       		.byte	0
 8346 2268 3A       		.uleb128 0x3a
 8347 2269 44000000 		.4byte	.LVL254
 8348 226d C0320000 		.4byte	0x32c0
 8349 2271 42       		.uleb128 0x42
 8350 2272 5A000000 		.4byte	.LVL255
 8351 2276 CD320000 		.4byte	0x32cd
 8352 227a 8A220000 		.4byte	0x228a
 8353 227e 2E       		.uleb128 0x2e
 8354 227f 01       		.byte	0x1
 8355 2280 52       		.byte	0x52
 8356 2281 02       		.byte	0x2
 8357 2282 75       		.byte	0x75
 8358 2283 00       		.sleb128 0
 8359 2284 2E       		.uleb128 0x2e
 8360 2285 01       		.byte	0x1
 8361 2286 53       		.byte	0x53
 8362 2287 01       		.byte	0x1
 8363 2288 31       		.byte	0x31
 8364 2289 00       		.byte	0
 8365 228a 3A       		.uleb128 0x3a
 8366 228b 16010000 		.4byte	.LVL274
 8367 228f C0320000 		.4byte	0x32c0
 8368 2293 2D       		.uleb128 0x2d
 8369 2294 A2010000 		.4byte	.LVL289
 8370 2298 DB320000 		.4byte	0x32db
ARM GAS  C:\Users\EBANO_~1\AppData\Local\Temp\ccpYmjAB.s 			page 175


 8371 229c 2E       		.uleb128 0x2e
 8372 229d 01       		.byte	0x1
 8373 229e 50       		.byte	0x50
 8374 229f 01       		.byte	0x1
 8375 22a0 30       		.byte	0x30
 8376 22a1 2E       		.uleb128 0x2e
 8377 22a2 01       		.byte	0x1
 8378 22a3 51       		.byte	0x51
 8379 22a4 02       		.byte	0x2
 8380 22a5 78       		.byte	0x78
 8381 22a6 7F       		.sleb128 -1
 8382 22a7 00       		.byte	0
 8383 22a8 00       		.byte	0
 8384 22a9 0A       		.uleb128 0xa
 8385 22aa 04       		.byte	0x4
 8386 22ab 591A0000 		.4byte	0x1a59
 8387 22af 0A       		.uleb128 0xa
 8388 22b0 04       		.byte	0x4
 8389 22b1 970A0000 		.4byte	0xa97
 8390 22b5 07       		.uleb128 0x7
 8391 22b6 BC000000 		.4byte	0xbc
 8392 22ba C5220000 		.4byte	0x22c5
 8393 22be 08       		.uleb128 0x8
 8394 22bf AA000000 		.4byte	0xaa
 8395 22c3 0F       		.byte	0xf
 8396 22c4 00       		.byte	0
 8397 22c5 2B       		.uleb128 0x2b
 8398 22c6 01       		.byte	0x1
 8399 22c7 47140000 		.4byte	.LASF467
 8400 22cb 01       		.byte	0x1
 8401 22cc 4603     		.2byte	0x346
 8402 22ce 01       		.byte	0x1
 8403 22cf 00000000 		.4byte	.LFB60
 8404 22d3 34000000 		.4byte	.LFE60
 8405 22d7 4E060000 		.4byte	.LLST75
 8406 22db 01       		.byte	0x1
 8407 22dc 10230000 		.4byte	0x2310
 8408 22e0 2C       		.uleb128 0x2c
 8409 22e1 8F0C0000 		.4byte	.LASF468
 8410 22e5 01       		.byte	0x1
 8411 22e6 4603     		.2byte	0x346
 8412 22e8 10230000 		.4byte	0x2310
 8413 22ec 7A060000 		.4byte	.LLST76
 8414 22f0 29       		.uleb128 0x29
 8415 22f1 311F0000 		.4byte	.LASF469
 8416 22f5 01       		.byte	0x1
 8417 22f6 4803     		.2byte	0x348
 8418 22f8 5A1D0000 		.4byte	0x1d5a
 8419 22fc 02       		.byte	0x2
 8420 22fd 91       		.byte	0x91
 8421 22fe 64       		.sleb128 -28
 8422 22ff 2D       		.uleb128 0x2d
 8423 2300 2C000000 		.4byte	.LVL247
 8424 2304 E8320000 		.4byte	0x32e8
 8425 2308 2E       		.uleb128 0x2e
 8426 2309 01       		.byte	0x1
 8427 230a 50       		.byte	0x50
ARM GAS  C:\Users\EBANO_~1\AppData\Local\Temp\ccpYmjAB.s 			page 176


 8428 230b 02       		.byte	0x2
 8429 230c 91       		.byte	0x91
 8430 230d 64       		.sleb128 -28
 8431 230e 00       		.byte	0
 8432 230f 00       		.byte	0
 8433 2310 0A       		.uleb128 0xa
 8434 2311 04       		.byte	0x4
 8435 2312 F4190000 		.4byte	0x19f4
 8436 2316 2F       		.uleb128 0x2f
 8437 2317 01       		.byte	0x1
 8438 2318 3A180000 		.4byte	.LASF470
 8439 231c 01       		.byte	0x1
 8440 231d 4103     		.2byte	0x341
 8441 231f 01       		.byte	0x1
 8442 2320 B1000000 		.4byte	0xb1
 8443 2324 00000000 		.4byte	.LFB59
 8444 2328 02000000 		.4byte	.LFE59
 8445 232c 02       		.byte	0x2
 8446 232d 7D       		.byte	0x7d
 8447 232e 00       		.sleb128 0
 8448 232f 01       		.byte	0x1
 8449 2330 51230000 		.4byte	0x2351
 8450 2334 31       		.uleb128 0x31
 8451 2335 D1130000 		.4byte	.LASF471
 8452 2339 01       		.byte	0x1
 8453 233a 4103     		.2byte	0x341
 8454 233c B1000000 		.4byte	0xb1
 8455 2340 01       		.byte	0x1
 8456 2341 50       		.byte	0x50
 8457 2342 31       		.uleb128 0x31
 8458 2343 3B050000 		.4byte	.LASF472
 8459 2347 01       		.byte	0x1
 8460 2348 4103     		.2byte	0x341
 8461 234a 80190000 		.4byte	0x1980
 8462 234e 01       		.byte	0x1
 8463 234f 51       		.byte	0x51
 8464 2350 00       		.byte	0
 8465 2351 3F       		.uleb128 0x3f
 8466 2352 01       		.byte	0x1
 8467 2353 F9000000 		.4byte	.LASF473
 8468 2357 01       		.byte	0x1
 8469 2358 2803     		.2byte	0x328
 8470 235a 01       		.byte	0x1
 8471 235b BC000000 		.4byte	0xbc
 8472 235f 00000000 		.4byte	.LFB58
 8473 2363 70000000 		.4byte	.LFE58
 8474 2367 9B060000 		.4byte	.LLST71
 8475 236b 01       		.byte	0x1
 8476 236c B7230000 		.4byte	0x23b7
 8477 2370 2C       		.uleb128 0x2c
 8478 2371 A6110000 		.4byte	.LASF474
 8479 2375 01       		.byte	0x1
 8480 2376 2803     		.2byte	0x328
 8481 2378 B7230000 		.4byte	0x23b7
 8482 237c C7060000 		.4byte	.LLST72
 8483 2380 33       		.uleb128 0x33
 8484 2381 78120000 		.4byte	.LASF475
ARM GAS  C:\Users\EBANO_~1\AppData\Local\Temp\ccpYmjAB.s 			page 177


 8485 2385 01       		.byte	0x1
 8486 2386 2A03     		.2byte	0x32a
 8487 2388 BC000000 		.4byte	0xbc
 8488 238c FE060000 		.4byte	.LLST73
 8489 2390 43       		.uleb128 0x43
 8490 2391 26300000 		.4byte	0x3026
 8491 2395 02000000 		.4byte	.LBB111
 8492 2399 80010000 		.4byte	.Ldebug_ranges0+0x180
 8493 239d 01       		.byte	0x1
 8494 239e 2D03     		.2byte	0x32d
 8495 23a0 35       		.uleb128 0x35
 8496 23a1 37300000 		.4byte	0x3037
 8497 23a5 36070000 		.4byte	.LLST74
 8498 23a9 3B       		.uleb128 0x3b
 8499 23aa 12000000 		.4byte	.LVL237
 8500 23ae 2E       		.uleb128 0x2e
 8501 23af 01       		.byte	0x1
 8502 23b0 50       		.byte	0x50
 8503 23b1 02       		.byte	0x2
 8504 23b2 74       		.byte	0x74
 8505 23b3 00       		.sleb128 0
 8506 23b4 00       		.byte	0
 8507 23b5 00       		.byte	0
 8508 23b6 00       		.byte	0
 8509 23b7 0A       		.uleb128 0xa
 8510 23b8 04       		.byte	0x4
 8511 23b9 55190000 		.4byte	0x1955
 8512 23bd 2F       		.uleb128 0x2f
 8513 23be 01       		.byte	0x1
 8514 23bf 65010000 		.4byte	.LASF476
 8515 23c3 01       		.byte	0x1
 8516 23c4 2303     		.2byte	0x323
 8517 23c6 01       		.byte	0x1
 8518 23c7 B1000000 		.4byte	0xb1
 8519 23cb 00000000 		.4byte	.LFB57
 8520 23cf 06000000 		.4byte	.LFE57
 8521 23d3 02       		.byte	0x2
 8522 23d4 7D       		.byte	0x7d
 8523 23d5 00       		.sleb128 0
 8524 23d6 01       		.byte	0x1
 8525 23d7 EC230000 		.4byte	0x23ec
 8526 23db 2C       		.uleb128 0x2c
 8527 23dc 711D0000 		.4byte	.LASF477
 8528 23e0 01       		.byte	0x1
 8529 23e1 2303     		.2byte	0x323
 8530 23e3 EC230000 		.4byte	0x23ec
 8531 23e7 76070000 		.4byte	.LLST70
 8532 23eb 00       		.byte	0
 8533 23ec 0A       		.uleb128 0xa
 8534 23ed 04       		.byte	0x4
 8535 23ee 1D190000 		.4byte	0x191d
 8536 23f2 3F       		.uleb128 0x3f
 8537 23f3 01       		.byte	0x1
 8538 23f4 F6010000 		.4byte	.LASF478
 8539 23f8 01       		.byte	0x1
 8540 23f9 EE02     		.2byte	0x2ee
 8541 23fb 01       		.byte	0x1
ARM GAS  C:\Users\EBANO_~1\AppData\Local\Temp\ccpYmjAB.s 			page 178


 8542 23fc BC000000 		.4byte	0xbc
 8543 2400 00000000 		.4byte	.LFB56
 8544 2404 08010000 		.4byte	.LFE56
 8545 2408 97070000 		.4byte	.LLST62
 8546 240c 01       		.byte	0x1
 8547 240d 71250000 		.4byte	0x2571
 8548 2411 2C       		.uleb128 0x2c
 8549 2412 D4020000 		.4byte	.LASF479
 8550 2416 01       		.byte	0x1
 8551 2417 EE02     		.2byte	0x2ee
 8552 2419 71250000 		.4byte	0x2571
 8553 241d CF070000 		.4byte	.LLST63
 8554 2421 44       		.uleb128 0x44
 8555 2422 78120000 		.4byte	.LASF475
 8556 2426 01       		.byte	0x1
 8557 2427 F002     		.2byte	0x2f0
 8558 2429 BC000000 		.4byte	0xbc
 8559 242d 03       		.byte	0x3
 8560 242e 32       		.uleb128 0x32
 8561 242f A4130000 		.4byte	.LASF454
 8562 2433 01       		.byte	0x1
 8563 2434 F102     		.2byte	0x2f1
 8564 2436 911A0000 		.4byte	0x1a91
 8565 243a 32       		.uleb128 0x32
 8566 243b E71F0000 		.4byte	.LASF453
 8567 243f 01       		.byte	0x1
 8568 2440 F202     		.2byte	0x2f2
 8569 2442 BA1A0000 		.4byte	0x1aba
 8570 2446 34       		.uleb128 0x34
 8571 2447 4F200000 		.4byte	0x204f
 8572 244b 12000000 		.4byte	.LBB93
 8573 244f 20010000 		.4byte	.Ldebug_ranges0+0x120
 8574 2453 01       		.byte	0x1
 8575 2454 F902     		.2byte	0x2f9
 8576 2456 B7240000 		.4byte	0x24b7
 8577 245a 35       		.uleb128 0x35
 8578 245b 62200000 		.4byte	0x2062
 8579 245f 22080000 		.4byte	.LLST64
 8580 2463 38       		.uleb128 0x38
 8581 2464 20010000 		.4byte	.Ldebug_ranges0+0x120
 8582 2468 40       		.uleb128 0x40
 8583 2469 6E200000 		.4byte	0x206e
 8584 246d 4A080000 		.4byte	.LLST65
 8585 2471 42       		.uleb128 0x42
 8586 2472 BE000000 		.4byte	.LVL225
 8587 2476 A1320000 		.4byte	0x32a1
 8588 247a 99240000 		.4byte	0x2499
 8589 247e 2E       		.uleb128 0x2e
 8590 247f 01       		.byte	0x1
 8591 2480 50       		.byte	0x50
 8592 2481 0C       		.byte	0xc
 8593 2482 75       		.byte	0x75
 8594 2483 00       		.sleb128 0
 8595 2484 31       		.byte	0x31
 8596 2485 24       		.byte	0x24
 8597 2486 75       		.byte	0x75
 8598 2487 00       		.sleb128 0
ARM GAS  C:\Users\EBANO_~1\AppData\Local\Temp\ccpYmjAB.s 			page 179


 8599 2488 22       		.byte	0x22
 8600 2489 32       		.byte	0x32
 8601 248a 24       		.byte	0x24
 8602 248b 74       		.byte	0x74
 8603 248c 00       		.sleb128 0
 8604 248d 22       		.byte	0x22
 8605 248e 2E       		.uleb128 0x2e
 8606 248f 01       		.byte	0x1
 8607 2490 51       		.byte	0x51
 8608 2491 01       		.byte	0x1
 8609 2492 30       		.byte	0x30
 8610 2493 2E       		.uleb128 0x2e
 8611 2494 01       		.byte	0x1
 8612 2495 52       		.byte	0x52
 8613 2496 01       		.byte	0x1
 8614 2497 3C       		.byte	0x3c
 8615 2498 00       		.byte	0
 8616 2499 2D       		.uleb128 0x2d
 8617 249a CA000000 		.4byte	.LVL226
 8618 249e F6320000 		.4byte	0x32f6
 8619 24a2 2E       		.uleb128 0x2e
 8620 24a3 01       		.byte	0x1
 8621 24a4 50       		.byte	0x50
 8622 24a5 03       		.byte	0x3
 8623 24a6 74       		.byte	0x74
 8624 24a7 D001     		.sleb128 208
 8625 24a9 2E       		.uleb128 0x2e
 8626 24aa 01       		.byte	0x1
 8627 24ab 51       		.byte	0x51
 8628 24ac 02       		.byte	0x2
 8629 24ad 75       		.byte	0x75
 8630 24ae 00       		.sleb128 0
 8631 24af 2E       		.uleb128 0x2e
 8632 24b0 01       		.byte	0x1
 8633 24b1 52       		.byte	0x52
 8634 24b2 01       		.byte	0x1
 8635 24b3 40       		.byte	0x40
 8636 24b4 00       		.byte	0
 8637 24b5 00       		.byte	0
 8638 24b6 00       		.byte	0
 8639 24b7 43       		.uleb128 0x43
 8640 24b8 80200000 		.4byte	0x2080
 8641 24bc 20000000 		.4byte	.LBB96
 8642 24c0 38010000 		.4byte	.Ldebug_ranges0+0x138
 8643 24c4 01       		.byte	0x1
 8644 24c5 0303     		.2byte	0x303
 8645 24c7 35       		.uleb128 0x35
 8646 24c8 93200000 		.4byte	0x2093
 8647 24cc 79080000 		.4byte	.LLST66
 8648 24d0 38       		.uleb128 0x38
 8649 24d1 38010000 		.4byte	.Ldebug_ranges0+0x138
 8650 24d5 40       		.uleb128 0x40
 8651 24d6 9F200000 		.4byte	0x209f
 8652 24da A1080000 		.4byte	.LLST67
 8653 24de 40       		.uleb128 0x40
 8654 24df AB200000 		.4byte	0x20ab
 8655 24e3 E8080000 		.4byte	.LLST68
ARM GAS  C:\Users\EBANO_~1\AppData\Local\Temp\ccpYmjAB.s 			page 180


 8656 24e7 40       		.uleb128 0x40
 8657 24e8 B7200000 		.4byte	0x20b7
 8658 24ec 14090000 		.4byte	.LLST69
 8659 24f0 34       		.uleb128 0x34
 8660 24f1 26300000 		.4byte	0x3026
 8661 24f5 56000000 		.4byte	.LBB98
 8662 24f9 60010000 		.4byte	.Ldebug_ranges0+0x160
 8663 24fd 01       		.byte	0x1
 8664 24fe AD03     		.2byte	0x3ad
 8665 2500 23250000 		.4byte	0x2523
 8666 2504 37       		.uleb128 0x37
 8667 2505 37300000 		.4byte	0x3037
 8668 2509 45       		.uleb128 0x45
 8669 250a 6C000000 		.4byte	.LVL220
 8670 250e 19250000 		.4byte	0x2519
 8671 2512 2E       		.uleb128 0x2e
 8672 2513 01       		.byte	0x1
 8673 2514 50       		.byte	0x50
 8674 2515 02       		.byte	0x2
 8675 2516 76       		.byte	0x76
 8676 2517 00       		.sleb128 0
 8677 2518 00       		.byte	0
 8678 2519 46       		.uleb128 0x46
 8679 251a E0000000 		.4byte	.LVL230
 8680 251e 03       		.byte	0x3
 8681 251f 91       		.byte	0x91
 8682 2520 64       		.sleb128 -28
 8683 2521 06       		.byte	0x6
 8684 2522 00       		.byte	0
 8685 2523 42       		.uleb128 0x42
 8686 2524 34000000 		.4byte	.LVL214
 8687 2528 94320000 		.4byte	0x3294
 8688 252c 3B250000 		.4byte	0x253b
 8689 2530 2E       		.uleb128 0x2e
 8690 2531 01       		.byte	0x1
 8691 2532 51       		.byte	0x51
 8692 2533 01       		.byte	0x1
 8693 2534 30       		.byte	0x30
 8694 2535 2E       		.uleb128 0x2e
 8695 2536 01       		.byte	0x1
 8696 2537 52       		.byte	0x52
 8697 2538 01       		.byte	0x1
 8698 2539 37       		.byte	0x37
 8699 253a 00       		.byte	0
 8700 253b 42       		.uleb128 0x42
 8701 253c 44000000 		.4byte	.LVL216
 8702 2540 94320000 		.4byte	0x3294
 8703 2544 53250000 		.4byte	0x2553
 8704 2548 2E       		.uleb128 0x2e
 8705 2549 01       		.byte	0x1
 8706 254a 51       		.byte	0x51
 8707 254b 01       		.byte	0x1
 8708 254c 30       		.byte	0x30
 8709 254d 2E       		.uleb128 0x2e
 8710 254e 01       		.byte	0x1
 8711 254f 52       		.byte	0x52
 8712 2550 01       		.byte	0x1
ARM GAS  C:\Users\EBANO_~1\AppData\Local\Temp\ccpYmjAB.s 			page 181


 8713 2551 37       		.byte	0x37
 8714 2552 00       		.byte	0
 8715 2553 2D       		.uleb128 0x2d
 8716 2554 96000000 		.4byte	.LVL221
 8717 2558 04330000 		.4byte	0x3304
 8718 255c 2E       		.uleb128 0x2e
 8719 255d 01       		.byte	0x1
 8720 255e 50       		.byte	0x50
 8721 255f 02       		.byte	0x2
 8722 2560 76       		.byte	0x76
 8723 2561 00       		.sleb128 0
 8724 2562 2E       		.uleb128 0x2e
 8725 2563 01       		.byte	0x1
 8726 2564 51       		.byte	0x51
 8727 2565 02       		.byte	0x2
 8728 2566 74       		.byte	0x74
 8729 2567 00       		.sleb128 0
 8730 2568 2E       		.uleb128 0x2e
 8731 2569 01       		.byte	0x1
 8732 256a 52       		.byte	0x52
 8733 256b 01       		.byte	0x1
 8734 256c 3C       		.byte	0x3c
 8735 256d 00       		.byte	0
 8736 256e 00       		.byte	0
 8737 256f 00       		.byte	0
 8738 2570 00       		.byte	0
 8739 2571 0A       		.uleb128 0xa
 8740 2572 04       		.byte	0x4
 8741 2573 D6180000 		.4byte	0x18d6
 8742 2577 3F       		.uleb128 0x3f
 8743 2578 01       		.byte	0x1
 8744 2579 7B200000 		.4byte	.LASF480
 8745 257d 01       		.byte	0x1
 8746 257e D502     		.2byte	0x2d5
 8747 2580 01       		.byte	0x1
 8748 2581 BC000000 		.4byte	0xbc
 8749 2585 00000000 		.4byte	.LFB55
 8750 2589 64000000 		.4byte	.LFE55
 8751 258d 37090000 		.4byte	.LLST58
 8752 2591 01       		.byte	0x1
 8753 2592 0D260000 		.4byte	0x260d
 8754 2596 2C       		.uleb128 0x2c
 8755 2597 02030000 		.4byte	.LASF481
 8756 259b 01       		.byte	0x1
 8757 259c D502     		.2byte	0x2d5
 8758 259e 0D260000 		.4byte	0x260d
 8759 25a2 63090000 		.4byte	.LLST59
 8760 25a6 33       		.uleb128 0x33
 8761 25a7 78120000 		.4byte	.LASF475
 8762 25ab 01       		.byte	0x1
 8763 25ac D702     		.2byte	0x2d7
 8764 25ae BC000000 		.4byte	0xbc
 8765 25b2 9A090000 		.4byte	.LLST60
 8766 25b6 34       		.uleb128 0x34
 8767 25b7 26300000 		.4byte	0x3026
 8768 25bb 02000000 		.4byte	.LBB79
 8769 25bf F8000000 		.4byte	.Ldebug_ranges0+0xf8
ARM GAS  C:\Users\EBANO_~1\AppData\Local\Temp\ccpYmjAB.s 			page 182


 8770 25c3 01       		.byte	0x1
 8771 25c4 DA02     		.2byte	0x2da
 8772 25c6 E0250000 		.4byte	0x25e0
 8773 25ca 35       		.uleb128 0x35
 8774 25cb 37300000 		.4byte	0x3037
 8775 25cf D0090000 		.4byte	.LLST61
 8776 25d3 3B       		.uleb128 0x3b
 8777 25d4 12000000 		.4byte	.LVL197
 8778 25d8 2E       		.uleb128 0x2e
 8779 25d9 01       		.byte	0x1
 8780 25da 50       		.byte	0x50
 8781 25db 02       		.byte	0x2
 8782 25dc 75       		.byte	0x75
 8783 25dd 00       		.sleb128 0
 8784 25de 00       		.byte	0
 8785 25df 00       		.byte	0
 8786 25e0 42       		.uleb128 0x42
 8787 25e1 32000000 		.4byte	.LVL201
 8788 25e5 94320000 		.4byte	0x3294
 8789 25e9 F8250000 		.4byte	0x25f8
 8790 25ed 2E       		.uleb128 0x2e
 8791 25ee 01       		.byte	0x1
 8792 25ef 51       		.byte	0x51
 8793 25f0 01       		.byte	0x1
 8794 25f1 30       		.byte	0x30
 8795 25f2 2E       		.uleb128 0x2e
 8796 25f3 01       		.byte	0x1
 8797 25f4 52       		.byte	0x52
 8798 25f5 01       		.byte	0x1
 8799 25f6 37       		.byte	0x37
 8800 25f7 00       		.byte	0
 8801 25f8 2D       		.uleb128 0x2d
 8802 25f9 44000000 		.4byte	.LVL203
 8803 25fd 94320000 		.4byte	0x3294
 8804 2601 2E       		.uleb128 0x2e
 8805 2602 01       		.byte	0x1
 8806 2603 51       		.byte	0x51
 8807 2604 01       		.byte	0x1
 8808 2605 30       		.byte	0x30
 8809 2606 2E       		.uleb128 0x2e
 8810 2607 01       		.byte	0x1
 8811 2608 52       		.byte	0x52
 8812 2609 01       		.byte	0x1
 8813 260a 35       		.byte	0x35
 8814 260b 00       		.byte	0
 8815 260c 00       		.byte	0
 8816 260d 0A       		.uleb128 0xa
 8817 260e 04       		.byte	0x4
 8818 260f 9E180000 		.4byte	0x189e
 8819 2613 3F       		.uleb128 0x3f
 8820 2614 01       		.byte	0x1
 8821 2615 C80D0000 		.4byte	.LASF482
 8822 2619 01       		.byte	0x1
 8823 261a 6C02     		.2byte	0x26c
 8824 261c 01       		.byte	0x1
 8825 261d BC000000 		.4byte	0xbc
 8826 2621 00000000 		.4byte	.LFB54
ARM GAS  C:\Users\EBANO_~1\AppData\Local\Temp\ccpYmjAB.s 			page 183


 8827 2625 FC020000 		.4byte	.LFE54
 8828 2629 050A0000 		.4byte	.LLST49
 8829 262d 01       		.byte	0x1
 8830 262e 6A270000 		.4byte	0x276a
 8831 2632 2C       		.uleb128 0x2c
 8832 2633 E9100000 		.4byte	.LASF483
 8833 2637 01       		.byte	0x1
 8834 2638 6C02     		.2byte	0x26c
 8835 263a 6A270000 		.4byte	0x276a
 8836 263e 3E0A0000 		.4byte	.LLST50
 8837 2642 2C       		.uleb128 0x2c
 8838 2643 0D190000 		.4byte	.LASF484
 8839 2647 01       		.byte	0x1
 8840 2648 6C02     		.2byte	0x26c
 8841 264a 70270000 		.4byte	0x2770
 8842 264e 8E0A0000 		.4byte	.LLST51
 8843 2652 2C       		.uleb128 0x2c
 8844 2653 72170000 		.4byte	.LASF485
 8845 2657 01       		.byte	0x1
 8846 2658 6C02     		.2byte	0x26c
 8847 265a 70270000 		.4byte	0x2770
 8848 265e C50A0000 		.4byte	.LLST52
 8849 2662 2C       		.uleb128 0x2c
 8850 2663 23010000 		.4byte	.LASF486
 8851 2667 01       		.byte	0x1
 8852 2668 6C02     		.2byte	0x26c
 8853 266a 840A0000 		.4byte	0xa84
 8854 266e FC0A0000 		.4byte	.LLST53
 8855 2672 31       		.uleb128 0x31
 8856 2673 410E0000 		.4byte	.LASF487
 8857 2677 01       		.byte	0x1
 8858 2678 6C02     		.2byte	0x26c
 8859 267a 840A0000 		.4byte	0xa84
 8860 267e 02       		.byte	0x2
 8861 267f 91       		.byte	0x91
 8862 2680 00       		.sleb128 0
 8863 2681 33       		.uleb128 0x33
 8864 2682 78120000 		.4byte	.LASF475
 8865 2686 01       		.byte	0x1
 8866 2687 6E02     		.2byte	0x26e
 8867 2689 BC000000 		.4byte	0xbc
 8868 268d 1C0B0000 		.4byte	.LLST54
 8869 2691 29       		.uleb128 0x29
 8870 2692 031E0000 		.4byte	.LASF488
 8871 2696 01       		.byte	0x1
 8872 2697 6F02     		.2byte	0x26f
 8873 2699 D41B0000 		.4byte	0x1bd4
 8874 269d 03       		.byte	0x3
 8875 269e 91       		.byte	0x91
 8876 269f B07F     		.sleb128 -80
 8877 26a1 33       		.uleb128 0x33
 8878 26a2 9F090000 		.4byte	.LASF489
 8879 26a6 01       		.byte	0x1
 8880 26a7 7002     		.2byte	0x270
 8881 26a9 BC000000 		.4byte	0xbc
 8882 26ad 800B0000 		.4byte	.LLST55
 8883 26b1 33       		.uleb128 0x33
ARM GAS  C:\Users\EBANO_~1\AppData\Local\Temp\ccpYmjAB.s 			page 184


 8884 26b2 460C0000 		.4byte	.LASF490
 8885 26b6 01       		.byte	0x1
 8886 26b7 7102     		.2byte	0x271
 8887 26b9 BC000000 		.4byte	0xbc
 8888 26bd 9F0B0000 		.4byte	.LLST56
 8889 26c1 29       		.uleb128 0x29
 8890 26c2 250A0000 		.4byte	.LASF491
 8891 26c6 01       		.byte	0x1
 8892 26c7 7202     		.2byte	0x272
 8893 26c9 D7000000 		.4byte	0xd7
 8894 26cd 03       		.byte	0x3
 8895 26ce 91       		.byte	0x91
 8896 26cf AE7F     		.sleb128 -82
 8897 26d1 32       		.uleb128 0x32
 8898 26d2 D5180000 		.4byte	.LASF492
 8899 26d6 01       		.byte	0x1
 8900 26d7 7302     		.2byte	0x273
 8901 26d9 01150000 		.4byte	0x1501
 8902 26dd 32       		.uleb128 0x32
 8903 26de 4F040000 		.4byte	.LASF493
 8904 26e2 01       		.byte	0x1
 8905 26e3 7402     		.2byte	0x274
 8906 26e5 AB140000 		.4byte	0x14ab
 8907 26e9 29       		.uleb128 0x29
 8908 26ea FC1B0000 		.4byte	.LASF494
 8909 26ee 01       		.byte	0x1
 8910 26ef 7502     		.2byte	0x275
 8911 26f1 CC1C0000 		.4byte	0x1ccc
 8912 26f5 03       		.byte	0x3
 8913 26f6 91       		.byte	0x91
 8914 26f7 B87F     		.sleb128 -72
 8915 26f9 47       		.uleb128 0x47
 8916 26fa D0000000 		.4byte	.Ldebug_ranges0+0xd0
 8917 26fe 11270000 		.4byte	0x2711
 8918 2702 48       		.uleb128 0x48
 8919 2703 6900     		.ascii	"i\000"
 8920 2705 01       		.byte	0x1
 8921 2706 9502     		.2byte	0x295
 8922 2708 BC000000 		.4byte	0xbc
 8923 270c E00B0000 		.4byte	.LLST57
 8924 2710 00       		.byte	0
 8925 2711 42       		.uleb128 0x42
 8926 2712 3A000000 		.4byte	.LVL141
 8927 2716 11330000 		.4byte	0x3311
 8928 271a 25270000 		.4byte	0x2725
 8929 271e 2E       		.uleb128 0x2e
 8930 271f 01       		.byte	0x1
 8931 2720 51       		.byte	0x51
 8932 2721 02       		.byte	0x2
 8933 2722 75       		.byte	0x75
 8934 2723 00       		.sleb128 0
 8935 2724 00       		.byte	0
 8936 2725 42       		.uleb128 0x42
 8937 2726 A6010000 		.4byte	.LVL163
 8938 272a 1F330000 		.4byte	0x331f
 8939 272e 4E270000 		.4byte	0x274e
 8940 2732 2E       		.uleb128 0x2e
ARM GAS  C:\Users\EBANO_~1\AppData\Local\Temp\ccpYmjAB.s 			page 185


 8941 2733 01       		.byte	0x1
 8942 2734 50       		.byte	0x50
 8943 2735 03       		.byte	0x3
 8944 2736 91       		.byte	0x91
 8945 2737 B87F     		.sleb128 -72
 8946 2739 2E       		.uleb128 0x2e
 8947 273a 01       		.byte	0x1
 8948 273b 51       		.byte	0x51
 8949 273c 03       		.byte	0x3
 8950 273d 91       		.byte	0x91
 8951 273e B17F     		.sleb128 -79
 8952 2740 2E       		.uleb128 0x2e
 8953 2741 01       		.byte	0x1
 8954 2742 52       		.byte	0x52
 8955 2743 03       		.byte	0x3
 8956 2744 91       		.byte	0x91
 8957 2745 B27F     		.sleb128 -78
 8958 2747 2E       		.uleb128 0x2e
 8959 2748 01       		.byte	0x1
 8960 2749 53       		.byte	0x53
 8961 274a 02       		.byte	0x2
 8962 274b 75       		.byte	0x75
 8963 274c 00       		.sleb128 0
 8964 274d 00       		.byte	0
 8965 274e 2D       		.uleb128 0x2d
 8966 274f DE020000 		.4byte	.LVL191
 8967 2753 2D330000 		.4byte	0x332d
 8968 2757 2E       		.uleb128 0x2e
 8969 2758 01       		.byte	0x1
 8970 2759 50       		.byte	0x50
 8971 275a 03       		.byte	0x3
 8972 275b 77       		.byte	0x77
 8973 275c D001     		.sleb128 208
 8974 275e 2E       		.uleb128 0x2e
 8975 275f 01       		.byte	0x1
 8976 2760 51       		.byte	0x51
 8977 2761 01       		.byte	0x1
 8978 2762 30       		.byte	0x30
 8979 2763 2E       		.uleb128 0x2e
 8980 2764 01       		.byte	0x1
 8981 2765 52       		.byte	0x52
 8982 2766 01       		.byte	0x1
 8983 2767 32       		.byte	0x32
 8984 2768 00       		.byte	0
 8985 2769 00       		.byte	0
 8986 276a 0A       		.uleb128 0xa
 8987 276b 04       		.byte	0x4
 8988 276c 57180000 		.4byte	0x1857
 8989 2770 0A       		.uleb128 0xa
 8990 2771 04       		.byte	0x4
 8991 2772 B1000000 		.4byte	0xb1
 8992 2776 3F       		.uleb128 0x3f
 8993 2777 01       		.byte	0x1
 8994 2778 52120000 		.4byte	.LASF495
 8995 277c 01       		.byte	0x1
 8996 277d 4902     		.2byte	0x249
 8997 277f 01       		.byte	0x1
ARM GAS  C:\Users\EBANO_~1\AppData\Local\Temp\ccpYmjAB.s 			page 186


 8998 2780 150B0000 		.4byte	0xb15
 8999 2784 00000000 		.4byte	.LFB53
 9000 2788 3C010000 		.4byte	.LFE53
 9001 278c 980D0000 		.4byte	.LLST38
 9002 2790 01       		.byte	0x1
 9003 2791 60290000 		.4byte	0x2960
 9004 2795 2C       		.uleb128 0x2c
 9005 2796 881B0000 		.4byte	.LASF496
 9006 279a 01       		.byte	0x1
 9007 279b 4902     		.2byte	0x249
 9008 279d 60290000 		.4byte	0x2960
 9009 27a1 D10D0000 		.4byte	.LLST39
 9010 27a5 2C       		.uleb128 0x2c
 9011 27a6 E1100000 		.4byte	.LASF497
 9012 27aa 01       		.byte	0x1
 9013 27ab 4902     		.2byte	0x249
 9014 27ad 70270000 		.4byte	0x2770
 9015 27b1 080E0000 		.4byte	.LLST40
 9016 27b5 2C       		.uleb128 0x2c
 9017 27b6 92130000 		.4byte	.LASF498
 9018 27ba 01       		.byte	0x1
 9019 27bb 4902     		.2byte	0x249
 9020 27bd AF220000 		.4byte	0x22af
 9021 27c1 270E0000 		.4byte	.LLST41
 9022 27c5 33       		.uleb128 0x33
 9023 27c6 EF1D0000 		.4byte	.LASF499
 9024 27ca 01       		.byte	0x1
 9025 27cb 4B02     		.2byte	0x24b
 9026 27cd D20B0000 		.4byte	0xbd2
 9027 27d1 5E0E0000 		.4byte	.LLST42
 9028 27d5 33       		.uleb128 0x33
 9029 27d6 A1040000 		.4byte	.LASF500
 9030 27da 01       		.byte	0x1
 9031 27db 4C02     		.2byte	0x24c
 9032 27dd B1000000 		.4byte	0xb1
 9033 27e1 890E0000 		.4byte	.LLST43
 9034 27e5 32       		.uleb128 0x32
 9035 27e6 F5130000 		.4byte	.LASF450
 9036 27ea 01       		.byte	0x1
 9037 27eb 4D02     		.2byte	0x24d
 9038 27ed B1000000 		.4byte	0xb1
 9039 27f1 32       		.uleb128 0x32
 9040 27f2 A7190000 		.4byte	.LASF501
 9041 27f6 01       		.byte	0x1
 9042 27f7 4E02     		.2byte	0x24e
 9043 27f9 ED000000 		.4byte	0xed
 9044 27fd 33       		.uleb128 0x33
 9045 27fe 560F0000 		.4byte	.LASF448
 9046 2802 01       		.byte	0x1
 9047 2803 4F02     		.2byte	0x24f
 9048 2805 B1000000 		.4byte	0xb1
 9049 2809 B30E0000 		.4byte	.LLST44
 9050 280d 34       		.uleb128 0x34
 9051 280e 43300000 		.4byte	0x3043
 9052 2812 28000000 		.4byte	.LBB54
 9053 2816 80000000 		.4byte	.Ldebug_ranges0+0x80
 9054 281a 01       		.byte	0x1
ARM GAS  C:\Users\EBANO_~1\AppData\Local\Temp\ccpYmjAB.s 			page 187


 9055 281b 4D02     		.2byte	0x24d
 9056 281d 58280000 		.4byte	0x2858
 9057 2821 35       		.uleb128 0x35
 9058 2822 6A300000 		.4byte	0x306a
 9059 2826 DD0E0000 		.4byte	.LLST45
 9060 282a 36       		.uleb128 0x36
 9061 282b 75300000 		.4byte	0x3075
 9062 282f 06       		.byte	0x6
 9063 2830 03       		.byte	0x3
 9064 2831 D0000000 		.4byte	NvmCtx+208
 9065 2835 9F       		.byte	0x9f
 9066 2836 35       		.uleb128 0x35
 9067 2837 5F300000 		.4byte	0x305f
 9068 283b 170F0000 		.4byte	.LLST46
 9069 283f 35       		.uleb128 0x35
 9070 2840 54300000 		.4byte	0x3054
 9071 2844 920F0000 		.4byte	.LLST47
 9072 2848 38       		.uleb128 0x38
 9073 2849 80000000 		.4byte	.Ldebug_ranges0+0x80
 9074 284d 40       		.uleb128 0x40
 9075 284e 80300000 		.4byte	0x3080
 9076 2852 920F0000 		.4byte	.LLST47
 9077 2856 00       		.byte	0
 9078 2857 00       		.byte	0
 9079 2858 34       		.uleb128 0x34
 9080 2859 8C300000 		.4byte	0x308c
 9081 285d 4A000000 		.4byte	.LBB63
 9082 2861 B0000000 		.4byte	.Ldebug_ranges0+0xb0
 9083 2865 01       		.byte	0x1
 9084 2866 4E02     		.2byte	0x24e
 9085 2868 72280000 		.4byte	0x2872
 9086 286c 37       		.uleb128 0x37
 9087 286d 9D300000 		.4byte	0x309d
 9088 2871 00       		.byte	0
 9089 2872 42       		.uleb128 0x42
 9090 2873 6E000000 		.4byte	.LVL119
 9091 2877 86320000 		.4byte	0x3286
 9092 287b 86280000 		.4byte	0x2886
 9093 287f 2E       		.uleb128 0x2e
 9094 2880 01       		.byte	0x1
 9095 2881 50       		.byte	0x50
 9096 2882 02       		.byte	0x2
 9097 2883 79       		.byte	0x79
 9098 2884 00       		.sleb128 0
 9099 2885 00       		.byte	0
 9100 2886 46       		.uleb128 0x46
 9101 2887 82000000 		.4byte	.LVL121
 9102 288b 03       		.byte	0x3
 9103 288c 75       		.byte	0x75
 9104 288d 14       		.sleb128 20
 9105 288e 06       		.byte	0x6
 9106 288f 49       		.uleb128 0x49
 9107 2890 B4000000 		.4byte	.LVL124
 9108 2894 02       		.byte	0x2
 9109 2895 76       		.byte	0x76
 9110 2896 00       		.sleb128 0
 9111 2897 E4280000 		.4byte	0x28e4
ARM GAS  C:\Users\EBANO_~1\AppData\Local\Temp\ccpYmjAB.s 			page 188


 9112 289b 2E       		.uleb128 0x2e
 9113 289c 01       		.byte	0x1
 9114 289d 50       		.byte	0x50
 9115 289e 01       		.byte	0x1
 9116 289f 31       		.byte	0x31
 9117 28a0 2E       		.uleb128 0x2e
 9118 28a1 01       		.byte	0x1
 9119 28a2 51       		.byte	0x51
 9120 28a3 02       		.byte	0x2
 9121 28a4 7B       		.byte	0x7b
 9122 28a5 00       		.sleb128 0
 9123 28a6 2E       		.uleb128 0x2e
 9124 28a7 01       		.byte	0x1
 9125 28a8 52       		.byte	0x52
 9126 28a9 01       		.byte	0x1
 9127 28aa 30       		.byte	0x30
 9128 28ab 2E       		.uleb128 0x2e
 9129 28ac 01       		.byte	0x1
 9130 28ad 53       		.byte	0x53
 9131 28ae 02       		.byte	0x2
 9132 28af 7A       		.byte	0x7a
 9133 28b0 00       		.sleb128 0
 9134 28b1 2E       		.uleb128 0x2e
 9135 28b2 02       		.byte	0x2
 9136 28b3 7D       		.byte	0x7d
 9137 28b4 04       		.sleb128 4
 9138 28b5 01       		.byte	0x1
 9139 28b6 31       		.byte	0x31
 9140 28b7 2E       		.uleb128 0x2e
 9141 28b8 02       		.byte	0x2
 9142 28b9 7D       		.byte	0x7d
 9143 28ba 08       		.sleb128 8
 9144 28bb 01       		.byte	0x1
 9145 28bc 38       		.byte	0x38
 9146 28bd 2E       		.uleb128 0x2e
 9147 28be 02       		.byte	0x2
 9148 28bf 7D       		.byte	0x7d
 9149 28c0 0C       		.sleb128 12
 9150 28c1 01       		.byte	0x1
 9151 28c2 30       		.byte	0x30
 9152 28c3 2E       		.uleb128 0x2e
 9153 28c4 02       		.byte	0x2
 9154 28c5 7D       		.byte	0x7d
 9155 28c6 10       		.sleb128 16
 9156 28c7 01       		.byte	0x1
 9157 28c8 31       		.byte	0x31
 9158 28c9 2E       		.uleb128 0x2e
 9159 28ca 02       		.byte	0x2
 9160 28cb 7D       		.byte	0x7d
 9161 28cc 14       		.sleb128 20
 9162 28cd 01       		.byte	0x1
 9163 28ce 30       		.byte	0x30
 9164 28cf 2E       		.uleb128 0x2e
 9165 28d0 02       		.byte	0x2
 9166 28d1 7D       		.byte	0x7d
 9167 28d2 18       		.sleb128 24
 9168 28d3 01       		.byte	0x1
ARM GAS  C:\Users\EBANO_~1\AppData\Local\Temp\ccpYmjAB.s 			page 189


 9169 28d4 30       		.byte	0x30
 9170 28d5 2E       		.uleb128 0x2e
 9171 28d6 02       		.byte	0x2
 9172 28d7 7D       		.byte	0x7d
 9173 28d8 1C       		.sleb128 28
 9174 28d9 01       		.byte	0x1
 9175 28da 30       		.byte	0x30
 9176 28db 2E       		.uleb128 0x2e
 9177 28dc 02       		.byte	0x2
 9178 28dd 7D       		.byte	0x7d
 9179 28de 20       		.sleb128 32
 9180 28df 03       		.byte	0x3
 9181 28e0 0A       		.byte	0xa
 9182 28e1 B80B     		.2byte	0xbb8
 9183 28e3 00       		.byte	0
 9184 28e4 49       		.uleb128 0x49
 9185 28e5 C0000000 		.4byte	.LVL126
 9186 28e9 03       		.byte	0x3
 9187 28ea 91       		.byte	0x91
 9188 28eb 54       		.sleb128 -44
 9189 28ec 06       		.byte	0x6
 9190 28ed F8280000 		.4byte	0x28f8
 9191 28f1 2E       		.uleb128 0x2e
 9192 28f2 01       		.byte	0x1
 9193 28f3 50       		.byte	0x50
 9194 28f4 02       		.byte	0x2
 9195 28f5 76       		.byte	0x76
 9196 28f6 00       		.sleb128 0
 9197 28f7 00       		.byte	0
 9198 28f8 49       		.uleb128 0x49
 9199 28f9 CA000000 		.4byte	.LVL127
 9200 28fd 03       		.byte	0x3
 9201 28fe 91       		.byte	0x91
 9202 28ff 54       		.sleb128 -44
 9203 2900 06       		.byte	0x6
 9204 2901 0C290000 		.4byte	0x290c
 9205 2905 2E       		.uleb128 0x2e
 9206 2906 01       		.byte	0x1
 9207 2907 50       		.byte	0x50
 9208 2908 02       		.byte	0x2
 9209 2909 76       		.byte	0x76
 9210 290a 00       		.sleb128 0
 9211 290b 00       		.byte	0
 9212 290c 4A       		.uleb128 0x4a
 9213 290d 1A010000 		.4byte	.LVL136
 9214 2911 02       		.byte	0x2
 9215 2912 76       		.byte	0x76
 9216 2913 00       		.sleb128 0
 9217 2914 2E       		.uleb128 0x2e
 9218 2915 01       		.byte	0x1
 9219 2916 50       		.byte	0x50
 9220 2917 01       		.byte	0x1
 9221 2918 30       		.byte	0x30
 9222 2919 2E       		.uleb128 0x2e
 9223 291a 01       		.byte	0x1
 9224 291b 51       		.byte	0x51
 9225 291c 02       		.byte	0x2
ARM GAS  C:\Users\EBANO_~1\AppData\Local\Temp\ccpYmjAB.s 			page 190


 9226 291d 7B       		.byte	0x7b
 9227 291e 00       		.sleb128 0
 9228 291f 2E       		.uleb128 0x2e
 9229 2920 01       		.byte	0x1
 9230 2921 52       		.byte	0x52
 9231 2922 03       		.byte	0x3
 9232 2923 0A       		.byte	0xa
 9233 2924 A861     		.2byte	0x61a8
 9234 2926 2E       		.uleb128 0x2e
 9235 2927 01       		.byte	0x1
 9236 2928 53       		.byte	0x53
 9237 2929 02       		.byte	0x2
 9238 292a 7A       		.byte	0x7a
 9239 292b 00       		.sleb128 0
 9240 292c 2E       		.uleb128 0x2e
 9241 292d 02       		.byte	0x2
 9242 292e 7D       		.byte	0x7d
 9243 292f 04       		.sleb128 4
 9244 2930 01       		.byte	0x1
 9245 2931 30       		.byte	0x30
 9246 2932 2E       		.uleb128 0x2e
 9247 2933 02       		.byte	0x2
 9248 2934 7D       		.byte	0x7d
 9249 2935 08       		.sleb128 8
 9250 2936 01       		.byte	0x1
 9251 2937 35       		.byte	0x35
 9252 2938 2E       		.uleb128 0x2e
 9253 2939 02       		.byte	0x2
 9254 293a 7D       		.byte	0x7d
 9255 293b 0C       		.sleb128 12
 9256 293c 01       		.byte	0x1
 9257 293d 30       		.byte	0x30
 9258 293e 2E       		.uleb128 0x2e
 9259 293f 02       		.byte	0x2
 9260 2940 7D       		.byte	0x7d
 9261 2941 10       		.sleb128 16
 9262 2942 01       		.byte	0x1
 9263 2943 31       		.byte	0x31
 9264 2944 2E       		.uleb128 0x2e
 9265 2945 02       		.byte	0x2
 9266 2946 7D       		.byte	0x7d
 9267 2947 14       		.sleb128 20
 9268 2948 01       		.byte	0x1
 9269 2949 30       		.byte	0x30
 9270 294a 2E       		.uleb128 0x2e
 9271 294b 02       		.byte	0x2
 9272 294c 7D       		.byte	0x7d
 9273 294d 18       		.sleb128 24
 9274 294e 01       		.byte	0x1
 9275 294f 30       		.byte	0x30
 9276 2950 2E       		.uleb128 0x2e
 9277 2951 02       		.byte	0x2
 9278 2952 7D       		.byte	0x7d
 9279 2953 1C       		.sleb128 28
 9280 2954 01       		.byte	0x1
 9281 2955 30       		.byte	0x30
 9282 2956 2E       		.uleb128 0x2e
ARM GAS  C:\Users\EBANO_~1\AppData\Local\Temp\ccpYmjAB.s 			page 191


 9283 2957 02       		.byte	0x2
 9284 2958 7D       		.byte	0x7d
 9285 2959 20       		.sleb128 32
 9286 295a 03       		.byte	0x3
 9287 295b 0A       		.byte	0xa
 9288 295c B80B     		.2byte	0xbb8
 9289 295e 00       		.byte	0
 9290 295f 00       		.byte	0
 9291 2960 0A       		.uleb128 0xa
 9292 2961 04       		.byte	0x4
 9293 2962 C5170000 		.4byte	0x17c5
 9294 2966 3F       		.uleb128 0x3f
 9295 2967 01       		.byte	0x1
 9296 2968 F4100000 		.4byte	.LASF502
 9297 296c 01       		.byte	0x1
 9298 296d 1102     		.2byte	0x211
 9299 296f 01       		.byte	0x1
 9300 2970 150B0000 		.4byte	0xb15
 9301 2974 00000000 		.4byte	.LFB52
 9302 2978 0C010000 		.4byte	.LFE52
 9303 297c A60F0000 		.4byte	.LLST30
 9304 2980 01       		.byte	0x1
 9305 2981 C52A0000 		.4byte	0x2ac5
 9306 2985 2C       		.uleb128 0x2c
 9307 2986 FB190000 		.4byte	.LASF503
 9308 298a 01       		.byte	0x1
 9309 298b 1102     		.2byte	0x211
 9310 298d C52A0000 		.4byte	0x2ac5
 9311 2991 DF0F0000 		.4byte	.LLST31
 9312 2995 2C       		.uleb128 0x2c
 9313 2996 D7040000 		.4byte	.LASF444
 9314 299a 01       		.byte	0x1
 9315 299b 1102     		.2byte	0x211
 9316 299d 70270000 		.4byte	0x2770
 9317 29a1 16100000 		.4byte	.LLST32
 9318 29a5 33       		.uleb128 0x33
 9319 29a6 EF1D0000 		.4byte	.LASF499
 9320 29aa 01       		.byte	0x1
 9321 29ab 1302     		.2byte	0x213
 9322 29ad D20B0000 		.4byte	0xbd2
 9323 29b1 4D100000 		.4byte	.LLST33
 9324 29b5 48       		.uleb128 0x48
 9325 29b6 647200   		.ascii	"dr\000"
 9326 29b9 01       		.byte	0x1
 9327 29ba 1402     		.2byte	0x214
 9328 29bc B1000000 		.4byte	0xb1
 9329 29c0 83100000 		.4byte	.LLST34
 9330 29c4 33       		.uleb128 0x33
 9331 29c5 18140000 		.4byte	.LASF504
 9332 29c9 01       		.byte	0x1
 9333 29ca 1502     		.2byte	0x215
 9334 29cc BC000000 		.4byte	0xbc
 9335 29d0 A1100000 		.4byte	.LLST35
 9336 29d4 33       		.uleb128 0x33
 9337 29d5 A1040000 		.4byte	.LASF500
 9338 29d9 01       		.byte	0x1
 9339 29da 1602     		.2byte	0x216
ARM GAS  C:\Users\EBANO_~1\AppData\Local\Temp\ccpYmjAB.s 			page 192


 9340 29dc B1000000 		.4byte	0xb1
 9341 29e0 E3100000 		.4byte	.LLST36
 9342 29e4 33       		.uleb128 0x33
 9343 29e5 12200000 		.4byte	.LASF449
 9344 29e9 01       		.byte	0x1
 9345 29ea 1702     		.2byte	0x217
 9346 29ec ED000000 		.4byte	0xed
 9347 29f0 19110000 		.4byte	.LLST37
 9348 29f4 46       		.uleb128 0x46
 9349 29f5 20000000 		.4byte	.LVL88
 9350 29f9 03       		.byte	0x3
 9351 29fa 75       		.byte	0x75
 9352 29fb 0C       		.sleb128 12
 9353 29fc 06       		.byte	0x6
 9354 29fd 49       		.uleb128 0x49
 9355 29fe 54000000 		.4byte	.LVL92
 9356 2a02 03       		.byte	0x3
 9357 2a03 91       		.byte	0x91
 9358 2a04 5C       		.sleb128 -36
 9359 2a05 06       		.byte	0x6
 9360 2a06 112A0000 		.4byte	0x2a11
 9361 2a0a 2E       		.uleb128 0x2e
 9362 2a0b 01       		.byte	0x1
 9363 2a0c 50       		.byte	0x50
 9364 2a0d 02       		.byte	0x2
 9365 2a0e 78       		.byte	0x78
 9366 2a0f 00       		.sleb128 0
 9367 2a10 00       		.byte	0
 9368 2a11 49       		.uleb128 0x49
 9369 2a12 86000000 		.4byte	.LVL94
 9370 2a16 02       		.byte	0x2
 9371 2a17 77       		.byte	0x77
 9372 2a18 00       		.sleb128 0
 9373 2a19 5E2A0000 		.4byte	0x2a5e
 9374 2a1d 2E       		.uleb128 0x2e
 9375 2a1e 01       		.byte	0x1
 9376 2a1f 50       		.byte	0x50
 9377 2a20 01       		.byte	0x1
 9378 2a21 31       		.byte	0x31
 9379 2a22 2E       		.uleb128 0x2e
 9380 2a23 01       		.byte	0x1
 9381 2a24 52       		.byte	0x52
 9382 2a25 02       		.byte	0x2
 9383 2a26 79       		.byte	0x79
 9384 2a27 00       		.sleb128 0
 9385 2a28 2E       		.uleb128 0x2e
 9386 2a29 01       		.byte	0x1
 9387 2a2a 53       		.byte	0x53
 9388 2a2b 01       		.byte	0x1
 9389 2a2c 31       		.byte	0x31
 9390 2a2d 2E       		.uleb128 0x2e
 9391 2a2e 02       		.byte	0x2
 9392 2a2f 7D       		.byte	0x7d
 9393 2a30 00       		.sleb128 0
 9394 2a31 01       		.byte	0x1
 9395 2a32 30       		.byte	0x30
 9396 2a33 2E       		.uleb128 0x2e
ARM GAS  C:\Users\EBANO_~1\AppData\Local\Temp\ccpYmjAB.s 			page 193


 9397 2a34 02       		.byte	0x2
 9398 2a35 7D       		.byte	0x7d
 9399 2a36 04       		.sleb128 4
 9400 2a37 01       		.byte	0x1
 9401 2a38 38       		.byte	0x38
 9402 2a39 2E       		.uleb128 0x2e
 9403 2a3a 02       		.byte	0x2
 9404 2a3b 7D       		.byte	0x7d
 9405 2a3c 0C       		.sleb128 12
 9406 2a3d 01       		.byte	0x1
 9407 2a3e 30       		.byte	0x30
 9408 2a3f 2E       		.uleb128 0x2e
 9409 2a40 02       		.byte	0x2
 9410 2a41 7D       		.byte	0x7d
 9411 2a42 10       		.sleb128 16
 9412 2a43 01       		.byte	0x1
 9413 2a44 30       		.byte	0x30
 9414 2a45 2E       		.uleb128 0x2e
 9415 2a46 02       		.byte	0x2
 9416 2a47 7D       		.byte	0x7d
 9417 2a48 14       		.sleb128 20
 9418 2a49 01       		.byte	0x1
 9419 2a4a 30       		.byte	0x30
 9420 2a4b 2E       		.uleb128 0x2e
 9421 2a4c 02       		.byte	0x2
 9422 2a4d 7D       		.byte	0x7d
 9423 2a4e 18       		.sleb128 24
 9424 2a4f 01       		.byte	0x1
 9425 2a50 30       		.byte	0x30
 9426 2a51 2E       		.uleb128 0x2e
 9427 2a52 02       		.byte	0x2
 9428 2a53 7D       		.byte	0x7d
 9429 2a54 1C       		.sleb128 28
 9430 2a55 01       		.byte	0x1
 9431 2a56 30       		.byte	0x30
 9432 2a57 2E       		.uleb128 0x2e
 9433 2a58 02       		.byte	0x2
 9434 2a59 7D       		.byte	0x7d
 9435 2a5a 20       		.sleb128 32
 9436 2a5b 01       		.byte	0x1
 9437 2a5c 31       		.byte	0x31
 9438 2a5d 00       		.byte	0
 9439 2a5e 46       		.uleb128 0x46
 9440 2a5f 9E000000 		.4byte	.LVL98
 9441 2a63 03       		.byte	0x3
 9442 2a64 91       		.byte	0x91
 9443 2a65 5C       		.sleb128 -36
 9444 2a66 06       		.byte	0x6
 9445 2a67 3B       		.uleb128 0x3b
 9446 2a68 EC000000 		.4byte	.LVL107
 9447 2a6c 2E       		.uleb128 0x2e
 9448 2a6d 01       		.byte	0x1
 9449 2a6e 50       		.byte	0x50
 9450 2a6f 01       		.byte	0x1
 9451 2a70 30       		.byte	0x30
 9452 2a71 2E       		.uleb128 0x2e
 9453 2a72 01       		.byte	0x1
ARM GAS  C:\Users\EBANO_~1\AppData\Local\Temp\ccpYmjAB.s 			page 194


 9454 2a73 51       		.byte	0x51
 9455 2a74 03       		.byte	0x3
 9456 2a75 0A       		.byte	0xa
 9457 2a76 50C3     		.2byte	0xc350
 9458 2a78 2E       		.uleb128 0x2e
 9459 2a79 01       		.byte	0x1
 9460 2a7a 52       		.byte	0x52
 9461 2a7b 0E       		.byte	0xe
 9462 2a7c 79       		.byte	0x79
 9463 2a7d 00       		.sleb128 0
 9464 2a7e 35       		.byte	0x35
 9465 2a7f 24       		.byte	0x24
 9466 2a80 79       		.byte	0x79
 9467 2a81 00       		.sleb128 0
 9468 2a82 1C       		.byte	0x1c
 9469 2a83 32       		.byte	0x32
 9470 2a84 24       		.byte	0x24
 9471 2a85 79       		.byte	0x79
 9472 2a86 00       		.sleb128 0
 9473 2a87 22       		.byte	0x22
 9474 2a88 33       		.byte	0x33
 9475 2a89 24       		.byte	0x24
 9476 2a8a 2E       		.uleb128 0x2e
 9477 2a8b 01       		.byte	0x1
 9478 2a8c 53       		.byte	0x53
 9479 2a8d 01       		.byte	0x1
 9480 2a8e 30       		.byte	0x30
 9481 2a8f 2E       		.uleb128 0x2e
 9482 2a90 02       		.byte	0x2
 9483 2a91 7D       		.byte	0x7d
 9484 2a92 00       		.sleb128 0
 9485 2a93 05       		.byte	0x5
 9486 2a94 0C       		.byte	0xc
 9487 2a95 85450100 		.4byte	0x14585
 9488 2a99 2E       		.uleb128 0x2e
 9489 2a9a 02       		.byte	0x2
 9490 2a9b 7D       		.byte	0x7d
 9491 2a9c 04       		.sleb128 4
 9492 2a9d 01       		.byte	0x1
 9493 2a9e 35       		.byte	0x35
 9494 2a9f 2E       		.uleb128 0x2e
 9495 2aa0 02       		.byte	0x2
 9496 2aa1 7D       		.byte	0x7d
 9497 2aa2 0C       		.sleb128 12
 9498 2aa3 01       		.byte	0x1
 9499 2aa4 30       		.byte	0x30
 9500 2aa5 2E       		.uleb128 0x2e
 9501 2aa6 02       		.byte	0x2
 9502 2aa7 7D       		.byte	0x7d
 9503 2aa8 10       		.sleb128 16
 9504 2aa9 01       		.byte	0x1
 9505 2aaa 30       		.byte	0x30
 9506 2aab 2E       		.uleb128 0x2e
 9507 2aac 02       		.byte	0x2
 9508 2aad 7D       		.byte	0x7d
 9509 2aae 14       		.sleb128 20
 9510 2aaf 01       		.byte	0x1
ARM GAS  C:\Users\EBANO_~1\AppData\Local\Temp\ccpYmjAB.s 			page 195


 9511 2ab0 31       		.byte	0x31
 9512 2ab1 2E       		.uleb128 0x2e
 9513 2ab2 02       		.byte	0x2
 9514 2ab3 7D       		.byte	0x7d
 9515 2ab4 18       		.sleb128 24
 9516 2ab5 01       		.byte	0x1
 9517 2ab6 30       		.byte	0x30
 9518 2ab7 2E       		.uleb128 0x2e
 9519 2ab8 02       		.byte	0x2
 9520 2ab9 7D       		.byte	0x7d
 9521 2aba 1C       		.sleb128 28
 9522 2abb 01       		.byte	0x1
 9523 2abc 30       		.byte	0x30
 9524 2abd 2E       		.uleb128 0x2e
 9525 2abe 02       		.byte	0x2
 9526 2abf 7D       		.byte	0x7d
 9527 2ac0 20       		.sleb128 32
 9528 2ac1 01       		.byte	0x1
 9529 2ac2 30       		.byte	0x30
 9530 2ac3 00       		.byte	0
 9531 2ac4 00       		.byte	0
 9532 2ac5 0A       		.uleb128 0xa
 9533 2ac6 04       		.byte	0x4
 9534 2ac7 51170000 		.4byte	0x1751
 9535 2acb 2B       		.uleb128 0x2b
 9536 2acc 01       		.byte	0x1
 9537 2acd 16120000 		.4byte	.LASF505
 9538 2ad1 01       		.byte	0x1
 9539 2ad2 FD01     		.2byte	0x1fd
 9540 2ad4 01       		.byte	0x1
 9541 2ad5 00000000 		.4byte	.LFB51
 9542 2ad9 94000000 		.4byte	.LFE51
 9543 2add 58110000 		.4byte	.LLST24
 9544 2ae1 01       		.byte	0x1
 9545 2ae2 B92B0000 		.4byte	0x2bb9
 9546 2ae6 2C       		.uleb128 0x2c
 9547 2ae7 D7040000 		.4byte	.LASF444
 9548 2aeb 01       		.byte	0x1
 9549 2aec FD01     		.2byte	0x1fd
 9550 2aee B1000000 		.4byte	0xb1
 9551 2af2 90110000 		.4byte	.LLST25
 9552 2af6 2C       		.uleb128 0x2c
 9553 2af7 C4140000 		.4byte	.LASF506
 9554 2afb 01       		.byte	0x1
 9555 2afc FD01     		.2byte	0x1fd
 9556 2afe BC000000 		.4byte	0xbc
 9557 2b02 CA110000 		.4byte	.LLST26
 9558 2b06 2C       		.uleb128 0x2c
 9559 2b07 1D190000 		.4byte	.LASF507
 9560 2b0b 01       		.byte	0x1
 9561 2b0c FD01     		.2byte	0x1fd
 9562 2b0e ED000000 		.4byte	0xed
 9563 2b12 EB110000 		.4byte	.LLST27
 9564 2b16 2C       		.uleb128 0x2c
 9565 2b17 D5090000 		.4byte	.LASF508
 9566 2b1b 01       		.byte	0x1
 9567 2b1c FD01     		.2byte	0x1fd
ARM GAS  C:\Users\EBANO_~1\AppData\Local\Temp\ccpYmjAB.s 			page 196


 9568 2b1e C52A0000 		.4byte	0x2ac5
 9569 2b22 22120000 		.4byte	.LLST28
 9570 2b26 33       		.uleb128 0x33
 9571 2b27 2F1A0000 		.4byte	.LASF509
 9572 2b2b 01       		.byte	0x1
 9573 2b2c FF01     		.2byte	0x1ff
 9574 2b2e B92B0000 		.4byte	0x2bb9
 9575 2b32 8E120000 		.4byte	.LLST29
 9576 2b36 34       		.uleb128 0x34
 9577 2b37 8C300000 		.4byte	0x308c
 9578 2b3b 18000000 		.4byte	.LBB48
 9579 2b3f 60000000 		.4byte	.Ldebug_ranges0+0x60
 9580 2b43 01       		.byte	0x1
 9581 2b44 0302     		.2byte	0x203
 9582 2b46 502B0000 		.4byte	0x2b50
 9583 2b4a 37       		.uleb128 0x37
 9584 2b4b 9D300000 		.4byte	0x309d
 9585 2b4f 00       		.byte	0
 9586 2b50 42       		.uleb128 0x42
 9587 2b51 44000000 		.4byte	.LVL72
 9588 2b55 3A330000 		.4byte	0x333a
 9589 2b59 7B2B0000 		.4byte	0x2b7b
 9590 2b5d 2E       		.uleb128 0x2e
 9591 2b5e 01       		.byte	0x1
 9592 2b5f 50       		.byte	0x50
 9593 2b60 0A       		.byte	0xa
 9594 2b61 76       		.byte	0x76
 9595 2b62 00       		.sleb128 0
 9596 2b63 03       		.byte	0x3
 9597 2b64 F8000000 		.4byte	.LANCHOR1+32
 9598 2b68 22       		.byte	0x22
 9599 2b69 94       		.byte	0x94
 9600 2b6a 01       		.byte	0x1
 9601 2b6b 2E       		.uleb128 0x2e
 9602 2b6c 01       		.byte	0x1
 9603 2b6d 51       		.byte	0x51
 9604 2b6e 0B       		.byte	0xb
 9605 2b6f 76       		.byte	0x76
 9606 2b70 00       		.sleb128 0
 9607 2b71 32       		.byte	0x32
 9608 2b72 24       		.byte	0x24
 9609 2b73 03       		.byte	0x3
 9610 2b74 D8000000 		.4byte	.LANCHOR1
 9611 2b78 22       		.byte	0x22
 9612 2b79 06       		.byte	0x6
 9613 2b7a 00       		.byte	0
 9614 2b7b 4B       		.uleb128 0x4b
 9615 2b7c 50000000 		.4byte	.LVL74
 9616 2b80 42       		.uleb128 0x42
 9617 2b81 68000000 		.4byte	.LVL78
 9618 2b85 48330000 		.4byte	0x3348
 9619 2b89 A82B0000 		.4byte	0x2ba8
 9620 2b8d 2E       		.uleb128 0x2e
 9621 2b8e 01       		.byte	0x1
 9622 2b8f 52       		.byte	0x52
 9623 2b90 02       		.byte	0x2
 9624 2b91 75       		.byte	0x75
ARM GAS  C:\Users\EBANO_~1\AppData\Local\Temp\ccpYmjAB.s 			page 197


 9625 2b92 00       		.sleb128 0
 9626 2b93 2E       		.uleb128 0x2e
 9627 2b94 01       		.byte	0x1
 9628 2b95 53       		.byte	0x53
 9629 2b96 02       		.byte	0x2
 9630 2b97 78       		.byte	0x78
 9631 2b98 00       		.sleb128 0
 9632 2b99 2E       		.uleb128 0x2e
 9633 2b9a 02       		.byte	0x2
 9634 2b9b 7D       		.byte	0x7d
 9635 2b9c 04       		.sleb128 4
 9636 2b9d 02       		.byte	0x2
 9637 2b9e 74       		.byte	0x74
 9638 2b9f 00       		.sleb128 0
 9639 2ba0 2E       		.uleb128 0x2e
 9640 2ba1 02       		.byte	0x2
 9641 2ba2 7D       		.byte	0x7d
 9642 2ba3 08       		.sleb128 8
 9643 2ba4 02       		.byte	0x2
 9644 2ba5 74       		.byte	0x74
 9645 2ba6 04       		.sleb128 4
 9646 2ba7 00       		.byte	0
 9647 2ba8 2D       		.uleb128 0x2d
 9648 2ba9 7E000000 		.4byte	.LVL84
 9649 2bad 56330000 		.4byte	0x3356
 9650 2bb1 2E       		.uleb128 0x2e
 9651 2bb2 01       		.byte	0x1
 9652 2bb3 50       		.byte	0x50
 9653 2bb4 02       		.byte	0x2
 9654 2bb5 08       		.byte	0x8
 9655 2bb6 32       		.byte	0x32
 9656 2bb7 00       		.byte	0
 9657 2bb8 00       		.byte	0
 9658 2bb9 02       		.uleb128 0x2
 9659 2bba 08       		.byte	0x8
 9660 2bbb 04       		.byte	0x4
 9661 2bbc B1190000 		.4byte	.LASF510
 9662 2bc0 3F       		.uleb128 0x3f
 9663 2bc1 01       		.byte	0x1
 9664 2bc2 F6070000 		.4byte	.LASF511
 9665 2bc6 01       		.byte	0x1
 9666 2bc7 E901     		.2byte	0x1e9
 9667 2bc9 01       		.byte	0x1
 9668 2bca 150B0000 		.4byte	0xb15
 9669 2bce 00000000 		.4byte	.LFB50
 9670 2bd2 34000000 		.4byte	.LFE50
 9671 2bd6 DE120000 		.4byte	.LLST22
 9672 2bda 01       		.byte	0x1
 9673 2bdb 242C0000 		.4byte	0x2c24
 9674 2bdf 2C       		.uleb128 0x2c
 9675 2be0 D3000000 		.4byte	.LASF512
 9676 2be4 01       		.byte	0x1
 9677 2be5 E901     		.2byte	0x1e9
 9678 2be7 242C0000 		.4byte	0x2c24
 9679 2beb FE120000 		.4byte	.LLST23
 9680 2bef 42       		.uleb128 0x42
 9681 2bf0 1A000000 		.4byte	.LVL62
ARM GAS  C:\Users\EBANO_~1\AppData\Local\Temp\ccpYmjAB.s 			page 198


 9682 2bf4 64330000 		.4byte	0x3364
 9683 2bf8 0B2C0000 		.4byte	0x2c0b
 9684 2bfc 2E       		.uleb128 0x2e
 9685 2bfd 01       		.byte	0x1
 9686 2bfe 50       		.byte	0x50
 9687 2bff 05       		.byte	0x5
 9688 2c00 03       		.byte	0x3
 9689 2c01 D2000000 		.4byte	NvmCtx+210
 9690 2c05 2E       		.uleb128 0x2e
 9691 2c06 01       		.byte	0x1
 9692 2c07 52       		.byte	0x52
 9693 2c08 01       		.byte	0x1
 9694 2c09 31       		.byte	0x31
 9695 2c0a 00       		.byte	0
 9696 2c0b 2D       		.uleb128 0x2d
 9697 2c0c 28000000 		.4byte	.LVL65
 9698 2c10 64330000 		.4byte	0x3364
 9699 2c14 2E       		.uleb128 0x2e
 9700 2c15 01       		.byte	0x1
 9701 2c16 50       		.byte	0x50
 9702 2c17 05       		.byte	0x5
 9703 2c18 03       		.byte	0x3
 9704 2c19 D0000000 		.4byte	NvmCtx+208
 9705 2c1d 2E       		.uleb128 0x2e
 9706 2c1e 01       		.byte	0x1
 9707 2c1f 52       		.byte	0x52
 9708 2c20 01       		.byte	0x1
 9709 2c21 31       		.byte	0x31
 9710 2c22 00       		.byte	0
 9711 2c23 00       		.byte	0
 9712 2c24 0A       		.uleb128 0xa
 9713 2c25 04       		.byte	0x4
 9714 2c26 92160000 		.4byte	0x1692
 9715 2c2a 2B       		.uleb128 0x2b
 9716 2c2b 01       		.byte	0x1
 9717 2c2c 4F0E0000 		.4byte	.LASF513
 9718 2c30 01       		.byte	0x1
 9719 2c31 AE01     		.2byte	0x1ae
 9720 2c33 01       		.byte	0x1
 9721 2c34 00000000 		.4byte	.LFB49
 9722 2c38 44010000 		.4byte	.LFE49
 9723 2c3c 51130000 		.4byte	.LLST13
 9724 2c40 01       		.byte	0x1
 9725 2c41 E32D0000 		.4byte	0x2de3
 9726 2c45 2C       		.uleb128 0x2c
 9727 2c46 9F050000 		.4byte	.LASF514
 9728 2c4a 01       		.byte	0x1
 9729 2c4b AE01     		.2byte	0x1ae
 9730 2c4d E32D0000 		.4byte	0x2de3
 9731 2c51 8A130000 		.4byte	.LLST14
 9732 2c55 29       		.uleb128 0x29
 9733 2c56 77190000 		.4byte	.LASF515
 9734 2c5a 01       		.byte	0x1
 9735 2c5b B001     		.2byte	0x1b0
 9736 2c5d 41110000 		.4byte	0x1141
 9737 2c61 02       		.byte	0x2
 9738 2c62 91       		.byte	0x91
ARM GAS  C:\Users\EBANO_~1\AppData\Local\Temp\ccpYmjAB.s 			page 199


 9739 2c63 4C       		.sleb128 -52
 9740 2c64 32       		.uleb128 0x32
 9741 2c65 A4130000 		.4byte	.LASF454
 9742 2c69 01       		.byte	0x1
 9743 2c6a B101     		.2byte	0x1b1
 9744 2c6c 911A0000 		.4byte	0x1a91
 9745 2c70 32       		.uleb128 0x32
 9746 2c71 E71F0000 		.4byte	.LASF453
 9747 2c75 01       		.byte	0x1
 9748 2c76 B201     		.2byte	0x1b2
 9749 2c78 BA1A0000 		.4byte	0x1aba
 9750 2c7c 38       		.uleb128 0x38
 9751 2c7d 00000000 		.4byte	.Ldebug_ranges0+0
 9752 2c81 48       		.uleb128 0x48
 9753 2c82 6900     		.ascii	"i\000"
 9754 2c84 01       		.byte	0x1
 9755 2c85 C401     		.2byte	0x1c4
 9756 2c87 BC000000 		.4byte	0xbc
 9757 2c8b CC130000 		.4byte	.LLST15
 9758 2c8f 33       		.uleb128 0x33
 9759 2c90 C1030000 		.4byte	.LASF516
 9760 2c94 01       		.byte	0x1
 9761 2c95 C401     		.2byte	0x1c4
 9762 2c97 BC000000 		.4byte	0xbc
 9763 2c9b FB130000 		.4byte	.LLST16
 9764 2c9f 34       		.uleb128 0x34
 9765 2ca0 4F200000 		.4byte	0x204f
 9766 2ca4 32000000 		.4byte	.LBB32
 9767 2ca8 20000000 		.4byte	.Ldebug_ranges0+0x20
 9768 2cac 01       		.byte	0x1
 9769 2cad E401     		.2byte	0x1e4
 9770 2caf 122D0000 		.4byte	0x2d12
 9771 2cb3 35       		.uleb128 0x35
 9772 2cb4 62200000 		.4byte	0x2062
 9773 2cb8 47140000 		.4byte	.LLST17
 9774 2cbc 38       		.uleb128 0x38
 9775 2cbd 20000000 		.4byte	.Ldebug_ranges0+0x20
 9776 2cc1 40       		.uleb128 0x40
 9777 2cc2 6E200000 		.4byte	0x206e
 9778 2cc6 5F140000 		.4byte	.LLST18
 9779 2cca 42       		.uleb128 0x42
 9780 2ccb 58000000 		.4byte	.LVL42
 9781 2ccf A1320000 		.4byte	0x32a1
 9782 2cd3 F22C0000 		.4byte	0x2cf2
 9783 2cd7 2E       		.uleb128 0x2e
 9784 2cd8 01       		.byte	0x1
 9785 2cd9 50       		.byte	0x50
 9786 2cda 0C       		.byte	0xc
 9787 2cdb 75       		.byte	0x75
 9788 2cdc 00       		.sleb128 0
 9789 2cdd 31       		.byte	0x31
 9790 2cde 24       		.byte	0x24
 9791 2cdf 75       		.byte	0x75
 9792 2ce0 00       		.sleb128 0
 9793 2ce1 22       		.byte	0x22
 9794 2ce2 32       		.byte	0x32
 9795 2ce3 24       		.byte	0x24
ARM GAS  C:\Users\EBANO_~1\AppData\Local\Temp\ccpYmjAB.s 			page 200


 9796 2ce4 79       		.byte	0x79
 9797 2ce5 00       		.sleb128 0
 9798 2ce6 22       		.byte	0x22
 9799 2ce7 2E       		.uleb128 0x2e
 9800 2ce8 01       		.byte	0x1
 9801 2ce9 51       		.byte	0x51
 9802 2cea 01       		.byte	0x1
 9803 2ceb 30       		.byte	0x30
 9804 2cec 2E       		.uleb128 0x2e
 9805 2ced 01       		.byte	0x1
 9806 2cee 52       		.byte	0x52
 9807 2cef 01       		.byte	0x1
 9808 2cf0 3C       		.byte	0x3c
 9809 2cf1 00       		.byte	0
 9810 2cf2 2D       		.uleb128 0x2d
 9811 2cf3 62000000 		.4byte	.LVL43
 9812 2cf7 F6320000 		.4byte	0x32f6
 9813 2cfb 2E       		.uleb128 0x2e
 9814 2cfc 01       		.byte	0x1
 9815 2cfd 50       		.byte	0x50
 9816 2cfe 05       		.byte	0x5
 9817 2cff 03       		.byte	0x3
 9818 2d00 D0000000 		.4byte	NvmCtx+208
 9819 2d04 2E       		.uleb128 0x2e
 9820 2d05 01       		.byte	0x1
 9821 2d06 51       		.byte	0x51
 9822 2d07 02       		.byte	0x2
 9823 2d08 78       		.byte	0x78
 9824 2d09 00       		.sleb128 0
 9825 2d0a 2E       		.uleb128 0x2e
 9826 2d0b 01       		.byte	0x1
 9827 2d0c 52       		.byte	0x52
 9828 2d0d 01       		.byte	0x1
 9829 2d0e 40       		.byte	0x40
 9830 2d0f 00       		.byte	0
 9831 2d10 00       		.byte	0
 9832 2d11 00       		.byte	0
 9833 2d12 4C       		.uleb128 0x4c
 9834 2d13 80200000 		.4byte	0x2080
 9835 2d17 98000000 		.4byte	.LBB38
 9836 2d1b 44010000 		.4byte	.LBE38
 9837 2d1f 01       		.byte	0x1
 9838 2d20 DE01     		.2byte	0x1de
 9839 2d22 36       		.uleb128 0x36
 9840 2d23 93200000 		.4byte	0x2093
 9841 2d27 06       		.byte	0x6
 9842 2d28 F2       		.byte	0xf2
 9843 2d29 642C0000 		.4byte	.Ldebug_info0+11364
 9844 2d2d 00       		.sleb128 0
 9845 2d2e 4D       		.uleb128 0x4d
 9846 2d2f 98000000 		.4byte	.LBB39
 9847 2d33 44010000 		.4byte	.LBE39
 9848 2d37 40       		.uleb128 0x40
 9849 2d38 9F200000 		.4byte	0x209f
 9850 2d3c 72140000 		.4byte	.LLST19
 9851 2d40 4E       		.uleb128 0x4e
 9852 2d41 AB200000 		.4byte	0x20ab
ARM GAS  C:\Users\EBANO_~1\AppData\Local\Temp\ccpYmjAB.s 			page 201


 9853 2d45 00       		.byte	0
 9854 2d46 40       		.uleb128 0x40
 9855 2d47 B7200000 		.4byte	0x20b7
 9856 2d4b AE140000 		.4byte	.LLST20
 9857 2d4f 34       		.uleb128 0x34
 9858 2d50 26300000 		.4byte	0x3026
 9859 2d54 D0000000 		.4byte	.LBB40
 9860 2d58 40000000 		.4byte	.Ldebug_ranges0+0x40
 9861 2d5c 01       		.byte	0x1
 9862 2d5d AD03     		.2byte	0x3ad
 9863 2d5f 8A2D0000 		.4byte	0x2d8a
 9864 2d63 35       		.uleb128 0x35
 9865 2d64 37300000 		.4byte	0x3037
 9866 2d68 CC140000 		.4byte	.LLST21
 9867 2d6c 49       		.uleb128 0x49
 9868 2d6d E6000000 		.4byte	.LVL54
 9869 2d71 03       		.byte	0x3
 9870 2d72 7B       		.byte	0x7b
 9871 2d73 28       		.sleb128 40
 9872 2d74 06       		.byte	0x6
 9873 2d75 802D0000 		.4byte	0x2d80
 9874 2d79 2E       		.uleb128 0x2e
 9875 2d7a 01       		.byte	0x1
 9876 2d7b 50       		.byte	0x50
 9877 2d7c 02       		.byte	0x2
 9878 2d7d 78       		.byte	0x78
 9879 2d7e 00       		.sleb128 0
 9880 2d7f 00       		.byte	0
 9881 2d80 46       		.uleb128 0x46
 9882 2d81 2E010000 		.4byte	.LVL57
 9883 2d85 03       		.byte	0x3
 9884 2d86 91       		.byte	0x91
 9885 2d87 44       		.sleb128 -60
 9886 2d88 06       		.byte	0x6
 9887 2d89 00       		.byte	0
 9888 2d8a 42       		.uleb128 0x42
 9889 2d8b A6000000 		.4byte	.LVL49
 9890 2d8f 94320000 		.4byte	0x3294
 9891 2d93 A22D0000 		.4byte	0x2da2
 9892 2d97 2E       		.uleb128 0x2e
 9893 2d98 01       		.byte	0x1
 9894 2d99 51       		.byte	0x51
 9895 2d9a 01       		.byte	0x1
 9896 2d9b 30       		.byte	0x30
 9897 2d9c 2E       		.uleb128 0x2e
 9898 2d9d 01       		.byte	0x1
 9899 2d9e 52       		.byte	0x52
 9900 2d9f 01       		.byte	0x1
 9901 2da0 37       		.byte	0x37
 9902 2da1 00       		.byte	0
 9903 2da2 42       		.uleb128 0x42
 9904 2da3 B6000000 		.4byte	.LVL51
 9905 2da7 94320000 		.4byte	0x3294
 9906 2dab BA2D0000 		.4byte	0x2dba
 9907 2daf 2E       		.uleb128 0x2e
 9908 2db0 01       		.byte	0x1
 9909 2db1 51       		.byte	0x51
ARM GAS  C:\Users\EBANO_~1\AppData\Local\Temp\ccpYmjAB.s 			page 202


 9910 2db2 01       		.byte	0x1
 9911 2db3 30       		.byte	0x30
 9912 2db4 2E       		.uleb128 0x2e
 9913 2db5 01       		.byte	0x1
 9914 2db6 52       		.byte	0x52
 9915 2db7 01       		.byte	0x1
 9916 2db8 37       		.byte	0x37
 9917 2db9 00       		.byte	0
 9918 2dba 2D       		.uleb128 0x2d
 9919 2dbb 0E010000 		.4byte	.LVL55
 9920 2dbf 04330000 		.4byte	0x3304
 9921 2dc3 2E       		.uleb128 0x2e
 9922 2dc4 01       		.byte	0x1
 9923 2dc5 50       		.byte	0x50
 9924 2dc6 0C       		.byte	0xc
 9925 2dc7 75       		.byte	0x75
 9926 2dc8 00       		.sleb128 0
 9927 2dc9 31       		.byte	0x31
 9928 2dca 24       		.byte	0x24
 9929 2dcb 75       		.byte	0x75
 9930 2dcc 00       		.sleb128 0
 9931 2dcd 22       		.byte	0x22
 9932 2dce 32       		.byte	0x32
 9933 2dcf 24       		.byte	0x24
 9934 2dd0 78       		.byte	0x78
 9935 2dd1 00       		.sleb128 0
 9936 2dd2 22       		.byte	0x22
 9937 2dd3 2E       		.uleb128 0x2e
 9938 2dd4 01       		.byte	0x1
 9939 2dd5 51       		.byte	0x51
 9940 2dd6 02       		.byte	0x2
 9941 2dd7 74       		.byte	0x74
 9942 2dd8 00       		.sleb128 0
 9943 2dd9 2E       		.uleb128 0x2e
 9944 2dda 01       		.byte	0x1
 9945 2ddb 52       		.byte	0x52
 9946 2ddc 01       		.byte	0x1
 9947 2ddd 3C       		.byte	0x3c
 9948 2dde 00       		.byte	0
 9949 2ddf 00       		.byte	0
 9950 2de0 00       		.byte	0
 9951 2de1 00       		.byte	0
 9952 2de2 00       		.byte	0
 9953 2de3 0A       		.uleb128 0xa
 9954 2de4 04       		.byte	0x4
 9955 2de5 5A160000 		.4byte	0x165a
 9956 2de9 3F       		.uleb128 0x3f
 9957 2dea 01       		.byte	0x1
 9958 2deb 11010000 		.4byte	.LASF517
 9959 2def 01       		.byte	0x1
 9960 2df0 8F01     		.2byte	0x18f
 9961 2df2 01       		.byte	0x1
 9962 2df3 150B0000 		.4byte	0xb15
 9963 2df7 00000000 		.4byte	.LFB48
 9964 2dfb 48000000 		.4byte	.LFE48
 9965 2dff EC140000 		.4byte	.LLST10
 9966 2e03 01       		.byte	0x1
ARM GAS  C:\Users\EBANO_~1\AppData\Local\Temp\ccpYmjAB.s 			page 203


 9967 2e04 552E0000 		.4byte	0x2e55
 9968 2e08 2C       		.uleb128 0x2c
 9969 2e09 62030000 		.4byte	.LASF518
 9970 2e0d 01       		.byte	0x1
 9971 2e0e 8F01     		.2byte	0x18f
 9972 2e10 552E0000 		.4byte	0x2e55
 9973 2e14 0C150000 		.4byte	.LLST11
 9974 2e18 2C       		.uleb128 0x2c
 9975 2e19 E3140000 		.4byte	.LASF519
 9976 2e1d 01       		.byte	0x1
 9977 2e1e 8F01     		.2byte	0x18f
 9978 2e20 B2130000 		.4byte	0x13b2
 9979 2e24 78150000 		.4byte	.LLST12
 9980 2e28 42       		.uleb128 0x42
 9981 2e29 1E000000 		.4byte	.LVL27
 9982 2e2d 94320000 		.4byte	0x3294
 9983 2e31 402E0000 		.4byte	0x2e40
 9984 2e35 2E       		.uleb128 0x2e
 9985 2e36 01       		.byte	0x1
 9986 2e37 51       		.byte	0x51
 9987 2e38 01       		.byte	0x1
 9988 2e39 30       		.byte	0x30
 9989 2e3a 2E       		.uleb128 0x2e
 9990 2e3b 01       		.byte	0x1
 9991 2e3c 52       		.byte	0x52
 9992 2e3d 01       		.byte	0x1
 9993 2e3e 35       		.byte	0x35
 9994 2e3f 00       		.byte	0
 9995 2e40 2D       		.uleb128 0x2d
 9996 2e41 32000000 		.4byte	.LVL30
 9997 2e45 94320000 		.4byte	0x3294
 9998 2e49 2E       		.uleb128 0x2e
 9999 2e4a 01       		.byte	0x1
 10000 2e4b 51       		.byte	0x51
 10001 2e4c 01       		.byte	0x1
 10002 2e4d 30       		.byte	0x30
 10003 2e4e 2E       		.uleb128 0x2e
 10004 2e4f 01       		.byte	0x1
 10005 2e50 52       		.byte	0x52
 10006 2e51 01       		.byte	0x1
 10007 2e52 37       		.byte	0x37
 10008 2e53 00       		.byte	0
 10009 2e54 00       		.byte	0
 10010 2e55 0A       		.uleb128 0xa
 10011 2e56 04       		.byte	0x4
 10012 2e57 22160000 		.4byte	0x1622
 10013 2e5b 2F       		.uleb128 0x2f
 10014 2e5c 01       		.byte	0x1
 10015 2e5d 550B0000 		.4byte	.LASF520
 10016 2e61 01       		.byte	0x1
 10017 2e62 8901     		.2byte	0x189
 10018 2e64 01       		.byte	0x1
 10019 2e65 82010000 		.4byte	0x182
 10020 2e69 00000000 		.4byte	.LFB47
 10021 2e6d 0C000000 		.4byte	.LFE47
 10022 2e71 02       		.byte	0x2
 10023 2e72 7D       		.byte	0x7d
ARM GAS  C:\Users\EBANO_~1\AppData\Local\Temp\ccpYmjAB.s 			page 204


 10024 2e73 00       		.sleb128 0
 10025 2e74 01       		.byte	0x1
 10026 2e75 8A2E0000 		.4byte	0x2e8a
 10027 2e79 2C       		.uleb128 0x2c
 10028 2e7a 660E0000 		.4byte	.LASF521
 10029 2e7e 01       		.byte	0x1
 10030 2e7f 8901     		.2byte	0x189
 10031 2e81 8A2E0000 		.4byte	0x2e8a
 10032 2e85 99150000 		.4byte	.LLST9
 10033 2e89 00       		.byte	0
 10034 2e8a 0A       		.uleb128 0xa
 10035 2e8b 04       		.byte	0x4
 10036 2e8c A9150000 		.4byte	0x15a9
 10037 2e90 2B       		.uleb128 0x2b
 10038 2e91 01       		.byte	0x1
 10039 2e92 16170000 		.4byte	.LASF522
 10040 2e96 01       		.byte	0x1
 10041 2e97 5B01     		.2byte	0x15b
 10042 2e99 01       		.byte	0x1
 10043 2e9a 00000000 		.4byte	.LFB46
 10044 2e9e 94000000 		.4byte	.LFE46
 10045 2ea2 BA150000 		.4byte	.LLST7
 10046 2ea6 01       		.byte	0x1
 10047 2ea7 222F0000 		.4byte	0x2f22
 10048 2eab 2C       		.uleb128 0x2c
 10049 2eac 660E0000 		.4byte	.LASF521
 10050 2eb0 01       		.byte	0x1
 10051 2eb1 5B01     		.2byte	0x15b
 10052 2eb3 222F0000 		.4byte	0x2f22
 10053 2eb7 E6150000 		.4byte	.LLST8
 10054 2ebb 29       		.uleb128 0x29
 10055 2ebc 40150000 		.4byte	.LASF523
 10056 2ec0 01       		.byte	0x1
 10057 2ec1 5D01     		.2byte	0x15d
 10058 2ec3 9A1E0000 		.4byte	0x1e9a
 10059 2ec7 02       		.byte	0x2
 10060 2ec8 91       		.byte	0x91
 10061 2ec9 58       		.sleb128 -40
 10062 2eca 42       		.uleb128 0x42
 10063 2ecb 30000000 		.4byte	.LVL15
 10064 2ecf 04330000 		.4byte	0x3304
 10065 2ed3 E72E0000 		.4byte	0x2ee7
 10066 2ed7 2E       		.uleb128 0x2e
 10067 2ed8 01       		.byte	0x1
 10068 2ed9 50       		.byte	0x50
 10069 2eda 05       		.byte	0x5
 10070 2edb 03       		.byte	0x3
 10071 2edc 00000000 		.4byte	NvmCtx
 10072 2ee0 2E       		.uleb128 0x2e
 10073 2ee1 01       		.byte	0x1
 10074 2ee2 52       		.byte	0x52
 10075 2ee3 02       		.byte	0x2
 10076 2ee4 08       		.byte	0x8
 10077 2ee5 D4       		.byte	0xd4
 10078 2ee6 00       		.byte	0
 10079 2ee7 42       		.uleb128 0x42
 10080 2ee8 40000000 		.4byte	.LVL18
ARM GAS  C:\Users\EBANO_~1\AppData\Local\Temp\ccpYmjAB.s 			page 205


 10081 2eec 04330000 		.4byte	0x3304
 10082 2ef0 062F0000 		.4byte	0x2f06
 10083 2ef4 2E       		.uleb128 0x2e
 10084 2ef5 01       		.byte	0x1
 10085 2ef6 50       		.byte	0x50
 10086 2ef7 02       		.byte	0x2
 10087 2ef8 74       		.byte	0x74
 10088 2ef9 00       		.sleb128 0
 10089 2efa 2E       		.uleb128 0x2e
 10090 2efb 01       		.byte	0x1
 10091 2efc 51       		.byte	0x51
 10092 2efd 02       		.byte	0x2
 10093 2efe 7D       		.byte	0x7d
 10094 2eff 00       		.sleb128 0
 10095 2f00 2E       		.uleb128 0x2e
 10096 2f01 01       		.byte	0x1
 10097 2f02 52       		.byte	0x52
 10098 2f03 01       		.byte	0x1
 10099 2f04 40       		.byte	0x40
 10100 2f05 00       		.byte	0
 10101 2f06 2D       		.uleb128 0x2d
 10102 2f07 76000000 		.4byte	.LVL19
 10103 2f0b 64330000 		.4byte	0x3364
 10104 2f0f 2E       		.uleb128 0x2e
 10105 2f10 01       		.byte	0x1
 10106 2f11 50       		.byte	0x50
 10107 2f12 02       		.byte	0x2
 10108 2f13 74       		.byte	0x74
 10109 2f14 10       		.sleb128 16
 10110 2f15 2E       		.uleb128 0x2e
 10111 2f16 01       		.byte	0x1
 10112 2f17 51       		.byte	0x51
 10113 2f18 02       		.byte	0x2
 10114 2f19 74       		.byte	0x74
 10115 2f1a 12       		.sleb128 18
 10116 2f1b 2E       		.uleb128 0x2e
 10117 2f1c 01       		.byte	0x1
 10118 2f1d 52       		.byte	0x52
 10119 2f1e 01       		.byte	0x1
 10120 2f1f 31       		.byte	0x31
 10121 2f20 00       		.byte	0
 10122 2f21 00       		.byte	0
 10123 2f22 0A       		.uleb128 0xa
 10124 2f23 04       		.byte	0x4
 10125 2f24 80150000 		.4byte	0x1580
 10126 2f28 2B       		.uleb128 0x2b
 10127 2f29 01       		.byte	0x1
 10128 2f2a 82000000 		.4byte	.LASF524
 10129 2f2e 01       		.byte	0x1
 10130 2f2f 5601     		.2byte	0x156
 10131 2f31 01       		.byte	0x1
 10132 2f32 00000000 		.4byte	.LFB45
 10133 2f36 24000000 		.4byte	.LFE45
 10134 2f3a 39160000 		.4byte	.LLST5
 10135 2f3e 01       		.byte	0x1
 10136 2f3f 5D2F0000 		.4byte	0x2f5d
 10137 2f43 2C       		.uleb128 0x2c
ARM GAS  C:\Users\EBANO_~1\AppData\Local\Temp\ccpYmjAB.s 			page 206


 10138 2f44 2A050000 		.4byte	.LASF525
 10139 2f48 01       		.byte	0x1
 10140 2f49 5601     		.2byte	0x156
 10141 2f4b 5D2F0000 		.4byte	0x2f5d
 10142 2f4f 59160000 		.4byte	.LLST6
 10143 2f53 3A       		.uleb128 0x3a
 10144 2f54 1E000000 		.4byte	.LVL12
 10145 2f58 72330000 		.4byte	0x3372
 10146 2f5c 00       		.byte	0
 10147 2f5d 0A       		.uleb128 0xa
 10148 2f5e 04       		.byte	0x4
 10149 2f5f 48150000 		.4byte	0x1548
 10150 2f63 4F       		.uleb128 0x4f
 10151 2f64 01       		.byte	0x1
 10152 2f65 5E100000 		.4byte	.LASF526
 10153 2f69 01       		.byte	0x1
 10154 2f6a A4       		.byte	0xa4
 10155 2f6b 01       		.byte	0x1
 10156 2f6c AB140000 		.4byte	0x14ab
 10157 2f70 01       		.byte	0x1
 10158 2f71 8C2F0000 		.4byte	0x2f8c
 10159 2f75 50       		.uleb128 0x50
 10160 2f76 D5180000 		.4byte	.LASF492
 10161 2f7a 01       		.byte	0x1
 10162 2f7b A4       		.byte	0xa4
 10163 2f7c 8C2F0000 		.4byte	0x2f8c
 10164 2f80 51       		.uleb128 0x51
 10165 2f81 4F040000 		.4byte	.LASF493
 10166 2f85 01       		.byte	0x1
 10167 2f86 A6       		.byte	0xa6
 10168 2f87 AB140000 		.4byte	0x14ab
 10169 2f8b 00       		.byte	0
 10170 2f8c 0A       		.uleb128 0xa
 10171 2f8d 04       		.byte	0x4
 10172 2f8e 01150000 		.4byte	0x1501
 10173 2f92 52       		.uleb128 0x52
 10174 2f93 9B080000 		.4byte	.LASF531
 10175 2f97 01       		.byte	0x1
 10176 2f98 7B       		.byte	0x7b
 10177 2f99 01       		.byte	0x1
 10178 2f9a BC000000 		.4byte	0xbc
 10179 2f9e 01       		.byte	0x1
 10180 2f9f 26300000 		.4byte	0x3026
 10181 2fa3 50       		.uleb128 0x50
 10182 2fa4 0F170000 		.4byte	.LASF527
 10183 2fa8 01       		.byte	0x1
 10184 2fa9 7B       		.byte	0x7b
 10185 2faa 150B0000 		.4byte	0xb15
 10186 2fae 50       		.uleb128 0x50
 10187 2faf D7040000 		.4byte	.LASF444
 10188 2fb3 01       		.byte	0x1
 10189 2fb4 7B       		.byte	0x7b
 10190 2fb5 BC000000 		.4byte	0xbc
 10191 2fb9 50       		.uleb128 0x50
 10192 2fba 23140000 		.4byte	.LASF528
 10193 2fbe 01       		.byte	0x1
 10194 2fbf 7B       		.byte	0x7b
ARM GAS  C:\Users\EBANO_~1\AppData\Local\Temp\ccpYmjAB.s 			page 207


 10195 2fc0 95110000 		.4byte	0x1195
 10196 2fc4 50       		.uleb128 0x50
 10197 2fc5 201D0000 		.4byte	.LASF529
 10198 2fc9 01       		.byte	0x1
 10199 2fca 7B       		.byte	0x7b
 10200 2fcb 8F110000 		.4byte	0x118f
 10201 2fcf 50       		.uleb128 0x50
 10202 2fd0 40150000 		.4byte	.LASF523
 10203 2fd4 01       		.byte	0x1
 10204 2fd5 7B       		.byte	0x7b
 10205 2fd6 541D0000 		.4byte	0x1d54
 10206 2fda 50       		.uleb128 0x50
 10207 2fdb 3F1A0000 		.4byte	.LASF465
 10208 2fdf 01       		.byte	0x1
 10209 2fe0 7B       		.byte	0x7b
 10210 2fe1 840A0000 		.4byte	0xa84
 10211 2fe5 50       		.uleb128 0x50
 10212 2fe6 BD060000 		.4byte	.LASF464
 10213 2fea 01       		.byte	0x1
 10214 2feb 7B       		.byte	0x7b
 10215 2fec 840A0000 		.4byte	0xa84
 10216 2ff0 51       		.uleb128 0x51
 10217 2ff1 61160000 		.4byte	.LASF463
 10218 2ff5 01       		.byte	0x1
 10219 2ff6 7D       		.byte	0x7d
 10220 2ff7 BC000000 		.4byte	0xbc
 10221 2ffb 51       		.uleb128 0x51
 10222 2ffc B51C0000 		.4byte	.LASF530
 10223 3000 01       		.byte	0x1
 10224 3001 7E       		.byte	0x7e
 10225 3002 BC000000 		.4byte	0xbc
 10226 3006 53       		.uleb128 0x53
 10227 3007 54       		.uleb128 0x54
 10228 3008 6900     		.ascii	"i\000"
 10229 300a 01       		.byte	0x1
 10230 300b 80       		.byte	0x80
 10231 300c BC000000 		.4byte	0xbc
 10232 3010 54       		.uleb128 0x54
 10233 3011 6B00     		.ascii	"k\000"
 10234 3013 01       		.byte	0x1
 10235 3014 80       		.byte	0x80
 10236 3015 BC000000 		.4byte	0xbc
 10237 3019 53       		.uleb128 0x53
 10238 301a 54       		.uleb128 0x54
 10239 301b 6A00     		.ascii	"j\000"
 10240 301d 01       		.byte	0x1
 10241 301e 82       		.byte	0x82
 10242 301f BC000000 		.4byte	0xbc
 10243 3023 00       		.byte	0
 10244 3024 00       		.byte	0
 10245 3025 00       		.byte	0
 10246 3026 52       		.uleb128 0x52
 10247 3027 A6140000 		.4byte	.LASF532
 10248 302b 01       		.byte	0x1
 10249 302c 6C       		.byte	0x6c
 10250 302d 01       		.byte	0x1
 10251 302e 150B0000 		.4byte	0xb15
ARM GAS  C:\Users\EBANO_~1\AppData\Local\Temp\ccpYmjAB.s 			page 208


 10252 3032 01       		.byte	0x1
 10253 3033 43300000 		.4byte	0x3043
 10254 3037 50       		.uleb128 0x50
 10255 3038 25040000 		.4byte	.LASF533
 10256 303c 01       		.byte	0x1
 10257 303d 6C       		.byte	0x6c
 10258 303e ED000000 		.4byte	0xed
 10259 3042 00       		.byte	0
 10260 3043 52       		.uleb128 0x52
 10261 3044 94120000 		.4byte	.LASF534
 10262 3048 01       		.byte	0x1
 10263 3049 62       		.byte	0x62
 10264 304a 01       		.byte	0x1
 10265 304b B1000000 		.4byte	0xb1
 10266 304f 01       		.byte	0x1
 10267 3050 8C300000 		.4byte	0x308c
 10268 3054 50       		.uleb128 0x50
 10269 3055 E1100000 		.4byte	.LASF497
 10270 3059 01       		.byte	0x1
 10271 305a 62       		.byte	0x62
 10272 305b B1000000 		.4byte	0xb1
 10273 305f 50       		.uleb128 0x50
 10274 3060 90090000 		.4byte	.LASF535
 10275 3064 01       		.byte	0x1
 10276 3065 62       		.byte	0x62
 10277 3066 B1000000 		.4byte	0xb1
 10278 306a 50       		.uleb128 0x50
 10279 306b D7040000 		.4byte	.LASF444
 10280 306f 01       		.byte	0x1
 10281 3070 62       		.byte	0x62
 10282 3071 B1000000 		.4byte	0xb1
 10283 3075 50       		.uleb128 0x50
 10284 3076 23140000 		.4byte	.LASF528
 10285 307a 01       		.byte	0x1
 10286 307b 62       		.byte	0x62
 10287 307c 95110000 		.4byte	0x1195
 10288 3080 51       		.uleb128 0x51
 10289 3081 CF030000 		.4byte	.LASF536
 10290 3085 01       		.byte	0x1
 10291 3086 64       		.byte	0x64
 10292 3087 B1000000 		.4byte	0xb1
 10293 308b 00       		.byte	0
 10294 308c 52       		.uleb128 0x52
 10295 308d 43170000 		.4byte	.LASF537
 10296 3091 01       		.byte	0x1
 10297 3092 54       		.byte	0x54
 10298 3093 01       		.byte	0x1
 10299 3094 ED000000 		.4byte	0xed
 10300 3098 01       		.byte	0x1
 10301 3099 A9300000 		.4byte	0x30a9
 10302 309d 50       		.uleb128 0x50
 10303 309e E40A0000 		.4byte	.LASF538
 10304 30a2 01       		.byte	0x1
 10305 30a3 54       		.byte	0x54
 10306 30a4 ED000000 		.4byte	0xed
 10307 30a8 00       		.byte	0
 10308 30a9 52       		.uleb128 0x52
ARM GAS  C:\Users\EBANO_~1\AppData\Local\Temp\ccpYmjAB.s 			page 209


 10309 30aa 900E0000 		.4byte	.LASF539
 10310 30ae 01       		.byte	0x1
 10311 30af 45       		.byte	0x45
 10312 30b0 01       		.byte	0x1
 10313 30b1 B1000000 		.4byte	0xb1
 10314 30b5 01       		.byte	0x1
 10315 30b6 DB300000 		.4byte	0x30db
 10316 30ba 55       		.uleb128 0x55
 10317 30bb 647200   		.ascii	"dr\000"
 10318 30be 01       		.byte	0x1
 10319 30bf 45       		.byte	0x45
 10320 30c0 B1000000 		.4byte	0xb1
 10321 30c4 50       		.uleb128 0x50
 10322 30c5 4A1F0000 		.4byte	.LASF540
 10323 30c9 01       		.byte	0x1
 10324 30ca 45       		.byte	0x45
 10325 30cb B1000000 		.4byte	0xb1
 10326 30cf 51       		.uleb128 0x51
 10327 30d0 BE1D0000 		.4byte	.LASF541
 10328 30d4 01       		.byte	0x1
 10329 30d5 47       		.byte	0x47
 10330 30d6 BC000000 		.4byte	0xbc
 10331 30da 00       		.byte	0
 10332 30db 56       		.uleb128 0x56
 10333 30dc 632F0000 		.4byte	0x2f63
 10334 30e0 00000000 		.4byte	.LFB44
 10335 30e4 08010000 		.4byte	.LFE44
 10336 30e8 7A160000 		.4byte	.LLST0
 10337 30ec 01       		.byte	0x1
 10338 30ed 54310000 		.4byte	0x3154
 10339 30f1 35       		.uleb128 0x35
 10340 30f2 752F0000 		.4byte	0x2f75
 10341 30f6 A6160000 		.4byte	.LLST1
 10342 30fa 57       		.uleb128 0x57
 10343 30fb 802F0000 		.4byte	0x2f80
 10344 30ff 02       		.byte	0x2
 10345 3100 91       		.byte	0x91
 10346 3101 70       		.sleb128 -16
 10347 3102 58       		.uleb128 0x58
 10348 3103 A9300000 		.4byte	0x30a9
 10349 3107 7C000000 		.4byte	.LBB22
 10350 310b 86000000 		.4byte	.LBE22
 10351 310f 01       		.byte	0x1
 10352 3110 BB       		.byte	0xbb
 10353 3111 3B310000 		.4byte	0x313b
 10354 3115 35       		.uleb128 0x35
 10355 3116 C4300000 		.4byte	0x30c4
 10356 311a EB160000 		.4byte	.LLST2
 10357 311e 35       		.uleb128 0x35
 10358 311f BA300000 		.4byte	0x30ba
 10359 3123 FF160000 		.4byte	.LLST3
 10360 3127 4D       		.uleb128 0x4d
 10361 3128 7C000000 		.4byte	.LBB23
 10362 312c 86000000 		.4byte	.LBE23
 10363 3130 40       		.uleb128 0x40
 10364 3131 CF300000 		.4byte	0x30cf
 10365 3135 1F170000 		.4byte	.LLST4
ARM GAS  C:\Users\EBANO_~1\AppData\Local\Temp\ccpYmjAB.s 			page 210


 10366 3139 00       		.byte	0
 10367 313a 00       		.byte	0
 10368 313b 2D       		.uleb128 0x2d
 10369 313c A2000000 		.4byte	.LVL8
 10370 3140 DB320000 		.4byte	0x32db
 10371 3144 2E       		.uleb128 0x2e
 10372 3145 01       		.byte	0x1
 10373 3146 50       		.byte	0x50
 10374 3147 03       		.byte	0x3
 10375 3148 0B       		.byte	0xb
 10376 3149 18FC     		.2byte	0xfc18
 10377 314b 2E       		.uleb128 0x2e
 10378 314c 01       		.byte	0x1
 10379 314d 51       		.byte	0x51
 10380 314e 03       		.byte	0x3
 10381 314f 0A       		.byte	0xa
 10382 3150 E803     		.2byte	0x3e8
 10383 3152 00       		.byte	0
 10384 3153 00       		.byte	0
 10385 3154 56       		.uleb128 0x56
 10386 3155 80200000 		.4byte	0x2080
 10387 3159 00000000 		.4byte	.LFB62
 10388 315d D8000000 		.4byte	.LFE62
 10389 3161 4D170000 		.4byte	.LLST97
 10390 3165 01       		.byte	0x1
 10391 3166 0B320000 		.4byte	0x320b
 10392 316a 35       		.uleb128 0x35
 10393 316b 93200000 		.4byte	0x2093
 10394 316f 79170000 		.4byte	.LLST98
 10395 3173 40       		.uleb128 0x40
 10396 3174 9F200000 		.4byte	0x209f
 10397 3178 BE170000 		.4byte	.LLST99
 10398 317c 40       		.uleb128 0x40
 10399 317d AB200000 		.4byte	0x20ab
 10400 3181 21180000 		.4byte	.LLST100
 10401 3185 40       		.uleb128 0x40
 10402 3186 B7200000 		.4byte	0x20b7
 10403 318a 71180000 		.4byte	.LLST101
 10404 318e 34       		.uleb128 0x34
 10405 318f 26300000 		.4byte	0x3026
 10406 3193 4E000000 		.4byte	.LBB137
 10407 3197 F0010000 		.4byte	.Ldebug_ranges0+0x1f0
 10408 319b 01       		.byte	0x1
 10409 319c AD03     		.2byte	0x3ad
 10410 319e C5310000 		.4byte	0x31c5
 10411 31a2 35       		.uleb128 0x35
 10412 31a3 37300000 		.4byte	0x3037
 10413 31a7 8F180000 		.4byte	.LLST102
 10414 31ab 45       		.uleb128 0x45
 10415 31ac 58000000 		.4byte	.LVL298
 10416 31b0 BB310000 		.4byte	0x31bb
 10417 31b4 2E       		.uleb128 0x2e
 10418 31b5 01       		.byte	0x1
 10419 31b6 50       		.byte	0x50
 10420 31b7 02       		.byte	0x2
 10421 31b8 76       		.byte	0x76
 10422 31b9 00       		.sleb128 0
ARM GAS  C:\Users\EBANO_~1\AppData\Local\Temp\ccpYmjAB.s 			page 211


 10423 31ba 00       		.byte	0
 10424 31bb 46       		.uleb128 0x46
 10425 31bc 6A000000 		.4byte	.LVL303
 10426 31c0 03       		.byte	0x3
 10427 31c1 91       		.byte	0x91
 10428 31c2 64       		.sleb128 -28
 10429 31c3 06       		.byte	0x6
 10430 31c4 00       		.byte	0
 10431 31c5 42       		.uleb128 0x42
 10432 31c6 22000000 		.4byte	.LVL293
 10433 31ca 94320000 		.4byte	0x3294
 10434 31ce DD310000 		.4byte	0x31dd
 10435 31d2 2E       		.uleb128 0x2e
 10436 31d3 01       		.byte	0x1
 10437 31d4 51       		.byte	0x51
 10438 31d5 01       		.byte	0x1
 10439 31d6 30       		.byte	0x30
 10440 31d7 2E       		.uleb128 0x2e
 10441 31d8 01       		.byte	0x1
 10442 31d9 52       		.byte	0x52
 10443 31da 01       		.byte	0x1
 10444 31db 37       		.byte	0x37
 10445 31dc 00       		.byte	0
 10446 31dd 42       		.uleb128 0x42
 10447 31de 34000000 		.4byte	.LVL295
 10448 31e2 94320000 		.4byte	0x3294
 10449 31e6 F5310000 		.4byte	0x31f5
 10450 31ea 2E       		.uleb128 0x2e
 10451 31eb 01       		.byte	0x1
 10452 31ec 51       		.byte	0x51
 10453 31ed 01       		.byte	0x1
 10454 31ee 30       		.byte	0x30
 10455 31ef 2E       		.uleb128 0x2e
 10456 31f0 01       		.byte	0x1
 10457 31f1 52       		.byte	0x52
 10458 31f2 01       		.byte	0x1
 10459 31f3 37       		.byte	0x37
 10460 31f4 00       		.byte	0
 10461 31f5 2D       		.uleb128 0x2d
 10462 31f6 B6000000 		.4byte	.LVL312
 10463 31fa 04330000 		.4byte	0x3304
 10464 31fe 2E       		.uleb128 0x2e
 10465 31ff 01       		.byte	0x1
 10466 3200 50       		.byte	0x50
 10467 3201 02       		.byte	0x2
 10468 3202 74       		.byte	0x74
 10469 3203 00       		.sleb128 0
 10470 3204 2E       		.uleb128 0x2e
 10471 3205 01       		.byte	0x1
 10472 3206 52       		.byte	0x52
 10473 3207 01       		.byte	0x1
 10474 3208 3C       		.byte	0x3c
 10475 3209 00       		.byte	0
 10476 320a 00       		.byte	0
 10477 320b 56       		.uleb128 0x56
 10478 320c 4F200000 		.4byte	0x204f
 10479 3210 00000000 		.4byte	.LFB63
ARM GAS  C:\Users\EBANO_~1\AppData\Local\Temp\ccpYmjAB.s 			page 212


 10480 3214 30000000 		.4byte	.LFE63
 10481 3218 B1180000 		.4byte	.LLST103
 10482 321c 01       		.byte	0x1
 10483 321d 78320000 		.4byte	0x3278
 10484 3221 35       		.uleb128 0x35
 10485 3222 62200000 		.4byte	0x2062
 10486 3226 D1180000 		.4byte	.LLST104
 10487 322a 40       		.uleb128 0x40
 10488 322b 6E200000 		.4byte	0x206e
 10489 322f F2180000 		.4byte	.LLST105
 10490 3233 42       		.uleb128 0x42
 10491 3234 1C000000 		.4byte	.LVL316
 10492 3238 A1320000 		.4byte	0x32a1
 10493 323c 5B320000 		.4byte	0x325b
 10494 3240 2E       		.uleb128 0x2e
 10495 3241 01       		.byte	0x1
 10496 3242 50       		.byte	0x50
 10497 3243 0C       		.byte	0xc
 10498 3244 74       		.byte	0x74
 10499 3245 00       		.sleb128 0
 10500 3246 31       		.byte	0x31
 10501 3247 24       		.byte	0x24
 10502 3248 74       		.byte	0x74
 10503 3249 00       		.sleb128 0
 10504 324a 22       		.byte	0x22
 10505 324b 32       		.byte	0x32
 10506 324c 24       		.byte	0x24
 10507 324d 75       		.byte	0x75
 10508 324e 00       		.sleb128 0
 10509 324f 22       		.byte	0x22
 10510 3250 2E       		.uleb128 0x2e
 10511 3251 01       		.byte	0x1
 10512 3252 51       		.byte	0x51
 10513 3253 01       		.byte	0x1
 10514 3254 30       		.byte	0x30
 10515 3255 2E       		.uleb128 0x2e
 10516 3256 01       		.byte	0x1
 10517 3257 52       		.byte	0x52
 10518 3258 01       		.byte	0x1
 10519 3259 3C       		.byte	0x3c
 10520 325a 00       		.byte	0
 10521 325b 2D       		.uleb128 0x2d
 10522 325c 28000000 		.4byte	.LVL317
 10523 3260 F6320000 		.4byte	0x32f6
 10524 3264 2E       		.uleb128 0x2e
 10525 3265 01       		.byte	0x1
 10526 3266 50       		.byte	0x50
 10527 3267 03       		.byte	0x3
 10528 3268 75       		.byte	0x75
 10529 3269 D001     		.sleb128 208
 10530 326b 2E       		.uleb128 0x2e
 10531 326c 01       		.byte	0x1
 10532 326d 51       		.byte	0x51
 10533 326e 02       		.byte	0x2
 10534 326f 74       		.byte	0x74
 10535 3270 00       		.sleb128 0
 10536 3271 2E       		.uleb128 0x2e
ARM GAS  C:\Users\EBANO_~1\AppData\Local\Temp\ccpYmjAB.s 			page 213


 10537 3272 01       		.byte	0x1
 10538 3273 52       		.byte	0x52
 10539 3274 01       		.byte	0x1
 10540 3275 40       		.byte	0x40
 10541 3276 00       		.byte	0
 10542 3277 00       		.byte	0
 10543 3278 59       		.uleb128 0x59
 10544 3279 01       		.byte	0x1
 10545 327a 01       		.byte	0x1
 10546 327b E21B0000 		.4byte	.LASF542
 10547 327f E21B0000 		.4byte	.LASF542
 10548 3283 10       		.byte	0x10
 10549 3284 9F01     		.2byte	0x19f
 10550 3286 59       		.uleb128 0x59
 10551 3287 01       		.byte	0x1
 10552 3288 01       		.byte	0x1
 10553 3289 A0160000 		.4byte	.LASF543
 10554 328d A0160000 		.4byte	.LASF543
 10555 3291 10       		.byte	0x10
 10556 3292 9101     		.2byte	0x191
 10557 3294 5A       		.uleb128 0x5a
 10558 3295 01       		.byte	0x1
 10559 3296 01       		.byte	0x1
 10560 3297 BB160000 		.4byte	.LASF544
 10561 329b BB160000 		.4byte	.LASF544
 10562 329f 10       		.byte	0x10
 10563 32a0 E1       		.byte	0xe1
 10564 32a1 5B       		.uleb128 0x5b
 10565 32a2 01       		.byte	0x1
 10566 32a3 01       		.byte	0x1
 10567 32a4 B7100000 		.4byte	.LASF563
 10568 32a8 69030000 		.4byte	.LASF564
 10569 32ac 13       		.byte	0x13
 10570 32ad 00       		.byte	0
 10571 32ae B7100000 		.4byte	.LASF563
 10572 32b2 59       		.uleb128 0x59
 10573 32b3 01       		.byte	0x1
 10574 32b4 01       		.byte	0x1
 10575 32b5 E9090000 		.4byte	.LASF545
 10576 32b9 E9090000 		.4byte	.LASF545
 10577 32bd 10       		.byte	0x10
 10578 32be 1201     		.2byte	0x112
 10579 32c0 5A       		.uleb128 0x5a
 10580 32c1 01       		.byte	0x1
 10581 32c2 01       		.byte	0x1
 10582 32c3 04140000 		.4byte	.LASF546
 10583 32c7 04140000 		.4byte	.LASF546
 10584 32cb 12       		.byte	0x12
 10585 32cc 94       		.byte	0x94
 10586 32cd 59       		.uleb128 0x59
 10587 32ce 01       		.byte	0x1
 10588 32cf 01       		.byte	0x1
 10589 32d0 7E0B0000 		.4byte	.LASF547
 10590 32d4 7E0B0000 		.4byte	.LASF547
 10591 32d8 10       		.byte	0x10
 10592 32d9 3A01     		.2byte	0x13a
 10593 32db 5A       		.uleb128 0x5a
ARM GAS  C:\Users\EBANO_~1\AppData\Local\Temp\ccpYmjAB.s 			page 214


 10594 32dc 01       		.byte	0x1
 10595 32dd 01       		.byte	0x1
 10596 32de 4E020000 		.4byte	.LASF548
 10597 32e2 4E020000 		.4byte	.LASF548
 10598 32e6 0A       		.byte	0xa
 10599 32e7 77       		.byte	0x77
 10600 32e8 59       		.uleb128 0x59
 10601 32e9 01       		.byte	0x1
 10602 32ea 01       		.byte	0x1
 10603 32eb 57190000 		.4byte	.LASF549
 10604 32ef 57190000 		.4byte	.LASF549
 10605 32f3 10       		.byte	0x10
 10606 32f4 9801     		.2byte	0x198
 10607 32f6 59       		.uleb128 0x59
 10608 32f7 01       		.byte	0x1
 10609 32f8 01       		.byte	0x1
 10610 32f9 55210000 		.4byte	.LASF550
 10611 32fd 55210000 		.4byte	.LASF550
 10612 3301 10       		.byte	0x10
 10613 3302 0401     		.2byte	0x104
 10614 3304 5A       		.uleb128 0x5a
 10615 3305 01       		.byte	0x1
 10616 3306 01       		.byte	0x1
 10617 3307 A1030000 		.4byte	.LASF551
 10618 330b A1030000 		.4byte	.LASF551
 10619 330f 0A       		.byte	0xa
 10620 3310 89       		.byte	0x89
 10621 3311 59       		.uleb128 0x59
 10622 3312 01       		.byte	0x1
 10623 3313 01       		.byte	0x1
 10624 3314 04050000 		.4byte	.LASF552
 10625 3318 04050000 		.4byte	.LASF552
 10626 331c 10       		.byte	0x10
 10627 331d 4801     		.2byte	0x148
 10628 331f 59       		.uleb128 0x59
 10629 3320 01       		.byte	0x1
 10630 3321 01       		.byte	0x1
 10631 3322 BE100000 		.4byte	.LASF553
 10632 3326 BE100000 		.4byte	.LASF553
 10633 332a 10       		.byte	0x10
 10634 332b 5801     		.2byte	0x158
 10635 332d 5A       		.uleb128 0x5a
 10636 332e 01       		.byte	0x1
 10637 332f 01       		.byte	0x1
 10638 3330 D6170000 		.4byte	.LASF554
 10639 3334 D6170000 		.4byte	.LASF554
 10640 3338 0A       		.byte	0xa
 10641 3339 9D       		.byte	0x9d
 10642 333a 59       		.uleb128 0x59
 10643 333b 01       		.byte	0x1
 10644 333c 01       		.byte	0x1
 10645 333d C2150000 		.4byte	.LASF555
 10646 3341 C2150000 		.4byte	.LASF555
 10647 3345 10       		.byte	0x10
 10648 3346 6301     		.2byte	0x163
 10649 3348 59       		.uleb128 0x59
 10650 3349 01       		.byte	0x1
ARM GAS  C:\Users\EBANO_~1\AppData\Local\Temp\ccpYmjAB.s 			page 215


 10651 334a 01       		.byte	0x1
 10652 334b 681F0000 		.4byte	.LASF556
 10653 334f 681F0000 		.4byte	.LASF556
 10654 3353 10       		.byte	0x10
 10655 3354 8001     		.2byte	0x180
 10656 3356 59       		.uleb128 0x59
 10657 3357 01       		.byte	0x1
 10658 3358 01       		.byte	0x1
 10659 3359 00150000 		.4byte	.LASF557
 10660 335d 00150000 		.4byte	.LASF557
 10661 3361 10       		.byte	0x10
 10662 3362 6E01     		.2byte	0x16e
 10663 3364 59       		.uleb128 0x59
 10664 3365 01       		.byte	0x1
 10665 3366 01       		.byte	0x1
 10666 3367 C5060000 		.4byte	.LASF558
 10667 336b C5060000 		.4byte	.LASF558
 10668 336f 10       		.byte	0x10
 10669 3370 1E01     		.2byte	0x11e
 10670 3372 59       		.uleb128 0x59
 10671 3373 01       		.byte	0x1
 10672 3374 01       		.byte	0x1
 10673 3375 DB130000 		.4byte	.LASF559
 10674 3379 DB130000 		.4byte	.LASF559
 10675 337d 10       		.byte	0x10
 10676 337e 2A01     		.2byte	0x12a
 10677 3380 00       		.byte	0
 10678              		.section	.debug_abbrev,"",%progbits
 10679              	.Ldebug_abbrev0:
 10680 0000 01       		.uleb128 0x1
 10681 0001 11       		.uleb128 0x11
 10682 0002 01       		.byte	0x1
 10683 0003 25       		.uleb128 0x25
 10684 0004 0E       		.uleb128 0xe
 10685 0005 13       		.uleb128 0x13
 10686 0006 0B       		.uleb128 0xb
 10687 0007 03       		.uleb128 0x3
 10688 0008 0E       		.uleb128 0xe
 10689 0009 1B       		.uleb128 0x1b
 10690 000a 0E       		.uleb128 0xe
 10691 000b 55       		.uleb128 0x55
 10692 000c 06       		.uleb128 0x6
 10693 000d 11       		.uleb128 0x11
 10694 000e 01       		.uleb128 0x1
 10695 000f 52       		.uleb128 0x52
 10696 0010 01       		.uleb128 0x1
 10697 0011 10       		.uleb128 0x10
 10698 0012 06       		.uleb128 0x6
 10699 0013 00       		.byte	0
 10700 0014 00       		.byte	0
 10701 0015 02       		.uleb128 0x2
 10702 0016 24       		.uleb128 0x24
 10703 0017 00       		.byte	0
 10704 0018 0B       		.uleb128 0xb
 10705 0019 0B       		.uleb128 0xb
 10706 001a 3E       		.uleb128 0x3e
 10707 001b 0B       		.uleb128 0xb
ARM GAS  C:\Users\EBANO_~1\AppData\Local\Temp\ccpYmjAB.s 			page 216


 10708 001c 03       		.uleb128 0x3
 10709 001d 0E       		.uleb128 0xe
 10710 001e 00       		.byte	0
 10711 001f 00       		.byte	0
 10712 0020 03       		.uleb128 0x3
 10713 0021 16       		.uleb128 0x16
 10714 0022 00       		.byte	0
 10715 0023 03       		.uleb128 0x3
 10716 0024 0E       		.uleb128 0xe
 10717 0025 3A       		.uleb128 0x3a
 10718 0026 0B       		.uleb128 0xb
 10719 0027 3B       		.uleb128 0x3b
 10720 0028 0B       		.uleb128 0xb
 10721 0029 49       		.uleb128 0x49
 10722 002a 13       		.uleb128 0x13
 10723 002b 00       		.byte	0
 10724 002c 00       		.byte	0
 10725 002d 04       		.uleb128 0x4
 10726 002e 24       		.uleb128 0x24
 10727 002f 00       		.byte	0
 10728 0030 0B       		.uleb128 0xb
 10729 0031 0B       		.uleb128 0xb
 10730 0032 3E       		.uleb128 0x3e
 10731 0033 0B       		.uleb128 0xb
 10732 0034 03       		.uleb128 0x3
 10733 0035 08       		.uleb128 0x8
 10734 0036 00       		.byte	0
 10735 0037 00       		.byte	0
 10736 0038 05       		.uleb128 0x5
 10737 0039 26       		.uleb128 0x26
 10738 003a 00       		.byte	0
 10739 003b 49       		.uleb128 0x49
 10740 003c 13       		.uleb128 0x13
 10741 003d 00       		.byte	0
 10742 003e 00       		.byte	0
 10743 003f 06       		.uleb128 0x6
 10744 0040 34       		.uleb128 0x34
 10745 0041 00       		.byte	0
 10746 0042 03       		.uleb128 0x3
 10747 0043 0E       		.uleb128 0xe
 10748 0044 3A       		.uleb128 0x3a
 10749 0045 0B       		.uleb128 0xb
 10750 0046 3B       		.uleb128 0x3b
 10751 0047 0B       		.uleb128 0xb
 10752 0048 49       		.uleb128 0x49
 10753 0049 13       		.uleb128 0x13
 10754 004a 3F       		.uleb128 0x3f
 10755 004b 0C       		.uleb128 0xc
 10756 004c 3C       		.uleb128 0x3c
 10757 004d 0C       		.uleb128 0xc
 10758 004e 00       		.byte	0
 10759 004f 00       		.byte	0
 10760 0050 07       		.uleb128 0x7
 10761 0051 01       		.uleb128 0x1
 10762 0052 01       		.byte	0x1
 10763 0053 49       		.uleb128 0x49
 10764 0054 13       		.uleb128 0x13
ARM GAS  C:\Users\EBANO_~1\AppData\Local\Temp\ccpYmjAB.s 			page 217


 10765 0055 01       		.uleb128 0x1
 10766 0056 13       		.uleb128 0x13
 10767 0057 00       		.byte	0
 10768 0058 00       		.byte	0
 10769 0059 08       		.uleb128 0x8
 10770 005a 21       		.uleb128 0x21
 10771 005b 00       		.byte	0
 10772 005c 49       		.uleb128 0x49
 10773 005d 13       		.uleb128 0x13
 10774 005e 2F       		.uleb128 0x2f
 10775 005f 0B       		.uleb128 0xb
 10776 0060 00       		.byte	0
 10777 0061 00       		.byte	0
 10778 0062 09       		.uleb128 0x9
 10779 0063 0F       		.uleb128 0xf
 10780 0064 00       		.byte	0
 10781 0065 0B       		.uleb128 0xb
 10782 0066 0B       		.uleb128 0xb
 10783 0067 00       		.byte	0
 10784 0068 00       		.byte	0
 10785 0069 0A       		.uleb128 0xa
 10786 006a 0F       		.uleb128 0xf
 10787 006b 00       		.byte	0
 10788 006c 0B       		.uleb128 0xb
 10789 006d 0B       		.uleb128 0xb
 10790 006e 49       		.uleb128 0x49
 10791 006f 13       		.uleb128 0x13
 10792 0070 00       		.byte	0
 10793 0071 00       		.byte	0
 10794 0072 0B       		.uleb128 0xb
 10795 0073 13       		.uleb128 0x13
 10796 0074 00       		.byte	0
 10797 0075 03       		.uleb128 0x3
 10798 0076 0E       		.uleb128 0xe
 10799 0077 3C       		.uleb128 0x3c
 10800 0078 0C       		.uleb128 0xc
 10801 0079 00       		.byte	0
 10802 007a 00       		.byte	0
 10803 007b 0C       		.uleb128 0xc
 10804 007c 16       		.uleb128 0x16
 10805 007d 00       		.byte	0
 10806 007e 03       		.uleb128 0x3
 10807 007f 0E       		.uleb128 0xe
 10808 0080 3A       		.uleb128 0x3a
 10809 0081 0B       		.uleb128 0xb
 10810 0082 3B       		.uleb128 0x3b
 10811 0083 05       		.uleb128 0x5
 10812 0084 49       		.uleb128 0x49
 10813 0085 13       		.uleb128 0x13
 10814 0086 00       		.byte	0
 10815 0087 00       		.byte	0
 10816 0088 0D       		.uleb128 0xd
 10817 0089 17       		.uleb128 0x17
 10818 008a 01       		.byte	0x1
 10819 008b 0B       		.uleb128 0xb
 10820 008c 0B       		.uleb128 0xb
 10821 008d 3A       		.uleb128 0x3a
ARM GAS  C:\Users\EBANO_~1\AppData\Local\Temp\ccpYmjAB.s 			page 218


 10822 008e 0B       		.uleb128 0xb
 10823 008f 3B       		.uleb128 0x3b
 10824 0090 0B       		.uleb128 0xb
 10825 0091 01       		.uleb128 0x1
 10826 0092 13       		.uleb128 0x13
 10827 0093 00       		.byte	0
 10828 0094 00       		.byte	0
 10829 0095 0E       		.uleb128 0xe
 10830 0096 0D       		.uleb128 0xd
 10831 0097 00       		.byte	0
 10832 0098 03       		.uleb128 0x3
 10833 0099 0E       		.uleb128 0xe
 10834 009a 3A       		.uleb128 0x3a
 10835 009b 0B       		.uleb128 0xb
 10836 009c 3B       		.uleb128 0x3b
 10837 009d 0B       		.uleb128 0xb
 10838 009e 49       		.uleb128 0x49
 10839 009f 13       		.uleb128 0x13
 10840 00a0 00       		.byte	0
 10841 00a1 00       		.byte	0
 10842 00a2 0F       		.uleb128 0xf
 10843 00a3 13       		.uleb128 0x13
 10844 00a4 01       		.byte	0x1
 10845 00a5 0B       		.uleb128 0xb
 10846 00a6 0B       		.uleb128 0xb
 10847 00a7 3A       		.uleb128 0x3a
 10848 00a8 0B       		.uleb128 0xb
 10849 00a9 3B       		.uleb128 0x3b
 10850 00aa 0B       		.uleb128 0xb
 10851 00ab 01       		.uleb128 0x1
 10852 00ac 13       		.uleb128 0x13
 10853 00ad 00       		.byte	0
 10854 00ae 00       		.byte	0
 10855 00af 10       		.uleb128 0x10
 10856 00b0 0D       		.uleb128 0xd
 10857 00b1 00       		.byte	0
 10858 00b2 03       		.uleb128 0x3
 10859 00b3 0E       		.uleb128 0xe
 10860 00b4 3A       		.uleb128 0x3a
 10861 00b5 0B       		.uleb128 0xb
 10862 00b6 3B       		.uleb128 0x3b
 10863 00b7 0B       		.uleb128 0xb
 10864 00b8 49       		.uleb128 0x49
 10865 00b9 13       		.uleb128 0x13
 10866 00ba 38       		.uleb128 0x38
 10867 00bb 0A       		.uleb128 0xa
 10868 00bc 00       		.byte	0
 10869 00bd 00       		.byte	0
 10870 00be 11       		.uleb128 0x11
 10871 00bf 13       		.uleb128 0x13
 10872 00c0 01       		.byte	0x1
 10873 00c1 03       		.uleb128 0x3
 10874 00c2 0E       		.uleb128 0xe
 10875 00c3 0B       		.uleb128 0xb
 10876 00c4 0B       		.uleb128 0xb
 10877 00c5 3A       		.uleb128 0x3a
 10878 00c6 0B       		.uleb128 0xb
ARM GAS  C:\Users\EBANO_~1\AppData\Local\Temp\ccpYmjAB.s 			page 219


 10879 00c7 3B       		.uleb128 0x3b
 10880 00c8 0B       		.uleb128 0xb
 10881 00c9 01       		.uleb128 0x1
 10882 00ca 13       		.uleb128 0x13
 10883 00cb 00       		.byte	0
 10884 00cc 00       		.byte	0
 10885 00cd 12       		.uleb128 0x12
 10886 00ce 0D       		.uleb128 0xd
 10887 00cf 00       		.byte	0
 10888 00d0 03       		.uleb128 0x3
 10889 00d1 08       		.uleb128 0x8
 10890 00d2 3A       		.uleb128 0x3a
 10891 00d3 0B       		.uleb128 0xb
 10892 00d4 3B       		.uleb128 0x3b
 10893 00d5 0B       		.uleb128 0xb
 10894 00d6 49       		.uleb128 0x49
 10895 00d7 13       		.uleb128 0x13
 10896 00d8 38       		.uleb128 0x38
 10897 00d9 0A       		.uleb128 0xa
 10898 00da 00       		.byte	0
 10899 00db 00       		.byte	0
 10900 00dc 13       		.uleb128 0x13
 10901 00dd 13       		.uleb128 0x13
 10902 00de 01       		.byte	0x1
 10903 00df 03       		.uleb128 0x3
 10904 00e0 0E       		.uleb128 0xe
 10905 00e1 0B       		.uleb128 0xb
 10906 00e2 05       		.uleb128 0x5
 10907 00e3 3A       		.uleb128 0x3a
 10908 00e4 0B       		.uleb128 0xb
 10909 00e5 3B       		.uleb128 0x3b
 10910 00e6 0B       		.uleb128 0xb
 10911 00e7 01       		.uleb128 0x1
 10912 00e8 13       		.uleb128 0x13
 10913 00e9 00       		.byte	0
 10914 00ea 00       		.byte	0
 10915 00eb 14       		.uleb128 0x14
 10916 00ec 15       		.uleb128 0x15
 10917 00ed 00       		.byte	0
 10918 00ee 27       		.uleb128 0x27
 10919 00ef 0C       		.uleb128 0xc
 10920 00f0 00       		.byte	0
 10921 00f1 00       		.byte	0
 10922 00f2 15       		.uleb128 0x15
 10923 00f3 15       		.uleb128 0x15
 10924 00f4 01       		.byte	0x1
 10925 00f5 27       		.uleb128 0x27
 10926 00f6 0C       		.uleb128 0xc
 10927 00f7 49       		.uleb128 0x49
 10928 00f8 13       		.uleb128 0x13
 10929 00f9 01       		.uleb128 0x1
 10930 00fa 13       		.uleb128 0x13
 10931 00fb 00       		.byte	0
 10932 00fc 00       		.byte	0
 10933 00fd 16       		.uleb128 0x16
 10934 00fe 05       		.uleb128 0x5
 10935 00ff 00       		.byte	0
ARM GAS  C:\Users\EBANO_~1\AppData\Local\Temp\ccpYmjAB.s 			page 220


 10936 0100 49       		.uleb128 0x49
 10937 0101 13       		.uleb128 0x13
 10938 0102 00       		.byte	0
 10939 0103 00       		.byte	0
 10940 0104 17       		.uleb128 0x17
 10941 0105 13       		.uleb128 0x13
 10942 0106 01       		.byte	0x1
 10943 0107 03       		.uleb128 0x3
 10944 0108 0E       		.uleb128 0xe
 10945 0109 0B       		.uleb128 0xb
 10946 010a 05       		.uleb128 0x5
 10947 010b 3A       		.uleb128 0x3a
 10948 010c 0B       		.uleb128 0xb
 10949 010d 3B       		.uleb128 0x3b
 10950 010e 05       		.uleb128 0x5
 10951 010f 01       		.uleb128 0x1
 10952 0110 13       		.uleb128 0x13
 10953 0111 00       		.byte	0
 10954 0112 00       		.byte	0
 10955 0113 18       		.uleb128 0x18
 10956 0114 0D       		.uleb128 0xd
 10957 0115 00       		.byte	0
 10958 0116 03       		.uleb128 0x3
 10959 0117 0E       		.uleb128 0xe
 10960 0118 3A       		.uleb128 0x3a
 10961 0119 0B       		.uleb128 0xb
 10962 011a 3B       		.uleb128 0x3b
 10963 011b 05       		.uleb128 0x5
 10964 011c 49       		.uleb128 0x49
 10965 011d 13       		.uleb128 0x13
 10966 011e 38       		.uleb128 0x38
 10967 011f 0A       		.uleb128 0xa
 10968 0120 00       		.byte	0
 10969 0121 00       		.byte	0
 10970 0122 19       		.uleb128 0x19
 10971 0123 13       		.uleb128 0x13
 10972 0124 01       		.byte	0x1
 10973 0125 03       		.uleb128 0x3
 10974 0126 0E       		.uleb128 0xe
 10975 0127 0B       		.uleb128 0xb
 10976 0128 0B       		.uleb128 0xb
 10977 0129 3A       		.uleb128 0x3a
 10978 012a 0B       		.uleb128 0xb
 10979 012b 3B       		.uleb128 0x3b
 10980 012c 05       		.uleb128 0x5
 10981 012d 01       		.uleb128 0x1
 10982 012e 13       		.uleb128 0x13
 10983 012f 00       		.byte	0
 10984 0130 00       		.byte	0
 10985 0131 1A       		.uleb128 0x1a
 10986 0132 13       		.uleb128 0x13
 10987 0133 01       		.byte	0x1
 10988 0134 0B       		.uleb128 0xb
 10989 0135 0B       		.uleb128 0xb
 10990 0136 3A       		.uleb128 0x3a
 10991 0137 0B       		.uleb128 0xb
 10992 0138 3B       		.uleb128 0x3b
ARM GAS  C:\Users\EBANO_~1\AppData\Local\Temp\ccpYmjAB.s 			page 221


 10993 0139 05       		.uleb128 0x5
 10994 013a 01       		.uleb128 0x1
 10995 013b 13       		.uleb128 0x13
 10996 013c 00       		.byte	0
 10997 013d 00       		.byte	0
 10998 013e 1B       		.uleb128 0x1b
 10999 013f 17       		.uleb128 0x17
 11000 0140 01       		.byte	0x1
 11001 0141 0B       		.uleb128 0xb
 11002 0142 0B       		.uleb128 0xb
 11003 0143 3A       		.uleb128 0x3a
 11004 0144 0B       		.uleb128 0xb
 11005 0145 3B       		.uleb128 0x3b
 11006 0146 05       		.uleb128 0x5
 11007 0147 01       		.uleb128 0x1
 11008 0148 13       		.uleb128 0x13
 11009 0149 00       		.byte	0
 11010 014a 00       		.byte	0
 11011 014b 1C       		.uleb128 0x1c
 11012 014c 0D       		.uleb128 0xd
 11013 014d 00       		.byte	0
 11014 014e 03       		.uleb128 0x3
 11015 014f 0E       		.uleb128 0xe
 11016 0150 3A       		.uleb128 0x3a
 11017 0151 0B       		.uleb128 0xb
 11018 0152 3B       		.uleb128 0x3b
 11019 0153 05       		.uleb128 0x5
 11020 0154 49       		.uleb128 0x49
 11021 0155 13       		.uleb128 0x13
 11022 0156 00       		.byte	0
 11023 0157 00       		.byte	0
 11024 0158 1D       		.uleb128 0x1d
 11025 0159 15       		.uleb128 0x15
 11026 015a 01       		.byte	0x1
 11027 015b 27       		.uleb128 0x27
 11028 015c 0C       		.uleb128 0xc
 11029 015d 01       		.uleb128 0x1
 11030 015e 13       		.uleb128 0x13
 11031 015f 00       		.byte	0
 11032 0160 00       		.byte	0
 11033 0161 1E       		.uleb128 0x1e
 11034 0162 34       		.uleb128 0x34
 11035 0163 00       		.byte	0
 11036 0164 03       		.uleb128 0x3
 11037 0165 0E       		.uleb128 0xe
 11038 0166 3A       		.uleb128 0x3a
 11039 0167 0B       		.uleb128 0xb
 11040 0168 3B       		.uleb128 0x3b
 11041 0169 05       		.uleb128 0x5
 11042 016a 49       		.uleb128 0x49
 11043 016b 13       		.uleb128 0x13
 11044 016c 3F       		.uleb128 0x3f
 11045 016d 0C       		.uleb128 0xc
 11046 016e 3C       		.uleb128 0x3c
 11047 016f 0C       		.uleb128 0xc
 11048 0170 00       		.byte	0
 11049 0171 00       		.byte	0
ARM GAS  C:\Users\EBANO_~1\AppData\Local\Temp\ccpYmjAB.s 			page 222


 11050 0172 1F       		.uleb128 0x1f
 11051 0173 17       		.uleb128 0x17
 11052 0174 01       		.byte	0x1
 11053 0175 03       		.uleb128 0x3
 11054 0176 0E       		.uleb128 0xe
 11055 0177 0B       		.uleb128 0xb
 11056 0178 0B       		.uleb128 0xb
 11057 0179 3A       		.uleb128 0x3a
 11058 017a 0B       		.uleb128 0xb
 11059 017b 3B       		.uleb128 0x3b
 11060 017c 0B       		.uleb128 0xb
 11061 017d 01       		.uleb128 0x1
 11062 017e 13       		.uleb128 0x13
 11063 017f 00       		.byte	0
 11064 0180 00       		.byte	0
 11065 0181 20       		.uleb128 0x20
 11066 0182 04       		.uleb128 0x4
 11067 0183 01       		.byte	0x1
 11068 0184 3E       		.uleb128 0x3e
 11069 0185 0B       		.uleb128 0xb
 11070 0186 0B       		.uleb128 0xb
 11071 0187 0B       		.uleb128 0xb
 11072 0188 49       		.uleb128 0x49
 11073 0189 13       		.uleb128 0x13
 11074 018a 3A       		.uleb128 0x3a
 11075 018b 0B       		.uleb128 0xb
 11076 018c 3B       		.uleb128 0x3b
 11077 018d 0B       		.uleb128 0xb
 11078 018e 01       		.uleb128 0x1
 11079 018f 13       		.uleb128 0x13
 11080 0190 00       		.byte	0
 11081 0191 00       		.byte	0
 11082 0192 21       		.uleb128 0x21
 11083 0193 28       		.uleb128 0x28
 11084 0194 00       		.byte	0
 11085 0195 03       		.uleb128 0x3
 11086 0196 0E       		.uleb128 0xe
 11087 0197 1C       		.uleb128 0x1c
 11088 0198 0B       		.uleb128 0xb
 11089 0199 00       		.byte	0
 11090 019a 00       		.byte	0
 11091 019b 22       		.uleb128 0x22
 11092 019c 0D       		.uleb128 0xd
 11093 019d 00       		.byte	0
 11094 019e 03       		.uleb128 0x3
 11095 019f 08       		.uleb128 0x8
 11096 01a0 3A       		.uleb128 0x3a
 11097 01a1 0B       		.uleb128 0xb
 11098 01a2 3B       		.uleb128 0x3b
 11099 01a3 05       		.uleb128 0x5
 11100 01a4 49       		.uleb128 0x49
 11101 01a5 13       		.uleb128 0x13
 11102 01a6 38       		.uleb128 0x38
 11103 01a7 0A       		.uleb128 0xa
 11104 01a8 00       		.byte	0
 11105 01a9 00       		.byte	0
 11106 01aa 23       		.uleb128 0x23
ARM GAS  C:\Users\EBANO_~1\AppData\Local\Temp\ccpYmjAB.s 			page 223


 11107 01ab 15       		.uleb128 0x15
 11108 01ac 00       		.byte	0
 11109 01ad 27       		.uleb128 0x27
 11110 01ae 0C       		.uleb128 0xc
 11111 01af 49       		.uleb128 0x49
 11112 01b0 13       		.uleb128 0x13
 11113 01b1 00       		.byte	0
 11114 01b2 00       		.byte	0
 11115 01b3 24       		.uleb128 0x24
 11116 01b4 0D       		.uleb128 0xd
 11117 01b5 00       		.byte	0
 11118 01b6 03       		.uleb128 0x3
 11119 01b7 08       		.uleb128 0x8
 11120 01b8 3A       		.uleb128 0x3a
 11121 01b9 0B       		.uleb128 0xb
 11122 01ba 3B       		.uleb128 0x3b
 11123 01bb 0B       		.uleb128 0xb
 11124 01bc 49       		.uleb128 0x49
 11125 01bd 13       		.uleb128 0x13
 11126 01be 0B       		.uleb128 0xb
 11127 01bf 0B       		.uleb128 0xb
 11128 01c0 0D       		.uleb128 0xd
 11129 01c1 0B       		.uleb128 0xb
 11130 01c2 0C       		.uleb128 0xc
 11131 01c3 0B       		.uleb128 0xb
 11132 01c4 38       		.uleb128 0x38
 11133 01c5 0A       		.uleb128 0xa
 11134 01c6 00       		.byte	0
 11135 01c7 00       		.byte	0
 11136 01c8 25       		.uleb128 0x25
 11137 01c9 04       		.uleb128 0x4
 11138 01ca 01       		.byte	0x1
 11139 01cb 03       		.uleb128 0x3
 11140 01cc 0E       		.uleb128 0xe
 11141 01cd 3E       		.uleb128 0x3e
 11142 01ce 0B       		.uleb128 0xb
 11143 01cf 0B       		.uleb128 0xb
 11144 01d0 0B       		.uleb128 0xb
 11145 01d1 49       		.uleb128 0x49
 11146 01d2 13       		.uleb128 0x13
 11147 01d3 3A       		.uleb128 0x3a
 11148 01d4 0B       		.uleb128 0xb
 11149 01d5 3B       		.uleb128 0x3b
 11150 01d6 0B       		.uleb128 0xb
 11151 01d7 01       		.uleb128 0x1
 11152 01d8 13       		.uleb128 0x13
 11153 01d9 00       		.byte	0
 11154 01da 00       		.byte	0
 11155 01db 26       		.uleb128 0x26
 11156 01dc 04       		.uleb128 0x4
 11157 01dd 01       		.byte	0x1
 11158 01de 03       		.uleb128 0x3
 11159 01df 0E       		.uleb128 0xe
 11160 01e0 3E       		.uleb128 0x3e
 11161 01e1 0B       		.uleb128 0xb
 11162 01e2 0B       		.uleb128 0xb
 11163 01e3 0B       		.uleb128 0xb
ARM GAS  C:\Users\EBANO_~1\AppData\Local\Temp\ccpYmjAB.s 			page 224


 11164 01e4 49       		.uleb128 0x49
 11165 01e5 13       		.uleb128 0x13
 11166 01e6 3A       		.uleb128 0x3a
 11167 01e7 0B       		.uleb128 0xb
 11168 01e8 3B       		.uleb128 0x3b
 11169 01e9 05       		.uleb128 0x5
 11170 01ea 01       		.uleb128 0x1
 11171 01eb 13       		.uleb128 0x13
 11172 01ec 00       		.byte	0
 11173 01ed 00       		.byte	0
 11174 01ee 27       		.uleb128 0x27
 11175 01ef 34       		.uleb128 0x34
 11176 01f0 00       		.byte	0
 11177 01f1 03       		.uleb128 0x3
 11178 01f2 0E       		.uleb128 0xe
 11179 01f3 3A       		.uleb128 0x3a
 11180 01f4 0B       		.uleb128 0xb
 11181 01f5 3B       		.uleb128 0x3b
 11182 01f6 05       		.uleb128 0x5
 11183 01f7 49       		.uleb128 0x49
 11184 01f8 13       		.uleb128 0x13
 11185 01f9 1C       		.uleb128 0x1c
 11186 01fa 0A       		.uleb128 0xa
 11187 01fb 00       		.byte	0
 11188 01fc 00       		.byte	0
 11189 01fd 28       		.uleb128 0x28
 11190 01fe 17       		.uleb128 0x17
 11191 01ff 01       		.byte	0x1
 11192 0200 03       		.uleb128 0x3
 11193 0201 0E       		.uleb128 0xe
 11194 0202 0B       		.uleb128 0xb
 11195 0203 0B       		.uleb128 0xb
 11196 0204 3A       		.uleb128 0x3a
 11197 0205 0B       		.uleb128 0xb
 11198 0206 3B       		.uleb128 0x3b
 11199 0207 05       		.uleb128 0x5
 11200 0208 01       		.uleb128 0x1
 11201 0209 13       		.uleb128 0x13
 11202 020a 00       		.byte	0
 11203 020b 00       		.byte	0
 11204 020c 29       		.uleb128 0x29
 11205 020d 34       		.uleb128 0x34
 11206 020e 00       		.byte	0
 11207 020f 03       		.uleb128 0x3
 11208 0210 0E       		.uleb128 0xe
 11209 0211 3A       		.uleb128 0x3a
 11210 0212 0B       		.uleb128 0xb
 11211 0213 3B       		.uleb128 0x3b
 11212 0214 05       		.uleb128 0x5
 11213 0215 49       		.uleb128 0x49
 11214 0216 13       		.uleb128 0x13
 11215 0217 02       		.uleb128 0x2
 11216 0218 0A       		.uleb128 0xa
 11217 0219 00       		.byte	0
 11218 021a 00       		.byte	0
 11219 021b 2A       		.uleb128 0x2a
 11220 021c 34       		.uleb128 0x34
ARM GAS  C:\Users\EBANO_~1\AppData\Local\Temp\ccpYmjAB.s 			page 225


 11221 021d 00       		.byte	0
 11222 021e 03       		.uleb128 0x3
 11223 021f 0E       		.uleb128 0xe
 11224 0220 3A       		.uleb128 0x3a
 11225 0221 0B       		.uleb128 0xb
 11226 0222 3B       		.uleb128 0x3b
 11227 0223 0B       		.uleb128 0xb
 11228 0224 49       		.uleb128 0x49
 11229 0225 13       		.uleb128 0x13
 11230 0226 02       		.uleb128 0x2
 11231 0227 0A       		.uleb128 0xa
 11232 0228 00       		.byte	0
 11233 0229 00       		.byte	0
 11234 022a 2B       		.uleb128 0x2b
 11235 022b 2E       		.uleb128 0x2e
 11236 022c 01       		.byte	0x1
 11237 022d 3F       		.uleb128 0x3f
 11238 022e 0C       		.uleb128 0xc
 11239 022f 03       		.uleb128 0x3
 11240 0230 0E       		.uleb128 0xe
 11241 0231 3A       		.uleb128 0x3a
 11242 0232 0B       		.uleb128 0xb
 11243 0233 3B       		.uleb128 0x3b
 11244 0234 05       		.uleb128 0x5
 11245 0235 27       		.uleb128 0x27
 11246 0236 0C       		.uleb128 0xc
 11247 0237 11       		.uleb128 0x11
 11248 0238 01       		.uleb128 0x1
 11249 0239 12       		.uleb128 0x12
 11250 023a 01       		.uleb128 0x1
 11251 023b 40       		.uleb128 0x40
 11252 023c 06       		.uleb128 0x6
 11253 023d 9742     		.uleb128 0x2117
 11254 023f 0C       		.uleb128 0xc
 11255 0240 01       		.uleb128 0x1
 11256 0241 13       		.uleb128 0x13
 11257 0242 00       		.byte	0
 11258 0243 00       		.byte	0
 11259 0244 2C       		.uleb128 0x2c
 11260 0245 05       		.uleb128 0x5
 11261 0246 00       		.byte	0
 11262 0247 03       		.uleb128 0x3
 11263 0248 0E       		.uleb128 0xe
 11264 0249 3A       		.uleb128 0x3a
 11265 024a 0B       		.uleb128 0xb
 11266 024b 3B       		.uleb128 0x3b
 11267 024c 05       		.uleb128 0x5
 11268 024d 49       		.uleb128 0x49
 11269 024e 13       		.uleb128 0x13
 11270 024f 02       		.uleb128 0x2
 11271 0250 06       		.uleb128 0x6
 11272 0251 00       		.byte	0
 11273 0252 00       		.byte	0
 11274 0253 2D       		.uleb128 0x2d
 11275 0254 898201   		.uleb128 0x4109
 11276 0257 01       		.byte	0x1
 11277 0258 11       		.uleb128 0x11
ARM GAS  C:\Users\EBANO_~1\AppData\Local\Temp\ccpYmjAB.s 			page 226


 11278 0259 01       		.uleb128 0x1
 11279 025a 31       		.uleb128 0x31
 11280 025b 13       		.uleb128 0x13
 11281 025c 00       		.byte	0
 11282 025d 00       		.byte	0
 11283 025e 2E       		.uleb128 0x2e
 11284 025f 8A8201   		.uleb128 0x410a
 11285 0262 00       		.byte	0
 11286 0263 02       		.uleb128 0x2
 11287 0264 0A       		.uleb128 0xa
 11288 0265 9142     		.uleb128 0x2111
 11289 0267 0A       		.uleb128 0xa
 11290 0268 00       		.byte	0
 11291 0269 00       		.byte	0
 11292 026a 2F       		.uleb128 0x2f
 11293 026b 2E       		.uleb128 0x2e
 11294 026c 01       		.byte	0x1
 11295 026d 3F       		.uleb128 0x3f
 11296 026e 0C       		.uleb128 0xc
 11297 026f 03       		.uleb128 0x3
 11298 0270 0E       		.uleb128 0xe
 11299 0271 3A       		.uleb128 0x3a
 11300 0272 0B       		.uleb128 0xb
 11301 0273 3B       		.uleb128 0x3b
 11302 0274 05       		.uleb128 0x5
 11303 0275 27       		.uleb128 0x27
 11304 0276 0C       		.uleb128 0xc
 11305 0277 49       		.uleb128 0x49
 11306 0278 13       		.uleb128 0x13
 11307 0279 11       		.uleb128 0x11
 11308 027a 01       		.uleb128 0x1
 11309 027b 12       		.uleb128 0x12
 11310 027c 01       		.uleb128 0x1
 11311 027d 40       		.uleb128 0x40
 11312 027e 0A       		.uleb128 0xa
 11313 027f 9742     		.uleb128 0x2117
 11314 0281 0C       		.uleb128 0xc
 11315 0282 01       		.uleb128 0x1
 11316 0283 13       		.uleb128 0x13
 11317 0284 00       		.byte	0
 11318 0285 00       		.byte	0
 11319 0286 30       		.uleb128 0x30
 11320 0287 05       		.uleb128 0x5
 11321 0288 00       		.byte	0
 11322 0289 03       		.uleb128 0x3
 11323 028a 08       		.uleb128 0x8
 11324 028b 3A       		.uleb128 0x3a
 11325 028c 0B       		.uleb128 0xb
 11326 028d 3B       		.uleb128 0x3b
 11327 028e 05       		.uleb128 0x5
 11328 028f 49       		.uleb128 0x49
 11329 0290 13       		.uleb128 0x13
 11330 0291 02       		.uleb128 0x2
 11331 0292 06       		.uleb128 0x6
 11332 0293 00       		.byte	0
 11333 0294 00       		.byte	0
 11334 0295 31       		.uleb128 0x31
ARM GAS  C:\Users\EBANO_~1\AppData\Local\Temp\ccpYmjAB.s 			page 227


 11335 0296 05       		.uleb128 0x5
 11336 0297 00       		.byte	0
 11337 0298 03       		.uleb128 0x3
 11338 0299 0E       		.uleb128 0xe
 11339 029a 3A       		.uleb128 0x3a
 11340 029b 0B       		.uleb128 0xb
 11341 029c 3B       		.uleb128 0x3b
 11342 029d 05       		.uleb128 0x5
 11343 029e 49       		.uleb128 0x49
 11344 029f 13       		.uleb128 0x13
 11345 02a0 02       		.uleb128 0x2
 11346 02a1 0A       		.uleb128 0xa
 11347 02a2 00       		.byte	0
 11348 02a3 00       		.byte	0
 11349 02a4 32       		.uleb128 0x32
 11350 02a5 34       		.uleb128 0x34
 11351 02a6 00       		.byte	0
 11352 02a7 03       		.uleb128 0x3
 11353 02a8 0E       		.uleb128 0xe
 11354 02a9 3A       		.uleb128 0x3a
 11355 02aa 0B       		.uleb128 0xb
 11356 02ab 3B       		.uleb128 0x3b
 11357 02ac 05       		.uleb128 0x5
 11358 02ad 49       		.uleb128 0x49
 11359 02ae 13       		.uleb128 0x13
 11360 02af 00       		.byte	0
 11361 02b0 00       		.byte	0
 11362 02b1 33       		.uleb128 0x33
 11363 02b2 34       		.uleb128 0x34
 11364 02b3 00       		.byte	0
 11365 02b4 03       		.uleb128 0x3
 11366 02b5 0E       		.uleb128 0xe
 11367 02b6 3A       		.uleb128 0x3a
 11368 02b7 0B       		.uleb128 0xb
 11369 02b8 3B       		.uleb128 0x3b
 11370 02b9 05       		.uleb128 0x5
 11371 02ba 49       		.uleb128 0x49
 11372 02bb 13       		.uleb128 0x13
 11373 02bc 02       		.uleb128 0x2
 11374 02bd 06       		.uleb128 0x6
 11375 02be 00       		.byte	0
 11376 02bf 00       		.byte	0
 11377 02c0 34       		.uleb128 0x34
 11378 02c1 1D       		.uleb128 0x1d
 11379 02c2 01       		.byte	0x1
 11380 02c3 31       		.uleb128 0x31
 11381 02c4 13       		.uleb128 0x13
 11382 02c5 52       		.uleb128 0x52
 11383 02c6 01       		.uleb128 0x1
 11384 02c7 55       		.uleb128 0x55
 11385 02c8 06       		.uleb128 0x6
 11386 02c9 58       		.uleb128 0x58
 11387 02ca 0B       		.uleb128 0xb
 11388 02cb 59       		.uleb128 0x59
 11389 02cc 05       		.uleb128 0x5
 11390 02cd 01       		.uleb128 0x1
 11391 02ce 13       		.uleb128 0x13
ARM GAS  C:\Users\EBANO_~1\AppData\Local\Temp\ccpYmjAB.s 			page 228


 11392 02cf 00       		.byte	0
 11393 02d0 00       		.byte	0
 11394 02d1 35       		.uleb128 0x35
 11395 02d2 05       		.uleb128 0x5
 11396 02d3 00       		.byte	0
 11397 02d4 31       		.uleb128 0x31
 11398 02d5 13       		.uleb128 0x13
 11399 02d6 02       		.uleb128 0x2
 11400 02d7 06       		.uleb128 0x6
 11401 02d8 00       		.byte	0
 11402 02d9 00       		.byte	0
 11403 02da 36       		.uleb128 0x36
 11404 02db 05       		.uleb128 0x5
 11405 02dc 00       		.byte	0
 11406 02dd 31       		.uleb128 0x31
 11407 02de 13       		.uleb128 0x13
 11408 02df 02       		.uleb128 0x2
 11409 02e0 0A       		.uleb128 0xa
 11410 02e1 00       		.byte	0
 11411 02e2 00       		.byte	0
 11412 02e3 37       		.uleb128 0x37
 11413 02e4 05       		.uleb128 0x5
 11414 02e5 00       		.byte	0
 11415 02e6 31       		.uleb128 0x31
 11416 02e7 13       		.uleb128 0x13
 11417 02e8 00       		.byte	0
 11418 02e9 00       		.byte	0
 11419 02ea 38       		.uleb128 0x38
 11420 02eb 0B       		.uleb128 0xb
 11421 02ec 01       		.byte	0x1
 11422 02ed 55       		.uleb128 0x55
 11423 02ee 06       		.uleb128 0x6
 11424 02ef 00       		.byte	0
 11425 02f0 00       		.byte	0
 11426 02f1 39       		.uleb128 0x39
 11427 02f2 34       		.uleb128 0x34
 11428 02f3 00       		.byte	0
 11429 02f4 31       		.uleb128 0x31
 11430 02f5 13       		.uleb128 0x13
 11431 02f6 00       		.byte	0
 11432 02f7 00       		.byte	0
 11433 02f8 3A       		.uleb128 0x3a
 11434 02f9 898201   		.uleb128 0x4109
 11435 02fc 00       		.byte	0
 11436 02fd 11       		.uleb128 0x11
 11437 02fe 01       		.uleb128 0x1
 11438 02ff 31       		.uleb128 0x31
 11439 0300 13       		.uleb128 0x13
 11440 0301 00       		.byte	0
 11441 0302 00       		.byte	0
 11442 0303 3B       		.uleb128 0x3b
 11443 0304 898201   		.uleb128 0x4109
 11444 0307 01       		.byte	0x1
 11445 0308 11       		.uleb128 0x11
 11446 0309 01       		.uleb128 0x1
 11447 030a 00       		.byte	0
 11448 030b 00       		.byte	0
ARM GAS  C:\Users\EBANO_~1\AppData\Local\Temp\ccpYmjAB.s 			page 229


 11449 030c 3C       		.uleb128 0x3c
 11450 030d 2E       		.uleb128 0x2e
 11451 030e 01       		.byte	0x1
 11452 030f 3F       		.uleb128 0x3f
 11453 0310 0C       		.uleb128 0xc
 11454 0311 03       		.uleb128 0x3
 11455 0312 0E       		.uleb128 0xe
 11456 0313 3A       		.uleb128 0x3a
 11457 0314 0B       		.uleb128 0xb
 11458 0315 3B       		.uleb128 0x3b
 11459 0316 05       		.uleb128 0x5
 11460 0317 27       		.uleb128 0x27
 11461 0318 0C       		.uleb128 0xc
 11462 0319 49       		.uleb128 0x49
 11463 031a 13       		.uleb128 0x13
 11464 031b 20       		.uleb128 0x20
 11465 031c 0B       		.uleb128 0xb
 11466 031d 01       		.uleb128 0x1
 11467 031e 13       		.uleb128 0x13
 11468 031f 00       		.byte	0
 11469 0320 00       		.byte	0
 11470 0321 3D       		.uleb128 0x3d
 11471 0322 05       		.uleb128 0x5
 11472 0323 00       		.byte	0
 11473 0324 03       		.uleb128 0x3
 11474 0325 0E       		.uleb128 0xe
 11475 0326 3A       		.uleb128 0x3a
 11476 0327 0B       		.uleb128 0xb
 11477 0328 3B       		.uleb128 0x3b
 11478 0329 05       		.uleb128 0x5
 11479 032a 49       		.uleb128 0x49
 11480 032b 13       		.uleb128 0x13
 11481 032c 00       		.byte	0
 11482 032d 00       		.byte	0
 11483 032e 3E       		.uleb128 0x3e
 11484 032f 34       		.uleb128 0x34
 11485 0330 00       		.byte	0
 11486 0331 03       		.uleb128 0x3
 11487 0332 08       		.uleb128 0x8
 11488 0333 3A       		.uleb128 0x3a
 11489 0334 0B       		.uleb128 0xb
 11490 0335 3B       		.uleb128 0x3b
 11491 0336 05       		.uleb128 0x5
 11492 0337 49       		.uleb128 0x49
 11493 0338 13       		.uleb128 0x13
 11494 0339 00       		.byte	0
 11495 033a 00       		.byte	0
 11496 033b 3F       		.uleb128 0x3f
 11497 033c 2E       		.uleb128 0x2e
 11498 033d 01       		.byte	0x1
 11499 033e 3F       		.uleb128 0x3f
 11500 033f 0C       		.uleb128 0xc
 11501 0340 03       		.uleb128 0x3
 11502 0341 0E       		.uleb128 0xe
 11503 0342 3A       		.uleb128 0x3a
 11504 0343 0B       		.uleb128 0xb
 11505 0344 3B       		.uleb128 0x3b
ARM GAS  C:\Users\EBANO_~1\AppData\Local\Temp\ccpYmjAB.s 			page 230


 11506 0345 05       		.uleb128 0x5
 11507 0346 27       		.uleb128 0x27
 11508 0347 0C       		.uleb128 0xc
 11509 0348 49       		.uleb128 0x49
 11510 0349 13       		.uleb128 0x13
 11511 034a 11       		.uleb128 0x11
 11512 034b 01       		.uleb128 0x1
 11513 034c 12       		.uleb128 0x12
 11514 034d 01       		.uleb128 0x1
 11515 034e 40       		.uleb128 0x40
 11516 034f 06       		.uleb128 0x6
 11517 0350 9742     		.uleb128 0x2117
 11518 0352 0C       		.uleb128 0xc
 11519 0353 01       		.uleb128 0x1
 11520 0354 13       		.uleb128 0x13
 11521 0355 00       		.byte	0
 11522 0356 00       		.byte	0
 11523 0357 40       		.uleb128 0x40
 11524 0358 34       		.uleb128 0x34
 11525 0359 00       		.byte	0
 11526 035a 31       		.uleb128 0x31
 11527 035b 13       		.uleb128 0x13
 11528 035c 02       		.uleb128 0x2
 11529 035d 06       		.uleb128 0x6
 11530 035e 00       		.byte	0
 11531 035f 00       		.byte	0
 11532 0360 41       		.uleb128 0x41
 11533 0361 0B       		.uleb128 0xb
 11534 0362 01       		.byte	0x1
 11535 0363 31       		.uleb128 0x31
 11536 0364 13       		.uleb128 0x13
 11537 0365 55       		.uleb128 0x55
 11538 0366 06       		.uleb128 0x6
 11539 0367 00       		.byte	0
 11540 0368 00       		.byte	0
 11541 0369 42       		.uleb128 0x42
 11542 036a 898201   		.uleb128 0x4109
 11543 036d 01       		.byte	0x1
 11544 036e 11       		.uleb128 0x11
 11545 036f 01       		.uleb128 0x1
 11546 0370 31       		.uleb128 0x31
 11547 0371 13       		.uleb128 0x13
 11548 0372 01       		.uleb128 0x1
 11549 0373 13       		.uleb128 0x13
 11550 0374 00       		.byte	0
 11551 0375 00       		.byte	0
 11552 0376 43       		.uleb128 0x43
 11553 0377 1D       		.uleb128 0x1d
 11554 0378 01       		.byte	0x1
 11555 0379 31       		.uleb128 0x31
 11556 037a 13       		.uleb128 0x13
 11557 037b 52       		.uleb128 0x52
 11558 037c 01       		.uleb128 0x1
 11559 037d 55       		.uleb128 0x55
 11560 037e 06       		.uleb128 0x6
 11561 037f 58       		.uleb128 0x58
 11562 0380 0B       		.uleb128 0xb
ARM GAS  C:\Users\EBANO_~1\AppData\Local\Temp\ccpYmjAB.s 			page 231


 11563 0381 59       		.uleb128 0x59
 11564 0382 05       		.uleb128 0x5
 11565 0383 00       		.byte	0
 11566 0384 00       		.byte	0
 11567 0385 44       		.uleb128 0x44
 11568 0386 34       		.uleb128 0x34
 11569 0387 00       		.byte	0
 11570 0388 03       		.uleb128 0x3
 11571 0389 0E       		.uleb128 0xe
 11572 038a 3A       		.uleb128 0x3a
 11573 038b 0B       		.uleb128 0xb
 11574 038c 3B       		.uleb128 0x3b
 11575 038d 05       		.uleb128 0x5
 11576 038e 49       		.uleb128 0x49
 11577 038f 13       		.uleb128 0x13
 11578 0390 1C       		.uleb128 0x1c
 11579 0391 0B       		.uleb128 0xb
 11580 0392 00       		.byte	0
 11581 0393 00       		.byte	0
 11582 0394 45       		.uleb128 0x45
 11583 0395 898201   		.uleb128 0x4109
 11584 0398 01       		.byte	0x1
 11585 0399 11       		.uleb128 0x11
 11586 039a 01       		.uleb128 0x1
 11587 039b 01       		.uleb128 0x1
 11588 039c 13       		.uleb128 0x13
 11589 039d 00       		.byte	0
 11590 039e 00       		.byte	0
 11591 039f 46       		.uleb128 0x46
 11592 03a0 898201   		.uleb128 0x4109
 11593 03a3 00       		.byte	0
 11594 03a4 11       		.uleb128 0x11
 11595 03a5 01       		.uleb128 0x1
 11596 03a6 9342     		.uleb128 0x2113
 11597 03a8 0A       		.uleb128 0xa
 11598 03a9 00       		.byte	0
 11599 03aa 00       		.byte	0
 11600 03ab 47       		.uleb128 0x47
 11601 03ac 0B       		.uleb128 0xb
 11602 03ad 01       		.byte	0x1
 11603 03ae 55       		.uleb128 0x55
 11604 03af 06       		.uleb128 0x6
 11605 03b0 01       		.uleb128 0x1
 11606 03b1 13       		.uleb128 0x13
 11607 03b2 00       		.byte	0
 11608 03b3 00       		.byte	0
 11609 03b4 48       		.uleb128 0x48
 11610 03b5 34       		.uleb128 0x34
 11611 03b6 00       		.byte	0
 11612 03b7 03       		.uleb128 0x3
 11613 03b8 08       		.uleb128 0x8
 11614 03b9 3A       		.uleb128 0x3a
 11615 03ba 0B       		.uleb128 0xb
 11616 03bb 3B       		.uleb128 0x3b
 11617 03bc 05       		.uleb128 0x5
 11618 03bd 49       		.uleb128 0x49
 11619 03be 13       		.uleb128 0x13
ARM GAS  C:\Users\EBANO_~1\AppData\Local\Temp\ccpYmjAB.s 			page 232


 11620 03bf 02       		.uleb128 0x2
 11621 03c0 06       		.uleb128 0x6
 11622 03c1 00       		.byte	0
 11623 03c2 00       		.byte	0
 11624 03c3 49       		.uleb128 0x49
 11625 03c4 898201   		.uleb128 0x4109
 11626 03c7 01       		.byte	0x1
 11627 03c8 11       		.uleb128 0x11
 11628 03c9 01       		.uleb128 0x1
 11629 03ca 9342     		.uleb128 0x2113
 11630 03cc 0A       		.uleb128 0xa
 11631 03cd 01       		.uleb128 0x1
 11632 03ce 13       		.uleb128 0x13
 11633 03cf 00       		.byte	0
 11634 03d0 00       		.byte	0
 11635 03d1 4A       		.uleb128 0x4a
 11636 03d2 898201   		.uleb128 0x4109
 11637 03d5 01       		.byte	0x1
 11638 03d6 11       		.uleb128 0x11
 11639 03d7 01       		.uleb128 0x1
 11640 03d8 9342     		.uleb128 0x2113
 11641 03da 0A       		.uleb128 0xa
 11642 03db 00       		.byte	0
 11643 03dc 00       		.byte	0
 11644 03dd 4B       		.uleb128 0x4b
 11645 03de 898201   		.uleb128 0x4109
 11646 03e1 00       		.byte	0
 11647 03e2 11       		.uleb128 0x11
 11648 03e3 01       		.uleb128 0x1
 11649 03e4 00       		.byte	0
 11650 03e5 00       		.byte	0
 11651 03e6 4C       		.uleb128 0x4c
 11652 03e7 1D       		.uleb128 0x1d
 11653 03e8 01       		.byte	0x1
 11654 03e9 31       		.uleb128 0x31
 11655 03ea 13       		.uleb128 0x13
 11656 03eb 11       		.uleb128 0x11
 11657 03ec 01       		.uleb128 0x1
 11658 03ed 12       		.uleb128 0x12
 11659 03ee 01       		.uleb128 0x1
 11660 03ef 58       		.uleb128 0x58
 11661 03f0 0B       		.uleb128 0xb
 11662 03f1 59       		.uleb128 0x59
 11663 03f2 05       		.uleb128 0x5
 11664 03f3 00       		.byte	0
 11665 03f4 00       		.byte	0
 11666 03f5 4D       		.uleb128 0x4d
 11667 03f6 0B       		.uleb128 0xb
 11668 03f7 01       		.byte	0x1
 11669 03f8 11       		.uleb128 0x11
 11670 03f9 01       		.uleb128 0x1
 11671 03fa 12       		.uleb128 0x12
 11672 03fb 01       		.uleb128 0x1
 11673 03fc 00       		.byte	0
 11674 03fd 00       		.byte	0
 11675 03fe 4E       		.uleb128 0x4e
 11676 03ff 34       		.uleb128 0x34
ARM GAS  C:\Users\EBANO_~1\AppData\Local\Temp\ccpYmjAB.s 			page 233


 11677 0400 00       		.byte	0
 11678 0401 31       		.uleb128 0x31
 11679 0402 13       		.uleb128 0x13
 11680 0403 1C       		.uleb128 0x1c
 11681 0404 0B       		.uleb128 0xb
 11682 0405 00       		.byte	0
 11683 0406 00       		.byte	0
 11684 0407 4F       		.uleb128 0x4f
 11685 0408 2E       		.uleb128 0x2e
 11686 0409 01       		.byte	0x1
 11687 040a 3F       		.uleb128 0x3f
 11688 040b 0C       		.uleb128 0xc
 11689 040c 03       		.uleb128 0x3
 11690 040d 0E       		.uleb128 0xe
 11691 040e 3A       		.uleb128 0x3a
 11692 040f 0B       		.uleb128 0xb
 11693 0410 3B       		.uleb128 0x3b
 11694 0411 0B       		.uleb128 0xb
 11695 0412 27       		.uleb128 0x27
 11696 0413 0C       		.uleb128 0xc
 11697 0414 49       		.uleb128 0x49
 11698 0415 13       		.uleb128 0x13
 11699 0416 20       		.uleb128 0x20
 11700 0417 0B       		.uleb128 0xb
 11701 0418 01       		.uleb128 0x1
 11702 0419 13       		.uleb128 0x13
 11703 041a 00       		.byte	0
 11704 041b 00       		.byte	0
 11705 041c 50       		.uleb128 0x50
 11706 041d 05       		.uleb128 0x5
 11707 041e 00       		.byte	0
 11708 041f 03       		.uleb128 0x3
 11709 0420 0E       		.uleb128 0xe
 11710 0421 3A       		.uleb128 0x3a
 11711 0422 0B       		.uleb128 0xb
 11712 0423 3B       		.uleb128 0x3b
 11713 0424 0B       		.uleb128 0xb
 11714 0425 49       		.uleb128 0x49
 11715 0426 13       		.uleb128 0x13
 11716 0427 00       		.byte	0
 11717 0428 00       		.byte	0
 11718 0429 51       		.uleb128 0x51
 11719 042a 34       		.uleb128 0x34
 11720 042b 00       		.byte	0
 11721 042c 03       		.uleb128 0x3
 11722 042d 0E       		.uleb128 0xe
 11723 042e 3A       		.uleb128 0x3a
 11724 042f 0B       		.uleb128 0xb
 11725 0430 3B       		.uleb128 0x3b
 11726 0431 0B       		.uleb128 0xb
 11727 0432 49       		.uleb128 0x49
 11728 0433 13       		.uleb128 0x13
 11729 0434 00       		.byte	0
 11730 0435 00       		.byte	0
 11731 0436 52       		.uleb128 0x52
 11732 0437 2E       		.uleb128 0x2e
 11733 0438 01       		.byte	0x1
ARM GAS  C:\Users\EBANO_~1\AppData\Local\Temp\ccpYmjAB.s 			page 234


 11734 0439 03       		.uleb128 0x3
 11735 043a 0E       		.uleb128 0xe
 11736 043b 3A       		.uleb128 0x3a
 11737 043c 0B       		.uleb128 0xb
 11738 043d 3B       		.uleb128 0x3b
 11739 043e 0B       		.uleb128 0xb
 11740 043f 27       		.uleb128 0x27
 11741 0440 0C       		.uleb128 0xc
 11742 0441 49       		.uleb128 0x49
 11743 0442 13       		.uleb128 0x13
 11744 0443 20       		.uleb128 0x20
 11745 0444 0B       		.uleb128 0xb
 11746 0445 01       		.uleb128 0x1
 11747 0446 13       		.uleb128 0x13
 11748 0447 00       		.byte	0
 11749 0448 00       		.byte	0
 11750 0449 53       		.uleb128 0x53
 11751 044a 0B       		.uleb128 0xb
 11752 044b 01       		.byte	0x1
 11753 044c 00       		.byte	0
 11754 044d 00       		.byte	0
 11755 044e 54       		.uleb128 0x54
 11756 044f 34       		.uleb128 0x34
 11757 0450 00       		.byte	0
 11758 0451 03       		.uleb128 0x3
 11759 0452 08       		.uleb128 0x8
 11760 0453 3A       		.uleb128 0x3a
 11761 0454 0B       		.uleb128 0xb
 11762 0455 3B       		.uleb128 0x3b
 11763 0456 0B       		.uleb128 0xb
 11764 0457 49       		.uleb128 0x49
 11765 0458 13       		.uleb128 0x13
 11766 0459 00       		.byte	0
 11767 045a 00       		.byte	0
 11768 045b 55       		.uleb128 0x55
 11769 045c 05       		.uleb128 0x5
 11770 045d 00       		.byte	0
 11771 045e 03       		.uleb128 0x3
 11772 045f 08       		.uleb128 0x8
 11773 0460 3A       		.uleb128 0x3a
 11774 0461 0B       		.uleb128 0xb
 11775 0462 3B       		.uleb128 0x3b
 11776 0463 0B       		.uleb128 0xb
 11777 0464 49       		.uleb128 0x49
 11778 0465 13       		.uleb128 0x13
 11779 0466 00       		.byte	0
 11780 0467 00       		.byte	0
 11781 0468 56       		.uleb128 0x56
 11782 0469 2E       		.uleb128 0x2e
 11783 046a 01       		.byte	0x1
 11784 046b 31       		.uleb128 0x31
 11785 046c 13       		.uleb128 0x13
 11786 046d 11       		.uleb128 0x11
 11787 046e 01       		.uleb128 0x1
 11788 046f 12       		.uleb128 0x12
 11789 0470 01       		.uleb128 0x1
 11790 0471 40       		.uleb128 0x40
ARM GAS  C:\Users\EBANO_~1\AppData\Local\Temp\ccpYmjAB.s 			page 235


 11791 0472 06       		.uleb128 0x6
 11792 0473 9742     		.uleb128 0x2117
 11793 0475 0C       		.uleb128 0xc
 11794 0476 01       		.uleb128 0x1
 11795 0477 13       		.uleb128 0x13
 11796 0478 00       		.byte	0
 11797 0479 00       		.byte	0
 11798 047a 57       		.uleb128 0x57
 11799 047b 34       		.uleb128 0x34
 11800 047c 00       		.byte	0
 11801 047d 31       		.uleb128 0x31
 11802 047e 13       		.uleb128 0x13
 11803 047f 02       		.uleb128 0x2
 11804 0480 0A       		.uleb128 0xa
 11805 0481 00       		.byte	0
 11806 0482 00       		.byte	0
 11807 0483 58       		.uleb128 0x58
 11808 0484 1D       		.uleb128 0x1d
 11809 0485 01       		.byte	0x1
 11810 0486 31       		.uleb128 0x31
 11811 0487 13       		.uleb128 0x13
 11812 0488 11       		.uleb128 0x11
 11813 0489 01       		.uleb128 0x1
 11814 048a 12       		.uleb128 0x12
 11815 048b 01       		.uleb128 0x1
 11816 048c 58       		.uleb128 0x58
 11817 048d 0B       		.uleb128 0xb
 11818 048e 59       		.uleb128 0x59
 11819 048f 0B       		.uleb128 0xb
 11820 0490 01       		.uleb128 0x1
 11821 0491 13       		.uleb128 0x13
 11822 0492 00       		.byte	0
 11823 0493 00       		.byte	0
 11824 0494 59       		.uleb128 0x59
 11825 0495 2E       		.uleb128 0x2e
 11826 0496 00       		.byte	0
 11827 0497 3F       		.uleb128 0x3f
 11828 0498 0C       		.uleb128 0xc
 11829 0499 3C       		.uleb128 0x3c
 11830 049a 0C       		.uleb128 0xc
 11831 049b 8740     		.uleb128 0x2007
 11832 049d 0E       		.uleb128 0xe
 11833 049e 03       		.uleb128 0x3
 11834 049f 0E       		.uleb128 0xe
 11835 04a0 3A       		.uleb128 0x3a
 11836 04a1 0B       		.uleb128 0xb
 11837 04a2 3B       		.uleb128 0x3b
 11838 04a3 05       		.uleb128 0x5
 11839 04a4 00       		.byte	0
 11840 04a5 00       		.byte	0
 11841 04a6 5A       		.uleb128 0x5a
 11842 04a7 2E       		.uleb128 0x2e
 11843 04a8 00       		.byte	0
 11844 04a9 3F       		.uleb128 0x3f
 11845 04aa 0C       		.uleb128 0xc
 11846 04ab 3C       		.uleb128 0x3c
 11847 04ac 0C       		.uleb128 0xc
ARM GAS  C:\Users\EBANO_~1\AppData\Local\Temp\ccpYmjAB.s 			page 236


 11848 04ad 8740     		.uleb128 0x2007
 11849 04af 0E       		.uleb128 0xe
 11850 04b0 03       		.uleb128 0x3
 11851 04b1 0E       		.uleb128 0xe
 11852 04b2 3A       		.uleb128 0x3a
 11853 04b3 0B       		.uleb128 0xb
 11854 04b4 3B       		.uleb128 0x3b
 11855 04b5 0B       		.uleb128 0xb
 11856 04b6 00       		.byte	0
 11857 04b7 00       		.byte	0
 11858 04b8 5B       		.uleb128 0x5b
 11859 04b9 2E       		.uleb128 0x2e
 11860 04ba 00       		.byte	0
 11861 04bb 3F       		.uleb128 0x3f
 11862 04bc 0C       		.uleb128 0xc
 11863 04bd 3C       		.uleb128 0x3c
 11864 04be 0C       		.uleb128 0xc
 11865 04bf 8740     		.uleb128 0x2007
 11866 04c1 0E       		.uleb128 0xe
 11867 04c2 03       		.uleb128 0x3
 11868 04c3 0E       		.uleb128 0xe
 11869 04c4 3A       		.uleb128 0x3a
 11870 04c5 0B       		.uleb128 0xb
 11871 04c6 3B       		.uleb128 0x3b
 11872 04c7 0B       		.uleb128 0xb
 11873 04c8 8740     		.uleb128 0x2007
 11874 04ca 0E       		.uleb128 0xe
 11875 04cb 00       		.byte	0
 11876 04cc 00       		.byte	0
 11877 04cd 00       		.byte	0
 11878              		.section	.debug_loc,"",%progbits
 11879              	.Ldebug_loc0:
 11880              	.LLST113:
 11881 0000 00000000 		.4byte	.LFB66
 11882 0004 02000000 		.4byte	.LCFI39
 11883 0008 0200     		.2byte	0x2
 11884 000a 7D       		.byte	0x7d
 11885 000b 00       		.sleb128 0
 11886 000c 02000000 		.4byte	.LCFI39
 11887 0010 06000000 		.4byte	.LCFI40
 11888 0014 0200     		.2byte	0x2
 11889 0016 7D       		.byte	0x7d
 11890 0017 08       		.sleb128 8
 11891 0018 06000000 		.4byte	.LCFI40
 11892 001c 38000000 		.4byte	.LFE66
 11893 0020 0200     		.2byte	0x2
 11894 0022 7D       		.byte	0x7d
 11895 0023 20       		.sleb128 32
 11896 0024 00000000 		.4byte	0
 11897 0028 00000000 		.4byte	0
 11898              	.LLST114:
 11899 002c 00000000 		.4byte	.LVL332
 11900 0030 22000000 		.4byte	.LVL333
 11901 0034 0100     		.2byte	0x1
 11902 0036 50       		.byte	0x50
 11903 0037 22000000 		.4byte	.LVL333
 11904 003b 38000000 		.4byte	.LFE66
ARM GAS  C:\Users\EBANO_~1\AppData\Local\Temp\ccpYmjAB.s 			page 237


 11905 003f 0400     		.2byte	0x4
 11906 0041 F3       		.byte	0xf3
 11907 0042 01       		.uleb128 0x1
 11908 0043 50       		.byte	0x50
 11909 0044 9F       		.byte	0x9f
 11910 0045 00000000 		.4byte	0
 11911 0049 00000000 		.4byte	0
 11912              	.LLST115:
 11913 004d 00000000 		.4byte	.LVL332
 11914 0051 27000000 		.4byte	.LVL334-1
 11915 0055 0100     		.2byte	0x1
 11916 0057 51       		.byte	0x51
 11917 0058 27000000 		.4byte	.LVL334-1
 11918 005c 2E000000 		.4byte	.LVL335
 11919 0060 0100     		.2byte	0x1
 11920 0062 54       		.byte	0x54
 11921 0063 2E000000 		.4byte	.LVL335
 11922 0067 38000000 		.4byte	.LFE66
 11923 006b 0400     		.2byte	0x4
 11924 006d F3       		.byte	0xf3
 11925 006e 01       		.uleb128 0x1
 11926 006f 51       		.byte	0x51
 11927 0070 9F       		.byte	0x9f
 11928 0071 00000000 		.4byte	0
 11929 0075 00000000 		.4byte	0
 11930              	.LLST111:
 11931 0079 00000000 		.4byte	.LVL328
 11932 007d 06000000 		.4byte	.LVL331
 11933 0081 0100     		.2byte	0x1
 11934 0083 50       		.byte	0x50
 11935 0084 06000000 		.4byte	.LVL331
 11936 0088 0E000000 		.4byte	.LFE65
 11937 008c 0400     		.2byte	0x4
 11938 008e F3       		.byte	0xf3
 11939 008f 01       		.uleb128 0x1
 11940 0090 50       		.byte	0x50
 11941 0091 9F       		.byte	0x9f
 11942 0092 00000000 		.4byte	0
 11943 0096 00000000 		.4byte	0
 11944              	.LLST112:
 11945 009a 00000000 		.4byte	.LVL328
 11946 009e 02000000 		.4byte	.LVL329
 11947 00a2 0100     		.2byte	0x1
 11948 00a4 51       		.byte	0x51
 11949 00a5 02000000 		.4byte	.LVL329
 11950 00a9 0E000000 		.4byte	.LFE65
 11951 00ad 0400     		.2byte	0x4
 11952 00af F3       		.byte	0xf3
 11953 00b0 01       		.uleb128 0x1
 11954 00b1 51       		.byte	0x51
 11955 00b2 9F       		.byte	0x9f
 11956 00b3 00000000 		.4byte	0
 11957 00b7 00000000 		.4byte	0
 11958              	.LLST106:
 11959 00bb 00000000 		.4byte	.LFB64
 11960 00bf 02000000 		.4byte	.LCFI37
 11961 00c3 0200     		.2byte	0x2
ARM GAS  C:\Users\EBANO_~1\AppData\Local\Temp\ccpYmjAB.s 			page 238


 11962 00c5 7D       		.byte	0x7d
 11963 00c6 00       		.sleb128 0
 11964 00c7 02000000 		.4byte	.LCFI37
 11965 00cb 26000000 		.4byte	.LCFI38
 11966 00cf 0200     		.2byte	0x2
 11967 00d1 7D       		.byte	0x7d
 11968 00d2 14       		.sleb128 20
 11969 00d3 26000000 		.4byte	.LCFI38
 11970 00d7 50000000 		.4byte	.LFE64
 11971 00db 0200     		.2byte	0x2
 11972 00dd 7D       		.byte	0x7d
 11973 00de 20       		.sleb128 32
 11974 00df 00000000 		.4byte	0
 11975 00e3 00000000 		.4byte	0
 11976              	.LLST107:
 11977 00e7 00000000 		.4byte	.LVL319
 11978 00eb 08000000 		.4byte	.LVL321
 11979 00ef 0100     		.2byte	0x1
 11980 00f1 50       		.byte	0x50
 11981 00f2 08000000 		.4byte	.LVL321
 11982 00f6 46000000 		.4byte	.LVL326
 11983 00fa 0100     		.2byte	0x1
 11984 00fc 54       		.byte	0x54
 11985 00fd 46000000 		.4byte	.LVL326
 11986 0101 50000000 		.4byte	.LFE64
 11987 0105 0400     		.2byte	0x4
 11988 0107 F3       		.byte	0xf3
 11989 0108 01       		.uleb128 0x1
 11990 0109 50       		.byte	0x50
 11991 010a 9F       		.byte	0x9f
 11992 010b 00000000 		.4byte	0
 11993 010f 00000000 		.4byte	0
 11994              	.LLST108:
 11995 0113 06000000 		.4byte	.LVL320
 11996 0117 3A000000 		.4byte	.LVL324
 11997 011b 0200     		.2byte	0x2
 11998 011d 30       		.byte	0x30
 11999 011e 9F       		.byte	0x9f
 12000 011f 3A000000 		.4byte	.LVL324
 12001 0123 43000000 		.4byte	.LVL325-1
 12002 0127 0100     		.2byte	0x1
 12003 0129 51       		.byte	0x51
 12004 012a 00000000 		.4byte	0
 12005 012e 00000000 		.4byte	0
 12006              	.LLST109:
 12007 0132 10000000 		.4byte	.LVL322
 12008 0136 46000000 		.4byte	.LVL327
 12009 013a 0100     		.2byte	0x1
 12010 013c 55       		.byte	0x55
 12011 013d 00000000 		.4byte	0
 12012 0141 00000000 		.4byte	0
 12013              	.LLST110:
 12014 0145 06000000 		.4byte	.LVL320
 12015 0149 08000000 		.4byte	.LVL321
 12016 014d 0200     		.2byte	0x2
 12017 014f 70       		.byte	0x70
 12018 0150 01       		.sleb128 1
ARM GAS  C:\Users\EBANO_~1\AppData\Local\Temp\ccpYmjAB.s 			page 239


 12019 0151 08000000 		.4byte	.LVL321
 12020 0155 35000000 		.4byte	.LVL323-1
 12021 0159 0200     		.2byte	0x2
 12022 015b 74       		.byte	0x74
 12023 015c 01       		.sleb128 1
 12024 015d 00000000 		.4byte	0
 12025 0161 00000000 		.4byte	0
 12026              	.LLST77:
 12027 0165 00000000 		.4byte	.LFB61
 12028 0169 02000000 		.4byte	.LCFI31
 12029 016d 0200     		.2byte	0x2
 12030 016f 7D       		.byte	0x7d
 12031 0170 00       		.sleb128 0
 12032 0171 02000000 		.4byte	.LCFI31
 12033 0175 0C000000 		.4byte	.LCFI32
 12034 0179 0200     		.2byte	0x2
 12035 017b 7D       		.byte	0x7d
 12036 017c 14       		.sleb128 20
 12037 017d 0C000000 		.4byte	.LCFI32
 12038 0181 0E000000 		.4byte	.LCFI33
 12039 0185 0200     		.2byte	0x2
 12040 0187 7D       		.byte	0x7d
 12041 0188 24       		.sleb128 36
 12042 0189 0E000000 		.4byte	.LCFI33
 12043 018d BC010000 		.4byte	.LFE61
 12044 0191 0300     		.2byte	0x3
 12045 0193 7D       		.byte	0x7d
 12046 0194 D000     		.sleb128 80
 12047 0196 00000000 		.4byte	0
 12048 019a 00000000 		.4byte	0
 12049              	.LLST78:
 12050 019e 00000000 		.4byte	.LVL248
 12051 01a2 18000000 		.4byte	.LVL250
 12052 01a6 0100     		.2byte	0x1
 12053 01a8 50       		.byte	0x50
 12054 01a9 18000000 		.4byte	.LVL250
 12055 01ad 72000000 		.4byte	.LVL259
 12056 01b1 0100     		.2byte	0x1
 12057 01b3 54       		.byte	0x54
 12058 01b4 72000000 		.4byte	.LVL259
 12059 01b8 0E010000 		.4byte	.LVL273
 12060 01bc 0400     		.2byte	0x4
 12061 01be F3       		.byte	0xf3
 12062 01bf 01       		.uleb128 0x1
 12063 01c0 50       		.byte	0x50
 12064 01c1 9F       		.byte	0x9f
 12065 01c2 0E010000 		.4byte	.LVL273
 12066 01c6 1A010000 		.4byte	.LVL275
 12067 01ca 0100     		.2byte	0x1
 12068 01cc 54       		.byte	0x54
 12069 01cd 1A010000 		.4byte	.LVL275
 12070 01d1 24010000 		.4byte	.LVL276
 12071 01d5 0400     		.2byte	0x4
 12072 01d7 F3       		.byte	0xf3
 12073 01d8 01       		.uleb128 0x1
 12074 01d9 50       		.byte	0x50
 12075 01da 9F       		.byte	0x9f
ARM GAS  C:\Users\EBANO_~1\AppData\Local\Temp\ccpYmjAB.s 			page 240


 12076 01db 24010000 		.4byte	.LVL276
 12077 01df 36010000 		.4byte	.LVL277
 12078 01e3 0100     		.2byte	0x1
 12079 01e5 54       		.byte	0x54
 12080 01e6 36010000 		.4byte	.LVL277
 12081 01ea BC010000 		.4byte	.LFE61
 12082 01ee 0400     		.2byte	0x4
 12083 01f0 F3       		.byte	0xf3
 12084 01f1 01       		.uleb128 0x1
 12085 01f2 50       		.byte	0x50
 12086 01f3 9F       		.byte	0x9f
 12087 01f4 00000000 		.4byte	0
 12088 01f8 00000000 		.4byte	0
 12089              	.LLST79:
 12090 01fc 00000000 		.4byte	.LVL248
 12091 0200 14000000 		.4byte	.LVL249
 12092 0204 0100     		.2byte	0x1
 12093 0206 51       		.byte	0x51
 12094 0207 14000000 		.4byte	.LVL249
 12095 020b BC010000 		.4byte	.LFE61
 12096 020f 0200     		.2byte	0x2
 12097 0211 91       		.byte	0x91
 12098 0212 40       		.sleb128 -64
 12099 0213 00000000 		.4byte	0
 12100 0217 00000000 		.4byte	0
 12101              	.LLST80:
 12102 021b 00000000 		.4byte	.LVL248
 12103 021f 1A000000 		.4byte	.LVL251
 12104 0223 0100     		.2byte	0x1
 12105 0225 52       		.byte	0x52
 12106 0226 1A000000 		.4byte	.LVL251
 12107 022a 02010000 		.4byte	.LVL272
 12108 022e 0100     		.2byte	0x1
 12109 0230 5B       		.byte	0x5b
 12110 0231 02010000 		.4byte	.LVL272
 12111 0235 0E010000 		.4byte	.LVL273
 12112 0239 0400     		.2byte	0x4
 12113 023b F3       		.byte	0xf3
 12114 023c 01       		.uleb128 0x1
 12115 023d 52       		.byte	0x52
 12116 023e 9F       		.byte	0x9f
 12117 023f 0E010000 		.4byte	.LVL273
 12118 0243 BC010000 		.4byte	.LFE61
 12119 0247 0100     		.2byte	0x1
 12120 0249 5B       		.byte	0x5b
 12121 024a 00000000 		.4byte	0
 12122 024e 00000000 		.4byte	0
 12123              	.LLST81:
 12124 0252 00000000 		.4byte	.LVL248
 12125 0256 1F000000 		.4byte	.LVL252-1
 12126 025a 0100     		.2byte	0x1
 12127 025c 53       		.byte	0x53
 12128 025d 1F000000 		.4byte	.LVL252-1
 12129 0261 74000000 		.4byte	.LVL260
 12130 0265 0100     		.2byte	0x1
 12131 0267 56       		.byte	0x56
 12132 0268 74000000 		.4byte	.LVL260
ARM GAS  C:\Users\EBANO_~1\AppData\Local\Temp\ccpYmjAB.s 			page 241


 12133 026c 0E010000 		.4byte	.LVL273
 12134 0270 0400     		.2byte	0x4
 12135 0272 F3       		.byte	0xf3
 12136 0273 01       		.uleb128 0x1
 12137 0274 53       		.byte	0x53
 12138 0275 9F       		.byte	0x9f
 12139 0276 0E010000 		.4byte	.LVL273
 12140 027a 1A010000 		.4byte	.LVL275
 12141 027e 0100     		.2byte	0x1
 12142 0280 56       		.byte	0x56
 12143 0281 1A010000 		.4byte	.LVL275
 12144 0285 24010000 		.4byte	.LVL276
 12145 0289 0400     		.2byte	0x4
 12146 028b F3       		.byte	0xf3
 12147 028c 01       		.uleb128 0x1
 12148 028d 53       		.byte	0x53
 12149 028e 9F       		.byte	0x9f
 12150 028f 24010000 		.4byte	.LVL276
 12151 0293 38010000 		.4byte	.LVL278
 12152 0297 0100     		.2byte	0x1
 12153 0299 56       		.byte	0x56
 12154 029a 38010000 		.4byte	.LVL278
 12155 029e BC010000 		.4byte	.LFE61
 12156 02a2 0400     		.2byte	0x4
 12157 02a4 F3       		.byte	0xf3
 12158 02a5 01       		.uleb128 0x1
 12159 02a6 53       		.byte	0x53
 12160 02a7 9F       		.byte	0x9f
 12161 02a8 00000000 		.4byte	0
 12162 02ac 00000000 		.4byte	0
 12163              	.LLST82:
 12164 02b0 00000000 		.4byte	.LVL248
 12165 02b4 E2000000 		.4byte	.LVL270
 12166 02b8 0200     		.2byte	0x2
 12167 02ba 30       		.byte	0x30
 12168 02bb 9F       		.byte	0x9f
 12169 02bc 0E010000 		.4byte	.LVL273
 12170 02c0 1A010000 		.4byte	.LVL275
 12171 02c4 0200     		.2byte	0x2
 12172 02c6 30       		.byte	0x30
 12173 02c7 9F       		.byte	0x9f
 12174 02c8 24010000 		.4byte	.LVL276
 12175 02cc 98010000 		.4byte	.LVL288
 12176 02d0 0200     		.2byte	0x2
 12177 02d2 30       		.byte	0x30
 12178 02d3 9F       		.byte	0x9f
 12179 02d4 00000000 		.4byte	0
 12180 02d8 00000000 		.4byte	0
 12181              	.LLST83:
 12182 02dc 00000000 		.4byte	.LVL248
 12183 02e0 E2000000 		.4byte	.LVL270
 12184 02e4 0200     		.2byte	0x2
 12185 02e6 30       		.byte	0x30
 12186 02e7 9F       		.byte	0x9f
 12187 02e8 E2000000 		.4byte	.LVL270
 12188 02ec 00010000 		.4byte	.LVL271
 12189 02f0 0300     		.2byte	0x3
ARM GAS  C:\Users\EBANO_~1\AppData\Local\Temp\ccpYmjAB.s 			page 242


 12190 02f2 91       		.byte	0x91
 12191 02f3 B87F     		.sleb128 -72
 12192 02f5 0E010000 		.4byte	.LVL273
 12193 02f9 1A010000 		.4byte	.LVL275
 12194 02fd 0200     		.2byte	0x2
 12195 02ff 31       		.byte	0x31
 12196 0300 9F       		.byte	0x9f
 12197 0301 24010000 		.4byte	.LVL276
 12198 0305 98010000 		.4byte	.LVL288
 12199 0309 0200     		.2byte	0x2
 12200 030b 30       		.byte	0x30
 12201 030c 9F       		.byte	0x9f
 12202 030d 98010000 		.4byte	.LVL288
 12203 0311 BC010000 		.4byte	.LFE61
 12204 0315 0300     		.2byte	0x3
 12205 0317 91       		.byte	0x91
 12206 0318 B87F     		.sleb128 -72
 12207 031a 00000000 		.4byte	0
 12208 031e 00000000 		.4byte	0
 12209              	.LLST84:
 12210 0322 20000000 		.4byte	.LVL252
 12211 0326 5E000000 		.4byte	.LVL256
 12212 032a 0200     		.2byte	0x2
 12213 032c 30       		.byte	0x30
 12214 032d 9F       		.byte	0x9f
 12215 032e 5E000000 		.4byte	.LVL256
 12216 0332 7A000000 		.4byte	.LVL261
 12217 0336 0100     		.2byte	0x1
 12218 0338 50       		.byte	0x50
 12219 0339 7A000000 		.4byte	.LVL261
 12220 033d 0E010000 		.4byte	.LVL273
 12221 0341 0300     		.2byte	0x3
 12222 0343 91       		.byte	0x91
 12223 0344 BC7F     		.sleb128 -68
 12224 0346 0E010000 		.4byte	.LVL273
 12225 034a 1A010000 		.4byte	.LVL275
 12226 034e 0200     		.2byte	0x2
 12227 0350 30       		.byte	0x30
 12228 0351 9F       		.byte	0x9f
 12229 0352 1A010000 		.4byte	.LVL275
 12230 0356 24010000 		.4byte	.LVL276
 12231 035a 0300     		.2byte	0x3
 12232 035c 91       		.byte	0x91
 12233 035d BC7F     		.sleb128 -68
 12234 035f 24010000 		.4byte	.LVL276
 12235 0363 3E010000 		.4byte	.LVL279
 12236 0367 0100     		.2byte	0x1
 12237 0369 50       		.byte	0x50
 12238 036a 3E010000 		.4byte	.LVL279
 12239 036e BC010000 		.4byte	.LFE61
 12240 0372 0300     		.2byte	0x3
 12241 0374 91       		.byte	0x91
 12242 0375 BC7F     		.sleb128 -68
 12243 0377 00000000 		.4byte	0
 12244 037b 00000000 		.4byte	0
 12245              	.LLST85:
 12246 037f 62000000 		.4byte	.LVL257
ARM GAS  C:\Users\EBANO_~1\AppData\Local\Temp\ccpYmjAB.s 			page 243


 12247 0383 E2000000 		.4byte	.LVL270
 12248 0387 0600     		.2byte	0x6
 12249 0389 03       		.byte	0x3
 12250 038a D0000000 		.4byte	NvmCtx+208
 12251 038e 9F       		.byte	0x9f
 12252 038f 24010000 		.4byte	.LVL276
 12253 0393 98010000 		.4byte	.LVL288
 12254 0397 0600     		.2byte	0x6
 12255 0399 03       		.byte	0x3
 12256 039a D0000000 		.4byte	NvmCtx+208
 12257 039e 9F       		.byte	0x9f
 12258 039f 00000000 		.4byte	0
 12259 03a3 00000000 		.4byte	0
 12260              	.LLST86:
 12261 03a7 62000000 		.4byte	.LVL257
 12262 03ab E2000000 		.4byte	.LVL270
 12263 03af 0600     		.2byte	0x6
 12264 03b1 03       		.byte	0x3
 12265 03b2 00000000 		.4byte	NvmCtx
 12266 03b6 9F       		.byte	0x9f
 12267 03b7 24010000 		.4byte	.LVL276
 12268 03bb 98010000 		.4byte	.LVL288
 12269 03bf 0600     		.2byte	0x6
 12270 03c1 03       		.byte	0x3
 12271 03c2 00000000 		.4byte	NvmCtx
 12272 03c6 9F       		.byte	0x9f
 12273 03c7 00000000 		.4byte	0
 12274 03cb 00000000 		.4byte	0
 12275              	.LLST87:
 12276 03cf 62000000 		.4byte	.LVL257
 12277 03d3 6A000000 		.4byte	.LVL258
 12278 03d7 0100     		.2byte	0x1
 12279 03d9 55       		.byte	0x55
 12280 03da 6A000000 		.4byte	.LVL258
 12281 03de E2000000 		.4byte	.LVL270
 12282 03e2 0600     		.2byte	0x6
 12283 03e4 03       		.byte	0x3
 12284 03e5 C0000000 		.4byte	NvmCtx+192
 12285 03e9 9F       		.byte	0x9f
 12286 03ea 24010000 		.4byte	.LVL276
 12287 03ee 3E010000 		.4byte	.LVL279
 12288 03f2 0100     		.2byte	0x1
 12289 03f4 55       		.byte	0x55
 12290 03f5 3E010000 		.4byte	.LVL279
 12291 03f9 98010000 		.4byte	.LVL288
 12292 03fd 0200     		.2byte	0x2
 12293 03ff 91       		.byte	0x91
 12294 0400 44       		.sleb128 -60
 12295 0401 00000000 		.4byte	0
 12296 0405 00000000 		.4byte	0
 12297              	.LLST88:
 12298 0409 62000000 		.4byte	.LVL257
 12299 040d E2000000 		.4byte	.LVL270
 12300 0411 0600     		.2byte	0x6
 12301 0413 F2       		.byte	0xf2
 12302 0414 38210000 		.4byte	.Ldebug_info0+8504
 12303 0418 00       		.sleb128 0
ARM GAS  C:\Users\EBANO_~1\AppData\Local\Temp\ccpYmjAB.s 			page 244


 12304 0419 24010000 		.4byte	.LVL276
 12305 041d 98010000 		.4byte	.LVL288
 12306 0421 0600     		.2byte	0x6
 12307 0423 F2       		.byte	0xf2
 12308 0424 38210000 		.4byte	.Ldebug_info0+8504
 12309 0428 00       		.sleb128 0
 12310 0429 00000000 		.4byte	0
 12311 042d 00000000 		.4byte	0
 12312              	.LLST89:
 12313 0431 62000000 		.4byte	.LVL257
 12314 0435 88000000 		.4byte	.LVL263
 12315 0439 0300     		.2byte	0x3
 12316 043b 91       		.byte	0x91
 12317 043c 48       		.sleb128 -56
 12318 043d 9F       		.byte	0x9f
 12319 043e 88000000 		.4byte	.LVL263
 12320 0442 8A000000 		.4byte	.LVL264
 12321 0446 0100     		.2byte	0x1
 12322 0448 52       		.byte	0x52
 12323 0449 8A000000 		.4byte	.LVL264
 12324 044d E2000000 		.4byte	.LVL270
 12325 0451 0300     		.2byte	0x3
 12326 0453 91       		.byte	0x91
 12327 0454 48       		.sleb128 -56
 12328 0455 9F       		.byte	0x9f
 12329 0456 24010000 		.4byte	.LVL276
 12330 045a 86010000 		.4byte	.LVL285
 12331 045e 0300     		.2byte	0x3
 12332 0460 91       		.byte	0x91
 12333 0461 48       		.sleb128 -56
 12334 0462 9F       		.byte	0x9f
 12335 0463 86010000 		.4byte	.LVL285
 12336 0467 8E010000 		.4byte	.LVL286
 12337 046b 0100     		.2byte	0x1
 12338 046d 52       		.byte	0x52
 12339 046e 8E010000 		.4byte	.LVL286
 12340 0472 98010000 		.4byte	.LVL288
 12341 0476 0300     		.2byte	0x3
 12342 0478 91       		.byte	0x91
 12343 0479 48       		.sleb128 -56
 12344 047a 9F       		.byte	0x9f
 12345 047b 00000000 		.4byte	0
 12346 047f 00000000 		.4byte	0
 12347              	.LLST90:
 12348 0483 62000000 		.4byte	.LVL257
 12349 0487 E2000000 		.4byte	.LVL270
 12350 048b 0300     		.2byte	0x3
 12351 048d 91       		.byte	0x91
 12352 048e B47F     		.sleb128 -76
 12353 0490 24010000 		.4byte	.LVL276
 12354 0494 98010000 		.4byte	.LVL288
 12355 0498 0300     		.2byte	0x3
 12356 049a 91       		.byte	0x91
 12357 049b B47F     		.sleb128 -76
 12358 049d 00000000 		.4byte	0
 12359 04a1 00000000 		.4byte	0
 12360              	.LLST91:
ARM GAS  C:\Users\EBANO_~1\AppData\Local\Temp\ccpYmjAB.s 			page 245


 12361 04a5 62000000 		.4byte	.LVL257
 12362 04a9 72000000 		.4byte	.LVL259
 12363 04ad 0200     		.2byte	0x2
 12364 04af 74       		.byte	0x74
 12365 04b0 09       		.sleb128 9
 12366 04b1 72000000 		.4byte	.LVL259
 12367 04b5 7A000000 		.4byte	.LVL261
 12368 04b9 0100     		.2byte	0x1
 12369 04bb 58       		.byte	0x58
 12370 04bc 7A000000 		.4byte	.LVL261
 12371 04c0 E2000000 		.4byte	.LVL270
 12372 04c4 0400     		.2byte	0x4
 12373 04c6 7A       		.byte	0x7a
 12374 04c7 B07E     		.sleb128 -208
 12375 04c9 9F       		.byte	0x9f
 12376 04ca 24010000 		.4byte	.LVL276
 12377 04ce 36010000 		.4byte	.LVL277
 12378 04d2 0200     		.2byte	0x2
 12379 04d4 74       		.byte	0x74
 12380 04d5 09       		.sleb128 9
 12381 04d6 36010000 		.4byte	.LVL277
 12382 04da 3E010000 		.4byte	.LVL279
 12383 04de 0500     		.2byte	0x5
 12384 04e0 F3       		.byte	0xf3
 12385 04e1 01       		.uleb128 0x1
 12386 04e2 50       		.byte	0x50
 12387 04e3 23       		.byte	0x23
 12388 04e4 09       		.uleb128 0x9
 12389 04e5 00000000 		.4byte	0
 12390 04e9 00000000 		.4byte	0
 12391              	.LLST92:
 12392 04ed 62000000 		.4byte	.LVL257
 12393 04f1 7A000000 		.4byte	.LVL261
 12394 04f5 0200     		.2byte	0x2
 12395 04f7 30       		.byte	0x30
 12396 04f8 9F       		.byte	0x9f
 12397 04f9 7A000000 		.4byte	.LVL261
 12398 04fd 7E000000 		.4byte	.LVL262
 12399 0501 0100     		.2byte	0x1
 12400 0503 58       		.byte	0x58
 12401 0504 7E000000 		.4byte	.LVL262
 12402 0508 8A000000 		.4byte	.LVL264
 12403 050c 0100     		.2byte	0x1
 12404 050e 53       		.byte	0x53
 12405 050f 8A000000 		.4byte	.LVL264
 12406 0513 92000000 		.4byte	.LVL266
 12407 0517 0100     		.2byte	0x1
 12408 0519 58       		.byte	0x58
 12409 051a 96000000 		.4byte	.LVL267
 12410 051e E2000000 		.4byte	.LVL270
 12411 0522 0100     		.2byte	0x1
 12412 0524 58       		.byte	0x58
 12413 0525 24010000 		.4byte	.LVL276
 12414 0529 3E010000 		.4byte	.LVL279
 12415 052d 0200     		.2byte	0x2
 12416 052f 30       		.byte	0x30
 12417 0530 9F       		.byte	0x9f
ARM GAS  C:\Users\EBANO_~1\AppData\Local\Temp\ccpYmjAB.s 			page 246


 12418 0531 3E010000 		.4byte	.LVL279
 12419 0535 46010000 		.4byte	.LVL281
 12420 0539 0100     		.2byte	0x1
 12421 053b 58       		.byte	0x58
 12422 053c 50010000 		.4byte	.LVL282
 12423 0540 84010000 		.4byte	.LVL284
 12424 0544 0100     		.2byte	0x1
 12425 0546 58       		.byte	0x58
 12426 0547 84010000 		.4byte	.LVL284
 12427 054b 8E010000 		.4byte	.LVL286
 12428 054f 0100     		.2byte	0x1
 12429 0551 53       		.byte	0x53
 12430 0552 8E010000 		.4byte	.LVL286
 12431 0556 98010000 		.4byte	.LVL288
 12432 055a 0100     		.2byte	0x1
 12433 055c 58       		.byte	0x58
 12434 055d 00000000 		.4byte	0
 12435 0561 00000000 		.4byte	0
 12436              	.LLST93:
 12437 0565 62000000 		.4byte	.LVL257
 12438 0569 7A000000 		.4byte	.LVL261
 12439 056d 0200     		.2byte	0x2
 12440 056f 30       		.byte	0x30
 12441 0570 9F       		.byte	0x9f
 12442 0571 7A000000 		.4byte	.LVL261
 12443 0575 92000000 		.4byte	.LVL266
 12444 0579 0300     		.2byte	0x3
 12445 057b 91       		.byte	0x91
 12446 057c B87F     		.sleb128 -72
 12447 057e 96000000 		.4byte	.LVL267
 12448 0582 E2000000 		.4byte	.LVL270
 12449 0586 0300     		.2byte	0x3
 12450 0588 91       		.byte	0x91
 12451 0589 B87F     		.sleb128 -72
 12452 058b 24010000 		.4byte	.LVL276
 12453 058f 3E010000 		.4byte	.LVL279
 12454 0593 0200     		.2byte	0x2
 12455 0595 30       		.byte	0x30
 12456 0596 9F       		.byte	0x9f
 12457 0597 3E010000 		.4byte	.LVL279
 12458 059b 46010000 		.4byte	.LVL281
 12459 059f 0300     		.2byte	0x3
 12460 05a1 91       		.byte	0x91
 12461 05a2 B87F     		.sleb128 -72
 12462 05a4 50010000 		.4byte	.LVL282
 12463 05a8 98010000 		.4byte	.LVL288
 12464 05ac 0300     		.2byte	0x3
 12465 05ae 91       		.byte	0x91
 12466 05af B87F     		.sleb128 -72
 12467 05b1 00000000 		.4byte	0
 12468 05b5 00000000 		.4byte	0
 12469              	.LLST94:
 12470 05b9 62000000 		.4byte	.LVL257
 12471 05bd E2000000 		.4byte	.LVL270
 12472 05c1 0200     		.2byte	0x2
 12473 05c3 30       		.byte	0x30
 12474 05c4 9F       		.byte	0x9f
ARM GAS  C:\Users\EBANO_~1\AppData\Local\Temp\ccpYmjAB.s 			page 247


 12475 05c5 24010000 		.4byte	.LVL276
 12476 05c9 98010000 		.4byte	.LVL288
 12477 05cd 0200     		.2byte	0x2
 12478 05cf 30       		.byte	0x30
 12479 05d0 9F       		.byte	0x9f
 12480 05d1 00000000 		.4byte	0
 12481 05d5 00000000 		.4byte	0
 12482              	.LLST96:
 12483 05d9 62000000 		.4byte	.LVL257
 12484 05dd 7A000000 		.4byte	.LVL261
 12485 05e1 0200     		.2byte	0x2
 12486 05e3 30       		.byte	0x30
 12487 05e4 9F       		.byte	0x9f
 12488 05e5 7A000000 		.4byte	.LVL261
 12489 05e9 8A000000 		.4byte	.LVL264
 12490 05ed 0100     		.2byte	0x1
 12491 05ef 59       		.byte	0x59
 12492 05f0 8A000000 		.4byte	.LVL264
 12493 05f4 8C000000 		.4byte	.LVL265
 12494 05f8 0300     		.2byte	0x3
 12495 05fa 74       		.byte	0x74
 12496 05fb 01       		.sleb128 1
 12497 05fc 9F       		.byte	0x9f
 12498 05fd 8C000000 		.4byte	.LVL265
 12499 0601 92000000 		.4byte	.LVL266
 12500 0605 0300     		.2byte	0x3
 12501 0607 79       		.byte	0x79
 12502 0608 01       		.sleb128 1
 12503 0609 9F       		.byte	0x9f
 12504 060a 96000000 		.4byte	.LVL267
 12505 060e DC000000 		.4byte	.LVL269
 12506 0612 0100     		.2byte	0x1
 12507 0614 59       		.byte	0x59
 12508 0615 24010000 		.4byte	.LVL276
 12509 0619 3E010000 		.4byte	.LVL279
 12510 061d 0200     		.2byte	0x2
 12511 061f 30       		.byte	0x30
 12512 0620 9F       		.byte	0x9f
 12513 0621 3E010000 		.4byte	.LVL279
 12514 0625 40010000 		.4byte	.LVL280
 12515 0629 0300     		.2byte	0x3
 12516 062b 74       		.byte	0x74
 12517 062c 01       		.sleb128 1
 12518 062d 9F       		.byte	0x9f
 12519 062e 40010000 		.4byte	.LVL280
 12520 0632 46010000 		.4byte	.LVL281
 12521 0636 0300     		.2byte	0x3
 12522 0638 75       		.byte	0x75
 12523 0639 01       		.sleb128 1
 12524 063a 9F       		.byte	0x9f
 12525 063b 50010000 		.4byte	.LVL282
 12526 063f 98010000 		.4byte	.LVL288
 12527 0643 0100     		.2byte	0x1
 12528 0645 55       		.byte	0x55
 12529 0646 00000000 		.4byte	0
 12530 064a 00000000 		.4byte	0
 12531              	.LLST75:
ARM GAS  C:\Users\EBANO_~1\AppData\Local\Temp\ccpYmjAB.s 			page 248


 12532 064e 00000000 		.4byte	.LFB60
 12533 0652 02000000 		.4byte	.LCFI29
 12534 0656 0200     		.2byte	0x2
 12535 0658 7D       		.byte	0x7d
 12536 0659 00       		.sleb128 0
 12537 065a 02000000 		.4byte	.LCFI29
 12538 065e 06000000 		.4byte	.LCFI30
 12539 0662 0200     		.2byte	0x2
 12540 0664 7D       		.byte	0x7d
 12541 0665 04       		.sleb128 4
 12542 0666 06000000 		.4byte	.LCFI30
 12543 066a 34000000 		.4byte	.LFE60
 12544 066e 0200     		.2byte	0x2
 12545 0670 7D       		.byte	0x7d
 12546 0671 20       		.sleb128 32
 12547 0672 00000000 		.4byte	0
 12548 0676 00000000 		.4byte	0
 12549              	.LLST76:
 12550 067a 00000000 		.4byte	.LVL245
 12551 067e 26000000 		.4byte	.LVL246
 12552 0682 0100     		.2byte	0x1
 12553 0684 50       		.byte	0x50
 12554 0685 26000000 		.4byte	.LVL246
 12555 0689 34000000 		.4byte	.LFE60
 12556 068d 0400     		.2byte	0x4
 12557 068f F3       		.byte	0xf3
 12558 0690 01       		.uleb128 0x1
 12559 0691 50       		.byte	0x50
 12560 0692 9F       		.byte	0x9f
 12561 0693 00000000 		.4byte	0
 12562 0697 00000000 		.4byte	0
 12563              	.LLST71:
 12564 069b 00000000 		.4byte	.LFB58
 12565 069f 02000000 		.4byte	.LCFI27
 12566 06a3 0200     		.2byte	0x2
 12567 06a5 7D       		.byte	0x7d
 12568 06a6 00       		.sleb128 0
 12569 06a7 02000000 		.4byte	.LCFI27
 12570 06ab 0A000000 		.4byte	.LCFI28
 12571 06af 0200     		.2byte	0x2
 12572 06b1 7D       		.byte	0x7d
 12573 06b2 0C       		.sleb128 12
 12574 06b3 0A000000 		.4byte	.LCFI28
 12575 06b7 70000000 		.4byte	.LFE58
 12576 06bb 0200     		.2byte	0x2
 12577 06bd 7D       		.byte	0x7d
 12578 06be 18       		.sleb128 24
 12579 06bf 00000000 		.4byte	0
 12580 06c3 00000000 		.4byte	0
 12581              	.LLST72:
 12582 06c7 00000000 		.4byte	.LVL234
 12583 06cb 0E000000 		.4byte	.LVL236
 12584 06cf 0100     		.2byte	0x1
 12585 06d1 50       		.byte	0x50
 12586 06d2 0E000000 		.4byte	.LVL236
 12587 06d6 38000000 		.4byte	.LVL241
 12588 06da 0100     		.2byte	0x1
ARM GAS  C:\Users\EBANO_~1\AppData\Local\Temp\ccpYmjAB.s 			page 249


 12589 06dc 55       		.byte	0x55
 12590 06dd 38000000 		.4byte	.LVL241
 12591 06e1 3A000000 		.4byte	.LVL242
 12592 06e5 0400     		.2byte	0x4
 12593 06e7 F3       		.byte	0xf3
 12594 06e8 01       		.uleb128 0x1
 12595 06e9 50       		.byte	0x50
 12596 06ea 9F       		.byte	0x9f
 12597 06eb 3A000000 		.4byte	.LVL242
 12598 06ef 70000000 		.4byte	.LFE58
 12599 06f3 0100     		.2byte	0x1
 12600 06f5 55       		.byte	0x55
 12601 06f6 00000000 		.4byte	0
 12602 06fa 00000000 		.4byte	0
 12603              	.LLST73:
 12604 06fe 00000000 		.4byte	.LVL234
 12605 0702 2E000000 		.4byte	.LVL239
 12606 0706 0200     		.2byte	0x2
 12607 0708 33       		.byte	0x33
 12608 0709 9F       		.byte	0x9f
 12609 070a 2E000000 		.4byte	.LVL239
 12610 070e 36000000 		.4byte	.LVL240
 12611 0712 0200     		.2byte	0x2
 12612 0714 32       		.byte	0x32
 12613 0715 9F       		.byte	0x9f
 12614 0716 3A000000 		.4byte	.LVL242
 12615 071a 4A000000 		.4byte	.LVL243
 12616 071e 0200     		.2byte	0x2
 12617 0720 33       		.byte	0x33
 12618 0721 9F       		.byte	0x9f
 12619 0722 4A000000 		.4byte	.LVL243
 12620 0726 70000000 		.4byte	.LFE58
 12621 072a 0200     		.2byte	0x2
 12622 072c 32       		.byte	0x32
 12623 072d 9F       		.byte	0x9f
 12624 072e 00000000 		.4byte	0
 12625 0732 00000000 		.4byte	0
 12626              	.LLST74:
 12627 0736 06000000 		.4byte	.LVL235
 12628 073a 28000000 		.4byte	.LVL238
 12629 073e 0100     		.2byte	0x1
 12630 0740 54       		.byte	0x54
 12631 0741 28000000 		.4byte	.LVL238
 12632 0745 2E000000 		.4byte	.LVL239
 12633 0749 0700     		.2byte	0x7
 12634 074b 74       		.byte	0x74
 12635 074c D8F3C6CE 		.sleb128 433175000
 12635      01
 12636 0751 9F       		.byte	0x9f
 12637 0752 3A000000 		.4byte	.LVL242
 12638 0756 4A000000 		.4byte	.LVL243
 12639 075a 0700     		.2byte	0x7
 12640 075c 74       		.byte	0x74
 12641 075d D8F3C6CE 		.sleb128 433175000
 12641      01
 12642 0762 9F       		.byte	0x9f
 12643 0763 4A000000 		.4byte	.LVL243
ARM GAS  C:\Users\EBANO_~1\AppData\Local\Temp\ccpYmjAB.s 			page 250


 12644 0767 70000000 		.4byte	.LFE58
 12645 076b 0100     		.2byte	0x1
 12646 076d 54       		.byte	0x54
 12647 076e 00000000 		.4byte	0
 12648 0772 00000000 		.4byte	0
 12649              	.LLST70:
 12650 0776 00000000 		.4byte	.LVL232
 12651 077a 02000000 		.4byte	.LVL233
 12652 077e 0100     		.2byte	0x1
 12653 0780 50       		.byte	0x50
 12654 0781 02000000 		.4byte	.LVL233
 12655 0785 06000000 		.4byte	.LFE57
 12656 0789 0400     		.2byte	0x4
 12657 078b F3       		.byte	0xf3
 12658 078c 01       		.uleb128 0x1
 12659 078d 50       		.byte	0x50
 12660 078e 9F       		.byte	0x9f
 12661 078f 00000000 		.4byte	0
 12662 0793 00000000 		.4byte	0
 12663              	.LLST62:
 12664 0797 00000000 		.4byte	.LFB56
 12665 079b 02000000 		.4byte	.LCFI24
 12666 079f 0200     		.2byte	0x2
 12667 07a1 7D       		.byte	0x7d
 12668 07a2 00       		.sleb128 0
 12669 07a3 02000000 		.4byte	.LCFI24
 12670 07a7 06000000 		.4byte	.LCFI25
 12671 07ab 0200     		.2byte	0x2
 12672 07ad 7D       		.byte	0x7d
 12673 07ae 14       		.sleb128 20
 12674 07af 06000000 		.4byte	.LCFI25
 12675 07b3 0A000000 		.4byte	.LCFI26
 12676 07b7 0200     		.2byte	0x2
 12677 07b9 7D       		.byte	0x7d
 12678 07ba 18       		.sleb128 24
 12679 07bb 0A000000 		.4byte	.LCFI26
 12680 07bf 08010000 		.4byte	.LFE56
 12681 07c3 0200     		.2byte	0x2
 12682 07c5 7D       		.byte	0x7d
 12683 07c6 20       		.sleb128 32
 12684 07c7 00000000 		.4byte	0
 12685 07cb 00000000 		.4byte	0
 12686              	.LLST63:
 12687 07cf 00000000 		.4byte	.LVL209
 12688 07d3 16000000 		.4byte	.LVL211
 12689 07d7 0100     		.2byte	0x1
 12690 07d9 50       		.byte	0x50
 12691 07da 16000000 		.4byte	.LVL211
 12692 07de 20000000 		.4byte	.LVL212
 12693 07e2 0400     		.2byte	0x4
 12694 07e4 F3       		.byte	0xf3
 12695 07e5 01       		.uleb128 0x1
 12696 07e6 50       		.byte	0x50
 12697 07e7 9F       		.byte	0x9f
 12698 07e8 20000000 		.4byte	.LVL212
 12699 07ec 28000000 		.4byte	.LVL213
 12700 07f0 0100     		.2byte	0x1
ARM GAS  C:\Users\EBANO_~1\AppData\Local\Temp\ccpYmjAB.s 			page 251


 12701 07f2 50       		.byte	0x50
 12702 07f3 28000000 		.4byte	.LVL213
 12703 07f7 AC000000 		.4byte	.LVL223
 12704 07fb 0400     		.2byte	0x4
 12705 07fd F3       		.byte	0xf3
 12706 07fe 01       		.uleb128 0x1
 12707 07ff 50       		.byte	0x50
 12708 0800 9F       		.byte	0x9f
 12709 0801 AC000000 		.4byte	.LVL223
 12710 0805 AE000000 		.4byte	.LVL224
 12711 0809 0100     		.2byte	0x1
 12712 080b 50       		.byte	0x50
 12713 080c AE000000 		.4byte	.LVL224
 12714 0810 08010000 		.4byte	.LFE56
 12715 0814 0400     		.2byte	0x4
 12716 0816 F3       		.byte	0xf3
 12717 0817 01       		.uleb128 0x1
 12718 0818 50       		.byte	0x50
 12719 0819 9F       		.byte	0x9f
 12720 081a 00000000 		.4byte	0
 12721 081e 00000000 		.4byte	0
 12722              	.LLST64:
 12723 0822 12000000 		.4byte	.LVL210
 12724 0826 16000000 		.4byte	.LVL211
 12725 082a 0600     		.2byte	0x6
 12726 082c F2       		.byte	0xf2
 12727 082d 3A240000 		.4byte	.Ldebug_info0+9274
 12728 0831 00       		.sleb128 0
 12729 0832 AC000000 		.4byte	.LVL223
 12730 0836 CC000000 		.4byte	.LVL227
 12731 083a 0600     		.2byte	0x6
 12732 083c F2       		.byte	0xf2
 12733 083d 3A240000 		.4byte	.Ldebug_info0+9274
 12734 0841 00       		.sleb128 0
 12735 0842 00000000 		.4byte	0
 12736 0846 00000000 		.4byte	0
 12737              	.LLST65:
 12738 084a 12000000 		.4byte	.LVL210
 12739 084e 16000000 		.4byte	.LVL211
 12740 0852 0200     		.2byte	0x2
 12741 0854 70       		.byte	0x70
 12742 0855 04       		.sleb128 4
 12743 0856 AC000000 		.4byte	.LVL223
 12744 085a AE000000 		.4byte	.LVL224
 12745 085e 0200     		.2byte	0x2
 12746 0860 70       		.byte	0x70
 12747 0861 04       		.sleb128 4
 12748 0862 AE000000 		.4byte	.LVL224
 12749 0866 BD000000 		.4byte	.LVL225-1
 12750 086a 0500     		.2byte	0x5
 12751 086c F3       		.byte	0xf3
 12752 086d 01       		.uleb128 0x1
 12753 086e 50       		.byte	0x50
 12754 086f 23       		.byte	0x23
 12755 0870 04       		.uleb128 0x4
 12756 0871 00000000 		.4byte	0
 12757 0875 00000000 		.4byte	0
ARM GAS  C:\Users\EBANO_~1\AppData\Local\Temp\ccpYmjAB.s 			page 252


 12758              	.LLST66:
 12759 0879 20000000 		.4byte	.LVL212
 12760 087d AA000000 		.4byte	.LVL222
 12761 0881 0600     		.2byte	0x6
 12762 0883 F2       		.byte	0xf2
 12763 0884 2E240000 		.4byte	.Ldebug_info0+9262
 12764 0888 00       		.sleb128 0
 12765 0889 D4000000 		.4byte	.LVL228
 12766 088d 08010000 		.4byte	.LFE56
 12767 0891 0600     		.2byte	0x6
 12768 0893 F2       		.byte	0xf2
 12769 0894 2E240000 		.4byte	.Ldebug_info0+9262
 12770 0898 00       		.sleb128 0
 12771 0899 00000000 		.4byte	0
 12772 089d 00000000 		.4byte	0
 12773              	.LLST67:
 12774 08a1 20000000 		.4byte	.LVL212
 12775 08a5 36000000 		.4byte	.LVL215
 12776 08a9 0200     		.2byte	0x2
 12777 08ab 30       		.byte	0x30
 12778 08ac 9F       		.byte	0x9f
 12779 08ad 36000000 		.4byte	.LVL215
 12780 08b1 4E000000 		.4byte	.LVL217
 12781 08b5 0700     		.2byte	0x7
 12782 08b7 76       		.byte	0x76
 12783 08b8 00       		.sleb128 0
 12784 08b9 48       		.byte	0x48
 12785 08ba 24       		.byte	0x24
 12786 08bb 30       		.byte	0x30
 12787 08bc 29       		.byte	0x29
 12788 08bd 9F       		.byte	0x9f
 12789 08be 50000000 		.4byte	.LVL218
 12790 08c2 AA000000 		.4byte	.LVL222
 12791 08c6 0100     		.2byte	0x1
 12792 08c8 57       		.byte	0x57
 12793 08c9 D4000000 		.4byte	.LVL228
 12794 08cd DC000000 		.4byte	.LVL229
 12795 08d1 0100     		.2byte	0x1
 12796 08d3 57       		.byte	0x57
 12797 08d4 DC000000 		.4byte	.LVL229
 12798 08d8 F2000000 		.4byte	.LVL231
 12799 08dc 0200     		.2byte	0x2
 12800 08de 31       		.byte	0x31
 12801 08df 9F       		.byte	0x9f
 12802 08e0 00000000 		.4byte	0
 12803 08e4 00000000 		.4byte	0
 12804              	.LLST68:
 12805 08e8 20000000 		.4byte	.LVL212
 12806 08ec AA000000 		.4byte	.LVL222
 12807 08f0 0200     		.2byte	0x2
 12808 08f2 30       		.byte	0x30
 12809 08f3 9F       		.byte	0x9f
 12810 08f4 D4000000 		.4byte	.LVL228
 12811 08f8 DC000000 		.4byte	.LVL229
 12812 08fc 0200     		.2byte	0x2
 12813 08fe 31       		.byte	0x31
 12814 08ff 9F       		.byte	0x9f
ARM GAS  C:\Users\EBANO_~1\AppData\Local\Temp\ccpYmjAB.s 			page 253


 12815 0900 DC000000 		.4byte	.LVL229
 12816 0904 08010000 		.4byte	.LFE56
 12817 0908 0200     		.2byte	0x2
 12818 090a 30       		.byte	0x30
 12819 090b 9F       		.byte	0x9f
 12820 090c 00000000 		.4byte	0
 12821 0910 00000000 		.4byte	0
 12822              	.LLST69:
 12823 0914 20000000 		.4byte	.LVL212
 12824 0918 28000000 		.4byte	.LVL213
 12825 091c 0200     		.2byte	0x2
 12826 091e 70       		.byte	0x70
 12827 091f 04       		.sleb128 4
 12828 0920 28000000 		.4byte	.LVL213
 12829 0924 33000000 		.4byte	.LVL214-1
 12830 0928 0500     		.2byte	0x5
 12831 092a F3       		.byte	0xf3
 12832 092b 01       		.uleb128 0x1
 12833 092c 50       		.byte	0x50
 12834 092d 23       		.byte	0x23
 12835 092e 04       		.uleb128 0x4
 12836 092f 00000000 		.4byte	0
 12837 0933 00000000 		.4byte	0
 12838              	.LLST58:
 12839 0937 00000000 		.4byte	.LFB55
 12840 093b 02000000 		.4byte	.LCFI22
 12841 093f 0200     		.2byte	0x2
 12842 0941 7D       		.byte	0x7d
 12843 0942 00       		.sleb128 0
 12844 0943 02000000 		.4byte	.LCFI22
 12845 0947 0A000000 		.4byte	.LCFI23
 12846 094b 0200     		.2byte	0x2
 12847 094d 7D       		.byte	0x7d
 12848 094e 10       		.sleb128 16
 12849 094f 0A000000 		.4byte	.LCFI23
 12850 0953 64000000 		.4byte	.LFE55
 12851 0957 0200     		.2byte	0x2
 12852 0959 7D       		.byte	0x7d
 12853 095a 18       		.sleb128 24
 12854 095b 00000000 		.4byte	0
 12855 095f 00000000 		.4byte	0
 12856              	.LLST59:
 12857 0963 00000000 		.4byte	.LVL194
 12858 0967 0E000000 		.4byte	.LVL196
 12859 096b 0100     		.2byte	0x1
 12860 096d 50       		.byte	0x50
 12861 096e 0E000000 		.4byte	.LVL196
 12862 0972 50000000 		.4byte	.LVL205
 12863 0976 0100     		.2byte	0x1
 12864 0978 54       		.byte	0x54
 12865 0979 50000000 		.4byte	.LVL205
 12866 097d 52000000 		.4byte	.LVL207
 12867 0981 0400     		.2byte	0x4
 12868 0983 F3       		.byte	0xf3
 12869 0984 01       		.uleb128 0x1
 12870 0985 50       		.byte	0x50
 12871 0986 9F       		.byte	0x9f
ARM GAS  C:\Users\EBANO_~1\AppData\Local\Temp\ccpYmjAB.s 			page 254


 12872 0987 52000000 		.4byte	.LVL207
 12873 098b 64000000 		.4byte	.LFE55
 12874 098f 0100     		.2byte	0x1
 12875 0991 54       		.byte	0x54
 12876 0992 00000000 		.4byte	0
 12877 0996 00000000 		.4byte	0
 12878              	.LLST60:
 12879 099a 00000000 		.4byte	.LVL194
 12880 099e 26000000 		.4byte	.LVL200
 12881 09a2 0200     		.2byte	0x2
 12882 09a4 37       		.byte	0x37
 12883 09a5 9F       		.byte	0x9f
 12884 09a6 26000000 		.4byte	.LVL200
 12885 09aa 38000000 		.4byte	.LVL202
 12886 09ae 0100     		.2byte	0x1
 12887 09b0 56       		.byte	0x56
 12888 09b1 38000000 		.4byte	.LVL202
 12889 09b5 50000000 		.4byte	.LVL206
 12890 09b9 0100     		.2byte	0x1
 12891 09bb 55       		.byte	0x55
 12892 09bc 52000000 		.4byte	.LVL207
 12893 09c0 64000000 		.4byte	.LFE55
 12894 09c4 0200     		.2byte	0x2
 12895 09c6 37       		.byte	0x37
 12896 09c7 9F       		.byte	0x9f
 12897 09c8 00000000 		.4byte	0
 12898 09cc 00000000 		.4byte	0
 12899              	.LLST61:
 12900 09d0 06000000 		.4byte	.LVL195
 12901 09d4 1E000000 		.4byte	.LVL198
 12902 09d8 0100     		.2byte	0x1
 12903 09da 55       		.byte	0x55
 12904 09db 1E000000 		.4byte	.LVL198
 12905 09df 22000000 		.4byte	.LVL199
 12906 09e3 0700     		.2byte	0x7
 12907 09e5 75       		.byte	0x75
 12908 09e6 D8F3C6CE 		.sleb128 433175000
 12908      01
 12909 09eb 9F       		.byte	0x9f
 12910 09ec 52000000 		.4byte	.LVL207
 12911 09f0 54000000 		.4byte	.LVL208
 12912 09f4 0700     		.2byte	0x7
 12913 09f6 75       		.byte	0x75
 12914 09f7 D8F3C6CE 		.sleb128 433175000
 12914      01
 12915 09fc 9F       		.byte	0x9f
 12916 09fd 00000000 		.4byte	0
 12917 0a01 00000000 		.4byte	0
 12918              	.LLST49:
 12919 0a05 00000000 		.4byte	.LFB54
 12920 0a09 02000000 		.4byte	.LCFI19
 12921 0a0d 0200     		.2byte	0x2
 12922 0a0f 7D       		.byte	0x7d
 12923 0a10 00       		.sleb128 0
 12924 0a11 02000000 		.4byte	.LCFI19
 12925 0a15 0C000000 		.4byte	.LCFI20
 12926 0a19 0200     		.2byte	0x2
ARM GAS  C:\Users\EBANO_~1\AppData\Local\Temp\ccpYmjAB.s 			page 255


 12927 0a1b 7D       		.byte	0x7d
 12928 0a1c 14       		.sleb128 20
 12929 0a1d 0C000000 		.4byte	.LCFI20
 12930 0a21 0E000000 		.4byte	.LCFI21
 12931 0a25 0200     		.2byte	0x2
 12932 0a27 7D       		.byte	0x7d
 12933 0a28 24       		.sleb128 36
 12934 0a29 0E000000 		.4byte	.LCFI21
 12935 0a2d FC020000 		.4byte	.LFE54
 12936 0a31 0300     		.2byte	0x3
 12937 0a33 7D       		.byte	0x7d
 12938 0a34 E000     		.sleb128 96
 12939 0a36 00000000 		.4byte	0
 12940 0a3a 00000000 		.4byte	0
 12941              	.LLST50:
 12942 0a3e 00000000 		.4byte	.LVL137
 12943 0a42 28000000 		.4byte	.LVL140
 12944 0a46 0100     		.2byte	0x1
 12945 0a48 50       		.byte	0x50
 12946 0a49 28000000 		.4byte	.LVL140
 12947 0a4d A8010000 		.4byte	.LVL164
 12948 0a51 0100     		.2byte	0x1
 12949 0a53 56       		.byte	0x56
 12950 0a54 A8010000 		.4byte	.LVL164
 12951 0a58 D4010000 		.4byte	.LVL169
 12952 0a5c 0400     		.2byte	0x4
 12953 0a5e F3       		.byte	0xf3
 12954 0a5f 01       		.uleb128 0x1
 12955 0a60 50       		.byte	0x50
 12956 0a61 9F       		.byte	0x9f
 12957 0a62 D4010000 		.4byte	.LVL169
 12958 0a66 D2020000 		.4byte	.LVL189
 12959 0a6a 0100     		.2byte	0x1
 12960 0a6c 56       		.byte	0x56
 12961 0a6d D2020000 		.4byte	.LVL189
 12962 0a71 E8020000 		.4byte	.LVL192
 12963 0a75 0400     		.2byte	0x4
 12964 0a77 F3       		.byte	0xf3
 12965 0a78 01       		.uleb128 0x1
 12966 0a79 50       		.byte	0x50
 12967 0a7a 9F       		.byte	0x9f
 12968 0a7b E8020000 		.4byte	.LVL192
 12969 0a7f FC020000 		.4byte	.LFE54
 12970 0a83 0100     		.2byte	0x1
 12971 0a85 56       		.byte	0x56
 12972 0a86 00000000 		.4byte	0
 12973 0a8a 00000000 		.4byte	0
 12974              	.LLST51:
 12975 0a8e 00000000 		.4byte	.LVL137
 12976 0a92 28000000 		.4byte	.LVL140
 12977 0a96 0100     		.2byte	0x1
 12978 0a98 51       		.byte	0x51
 12979 0a99 28000000 		.4byte	.LVL140
 12980 0a9d C8010000 		.4byte	.LVL168
 12981 0aa1 0100     		.2byte	0x1
 12982 0aa3 5B       		.byte	0x5b
 12983 0aa4 C8010000 		.4byte	.LVL168
ARM GAS  C:\Users\EBANO_~1\AppData\Local\Temp\ccpYmjAB.s 			page 256


 12984 0aa8 D4010000 		.4byte	.LVL169
 12985 0aac 0400     		.2byte	0x4
 12986 0aae F3       		.byte	0xf3
 12987 0aaf 01       		.uleb128 0x1
 12988 0ab0 51       		.byte	0x51
 12989 0ab1 9F       		.byte	0x9f
 12990 0ab2 D4010000 		.4byte	.LVL169
 12991 0ab6 FC020000 		.4byte	.LFE54
 12992 0aba 0100     		.2byte	0x1
 12993 0abc 5B       		.byte	0x5b
 12994 0abd 00000000 		.4byte	0
 12995 0ac1 00000000 		.4byte	0
 12996              	.LLST52:
 12997 0ac5 00000000 		.4byte	.LVL137
 12998 0ac9 16000000 		.4byte	.LVL139
 12999 0acd 0100     		.2byte	0x1
 13000 0acf 52       		.byte	0x52
 13001 0ad0 16000000 		.4byte	.LVL139
 13002 0ad4 C8010000 		.4byte	.LVL167
 13003 0ad8 0100     		.2byte	0x1
 13004 0ada 5A       		.byte	0x5a
 13005 0adb C8010000 		.4byte	.LVL167
 13006 0adf D4010000 		.4byte	.LVL169
 13007 0ae3 0400     		.2byte	0x4
 13008 0ae5 F3       		.byte	0xf3
 13009 0ae6 01       		.uleb128 0x1
 13010 0ae7 52       		.byte	0x52
 13011 0ae8 9F       		.byte	0x9f
 13012 0ae9 D4010000 		.4byte	.LVL169
 13013 0aed FC020000 		.4byte	.LFE54
 13014 0af1 0100     		.2byte	0x1
 13015 0af3 5A       		.byte	0x5a
 13016 0af4 00000000 		.4byte	0
 13017 0af8 00000000 		.4byte	0
 13018              	.LLST53:
 13019 0afc 00000000 		.4byte	.LVL137
 13020 0b00 12000000 		.4byte	.LVL138
 13021 0b04 0100     		.2byte	0x1
 13022 0b06 53       		.byte	0x53
 13023 0b07 12000000 		.4byte	.LVL138
 13024 0b0b FC020000 		.4byte	.LFE54
 13025 0b0f 0300     		.2byte	0x3
 13026 0b11 91       		.byte	0x91
 13027 0b12 A47F     		.sleb128 -92
 13028 0b14 00000000 		.4byte	0
 13029 0b18 00000000 		.4byte	0
 13030              	.LLST54:
 13031 0b1c 00000000 		.4byte	.LVL137
 13032 0b20 28000000 		.4byte	.LVL140
 13033 0b24 0200     		.2byte	0x2
 13034 0b26 37       		.byte	0x37
 13035 0b27 9F       		.byte	0x9f
 13036 0b28 28000000 		.4byte	.LVL140
 13037 0b2c 4C000000 		.4byte	.LVL143
 13038 0b30 0100     		.2byte	0x1
 13039 0b32 59       		.byte	0x59
 13040 0b33 4C000000 		.4byte	.LVL143
ARM GAS  C:\Users\EBANO_~1\AppData\Local\Temp\ccpYmjAB.s 			page 257


 13041 0b37 6E000000 		.4byte	.LVL146
 13042 0b3b 0200     		.2byte	0x2
 13043 0b3d 37       		.byte	0x37
 13044 0b3e 9F       		.byte	0x9f
 13045 0b3f 6E000000 		.4byte	.LVL146
 13046 0b43 A8010000 		.4byte	.LVL164
 13047 0b47 0100     		.2byte	0x1
 13048 0b49 59       		.byte	0x59
 13049 0b4a A8010000 		.4byte	.LVL164
 13050 0b4e AE010000 		.4byte	.LVL165
 13051 0b52 0100     		.2byte	0x1
 13052 0b54 50       		.byte	0x50
 13053 0b55 D4010000 		.4byte	.LVL169
 13054 0b59 D2020000 		.4byte	.LVL189
 13055 0b5d 0200     		.2byte	0x2
 13056 0b5f 37       		.byte	0x37
 13057 0b60 9F       		.byte	0x9f
 13058 0b61 D2020000 		.4byte	.LVL189
 13059 0b65 D4020000 		.4byte	.LVL190
 13060 0b69 0100     		.2byte	0x1
 13061 0b6b 50       		.byte	0x50
 13062 0b6c E8020000 		.4byte	.LVL192
 13063 0b70 FC020000 		.4byte	.LFE54
 13064 0b74 0200     		.2byte	0x2
 13065 0b76 37       		.byte	0x37
 13066 0b77 9F       		.byte	0x9f
 13067 0b78 00000000 		.4byte	0
 13068 0b7c 00000000 		.4byte	0
 13069              	.LLST55:
 13070 0b80 00000000 		.4byte	.LVL137
 13071 0b84 28000000 		.4byte	.LVL140
 13072 0b88 0200     		.2byte	0x2
 13073 0b8a 30       		.byte	0x30
 13074 0b8b 9F       		.byte	0x9f
 13075 0b8c 3A000000 		.4byte	.LVL141
 13076 0b90 4E000000 		.4byte	.LVL144
 13077 0b94 0100     		.2byte	0x1
 13078 0b96 50       		.byte	0x50
 13079 0b97 00000000 		.4byte	0
 13080 0b9b 00000000 		.4byte	0
 13081              	.LLST56:
 13082 0b9f 00000000 		.4byte	.LVL137
 13083 0ba3 28000000 		.4byte	.LVL140
 13084 0ba7 0200     		.2byte	0x2
 13085 0ba9 30       		.byte	0x30
 13086 0baa 9F       		.byte	0x9f
 13087 0bab 28000000 		.4byte	.LVL140
 13088 0baf 4A000000 		.4byte	.LVL142
 13089 0bb3 0100     		.2byte	0x1
 13090 0bb5 54       		.byte	0x54
 13091 0bb6 4C000000 		.4byte	.LVL143
 13092 0bba C8010000 		.4byte	.LVL166
 13093 0bbe 0100     		.2byte	0x1
 13094 0bc0 54       		.byte	0x54
 13095 0bc1 C8010000 		.4byte	.LVL166
 13096 0bc5 D4010000 		.4byte	.LVL169
 13097 0bc9 0200     		.2byte	0x2
ARM GAS  C:\Users\EBANO_~1\AppData\Local\Temp\ccpYmjAB.s 			page 258


 13098 0bcb 73       		.byte	0x73
 13099 0bcc 00       		.sleb128 0
 13100 0bcd D4010000 		.4byte	.LVL169
 13101 0bd1 FC020000 		.4byte	.LFE54
 13102 0bd5 0100     		.2byte	0x1
 13103 0bd7 54       		.byte	0x54
 13104 0bd8 00000000 		.4byte	0
 13105 0bdc 00000000 		.4byte	0
 13106              	.LLST57:
 13107 0be0 5C000000 		.4byte	.LVL145
 13108 0be4 6E000000 		.4byte	.LVL146
 13109 0be8 0200     		.2byte	0x2
 13110 0bea 30       		.byte	0x30
 13111 0beb 9F       		.byte	0x9f
 13112 0bec 6E000000 		.4byte	.LVL146
 13113 0bf0 7C000000 		.4byte	.LVL147
 13114 0bf4 0200     		.2byte	0x2
 13115 0bf6 31       		.byte	0x31
 13116 0bf7 9F       		.byte	0x9f
 13117 0bf8 7C000000 		.4byte	.LVL147
 13118 0bfc 8A000000 		.4byte	.LVL148
 13119 0c00 0200     		.2byte	0x2
 13120 0c02 32       		.byte	0x32
 13121 0c03 9F       		.byte	0x9f
 13122 0c04 8A000000 		.4byte	.LVL148
 13123 0c08 98000000 		.4byte	.LVL149
 13124 0c0c 0200     		.2byte	0x2
 13125 0c0e 33       		.byte	0x33
 13126 0c0f 9F       		.byte	0x9f
 13127 0c10 98000000 		.4byte	.LVL149
 13128 0c14 A6000000 		.4byte	.LVL150
 13129 0c18 0200     		.2byte	0x2
 13130 0c1a 34       		.byte	0x34
 13131 0c1b 9F       		.byte	0x9f
 13132 0c1c A6000000 		.4byte	.LVL150
 13133 0c20 B4000000 		.4byte	.LVL151
 13134 0c24 0200     		.2byte	0x2
 13135 0c26 35       		.byte	0x35
 13136 0c27 9F       		.byte	0x9f
 13137 0c28 B4000000 		.4byte	.LVL151
 13138 0c2c C2000000 		.4byte	.LVL152
 13139 0c30 0200     		.2byte	0x2
 13140 0c32 36       		.byte	0x36
 13141 0c33 9F       		.byte	0x9f
 13142 0c34 C2000000 		.4byte	.LVL152
 13143 0c38 D0000000 		.4byte	.LVL153
 13144 0c3c 0200     		.2byte	0x2
 13145 0c3e 37       		.byte	0x37
 13146 0c3f 9F       		.byte	0x9f
 13147 0c40 D0000000 		.4byte	.LVL153
 13148 0c44 DE000000 		.4byte	.LVL154
 13149 0c48 0200     		.2byte	0x2
 13150 0c4a 38       		.byte	0x38
 13151 0c4b 9F       		.byte	0x9f
 13152 0c4c DE000000 		.4byte	.LVL154
 13153 0c50 EC000000 		.4byte	.LVL155
 13154 0c54 0200     		.2byte	0x2
ARM GAS  C:\Users\EBANO_~1\AppData\Local\Temp\ccpYmjAB.s 			page 259


 13155 0c56 39       		.byte	0x39
 13156 0c57 9F       		.byte	0x9f
 13157 0c58 EC000000 		.4byte	.LVL155
 13158 0c5c FA000000 		.4byte	.LVL156
 13159 0c60 0200     		.2byte	0x2
 13160 0c62 3A       		.byte	0x3a
 13161 0c63 9F       		.byte	0x9f
 13162 0c64 FA000000 		.4byte	.LVL156
 13163 0c68 0A010000 		.4byte	.LVL157
 13164 0c6c 0200     		.2byte	0x2
 13165 0c6e 3B       		.byte	0x3b
 13166 0c6f 9F       		.byte	0x9f
 13167 0c70 0A010000 		.4byte	.LVL157
 13168 0c74 1A010000 		.4byte	.LVL158
 13169 0c78 0200     		.2byte	0x2
 13170 0c7a 3C       		.byte	0x3c
 13171 0c7b 9F       		.byte	0x9f
 13172 0c7c 1A010000 		.4byte	.LVL158
 13173 0c80 2A010000 		.4byte	.LVL159
 13174 0c84 0200     		.2byte	0x2
 13175 0c86 3D       		.byte	0x3d
 13176 0c87 9F       		.byte	0x9f
 13177 0c88 2A010000 		.4byte	.LVL159
 13178 0c8c 3A010000 		.4byte	.LVL160
 13179 0c90 0200     		.2byte	0x2
 13180 0c92 3E       		.byte	0x3e
 13181 0c93 9F       		.byte	0x9f
 13182 0c94 3A010000 		.4byte	.LVL160
 13183 0c98 58010000 		.4byte	.LVL162
 13184 0c9c 0200     		.2byte	0x2
 13185 0c9e 3F       		.byte	0x3f
 13186 0c9f 9F       		.byte	0x9f
 13187 0ca0 E6010000 		.4byte	.LVL170
 13188 0ca4 F4010000 		.4byte	.LVL171
 13189 0ca8 0200     		.2byte	0x2
 13190 0caa 30       		.byte	0x30
 13191 0cab 9F       		.byte	0x9f
 13192 0cac F4010000 		.4byte	.LVL171
 13193 0cb0 00020000 		.4byte	.LVL172
 13194 0cb4 0200     		.2byte	0x2
 13195 0cb6 31       		.byte	0x31
 13196 0cb7 9F       		.byte	0x9f
 13197 0cb8 00020000 		.4byte	.LVL172
 13198 0cbc 0C020000 		.4byte	.LVL173
 13199 0cc0 0200     		.2byte	0x2
 13200 0cc2 32       		.byte	0x32
 13201 0cc3 9F       		.byte	0x9f
 13202 0cc4 0C020000 		.4byte	.LVL173
 13203 0cc8 18020000 		.4byte	.LVL174
 13204 0ccc 0200     		.2byte	0x2
 13205 0cce 33       		.byte	0x33
 13206 0ccf 9F       		.byte	0x9f
 13207 0cd0 18020000 		.4byte	.LVL174
 13208 0cd4 24020000 		.4byte	.LVL175
 13209 0cd8 0200     		.2byte	0x2
 13210 0cda 34       		.byte	0x34
 13211 0cdb 9F       		.byte	0x9f
ARM GAS  C:\Users\EBANO_~1\AppData\Local\Temp\ccpYmjAB.s 			page 260


 13212 0cdc 24020000 		.4byte	.LVL175
 13213 0ce0 30020000 		.4byte	.LVL176
 13214 0ce4 0200     		.2byte	0x2
 13215 0ce6 35       		.byte	0x35
 13216 0ce7 9F       		.byte	0x9f
 13217 0ce8 30020000 		.4byte	.LVL176
 13218 0cec 3C020000 		.4byte	.LVL177
 13219 0cf0 0200     		.2byte	0x2
 13220 0cf2 36       		.byte	0x36
 13221 0cf3 9F       		.byte	0x9f
 13222 0cf4 3C020000 		.4byte	.LVL177
 13223 0cf8 48020000 		.4byte	.LVL178
 13224 0cfc 0200     		.2byte	0x2
 13225 0cfe 37       		.byte	0x37
 13226 0cff 9F       		.byte	0x9f
 13227 0d00 48020000 		.4byte	.LVL178
 13228 0d04 56020000 		.4byte	.LVL179
 13229 0d08 0200     		.2byte	0x2
 13230 0d0a 38       		.byte	0x38
 13231 0d0b 9F       		.byte	0x9f
 13232 0d0c 56020000 		.4byte	.LVL179
 13233 0d10 64020000 		.4byte	.LVL180
 13234 0d14 0200     		.2byte	0x2
 13235 0d16 39       		.byte	0x39
 13236 0d17 9F       		.byte	0x9f
 13237 0d18 64020000 		.4byte	.LVL180
 13238 0d1c 72020000 		.4byte	.LVL181
 13239 0d20 0200     		.2byte	0x2
 13240 0d22 3A       		.byte	0x3a
 13241 0d23 9F       		.byte	0x9f
 13242 0d24 72020000 		.4byte	.LVL181
 13243 0d28 82020000 		.4byte	.LVL182
 13244 0d2c 0200     		.2byte	0x2
 13245 0d2e 3B       		.byte	0x3b
 13246 0d2f 9F       		.byte	0x9f
 13247 0d30 82020000 		.4byte	.LVL182
 13248 0d34 92020000 		.4byte	.LVL183
 13249 0d38 0200     		.2byte	0x2
 13250 0d3a 3C       		.byte	0x3c
 13251 0d3b 9F       		.byte	0x9f
 13252 0d3c 92020000 		.4byte	.LVL183
 13253 0d40 9A020000 		.4byte	.LVL184
 13254 0d44 0200     		.2byte	0x2
 13255 0d46 3D       		.byte	0x3d
 13256 0d47 9F       		.byte	0x9f
 13257 0d48 9A020000 		.4byte	.LVL184
 13258 0d4c A8020000 		.4byte	.LVL185
 13259 0d50 0200     		.2byte	0x2
 13260 0d52 3E       		.byte	0x3e
 13261 0d53 9F       		.byte	0x9f
 13262 0d54 A8020000 		.4byte	.LVL185
 13263 0d58 B6020000 		.4byte	.LVL186
 13264 0d5c 0200     		.2byte	0x2
 13265 0d5e 3F       		.byte	0x3f
 13266 0d5f 9F       		.byte	0x9f
 13267 0d60 BE020000 		.4byte	.LVL187
 13268 0d64 C6020000 		.4byte	.LVL188
ARM GAS  C:\Users\EBANO_~1\AppData\Local\Temp\ccpYmjAB.s 			page 261


 13269 0d68 0200     		.2byte	0x2
 13270 0d6a 3F       		.byte	0x3f
 13271 0d6b 9F       		.byte	0x9f
 13272 0d6c C6020000 		.4byte	.LVL188
 13273 0d70 D2020000 		.4byte	.LVL189
 13274 0d74 0200     		.2byte	0x2
 13275 0d76 40       		.byte	0x40
 13276 0d77 9F       		.byte	0x9f
 13277 0d78 E8020000 		.4byte	.LVL192
 13278 0d7c EE020000 		.4byte	.LVL193
 13279 0d80 0200     		.2byte	0x2
 13280 0d82 3D       		.byte	0x3d
 13281 0d83 9F       		.byte	0x9f
 13282 0d84 EE020000 		.4byte	.LVL193
 13283 0d88 FC020000 		.4byte	.LFE54
 13284 0d8c 0200     		.2byte	0x2
 13285 0d8e 3E       		.byte	0x3e
 13286 0d8f 9F       		.byte	0x9f
 13287 0d90 00000000 		.4byte	0
 13288 0d94 00000000 		.4byte	0
 13289              	.LLST38:
 13290 0d98 00000000 		.4byte	.LFB53
 13291 0d9c 02000000 		.4byte	.LCFI16
 13292 0da0 0200     		.2byte	0x2
 13293 0da2 7D       		.byte	0x7d
 13294 0da3 00       		.sleb128 0
 13295 0da4 02000000 		.4byte	.LCFI16
 13296 0da8 14000000 		.4byte	.LCFI17
 13297 0dac 0200     		.2byte	0x2
 13298 0dae 7D       		.byte	0x7d
 13299 0daf 14       		.sleb128 20
 13300 0db0 14000000 		.4byte	.LCFI17
 13301 0db4 16000000 		.4byte	.LCFI18
 13302 0db8 0200     		.2byte	0x2
 13303 0dba 7D       		.byte	0x7d
 13304 0dbb 24       		.sleb128 36
 13305 0dbc 16000000 		.4byte	.LCFI18
 13306 0dc0 3C010000 		.4byte	.LFE53
 13307 0dc4 0300     		.2byte	0x3
 13308 0dc6 7D       		.byte	0x7d
 13309 0dc7 D800     		.sleb128 88
 13310 0dc9 00000000 		.4byte	0
 13311 0dcd 00000000 		.4byte	0
 13312              	.LLST39:
 13313 0dd1 00000000 		.4byte	.LVL109
 13314 0dd5 20000000 		.4byte	.LVL112
 13315 0dd9 0100     		.2byte	0x1
 13316 0ddb 50       		.byte	0x50
 13317 0ddc 20000000 		.4byte	.LVL112
 13318 0de0 D8000000 		.4byte	.LVL128
 13319 0de4 0100     		.2byte	0x1
 13320 0de6 54       		.byte	0x54
 13321 0de7 D8000000 		.4byte	.LVL128
 13322 0deb E4000000 		.4byte	.LVL132
 13323 0def 0400     		.2byte	0x4
 13324 0df1 F3       		.byte	0xf3
 13325 0df2 01       		.uleb128 0x1
ARM GAS  C:\Users\EBANO_~1\AppData\Local\Temp\ccpYmjAB.s 			page 262


 13326 0df3 50       		.byte	0x50
 13327 0df4 9F       		.byte	0x9f
 13328 0df5 E4000000 		.4byte	.LVL132
 13329 0df9 3C010000 		.4byte	.LFE53
 13330 0dfd 0100     		.2byte	0x1
 13331 0dff 54       		.byte	0x54
 13332 0e00 00000000 		.4byte	0
 13333 0e04 00000000 		.4byte	0
 13334              	.LLST40:
 13335 0e08 00000000 		.4byte	.LVL109
 13336 0e0c 1C000000 		.4byte	.LVL111
 13337 0e10 0100     		.2byte	0x1
 13338 0e12 51       		.byte	0x51
 13339 0e13 1C000000 		.4byte	.LVL111
 13340 0e17 3C010000 		.4byte	.LFE53
 13341 0e1b 0200     		.2byte	0x2
 13342 0e1d 91       		.byte	0x91
 13343 0e1e 50       		.sleb128 -48
 13344 0e1f 00000000 		.4byte	0
 13345 0e23 00000000 		.4byte	0
 13346              	.LLST41:
 13347 0e27 00000000 		.4byte	.LVL109
 13348 0e2b 0E000000 		.4byte	.LVL110
 13349 0e2f 0100     		.2byte	0x1
 13350 0e31 52       		.byte	0x52
 13351 0e32 0E000000 		.4byte	.LVL110
 13352 0e36 D8000000 		.4byte	.LVL130
 13353 0e3a 0100     		.2byte	0x1
 13354 0e3c 58       		.byte	0x58
 13355 0e3d D8000000 		.4byte	.LVL130
 13356 0e41 E4000000 		.4byte	.LVL132
 13357 0e45 0400     		.2byte	0x4
 13358 0e47 F3       		.byte	0xf3
 13359 0e48 01       		.uleb128 0x1
 13360 0e49 52       		.byte	0x52
 13361 0e4a 9F       		.byte	0x9f
 13362 0e4b E4000000 		.4byte	.LVL132
 13363 0e4f 3C010000 		.4byte	.LFE53
 13364 0e53 0100     		.2byte	0x1
 13365 0e55 58       		.byte	0x58
 13366 0e56 00000000 		.4byte	0
 13367 0e5a 00000000 		.4byte	0
 13368              	.LLST42:
 13369 0e5e 8E000000 		.4byte	.LVL122
 13370 0e62 B6000000 		.4byte	.LVL125
 13371 0e66 0200     		.2byte	0x2
 13372 0e68 31       		.byte	0x31
 13373 0e69 9F       		.byte	0x9f
 13374 0e6a B6000000 		.4byte	.LVL125
 13375 0e6e D8000000 		.4byte	.LVL129
 13376 0e72 0100     		.2byte	0x1
 13377 0e74 56       		.byte	0x56
 13378 0e75 EA000000 		.4byte	.LVL134
 13379 0e79 3C010000 		.4byte	.LFE53
 13380 0e7d 0200     		.2byte	0x2
 13381 0e7f 30       		.byte	0x30
 13382 0e80 9F       		.byte	0x9f
ARM GAS  C:\Users\EBANO_~1\AppData\Local\Temp\ccpYmjAB.s 			page 263


 13383 0e81 00000000 		.4byte	0
 13384 0e85 00000000 		.4byte	0
 13385              	.LLST43:
 13386 0e89 22000000 		.4byte	.LVL113
 13387 0e8d AC000000 		.4byte	.LVL123
 13388 0e91 0100     		.2byte	0x1
 13389 0e93 56       		.byte	0x56
 13390 0e94 AC000000 		.4byte	.LVL123
 13391 0e98 B3000000 		.4byte	.LVL124-1
 13392 0e9c 0200     		.2byte	0x2
 13393 0e9e 7D       		.byte	0x7d
 13394 0e9f 00       		.sleb128 0
 13395 0ea0 E4000000 		.4byte	.LVL132
 13396 0ea4 04010000 		.4byte	.LVL135
 13397 0ea8 0100     		.2byte	0x1
 13398 0eaa 56       		.byte	0x56
 13399 0eab 00000000 		.4byte	0
 13400 0eaf 00000000 		.4byte	0
 13401              	.LLST44:
 13402 0eb3 64000000 		.4byte	.LVL118
 13403 0eb7 72000000 		.4byte	.LVL120
 13404 0ebb 0200     		.2byte	0x2
 13405 0ebd 30       		.byte	0x30
 13406 0ebe 9F       		.byte	0x9f
 13407 0ebf 72000000 		.4byte	.LVL120
 13408 0ec3 D8000000 		.4byte	.LVL131
 13409 0ec7 0100     		.2byte	0x1
 13410 0ec9 5B       		.byte	0x5b
 13411 0eca EA000000 		.4byte	.LVL134
 13412 0ece 3C010000 		.4byte	.LFE53
 13413 0ed2 0100     		.2byte	0x1
 13414 0ed4 5B       		.byte	0x5b
 13415 0ed5 00000000 		.4byte	0
 13416 0ed9 00000000 		.4byte	0
 13417              	.LLST45:
 13418 0edd 22000000 		.4byte	.LVL113
 13419 0ee1 4C000000 		.4byte	.LVL116
 13420 0ee5 0100     		.2byte	0x1
 13421 0ee7 52       		.byte	0x52
 13422 0ee8 4C000000 		.4byte	.LVL116
 13423 0eec 6D000000 		.4byte	.LVL119-1
 13424 0ef0 0200     		.2byte	0x2
 13425 0ef2 74       		.byte	0x74
 13426 0ef3 01       		.sleb128 1
 13427 0ef4 E4000000 		.4byte	.LVL132
 13428 0ef8 E6000000 		.4byte	.LVL133
 13429 0efc 0200     		.2byte	0x2
 13430 0efe 74       		.byte	0x74
 13431 0eff 01       		.sleb128 1
 13432 0f00 E6000000 		.4byte	.LVL133
 13433 0f04 EA000000 		.4byte	.LVL134
 13434 0f08 0500     		.2byte	0x5
 13435 0f0a 74       		.byte	0x74
 13436 0f0b 00       		.sleb128 0
 13437 0f0c 73       		.byte	0x73
 13438 0f0d 00       		.sleb128 0
 13439 0f0e 22       		.byte	0x22
ARM GAS  C:\Users\EBANO_~1\AppData\Local\Temp\ccpYmjAB.s 			page 264


 13440 0f0f 00000000 		.4byte	0
 13441 0f13 00000000 		.4byte	0
 13442              	.LLST46:
 13443 0f17 22000000 		.4byte	.LVL113
 13444 0f1b 24000000 		.4byte	.LVL114
 13445 0f1f 1E00     		.2byte	0x1e
 13446 0f21 74       		.byte	0x74
 13447 0f22 00       		.sleb128 0
 13448 0f23 94       		.byte	0x94
 13449 0f24 01       		.byte	0x1
 13450 0f25 08       		.byte	0x8
 13451 0f26 FF       		.byte	0xff
 13452 0f27 1A       		.byte	0x1a
 13453 0f28 3C       		.byte	0x3c
 13454 0f29 1E       		.byte	0x1e
 13455 0f2a 03       		.byte	0x3
 13456 0f2b 09000000 		.4byte	NvmCtx+9
 13457 0f2f 22       		.byte	0x22
 13458 0f30 94       		.byte	0x94
 13459 0f31 01       		.byte	0x1
 13460 0f32 08       		.byte	0x8
 13461 0f33 FF       		.byte	0xff
 13462 0f34 1A       		.byte	0x1a
 13463 0f35 23       		.byte	0x23
 13464 0f36 0C       		.uleb128 0xc
 13465 0f37 34       		.byte	0x34
 13466 0f38 24       		.byte	0x24
 13467 0f39 03       		.byte	0x3
 13468 0f3a 02000000 		.4byte	NvmCtx+2
 13469 0f3e 22       		.byte	0x22
 13470 0f3f 24000000 		.4byte	.LVL114
 13471 0f43 2A000000 		.4byte	.LVL115
 13472 0f47 1900     		.2byte	0x19
 13473 0f49 70       		.byte	0x70
 13474 0f4a 00       		.sleb128 0
 13475 0f4b 3C       		.byte	0x3c
 13476 0f4c 1E       		.byte	0x1e
 13477 0f4d 03       		.byte	0x3
 13478 0f4e 09000000 		.4byte	NvmCtx+9
 13479 0f52 22       		.byte	0x22
 13480 0f53 94       		.byte	0x94
 13481 0f54 01       		.byte	0x1
 13482 0f55 08       		.byte	0x8
 13483 0f56 FF       		.byte	0xff
 13484 0f57 1A       		.byte	0x1a
 13485 0f58 23       		.byte	0x23
 13486 0f59 0C       		.uleb128 0xc
 13487 0f5a 34       		.byte	0x34
 13488 0f5b 24       		.byte	0x24
 13489 0f5c 03       		.byte	0x3
 13490 0f5d 02000000 		.4byte	NvmCtx+2
 13491 0f61 22       		.byte	0x22
 13492 0f62 2A000000 		.4byte	.LVL115
 13493 0f66 4E000000 		.4byte	.LVL117
 13494 0f6a 1E00     		.2byte	0x1e
 13495 0f6c 74       		.byte	0x74
 13496 0f6d 00       		.sleb128 0
ARM GAS  C:\Users\EBANO_~1\AppData\Local\Temp\ccpYmjAB.s 			page 265


 13497 0f6e 94       		.byte	0x94
 13498 0f6f 01       		.byte	0x1
 13499 0f70 08       		.byte	0x8
 13500 0f71 FF       		.byte	0xff
 13501 0f72 1A       		.byte	0x1a
 13502 0f73 3C       		.byte	0x3c
 13503 0f74 1E       		.byte	0x1e
 13504 0f75 03       		.byte	0x3
 13505 0f76 09000000 		.4byte	NvmCtx+9
 13506 0f7a 22       		.byte	0x22
 13507 0f7b 94       		.byte	0x94
 13508 0f7c 01       		.byte	0x1
 13509 0f7d 08       		.byte	0x8
 13510 0f7e FF       		.byte	0xff
 13511 0f7f 1A       		.byte	0x1a
 13512 0f80 23       		.byte	0x23
 13513 0f81 0C       		.uleb128 0xc
 13514 0f82 34       		.byte	0x34
 13515 0f83 24       		.byte	0x24
 13516 0f84 03       		.byte	0x3
 13517 0f85 02000000 		.4byte	NvmCtx+2
 13518 0f89 22       		.byte	0x22
 13519 0f8a 00000000 		.4byte	0
 13520 0f8e 00000000 		.4byte	0
 13521              	.LLST47:
 13522 0f92 22000000 		.4byte	.LVL113
 13523 0f96 4E000000 		.4byte	.LVL117
 13524 0f9a 0200     		.2byte	0x2
 13525 0f9c 74       		.byte	0x74
 13526 0f9d 02       		.sleb128 2
 13527 0f9e 00000000 		.4byte	0
 13528 0fa2 00000000 		.4byte	0
 13529              	.LLST30:
 13530 0fa6 00000000 		.4byte	.LFB52
 13531 0faa 02000000 		.4byte	.LCFI13
 13532 0fae 0200     		.2byte	0x2
 13533 0fb0 7D       		.byte	0x7d
 13534 0fb1 00       		.sleb128 0
 13535 0fb2 02000000 		.4byte	.LCFI13
 13536 0fb6 0A000000 		.4byte	.LCFI14
 13537 0fba 0200     		.2byte	0x2
 13538 0fbc 7D       		.byte	0x7d
 13539 0fbd 14       		.sleb128 20
 13540 0fbe 0A000000 		.4byte	.LCFI14
 13541 0fc2 16000000 		.4byte	.LCFI15
 13542 0fc6 0200     		.2byte	0x2
 13543 0fc8 7D       		.byte	0x7d
 13544 0fc9 20       		.sleb128 32
 13545 0fca 16000000 		.4byte	.LCFI15
 13546 0fce 0C010000 		.4byte	.LFE52
 13547 0fd2 0300     		.2byte	0x3
 13548 0fd4 7D       		.byte	0x7d
 13549 0fd5 D000     		.sleb128 80
 13550 0fd7 00000000 		.4byte	0
 13551 0fdb 00000000 		.4byte	0
 13552              	.LLST31:
 13553 0fdf 00000000 		.4byte	.LVL86
ARM GAS  C:\Users\EBANO_~1\AppData\Local\Temp\ccpYmjAB.s 			page 266


 13554 0fe3 1F000000 		.4byte	.LVL88-1
 13555 0fe7 0100     		.2byte	0x1
 13556 0fe9 50       		.byte	0x50
 13557 0fea 1F000000 		.4byte	.LVL88-1
 13558 0fee A8000000 		.4byte	.LVL100
 13559 0ff2 0100     		.2byte	0x1
 13560 0ff4 54       		.byte	0x54
 13561 0ff5 A8000000 		.4byte	.LVL100
 13562 0ff9 B2000000 		.4byte	.LVL104
 13563 0ffd 0400     		.2byte	0x4
 13564 0fff F3       		.byte	0xf3
 13565 1000 01       		.uleb128 0x1
 13566 1001 50       		.byte	0x50
 13567 1002 9F       		.byte	0x9f
 13568 1003 B2000000 		.4byte	.LVL104
 13569 1007 0C010000 		.4byte	.LFE52
 13570 100b 0100     		.2byte	0x1
 13571 100d 54       		.byte	0x54
 13572 100e 00000000 		.4byte	0
 13573 1012 00000000 		.4byte	0
 13574              	.LLST32:
 13575 1016 00000000 		.4byte	.LVL86
 13576 101a 1F000000 		.4byte	.LVL88-1
 13577 101e 0100     		.2byte	0x1
 13578 1020 51       		.byte	0x51
 13579 1021 1F000000 		.4byte	.LVL88-1
 13580 1025 A8000000 		.4byte	.LVL103
 13581 1029 0100     		.2byte	0x1
 13582 102b 5A       		.byte	0x5a
 13583 102c A8000000 		.4byte	.LVL103
 13584 1030 B2000000 		.4byte	.LVL104
 13585 1034 0400     		.2byte	0x4
 13586 1036 F3       		.byte	0xf3
 13587 1037 01       		.uleb128 0x1
 13588 1038 51       		.byte	0x51
 13589 1039 9F       		.byte	0x9f
 13590 103a B2000000 		.4byte	.LVL104
 13591 103e 0C010000 		.4byte	.LFE52
 13592 1042 0100     		.2byte	0x1
 13593 1044 5A       		.byte	0x5a
 13594 1045 00000000 		.4byte	0
 13595 1049 00000000 		.4byte	0
 13596              	.LLST33:
 13597 104d 5E000000 		.4byte	.LVL93
 13598 1051 88000000 		.4byte	.LVL95
 13599 1055 0200     		.2byte	0x2
 13600 1057 31       		.byte	0x31
 13601 1058 9F       		.byte	0x9f
 13602 1059 88000000 		.4byte	.LVL95
 13603 105d 9D000000 		.4byte	.LVL98-1
 13604 1061 0100     		.2byte	0x1
 13605 1063 50       		.byte	0x50
 13606 1064 B2000000 		.4byte	.LVL104
 13607 1068 B8000000 		.4byte	.LVL106
 13608 106c 0100     		.2byte	0x1
 13609 106e 50       		.byte	0x50
 13610 106f B8000000 		.4byte	.LVL106
ARM GAS  C:\Users\EBANO_~1\AppData\Local\Temp\ccpYmjAB.s 			page 267


 13611 1073 F0000000 		.4byte	.LVL108
 13612 1077 0200     		.2byte	0x2
 13613 1079 30       		.byte	0x30
 13614 107a 9F       		.byte	0x9f
 13615 107b 00000000 		.4byte	0
 13616 107f 00000000 		.4byte	0
 13617              	.LLST34:
 13618 1083 18000000 		.4byte	.LVL87
 13619 1087 A8000000 		.4byte	.LVL101
 13620 108b 0100     		.2byte	0x1
 13621 108d 56       		.byte	0x56
 13622 108e B2000000 		.4byte	.LVL104
 13623 1092 0C010000 		.4byte	.LFE52
 13624 1096 0100     		.2byte	0x1
 13625 1098 56       		.byte	0x56
 13626 1099 00000000 		.4byte	0
 13627 109d 00000000 		.4byte	0
 13628              	.LLST35:
 13629 10a1 18000000 		.4byte	.LVL87
 13630 10a5 94000000 		.4byte	.LVL96
 13631 10a9 0200     		.2byte	0x2
 13632 10ab 30       		.byte	0x30
 13633 10ac 9F       		.byte	0x9f
 13634 10ad 94000000 		.4byte	.LVL96
 13635 10b1 98000000 		.4byte	.LVL97
 13636 10b5 0100     		.2byte	0x1
 13637 10b7 51       		.byte	0x51
 13638 10b8 B2000000 		.4byte	.LVL104
 13639 10bc B6000000 		.4byte	.LVL105
 13640 10c0 0200     		.2byte	0x2
 13641 10c2 30       		.byte	0x30
 13642 10c3 9F       		.byte	0x9f
 13643 10c4 B6000000 		.4byte	.LVL105
 13644 10c8 B8000000 		.4byte	.LVL106
 13645 10cc 0100     		.2byte	0x1
 13646 10ce 51       		.byte	0x51
 13647 10cf B8000000 		.4byte	.LVL106
 13648 10d3 0C010000 		.4byte	.LFE52
 13649 10d7 0200     		.2byte	0x2
 13650 10d9 30       		.byte	0x30
 13651 10da 9F       		.byte	0x9f
 13652 10db 00000000 		.4byte	0
 13653 10df 00000000 		.4byte	0
 13654              	.LLST36:
 13655 10e3 18000000 		.4byte	.LVL87
 13656 10e7 4E000000 		.4byte	.LVL91
 13657 10eb 0200     		.2byte	0x2
 13658 10ed 30       		.byte	0x30
 13659 10ee 9F       		.byte	0x9f
 13660 10ef 4E000000 		.4byte	.LVL91
 13661 10f3 A4000000 		.4byte	.LVL99
 13662 10f7 0100     		.2byte	0x1
 13663 10f9 59       		.byte	0x59
 13664 10fa B2000000 		.4byte	.LVL104
 13665 10fe F0000000 		.4byte	.LVL108
 13666 1102 0100     		.2byte	0x1
 13667 1104 59       		.byte	0x59
ARM GAS  C:\Users\EBANO_~1\AppData\Local\Temp\ccpYmjAB.s 			page 268


 13668 1105 F0000000 		.4byte	.LVL108
 13669 1109 0C010000 		.4byte	.LFE52
 13670 110d 0200     		.2byte	0x2
 13671 110f 30       		.byte	0x30
 13672 1110 9F       		.byte	0x9f
 13673 1111 00000000 		.4byte	0
 13674 1115 00000000 		.4byte	0
 13675              	.LLST37:
 13676 1119 18000000 		.4byte	.LVL87
 13677 111d 38000000 		.4byte	.LVL89
 13678 1121 0100     		.2byte	0x1
 13679 1123 58       		.byte	0x58
 13680 1124 38000000 		.4byte	.LVL89
 13681 1128 42000000 		.4byte	.LVL90
 13682 112c 0100     		.2byte	0x1
 13683 112e 51       		.byte	0x51
 13684 112f 42000000 		.4byte	.LVL90
 13685 1133 A8000000 		.4byte	.LVL102
 13686 1137 0100     		.2byte	0x1
 13687 1139 58       		.byte	0x58
 13688 113a B2000000 		.4byte	.LVL104
 13689 113e F0000000 		.4byte	.LVL108
 13690 1142 0100     		.2byte	0x1
 13691 1144 58       		.byte	0x58
 13692 1145 F0000000 		.4byte	.LVL108
 13693 1149 0C010000 		.4byte	.LFE52
 13694 114d 0100     		.2byte	0x1
 13695 114f 51       		.byte	0x51
 13696 1150 00000000 		.4byte	0
 13697 1154 00000000 		.4byte	0
 13698              	.LLST24:
 13699 1158 00000000 		.4byte	.LFB51
 13700 115c 02000000 		.4byte	.LCFI10
 13701 1160 0200     		.2byte	0x2
 13702 1162 7D       		.byte	0x7d
 13703 1163 00       		.sleb128 0
 13704 1164 02000000 		.4byte	.LCFI10
 13705 1168 06000000 		.4byte	.LCFI11
 13706 116c 0200     		.2byte	0x2
 13707 116e 7D       		.byte	0x7d
 13708 116f 14       		.sleb128 20
 13709 1170 06000000 		.4byte	.LCFI11
 13710 1174 0A000000 		.4byte	.LCFI12
 13711 1178 0200     		.2byte	0x2
 13712 117a 7D       		.byte	0x7d
 13713 117b 18       		.sleb128 24
 13714 117c 0A000000 		.4byte	.LCFI12
 13715 1180 94000000 		.4byte	.LFE51
 13716 1184 0200     		.2byte	0x2
 13717 1186 7D       		.byte	0x7d
 13718 1187 30       		.sleb128 48
 13719 1188 00000000 		.4byte	0
 13720 118c 00000000 		.4byte	0
 13721              	.LLST25:
 13722 1190 00000000 		.4byte	.LVL66
 13723 1194 40000000 		.4byte	.LVL71
 13724 1198 0100     		.2byte	0x1
ARM GAS  C:\Users\EBANO_~1\AppData\Local\Temp\ccpYmjAB.s 			page 269


 13725 119a 50       		.byte	0x50
 13726 119b 40000000 		.4byte	.LVL71
 13727 119f 70000000 		.4byte	.LVL82
 13728 11a3 0400     		.2byte	0x4
 13729 11a5 F3       		.byte	0xf3
 13730 11a6 01       		.uleb128 0x1
 13731 11a7 50       		.byte	0x50
 13732 11a8 9F       		.byte	0x9f
 13733 11a9 70000000 		.4byte	.LVL82
 13734 11ad 7A000000 		.4byte	.LVL83
 13735 11b1 0100     		.2byte	0x1
 13736 11b3 50       		.byte	0x50
 13737 11b4 7A000000 		.4byte	.LVL83
 13738 11b8 94000000 		.4byte	.LFE51
 13739 11bc 0400     		.2byte	0x4
 13740 11be F3       		.byte	0xf3
 13741 11bf 01       		.uleb128 0x1
 13742 11c0 50       		.byte	0x50
 13743 11c1 9F       		.byte	0x9f
 13744 11c2 00000000 		.4byte	0
 13745 11c6 00000000 		.4byte	0
 13746              	.LLST26:
 13747 11ca 00000000 		.4byte	.LVL66
 13748 11ce 1C000000 		.4byte	.LVL69
 13749 11d2 0100     		.2byte	0x1
 13750 11d4 51       		.byte	0x51
 13751 11d5 1C000000 		.4byte	.LVL69
 13752 11d9 94000000 		.4byte	.LFE51
 13753 11dd 0400     		.2byte	0x4
 13754 11df F3       		.byte	0xf3
 13755 11e0 01       		.uleb128 0x1
 13756 11e1 51       		.byte	0x51
 13757 11e2 9F       		.byte	0x9f
 13758 11e3 00000000 		.4byte	0
 13759 11e7 00000000 		.4byte	0
 13760              	.LLST27:
 13761 11eb 00000000 		.4byte	.LVL66
 13762 11ef 1A000000 		.4byte	.LVL68
 13763 11f3 0100     		.2byte	0x1
 13764 11f5 52       		.byte	0x52
 13765 11f6 1A000000 		.4byte	.LVL68
 13766 11fa 6A000000 		.4byte	.LVL81
 13767 11fe 0100     		.2byte	0x1
 13768 1200 58       		.byte	0x58
 13769 1201 6A000000 		.4byte	.LVL81
 13770 1205 70000000 		.4byte	.LVL82
 13771 1209 0400     		.2byte	0x4
 13772 120b F3       		.byte	0xf3
 13773 120c 01       		.uleb128 0x1
 13774 120d 52       		.byte	0x52
 13775 120e 9F       		.byte	0x9f
 13776 120f 70000000 		.4byte	.LVL82
 13777 1213 94000000 		.4byte	.LFE51
 13778 1217 0100     		.2byte	0x1
 13779 1219 58       		.byte	0x58
 13780 121a 00000000 		.4byte	0
 13781 121e 00000000 		.4byte	0
ARM GAS  C:\Users\EBANO_~1\AppData\Local\Temp\ccpYmjAB.s 			page 270


 13782              	.LLST28:
 13783 1222 00000000 		.4byte	.LVL66
 13784 1226 10000000 		.4byte	.LVL67
 13785 122a 0100     		.2byte	0x1
 13786 122c 53       		.byte	0x53
 13787 122d 10000000 		.4byte	.LVL67
 13788 1231 54000000 		.4byte	.LVL75
 13789 1235 0100     		.2byte	0x1
 13790 1237 54       		.byte	0x54
 13791 1238 54000000 		.4byte	.LVL75
 13792 123c 56000000 		.4byte	.LVL76
 13793 1240 0100     		.2byte	0x1
 13794 1242 53       		.byte	0x53
 13795 1243 56000000 		.4byte	.LVL76
 13796 1247 5E000000 		.4byte	.LVL77
 13797 124b 0300     		.2byte	0x3
 13798 124d 73       		.byte	0x73
 13799 124e 74       		.sleb128 -12
 13800 124f 9F       		.byte	0x9f
 13801 1250 5E000000 		.4byte	.LVL77
 13802 1254 67000000 		.4byte	.LVL78-1
 13803 1258 0600     		.2byte	0x6
 13804 125a 91       		.byte	0x91
 13805 125b 58       		.sleb128 -40
 13806 125c 06       		.byte	0x6
 13807 125d 3C       		.byte	0x3c
 13808 125e 1C       		.byte	0x1c
 13809 125f 9F       		.byte	0x9f
 13810 1260 67000000 		.4byte	.LVL78-1
 13811 1264 6A000000 		.4byte	.LVL79
 13812 1268 0300     		.2byte	0x3
 13813 126a 74       		.byte	0x74
 13814 126b 78       		.sleb128 -8
 13815 126c 9F       		.byte	0x9f
 13816 126d 6A000000 		.4byte	.LVL79
 13817 1271 70000000 		.4byte	.LVL82
 13818 1275 0400     		.2byte	0x4
 13819 1277 F3       		.byte	0xf3
 13820 1278 01       		.uleb128 0x1
 13821 1279 53       		.byte	0x53
 13822 127a 9F       		.byte	0x9f
 13823 127b 70000000 		.4byte	.LVL82
 13824 127f 94000000 		.4byte	.LFE51
 13825 1283 0100     		.2byte	0x1
 13826 1285 54       		.byte	0x54
 13827 1286 00000000 		.4byte	0
 13828 128a 00000000 		.4byte	0
 13829              	.LLST29:
 13830 128e 00000000 		.4byte	.LVL66
 13831 1292 48000000 		.4byte	.LVL73
 13832 1296 0A00     		.2byte	0xa
 13833 1298 9E       		.byte	0x9e
 13834 1299 08       		.uleb128 0x8
 13835 129a 00000000 		.4byte	0
 13836 129e 00000000 		.4byte	0
 13837 12a2 48000000 		.4byte	.LVL73
 13838 12a6 6A000000 		.4byte	.LVL80
ARM GAS  C:\Users\EBANO_~1\AppData\Local\Temp\ccpYmjAB.s 			page 271


 13839 12aa 0600     		.2byte	0x6
 13840 12ac 56       		.byte	0x56
 13841 12ad 93       		.byte	0x93
 13842 12ae 04       		.uleb128 0x4
 13843 12af 57       		.byte	0x57
 13844 12b0 93       		.byte	0x93
 13845 12b1 04       		.uleb128 0x4
 13846 12b2 70000000 		.4byte	.LVL82
 13847 12b6 82000000 		.4byte	.LVL85
 13848 12ba 0A00     		.2byte	0xa
 13849 12bc 9E       		.byte	0x9e
 13850 12bd 08       		.uleb128 0x8
 13851 12be 00000000 		.4byte	0
 13852 12c2 00000000 		.4byte	0
 13853 12c6 82000000 		.4byte	.LVL85
 13854 12ca 94000000 		.4byte	.LFE51
 13855 12ce 0600     		.2byte	0x6
 13856 12d0 56       		.byte	0x56
 13857 12d1 93       		.byte	0x93
 13858 12d2 04       		.uleb128 0x4
 13859 12d3 57       		.byte	0x57
 13860 12d4 93       		.byte	0x93
 13861 12d5 04       		.uleb128 0x4
 13862 12d6 00000000 		.4byte	0
 13863 12da 00000000 		.4byte	0
 13864              	.LLST22:
 13865 12de 00000000 		.4byte	.LFB50
 13866 12e2 02000000 		.4byte	.LCFI9
 13867 12e6 0200     		.2byte	0x2
 13868 12e8 7D       		.byte	0x7d
 13869 12e9 00       		.sleb128 0
 13870 12ea 02000000 		.4byte	.LCFI9
 13871 12ee 34000000 		.4byte	.LFE50
 13872 12f2 0200     		.2byte	0x2
 13873 12f4 7D       		.byte	0x7d
 13874 12f5 08       		.sleb128 8
 13875 12f6 00000000 		.4byte	0
 13876 12fa 00000000 		.4byte	0
 13877              	.LLST23:
 13878 12fe 00000000 		.4byte	.LVL58
 13879 1302 0E000000 		.4byte	.LVL59
 13880 1306 0100     		.2byte	0x1
 13881 1308 50       		.byte	0x50
 13882 1309 0E000000 		.4byte	.LVL59
 13883 130d 10000000 		.4byte	.LVL60
 13884 1311 0400     		.2byte	0x4
 13885 1313 F3       		.byte	0xf3
 13886 1314 01       		.uleb128 0x1
 13887 1315 50       		.byte	0x50
 13888 1316 9F       		.byte	0x9f
 13889 1317 10000000 		.4byte	.LVL60
 13890 131b 16000000 		.4byte	.LVL61
 13891 131f 0100     		.2byte	0x1
 13892 1321 50       		.byte	0x50
 13893 1322 16000000 		.4byte	.LVL61
 13894 1326 1E000000 		.4byte	.LVL63
 13895 132a 0400     		.2byte	0x4
ARM GAS  C:\Users\EBANO_~1\AppData\Local\Temp\ccpYmjAB.s 			page 272


 13896 132c F3       		.byte	0xf3
 13897 132d 01       		.uleb128 0x1
 13898 132e 50       		.byte	0x50
 13899 132f 9F       		.byte	0x9f
 13900 1330 1E000000 		.4byte	.LVL63
 13901 1334 24000000 		.4byte	.LVL64
 13902 1338 0100     		.2byte	0x1
 13903 133a 50       		.byte	0x50
 13904 133b 24000000 		.4byte	.LVL64
 13905 133f 34000000 		.4byte	.LFE50
 13906 1343 0400     		.2byte	0x4
 13907 1345 F3       		.byte	0xf3
 13908 1346 01       		.uleb128 0x1
 13909 1347 50       		.byte	0x50
 13910 1348 9F       		.byte	0x9f
 13911 1349 00000000 		.4byte	0
 13912 134d 00000000 		.4byte	0
 13913              	.LLST13:
 13914 1351 00000000 		.4byte	.LFB49
 13915 1355 02000000 		.4byte	.LCFI6
 13916 1359 0200     		.2byte	0x2
 13917 135b 7D       		.byte	0x7d
 13918 135c 00       		.sleb128 0
 13919 135d 02000000 		.4byte	.LCFI6
 13920 1361 0E000000 		.4byte	.LCFI7
 13921 1365 0200     		.2byte	0x2
 13922 1367 7D       		.byte	0x7d
 13923 1368 14       		.sleb128 20
 13924 1369 0E000000 		.4byte	.LCFI7
 13925 136d 10000000 		.4byte	.LCFI8
 13926 1371 0200     		.2byte	0x2
 13927 1373 7D       		.byte	0x7d
 13928 1374 24       		.sleb128 36
 13929 1375 10000000 		.4byte	.LCFI8
 13930 1379 44010000 		.4byte	.LFE49
 13931 137d 0300     		.2byte	0x3
 13932 137f 7D       		.byte	0x7d
 13933 1380 C000     		.sleb128 64
 13934 1382 00000000 		.4byte	0
 13935 1386 00000000 		.4byte	0
 13936              	.LLST14:
 13937 138a 00000000 		.4byte	.LVL35
 13938 138e 1C000000 		.4byte	.LVL36
 13939 1392 0100     		.2byte	0x1
 13940 1394 50       		.byte	0x50
 13941 1395 1C000000 		.4byte	.LVL36
 13942 1399 1E000000 		.4byte	.LVL37
 13943 139d 0100     		.2byte	0x1
 13944 139f 57       		.byte	0x57
 13945 13a0 1E000000 		.4byte	.LVL37
 13946 13a4 2A000000 		.4byte	.LVL38
 13947 13a8 0400     		.2byte	0x4
 13948 13aa F3       		.byte	0xf3
 13949 13ab 01       		.uleb128 0x1
 13950 13ac 50       		.byte	0x50
 13951 13ad 9F       		.byte	0x9f
 13952 13ae 2A000000 		.4byte	.LVL38
ARM GAS  C:\Users\EBANO_~1\AppData\Local\Temp\ccpYmjAB.s 			page 273


 13953 13b2 40000000 		.4byte	.LVL39
 13954 13b6 0100     		.2byte	0x1
 13955 13b8 50       		.byte	0x50
 13956 13b9 40000000 		.4byte	.LVL39
 13957 13bd 44010000 		.4byte	.LFE49
 13958 13c1 0100     		.2byte	0x1
 13959 13c3 57       		.byte	0x57
 13960 13c4 00000000 		.4byte	0
 13961 13c8 00000000 		.4byte	0
 13962              	.LLST15:
 13963 13cc 40000000 		.4byte	.LVL39
 13964 13d0 62000000 		.4byte	.LVL43
 13965 13d4 0300     		.2byte	0x3
 13966 13d6 76       		.byte	0x76
 13967 13d7 7F       		.sleb128 -1
 13968 13d8 9F       		.byte	0x9f
 13969 13d9 62000000 		.4byte	.LVL43
 13970 13dd 64000000 		.4byte	.LVL44
 13971 13e1 0300     		.2byte	0x3
 13972 13e3 76       		.byte	0x76
 13973 13e4 02       		.sleb128 2
 13974 13e5 9F       		.byte	0x9f
 13975 13e6 6E000000 		.4byte	.LVL46
 13976 13ea 44010000 		.4byte	.LFE49
 13977 13ee 0300     		.2byte	0x3
 13978 13f0 76       		.byte	0x76
 13979 13f1 7F       		.sleb128 -1
 13980 13f2 9F       		.byte	0x9f
 13981 13f3 00000000 		.4byte	0
 13982 13f7 00000000 		.4byte	0
 13983              	.LLST16:
 13984 13fb 40000000 		.4byte	.LVL39
 13985 13ff 42000000 		.4byte	.LVL40
 13986 1403 0100     		.2byte	0x1
 13987 1405 53       		.byte	0x53
 13988 1406 42000000 		.4byte	.LVL40
 13989 140a 62000000 		.4byte	.LVL43
 13990 140e 0100     		.2byte	0x1
 13991 1410 58       		.byte	0x58
 13992 1411 62000000 		.4byte	.LVL43
 13993 1415 66000000 		.4byte	.LVL45
 13994 1419 0300     		.2byte	0x3
 13995 141b 75       		.byte	0x75
 13996 141c 01       		.sleb128 1
 13997 141d 9F       		.byte	0x9f
 13998 141e 6E000000 		.4byte	.LVL46
 13999 1422 74000000 		.4byte	.LVL47
 14000 1426 0100     		.2byte	0x1
 14001 1428 53       		.byte	0x53
 14002 1429 74000000 		.4byte	.LVL47
 14003 142d A8000000 		.4byte	.LVL50
 14004 1431 0100     		.2byte	0x1
 14005 1433 58       		.byte	0x58
 14006 1434 A8000000 		.4byte	.LVL50
 14007 1438 44010000 		.4byte	.LFE49
 14008 143c 0100     		.2byte	0x1
 14009 143e 55       		.byte	0x55
ARM GAS  C:\Users\EBANO_~1\AppData\Local\Temp\ccpYmjAB.s 			page 274


 14010 143f 00000000 		.4byte	0
 14011 1443 00000000 		.4byte	0
 14012              	.LLST17:
 14013 1447 48000000 		.4byte	.LVL41
 14014 144b 62000000 		.4byte	.LVL43
 14015 144f 0600     		.2byte	0x6
 14016 1451 F2       		.byte	0xf2
 14017 1452 702C0000 		.4byte	.Ldebug_info0+11376
 14018 1456 00       		.sleb128 0
 14019 1457 00000000 		.4byte	0
 14020 145b 00000000 		.4byte	0
 14021              	.LLST18:
 14022 145f 48000000 		.4byte	.LVL41
 14023 1463 62000000 		.4byte	.LVL43
 14024 1467 0100     		.2byte	0x1
 14025 1469 58       		.byte	0x58
 14026 146a 00000000 		.4byte	0
 14027 146e 00000000 		.4byte	0
 14028              	.LLST19:
 14029 1472 98000000 		.4byte	.LVL48
 14030 1476 A8000000 		.4byte	.LVL50
 14031 147a 0200     		.2byte	0x2
 14032 147c 30       		.byte	0x30
 14033 147d 9F       		.byte	0x9f
 14034 147e A8000000 		.4byte	.LVL50
 14035 1482 C8000000 		.4byte	.LVL52
 14036 1486 0700     		.2byte	0x7
 14037 1488 78       		.byte	0x78
 14038 1489 00       		.sleb128 0
 14039 148a 48       		.byte	0x48
 14040 148b 24       		.byte	0x24
 14041 148c 30       		.byte	0x30
 14042 148d 29       		.byte	0x29
 14043 148e 9F       		.byte	0x9f
 14044 148f C8000000 		.4byte	.LVL52
 14045 1493 2A010000 		.4byte	.LVL56
 14046 1497 0100     		.2byte	0x1
 14047 1499 5A       		.byte	0x5a
 14048 149a 2A010000 		.4byte	.LVL56
 14049 149e 44010000 		.4byte	.LFE49
 14050 14a2 0200     		.2byte	0x2
 14051 14a4 31       		.byte	0x31
 14052 14a5 9F       		.byte	0x9f
 14053 14a6 00000000 		.4byte	0
 14054 14aa 00000000 		.4byte	0
 14055              	.LLST20:
 14056 14ae 98000000 		.4byte	.LVL48
 14057 14b2 A8000000 		.4byte	.LVL50
 14058 14b6 0100     		.2byte	0x1
 14059 14b8 58       		.byte	0x58
 14060 14b9 A8000000 		.4byte	.LVL50
 14061 14bd 44010000 		.4byte	.LFE49
 14062 14c1 0100     		.2byte	0x1
 14063 14c3 55       		.byte	0x55
 14064 14c4 00000000 		.4byte	0
 14065 14c8 00000000 		.4byte	0
 14066              	.LLST21:
ARM GAS  C:\Users\EBANO_~1\AppData\Local\Temp\ccpYmjAB.s 			page 275


 14067 14cc E2000000 		.4byte	.LVL53
 14068 14d0 E5000000 		.4byte	.LVL54-1
 14069 14d4 0200     		.2byte	0x2
 14070 14d6 74       		.byte	0x74
 14071 14d7 00       		.sleb128 0
 14072 14d8 2A010000 		.4byte	.LVL56
 14073 14dc 2D010000 		.4byte	.LVL57-1
 14074 14e0 0200     		.2byte	0x2
 14075 14e2 74       		.byte	0x74
 14076 14e3 00       		.sleb128 0
 14077 14e4 00000000 		.4byte	0
 14078 14e8 00000000 		.4byte	0
 14079              	.LLST10:
 14080 14ec 00000000 		.4byte	.LFB48
 14081 14f0 06000000 		.4byte	.LCFI5
 14082 14f4 0200     		.2byte	0x2
 14083 14f6 7D       		.byte	0x7d
 14084 14f7 00       		.sleb128 0
 14085 14f8 06000000 		.4byte	.LCFI5
 14086 14fc 48000000 		.4byte	.LFE48
 14087 1500 0200     		.2byte	0x2
 14088 1502 7D       		.byte	0x7d
 14089 1503 08       		.sleb128 8
 14090 1504 00000000 		.4byte	0
 14091 1508 00000000 		.4byte	0
 14092              	.LLST11:
 14093 150c 00000000 		.4byte	.LVL24
 14094 1510 14000000 		.4byte	.LVL26
 14095 1514 0100     		.2byte	0x1
 14096 1516 50       		.byte	0x50
 14097 1517 14000000 		.4byte	.LVL26
 14098 151b 26000000 		.4byte	.LVL28
 14099 151f 0400     		.2byte	0x4
 14100 1521 F3       		.byte	0xf3
 14101 1522 01       		.uleb128 0x1
 14102 1523 50       		.byte	0x50
 14103 1524 9F       		.byte	0x9f
 14104 1525 26000000 		.4byte	.LVL28
 14105 1529 28000000 		.4byte	.LVL29
 14106 152d 0100     		.2byte	0x1
 14107 152f 50       		.byte	0x50
 14108 1530 28000000 		.4byte	.LVL29
 14109 1534 3A000000 		.4byte	.LVL31
 14110 1538 0400     		.2byte	0x4
 14111 153a F3       		.byte	0xf3
 14112 153b 01       		.uleb128 0x1
 14113 153c 50       		.byte	0x50
 14114 153d 9F       		.byte	0x9f
 14115 153e 3A000000 		.4byte	.LVL31
 14116 1542 3C000000 		.4byte	.LVL32
 14117 1546 0100     		.2byte	0x1
 14118 1548 50       		.byte	0x50
 14119 1549 3C000000 		.4byte	.LVL32
 14120 154d 3E000000 		.4byte	.LVL33
 14121 1551 0400     		.2byte	0x4
 14122 1553 F3       		.byte	0xf3
 14123 1554 01       		.uleb128 0x1
ARM GAS  C:\Users\EBANO_~1\AppData\Local\Temp\ccpYmjAB.s 			page 276


 14124 1555 50       		.byte	0x50
 14125 1556 9F       		.byte	0x9f
 14126 1557 3E000000 		.4byte	.LVL33
 14127 155b 40000000 		.4byte	.LVL34
 14128 155f 0100     		.2byte	0x1
 14129 1561 50       		.byte	0x50
 14130 1562 40000000 		.4byte	.LVL34
 14131 1566 48000000 		.4byte	.LFE48
 14132 156a 0400     		.2byte	0x4
 14133 156c F3       		.byte	0xf3
 14134 156d 01       		.uleb128 0x1
 14135 156e 50       		.byte	0x50
 14136 156f 9F       		.byte	0x9f
 14137 1570 00000000 		.4byte	0
 14138 1574 00000000 		.4byte	0
 14139              	.LLST12:
 14140 1578 00000000 		.4byte	.LVL24
 14141 157c 02000000 		.4byte	.LVL25
 14142 1580 0100     		.2byte	0x1
 14143 1582 51       		.byte	0x51
 14144 1583 02000000 		.4byte	.LVL25
 14145 1587 48000000 		.4byte	.LFE48
 14146 158b 0400     		.2byte	0x4
 14147 158d F3       		.byte	0xf3
 14148 158e 01       		.uleb128 0x1
 14149 158f 51       		.byte	0x51
 14150 1590 9F       		.byte	0x9f
 14151 1591 00000000 		.4byte	0
 14152 1595 00000000 		.4byte	0
 14153              	.LLST9:
 14154 1599 00000000 		.4byte	.LVL22
 14155 159d 06000000 		.4byte	.LVL23
 14156 15a1 0100     		.2byte	0x1
 14157 15a3 50       		.byte	0x50
 14158 15a4 06000000 		.4byte	.LVL23
 14159 15a8 0C000000 		.4byte	.LFE47
 14160 15ac 0400     		.2byte	0x4
 14161 15ae F3       		.byte	0xf3
 14162 15af 01       		.uleb128 0x1
 14163 15b0 50       		.byte	0x50
 14164 15b1 9F       		.byte	0x9f
 14165 15b2 00000000 		.4byte	0
 14166 15b6 00000000 		.4byte	0
 14167              	.LLST7:
 14168 15ba 00000000 		.4byte	.LFB46
 14169 15be 02000000 		.4byte	.LCFI3
 14170 15c2 0200     		.2byte	0x2
 14171 15c4 7D       		.byte	0x7d
 14172 15c5 00       		.sleb128 0
 14173 15c6 02000000 		.4byte	.LCFI3
 14174 15ca 04000000 		.4byte	.LCFI4
 14175 15ce 0200     		.2byte	0x2
 14176 15d0 7D       		.byte	0x7d
 14177 15d1 14       		.sleb128 20
 14178 15d2 04000000 		.4byte	.LCFI4
 14179 15d6 94000000 		.4byte	.LFE46
 14180 15da 0200     		.2byte	0x2
ARM GAS  C:\Users\EBANO_~1\AppData\Local\Temp\ccpYmjAB.s 			page 277


 14181 15dc 7D       		.byte	0x7d
 14182 15dd 28       		.sleb128 40
 14183 15de 00000000 		.4byte	0
 14184 15e2 00000000 		.4byte	0
 14185              	.LLST8:
 14186 15e6 00000000 		.4byte	.LVL13
 14187 15ea 2C000000 		.4byte	.LVL14
 14188 15ee 0100     		.2byte	0x1
 14189 15f0 50       		.byte	0x50
 14190 15f1 2C000000 		.4byte	.LVL14
 14191 15f5 34000000 		.4byte	.LVL16
 14192 15f9 0400     		.2byte	0x4
 14193 15fb F3       		.byte	0xf3
 14194 15fc 01       		.uleb128 0x1
 14195 15fd 50       		.byte	0x50
 14196 15fe 9F       		.byte	0x9f
 14197 15ff 34000000 		.4byte	.LVL16
 14198 1603 3A000000 		.4byte	.LVL17
 14199 1607 0100     		.2byte	0x1
 14200 1609 50       		.byte	0x50
 14201 160a 3A000000 		.4byte	.LVL17
 14202 160e 78000000 		.4byte	.LVL20
 14203 1612 0400     		.2byte	0x4
 14204 1614 F3       		.byte	0xf3
 14205 1615 01       		.uleb128 0x1
 14206 1616 50       		.byte	0x50
 14207 1617 9F       		.byte	0x9f
 14208 1618 78000000 		.4byte	.LVL20
 14209 161c 7C000000 		.4byte	.LVL21
 14210 1620 0100     		.2byte	0x1
 14211 1622 50       		.byte	0x50
 14212 1623 7C000000 		.4byte	.LVL21
 14213 1627 94000000 		.4byte	.LFE46
 14214 162b 0400     		.2byte	0x4
 14215 162d F3       		.byte	0xf3
 14216 162e 01       		.uleb128 0x1
 14217 162f 50       		.byte	0x50
 14218 1630 9F       		.byte	0x9f
 14219 1631 00000000 		.4byte	0
 14220 1635 00000000 		.4byte	0
 14221              	.LLST5:
 14222 1639 00000000 		.4byte	.LFB45
 14223 163d 04000000 		.4byte	.LCFI2
 14224 1641 0200     		.2byte	0x2
 14225 1643 7D       		.byte	0x7d
 14226 1644 00       		.sleb128 0
 14227 1645 04000000 		.4byte	.LCFI2
 14228 1649 24000000 		.4byte	.LFE45
 14229 164d 0200     		.2byte	0x2
 14230 164f 7D       		.byte	0x7d
 14231 1650 08       		.sleb128 8
 14232 1651 00000000 		.4byte	0
 14233 1655 00000000 		.4byte	0
 14234              	.LLST6:
 14235 1659 00000000 		.4byte	.LVL10
 14236 165d 1A000000 		.4byte	.LVL11
 14237 1661 0100     		.2byte	0x1
ARM GAS  C:\Users\EBANO_~1\AppData\Local\Temp\ccpYmjAB.s 			page 278


 14238 1663 50       		.byte	0x50
 14239 1664 1A000000 		.4byte	.LVL11
 14240 1668 24000000 		.4byte	.LFE45
 14241 166c 0400     		.2byte	0x4
 14242 166e F3       		.byte	0xf3
 14243 166f 01       		.uleb128 0x1
 14244 1670 50       		.byte	0x50
 14245 1671 9F       		.byte	0x9f
 14246 1672 00000000 		.4byte	0
 14247 1676 00000000 		.4byte	0
 14248              	.LLST0:
 14249 167a 00000000 		.4byte	.LFB44
 14250 167e 04000000 		.4byte	.LCFI0
 14251 1682 0200     		.2byte	0x2
 14252 1684 7D       		.byte	0x7d
 14253 1685 00       		.sleb128 0
 14254 1686 04000000 		.4byte	.LCFI0
 14255 168a 06000000 		.4byte	.LCFI1
 14256 168e 0200     		.2byte	0x2
 14257 1690 7D       		.byte	0x7d
 14258 1691 04       		.sleb128 4
 14259 1692 06000000 		.4byte	.LCFI1
 14260 1696 08010000 		.4byte	.LFE44
 14261 169a 0200     		.2byte	0x2
 14262 169c 7D       		.byte	0x7d
 14263 169d 10       		.sleb128 16
 14264 169e 00000000 		.4byte	0
 14265 16a2 00000000 		.4byte	0
 14266              	.LLST1:
 14267 16a6 00000000 		.4byte	.LVL0
 14268 16aa 1E000000 		.4byte	.LVL1
 14269 16ae 0100     		.2byte	0x1
 14270 16b0 50       		.byte	0x50
 14271 16b1 1E000000 		.4byte	.LVL1
 14272 16b5 24000000 		.4byte	.LVL2
 14273 16b9 0400     		.2byte	0x4
 14274 16bb F3       		.byte	0xf3
 14275 16bc 01       		.uleb128 0x1
 14276 16bd 50       		.byte	0x50
 14277 16be 9F       		.byte	0x9f
 14278 16bf 24000000 		.4byte	.LVL2
 14279 16c3 9C000000 		.4byte	.LVL7
 14280 16c7 0100     		.2byte	0x1
 14281 16c9 50       		.byte	0x50
 14282 16ca 9C000000 		.4byte	.LVL7
 14283 16ce AE000000 		.4byte	.LVL9
 14284 16d2 0400     		.2byte	0x4
 14285 16d4 F3       		.byte	0xf3
 14286 16d5 01       		.uleb128 0x1
 14287 16d6 50       		.byte	0x50
 14288 16d7 9F       		.byte	0x9f
 14289 16d8 AE000000 		.4byte	.LVL9
 14290 16dc 08010000 		.4byte	.LFE44
 14291 16e0 0100     		.2byte	0x1
 14292 16e2 50       		.byte	0x50
 14293 16e3 00000000 		.4byte	0
 14294 16e7 00000000 		.4byte	0
ARM GAS  C:\Users\EBANO_~1\AppData\Local\Temp\ccpYmjAB.s 			page 279


 14295              	.LLST2:
 14296 16eb 7C000000 		.4byte	.LVL3
 14297 16ef 86000000 		.4byte	.LVL6
 14298 16f3 0200     		.2byte	0x2
 14299 16f5 30       		.byte	0x30
 14300 16f6 9F       		.byte	0x9f
 14301 16f7 00000000 		.4byte	0
 14302 16fb 00000000 		.4byte	0
 14303              	.LLST3:
 14304 16ff 7C000000 		.4byte	.LVL3
 14305 1703 84000000 		.4byte	.LVL5
 14306 1707 0100     		.2byte	0x1
 14307 1709 53       		.byte	0x53
 14308 170a 84000000 		.4byte	.LVL5
 14309 170e 86000000 		.4byte	.LVL6
 14310 1712 0300     		.2byte	0x3
 14311 1714 73       		.byte	0x73
 14312 1715 01       		.sleb128 1
 14313 1716 9F       		.byte	0x9f
 14314 1717 00000000 		.4byte	0
 14315 171b 00000000 		.4byte	0
 14316              	.LLST4:
 14317 171f 7C000000 		.4byte	.LVL3
 14318 1723 82000000 		.4byte	.LVL4
 14319 1727 0200     		.2byte	0x2
 14320 1729 30       		.byte	0x30
 14321 172a 9F       		.byte	0x9f
 14322 172b 82000000 		.4byte	.LVL4
 14323 172f 84000000 		.4byte	.LVL5
 14324 1733 0300     		.2byte	0x3
 14325 1735 73       		.byte	0x73
 14326 1736 7F       		.sleb128 -1
 14327 1737 9F       		.byte	0x9f
 14328 1738 84000000 		.4byte	.LVL5
 14329 173c 86000000 		.4byte	.LVL6
 14330 1740 0300     		.2byte	0x3
 14331 1742 73       		.byte	0x73
 14332 1743 00       		.sleb128 0
 14333 1744 9F       		.byte	0x9f
 14334 1745 00000000 		.4byte	0
 14335 1749 00000000 		.4byte	0
 14336              	.LLST97:
 14337 174d 00000000 		.4byte	.LFB62
 14338 1751 02000000 		.4byte	.LCFI34
 14339 1755 0200     		.2byte	0x2
 14340 1757 7D       		.byte	0x7d
 14341 1758 00       		.sleb128 0
 14342 1759 02000000 		.4byte	.LCFI34
 14343 175d 06000000 		.4byte	.LCFI35
 14344 1761 0200     		.2byte	0x2
 14345 1763 7D       		.byte	0x7d
 14346 1764 14       		.sleb128 20
 14347 1765 06000000 		.4byte	.LCFI35
 14348 1769 D8000000 		.4byte	.LFE62
 14349 176d 0200     		.2byte	0x2
 14350 176f 7D       		.byte	0x7d
 14351 1770 20       		.sleb128 32
ARM GAS  C:\Users\EBANO_~1\AppData\Local\Temp\ccpYmjAB.s 			page 280


 14352 1771 00000000 		.4byte	0
 14353 1775 00000000 		.4byte	0
 14354              	.LLST98:
 14355 1779 00000000 		.4byte	.LVL290
 14356 177d 0E000000 		.4byte	.LVL292
 14357 1781 0100     		.2byte	0x1
 14358 1783 50       		.byte	0x50
 14359 1784 0E000000 		.4byte	.LVL292
 14360 1788 62000000 		.4byte	.LVL300
 14361 178c 0100     		.2byte	0x1
 14362 178e 54       		.byte	0x54
 14363 178f 62000000 		.4byte	.LVL300
 14364 1793 66000000 		.4byte	.LVL302
 14365 1797 0400     		.2byte	0x4
 14366 1799 F3       		.byte	0xf3
 14367 179a 01       		.uleb128 0x1
 14368 179b 50       		.byte	0x50
 14369 179c 9F       		.byte	0x9f
 14370 179d 66000000 		.4byte	.LVL302
 14371 17a1 A6000000 		.4byte	.LVL311
 14372 17a5 0100     		.2byte	0x1
 14373 17a7 54       		.byte	0x54
 14374 17a8 A6000000 		.4byte	.LVL311
 14375 17ac D8000000 		.4byte	.LFE62
 14376 17b0 0400     		.2byte	0x4
 14377 17b2 F3       		.byte	0xf3
 14378 17b3 01       		.uleb128 0x1
 14379 17b4 50       		.byte	0x50
 14380 17b5 9F       		.byte	0x9f
 14381 17b6 00000000 		.4byte	0
 14382 17ba 00000000 		.4byte	0
 14383              	.LLST99:
 14384 17be 00000000 		.4byte	.LVL290
 14385 17c2 24000000 		.4byte	.LVL294
 14386 17c6 0200     		.2byte	0x2
 14387 17c8 30       		.byte	0x30
 14388 17c9 9F       		.byte	0x9f
 14389 17ca 24000000 		.4byte	.LVL294
 14390 17ce 3A000000 		.4byte	.LVL296
 14391 17d2 0700     		.2byte	0x7
 14392 17d4 76       		.byte	0x76
 14393 17d5 00       		.sleb128 0
 14394 17d6 48       		.byte	0x48
 14395 17d7 24       		.byte	0x24
 14396 17d8 30       		.byte	0x30
 14397 17d9 29       		.byte	0x29
 14398 17da 9F       		.byte	0x9f
 14399 17db 3A000000 		.4byte	.LVL296
 14400 17df 62000000 		.4byte	.LVL300
 14401 17e3 0100     		.2byte	0x1
 14402 17e5 57       		.byte	0x57
 14403 17e6 66000000 		.4byte	.LVL302
 14404 17ea 7A000000 		.4byte	.LVL304
 14405 17ee 0200     		.2byte	0x2
 14406 17f0 31       		.byte	0x31
 14407 17f1 9F       		.byte	0x9f
 14408 17f2 7E000000 		.4byte	.LVL305
ARM GAS  C:\Users\EBANO_~1\AppData\Local\Temp\ccpYmjAB.s 			page 281


 14409 17f6 82000000 		.4byte	.LVL306
 14410 17fa 0700     		.2byte	0x7
 14411 17fc 76       		.byte	0x76
 14412 17fd 00       		.sleb128 0
 14413 17fe 48       		.byte	0x48
 14414 17ff 24       		.byte	0x24
 14415 1800 30       		.byte	0x30
 14416 1801 29       		.byte	0x29
 14417 1802 9F       		.byte	0x9f
 14418 1803 86000000 		.4byte	.LVL307
 14419 1807 9A000000 		.4byte	.LVL309
 14420 180b 0100     		.2byte	0x1
 14421 180d 57       		.byte	0x57
 14422 180e 9E000000 		.4byte	.LVL310
 14423 1812 D8000000 		.4byte	.LFE62
 14424 1816 0100     		.2byte	0x1
 14425 1818 57       		.byte	0x57
 14426 1819 00000000 		.4byte	0
 14427 181d 00000000 		.4byte	0
 14428              	.LLST100:
 14429 1821 00000000 		.4byte	.LVL290
 14430 1825 5C000000 		.4byte	.LVL299
 14431 1829 0200     		.2byte	0x2
 14432 182b 30       		.byte	0x30
 14433 182c 9F       		.byte	0x9f
 14434 182d 5C000000 		.4byte	.LVL299
 14435 1831 62000000 		.4byte	.LVL300
 14436 1835 0200     		.2byte	0x2
 14437 1837 31       		.byte	0x31
 14438 1838 9F       		.byte	0x9f
 14439 1839 66000000 		.4byte	.LVL302
 14440 183d 7A000000 		.4byte	.LVL304
 14441 1841 0200     		.2byte	0x2
 14442 1843 30       		.byte	0x30
 14443 1844 9F       		.byte	0x9f
 14444 1845 7E000000 		.4byte	.LVL305
 14445 1849 92000000 		.4byte	.LVL308
 14446 184d 0200     		.2byte	0x2
 14447 184f 30       		.byte	0x30
 14448 1850 9F       		.byte	0x9f
 14449 1851 92000000 		.4byte	.LVL308
 14450 1855 9A000000 		.4byte	.LVL309
 14451 1859 0200     		.2byte	0x2
 14452 185b 31       		.byte	0x31
 14453 185c 9F       		.byte	0x9f
 14454 185d 9A000000 		.4byte	.LVL309
 14455 1861 D8000000 		.4byte	.LFE62
 14456 1865 0200     		.2byte	0x2
 14457 1867 30       		.byte	0x30
 14458 1868 9F       		.byte	0x9f
 14459 1869 00000000 		.4byte	0
 14460 186d 00000000 		.4byte	0
 14461              	.LLST101:
 14462 1871 04000000 		.4byte	.LVL291
 14463 1875 64000000 		.4byte	.LVL301
 14464 1879 0100     		.2byte	0x1
 14465 187b 55       		.byte	0x55
ARM GAS  C:\Users\EBANO_~1\AppData\Local\Temp\ccpYmjAB.s 			page 282


 14466 187c 66000000 		.4byte	.LVL302
 14467 1880 D8000000 		.4byte	.LFE62
 14468 1884 0100     		.2byte	0x1
 14469 1886 55       		.byte	0x55
 14470 1887 00000000 		.4byte	0
 14471 188b 00000000 		.4byte	0
 14472              	.LLST102:
 14473 188f 54000000 		.4byte	.LVL297
 14474 1893 57000000 		.4byte	.LVL298-1
 14475 1897 0300     		.2byte	0x3
 14476 1899 74       		.byte	0x74
 14477 189a 00       		.sleb128 0
 14478 189b 06       		.byte	0x6
 14479 189c 66000000 		.4byte	.LVL302
 14480 18a0 69000000 		.4byte	.LVL303-1
 14481 18a4 0300     		.2byte	0x3
 14482 18a6 74       		.byte	0x74
 14483 18a7 00       		.sleb128 0
 14484 18a8 06       		.byte	0x6
 14485 18a9 00000000 		.4byte	0
 14486 18ad 00000000 		.4byte	0
 14487              	.LLST103:
 14488 18b1 00000000 		.4byte	.LFB63
 14489 18b5 02000000 		.4byte	.LCFI36
 14490 18b9 0200     		.2byte	0x2
 14491 18bb 7D       		.byte	0x7d
 14492 18bc 00       		.sleb128 0
 14493 18bd 02000000 		.4byte	.LCFI36
 14494 18c1 30000000 		.4byte	.LFE63
 14495 18c5 0200     		.2byte	0x2
 14496 18c7 7D       		.byte	0x7d
 14497 18c8 10       		.sleb128 16
 14498 18c9 00000000 		.4byte	0
 14499 18cd 00000000 		.4byte	0
 14500              	.LLST104:
 14501 18d1 00000000 		.4byte	.LVL313
 14502 18d5 06000000 		.4byte	.LVL315
 14503 18d9 0100     		.2byte	0x1
 14504 18db 50       		.byte	0x50
 14505 18dc 06000000 		.4byte	.LVL315
 14506 18e0 30000000 		.4byte	.LFE63
 14507 18e4 0400     		.2byte	0x4
 14508 18e6 F3       		.byte	0xf3
 14509 18e7 01       		.uleb128 0x1
 14510 18e8 50       		.byte	0x50
 14511 18e9 9F       		.byte	0x9f
 14512 18ea 00000000 		.4byte	0
 14513 18ee 00000000 		.4byte	0
 14514              	.LLST105:
 14515 18f2 04000000 		.4byte	.LVL314
 14516 18f6 28000000 		.4byte	.LVL318
 14517 18fa 0100     		.2byte	0x1
 14518 18fc 54       		.byte	0x54
 14519 18fd 00000000 		.4byte	0
 14520 1901 00000000 		.4byte	0
 14521              		.section	.debug_aranges,"",%progbits
 14522 0000 CC000000 		.4byte	0xcc
ARM GAS  C:\Users\EBANO_~1\AppData\Local\Temp\ccpYmjAB.s 			page 283


 14523 0004 0200     		.2byte	0x2
 14524 0006 00000000 		.4byte	.Ldebug_info0
 14525 000a 04       		.byte	0x4
 14526 000b 00       		.byte	0
 14527 000c 0000     		.2byte	0
 14528 000e 0000     		.2byte	0
 14529 0010 00000000 		.4byte	.LFB44
 14530 0014 08010000 		.4byte	.LFE44-.LFB44
 14531 0018 00000000 		.4byte	.LFB45
 14532 001c 24000000 		.4byte	.LFE45-.LFB45
 14533 0020 00000000 		.4byte	.LFB46
 14534 0024 94000000 		.4byte	.LFE46-.LFB46
 14535 0028 00000000 		.4byte	.LFB47
 14536 002c 0C000000 		.4byte	.LFE47-.LFB47
 14537 0030 00000000 		.4byte	.LFB48
 14538 0034 48000000 		.4byte	.LFE48-.LFB48
 14539 0038 00000000 		.4byte	.LFB49
 14540 003c 44010000 		.4byte	.LFE49-.LFB49
 14541 0040 00000000 		.4byte	.LFB50
 14542 0044 34000000 		.4byte	.LFE50-.LFB50
 14543 0048 00000000 		.4byte	.LFB51
 14544 004c 94000000 		.4byte	.LFE51-.LFB51
 14545 0050 00000000 		.4byte	.LFB52
 14546 0054 0C010000 		.4byte	.LFE52-.LFB52
 14547 0058 00000000 		.4byte	.LFB53
 14548 005c 3C010000 		.4byte	.LFE53-.LFB53
 14549 0060 00000000 		.4byte	.LFB54
 14550 0064 FC020000 		.4byte	.LFE54-.LFB54
 14551 0068 00000000 		.4byte	.LFB55
 14552 006c 64000000 		.4byte	.LFE55-.LFB55
 14553 0070 00000000 		.4byte	.LFB56
 14554 0074 08010000 		.4byte	.LFE56-.LFB56
 14555 0078 00000000 		.4byte	.LFB57
 14556 007c 06000000 		.4byte	.LFE57-.LFB57
 14557 0080 00000000 		.4byte	.LFB58
 14558 0084 70000000 		.4byte	.LFE58-.LFB58
 14559 0088 00000000 		.4byte	.LFB59
 14560 008c 02000000 		.4byte	.LFE59-.LFB59
 14561 0090 00000000 		.4byte	.LFB60
 14562 0094 34000000 		.4byte	.LFE60-.LFB60
 14563 0098 00000000 		.4byte	.LFB61
 14564 009c BC010000 		.4byte	.LFE61-.LFB61
 14565 00a0 00000000 		.4byte	.LFB62
 14566 00a4 D8000000 		.4byte	.LFE62-.LFB62
 14567 00a8 00000000 		.4byte	.LFB63
 14568 00ac 30000000 		.4byte	.LFE63-.LFB63
 14569 00b0 00000000 		.4byte	.LFB64
 14570 00b4 50000000 		.4byte	.LFE64-.LFB64
 14571 00b8 00000000 		.4byte	.LFB65
 14572 00bc 0E000000 		.4byte	.LFE65-.LFB65
 14573 00c0 00000000 		.4byte	.LFB66
 14574 00c4 38000000 		.4byte	.LFE66-.LFB66
 14575 00c8 00000000 		.4byte	0
 14576 00cc 00000000 		.4byte	0
 14577              		.section	.debug_ranges,"",%progbits
 14578              	.Ldebug_ranges0:
 14579 0000 32000000 		.4byte	.LBB31
ARM GAS  C:\Users\EBANO_~1\AppData\Local\Temp\ccpYmjAB.s 			page 284


 14580 0004 34000000 		.4byte	.LBE31
 14581 0008 36000000 		.4byte	.LBB46
 14582 000c 3A000000 		.4byte	.LBE46
 14583 0010 40000000 		.4byte	.LBB47
 14584 0014 44010000 		.4byte	.LBE47
 14585 0018 00000000 		.4byte	0
 14586 001c 00000000 		.4byte	0
 14587 0020 32000000 		.4byte	.LBB32
 14588 0024 34000000 		.4byte	.LBE32
 14589 0028 36000000 		.4byte	.LBB36
 14590 002c 3A000000 		.4byte	.LBE36
 14591 0030 48000000 		.4byte	.LBB37
 14592 0034 66000000 		.4byte	.LBE37
 14593 0038 00000000 		.4byte	0
 14594 003c 00000000 		.4byte	0
 14595 0040 D0000000 		.4byte	.LBB40
 14596 0044 D4000000 		.4byte	.LBE40
 14597 0048 E2000000 		.4byte	.LBB44
 14598 004c F4000000 		.4byte	.LBE44
 14599 0050 2A010000 		.4byte	.LBB45
 14600 0054 44010000 		.4byte	.LBE45
 14601 0058 00000000 		.4byte	0
 14602 005c 00000000 		.4byte	0
 14603 0060 18000000 		.4byte	.LBB48
 14604 0064 1C000000 		.4byte	.LBE48
 14605 0068 1E000000 		.4byte	.LBB52
 14606 006c 32000000 		.4byte	.LBE52
 14607 0070 70000000 		.4byte	.LBB53
 14608 0074 72000000 		.4byte	.LBE53
 14609 0078 00000000 		.4byte	0
 14610 007c 00000000 		.4byte	0
 14611 0080 28000000 		.4byte	.LBB54
 14612 0084 2A000000 		.4byte	.LBE54
 14613 0088 2C000000 		.4byte	.LBB60
 14614 008c 30000000 		.4byte	.LBE60
 14615 0090 34000000 		.4byte	.LBB61
 14616 0094 36000000 		.4byte	.LBE61
 14617 0098 3C000000 		.4byte	.LBB62
 14618 009c 4A000000 		.4byte	.LBE62
 14619 00a0 4C000000 		.4byte	.LBB67
 14620 00a4 4E000000 		.4byte	.LBE67
 14621 00a8 00000000 		.4byte	0
 14622 00ac 00000000 		.4byte	0
 14623 00b0 4A000000 		.4byte	.LBB63
 14624 00b4 4C000000 		.4byte	.LBE63
 14625 00b8 4E000000 		.4byte	.LBB68
 14626 00bc 64000000 		.4byte	.LBE68
 14627 00c0 E4000000 		.4byte	.LBB69
 14628 00c4 EA000000 		.4byte	.LBE69
 14629 00c8 00000000 		.4byte	0
 14630 00cc 00000000 		.4byte	0
 14631 00d0 22000000 		.4byte	.LBB75
 14632 00d4 28000000 		.4byte	.LBE75
 14633 00d8 5C000000 		.4byte	.LBB76
 14634 00dc 50010000 		.4byte	.LBE76
 14635 00e0 E6010000 		.4byte	.LBB77
 14636 00e4 D2020000 		.4byte	.LBE77
ARM GAS  C:\Users\EBANO_~1\AppData\Local\Temp\ccpYmjAB.s 			page 285


 14637 00e8 E8020000 		.4byte	.LBB78
 14638 00ec FC020000 		.4byte	.LBE78
 14639 00f0 00000000 		.4byte	0
 14640 00f4 00000000 		.4byte	0
 14641 00f8 02000000 		.4byte	.LBB79
 14642 00fc 04000000 		.4byte	.LBE79
 14643 0100 06000000 		.4byte	.LBB84
 14644 0104 08000000 		.4byte	.LBE84
 14645 0108 0C000000 		.4byte	.LBB85
 14646 010c 24000000 		.4byte	.LBE85
 14647 0110 52000000 		.4byte	.LBB86
 14648 0114 54000000 		.4byte	.LBE86
 14649 0118 00000000 		.4byte	0
 14650 011c 00000000 		.4byte	0
 14651 0120 12000000 		.4byte	.LBB93
 14652 0124 16000000 		.4byte	.LBE93
 14653 0128 AC000000 		.4byte	.LBB108
 14654 012c CC000000 		.4byte	.LBE108
 14655 0130 00000000 		.4byte	0
 14656 0134 00000000 		.4byte	0
 14657 0138 20000000 		.4byte	.LBB96
 14658 013c A2000000 		.4byte	.LBE96
 14659 0140 A4000000 		.4byte	.LBB107
 14660 0144 AA000000 		.4byte	.LBE107
 14661 0148 D4000000 		.4byte	.LBB109
 14662 014c D8000000 		.4byte	.LBE109
 14663 0150 DC000000 		.4byte	.LBB110
 14664 0154 F2000000 		.4byte	.LBE110
 14665 0158 00000000 		.4byte	0
 14666 015c 00000000 		.4byte	0
 14667 0160 56000000 		.4byte	.LBB98
 14668 0164 5A000000 		.4byte	.LBE98
 14669 0168 68000000 		.4byte	.LBB102
 14670 016c 7C000000 		.4byte	.LBE102
 14671 0170 DC000000 		.4byte	.LBB103
 14672 0174 F2000000 		.4byte	.LBE103
 14673 0178 00000000 		.4byte	0
 14674 017c 00000000 		.4byte	0
 14675 0180 02000000 		.4byte	.LBB111
 14676 0184 04000000 		.4byte	.LBE111
 14677 0188 06000000 		.4byte	.LBB115
 14678 018c 08000000 		.4byte	.LBE115
 14679 0190 0C000000 		.4byte	.LBB116
 14680 0194 2E000000 		.4byte	.LBE116
 14681 0198 00000000 		.4byte	0
 14682 019c 00000000 		.4byte	0
 14683 01a0 6A000000 		.4byte	.LBB121
 14684 01a4 70000000 		.4byte	.LBE121
 14685 01a8 74000000 		.4byte	.LBB134
 14686 01ac E2000000 		.4byte	.LBE134
 14687 01b0 24010000 		.4byte	.LBB135
 14688 01b4 34010000 		.4byte	.LBE135
 14689 01b8 38010000 		.4byte	.LBB136
 14690 01bc 98010000 		.4byte	.LBE136
 14691 01c0 00000000 		.4byte	0
 14692 01c4 00000000 		.4byte	0
 14693 01c8 6E000000 		.4byte	.LBB123
ARM GAS  C:\Users\EBANO_~1\AppData\Local\Temp\ccpYmjAB.s 			page 286


 14694 01cc 70000000 		.4byte	.LBE123
 14695 01d0 74000000 		.4byte	.LBB128
 14696 01d4 E2000000 		.4byte	.LBE128
 14697 01d8 2C010000 		.4byte	.LBB129
 14698 01dc 34010000 		.4byte	.LBE129
 14699 01e0 38010000 		.4byte	.LBB130
 14700 01e4 98010000 		.4byte	.LBE130
 14701 01e8 00000000 		.4byte	0
 14702 01ec 00000000 		.4byte	0
 14703 01f0 4E000000 		.4byte	.LBB137
 14704 01f4 50000000 		.4byte	.LBE137
 14705 01f8 54000000 		.4byte	.LBB142
 14706 01fc 5C000000 		.4byte	.LBE142
 14707 0200 66000000 		.4byte	.LBB143
 14708 0204 7A000000 		.4byte	.LBE143
 14709 0208 86000000 		.4byte	.LBB144
 14710 020c 92000000 		.4byte	.LBE144
 14711 0210 00000000 		.4byte	0
 14712 0214 00000000 		.4byte	0
 14713 0218 14000000 		.4byte	.LBB145
 14714 021c 16000000 		.4byte	.LBE145
 14715 0220 1C000000 		.4byte	.LBB149
 14716 0224 24000000 		.4byte	.LBE149
 14717 0228 2A000000 		.4byte	.LBB150
 14718 022c 30000000 		.4byte	.LBE150
 14719 0230 00000000 		.4byte	0
 14720 0234 00000000 		.4byte	0
 14721 0238 00000000 		.4byte	.LFB44
 14722 023c 08010000 		.4byte	.LFE44
 14723 0240 00000000 		.4byte	.LFB45
 14724 0244 24000000 		.4byte	.LFE45
 14725 0248 00000000 		.4byte	.LFB46
 14726 024c 94000000 		.4byte	.LFE46
 14727 0250 00000000 		.4byte	.LFB47
 14728 0254 0C000000 		.4byte	.LFE47
 14729 0258 00000000 		.4byte	.LFB48
 14730 025c 48000000 		.4byte	.LFE48
 14731 0260 00000000 		.4byte	.LFB49
 14732 0264 44010000 		.4byte	.LFE49
 14733 0268 00000000 		.4byte	.LFB50
 14734 026c 34000000 		.4byte	.LFE50
 14735 0270 00000000 		.4byte	.LFB51
 14736 0274 94000000 		.4byte	.LFE51
 14737 0278 00000000 		.4byte	.LFB52
 14738 027c 0C010000 		.4byte	.LFE52
 14739 0280 00000000 		.4byte	.LFB53
 14740 0284 3C010000 		.4byte	.LFE53
 14741 0288 00000000 		.4byte	.LFB54
 14742 028c FC020000 		.4byte	.LFE54
 14743 0290 00000000 		.4byte	.LFB55
 14744 0294 64000000 		.4byte	.LFE55
 14745 0298 00000000 		.4byte	.LFB56
 14746 029c 08010000 		.4byte	.LFE56
 14747 02a0 00000000 		.4byte	.LFB57
 14748 02a4 06000000 		.4byte	.LFE57
 14749 02a8 00000000 		.4byte	.LFB58
 14750 02ac 70000000 		.4byte	.LFE58
ARM GAS  C:\Users\EBANO_~1\AppData\Local\Temp\ccpYmjAB.s 			page 287


 14751 02b0 00000000 		.4byte	.LFB59
 14752 02b4 02000000 		.4byte	.LFE59
 14753 02b8 00000000 		.4byte	.LFB60
 14754 02bc 34000000 		.4byte	.LFE60
 14755 02c0 00000000 		.4byte	.LFB61
 14756 02c4 BC010000 		.4byte	.LFE61
 14757 02c8 00000000 		.4byte	.LFB62
 14758 02cc D8000000 		.4byte	.LFE62
 14759 02d0 00000000 		.4byte	.LFB63
 14760 02d4 30000000 		.4byte	.LFE63
 14761 02d8 00000000 		.4byte	.LFB64
 14762 02dc 50000000 		.4byte	.LFE64
 14763 02e0 00000000 		.4byte	.LFB65
 14764 02e4 0E000000 		.4byte	.LFE65
 14765 02e8 00000000 		.4byte	.LFB66
 14766 02ec 38000000 		.4byte	.LFE66
 14767 02f0 00000000 		.4byte	0
 14768 02f4 00000000 		.4byte	0
 14769              		.section	.debug_line,"",%progbits
 14770              	.Ldebug_line0:
 14771 0000 2D090000 		.section	.debug_str,"MS",%progbits,1
 14771      0200B303 
 14771      00000201 
 14771      FB0E0D00 
 14771      01010101 
 14772              	.LASF216:
 14773 0000 52585F53 		.ascii	"RX_SLOT_WIN_CLASS_C\000"
 14773      4C4F545F 
 14773      57494E5F 
 14773      434C4153 
 14773      535F4300 
 14774              	.LASF415:
 14775 0014 73526567 		.ascii	"sRegionCommonLinkAdrReqVerifyParams\000"
 14775      696F6E43 
 14775      6F6D6D6F 
 14775      6E4C696E 
 14775      6B416472 
 14776              	.LASF266:
 14777 0038 5048595F 		.ascii	"PHY_JOIN_ACCEPT_DELAY1\000"
 14777      4A4F494E 
 14777      5F414343 
 14777      4550545F 
 14777      44454C41 
 14778              	.LASF267:
 14779 004f 5048595F 		.ascii	"PHY_JOIN_ACCEPT_DELAY2\000"
 14779      4A4F494E 
 14779      5F414343 
 14779      4550545F 
 14779      44454C41 
 14780              	.LASF313:
 14781 0066 52667531 		.ascii	"Rfu1Size\000"
 14781      53697A65 
 14781      00
 14782              	.LASF141:
 14783 006f 52657669 		.ascii	"Revision\000"
 14783      73696F6E 
 14783      00
ARM GAS  C:\Users\EBANO_~1\AppData\Local\Temp\ccpYmjAB.s 			page 288


 14784              	.LASF427:
 14785 0078 44617461 		.ascii	"Datarates\000"
 14785      72617465 
 14785      7300
 14786              	.LASF524:
 14787 0082 52656769 		.ascii	"RegionEU433SetBandTxDone\000"
 14787      6F6E4555 
 14787      34333353 
 14787      65744261 
 14787      6E645478 
 14788              	.LASF1:
 14789 009b 5F5F7569 		.ascii	"__uint8_t\000"
 14789      6E74385F 
 14789      7400
 14790              	.LASF311:
 14791 00a5 73426561 		.ascii	"sBeaconFormat\000"
 14791      636F6E46 
 14791      6F726D61 
 14791      7400
 14792              	.LASF361:
 14793 00b3 5278436F 		.ascii	"RxConfigParams_t\000"
 14793      6E666967 
 14793      50617261 
 14793      6D735F74 
 14793      00
 14794              	.LASF147:
 14795 00c4 5F426F6F 		.ascii	"_Bool\000"
 14795      6C00
 14796              	.LASF79:
 14797 00ca 5F6D6273 		.ascii	"_mbstate\000"
 14797      74617465 
 14797      00
 14798              	.LASF512:
 14799 00d3 6368616E 		.ascii	"chanMaskSet\000"
 14799      4D61736B 
 14799      53657400 
 14800              	.LASF58:
 14801 00df 5F617465 		.ascii	"_atexit\000"
 14801      78697400 
 14802              	.LASF296:
 14803 00e7 5048595F 		.ascii	"PHY_BEACON_FORMAT\000"
 14803      42454143 
 14803      4F4E5F46 
 14803      4F524D41 
 14803      5400
 14804              	.LASF473:
 14805 00f9 52656769 		.ascii	"RegionEU433DlChannelReq\000"
 14805      6F6E4555 
 14805      34333344 
 14805      6C436861 
 14805      6E6E656C 
 14806              	.LASF517:
 14807 0111 52656769 		.ascii	"RegionEU433Verify\000"
 14807      6F6E4555 
 14807      34333356 
 14807      65726966 
 14807      7900
ARM GAS  C:\Users\EBANO_~1\AppData\Local\Temp\ccpYmjAB.s 			page 289


 14808              	.LASF486:
 14809 0123 6E625265 		.ascii	"nbRepOut\000"
 14809      704F7574 
 14809      00
 14810              	.LASF48:
 14811 012c 5F5F746D 		.ascii	"__tm_mon\000"
 14811      5F6D6F6E 
 14811      00
 14812              	.LASF56:
 14813 0135 5F666E74 		.ascii	"_fntypes\000"
 14813      79706573 
 14813      00
 14814              	.LASF86:
 14815 013e 5F696E63 		.ascii	"_inc\000"
 14815      00
 14816              	.LASF59:
 14817 0143 5F696E64 		.ascii	"_ind\000"
 14817      00
 14818              	.LASF195:
 14819 0148 57726974 		.ascii	"WriteBuffer\000"
 14819      65427566 
 14819      66657200 
 14820              	.LASF170:
 14821 0154 52784572 		.ascii	"RxError\000"
 14821      726F7200 
 14822              	.LASF18:
 14823 015c 75696E74 		.ascii	"uint16_t\000"
 14823      31365F74 
 14823      00
 14824              	.LASF476:
 14825 0165 52656769 		.ascii	"RegionEU433TxParamSetupReq\000"
 14825      6F6E4555 
 14825      34333354 
 14825      78506172 
 14825      616D5365 
 14826              	.LASF196:
 14827 0180 52656164 		.ascii	"ReadBuffer\000"
 14827      42756666 
 14827      657200
 14828              	.LASF430:
 14829 018b 52656769 		.ascii	"RegionCommonRxBeaconSetupParams_t\000"
 14829      6F6E436F 
 14829      6D6D6F6E 
 14829      52784265 
 14829      61636F6E 
 14830              	.LASF65:
 14831 01ad 5F666C61 		.ascii	"_flags\000"
 14831      677300
 14832              	.LASF310:
 14833 01b4 4368616E 		.ascii	"ChannelsMask_t\000"
 14833      6E656C73 
 14833      4D61736B 
 14833      5F7400
 14834              	.LASF96:
 14835 01c3 5F637674 		.ascii	"_cvtlen\000"
 14835      6C656E00 
 14836              	.LASF230:
ARM GAS  C:\Users\EBANO_~1\AppData\Local\Temp\ccpYmjAB.s 			page 290


 14837 01cb 4C4F5241 		.ascii	"LORAMAC_STATUS_NO_NETWORK_JOINED\000"
 14837      4D41435F 
 14837      53544154 
 14837      55535F4E 
 14837      4F5F4E45 
 14838              	.LASF100:
 14839 01ec 5F736967 		.ascii	"_sig_func\000"
 14839      5F66756E 
 14839      6300
 14840              	.LASF478:
 14841 01f6 52656769 		.ascii	"RegionEU433NewChannelReq\000"
 14841      6F6E4555 
 14841      3433334E 
 14841      65774368 
 14841      616E6E65 
 14842              	.LASF370:
 14843 020f 41647245 		.ascii	"AdrEnabled\000"
 14843      6E61626C 
 14843      656400
 14844              	.LASF283:
 14845 021a 5048595F 		.ascii	"PHY_BEACON_RESERVED\000"
 14845      42454143 
 14845      4F4E5F52 
 14845      45534552 
 14845      56454400 
 14846              	.LASF393:
 14847 022e 54785469 		.ascii	"TxTimeOnAir\000"
 14847      6D654F6E 
 14847      41697200 
 14848              	.LASF78:
 14849 023a 5F6C6F63 		.ascii	"_lock\000"
 14849      6B00
 14850              	.LASF74:
 14851 0240 5F6E6275 		.ascii	"_nbuf\000"
 14851      6600
 14852              	.LASF133:
 14853 0246 5F756E75 		.ascii	"_unused\000"
 14853      73656400 
 14854              	.LASF548:
 14855 024e 72616E64 		.ascii	"randr\000"
 14855      7200
 14856              	.LASF397:
 14857 0254 4C617374 		.ascii	"LastAggrTx\000"
 14857      41676772 
 14857      547800
 14858              	.LASF398:
 14859 025f 4E657874 		.ascii	"NextChanParams_t\000"
 14859      4368616E 
 14859      50617261 
 14859      6D735F74 
 14859      00
 14860              	.LASF169:
 14861 0270 52785469 		.ascii	"RxTimeout\000"
 14861      6D656F75 
 14861      7400
 14862              	.LASF301:
 14863 027a 50687941 		.ascii	"PhyAttribute_t\000"
ARM GAS  C:\Users\EBANO_~1\AppData\Local\Temp\ccpYmjAB.s 			page 291


 14863      74747269 
 14863      62757465 
 14863      5F7400
 14864              	.LASF167:
 14865 0289 54785469 		.ascii	"TxTimeout\000"
 14865      6D656F75 
 14865      7400
 14866              	.LASF149:
 14867 0293 44437963 		.ascii	"DCycle\000"
 14867      6C6500
 14868              	.LASF355:
 14869 029a 44724F66 		.ascii	"DrOffset\000"
 14869      66736574 
 14869      00
 14870              	.LASF284:
 14871 02a3 5048595F 		.ascii	"PHY_BEACON_GUARD\000"
 14871      42454143 
 14871      4F4E5F47 
 14871      55415244 
 14871      00
 14872              	.LASF343:
 14873 02b4 44617461 		.ascii	"DatarateParams\000"
 14873      72617465 
 14873      50617261 
 14873      6D7300
 14874              	.LASF142:
 14875 02c3 4D696E6F 		.ascii	"Minor\000"
 14875      7200
 14876              	.LASF420:
 14877 02c9 4D696E54 		.ascii	"MinTxPower\000"
 14877      78506F77 
 14877      657200
 14878              	.LASF479:
 14879 02d4 6E657743 		.ascii	"newChannelReq\000"
 14879      68616E6E 
 14879      656C5265 
 14879      7100
 14880              	.LASF154:
 14881 02e2 42616E64 		.ascii	"Band_t\000"
 14881      5F7400
 14882              	.LASF396:
 14883 02e9 41676772 		.ascii	"AggrTimeOff\000"
 14883      54696D65 
 14883      4F666600 
 14884              	.LASF19:
 14885 02f5 696E7433 		.ascii	"int32_t\000"
 14885      325F7400 
 14886              	.LASF111:
 14887 02fd 5F616464 		.ascii	"_add\000"
 14887      00
 14888              	.LASF481:
 14889 0302 72785061 		.ascii	"rxParamSetupReq\000"
 14889      72616D53 
 14889      65747570 
 14889      52657100 
 14890              	.LASF161:
 14891 0312 52465F49 		.ascii	"RF_IDLE\000"
ARM GAS  C:\Users\EBANO_~1\AppData\Local\Temp\ccpYmjAB.s 			page 292


 14891      444C4500 
 14892              	.LASF150:
 14893 031a 54784D61 		.ascii	"TxMaxPower\000"
 14893      78506F77 
 14893      657200
 14894              	.LASF240:
 14895 0325 4C4F5241 		.ascii	"LORAMAC_STATUS_CRYPTO_ERROR\000"
 14895      4D41435F 
 14895      53544154 
 14895      55535F43 
 14895      52595054 
 14896              	.LASF379:
 14897 0341 4368616E 		.ascii	"ChannelId\000"
 14897      6E656C49 
 14897      6400
 14898              	.LASF375:
 14899 034b 73527850 		.ascii	"sRxParamSetupReqParams\000"
 14899      6172616D 
 14899      53657475 
 14899      70526571 
 14899      50617261 
 14900              	.LASF518:
 14901 0362 76657269 		.ascii	"verify\000"
 14901      667900
 14902              	.LASF564:
 14903 0369 5F5F6275 		.ascii	"__builtin_memset\000"
 14903      696C7469 
 14903      6E5F6D65 
 14903      6D736574 
 14903      00
 14904              	.LASF67:
 14905 037a 5F6C6266 		.ascii	"_lbfsize\000"
 14905      73697A65 
 14905      00
 14906              	.LASF258:
 14907 0383 5048595F 		.ascii	"PHY_DEF_ADR_ACK_LIMIT\000"
 14907      4445465F 
 14907      4144525F 
 14907      41434B5F 
 14907      4C494D49 
 14908              	.LASF174:
 14909 0399 52616469 		.ascii	"Radio_s\000"
 14909      6F5F7300 
 14910              	.LASF551:
 14911 03a1 6D656D63 		.ascii	"memcpy1\000"
 14911      70793100 
 14912              	.LASF376:
 14913 03a9 52785061 		.ascii	"RxParamSetupReqParams_t\000"
 14913      72616D53 
 14913      65747570 
 14913      52657150 
 14913      6172616D 
 14914              	.LASF516:
 14915 03c1 6368616E 		.ascii	"chanIdx\000"
 14915      49647800 
 14916              	.LASF77:
 14917 03c9 5F646174 		.ascii	"_data\000"
ARM GAS  C:\Users\EBANO_~1\AppData\Local\Temp\ccpYmjAB.s 			page 293


 14917      6100
 14918              	.LASF536:
 14919 03cf 7478506F 		.ascii	"txPowerResult\000"
 14919      77657252 
 14919      6573756C 
 14919      7400
 14920              	.LASF426:
 14921 03dd 73526567 		.ascii	"sRegionCommonRxBeaconSetupParams\000"
 14921      696F6E43 
 14921      6F6D6D6F 
 14921      6E527842 
 14921      6561636F 
 14922              	.LASF312:
 14923 03fe 42656163 		.ascii	"BeaconSize\000"
 14923      6F6E5369 
 14923      7A6500
 14924              	.LASF197:
 14925 0409 5365744D 		.ascii	"SetMaxPayloadLength\000"
 14925      61785061 
 14925      796C6F61 
 14925      644C656E 
 14925      67746800 
 14926              	.LASF363:
 14927 041d 4D617845 		.ascii	"MaxEirp\000"
 14927      69727000 
 14928              	.LASF533:
 14929 0425 66726571 		.ascii	"freq\000"
 14929      00
 14930              	.LASF156:
 14931 042a 5F646179 		.ascii	"_daylight\000"
 14931      6C696768 
 14931      7400
 14932              	.LASF418:
 14933 0434 4D696E44 		.ascii	"MinDatarate\000"
 14933      61746172 
 14933      61746500 
 14934              	.LASF222:
 14935 0440 654C6F52 		.ascii	"eLoRaMacStatus\000"
 14935      614D6163 
 14935      53746174 
 14935      757300
 14936              	.LASF493:
 14937 044f 70687950 		.ascii	"phyParam\000"
 14937      6172616D 
 14937      00
 14938              	.LASF134:
 14939 0458 5F5F6C6F 		.ascii	"__lock\000"
 14939      636B00
 14940              	.LASF81:
 14941 045f 5F726565 		.ascii	"_reent\000"
 14941      6E7400
 14942              	.LASF234:
 14943 0466 4C4F5241 		.ascii	"LORAMAC_STATUS_DUTYCYCLE_RESTRICTED\000"
 14943      4D41435F 
 14943      53544154 
 14943      55535F44 
 14943      55545943 
ARM GAS  C:\Users\EBANO_~1\AppData\Local\Temp\ccpYmjAB.s 			page 294


 14944              	.LASF327:
 14945 048a 47657450 		.ascii	"GetPhyParams_t\000"
 14945      68795061 
 14945      72616D73 
 14945      5F7400
 14946              	.LASF189:
 14947 0499 5374616E 		.ascii	"Standby\000"
 14947      64627900 
 14948              	.LASF500:
 14949 04a1 70687944 		.ascii	"phyDr\000"
 14949      7200
 14950              	.LASF411:
 14951 04a7 4E625265 		.ascii	"NbRep\000"
 14951      7000
 14952              	.LASF102:
 14953 04ad 5F5F7366 		.ascii	"__sf\000"
 14953      00
 14954              	.LASF62:
 14955 04b2 5F626173 		.ascii	"_base\000"
 14955      6500
 14956              	.LASF193:
 14957 04b8 57726974 		.ascii	"Write\000"
 14957      6500
 14958              	.LASF120:
 14959 04be 5F6D6274 		.ascii	"_mbtowc_state\000"
 14959      6F77635F 
 14959      73746174 
 14959      6500
 14960              	.LASF306:
 14961 04cc 496E6974 		.ascii	"InitType_t\000"
 14961      54797065 
 14961      5F7400
 14962              	.LASF444:
 14963 04d7 64617461 		.ascii	"datarate\000"
 14963      72617465 
 14963      00
 14964              	.LASF421:
 14965 04e0 4D617854 		.ascii	"MaxTxPower\000"
 14965      78506F77 
 14965      657200
 14966              	.LASF152:
 14967 04eb 4C617374 		.ascii	"LastTxDoneTime\000"
 14967      5478446F 
 14967      6E655469 
 14967      6D6500
 14968              	.LASF194:
 14969 04fa 52656164 		.ascii	"Read\000"
 14969      00
 14970              	.LASF43:
 14971 04ff 5F5F746D 		.ascii	"__tm\000"
 14971      00
 14972              	.LASF552:
 14973 0504 52656769 		.ascii	"RegionCommonParseLinkAdrReq\000"
 14973      6F6E436F 
 14973      6D6D6F6E 
 14973      50617273 
 14973      654C696E 
ARM GAS  C:\Users\EBANO_~1\AppData\Local\Temp\ccpYmjAB.s 			page 295


 14974              	.LASF51:
 14975 0520 5F5F746D 		.ascii	"__tm_yday\000"
 14975      5F796461 
 14975      7900
 14976              	.LASF525:
 14977 052a 7478446F 		.ascii	"txDone\000"
 14977      6E6500
 14978              	.LASF254:
 14979 0531 5048595F 		.ascii	"PHY_RX_DR\000"
 14979      52585F44 
 14979      5200
 14980              	.LASF472:
 14981 053b 74797065 		.ascii	"type\000"
 14981      00
 14982              	.LASF399:
 14983 0540 73436861 		.ascii	"sChannelAddParams\000"
 14983      6E6E656C 
 14983      41646450 
 14983      6172616D 
 14983      7300
 14984              	.LASF27:
 14985 0552 5F4C4F43 		.ascii	"_LOCK_T\000"
 14985      4B5F5400 
 14986              	.LASF211:
 14987 055a 44725261 		.ascii	"DrRange\000"
 14987      6E676500 
 14988              	.LASF292:
 14989 0562 5048595F 		.ascii	"PHY_PING_SLOT_SYMBOL_TO_EXPANSION_FACTOR\000"
 14989      50494E47 
 14989      5F534C4F 
 14989      545F5359 
 14989      4D424F4C 
 14990              	.LASF201:
 14991 058b 5278426F 		.ascii	"RxBoosted\000"
 14991      6F737465 
 14991      6400
 14992              	.LASF4:
 14993 0595 5F5F696E 		.ascii	"__int16_t\000"
 14993      7431365F 
 14993      7400
 14994              	.LASF514:
 14995 059f 6170706C 		.ascii	"applyCFList\000"
 14995      7943464C 
 14995      69737400 
 14996              	.LASF6:
 14997 05ab 5F5F7569 		.ascii	"__uint16_t\000"
 14997      6E743136 
 14997      5F7400
 14998              	.LASF270:
 14999 05b6 5048595F 		.ascii	"PHY_DEF_DR1_OFFSET\000"
 14999      4445465F 
 14999      4452315F 
 14999      4F464653 
 14999      455400
 15000              	.LASF112:
 15001 05c9 5F756E75 		.ascii	"_unused_rand\000"
 15001      7365645F 
ARM GAS  C:\Users\EBANO_~1\AppData\Local\Temp\ccpYmjAB.s 			page 296


 15001      72616E64 
 15001      00
 15002              	.LASF339:
 15003 05d6 73446174 		.ascii	"sDatarateParams\000"
 15003      61726174 
 15003      65506172 
 15003      616D7300 
 15004              	.LASF274:
 15005 05e6 5048595F 		.ascii	"PHY_CHANNELS_DEFAULT_MASK\000"
 15005      4348414E 
 15005      4E454C53 
 15005      5F444546 
 15005      41554C54 
 15006              	.LASF447:
 15007 0600 636F6E74 		.ascii	"continuousWave\000"
 15007      696E756F 
 15007      75735761 
 15007      766500
 15008              	.LASF446:
 15009 060f 52656769 		.ascii	"RegionEU433SetContinuousWave\000"
 15009      6F6E4555 
 15009      34333353 
 15009      6574436F 
 15009      6E74696E 
 15010              	.LASF406:
 15011 062c 73527842 		.ascii	"sRxBeaconSetupParams\000"
 15011      6561636F 
 15011      6E536574 
 15011      75705061 
 15011      72616D73 
 15012              	.LASF357:
 15013 0641 57696E64 		.ascii	"WindowOffset\000"
 15013      6F774F66 
 15013      66736574 
 15013      00
 15014              	.LASF285:
 15015 064e 5048595F 		.ascii	"PHY_BEACON_WINDOW\000"
 15015      42454143 
 15015      4F4E5F57 
 15015      494E444F 
 15015      5700
 15016              	.LASF93:
 15017 0660 5F726573 		.ascii	"_result_k\000"
 15017      756C745F 
 15017      6B00
 15018              	.LASF85:
 15019 066a 5F737464 		.ascii	"_stderr\000"
 15019      65727200 
 15020              	.LASF92:
 15021 0672 5F726573 		.ascii	"_result\000"
 15021      756C7400 
 15022              	.LASF428:
 15023 067a 42656163 		.ascii	"BeaconDatarate\000"
 15023      6F6E4461 
 15023      74617261 
 15023      746500
 15024              	.LASF55:
ARM GAS  C:\Users\EBANO_~1\AppData\Local\Temp\ccpYmjAB.s 			page 297


 15025 0689 5F64736F 		.ascii	"_dso_handle\000"
 15025      5F68616E 
 15025      646C6500 
 15026              	.LASF389:
 15027 0695 7343616C 		.ascii	"sCalcBackOffParams\000"
 15027      63426163 
 15027      6B4F6666 
 15027      50617261 
 15027      6D7300
 15028              	.LASF50:
 15029 06a8 5F5F746D 		.ascii	"__tm_wday\000"
 15029      5F776461 
 15029      7900
 15030              	.LASF52:
 15031 06b2 5F5F746D 		.ascii	"__tm_isdst\000"
 15031      5F697364 
 15031      737400
 15032              	.LASF464:
 15033 06bd 64656C61 		.ascii	"delayTx\000"
 15033      79547800 
 15034              	.LASF558:
 15035 06c5 52656769 		.ascii	"RegionCommonChanMaskCopy\000"
 15035      6F6E436F 
 15035      6D6D6F6E 
 15035      4368616E 
 15035      4D61736B 
 15036              	.LASF231:
 15037 06de 4C4F5241 		.ascii	"LORAMAC_STATUS_LENGTH_ERROR\000"
 15037      4D41435F 
 15037      53544154 
 15037      55535F4C 
 15037      454E4754 
 15038              	.LASF153:
 15039 06fa 54696D65 		.ascii	"TimeOff\000"
 15039      4F666600 
 15040              	.LASF3:
 15041 0702 756E7369 		.ascii	"unsigned char\000"
 15041      676E6564 
 15041      20636861 
 15041      7200
 15042              	.LASF84:
 15043 0710 5F737464 		.ascii	"_stdout\000"
 15043      6F757400 
 15044              	.LASF336:
 15045 0718 73476574 		.ascii	"sGetNvmCtxParams\000"
 15045      4E766D43 
 15045      74785061 
 15045      72616D73 
 15045      00
 15046              	.LASF127:
 15047 0729 5F6D6273 		.ascii	"_mbsrtowcs_state\000"
 15047      72746F77 
 15047      63735F73 
 15047      74617465 
 15047      00
 15048              	.LASF41:
 15049 073a 5F776473 		.ascii	"_wds\000"
ARM GAS  C:\Users\EBANO_~1\AppData\Local\Temp\ccpYmjAB.s 			page 298


 15049      00
 15050              	.LASF207:
 15051 073f 44725261 		.ascii	"DrRange_t\000"
 15051      6E67655F 
 15051      7400
 15052              	.LASF220:
 15053 0749 666C6F61 		.ascii	"float\000"
 15053      7400
 15054              	.LASF562:
 15055 074f 443A5C67 		.ascii	"D:\\git_pessoal\\keil_gcc\\STM32CubeExpansion_LRWAN"
 15055      69745F70 
 15055      6573736F 
 15055      616C5C6B 
 15055      65696C5F 
 15056 077f 5F56312E 		.ascii	"_V1.2.1\\Projects\\B-L072Z-LRWAN1\\Applications\\Lo"
 15056      322E315C 
 15056      50726F6A 
 15056      65637473 
 15056      5C422D4C 
 15057 07ae 52615C45 		.ascii	"Ra\\End_Node\\MDK-ARM\000"
 15057      6E645F4E 
 15057      6F64655C 
 15057      4D444B2D 
 15057      41524D00 
 15058              	.LASF271:
 15059 07c2 5048595F 		.ascii	"PHY_DEF_RX2_FREQUENCY\000"
 15059      4445465F 
 15059      5258325F 
 15059      46524551 
 15059      55454E43 
 15060              	.LASF323:
 15061 07d8 41747472 		.ascii	"Attribute\000"
 15061      69627574 
 15061      6500
 15062              	.LASF247:
 15063 07e2 65506879 		.ascii	"ePhyAttribute\000"
 15063      41747472 
 15063      69627574 
 15063      6500
 15064              	.LASF63:
 15065 07f0 5F73697A 		.ascii	"_size\000"
 15065      6500
 15066              	.LASF511:
 15067 07f6 52656769 		.ascii	"RegionEU433ChanMaskSet\000"
 15067      6F6E4555 
 15067      34333343 
 15067      68616E4D 
 15067      61736B53 
 15068              	.LASF368:
 15069 080d 56657273 		.ascii	"Version\000"
 15069      696F6E00 
 15070              	.LASF70:
 15071 0815 5F777269 		.ascii	"_write\000"
 15071      746500
 15072              	.LASF385:
 15073 081c 65416C74 		.ascii	"eAlternateDrType\000"
 15073      65726E61 
ARM GAS  C:\Users\EBANO_~1\AppData\Local\Temp\ccpYmjAB.s 			page 299


 15073      74654472 
 15073      54797065 
 15073      00
 15074              	.LASF412:
 15075 082d 43684D61 		.ascii	"ChMaskCtrl\000"
 15075      736B4374 
 15075      726C00
 15076              	.LASF176:
 15077 0838 496F4465 		.ascii	"IoDeInit\000"
 15077      496E6974 
 15077      00
 15078              	.LASF179:
 15079 0841 5365744D 		.ascii	"SetModem\000"
 15079      6F64656D 
 15079      00
 15080              	.LASF360:
 15081 084a 5278536C 		.ascii	"RxSlot\000"
 15081      6F7400
 15082              	.LASF226:
 15083 0851 4C4F5241 		.ascii	"LORAMAC_STATUS_PARAMETER_INVALID\000"
 15083      4D41435F 
 15083      53544154 
 15083      55535F50 
 15083      4152414D 
 15084              	.LASF419:
 15085 0872 4D617844 		.ascii	"MaxDatarate\000"
 15085      61746172 
 15085      61746500 
 15086              	.LASF402:
 15087 087e 4368616E 		.ascii	"ChannelRemoveParams_t\000"
 15087      6E656C52 
 15087      656D6F76 
 15087      65506172 
 15087      616D735F 
 15088              	.LASF166:
 15089 0894 5478446F 		.ascii	"TxDone\000"
 15089      6E6500
 15090              	.LASF531:
 15091 089b 436F756E 		.ascii	"CountNbOfEnabledChannels\000"
 15091      744E624F 
 15091      66456E61 
 15091      626C6564 
 15091      4368616E 
 15092              	.LASF49:
 15093 08b4 5F5F746D 		.ascii	"__tm_year\000"
 15093      5F796561 
 15093      7200
 15094              	.LASF206:
 15095 08be 75447252 		.ascii	"uDrRange\000"
 15095      616E6765 
 15095      00
 15096              	.LASF212:
 15097 08c7 42616E64 		.ascii	"Band\000"
 15097      00
 15098              	.LASF367:
 15099 08cc 734C696E 		.ascii	"sLinkAdrReqParams\000"
 15099      6B416472 
ARM GAS  C:\Users\EBANO_~1\AppData\Local\Temp\ccpYmjAB.s 			page 300


 15099      52657150 
 15099      6172616D 
 15099      7300
 15100              	.LASF356:
 15101 08de 57696E64 		.ascii	"WindowTimeout\000"
 15101      6F775469 
 15101      6D656F75 
 15101      7400
 15102              	.LASF203:
 15103 08ec 52616469 		.ascii	"Radio\000"
 15103      6F00
 15104              	.LASF560:
 15105 08f2 474E5520 		.ascii	"GNU C11 7.3.1 20180622 (release) [ARM/embedded-7-br"
 15105      43313120 
 15105      372E332E 
 15105      31203230 
 15105      31383036 
 15106 0925 616E6368 		.ascii	"anch revision 261907] -mcpu=cortex-m0plus -mthumb -"
 15106      20726576 
 15106      6973696F 
 15106      6E203236 
 15106      31393037 
 15107 0958 6D666C6F 		.ascii	"mfloat-abi=soft -gdwarf-2 -O3 -ffunction-sections\000"
 15107      61742D61 
 15107      62693D73 
 15107      6F667420 
 15107      2D676477 
 15108              	.LASF110:
 15109 098a 5F6D756C 		.ascii	"_mult\000"
 15109      7400
 15110              	.LASF535:
 15111 0990 6D617842 		.ascii	"maxBandTxPower\000"
 15111      616E6454 
 15111      78506F77 
 15111      657200
 15112              	.LASF489:
 15113 099f 6E657874 		.ascii	"nextIndex\000"
 15113      496E6465 
 15113      7800
 15114              	.LASF190:
 15115 09a9 53746172 		.ascii	"StartCad\000"
 15115      74436164 
 15115      00
 15116              	.LASF377:
 15117 09b2 734E6577 		.ascii	"sNewChannelReqParams\000"
 15117      4368616E 
 15117      6E656C52 
 15117      65715061 
 15117      72616D73 
 15118              	.LASF125:
 15119 09c7 5F6D6272 		.ascii	"_mbrlen_state\000"
 15119      6C656E5F 
 15119      73746174 
 15119      6500
 15120              	.LASF508:
 15121 09d5 7278436F 		.ascii	"rxConfigParams\000"
 15121      6E666967 
ARM GAS  C:\Users\EBANO_~1\AppData\Local\Temp\ccpYmjAB.s 			page 301


 15121      50617261 
 15121      6D7300
 15122              	.LASF461:
 15123 09e4 74696D65 		.ascii	"time\000"
 15123      00
 15124              	.LASF545:
 15125 09e9 52656769 		.ascii	"RegionCommonCountChannels\000"
 15125      6F6E436F 
 15125      6D6D6F6E 
 15125      436F756E 
 15125      74436861 
 15126              	.LASF241:
 15127 0a03 4C4F5241 		.ascii	"LORAMAC_STATUS_FCNT_HANDLER_ERROR\000"
 15127      4D41435F 
 15127      53544154 
 15127      55535F46 
 15127      434E545F 
 15128              	.LASF491:
 15129 0a25 63684D61 		.ascii	"chMask\000"
 15129      736B00
 15130              	.LASF380:
 15131 0a2c 4E657743 		.ascii	"NewChannelReqParams_t\000"
 15131      68616E6E 
 15131      656C5265 
 15131      71506172 
 15131      616D735F 
 15132              	.LASF168:
 15133 0a42 5278446F 		.ascii	"RxDone\000"
 15133      6E6500
 15134              	.LASF83:
 15135 0a49 5F737464 		.ascii	"_stdin\000"
 15135      696E00
 15136              	.LASF248:
 15137 0a50 5048595F 		.ascii	"PHY_MIN_RX_DR\000"
 15137      4D494E5F 
 15137      52585F44 
 15137      5200
 15138              	.LASF132:
 15139 0a5e 5F6E6D61 		.ascii	"_nmalloc\000"
 15139      6C6C6F63 
 15139      00
 15140              	.LASF337:
 15141 0a67 6E766D43 		.ascii	"nvmCtxSize\000"
 15141      74785369 
 15141      7A6500
 15142              	.LASF182:
 15143 0a72 52616E64 		.ascii	"Random\000"
 15143      6F6D00
 15144              	.LASF404:
 15145 0a79 54696D65 		.ascii	"Timeout\000"
 15145      6F757400 
 15146              	.LASF334:
 15147 0a81 54797065 		.ascii	"Type\000"
 15147      00
 15148              	.LASF432:
 15149 0a86 44617461 		.ascii	"DataratesEU433\000"
 15149      72617465 
ARM GAS  C:\Users\EBANO_~1\AppData\Local\Temp\ccpYmjAB.s 			page 302


 15149      73455534 
 15149      333300
 15150              	.LASF371:
 15151 0a95 43757272 		.ascii	"CurrentDatarate\000"
 15151      656E7444 
 15151      61746172 
 15151      61746500 
 15152              	.LASF346:
 15153 0aa5 5061796C 		.ascii	"Payload\000"
 15153      6F616400 
 15154              	.LASF263:
 15155 0aad 5048595F 		.ascii	"PHY_MAX_RX_WINDOW\000"
 15155      4D41585F 
 15155      52585F57 
 15155      494E444F 
 15155      5700
 15156              	.LASF28:
 15157 0abf 5F6F6666 		.ascii	"_off_t\000"
 15157      5F7400
 15158              	.LASF140:
 15159 0ac6 56657273 		.ascii	"Version_s\000"
 15159      696F6E5F 
 15159      7300
 15160              	.LASF146:
 15161 0ad0 56657273 		.ascii	"Version_t\000"
 15161      696F6E5F 
 15161      7400
 15162              	.LASF205:
 15163 0ada 56657273 		.ascii	"Version_u\000"
 15163      696F6E5F 
 15163      7500
 15164              	.LASF538:
 15165 0ae4 6472496E 		.ascii	"drIndex\000"
 15165      64657800 
 15166              	.LASF25:
 15167 0aec 73697A65 		.ascii	"size_t\000"
 15167      5F7400
 15168              	.LASF115:
 15169 0af3 5F6C6F63 		.ascii	"_localtime_buf\000"
 15169      616C7469 
 15169      6D655F62 
 15169      756600
 15170              	.LASF33:
 15171 0b02 5F5F636F 		.ascii	"__count\000"
 15171      756E7400 
 15172              	.LASF16:
 15173 0b0a 75696E74 		.ascii	"uint8_t\000"
 15173      385F7400 
 15174              	.LASF290:
 15175 0b12 5048595F 		.ascii	"PHY_PING_SLOT_SYMBOL_TO_EXPANSION_MAX\000"
 15175      50494E47 
 15175      5F534C4F 
 15175      545F5359 
 15175      4D424F4C 
 15176              	.LASF298:
 15177 0b38 5048595F 		.ascii	"PHY_BEACON_CHANNEL_STEPWIDTH\000"
 15177      42454143 
ARM GAS  C:\Users\EBANO_~1\AppData\Local\Temp\ccpYmjAB.s 			page 303


 15177      4F4E5F43 
 15177      48414E4E 
 15177      454C5F53 
 15178              	.LASF520:
 15179 0b55 52656769 		.ascii	"RegionEU433GetNvmCtx\000"
 15179      6F6E4555 
 15179      34333347 
 15179      65744E76 
 15179      6D437478 
 15180              	.LASF148:
 15181 0b6a 7342616E 		.ascii	"sBand\000"
 15181      6400
 15182              	.LASF249:
 15183 0b70 5048595F 		.ascii	"PHY_MIN_TX_DR\000"
 15183      4D494E5F 
 15183      54585F44 
 15183      5200
 15184              	.LASF547:
 15185 0b7e 52656769 		.ascii	"RegionCommonUpdateBandTimeOff\000"
 15185      6F6E436F 
 15185      6D6D6F6E 
 15185      55706461 
 15185      74654261 
 15186              	.LASF288:
 15187 0b9c 5048595F 		.ascii	"PHY_BEACON_SYMBOL_TO_DEFAULT\000"
 15187      42454143 
 15187      4F4E5F53 
 15187      594D424F 
 15187      4C5F544F 
 15188              	.LASF221:
 15189 0bb9 654C6F52 		.ascii	"eLoRaMacRxSlot\000"
 15189      614D6163 
 15189      5278536C 
 15189      6F7400
 15190              	.LASF97:
 15191 0bc8 5F637674 		.ascii	"_cvtbuf\000"
 15191      62756600 
 15192              	.LASF414:
 15193 0bd0 52656769 		.ascii	"RegionCommonLinkAdrParams_t\000"
 15193      6F6E436F 
 15193      6D6D6F6E 
 15193      4C696E6B 
 15193      41647250 
 15194              	.LASF335:
 15195 0bec 496E6974 		.ascii	"InitDefaultsParams_t\000"
 15195      44656661 
 15195      756C7473 
 15195      50617261 
 15195      6D735F74 
 15196              	.LASF417:
 15197 0c01 4E624368 		.ascii	"NbChannels\000"
 15197      616E6E65 
 15197      6C7300
 15198              	.LASF358:
 15199 0c0c 52657065 		.ascii	"RepeaterSupport\000"
 15199      61746572 
 15199      53757070 
ARM GAS  C:\Users\EBANO_~1\AppData\Local\Temp\ccpYmjAB.s 			page 304


 15199      6F727400 
 15200              	.LASF218:
 15201 0c1c 52585F53 		.ascii	"RX_SLOT_WIN_MULTICAST_SLOT\000"
 15201      4C4F545F 
 15201      57494E5F 
 15201      4D554C54 
 15201      49434153 
 15202              	.LASF202:
 15203 0c37 53657452 		.ascii	"SetRxDutyCycle\000"
 15203      78447574 
 15203      79437963 
 15203      6C6500
 15204              	.LASF490:
 15205 0c46 62797465 		.ascii	"bytesProcessed\000"
 15205      7350726F 
 15205      63657373 
 15205      656400
 15206              	.LASF433:
 15207 0c55 42616E64 		.ascii	"BandwidthsEU433\000"
 15207      77696474 
 15207      68734555 
 15207      34333300 
 15208              	.LASF32:
 15209 0c65 5F5F7763 		.ascii	"__wchb\000"
 15209      686200
 15210              	.LASF126:
 15211 0c6c 5F6D6272 		.ascii	"_mbrtowc_state\000"
 15211      746F7763 
 15211      5F737461 
 15211      746500
 15212              	.LASF46:
 15213 0c7b 5F5F746D 		.ascii	"__tm_hour\000"
 15213      5F686F75 
 15213      7200
 15214              	.LASF158:
 15215 0c85 4D4F4445 		.ascii	"MODEM_FSK\000"
 15215      4D5F4653 
 15215      4B00
 15216              	.LASF468:
 15217 0c8f 63616C63 		.ascii	"calcBackOff\000"
 15217      4261636B 
 15217      4F666600 
 15218              	.LASF348:
 15219 0c9b 4170706C 		.ascii	"ApplyCFListParams_t\000"
 15219      7943464C 
 15219      69737450 
 15219      6172616D 
 15219      735F7400 
 15220              	.LASF260:
 15221 0caf 5048595F 		.ascii	"PHY_MAX_PAYLOAD\000"
 15221      4D41585F 
 15221      5041594C 
 15221      4F414400 
 15222              	.LASF30:
 15223 0cbf 77696E74 		.ascii	"wint_t\000"
 15223      5F7400
 15224              	.LASF98:
ARM GAS  C:\Users\EBANO_~1\AppData\Local\Temp\ccpYmjAB.s 			page 305


 15225 0cc6 5F6E6577 		.ascii	"_new\000"
 15225      00
 15226              	.LASF188:
 15227 0ccb 536C6565 		.ascii	"Sleep\000"
 15227      7000
 15228              	.LASF345:
 15229 0cd1 73417070 		.ascii	"sApplyCFListParams\000"
 15229      6C794346 
 15229      4C697374 
 15229      50617261 
 15229      6D7300
 15230              	.LASF106:
 15231 0ce4 5F6E696F 		.ascii	"_niobs\000"
 15231      627300
 15232              	.LASF322:
 15233 0ceb 73476574 		.ascii	"sGetPhyParams\000"
 15233      50687950 
 15233      6172616D 
 15233      7300
 15234              	.LASF242:
 15235 0cf9 4C4F5241 		.ascii	"LORAMAC_STATUS_MAC_COMMAD_ERROR\000"
 15235      4D41435F 
 15235      53544154 
 15235      55535F4D 
 15235      41435F43 
 15236              	.LASF160:
 15237 0d19 52616469 		.ascii	"RadioModems_t\000"
 15237      6F4D6F64 
 15237      656D735F 
 15237      7400
 15238              	.LASF319:
 15239 0d27 4368616E 		.ascii	"Channels\000"
 15239      6E656C73 
 15239      00
 15240              	.LASF331:
 15241 0d30 53657442 		.ascii	"SetBandTxDoneParams_t\000"
 15241      616E6454 
 15241      78446F6E 
 15241      65506172 
 15241      616D735F 
 15242              	.LASF462:
 15243 0d46 61676772 		.ascii	"aggregatedTimeOff\000"
 15243      65676174 
 15243      65645469 
 15243      6D654F66 
 15243      6600
 15244              	.LASF82:
 15245 0d58 5F657272 		.ascii	"_errno\000"
 15245      6E6F00
 15246              	.LASF287:
 15247 0d5f 5048595F 		.ascii	"PHY_PING_SLOT_WINDOW\000"
 15247      50494E47 
 15247      5F534C4F 
 15247      545F5749 
 15247      4E444F57 
 15248              	.LASF413:
 15249 0d74 43684D61 		.ascii	"ChMask\000"
ARM GAS  C:\Users\EBANO_~1\AppData\Local\Temp\ccpYmjAB.s 			page 306


 15249      736B00
 15250              	.LASF47:
 15251 0d7b 5F5F746D 		.ascii	"__tm_mday\000"
 15251      5F6D6461 
 15251      7900
 15252              	.LASF54:
 15253 0d85 5F666E61 		.ascii	"_fnargs\000"
 15253      72677300 
 15254              	.LASF303:
 15255 0d8d 494E4954 		.ascii	"INIT_TYPE_INIT\000"
 15255      5F545950 
 15255      455F494E 
 15255      495400
 15256              	.LASF255:
 15257 0d9c 5048595F 		.ascii	"PHY_MAX_TX_POWER\000"
 15257      4D41585F 
 15257      54585F50 
 15257      4F574552 
 15257      00
 15258              	.LASF440:
 15259 0dad 6F757444 		.ascii	"outDr\000"
 15259      7200
 15260              	.LASF281:
 15261 0db3 5048595F 		.ascii	"PHY_NEXT_LOWER_TX_DR\000"
 15261      4E455854 
 15261      5F4C4F57 
 15261      45525F54 
 15261      585F4452 
 15262              	.LASF482:
 15263 0dc8 52656769 		.ascii	"RegionEU433LinkAdrReq\000"
 15263      6F6E4555 
 15263      3433334C 
 15263      696E6B41 
 15263      64725265 
 15264              	.LASF278:
 15265 0dde 5048595F 		.ascii	"PHY_DEF_DOWNLINK_DWELL_TIME\000"
 15265      4445465F 
 15265      444F574E 
 15265      4C494E4B 
 15265      5F445745 
 15266              	.LASF392:
 15267 0dfa 456C6170 		.ascii	"ElapsedTime\000"
 15267      73656454 
 15267      696D6500 
 15268              	.LASF289:
 15269 0e06 5048595F 		.ascii	"PHY_BEACON_SYMBOL_TO_EXPANSION_MAX\000"
 15269      42454143 
 15269      4F4E5F53 
 15269      594D424F 
 15269      4C5F544F 
 15270              	.LASF38:
 15271 0e29 5F6E6578 		.ascii	"_next\000"
 15271      7400
 15272              	.LASF171:
 15273 0e2f 46687373 		.ascii	"FhssChangeChannel\000"
 15273      4368616E 
 15273      67654368 
ARM GAS  C:\Users\EBANO_~1\AppData\Local\Temp\ccpYmjAB.s 			page 307


 15273      616E6E65 
 15273      6C00
 15274              	.LASF487:
 15275 0e41 6E624279 		.ascii	"nbBytesParsed\000"
 15275      74657350 
 15275      61727365 
 15275      6400
 15276              	.LASF513:
 15277 0e4f 52656769 		.ascii	"RegionEU433ApplyCFList\000"
 15277      6F6E4555 
 15277      34333341 
 15277      70706C79 
 15277      43464C69 
 15278              	.LASF521:
 15279 0e66 70617261 		.ascii	"params\000"
 15279      6D7300
 15280              	.LASF123:
 15281 0e6d 5F736967 		.ascii	"_signal_buf\000"
 15281      6E616C5F 
 15281      62756600 
 15282              	.LASF68:
 15283 0e79 5F636F6F 		.ascii	"_cookie\000"
 15283      6B696500 
 15284              	.LASF272:
 15285 0e81 5048595F 		.ascii	"PHY_DEF_RX2_DR\000"
 15285      4445465F 
 15285      5258325F 
 15285      445200
 15286              	.LASF539:
 15287 0e90 4765744E 		.ascii	"GetNextLowerTxDr\000"
 15287      6578744C 
 15287      6F776572 
 15287      54784472 
 15287      00
 15288              	.LASF408:
 15289 0ea1 52785469 		.ascii	"RxTime\000"
 15289      6D6500
 15290              	.LASF264:
 15291 0ea8 5048595F 		.ascii	"PHY_RECEIVE_DELAY1\000"
 15291      52454345 
 15291      4956455F 
 15291      44454C41 
 15291      593100
 15292              	.LASF265:
 15293 0ebb 5048595F 		.ascii	"PHY_RECEIVE_DELAY2\000"
 15293      52454345 
 15293      4956455F 
 15293      44454C41 
 15293      593200
 15294              	.LASF157:
 15295 0ece 5F747A6E 		.ascii	"_tzname\000"
 15295      616D6500 
 15296              	.LASF352:
 15297 0ed6 4368616E 		.ascii	"ChanMaskSetParams_t\000"
 15297      4D61736B 
 15297      53657450 
 15297      6172616D 
ARM GAS  C:\Users\EBANO_~1\AppData\Local\Temp\ccpYmjAB.s 			page 308


 15297      735F7400 
 15298              	.LASF232:
 15299 0eea 4C4F5241 		.ascii	"LORAMAC_STATUS_REGION_NOT_SUPPORTED\000"
 15299      4D41435F 
 15299      53544154 
 15299      55535F52 
 15299      4547494F 
 15300              	.LASF219:
 15301 0f0e 4C6F5261 		.ascii	"LoRaMacRxSlot_t\000"
 15301      4D616352 
 15301      78536C6F 
 15301      745F7400 
 15302              	.LASF162:
 15303 0f1e 52465F52 		.ascii	"RF_RX_RUNNING\000"
 15303      585F5255 
 15303      4E4E494E 
 15303      4700
 15304              	.LASF245:
 15305 0f2c 4C4F5241 		.ascii	"LORAMAC_STATUS_ERROR\000"
 15305      4D41435F 
 15305      53544154 
 15305      55535F45 
 15305      52524F52 
 15306              	.LASF387:
 15307 0f41 414C5445 		.ascii	"ALTERNATE_DR_RESTORE\000"
 15307      524E4154 
 15307      455F4452 
 15307      5F524553 
 15307      544F5245 
 15308              	.LASF448:
 15309 0f56 70687954 		.ascii	"phyTxPower\000"
 15309      78506F77 
 15309      657200
 15310              	.LASF320:
 15311 0f61 42656163 		.ascii	"BeaconFormat\000"
 15311      6F6E466F 
 15311      726D6174 
 15311      00
 15312              	.LASF460:
 15313 0f6e 6368616E 		.ascii	"channel\000"
 15313      6E656C00 
 15314              	.LASF365:
 15315 0f76 506B744C 		.ascii	"PktLen\000"
 15315      656E00
 15316              	.LASF178:
 15317 0f7d 47657453 		.ascii	"GetStatus\000"
 15317      74617475 
 15317      7300
 15318              	.LASF251:
 15319 0f87 5048595F 		.ascii	"PHY_MAX_TX_DR\000"
 15319      4D41585F 
 15319      54585F44 
 15319      5200
 15320              	.LASF314:
 15321 0f95 52667532 		.ascii	"Rfu2Size\000"
 15321      53697A65 
 15321      00
ARM GAS  C:\Users\EBANO_~1\AppData\Local\Temp\ccpYmjAB.s 			page 309


 15322              	.LASF184:
 15323 0f9e 53657454 		.ascii	"SetTxConfig\000"
 15323      78436F6E 
 15323      66696700 
 15324              	.LASF213:
 15325 0faa 4368616E 		.ascii	"ChannelParams_t\000"
 15325      6E656C50 
 15325      6172616D 
 15325      735F7400 
 15326              	.LASF224:
 15327 0fba 4C4F5241 		.ascii	"LORAMAC_STATUS_BUSY\000"
 15327      4D41435F 
 15327      53544154 
 15327      55535F42 
 15327      55535900 
 15328              	.LASF347:
 15329 0fce 53697A65 		.ascii	"Size\000"
 15329      00
 15330              	.LASF44:
 15331 0fd3 5F5F746D 		.ascii	"__tm_sec\000"
 15331      5F736563 
 15331      00
 15332              	.LASF53:
 15333 0fdc 5F6F6E5F 		.ascii	"_on_exit_args\000"
 15333      65786974 
 15333      5F617267 
 15333      7300
 15334              	.LASF237:
 15335 0fea 4C4F5241 		.ascii	"LORAMAC_STATUS_BUSY_BEACON_RESERVED_TIME\000"
 15335      4D41435F 
 15335      53544154 
 15335      55535F42 
 15335      5553595F 
 15336              	.LASF561:
 15337 1013 2E2E2F2E 		.ascii	"../../../../../../Middlewares/Third_Party/LoRaWAN/M"
 15337      2E2F2E2E 
 15337      2F2E2E2F 
 15337      2E2E2F2E 
 15337      2E2F4D69 
 15338 1046 61632F72 		.ascii	"ac/region/RegionEU433.c\000"
 15338      6567696F 
 15338      6E2F5265 
 15338      67696F6E 
 15338      45553433 
 15339              	.LASF526:
 15340 105e 52656769 		.ascii	"RegionEU433GetPhyParam\000"
 15340      6F6E4555 
 15340      34333347 
 15340      65745068 
 15340      79506172 
 15341              	.LASF259:
 15342 1075 5048595F 		.ascii	"PHY_DEF_ADR_ACK_DELAY\000"
 15342      4445465F 
 15342      4144525F 
 15342      41434B5F 
 15342      44454C41 
 15343              	.LASF128:
ARM GAS  C:\Users\EBANO_~1\AppData\Local\Temp\ccpYmjAB.s 			page 310


 15344 108b 5F776372 		.ascii	"_wcrtomb_state\000"
 15344      746F6D62 
 15344      5F737461 
 15344      746500
 15345              	.LASF362:
 15346 109a 73547843 		.ascii	"sTxConfigParams\000"
 15346      6F6E6669 
 15346      67506172 
 15346      616D7300 
 15347              	.LASF165:
 15348 10aa 52616469 		.ascii	"RadioState_t\000"
 15348      6F537461 
 15348      74655F74 
 15348      00
 15349              	.LASF563:
 15350 10b7 6D656D73 		.ascii	"memset\000"
 15350      657400
 15351              	.LASF553:
 15352 10be 52656769 		.ascii	"RegionCommonLinkAdrReqVerifyParams\000"
 15352      6F6E436F 
 15352      6D6D6F6E 
 15352      4C696E6B 
 15352      41647252 
 15353              	.LASF497:
 15354 10e1 7478506F 		.ascii	"txPower\000"
 15354      77657200 
 15355              	.LASF483:
 15356 10e9 6C696E6B 		.ascii	"linkAdrReq\000"
 15356      41647252 
 15356      657100
 15357              	.LASF502:
 15358 10f4 52656769 		.ascii	"RegionEU433RxConfig\000"
 15358      6F6E4555 
 15358      34333352 
 15358      78436F6E 
 15358      66696700 
 15359              	.LASF330:
 15360 1108 4A6F696E 		.ascii	"Joined\000"
 15360      656400
 15361              	.LASF15:
 15362 110f 696E7438 		.ascii	"int8_t\000"
 15362      5F7400
 15363              	.LASF236:
 15364 1116 4C4F5241 		.ascii	"LORAMAC_STATUS_NO_FREE_CHANNEL_FOUND\000"
 15364      4D41435F 
 15364      53544154 
 15364      55535F4E 
 15364      4F5F4652 
 15365              	.LASF37:
 15366 113b 5F5F554C 		.ascii	"__ULong\000"
 15366      6F6E6700 
 15367              	.LASF297:
 15368 1143 5048595F 		.ascii	"PHY_BEACON_CHANNEL_DR\000"
 15368      42454143 
 15368      4F4E5F43 
 15368      48414E4E 
 15368      454C5F44 
ARM GAS  C:\Users\EBANO_~1\AppData\Local\Temp\ccpYmjAB.s 			page 311


 15369              	.LASF353:
 15370 1159 73527843 		.ascii	"sRxConfigParams\000"
 15370      6F6E6669 
 15370      67506172 
 15370      616D7300 
 15371              	.LASF144:
 15372 1169 4669656C 		.ascii	"Fields\000"
 15372      647300
 15373              	.LASF286:
 15374 1170 5048595F 		.ascii	"PHY_BEACON_WINDOW_SLOTS\000"
 15374      42454143 
 15374      4F4E5F57 
 15374      494E444F 
 15374      575F534C 
 15375              	.LASF113:
 15376 1188 5F737472 		.ascii	"_strtok_last\000"
 15376      746F6B5F 
 15376      6C617374 
 15376      00
 15377              	.LASF185:
 15378 1195 43686563 		.ascii	"CheckRfFrequency\000"
 15378      6B526646 
 15378      72657175 
 15378      656E6379 
 15378      00
 15379              	.LASF474:
 15380 11a6 646C4368 		.ascii	"dlChannelReq\000"
 15380      616E6E65 
 15380      6C526571 
 15380      00
 15381              	.LASF109:
 15382 11b3 5F736565 		.ascii	"_seed\000"
 15382      6400
 15383              	.LASF369:
 15384 11b9 5061796C 		.ascii	"PayloadSize\000"
 15384      6F616453 
 15384      697A6500 
 15385              	.LASF71:
 15386 11c5 5F736565 		.ascii	"_seek\000"
 15386      6B00
 15387              	.LASF210:
 15388 11cb 52783146 		.ascii	"Rx1Frequency\000"
 15388      72657175 
 15388      656E6379 
 15388      00
 15389              	.LASF17:
 15390 11d8 696E7431 		.ascii	"int16_t\000"
 15390      365F7400 
 15391              	.LASF299:
 15392 11e0 5048595F 		.ascii	"PHY_BEACON_NB_CHANNELS\000"
 15392      42454143 
 15392      4F4E5F4E 
 15392      425F4348 
 15392      414E4E45 
 15393              	.LASF7:
 15394 11f7 73686F72 		.ascii	"short unsigned int\000"
 15394      7420756E 
ARM GAS  C:\Users\EBANO_~1\AppData\Local\Temp\ccpYmjAB.s 			page 312


 15394      7369676E 
 15394      65642069 
 15394      6E7400
 15395              	.LASF2:
 15396 120a 7369676E 		.ascii	"signed char\000"
 15396      65642063 
 15396      68617200 
 15397              	.LASF505:
 15398 1216 52656769 		.ascii	"RegionEU433ComputeRxWindowParameters\000"
 15398      6F6E4555 
 15398      34333343 
 15398      6F6D7075 
 15398      74655278 
 15399              	.LASF381:
 15400 123b 73547850 		.ascii	"sTxParamSetupReqParams\000"
 15400      6172616D 
 15400      53657475 
 15400      70526571 
 15400      50617261 
 15401              	.LASF495:
 15402 1252 52656769 		.ascii	"RegionEU433TxConfig\000"
 15402      6F6E4555 
 15402      34333354 
 15402      78436F6E 
 15402      66696700 
 15403              	.LASF338:
 15404 1266 4765744E 		.ascii	"GetNvmCtxParams_t\000"
 15404      766D4374 
 15404      78506172 
 15404      616D735F 
 15404      7400
 15405              	.LASF475:
 15406 1278 73746174 		.ascii	"status\000"
 15406      757300
 15407              	.LASF384:
 15408 127f 446C4368 		.ascii	"DlChannelReqParams_t\000"
 15408      616E6E65 
 15408      6C526571 
 15408      50617261 
 15408      6D735F74 
 15409              	.LASF534:
 15410 1294 4C696D69 		.ascii	"LimitTxPower\000"
 15410      74547850 
 15410      6F776572 
 15410      00
 15411              	.LASF400:
 15412 12a1 4368616E 		.ascii	"ChannelAddParams_t\000"
 15412      6E656C41 
 15412      64645061 
 15412      72616D73 
 15412      5F7400
 15413              	.LASF175:
 15414 12b4 496F496E 		.ascii	"IoInit\000"
 15414      697400
 15415              	.LASF95:
 15416 12bb 5F667265 		.ascii	"_freelist\000"
 15416      656C6973 
ARM GAS  C:\Users\EBANO_~1\AppData\Local\Temp\ccpYmjAB.s 			page 313


 15416      7400
 15417              	.LASF429:
 15418 12c5 42656163 		.ascii	"BeaconChannelBW\000"
 15418      6F6E4368 
 15418      616E6E65 
 15418      6C425700 
 15419              	.LASF76:
 15420 12d5 5F6F6666 		.ascii	"_offset\000"
 15420      73657400 
 15421              	.LASF21:
 15422 12dd 53797374 		.ascii	"SystemCoreClock\000"
 15422      656D436F 
 15422      7265436C 
 15422      6F636B00 
 15423              	.LASF326:
 15424 12ed 446F776E 		.ascii	"DownlinkDwellTime\000"
 15424      6C696E6B 
 15424      4477656C 
 15424      6C54696D 
 15424      6500
 15425              	.LASF186:
 15426 12ff 54696D65 		.ascii	"TimeOnAir\000"
 15426      4F6E4169 
 15426      7200
 15427              	.LASF61:
 15428 1309 5F5F7362 		.ascii	"__sbuf\000"
 15428      756600
 15429              	.LASF122:
 15430 1310 5F6C3634 		.ascii	"_l64a_buf\000"
 15430      615F6275 
 15430      6600
 15431              	.LASF321:
 15432 131a 50687950 		.ascii	"PhyParam_t\000"
 15432      6172616D 
 15432      5F7400
 15433              	.LASF328:
 15434 1325 73536574 		.ascii	"sSetBandTxDoneParams\000"
 15434      42616E64 
 15434      5478446F 
 15434      6E655061 
 15434      72616D73 
 15435              	.LASF364:
 15436 133a 416E7465 		.ascii	"AntennaGain\000"
 15436      6E6E6147 
 15436      61696E00 
 15437              	.LASF262:
 15438 1346 5048595F 		.ascii	"PHY_DUTY_CYCLE\000"
 15438      44555459 
 15438      5F435943 
 15438      4C4500
 15439              	.LASF458:
 15440 1355 52656769 		.ascii	"RegionEU433NextChannel\000"
 15440      6F6E4555 
 15440      3433334E 
 15440      65787443 
 15440      68616E6E 
 15441              	.LASF114:
ARM GAS  C:\Users\EBANO_~1\AppData\Local\Temp\ccpYmjAB.s 			page 314


 15442 136c 5F617363 		.ascii	"_asctime_buf\000"
 15442      74696D65 
 15442      5F627566 
 15442      00
 15443              	.LASF457:
 15444 1379 52656769 		.ascii	"RegionEU433ApplyDrOffset\000"
 15444      6F6E4555 
 15444      34333341 
 15444      70706C79 
 15444      44724F66 
 15445              	.LASF498:
 15446 1392 74785469 		.ascii	"txTimeOnAir\000"
 15446      6D654F6E 
 15446      41697200 
 15447              	.LASF31:
 15448 139e 5F5F7763 		.ascii	"__wch\000"
 15448      6800
 15449              	.LASF454:
 15450 13a4 6368616E 		.ascii	"channelAdd\000"
 15450      6E656C41 
 15450      646400
 15451              	.LASF129:
 15452 13af 5F776373 		.ascii	"_wcsrtombs_state\000"
 15452      72746F6D 
 15452      62735F73 
 15452      74617465 
 15452      00
 15453              	.LASF391:
 15454 13c0 44757479 		.ascii	"DutyCycleEnabled\000"
 15454      4379636C 
 15454      65456E61 
 15454      626C6564 
 15454      00
 15455              	.LASF471:
 15456 13d1 63757272 		.ascii	"currentDr\000"
 15456      656E7444 
 15456      7200
 15457              	.LASF559:
 15458 13db 52656769 		.ascii	"RegionCommonSetBandTxDone\000"
 15458      6F6E436F 
 15458      6D6D6F6E 
 15458      53657442 
 15458      616E6454 
 15459              	.LASF450:
 15460 13f5 7478506F 		.ascii	"txPowerLimited\000"
 15460      7765724C 
 15460      696D6974 
 15460      656400
 15461              	.LASF546:
 15462 1404 54696D65 		.ascii	"TimerGetElapsedTime\000"
 15462      72476574 
 15462      456C6170 
 15462      73656454 
 15462      696D6500 
 15463              	.LASF504:
 15464 1418 6D617850 		.ascii	"maxPayload\000"
 15464      61796C6F 
ARM GAS  C:\Users\EBANO_~1\AppData\Local\Temp\ccpYmjAB.s 			page 315


 15464      616400
 15465              	.LASF528:
 15466 1423 6368616E 		.ascii	"channelsMask\000"
 15466      6E656C73 
 15466      4D61736B 
 15466      00
 15467              	.LASF9:
 15468 1430 6C6F6E67 		.ascii	"long int\000"
 15468      20696E74 
 15468      00
 15469              	.LASF121:
 15470 1439 5F776374 		.ascii	"_wctomb_state\000"
 15470      6F6D625F 
 15470      73746174 
 15470      6500
 15471              	.LASF467:
 15472 1447 52656769 		.ascii	"RegionEU433CalcBackOff\000"
 15472      6F6E4555 
 15472      34333343 
 15472      616C6342 
 15472      61636B4F 
 15473              	.LASF422:
 15474 145e 52656769 		.ascii	"RegionCommonLinkAdrReqVerifyParams_t\000"
 15474      6F6E436F 
 15474      6D6D6F6E 
 15474      4C696E6B 
 15474      41647252 
 15475              	.LASF372:
 15476 1483 43757272 		.ascii	"CurrentTxPower\000"
 15476      656E7454 
 15476      78506F77 
 15476      657200
 15477              	.LASF424:
 15478 1492 42616E64 		.ascii	"Bands\000"
 15478      7300
 15479              	.LASF308:
 15480 1498 4348414E 		.ascii	"CHANNELS_MASK\000"
 15480      4E454C53 
 15480      5F4D4153 
 15480      4B00
 15481              	.LASF532:
 15482 14a6 56657269 		.ascii	"VerifyRfFreq\000"
 15482      66795266 
 15482      46726571 
 15482      00
 15483              	.LASF107:
 15484 14b3 5F696F62 		.ascii	"_iobs\000"
 15484      7300
 15485              	.LASF87:
 15486 14b9 5F656D65 		.ascii	"_emergency\000"
 15486      7267656E 
 15486      637900
 15487              	.LASF506:
 15488 14c4 6D696E52 		.ascii	"minRxSymbols\000"
 15488      7853796D 
 15488      626F6C73 
 15488      00
ARM GAS  C:\Users\EBANO_~1\AppData\Local\Temp\ccpYmjAB.s 			page 316


 15489              	.LASF131:
 15490 14d1 5F6E6578 		.ascii	"_nextf\000"
 15490      746600
 15491              	.LASF117:
 15492 14d8 5F72616E 		.ascii	"_rand_next\000"
 15492      645F6E65 
 15492      787400
 15493              	.LASF519:
 15494 14e3 70687941 		.ascii	"phyAttribute\000"
 15494      74747269 
 15494      62757465 
 15494      00
 15495              	.LASF20:
 15496 14f0 75696E74 		.ascii	"uint32_t\000"
 15496      33325F74 
 15496      00
 15497              	.LASF416:
 15498 14f9 53746174 		.ascii	"Status\000"
 15498      757300
 15499              	.LASF557:
 15500 1500 52656769 		.ascii	"RegionCommonComputeSymbolTimeFsk\000"
 15500      6F6E436F 
 15500      6D6D6F6E 
 15500      436F6D70 
 15500      75746553 
 15501              	.LASF405:
 15502 1521 436F6E74 		.ascii	"ContinuousWaveParams_t\000"
 15502      696E756F 
 15502      75735761 
 15502      76655061 
 15502      72616D73 
 15503              	.LASF39:
 15504 1538 5F6D6178 		.ascii	"_maxwds\000"
 15504      77647300 
 15505              	.LASF523:
 15506 1540 62616E64 		.ascii	"bands\000"
 15506      7300
 15507              	.LASF191:
 15508 1546 53657454 		.ascii	"SetTxContinuousWave\000"
 15508      78436F6E 
 15508      74696E75 
 15508      6F757357 
 15508      61766500 
 15509              	.LASF26:
 15510 155a 6C6F6E67 		.ascii	"long double\000"
 15510      20646F75 
 15510      626C6500 
 15511              	.LASF138:
 15512 1566 7375626F 		.ascii	"suboptarg\000"
 15512      70746172 
 15512      6700
 15513              	.LASF275:
 15514 1570 5048595F 		.ascii	"PHY_MAX_NB_CHANNELS\000"
 15514      4D41585F 
 15514      4E425F43 
 15514      48414E4E 
 15514      454C5300 
ARM GAS  C:\Users\EBANO_~1\AppData\Local\Temp\ccpYmjAB.s 			page 317


 15515              	.LASF382:
 15516 1584 54785061 		.ascii	"TxParamSetupReqParams_t\000"
 15516      72616D53 
 15516      65747570 
 15516      52657150 
 15516      6172616D 
 15517              	.LASF11:
 15518 159c 6C6F6E67 		.ascii	"long unsigned int\000"
 15518      20756E73 
 15518      69676E65 
 15518      6420696E 
 15518      7400
 15519              	.LASF437:
 15520 15ae 4368616E 		.ascii	"ChannelsDefaultMask\000"
 15520      6E656C73 
 15520      44656661 
 15520      756C744D 
 15520      61736B00 
 15521              	.LASF555:
 15522 15c2 52656769 		.ascii	"RegionCommonComputeSymbolTimeLoRa\000"
 15522      6F6E436F 
 15522      6D6D6F6E 
 15522      436F6D70 
 15522      75746553 
 15523              	.LASF435:
 15524 15e4 4D617850 		.ascii	"MaxPayloadOfDatarateRepeaterEU433\000"
 15524      61796C6F 
 15524      61644F66 
 15524      44617461 
 15524      72617465 
 15525              	.LASF307:
 15526 1606 65436861 		.ascii	"eChannelsMask\000"
 15526      6E6E656C 
 15526      734D6173 
 15526      6B00
 15527              	.LASF181:
 15528 1614 49734368 		.ascii	"IsChannelFree\000"
 15528      616E6E65 
 15528      6C467265 
 15528      6500
 15529              	.LASF72:
 15530 1622 5F636C6F 		.ascii	"_close\000"
 15530      736500
 15531              	.LASF198:
 15532 1629 53657450 		.ascii	"SetPublicNetwork\000"
 15532      75626C69 
 15532      634E6574 
 15532      776F726B 
 15532      00
 15533              	.LASF103:
 15534 163a 63686172 		.ascii	"char\000"
 15534      00
 15535              	.LASF280:
 15536 163f 5048595F 		.ascii	"PHY_DEF_ANTENNA_GAIN\000"
 15536      4445465F 
 15536      414E5445 
 15536      4E4E415F 
ARM GAS  C:\Users\EBANO_~1\AppData\Local\Temp\ccpYmjAB.s 			page 318


 15536      4741494E 
 15537              	.LASF164:
 15538 1654 52465F43 		.ascii	"RF_CAD\000"
 15538      414400
 15539              	.LASF105:
 15540 165b 5F676C75 		.ascii	"_glue\000"
 15540      6500
 15541              	.LASF463:
 15542 1661 6E62456E 		.ascii	"nbEnabledChannels\000"
 15542      61626C65 
 15542      64436861 
 15542      6E6E656C 
 15542      7300
 15543              	.LASF394:
 15544 1673 43616C63 		.ascii	"CalcBackOffParams_t\000"
 15544      4261636B 
 15544      4F666650 
 15544      6172616D 
 15544      735F7400 
 15545              	.LASF23:
 15546 1687 41504250 		.ascii	"APBPrescTable\000"
 15546      72657363 
 15546      5461626C 
 15546      6500
 15547              	.LASF200:
 15548 1695 49727150 		.ascii	"IrqProcess\000"
 15548      726F6365 
 15548      737300
 15549              	.LASF543:
 15550 16a0 52656769 		.ascii	"RegionCommonComputeTxPower\000"
 15550      6F6E436F 
 15550      6D6D6F6E 
 15550      436F6D70 
 15550      75746554 
 15551              	.LASF544:
 15552 16bb 52656769 		.ascii	"RegionCommonValueInRange\000"
 15552      6F6E436F 
 15552      6D6D6F6E 
 15552      56616C75 
 15552      65496E52 
 15553              	.LASF253:
 15554 16d4 5048595F 		.ascii	"PHY_DEF_TX_DR\000"
 15554      4445465F 
 15554      54585F44 
 15554      5200
 15555              	.LASF227:
 15556 16e2 4C4F5241 		.ascii	"LORAMAC_STATUS_FREQUENCY_INVALID\000"
 15556      4D41435F 
 15556      53544154 
 15556      55535F46 
 15556      52455155 
 15557              	.LASF466:
 15558 1703 6E657874 		.ascii	"nextTxDelay\000"
 15558      54784465 
 15558      6C617900 
 15559              	.LASF527:
 15560 170f 6A6F696E 		.ascii	"joined\000"
ARM GAS  C:\Users\EBANO_~1\AppData\Local\Temp\ccpYmjAB.s 			page 319


 15560      656400
 15561              	.LASF522:
 15562 1716 52656769 		.ascii	"RegionEU433InitDefaults\000"
 15562      6F6E4555 
 15562      34333349 
 15562      6E697444 
 15562      65666175 
 15563              	.LASF42:
 15564 172e 5F426967 		.ascii	"_Bigint\000"
 15564      696E7400 
 15565              	.LASF386:
 15566 1736 414C5445 		.ascii	"ALTERNATE_DR\000"
 15566      524E4154 
 15566      455F4452 
 15566      00
 15567              	.LASF537:
 15568 1743 47657442 		.ascii	"GetBandwidth\000"
 15568      616E6477 
 15568      69647468 
 15568      00
 15569              	.LASF256:
 15570 1750 5048595F 		.ascii	"PHY_TX_POWER\000"
 15570      54585F50 
 15570      4F574552 
 15570      00
 15571              	.LASF180:
 15572 175d 53657443 		.ascii	"SetChannel\000"
 15572      68616E6E 
 15572      656C00
 15573              	.LASF316:
 15574 1768 75506879 		.ascii	"uPhyParam\000"
 15574      50617261 
 15574      6D00
 15575              	.LASF485:
 15576 1772 7478506F 		.ascii	"txPowOut\000"
 15576      774F7574 
 15576      00
 15577              	.LASF99:
 15578 177b 5F617465 		.ascii	"_atexit0\000"
 15578      78697430 
 15578      00
 15579              	.LASF350:
 15580 1784 4368616E 		.ascii	"ChannelsMaskIn\000"
 15580      6E656C73 
 15580      4D61736B 
 15580      496E00
 15581              	.LASF436:
 15582 1793 73526567 		.ascii	"sRegionEU433NvmCtx\000"
 15582      696F6E45 
 15582      55343333 
 15582      4E766D43 
 15582      747800
 15583              	.LASF223:
 15584 17a6 4C4F5241 		.ascii	"LORAMAC_STATUS_OK\000"
 15584      4D41435F 
 15584      53544154 
 15584      55535F4F 
ARM GAS  C:\Users\EBANO_~1\AppData\Local\Temp\ccpYmjAB.s 			page 320


 15584      4B00
 15585              	.LASF257:
 15586 17b8 5048595F 		.ascii	"PHY_DEF_TX_POWER\000"
 15586      4445465F 
 15586      54585F50 
 15586      4F574552 
 15586      00
 15587              	.LASF124:
 15588 17c9 5F676574 		.ascii	"_getdate_err\000"
 15588      64617465 
 15588      5F657272 
 15588      00
 15589              	.LASF554:
 15590 17d6 6D656D73 		.ascii	"memset1\000"
 15590      65743100 
 15591              	.LASF295:
 15592 17de 5048595F 		.ascii	"PHY_BEACON_CHANNEL_FREQ\000"
 15592      42454143 
 15592      4F4E5F43 
 15592      48414E4E 
 15592      454C5F46 
 15593              	.LASF282:
 15594 17f6 5048595F 		.ascii	"PHY_BEACON_INTERVAL\000"
 15594      42454143 
 15594      4F4E5F49 
 15594      4E544552 
 15594      56414C00 
 15595              	.LASF277:
 15596 180a 5048595F 		.ascii	"PHY_DEF_UPLINK_DWELL_TIME\000"
 15596      4445465F 
 15596      55504C49 
 15596      4E4B5F44 
 15596      57454C4C 
 15597              	.LASF309:
 15598 1824 4348414E 		.ascii	"CHANNELS_DEFAULT_MASK\000"
 15598      4E454C53 
 15598      5F444546 
 15598      41554C54 
 15598      5F4D4153 
 15599              	.LASF470:
 15600 183a 52656769 		.ascii	"RegionEU433AlternateDr\000"
 15600      6F6E4555 
 15600      34333341 
 15600      6C746572 
 15600      6E617465 
 15601              	.LASF268:
 15602 1851 5048595F 		.ascii	"PHY_MAX_FCNT_GAP\000"
 15602      4D41585F 
 15602      46434E54 
 15602      5F474150 
 15602      00
 15603              	.LASF332:
 15604 1862 73496E69 		.ascii	"sInitDefaultsParams\000"
 15604      74446566 
 15604      61756C74 
 15604      73506172 
 15604      616D7300 
ARM GAS  C:\Users\EBANO_~1\AppData\Local\Temp\ccpYmjAB.s 			page 321


 15605              	.LASF423:
 15606 1876 73526567 		.ascii	"sRegionCommonCalcBackOffParams\000"
 15606      696F6E43 
 15606      6F6D6D6F 
 15606      6E43616C 
 15606      63426163 
 15607              	.LASF136:
 15608 1895 5F696D70 		.ascii	"_impure_ptr\000"
 15608      7572655F 
 15608      70747200 
 15609              	.LASF75:
 15610 18a1 5F626C6B 		.ascii	"_blksize\000"
 15610      73697A65 
 15610      00
 15611              	.LASF459:
 15612 18aa 6E657874 		.ascii	"nextChanParams\000"
 15612      4368616E 
 15612      50617261 
 15612      6D7300
 15613              	.LASF452:
 15614 18b9 52656769 		.ascii	"RegionEU433ChannelAdd\000"
 15614      6F6E4555 
 15614      34333343 
 15614      68616E6E 
 15614      656C4164 
 15615              	.LASF73:
 15616 18cf 5F756275 		.ascii	"_ubuf\000"
 15616      6600
 15617              	.LASF492:
 15618 18d5 67657450 		.ascii	"getPhy\000"
 15618      687900
 15619              	.LASF279:
 15620 18dc 5048595F 		.ascii	"PHY_DEF_MAX_EIRP\000"
 15620      4445465F 
 15620      4D41585F 
 15620      45495250 
 15620      00
 15621              	.LASF119:
 15622 18ed 5F6D626C 		.ascii	"_mblen_state\000"
 15622      656E5F73 
 15622      74617465 
 15622      00
 15623              	.LASF101:
 15624 18fa 5F5F7367 		.ascii	"__sglue\000"
 15624      6C756500 
 15625              	.LASF135:
 15626 1902 5F5F6C6F 		.ascii	"__locale_t\000"
 15626      63616C65 
 15626      5F7400
 15627              	.LASF484:
 15628 190d 64724F75 		.ascii	"drOut\000"
 15628      7400
 15629              	.LASF91:
 15630 1913 5F5F636C 		.ascii	"__cleanup\000"
 15630      65616E75 
 15630      7000
 15631              	.LASF507:
ARM GAS  C:\Users\EBANO_~1\AppData\Local\Temp\ccpYmjAB.s 			page 322


 15632 191d 72784572 		.ascii	"rxError\000"
 15632      726F7200 
 15633              	.LASF214:
 15634 1925 52585F53 		.ascii	"RX_SLOT_WIN_1\000"
 15634      4C4F545F 
 15634      57494E5F 
 15634      3100
 15635              	.LASF215:
 15636 1933 52585F53 		.ascii	"RX_SLOT_WIN_2\000"
 15636      4C4F545F 
 15636      57494E5F 
 15636      3200
 15637              	.LASF302:
 15638 1941 65496E69 		.ascii	"eInitType\000"
 15638      74547970 
 15638      6500
 15639              	.LASF24:
 15640 194b 504C4C4D 		.ascii	"PLLMulTable\000"
 15640      756C5461 
 15640      626C6500 
 15641              	.LASF549:
 15642 1957 52656769 		.ascii	"RegionCommonCalcBackOff\000"
 15642      6F6E436F 
 15642      6D6D6F6E 
 15642      43616C63 
 15642      4261636B 
 15643              	.LASF29:
 15644 196f 5F66706F 		.ascii	"_fpos_t\000"
 15644      735F7400 
 15645              	.LASF515:
 15646 1977 6E657743 		.ascii	"newChannel\000"
 15646      68616E6E 
 15646      656C00
 15647              	.LASF329:
 15648 1982 4368616E 		.ascii	"Channel\000"
 15648      6E656C00 
 15649              	.LASF66:
 15650 198a 5F66696C 		.ascii	"_file\000"
 15650      6500
 15651              	.LASF208:
 15652 1990 73436861 		.ascii	"sChannelParams\000"
 15652      6E6E656C 
 15652      50617261 
 15652      6D7300
 15653              	.LASF64:
 15654 199f 5F5F7346 		.ascii	"__sFILE\000"
 15654      494C4500 
 15655              	.LASF501:
 15656 19a7 62616E64 		.ascii	"bandwidth\000"
 15656      77696474 
 15656      6800
 15657              	.LASF510:
 15658 19b1 646F7562 		.ascii	"double\000"
 15658      6C6500
 15659              	.LASF60:
 15660 19b8 5F666E73 		.ascii	"_fns\000"
 15660      00
ARM GAS  C:\Users\EBANO_~1\AppData\Local\Temp\ccpYmjAB.s 			page 323


 15661              	.LASF351:
 15662 19bd 4368616E 		.ascii	"ChannelsMaskType\000"
 15662      6E656C73 
 15662      4D61736B 
 15662      54797065 
 15662      00
 15663              	.LASF35:
 15664 19ce 5F6D6273 		.ascii	"_mbstate_t\000"
 15664      74617465 
 15664      5F7400
 15665              	.LASF130:
 15666 19d9 5F685F65 		.ascii	"_h_errno\000"
 15666      72726E6F 
 15666      00
 15667              	.LASF315:
 15668 19e2 42656163 		.ascii	"BeaconFormat_t\000"
 15668      6F6E466F 
 15668      726D6174 
 15668      5F7400
 15669              	.LASF8:
 15670 19f1 5F5F696E 		.ascii	"__int32_t\000"
 15670      7433325F 
 15670      7400
 15671              	.LASF503:
 15672 19fb 7278436F 		.ascii	"rxConfig\000"
 15672      6E666967 
 15672      00
 15673              	.LASF10:
 15674 1a04 5F5F7569 		.ascii	"__uint32_t\000"
 15674      6E743332 
 15674      5F7400
 15675              	.LASF269:
 15676 1a0f 5048595F 		.ascii	"PHY_ACK_TIMEOUT\000"
 15676      41434B5F 
 15676      54494D45 
 15676      4F555400 
 15677              	.LASF325:
 15678 1a1f 55706C69 		.ascii	"UplinkDwellTime\000"
 15678      6E6B4477 
 15678      656C6C54 
 15678      696D6500 
 15679              	.LASF509:
 15680 1a2f 7453796D 		.ascii	"tSymbol\000"
 15680      626F6C00 
 15681              	.LASF34:
 15682 1a37 5F5F7661 		.ascii	"__value\000"
 15682      6C756500 
 15683              	.LASF465:
 15684 1a3f 656E6162 		.ascii	"enabledChannels\000"
 15684      6C656443 
 15684      68616E6E 
 15684      656C7300 
 15685              	.LASF57:
 15686 1a4f 5F69735F 		.ascii	"_is_cxa\000"
 15686      63786100 
 15687              	.LASF235:
 15688 1a57 4C4F5241 		.ascii	"LORAMAC_STATUS_NO_CHANNEL_FOUND\000"
ARM GAS  C:\Users\EBANO_~1\AppData\Local\Temp\ccpYmjAB.s 			page 324


 15688      4D41435F 
 15688      53544154 
 15688      55535F4E 
 15688      4F5F4348 
 15689              	.LASF442:
 15690 1a77 646F776E 		.ascii	"downlinkDwellTime\000"
 15690      6C696E6B 
 15690      4477656C 
 15690      6C54696D 
 15690      6500
 15691              	.LASF94:
 15692 1a89 5F703573 		.ascii	"_p5s\000"
 15692      00
 15693              	.LASF341:
 15694 1a8e 5478506F 		.ascii	"TxPower\000"
 15694      77657200 
 15695              	.LASF163:
 15696 1a96 52465F54 		.ascii	"RF_TX_RUNNING\000"
 15696      585F5255 
 15696      4E4E494E 
 15696      4700
 15697              	.LASF261:
 15698 1aa4 5048595F 		.ascii	"PHY_MAX_PAYLOAD_REPEATER\000"
 15698      4D41585F 
 15698      5041594C 
 15698      4F41445F 
 15698      52455045 
 15699              	.LASF294:
 15700 1abd 5048595F 		.ascii	"PHY_BEACON_DELAY_BEACON_TIMING_ANS\000"
 15700      42454143 
 15700      4F4E5F44 
 15700      454C4159 
 15700      5F424541 
 15701              	.LASF354:
 15702 1ae0 42616E64 		.ascii	"Bandwidth\000"
 15702      77696474 
 15702      6800
 15703              	.LASF342:
 15704 1aea 44757479 		.ascii	"DutyCycle\000"
 15704      4379636C 
 15704      6500
 15705              	.LASF317:
 15706 1af4 6656616C 		.ascii	"fValue\000"
 15706      756500
 15707              	.LASF139:
 15708 1afb 54696D65 		.ascii	"TimerTime_t\000"
 15708      7254696D 
 15708      655F7400 
 15709              	.LASF410:
 15710 1b07 73526567 		.ascii	"sRegionCommonLinkAdrParams\000"
 15710      696F6E43 
 15710      6F6D6D6F 
 15710      6E4C696E 
 15710      6B416472 
 15711              	.LASF359:
 15712 1b22 5278436F 		.ascii	"RxContinuous\000"
 15712      6E74696E 
ARM GAS  C:\Users\EBANO_~1\AppData\Local\Temp\ccpYmjAB.s 			page 325


 15712      756F7573 
 15712      00
 15713              	.LASF305:
 15714 1b2f 494E4954 		.ascii	"INIT_TYPE_RESTORE_CTX\000"
 15714      5F545950 
 15714      455F5245 
 15714      53544F52 
 15714      455F4354 
 15715              	.LASF425:
 15716 1b45 52656769 		.ascii	"RegionCommonCalcBackOffParams_t\000"
 15716      6F6E436F 
 15716      6D6D6F6E 
 15716      43616C63 
 15716      4261636B 
 15717              	.LASF445:
 15718 1b65 52656769 		.ascii	"RegionEU433RxBeaconSetup\000"
 15718      6F6E4555 
 15718      34333352 
 15718      78426561 
 15718      636F6E53 
 15719              	.LASF252:
 15720 1b7e 5048595F 		.ascii	"PHY_TX_DR\000"
 15720      54585F44 
 15720      5200
 15721              	.LASF496:
 15722 1b88 7478436F 		.ascii	"txConfig\000"
 15722      6E666967 
 15722      00
 15723              	.LASF388:
 15724 1b91 416C7465 		.ascii	"AlternateDrType_t\000"
 15724      726E6174 
 15724      65447254 
 15724      7970655F 
 15724      7400
 15725              	.LASF155:
 15726 1ba3 5F74696D 		.ascii	"_timezone\000"
 15726      657A6F6E 
 15726      6500
 15727              	.LASF250:
 15728 1bad 5048595F 		.ascii	"PHY_MAX_RX_DR\000"
 15728      4D41585F 
 15728      52585F44 
 15728      5200
 15729              	.LASF192:
 15730 1bbb 52737369 		.ascii	"Rssi\000"
 15730      00
 15731              	.LASF159:
 15732 1bc0 4D4F4445 		.ascii	"MODEM_LORA\000"
 15732      4D5F4C4F 
 15732      524100
 15733              	.LASF13:
 15734 1bcb 6C6F6E67 		.ascii	"long long unsigned int\000"
 15734      206C6F6E 
 15734      6720756E 
 15734      7369676E 
 15734      65642069 
 15735              	.LASF542:
ARM GAS  C:\Users\EBANO_~1\AppData\Local\Temp\ccpYmjAB.s 			page 326


 15736 1be2 52656769 		.ascii	"RegionCommonRxBeaconSetup\000"
 15736      6F6E436F 
 15736      6D6D6F6E 
 15736      52784265 
 15736      61636F6E 
 15737              	.LASF494:
 15738 1bfc 6C696E6B 		.ascii	"linkAdrVerifyParams\000"
 15738      41647256 
 15738      65726966 
 15738      79506172 
 15738      616D7300 
 15739              	.LASF116:
 15740 1c10 5F67616D 		.ascii	"_gamma_signgam\000"
 15740      6D615F73 
 15740      69676E67 
 15740      616D00
 15741              	.LASF151:
 15742 1c1f 4C617374 		.ascii	"LastJoinTxDoneTime\000"
 15742      4A6F696E 
 15742      5478446F 
 15742      6E655469 
 15742      6D6500
 15743              	.LASF177:
 15744 1c32 496E6974 		.ascii	"Init\000"
 15744      00
 15745              	.LASF439:
 15746 1c37 72784265 		.ascii	"rxBeaconSetup\000"
 15746      61636F6E 
 15746      53657475 
 15746      7000
 15747              	.LASF401:
 15748 1c45 73436861 		.ascii	"sChannelRemoveParams\000"
 15748      6E6E656C 
 15748      52656D6F 
 15748      76655061 
 15748      72616D73 
 15749              	.LASF403:
 15750 1c5a 73436F6E 		.ascii	"sContinuousWaveParams\000"
 15750      74696E75 
 15750      6F757357 
 15750      61766550 
 15750      6172616D 
 15751              	.LASF244:
 15752 1c70 4C4F5241 		.ascii	"LORAMAC_STATUS_CONFIRM_QUEUE_ERROR\000"
 15752      4D41435F 
 15752      53544154 
 15752      55535F43 
 15752      4F4E4649 
 15753              	.LASF273:
 15754 1c93 5048595F 		.ascii	"PHY_CHANNELS_MASK\000"
 15754      4348414E 
 15754      4E454C53 
 15754      5F4D4153 
 15754      4B00
 15755              	.LASF143:
 15756 1ca5 4D616A6F 		.ascii	"Major\000"
 15756      7200
ARM GAS  C:\Users\EBANO_~1\AppData\Local\Temp\ccpYmjAB.s 			page 327


 15757              	.LASF209:
 15758 1cab 46726571 		.ascii	"Frequency\000"
 15758      75656E63 
 15758      7900
 15759              	.LASF530:
 15760 1cb5 64656C61 		.ascii	"delayTransmission\000"
 15760      79547261 
 15760      6E736D69 
 15760      7373696F 
 15760      6E00
 15761              	.LASF438:
 15762 1cc7 52656769 		.ascii	"RegionEU433NvmCtx_t\000"
 15762      6F6E4555 
 15762      3433334E 
 15762      766D4374 
 15762      785F7400 
 15763              	.LASF137:
 15764 1cdb 5F676C6F 		.ascii	"_global_impure_ptr\000"
 15764      62616C5F 
 15764      696D7075 
 15764      72655F70 
 15764      747200
 15765              	.LASF407:
 15766 1cee 53796D62 		.ascii	"SymbolTimeout\000"
 15766      6F6C5469 
 15766      6D656F75 
 15766      7400
 15767              	.LASF88:
 15768 1cfc 5F756E73 		.ascii	"_unspecified_locale_info\000"
 15768      70656369 
 15768      66696564 
 15768      5F6C6F63 
 15768      616C655F 
 15769              	.LASF378:
 15770 1d15 4E657743 		.ascii	"NewChannel\000"
 15770      68616E6E 
 15770      656C00
 15771              	.LASF529:
 15772 1d20 6368616E 		.ascii	"channels\000"
 15772      6E656C73 
 15772      00
 15773              	.LASF304:
 15774 1d29 494E4954 		.ascii	"INIT_TYPE_RESTORE_DEFAULT_CHANNELS\000"
 15774      5F545950 
 15774      455F5245 
 15774      53544F52 
 15774      455F4445 
 15775              	.LASF434:
 15776 1d4c 4D617850 		.ascii	"MaxPayloadOfDatarateEU433\000"
 15776      61796C6F 
 15776      61644F66 
 15776      44617461 
 15776      72617465 
 15777              	.LASF90:
 15778 1d66 5F5F7364 		.ascii	"__sdidinit\000"
 15778      6964696E 
 15778      697400
ARM GAS  C:\Users\EBANO_~1\AppData\Local\Temp\ccpYmjAB.s 			page 328


 15779              	.LASF477:
 15780 1d71 74785061 		.ascii	"txParamSetupReq\000"
 15780      72616D53 
 15780      65747570 
 15780      52657100 
 15781              	.LASF318:
 15782 1d81 4368616E 		.ascii	"ChannelsMask\000"
 15782      6E656C73 
 15782      4D61736B 
 15782      00
 15783              	.LASF187:
 15784 1d8e 53656E64 		.ascii	"Send\000"
 15784      00
 15785              	.LASF300:
 15786 1d93 5048595F 		.ascii	"PHY_PING_SLOT_CHANNEL_DR\000"
 15786      50494E47 
 15786      5F534C4F 
 15786      545F4348 
 15786      414E4E45 
 15787              	.LASF324:
 15788 1dac 44617461 		.ascii	"Datarate\000"
 15788      72617465 
 15788      00
 15789              	.LASF36:
 15790 1db5 5F666C6F 		.ascii	"_flock_t\000"
 15790      636B5F74 
 15790      00
 15791              	.LASF541:
 15792 1dbe 6E657874 		.ascii	"nextLowerDr\000"
 15792      4C6F7765 
 15792      72447200 
 15793              	.LASF239:
 15794 1dca 4C4F5241 		.ascii	"LORAMAC_STATUS_BUSY_UPLINK_COLLISION\000"
 15794      4D41435F 
 15794      53544154 
 15794      55535F42 
 15794      5553595F 
 15795              	.LASF499:
 15796 1def 6D6F6465 		.ascii	"modem\000"
 15796      6D00
 15797              	.LASF173:
 15798 1df5 52616469 		.ascii	"RadioEvents_t\000"
 15798      6F457665 
 15798      6E74735F 
 15798      7400
 15799              	.LASF488:
 15800 1e03 6C696E6B 		.ascii	"linkAdrParams\000"
 15800      41647250 
 15800      6172616D 
 15800      7300
 15801              	.LASF441:
 15802 1e11 72656769 		.ascii	"regionCommonRxBeaconSetup\000"
 15802      6F6E436F 
 15802      6D6D6F6E 
 15802      52784265 
 15802      61636F6E 
 15803              	.LASF246:
ARM GAS  C:\Users\EBANO_~1\AppData\Local\Temp\ccpYmjAB.s 			page 329


 15804 1e2b 4C6F5261 		.ascii	"LoRaMacStatus_t\000"
 15804      4D616353 
 15804      74617475 
 15804      735F7400 
 15805              	.LASF373:
 15806 1e3b 43757272 		.ascii	"CurrentNbRep\000"
 15806      656E744E 
 15806      62526570 
 15806      00
 15807              	.LASF451:
 15808 1e48 52656769 		.ascii	"RegionEU433ChannelsRemove\000"
 15808      6F6E4555 
 15808      34333343 
 15808      68616E6E 
 15808      656C7352 
 15809              	.LASF12:
 15810 1e62 6C6F6E67 		.ascii	"long long int\000"
 15810      206C6F6E 
 15810      6720696E 
 15810      7400
 15811              	.LASF229:
 15812 1e70 4C4F5241 		.ascii	"LORAMAC_STATUS_FREQ_AND_DR_INVALID\000"
 15812      4D41435F 
 15812      53544154 
 15812      55535F46 
 15812      5245515F 
 15813              	.LASF243:
 15814 1e93 4C4F5241 		.ascii	"LORAMAC_STATUS_CLASS_B_ERROR\000"
 15814      4D41435F 
 15814      53544154 
 15814      55535F43 
 15814      4C415353 
 15815              	.LASF80:
 15816 1eb0 5F666C61 		.ascii	"_flags2\000"
 15816      67733200 
 15817              	.LASF293:
 15818 1eb8 5048595F 		.ascii	"PHY_MAX_BEACON_LESS_PERIOD\000"
 15818      4D41585F 
 15818      42454143 
 15818      4F4E5F4C 
 15818      4553535F 
 15819              	.LASF172:
 15820 1ed3 43616444 		.ascii	"CadDone\000"
 15820      6F6E6500 
 15821              	.LASF89:
 15822 1edb 5F6C6F63 		.ascii	"_locale\000"
 15822      616C6500 
 15823              	.LASF228:
 15824 1ee3 4C4F5241 		.ascii	"LORAMAC_STATUS_DATARATE_INVALID\000"
 15824      4D41435F 
 15824      53544154 
 15824      55535F44 
 15824      41544152 
 15825              	.LASF349:
 15826 1f03 73436861 		.ascii	"sChanMaskSetParams\000"
 15826      6E4D6173 
 15826      6B536574 
ARM GAS  C:\Users\EBANO_~1\AppData\Local\Temp\ccpYmjAB.s 			page 330


 15826      50617261 
 15826      6D7300
 15827              	.LASF22:
 15828 1f16 41484250 		.ascii	"AHBPrescTable\000"
 15828      72657363 
 15828      5461626C 
 15828      6500
 15829              	.LASF276:
 15830 1f24 5048595F 		.ascii	"PHY_CHANNELS\000"
 15830      4348414E 
 15830      4E454C53 
 15830      00
 15831              	.LASF469:
 15832 1f31 63616C63 		.ascii	"calcBackOffParams\000"
 15832      4261636B 
 15832      4F666650 
 15832      6172616D 
 15832      7300
 15833              	.LASF333:
 15834 1f43 4E766D43 		.ascii	"NvmCtx\000"
 15834      747800
 15835              	.LASF540:
 15836 1f4a 6D696E44 		.ascii	"minDr\000"
 15836      7200
 15837              	.LASF409:
 15838 1f50 52784265 		.ascii	"RxBeaconSetup_t\000"
 15838      61636F6E 
 15838      53657475 
 15838      705F7400 
 15839              	.LASF204:
 15840 1f60 73466965 		.ascii	"sFields\000"
 15840      6C647300 
 15841              	.LASF556:
 15842 1f68 52656769 		.ascii	"RegionCommonComputeRxWindowParameters\000"
 15842      6F6E436F 
 15842      6D6D6F6E 
 15842      436F6D70 
 15842      75746552 
 15843              	.LASF199:
 15844 1f8e 47657457 		.ascii	"GetWakeupTime\000"
 15844      616B6575 
 15844      7054696D 
 15844      6500
 15845              	.LASF395:
 15846 1f9c 734E6578 		.ascii	"sNextChanParams\000"
 15846      74436861 
 15846      6E506172 
 15846      616D7300 
 15847              	.LASF431:
 15848 1fac 4C6F5261 		.ascii	"LoRaMacMaxEirpTable\000"
 15848      4D61634D 
 15848      61784569 
 15848      72705461 
 15848      626C6500 
 15849              	.LASF383:
 15850 1fc0 73446C43 		.ascii	"sDlChannelReqParams\000"
 15850      68616E6E 
ARM GAS  C:\Users\EBANO_~1\AppData\Local\Temp\ccpYmjAB.s 			page 331


 15850      656C5265 
 15850      71506172 
 15850      616D7300 
 15851              	.LASF374:
 15852 1fd4 4C696E6B 		.ascii	"LinkAdrReqParams_t\000"
 15852      41647252 
 15852      65715061 
 15852      72616D73 
 15852      5F7400
 15853              	.LASF453:
 15854 1fe7 6368616E 		.ascii	"channelRemove\000"
 15854      6E656C52 
 15854      656D6F76 
 15854      6500
 15855              	.LASF104:
 15856 1ff5 5F5F4649 		.ascii	"__FILE\000"
 15856      4C4500
 15857              	.LASF217:
 15858 1ffc 52585F53 		.ascii	"RX_SLOT_WIN_PING_SLOT\000"
 15858      4C4F545F 
 15858      57494E5F 
 15858      50494E47 
 15858      5F534C4F 
 15859              	.LASF449:
 15860 2012 66726571 		.ascii	"frequency\000"
 15860      75656E63 
 15860      7900
 15861              	.LASF340:
 15862 201c 75566572 		.ascii	"uVerifyParams\000"
 15862      69667950 
 15862      6172616D 
 15862      7300
 15863              	.LASF238:
 15864 202a 4C4F5241 		.ascii	"LORAMAC_STATUS_BUSY_PING_SLOT_WINDOW_TIME\000"
 15864      4D41435F 
 15864      53544154 
 15864      55535F42 
 15864      5553595F 
 15865              	.LASF40:
 15866 2054 5F736967 		.ascii	"_sign\000"
 15866      6E00
 15867              	.LASF0:
 15868 205a 5F5F696E 		.ascii	"__int8_t\000"
 15868      74385F74 
 15868      00
 15869              	.LASF45:
 15870 2063 5F5F746D 		.ascii	"__tm_min\000"
 15870      5F6D696E 
 15870      00
 15871              	.LASF344:
 15872 206c 56657269 		.ascii	"VerifyParams_t\000"
 15872      66795061 
 15872      72616D73 
 15872      5F7400
 15873              	.LASF480:
 15874 207b 52656769 		.ascii	"RegionEU433RxParamSetupReq\000"
 15874      6F6E4555 
ARM GAS  C:\Users\EBANO_~1\AppData\Local\Temp\ccpYmjAB.s 			page 332


 15874      34333352 
 15874      78506172 
 15874      616D5365 
 15875              	.LASF14:
 15876 2096 756E7369 		.ascii	"unsigned int\000"
 15876      676E6564 
 15876      20696E74 
 15876      00
 15877              	.LASF118:
 15878 20a3 5F723438 		.ascii	"_r48\000"
 15878      00
 15879              	.LASF145:
 15880 20a8 56616C75 		.ascii	"Value\000"
 15880      6500
 15881              	.LASF225:
 15882 20ae 4C4F5241 		.ascii	"LORAMAC_STATUS_SERVICE_UNKNOWN\000"
 15882      4D41435F 
 15882      53544154 
 15882      55535F53 
 15882      45525649 
 15883              	.LASF366:
 15884 20cd 5478436F 		.ascii	"TxConfigParams_t\000"
 15884      6E666967 
 15884      50617261 
 15884      6D735F74 
 15884      00
 15885              	.LASF233:
 15886 20de 4C4F5241 		.ascii	"LORAMAC_STATUS_SKIPPED_APP_DATA\000"
 15886      4D41435F 
 15886      53544154 
 15886      55535F53 
 15886      4B495050 
 15887              	.LASF443:
 15888 20fe 64724F66 		.ascii	"drOffset\000"
 15888      66736574 
 15888      00
 15889              	.LASF5:
 15890 2107 73686F72 		.ascii	"short int\000"
 15890      7420696E 
 15890      7400
 15891              	.LASF291:
 15892 2111 5048595F 		.ascii	"PHY_BEACON_SYMBOL_TO_EXPANSION_FACTOR\000"
 15892      42454143 
 15892      4F4E5F53 
 15892      594D424F 
 15892      4C5F544F 
 15893              	.LASF183:
 15894 2137 53657452 		.ascii	"SetRxConfig\000"
 15894      78436F6E 
 15894      66696700 
 15895              	.LASF69:
 15896 2143 5F726561 		.ascii	"_read\000"
 15896      6400
 15897              	.LASF456:
 15898 2149 66726571 		.ascii	"freqInvalid\000"
 15898      496E7661 
 15898      6C696400 
ARM GAS  C:\Users\EBANO_~1\AppData\Local\Temp\ccpYmjAB.s 			page 333


 15899              	.LASF550:
 15900 2155 52656769 		.ascii	"RegionCommonChanDisable\000"
 15900      6F6E436F 
 15900      6D6D6F6E 
 15900      4368616E 
 15900      44697361 
 15901              	.LASF108:
 15902 216d 5F72616E 		.ascii	"_rand48\000"
 15902      64343800 
 15903              	.LASF455:
 15904 2175 6472496E 		.ascii	"drInvalid\000"
 15904      76616C69 
 15904      6400
 15905              	.LASF390:
 15906 217f 4C617374 		.ascii	"LastTxIsJoinRequest\000"
 15906      54784973 
 15906      4A6F696E 
 15906      52657175 
 15906      65737400 
 15907              		.ident	"GCC: (GNU Tools for Arm Embedded Processors 7-2018-q2-update) 7.3.1 20180622 (release) [AR
ARM GAS  C:\Users\EBANO_~1\AppData\Local\Temp\ccpYmjAB.s 			page 334


DEFINED SYMBOLS
                            *ABS*:00000000 RegionEU433.c
C:\Users\EBANO_~1\AppData\Local\Temp\ccpYmjAB.s:16     .text.RegionEU433GetPhyParam:00000000 $t
C:\Users\EBANO_~1\AppData\Local\Temp\ccpYmjAB.s:24     .text.RegionEU433GetPhyParam:00000000 RegionEU433GetPhyParam
C:\Users\EBANO_~1\AppData\Local\Temp\ccpYmjAB.s:55     .rodata:00000000 $d
C:\Users\EBANO_~1\AppData\Local\Temp\ccpYmjAB.s:281    .text.RegionEU433GetPhyParam:000000d4 $d
C:\Users\EBANO_~1\AppData\Local\Temp\ccpYmjAB.s:3804   .bss:00000000 NvmCtx
C:\Users\EBANO_~1\AppData\Local\Temp\ccpYmjAB.s:298    .text.RegionEU433SetBandTxDone:00000000 $t
C:\Users\EBANO_~1\AppData\Local\Temp\ccpYmjAB.s:306    .text.RegionEU433SetBandTxDone:00000000 RegionEU433SetBandTxDone
C:\Users\EBANO_~1\AppData\Local\Temp\ccpYmjAB.s:342    .text.RegionEU433SetBandTxDone:00000020 $d
C:\Users\EBANO_~1\AppData\Local\Temp\ccpYmjAB.s:347    .text.RegionEU433InitDefaults:00000000 $t
C:\Users\EBANO_~1\AppData\Local\Temp\ccpYmjAB.s:355    .text.RegionEU433InitDefaults:00000000 RegionEU433InitDefaults
C:\Users\EBANO_~1\AppData\Local\Temp\ccpYmjAB.s:467    .text.RegionEU433InitDefaults:00000088 $d
C:\Users\EBANO_~1\AppData\Local\Temp\ccpYmjAB.s:474    .text.RegionEU433GetNvmCtx:00000000 $t
C:\Users\EBANO_~1\AppData\Local\Temp\ccpYmjAB.s:482    .text.RegionEU433GetNvmCtx:00000000 RegionEU433GetNvmCtx
C:\Users\EBANO_~1\AppData\Local\Temp\ccpYmjAB.s:503    .text.RegionEU433GetNvmCtx:00000008 $d
C:\Users\EBANO_~1\AppData\Local\Temp\ccpYmjAB.s:508    .text.RegionEU433Verify:00000000 $t
C:\Users\EBANO_~1\AppData\Local\Temp\ccpYmjAB.s:516    .text.RegionEU433Verify:00000000 RegionEU433Verify
C:\Users\EBANO_~1\AppData\Local\Temp\ccpYmjAB.s:600    .text.RegionEU433Verify:00000044 $d
C:\Users\EBANO_~1\AppData\Local\Temp\ccpYmjAB.s:605    .text.RegionEU433ApplyCFList:00000000 $t
C:\Users\EBANO_~1\AppData\Local\Temp\ccpYmjAB.s:613    .text.RegionEU433ApplyCFList:00000000 RegionEU433ApplyCFList
C:\Users\EBANO_~1\AppData\Local\Temp\ccpYmjAB.s:883    .text.RegionEU433ApplyCFList:00000130 $d
C:\Users\EBANO_~1\AppData\Local\Temp\ccpYmjAB.s:897    .text.RegionEU433ChanMaskSet:00000000 $t
C:\Users\EBANO_~1\AppData\Local\Temp\ccpYmjAB.s:905    .text.RegionEU433ChanMaskSet:00000000 RegionEU433ChanMaskSet
C:\Users\EBANO_~1\AppData\Local\Temp\ccpYmjAB.s:959    .text.RegionEU433ChanMaskSet:0000002c $d
C:\Users\EBANO_~1\AppData\Local\Temp\ccpYmjAB.s:965    .text.RegionEU433ComputeRxWindowParameters:00000000 $t
C:\Users\EBANO_~1\AppData\Local\Temp\ccpYmjAB.s:973    .text.RegionEU433ComputeRxWindowParameters:00000000 RegionEU433ComputeRxWindowParameters
C:\Users\EBANO_~1\AppData\Local\Temp\ccpYmjAB.s:1109   .text.RegionEU433ComputeRxWindowParameters:00000084 $d
C:\Users\EBANO_~1\AppData\Local\Temp\ccpYmjAB.s:1117   .text.RegionEU433RxConfig:00000000 $t
C:\Users\EBANO_~1\AppData\Local\Temp\ccpYmjAB.s:1125   .text.RegionEU433RxConfig:00000000 RegionEU433RxConfig
C:\Users\EBANO_~1\AppData\Local\Temp\ccpYmjAB.s:1334   .text.RegionEU433RxConfig:000000f4 $d
C:\Users\EBANO_~1\AppData\Local\Temp\ccpYmjAB.s:1344   .text.RegionEU433TxConfig:00000000 $t
C:\Users\EBANO_~1\AppData\Local\Temp\ccpYmjAB.s:1352   .text.RegionEU433TxConfig:00000000 RegionEU433TxConfig
C:\Users\EBANO_~1\AppData\Local\Temp\ccpYmjAB.s:1620   .text.RegionEU433TxConfig:00000120 $d
C:\Users\EBANO_~1\AppData\Local\Temp\ccpYmjAB.s:1631   .text.RegionEU433LinkAdrReq:00000000 $t
C:\Users\EBANO_~1\AppData\Local\Temp\ccpYmjAB.s:1639   .text.RegionEU433LinkAdrReq:00000000 RegionEU433LinkAdrReq
C:\Users\EBANO_~1\AppData\Local\Temp\ccpYmjAB.s:2289   .text.RegionEU433LinkAdrReq:000002f8 $d
C:\Users\EBANO_~1\AppData\Local\Temp\ccpYmjAB.s:2295   .text.RegionEU433RxParamSetupReq:00000000 $t
C:\Users\EBANO_~1\AppData\Local\Temp\ccpYmjAB.s:2303   .text.RegionEU433RxParamSetupReq:00000000 RegionEU433RxParamSetupReq
C:\Users\EBANO_~1\AppData\Local\Temp\ccpYmjAB.s:2413   .text.RegionEU433RxParamSetupReq:00000058 $d
C:\Users\EBANO_~1\AppData\Local\Temp\ccpYmjAB.s:2420   .text.RegionEU433NewChannelReq:00000000 $t
C:\Users\EBANO_~1\AppData\Local\Temp\ccpYmjAB.s:2428   .text.RegionEU433NewChannelReq:00000000 RegionEU433NewChannelReq
C:\Users\EBANO_~1\AppData\Local\Temp\ccpYmjAB.s:2669   .text.RegionEU433NewChannelReq:000000f8 $d
C:\Users\EBANO_~1\AppData\Local\Temp\ccpYmjAB.s:2677   .text.RegionEU433TxParamSetupReq:00000000 $t
C:\Users\EBANO_~1\AppData\Local\Temp\ccpYmjAB.s:2685   .text.RegionEU433TxParamSetupReq:00000000 RegionEU433TxParamSetupReq
C:\Users\EBANO_~1\AppData\Local\Temp\ccpYmjAB.s:2704   .text.RegionEU433DlChannelReq:00000000 $t
C:\Users\EBANO_~1\AppData\Local\Temp\ccpYmjAB.s:2712   .text.RegionEU433DlChannelReq:00000000 RegionEU433DlChannelReq
C:\Users\EBANO_~1\AppData\Local\Temp\ccpYmjAB.s:2813   .text.RegionEU433DlChannelReq:00000060 $d
C:\Users\EBANO_~1\AppData\Local\Temp\ccpYmjAB.s:2821   .text.RegionEU433AlternateDr:00000000 $t
C:\Users\EBANO_~1\AppData\Local\Temp\ccpYmjAB.s:2829   .text.RegionEU433AlternateDr:00000000 RegionEU433AlternateDr
C:\Users\EBANO_~1\AppData\Local\Temp\ccpYmjAB.s:2844   .text.RegionEU433CalcBackOff:00000000 $t
C:\Users\EBANO_~1\AppData\Local\Temp\ccpYmjAB.s:2852   .text.RegionEU433CalcBackOff:00000000 RegionEU433CalcBackOff
C:\Users\EBANO_~1\AppData\Local\Temp\ccpYmjAB.s:2909   .text.RegionEU433CalcBackOff:00000030 $d
C:\Users\EBANO_~1\AppData\Local\Temp\ccpYmjAB.s:2914   .text.RegionEU433NextChannel:00000000 $t
C:\Users\EBANO_~1\AppData\Local\Temp\ccpYmjAB.s:2922   .text.RegionEU433NextChannel:00000000 RegionEU433NextChannel
C:\Users\EBANO_~1\AppData\Local\Temp\ccpYmjAB.s:3310   .text.RegionEU433NextChannel:000001b4 $d
C:\Users\EBANO_~1\AppData\Local\Temp\ccpYmjAB.s:3316   .text.RegionEU433ChannelAdd:00000000 $t
ARM GAS  C:\Users\EBANO_~1\AppData\Local\Temp\ccpYmjAB.s 			page 335


C:\Users\EBANO_~1\AppData\Local\Temp\ccpYmjAB.s:3324   .text.RegionEU433ChannelAdd:00000000 RegionEU433ChannelAdd
C:\Users\EBANO_~1\AppData\Local\Temp\ccpYmjAB.s:3520   .text.RegionEU433ChannelAdd:000000c8 $d
C:\Users\EBANO_~1\AppData\Local\Temp\ccpYmjAB.s:3528   .text.RegionEU433ChannelsRemove:00000000 $t
C:\Users\EBANO_~1\AppData\Local\Temp\ccpYmjAB.s:3536   .text.RegionEU433ChannelsRemove:00000000 RegionEU433ChannelsRemove
C:\Users\EBANO_~1\AppData\Local\Temp\ccpYmjAB.s:3584   .text.RegionEU433ChannelsRemove:0000002c $d
C:\Users\EBANO_~1\AppData\Local\Temp\ccpYmjAB.s:3589   .text.RegionEU433SetContinuousWave:00000000 $t
C:\Users\EBANO_~1\AppData\Local\Temp\ccpYmjAB.s:3597   .text.RegionEU433SetContinuousWave:00000000 RegionEU433SetContinuousWave
C:\Users\EBANO_~1\AppData\Local\Temp\ccpYmjAB.s:3687   .text.RegionEU433SetContinuousWave:00000048 $d
C:\Users\EBANO_~1\AppData\Local\Temp\ccpYmjAB.s:3693   .text.RegionEU433ApplyDrOffset:00000000 $t
C:\Users\EBANO_~1\AppData\Local\Temp\ccpYmjAB.s:3701   .text.RegionEU433ApplyDrOffset:00000000 RegionEU433ApplyDrOffset
C:\Users\EBANO_~1\AppData\Local\Temp\ccpYmjAB.s:3727   .text.RegionEU433RxBeaconSetup:00000000 $t
C:\Users\EBANO_~1\AppData\Local\Temp\ccpYmjAB.s:3735   .text.RegionEU433RxBeaconSetup:00000000 RegionEU433RxBeaconSetup
C:\Users\EBANO_~1\AppData\Local\Temp\ccpYmjAB.s:3795   .text.RegionEU433RxBeaconSetup:00000030 $d
C:\Users\EBANO_~1\AppData\Local\Temp\ccpYmjAB.s:3801   .bss:00000000 $d
C:\Users\EBANO_~1\AppData\Local\Temp\ccpYmjAB.s:3811   .rodata:000000d8 BandwidthsEU433
C:\Users\EBANO_~1\AppData\Local\Temp\ccpYmjAB.s:3822   .rodata:000000f8 DataratesEU433
C:\Users\EBANO_~1\AppData\Local\Temp\ccpYmjAB.s:3835   .rodata:00000100 MaxPayloadOfDatarateEU433
C:\Users\EBANO_~1\AppData\Local\Temp\ccpYmjAB.s:3846   .rodata:00000108 MaxPayloadOfDatarateRepeaterEU433

UNDEFINED SYMBOLS
randr
RegionCommonSetBandTxDone
memcpy1
RegionCommonChanMaskCopy
RegionCommonValueInRange
memset
RegionCommonChanDisable
Radio
RegionCommonComputeSymbolTimeLoRa
RegionCommonComputeRxWindowParameters
RegionCommonComputeSymbolTimeFsk
RegionCommonComputeTxPower
RegionCommonParseLinkAdrReq
RegionCommonLinkAdrReqVerifyParams
memset1
RegionCommonCalcBackOff
RegionCommonCountChannels
TimerGetElapsedTime
RegionCommonUpdateBandTimeOff
RegionCommonRxBeaconSetup
