ARM GAS  C:\Users\EBANO_~1\AppData\Local\Temp\ccpYmjAB.s 			page 1


   1              		.cpu cortex-m0plus
   2              		.eabi_attribute 20, 1
   3              		.eabi_attribute 21, 1
   4              		.eabi_attribute 23, 3
   5              		.eabi_attribute 24, 1
   6              		.eabi_attribute 25, 1
   7              		.eabi_attribute 26, 1
   8              		.eabi_attribute 30, 2
   9              		.eabi_attribute 34, 0
  10              		.eabi_attribute 18, 4
  11              		.file	"RegionEU433.c"
  12              		.text
  13              	.Ltext0:
  14              		.cfi_sections	.debug_frame
  15              		.section	.text.RegionEU433GetPhyParam,"ax",%progbits
  16              		.align	1
  17              		.p2align 2,,3
  18              		.global	RegionEU433GetPhyParam
  19              		.syntax unified
  20              		.code	16
  21              		.thumb_func
  22              		.fpu softvfp
  23              		.type	RegionEU433GetPhyParam, %function
  24              	RegionEU433GetPhyParam:
  25              	.LFB44:
  26              		.file 1 "../../../../../../Middlewares/Third_Party/LoRaWAN/Mac/region/RegionEU433.c"
   1:../../../../../../Middlewares/Third_Party/LoRaWAN/Mac/region/RegionEU433.c **** /*!
   2:../../../../../../Middlewares/Third_Party/LoRaWAN/Mac/region/RegionEU433.c ****  * \file      RegionEU433.c
   3:../../../../../../Middlewares/Third_Party/LoRaWAN/Mac/region/RegionEU433.c ****  *
   4:../../../../../../Middlewares/Third_Party/LoRaWAN/Mac/region/RegionEU433.c ****  * \brief     Region implementation for EU433
   5:../../../../../../Middlewares/Third_Party/LoRaWAN/Mac/region/RegionEU433.c ****  *
   6:../../../../../../Middlewares/Third_Party/LoRaWAN/Mac/region/RegionEU433.c ****  * \copyright Revised BSD License, see section \ref LICENSE.
   7:../../../../../../Middlewares/Third_Party/LoRaWAN/Mac/region/RegionEU433.c ****  *
   8:../../../../../../Middlewares/Third_Party/LoRaWAN/Mac/region/RegionEU433.c ****  * \code
   9:../../../../../../Middlewares/Third_Party/LoRaWAN/Mac/region/RegionEU433.c ****  *                ______                              _
  10:../../../../../../Middlewares/Third_Party/LoRaWAN/Mac/region/RegionEU433.c ****  *               / _____)             _              | |
  11:../../../../../../Middlewares/Third_Party/LoRaWAN/Mac/region/RegionEU433.c ****  *              ( (____  _____ ____ _| |_ _____  ____| |__
  12:../../../../../../Middlewares/Third_Party/LoRaWAN/Mac/region/RegionEU433.c ****  *               \____ \| ___ |    (_   _) ___ |/ ___)  _ \
  13:../../../../../../Middlewares/Third_Party/LoRaWAN/Mac/region/RegionEU433.c ****  *               _____) ) ____| | | || |_| ____( (___| | | |
  14:../../../../../../Middlewares/Third_Party/LoRaWAN/Mac/region/RegionEU433.c ****  *              (______/|_____)_|_|_| \__)_____)\____)_| |_|
  15:../../../../../../Middlewares/Third_Party/LoRaWAN/Mac/region/RegionEU433.c ****  *              (C)2013-2017 Semtech
  16:../../../../../../Middlewares/Third_Party/LoRaWAN/Mac/region/RegionEU433.c ****  *
  17:../../../../../../Middlewares/Third_Party/LoRaWAN/Mac/region/RegionEU433.c ****  *               ___ _____ _   ___ _  _____ ___  ___  ___ ___
  18:../../../../../../Middlewares/Third_Party/LoRaWAN/Mac/region/RegionEU433.c ****  *              / __|_   _/_\ / __| |/ / __/ _ \| _ \/ __| __|
  19:../../../../../../Middlewares/Third_Party/LoRaWAN/Mac/region/RegionEU433.c ****  *              \__ \ | |/ _ \ (__| ' <| _| (_) |   / (__| _|
  20:../../../../../../Middlewares/Third_Party/LoRaWAN/Mac/region/RegionEU433.c ****  *              |___/ |_/_/ \_\___|_|\_\_| \___/|_|_\\___|___|
  21:../../../../../../Middlewares/Third_Party/LoRaWAN/Mac/region/RegionEU433.c ****  *              embedded.connectivity.solutions===============
  22:../../../../../../Middlewares/Third_Party/LoRaWAN/Mac/region/RegionEU433.c ****  *
  23:../../../../../../Middlewares/Third_Party/LoRaWAN/Mac/region/RegionEU433.c ****  * \endcode
  24:../../../../../../Middlewares/Third_Party/LoRaWAN/Mac/region/RegionEU433.c ****  *
  25:../../../../../../Middlewares/Third_Party/LoRaWAN/Mac/region/RegionEU433.c ****  * \author    Miguel Luis ( Semtech )
  26:../../../../../../Middlewares/Third_Party/LoRaWAN/Mac/region/RegionEU433.c ****  *
  27:../../../../../../Middlewares/Third_Party/LoRaWAN/Mac/region/RegionEU433.c ****  * \author    Gregory Cristian ( Semtech )
  28:../../../../../../Middlewares/Third_Party/LoRaWAN/Mac/region/RegionEU433.c ****  *
  29:../../../../../../Middlewares/Third_Party/LoRaWAN/Mac/region/RegionEU433.c ****  * \author    Daniel Jaeckle ( STACKFORCE )
  30:../../../../../../Middlewares/Third_Party/LoRaWAN/Mac/region/RegionEU433.c **** */
  31:../../../../../../Middlewares/Third_Party/LoRaWAN/Mac/region/RegionEU433.c **** #include "utilities.h"
ARM GAS  C:\Users\EBANO_~1\AppData\Local\Temp\ccpYmjAB.s 			page 2


  32:../../../../../../Middlewares/Third_Party/LoRaWAN/Mac/region/RegionEU433.c **** 
  33:../../../../../../Middlewares/Third_Party/LoRaWAN/Mac/region/RegionEU433.c **** #include "RegionCommon.h"
  34:../../../../../../Middlewares/Third_Party/LoRaWAN/Mac/region/RegionEU433.c **** #include "RegionEU433.h"
  35:../../../../../../Middlewares/Third_Party/LoRaWAN/Mac/region/RegionEU433.c **** #include "util_console.h"
  36:../../../../../../Middlewares/Third_Party/LoRaWAN/Mac/region/RegionEU433.c **** 
  37:../../../../../../Middlewares/Third_Party/LoRaWAN/Mac/region/RegionEU433.c **** // Definitions
  38:../../../../../../Middlewares/Third_Party/LoRaWAN/Mac/region/RegionEU433.c **** #define CHANNELS_MASK_SIZE              1
  39:../../../../../../Middlewares/Third_Party/LoRaWAN/Mac/region/RegionEU433.c **** 
  40:../../../../../../Middlewares/Third_Party/LoRaWAN/Mac/region/RegionEU433.c **** /*!
  41:../../../../../../Middlewares/Third_Party/LoRaWAN/Mac/region/RegionEU433.c ****  * Region specific context
  42:../../../../../../Middlewares/Third_Party/LoRaWAN/Mac/region/RegionEU433.c ****  */
  43:../../../../../../Middlewares/Third_Party/LoRaWAN/Mac/region/RegionEU433.c **** typedef struct sRegionEU433NvmCtx
  44:../../../../../../Middlewares/Third_Party/LoRaWAN/Mac/region/RegionEU433.c **** {
  45:../../../../../../Middlewares/Third_Party/LoRaWAN/Mac/region/RegionEU433.c ****     /*!
  46:../../../../../../Middlewares/Third_Party/LoRaWAN/Mac/region/RegionEU433.c ****      * LoRaMAC channels
  47:../../../../../../Middlewares/Third_Party/LoRaWAN/Mac/region/RegionEU433.c ****      */
  48:../../../../../../Middlewares/Third_Party/LoRaWAN/Mac/region/RegionEU433.c ****     ChannelParams_t Channels[ EU433_MAX_NB_CHANNELS ];
  49:../../../../../../Middlewares/Third_Party/LoRaWAN/Mac/region/RegionEU433.c ****     /*!
  50:../../../../../../Middlewares/Third_Party/LoRaWAN/Mac/region/RegionEU433.c ****      * LoRaMac bands
  51:../../../../../../Middlewares/Third_Party/LoRaWAN/Mac/region/RegionEU433.c ****      */
  52:../../../../../../Middlewares/Third_Party/LoRaWAN/Mac/region/RegionEU433.c ****     Band_t Bands[ EU433_MAX_NB_BANDS ];
  53:../../../../../../Middlewares/Third_Party/LoRaWAN/Mac/region/RegionEU433.c ****     /*!
  54:../../../../../../Middlewares/Third_Party/LoRaWAN/Mac/region/RegionEU433.c ****      * LoRaMac channels mask
  55:../../../../../../Middlewares/Third_Party/LoRaWAN/Mac/region/RegionEU433.c ****      */
  56:../../../../../../Middlewares/Third_Party/LoRaWAN/Mac/region/RegionEU433.c ****     uint16_t ChannelsMask[ CHANNELS_MASK_SIZE ];
  57:../../../../../../Middlewares/Third_Party/LoRaWAN/Mac/region/RegionEU433.c ****     /*!
  58:../../../../../../Middlewares/Third_Party/LoRaWAN/Mac/region/RegionEU433.c ****      * LoRaMac channels default mask
  59:../../../../../../Middlewares/Third_Party/LoRaWAN/Mac/region/RegionEU433.c ****      */
  60:../../../../../../Middlewares/Third_Party/LoRaWAN/Mac/region/RegionEU433.c ****     uint16_t ChannelsDefaultMask[ CHANNELS_MASK_SIZE ];
  61:../../../../../../Middlewares/Third_Party/LoRaWAN/Mac/region/RegionEU433.c **** }RegionEU433NvmCtx_t;
  62:../../../../../../Middlewares/Third_Party/LoRaWAN/Mac/region/RegionEU433.c **** 
  63:../../../../../../Middlewares/Third_Party/LoRaWAN/Mac/region/RegionEU433.c **** /*
  64:../../../../../../Middlewares/Third_Party/LoRaWAN/Mac/region/RegionEU433.c ****  * Non-volatile module context.
  65:../../../../../../Middlewares/Third_Party/LoRaWAN/Mac/region/RegionEU433.c ****  */
  66:../../../../../../Middlewares/Third_Party/LoRaWAN/Mac/region/RegionEU433.c **** static RegionEU433NvmCtx_t NvmCtx;
  67:../../../../../../Middlewares/Third_Party/LoRaWAN/Mac/region/RegionEU433.c **** 
  68:../../../../../../Middlewares/Third_Party/LoRaWAN/Mac/region/RegionEU433.c **** // Static functions
  69:../../../../../../Middlewares/Third_Party/LoRaWAN/Mac/region/RegionEU433.c **** static int8_t GetNextLowerTxDr( int8_t dr, int8_t minDr )
  70:../../../../../../Middlewares/Third_Party/LoRaWAN/Mac/region/RegionEU433.c **** {
  71:../../../../../../Middlewares/Third_Party/LoRaWAN/Mac/region/RegionEU433.c ****     uint8_t nextLowerDr = 0;
  72:../../../../../../Middlewares/Third_Party/LoRaWAN/Mac/region/RegionEU433.c **** 
  73:../../../../../../Middlewares/Third_Party/LoRaWAN/Mac/region/RegionEU433.c ****     if( dr == minDr )
  74:../../../../../../Middlewares/Third_Party/LoRaWAN/Mac/region/RegionEU433.c ****     {
  75:../../../../../../Middlewares/Third_Party/LoRaWAN/Mac/region/RegionEU433.c ****         nextLowerDr = minDr;
  76:../../../../../../Middlewares/Third_Party/LoRaWAN/Mac/region/RegionEU433.c ****     }
  77:../../../../../../Middlewares/Third_Party/LoRaWAN/Mac/region/RegionEU433.c ****     else
  78:../../../../../../Middlewares/Third_Party/LoRaWAN/Mac/region/RegionEU433.c ****     {
  79:../../../../../../Middlewares/Third_Party/LoRaWAN/Mac/region/RegionEU433.c ****         nextLowerDr = dr - 1;
  80:../../../../../../Middlewares/Third_Party/LoRaWAN/Mac/region/RegionEU433.c ****     }
  81:../../../../../../Middlewares/Third_Party/LoRaWAN/Mac/region/RegionEU433.c ****     return nextLowerDr;
  82:../../../../../../Middlewares/Third_Party/LoRaWAN/Mac/region/RegionEU433.c **** }
  83:../../../../../../Middlewares/Third_Party/LoRaWAN/Mac/region/RegionEU433.c **** 
  84:../../../../../../Middlewares/Third_Party/LoRaWAN/Mac/region/RegionEU433.c **** static uint32_t GetBandwidth( uint32_t drIndex )
  85:../../../../../../Middlewares/Third_Party/LoRaWAN/Mac/region/RegionEU433.c **** {
  86:../../../../../../Middlewares/Third_Party/LoRaWAN/Mac/region/RegionEU433.c ****     switch( BandwidthsEU433[drIndex] )
  87:../../../../../../Middlewares/Third_Party/LoRaWAN/Mac/region/RegionEU433.c ****     {
  88:../../../../../../Middlewares/Third_Party/LoRaWAN/Mac/region/RegionEU433.c ****         default:
ARM GAS  C:\Users\EBANO_~1\AppData\Local\Temp\ccpYmjAB.s 			page 3


  89:../../../../../../Middlewares/Third_Party/LoRaWAN/Mac/region/RegionEU433.c ****         case 125000:
  90:../../../../../../Middlewares/Third_Party/LoRaWAN/Mac/region/RegionEU433.c ****             return 0;
  91:../../../../../../Middlewares/Third_Party/LoRaWAN/Mac/region/RegionEU433.c ****         case 250000:
  92:../../../../../../Middlewares/Third_Party/LoRaWAN/Mac/region/RegionEU433.c ****             return 1;
  93:../../../../../../Middlewares/Third_Party/LoRaWAN/Mac/region/RegionEU433.c ****         case 500000:
  94:../../../../../../Middlewares/Third_Party/LoRaWAN/Mac/region/RegionEU433.c ****             return 2;
  95:../../../../../../Middlewares/Third_Party/LoRaWAN/Mac/region/RegionEU433.c ****     }
  96:../../../../../../Middlewares/Third_Party/LoRaWAN/Mac/region/RegionEU433.c **** }
  97:../../../../../../Middlewares/Third_Party/LoRaWAN/Mac/region/RegionEU433.c **** 
  98:../../../../../../Middlewares/Third_Party/LoRaWAN/Mac/region/RegionEU433.c **** static int8_t LimitTxPower( int8_t txPower, int8_t maxBandTxPower, int8_t datarate, uint16_t* chann
  99:../../../../../../Middlewares/Third_Party/LoRaWAN/Mac/region/RegionEU433.c **** {
 100:../../../../../../Middlewares/Third_Party/LoRaWAN/Mac/region/RegionEU433.c ****     int8_t txPowerResult = txPower;
 101:../../../../../../Middlewares/Third_Party/LoRaWAN/Mac/region/RegionEU433.c **** 
 102:../../../../../../Middlewares/Third_Party/LoRaWAN/Mac/region/RegionEU433.c ****     // Limit tx power to the band max
 103:../../../../../../Middlewares/Third_Party/LoRaWAN/Mac/region/RegionEU433.c ****     txPowerResult =  MAX( txPower, maxBandTxPower );
 104:../../../../../../Middlewares/Third_Party/LoRaWAN/Mac/region/RegionEU433.c **** 
 105:../../../../../../Middlewares/Third_Party/LoRaWAN/Mac/region/RegionEU433.c ****     return txPowerResult;
 106:../../../../../../Middlewares/Third_Party/LoRaWAN/Mac/region/RegionEU433.c **** }
 107:../../../../../../Middlewares/Third_Party/LoRaWAN/Mac/region/RegionEU433.c **** 
 108:../../../../../../Middlewares/Third_Party/LoRaWAN/Mac/region/RegionEU433.c **** static bool VerifyRfFreq( uint32_t freq )
 109:../../../../../../Middlewares/Third_Party/LoRaWAN/Mac/region/RegionEU433.c **** {
 110:../../../../../../Middlewares/Third_Party/LoRaWAN/Mac/region/RegionEU433.c ****     // Check radio driver support
 111:../../../../../../Middlewares/Third_Party/LoRaWAN/Mac/region/RegionEU433.c ****     if( Radio.CheckRfFrequency( freq ) == false )
 112:../../../../../../Middlewares/Third_Party/LoRaWAN/Mac/region/RegionEU433.c ****     {
 113:../../../../../../Middlewares/Third_Party/LoRaWAN/Mac/region/RegionEU433.c ****         return false;
 114:../../../../../../Middlewares/Third_Party/LoRaWAN/Mac/region/RegionEU433.c ****     }
 115:../../../../../../Middlewares/Third_Party/LoRaWAN/Mac/region/RegionEU433.c **** 
 116:../../../../../../Middlewares/Third_Party/LoRaWAN/Mac/region/RegionEU433.c ****     if( ( freq < 433175000 ) || ( freq > 434665000 ) )
 117:../../../../../../Middlewares/Third_Party/LoRaWAN/Mac/region/RegionEU433.c ****     {
 118:../../../../../../Middlewares/Third_Party/LoRaWAN/Mac/region/RegionEU433.c ****         return false;
 119:../../../../../../Middlewares/Third_Party/LoRaWAN/Mac/region/RegionEU433.c ****     }
 120:../../../../../../Middlewares/Third_Party/LoRaWAN/Mac/region/RegionEU433.c ****     return true;
 121:../../../../../../Middlewares/Third_Party/LoRaWAN/Mac/region/RegionEU433.c **** }
 122:../../../../../../Middlewares/Third_Party/LoRaWAN/Mac/region/RegionEU433.c **** 
 123:../../../../../../Middlewares/Third_Party/LoRaWAN/Mac/region/RegionEU433.c **** static uint8_t CountNbOfEnabledChannels( bool joined, uint8_t datarate, uint16_t* channelsMask, Cha
 124:../../../../../../Middlewares/Third_Party/LoRaWAN/Mac/region/RegionEU433.c **** {
 125:../../../../../../Middlewares/Third_Party/LoRaWAN/Mac/region/RegionEU433.c ****     uint8_t nbEnabledChannels = 0;
 126:../../../../../../Middlewares/Third_Party/LoRaWAN/Mac/region/RegionEU433.c ****     uint8_t delayTransmission = 0;
 127:../../../../../../Middlewares/Third_Party/LoRaWAN/Mac/region/RegionEU433.c **** 
 128:../../../../../../Middlewares/Third_Party/LoRaWAN/Mac/region/RegionEU433.c ****     for( uint8_t i = 0, k = 0; i < EU433_MAX_NB_CHANNELS; i += 16, k++ )
 129:../../../../../../Middlewares/Third_Party/LoRaWAN/Mac/region/RegionEU433.c ****     {
 130:../../../../../../Middlewares/Third_Party/LoRaWAN/Mac/region/RegionEU433.c ****         for( uint8_t j = 0; j < 16; j++ )
 131:../../../../../../Middlewares/Third_Party/LoRaWAN/Mac/region/RegionEU433.c ****         {
 132:../../../../../../Middlewares/Third_Party/LoRaWAN/Mac/region/RegionEU433.c ****             if( ( channelsMask[k] & ( 1 << j ) ) != 0 )
 133:../../../../../../Middlewares/Third_Party/LoRaWAN/Mac/region/RegionEU433.c ****             {
 134:../../../../../../Middlewares/Third_Party/LoRaWAN/Mac/region/RegionEU433.c ****                 if( channels[i + j].Frequency == 0 )
 135:../../../../../../Middlewares/Third_Party/LoRaWAN/Mac/region/RegionEU433.c ****                 { // Check if the channel is enabled
 136:../../../../../../Middlewares/Third_Party/LoRaWAN/Mac/region/RegionEU433.c ****                     continue;
 137:../../../../../../Middlewares/Third_Party/LoRaWAN/Mac/region/RegionEU433.c ****                 }
 138:../../../../../../Middlewares/Third_Party/LoRaWAN/Mac/region/RegionEU433.c ****                 if( joined == false )
 139:../../../../../../Middlewares/Third_Party/LoRaWAN/Mac/region/RegionEU433.c ****                 {
 140:../../../../../../Middlewares/Third_Party/LoRaWAN/Mac/region/RegionEU433.c ****                     if( ( EU433_JOIN_CHANNELS & ( 1 << j ) ) == 0 )
 141:../../../../../../Middlewares/Third_Party/LoRaWAN/Mac/region/RegionEU433.c ****                     {
 142:../../../../../../Middlewares/Third_Party/LoRaWAN/Mac/region/RegionEU433.c ****                         continue;
 143:../../../../../../Middlewares/Third_Party/LoRaWAN/Mac/region/RegionEU433.c ****                     }
 144:../../../../../../Middlewares/Third_Party/LoRaWAN/Mac/region/RegionEU433.c ****                 }
 145:../../../../../../Middlewares/Third_Party/LoRaWAN/Mac/region/RegionEU433.c ****                 if( RegionCommonValueInRange( datarate, channels[i + j].DrRange.Fields.Min,
ARM GAS  C:\Users\EBANO_~1\AppData\Local\Temp\ccpYmjAB.s 			page 4


 146:../../../../../../Middlewares/Third_Party/LoRaWAN/Mac/region/RegionEU433.c ****                                               channels[i + j].DrRange.Fields.Max ) == false )
 147:../../../../../../Middlewares/Third_Party/LoRaWAN/Mac/region/RegionEU433.c ****                 { // Check if the current channel selection supports the given datarate
 148:../../../../../../Middlewares/Third_Party/LoRaWAN/Mac/region/RegionEU433.c ****                     continue;
 149:../../../../../../Middlewares/Third_Party/LoRaWAN/Mac/region/RegionEU433.c ****                 }
 150:../../../../../../Middlewares/Third_Party/LoRaWAN/Mac/region/RegionEU433.c ****                 if( bands[channels[i + j].Band].TimeOff > 0 )
 151:../../../../../../Middlewares/Third_Party/LoRaWAN/Mac/region/RegionEU433.c ****                 { // Check if the band is available for transmission
 152:../../../../../../Middlewares/Third_Party/LoRaWAN/Mac/region/RegionEU433.c ****                     delayTransmission++;
 153:../../../../../../Middlewares/Third_Party/LoRaWAN/Mac/region/RegionEU433.c ****                     continue;
 154:../../../../../../Middlewares/Third_Party/LoRaWAN/Mac/region/RegionEU433.c ****                 }
 155:../../../../../../Middlewares/Third_Party/LoRaWAN/Mac/region/RegionEU433.c ****                 enabledChannels[nbEnabledChannels++] = i + j;
 156:../../../../../../Middlewares/Third_Party/LoRaWAN/Mac/region/RegionEU433.c ****             }
 157:../../../../../../Middlewares/Third_Party/LoRaWAN/Mac/region/RegionEU433.c ****         }
 158:../../../../../../Middlewares/Third_Party/LoRaWAN/Mac/region/RegionEU433.c ****     }
 159:../../../../../../Middlewares/Third_Party/LoRaWAN/Mac/region/RegionEU433.c **** 
 160:../../../../../../Middlewares/Third_Party/LoRaWAN/Mac/region/RegionEU433.c ****     *delayTx = delayTransmission;
 161:../../../../../../Middlewares/Third_Party/LoRaWAN/Mac/region/RegionEU433.c ****     return nbEnabledChannels;
 162:../../../../../../Middlewares/Third_Party/LoRaWAN/Mac/region/RegionEU433.c **** }
 163:../../../../../../Middlewares/Third_Party/LoRaWAN/Mac/region/RegionEU433.c **** 
 164:../../../../../../Middlewares/Third_Party/LoRaWAN/Mac/region/RegionEU433.c **** PhyParam_t RegionEU433GetPhyParam( GetPhyParams_t* getPhy )
 165:../../../../../../Middlewares/Third_Party/LoRaWAN/Mac/region/RegionEU433.c **** {
  27              		.loc 1 165 0
  28              		.cfi_startproc
  29              		@ args = 0, pretend = 0, frame = 8
  30              		@ frame_needed = 0, uses_anonymous_args = 0
  31              	.LVL0:
 166:../../../../../../Middlewares/Third_Party/LoRaWAN/Mac/region/RegionEU433.c ****     PhyParam_t phyParam = { 0 };
  32              		.loc 1 166 0
  33 0000 0023     		movs	r3, #0
 165:../../../../../../Middlewares/Third_Party/LoRaWAN/Mac/region/RegionEU433.c ****     PhyParam_t phyParam = { 0 };
  34              		.loc 1 165 0
  35 0002 00B5     		push	{lr}
  36              	.LCFI0:
  37              		.cfi_def_cfa_offset 4
  38              		.cfi_offset 14, -4
  39 0004 83B0     		sub	sp, sp, #12
  40              	.LCFI1:
  41              		.cfi_def_cfa_offset 16
  42              		.loc 1 166 0
  43 0006 0093     		str	r3, [sp]
 167:../../../../../../Middlewares/Third_Party/LoRaWAN/Mac/region/RegionEU433.c **** 
 168:../../../../../../Middlewares/Third_Party/LoRaWAN/Mac/region/RegionEU433.c ****     switch( getPhy->Attribute )
  44              		.loc 1 168 0
  45 0008 0378     		ldrb	r3, [r0]
  46 000a 0A3B     		subs	r3, r3, #10
  47 000c DBB2     		uxtb	r3, r3
  48 000e 2A2B     		cmp	r3, #42
  49 0010 05D8     		bhi	.L2
  50 0012 304A     		ldr	r2, .L30
  51 0014 9B00     		lsls	r3, r3, #2
  52 0016 D358     		ldr	r3, [r2, r3]
  53 0018 9F46     		mov	pc, r3
  54              		.section	.rodata
  55              		.align	2
  56              	.L4:
  57 0000 AE000000 		.word	.L3
  58 0004 30000000 		.word	.L5
  59 0008 C8000000 		.word	.L6
ARM GAS  C:\Users\EBANO_~1\AppData\Local\Temp\ccpYmjAB.s 			page 5


  60 000c BA000000 		.word	.L7
  61 0010 B4000000 		.word	.L8
  62 0014 5E000000 		.word	.L9
  63 0018 56000000 		.word	.L10
  64 001c 4E000000 		.word	.L11
  65 0020 64000000 		.word	.L12
  66 0024 92000000 		.word	.L13
  67 0028 8A000000 		.word	.L14
  68 002c 98000000 		.word	.L15
  69 0030 1E000000 		.word	.L2
  70 0034 24000000 		.word	.L16
  71 0038 1E000000 		.word	.L2
  72 003c 42000000 		.word	.L17
  73 0040 1A000000 		.word	.L18
  74 0044 3C000000 		.word	.L19
  75 0048 36000000 		.word	.L20
  76 004c 1E000000 		.word	.L2
  77 0050 1E000000 		.word	.L2
  78 0054 48000000 		.word	.L21
  79 0058 6A000000 		.word	.L22
  80 005c 78000000 		.word	.L23
  81 0060 1E000000 		.word	.L2
  82 0064 1E000000 		.word	.L2
  83 0068 1E000000 		.word	.L2
  84 006c 1E000000 		.word	.L2
  85 0070 1E000000 		.word	.L2
  86 0074 1E000000 		.word	.L2
  87 0078 1E000000 		.word	.L2
  88 007c 1E000000 		.word	.L2
  89 0080 1E000000 		.word	.L2
  90 0084 1E000000 		.word	.L2
  91 0088 1E000000 		.word	.L2
  92 008c 1E000000 		.word	.L2
  93 0090 1E000000 		.word	.L2
  94 0094 24000000 		.word	.L16
  95 0098 70000000 		.word	.L24
  96 009c 2A000000 		.word	.L25
  97 00a0 1E000000 		.word	.L2
  98 00a4 1E000000 		.word	.L2
  99 00a8 2A000000 		.word	.L25
 100              		.section	.text.RegionEU433GetPhyParam
 101              	.L18:
 169:../../../../../../Middlewares/Third_Party/LoRaWAN/Mac/region/RegionEU433.c ****     {
 170:../../../../../../Middlewares/Third_Party/LoRaWAN/Mac/region/RegionEU433.c ****         case PHY_MIN_RX_DR:
 171:../../../../../../Middlewares/Third_Party/LoRaWAN/Mac/region/RegionEU433.c ****         {
 172:../../../../../../Middlewares/Third_Party/LoRaWAN/Mac/region/RegionEU433.c ****             phyParam.Value = EU433_RX_MIN_DATARATE;
 173:../../../../../../Middlewares/Third_Party/LoRaWAN/Mac/region/RegionEU433.c ****             break;
 174:../../../../../../Middlewares/Third_Party/LoRaWAN/Mac/region/RegionEU433.c ****         }
 175:../../../../../../Middlewares/Third_Party/LoRaWAN/Mac/region/RegionEU433.c ****         case PHY_MIN_TX_DR:
 176:../../../../../../Middlewares/Third_Party/LoRaWAN/Mac/region/RegionEU433.c ****         {
 177:../../../../../../Middlewares/Third_Party/LoRaWAN/Mac/region/RegionEU433.c ****             phyParam.Value = EU433_TX_MIN_DATARATE;
 178:../../../../../../Middlewares/Third_Party/LoRaWAN/Mac/region/RegionEU433.c ****             break;
 179:../../../../../../Middlewares/Third_Party/LoRaWAN/Mac/region/RegionEU433.c ****         }
 180:../../../../../../Middlewares/Third_Party/LoRaWAN/Mac/region/RegionEU433.c ****         case PHY_DEF_TX_DR:
 181:../../../../../../Middlewares/Third_Party/LoRaWAN/Mac/region/RegionEU433.c ****         {
 182:../../../../../../Middlewares/Third_Party/LoRaWAN/Mac/region/RegionEU433.c ****             phyParam.Value = EU433_DEFAULT_DATARATE;
 183:../../../../../../Middlewares/Third_Party/LoRaWAN/Mac/region/RegionEU433.c ****             break;
ARM GAS  C:\Users\EBANO_~1\AppData\Local\Temp\ccpYmjAB.s 			page 6


 184:../../../../../../Middlewares/Third_Party/LoRaWAN/Mac/region/RegionEU433.c ****         }
 185:../../../../../../Middlewares/Third_Party/LoRaWAN/Mac/region/RegionEU433.c ****         case PHY_NEXT_LOWER_TX_DR:
 186:../../../../../../Middlewares/Third_Party/LoRaWAN/Mac/region/RegionEU433.c ****         {
 187:../../../../../../Middlewares/Third_Party/LoRaWAN/Mac/region/RegionEU433.c ****             phyParam.Value = GetNextLowerTxDr( getPhy->Datarate, EU433_TX_MIN_DATARATE );
 188:../../../../../../Middlewares/Third_Party/LoRaWAN/Mac/region/RegionEU433.c ****             break;
 189:../../../../../../Middlewares/Third_Party/LoRaWAN/Mac/region/RegionEU433.c ****         }
 190:../../../../../../Middlewares/Third_Party/LoRaWAN/Mac/region/RegionEU433.c ****         case PHY_MAX_TX_POWER:
 191:../../../../../../Middlewares/Third_Party/LoRaWAN/Mac/region/RegionEU433.c ****         {
 192:../../../../../../Middlewares/Third_Party/LoRaWAN/Mac/region/RegionEU433.c ****             phyParam.Value = EU433_MAX_TX_POWER;
 193:../../../../../../Middlewares/Third_Party/LoRaWAN/Mac/region/RegionEU433.c ****             break;
 194:../../../../../../Middlewares/Third_Party/LoRaWAN/Mac/region/RegionEU433.c ****         }
 195:../../../../../../Middlewares/Third_Party/LoRaWAN/Mac/region/RegionEU433.c ****         case PHY_DEF_TX_POWER:
 196:../../../../../../Middlewares/Third_Party/LoRaWAN/Mac/region/RegionEU433.c ****         {
 197:../../../../../../Middlewares/Third_Party/LoRaWAN/Mac/region/RegionEU433.c ****             phyParam.Value = EU433_DEFAULT_TX_POWER;
 198:../../../../../../Middlewares/Third_Party/LoRaWAN/Mac/region/RegionEU433.c ****             break;
 199:../../../../../../Middlewares/Third_Party/LoRaWAN/Mac/region/RegionEU433.c ****         }
 200:../../../../../../Middlewares/Third_Party/LoRaWAN/Mac/region/RegionEU433.c ****         case PHY_DEF_ADR_ACK_LIMIT:
 201:../../../../../../Middlewares/Third_Party/LoRaWAN/Mac/region/RegionEU433.c ****         {
 202:../../../../../../Middlewares/Third_Party/LoRaWAN/Mac/region/RegionEU433.c ****             phyParam.Value = EU433_ADR_ACK_LIMIT;
 203:../../../../../../Middlewares/Third_Party/LoRaWAN/Mac/region/RegionEU433.c ****             break;
 204:../../../../../../Middlewares/Third_Party/LoRaWAN/Mac/region/RegionEU433.c ****         }
 205:../../../../../../Middlewares/Third_Party/LoRaWAN/Mac/region/RegionEU433.c ****         case PHY_DEF_ADR_ACK_DELAY:
 206:../../../../../../Middlewares/Third_Party/LoRaWAN/Mac/region/RegionEU433.c ****         {
 207:../../../../../../Middlewares/Third_Party/LoRaWAN/Mac/region/RegionEU433.c ****             phyParam.Value = EU433_ADR_ACK_DELAY;
 208:../../../../../../Middlewares/Third_Party/LoRaWAN/Mac/region/RegionEU433.c ****             break;
 209:../../../../../../Middlewares/Third_Party/LoRaWAN/Mac/region/RegionEU433.c ****         }
 210:../../../../../../Middlewares/Third_Party/LoRaWAN/Mac/region/RegionEU433.c ****         case PHY_MAX_PAYLOAD:
 211:../../../../../../Middlewares/Third_Party/LoRaWAN/Mac/region/RegionEU433.c ****         {
 212:../../../../../../Middlewares/Third_Party/LoRaWAN/Mac/region/RegionEU433.c ****             phyParam.Value = MaxPayloadOfDatarateEU433[getPhy->Datarate];
 213:../../../../../../Middlewares/Third_Party/LoRaWAN/Mac/region/RegionEU433.c ****             break;
 214:../../../../../../Middlewares/Third_Party/LoRaWAN/Mac/region/RegionEU433.c ****         }
 215:../../../../../../Middlewares/Third_Party/LoRaWAN/Mac/region/RegionEU433.c ****         case PHY_MAX_PAYLOAD_REPEATER:
 216:../../../../../../Middlewares/Third_Party/LoRaWAN/Mac/region/RegionEU433.c ****         {
 217:../../../../../../Middlewares/Third_Party/LoRaWAN/Mac/region/RegionEU433.c ****             phyParam.Value = MaxPayloadOfDatarateRepeaterEU433[getPhy->Datarate];
 218:../../../../../../Middlewares/Third_Party/LoRaWAN/Mac/region/RegionEU433.c ****             break;
 219:../../../../../../Middlewares/Third_Party/LoRaWAN/Mac/region/RegionEU433.c ****         }
 220:../../../../../../Middlewares/Third_Party/LoRaWAN/Mac/region/RegionEU433.c ****         case PHY_DUTY_CYCLE:
 221:../../../../../../Middlewares/Third_Party/LoRaWAN/Mac/region/RegionEU433.c ****         {
 222:../../../../../../Middlewares/Third_Party/LoRaWAN/Mac/region/RegionEU433.c ****             phyParam.Value = EU433_DUTY_CYCLE_ENABLED;
 223:../../../../../../Middlewares/Third_Party/LoRaWAN/Mac/region/RegionEU433.c ****             break;
 224:../../../../../../Middlewares/Third_Party/LoRaWAN/Mac/region/RegionEU433.c ****         }
 225:../../../../../../Middlewares/Third_Party/LoRaWAN/Mac/region/RegionEU433.c ****         case PHY_MAX_RX_WINDOW:
 226:../../../../../../Middlewares/Third_Party/LoRaWAN/Mac/region/RegionEU433.c ****         {
 227:../../../../../../Middlewares/Third_Party/LoRaWAN/Mac/region/RegionEU433.c ****             phyParam.Value = EU433_MAX_RX_WINDOW;
 228:../../../../../../Middlewares/Third_Party/LoRaWAN/Mac/region/RegionEU433.c ****             break;
 229:../../../../../../Middlewares/Third_Party/LoRaWAN/Mac/region/RegionEU433.c ****         }
 230:../../../../../../Middlewares/Third_Party/LoRaWAN/Mac/region/RegionEU433.c ****         case PHY_RECEIVE_DELAY1:
 231:../../../../../../Middlewares/Third_Party/LoRaWAN/Mac/region/RegionEU433.c ****         {
 232:../../../../../../Middlewares/Third_Party/LoRaWAN/Mac/region/RegionEU433.c ****             phyParam.Value = EU433_RECEIVE_DELAY1;
 233:../../../../../../Middlewares/Third_Party/LoRaWAN/Mac/region/RegionEU433.c ****             break;
 234:../../../../../../Middlewares/Third_Party/LoRaWAN/Mac/region/RegionEU433.c ****         }
 235:../../../../../../Middlewares/Third_Party/LoRaWAN/Mac/region/RegionEU433.c ****         case PHY_RECEIVE_DELAY2:
 236:../../../../../../Middlewares/Third_Party/LoRaWAN/Mac/region/RegionEU433.c ****         {
 237:../../../../../../Middlewares/Third_Party/LoRaWAN/Mac/region/RegionEU433.c ****             phyParam.Value = EU433_RECEIVE_DELAY2;
 238:../../../../../../Middlewares/Third_Party/LoRaWAN/Mac/region/RegionEU433.c ****             break;
 239:../../../../../../Middlewares/Third_Party/LoRaWAN/Mac/region/RegionEU433.c ****         }
 240:../../../../../../Middlewares/Third_Party/LoRaWAN/Mac/region/RegionEU433.c ****         case PHY_JOIN_ACCEPT_DELAY1:
ARM GAS  C:\Users\EBANO_~1\AppData\Local\Temp\ccpYmjAB.s 			page 7


 241:../../../../../../Middlewares/Third_Party/LoRaWAN/Mac/region/RegionEU433.c ****         {
 242:../../../../../../Middlewares/Third_Party/LoRaWAN/Mac/region/RegionEU433.c ****             phyParam.Value = EU433_JOIN_ACCEPT_DELAY1;
 243:../../../../../../Middlewares/Third_Party/LoRaWAN/Mac/region/RegionEU433.c ****             break;
 244:../../../../../../Middlewares/Third_Party/LoRaWAN/Mac/region/RegionEU433.c ****         }
 245:../../../../../../Middlewares/Third_Party/LoRaWAN/Mac/region/RegionEU433.c ****         case PHY_JOIN_ACCEPT_DELAY2:
 246:../../../../../../Middlewares/Third_Party/LoRaWAN/Mac/region/RegionEU433.c ****         {
 247:../../../../../../Middlewares/Third_Party/LoRaWAN/Mac/region/RegionEU433.c ****             phyParam.Value = EU433_JOIN_ACCEPT_DELAY2;
 248:../../../../../../Middlewares/Third_Party/LoRaWAN/Mac/region/RegionEU433.c ****             break;
 249:../../../../../../Middlewares/Third_Party/LoRaWAN/Mac/region/RegionEU433.c ****         }
 250:../../../../../../Middlewares/Third_Party/LoRaWAN/Mac/region/RegionEU433.c ****         case PHY_MAX_FCNT_GAP:
 251:../../../../../../Middlewares/Third_Party/LoRaWAN/Mac/region/RegionEU433.c ****         {
 252:../../../../../../Middlewares/Third_Party/LoRaWAN/Mac/region/RegionEU433.c ****             phyParam.Value = EU433_MAX_FCNT_GAP;
 253:../../../../../../Middlewares/Third_Party/LoRaWAN/Mac/region/RegionEU433.c ****             break;
 254:../../../../../../Middlewares/Third_Party/LoRaWAN/Mac/region/RegionEU433.c ****         }
 255:../../../../../../Middlewares/Third_Party/LoRaWAN/Mac/region/RegionEU433.c ****         case PHY_ACK_TIMEOUT:
 256:../../../../../../Middlewares/Third_Party/LoRaWAN/Mac/region/RegionEU433.c ****         {
 257:../../../../../../Middlewares/Third_Party/LoRaWAN/Mac/region/RegionEU433.c ****             phyParam.Value = ( EU433_ACKTIMEOUT + randr( -EU433_ACK_TIMEOUT_RND, EU433_ACK_TIMEOUT_
 258:../../../../../../Middlewares/Third_Party/LoRaWAN/Mac/region/RegionEU433.c ****             break;
 259:../../../../../../Middlewares/Third_Party/LoRaWAN/Mac/region/RegionEU433.c ****         }
 260:../../../../../../Middlewares/Third_Party/LoRaWAN/Mac/region/RegionEU433.c ****         case PHY_DEF_DR1_OFFSET:
 261:../../../../../../Middlewares/Third_Party/LoRaWAN/Mac/region/RegionEU433.c ****         {
 262:../../../../../../Middlewares/Third_Party/LoRaWAN/Mac/region/RegionEU433.c ****             phyParam.Value = EU433_DEFAULT_RX1_DR_OFFSET;
 263:../../../../../../Middlewares/Third_Party/LoRaWAN/Mac/region/RegionEU433.c ****             break;
 264:../../../../../../Middlewares/Third_Party/LoRaWAN/Mac/region/RegionEU433.c ****         }
 265:../../../../../../Middlewares/Third_Party/LoRaWAN/Mac/region/RegionEU433.c ****         case PHY_DEF_RX2_FREQUENCY:
 266:../../../../../../Middlewares/Third_Party/LoRaWAN/Mac/region/RegionEU433.c ****         {
 267:../../../../../../Middlewares/Third_Party/LoRaWAN/Mac/region/RegionEU433.c ****             phyParam.Value = EU433_RX_WND_2_FREQ;
 268:../../../../../../Middlewares/Third_Party/LoRaWAN/Mac/region/RegionEU433.c ****             break;
 269:../../../../../../Middlewares/Third_Party/LoRaWAN/Mac/region/RegionEU433.c ****         }
 270:../../../../../../Middlewares/Third_Party/LoRaWAN/Mac/region/RegionEU433.c ****         case PHY_DEF_RX2_DR:
 271:../../../../../../Middlewares/Third_Party/LoRaWAN/Mac/region/RegionEU433.c ****         {
 272:../../../../../../Middlewares/Third_Party/LoRaWAN/Mac/region/RegionEU433.c ****             phyParam.Value = EU433_RX_WND_2_DR;
 273:../../../../../../Middlewares/Third_Party/LoRaWAN/Mac/region/RegionEU433.c ****             break;
 274:../../../../../../Middlewares/Third_Party/LoRaWAN/Mac/region/RegionEU433.c ****         }
 275:../../../../../../Middlewares/Third_Party/LoRaWAN/Mac/region/RegionEU433.c ****         case PHY_CHANNELS_MASK:
 276:../../../../../../Middlewares/Third_Party/LoRaWAN/Mac/region/RegionEU433.c ****         {
 277:../../../../../../Middlewares/Third_Party/LoRaWAN/Mac/region/RegionEU433.c ****             phyParam.ChannelsMask = NvmCtx.ChannelsMask;
 278:../../../../../../Middlewares/Third_Party/LoRaWAN/Mac/region/RegionEU433.c ****             break;
 279:../../../../../../Middlewares/Third_Party/LoRaWAN/Mac/region/RegionEU433.c ****         }
 280:../../../../../../Middlewares/Third_Party/LoRaWAN/Mac/region/RegionEU433.c ****         case PHY_CHANNELS_DEFAULT_MASK:
 281:../../../../../../Middlewares/Third_Party/LoRaWAN/Mac/region/RegionEU433.c ****         {
 282:../../../../../../Middlewares/Third_Party/LoRaWAN/Mac/region/RegionEU433.c ****             phyParam.ChannelsMask = NvmCtx.ChannelsDefaultMask;
 102              		.loc 1 282 0
 103 001a 2F4B     		ldr	r3, .L30+4
 104 001c 0093     		str	r3, [sp]
 105              	.LVL1:
 106              	.L2:
 283:../../../../../../Middlewares/Third_Party/LoRaWAN/Mac/region/RegionEU433.c ****             break;
 284:../../../../../../Middlewares/Third_Party/LoRaWAN/Mac/region/RegionEU433.c ****         }
 285:../../../../../../Middlewares/Third_Party/LoRaWAN/Mac/region/RegionEU433.c ****         case PHY_MAX_NB_CHANNELS:
 286:../../../../../../Middlewares/Third_Party/LoRaWAN/Mac/region/RegionEU433.c ****         {
 287:../../../../../../Middlewares/Third_Party/LoRaWAN/Mac/region/RegionEU433.c ****             phyParam.Value = EU433_MAX_NB_CHANNELS;
 288:../../../../../../Middlewares/Third_Party/LoRaWAN/Mac/region/RegionEU433.c ****             break;
 289:../../../../../../Middlewares/Third_Party/LoRaWAN/Mac/region/RegionEU433.c ****         }
 290:../../../../../../Middlewares/Third_Party/LoRaWAN/Mac/region/RegionEU433.c ****         case PHY_CHANNELS:
 291:../../../../../../Middlewares/Third_Party/LoRaWAN/Mac/region/RegionEU433.c ****         {
 292:../../../../../../Middlewares/Third_Party/LoRaWAN/Mac/region/RegionEU433.c ****             phyParam.Channels = NvmCtx.Channels;
ARM GAS  C:\Users\EBANO_~1\AppData\Local\Temp\ccpYmjAB.s 			page 8


 293:../../../../../../Middlewares/Third_Party/LoRaWAN/Mac/region/RegionEU433.c ****             break;
 294:../../../../../../Middlewares/Third_Party/LoRaWAN/Mac/region/RegionEU433.c ****         }
 295:../../../../../../Middlewares/Third_Party/LoRaWAN/Mac/region/RegionEU433.c ****         case PHY_DEF_UPLINK_DWELL_TIME:
 296:../../../../../../Middlewares/Third_Party/LoRaWAN/Mac/region/RegionEU433.c ****         case PHY_DEF_DOWNLINK_DWELL_TIME:
 297:../../../../../../Middlewares/Third_Party/LoRaWAN/Mac/region/RegionEU433.c ****         {
 298:../../../../../../Middlewares/Third_Party/LoRaWAN/Mac/region/RegionEU433.c ****             phyParam.Value = 0;
 299:../../../../../../Middlewares/Third_Party/LoRaWAN/Mac/region/RegionEU433.c ****             break;
 300:../../../../../../Middlewares/Third_Party/LoRaWAN/Mac/region/RegionEU433.c ****         }
 301:../../../../../../Middlewares/Third_Party/LoRaWAN/Mac/region/RegionEU433.c ****         case PHY_DEF_MAX_EIRP:
 302:../../../../../../Middlewares/Third_Party/LoRaWAN/Mac/region/RegionEU433.c ****         {
 303:../../../../../../Middlewares/Third_Party/LoRaWAN/Mac/region/RegionEU433.c ****             phyParam.fValue = EU433_DEFAULT_MAX_EIRP;
 304:../../../../../../Middlewares/Third_Party/LoRaWAN/Mac/region/RegionEU433.c ****             break;
 305:../../../../../../Middlewares/Third_Party/LoRaWAN/Mac/region/RegionEU433.c ****         }
 306:../../../../../../Middlewares/Third_Party/LoRaWAN/Mac/region/RegionEU433.c ****         case PHY_DEF_ANTENNA_GAIN:
 307:../../../../../../Middlewares/Third_Party/LoRaWAN/Mac/region/RegionEU433.c ****         {
 308:../../../../../../Middlewares/Third_Party/LoRaWAN/Mac/region/RegionEU433.c ****             phyParam.fValue = EU433_DEFAULT_ANTENNA_GAIN;
 309:../../../../../../Middlewares/Third_Party/LoRaWAN/Mac/region/RegionEU433.c ****             break;
 310:../../../../../../Middlewares/Third_Party/LoRaWAN/Mac/region/RegionEU433.c ****         }
 311:../../../../../../Middlewares/Third_Party/LoRaWAN/Mac/region/RegionEU433.c ****         case PHY_BEACON_CHANNEL_FREQ:
 312:../../../../../../Middlewares/Third_Party/LoRaWAN/Mac/region/RegionEU433.c ****         {
 313:../../../../../../Middlewares/Third_Party/LoRaWAN/Mac/region/RegionEU433.c ****             phyParam.Value = EU433_BEACON_CHANNEL_FREQ;
 314:../../../../../../Middlewares/Third_Party/LoRaWAN/Mac/region/RegionEU433.c ****             break;
 315:../../../../../../Middlewares/Third_Party/LoRaWAN/Mac/region/RegionEU433.c ****         }
 316:../../../../../../Middlewares/Third_Party/LoRaWAN/Mac/region/RegionEU433.c ****         case PHY_BEACON_FORMAT:
 317:../../../../../../Middlewares/Third_Party/LoRaWAN/Mac/region/RegionEU433.c ****         {
 318:../../../../../../Middlewares/Third_Party/LoRaWAN/Mac/region/RegionEU433.c ****             phyParam.BeaconFormat.BeaconSize = EU433_BEACON_SIZE;
 319:../../../../../../Middlewares/Third_Party/LoRaWAN/Mac/region/RegionEU433.c ****             phyParam.BeaconFormat.Rfu1Size = EU433_RFU1_SIZE;
 320:../../../../../../Middlewares/Third_Party/LoRaWAN/Mac/region/RegionEU433.c ****             phyParam.BeaconFormat.Rfu2Size = EU433_RFU2_SIZE;
 321:../../../../../../Middlewares/Third_Party/LoRaWAN/Mac/region/RegionEU433.c ****             break;
 322:../../../../../../Middlewares/Third_Party/LoRaWAN/Mac/region/RegionEU433.c ****         }
 323:../../../../../../Middlewares/Third_Party/LoRaWAN/Mac/region/RegionEU433.c ****         case PHY_BEACON_CHANNEL_DR:
 324:../../../../../../Middlewares/Third_Party/LoRaWAN/Mac/region/RegionEU433.c ****         {
 325:../../../../../../Middlewares/Third_Party/LoRaWAN/Mac/region/RegionEU433.c ****             phyParam.Value = EU433_BEACON_CHANNEL_DR;
 326:../../../../../../Middlewares/Third_Party/LoRaWAN/Mac/region/RegionEU433.c ****             break;
 327:../../../../../../Middlewares/Third_Party/LoRaWAN/Mac/region/RegionEU433.c ****         }
 328:../../../../../../Middlewares/Third_Party/LoRaWAN/Mac/region/RegionEU433.c ****         case PHY_PING_SLOT_CHANNEL_DR:
 329:../../../../../../Middlewares/Third_Party/LoRaWAN/Mac/region/RegionEU433.c ****         {
 330:../../../../../../Middlewares/Third_Party/LoRaWAN/Mac/region/RegionEU433.c ****             phyParam.Value = EU433_PING_SLOT_CHANNEL_DR;
 331:../../../../../../Middlewares/Third_Party/LoRaWAN/Mac/region/RegionEU433.c ****             break;
 332:../../../../../../Middlewares/Third_Party/LoRaWAN/Mac/region/RegionEU433.c ****         }
 333:../../../../../../Middlewares/Third_Party/LoRaWAN/Mac/region/RegionEU433.c ****         default:
 334:../../../../../../Middlewares/Third_Party/LoRaWAN/Mac/region/RegionEU433.c ****         {
 335:../../../../../../Middlewares/Third_Party/LoRaWAN/Mac/region/RegionEU433.c ****             break;
 336:../../../../../../Middlewares/Third_Party/LoRaWAN/Mac/region/RegionEU433.c ****         }
 337:../../../../../../Middlewares/Third_Party/LoRaWAN/Mac/region/RegionEU433.c ****     }
 338:../../../../../../Middlewares/Third_Party/LoRaWAN/Mac/region/RegionEU433.c **** 
 339:../../../../../../Middlewares/Third_Party/LoRaWAN/Mac/region/RegionEU433.c ****     return phyParam;
 340:../../../../../../Middlewares/Third_Party/LoRaWAN/Mac/region/RegionEU433.c **** }
 107              		.loc 1 340 0
 108 001e 0098     		ldr	r0, [sp]
 109 0020 03B0     		add	sp, sp, #12
 110              		@ sp needed
 111 0022 00BD     		pop	{pc}
 112              	.LVL2:
 113              	.L16:
 267:../../../../../../Middlewares/Third_Party/LoRaWAN/Mac/region/RegionEU433.c ****             break;
 114              		.loc 1 267 0
ARM GAS  C:\Users\EBANO_~1\AppData\Local\Temp\ccpYmjAB.s 			page 9


 115 0024 2D4B     		ldr	r3, .L30+8
 116 0026 0093     		str	r3, [sp]
 268:../../../../../../Middlewares/Third_Party/LoRaWAN/Mac/region/RegionEU433.c ****         }
 117              		.loc 1 268 0
 118 0028 F9E7     		b	.L2
 119              	.L25:
 325:../../../../../../Middlewares/Third_Party/LoRaWAN/Mac/region/RegionEU433.c ****             break;
 120              		.loc 1 325 0
 121 002a 0323     		movs	r3, #3
 122 002c 0093     		str	r3, [sp]
 326:../../../../../../Middlewares/Third_Party/LoRaWAN/Mac/region/RegionEU433.c ****         }
 123              		.loc 1 326 0
 124 002e F6E7     		b	.L2
 125              	.L5:
 207:../../../../../../Middlewares/Third_Party/LoRaWAN/Mac/region/RegionEU433.c ****             break;
 126              		.loc 1 207 0
 127 0030 2023     		movs	r3, #32
 128 0032 0093     		str	r3, [sp]
 208:../../../../../../Middlewares/Third_Party/LoRaWAN/Mac/region/RegionEU433.c ****         }
 129              		.loc 1 208 0
 130 0034 F3E7     		b	.L2
 131              	.L20:
 292:../../../../../../Middlewares/Third_Party/LoRaWAN/Mac/region/RegionEU433.c ****             break;
 132              		.loc 1 292 0
 133 0036 2A4B     		ldr	r3, .L30+12
 134 0038 0093     		str	r3, [sp]
 293:../../../../../../Middlewares/Third_Party/LoRaWAN/Mac/region/RegionEU433.c ****         }
 135              		.loc 1 293 0
 136 003a F0E7     		b	.L2
 137              	.L19:
 287:../../../../../../Middlewares/Third_Party/LoRaWAN/Mac/region/RegionEU433.c ****             break;
 138              		.loc 1 287 0
 139 003c 1023     		movs	r3, #16
 140 003e 0093     		str	r3, [sp]
 288:../../../../../../Middlewares/Third_Party/LoRaWAN/Mac/region/RegionEU433.c ****         }
 141              		.loc 1 288 0
 142 0040 EDE7     		b	.L2
 143              	.L17:
 277:../../../../../../Middlewares/Third_Party/LoRaWAN/Mac/region/RegionEU433.c ****             break;
 144              		.loc 1 277 0
 145 0042 284B     		ldr	r3, .L30+16
 146 0044 0093     		str	r3, [sp]
 278:../../../../../../Middlewares/Third_Party/LoRaWAN/Mac/region/RegionEU433.c ****         }
 147              		.loc 1 278 0
 148 0046 EAE7     		b	.L2
 149              	.L21:
 303:../../../../../../Middlewares/Third_Party/LoRaWAN/Mac/region/RegionEU433.c ****             break;
 150              		.loc 1 303 0
 151 0048 274B     		ldr	r3, .L30+20
 152 004a 0093     		str	r3, [sp]
 304:../../../../../../Middlewares/Third_Party/LoRaWAN/Mac/region/RegionEU433.c ****         }
 153              		.loc 1 304 0
 154 004c E7E7     		b	.L2
 155              	.L11:
 237:../../../../../../Middlewares/Third_Party/LoRaWAN/Mac/region/RegionEU433.c ****             break;
 156              		.loc 1 237 0
 157 004e FA23     		movs	r3, #250
ARM GAS  C:\Users\EBANO_~1\AppData\Local\Temp\ccpYmjAB.s 			page 10


 158 0050 DB00     		lsls	r3, r3, #3
 159 0052 0093     		str	r3, [sp]
 238:../../../../../../Middlewares/Third_Party/LoRaWAN/Mac/region/RegionEU433.c ****         }
 160              		.loc 1 238 0
 161 0054 E3E7     		b	.L2
 162              	.L10:
 232:../../../../../../Middlewares/Third_Party/LoRaWAN/Mac/region/RegionEU433.c ****             break;
 163              		.loc 1 232 0
 164 0056 FA23     		movs	r3, #250
 165 0058 9B00     		lsls	r3, r3, #2
 166 005a 0093     		str	r3, [sp]
 233:../../../../../../Middlewares/Third_Party/LoRaWAN/Mac/region/RegionEU433.c ****         }
 167              		.loc 1 233 0
 168 005c DFE7     		b	.L2
 169              	.L9:
 227:../../../../../../Middlewares/Third_Party/LoRaWAN/Mac/region/RegionEU433.c ****             break;
 170              		.loc 1 227 0
 171 005e 234B     		ldr	r3, .L30+24
 172 0060 0093     		str	r3, [sp]
 228:../../../../../../Middlewares/Third_Party/LoRaWAN/Mac/region/RegionEU433.c ****         }
 173              		.loc 1 228 0
 174 0062 DCE7     		b	.L2
 175              	.L12:
 242:../../../../../../Middlewares/Third_Party/LoRaWAN/Mac/region/RegionEU433.c ****             break;
 176              		.loc 1 242 0
 177 0064 224B     		ldr	r3, .L30+28
 178 0066 0093     		str	r3, [sp]
 243:../../../../../../Middlewares/Third_Party/LoRaWAN/Mac/region/RegionEU433.c ****         }
 179              		.loc 1 243 0
 180 0068 D9E7     		b	.L2
 181              	.L22:
 308:../../../../../../Middlewares/Third_Party/LoRaWAN/Mac/region/RegionEU433.c ****             break;
 182              		.loc 1 308 0
 183 006a 224B     		ldr	r3, .L30+32
 184 006c 0093     		str	r3, [sp]
 309:../../../../../../Middlewares/Third_Party/LoRaWAN/Mac/region/RegionEU433.c ****         }
 185              		.loc 1 309 0
 186 006e D6E7     		b	.L2
 187              	.L24:
 318:../../../../../../Middlewares/Third_Party/LoRaWAN/Mac/region/RegionEU433.c ****             phyParam.BeaconFormat.Rfu1Size = EU433_RFU1_SIZE;
 188              		.loc 1 318 0
 189 0070 6A46     		mov	r2, sp
 190 0072 214B     		ldr	r3, .L30+36
 191 0074 1380     		strh	r3, [r2]
 321:../../../../../../Middlewares/Third_Party/LoRaWAN/Mac/region/RegionEU433.c ****         }
 192              		.loc 1 321 0
 193 0076 D2E7     		b	.L2
 194              	.L23:
 187:../../../../../../Middlewares/Third_Party/LoRaWAN/Mac/region/RegionEU433.c ****             break;
 195              		.loc 1 187 0
 196 0078 0123     		movs	r3, #1
 197 007a C356     		ldrsb	r3, [r0, r3]
 198              	.LVL3:
 199              	.LBB22:
 200              	.LBB23:
  73:../../../../../../Middlewares/Third_Party/LoRaWAN/Mac/region/RegionEU433.c ****     {
 201              		.loc 1 73 0
ARM GAS  C:\Users\EBANO_~1\AppData\Local\Temp\ccpYmjAB.s 			page 11


 202 007c 0022     		movs	r2, #0
 203 007e 002B     		cmp	r3, #0
 204 0080 01D0     		beq	.L26
 205              	.LVL4:
  79:../../../../../../Middlewares/Third_Party/LoRaWAN/Mac/region/RegionEU433.c ****     }
 206              		.loc 1 79 0
 207 0082 013B     		subs	r3, r3, #1
 208              	.LVL5:
 209 0084 5AB2     		sxtb	r2, r3
 210              	.LVL6:
 211              	.L26:
 212              	.LBE23:
 213              	.LBE22:
 187:../../../../../../Middlewares/Third_Party/LoRaWAN/Mac/region/RegionEU433.c ****             break;
 214              		.loc 1 187 0
 215 0086 0092     		str	r2, [sp]
 188:../../../../../../Middlewares/Third_Party/LoRaWAN/Mac/region/RegionEU433.c ****         }
 216              		.loc 1 188 0
 217 0088 C9E7     		b	.L2
 218              	.L14:
 252:../../../../../../Middlewares/Third_Party/LoRaWAN/Mac/region/RegionEU433.c ****             break;
 219              		.loc 1 252 0
 220 008a 8023     		movs	r3, #128
 221 008c DB01     		lsls	r3, r3, #7
 222 008e 0093     		str	r3, [sp]
 253:../../../../../../Middlewares/Third_Party/LoRaWAN/Mac/region/RegionEU433.c ****         }
 223              		.loc 1 253 0
 224 0090 C5E7     		b	.L2
 225              	.L13:
 247:../../../../../../Middlewares/Third_Party/LoRaWAN/Mac/region/RegionEU433.c ****             break;
 226              		.loc 1 247 0
 227 0092 1A4B     		ldr	r3, .L30+40
 228 0094 0093     		str	r3, [sp]
 248:../../../../../../Middlewares/Third_Party/LoRaWAN/Mac/region/RegionEU433.c ****         }
 229              		.loc 1 248 0
 230 0096 C2E7     		b	.L2
 231              	.L15:
 257:../../../../../../Middlewares/Third_Party/LoRaWAN/Mac/region/RegionEU433.c ****             break;
 232              		.loc 1 257 0
 233 0098 FA21     		movs	r1, #250
 234 009a 1948     		ldr	r0, .L30+44
 235              	.LVL7:
 236 009c 8900     		lsls	r1, r1, #2
 237 009e FFF7FEFF 		bl	randr
 238              	.LVL8:
 239 00a2 FA23     		movs	r3, #250
 240 00a4 DB00     		lsls	r3, r3, #3
 241 00a6 9C46     		mov	ip, r3
 242 00a8 6044     		add	r0, r0, ip
 243 00aa 0090     		str	r0, [sp]
 258:../../../../../../Middlewares/Third_Party/LoRaWAN/Mac/region/RegionEU433.c ****         }
 244              		.loc 1 258 0
 245 00ac B7E7     		b	.L2
 246              	.LVL9:
 247              	.L3:
 202:../../../../../../Middlewares/Third_Party/LoRaWAN/Mac/region/RegionEU433.c ****             break;
 248              		.loc 1 202 0
ARM GAS  C:\Users\EBANO_~1\AppData\Local\Temp\ccpYmjAB.s 			page 12


 249 00ae 4023     		movs	r3, #64
 250 00b0 0093     		str	r3, [sp]
 203:../../../../../../Middlewares/Third_Party/LoRaWAN/Mac/region/RegionEU433.c ****         }
 251              		.loc 1 203 0
 252 00b2 B4E7     		b	.L2
 253              	.L8:
 222:../../../../../../Middlewares/Third_Party/LoRaWAN/Mac/region/RegionEU433.c ****             break;
 254              		.loc 1 222 0
 255 00b4 0123     		movs	r3, #1
 256 00b6 0093     		str	r3, [sp]
 223:../../../../../../Middlewares/Third_Party/LoRaWAN/Mac/region/RegionEU433.c ****         }
 257              		.loc 1 223 0
 258 00b8 B1E7     		b	.L2
 259              	.L7:
 217:../../../../../../Middlewares/Third_Party/LoRaWAN/Mac/region/RegionEU433.c ****             break;
 260              		.loc 1 217 0
 261 00ba 0122     		movs	r2, #1
 262 00bc 114B     		ldr	r3, .L30+48
 263 00be 8256     		ldrsb	r2, [r0, r2]
 264 00c0 9B18     		adds	r3, r3, r2
 265 00c2 1B7A     		ldrb	r3, [r3, #8]
 266 00c4 0093     		str	r3, [sp]
 218:../../../../../../Middlewares/Third_Party/LoRaWAN/Mac/region/RegionEU433.c ****         }
 267              		.loc 1 218 0
 268 00c6 AAE7     		b	.L2
 269              	.L6:
 212:../../../../../../Middlewares/Third_Party/LoRaWAN/Mac/region/RegionEU433.c ****             break;
 270              		.loc 1 212 0
 271 00c8 0123     		movs	r3, #1
 272 00ca 0E4A     		ldr	r2, .L30+48
 273 00cc C356     		ldrsb	r3, [r0, r3]
 274 00ce D35C     		ldrb	r3, [r2, r3]
 275 00d0 0093     		str	r3, [sp]
 213:../../../../../../Middlewares/Third_Party/LoRaWAN/Mac/region/RegionEU433.c ****         }
 276              		.loc 1 213 0
 277 00d2 A4E7     		b	.L2
 278              	.L31:
 279              		.align	2
 280              	.L30:
 281 00d4 00000000 		.word	.L4
 282 00d8 D2000000 		.word	NvmCtx+210
 283 00dc 2876E819 		.word	434665000
 284 00e0 00000000 		.word	NvmCtx
 285 00e4 D0000000 		.word	NvmCtx+208
 286 00e8 66664241 		.word	1094870630
 287 00ec B80B0000 		.word	3000
 288 00f0 88130000 		.word	5000
 289 00f4 9A990940 		.word	1074370970
 290 00f8 11020000 		.word	529
 291 00fc 70170000 		.word	6000
 292 0100 18FCFFFF 		.word	-1000
 293 0104 00010000 		.word	.LANCHOR0
 294              		.cfi_endproc
 295              	.LFE44:
 296              		.size	RegionEU433GetPhyParam, .-RegionEU433GetPhyParam
 297              		.section	.text.RegionEU433SetBandTxDone,"ax",%progbits
 298              		.align	1
ARM GAS  C:\Users\EBANO_~1\AppData\Local\Temp\ccpYmjAB.s 			page 13


 299              		.p2align 2,,3
 300              		.global	RegionEU433SetBandTxDone
 301              		.syntax unified
 302              		.code	16
 303              		.thumb_func
 304              		.fpu softvfp
 305              		.type	RegionEU433SetBandTxDone, %function
 306              	RegionEU433SetBandTxDone:
 307              	.LFB45:
 341:../../../../../../Middlewares/Third_Party/LoRaWAN/Mac/region/RegionEU433.c **** 
 342:../../../../../../Middlewares/Third_Party/LoRaWAN/Mac/region/RegionEU433.c **** void RegionEU433SetBandTxDone( SetBandTxDoneParams_t* txDone )
 343:../../../../../../Middlewares/Third_Party/LoRaWAN/Mac/region/RegionEU433.c **** {
 308              		.loc 1 343 0
 309              		.cfi_startproc
 310              		@ args = 0, pretend = 0, frame = 0
 311              		@ frame_needed = 0, uses_anonymous_args = 0
 312              	.LVL10:
 344:../../../../../../Middlewares/Third_Party/LoRaWAN/Mac/region/RegionEU433.c ****     RegionCommonSetBandTxDone( txDone->Joined, &NvmCtx.Bands[NvmCtx.Channels[txDone->Channel].Band]
 313              		.loc 1 344 0
 314 0000 0178     		ldrb	r1, [r0]
 343:../../../../../../Middlewares/Third_Party/LoRaWAN/Mac/region/RegionEU433.c ****     RegionCommonSetBandTxDone( txDone->Joined, &NvmCtx.Bands[NvmCtx.Channels[txDone->Channel].Band]
 315              		.loc 1 343 0
 316 0002 10B5     		push	{r4, lr}
 317              	.LCFI2:
 318              		.cfi_def_cfa_offset 8
 319              		.cfi_offset 4, -8
 320              		.cfi_offset 14, -4
 321              		.loc 1 344 0
 322 0004 4B00     		lsls	r3, r1, #1
 323 0006 064C     		ldr	r4, .L33
 324 0008 5B18     		adds	r3, r3, r1
 325 000a 9B00     		lsls	r3, r3, #2
 326 000c E318     		adds	r3, r4, r3
 327 000e 597A     		ldrb	r1, [r3, #9]
 328 0010 4268     		ldr	r2, [r0, #4]
 329 0012 0C31     		adds	r1, r1, #12
 330 0014 0901     		lsls	r1, r1, #4
 331 0016 0919     		adds	r1, r1, r4
 332 0018 4078     		ldrb	r0, [r0, #1]
 333              	.LVL11:
 334 001a FFF7FEFF 		bl	RegionCommonSetBandTxDone
 335              	.LVL12:
 345:../../../../../../Middlewares/Third_Party/LoRaWAN/Mac/region/RegionEU433.c **** }
 336              		.loc 1 345 0
 337              		@ sp needed
 338 001e 10BD     		pop	{r4, pc}
 339              	.L34:
 340              		.align	2
 341              	.L33:
 342 0020 00000000 		.word	NvmCtx
 343              		.cfi_endproc
 344              	.LFE45:
 345              		.size	RegionEU433SetBandTxDone, .-RegionEU433SetBandTxDone
 346              		.section	.text.RegionEU433InitDefaults,"ax",%progbits
 347              		.align	1
 348              		.p2align 2,,3
 349              		.global	RegionEU433InitDefaults
ARM GAS  C:\Users\EBANO_~1\AppData\Local\Temp\ccpYmjAB.s 			page 14


 350              		.syntax unified
 351              		.code	16
 352              		.thumb_func
 353              		.fpu softvfp
 354              		.type	RegionEU433InitDefaults, %function
 355              	RegionEU433InitDefaults:
 356              	.LFB46:
 346:../../../../../../Middlewares/Third_Party/LoRaWAN/Mac/region/RegionEU433.c **** 
 347:../../../../../../Middlewares/Third_Party/LoRaWAN/Mac/region/RegionEU433.c **** void RegionEU433InitDefaults( InitDefaultsParams_t* params )
 348:../../../../../../Middlewares/Third_Party/LoRaWAN/Mac/region/RegionEU433.c **** {
 357              		.loc 1 348 0
 358              		.cfi_startproc
 359              		@ args = 0, pretend = 0, frame = 16
 360              		@ frame_needed = 0, uses_anonymous_args = 0
 361              	.LVL13:
 362 0000 F0B5     		push	{r4, r5, r6, r7, lr}
 363              	.LCFI3:
 364              		.cfi_def_cfa_offset 20
 365              		.cfi_offset 4, -20
 366              		.cfi_offset 5, -16
 367              		.cfi_offset 6, -12
 368              		.cfi_offset 7, -8
 369              		.cfi_offset 14, -4
 370 0002 85B0     		sub	sp, sp, #20
 371              	.LCFI4:
 372              		.cfi_def_cfa_offset 40
 349:../../../../../../Middlewares/Third_Party/LoRaWAN/Mac/region/RegionEU433.c ****     Band_t bands[EU433_MAX_NB_BANDS] =
 373              		.loc 1 349 0
 374 0004 6423     		movs	r3, #100
 375 0006 6A46     		mov	r2, sp
 376 0008 1380     		strh	r3, [r2]
 377 000a 0023     		movs	r3, #0
 378 000c 9370     		strb	r3, [r2, #2]
 379 000e 0193     		str	r3, [sp, #4]
 380 0010 0293     		str	r3, [sp, #8]
 381 0012 0393     		str	r3, [sp, #12]
 350:../../../../../../Middlewares/Third_Party/LoRaWAN/Mac/region/RegionEU433.c ****     {
 351:../../../../../../Middlewares/Third_Party/LoRaWAN/Mac/region/RegionEU433.c ****         EU433_BAND0
 352:../../../../../../Middlewares/Third_Party/LoRaWAN/Mac/region/RegionEU433.c ****     };
 353:../../../../../../Middlewares/Third_Party/LoRaWAN/Mac/region/RegionEU433.c **** 
 354:../../../../../../Middlewares/Third_Party/LoRaWAN/Mac/region/RegionEU433.c ****     switch( params->Type )
 382              		.loc 1 354 0
 383 0014 0379     		ldrb	r3, [r0, #4]
 384 0016 012B     		cmp	r3, #1
 385 0018 2ED0     		beq	.L37
 386 001a 002B     		cmp	r3, #0
 387 001c 0AD0     		beq	.L38
 388 001e 022B     		cmp	r3, #2
 389 0020 06D1     		bne	.L35
 355:../../../../../../Middlewares/Third_Party/LoRaWAN/Mac/region/RegionEU433.c ****     {
 356:../../../../../../Middlewares/Third_Party/LoRaWAN/Mac/region/RegionEU433.c ****         case INIT_TYPE_INIT:
 357:../../../../../../Middlewares/Third_Party/LoRaWAN/Mac/region/RegionEU433.c ****         {
 358:../../../../../../Middlewares/Third_Party/LoRaWAN/Mac/region/RegionEU433.c ****             // Initialize bands
 359:../../../../../../Middlewares/Third_Party/LoRaWAN/Mac/region/RegionEU433.c ****             memcpy1( ( uint8_t* )NvmCtx.Bands, ( uint8_t* )bands, sizeof( Band_t ) * EU433_MAX_NB_B
 360:../../../../../../Middlewares/Third_Party/LoRaWAN/Mac/region/RegionEU433.c **** 
 361:../../../../../../Middlewares/Third_Party/LoRaWAN/Mac/region/RegionEU433.c ****             // Channels
 362:../../../../../../Middlewares/Third_Party/LoRaWAN/Mac/region/RegionEU433.c ****             NvmCtx.Channels[0] = ( ChannelParams_t ) EU433_LC1;
ARM GAS  C:\Users\EBANO_~1\AppData\Local\Temp\ccpYmjAB.s 			page 15


 363:../../../../../../Middlewares/Third_Party/LoRaWAN/Mac/region/RegionEU433.c ****             NvmCtx.Channels[1] = ( ChannelParams_t ) EU433_LC2;
 364:../../../../../../Middlewares/Third_Party/LoRaWAN/Mac/region/RegionEU433.c ****             NvmCtx.Channels[2] = ( ChannelParams_t ) EU433_LC3;
 365:../../../../../../Middlewares/Third_Party/LoRaWAN/Mac/region/RegionEU433.c **** 
 366:../../../../../../Middlewares/Third_Party/LoRaWAN/Mac/region/RegionEU433.c ****             // Initialize the channels default mask
 367:../../../../../../Middlewares/Third_Party/LoRaWAN/Mac/region/RegionEU433.c ****             NvmCtx.ChannelsDefaultMask[0] = LC( 1 ) + LC( 2 ) + LC( 3 );
 368:../../../../../../Middlewares/Third_Party/LoRaWAN/Mac/region/RegionEU433.c ****             // Update the channels mask
 369:../../../../../../Middlewares/Third_Party/LoRaWAN/Mac/region/RegionEU433.c ****             RegionCommonChanMaskCopy( NvmCtx.ChannelsMask, NvmCtx.ChannelsDefaultMask, 1 );
 370:../../../../../../Middlewares/Third_Party/LoRaWAN/Mac/region/RegionEU433.c ****             break;
 371:../../../../../../Middlewares/Third_Party/LoRaWAN/Mac/region/RegionEU433.c ****         }
 372:../../../../../../Middlewares/Third_Party/LoRaWAN/Mac/region/RegionEU433.c ****         case INIT_TYPE_RESTORE_CTX:
 373:../../../../../../Middlewares/Third_Party/LoRaWAN/Mac/region/RegionEU433.c ****         {
 374:../../../../../../Middlewares/Third_Party/LoRaWAN/Mac/region/RegionEU433.c ****             if( params->NvmCtx != 0 )
 390              		.loc 1 374 0
 391 0022 0168     		ldr	r1, [r0]
 392 0024 0029     		cmp	r1, #0
 393 0026 03D0     		beq	.L35
 375:../../../../../../Middlewares/Third_Party/LoRaWAN/Mac/region/RegionEU433.c ****             {
 376:../../../../../../Middlewares/Third_Party/LoRaWAN/Mac/region/RegionEU433.c ****                 memcpy1( (uint8_t*) &NvmCtx, (uint8_t*) params->NvmCtx, sizeof( NvmCtx ) );
 394              		.loc 1 376 0
 395 0028 D422     		movs	r2, #212
 396 002a 1748     		ldr	r0, .L43
 397              	.LVL14:
 398 002c FFF7FEFF 		bl	memcpy1
 399              	.LVL15:
 400              	.L35:
 377:../../../../../../Middlewares/Third_Party/LoRaWAN/Mac/region/RegionEU433.c ****             }
 378:../../../../../../Middlewares/Third_Party/LoRaWAN/Mac/region/RegionEU433.c ****             break;
 379:../../../../../../Middlewares/Third_Party/LoRaWAN/Mac/region/RegionEU433.c ****         }
 380:../../../../../../Middlewares/Third_Party/LoRaWAN/Mac/region/RegionEU433.c ****         case INIT_TYPE_RESTORE_DEFAULT_CHANNELS:
 381:../../../../../../Middlewares/Third_Party/LoRaWAN/Mac/region/RegionEU433.c ****         {
 382:../../../../../../Middlewares/Third_Party/LoRaWAN/Mac/region/RegionEU433.c ****             // Restore channels default mask
 383:../../../../../../Middlewares/Third_Party/LoRaWAN/Mac/region/RegionEU433.c ****             NvmCtx.ChannelsMask[0] |= NvmCtx.ChannelsDefaultMask[0];
 384:../../../../../../Middlewares/Third_Party/LoRaWAN/Mac/region/RegionEU433.c ****             break;
 385:../../../../../../Middlewares/Third_Party/LoRaWAN/Mac/region/RegionEU433.c ****         }
 386:../../../../../../Middlewares/Third_Party/LoRaWAN/Mac/region/RegionEU433.c ****         default:
 387:../../../../../../Middlewares/Third_Party/LoRaWAN/Mac/region/RegionEU433.c ****         {
 388:../../../../../../Middlewares/Third_Party/LoRaWAN/Mac/region/RegionEU433.c ****             break;
 389:../../../../../../Middlewares/Third_Party/LoRaWAN/Mac/region/RegionEU433.c ****         }
 390:../../../../../../Middlewares/Third_Party/LoRaWAN/Mac/region/RegionEU433.c ****     }
 391:../../../../../../Middlewares/Third_Party/LoRaWAN/Mac/region/RegionEU433.c **** }
 401              		.loc 1 391 0
 402 0030 05B0     		add	sp, sp, #20
 403              		@ sp needed
 404 0032 F0BD     		pop	{r4, r5, r6, r7, pc}
 405              	.LVL16:
 406              	.L38:
 359:../../../../../../Middlewares/Third_Party/LoRaWAN/Mac/region/RegionEU433.c **** 
 407              		.loc 1 359 0
 408 0034 154C     		ldr	r4, .L43+4
 409 0036 6946     		mov	r1, sp
 410 0038 2000     		movs	r0, r4
 411              	.LVL17:
 412 003a 1022     		movs	r2, #16
 413 003c FFF7FEFF 		bl	memcpy1
 414              	.LVL18:
 362:../../../../../../Middlewares/Third_Party/LoRaWAN/Mac/region/RegionEU433.c ****             NvmCtx.Channels[1] = ( ChannelParams_t ) EU433_LC2;
 415              		.loc 1 362 0
ARM GAS  C:\Users\EBANO_~1\AppData\Local\Temp\ccpYmjAB.s 			page 16


 416 0040 2200     		movs	r2, r4
 417 0042 134B     		ldr	r3, .L43+8
 418 0044 C03A     		subs	r2, r2, #192
 419 0046 1900     		movs	r1, r3
 420 0048 1000     		movs	r0, r2
 421 004a 1031     		adds	r1, r1, #16
 422 004c E0C9     		ldmia	r1!, {r5, r6, r7}
 423 004e E0C0     		stmia	r0!, {r5, r6, r7}
 363:../../../../../../Middlewares/Third_Party/LoRaWAN/Mac/region/RegionEU433.c ****             NvmCtx.Channels[2] = ( ChannelParams_t ) EU433_LC3;
 424              		.loc 1 363 0
 425 0050 1900     		movs	r1, r3
 426 0052 1C31     		adds	r1, r1, #28
 427 0054 E0C9     		ldmia	r1!, {r5, r6, r7}
 428 0056 E0C0     		stmia	r0!, {r5, r6, r7}
 364:../../../../../../Middlewares/Third_Party/LoRaWAN/Mac/region/RegionEU433.c **** 
 429              		.loc 1 364 0
 430 0058 2100     		movs	r1, r4
 431 005a 2833     		adds	r3, r3, #40
 432 005c A839     		subs	r1, r1, #168
 433 005e 61CB     		ldmia	r3!, {r0, r5, r6}
 434 0060 61C1     		stmia	r1!, {r0, r5, r6}
 367:../../../../../../Middlewares/Third_Party/LoRaWAN/Mac/region/RegionEU433.c ****             // Update the channels mask
 435              		.loc 1 367 0
 436 0062 D223     		movs	r3, #210
 437 0064 0721     		movs	r1, #7
 369:../../../../../../Middlewares/Third_Party/LoRaWAN/Mac/region/RegionEU433.c ****             break;
 438              		.loc 1 369 0
 439 0066 2000     		movs	r0, r4
 367:../../../../../../Middlewares/Third_Party/LoRaWAN/Mac/region/RegionEU433.c ****             // Update the channels mask
 440              		.loc 1 367 0
 441 0068 D152     		strh	r1, [r2, r3]
 369:../../../../../../Middlewares/Third_Party/LoRaWAN/Mac/region/RegionEU433.c ****             break;
 442              		.loc 1 369 0
 443 006a 2100     		movs	r1, r4
 444 006c 1030     		adds	r0, r0, #16
 445 006e 1231     		adds	r1, r1, #18
 446 0070 0122     		movs	r2, #1
 447 0072 FFF7FEFF 		bl	RegionCommonChanMaskCopy
 448              	.LVL19:
 370:../../../../../../Middlewares/Third_Party/LoRaWAN/Mac/region/RegionEU433.c ****         }
 449              		.loc 1 370 0
 450 0076 DBE7     		b	.L35
 451              	.LVL20:
 452              	.L37:
 383:../../../../../../Middlewares/Third_Party/LoRaWAN/Mac/region/RegionEU433.c ****             break;
 453              		.loc 1 383 0
 454 0078 D021     		movs	r1, #208
 455 007a D220     		movs	r0, #210
 456              	.LVL21:
 457 007c 024B     		ldr	r3, .L43
 458 007e 5A5A     		ldrh	r2, [r3, r1]
 459 0080 185A     		ldrh	r0, [r3, r0]
 460 0082 0243     		orrs	r2, r0
 461 0084 5A52     		strh	r2, [r3, r1]
 462              		.loc 1 391 0
 463 0086 D3E7     		b	.L35
 464              	.L44:
ARM GAS  C:\Users\EBANO_~1\AppData\Local\Temp\ccpYmjAB.s 			page 17


 465              		.align	2
 466              	.L43:
 467 0088 00000000 		.word	NvmCtx
 468 008c C0000000 		.word	NvmCtx+192
 469 0090 00010000 		.word	.LANCHOR0
 470              		.cfi_endproc
 471              	.LFE46:
 472              		.size	RegionEU433InitDefaults, .-RegionEU433InitDefaults
 473              		.section	.text.RegionEU433GetNvmCtx,"ax",%progbits
 474              		.align	1
 475              		.p2align 2,,3
 476              		.global	RegionEU433GetNvmCtx
 477              		.syntax unified
 478              		.code	16
 479              		.thumb_func
 480              		.fpu softvfp
 481              		.type	RegionEU433GetNvmCtx, %function
 482              	RegionEU433GetNvmCtx:
 483              	.LFB47:
 392:../../../../../../Middlewares/Third_Party/LoRaWAN/Mac/region/RegionEU433.c **** 
 393:../../../../../../Middlewares/Third_Party/LoRaWAN/Mac/region/RegionEU433.c **** void* RegionEU433GetNvmCtx( GetNvmCtxParams_t* params )
 394:../../../../../../Middlewares/Third_Party/LoRaWAN/Mac/region/RegionEU433.c **** {
 484              		.loc 1 394 0
 485              		.cfi_startproc
 486              		@ args = 0, pretend = 0, frame = 0
 487              		@ frame_needed = 0, uses_anonymous_args = 0
 488              		@ link register save eliminated.
 489              	.LVL22:
 395:../../../../../../Middlewares/Third_Party/LoRaWAN/Mac/region/RegionEU433.c ****     params->nvmCtxSize = sizeof( RegionEU433NvmCtx_t );
 490              		.loc 1 395 0
 491 0000 D423     		movs	r3, #212
 396:../../../../../../Middlewares/Third_Party/LoRaWAN/Mac/region/RegionEU433.c ****     return &NvmCtx;
 397:../../../../../../Middlewares/Third_Party/LoRaWAN/Mac/region/RegionEU433.c **** }
 492              		.loc 1 397 0
 493              		@ sp needed
 395:../../../../../../Middlewares/Third_Party/LoRaWAN/Mac/region/RegionEU433.c ****     params->nvmCtxSize = sizeof( RegionEU433NvmCtx_t );
 494              		.loc 1 395 0
 495 0002 0360     		str	r3, [r0]
 496              		.loc 1 397 0
 497 0004 0048     		ldr	r0, .L46
 498              	.LVL23:
 499 0006 7047     		bx	lr
 500              	.L47:
 501              		.align	2
 502              	.L46:
 503 0008 00000000 		.word	NvmCtx
 504              		.cfi_endproc
 505              	.LFE47:
 506              		.size	RegionEU433GetNvmCtx, .-RegionEU433GetNvmCtx
 507              		.section	.text.RegionEU433Verify,"ax",%progbits
 508              		.align	1
 509              		.p2align 2,,3
 510              		.global	RegionEU433Verify
 511              		.syntax unified
 512              		.code	16
 513              		.thumb_func
 514              		.fpu softvfp
ARM GAS  C:\Users\EBANO_~1\AppData\Local\Temp\ccpYmjAB.s 			page 18


 515              		.type	RegionEU433Verify, %function
 516              	RegionEU433Verify:
 517              	.LFB48:
 398:../../../../../../Middlewares/Third_Party/LoRaWAN/Mac/region/RegionEU433.c **** 
 399:../../../../../../Middlewares/Third_Party/LoRaWAN/Mac/region/RegionEU433.c **** bool RegionEU433Verify( VerifyParams_t* verify, PhyAttribute_t phyAttribute )
 400:../../../../../../Middlewares/Third_Party/LoRaWAN/Mac/region/RegionEU433.c **** {
 518              		.loc 1 400 0
 519              		.cfi_startproc
 520              		@ args = 0, pretend = 0, frame = 0
 521              		@ frame_needed = 0, uses_anonymous_args = 0
 522              	.LVL24:
 401:../../../../../../Middlewares/Third_Party/LoRaWAN/Mac/region/RegionEU433.c ****     switch( phyAttribute )
 523              		.loc 1 401 0
 524 0000 0439     		subs	r1, r1, #4
 525              	.LVL25:
 526 0002 C9B2     		uxtb	r1, r1
 400:../../../../../../Middlewares/Third_Party/LoRaWAN/Mac/region/RegionEU433.c ****     switch( phyAttribute )
 527              		.loc 1 400 0
 528 0004 10B5     		push	{r4, lr}
 529              	.LCFI5:
 530              		.cfi_def_cfa_offset 8
 531              		.cfi_offset 4, -8
 532              		.cfi_offset 14, -4
 533              		.loc 1 401 0
 534 0006 0A29     		cmp	r1, #10
 535 0008 19D8     		bhi	.L49
 536 000a 0E4B     		ldr	r3, .L56
 537 000c 8900     		lsls	r1, r1, #2
 538 000e 5B58     		ldr	r3, [r3, r1]
 539 0010 9F46     		mov	pc, r3
 540              		.section	.rodata
 541              		.align	2
 542              	.L51:
 543 00ac 26000000 		.word	.L50
 544 00b0 12000000 		.word	.L53
 545 00b4 26000000 		.word	.L50
 546 00b8 3E000000 		.word	.L49
 547 00bc 12000000 		.word	.L53
 548 00c0 12000000 		.word	.L53
 549 00c4 3E000000 		.word	.L49
 550 00c8 3E000000 		.word	.L49
 551 00cc 3E000000 		.word	.L49
 552 00d0 3E000000 		.word	.L49
 553 00d4 3A000000 		.word	.L55
 554              		.section	.text.RegionEU433Verify
 555              	.L53:
 402:../../../../../../Middlewares/Third_Party/LoRaWAN/Mac/region/RegionEU433.c ****     {
 403:../../../../../../Middlewares/Third_Party/LoRaWAN/Mac/region/RegionEU433.c ****         case PHY_TX_DR:
 404:../../../../../../Middlewares/Third_Party/LoRaWAN/Mac/region/RegionEU433.c ****         {
 405:../../../../../../Middlewares/Third_Party/LoRaWAN/Mac/region/RegionEU433.c ****             return RegionCommonValueInRange( verify->DatarateParams.Datarate, EU433_TX_MIN_DATARATE
 406:../../../../../../Middlewares/Third_Party/LoRaWAN/Mac/region/RegionEU433.c ****         }
 407:../../../../../../Middlewares/Third_Party/LoRaWAN/Mac/region/RegionEU433.c ****         case PHY_DEF_TX_DR:
 408:../../../../../../Middlewares/Third_Party/LoRaWAN/Mac/region/RegionEU433.c ****         {
 409:../../../../../../Middlewares/Third_Party/LoRaWAN/Mac/region/RegionEU433.c ****             return RegionCommonValueInRange( verify->DatarateParams.Datarate, DR_0, DR_5 );
 410:../../../../../../Middlewares/Third_Party/LoRaWAN/Mac/region/RegionEU433.c ****         }
 411:../../../../../../Middlewares/Third_Party/LoRaWAN/Mac/region/RegionEU433.c ****         case PHY_RX_DR:
 412:../../../../../../Middlewares/Third_Party/LoRaWAN/Mac/region/RegionEU433.c ****         {
ARM GAS  C:\Users\EBANO_~1\AppData\Local\Temp\ccpYmjAB.s 			page 19


 413:../../../../../../Middlewares/Third_Party/LoRaWAN/Mac/region/RegionEU433.c ****             return RegionCommonValueInRange( verify->DatarateParams.Datarate, EU433_RX_MIN_DATARATE
 414:../../../../../../Middlewares/Third_Party/LoRaWAN/Mac/region/RegionEU433.c ****         }
 415:../../../../../../Middlewares/Third_Party/LoRaWAN/Mac/region/RegionEU433.c ****         case PHY_DEF_TX_POWER:
 416:../../../../../../Middlewares/Third_Party/LoRaWAN/Mac/region/RegionEU433.c ****         case PHY_TX_POWER:
 417:../../../../../../Middlewares/Third_Party/LoRaWAN/Mac/region/RegionEU433.c ****         {
 418:../../../../../../Middlewares/Third_Party/LoRaWAN/Mac/region/RegionEU433.c ****             // Remark: switched min and max!
 419:../../../../../../Middlewares/Third_Party/LoRaWAN/Mac/region/RegionEU433.c ****             return RegionCommonValueInRange( verify->TxPower, EU433_MAX_TX_POWER, EU433_MIN_TX_POWE
 556              		.loc 1 419 0
 557 0012 0078     		ldrb	r0, [r0]
 558              	.LVL26:
 559 0014 0522     		movs	r2, #5
 560 0016 40B2     		sxtb	r0, r0
 561 0018 0021     		movs	r1, #0
 562 001a FFF7FEFF 		bl	RegionCommonValueInRange
 563              	.LVL27:
 564 001e 431E     		subs	r3, r0, #1
 565 0020 9841     		sbcs	r0, r0, r3
 566 0022 C0B2     		uxtb	r0, r0
 567              	.L54:
 420:../../../../../../Middlewares/Third_Party/LoRaWAN/Mac/region/RegionEU433.c ****         }
 421:../../../../../../Middlewares/Third_Party/LoRaWAN/Mac/region/RegionEU433.c ****         case PHY_DUTY_CYCLE:
 422:../../../../../../Middlewares/Third_Party/LoRaWAN/Mac/region/RegionEU433.c ****         {
 423:../../../../../../Middlewares/Third_Party/LoRaWAN/Mac/region/RegionEU433.c ****             return EU433_DUTY_CYCLE_ENABLED;
 424:../../../../../../Middlewares/Third_Party/LoRaWAN/Mac/region/RegionEU433.c ****         }
 425:../../../../../../Middlewares/Third_Party/LoRaWAN/Mac/region/RegionEU433.c ****         default:
 426:../../../../../../Middlewares/Third_Party/LoRaWAN/Mac/region/RegionEU433.c ****             return false;
 427:../../../../../../Middlewares/Third_Party/LoRaWAN/Mac/region/RegionEU433.c ****     }
 428:../../../../../../Middlewares/Third_Party/LoRaWAN/Mac/region/RegionEU433.c **** }
 568              		.loc 1 428 0
 569              		@ sp needed
 570 0024 10BD     		pop	{r4, pc}
 571              	.LVL28:
 572              	.L50:
 405:../../../../../../Middlewares/Third_Party/LoRaWAN/Mac/region/RegionEU433.c ****         }
 573              		.loc 1 405 0
 574 0026 0078     		ldrb	r0, [r0]
 575              	.LVL29:
 576 0028 0722     		movs	r2, #7
 577 002a 40B2     		sxtb	r0, r0
 578 002c 0021     		movs	r1, #0
 579 002e FFF7FEFF 		bl	RegionCommonValueInRange
 580              	.LVL30:
 581 0032 431E     		subs	r3, r0, #1
 582 0034 9841     		sbcs	r0, r0, r3
 583 0036 C0B2     		uxtb	r0, r0
 584 0038 F4E7     		b	.L54
 585              	.LVL31:
 586              	.L55:
 423:../../../../../../Middlewares/Third_Party/LoRaWAN/Mac/region/RegionEU433.c ****         }
 587              		.loc 1 423 0
 588 003a 0120     		movs	r0, #1
 589              	.LVL32:
 590 003c F2E7     		b	.L54
 591              	.LVL33:
 592              	.L49:
 426:../../../../../../Middlewares/Third_Party/LoRaWAN/Mac/region/RegionEU433.c ****     }
 593              		.loc 1 426 0
ARM GAS  C:\Users\EBANO_~1\AppData\Local\Temp\ccpYmjAB.s 			page 20


 594 003e 0020     		movs	r0, #0
 595              	.LVL34:
 596 0040 F0E7     		b	.L54
 597              	.L57:
 598 0042 C046     		.align	2
 599              	.L56:
 600 0044 AC000000 		.word	.L51
 601              		.cfi_endproc
 602              	.LFE48:
 603              		.size	RegionEU433Verify, .-RegionEU433Verify
 604              		.section	.text.RegionEU433ApplyCFList,"ax",%progbits
 605              		.align	1
 606              		.p2align 2,,3
 607              		.global	RegionEU433ApplyCFList
 608              		.syntax unified
 609              		.code	16
 610              		.thumb_func
 611              		.fpu softvfp
 612              		.type	RegionEU433ApplyCFList, %function
 613              	RegionEU433ApplyCFList:
 614              	.LFB49:
 429:../../../../../../Middlewares/Third_Party/LoRaWAN/Mac/region/RegionEU433.c **** 
 430:../../../../../../Middlewares/Third_Party/LoRaWAN/Mac/region/RegionEU433.c **** void RegionEU433ApplyCFList( ApplyCFListParams_t* applyCFList )
 431:../../../../../../Middlewares/Third_Party/LoRaWAN/Mac/region/RegionEU433.c **** {
 615              		.loc 1 431 0
 616              		.cfi_startproc
 617              		@ args = 0, pretend = 0, frame = 24
 618              		@ frame_needed = 0, uses_anonymous_args = 0
 619              	.LVL35:
 620 0000 F0B5     		push	{r4, r5, r6, r7, lr}
 621              	.LCFI6:
 622              		.cfi_def_cfa_offset 20
 623              		.cfi_offset 4, -20
 624              		.cfi_offset 5, -16
 625              		.cfi_offset 6, -12
 626              		.cfi_offset 7, -8
 627              		.cfi_offset 14, -4
 628 0002 5746     		mov	r7, r10
 629 0004 DE46     		mov	lr, fp
 630 0006 4E46     		mov	r6, r9
 631 0008 4546     		mov	r5, r8
 432:../../../../../../Middlewares/Third_Party/LoRaWAN/Mac/region/RegionEU433.c ****     ChannelParams_t newChannel;
 433:../../../../../../Middlewares/Third_Party/LoRaWAN/Mac/region/RegionEU433.c ****     ChannelAddParams_t channelAdd;
 434:../../../../../../Middlewares/Third_Party/LoRaWAN/Mac/region/RegionEU433.c ****     ChannelRemoveParams_t channelRemove;
 435:../../../../../../Middlewares/Third_Party/LoRaWAN/Mac/region/RegionEU433.c **** 
 436:../../../../../../Middlewares/Third_Party/LoRaWAN/Mac/region/RegionEU433.c ****     // Setup default datarate range
 437:../../../../../../Middlewares/Third_Party/LoRaWAN/Mac/region/RegionEU433.c ****     newChannel.DrRange.Value = ( DR_5 << 4 ) | DR_0;
 632              		.loc 1 437 0
 633 000a 5023     		movs	r3, #80
 431:../../../../../../Middlewares/Third_Party/LoRaWAN/Mac/region/RegionEU433.c ****     ChannelParams_t newChannel;
 634              		.loc 1 431 0
 635 000c E0B5     		push	{r5, r6, r7, lr}
 636              	.LCFI7:
 637              		.cfi_def_cfa_offset 36
 638              		.cfi_offset 8, -36
 639              		.cfi_offset 9, -32
 640              		.cfi_offset 10, -28
ARM GAS  C:\Users\EBANO_~1\AppData\Local\Temp\ccpYmjAB.s 			page 21


 641              		.cfi_offset 11, -24
 642 000e 87B0     		sub	sp, sp, #28
 643              	.LCFI8:
 644              		.cfi_def_cfa_offset 64
 645              		.loc 1 437 0
 646 0010 03AC     		add	r4, sp, #12
 647 0012 2372     		strb	r3, [r4, #8]
 438:../../../../../../Middlewares/Third_Party/LoRaWAN/Mac/region/RegionEU433.c **** 
 439:../../../../../../Middlewares/Third_Party/LoRaWAN/Mac/region/RegionEU433.c ****     // Size of the optional CF list
 440:../../../../../../Middlewares/Third_Party/LoRaWAN/Mac/region/RegionEU433.c ****     if( applyCFList->Size != 16 )
 648              		.loc 1 440 0
 649 0014 0379     		ldrb	r3, [r0, #4]
 431:../../../../../../Middlewares/Third_Party/LoRaWAN/Mac/region/RegionEU433.c ****     ChannelParams_t newChannel;
 650              		.loc 1 431 0
 651 0016 0700     		movs	r7, r0
 652              		.loc 1 440 0
 653 0018 102B     		cmp	r3, #16
 654 001a 06D0     		beq	.L75
 655              	.LVL36:
 656              	.L58:
 441:../../../../../../Middlewares/Third_Party/LoRaWAN/Mac/region/RegionEU433.c ****     {
 442:../../../../../../Middlewares/Third_Party/LoRaWAN/Mac/region/RegionEU433.c ****         return;
 443:../../../../../../Middlewares/Third_Party/LoRaWAN/Mac/region/RegionEU433.c ****     }
 444:../../../../../../Middlewares/Third_Party/LoRaWAN/Mac/region/RegionEU433.c **** 
 445:../../../../../../Middlewares/Third_Party/LoRaWAN/Mac/region/RegionEU433.c ****     // Last byte CFListType must be 0 to indicate the CFList contains a list of frequencies
 446:../../../../../../Middlewares/Third_Party/LoRaWAN/Mac/region/RegionEU433.c ****     if( applyCFList->Payload[15] != 0 )
 447:../../../../../../Middlewares/Third_Party/LoRaWAN/Mac/region/RegionEU433.c ****     {
 448:../../../../../../Middlewares/Third_Party/LoRaWAN/Mac/region/RegionEU433.c ****         return;
 449:../../../../../../Middlewares/Third_Party/LoRaWAN/Mac/region/RegionEU433.c ****     }
 450:../../../../../../Middlewares/Third_Party/LoRaWAN/Mac/region/RegionEU433.c **** 
 451:../../../../../../Middlewares/Third_Party/LoRaWAN/Mac/region/RegionEU433.c ****     // Last byte is RFU, don't take it into account
 452:../../../../../../Middlewares/Third_Party/LoRaWAN/Mac/region/RegionEU433.c ****     for( uint8_t i = 0, chanIdx = EU433_NUMB_DEFAULT_CHANNELS; chanIdx < EU433_MAX_NB_CHANNELS; i+=
 453:../../../../../../Middlewares/Third_Party/LoRaWAN/Mac/region/RegionEU433.c ****     {
 454:../../../../../../Middlewares/Third_Party/LoRaWAN/Mac/region/RegionEU433.c ****         if( chanIdx < ( EU433_NUMB_CHANNELS_CF_LIST + EU433_NUMB_DEFAULT_CHANNELS ) )
 455:../../../../../../Middlewares/Third_Party/LoRaWAN/Mac/region/RegionEU433.c ****         {
 456:../../../../../../Middlewares/Third_Party/LoRaWAN/Mac/region/RegionEU433.c ****             // Channel frequency
 457:../../../../../../Middlewares/Third_Party/LoRaWAN/Mac/region/RegionEU433.c ****             newChannel.Frequency = (uint32_t) applyCFList->Payload[i];
 458:../../../../../../Middlewares/Third_Party/LoRaWAN/Mac/region/RegionEU433.c ****             newChannel.Frequency |= ( (uint32_t) applyCFList->Payload[i + 1] << 8 );
 459:../../../../../../Middlewares/Third_Party/LoRaWAN/Mac/region/RegionEU433.c ****             newChannel.Frequency |= ( (uint32_t) applyCFList->Payload[i + 2] << 16 );
 460:../../../../../../Middlewares/Third_Party/LoRaWAN/Mac/region/RegionEU433.c ****             newChannel.Frequency *= 100;
 461:../../../../../../Middlewares/Third_Party/LoRaWAN/Mac/region/RegionEU433.c **** 
 462:../../../../../../Middlewares/Third_Party/LoRaWAN/Mac/region/RegionEU433.c ****             // Initialize alternative frequency to 0
 463:../../../../../../Middlewares/Third_Party/LoRaWAN/Mac/region/RegionEU433.c ****             newChannel.Rx1Frequency = 0;
 464:../../../../../../Middlewares/Third_Party/LoRaWAN/Mac/region/RegionEU433.c ****         }
 465:../../../../../../Middlewares/Third_Party/LoRaWAN/Mac/region/RegionEU433.c ****         else
 466:../../../../../../Middlewares/Third_Party/LoRaWAN/Mac/region/RegionEU433.c ****         {
 467:../../../../../../Middlewares/Third_Party/LoRaWAN/Mac/region/RegionEU433.c ****             newChannel.Frequency = 0;
 468:../../../../../../Middlewares/Third_Party/LoRaWAN/Mac/region/RegionEU433.c ****             newChannel.DrRange.Value = 0;
 469:../../../../../../Middlewares/Third_Party/LoRaWAN/Mac/region/RegionEU433.c ****             newChannel.Rx1Frequency = 0;
 470:../../../../../../Middlewares/Third_Party/LoRaWAN/Mac/region/RegionEU433.c ****         }
 471:../../../../../../Middlewares/Third_Party/LoRaWAN/Mac/region/RegionEU433.c **** 
 472:../../../../../../Middlewares/Third_Party/LoRaWAN/Mac/region/RegionEU433.c ****         if( newChannel.Frequency != 0 )
 473:../../../../../../Middlewares/Third_Party/LoRaWAN/Mac/region/RegionEU433.c ****         {
 474:../../../../../../Middlewares/Third_Party/LoRaWAN/Mac/region/RegionEU433.c ****             channelAdd.NewChannel = &newChannel;
 475:../../../../../../Middlewares/Third_Party/LoRaWAN/Mac/region/RegionEU433.c ****             channelAdd.ChannelId = chanIdx;
 476:../../../../../../Middlewares/Third_Party/LoRaWAN/Mac/region/RegionEU433.c **** 
 477:../../../../../../Middlewares/Third_Party/LoRaWAN/Mac/region/RegionEU433.c ****             // Try to add all channels
ARM GAS  C:\Users\EBANO_~1\AppData\Local\Temp\ccpYmjAB.s 			page 22


 478:../../../../../../Middlewares/Third_Party/LoRaWAN/Mac/region/RegionEU433.c ****             RegionEU433ChannelAdd( &channelAdd );
 479:../../../../../../Middlewares/Third_Party/LoRaWAN/Mac/region/RegionEU433.c ****         }
 480:../../../../../../Middlewares/Third_Party/LoRaWAN/Mac/region/RegionEU433.c ****         else
 481:../../../../../../Middlewares/Third_Party/LoRaWAN/Mac/region/RegionEU433.c ****         {
 482:../../../../../../Middlewares/Third_Party/LoRaWAN/Mac/region/RegionEU433.c ****             channelRemove.ChannelId = chanIdx;
 483:../../../../../../Middlewares/Third_Party/LoRaWAN/Mac/region/RegionEU433.c **** 
 484:../../../../../../Middlewares/Third_Party/LoRaWAN/Mac/region/RegionEU433.c ****             RegionEU433ChannelsRemove( &channelRemove );
 485:../../../../../../Middlewares/Third_Party/LoRaWAN/Mac/region/RegionEU433.c ****         }
 486:../../../../../../Middlewares/Third_Party/LoRaWAN/Mac/region/RegionEU433.c ****     }
 487:../../../../../../Middlewares/Third_Party/LoRaWAN/Mac/region/RegionEU433.c **** }
 657              		.loc 1 487 0
 658 001c 07B0     		add	sp, sp, #28
 659              		@ sp needed
 660              	.LVL37:
 661 001e 3CBC     		pop	{r2, r3, r4, r5}
 662 0020 9046     		mov	r8, r2
 663 0022 9946     		mov	r9, r3
 664 0024 A246     		mov	r10, r4
 665 0026 AB46     		mov	fp, r5
 666 0028 F0BD     		pop	{r4, r5, r6, r7, pc}
 667              	.LVL38:
 668              	.L75:
 446:../../../../../../Middlewares/Third_Party/LoRaWAN/Mac/region/RegionEU433.c ****     {
 669              		.loc 1 446 0
 670 002a 0368     		ldr	r3, [r0]
 671 002c DB7B     		ldrb	r3, [r3, #15]
 672 002e 002B     		cmp	r3, #0
 673 0030 F4D1     		bne	.L58
 674              	.LBB31:
 675              	.LBB32:
 676              	.LBB33:
 488:../../../../../../Middlewares/Third_Party/LoRaWAN/Mac/region/RegionEU433.c **** 
 489:../../../../../../Middlewares/Third_Party/LoRaWAN/Mac/region/RegionEU433.c **** bool RegionEU433ChanMaskSet( ChanMaskSetParams_t* chanMaskSet )
 490:../../../../../../Middlewares/Third_Party/LoRaWAN/Mac/region/RegionEU433.c **** {
 491:../../../../../../Middlewares/Third_Party/LoRaWAN/Mac/region/RegionEU433.c ****     switch( chanMaskSet->ChannelsMaskType )
 492:../../../../../../Middlewares/Third_Party/LoRaWAN/Mac/region/RegionEU433.c ****     {
 493:../../../../../../Middlewares/Third_Party/LoRaWAN/Mac/region/RegionEU433.c ****         case CHANNELS_MASK:
 494:../../../../../../Middlewares/Third_Party/LoRaWAN/Mac/region/RegionEU433.c ****         {
 495:../../../../../../Middlewares/Third_Party/LoRaWAN/Mac/region/RegionEU433.c ****             RegionCommonChanMaskCopy( NvmCtx.ChannelsMask, chanMaskSet->ChannelsMaskIn, 1 );
 496:../../../../../../Middlewares/Third_Party/LoRaWAN/Mac/region/RegionEU433.c ****             break;
 497:../../../../../../Middlewares/Third_Party/LoRaWAN/Mac/region/RegionEU433.c ****         }
 498:../../../../../../Middlewares/Third_Party/LoRaWAN/Mac/region/RegionEU433.c ****         case CHANNELS_DEFAULT_MASK:
 499:../../../../../../Middlewares/Third_Party/LoRaWAN/Mac/region/RegionEU433.c ****         {
 500:../../../../../../Middlewares/Third_Party/LoRaWAN/Mac/region/RegionEU433.c ****             RegionCommonChanMaskCopy( NvmCtx.ChannelsDefaultMask, chanMaskSet->ChannelsMaskIn, 1 );
 501:../../../../../../Middlewares/Third_Party/LoRaWAN/Mac/region/RegionEU433.c ****             break;
 502:../../../../../../Middlewares/Third_Party/LoRaWAN/Mac/region/RegionEU433.c ****         }
 503:../../../../../../Middlewares/Third_Party/LoRaWAN/Mac/region/RegionEU433.c ****         default:
 504:../../../../../../Middlewares/Third_Party/LoRaWAN/Mac/region/RegionEU433.c ****             return false;
 505:../../../../../../Middlewares/Third_Party/LoRaWAN/Mac/region/RegionEU433.c ****     }
 506:../../../../../../Middlewares/Third_Party/LoRaWAN/Mac/region/RegionEU433.c ****     return true;
 507:../../../../../../Middlewares/Third_Party/LoRaWAN/Mac/region/RegionEU433.c **** }
 508:../../../../../../Middlewares/Third_Party/LoRaWAN/Mac/region/RegionEU433.c **** 
 509:../../../../../../Middlewares/Third_Party/LoRaWAN/Mac/region/RegionEU433.c **** void RegionEU433ComputeRxWindowParameters( int8_t datarate, uint8_t minRxSymbols, uint32_t rxError,
 510:../../../../../../Middlewares/Third_Party/LoRaWAN/Mac/region/RegionEU433.c **** {
 511:../../../../../../Middlewares/Third_Party/LoRaWAN/Mac/region/RegionEU433.c ****     double tSymbol = 0.0;
 512:../../../../../../Middlewares/Third_Party/LoRaWAN/Mac/region/RegionEU433.c **** 
 513:../../../../../../Middlewares/Third_Party/LoRaWAN/Mac/region/RegionEU433.c ****     // Get the datarate, perform a boundary check
ARM GAS  C:\Users\EBANO_~1\AppData\Local\Temp\ccpYmjAB.s 			page 23


 514:../../../../../../Middlewares/Third_Party/LoRaWAN/Mac/region/RegionEU433.c ****     rxConfigParams->Datarate = MIN( datarate, EU433_RX_MAX_DATARATE );
 515:../../../../../../Middlewares/Third_Party/LoRaWAN/Mac/region/RegionEU433.c ****     rxConfigParams->Bandwidth = GetBandwidth( rxConfigParams->Datarate );
 516:../../../../../../Middlewares/Third_Party/LoRaWAN/Mac/region/RegionEU433.c **** 
 517:../../../../../../Middlewares/Third_Party/LoRaWAN/Mac/region/RegionEU433.c ****     if( rxConfigParams->Datarate == DR_7 )
 518:../../../../../../Middlewares/Third_Party/LoRaWAN/Mac/region/RegionEU433.c ****     { // FSK
 519:../../../../../../Middlewares/Third_Party/LoRaWAN/Mac/region/RegionEU433.c ****         tSymbol = RegionCommonComputeSymbolTimeFsk( DataratesEU433[rxConfigParams->Datarate] );
 520:../../../../../../Middlewares/Third_Party/LoRaWAN/Mac/region/RegionEU433.c ****     }
 521:../../../../../../Middlewares/Third_Party/LoRaWAN/Mac/region/RegionEU433.c ****     else
 522:../../../../../../Middlewares/Third_Party/LoRaWAN/Mac/region/RegionEU433.c ****     { // LoRa
 523:../../../../../../Middlewares/Third_Party/LoRaWAN/Mac/region/RegionEU433.c ****         tSymbol = RegionCommonComputeSymbolTimeLoRa( DataratesEU433[rxConfigParams->Datarate], Band
 524:../../../../../../Middlewares/Third_Party/LoRaWAN/Mac/region/RegionEU433.c ****     }
 525:../../../../../../Middlewares/Third_Party/LoRaWAN/Mac/region/RegionEU433.c **** 
 526:../../../../../../Middlewares/Third_Party/LoRaWAN/Mac/region/RegionEU433.c ****     RegionCommonComputeRxWindowParameters( tSymbol, minRxSymbols, rxError, Radio.GetWakeupTime( ), 
 527:../../../../../../Middlewares/Third_Party/LoRaWAN/Mac/region/RegionEU433.c **** }
 528:../../../../../../Middlewares/Third_Party/LoRaWAN/Mac/region/RegionEU433.c **** 
 529:../../../../../../Middlewares/Third_Party/LoRaWAN/Mac/region/RegionEU433.c **** bool RegionEU433RxConfig( RxConfigParams_t* rxConfig, int8_t* datarate )
 530:../../../../../../Middlewares/Third_Party/LoRaWAN/Mac/region/RegionEU433.c **** {
 531:../../../../../../Middlewares/Third_Party/LoRaWAN/Mac/region/RegionEU433.c ****     RadioModems_t modem;
 532:../../../../../../Middlewares/Third_Party/LoRaWAN/Mac/region/RegionEU433.c ****     int8_t dr = rxConfig->Datarate;
 533:../../../../../../Middlewares/Third_Party/LoRaWAN/Mac/region/RegionEU433.c ****     uint8_t maxPayload = 0;
 534:../../../../../../Middlewares/Third_Party/LoRaWAN/Mac/region/RegionEU433.c ****     int8_t phyDr = 0;
 535:../../../../../../Middlewares/Third_Party/LoRaWAN/Mac/region/RegionEU433.c ****     uint32_t frequency = rxConfig->Frequency;
 536:../../../../../../Middlewares/Third_Party/LoRaWAN/Mac/region/RegionEU433.c **** 
 537:../../../../../../Middlewares/Third_Party/LoRaWAN/Mac/region/RegionEU433.c ****     if( Radio.GetStatus( ) != RF_IDLE )
 538:../../../../../../Middlewares/Third_Party/LoRaWAN/Mac/region/RegionEU433.c ****     {
 539:../../../../../../Middlewares/Third_Party/LoRaWAN/Mac/region/RegionEU433.c ****         return false;
 540:../../../../../../Middlewares/Third_Party/LoRaWAN/Mac/region/RegionEU433.c ****     }
 541:../../../../../../Middlewares/Third_Party/LoRaWAN/Mac/region/RegionEU433.c **** 
 542:../../../../../../Middlewares/Third_Party/LoRaWAN/Mac/region/RegionEU433.c ****     if( rxConfig->RxSlot == RX_SLOT_WIN_1 )
 543:../../../../../../Middlewares/Third_Party/LoRaWAN/Mac/region/RegionEU433.c ****     {
 544:../../../../../../Middlewares/Third_Party/LoRaWAN/Mac/region/RegionEU433.c ****         // Apply window 1 frequency
 545:../../../../../../Middlewares/Third_Party/LoRaWAN/Mac/region/RegionEU433.c ****         frequency = NvmCtx.Channels[rxConfig->Channel].Frequency;
 546:../../../../../../Middlewares/Third_Party/LoRaWAN/Mac/region/RegionEU433.c ****         // Apply the alternative RX 1 window frequency, if it is available
 547:../../../../../../Middlewares/Third_Party/LoRaWAN/Mac/region/RegionEU433.c ****         if( NvmCtx.Channels[rxConfig->Channel].Rx1Frequency != 0 )
 548:../../../../../../Middlewares/Third_Party/LoRaWAN/Mac/region/RegionEU433.c ****         {
 549:../../../../../../Middlewares/Third_Party/LoRaWAN/Mac/region/RegionEU433.c ****             frequency = NvmCtx.Channels[rxConfig->Channel].Rx1Frequency;
 550:../../../../../../Middlewares/Third_Party/LoRaWAN/Mac/region/RegionEU433.c ****         }
 551:../../../../../../Middlewares/Third_Party/LoRaWAN/Mac/region/RegionEU433.c ****     }
 552:../../../../../../Middlewares/Third_Party/LoRaWAN/Mac/region/RegionEU433.c **** 
 553:../../../../../../Middlewares/Third_Party/LoRaWAN/Mac/region/RegionEU433.c ****     // Read the physical datarate from the datarates table
 554:../../../../../../Middlewares/Third_Party/LoRaWAN/Mac/region/RegionEU433.c ****     phyDr = DataratesEU433[dr];
 555:../../../../../../Middlewares/Third_Party/LoRaWAN/Mac/region/RegionEU433.c **** 
 556:../../../../../../Middlewares/Third_Party/LoRaWAN/Mac/region/RegionEU433.c ****     Radio.SetChannel( frequency );
 557:../../../../../../Middlewares/Third_Party/LoRaWAN/Mac/region/RegionEU433.c **** 
 558:../../../../../../Middlewares/Third_Party/LoRaWAN/Mac/region/RegionEU433.c ****     // Radio configuration
 559:../../../../../../Middlewares/Third_Party/LoRaWAN/Mac/region/RegionEU433.c ****     if( dr == DR_7 )
 560:../../../../../../Middlewares/Third_Party/LoRaWAN/Mac/region/RegionEU433.c ****     {
 561:../../../../../../Middlewares/Third_Party/LoRaWAN/Mac/region/RegionEU433.c ****         modem = MODEM_FSK;
 562:../../../../../../Middlewares/Third_Party/LoRaWAN/Mac/region/RegionEU433.c ****         Radio.SetRxConfig( modem, 50000, phyDr * 1000, 0, 83333, 5, rxConfig->WindowTimeout, false,
 563:../../../../../../Middlewares/Third_Party/LoRaWAN/Mac/region/RegionEU433.c ****     }
 564:../../../../../../Middlewares/Third_Party/LoRaWAN/Mac/region/RegionEU433.c ****     else
 565:../../../../../../Middlewares/Third_Party/LoRaWAN/Mac/region/RegionEU433.c ****     {
 566:../../../../../../Middlewares/Third_Party/LoRaWAN/Mac/region/RegionEU433.c ****         modem = MODEM_LORA;
 567:../../../../../../Middlewares/Third_Party/LoRaWAN/Mac/region/RegionEU433.c ****         Radio.SetRxConfig( modem, rxConfig->Bandwidth, phyDr, 1, 0, 8, rxConfig->WindowTimeout, fal
 568:../../../../../../Middlewares/Third_Party/LoRaWAN/Mac/region/RegionEU433.c ****     }
 569:../../../../../../Middlewares/Third_Party/LoRaWAN/Mac/region/RegionEU433.c **** 
 570:../../../../../../Middlewares/Third_Party/LoRaWAN/Mac/region/RegionEU433.c ****     if( rxConfig->RepeaterSupport == true )
ARM GAS  C:\Users\EBANO_~1\AppData\Local\Temp\ccpYmjAB.s 			page 24


 571:../../../../../../Middlewares/Third_Party/LoRaWAN/Mac/region/RegionEU433.c ****     {
 572:../../../../../../Middlewares/Third_Party/LoRaWAN/Mac/region/RegionEU433.c ****         maxPayload = MaxPayloadOfDatarateRepeaterEU433[dr];
 573:../../../../../../Middlewares/Third_Party/LoRaWAN/Mac/region/RegionEU433.c ****     }
 574:../../../../../../Middlewares/Third_Party/LoRaWAN/Mac/region/RegionEU433.c ****     else
 575:../../../../../../Middlewares/Third_Party/LoRaWAN/Mac/region/RegionEU433.c ****     {
 576:../../../../../../Middlewares/Third_Party/LoRaWAN/Mac/region/RegionEU433.c ****         maxPayload = MaxPayloadOfDatarateEU433[dr];
 577:../../../../../../Middlewares/Third_Party/LoRaWAN/Mac/region/RegionEU433.c ****     }
 578:../../../../../../Middlewares/Third_Party/LoRaWAN/Mac/region/RegionEU433.c ****     Radio.SetMaxPayloadLength( modem, maxPayload + LORA_MAC_FRMPAYLOAD_OVERHEAD );
 579:../../../../../../Middlewares/Third_Party/LoRaWAN/Mac/region/RegionEU433.c ****     TVL1( PRINTF( "RX on freq %d Hz at DR %d\n\r", frequency, dr );)
 580:../../../../../../Middlewares/Third_Party/LoRaWAN/Mac/region/RegionEU433.c **** 
 581:../../../../../../Middlewares/Third_Party/LoRaWAN/Mac/region/RegionEU433.c ****     *datarate = (uint8_t) dr;
 582:../../../../../../Middlewares/Third_Party/LoRaWAN/Mac/region/RegionEU433.c ****     return true;
 583:../../../../../../Middlewares/Third_Party/LoRaWAN/Mac/region/RegionEU433.c **** }
 584:../../../../../../Middlewares/Third_Party/LoRaWAN/Mac/region/RegionEU433.c **** 
 585:../../../../../../Middlewares/Third_Party/LoRaWAN/Mac/region/RegionEU433.c **** bool RegionEU433TxConfig( TxConfigParams_t* txConfig, int8_t* txPower, TimerTime_t* txTimeOnAir )
 586:../../../../../../Middlewares/Third_Party/LoRaWAN/Mac/region/RegionEU433.c **** {
 587:../../../../../../Middlewares/Third_Party/LoRaWAN/Mac/region/RegionEU433.c ****     RadioModems_t modem;
 588:../../../../../../Middlewares/Third_Party/LoRaWAN/Mac/region/RegionEU433.c ****     int8_t phyDr = DataratesEU433[txConfig->Datarate];
 589:../../../../../../Middlewares/Third_Party/LoRaWAN/Mac/region/RegionEU433.c ****     int8_t txPowerLimited = LimitTxPower( txConfig->TxPower, NvmCtx.Bands[NvmCtx.Channels[txConfig-
 590:../../../../../../Middlewares/Third_Party/LoRaWAN/Mac/region/RegionEU433.c ****     uint32_t bandwidth = GetBandwidth( txConfig->Datarate );
 591:../../../../../../Middlewares/Third_Party/LoRaWAN/Mac/region/RegionEU433.c ****     int8_t phyTxPower = 0;
 592:../../../../../../Middlewares/Third_Party/LoRaWAN/Mac/region/RegionEU433.c **** 
 593:../../../../../../Middlewares/Third_Party/LoRaWAN/Mac/region/RegionEU433.c ****     // Calculate physical TX power
 594:../../../../../../Middlewares/Third_Party/LoRaWAN/Mac/region/RegionEU433.c ****     phyTxPower = RegionCommonComputeTxPower( txPowerLimited, txConfig->MaxEirp, txConfig->AntennaGa
 595:../../../../../../Middlewares/Third_Party/LoRaWAN/Mac/region/RegionEU433.c **** 
 596:../../../../../../Middlewares/Third_Party/LoRaWAN/Mac/region/RegionEU433.c ****     // Setup the radio frequency
 597:../../../../../../Middlewares/Third_Party/LoRaWAN/Mac/region/RegionEU433.c ****     Radio.SetChannel( NvmCtx.Channels[txConfig->Channel].Frequency );
 598:../../../../../../Middlewares/Third_Party/LoRaWAN/Mac/region/RegionEU433.c **** 
 599:../../../../../../Middlewares/Third_Party/LoRaWAN/Mac/region/RegionEU433.c ****     if( txConfig->Datarate == DR_7 )
 600:../../../../../../Middlewares/Third_Party/LoRaWAN/Mac/region/RegionEU433.c ****     { // High Speed FSK channel
 601:../../../../../../Middlewares/Third_Party/LoRaWAN/Mac/region/RegionEU433.c ****         modem = MODEM_FSK;
 602:../../../../../../Middlewares/Third_Party/LoRaWAN/Mac/region/RegionEU433.c ****         Radio.SetTxConfig( modem, phyTxPower, 25000, bandwidth, phyDr * 1000, 0, 5, false, true, 0,
 603:../../../../../../Middlewares/Third_Party/LoRaWAN/Mac/region/RegionEU433.c ****     }
 604:../../../../../../Middlewares/Third_Party/LoRaWAN/Mac/region/RegionEU433.c ****     else
 605:../../../../../../Middlewares/Third_Party/LoRaWAN/Mac/region/RegionEU433.c ****     {
 606:../../../../../../Middlewares/Third_Party/LoRaWAN/Mac/region/RegionEU433.c ****         modem = MODEM_LORA;
 607:../../../../../../Middlewares/Third_Party/LoRaWAN/Mac/region/RegionEU433.c ****         Radio.SetTxConfig( modem, phyTxPower, 0, bandwidth, phyDr, 1, 8, false, true, 0, 0, false, 
 608:../../../../../../Middlewares/Third_Party/LoRaWAN/Mac/region/RegionEU433.c ****     }
 609:../../../../../../Middlewares/Third_Party/LoRaWAN/Mac/region/RegionEU433.c ****     TVL1( PRINTF( "TX on freq %d Hz at DR %d\n\r", NvmCtx.Channels[txConfig->Channel].Frequency, tx
 610:../../../../../../Middlewares/Third_Party/LoRaWAN/Mac/region/RegionEU433.c **** 
 611:../../../../../../Middlewares/Third_Party/LoRaWAN/Mac/region/RegionEU433.c ****     // Setup maximum payload lenght of the radio driver
 612:../../../../../../Middlewares/Third_Party/LoRaWAN/Mac/region/RegionEU433.c ****     Radio.SetMaxPayloadLength( modem, txConfig->PktLen );
 613:../../../../../../Middlewares/Third_Party/LoRaWAN/Mac/region/RegionEU433.c ****     // Get the time-on-air of the next tx frame
 614:../../../../../../Middlewares/Third_Party/LoRaWAN/Mac/region/RegionEU433.c ****     *txTimeOnAir = Radio.TimeOnAir( modem, txConfig->PktLen );
 615:../../../../../../Middlewares/Third_Party/LoRaWAN/Mac/region/RegionEU433.c **** 
 616:../../../../../../Middlewares/Third_Party/LoRaWAN/Mac/region/RegionEU433.c ****     *txPower = txPowerLimited;
 617:../../../../../../Middlewares/Third_Party/LoRaWAN/Mac/region/RegionEU433.c ****     return true;
 618:../../../../../../Middlewares/Third_Party/LoRaWAN/Mac/region/RegionEU433.c **** }
 619:../../../../../../Middlewares/Third_Party/LoRaWAN/Mac/region/RegionEU433.c **** 
 620:../../../../../../Middlewares/Third_Party/LoRaWAN/Mac/region/RegionEU433.c **** uint8_t RegionEU433LinkAdrReq( LinkAdrReqParams_t* linkAdrReq, int8_t* drOut, int8_t* txPowOut, uin
 621:../../../../../../Middlewares/Third_Party/LoRaWAN/Mac/region/RegionEU433.c **** {
 622:../../../../../../Middlewares/Third_Party/LoRaWAN/Mac/region/RegionEU433.c ****     uint8_t status = 0x07;
 623:../../../../../../Middlewares/Third_Party/LoRaWAN/Mac/region/RegionEU433.c ****     RegionCommonLinkAdrParams_t linkAdrParams;
 624:../../../../../../Middlewares/Third_Party/LoRaWAN/Mac/region/RegionEU433.c ****     uint8_t nextIndex = 0;
 625:../../../../../../Middlewares/Third_Party/LoRaWAN/Mac/region/RegionEU433.c ****     uint8_t bytesProcessed = 0;
 626:../../../../../../Middlewares/Third_Party/LoRaWAN/Mac/region/RegionEU433.c ****     uint16_t chMask = 0;
 627:../../../../../../Middlewares/Third_Party/LoRaWAN/Mac/region/RegionEU433.c ****     GetPhyParams_t getPhy;
ARM GAS  C:\Users\EBANO_~1\AppData\Local\Temp\ccpYmjAB.s 			page 25


 628:../../../../../../Middlewares/Third_Party/LoRaWAN/Mac/region/RegionEU433.c ****     PhyParam_t phyParam;
 629:../../../../../../Middlewares/Third_Party/LoRaWAN/Mac/region/RegionEU433.c ****     RegionCommonLinkAdrReqVerifyParams_t linkAdrVerifyParams;
 630:../../../../../../Middlewares/Third_Party/LoRaWAN/Mac/region/RegionEU433.c **** 
 631:../../../../../../Middlewares/Third_Party/LoRaWAN/Mac/region/RegionEU433.c ****     while( bytesProcessed < linkAdrReq->PayloadSize )
 632:../../../../../../Middlewares/Third_Party/LoRaWAN/Mac/region/RegionEU433.c ****     {
 633:../../../../../../Middlewares/Third_Party/LoRaWAN/Mac/region/RegionEU433.c ****         // Get ADR request parameters
 634:../../../../../../Middlewares/Third_Party/LoRaWAN/Mac/region/RegionEU433.c ****         nextIndex = RegionCommonParseLinkAdrReq( &( linkAdrReq->Payload[bytesProcessed] ), &linkAdr
 635:../../../../../../Middlewares/Third_Party/LoRaWAN/Mac/region/RegionEU433.c **** 
 636:../../../../../../Middlewares/Third_Party/LoRaWAN/Mac/region/RegionEU433.c ****         if( nextIndex == 0 )
 637:../../../../../../Middlewares/Third_Party/LoRaWAN/Mac/region/RegionEU433.c ****             break; // break loop, since no more request has been found
 638:../../../../../../Middlewares/Third_Party/LoRaWAN/Mac/region/RegionEU433.c **** 
 639:../../../../../../Middlewares/Third_Party/LoRaWAN/Mac/region/RegionEU433.c ****         // Update bytes processed
 640:../../../../../../Middlewares/Third_Party/LoRaWAN/Mac/region/RegionEU433.c ****         bytesProcessed += nextIndex;
 641:../../../../../../Middlewares/Third_Party/LoRaWAN/Mac/region/RegionEU433.c **** 
 642:../../../../../../Middlewares/Third_Party/LoRaWAN/Mac/region/RegionEU433.c ****         // Revert status, as we only check the last ADR request for the channel mask KO
 643:../../../../../../Middlewares/Third_Party/LoRaWAN/Mac/region/RegionEU433.c ****         status = 0x07;
 644:../../../../../../Middlewares/Third_Party/LoRaWAN/Mac/region/RegionEU433.c **** 
 645:../../../../../../Middlewares/Third_Party/LoRaWAN/Mac/region/RegionEU433.c ****         // Setup temporary channels mask
 646:../../../../../../Middlewares/Third_Party/LoRaWAN/Mac/region/RegionEU433.c ****         chMask = linkAdrParams.ChMask;
 647:../../../../../../Middlewares/Third_Party/LoRaWAN/Mac/region/RegionEU433.c **** 
 648:../../../../../../Middlewares/Third_Party/LoRaWAN/Mac/region/RegionEU433.c ****         // Verify channels mask
 649:../../../../../../Middlewares/Third_Party/LoRaWAN/Mac/region/RegionEU433.c ****         if( ( linkAdrParams.ChMaskCtrl == 0 ) && ( chMask == 0 ) )
 650:../../../../../../Middlewares/Third_Party/LoRaWAN/Mac/region/RegionEU433.c ****         {
 651:../../../../../../Middlewares/Third_Party/LoRaWAN/Mac/region/RegionEU433.c ****             status &= 0xFE; // Channel mask KO
 652:../../../../../../Middlewares/Third_Party/LoRaWAN/Mac/region/RegionEU433.c ****         }
 653:../../../../../../Middlewares/Third_Party/LoRaWAN/Mac/region/RegionEU433.c ****         else if( ( ( linkAdrParams.ChMaskCtrl >= 1 ) && ( linkAdrParams.ChMaskCtrl <= 5 )) ||
 654:../../../../../../Middlewares/Third_Party/LoRaWAN/Mac/region/RegionEU433.c ****                 ( linkAdrParams.ChMaskCtrl >= 7 ) )
 655:../../../../../../Middlewares/Third_Party/LoRaWAN/Mac/region/RegionEU433.c ****         {
 656:../../../../../../Middlewares/Third_Party/LoRaWAN/Mac/region/RegionEU433.c ****             // RFU
 657:../../../../../../Middlewares/Third_Party/LoRaWAN/Mac/region/RegionEU433.c ****             status &= 0xFE; // Channel mask KO
 658:../../../../../../Middlewares/Third_Party/LoRaWAN/Mac/region/RegionEU433.c ****         }
 659:../../../../../../Middlewares/Third_Party/LoRaWAN/Mac/region/RegionEU433.c ****         else
 660:../../../../../../Middlewares/Third_Party/LoRaWAN/Mac/region/RegionEU433.c ****         {
 661:../../../../../../Middlewares/Third_Party/LoRaWAN/Mac/region/RegionEU433.c ****             for( uint8_t i = 0; i < EU433_MAX_NB_CHANNELS; i++ )
 662:../../../../../../Middlewares/Third_Party/LoRaWAN/Mac/region/RegionEU433.c ****             {
 663:../../../../../../Middlewares/Third_Party/LoRaWAN/Mac/region/RegionEU433.c ****                 if( linkAdrParams.ChMaskCtrl == 6 )
 664:../../../../../../Middlewares/Third_Party/LoRaWAN/Mac/region/RegionEU433.c ****                 {
 665:../../../../../../Middlewares/Third_Party/LoRaWAN/Mac/region/RegionEU433.c ****                     if( NvmCtx.Channels[i].Frequency != 0 )
 666:../../../../../../Middlewares/Third_Party/LoRaWAN/Mac/region/RegionEU433.c ****                     {
 667:../../../../../../Middlewares/Third_Party/LoRaWAN/Mac/region/RegionEU433.c ****                         chMask |= 1 << i;
 668:../../../../../../Middlewares/Third_Party/LoRaWAN/Mac/region/RegionEU433.c ****                     }
 669:../../../../../../Middlewares/Third_Party/LoRaWAN/Mac/region/RegionEU433.c ****                 }
 670:../../../../../../Middlewares/Third_Party/LoRaWAN/Mac/region/RegionEU433.c ****                 else
 671:../../../../../../Middlewares/Third_Party/LoRaWAN/Mac/region/RegionEU433.c ****                 {
 672:../../../../../../Middlewares/Third_Party/LoRaWAN/Mac/region/RegionEU433.c ****                     if( ( ( chMask & ( 1 << i ) ) != 0 ) &&
 673:../../../../../../Middlewares/Third_Party/LoRaWAN/Mac/region/RegionEU433.c ****                         ( NvmCtx.Channels[i].Frequency == 0 ) )
 674:../../../../../../Middlewares/Third_Party/LoRaWAN/Mac/region/RegionEU433.c ****                     {// Trying to enable an undefined channel
 675:../../../../../../Middlewares/Third_Party/LoRaWAN/Mac/region/RegionEU433.c ****                         status &= 0xFE; // Channel mask KO
 676:../../../../../../Middlewares/Third_Party/LoRaWAN/Mac/region/RegionEU433.c ****                     }
 677:../../../../../../Middlewares/Third_Party/LoRaWAN/Mac/region/RegionEU433.c ****                 }
 678:../../../../../../Middlewares/Third_Party/LoRaWAN/Mac/region/RegionEU433.c ****             }
 679:../../../../../../Middlewares/Third_Party/LoRaWAN/Mac/region/RegionEU433.c ****         }
 680:../../../../../../Middlewares/Third_Party/LoRaWAN/Mac/region/RegionEU433.c ****     }
 681:../../../../../../Middlewares/Third_Party/LoRaWAN/Mac/region/RegionEU433.c **** 
 682:../../../../../../Middlewares/Third_Party/LoRaWAN/Mac/region/RegionEU433.c ****         // Get the minimum possible datarate
 683:../../../../../../Middlewares/Third_Party/LoRaWAN/Mac/region/RegionEU433.c ****     getPhy.Attribute = PHY_MIN_TX_DR;
 684:../../../../../../Middlewares/Third_Party/LoRaWAN/Mac/region/RegionEU433.c ****     getPhy.UplinkDwellTime = linkAdrReq->UplinkDwellTime;
ARM GAS  C:\Users\EBANO_~1\AppData\Local\Temp\ccpYmjAB.s 			page 26


 685:../../../../../../Middlewares/Third_Party/LoRaWAN/Mac/region/RegionEU433.c ****     phyParam = RegionEU433GetPhyParam( &getPhy );
 686:../../../../../../Middlewares/Third_Party/LoRaWAN/Mac/region/RegionEU433.c **** 
 687:../../../../../../Middlewares/Third_Party/LoRaWAN/Mac/region/RegionEU433.c ****     linkAdrVerifyParams.Status = status;
 688:../../../../../../Middlewares/Third_Party/LoRaWAN/Mac/region/RegionEU433.c ****     linkAdrVerifyParams.AdrEnabled = linkAdrReq->AdrEnabled;
 689:../../../../../../Middlewares/Third_Party/LoRaWAN/Mac/region/RegionEU433.c ****     linkAdrVerifyParams.Datarate = linkAdrParams.Datarate;
 690:../../../../../../Middlewares/Third_Party/LoRaWAN/Mac/region/RegionEU433.c ****     linkAdrVerifyParams.TxPower = linkAdrParams.TxPower;
 691:../../../../../../Middlewares/Third_Party/LoRaWAN/Mac/region/RegionEU433.c ****     linkAdrVerifyParams.NbRep = linkAdrParams.NbRep;
 692:../../../../../../Middlewares/Third_Party/LoRaWAN/Mac/region/RegionEU433.c ****     linkAdrVerifyParams.CurrentDatarate = linkAdrReq->CurrentDatarate;
 693:../../../../../../Middlewares/Third_Party/LoRaWAN/Mac/region/RegionEU433.c ****     linkAdrVerifyParams.CurrentTxPower = linkAdrReq->CurrentTxPower;
 694:../../../../../../Middlewares/Third_Party/LoRaWAN/Mac/region/RegionEU433.c ****     linkAdrVerifyParams.CurrentNbRep = linkAdrReq->CurrentNbRep;
 695:../../../../../../Middlewares/Third_Party/LoRaWAN/Mac/region/RegionEU433.c ****     linkAdrVerifyParams.NbChannels = EU433_MAX_NB_CHANNELS;
 696:../../../../../../Middlewares/Third_Party/LoRaWAN/Mac/region/RegionEU433.c ****     linkAdrVerifyParams.ChannelsMask = &chMask;
 697:../../../../../../Middlewares/Third_Party/LoRaWAN/Mac/region/RegionEU433.c ****     linkAdrVerifyParams.MinDatarate = ( int8_t )phyParam.Value;
 698:../../../../../../Middlewares/Third_Party/LoRaWAN/Mac/region/RegionEU433.c ****     linkAdrVerifyParams.MaxDatarate = EU433_TX_MAX_DATARATE;
 699:../../../../../../Middlewares/Third_Party/LoRaWAN/Mac/region/RegionEU433.c ****     linkAdrVerifyParams.Channels = NvmCtx.Channels;
 700:../../../../../../Middlewares/Third_Party/LoRaWAN/Mac/region/RegionEU433.c ****     linkAdrVerifyParams.MinTxPower = EU433_MIN_TX_POWER;
 701:../../../../../../Middlewares/Third_Party/LoRaWAN/Mac/region/RegionEU433.c ****     linkAdrVerifyParams.MaxTxPower = EU433_MAX_TX_POWER;
 702:../../../../../../Middlewares/Third_Party/LoRaWAN/Mac/region/RegionEU433.c ****     linkAdrVerifyParams.Version = linkAdrReq->Version;
 703:../../../../../../Middlewares/Third_Party/LoRaWAN/Mac/region/RegionEU433.c **** 
 704:../../../../../../Middlewares/Third_Party/LoRaWAN/Mac/region/RegionEU433.c ****     // Verify the parameters and update, if necessary
 705:../../../../../../Middlewares/Third_Party/LoRaWAN/Mac/region/RegionEU433.c ****     status = RegionCommonLinkAdrReqVerifyParams( &linkAdrVerifyParams, &linkAdrParams.Datarate, &li
 706:../../../../../../Middlewares/Third_Party/LoRaWAN/Mac/region/RegionEU433.c **** 
 707:../../../../../../Middlewares/Third_Party/LoRaWAN/Mac/region/RegionEU433.c ****     // Update channelsMask if everything is correct
 708:../../../../../../Middlewares/Third_Party/LoRaWAN/Mac/region/RegionEU433.c ****     if( status == 0x07 )
 709:../../../../../../Middlewares/Third_Party/LoRaWAN/Mac/region/RegionEU433.c ****     {
 710:../../../../../../Middlewares/Third_Party/LoRaWAN/Mac/region/RegionEU433.c ****         // Set the channels mask to a default value
 711:../../../../../../Middlewares/Third_Party/LoRaWAN/Mac/region/RegionEU433.c ****         memset1( ( uint8_t* ) NvmCtx.ChannelsMask, 0, sizeof( NvmCtx.ChannelsMask ) );
 712:../../../../../../Middlewares/Third_Party/LoRaWAN/Mac/region/RegionEU433.c ****         // Update the channels mask
 713:../../../../../../Middlewares/Third_Party/LoRaWAN/Mac/region/RegionEU433.c ****         NvmCtx.ChannelsMask[0] = chMask;
 714:../../../../../../Middlewares/Third_Party/LoRaWAN/Mac/region/RegionEU433.c ****     }
 715:../../../../../../Middlewares/Third_Party/LoRaWAN/Mac/region/RegionEU433.c **** 
 716:../../../../../../Middlewares/Third_Party/LoRaWAN/Mac/region/RegionEU433.c ****     // Update status variables
 717:../../../../../../Middlewares/Third_Party/LoRaWAN/Mac/region/RegionEU433.c ****     *drOut = linkAdrParams.Datarate;
 718:../../../../../../Middlewares/Third_Party/LoRaWAN/Mac/region/RegionEU433.c ****     *txPowOut = linkAdrParams.TxPower;
 719:../../../../../../Middlewares/Third_Party/LoRaWAN/Mac/region/RegionEU433.c ****     *nbRepOut = linkAdrParams.NbRep;
 720:../../../../../../Middlewares/Third_Party/LoRaWAN/Mac/region/RegionEU433.c ****     *nbBytesParsed = bytesProcessed;
 721:../../../../../../Middlewares/Third_Party/LoRaWAN/Mac/region/RegionEU433.c **** 
 722:../../../../../../Middlewares/Third_Party/LoRaWAN/Mac/region/RegionEU433.c ****     return status;
 723:../../../../../../Middlewares/Third_Party/LoRaWAN/Mac/region/RegionEU433.c **** }
 724:../../../../../../Middlewares/Third_Party/LoRaWAN/Mac/region/RegionEU433.c **** 
 725:../../../../../../Middlewares/Third_Party/LoRaWAN/Mac/region/RegionEU433.c **** uint8_t RegionEU433RxParamSetupReq( RxParamSetupReqParams_t* rxParamSetupReq )
 726:../../../../../../Middlewares/Third_Party/LoRaWAN/Mac/region/RegionEU433.c **** {
 727:../../../../../../Middlewares/Third_Party/LoRaWAN/Mac/region/RegionEU433.c ****     uint8_t status = 0x07;
 728:../../../../../../Middlewares/Third_Party/LoRaWAN/Mac/region/RegionEU433.c **** 
 729:../../../../../../Middlewares/Third_Party/LoRaWAN/Mac/region/RegionEU433.c ****     // Verify radio frequency
 730:../../../../../../Middlewares/Third_Party/LoRaWAN/Mac/region/RegionEU433.c ****     if( VerifyRfFreq( rxParamSetupReq->Frequency ) == false )
 731:../../../../../../Middlewares/Third_Party/LoRaWAN/Mac/region/RegionEU433.c ****     {
 732:../../../../../../Middlewares/Third_Party/LoRaWAN/Mac/region/RegionEU433.c ****         status &= 0xFE; // Channel frequency KO
 733:../../../../../../Middlewares/Third_Party/LoRaWAN/Mac/region/RegionEU433.c ****     }
 734:../../../../../../Middlewares/Third_Party/LoRaWAN/Mac/region/RegionEU433.c **** 
 735:../../../../../../Middlewares/Third_Party/LoRaWAN/Mac/region/RegionEU433.c ****     // Verify datarate
 736:../../../../../../Middlewares/Third_Party/LoRaWAN/Mac/region/RegionEU433.c ****     if( RegionCommonValueInRange( rxParamSetupReq->Datarate, EU433_RX_MIN_DATARATE, EU433_RX_MAX_DA
 737:../../../../../../Middlewares/Third_Party/LoRaWAN/Mac/region/RegionEU433.c ****     {
 738:../../../../../../Middlewares/Third_Party/LoRaWAN/Mac/region/RegionEU433.c ****         status &= 0xFD; // Datarate KO
 739:../../../../../../Middlewares/Third_Party/LoRaWAN/Mac/region/RegionEU433.c ****     }
 740:../../../../../../Middlewares/Third_Party/LoRaWAN/Mac/region/RegionEU433.c **** 
 741:../../../../../../Middlewares/Third_Party/LoRaWAN/Mac/region/RegionEU433.c ****     // Verify datarate offset
ARM GAS  C:\Users\EBANO_~1\AppData\Local\Temp\ccpYmjAB.s 			page 27


 742:../../../../../../Middlewares/Third_Party/LoRaWAN/Mac/region/RegionEU433.c ****     if( RegionCommonValueInRange( rxParamSetupReq->DrOffset, EU433_MIN_RX1_DR_OFFSET, EU433_MAX_RX1
 743:../../../../../../Middlewares/Third_Party/LoRaWAN/Mac/region/RegionEU433.c ****     {
 744:../../../../../../Middlewares/Third_Party/LoRaWAN/Mac/region/RegionEU433.c ****         status &= 0xFB; // Rx1DrOffset range KO
 745:../../../../../../Middlewares/Third_Party/LoRaWAN/Mac/region/RegionEU433.c ****     }
 746:../../../../../../Middlewares/Third_Party/LoRaWAN/Mac/region/RegionEU433.c **** 
 747:../../../../../../Middlewares/Third_Party/LoRaWAN/Mac/region/RegionEU433.c ****     return status;
 748:../../../../../../Middlewares/Third_Party/LoRaWAN/Mac/region/RegionEU433.c **** }
 749:../../../../../../Middlewares/Third_Party/LoRaWAN/Mac/region/RegionEU433.c **** 
 750:../../../../../../Middlewares/Third_Party/LoRaWAN/Mac/region/RegionEU433.c **** uint8_t RegionEU433NewChannelReq( NewChannelReqParams_t* newChannelReq )
 751:../../../../../../Middlewares/Third_Party/LoRaWAN/Mac/region/RegionEU433.c **** {
 752:../../../../../../Middlewares/Third_Party/LoRaWAN/Mac/region/RegionEU433.c ****     uint8_t status = 0x03;
 753:../../../../../../Middlewares/Third_Party/LoRaWAN/Mac/region/RegionEU433.c ****     ChannelAddParams_t channelAdd;
 754:../../../../../../Middlewares/Third_Party/LoRaWAN/Mac/region/RegionEU433.c ****     ChannelRemoveParams_t channelRemove;
 755:../../../../../../Middlewares/Third_Party/LoRaWAN/Mac/region/RegionEU433.c **** 
 756:../../../../../../Middlewares/Third_Party/LoRaWAN/Mac/region/RegionEU433.c ****     if( newChannelReq->NewChannel->Frequency == 0 )
 757:../../../../../../Middlewares/Third_Party/LoRaWAN/Mac/region/RegionEU433.c ****     {
 758:../../../../../../Middlewares/Third_Party/LoRaWAN/Mac/region/RegionEU433.c ****         channelRemove.ChannelId = newChannelReq->ChannelId;
 759:../../../../../../Middlewares/Third_Party/LoRaWAN/Mac/region/RegionEU433.c **** 
 760:../../../../../../Middlewares/Third_Party/LoRaWAN/Mac/region/RegionEU433.c ****         // Remove
 761:../../../../../../Middlewares/Third_Party/LoRaWAN/Mac/region/RegionEU433.c ****         if( RegionEU433ChannelsRemove( &channelRemove ) == false )
 762:../../../../../../Middlewares/Third_Party/LoRaWAN/Mac/region/RegionEU433.c ****         {
 763:../../../../../../Middlewares/Third_Party/LoRaWAN/Mac/region/RegionEU433.c ****             status &= 0xFC;
 764:../../../../../../Middlewares/Third_Party/LoRaWAN/Mac/region/RegionEU433.c ****         }
 765:../../../../../../Middlewares/Third_Party/LoRaWAN/Mac/region/RegionEU433.c ****     }
 766:../../../../../../Middlewares/Third_Party/LoRaWAN/Mac/region/RegionEU433.c ****     else
 767:../../../../../../Middlewares/Third_Party/LoRaWAN/Mac/region/RegionEU433.c ****     {
 768:../../../../../../Middlewares/Third_Party/LoRaWAN/Mac/region/RegionEU433.c ****         channelAdd.NewChannel = newChannelReq->NewChannel;
 769:../../../../../../Middlewares/Third_Party/LoRaWAN/Mac/region/RegionEU433.c ****         channelAdd.ChannelId = newChannelReq->ChannelId;
 770:../../../../../../Middlewares/Third_Party/LoRaWAN/Mac/region/RegionEU433.c **** 
 771:../../../../../../Middlewares/Third_Party/LoRaWAN/Mac/region/RegionEU433.c ****         switch( RegionEU433ChannelAdd( &channelAdd ) )
 772:../../../../../../Middlewares/Third_Party/LoRaWAN/Mac/region/RegionEU433.c ****         {
 773:../../../../../../Middlewares/Third_Party/LoRaWAN/Mac/region/RegionEU433.c ****             case LORAMAC_STATUS_OK:
 774:../../../../../../Middlewares/Third_Party/LoRaWAN/Mac/region/RegionEU433.c ****             {
 775:../../../../../../Middlewares/Third_Party/LoRaWAN/Mac/region/RegionEU433.c ****                 break;
 776:../../../../../../Middlewares/Third_Party/LoRaWAN/Mac/region/RegionEU433.c ****             }
 777:../../../../../../Middlewares/Third_Party/LoRaWAN/Mac/region/RegionEU433.c ****             case LORAMAC_STATUS_FREQUENCY_INVALID:
 778:../../../../../../Middlewares/Third_Party/LoRaWAN/Mac/region/RegionEU433.c ****             {
 779:../../../../../../Middlewares/Third_Party/LoRaWAN/Mac/region/RegionEU433.c ****                 status &= 0xFE;
 780:../../../../../../Middlewares/Third_Party/LoRaWAN/Mac/region/RegionEU433.c ****                 break;
 781:../../../../../../Middlewares/Third_Party/LoRaWAN/Mac/region/RegionEU433.c ****             }
 782:../../../../../../Middlewares/Third_Party/LoRaWAN/Mac/region/RegionEU433.c ****             case LORAMAC_STATUS_DATARATE_INVALID:
 783:../../../../../../Middlewares/Third_Party/LoRaWAN/Mac/region/RegionEU433.c ****             {
 784:../../../../../../Middlewares/Third_Party/LoRaWAN/Mac/region/RegionEU433.c ****                 status &= 0xFD;
 785:../../../../../../Middlewares/Third_Party/LoRaWAN/Mac/region/RegionEU433.c ****                 break;
 786:../../../../../../Middlewares/Third_Party/LoRaWAN/Mac/region/RegionEU433.c ****             }
 787:../../../../../../Middlewares/Third_Party/LoRaWAN/Mac/region/RegionEU433.c ****             case LORAMAC_STATUS_FREQ_AND_DR_INVALID:
 788:../../../../../../Middlewares/Third_Party/LoRaWAN/Mac/region/RegionEU433.c ****             {
 789:../../../../../../Middlewares/Third_Party/LoRaWAN/Mac/region/RegionEU433.c ****                 status &= 0xFC;
 790:../../../../../../Middlewares/Third_Party/LoRaWAN/Mac/region/RegionEU433.c ****                 break;
 791:../../../../../../Middlewares/Third_Party/LoRaWAN/Mac/region/RegionEU433.c ****             }
 792:../../../../../../Middlewares/Third_Party/LoRaWAN/Mac/region/RegionEU433.c ****             default:
 793:../../../../../../Middlewares/Third_Party/LoRaWAN/Mac/region/RegionEU433.c ****             {
 794:../../../../../../Middlewares/Third_Party/LoRaWAN/Mac/region/RegionEU433.c ****                 status &= 0xFC;
 795:../../../../../../Middlewares/Third_Party/LoRaWAN/Mac/region/RegionEU433.c ****                 break;
 796:../../../../../../Middlewares/Third_Party/LoRaWAN/Mac/region/RegionEU433.c ****             }
 797:../../../../../../Middlewares/Third_Party/LoRaWAN/Mac/region/RegionEU433.c ****         }
 798:../../../../../../Middlewares/Third_Party/LoRaWAN/Mac/region/RegionEU433.c ****     }
ARM GAS  C:\Users\EBANO_~1\AppData\Local\Temp\ccpYmjAB.s 			page 28


 799:../../../../../../Middlewares/Third_Party/LoRaWAN/Mac/region/RegionEU433.c **** 
 800:../../../../../../Middlewares/Third_Party/LoRaWAN/Mac/region/RegionEU433.c ****     return status;
 801:../../../../../../Middlewares/Third_Party/LoRaWAN/Mac/region/RegionEU433.c **** }
 802:../../../../../../Middlewares/Third_Party/LoRaWAN/Mac/region/RegionEU433.c **** 
 803:../../../../../../Middlewares/Third_Party/LoRaWAN/Mac/region/RegionEU433.c **** int8_t RegionEU433TxParamSetupReq( TxParamSetupReqParams_t* txParamSetupReq )
 804:../../../../../../Middlewares/Third_Party/LoRaWAN/Mac/region/RegionEU433.c **** {
 805:../../../../../../Middlewares/Third_Party/LoRaWAN/Mac/region/RegionEU433.c ****     return -1;
 806:../../../../../../Middlewares/Third_Party/LoRaWAN/Mac/region/RegionEU433.c **** }
 807:../../../../../../Middlewares/Third_Party/LoRaWAN/Mac/region/RegionEU433.c **** 
 808:../../../../../../Middlewares/Third_Party/LoRaWAN/Mac/region/RegionEU433.c **** uint8_t RegionEU433DlChannelReq( DlChannelReqParams_t* dlChannelReq )
 809:../../../../../../Middlewares/Third_Party/LoRaWAN/Mac/region/RegionEU433.c **** {
 810:../../../../../../Middlewares/Third_Party/LoRaWAN/Mac/region/RegionEU433.c ****     uint8_t status = 0x03;
 811:../../../../../../Middlewares/Third_Party/LoRaWAN/Mac/region/RegionEU433.c **** 
 812:../../../../../../Middlewares/Third_Party/LoRaWAN/Mac/region/RegionEU433.c ****     // Verify if the frequency is supported
 813:../../../../../../Middlewares/Third_Party/LoRaWAN/Mac/region/RegionEU433.c ****     if( VerifyRfFreq( dlChannelReq->Rx1Frequency ) == false )
 814:../../../../../../Middlewares/Third_Party/LoRaWAN/Mac/region/RegionEU433.c ****     {
 815:../../../../../../Middlewares/Third_Party/LoRaWAN/Mac/region/RegionEU433.c ****         status &= 0xFE;
 816:../../../../../../Middlewares/Third_Party/LoRaWAN/Mac/region/RegionEU433.c ****     }
 817:../../../../../../Middlewares/Third_Party/LoRaWAN/Mac/region/RegionEU433.c **** 
 818:../../../../../../Middlewares/Third_Party/LoRaWAN/Mac/region/RegionEU433.c ****     // Verify if an uplink frequency exists
 819:../../../../../../Middlewares/Third_Party/LoRaWAN/Mac/region/RegionEU433.c ****     if( NvmCtx.Channels[dlChannelReq->ChannelId].Frequency == 0 )
 820:../../../../../../Middlewares/Third_Party/LoRaWAN/Mac/region/RegionEU433.c ****     {
 821:../../../../../../Middlewares/Third_Party/LoRaWAN/Mac/region/RegionEU433.c ****         status &= 0xFD;
 822:../../../../../../Middlewares/Third_Party/LoRaWAN/Mac/region/RegionEU433.c ****     }
 823:../../../../../../Middlewares/Third_Party/LoRaWAN/Mac/region/RegionEU433.c **** 
 824:../../../../../../Middlewares/Third_Party/LoRaWAN/Mac/region/RegionEU433.c ****     // Apply Rx1 frequency, if the status is OK
 825:../../../../../../Middlewares/Third_Party/LoRaWAN/Mac/region/RegionEU433.c ****     if( status == 0x03 )
 826:../../../../../../Middlewares/Third_Party/LoRaWAN/Mac/region/RegionEU433.c ****     {
 827:../../../../../../Middlewares/Third_Party/LoRaWAN/Mac/region/RegionEU433.c ****         NvmCtx.Channels[dlChannelReq->ChannelId].Rx1Frequency = dlChannelReq->Rx1Frequency;
 828:../../../../../../Middlewares/Third_Party/LoRaWAN/Mac/region/RegionEU433.c ****     }
 829:../../../../../../Middlewares/Third_Party/LoRaWAN/Mac/region/RegionEU433.c **** 
 830:../../../../../../Middlewares/Third_Party/LoRaWAN/Mac/region/RegionEU433.c ****     return status;
 831:../../../../../../Middlewares/Third_Party/LoRaWAN/Mac/region/RegionEU433.c **** }
 832:../../../../../../Middlewares/Third_Party/LoRaWAN/Mac/region/RegionEU433.c **** 
 833:../../../../../../Middlewares/Third_Party/LoRaWAN/Mac/region/RegionEU433.c **** int8_t RegionEU433AlternateDr( int8_t currentDr, AlternateDrType_t type )
 834:../../../../../../Middlewares/Third_Party/LoRaWAN/Mac/region/RegionEU433.c **** {
 835:../../../../../../Middlewares/Third_Party/LoRaWAN/Mac/region/RegionEU433.c ****     return currentDr;
 836:../../../../../../Middlewares/Third_Party/LoRaWAN/Mac/region/RegionEU433.c **** }
 837:../../../../../../Middlewares/Third_Party/LoRaWAN/Mac/region/RegionEU433.c **** 
 838:../../../../../../Middlewares/Third_Party/LoRaWAN/Mac/region/RegionEU433.c **** void RegionEU433CalcBackOff( CalcBackOffParams_t* calcBackOff )
 839:../../../../../../Middlewares/Third_Party/LoRaWAN/Mac/region/RegionEU433.c **** {
 840:../../../../../../Middlewares/Third_Party/LoRaWAN/Mac/region/RegionEU433.c ****     RegionCommonCalcBackOffParams_t calcBackOffParams;
 841:../../../../../../Middlewares/Third_Party/LoRaWAN/Mac/region/RegionEU433.c **** 
 842:../../../../../../Middlewares/Third_Party/LoRaWAN/Mac/region/RegionEU433.c ****     calcBackOffParams.Channels = NvmCtx.Channels;
 843:../../../../../../Middlewares/Third_Party/LoRaWAN/Mac/region/RegionEU433.c ****     calcBackOffParams.Bands = NvmCtx.Bands;
 844:../../../../../../Middlewares/Third_Party/LoRaWAN/Mac/region/RegionEU433.c ****     calcBackOffParams.LastTxIsJoinRequest = calcBackOff->LastTxIsJoinRequest;
 845:../../../../../../Middlewares/Third_Party/LoRaWAN/Mac/region/RegionEU433.c ****     calcBackOffParams.Joined = calcBackOff->Joined;
 846:../../../../../../Middlewares/Third_Party/LoRaWAN/Mac/region/RegionEU433.c ****     calcBackOffParams.DutyCycleEnabled = calcBackOff->DutyCycleEnabled;
 847:../../../../../../Middlewares/Third_Party/LoRaWAN/Mac/region/RegionEU433.c ****     calcBackOffParams.Channel = calcBackOff->Channel;
 848:../../../../../../Middlewares/Third_Party/LoRaWAN/Mac/region/RegionEU433.c ****     calcBackOffParams.ElapsedTime = calcBackOff->ElapsedTime;
 849:../../../../../../Middlewares/Third_Party/LoRaWAN/Mac/region/RegionEU433.c ****     calcBackOffParams.TxTimeOnAir = calcBackOff->TxTimeOnAir;
 850:../../../../../../Middlewares/Third_Party/LoRaWAN/Mac/region/RegionEU433.c **** 
 851:../../../../../../Middlewares/Third_Party/LoRaWAN/Mac/region/RegionEU433.c ****     RegionCommonCalcBackOff( &calcBackOffParams );
 852:../../../../../../Middlewares/Third_Party/LoRaWAN/Mac/region/RegionEU433.c **** }
 853:../../../../../../Middlewares/Third_Party/LoRaWAN/Mac/region/RegionEU433.c **** 
 854:../../../../../../Middlewares/Third_Party/LoRaWAN/Mac/region/RegionEU433.c **** LoRaMacStatus_t RegionEU433NextChannel( NextChanParams_t* nextChanParams, uint8_t* channel, TimerTi
 855:../../../../../../Middlewares/Third_Party/LoRaWAN/Mac/region/RegionEU433.c **** {
ARM GAS  C:\Users\EBANO_~1\AppData\Local\Temp\ccpYmjAB.s 			page 29


 856:../../../../../../Middlewares/Third_Party/LoRaWAN/Mac/region/RegionEU433.c ****     uint8_t nbEnabledChannels = 0;
 857:../../../../../../Middlewares/Third_Party/LoRaWAN/Mac/region/RegionEU433.c ****     uint8_t delayTx = 0;
 858:../../../../../../Middlewares/Third_Party/LoRaWAN/Mac/region/RegionEU433.c ****     uint8_t enabledChannels[EU433_MAX_NB_CHANNELS] = { 0 };
 859:../../../../../../Middlewares/Third_Party/LoRaWAN/Mac/region/RegionEU433.c ****     TimerTime_t nextTxDelay = 0;
 860:../../../../../../Middlewares/Third_Party/LoRaWAN/Mac/region/RegionEU433.c **** 
 861:../../../../../../Middlewares/Third_Party/LoRaWAN/Mac/region/RegionEU433.c ****     if( RegionCommonCountChannels( NvmCtx.ChannelsMask, 0, 1 ) == 0 )
 862:../../../../../../Middlewares/Third_Party/LoRaWAN/Mac/region/RegionEU433.c ****     { // Reactivate default channels
 863:../../../../../../Middlewares/Third_Party/LoRaWAN/Mac/region/RegionEU433.c ****         NvmCtx.ChannelsMask[0] |= LC( 1 ) + LC( 2 ) + LC( 3 );
 864:../../../../../../Middlewares/Third_Party/LoRaWAN/Mac/region/RegionEU433.c ****     }
 865:../../../../../../Middlewares/Third_Party/LoRaWAN/Mac/region/RegionEU433.c **** 
 866:../../../../../../Middlewares/Third_Party/LoRaWAN/Mac/region/RegionEU433.c ****     if( nextChanParams->AggrTimeOff <= TimerGetElapsedTime( nextChanParams->LastAggrTx ) )
 867:../../../../../../Middlewares/Third_Party/LoRaWAN/Mac/region/RegionEU433.c ****     {
 868:../../../../../../Middlewares/Third_Party/LoRaWAN/Mac/region/RegionEU433.c ****         // Reset Aggregated time off
 869:../../../../../../Middlewares/Third_Party/LoRaWAN/Mac/region/RegionEU433.c ****         *aggregatedTimeOff = 0;
 870:../../../../../../Middlewares/Third_Party/LoRaWAN/Mac/region/RegionEU433.c **** 
 871:../../../../../../Middlewares/Third_Party/LoRaWAN/Mac/region/RegionEU433.c ****         // Update bands Time OFF
 872:../../../../../../Middlewares/Third_Party/LoRaWAN/Mac/region/RegionEU433.c ****         nextTxDelay = RegionCommonUpdateBandTimeOff( nextChanParams->Joined, nextChanParams->DutyCy
 873:../../../../../../Middlewares/Third_Party/LoRaWAN/Mac/region/RegionEU433.c **** 
 874:../../../../../../Middlewares/Third_Party/LoRaWAN/Mac/region/RegionEU433.c ****         // Search how many channels are enabled
 875:../../../../../../Middlewares/Third_Party/LoRaWAN/Mac/region/RegionEU433.c ****         nbEnabledChannels = CountNbOfEnabledChannels( nextChanParams->Joined, nextChanParams->Datar
 876:../../../../../../Middlewares/Third_Party/LoRaWAN/Mac/region/RegionEU433.c ****                                                       NvmCtx.ChannelsMask, NvmCtx.Channels,
 877:../../../../../../Middlewares/Third_Party/LoRaWAN/Mac/region/RegionEU433.c ****                                                       NvmCtx.Bands, enabledChannels, &delayTx );
 878:../../../../../../Middlewares/Third_Party/LoRaWAN/Mac/region/RegionEU433.c ****     }
 879:../../../../../../Middlewares/Third_Party/LoRaWAN/Mac/region/RegionEU433.c ****     else
 880:../../../../../../Middlewares/Third_Party/LoRaWAN/Mac/region/RegionEU433.c ****     {
 881:../../../../../../Middlewares/Third_Party/LoRaWAN/Mac/region/RegionEU433.c ****         delayTx++;
 882:../../../../../../Middlewares/Third_Party/LoRaWAN/Mac/region/RegionEU433.c ****         nextTxDelay = nextChanParams->AggrTimeOff - TimerGetElapsedTime( nextChanParams->LastAggrTx
 883:../../../../../../Middlewares/Third_Party/LoRaWAN/Mac/region/RegionEU433.c ****     }
 884:../../../../../../Middlewares/Third_Party/LoRaWAN/Mac/region/RegionEU433.c **** 
 885:../../../../../../Middlewares/Third_Party/LoRaWAN/Mac/region/RegionEU433.c ****     if( nbEnabledChannels > 0 )
 886:../../../../../../Middlewares/Third_Party/LoRaWAN/Mac/region/RegionEU433.c ****     {
 887:../../../../../../Middlewares/Third_Party/LoRaWAN/Mac/region/RegionEU433.c ****         // We found a valid channel
 888:../../../../../../Middlewares/Third_Party/LoRaWAN/Mac/region/RegionEU433.c ****         *channel = enabledChannels[randr( 0, nbEnabledChannels - 1 )];
 889:../../../../../../Middlewares/Third_Party/LoRaWAN/Mac/region/RegionEU433.c **** 
 890:../../../../../../Middlewares/Third_Party/LoRaWAN/Mac/region/RegionEU433.c ****         *time = 0;
 891:../../../../../../Middlewares/Third_Party/LoRaWAN/Mac/region/RegionEU433.c ****         return LORAMAC_STATUS_OK;
 892:../../../../../../Middlewares/Third_Party/LoRaWAN/Mac/region/RegionEU433.c ****     }
 893:../../../../../../Middlewares/Third_Party/LoRaWAN/Mac/region/RegionEU433.c ****     else
 894:../../../../../../Middlewares/Third_Party/LoRaWAN/Mac/region/RegionEU433.c ****     {
 895:../../../../../../Middlewares/Third_Party/LoRaWAN/Mac/region/RegionEU433.c ****         if( delayTx > 0 )
 896:../../../../../../Middlewares/Third_Party/LoRaWAN/Mac/region/RegionEU433.c ****         {
 897:../../../../../../Middlewares/Third_Party/LoRaWAN/Mac/region/RegionEU433.c ****             // Delay transmission due to AggregatedTimeOff or to a band time off
 898:../../../../../../Middlewares/Third_Party/LoRaWAN/Mac/region/RegionEU433.c ****             *time = nextTxDelay;
 899:../../../../../../Middlewares/Third_Party/LoRaWAN/Mac/region/RegionEU433.c ****             return LORAMAC_STATUS_DUTYCYCLE_RESTRICTED;
 900:../../../../../../Middlewares/Third_Party/LoRaWAN/Mac/region/RegionEU433.c ****         }
 901:../../../../../../Middlewares/Third_Party/LoRaWAN/Mac/region/RegionEU433.c ****         // Datarate not supported by any channel, restore defaults
 902:../../../../../../Middlewares/Third_Party/LoRaWAN/Mac/region/RegionEU433.c ****         NvmCtx.ChannelsMask[0] |= LC( 1 ) + LC( 2 ) + LC( 3 );
 903:../../../../../../Middlewares/Third_Party/LoRaWAN/Mac/region/RegionEU433.c ****         *time = 0;
 904:../../../../../../Middlewares/Third_Party/LoRaWAN/Mac/region/RegionEU433.c ****         return LORAMAC_STATUS_NO_CHANNEL_FOUND;
 905:../../../../../../Middlewares/Third_Party/LoRaWAN/Mac/region/RegionEU433.c ****     }
 906:../../../../../../Middlewares/Third_Party/LoRaWAN/Mac/region/RegionEU433.c **** }
 907:../../../../../../Middlewares/Third_Party/LoRaWAN/Mac/region/RegionEU433.c **** 
 908:../../../../../../Middlewares/Third_Party/LoRaWAN/Mac/region/RegionEU433.c **** LoRaMacStatus_t RegionEU433ChannelAdd( ChannelAddParams_t* channelAdd )
 909:../../../../../../Middlewares/Third_Party/LoRaWAN/Mac/region/RegionEU433.c **** {
 910:../../../../../../Middlewares/Third_Party/LoRaWAN/Mac/region/RegionEU433.c ****     bool drInvalid = false;
 911:../../../../../../Middlewares/Third_Party/LoRaWAN/Mac/region/RegionEU433.c ****     bool freqInvalid = false;
 912:../../../../../../Middlewares/Third_Party/LoRaWAN/Mac/region/RegionEU433.c ****     uint8_t id = channelAdd->ChannelId;
ARM GAS  C:\Users\EBANO_~1\AppData\Local\Temp\ccpYmjAB.s 			page 30


 913:../../../../../../Middlewares/Third_Party/LoRaWAN/Mac/region/RegionEU433.c **** 
 914:../../../../../../Middlewares/Third_Party/LoRaWAN/Mac/region/RegionEU433.c ****     if( id < EU433_NUMB_DEFAULT_CHANNELS )
 915:../../../../../../Middlewares/Third_Party/LoRaWAN/Mac/region/RegionEU433.c ****     {
 916:../../../../../../Middlewares/Third_Party/LoRaWAN/Mac/region/RegionEU433.c ****         return LORAMAC_STATUS_FREQ_AND_DR_INVALID;
 917:../../../../../../Middlewares/Third_Party/LoRaWAN/Mac/region/RegionEU433.c ****     }
 918:../../../../../../Middlewares/Third_Party/LoRaWAN/Mac/region/RegionEU433.c **** 
 919:../../../../../../Middlewares/Third_Party/LoRaWAN/Mac/region/RegionEU433.c ****     if( id >= EU433_MAX_NB_CHANNELS )
 920:../../../../../../Middlewares/Third_Party/LoRaWAN/Mac/region/RegionEU433.c ****     {
 921:../../../../../../Middlewares/Third_Party/LoRaWAN/Mac/region/RegionEU433.c ****         return LORAMAC_STATUS_PARAMETER_INVALID;
 922:../../../../../../Middlewares/Third_Party/LoRaWAN/Mac/region/RegionEU433.c ****     }
 923:../../../../../../Middlewares/Third_Party/LoRaWAN/Mac/region/RegionEU433.c **** 
 924:../../../../../../Middlewares/Third_Party/LoRaWAN/Mac/region/RegionEU433.c ****     // Validate the datarate range
 925:../../../../../../Middlewares/Third_Party/LoRaWAN/Mac/region/RegionEU433.c ****     if( RegionCommonValueInRange( channelAdd->NewChannel->DrRange.Fields.Min, EU433_TX_MIN_DATARATE
 926:../../../../../../Middlewares/Third_Party/LoRaWAN/Mac/region/RegionEU433.c ****     {
 927:../../../../../../Middlewares/Third_Party/LoRaWAN/Mac/region/RegionEU433.c ****         drInvalid = true;
 928:../../../../../../Middlewares/Third_Party/LoRaWAN/Mac/region/RegionEU433.c ****     }
 929:../../../../../../Middlewares/Third_Party/LoRaWAN/Mac/region/RegionEU433.c ****     if( RegionCommonValueInRange( channelAdd->NewChannel->DrRange.Fields.Max, EU433_TX_MIN_DATARATE
 930:../../../../../../Middlewares/Third_Party/LoRaWAN/Mac/region/RegionEU433.c ****     {
 931:../../../../../../Middlewares/Third_Party/LoRaWAN/Mac/region/RegionEU433.c ****         drInvalid = true;
 932:../../../../../../Middlewares/Third_Party/LoRaWAN/Mac/region/RegionEU433.c ****     }
 933:../../../../../../Middlewares/Third_Party/LoRaWAN/Mac/region/RegionEU433.c ****     if( channelAdd->NewChannel->DrRange.Fields.Min > channelAdd->NewChannel->DrRange.Fields.Max )
 934:../../../../../../Middlewares/Third_Party/LoRaWAN/Mac/region/RegionEU433.c ****     {
 935:../../../../../../Middlewares/Third_Party/LoRaWAN/Mac/region/RegionEU433.c ****         drInvalid = true;
 936:../../../../../../Middlewares/Third_Party/LoRaWAN/Mac/region/RegionEU433.c ****     }
 937:../../../../../../Middlewares/Third_Party/LoRaWAN/Mac/region/RegionEU433.c **** 
 938:../../../../../../Middlewares/Third_Party/LoRaWAN/Mac/region/RegionEU433.c ****     // Check frequency
 939:../../../../../../Middlewares/Third_Party/LoRaWAN/Mac/region/RegionEU433.c ****     if( freqInvalid == false )
 940:../../../../../../Middlewares/Third_Party/LoRaWAN/Mac/region/RegionEU433.c ****     {
 941:../../../../../../Middlewares/Third_Party/LoRaWAN/Mac/region/RegionEU433.c ****         if( VerifyRfFreq( channelAdd->NewChannel->Frequency ) == false )
 942:../../../../../../Middlewares/Third_Party/LoRaWAN/Mac/region/RegionEU433.c ****         {
 943:../../../../../../Middlewares/Third_Party/LoRaWAN/Mac/region/RegionEU433.c ****             freqInvalid = true;
 944:../../../../../../Middlewares/Third_Party/LoRaWAN/Mac/region/RegionEU433.c ****         }
 945:../../../../../../Middlewares/Third_Party/LoRaWAN/Mac/region/RegionEU433.c ****     }
 946:../../../../../../Middlewares/Third_Party/LoRaWAN/Mac/region/RegionEU433.c **** 
 947:../../../../../../Middlewares/Third_Party/LoRaWAN/Mac/region/RegionEU433.c ****     // Check status
 948:../../../../../../Middlewares/Third_Party/LoRaWAN/Mac/region/RegionEU433.c ****     if( ( drInvalid == true ) && ( freqInvalid == true ) )
 949:../../../../../../Middlewares/Third_Party/LoRaWAN/Mac/region/RegionEU433.c ****     {
 950:../../../../../../Middlewares/Third_Party/LoRaWAN/Mac/region/RegionEU433.c ****         return LORAMAC_STATUS_FREQ_AND_DR_INVALID;
 951:../../../../../../Middlewares/Third_Party/LoRaWAN/Mac/region/RegionEU433.c ****     }
 952:../../../../../../Middlewares/Third_Party/LoRaWAN/Mac/region/RegionEU433.c ****     if( drInvalid == true )
 953:../../../../../../Middlewares/Third_Party/LoRaWAN/Mac/region/RegionEU433.c ****     {
 954:../../../../../../Middlewares/Third_Party/LoRaWAN/Mac/region/RegionEU433.c ****         return LORAMAC_STATUS_DATARATE_INVALID;
 955:../../../../../../Middlewares/Third_Party/LoRaWAN/Mac/region/RegionEU433.c ****     }
 956:../../../../../../Middlewares/Third_Party/LoRaWAN/Mac/region/RegionEU433.c ****     if( freqInvalid == true )
 957:../../../../../../Middlewares/Third_Party/LoRaWAN/Mac/region/RegionEU433.c ****     {
 958:../../../../../../Middlewares/Third_Party/LoRaWAN/Mac/region/RegionEU433.c ****         return LORAMAC_STATUS_FREQUENCY_INVALID;
 959:../../../../../../Middlewares/Third_Party/LoRaWAN/Mac/region/RegionEU433.c ****     }
 960:../../../../../../Middlewares/Third_Party/LoRaWAN/Mac/region/RegionEU433.c **** 
 961:../../../../../../Middlewares/Third_Party/LoRaWAN/Mac/region/RegionEU433.c ****     memcpy1( ( uint8_t* ) &(NvmCtx.Channels[id]), ( uint8_t* ) channelAdd->NewChannel, sizeof( NvmC
 962:../../../../../../Middlewares/Third_Party/LoRaWAN/Mac/region/RegionEU433.c ****     NvmCtx.Channels[id].Band = 0;
 963:../../../../../../Middlewares/Third_Party/LoRaWAN/Mac/region/RegionEU433.c ****     NvmCtx.ChannelsMask[0] |= ( 1 << id );
 964:../../../../../../Middlewares/Third_Party/LoRaWAN/Mac/region/RegionEU433.c ****     return LORAMAC_STATUS_OK;
 965:../../../../../../Middlewares/Third_Party/LoRaWAN/Mac/region/RegionEU433.c **** }
 966:../../../../../../Middlewares/Third_Party/LoRaWAN/Mac/region/RegionEU433.c **** 
 967:../../../../../../Middlewares/Third_Party/LoRaWAN/Mac/region/RegionEU433.c **** bool RegionEU433ChannelsRemove( ChannelRemoveParams_t* channelRemove  )
 968:../../../../../../Middlewares/Third_Party/LoRaWAN/Mac/region/RegionEU433.c **** {
 969:../../../../../../Middlewares/Third_Party/LoRaWAN/Mac/region/RegionEU433.c ****     uint8_t id = channelRemove->ChannelId;
ARM GAS  C:\Users\EBANO_~1\AppData\Local\Temp\ccpYmjAB.s 			page 31


 970:../../../../../../Middlewares/Third_Party/LoRaWAN/Mac/region/RegionEU433.c **** 
 971:../../../../../../Middlewares/Third_Party/LoRaWAN/Mac/region/RegionEU433.c ****     if( id < EU433_NUMB_DEFAULT_CHANNELS )
 972:../../../../../../Middlewares/Third_Party/LoRaWAN/Mac/region/RegionEU433.c ****     {
 973:../../../../../../Middlewares/Third_Party/LoRaWAN/Mac/region/RegionEU433.c ****         return false;
 974:../../../../../../Middlewares/Third_Party/LoRaWAN/Mac/region/RegionEU433.c ****     }
 975:../../../../../../Middlewares/Third_Party/LoRaWAN/Mac/region/RegionEU433.c **** 
 976:../../../../../../Middlewares/Third_Party/LoRaWAN/Mac/region/RegionEU433.c ****     // Remove the channel from the list of channels
 977:../../../../../../Middlewares/Third_Party/LoRaWAN/Mac/region/RegionEU433.c ****     NvmCtx.Channels[id] = ( ChannelParams_t ){ 0, 0, { 0 }, 0 };
 677              		.loc 1 977 0
 678 0032 3F4B     		ldr	r3, .L76
 679              	.LBE33:
 680              	.LBE32:
 681              	.LBE31:
 682 0034 0126     		movs	r6, #1
 683              	.LBB46:
 684              	.LBB36:
 685              	.LBB34:
 686 0036 9946     		mov	r9, r3
 687 0038 3E4B     		ldr	r3, .L76+4
 688              	.LBE34:
 689              	.LBE36:
 690              	.LBE46:
 691 003a 0325     		movs	r5, #3
 692 003c 9B46     		mov	fp, r3
 693 003e 14E0     		b	.L66
 694              	.LVL39:
 695              	.L60:
 696              	.LBB47:
 467:../../../../../../Middlewares/Third_Party/LoRaWAN/Mac/region/RegionEU433.c ****             newChannel.DrRange.Value = 0;
 697              		.loc 1 467 0
 698 0040 0023     		movs	r3, #0
 699              	.LVL40:
 700 0042 2360     		str	r3, [r4]
 468:../../../../../../Middlewares/Third_Party/LoRaWAN/Mac/region/RegionEU433.c ****             newChannel.Rx1Frequency = 0;
 701              		.loc 1 468 0
 702 0044 2372     		strb	r3, [r4, #8]
 469:../../../../../../Middlewares/Third_Party/LoRaWAN/Mac/region/RegionEU433.c ****         }
 703              		.loc 1 469 0
 704 0046 6360     		str	r3, [r4, #4]
 705              	.L62:
 706              	.LVL41:
 707              	.LBB37:
 708              	.LBB35:
 709              		.loc 1 977 0
 710 0048 6800     		lsls	r0, r5, #1
 711 004a 4019     		adds	r0, r0, r5
 712 004c 8000     		lsls	r0, r0, #2
 713 004e 0C22     		movs	r2, #12
 714 0050 0021     		movs	r1, #0
 715 0052 4844     		add	r0, r0, r9
 716 0054 FFF7FEFF 		bl	memset
 717              	.LVL42:
 978:../../../../../../Middlewares/Third_Party/LoRaWAN/Mac/region/RegionEU433.c **** 
 979:../../../../../../Middlewares/Third_Party/LoRaWAN/Mac/region/RegionEU433.c ****     return RegionCommonChanDisable( NvmCtx.ChannelsMask, id, EU433_MAX_NB_CHANNELS );
 718              		.loc 1 979 0
 719 0058 1022     		movs	r2, #16
 720 005a 4146     		mov	r1, r8
ARM GAS  C:\Users\EBANO_~1\AppData\Local\Temp\ccpYmjAB.s 			page 32


 721 005c 3648     		ldr	r0, .L76+8
 722 005e FFF7FEFF 		bl	RegionCommonChanDisable
 723              	.LVL43:
 724              	.L64:
 725 0062 0336     		adds	r6, r6, #3
 726              	.LVL44:
 727 0064 0135     		adds	r5, r5, #1
 728              	.LVL45:
 729              	.LBE35:
 730              	.LBE37:
 452:../../../../../../Middlewares/Third_Party/LoRaWAN/Mac/region/RegionEU433.c ****     {
 731              		.loc 1 452 0 discriminator 2
 732 0066 282E     		cmp	r6, #40
 733 0068 D8D0     		beq	.L58
 734              	.L66:
 735 006a EBB2     		uxtb	r3, r5
 736 006c 9846     		mov	r8, r3
 737              	.LVL46:
 454:../../../../../../Middlewares/Third_Party/LoRaWAN/Mac/region/RegionEU433.c ****         {
 738              		.loc 1 454 0
 739 006e 072D     		cmp	r5, #7
 740 0070 E6D8     		bhi	.L60
 457:../../../../../../Middlewares/Third_Party/LoRaWAN/Mac/region/RegionEU433.c ****             newChannel.Frequency |= ( (uint32_t) applyCFList->Payload[i + 1] << 8 );
 741              		.loc 1 457 0
 742 0072 3B68     		ldr	r3, [r7]
 743              	.LVL47:
 744 0074 9A19     		adds	r2, r3, r6
 745 0076 511E     		subs	r1, r2, #1
 746 0078 0978     		ldrb	r1, [r1]
 747 007a 2160     		str	r1, [r4]
 458:../../../../../../Middlewares/Third_Party/LoRaWAN/Mac/region/RegionEU433.c ****             newChannel.Frequency |= ( (uint32_t) applyCFList->Payload[i + 2] << 16 );
 748              		.loc 1 458 0
 749 007c 9B5D     		ldrb	r3, [r3, r6]
 750 007e 1B02     		lsls	r3, r3, #8
 751 0080 0B43     		orrs	r3, r1
 752 0082 2360     		str	r3, [r4]
 459:../../../../../../Middlewares/Third_Party/LoRaWAN/Mac/region/RegionEU433.c ****             newChannel.Frequency *= 100;
 753              		.loc 1 459 0
 754 0084 5278     		ldrb	r2, [r2, #1]
 755 0086 1204     		lsls	r2, r2, #16
 756 0088 1343     		orrs	r3, r2
 460:../../../../../../Middlewares/Third_Party/LoRaWAN/Mac/region/RegionEU433.c **** 
 757              		.loc 1 460 0
 758 008a 6422     		movs	r2, #100
 759 008c 5343     		muls	r3, r2
 463:../../../../../../Middlewares/Third_Party/LoRaWAN/Mac/region/RegionEU433.c ****         }
 760              		.loc 1 463 0
 761 008e 0022     		movs	r2, #0
 460:../../../../../../Middlewares/Third_Party/LoRaWAN/Mac/region/RegionEU433.c **** 
 762              		.loc 1 460 0
 763 0090 2360     		str	r3, [r4]
 463:../../../../../../Middlewares/Third_Party/LoRaWAN/Mac/region/RegionEU433.c ****         }
 764              		.loc 1 463 0
 765 0092 6260     		str	r2, [r4, #4]
 472:../../../../../../Middlewares/Third_Party/LoRaWAN/Mac/region/RegionEU433.c ****         {
 766              		.loc 1 472 0
 767 0094 002B     		cmp	r3, #0
ARM GAS  C:\Users\EBANO_~1\AppData\Local\Temp\ccpYmjAB.s 			page 33


 768 0096 D7D0     		beq	.L62
 769              	.LVL48:
 770              	.LBB38:
 771              	.LBB39:
 925:../../../../../../Middlewares/Third_Party/LoRaWAN/Mac/region/RegionEU433.c ****     {
 772              		.loc 1 925 0
 773 0098 207A     		ldrb	r0, [r4, #8]
 774 009a 0722     		movs	r2, #7
 775 009c 0007     		lsls	r0, r0, #28
 776 009e 0021     		movs	r1, #0
 777 00a0 0017     		asrs	r0, r0, #28
 778 00a2 FFF7FEFF 		bl	RegionCommonValueInRange
 779              	.LVL49:
 780 00a6 8046     		mov	r8, r0
 781              	.LVL50:
 929:../../../../../../Middlewares/Third_Party/LoRaWAN/Mac/region/RegionEU433.c ****     {
 782              		.loc 1 929 0
 783 00a8 0820     		movs	r0, #8
 784 00aa 2056     		ldrsb	r0, [r4, r0]
 785 00ac 0722     		movs	r2, #7
 786 00ae 0011     		asrs	r0, r0, #4
 787 00b0 0021     		movs	r1, #0
 788 00b2 FFF7FEFF 		bl	RegionCommonValueInRange
 789              	.LVL51:
 931:../../../../../../Middlewares/Third_Party/LoRaWAN/Mac/region/RegionEU433.c ****     }
 790              		.loc 1 931 0
 791 00b6 0123     		movs	r3, #1
 792 00b8 9A46     		mov	r10, r3
 929:../../../../../../Middlewares/Third_Party/LoRaWAN/Mac/region/RegionEU433.c ****     {
 793              		.loc 1 929 0
 794 00ba 0028     		cmp	r0, #0
 795 00bc 04D0     		beq	.L67
 925:../../../../../../Middlewares/Third_Party/LoRaWAN/Mac/region/RegionEU433.c ****     {
 796              		.loc 1 925 0
 797 00be 4346     		mov	r3, r8
 798 00c0 5A42     		rsbs	r2, r3, #0
 799 00c2 5341     		adcs	r3, r3, r2
 800 00c4 DBB2     		uxtb	r3, r3
 801 00c6 9A46     		mov	r10, r3
 802              	.L67:
 803              	.LVL52:
 804 00c8 2368     		ldr	r3, [r4]
 805 00ca 9846     		mov	r8, r3
 806 00cc 5B46     		mov	r3, fp
 807 00ce 9B6A     		ldr	r3, [r3, #40]
 808              	.LBB40:
 809              	.LBB41:
 111:../../../../../../Middlewares/Third_Party/LoRaWAN/Mac/region/RegionEU433.c ****     {
 810              		.loc 1 111 0
 811 00d0 4046     		mov	r0, r8
 812 00d2 0193     		str	r3, [sp, #4]
 813              	.LBE41:
 814              	.LBE40:
 933:../../../../../../Middlewares/Third_Party/LoRaWAN/Mac/region/RegionEU433.c ****     {
 815              		.loc 1 933 0
 816 00d4 237A     		ldrb	r3, [r4, #8]
 817 00d6 1A07     		lsls	r2, r3, #28
ARM GAS  C:\Users\EBANO_~1\AppData\Local\Temp\ccpYmjAB.s 			page 34


 818 00d8 5BB2     		sxtb	r3, r3
 819 00da 1217     		asrs	r2, r2, #28
 820 00dc 1B11     		asrs	r3, r3, #4
 821 00de 9A42     		cmp	r2, r3
 822 00e0 23DC     		bgt	.L63
 823              	.LVL53:
 824              	.LBB44:
 825              	.LBB42:
 111:../../../../../../Middlewares/Third_Party/LoRaWAN/Mac/region/RegionEU433.c ****     {
 826              		.loc 1 111 0
 827 00e2 019B     		ldr	r3, [sp, #4]
 828 00e4 9847     		blx	r3
 829              	.LVL54:
 830 00e6 0028     		cmp	r0, #0
 831 00e8 BBD0     		beq	.L64
 116:../../../../../../Middlewares/Third_Party/LoRaWAN/Mac/region/RegionEU433.c ****     {
 832              		.loc 1 116 0
 833 00ea 144A     		ldr	r2, .L76+12
 834 00ec 144B     		ldr	r3, .L76+16
 835 00ee 4244     		add	r2, r2, r8
 836 00f0 9A42     		cmp	r2, r3
 837 00f2 B6D8     		bhi	.L64
 838              	.LBE42:
 839              	.LBE44:
 948:../../../../../../Middlewares/Third_Party/LoRaWAN/Mac/region/RegionEU433.c ****     {
 840              		.loc 1 948 0
 841 00f4 5346     		mov	r3, r10
 842 00f6 002B     		cmp	r3, #0
 843 00f8 B3D1     		bne	.L64
 961:../../../../../../Middlewares/Third_Party/LoRaWAN/Mac/region/RegionEU433.c ****     NvmCtx.Channels[id].Band = 0;
 844              		.loc 1 961 0
 845 00fa 0D4B     		ldr	r3, .L76
 846 00fc 6800     		lsls	r0, r5, #1
 847 00fe 9846     		mov	r8, r3
 848 0100 4019     		adds	r0, r0, r5
 849 0102 8000     		lsls	r0, r0, #2
 850 0104 0C22     		movs	r2, #12
 851 0106 2100     		movs	r1, r4
 852 0108 4044     		add	r0, r0, r8
 853 010a FFF7FEFF 		bl	memcpy1
 854              	.LVL55:
 962:../../../../../../Middlewares/Third_Party/LoRaWAN/Mac/region/RegionEU433.c ****     NvmCtx.ChannelsMask[0] |= ( 1 << id );
 855              		.loc 1 962 0
 856 010e 4246     		mov	r2, r8
 857 0110 5146     		mov	r1, r10
 858 0112 B300     		lsls	r3, r6, #2
 859 0114 2933     		adds	r3, r3, #41
 860 0116 D154     		strb	r1, [r2, r3]
 963:../../../../../../Middlewares/Third_Party/LoRaWAN/Mac/region/RegionEU433.c ****     return LORAMAC_STATUS_OK;
 861              		.loc 1 963 0
 862 0118 0122     		movs	r2, #1
 863 011a D021     		movs	r1, #208
 864 011c 4346     		mov	r3, r8
 865 011e AA40     		lsls	r2, r2, r5
 866 0120 5B5A     		ldrh	r3, [r3, r1]
 867 0122 1343     		orrs	r3, r2
 868 0124 4246     		mov	r2, r8
ARM GAS  C:\Users\EBANO_~1\AppData\Local\Temp\ccpYmjAB.s 			page 35


 869 0126 5352     		strh	r3, [r2, r1]
 870 0128 9BE7     		b	.L64
 871              	.L63:
 872              	.LVL56:
 873              	.LBB45:
 874              	.LBB43:
 111:../../../../../../Middlewares/Third_Party/LoRaWAN/Mac/region/RegionEU433.c ****     {
 875              		.loc 1 111 0
 876 012a 019B     		ldr	r3, [sp, #4]
 877 012c 9847     		blx	r3
 878              	.LVL57:
 879 012e 98E7     		b	.L64
 880              	.L77:
 881              		.align	2
 882              	.L76:
 883 0130 00000000 		.word	NvmCtx
 884 0134 00000000 		.word	Radio
 885 0138 D0000000 		.word	NvmCtx+208
 886 013c 28462EE6 		.word	-433175000
 887 0140 50BC1600 		.word	1490000
 888              	.LBE43:
 889              	.LBE45:
 890              	.LBE39:
 891              	.LBE38:
 892              	.LBE47:
 893              		.cfi_endproc
 894              	.LFE49:
 895              		.size	RegionEU433ApplyCFList, .-RegionEU433ApplyCFList
 896              		.section	.text.RegionEU433ChanMaskSet,"ax",%progbits
 897              		.align	1
 898              		.p2align 2,,3
 899              		.global	RegionEU433ChanMaskSet
 900              		.syntax unified
 901              		.code	16
 902              		.thumb_func
 903              		.fpu softvfp
 904              		.type	RegionEU433ChanMaskSet, %function
 905              	RegionEU433ChanMaskSet:
 906              	.LFB50:
 490:../../../../../../Middlewares/Third_Party/LoRaWAN/Mac/region/RegionEU433.c ****     switch( chanMaskSet->ChannelsMaskType )
 907              		.loc 1 490 0
 908              		.cfi_startproc
 909              		@ args = 0, pretend = 0, frame = 0
 910              		@ frame_needed = 0, uses_anonymous_args = 0
 911              	.LVL58:
 912 0000 10B5     		push	{r4, lr}
 913              	.LCFI9:
 914              		.cfi_def_cfa_offset 8
 915              		.cfi_offset 4, -8
 916              		.cfi_offset 14, -4
 491:../../../../../../Middlewares/Third_Party/LoRaWAN/Mac/region/RegionEU433.c ****     {
 917              		.loc 1 491 0
 918 0002 0379     		ldrb	r3, [r0, #4]
 919 0004 002B     		cmp	r3, #0
 920 0006 0AD0     		beq	.L80
 921 0008 012B     		cmp	r3, #1
 922 000a 01D0     		beq	.L81
ARM GAS  C:\Users\EBANO_~1\AppData\Local\Temp\ccpYmjAB.s 			page 36


 504:../../../../../../Middlewares/Third_Party/LoRaWAN/Mac/region/RegionEU433.c ****     }
 923              		.loc 1 504 0
 924 000c 0020     		movs	r0, #0
 925              	.LVL59:
 926              	.L79:
 507:../../../../../../Middlewares/Third_Party/LoRaWAN/Mac/region/RegionEU433.c **** 
 927              		.loc 1 507 0
 928              		@ sp needed
 929 000e 10BD     		pop	{r4, pc}
 930              	.LVL60:
 931              	.L81:
 500:../../../../../../Middlewares/Third_Party/LoRaWAN/Mac/region/RegionEU433.c ****             break;
 932              		.loc 1 500 0
 933 0010 0168     		ldr	r1, [r0]
 934 0012 0122     		movs	r2, #1
 935 0014 0548     		ldr	r0, .L84
 936              	.LVL61:
 937 0016 FFF7FEFF 		bl	RegionCommonChanMaskCopy
 938              	.LVL62:
 506:../../../../../../Middlewares/Third_Party/LoRaWAN/Mac/region/RegionEU433.c **** }
 939              		.loc 1 506 0
 940 001a 0120     		movs	r0, #1
 501:../../../../../../Middlewares/Third_Party/LoRaWAN/Mac/region/RegionEU433.c ****         }
 941              		.loc 1 501 0
 942 001c F7E7     		b	.L79
 943              	.LVL63:
 944              	.L80:
 495:../../../../../../Middlewares/Third_Party/LoRaWAN/Mac/region/RegionEU433.c ****             break;
 945              		.loc 1 495 0
 946 001e 0168     		ldr	r1, [r0]
 947 0020 0122     		movs	r2, #1
 948 0022 0348     		ldr	r0, .L84+4
 949              	.LVL64:
 950 0024 FFF7FEFF 		bl	RegionCommonChanMaskCopy
 951              	.LVL65:
 506:../../../../../../Middlewares/Third_Party/LoRaWAN/Mac/region/RegionEU433.c **** }
 952              		.loc 1 506 0
 953 0028 0120     		movs	r0, #1
 496:../../../../../../Middlewares/Third_Party/LoRaWAN/Mac/region/RegionEU433.c ****         }
 954              		.loc 1 496 0
 955 002a F0E7     		b	.L79
 956              	.L85:
 957              		.align	2
 958              	.L84:
 959 002c D2000000 		.word	NvmCtx+210
 960 0030 D0000000 		.word	NvmCtx+208
 961              		.cfi_endproc
 962              	.LFE50:
 963              		.size	RegionEU433ChanMaskSet, .-RegionEU433ChanMaskSet
 964              		.section	.text.RegionEU433ComputeRxWindowParameters,"ax",%progbits
 965              		.align	1
 966              		.p2align 2,,3
 967              		.global	RegionEU433ComputeRxWindowParameters
 968              		.syntax unified
 969              		.code	16
 970              		.thumb_func
 971              		.fpu softvfp
ARM GAS  C:\Users\EBANO_~1\AppData\Local\Temp\ccpYmjAB.s 			page 37


 972              		.type	RegionEU433ComputeRxWindowParameters, %function
 973              	RegionEU433ComputeRxWindowParameters:
 974              	.LFB51:
 510:../../../../../../Middlewares/Third_Party/LoRaWAN/Mac/region/RegionEU433.c ****     double tSymbol = 0.0;
 975              		.loc 1 510 0
 976              		.cfi_startproc
 977              		@ args = 0, pretend = 0, frame = 8
 978              		@ frame_needed = 0, uses_anonymous_args = 0
 979              	.LVL66:
 980 0000 F0B5     		push	{r4, r5, r6, r7, lr}
 981              	.LCFI10:
 982              		.cfi_def_cfa_offset 20
 983              		.cfi_offset 4, -20
 984              		.cfi_offset 5, -16
 985              		.cfi_offset 6, -12
 986              		.cfi_offset 7, -8
 987              		.cfi_offset 14, -4
 988 0002 C646     		mov	lr, r8
 989 0004 00B5     		push	{lr}
 990              	.LCFI11:
 991              		.cfi_def_cfa_offset 24
 992              		.cfi_offset 8, -24
 993 0006 1C00     		movs	r4, r3
 994 0008 86B0     		sub	sp, sp, #24
 995              	.LCFI12:
 996              		.cfi_def_cfa_offset 48
 510:../../../../../../Middlewares/Third_Party/LoRaWAN/Mac/region/RegionEU433.c ****     double tSymbol = 0.0;
 997              		.loc 1 510 0
 998 000a 0D00     		movs	r5, r1
 999 000c 9046     		mov	r8, r2
 514:../../../../../../Middlewares/Third_Party/LoRaWAN/Mac/region/RegionEU433.c ****     rxConfigParams->Bandwidth = GetBandwidth( rxConfigParams->Datarate );
 1000              		.loc 1 514 0
 1001 000e 031C     		adds	r3, r0, #0
 1002              	.LVL67:
 1003 0010 0728     		cmp	r0, #7
 1004 0012 00DD     		ble	.L87
 1005 0014 0723     		movs	r3, #7
 1006              	.L87:
 1007 0016 5EB2     		sxtb	r6, r3
 1008              	.LBB48:
 1009              	.LBB49:
  86:../../../../../../Middlewares/Third_Party/LoRaWAN/Mac/region/RegionEU433.c ****     {
 1010              		.loc 1 86 0
 1011 0018 1A4A     		ldr	r2, .L95
 1012              	.LVL68:
 1013 001a B100     		lsls	r1, r6, #2
 1014              	.LVL69:
 1015              	.LBE49:
 1016              	.LBE48:
 514:../../../../../../Middlewares/Third_Party/LoRaWAN/Mac/region/RegionEU433.c ****     rxConfigParams->Bandwidth = GetBandwidth( rxConfigParams->Datarate );
 1017              		.loc 1 514 0
 1018 001c 6370     		strb	r3, [r4, #1]
 1019              	.LVL70:
 1020              	.LBB52:
 1021              	.LBB50:
  86:../../../../../../Middlewares/Third_Party/LoRaWAN/Mac/region/RegionEU433.c ****     {
 1022              		.loc 1 86 0
ARM GAS  C:\Users\EBANO_~1\AppData\Local\Temp\ccpYmjAB.s 			page 38


 1023 001e 1A4F     		ldr	r7, .L95+4
 1024 0020 5358     		ldr	r3, [r2, r1]
 1025 0022 BB42     		cmp	r3, r7
 1026 0024 24D0     		beq	.L93
 1027 0026 194F     		ldr	r7, .L95+8
 1028 0028 BC46     		mov	ip, r7
 1029 002a 6344     		add	r3, r3, ip
 1030 002c 5F42     		rsbs	r7, r3, #0
 1031 002e 7B41     		adcs	r3, r3, r7
 1032 0030 5B00     		lsls	r3, r3, #1
 1033              	.LBE50:
 1034              	.LBE52:
 515:../../../../../../Middlewares/Third_Party/LoRaWAN/Mac/region/RegionEU433.c **** 
 1035              		.loc 1 515 0
 1036 0032 A370     		strb	r3, [r4, #2]
 517:../../../../../../Middlewares/Third_Party/LoRaWAN/Mac/region/RegionEU433.c ****     { // FSK
 1037              		.loc 1 517 0
 1038 0034 0628     		cmp	r0, #6
 1039 0036 1FDC     		bgt	.L94
 1040              	.L91:
 523:../../../../../../Middlewares/Third_Party/LoRaWAN/Mac/region/RegionEU433.c ****     }
 1041              		.loc 1 523 0
 1042 0038 2023     		movs	r3, #32
 1043 003a 5158     		ldr	r1, [r2, r1]
 1044 003c 9219     		adds	r2, r2, r6
 1045 003e D05C     		ldrb	r0, [r2, r3]
 1046              	.LVL71:
 1047 0040 FFF7FEFF 		bl	RegionCommonComputeSymbolTimeLoRa
 1048              	.LVL72:
 1049 0044 0600     		movs	r6, r0
 1050 0046 0F00     		movs	r7, r1
 1051              	.LVL73:
 1052              	.L92:
 526:../../../../../../Middlewares/Third_Party/LoRaWAN/Mac/region/RegionEU433.c **** }
 1053              		.loc 1 526 0
 1054 0048 114B     		ldr	r3, .L95+12
 1055 004a 5B6E     		ldr	r3, [r3, #100]
 1056 004c 0593     		str	r3, [sp, #20]
 1057 004e 9847     		blx	r3
 1058              	.LVL74:
 1059 0050 2300     		movs	r3, r4
 1060 0052 0834     		adds	r4, r4, #8
 1061              	.LVL75:
 1062 0054 0C33     		adds	r3, r3, #12
 1063              	.LVL76:
 1064 0056 0293     		str	r3, [sp, #8]
 1065 0058 0090     		str	r0, [sp]
 1066 005a 0194     		str	r4, [sp, #4]
 1067 005c 4346     		mov	r3, r8
 1068              	.LVL77:
 1069 005e 2A00     		movs	r2, r5
 1070 0060 3000     		movs	r0, r6
 1071 0062 3900     		movs	r1, r7
 1072 0064 FFF7FEFF 		bl	RegionCommonComputeRxWindowParameters
 1073              	.LVL78:
 527:../../../../../../Middlewares/Third_Party/LoRaWAN/Mac/region/RegionEU433.c **** 
 1074              		.loc 1 527 0
ARM GAS  C:\Users\EBANO_~1\AppData\Local\Temp\ccpYmjAB.s 			page 39


 1075 0068 06B0     		add	sp, sp, #24
 1076              		@ sp needed
 1077              	.LVL79:
 1078              	.LVL80:
 1079              	.LVL81:
 1080 006a 04BC     		pop	{r2}
 1081 006c 9046     		mov	r8, r2
 1082 006e F0BD     		pop	{r4, r5, r6, r7, pc}
 1083              	.LVL82:
 1084              	.L93:
 1085              	.LBB53:
 1086              	.LBB51:
  86:../../../../../../Middlewares/Third_Party/LoRaWAN/Mac/region/RegionEU433.c ****     {
 1087              		.loc 1 86 0
 1088 0070 0123     		movs	r3, #1
 1089              	.LBE51:
 1090              	.LBE53:
 515:../../../../../../Middlewares/Third_Party/LoRaWAN/Mac/region/RegionEU433.c **** 
 1091              		.loc 1 515 0
 1092 0072 A370     		strb	r3, [r4, #2]
 517:../../../../../../Middlewares/Third_Party/LoRaWAN/Mac/region/RegionEU433.c ****     { // FSK
 1093              		.loc 1 517 0
 1094 0074 0628     		cmp	r0, #6
 1095 0076 DFDD     		ble	.L91
 1096              	.L94:
 519:../../../../../../Middlewares/Third_Party/LoRaWAN/Mac/region/RegionEU433.c ****     }
 1097              		.loc 1 519 0
 1098 0078 3220     		movs	r0, #50
 1099              	.LVL83:
 1100 007a FFF7FEFF 		bl	RegionCommonComputeSymbolTimeFsk
 1101              	.LVL84:
 1102 007e 0600     		movs	r6, r0
 1103 0080 0F00     		movs	r7, r1
 1104              	.LVL85:
 1105 0082 E1E7     		b	.L92
 1106              	.L96:
 1107              		.align	2
 1108              	.L95:
 1109 0084 D8000000 		.word	.LANCHOR1
 1110 0088 90D00300 		.word	250000
 1111 008c E05EF8FF 		.word	-500000
 1112 0090 00000000 		.word	Radio
 1113              		.cfi_endproc
 1114              	.LFE51:
 1115              		.size	RegionEU433ComputeRxWindowParameters, .-RegionEU433ComputeRxWindowParameters
 1116              		.section	.text.RegionEU433RxConfig,"ax",%progbits
 1117              		.align	1
 1118              		.p2align 2,,3
 1119              		.global	RegionEU433RxConfig
 1120              		.syntax unified
 1121              		.code	16
 1122              		.thumb_func
 1123              		.fpu softvfp
 1124              		.type	RegionEU433RxConfig, %function
 1125              	RegionEU433RxConfig:
 1126              	.LFB52:
 530:../../../../../../Middlewares/Third_Party/LoRaWAN/Mac/region/RegionEU433.c ****     RadioModems_t modem;
ARM GAS  C:\Users\EBANO_~1\AppData\Local\Temp\ccpYmjAB.s 			page 40


 1127              		.loc 1 530 0
 1128              		.cfi_startproc
 1129              		@ args = 0, pretend = 0, frame = 8
 1130              		@ frame_needed = 0, uses_anonymous_args = 0
 1131              	.LVL86:
 1132 0000 F0B5     		push	{r4, r5, r6, r7, lr}
 1133              	.LCFI13:
 1134              		.cfi_def_cfa_offset 20
 1135              		.cfi_offset 4, -20
 1136              		.cfi_offset 5, -16
 1137              		.cfi_offset 6, -12
 1138              		.cfi_offset 7, -8
 1139              		.cfi_offset 14, -4
 1140 0002 D646     		mov	lr, r10
 1141 0004 4646     		mov	r6, r8
 1142 0006 4F46     		mov	r7, r9
 1143 0008 C0B5     		push	{r6, r7, lr}
 1144              	.LCFI14:
 1145              		.cfi_def_cfa_offset 32
 1146              		.cfi_offset 8, -32
 1147              		.cfi_offset 9, -28
 1148              		.cfi_offset 10, -24
 532:../../../../../../Middlewares/Third_Party/LoRaWAN/Mac/region/RegionEU433.c ****     uint8_t maxPayload = 0;
 1149              		.loc 1 532 0
 1150 000a 0126     		movs	r6, #1
 535:../../../../../../Middlewares/Third_Party/LoRaWAN/Mac/region/RegionEU433.c **** 
 1151              		.loc 1 535 0
 1152 000c 4368     		ldr	r3, [r0, #4]
 537:../../../../../../Middlewares/Third_Party/LoRaWAN/Mac/region/RegionEU433.c ****     {
 1153              		.loc 1 537 0
 1154 000e 394D     		ldr	r5, .L107
 535:../../../../../../Middlewares/Third_Party/LoRaWAN/Mac/region/RegionEU433.c **** 
 1155              		.loc 1 535 0
 1156 0010 9846     		mov	r8, r3
 537:../../../../../../Middlewares/Third_Party/LoRaWAN/Mac/region/RegionEU433.c ****     {
 1157              		.loc 1 537 0
 1158 0012 EB68     		ldr	r3, [r5, #12]
 530:../../../../../../Middlewares/Third_Party/LoRaWAN/Mac/region/RegionEU433.c ****     RadioModems_t modem;
 1159              		.loc 1 530 0
 1160 0014 8CB0     		sub	sp, sp, #48
 1161              	.LCFI15:
 1162              		.cfi_def_cfa_offset 80
 532:../../../../../../Middlewares/Third_Party/LoRaWAN/Mac/region/RegionEU433.c ****     uint8_t maxPayload = 0;
 1163              		.loc 1 532 0
 1164 0016 8657     		ldrsb	r6, [r0, r6]
 1165              	.LVL87:
 530:../../../../../../Middlewares/Third_Party/LoRaWAN/Mac/region/RegionEU433.c ****     RadioModems_t modem;
 1166              		.loc 1 530 0
 1167 0018 0400     		movs	r4, r0
 537:../../../../../../Middlewares/Third_Party/LoRaWAN/Mac/region/RegionEU433.c ****     {
 1168              		.loc 1 537 0
 1169 001a 0B93     		str	r3, [sp, #44]
 530:../../../../../../Middlewares/Third_Party/LoRaWAN/Mac/region/RegionEU433.c ****     RadioModems_t modem;
 1170              		.loc 1 530 0
 1171 001c 8A46     		mov	r10, r1
 537:../../../../../../Middlewares/Third_Party/LoRaWAN/Mac/region/RegionEU433.c ****     {
 1172              		.loc 1 537 0
ARM GAS  C:\Users\EBANO_~1\AppData\Local\Temp\ccpYmjAB.s 			page 41


 1173 001e 9847     		blx	r3
 1174              	.LVL88:
 539:../../../../../../Middlewares/Third_Party/LoRaWAN/Mac/region/RegionEU433.c ****     }
 1175              		.loc 1 539 0
 1176 0020 0023     		movs	r3, #0
 537:../../../../../../Middlewares/Third_Party/LoRaWAN/Mac/region/RegionEU433.c ****     {
 1177              		.loc 1 537 0
 1178 0022 0028     		cmp	r0, #0
 1179 0024 3ED1     		bne	.L98
 542:../../../../../../Middlewares/Third_Party/LoRaWAN/Mac/region/RegionEU433.c ****     {
 1180              		.loc 1 542 0
 1181 0026 E37C     		ldrb	r3, [r4, #19]
 1182 0028 002B     		cmp	r3, #0
 1183 002a 0AD1     		bne	.L99
 545:../../../../../../Middlewares/Third_Party/LoRaWAN/Mac/region/RegionEU433.c ****         // Apply the alternative RX 1 window frequency, if it is available
 1184              		.loc 1 545 0
 1185 002c 2178     		ldrb	r1, [r4]
 1186 002e 324A     		ldr	r2, .L107+4
 1187 0030 4B00     		lsls	r3, r1, #1
 1188 0032 5B18     		adds	r3, r3, r1
 1189 0034 9B00     		lsls	r3, r3, #2
 1190 0036 9958     		ldr	r1, [r3, r2]
 1191              	.LVL89:
 547:../../../../../../Middlewares/Third_Party/LoRaWAN/Mac/region/RegionEU433.c ****         {
 1192              		.loc 1 547 0
 1193 0038 D318     		adds	r3, r2, r3
 1194 003a 5B68     		ldr	r3, [r3, #4]
 1195 003c 9846     		mov	r8, r3
 1196 003e 002B     		cmp	r3, #0
 1197 0040 56D0     		beq	.L105
 1198              	.LVL90:
 1199              	.L99:
 554:../../../../../../Middlewares/Third_Party/LoRaWAN/Mac/region/RegionEU433.c **** 
 1200              		.loc 1 554 0
 1201 0042 2022     		movs	r2, #32
 1202 0044 2D4B     		ldr	r3, .L107+8
 556:../../../../../../Middlewares/Third_Party/LoRaWAN/Mac/region/RegionEU433.c **** 
 1203              		.loc 1 556 0
 1204 0046 4046     		mov	r0, r8
 554:../../../../../../Middlewares/Third_Party/LoRaWAN/Mac/region/RegionEU433.c **** 
 1205              		.loc 1 554 0
 1206 0048 9B19     		adds	r3, r3, r6
 1207 004a 9B56     		ldrsb	r3, [r3, r2]
 1208 004c 9946     		mov	r9, r3
 1209              	.LVL91:
 556:../../../../../../Middlewares/Third_Party/LoRaWAN/Mac/region/RegionEU433.c **** 
 1210              		.loc 1 556 0
 1211 004e 6B69     		ldr	r3, [r5, #20]
 1212 0050 0B93     		str	r3, [sp, #44]
 1213 0052 9847     		blx	r3
 1214              	.LVL92:
 1215 0054 2B6A     		ldr	r3, [r5, #32]
 1216 0056 0B93     		str	r3, [sp, #44]
 1217 0058 1F00     		movs	r7, r3
 559:../../../../../../Middlewares/Third_Party/LoRaWAN/Mac/region/RegionEU433.c ****     {
 1218              		.loc 1 559 0
 1219 005a 072E     		cmp	r6, #7
ARM GAS  C:\Users\EBANO_~1\AppData\Local\Temp\ccpYmjAB.s 			page 42


 1220 005c 2CD0     		beq	.L106
 1221              	.LVL93:
 567:../../../../../../Middlewares/Third_Party/LoRaWAN/Mac/region/RegionEU433.c ****     }
 1222              		.loc 1 567 0
 1223 005e A37C     		ldrb	r3, [r4, #18]
 1224 0060 2289     		ldrh	r2, [r4, #8]
 1225 0062 0993     		str	r3, [sp, #36]
 1226 0064 0123     		movs	r3, #1
 1227 0066 0292     		str	r2, [sp, #8]
 1228 0068 0893     		str	r3, [sp, #32]
 1229 006a 0822     		movs	r2, #8
 1230 006c 0023     		movs	r3, #0
 1231 006e 0192     		str	r2, [sp, #4]
 1232 0070 0793     		str	r3, [sp, #28]
 1233 0072 0693     		str	r3, [sp, #24]
 1234 0074 0593     		str	r3, [sp, #20]
 1235 0076 0493     		str	r3, [sp, #16]
 1236 0078 0393     		str	r3, [sp, #12]
 1237 007a 0093     		str	r3, [sp]
 1238 007c 0120     		movs	r0, #1
 1239 007e A178     		ldrb	r1, [r4, #2]
 1240 0080 0133     		adds	r3, r3, #1
 1241 0082 4A46     		mov	r2, r9
 1242 0084 B847     		blx	r7
 1243              	.LVL94:
 566:../../../../../../Middlewares/Third_Party/LoRaWAN/Mac/region/RegionEU433.c ****         Radio.SetRxConfig( modem, rxConfig->Bandwidth, phyDr, 1, 0, 8, rxConfig->WindowTimeout, fal
 1244              		.loc 1 566 0
 1245 0086 0120     		movs	r0, #1
 1246              	.LVL95:
 1247              	.L101:
 570:../../../../../../Middlewares/Third_Party/LoRaWAN/Mac/region/RegionEU433.c ****     {
 1248              		.loc 1 570 0
 1249 0088 637C     		ldrb	r3, [r4, #17]
 1250 008a 002B     		cmp	r3, #0
 1251 008c 11D0     		beq	.L102
 572:../../../../../../Middlewares/Third_Party/LoRaWAN/Mac/region/RegionEU433.c ****     }
 1252              		.loc 1 572 0
 1253 008e 1C4B     		ldr	r3, .L107+12
 1254 0090 9B19     		adds	r3, r3, r6
 1255 0092 197A     		ldrb	r1, [r3, #8]
 1256              	.LVL96:
 1257              	.L103:
 578:../../../../../../Middlewares/Third_Party/LoRaWAN/Mac/region/RegionEU433.c ****     TVL1( PRINTF( "RX on freq %d Hz at DR %d\n\r", frequency, dr );)
 1258              		.loc 1 578 0
 1259 0094 EB6D     		ldr	r3, [r5, #92]
 1260 0096 0D31     		adds	r1, r1, #13
 1261              	.LVL97:
 1262 0098 C9B2     		uxtb	r1, r1
 1263 009a 0B93     		str	r3, [sp, #44]
 1264 009c 9847     		blx	r3
 1265              	.LVL98:
 581:../../../../../../Middlewares/Third_Party/LoRaWAN/Mac/region/RegionEU433.c ****     return true;
 1266              		.loc 1 581 0
 1267 009e 5346     		mov	r3, r10
 1268 00a0 1E70     		strb	r6, [r3]
 582:../../../../../../Middlewares/Third_Party/LoRaWAN/Mac/region/RegionEU433.c **** }
 1269              		.loc 1 582 0
ARM GAS  C:\Users\EBANO_~1\AppData\Local\Temp\ccpYmjAB.s 			page 43


 1270 00a2 0123     		movs	r3, #1
 1271              	.LVL99:
 1272              	.L98:
 583:../../../../../../Middlewares/Third_Party/LoRaWAN/Mac/region/RegionEU433.c **** 
 1273              		.loc 1 583 0
 1274 00a4 1800     		movs	r0, r3
 1275 00a6 0CB0     		add	sp, sp, #48
 1276              		@ sp needed
 1277              	.LVL100:
 1278              	.LVL101:
 1279              	.LVL102:
 1280              	.LVL103:
 1281 00a8 1CBC     		pop	{r2, r3, r4}
 1282 00aa 9046     		mov	r8, r2
 1283 00ac 9946     		mov	r9, r3
 1284 00ae A246     		mov	r10, r4
 1285 00b0 F0BD     		pop	{r4, r5, r6, r7, pc}
 1286              	.LVL104:
 1287              	.L102:
 576:../../../../../../Middlewares/Third_Party/LoRaWAN/Mac/region/RegionEU433.c ****     }
 1288              		.loc 1 576 0
 1289 00b2 134B     		ldr	r3, .L107+12
 1290 00b4 995D     		ldrb	r1, [r3, r6]
 1291              	.LVL105:
 1292 00b6 EDE7     		b	.L103
 1293              	.LVL106:
 1294              	.L106:
 562:../../../../../../Middlewares/Third_Party/LoRaWAN/Mac/region/RegionEU433.c ****     }
 1295              		.loc 1 562 0
 1296 00b8 4B46     		mov	r3, r9
 1297 00ba 5A01     		lsls	r2, r3, #5
 1298 00bc D21A     		subs	r2, r2, r3
 1299 00be A37C     		ldrb	r3, [r4, #18]
 1300 00c0 0121     		movs	r1, #1
 1301 00c2 0993     		str	r3, [sp, #36]
 1302 00c4 0023     		movs	r3, #0
 1303 00c6 0893     		str	r3, [sp, #32]
 1304 00c8 0793     		str	r3, [sp, #28]
 1305 00ca 0693     		str	r3, [sp, #24]
 1306 00cc 0493     		str	r3, [sp, #16]
 1307 00ce 0393     		str	r3, [sp, #12]
 1308 00d0 2389     		ldrh	r3, [r4, #8]
 1309 00d2 9200     		lsls	r2, r2, #2
 1310 00d4 0293     		str	r3, [sp, #8]
 1311 00d6 0523     		movs	r3, #5
 1312 00d8 0193     		str	r3, [sp, #4]
 1313 00da 0A4B     		ldr	r3, .L107+16
 1314 00dc 4A44     		add	r2, r2, r9
 1315 00de 0591     		str	r1, [sp, #20]
 1316 00e0 0093     		str	r3, [sp]
 1317 00e2 0020     		movs	r0, #0
 1318 00e4 D200     		lsls	r2, r2, #3
 1319 00e6 0023     		movs	r3, #0
 1320 00e8 0749     		ldr	r1, .L107+20
 1321 00ea B847     		blx	r7
 1322              	.LVL107:
 561:../../../../../../Middlewares/Third_Party/LoRaWAN/Mac/region/RegionEU433.c ****         Radio.SetRxConfig( modem, 50000, phyDr * 1000, 0, 83333, 5, rxConfig->WindowTimeout, false,
ARM GAS  C:\Users\EBANO_~1\AppData\Local\Temp\ccpYmjAB.s 			page 44


 1323              		.loc 1 561 0
 1324 00ec 0020     		movs	r0, #0
 1325 00ee CBE7     		b	.L101
 1326              	.LVL108:
 1327              	.L105:
 545:../../../../../../Middlewares/Third_Party/LoRaWAN/Mac/region/RegionEU433.c ****         // Apply the alternative RX 1 window frequency, if it is available
 1328              		.loc 1 545 0
 1329 00f0 8846     		mov	r8, r1
 1330 00f2 A6E7     		b	.L99
 1331              	.L108:
 1332              		.align	2
 1333              	.L107:
 1334 00f4 00000000 		.word	Radio
 1335 00f8 00000000 		.word	NvmCtx
 1336 00fc D8000000 		.word	.LANCHOR1
 1337 0100 00010000 		.word	.LANCHOR0
 1338 0104 85450100 		.word	83333
 1339 0108 50C30000 		.word	50000
 1340              		.cfi_endproc
 1341              	.LFE52:
 1342              		.size	RegionEU433RxConfig, .-RegionEU433RxConfig
 1343              		.section	.text.RegionEU433TxConfig,"ax",%progbits
 1344              		.align	1
 1345              		.p2align 2,,3
 1346              		.global	RegionEU433TxConfig
 1347              		.syntax unified
 1348              		.code	16
 1349              		.thumb_func
 1350              		.fpu softvfp
 1351              		.type	RegionEU433TxConfig, %function
 1352              	RegionEU433TxConfig:
 1353              	.LFB53:
 586:../../../../../../Middlewares/Third_Party/LoRaWAN/Mac/region/RegionEU433.c ****     RadioModems_t modem;
 1354              		.loc 1 586 0
 1355              		.cfi_startproc
 1356              		@ args = 0, pretend = 0, frame = 8
 1357              		@ frame_needed = 0, uses_anonymous_args = 0
 1358              	.LVL109:
 1359 0000 F0B5     		push	{r4, r5, r6, r7, lr}
 1360              	.LCFI16:
 1361              		.cfi_def_cfa_offset 20
 1362              		.cfi_offset 4, -20
 1363              		.cfi_offset 5, -16
 1364              		.cfi_offset 6, -12
 1365              		.cfi_offset 7, -8
 1366              		.cfi_offset 14, -4
 1367 0002 4546     		mov	r5, r8
 1368 0004 5746     		mov	r7, r10
 1369 0006 4E46     		mov	r6, r9
 1370 0008 DE46     		mov	lr, fp
 1371 000a 9046     		mov	r8, r2
 588:../../../../../../Middlewares/Third_Party/LoRaWAN/Mac/region/RegionEU433.c ****     int8_t txPowerLimited = LimitTxPower( txConfig->TxPower, NvmCtx.Bands[NvmCtx.Channels[txConfig-
 1372              		.loc 1 588 0
 1373 000c 0122     		movs	r2, #1
 1374              	.LVL110:
 586:../../../../../../Middlewares/Third_Party/LoRaWAN/Mac/region/RegionEU433.c ****     RadioModems_t modem;
 1375              		.loc 1 586 0
ARM GAS  C:\Users\EBANO_~1\AppData\Local\Temp\ccpYmjAB.s 			page 45


 1376 000e 0400     		movs	r4, r0
 588:../../../../../../Middlewares/Third_Party/LoRaWAN/Mac/region/RegionEU433.c ****     int8_t txPowerLimited = LimitTxPower( txConfig->TxPower, NvmCtx.Bands[NvmCtx.Channels[txConfig-
 1377              		.loc 1 588 0
 1378 0010 2023     		movs	r3, #32
 586:../../../../../../Middlewares/Third_Party/LoRaWAN/Mac/region/RegionEU433.c ****     RadioModems_t modem;
 1379              		.loc 1 586 0
 1380 0012 E0B5     		push	{r5, r6, r7, lr}
 1381              	.LCFI17:
 1382              		.cfi_def_cfa_offset 36
 1383              		.cfi_offset 8, -36
 1384              		.cfi_offset 9, -32
 1385              		.cfi_offset 10, -28
 1386              		.cfi_offset 11, -24
 1387 0014 8DB0     		sub	sp, sp, #52
 1388              	.LCFI18:
 1389              		.cfi_def_cfa_offset 88
 586:../../../../../../Middlewares/Third_Party/LoRaWAN/Mac/region/RegionEU433.c ****     RadioModems_t modem;
 1390              		.loc 1 586 0
 1391 0016 0A91     		str	r1, [sp, #40]
 588:../../../../../../Middlewares/Third_Party/LoRaWAN/Mac/region/RegionEU433.c ****     int8_t txPowerLimited = LimitTxPower( txConfig->TxPower, NvmCtx.Bands[NvmCtx.Channels[txConfig-
 1392              		.loc 1 588 0
 1393 0018 8256     		ldrsb	r2, [r0, r2]
 1394 001a 4149     		ldr	r1, .L118
 1395              	.LVL111:
 589:../../../../../../Middlewares/Third_Party/LoRaWAN/Mac/region/RegionEU433.c ****     uint32_t bandwidth = GetBandwidth( txConfig->Datarate );
 1396              		.loc 1 589 0
 1397 001c 414D     		ldr	r5, .L118+4
 588:../../../../../../Middlewares/Third_Party/LoRaWAN/Mac/region/RegionEU433.c ****     int8_t txPowerLimited = LimitTxPower( txConfig->TxPower, NvmCtx.Bands[NvmCtx.Channels[txConfig-
 1398              		.loc 1 588 0
 1399 001e 8818     		adds	r0, r1, r2
 1400              	.LVL112:
 1401 0020 C656     		ldrsb	r6, [r0, r3]
 1402              	.LVL113:
 589:../../../../../../Middlewares/Third_Party/LoRaWAN/Mac/region/RegionEU433.c ****     uint32_t bandwidth = GetBandwidth( txConfig->Datarate );
 1403              		.loc 1 589 0
 1404 0022 2078     		ldrb	r0, [r4]
 1405              	.LVL114:
 1406 0024 4300     		lsls	r3, r0, #1
 1407 0026 1B18     		adds	r3, r3, r0
 1408              	.LBB54:
 1409              	.LBB55:
 103:../../../../../../Middlewares/Third_Party/LoRaWAN/Mac/region/RegionEU433.c **** 
 1410              		.loc 1 103 0
 1411 0028 A078     		ldrb	r0, [r4, #2]
 1412              	.LVL115:
 1413              	.LBE55:
 1414              	.LBE54:
 589:../../../../../../Middlewares/Third_Party/LoRaWAN/Mac/region/RegionEU433.c ****     uint32_t bandwidth = GetBandwidth( txConfig->Datarate );
 1415              		.loc 1 589 0
 1416 002a 9B00     		lsls	r3, r3, #2
 1417              	.LBB60:
 1418              	.LBB56:
 103:../../../../../../Middlewares/Third_Party/LoRaWAN/Mac/region/RegionEU433.c **** 
 1419              		.loc 1 103 0
 1420 002c 8446     		mov	ip, r0
 1421 002e 6746     		mov	r7, ip
 1422              	.LBE56:
ARM GAS  C:\Users\EBANO_~1\AppData\Local\Temp\ccpYmjAB.s 			page 46


 1423              	.LBE60:
 589:../../../../../../Middlewares/Third_Party/LoRaWAN/Mac/region/RegionEU433.c ****     uint32_t bandwidth = GetBandwidth( txConfig->Datarate );
 1424              		.loc 1 589 0
 1425 0030 EB18     		adds	r3, r5, r3
 1426 0032 5B7A     		ldrb	r3, [r3, #9]
 1427              	.LBB61:
 1428              	.LBB57:
 103:../../../../../../Middlewares/Third_Party/LoRaWAN/Mac/region/RegionEU433.c **** 
 1429              		.loc 1 103 0
 1430 0034 7FB2     		sxtb	r7, r7
 1431              	.LBE57:
 1432              	.LBE61:
 589:../../../../../../Middlewares/Third_Party/LoRaWAN/Mac/region/RegionEU433.c ****     uint32_t bandwidth = GetBandwidth( txConfig->Datarate );
 1433              		.loc 1 589 0
 1434 0036 0C33     		adds	r3, r3, #12
 1435 0038 1B01     		lsls	r3, r3, #4
 1436 003a EB18     		adds	r3, r5, r3
 1437              	.LBB62:
 1438              	.LBB58:
 103:../../../../../../Middlewares/Third_Party/LoRaWAN/Mac/region/RegionEU433.c **** 
 1439              		.loc 1 103 0
 1440 003c 9B78     		ldrb	r3, [r3, #2]
 1441 003e 181C     		adds	r0, r3, #0
 1442 0040 5BB2     		sxtb	r3, r3
 1443 0042 BB42     		cmp	r3, r7
 1444 0044 00DA     		bge	.L110
 1445 0046 6046     		mov	r0, ip
 1446              	.L110:
 1447 0048 43B2     		sxtb	r3, r0
 1448              	.LBE58:
 1449              	.LBE62:
 1450              	.LBB63:
 1451              	.LBB64:
  86:../../../../../../Middlewares/Third_Party/LoRaWAN/Mac/region/RegionEU433.c ****     {
 1452              		.loc 1 86 0
 1453 004a 9200     		lsls	r2, r2, #2
 1454              	.LVL116:
 1455              	.LBE64:
 1456              	.LBE63:
 1457              	.LBB67:
 1458              	.LBB59:
 103:../../../../../../Middlewares/Third_Party/LoRaWAN/Mac/region/RegionEU433.c **** 
 1459              		.loc 1 103 0
 1460 004c 9946     		mov	r9, r3
 1461              	.LVL117:
 1462              	.LBE59:
 1463              	.LBE67:
 1464              	.LBB68:
 1465              	.LBB65:
  86:../../../../../../Middlewares/Third_Party/LoRaWAN/Mac/region/RegionEU433.c ****     {
 1466              		.loc 1 86 0
 1467 004e 8B58     		ldr	r3, [r1, r2]
 1468 0050 354A     		ldr	r2, .L118+8
 1469 0052 9342     		cmp	r3, r2
 1470 0054 46D0     		beq	.L116
  90:../../../../../../Middlewares/Third_Party/LoRaWAN/Mac/region/RegionEU433.c ****         case 250000:
 1471              		.loc 1 90 0
ARM GAS  C:\Users\EBANO_~1\AppData\Local\Temp\ccpYmjAB.s 			page 47


 1472 0056 354A     		ldr	r2, .L118+12
 1473 0058 9446     		mov	ip, r2
 1474 005a 6344     		add	r3, r3, ip
 1475 005c 5A42     		rsbs	r2, r3, #0
 1476 005e 5341     		adcs	r3, r3, r2
 1477 0060 5B00     		lsls	r3, r3, #1
 1478 0062 9A46     		mov	r10, r3
 1479              	.L112:
 1480              	.LVL118:
 1481              	.LBE65:
 1482              	.LBE68:
 594:../../../../../../Middlewares/Third_Party/LoRaWAN/Mac/region/RegionEU433.c **** 
 1483              		.loc 1 594 0
 1484 0064 A268     		ldr	r2, [r4, #8]
 1485 0066 6168     		ldr	r1, [r4, #4]
 1486 0068 4846     		mov	r0, r9
 1487 006a FFF7FEFF 		bl	RegionCommonComputeTxPower
 1488              	.LVL119:
 597:../../../../../../Middlewares/Third_Party/LoRaWAN/Mac/region/RegionEU433.c **** 
 1489              		.loc 1 597 0
 1490 006e 2278     		ldrb	r2, [r4]
 594:../../../../../../Middlewares/Third_Party/LoRaWAN/Mac/region/RegionEU433.c **** 
 1491              		.loc 1 594 0
 1492 0070 8346     		mov	fp, r0
 1493              	.LVL120:
 597:../../../../../../Middlewares/Third_Party/LoRaWAN/Mac/region/RegionEU433.c **** 
 1494              		.loc 1 597 0
 1495 0072 5300     		lsls	r3, r2, #1
 1496 0074 9B18     		adds	r3, r3, r2
 1497 0076 9B00     		lsls	r3, r3, #2
 1498 0078 E858     		ldr	r0, [r5, r3]
 1499 007a 2D4D     		ldr	r5, .L118+16
 1500 007c 6B69     		ldr	r3, [r5, #20]
 1501 007e 0B93     		str	r3, [sp, #44]
 1502 0080 9847     		blx	r3
 1503              	.LVL121:
 1504 0082 6B6A     		ldr	r3, [r5, #36]
 1505 0084 0B93     		str	r3, [sp, #44]
 599:../../../../../../Middlewares/Third_Party/LoRaWAN/Mac/region/RegionEU433.c ****     { // High Speed FSK channel
 1506              		.loc 1 599 0
 1507 0086 0123     		movs	r3, #1
 1508 0088 E356     		ldrsb	r3, [r4, r3]
 1509 008a 072B     		cmp	r3, #7
 1510 008c 2DD0     		beq	.L117
 1511              	.LVL122:
 607:../../../../../../Middlewares/Third_Party/LoRaWAN/Mac/region/RegionEU433.c ****     }
 1512              		.loc 1 607 0
 1513 008e 294B     		ldr	r3, .L118+20
 1514 0090 0122     		movs	r2, #1
 1515 0092 0893     		str	r3, [sp, #32]
 1516 0094 0023     		movs	r3, #0
 1517 0096 0793     		str	r3, [sp, #28]
 1518 0098 0693     		str	r3, [sp, #24]
 1519 009a 0593     		str	r3, [sp, #20]
 1520 009c 0393     		str	r3, [sp, #12]
 1521 009e 0833     		adds	r3, r3, #8
 1522 00a0 0492     		str	r2, [sp, #16]
ARM GAS  C:\Users\EBANO_~1\AppData\Local\Temp\ccpYmjAB.s 			page 48


 1523 00a2 0293     		str	r3, [sp, #8]
 1524 00a4 0192     		str	r2, [sp, #4]
 1525 00a6 0096     		str	r6, [sp]
 1526 00a8 5346     		mov	r3, r10
 1527 00aa 0B9E     		ldr	r6, [sp, #44]
 1528              	.LVL123:
 1529 00ac 0022     		movs	r2, #0
 1530 00ae 5946     		mov	r1, fp
 1531 00b0 0120     		movs	r0, #1
 1532 00b2 B047     		blx	r6
 1533              	.LVL124:
 606:../../../../../../Middlewares/Third_Party/LoRaWAN/Mac/region/RegionEU433.c ****         Radio.SetTxConfig( modem, phyTxPower, 0, bandwidth, phyDr, 1, 8, false, true, 0, 0, false, 
 1534              		.loc 1 606 0
 1535 00b4 0126     		movs	r6, #1
 1536              	.LVL125:
 1537              	.L115:
 612:../../../../../../Middlewares/Third_Party/LoRaWAN/Mac/region/RegionEU433.c ****     // Get the time-on-air of the next tx frame
 1538              		.loc 1 612 0
 1539 00b6 EB6D     		ldr	r3, [r5, #92]
 1540 00b8 217B     		ldrb	r1, [r4, #12]
 1541 00ba 3000     		movs	r0, r6
 1542 00bc 0B93     		str	r3, [sp, #44]
 1543 00be 9847     		blx	r3
 1544              	.LVL126:
 614:../../../../../../Middlewares/Third_Party/LoRaWAN/Mac/region/RegionEU433.c **** 
 1545              		.loc 1 614 0
 1546 00c0 EB6A     		ldr	r3, [r5, #44]
 1547 00c2 217B     		ldrb	r1, [r4, #12]
 1548 00c4 3000     		movs	r0, r6
 1549 00c6 0B93     		str	r3, [sp, #44]
 1550 00c8 9847     		blx	r3
 1551              	.LVL127:
 1552 00ca 4346     		mov	r3, r8
 1553 00cc 1860     		str	r0, [r3]
 616:../../../../../../Middlewares/Third_Party/LoRaWAN/Mac/region/RegionEU433.c ****     return true;
 1554              		.loc 1 616 0
 1555 00ce 4B46     		mov	r3, r9
 618:../../../../../../Middlewares/Third_Party/LoRaWAN/Mac/region/RegionEU433.c **** 
 1556              		.loc 1 618 0
 1557 00d0 0120     		movs	r0, #1
 616:../../../../../../Middlewares/Third_Party/LoRaWAN/Mac/region/RegionEU433.c ****     return true;
 1558              		.loc 1 616 0
 1559 00d2 0A9A     		ldr	r2, [sp, #40]
 1560 00d4 1370     		strb	r3, [r2]
 618:../../../../../../Middlewares/Third_Party/LoRaWAN/Mac/region/RegionEU433.c **** 
 1561              		.loc 1 618 0
 1562 00d6 0DB0     		add	sp, sp, #52
 1563              		@ sp needed
 1564              	.LVL128:
 1565              	.LVL129:
 1566              	.LVL130:
 1567              	.LVL131:
 1568 00d8 3CBC     		pop	{r2, r3, r4, r5}
 1569 00da 9046     		mov	r8, r2
 1570 00dc 9946     		mov	r9, r3
 1571 00de A246     		mov	r10, r4
 1572 00e0 AB46     		mov	fp, r5
ARM GAS  C:\Users\EBANO_~1\AppData\Local\Temp\ccpYmjAB.s 			page 49


 1573 00e2 F0BD     		pop	{r4, r5, r6, r7, pc}
 1574              	.LVL132:
 1575              	.L116:
 1576              	.LBB69:
 1577              	.LBB66:
  92:../../../../../../Middlewares/Third_Party/LoRaWAN/Mac/region/RegionEU433.c ****         case 500000:
 1578              		.loc 1 92 0
 1579 00e4 0123     		movs	r3, #1
 1580              	.LVL133:
 1581 00e6 9A46     		mov	r10, r3
 1582 00e8 BCE7     		b	.L112
 1583              	.LVL134:
 1584              	.L117:
 1585              	.LBE66:
 1586              	.LBE69:
 602:../../../../../../Middlewares/Third_Party/LoRaWAN/Mac/region/RegionEU433.c ****     }
 1587              		.loc 1 602 0
 1588 00ea 124B     		ldr	r3, .L118+20
 1589 00ec 0122     		movs	r2, #1
 1590 00ee 0893     		str	r3, [sp, #32]
 1591 00f0 0023     		movs	r3, #0
 1592 00f2 0793     		str	r3, [sp, #28]
 1593 00f4 0693     		str	r3, [sp, #24]
 1594 00f6 0593     		str	r3, [sp, #20]
 1595 00f8 0393     		str	r3, [sp, #12]
 1596 00fa 0193     		str	r3, [sp, #4]
 1597 00fc 7301     		lsls	r3, r6, #5
 1598 00fe 9B1B     		subs	r3, r3, r6
 1599 0100 9B00     		lsls	r3, r3, #2
 1600 0102 9E19     		adds	r6, r3, r6
 1601              	.LVL135:
 1602 0104 0492     		str	r2, [sp, #16]
 1603 0106 F600     		lsls	r6, r6, #3
 1604 0108 0432     		adds	r2, r2, #4
 1605 010a 0292     		str	r2, [sp, #8]
 1606 010c 0096     		str	r6, [sp]
 1607 010e 5346     		mov	r3, r10
 1608 0110 0B9E     		ldr	r6, [sp, #44]
 1609 0112 094A     		ldr	r2, .L118+24
 1610 0114 5946     		mov	r1, fp
 1611 0116 0020     		movs	r0, #0
 1612 0118 B047     		blx	r6
 1613              	.LVL136:
 601:../../../../../../Middlewares/Third_Party/LoRaWAN/Mac/region/RegionEU433.c ****         Radio.SetTxConfig( modem, phyTxPower, 25000, bandwidth, phyDr * 1000, 0, 5, false, true, 0,
 1614              		.loc 1 601 0
 1615 011a 0026     		movs	r6, #0
 1616 011c CBE7     		b	.L115
 1617              	.L119:
 1618 011e C046     		.align	2
 1619              	.L118:
 1620 0120 D8000000 		.word	.LANCHOR1
 1621 0124 00000000 		.word	NvmCtx
 1622 0128 90D00300 		.word	250000
 1623 012c E05EF8FF 		.word	-500000
 1624 0130 00000000 		.word	Radio
 1625 0134 B80B0000 		.word	3000
 1626 0138 A8610000 		.word	25000
ARM GAS  C:\Users\EBANO_~1\AppData\Local\Temp\ccpYmjAB.s 			page 50


 1627              		.cfi_endproc
 1628              	.LFE53:
 1629              		.size	RegionEU433TxConfig, .-RegionEU433TxConfig
 1630              		.section	.text.RegionEU433LinkAdrReq,"ax",%progbits
 1631              		.align	1
 1632              		.p2align 2,,3
 1633              		.global	RegionEU433LinkAdrReq
 1634              		.syntax unified
 1635              		.code	16
 1636              		.thumb_func
 1637              		.fpu softvfp
 1638              		.type	RegionEU433LinkAdrReq, %function
 1639              	RegionEU433LinkAdrReq:
 1640              	.LFB54:
 621:../../../../../../Middlewares/Third_Party/LoRaWAN/Mac/region/RegionEU433.c ****     uint8_t status = 0x07;
 1641              		.loc 1 621 0
 1642              		.cfi_startproc
 1643              		@ args = 4, pretend = 0, frame = 56
 1644              		@ frame_needed = 0, uses_anonymous_args = 0
 1645              	.LVL137:
 1646 0000 F0B5     		push	{r4, r5, r6, r7, lr}
 1647              	.LCFI19:
 1648              		.cfi_def_cfa_offset 20
 1649              		.cfi_offset 4, -20
 1650              		.cfi_offset 5, -16
 1651              		.cfi_offset 6, -12
 1652              		.cfi_offset 7, -8
 1653              		.cfi_offset 14, -4
 1654 0002 5746     		mov	r7, r10
 1655 0004 4E46     		mov	r6, r9
 1656 0006 4546     		mov	r5, r8
 1657 0008 DE46     		mov	lr, fp
 1658 000a E0B5     		push	{r5, r6, r7, lr}
 1659              	.LCFI20:
 1660              		.cfi_def_cfa_offset 36
 1661              		.cfi_offset 8, -36
 1662              		.cfi_offset 9, -32
 1663              		.cfi_offset 10, -28
 1664              		.cfi_offset 11, -24
 1665 000c 8FB0     		sub	sp, sp, #60
 1666              	.LCFI21:
 1667              		.cfi_def_cfa_offset 96
 621:../../../../../../Middlewares/Third_Party/LoRaWAN/Mac/region/RegionEU433.c ****     uint8_t status = 0x07;
 1668              		.loc 1 621 0
 1669 000e 0193     		str	r3, [sp, #4]
 626:../../../../../../Middlewares/Third_Party/LoRaWAN/Mac/region/RegionEU433.c ****     GetPhyParams_t getPhy;
 1670              		.loc 1 626 0
 1671 0010 0023     		movs	r3, #0
 1672              	.LVL138:
 621:../../../../../../Middlewares/Third_Party/LoRaWAN/Mac/region/RegionEU433.c ****     uint8_t status = 0x07;
 1673              		.loc 1 621 0
 1674 0012 9246     		mov	r10, r2
 626:../../../../../../Middlewares/Third_Party/LoRaWAN/Mac/region/RegionEU433.c ****     GetPhyParams_t getPhy;
 1675              		.loc 1 626 0
 1676 0014 02AA     		add	r2, sp, #8
 1677              	.LVL139:
 1678 0016 D380     		strh	r3, [r2, #6]
ARM GAS  C:\Users\EBANO_~1\AppData\Local\Temp\ccpYmjAB.s 			page 51


 622:../../../../../../Middlewares/Third_Party/LoRaWAN/Mac/region/RegionEU433.c ****     RegionCommonLinkAdrParams_t linkAdrParams;
 1679              		.loc 1 622 0
 1680 0018 0733     		adds	r3, r3, #7
 621:../../../../../../Middlewares/Third_Party/LoRaWAN/Mac/region/RegionEU433.c ****     uint8_t status = 0x07;
 1681              		.loc 1 621 0
 1682 001a 0600     		movs	r6, r0
 1683 001c 8B46     		mov	fp, r1
 625:../../../../../../Middlewares/Third_Party/LoRaWAN/Mac/region/RegionEU433.c ****     uint16_t chMask = 0;
 1684              		.loc 1 625 0
 1685 001e 0024     		movs	r4, #0
 622:../../../../../../Middlewares/Third_Party/LoRaWAN/Mac/region/RegionEU433.c ****     RegionCommonLinkAdrParams_t linkAdrParams;
 1686              		.loc 1 622 0
 1687 0020 9946     		mov	r9, r3
 1688              	.LBB75:
 665:../../../../../../Middlewares/Third_Party/LoRaWAN/Mac/region/RegionEU433.c ****                     {
 1689              		.loc 1 665 0
 1690 0022 9846     		mov	r8, r3
 1691 0024 B44F     		ldr	r7, .L276
 1692 0026 04AD     		add	r5, sp, #16
 1693              	.LVL140:
 1694              	.L121:
 1695              	.LBE75:
 631:../../../../../../Middlewares/Third_Party/LoRaWAN/Mac/region/RegionEU433.c ****     {
 1696              		.loc 1 631 0
 1697 0028 337A     		ldrb	r3, [r6, #8]
 1698 002a A342     		cmp	r3, r4
 1699 002c 00D8     		bhi	.LCB1556
 1700 002e 93E0     		b	.L166	@long jump
 1701              	.LCB1556:
 1702              	.L165:
 634:../../../../../../Middlewares/Third_Party/LoRaWAN/Mac/region/RegionEU433.c **** 
 1703              		.loc 1 634 0
 1704 0030 7368     		ldr	r3, [r6, #4]
 1705 0032 2900     		movs	r1, r5
 1706 0034 1819     		adds	r0, r3, r4
 1707 0036 FFF7FEFF 		bl	RegionCommonParseLinkAdrReq
 1708              	.LVL141:
 636:../../../../../../Middlewares/Third_Party/LoRaWAN/Mac/region/RegionEU433.c ****             break; // break loop, since no more request has been found
 1709              		.loc 1 636 0
 1710 003a 0028     		cmp	r0, #0
 1711 003c 00D1     		bne	.LCB1568
 1712 003e 8BE0     		b	.L166	@long jump
 1713              	.LCB1568:
 646:../../../../../../Middlewares/Third_Party/LoRaWAN/Mac/region/RegionEU433.c **** 
 1714              		.loc 1 646 0
 1715 0040 AB88     		ldrh	r3, [r5, #4]
 1716 0042 02AA     		add	r2, sp, #8
 1717 0044 D380     		strh	r3, [r2, #6]
 649:../../../../../../Middlewares/Third_Party/LoRaWAN/Mac/region/RegionEU433.c ****         {
 1718              		.loc 1 649 0
 1719 0046 EA78     		ldrb	r2, [r5, #3]
 640:../../../../../../Middlewares/Third_Party/LoRaWAN/Mac/region/RegionEU433.c **** 
 1720              		.loc 1 640 0
 1721 0048 2418     		adds	r4, r4, r0
 1722              	.LVL142:
 1723 004a E4B2     		uxtb	r4, r4
 1724              	.LVL143:
ARM GAS  C:\Users\EBANO_~1\AppData\Local\Temp\ccpYmjAB.s 			page 52


 646:../../../../../../Middlewares/Third_Party/LoRaWAN/Mac/region/RegionEU433.c **** 
 1725              		.loc 1 646 0
 1726 004c 181C     		adds	r0, r3, #0
 1727              	.LVL144:
 649:../../../../../../Middlewares/Third_Party/LoRaWAN/Mac/region/RegionEU433.c ****         {
 1728              		.loc 1 649 0
 1729 004e 002A     		cmp	r2, #0
 1730 0050 00D0     		beq	.LCB1581
 1731 0052 BFE0     		b	.L125	@long jump
 1732              	.LCB1581:
 651:../../../../../../Middlewares/Third_Party/LoRaWAN/Mac/region/RegionEU433.c ****         }
 1733              		.loc 1 651 0 discriminator 1
 1734 0054 0632     		adds	r2, r2, #6
 1735 0056 9146     		mov	r9, r2
 649:../../../../../../Middlewares/Third_Party/LoRaWAN/Mac/region/RegionEU433.c ****         {
 1736              		.loc 1 649 0 discriminator 1
 1737 0058 002B     		cmp	r3, #0
 1738 005a E5D0     		beq	.L121
 1739              	.LVL145:
 1740              	.LBB76:
 672:../../../../../../Middlewares/Third_Party/LoRaWAN/Mac/region/RegionEU433.c ****                         ( NvmCtx.Channels[i].Frequency == 0 ) )
 1741              		.loc 1 672 0
 1742 005c 0722     		movs	r2, #7
 1743 005e 9146     		mov	r9, r2
 1744 0060 DA07     		lsls	r2, r3, #31
 1745 0062 04D5     		bpl	.L129
 1746 0064 3A68     		ldr	r2, [r7]
 1747 0066 511E     		subs	r1, r2, #1
 1748 0068 8A41     		sbcs	r2, r2, r1
 1749 006a 0632     		adds	r2, r2, #6
 1750 006c 9146     		mov	r9, r2
 1751              	.L129:
 1752              	.LVL146:
 1753 006e 9A07     		lsls	r2, r3, #30
 1754 0070 04D5     		bpl	.L130
 1755 0072 FA68     		ldr	r2, [r7, #12]
 1756 0074 002A     		cmp	r2, #0
 1757 0076 01D1     		bne	.L130
 675:../../../../../../Middlewares/Third_Party/LoRaWAN/Mac/region/RegionEU433.c ****                     }
 1758              		.loc 1 675 0
 1759 0078 0632     		adds	r2, r2, #6
 1760 007a 9146     		mov	r9, r2
 1761              	.LVL147:
 1762              	.L130:
 672:../../../../../../Middlewares/Third_Party/LoRaWAN/Mac/region/RegionEU433.c ****                         ( NvmCtx.Channels[i].Frequency == 0 ) )
 1763              		.loc 1 672 0
 1764 007c 5A07     		lsls	r2, r3, #29
 1765 007e 04D5     		bpl	.L131
 1766 0080 BA69     		ldr	r2, [r7, #24]
 1767 0082 002A     		cmp	r2, #0
 1768 0084 01D1     		bne	.L131
 675:../../../../../../Middlewares/Third_Party/LoRaWAN/Mac/region/RegionEU433.c ****                     }
 1769              		.loc 1 675 0
 1770 0086 0632     		adds	r2, r2, #6
 1771 0088 9146     		mov	r9, r2
 1772              	.LVL148:
 1773              	.L131:
ARM GAS  C:\Users\EBANO_~1\AppData\Local\Temp\ccpYmjAB.s 			page 53


 672:../../../../../../Middlewares/Third_Party/LoRaWAN/Mac/region/RegionEU433.c ****                         ( NvmCtx.Channels[i].Frequency == 0 ) )
 1774              		.loc 1 672 0
 1775 008a 1A07     		lsls	r2, r3, #28
 1776 008c 04D5     		bpl	.L132
 1777 008e 7A6A     		ldr	r2, [r7, #36]
 1778 0090 002A     		cmp	r2, #0
 1779 0092 01D1     		bne	.L132
 675:../../../../../../Middlewares/Third_Party/LoRaWAN/Mac/region/RegionEU433.c ****                     }
 1780              		.loc 1 675 0
 1781 0094 0632     		adds	r2, r2, #6
 1782 0096 9146     		mov	r9, r2
 1783              	.LVL149:
 1784              	.L132:
 672:../../../../../../Middlewares/Third_Party/LoRaWAN/Mac/region/RegionEU433.c ****                         ( NvmCtx.Channels[i].Frequency == 0 ) )
 1785              		.loc 1 672 0
 1786 0098 DA06     		lsls	r2, r3, #27
 1787 009a 04D5     		bpl	.L133
 1788 009c 3A6B     		ldr	r2, [r7, #48]
 1789 009e 002A     		cmp	r2, #0
 1790 00a0 01D1     		bne	.L133
 675:../../../../../../Middlewares/Third_Party/LoRaWAN/Mac/region/RegionEU433.c ****                     }
 1791              		.loc 1 675 0
 1792 00a2 0632     		adds	r2, r2, #6
 1793 00a4 9146     		mov	r9, r2
 1794              	.LVL150:
 1795              	.L133:
 672:../../../../../../Middlewares/Third_Party/LoRaWAN/Mac/region/RegionEU433.c ****                         ( NvmCtx.Channels[i].Frequency == 0 ) )
 1796              		.loc 1 672 0
 1797 00a6 9A06     		lsls	r2, r3, #26
 1798 00a8 04D5     		bpl	.L134
 1799 00aa FA6B     		ldr	r2, [r7, #60]
 1800 00ac 002A     		cmp	r2, #0
 1801 00ae 01D1     		bne	.L134
 675:../../../../../../Middlewares/Third_Party/LoRaWAN/Mac/region/RegionEU433.c ****                     }
 1802              		.loc 1 675 0
 1803 00b0 0632     		adds	r2, r2, #6
 1804 00b2 9146     		mov	r9, r2
 1805              	.LVL151:
 1806              	.L134:
 672:../../../../../../Middlewares/Third_Party/LoRaWAN/Mac/region/RegionEU433.c ****                         ( NvmCtx.Channels[i].Frequency == 0 ) )
 1807              		.loc 1 672 0
 1808 00b4 5A06     		lsls	r2, r3, #25
 1809 00b6 04D5     		bpl	.L135
 1810 00b8 BA6C     		ldr	r2, [r7, #72]
 1811 00ba 002A     		cmp	r2, #0
 1812 00bc 01D1     		bne	.L135
 675:../../../../../../Middlewares/Third_Party/LoRaWAN/Mac/region/RegionEU433.c ****                     }
 1813              		.loc 1 675 0
 1814 00be 0632     		adds	r2, r2, #6
 1815 00c0 9146     		mov	r9, r2
 1816              	.LVL152:
 1817              	.L135:
 672:../../../../../../Middlewares/Third_Party/LoRaWAN/Mac/region/RegionEU433.c ****                         ( NvmCtx.Channels[i].Frequency == 0 ) )
 1818              		.loc 1 672 0
 1819 00c2 1A06     		lsls	r2, r3, #24
 1820 00c4 04D5     		bpl	.L136
 1821 00c6 7A6D     		ldr	r2, [r7, #84]
ARM GAS  C:\Users\EBANO_~1\AppData\Local\Temp\ccpYmjAB.s 			page 54


 1822 00c8 002A     		cmp	r2, #0
 1823 00ca 01D1     		bne	.L136
 675:../../../../../../Middlewares/Third_Party/LoRaWAN/Mac/region/RegionEU433.c ****                     }
 1824              		.loc 1 675 0
 1825 00cc 0632     		adds	r2, r2, #6
 1826 00ce 9146     		mov	r9, r2
 1827              	.LVL153:
 1828              	.L136:
 672:../../../../../../Middlewares/Third_Party/LoRaWAN/Mac/region/RegionEU433.c ****                         ( NvmCtx.Channels[i].Frequency == 0 ) )
 1829              		.loc 1 672 0
 1830 00d0 DA05     		lsls	r2, r3, #23
 1831 00d2 04D5     		bpl	.L137
 1832 00d4 3A6E     		ldr	r2, [r7, #96]
 1833 00d6 002A     		cmp	r2, #0
 1834 00d8 01D1     		bne	.L137
 675:../../../../../../Middlewares/Third_Party/LoRaWAN/Mac/region/RegionEU433.c ****                     }
 1835              		.loc 1 675 0
 1836 00da 0632     		adds	r2, r2, #6
 1837 00dc 9146     		mov	r9, r2
 1838              	.LVL154:
 1839              	.L137:
 672:../../../../../../Middlewares/Third_Party/LoRaWAN/Mac/region/RegionEU433.c ****                         ( NvmCtx.Channels[i].Frequency == 0 ) )
 1840              		.loc 1 672 0
 1841 00de 9A05     		lsls	r2, r3, #22
 1842 00e0 04D5     		bpl	.L138
 1843 00e2 FA6E     		ldr	r2, [r7, #108]
 1844 00e4 002A     		cmp	r2, #0
 1845 00e6 01D1     		bne	.L138
 675:../../../../../../Middlewares/Third_Party/LoRaWAN/Mac/region/RegionEU433.c ****                     }
 1846              		.loc 1 675 0
 1847 00e8 0632     		adds	r2, r2, #6
 1848 00ea 9146     		mov	r9, r2
 1849              	.LVL155:
 1850              	.L138:
 672:../../../../../../Middlewares/Third_Party/LoRaWAN/Mac/region/RegionEU433.c ****                         ( NvmCtx.Channels[i].Frequency == 0 ) )
 1851              		.loc 1 672 0
 1852 00ec 5A05     		lsls	r2, r3, #21
 1853 00ee 04D5     		bpl	.L139
 1854 00f0 BA6F     		ldr	r2, [r7, #120]
 1855 00f2 002A     		cmp	r2, #0
 1856 00f4 01D1     		bne	.L139
 675:../../../../../../Middlewares/Third_Party/LoRaWAN/Mac/region/RegionEU433.c ****                     }
 1857              		.loc 1 675 0
 1858 00f6 0632     		adds	r2, r2, #6
 1859 00f8 9146     		mov	r9, r2
 1860              	.LVL156:
 1861              	.L139:
 672:../../../../../../Middlewares/Third_Party/LoRaWAN/Mac/region/RegionEU433.c ****                         ( NvmCtx.Channels[i].Frequency == 0 ) )
 1862              		.loc 1 672 0
 1863 00fa 1A05     		lsls	r2, r3, #20
 1864 00fc 05D5     		bpl	.L140
 673:../../../../../../Middlewares/Third_Party/LoRaWAN/Mac/region/RegionEU433.c ****                     {// Trying to enable an undefined channel
 1865              		.loc 1 673 0
 1866 00fe 8422     		movs	r2, #132
 672:../../../../../../Middlewares/Third_Party/LoRaWAN/Mac/region/RegionEU433.c ****                         ( NvmCtx.Channels[i].Frequency == 0 ) )
 1867              		.loc 1 672 0
 1868 0100 BA58     		ldr	r2, [r7, r2]
ARM GAS  C:\Users\EBANO_~1\AppData\Local\Temp\ccpYmjAB.s 			page 55


 1869 0102 002A     		cmp	r2, #0
 1870 0104 01D1     		bne	.L140
 675:../../../../../../Middlewares/Third_Party/LoRaWAN/Mac/region/RegionEU433.c ****                     }
 1871              		.loc 1 675 0
 1872 0106 0632     		adds	r2, r2, #6
 1873 0108 9146     		mov	r9, r2
 1874              	.LVL157:
 1875              	.L140:
 672:../../../../../../Middlewares/Third_Party/LoRaWAN/Mac/region/RegionEU433.c ****                         ( NvmCtx.Channels[i].Frequency == 0 ) )
 1876              		.loc 1 672 0
 1877 010a DA04     		lsls	r2, r3, #19
 1878 010c 05D5     		bpl	.L141
 673:../../../../../../Middlewares/Third_Party/LoRaWAN/Mac/region/RegionEU433.c ****                     {// Trying to enable an undefined channel
 1879              		.loc 1 673 0
 1880 010e 9022     		movs	r2, #144
 672:../../../../../../Middlewares/Third_Party/LoRaWAN/Mac/region/RegionEU433.c ****                         ( NvmCtx.Channels[i].Frequency == 0 ) )
 1881              		.loc 1 672 0
 1882 0110 BA58     		ldr	r2, [r7, r2]
 1883 0112 002A     		cmp	r2, #0
 1884 0114 01D1     		bne	.L141
 675:../../../../../../Middlewares/Third_Party/LoRaWAN/Mac/region/RegionEU433.c ****                     }
 1885              		.loc 1 675 0
 1886 0116 0632     		adds	r2, r2, #6
 1887 0118 9146     		mov	r9, r2
 1888              	.LVL158:
 1889              	.L141:
 672:../../../../../../Middlewares/Third_Party/LoRaWAN/Mac/region/RegionEU433.c ****                         ( NvmCtx.Channels[i].Frequency == 0 ) )
 1890              		.loc 1 672 0
 1891 011a 9A04     		lsls	r2, r3, #18
 1892 011c 05D5     		bpl	.L142
 673:../../../../../../Middlewares/Third_Party/LoRaWAN/Mac/region/RegionEU433.c ****                     {// Trying to enable an undefined channel
 1893              		.loc 1 673 0
 1894 011e 9C22     		movs	r2, #156
 672:../../../../../../Middlewares/Third_Party/LoRaWAN/Mac/region/RegionEU433.c ****                         ( NvmCtx.Channels[i].Frequency == 0 ) )
 1895              		.loc 1 672 0
 1896 0120 BA58     		ldr	r2, [r7, r2]
 1897 0122 002A     		cmp	r2, #0
 1898 0124 01D1     		bne	.L142
 675:../../../../../../Middlewares/Third_Party/LoRaWAN/Mac/region/RegionEU433.c ****                     }
 1899              		.loc 1 675 0
 1900 0126 0632     		adds	r2, r2, #6
 1901 0128 9146     		mov	r9, r2
 1902              	.LVL159:
 1903              	.L142:
 672:../../../../../../Middlewares/Third_Party/LoRaWAN/Mac/region/RegionEU433.c ****                         ( NvmCtx.Channels[i].Frequency == 0 ) )
 1904              		.loc 1 672 0
 1905 012a 5A04     		lsls	r2, r3, #17
 1906 012c 05D5     		bpl	.L143
 673:../../../../../../Middlewares/Third_Party/LoRaWAN/Mac/region/RegionEU433.c ****                     {// Trying to enable an undefined channel
 1907              		.loc 1 673 0
 1908 012e A822     		movs	r2, #168
 672:../../../../../../Middlewares/Third_Party/LoRaWAN/Mac/region/RegionEU433.c ****                         ( NvmCtx.Channels[i].Frequency == 0 ) )
 1909              		.loc 1 672 0
 1910 0130 BA58     		ldr	r2, [r7, r2]
 1911 0132 002A     		cmp	r2, #0
 1912 0134 01D1     		bne	.L143
 675:../../../../../../Middlewares/Third_Party/LoRaWAN/Mac/region/RegionEU433.c ****                     }
ARM GAS  C:\Users\EBANO_~1\AppData\Local\Temp\ccpYmjAB.s 			page 56


 1913              		.loc 1 675 0
 1914 0136 0632     		adds	r2, r2, #6
 1915 0138 9146     		mov	r9, r2
 1916              	.LVL160:
 1917              	.L143:
 672:../../../../../../Middlewares/Third_Party/LoRaWAN/Mac/region/RegionEU433.c ****                         ( NvmCtx.Channels[i].Frequency == 0 ) )
 1918              		.loc 1 672 0
 1919 013a 1BB2     		sxth	r3, r3
 1920 013c 002B     		cmp	r3, #0
 1921 013e 00DB     		blt	.LCB1831
 1922 0140 72E7     		b	.L121	@long jump
 1923              	.LCB1831:
 673:../../../../../../Middlewares/Third_Party/LoRaWAN/Mac/region/RegionEU433.c ****                     {// Trying to enable an undefined channel
 1924              		.loc 1 673 0
 1925 0142 B423     		movs	r3, #180
 672:../../../../../../Middlewares/Third_Party/LoRaWAN/Mac/region/RegionEU433.c ****                         ( NvmCtx.Channels[i].Frequency == 0 ) )
 1926              		.loc 1 672 0
 1927 0144 FB58     		ldr	r3, [r7, r3]
 1928 0146 002B     		cmp	r3, #0
 1929 0148 00D0     		beq	.LCB1835
 1930 014a 6DE7     		b	.L121	@long jump
 1931              	.LCB1835:
 675:../../../../../../Middlewares/Third_Party/LoRaWAN/Mac/region/RegionEU433.c ****                     }
 1932              		.loc 1 675 0
 1933 014c 0633     		adds	r3, r3, #6
 1934 014e 9946     		mov	r9, r3
 1935              	.LVL161:
 1936              	.LBE76:
 631:../../../../../../Middlewares/Third_Party/LoRaWAN/Mac/region/RegionEU433.c ****     {
 1937              		.loc 1 631 0
 1938 0150 337A     		ldrb	r3, [r6, #8]
 1939 0152 A342     		cmp	r3, r4
 1940 0154 00D9     		bls	.LCB1844
 1941 0156 6BE7     		b	.L165	@long jump
 1942              	.LCB1844:
 1943              	.LVL162:
 1944              	.L166:
 687:../../../../../../Middlewares/Third_Party/LoRaWAN/Mac/region/RegionEU433.c ****     linkAdrVerifyParams.AdrEnabled = linkAdrReq->AdrEnabled;
 1945              		.loc 1 687 0
 1946 0158 4B46     		mov	r3, r9
 1947 015a 06A8     		add	r0, sp, #24
 1948 015c 0371     		strb	r3, [r0, #4]
 688:../../../../../../Middlewares/Third_Party/LoRaWAN/Mac/region/RegionEU433.c ****     linkAdrVerifyParams.Datarate = linkAdrParams.Datarate;
 1949              		.loc 1 688 0
 1950 015e B37A     		ldrb	r3, [r6, #10]
 705:../../../../../../Middlewares/Third_Party/LoRaWAN/Mac/region/RegionEU433.c **** 
 1951              		.loc 1 705 0
 1952 0160 02A9     		add	r1, sp, #8
 688:../../../../../../Middlewares/Third_Party/LoRaWAN/Mac/region/RegionEU433.c ****     linkAdrVerifyParams.Datarate = linkAdrParams.Datarate;
 1953              		.loc 1 688 0
 1954 0162 4371     		strb	r3, [r0, #5]
 689:../../../../../../Middlewares/Third_Party/LoRaWAN/Mac/region/RegionEU433.c ****     linkAdrVerifyParams.TxPower = linkAdrParams.TxPower;
 1955              		.loc 1 689 0
 1956 0164 6B78     		ldrb	r3, [r5, #1]
 705:../../../../../../Middlewares/Third_Party/LoRaWAN/Mac/region/RegionEU433.c **** 
 1957              		.loc 1 705 0
 1958 0166 8C46     		mov	ip, r1
ARM GAS  C:\Users\EBANO_~1\AppData\Local\Temp\ccpYmjAB.s 			page 57


 689:../../../../../../Middlewares/Third_Party/LoRaWAN/Mac/region/RegionEU433.c ****     linkAdrVerifyParams.TxPower = linkAdrParams.TxPower;
 1959              		.loc 1 689 0
 1960 0168 8371     		strb	r3, [r0, #6]
 690:../../../../../../Middlewares/Third_Party/LoRaWAN/Mac/region/RegionEU433.c ****     linkAdrVerifyParams.NbRep = linkAdrParams.NbRep;
 1961              		.loc 1 690 0
 1962 016a AB78     		ldrb	r3, [r5, #2]
 705:../../../../../../Middlewares/Third_Party/LoRaWAN/Mac/region/RegionEU433.c **** 
 1963              		.loc 1 705 0
 1964 016c 0A22     		movs	r2, #10
 690:../../../../../../Middlewares/Third_Party/LoRaWAN/Mac/region/RegionEU433.c ****     linkAdrVerifyParams.NbRep = linkAdrParams.NbRep;
 1965              		.loc 1 690 0
 1966 016e C371     		strb	r3, [r0, #7]
 691:../../../../../../Middlewares/Third_Party/LoRaWAN/Mac/region/RegionEU433.c ****     linkAdrVerifyParams.CurrentDatarate = linkAdrReq->CurrentDatarate;
 1967              		.loc 1 691 0
 1968 0170 2B78     		ldrb	r3, [r5]
 705:../../../../../../Middlewares/Third_Party/LoRaWAN/Mac/region/RegionEU433.c **** 
 1969              		.loc 1 705 0
 1970 0172 0921     		movs	r1, #9
 691:../../../../../../Middlewares/Third_Party/LoRaWAN/Mac/region/RegionEU433.c ****     linkAdrVerifyParams.CurrentDatarate = linkAdrReq->CurrentDatarate;
 1971              		.loc 1 691 0
 1972 0174 0372     		strb	r3, [r0, #8]
 692:../../../../../../Middlewares/Third_Party/LoRaWAN/Mac/region/RegionEU433.c ****     linkAdrVerifyParams.CurrentTxPower = linkAdrReq->CurrentTxPower;
 1973              		.loc 1 692 0
 1974 0176 F37A     		ldrb	r3, [r6, #11]
 705:../../../../../../Middlewares/Third_Party/LoRaWAN/Mac/region/RegionEU433.c **** 
 1975              		.loc 1 705 0
 1976 0178 6244     		add	r2, r2, ip
 692:../../../../../../Middlewares/Third_Party/LoRaWAN/Mac/region/RegionEU433.c ****     linkAdrVerifyParams.CurrentTxPower = linkAdrReq->CurrentTxPower;
 1977              		.loc 1 692 0
 1978 017a 4372     		strb	r3, [r0, #9]
 693:../../../../../../Middlewares/Third_Party/LoRaWAN/Mac/region/RegionEU433.c ****     linkAdrVerifyParams.CurrentNbRep = linkAdrReq->CurrentNbRep;
 1979              		.loc 1 693 0
 1980 017c 337B     		ldrb	r3, [r6, #12]
 705:../../../../../../Middlewares/Third_Party/LoRaWAN/Mac/region/RegionEU433.c **** 
 1981              		.loc 1 705 0
 1982 017e 6144     		add	r1, r1, ip
 693:../../../../../../Middlewares/Third_Party/LoRaWAN/Mac/region/RegionEU433.c ****     linkAdrVerifyParams.CurrentNbRep = linkAdrReq->CurrentNbRep;
 1983              		.loc 1 693 0
 1984 0180 8372     		strb	r3, [r0, #10]
 694:../../../../../../Middlewares/Third_Party/LoRaWAN/Mac/region/RegionEU433.c ****     linkAdrVerifyParams.NbChannels = EU433_MAX_NB_CHANNELS;
 1985              		.loc 1 694 0
 1986 0182 737B     		ldrb	r3, [r6, #13]
 699:../../../../../../Middlewares/Third_Party/LoRaWAN/Mac/region/RegionEU433.c ****     linkAdrVerifyParams.MinTxPower = EU433_MIN_TX_POWER;
 1987              		.loc 1 699 0
 1988 0184 8761     		str	r7, [r0, #24]
 694:../../../../../../Middlewares/Third_Party/LoRaWAN/Mac/region/RegionEU433.c ****     linkAdrVerifyParams.NbChannels = EU433_MAX_NB_CHANNELS;
 1989              		.loc 1 694 0
 1990 0186 C372     		strb	r3, [r0, #11]
 695:../../../../../../Middlewares/Third_Party/LoRaWAN/Mac/region/RegionEU433.c ****     linkAdrVerifyParams.ChannelsMask = &chMask;
 1991              		.loc 1 695 0
 1992 0188 1023     		movs	r3, #16
 1993 018a 0373     		strb	r3, [r0, #12]
 696:../../../../../../Middlewares/Third_Party/LoRaWAN/Mac/region/RegionEU433.c ****     linkAdrVerifyParams.MinDatarate = ( int8_t )phyParam.Value;
 1994              		.loc 1 696 0
 1995 018c 02AB     		add	r3, sp, #8
 1996 018e 0633     		adds	r3, r3, #6
 1997 0190 0361     		str	r3, [r0, #16]
ARM GAS  C:\Users\EBANO_~1\AppData\Local\Temp\ccpYmjAB.s 			page 58


 697:../../../../../../Middlewares/Third_Party/LoRaWAN/Mac/region/RegionEU433.c ****     linkAdrVerifyParams.MaxDatarate = EU433_TX_MAX_DATARATE;
 1998              		.loc 1 697 0
 1999 0192 E023     		movs	r3, #224
 2000 0194 DB00     		lsls	r3, r3, #3
 2001 0196 8382     		strh	r3, [r0, #20]
 700:../../../../../../Middlewares/Third_Party/LoRaWAN/Mac/region/RegionEU433.c ****     linkAdrVerifyParams.MaxTxPower = EU433_MAX_TX_POWER;
 2002              		.loc 1 700 0
 2003 0198 0523     		movs	r3, #5
 2004 019a 8383     		strh	r3, [r0, #28]
 702:../../../../../../Middlewares/Third_Party/LoRaWAN/Mac/region/RegionEU433.c **** 
 2005              		.loc 1 702 0
 2006 019c 3368     		ldr	r3, [r6]
 2007 019e 0693     		str	r3, [sp, #24]
 705:../../../../../../Middlewares/Third_Party/LoRaWAN/Mac/region/RegionEU433.c **** 
 2008              		.loc 1 705 0
 2009 01a0 2B00     		movs	r3, r5
 2010 01a2 FFF7FEFF 		bl	RegionCommonLinkAdrReqVerifyParams
 2011              	.LVL163:
 2012 01a6 0600     		movs	r6, r0
 2013              	.LVL164:
 708:../../../../../../Middlewares/Third_Party/LoRaWAN/Mac/region/RegionEU433.c ****     {
 2014              		.loc 1 708 0
 2015 01a8 0728     		cmp	r0, #7
 2016 01aa 00D1     		bne	.LCB1895
 2017 01ac 91E0     		b	.L274	@long jump
 2018              	.LCB1895:
 2019              	.LVL165:
 2020              	.L124:
 717:../../../../../../Middlewares/Third_Party/LoRaWAN/Mac/region/RegionEU433.c ****     *txPowOut = linkAdrParams.TxPower;
 2021              		.loc 1 717 0
 2022 01ae 5A46     		mov	r2, fp
 2023 01b0 6B78     		ldrb	r3, [r5, #1]
 723:../../../../../../Middlewares/Third_Party/LoRaWAN/Mac/region/RegionEU433.c **** 
 2024              		.loc 1 723 0
 2025 01b2 3000     		movs	r0, r6
 717:../../../../../../Middlewares/Third_Party/LoRaWAN/Mac/region/RegionEU433.c ****     *txPowOut = linkAdrParams.TxPower;
 2026              		.loc 1 717 0
 2027 01b4 1370     		strb	r3, [r2]
 718:../../../../../../Middlewares/Third_Party/LoRaWAN/Mac/region/RegionEU433.c ****     *nbRepOut = linkAdrParams.NbRep;
 2028              		.loc 1 718 0
 2029 01b6 5246     		mov	r2, r10
 2030 01b8 AB78     		ldrb	r3, [r5, #2]
 2031 01ba 1370     		strb	r3, [r2]
 719:../../../../../../Middlewares/Third_Party/LoRaWAN/Mac/region/RegionEU433.c ****     *nbBytesParsed = bytesProcessed;
 2032              		.loc 1 719 0
 2033 01bc 2B78     		ldrb	r3, [r5]
 2034 01be 019A     		ldr	r2, [sp, #4]
 2035 01c0 1370     		strb	r3, [r2]
 720:../../../../../../Middlewares/Third_Party/LoRaWAN/Mac/region/RegionEU433.c **** 
 2036              		.loc 1 720 0
 2037 01c2 189B     		ldr	r3, [sp, #96]
 2038 01c4 1C70     		strb	r4, [r3]
 723:../../../../../../Middlewares/Third_Party/LoRaWAN/Mac/region/RegionEU433.c **** 
 2039              		.loc 1 723 0
 2040 01c6 0FB0     		add	sp, sp, #60
 2041              		@ sp needed
 2042              	.LVL166:
ARM GAS  C:\Users\EBANO_~1\AppData\Local\Temp\ccpYmjAB.s 			page 59


 2043              	.LVL167:
 2044              	.LVL168:
 2045 01c8 3CBC     		pop	{r2, r3, r4, r5}
 2046 01ca 9046     		mov	r8, r2
 2047 01cc 9946     		mov	r9, r3
 2048 01ce A246     		mov	r10, r4
 2049 01d0 AB46     		mov	fp, r5
 2050 01d2 F0BD     		pop	{r4, r5, r6, r7, pc}
 2051              	.LVL169:
 2052              	.L125:
 651:../../../../../../Middlewares/Third_Party/LoRaWAN/Mac/region/RegionEU433.c ****         }
 2053              		.loc 1 651 0
 2054 01d4 0621     		movs	r1, #6
 2055 01d6 8946     		mov	r9, r1
 653:../../../../../../Middlewares/Third_Party/LoRaWAN/Mac/region/RegionEU433.c ****                 ( linkAdrParams.ChMaskCtrl >= 7 ) )
 2056              		.loc 1 653 0
 2057 01d8 511E     		subs	r1, r2, #1
 2058 01da 0429     		cmp	r1, #4
 2059 01dc 00D8     		bhi	.LCB1946
 2060 01de 23E7     		b	.L121	@long jump
 2061              	.LCB1946:
 653:../../../../../../Middlewares/Third_Party/LoRaWAN/Mac/region/RegionEU433.c ****                 ( linkAdrParams.ChMaskCtrl >= 7 ) )
 2062              		.loc 1 653 0 is_stmt 0 discriminator 1
 2063 01e0 062A     		cmp	r2, #6
 2064 01e2 00D0     		beq	.LCB1948
 2065 01e4 20E7     		b	.L121	@long jump
 2066              	.LCB1948:
 2067              	.LVL170:
 2068              	.LBB77:
 665:../../../../../../Middlewares/Third_Party/LoRaWAN/Mac/region/RegionEU433.c ****                     {
 2069              		.loc 1 665 0 is_stmt 1
 2070 01e6 3968     		ldr	r1, [r7]
 2071 01e8 0022     		movs	r2, #0
 2072 01ea 0029     		cmp	r1, #0
 2073 01ec 02D0     		beq	.L146
 667:../../../../../../Middlewares/Third_Party/LoRaWAN/Mac/region/RegionEU433.c ****                     }
 2074              		.loc 1 667 0
 2075 01ee 0123     		movs	r3, #1
 2076 01f0 0132     		adds	r2, r2, #1
 2077 01f2 0343     		orrs	r3, r0
 2078              	.L146:
 2079              	.LVL171:
 665:../../../../../../Middlewares/Third_Party/LoRaWAN/Mac/region/RegionEU433.c ****                     {
 2080              		.loc 1 665 0
 2081 01f4 F968     		ldr	r1, [r7, #12]
 2082 01f6 0029     		cmp	r1, #0
 2083 01f8 02D0     		beq	.L147
 667:../../../../../../Middlewares/Third_Party/LoRaWAN/Mac/region/RegionEU433.c ****                     }
 2084              		.loc 1 667 0
 2085 01fa 0222     		movs	r2, #2
 2086 01fc 1343     		orrs	r3, r2
 2087 01fe 0122     		movs	r2, #1
 2088              	.L147:
 2089              	.LVL172:
 665:../../../../../../Middlewares/Third_Party/LoRaWAN/Mac/region/RegionEU433.c ****                     {
 2090              		.loc 1 665 0
 2091 0200 B969     		ldr	r1, [r7, #24]
ARM GAS  C:\Users\EBANO_~1\AppData\Local\Temp\ccpYmjAB.s 			page 60


 2092 0202 0029     		cmp	r1, #0
 2093 0204 02D0     		beq	.L148
 667:../../../../../../Middlewares/Third_Party/LoRaWAN/Mac/region/RegionEU433.c ****                     }
 2094              		.loc 1 667 0
 2095 0206 0422     		movs	r2, #4
 2096 0208 1343     		orrs	r3, r2
 2097 020a 0122     		movs	r2, #1
 2098              	.L148:
 2099              	.LVL173:
 665:../../../../../../Middlewares/Third_Party/LoRaWAN/Mac/region/RegionEU433.c ****                     {
 2100              		.loc 1 665 0
 2101 020c 796A     		ldr	r1, [r7, #36]
 2102 020e 0029     		cmp	r1, #0
 2103 0210 02D0     		beq	.L149
 667:../../../../../../Middlewares/Third_Party/LoRaWAN/Mac/region/RegionEU433.c ****                     }
 2104              		.loc 1 667 0
 2105 0212 0822     		movs	r2, #8
 2106 0214 1343     		orrs	r3, r2
 2107 0216 0122     		movs	r2, #1
 2108              	.L149:
 2109              	.LVL174:
 665:../../../../../../Middlewares/Third_Party/LoRaWAN/Mac/region/RegionEU433.c ****                     {
 2110              		.loc 1 665 0
 2111 0218 396B     		ldr	r1, [r7, #48]
 2112 021a 0029     		cmp	r1, #0
 2113 021c 02D0     		beq	.L150
 667:../../../../../../Middlewares/Third_Party/LoRaWAN/Mac/region/RegionEU433.c ****                     }
 2114              		.loc 1 667 0
 2115 021e 1022     		movs	r2, #16
 2116 0220 1343     		orrs	r3, r2
 2117 0222 0122     		movs	r2, #1
 2118              	.L150:
 2119              	.LVL175:
 665:../../../../../../Middlewares/Third_Party/LoRaWAN/Mac/region/RegionEU433.c ****                     {
 2120              		.loc 1 665 0
 2121 0224 F96B     		ldr	r1, [r7, #60]
 2122 0226 0029     		cmp	r1, #0
 2123 0228 02D0     		beq	.L151
 667:../../../../../../Middlewares/Third_Party/LoRaWAN/Mac/region/RegionEU433.c ****                     }
 2124              		.loc 1 667 0
 2125 022a 2022     		movs	r2, #32
 2126 022c 1343     		orrs	r3, r2
 2127 022e 0122     		movs	r2, #1
 2128              	.L151:
 2129              	.LVL176:
 665:../../../../../../Middlewares/Third_Party/LoRaWAN/Mac/region/RegionEU433.c ****                     {
 2130              		.loc 1 665 0
 2131 0230 B96C     		ldr	r1, [r7, #72]
 2132 0232 0029     		cmp	r1, #0
 2133 0234 02D0     		beq	.L152
 667:../../../../../../Middlewares/Third_Party/LoRaWAN/Mac/region/RegionEU433.c ****                     }
 2134              		.loc 1 667 0
 2135 0236 4022     		movs	r2, #64
 2136 0238 1343     		orrs	r3, r2
 2137 023a 0122     		movs	r2, #1
 2138              	.L152:
 2139              	.LVL177:
ARM GAS  C:\Users\EBANO_~1\AppData\Local\Temp\ccpYmjAB.s 			page 61


 665:../../../../../../Middlewares/Third_Party/LoRaWAN/Mac/region/RegionEU433.c ****                     {
 2140              		.loc 1 665 0
 2141 023c 796D     		ldr	r1, [r7, #84]
 2142 023e 0029     		cmp	r1, #0
 2143 0240 02D0     		beq	.L153
 667:../../../../../../Middlewares/Third_Party/LoRaWAN/Mac/region/RegionEU433.c ****                     }
 2144              		.loc 1 667 0
 2145 0242 8022     		movs	r2, #128
 2146 0244 1343     		orrs	r3, r2
 2147 0246 0122     		movs	r2, #1
 2148              	.L153:
 2149              	.LVL178:
 665:../../../../../../Middlewares/Third_Party/LoRaWAN/Mac/region/RegionEU433.c ****                     {
 2150              		.loc 1 665 0
 2151 0248 396E     		ldr	r1, [r7, #96]
 2152 024a 0029     		cmp	r1, #0
 2153 024c 03D0     		beq	.L154
 667:../../../../../../Middlewares/Third_Party/LoRaWAN/Mac/region/RegionEU433.c ****                     }
 2154              		.loc 1 667 0
 2155 024e 8022     		movs	r2, #128
 2156 0250 5200     		lsls	r2, r2, #1
 2157 0252 1343     		orrs	r3, r2
 2158 0254 FF3A     		subs	r2, r2, #255
 2159              	.L154:
 2160              	.LVL179:
 665:../../../../../../Middlewares/Third_Party/LoRaWAN/Mac/region/RegionEU433.c ****                     {
 2161              		.loc 1 665 0
 2162 0256 F96E     		ldr	r1, [r7, #108]
 2163 0258 0029     		cmp	r1, #0
 2164 025a 03D0     		beq	.L155
 667:../../../../../../Middlewares/Third_Party/LoRaWAN/Mac/region/RegionEU433.c ****                     }
 2165              		.loc 1 667 0
 2166 025c 8022     		movs	r2, #128
 2167 025e 9200     		lsls	r2, r2, #2
 2168 0260 1343     		orrs	r3, r2
 2169 0262 0122     		movs	r2, #1
 2170              	.L155:
 2171              	.LVL180:
 665:../../../../../../Middlewares/Third_Party/LoRaWAN/Mac/region/RegionEU433.c ****                     {
 2172              		.loc 1 665 0
 2173 0264 B96F     		ldr	r1, [r7, #120]
 2174 0266 0029     		cmp	r1, #0
 2175 0268 03D0     		beq	.L156
 667:../../../../../../Middlewares/Third_Party/LoRaWAN/Mac/region/RegionEU433.c ****                     }
 2176              		.loc 1 667 0
 2177 026a 8022     		movs	r2, #128
 2178 026c D200     		lsls	r2, r2, #3
 2179 026e 1343     		orrs	r3, r2
 2180 0270 0122     		movs	r2, #1
 2181              	.L156:
 2182              	.LVL181:
 665:../../../../../../Middlewares/Third_Party/LoRaWAN/Mac/region/RegionEU433.c ****                     {
 2183              		.loc 1 665 0
 2184 0272 8421     		movs	r1, #132
 2185 0274 7958     		ldr	r1, [r7, r1]
 2186 0276 0029     		cmp	r1, #0
 2187 0278 03D0     		beq	.L157
ARM GAS  C:\Users\EBANO_~1\AppData\Local\Temp\ccpYmjAB.s 			page 62


 667:../../../../../../Middlewares/Third_Party/LoRaWAN/Mac/region/RegionEU433.c ****                     }
 2188              		.loc 1 667 0
 2189 027a 8022     		movs	r2, #128
 2190 027c 1201     		lsls	r2, r2, #4
 2191 027e 1343     		orrs	r3, r2
 2192 0280 0122     		movs	r2, #1
 2193              	.L157:
 2194              	.LVL182:
 665:../../../../../../Middlewares/Third_Party/LoRaWAN/Mac/region/RegionEU433.c ****                     {
 2195              		.loc 1 665 0
 2196 0282 9021     		movs	r1, #144
 2197 0284 7958     		ldr	r1, [r7, r1]
 2198 0286 0029     		cmp	r1, #0
 2199 0288 03D0     		beq	.L158
 667:../../../../../../Middlewares/Third_Party/LoRaWAN/Mac/region/RegionEU433.c ****                     }
 2200              		.loc 1 667 0
 2201 028a 8022     		movs	r2, #128
 2202 028c 5201     		lsls	r2, r2, #5
 2203 028e 1343     		orrs	r3, r2
 2204 0290 0122     		movs	r2, #1
 2205              	.L158:
 2206              	.LVL183:
 665:../../../../../../Middlewares/Third_Party/LoRaWAN/Mac/region/RegionEU433.c ****                     {
 2207              		.loc 1 665 0
 2208 0292 9C21     		movs	r1, #156
 2209 0294 7958     		ldr	r1, [r7, r1]
 2210 0296 0029     		cmp	r1, #0
 2211 0298 26D1     		bne	.L275
 2212              	.LVL184:
 2213 029a A821     		movs	r1, #168
 2214 029c 7958     		ldr	r1, [r7, r1]
 2215 029e 0029     		cmp	r1, #0
 2216 02a0 0DD0     		beq	.L163
 2217              	.L160:
 667:../../../../../../Middlewares/Third_Party/LoRaWAN/Mac/region/RegionEU433.c ****                     }
 2218              		.loc 1 667 0
 2219 02a2 8022     		movs	r2, #128
 2220 02a4 D201     		lsls	r2, r2, #7
 2221 02a6 1343     		orrs	r3, r2
 2222              	.L273:
 2223              	.LVL185:
 665:../../../../../../Middlewares/Third_Party/LoRaWAN/Mac/region/RegionEU433.c ****                     {
 2224              		.loc 1 665 0
 2225 02a8 B422     		movs	r2, #180
 2226 02aa BA58     		ldr	r2, [r7, r2]
 2227 02ac 002A     		cmp	r2, #0
 2228 02ae 02D0     		beq	.L162
 2229              	.L161:
 667:../../../../../../Middlewares/Third_Party/LoRaWAN/Mac/region/RegionEU433.c ****                     }
 2230              		.loc 1 667 0
 2231 02b0 8022     		movs	r2, #128
 2232 02b2 1202     		lsls	r2, r2, #8
 2233 02b4 1343     		orrs	r3, r2
 2234              	.LVL186:
 2235              	.L162:
 2236 02b6 02AA     		add	r2, sp, #8
 2237 02b8 D380     		strh	r3, [r2, #6]
ARM GAS  C:\Users\EBANO_~1\AppData\Local\Temp\ccpYmjAB.s 			page 63


 665:../../../../../../Middlewares/Third_Party/LoRaWAN/Mac/region/RegionEU433.c ****                     {
 2238              		.loc 1 665 0
 2239 02ba C146     		mov	r9, r8
 2240 02bc B4E6     		b	.L121
 2241              	.LVL187:
 2242              	.L163:
 2243 02be B421     		movs	r1, #180
 2244 02c0 7958     		ldr	r1, [r7, r1]
 2245 02c2 0029     		cmp	r1, #0
 2246 02c4 F4D1     		bne	.L161
 2247              	.LVL188:
 2248 02c6 0721     		movs	r1, #7
 2249 02c8 8946     		mov	r9, r1
 2250 02ca 002A     		cmp	r2, #0
 2251 02cc 00D1     		bne	.LCB2166
 2252 02ce ABE6     		b	.L121	@long jump
 2253              	.LCB2166:
 2254 02d0 F1E7     		b	.L162
 2255              	.LVL189:
 2256              	.L274:
 2257              	.LBE77:
 711:../../../../../../Middlewares/Third_Party/LoRaWAN/Mac/region/RegionEU433.c ****         // Update the channels mask
 2258              		.loc 1 711 0
 2259 02d2 3800     		movs	r0, r7
 2260              	.LVL190:
 2261 02d4 0222     		movs	r2, #2
 2262 02d6 D030     		adds	r0, r0, #208
 2263 02d8 0021     		movs	r1, #0
 2264 02da FFF7FEFF 		bl	memset1
 2265              	.LVL191:
 713:../../../../../../Middlewares/Third_Party/LoRaWAN/Mac/region/RegionEU433.c ****     }
 2266              		.loc 1 713 0
 2267 02de 02AB     		add	r3, sp, #8
 2268 02e0 DA88     		ldrh	r2, [r3, #6]
 2269 02e2 D023     		movs	r3, #208
 2270 02e4 FA52     		strh	r2, [r7, r3]
 2271 02e6 62E7     		b	.L124
 2272              	.LVL192:
 2273              	.L275:
 2274              	.LBB78:
 667:../../../../../../Middlewares/Third_Party/LoRaWAN/Mac/region/RegionEU433.c ****                     }
 2275              		.loc 1 667 0
 2276 02e8 8022     		movs	r2, #128
 2277 02ea 9201     		lsls	r2, r2, #6
 2278 02ec 1343     		orrs	r3, r2
 2279              	.LVL193:
 665:../../../../../../Middlewares/Third_Party/LoRaWAN/Mac/region/RegionEU433.c ****                     {
 2280              		.loc 1 665 0
 2281 02ee A822     		movs	r2, #168
 2282 02f0 BA58     		ldr	r2, [r7, r2]
 2283 02f2 002A     		cmp	r2, #0
 2284 02f4 D5D1     		bne	.L160
 2285 02f6 D7E7     		b	.L273
 2286              	.L277:
 2287              		.align	2
 2288              	.L276:
 2289 02f8 00000000 		.word	NvmCtx
ARM GAS  C:\Users\EBANO_~1\AppData\Local\Temp\ccpYmjAB.s 			page 64


 2290              	.LBE78:
 2291              		.cfi_endproc
 2292              	.LFE54:
 2293              		.size	RegionEU433LinkAdrReq, .-RegionEU433LinkAdrReq
 2294              		.section	.text.RegionEU433RxParamSetupReq,"ax",%progbits
 2295              		.align	1
 2296              		.p2align 2,,3
 2297              		.global	RegionEU433RxParamSetupReq
 2298              		.syntax unified
 2299              		.code	16
 2300              		.thumb_func
 2301              		.fpu softvfp
 2302              		.type	RegionEU433RxParamSetupReq, %function
 2303              	RegionEU433RxParamSetupReq:
 2304              	.LFB55:
 726:../../../../../../Middlewares/Third_Party/LoRaWAN/Mac/region/RegionEU433.c ****     uint8_t status = 0x07;
 2305              		.loc 1 726 0
 2306              		.cfi_startproc
 2307              		@ args = 0, pretend = 0, frame = 8
 2308              		@ frame_needed = 0, uses_anonymous_args = 0
 2309              	.LVL194:
 2310 0000 70B5     		push	{r4, r5, r6, lr}
 2311              	.LCFI22:
 2312              		.cfi_def_cfa_offset 16
 2313              		.cfi_offset 4, -16
 2314              		.cfi_offset 5, -12
 2315              		.cfi_offset 6, -8
 2316              		.cfi_offset 14, -4
 2317              	.LBB79:
 2318              	.LBB80:
 111:../../../../../../Middlewares/Third_Party/LoRaWAN/Mac/region/RegionEU433.c ****     {
 2319              		.loc 1 111 0
 2320 0002 154B     		ldr	r3, .L288
 2321              	.LBE80:
 2322              	.LBE79:
 730:../../../../../../Middlewares/Third_Party/LoRaWAN/Mac/region/RegionEU433.c ****     {
 2323              		.loc 1 730 0
 2324 0004 4568     		ldr	r5, [r0, #4]
 2325              	.LVL195:
 2326              	.LBB84:
 2327              	.LBB81:
 111:../../../../../../Middlewares/Third_Party/LoRaWAN/Mac/region/RegionEU433.c ****     {
 2328              		.loc 1 111 0
 2329 0006 9B6A     		ldr	r3, [r3, #40]
 2330              	.LBE81:
 2331              	.LBE84:
 726:../../../../../../Middlewares/Third_Party/LoRaWAN/Mac/region/RegionEU433.c ****     uint8_t status = 0x07;
 2332              		.loc 1 726 0
 2333 0008 82B0     		sub	sp, sp, #8
 2334              	.LCFI23:
 2335              		.cfi_def_cfa_offset 24
 726:../../../../../../Middlewares/Third_Party/LoRaWAN/Mac/region/RegionEU433.c ****     uint8_t status = 0x07;
 2336              		.loc 1 726 0
 2337 000a 0400     		movs	r4, r0
 2338              	.LBB85:
 2339              	.LBB82:
 111:../../../../../../Middlewares/Third_Party/LoRaWAN/Mac/region/RegionEU433.c ****     {
ARM GAS  C:\Users\EBANO_~1\AppData\Local\Temp\ccpYmjAB.s 			page 65


 2340              		.loc 1 111 0
 2341 000c 2800     		movs	r0, r5
 2342              	.LVL196:
 2343 000e 0193     		str	r3, [sp, #4]
 2344 0010 9847     		blx	r3
 2345              	.LVL197:
 2346 0012 0028     		cmp	r0, #0
 2347 0014 05D0     		beq	.L283
 116:../../../../../../Middlewares/Third_Party/LoRaWAN/Mac/region/RegionEU433.c ****     {
 2348              		.loc 1 116 0
 2349 0016 114B     		ldr	r3, .L288+4
 2350 0018 9C46     		mov	ip, r3
 2351 001a 114B     		ldr	r3, .L288+8
 2352 001c 6544     		add	r5, r5, ip
 2353              	.LVL198:
 2354 001e 9D42     		cmp	r5, r3
 2355 0020 17D9     		bls	.L287
 2356              	.LVL199:
 2357              	.L283:
 2358 0022 0425     		movs	r5, #4
 2359              	.LBE82:
 2360              	.LBE85:
 732:../../../../../../Middlewares/Third_Party/LoRaWAN/Mac/region/RegionEU433.c ****     }
 2361              		.loc 1 732 0
 2362 0024 0626     		movs	r6, #6
 2363              	.L279:
 2364              	.LVL200:
 736:../../../../../../Middlewares/Third_Party/LoRaWAN/Mac/region/RegionEU433.c ****     {
 2365              		.loc 1 736 0
 2366 0026 0020     		movs	r0, #0
 2367 0028 0722     		movs	r2, #7
 2368 002a 2056     		ldrsb	r0, [r4, r0]
 2369 002c 0021     		movs	r1, #0
 2370 002e FFF7FEFF 		bl	RegionCommonValueInRange
 2371              	.LVL201:
 2372 0032 0028     		cmp	r0, #0
 2373 0034 00D0     		beq	.L280
 2374 0036 3500     		movs	r5, r6
 2375              	.L280:
 2376              	.LVL202:
 742:../../../../../../Middlewares/Third_Party/LoRaWAN/Mac/region/RegionEU433.c ****     {
 2377              		.loc 1 742 0
 2378 0038 0120     		movs	r0, #1
 2379 003a 0522     		movs	r2, #5
 2380 003c 2056     		ldrsb	r0, [r4, r0]
 2381 003e 0021     		movs	r1, #0
 2382 0040 FFF7FEFF 		bl	RegionCommonValueInRange
 2383              	.LVL203:
 2384 0044 0028     		cmp	r0, #0
 2385 0046 01D1     		bne	.L281
 744:../../../../../../Middlewares/Third_Party/LoRaWAN/Mac/region/RegionEU433.c ****     }
 2386              		.loc 1 744 0
 2387 0048 FB23     		movs	r3, #251
 2388 004a 1D40     		ands	r5, r3
 2389              	.LVL204:
 2390              	.L281:
 748:../../../../../../Middlewares/Third_Party/LoRaWAN/Mac/region/RegionEU433.c **** 
ARM GAS  C:\Users\EBANO_~1\AppData\Local\Temp\ccpYmjAB.s 			page 66


 2391              		.loc 1 748 0
 2392 004c 2800     		movs	r0, r5
 2393 004e 02B0     		add	sp, sp, #8
 2394              		@ sp needed
 2395              	.LVL205:
 2396              	.LVL206:
 2397 0050 70BD     		pop	{r4, r5, r6, pc}
 2398              	.LVL207:
 2399              	.L287:
 2400              	.LBB86:
 2401              	.LBB83:
 116:../../../../../../Middlewares/Third_Party/LoRaWAN/Mac/region/RegionEU433.c ****     {
 2402              		.loc 1 116 0
 2403 0052 0525     		movs	r5, #5
 2404              	.LVL208:
 2405              	.LBE83:
 2406              	.LBE86:
 727:../../../../../../Middlewares/Third_Party/LoRaWAN/Mac/region/RegionEU433.c **** 
 2407              		.loc 1 727 0
 2408 0054 0726     		movs	r6, #7
 2409 0056 E6E7     		b	.L279
 2410              	.L289:
 2411              		.align	2
 2412              	.L288:
 2413 0058 00000000 		.word	Radio
 2414 005c 28462EE6 		.word	-433175000
 2415 0060 50BC1600 		.word	1490000
 2416              		.cfi_endproc
 2417              	.LFE55:
 2418              		.size	RegionEU433RxParamSetupReq, .-RegionEU433RxParamSetupReq
 2419              		.section	.text.RegionEU433NewChannelReq,"ax",%progbits
 2420              		.align	1
 2421              		.p2align 2,,3
 2422              		.global	RegionEU433NewChannelReq
 2423              		.syntax unified
 2424              		.code	16
 2425              		.thumb_func
 2426              		.fpu softvfp
 2427              		.type	RegionEU433NewChannelReq, %function
 2428              	RegionEU433NewChannelReq:
 2429              	.LFB56:
 751:../../../../../../Middlewares/Third_Party/LoRaWAN/Mac/region/RegionEU433.c ****     uint8_t status = 0x03;
 2430              		.loc 1 751 0
 2431              		.cfi_startproc
 2432              		@ args = 0, pretend = 0, frame = 8
 2433              		@ frame_needed = 0, uses_anonymous_args = 0
 2434              	.LVL209:
 2435 0000 F0B5     		push	{r4, r5, r6, r7, lr}
 2436              	.LCFI24:
 2437              		.cfi_def_cfa_offset 20
 2438              		.cfi_offset 4, -20
 2439              		.cfi_offset 5, -16
 2440              		.cfi_offset 6, -12
 2441              		.cfi_offset 7, -8
 2442              		.cfi_offset 14, -4
 2443 0002 C646     		mov	lr, r8
 2444 0004 00B5     		push	{lr}
ARM GAS  C:\Users\EBANO_~1\AppData\Local\Temp\ccpYmjAB.s 			page 67


 2445              	.LCFI25:
 2446              		.cfi_def_cfa_offset 24
 2447              		.cfi_offset 8, -24
 756:../../../../../../Middlewares/Third_Party/LoRaWAN/Mac/region/RegionEU433.c ****     {
 2448              		.loc 1 756 0
 2449 0006 0468     		ldr	r4, [r0]
 751:../../../../../../Middlewares/Third_Party/LoRaWAN/Mac/region/RegionEU433.c ****     uint8_t status = 0x03;
 2450              		.loc 1 751 0
 2451 0008 82B0     		sub	sp, sp, #8
 2452              	.LCFI26:
 2453              		.cfi_def_cfa_offset 32
 756:../../../../../../Middlewares/Third_Party/LoRaWAN/Mac/region/RegionEU433.c ****     {
 2454              		.loc 1 756 0
 2455 000a 2368     		ldr	r3, [r4]
 2456 000c 0579     		ldrb	r5, [r0, #4]
 2457 000e 002B     		cmp	r3, #0
 2458 0010 06D1     		bne	.L291
 2459              	.LVL210:
 2460              	.LBB93:
 2461              	.LBB94:
 971:../../../../../../Middlewares/Third_Party/LoRaWAN/Mac/region/RegionEU433.c ****     {
 2462              		.loc 1 971 0
 2463 0012 022D     		cmp	r5, #2
 2464 0014 4AD8     		bhi	.L310
 2465              	.LVL211:
 2466              	.L292:
 2467              	.LBE94:
 2468              	.LBE93:
 763:../../../../../../Middlewares/Third_Party/LoRaWAN/Mac/region/RegionEU433.c ****         }
 2469              		.loc 1 763 0
 2470 0016 0020     		movs	r0, #0
 2471              	.L305:
 801:../../../../../../Middlewares/Third_Party/LoRaWAN/Mac/region/RegionEU433.c **** 
 2472              		.loc 1 801 0
 2473 0018 02B0     		add	sp, sp, #8
 2474              		@ sp needed
 2475 001a 04BC     		pop	{r2}
 2476 001c 9046     		mov	r8, r2
 2477 001e F0BD     		pop	{r4, r5, r6, r7, pc}
 2478              	.LVL212:
 2479              	.L291:
 2480              	.LBB96:
 2481              	.LBB97:
 914:../../../../../../Middlewares/Third_Party/LoRaWAN/Mac/region/RegionEU433.c ****     {
 2482              		.loc 1 914 0
 2483 0020 EB1E     		subs	r3, r5, #3
 2484 0022 0C2B     		cmp	r3, #12
 2485 0024 F7D8     		bhi	.L292
 925:../../../../../../Middlewares/Third_Party/LoRaWAN/Mac/region/RegionEU433.c ****     {
 2486              		.loc 1 925 0
 2487 0026 207A     		ldrb	r0, [r4, #8]
 2488              	.LVL213:
 2489 0028 0722     		movs	r2, #7
 2490 002a 0007     		lsls	r0, r0, #28
 2491 002c 0021     		movs	r1, #0
 2492 002e 0017     		asrs	r0, r0, #28
 2493 0030 FFF7FEFF 		bl	RegionCommonValueInRange
ARM GAS  C:\Users\EBANO_~1\AppData\Local\Temp\ccpYmjAB.s 			page 68


 2494              	.LVL214:
 2495 0034 0600     		movs	r6, r0
 2496              	.LVL215:
 929:../../../../../../Middlewares/Third_Party/LoRaWAN/Mac/region/RegionEU433.c ****     {
 2497              		.loc 1 929 0
 2498 0036 0820     		movs	r0, #8
 2499 0038 2056     		ldrsb	r0, [r4, r0]
 2500 003a 0722     		movs	r2, #7
 2501 003c 0011     		asrs	r0, r0, #4
 2502 003e 0021     		movs	r1, #0
 2503 0040 FFF7FEFF 		bl	RegionCommonValueInRange
 2504              	.LVL216:
 931:../../../../../../Middlewares/Third_Party/LoRaWAN/Mac/region/RegionEU433.c ****     }
 2505              		.loc 1 931 0
 2506 0044 0127     		movs	r7, #1
 929:../../../../../../Middlewares/Third_Party/LoRaWAN/Mac/region/RegionEU433.c ****     {
 2507              		.loc 1 929 0
 2508 0046 0028     		cmp	r0, #0
 2509 0048 02D0     		beq	.L294
 925:../../../../../../Middlewares/Third_Party/LoRaWAN/Mac/region/RegionEU433.c ****     {
 2510              		.loc 1 925 0
 2511 004a 7742     		rsbs	r7, r6, #0
 2512 004c 7741     		adcs	r7, r7, r6
 2513              	.LVL217:
 2514 004e FFB2     		uxtb	r7, r7
 2515              	.L294:
 2516              	.LVL218:
 2517 0050 294B     		ldr	r3, .L311
 2518 0052 2668     		ldr	r6, [r4]
 2519 0054 9B6A     		ldr	r3, [r3, #40]
 2520              	.LBB98:
 2521              	.LBB99:
 111:../../../../../../Middlewares/Third_Party/LoRaWAN/Mac/region/RegionEU433.c ****     {
 2522              		.loc 1 111 0
 2523 0056 3000     		movs	r0, r6
 2524 0058 0193     		str	r3, [sp, #4]
 2525              	.LBE99:
 2526              	.LBE98:
 933:../../../../../../Middlewares/Third_Party/LoRaWAN/Mac/region/RegionEU433.c ****     {
 2527              		.loc 1 933 0
 2528 005a 237A     		ldrb	r3, [r4, #8]
 2529 005c 1A07     		lsls	r2, r3, #28
 2530 005e 5BB2     		sxtb	r3, r3
 2531 0060 1217     		asrs	r2, r2, #28
 2532 0062 1B11     		asrs	r3, r3, #4
 2533 0064 9A42     		cmp	r2, r3
 2534 0066 39DC     		bgt	.L295
 2535              	.LVL219:
 2536              	.LBB102:
 2537              	.LBB100:
 111:../../../../../../Middlewares/Third_Party/LoRaWAN/Mac/region/RegionEU433.c ****     {
 2538              		.loc 1 111 0
 2539 0068 019B     		ldr	r3, [sp, #4]
 2540 006a 9847     		blx	r3
 2541              	.LVL220:
 2542 006c 0028     		cmp	r0, #0
 2543 006e 31D0     		beq	.L296
ARM GAS  C:\Users\EBANO_~1\AppData\Local\Temp\ccpYmjAB.s 			page 69


 116:../../../../../../Middlewares/Third_Party/LoRaWAN/Mac/region/RegionEU433.c ****     {
 2544              		.loc 1 116 0
 2545 0070 224B     		ldr	r3, .L311+4
 2546 0072 9C46     		mov	ip, r3
 2547 0074 224B     		ldr	r3, .L311+8
 2548 0076 6644     		add	r6, r6, ip
 2549 0078 9E42     		cmp	r6, r3
 2550 007a 2BD8     		bhi	.L296
 2551              	.LBE100:
 2552              	.LBE102:
 948:../../../../../../Middlewares/Third_Party/LoRaWAN/Mac/region/RegionEU433.c ****     {
 2553              		.loc 1 948 0
 2554 007c 002F     		cmp	r7, #0
 2555 007e 38D1     		bne	.L300
 961:../../../../../../Middlewares/Third_Party/LoRaWAN/Mac/region/RegionEU433.c ****     NvmCtx.Channels[id].Band = 0;
 2556              		.loc 1 961 0
 2557 0080 204B     		ldr	r3, .L311+12
 2558 0082 6E00     		lsls	r6, r5, #1
 2559 0084 9846     		mov	r8, r3
 2560 0086 7619     		adds	r6, r6, r5
 2561 0088 B600     		lsls	r6, r6, #2
 2562 008a 4644     		add	r6, r6, r8
 2563 008c 0C22     		movs	r2, #12
 2564 008e 2100     		movs	r1, r4
 2565 0090 3000     		movs	r0, r6
 2566 0092 FFF7FEFF 		bl	memcpy1
 2567              	.LVL221:
 963:../../../../../../Middlewares/Third_Party/LoRaWAN/Mac/region/RegionEU433.c ****     return LORAMAC_STATUS_OK;
 2568              		.loc 1 963 0
 2569 0096 0122     		movs	r2, #1
 2570 0098 D021     		movs	r1, #208
 2571 009a 4346     		mov	r3, r8
 2572 009c AA40     		lsls	r2, r2, r5
 962:../../../../../../Middlewares/Third_Party/LoRaWAN/Mac/region/RegionEU433.c ****     NvmCtx.ChannelsMask[0] |= ( 1 << id );
 2573              		.loc 1 962 0
 2574 009e 7772     		strb	r7, [r6, #9]
 963:../../../../../../Middlewares/Third_Party/LoRaWAN/Mac/region/RegionEU433.c ****     return LORAMAC_STATUS_OK;
 2575              		.loc 1 963 0
 2576 00a0 5B5A     		ldrh	r3, [r3, r1]
 2577              	.LBE97:
 2578              	.LBE96:
 752:../../../../../../Middlewares/Third_Party/LoRaWAN/Mac/region/RegionEU433.c ****     ChannelAddParams_t channelAdd;
 2579              		.loc 1 752 0
 2580 00a2 0320     		movs	r0, #3
 2581              	.LBB107:
 2582              	.LBB104:
 963:../../../../../../Middlewares/Third_Party/LoRaWAN/Mac/region/RegionEU433.c ****     return LORAMAC_STATUS_OK;
 2583              		.loc 1 963 0
 2584 00a4 1343     		orrs	r3, r2
 2585 00a6 4246     		mov	r2, r8
 2586 00a8 5352     		strh	r3, [r2, r1]
 2587              	.LVL222:
 2588              	.LBE104:
 2589              	.LBE107:
 800:../../../../../../Middlewares/Third_Party/LoRaWAN/Mac/region/RegionEU433.c **** }
 2590              		.loc 1 800 0
 2591 00aa B5E7     		b	.L305
ARM GAS  C:\Users\EBANO_~1\AppData\Local\Temp\ccpYmjAB.s 			page 70


 2592              	.LVL223:
 2593              	.L310:
 2594              	.LBB108:
 2595              	.LBB95:
 977:../../../../../../Middlewares/Third_Party/LoRaWAN/Mac/region/RegionEU433.c **** 
 2596              		.loc 1 977 0
 2597 00ac 6800     		lsls	r0, r5, #1
 2598              	.LVL224:
 2599 00ae 154C     		ldr	r4, .L311+12
 2600 00b0 4019     		adds	r0, r0, r5
 2601 00b2 8000     		lsls	r0, r0, #2
 2602 00b4 0C22     		movs	r2, #12
 2603 00b6 0021     		movs	r1, #0
 2604 00b8 2018     		adds	r0, r4, r0
 2605 00ba FFF7FEFF 		bl	memset
 2606              	.LVL225:
 2607              		.loc 1 979 0
 2608 00be 2000     		movs	r0, r4
 2609 00c0 1022     		movs	r2, #16
 2610 00c2 D030     		adds	r0, r0, #208
 2611 00c4 2900     		movs	r1, r5
 2612 00c6 FFF7FEFF 		bl	RegionCommonChanDisable
 2613              	.LVL226:
 2614 00ca 0300     		movs	r3, r0
 2615              	.LVL227:
 2616              	.LBE95:
 2617              	.LBE108:
 752:../../../../../../Middlewares/Third_Party/LoRaWAN/Mac/region/RegionEU433.c ****     ChannelAddParams_t channelAdd;
 2618              		.loc 1 752 0
 2619 00cc 0320     		movs	r0, #3
 761:../../../../../../Middlewares/Third_Party/LoRaWAN/Mac/region/RegionEU433.c ****         {
 2620              		.loc 1 761 0
 2621 00ce 002B     		cmp	r3, #0
 2622 00d0 A2D1     		bne	.L305
 2623 00d2 A0E7     		b	.L292
 2624              	.LVL228:
 2625              	.L296:
 2626              	.LBB109:
 2627              	.LBB105:
 948:../../../../../../Middlewares/Third_Party/LoRaWAN/Mac/region/RegionEU433.c ****     {
 2628              		.loc 1 948 0
 2629 00d4 002F     		cmp	r7, #0
 2630 00d6 9ED1     		bne	.L292
 2631              	.LBE105:
 2632              	.LBE109:
 779:../../../../../../Middlewares/Third_Party/LoRaWAN/Mac/region/RegionEU433.c ****                 break;
 2633              		.loc 1 779 0
 2634 00d8 0220     		movs	r0, #2
 2635 00da 9DE7     		b	.L305
 2636              	.LVL229:
 2637              	.L295:
 2638              	.LBB110:
 2639              	.LBB106:
 2640              	.LBB103:
 2641              	.LBB101:
 111:../../../../../../Middlewares/Third_Party/LoRaWAN/Mac/region/RegionEU433.c ****     {
 2642              		.loc 1 111 0
ARM GAS  C:\Users\EBANO_~1\AppData\Local\Temp\ccpYmjAB.s 			page 71


 2643 00dc 019B     		ldr	r3, [sp, #4]
 2644 00de 9847     		blx	r3
 2645              	.LVL230:
 2646 00e0 0028     		cmp	r0, #0
 2647 00e2 98D0     		beq	.L292
 116:../../../../../../Middlewares/Third_Party/LoRaWAN/Mac/region/RegionEU433.c ****     {
 2648              		.loc 1 116 0
 2649 00e4 054B     		ldr	r3, .L311+4
 2650 00e6 9C46     		mov	ip, r3
 2651 00e8 054B     		ldr	r3, .L311+8
 2652 00ea 6644     		add	r6, r6, ip
 2653 00ec 9E42     		cmp	r6, r3
 2654 00ee 00D9     		bls	.LCB2585
 2655 00f0 91E7     		b	.L292	@long jump
 2656              	.LCB2585:
 2657              	.LVL231:
 2658              	.L300:
 2659              	.LBE101:
 2660              	.LBE103:
 2661              	.LBE106:
 2662              	.LBE110:
 784:../../../../../../Middlewares/Third_Party/LoRaWAN/Mac/region/RegionEU433.c ****                 break;
 2663              		.loc 1 784 0
 2664 00f2 0120     		movs	r0, #1
 2665 00f4 90E7     		b	.L305
 2666              	.L312:
 2667 00f6 C046     		.align	2
 2668              	.L311:
 2669 00f8 00000000 		.word	Radio
 2670 00fc 28462EE6 		.word	-433175000
 2671 0100 50BC1600 		.word	1490000
 2672 0104 00000000 		.word	NvmCtx
 2673              		.cfi_endproc
 2674              	.LFE56:
 2675              		.size	RegionEU433NewChannelReq, .-RegionEU433NewChannelReq
 2676              		.section	.text.RegionEU433TxParamSetupReq,"ax",%progbits
 2677              		.align	1
 2678              		.p2align 2,,3
 2679              		.global	RegionEU433TxParamSetupReq
 2680              		.syntax unified
 2681              		.code	16
 2682              		.thumb_func
 2683              		.fpu softvfp
 2684              		.type	RegionEU433TxParamSetupReq, %function
