ARM GAS  C:\Users\EBANO_~1\AppData\Local\Temp\ccOSDu2a.s 			page 1


   1              		.cpu cortex-m0plus
   2              		.eabi_attribute 20, 1
   3              		.eabi_attribute 21, 1
   4              		.eabi_attribute 23, 3
   5              		.eabi_attribute 24, 1
   6              		.eabi_attribute 25, 1
   7              		.eabi_attribute 26, 1
   8              		.eabi_attribute 30, 2
   9              		.eabi_attribute 34, 0
  10              		.eabi_attribute 18, 4
  11              		.file	"Region.c"
  12              		.text
  13              	.Ltext0:
  14              		.cfi_sections	.debug_frame
  15              		.section	.text.RegionIsActive,"ax",%progbits
  16              		.align	1
  17              		.p2align 2,,3
  18              		.global	RegionIsActive
  19              		.syntax unified
  20              		.code	16
  21              		.thumb_func
  22              		.fpu softvfp
  23              		.type	RegionIsActive, %function
  24              	RegionIsActive:
  25              	.LFB39:
  26              		.file 1 "../../../../../../Middlewares/Third_Party/LoRaWAN/Mac/region/Region.c"
   1:../../../../../../Middlewares/Third_Party/LoRaWAN/Mac/region/Region.c **** /*!
   2:../../../../../../Middlewares/Third_Party/LoRaWAN/Mac/region/Region.c ****  * \file      Region.c
   3:../../../../../../Middlewares/Third_Party/LoRaWAN/Mac/region/Region.c ****  *
   4:../../../../../../Middlewares/Third_Party/LoRaWAN/Mac/region/Region.c ****  * \brief     Region implementation.
   5:../../../../../../Middlewares/Third_Party/LoRaWAN/Mac/region/Region.c ****  *
   6:../../../../../../Middlewares/Third_Party/LoRaWAN/Mac/region/Region.c ****  * \copyright Revised BSD License, see section \ref LICENSE.
   7:../../../../../../Middlewares/Third_Party/LoRaWAN/Mac/region/Region.c ****  *
   8:../../../../../../Middlewares/Third_Party/LoRaWAN/Mac/region/Region.c ****  * \code
   9:../../../../../../Middlewares/Third_Party/LoRaWAN/Mac/region/Region.c ****  *                ______                              _
  10:../../../../../../Middlewares/Third_Party/LoRaWAN/Mac/region/Region.c ****  *               / _____)             _              | |
  11:../../../../../../Middlewares/Third_Party/LoRaWAN/Mac/region/Region.c ****  *              ( (____  _____ ____ _| |_ _____  ____| |__
  12:../../../../../../Middlewares/Third_Party/LoRaWAN/Mac/region/Region.c ****  *               \____ \| ___ |    (_   _) ___ |/ ___)  _ \
  13:../../../../../../Middlewares/Third_Party/LoRaWAN/Mac/region/Region.c ****  *               _____) ) ____| | | || |_| ____( (___| | | |
  14:../../../../../../Middlewares/Third_Party/LoRaWAN/Mac/region/Region.c ****  *              (______/|_____)_|_|_| \__)_____)\____)_| |_|
  15:../../../../../../Middlewares/Third_Party/LoRaWAN/Mac/region/Region.c ****  *              (C)2013-2017 Semtech
  16:../../../../../../Middlewares/Third_Party/LoRaWAN/Mac/region/Region.c ****  *
  17:../../../../../../Middlewares/Third_Party/LoRaWAN/Mac/region/Region.c ****  *               ___ _____ _   ___ _  _____ ___  ___  ___ ___
  18:../../../../../../Middlewares/Third_Party/LoRaWAN/Mac/region/Region.c ****  *              / __|_   _/_\ / __| |/ / __/ _ \| _ \/ __| __|
  19:../../../../../../Middlewares/Third_Party/LoRaWAN/Mac/region/Region.c ****  *              \__ \ | |/ _ \ (__| ' <| _| (_) |   / (__| _|
  20:../../../../../../Middlewares/Third_Party/LoRaWAN/Mac/region/Region.c ****  *              |___/ |_/_/ \_\___|_|\_\_| \___/|_|_\\___|___|
  21:../../../../../../Middlewares/Third_Party/LoRaWAN/Mac/region/Region.c ****  *              embedded.connectivity.solutions===============
  22:../../../../../../Middlewares/Third_Party/LoRaWAN/Mac/region/Region.c ****  *
  23:../../../../../../Middlewares/Third_Party/LoRaWAN/Mac/region/Region.c ****  * \endcode
  24:../../../../../../Middlewares/Third_Party/LoRaWAN/Mac/region/Region.c ****  *
  25:../../../../../../Middlewares/Third_Party/LoRaWAN/Mac/region/Region.c ****  * \author    Miguel Luis ( Semtech )
  26:../../../../../../Middlewares/Third_Party/LoRaWAN/Mac/region/Region.c ****  *
  27:../../../../../../Middlewares/Third_Party/LoRaWAN/Mac/region/Region.c ****  * \author    Gregory Cristian ( Semtech )
  28:../../../../../../Middlewares/Third_Party/LoRaWAN/Mac/region/Region.c ****  *
  29:../../../../../../Middlewares/Third_Party/LoRaWAN/Mac/region/Region.c ****  * \author    Daniel Jaeckle ( STACKFORCE )
  30:../../../../../../Middlewares/Third_Party/LoRaWAN/Mac/region/Region.c ****  */
  31:../../../../../../Middlewares/Third_Party/LoRaWAN/Mac/region/Region.c **** #include "LoRaMac.h"
ARM GAS  C:\Users\EBANO_~1\AppData\Local\Temp\ccOSDu2a.s 			page 2


  32:../../../../../../Middlewares/Third_Party/LoRaWAN/Mac/region/Region.c **** 
  33:../../../../../../Middlewares/Third_Party/LoRaWAN/Mac/region/Region.c **** // Setup regions
  34:../../../../../../Middlewares/Third_Party/LoRaWAN/Mac/region/Region.c **** #ifdef REGION_AS923
  35:../../../../../../Middlewares/Third_Party/LoRaWAN/Mac/region/Region.c **** #include "RegionAS923.h"
  36:../../../../../../Middlewares/Third_Party/LoRaWAN/Mac/region/Region.c **** #define AS923_CASE                                 case LORAMAC_REGION_AS923:
  37:../../../../../../Middlewares/Third_Party/LoRaWAN/Mac/region/Region.c **** #define AS923_IS_ACTIVE( )                         AS923_CASE { return true; }
  38:../../../../../../Middlewares/Third_Party/LoRaWAN/Mac/region/Region.c **** #define AS923_GET_PHY_PARAM( )                     AS923_CASE { return RegionAS923GetPhyParam( getP
  39:../../../../../../Middlewares/Third_Party/LoRaWAN/Mac/region/Region.c **** #define AS923_SET_BAND_TX_DONE( )                  AS923_CASE { RegionAS923SetBandTxDone( txDone );
  40:../../../../../../Middlewares/Third_Party/LoRaWAN/Mac/region/Region.c **** #define AS923_INIT_DEFAULTS( )                     AS923_CASE { RegionAS923InitDefaults( params ); 
  41:../../../../../../Middlewares/Third_Party/LoRaWAN/Mac/region/Region.c **** #define AS923_GET_NVM_CTX( )                       AS923_CASE { return RegionAS923GetNvmCtx( params
  42:../../../../../../Middlewares/Third_Party/LoRaWAN/Mac/region/Region.c **** #define AS923_VERIFY( )                            AS923_CASE { return RegionAS923Verify( verify, p
  43:../../../../../../Middlewares/Third_Party/LoRaWAN/Mac/region/Region.c **** #define AS923_APPLY_CF_LIST( )                     AS923_CASE { RegionAS923ApplyCFList( applyCFList
  44:../../../../../../Middlewares/Third_Party/LoRaWAN/Mac/region/Region.c **** #define AS923_CHAN_MASK_SET( )                     AS923_CASE { return RegionAS923ChanMaskSet( chan
  45:../../../../../../Middlewares/Third_Party/LoRaWAN/Mac/region/Region.c **** #define AS923_COMPUTE_RX_WINDOW_PARAMETERS( )      AS923_CASE { RegionAS923ComputeRxWindowParameter
  46:../../../../../../Middlewares/Third_Party/LoRaWAN/Mac/region/Region.c **** #define AS923_RX_CONFIG( )                         AS923_CASE { return RegionAS923RxConfig( rxConfi
  47:../../../../../../Middlewares/Third_Party/LoRaWAN/Mac/region/Region.c **** #define AS923_TX_CONFIG( )                         AS923_CASE { return RegionAS923TxConfig( txConfi
  48:../../../../../../Middlewares/Third_Party/LoRaWAN/Mac/region/Region.c **** #define AS923_LINK_ADR_REQ( )                      AS923_CASE { return RegionAS923LinkAdrReq( linkA
  49:../../../../../../Middlewares/Third_Party/LoRaWAN/Mac/region/Region.c **** #define AS923_RX_PARAM_SETUP_REQ( )                AS923_CASE { return RegionAS923RxParamSetupReq( 
  50:../../../../../../Middlewares/Third_Party/LoRaWAN/Mac/region/Region.c **** #define AS923_NEW_CHANNEL_REQ( )                   AS923_CASE { return RegionAS923NewChannelReq( ne
  51:../../../../../../Middlewares/Third_Party/LoRaWAN/Mac/region/Region.c **** #define AS923_TX_PARAM_SETUP_REQ( )                AS923_CASE { return RegionAS923TxParamSetupReq( 
  52:../../../../../../Middlewares/Third_Party/LoRaWAN/Mac/region/Region.c **** #define AS923_DL_CHANNEL_REQ( )                    AS923_CASE { return RegionAS923DlChannelReq( dlC
  53:../../../../../../Middlewares/Third_Party/LoRaWAN/Mac/region/Region.c **** #define AS923_ALTERNATE_DR( )                      AS923_CASE { return RegionAS923AlternateDr( curr
  54:../../../../../../Middlewares/Third_Party/LoRaWAN/Mac/region/Region.c **** #define AS923_CALC_BACKOFF( )                      AS923_CASE { RegionAS923CalcBackOff( calcBackOff
  55:../../../../../../Middlewares/Third_Party/LoRaWAN/Mac/region/Region.c **** #define AS923_NEXT_CHANNEL( )                      AS923_CASE { return RegionAS923NextChannel( next
  56:../../../../../../Middlewares/Third_Party/LoRaWAN/Mac/region/Region.c **** #define AS923_CHANNEL_ADD( )                       AS923_CASE { return RegionAS923ChannelAdd( chann
  57:../../../../../../Middlewares/Third_Party/LoRaWAN/Mac/region/Region.c **** #define AS923_CHANNEL_REMOVE( )                    AS923_CASE { return RegionAS923ChannelsRemove( c
  58:../../../../../../Middlewares/Third_Party/LoRaWAN/Mac/region/Region.c **** #define AS923_SET_CONTINUOUS_WAVE( )               AS923_CASE { RegionAS923SetContinuousWave( conti
  59:../../../../../../Middlewares/Third_Party/LoRaWAN/Mac/region/Region.c **** #define AS923_APPLY_DR_OFFSET( )                   AS923_CASE { return RegionAS923ApplyDrOffset( do
  60:../../../../../../Middlewares/Third_Party/LoRaWAN/Mac/region/Region.c **** #define AS923_RX_BEACON_SETUP( )                   AS923_CASE { RegionAS923RxBeaconSetup( rxBeaconS
  61:../../../../../../Middlewares/Third_Party/LoRaWAN/Mac/region/Region.c **** #else
  62:../../../../../../Middlewares/Third_Party/LoRaWAN/Mac/region/Region.c **** #define AS923_IS_ACTIVE( )
  63:../../../../../../Middlewares/Third_Party/LoRaWAN/Mac/region/Region.c **** #define AS923_GET_PHY_PARAM( )
  64:../../../../../../Middlewares/Third_Party/LoRaWAN/Mac/region/Region.c **** #define AS923_SET_BAND_TX_DONE( )
  65:../../../../../../Middlewares/Third_Party/LoRaWAN/Mac/region/Region.c **** #define AS923_INIT_DEFAULTS( )
  66:../../../../../../Middlewares/Third_Party/LoRaWAN/Mac/region/Region.c **** #define AS923_GET_NVM_CTX( )
  67:../../../../../../Middlewares/Third_Party/LoRaWAN/Mac/region/Region.c **** #define AS923_VERIFY( )
  68:../../../../../../Middlewares/Third_Party/LoRaWAN/Mac/region/Region.c **** #define AS923_APPLY_CF_LIST( )
  69:../../../../../../Middlewares/Third_Party/LoRaWAN/Mac/region/Region.c **** #define AS923_CHAN_MASK_SET( )
  70:../../../../../../Middlewares/Third_Party/LoRaWAN/Mac/region/Region.c **** #define AS923_COMPUTE_RX_WINDOW_PARAMETERS( )
  71:../../../../../../Middlewares/Third_Party/LoRaWAN/Mac/region/Region.c **** #define AS923_RX_CONFIG( )
  72:../../../../../../Middlewares/Third_Party/LoRaWAN/Mac/region/Region.c **** #define AS923_TX_CONFIG( )
  73:../../../../../../Middlewares/Third_Party/LoRaWAN/Mac/region/Region.c **** #define AS923_LINK_ADR_REQ( )
  74:../../../../../../Middlewares/Third_Party/LoRaWAN/Mac/region/Region.c **** #define AS923_RX_PARAM_SETUP_REQ( )
  75:../../../../../../Middlewares/Third_Party/LoRaWAN/Mac/region/Region.c **** #define AS923_NEW_CHANNEL_REQ( )
  76:../../../../../../Middlewares/Third_Party/LoRaWAN/Mac/region/Region.c **** #define AS923_TX_PARAM_SETUP_REQ( )
  77:../../../../../../Middlewares/Third_Party/LoRaWAN/Mac/region/Region.c **** #define AS923_DL_CHANNEL_REQ( )
  78:../../../../../../Middlewares/Third_Party/LoRaWAN/Mac/region/Region.c **** #define AS923_ALTERNATE_DR( )
  79:../../../../../../Middlewares/Third_Party/LoRaWAN/Mac/region/Region.c **** #define AS923_CALC_BACKOFF( )
  80:../../../../../../Middlewares/Third_Party/LoRaWAN/Mac/region/Region.c **** #define AS923_NEXT_CHANNEL( )
  81:../../../../../../Middlewares/Third_Party/LoRaWAN/Mac/region/Region.c **** #define AS923_CHANNEL_ADD( )
  82:../../../../../../Middlewares/Third_Party/LoRaWAN/Mac/region/Region.c **** #define AS923_CHANNEL_REMOVE( )
  83:../../../../../../Middlewares/Third_Party/LoRaWAN/Mac/region/Region.c **** #define AS923_SET_CONTINUOUS_WAVE( )
  84:../../../../../../Middlewares/Third_Party/LoRaWAN/Mac/region/Region.c **** #define AS923_APPLY_DR_OFFSET( )
  85:../../../../../../Middlewares/Third_Party/LoRaWAN/Mac/region/Region.c **** #define AS923_RX_BEACON_SETUP( )
  86:../../../../../../Middlewares/Third_Party/LoRaWAN/Mac/region/Region.c **** #endif
  87:../../../../../../Middlewares/Third_Party/LoRaWAN/Mac/region/Region.c **** 
  88:../../../../../../Middlewares/Third_Party/LoRaWAN/Mac/region/Region.c **** #ifdef REGION_AU915
ARM GAS  C:\Users\EBANO_~1\AppData\Local\Temp\ccOSDu2a.s 			page 3


  89:../../../../../../Middlewares/Third_Party/LoRaWAN/Mac/region/Region.c **** #include "RegionAU915.h"
  90:../../../../../../Middlewares/Third_Party/LoRaWAN/Mac/region/Region.c **** #define AU915_CASE                                 case LORAMAC_REGION_AU915:
  91:../../../../../../Middlewares/Third_Party/LoRaWAN/Mac/region/Region.c **** #define AU915_IS_ACTIVE( )                         AU915_CASE { return true; }
  92:../../../../../../Middlewares/Third_Party/LoRaWAN/Mac/region/Region.c **** #define AU915_GET_PHY_PARAM( )                     AU915_CASE { return RegionAU915GetPhyParam( getP
  93:../../../../../../Middlewares/Third_Party/LoRaWAN/Mac/region/Region.c **** #define AU915_SET_BAND_TX_DONE( )                  AU915_CASE { RegionAU915SetBandTxDone( txDone );
  94:../../../../../../Middlewares/Third_Party/LoRaWAN/Mac/region/Region.c **** #define AU915_INIT_DEFAULTS( )                     AU915_CASE { RegionAU915InitDefaults( params ); 
  95:../../../../../../Middlewares/Third_Party/LoRaWAN/Mac/region/Region.c **** #define AU915_GET_NVM_CTX( )                       AU915_CASE { return RegionAU915GetNvmCtx( params
  96:../../../../../../Middlewares/Third_Party/LoRaWAN/Mac/region/Region.c **** #define AU915_VERIFY( )                            AU915_CASE { return RegionAU915Verify( verify, p
  97:../../../../../../Middlewares/Third_Party/LoRaWAN/Mac/region/Region.c **** #define AU915_APPLY_CF_LIST( )                     AU915_CASE { RegionAU915ApplyCFList( applyCFList
  98:../../../../../../Middlewares/Third_Party/LoRaWAN/Mac/region/Region.c **** #define AU915_CHAN_MASK_SET( )                     AU915_CASE { return RegionAU915ChanMaskSet( chan
  99:../../../../../../Middlewares/Third_Party/LoRaWAN/Mac/region/Region.c **** #define AU915_COMPUTE_RX_WINDOW_PARAMETERS( )      AU915_CASE { RegionAU915ComputeRxWindowParameter
 100:../../../../../../Middlewares/Third_Party/LoRaWAN/Mac/region/Region.c **** #define AU915_RX_CONFIG( )                         AU915_CASE { return RegionAU915RxConfig( rxConfi
 101:../../../../../../Middlewares/Third_Party/LoRaWAN/Mac/region/Region.c **** #define AU915_TX_CONFIG( )                         AU915_CASE { return RegionAU915TxConfig( txConfi
 102:../../../../../../Middlewares/Third_Party/LoRaWAN/Mac/region/Region.c **** #define AU915_LINK_ADR_REQ( )                      AU915_CASE { return RegionAU915LinkAdrReq( linkA
 103:../../../../../../Middlewares/Third_Party/LoRaWAN/Mac/region/Region.c **** #define AU915_RX_PARAM_SETUP_REQ( )                AU915_CASE { return RegionAU915RxParamSetupReq( 
 104:../../../../../../Middlewares/Third_Party/LoRaWAN/Mac/region/Region.c **** #define AU915_NEW_CHANNEL_REQ( )                   AU915_CASE { return RegionAU915NewChannelReq( ne
 105:../../../../../../Middlewares/Third_Party/LoRaWAN/Mac/region/Region.c **** #define AU915_TX_PARAM_SETUP_REQ( )                AU915_CASE { return RegionAU915TxParamSetupReq( 
 106:../../../../../../Middlewares/Third_Party/LoRaWAN/Mac/region/Region.c **** #define AU915_DL_CHANNEL_REQ( )                    AU915_CASE { return RegionAU915DlChannelReq( dlC
 107:../../../../../../Middlewares/Third_Party/LoRaWAN/Mac/region/Region.c **** #define AU915_ALTERNATE_DR( )                      AU915_CASE { return RegionAU915AlternateDr( curr
 108:../../../../../../Middlewares/Third_Party/LoRaWAN/Mac/region/Region.c **** #define AU915_CALC_BACKOFF( )                      AU915_CASE { RegionAU915CalcBackOff( calcBackOff
 109:../../../../../../Middlewares/Third_Party/LoRaWAN/Mac/region/Region.c **** #define AU915_NEXT_CHANNEL( )                      AU915_CASE { return RegionAU915NextChannel( next
 110:../../../../../../Middlewares/Third_Party/LoRaWAN/Mac/region/Region.c **** #define AU915_CHANNEL_ADD( )                       AU915_CASE { return RegionAU915ChannelAdd( chann
 111:../../../../../../Middlewares/Third_Party/LoRaWAN/Mac/region/Region.c **** #define AU915_CHANNEL_REMOVE( )                    AU915_CASE { return RegionAU915ChannelsRemove( c
 112:../../../../../../Middlewares/Third_Party/LoRaWAN/Mac/region/Region.c **** #define AU915_SET_CONTINUOUS_WAVE( )               AU915_CASE { RegionAU915SetContinuousWave( conti
 113:../../../../../../Middlewares/Third_Party/LoRaWAN/Mac/region/Region.c **** #define AU915_APPLY_DR_OFFSET( )                   AU915_CASE { return RegionAU915ApplyDrOffset( do
 114:../../../../../../Middlewares/Third_Party/LoRaWAN/Mac/region/Region.c **** #define AU915_RX_BEACON_SETUP( )                   AU915_CASE { RegionAU915RxBeaconSetup( rxBeaconS
 115:../../../../../../Middlewares/Third_Party/LoRaWAN/Mac/region/Region.c **** #else
 116:../../../../../../Middlewares/Third_Party/LoRaWAN/Mac/region/Region.c **** #define AU915_IS_ACTIVE( )
 117:../../../../../../Middlewares/Third_Party/LoRaWAN/Mac/region/Region.c **** #define AU915_GET_PHY_PARAM( )
 118:../../../../../../Middlewares/Third_Party/LoRaWAN/Mac/region/Region.c **** #define AU915_SET_BAND_TX_DONE( )
 119:../../../../../../Middlewares/Third_Party/LoRaWAN/Mac/region/Region.c **** #define AU915_INIT_DEFAULTS( )
 120:../../../../../../Middlewares/Third_Party/LoRaWAN/Mac/region/Region.c **** #define AU915_GET_NVM_CTX( )
 121:../../../../../../Middlewares/Third_Party/LoRaWAN/Mac/region/Region.c **** #define AU915_VERIFY( )
 122:../../../../../../Middlewares/Third_Party/LoRaWAN/Mac/region/Region.c **** #define AU915_APPLY_CF_LIST( )
 123:../../../../../../Middlewares/Third_Party/LoRaWAN/Mac/region/Region.c **** #define AU915_CHAN_MASK_SET( )
 124:../../../../../../Middlewares/Third_Party/LoRaWAN/Mac/region/Region.c **** #define AU915_COMPUTE_RX_WINDOW_PARAMETERS( )
 125:../../../../../../Middlewares/Third_Party/LoRaWAN/Mac/region/Region.c **** #define AU915_RX_CONFIG( )
 126:../../../../../../Middlewares/Third_Party/LoRaWAN/Mac/region/Region.c **** #define AU915_TX_CONFIG( )
 127:../../../../../../Middlewares/Third_Party/LoRaWAN/Mac/region/Region.c **** #define AU915_LINK_ADR_REQ( )
 128:../../../../../../Middlewares/Third_Party/LoRaWAN/Mac/region/Region.c **** #define AU915_RX_PARAM_SETUP_REQ( )
 129:../../../../../../Middlewares/Third_Party/LoRaWAN/Mac/region/Region.c **** #define AU915_NEW_CHANNEL_REQ( )
 130:../../../../../../Middlewares/Third_Party/LoRaWAN/Mac/region/Region.c **** #define AU915_TX_PARAM_SETUP_REQ( )
 131:../../../../../../Middlewares/Third_Party/LoRaWAN/Mac/region/Region.c **** #define AU915_DL_CHANNEL_REQ( )
 132:../../../../../../Middlewares/Third_Party/LoRaWAN/Mac/region/Region.c **** #define AU915_ALTERNATE_DR( )
 133:../../../../../../Middlewares/Third_Party/LoRaWAN/Mac/region/Region.c **** #define AU915_CALC_BACKOFF( )
 134:../../../../../../Middlewares/Third_Party/LoRaWAN/Mac/region/Region.c **** #define AU915_NEXT_CHANNEL( )
 135:../../../../../../Middlewares/Third_Party/LoRaWAN/Mac/region/Region.c **** #define AU915_CHANNEL_ADD( )
 136:../../../../../../Middlewares/Third_Party/LoRaWAN/Mac/region/Region.c **** #define AU915_CHANNEL_REMOVE( )
 137:../../../../../../Middlewares/Third_Party/LoRaWAN/Mac/region/Region.c **** #define AU915_SET_CONTINUOUS_WAVE( )
 138:../../../../../../Middlewares/Third_Party/LoRaWAN/Mac/region/Region.c **** #define AU915_APPLY_DR_OFFSET( )
 139:../../../../../../Middlewares/Third_Party/LoRaWAN/Mac/region/Region.c **** #define AU915_RX_BEACON_SETUP( )
 140:../../../../../../Middlewares/Third_Party/LoRaWAN/Mac/region/Region.c **** #endif
 141:../../../../../../Middlewares/Third_Party/LoRaWAN/Mac/region/Region.c **** 
 142:../../../../../../Middlewares/Third_Party/LoRaWAN/Mac/region/Region.c **** #ifdef REGION_CN470
 143:../../../../../../Middlewares/Third_Party/LoRaWAN/Mac/region/Region.c **** #include "RegionCN470.h"
 144:../../../../../../Middlewares/Third_Party/LoRaWAN/Mac/region/Region.c **** #define CN470_CASE                                 case LORAMAC_REGION_CN470:
 145:../../../../../../Middlewares/Third_Party/LoRaWAN/Mac/region/Region.c **** #define CN470_IS_ACTIVE( )                         CN470_CASE { return true; }
ARM GAS  C:\Users\EBANO_~1\AppData\Local\Temp\ccOSDu2a.s 			page 4


 146:../../../../../../Middlewares/Third_Party/LoRaWAN/Mac/region/Region.c **** #define CN470_GET_PHY_PARAM( )                     CN470_CASE { return RegionCN470GetPhyParam( getP
 147:../../../../../../Middlewares/Third_Party/LoRaWAN/Mac/region/Region.c **** #define CN470_SET_BAND_TX_DONE( )                  CN470_CASE { RegionCN470SetBandTxDone( txDone );
 148:../../../../../../Middlewares/Third_Party/LoRaWAN/Mac/region/Region.c **** #define CN470_INIT_DEFAULTS( )                     CN470_CASE { RegionCN470InitDefaults( params ); 
 149:../../../../../../Middlewares/Third_Party/LoRaWAN/Mac/region/Region.c **** #define CN470_GET_NVM_CTX( )                       CN470_CASE { return RegionCN470GetNvmCtx( params
 150:../../../../../../Middlewares/Third_Party/LoRaWAN/Mac/region/Region.c **** #define CN470_VERIFY( )                            CN470_CASE { return RegionCN470Verify( verify, p
 151:../../../../../../Middlewares/Third_Party/LoRaWAN/Mac/region/Region.c **** #define CN470_APPLY_CF_LIST( )                     CN470_CASE { RegionCN470ApplyCFList( applyCFList
 152:../../../../../../Middlewares/Third_Party/LoRaWAN/Mac/region/Region.c **** #define CN470_CHAN_MASK_SET( )                     CN470_CASE { return RegionCN470ChanMaskSet( chan
 153:../../../../../../Middlewares/Third_Party/LoRaWAN/Mac/region/Region.c **** #define CN470_COMPUTE_RX_WINDOW_PARAMETERS( )      CN470_CASE { RegionCN470ComputeRxWindowParameter
 154:../../../../../../Middlewares/Third_Party/LoRaWAN/Mac/region/Region.c **** #define CN470_RX_CONFIG( )                         CN470_CASE { return RegionCN470RxConfig( rxConfi
 155:../../../../../../Middlewares/Third_Party/LoRaWAN/Mac/region/Region.c **** #define CN470_TX_CONFIG( )                         CN470_CASE { return RegionCN470TxConfig( txConfi
 156:../../../../../../Middlewares/Third_Party/LoRaWAN/Mac/region/Region.c **** #define CN470_LINK_ADR_REQ( )                      CN470_CASE { return RegionCN470LinkAdrReq( linkA
 157:../../../../../../Middlewares/Third_Party/LoRaWAN/Mac/region/Region.c **** #define CN470_RX_PARAM_SETUP_REQ( )                CN470_CASE { return RegionCN470RxParamSetupReq( 
 158:../../../../../../Middlewares/Third_Party/LoRaWAN/Mac/region/Region.c **** #define CN470_NEW_CHANNEL_REQ( )                   CN470_CASE { return RegionCN470NewChannelReq( ne
 159:../../../../../../Middlewares/Third_Party/LoRaWAN/Mac/region/Region.c **** #define CN470_TX_PARAM_SETUP_REQ( )                CN470_CASE { return RegionCN470TxParamSetupReq( 
 160:../../../../../../Middlewares/Third_Party/LoRaWAN/Mac/region/Region.c **** #define CN470_DL_CHANNEL_REQ( )                    CN470_CASE { return RegionCN470DlChannelReq( dlC
 161:../../../../../../Middlewares/Third_Party/LoRaWAN/Mac/region/Region.c **** #define CN470_ALTERNATE_DR( )                      CN470_CASE { return RegionCN470AlternateDr( curr
 162:../../../../../../Middlewares/Third_Party/LoRaWAN/Mac/region/Region.c **** #define CN470_CALC_BACKOFF( )                      CN470_CASE { RegionCN470CalcBackOff( calcBackOff
 163:../../../../../../Middlewares/Third_Party/LoRaWAN/Mac/region/Region.c **** #define CN470_NEXT_CHANNEL( )                      CN470_CASE { return RegionCN470NextChannel( next
 164:../../../../../../Middlewares/Third_Party/LoRaWAN/Mac/region/Region.c **** #define CN470_CHANNEL_ADD( )                       CN470_CASE { return RegionCN470ChannelAdd( chann
 165:../../../../../../Middlewares/Third_Party/LoRaWAN/Mac/region/Region.c **** #define CN470_CHANNEL_REMOVE( )                    CN470_CASE { return RegionCN470ChannelsRemove( c
 166:../../../../../../Middlewares/Third_Party/LoRaWAN/Mac/region/Region.c **** #define CN470_SET_CONTINUOUS_WAVE( )               CN470_CASE { RegionCN470SetContinuousWave( conti
 167:../../../../../../Middlewares/Third_Party/LoRaWAN/Mac/region/Region.c **** #define CN470_APPLY_DR_OFFSET( )                   CN470_CASE { return RegionCN470ApplyDrOffset( do
 168:../../../../../../Middlewares/Third_Party/LoRaWAN/Mac/region/Region.c **** #define CN470_RX_BEACON_SETUP( )                   CN470_CASE { RegionCN470RxBeaconSetup( rxBeaconS
 169:../../../../../../Middlewares/Third_Party/LoRaWAN/Mac/region/Region.c **** #else
 170:../../../../../../Middlewares/Third_Party/LoRaWAN/Mac/region/Region.c **** #define CN470_IS_ACTIVE( )
 171:../../../../../../Middlewares/Third_Party/LoRaWAN/Mac/region/Region.c **** #define CN470_GET_PHY_PARAM( )
 172:../../../../../../Middlewares/Third_Party/LoRaWAN/Mac/region/Region.c **** #define CN470_SET_BAND_TX_DONE( )
 173:../../../../../../Middlewares/Third_Party/LoRaWAN/Mac/region/Region.c **** #define CN470_INIT_DEFAULTS( )
 174:../../../../../../Middlewares/Third_Party/LoRaWAN/Mac/region/Region.c **** #define CN470_GET_NVM_CTX( )
 175:../../../../../../Middlewares/Third_Party/LoRaWAN/Mac/region/Region.c **** #define CN470_VERIFY( )
 176:../../../../../../Middlewares/Third_Party/LoRaWAN/Mac/region/Region.c **** #define CN470_APPLY_CF_LIST( )
 177:../../../../../../Middlewares/Third_Party/LoRaWAN/Mac/region/Region.c **** #define CN470_CHAN_MASK_SET( )
 178:../../../../../../Middlewares/Third_Party/LoRaWAN/Mac/region/Region.c **** #define CN470_COMPUTE_RX_WINDOW_PARAMETERS( )
 179:../../../../../../Middlewares/Third_Party/LoRaWAN/Mac/region/Region.c **** #define CN470_RX_CONFIG( )
 180:../../../../../../Middlewares/Third_Party/LoRaWAN/Mac/region/Region.c **** #define CN470_TX_CONFIG( )
 181:../../../../../../Middlewares/Third_Party/LoRaWAN/Mac/region/Region.c **** #define CN470_LINK_ADR_REQ( )
 182:../../../../../../Middlewares/Third_Party/LoRaWAN/Mac/region/Region.c **** #define CN470_RX_PARAM_SETUP_REQ( )
 183:../../../../../../Middlewares/Third_Party/LoRaWAN/Mac/region/Region.c **** #define CN470_NEW_CHANNEL_REQ( )
 184:../../../../../../Middlewares/Third_Party/LoRaWAN/Mac/region/Region.c **** #define CN470_TX_PARAM_SETUP_REQ( )
 185:../../../../../../Middlewares/Third_Party/LoRaWAN/Mac/region/Region.c **** #define CN470_DL_CHANNEL_REQ( )
 186:../../../../../../Middlewares/Third_Party/LoRaWAN/Mac/region/Region.c **** #define CN470_ALTERNATE_DR( )
 187:../../../../../../Middlewares/Third_Party/LoRaWAN/Mac/region/Region.c **** #define CN470_CALC_BACKOFF( )
 188:../../../../../../Middlewares/Third_Party/LoRaWAN/Mac/region/Region.c **** #define CN470_NEXT_CHANNEL( )
 189:../../../../../../Middlewares/Third_Party/LoRaWAN/Mac/region/Region.c **** #define CN470_CHANNEL_ADD( )
 190:../../../../../../Middlewares/Third_Party/LoRaWAN/Mac/region/Region.c **** #define CN470_CHANNEL_REMOVE( )
 191:../../../../../../Middlewares/Third_Party/LoRaWAN/Mac/region/Region.c **** #define CN470_SET_CONTINUOUS_WAVE( )
 192:../../../../../../Middlewares/Third_Party/LoRaWAN/Mac/region/Region.c **** #define CN470_APPLY_DR_OFFSET( )
 193:../../../../../../Middlewares/Third_Party/LoRaWAN/Mac/region/Region.c **** #define CN470_RX_BEACON_SETUP( )
 194:../../../../../../Middlewares/Third_Party/LoRaWAN/Mac/region/Region.c **** #endif
 195:../../../../../../Middlewares/Third_Party/LoRaWAN/Mac/region/Region.c **** 
 196:../../../../../../Middlewares/Third_Party/LoRaWAN/Mac/region/Region.c **** #ifdef REGION_CN779
 197:../../../../../../Middlewares/Third_Party/LoRaWAN/Mac/region/Region.c **** #include "RegionCN779.h"
 198:../../../../../../Middlewares/Third_Party/LoRaWAN/Mac/region/Region.c **** #define CN779_CASE                                 case LORAMAC_REGION_CN779:
 199:../../../../../../Middlewares/Third_Party/LoRaWAN/Mac/region/Region.c **** #define CN779_IS_ACTIVE( )                         CN779_CASE { return true; }
 200:../../../../../../Middlewares/Third_Party/LoRaWAN/Mac/region/Region.c **** #define CN779_GET_PHY_PARAM( )                     CN779_CASE { return RegionCN779GetPhyParam( getP
 201:../../../../../../Middlewares/Third_Party/LoRaWAN/Mac/region/Region.c **** #define CN779_SET_BAND_TX_DONE( )                  CN779_CASE { RegionCN779SetBandTxDone( txDone );
 202:../../../../../../Middlewares/Third_Party/LoRaWAN/Mac/region/Region.c **** #define CN779_INIT_DEFAULTS( )                     CN779_CASE { RegionCN779InitDefaults( params ); 
ARM GAS  C:\Users\EBANO_~1\AppData\Local\Temp\ccOSDu2a.s 			page 5


 203:../../../../../../Middlewares/Third_Party/LoRaWAN/Mac/region/Region.c **** #define CN779_GET_NVM_CTX( )                       CN779_CASE { return RegionCN779GetNvmCtx( params
 204:../../../../../../Middlewares/Third_Party/LoRaWAN/Mac/region/Region.c **** #define CN779_VERIFY( )                            CN779_CASE { return RegionCN779Verify( verify, p
 205:../../../../../../Middlewares/Third_Party/LoRaWAN/Mac/region/Region.c **** #define CN779_APPLY_CF_LIST( )                     CN779_CASE { RegionCN779ApplyCFList( applyCFList
 206:../../../../../../Middlewares/Third_Party/LoRaWAN/Mac/region/Region.c **** #define CN779_CHAN_MASK_SET( )                     CN779_CASE { return RegionCN779ChanMaskSet( chan
 207:../../../../../../Middlewares/Third_Party/LoRaWAN/Mac/region/Region.c **** #define CN779_COMPUTE_RX_WINDOW_PARAMETERS( )      CN779_CASE { RegionCN779ComputeRxWindowParameter
 208:../../../../../../Middlewares/Third_Party/LoRaWAN/Mac/region/Region.c **** #define CN779_RX_CONFIG( )                         CN779_CASE { return RegionCN779RxConfig( rxConfi
 209:../../../../../../Middlewares/Third_Party/LoRaWAN/Mac/region/Region.c **** #define CN779_TX_CONFIG( )                         CN779_CASE { return RegionCN779TxConfig( txConfi
 210:../../../../../../Middlewares/Third_Party/LoRaWAN/Mac/region/Region.c **** #define CN779_LINK_ADR_REQ( )                      CN779_CASE { return RegionCN779LinkAdrReq( linkA
 211:../../../../../../Middlewares/Third_Party/LoRaWAN/Mac/region/Region.c **** #define CN779_RX_PARAM_SETUP_REQ( )                CN779_CASE { return RegionCN779RxParamSetupReq( 
 212:../../../../../../Middlewares/Third_Party/LoRaWAN/Mac/region/Region.c **** #define CN779_NEW_CHANNEL_REQ( )                   CN779_CASE { return RegionCN779NewChannelReq( ne
 213:../../../../../../Middlewares/Third_Party/LoRaWAN/Mac/region/Region.c **** #define CN779_TX_PARAM_SETUP_REQ( )                CN779_CASE { return RegionCN779TxParamSetupReq( 
 214:../../../../../../Middlewares/Third_Party/LoRaWAN/Mac/region/Region.c **** #define CN779_DL_CHANNEL_REQ( )                    CN779_CASE { return RegionCN779DlChannelReq( dlC
 215:../../../../../../Middlewares/Third_Party/LoRaWAN/Mac/region/Region.c **** #define CN779_ALTERNATE_DR( )                      CN779_CASE { return RegionCN779AlternateDr( curr
 216:../../../../../../Middlewares/Third_Party/LoRaWAN/Mac/region/Region.c **** #define CN779_CALC_BACKOFF( )                      CN779_CASE { RegionCN779CalcBackOff( calcBackOff
 217:../../../../../../Middlewares/Third_Party/LoRaWAN/Mac/region/Region.c **** #define CN779_NEXT_CHANNEL( )                      CN779_CASE { return RegionCN779NextChannel( next
 218:../../../../../../Middlewares/Third_Party/LoRaWAN/Mac/region/Region.c **** #define CN779_CHANNEL_ADD( )                       CN779_CASE { return RegionCN779ChannelAdd( chann
 219:../../../../../../Middlewares/Third_Party/LoRaWAN/Mac/region/Region.c **** #define CN779_CHANNEL_REMOVE( )                    CN779_CASE { return RegionCN779ChannelsRemove( c
 220:../../../../../../Middlewares/Third_Party/LoRaWAN/Mac/region/Region.c **** #define CN779_SET_CONTINUOUS_WAVE( )               CN779_CASE { RegionCN779SetContinuousWave( conti
 221:../../../../../../Middlewares/Third_Party/LoRaWAN/Mac/region/Region.c **** #define CN779_APPLY_DR_OFFSET( )                   CN779_CASE { return RegionCN779ApplyDrOffset( do
 222:../../../../../../Middlewares/Third_Party/LoRaWAN/Mac/region/Region.c **** #define CN779_RX_BEACON_SETUP( )                   CN779_CASE { RegionCN779RxBeaconSetup( rxBeaconS
 223:../../../../../../Middlewares/Third_Party/LoRaWAN/Mac/region/Region.c **** #else
 224:../../../../../../Middlewares/Third_Party/LoRaWAN/Mac/region/Region.c **** #define CN779_IS_ACTIVE( )
 225:../../../../../../Middlewares/Third_Party/LoRaWAN/Mac/region/Region.c **** #define CN779_GET_PHY_PARAM( )
 226:../../../../../../Middlewares/Third_Party/LoRaWAN/Mac/region/Region.c **** #define CN779_SET_BAND_TX_DONE( )
 227:../../../../../../Middlewares/Third_Party/LoRaWAN/Mac/region/Region.c **** #define CN779_INIT_DEFAULTS( )
 228:../../../../../../Middlewares/Third_Party/LoRaWAN/Mac/region/Region.c **** #define CN779_GET_NVM_CTX( )
 229:../../../../../../Middlewares/Third_Party/LoRaWAN/Mac/region/Region.c **** #define CN779_VERIFY( )
 230:../../../../../../Middlewares/Third_Party/LoRaWAN/Mac/region/Region.c **** #define CN779_APPLY_CF_LIST( )
 231:../../../../../../Middlewares/Third_Party/LoRaWAN/Mac/region/Region.c **** #define CN779_CHAN_MASK_SET( )
 232:../../../../../../Middlewares/Third_Party/LoRaWAN/Mac/region/Region.c **** #define CN779_COMPUTE_RX_WINDOW_PARAMETERS( )
 233:../../../../../../Middlewares/Third_Party/LoRaWAN/Mac/region/Region.c **** #define CN779_RX_CONFIG( )
 234:../../../../../../Middlewares/Third_Party/LoRaWAN/Mac/region/Region.c **** #define CN779_TX_CONFIG( )
 235:../../../../../../Middlewares/Third_Party/LoRaWAN/Mac/region/Region.c **** #define CN779_LINK_ADR_REQ( )
 236:../../../../../../Middlewares/Third_Party/LoRaWAN/Mac/region/Region.c **** #define CN779_RX_PARAM_SETUP_REQ( )
 237:../../../../../../Middlewares/Third_Party/LoRaWAN/Mac/region/Region.c **** #define CN779_NEW_CHANNEL_REQ( )
 238:../../../../../../Middlewares/Third_Party/LoRaWAN/Mac/region/Region.c **** #define CN779_TX_PARAM_SETUP_REQ( )
 239:../../../../../../Middlewares/Third_Party/LoRaWAN/Mac/region/Region.c **** #define CN779_DL_CHANNEL_REQ( )
 240:../../../../../../Middlewares/Third_Party/LoRaWAN/Mac/region/Region.c **** #define CN779_ALTERNATE_DR( )
 241:../../../../../../Middlewares/Third_Party/LoRaWAN/Mac/region/Region.c **** #define CN779_CALC_BACKOFF( )
 242:../../../../../../Middlewares/Third_Party/LoRaWAN/Mac/region/Region.c **** #define CN779_NEXT_CHANNEL( )
 243:../../../../../../Middlewares/Third_Party/LoRaWAN/Mac/region/Region.c **** #define CN779_CHANNEL_ADD( )
 244:../../../../../../Middlewares/Third_Party/LoRaWAN/Mac/region/Region.c **** #define CN779_CHANNEL_REMOVE( )
 245:../../../../../../Middlewares/Third_Party/LoRaWAN/Mac/region/Region.c **** #define CN779_SET_CONTINUOUS_WAVE( )
 246:../../../../../../Middlewares/Third_Party/LoRaWAN/Mac/region/Region.c **** #define CN779_APPLY_DR_OFFSET( )
 247:../../../../../../Middlewares/Third_Party/LoRaWAN/Mac/region/Region.c **** #define CN779_RX_BEACON_SETUP( )
 248:../../../../../../Middlewares/Third_Party/LoRaWAN/Mac/region/Region.c **** #endif
 249:../../../../../../Middlewares/Third_Party/LoRaWAN/Mac/region/Region.c **** 
 250:../../../../../../Middlewares/Third_Party/LoRaWAN/Mac/region/Region.c **** #ifdef REGION_EU433
 251:../../../../../../Middlewares/Third_Party/LoRaWAN/Mac/region/Region.c **** #include "RegionEU433.h"
 252:../../../../../../Middlewares/Third_Party/LoRaWAN/Mac/region/Region.c **** #define EU433_CASE                                 case LORAMAC_REGION_EU433:
 253:../../../../../../Middlewares/Third_Party/LoRaWAN/Mac/region/Region.c **** #define EU433_IS_ACTIVE( )                         EU433_CASE { return true; }
 254:../../../../../../Middlewares/Third_Party/LoRaWAN/Mac/region/Region.c **** #define EU433_GET_PHY_PARAM( )                     EU433_CASE { return RegionEU433GetPhyParam( getP
 255:../../../../../../Middlewares/Third_Party/LoRaWAN/Mac/region/Region.c **** #define EU433_SET_BAND_TX_DONE( )                  EU433_CASE { RegionEU433SetBandTxDone( txDone );
 256:../../../../../../Middlewares/Third_Party/LoRaWAN/Mac/region/Region.c **** #define EU433_INIT_DEFAULTS( )                     EU433_CASE { RegionEU433InitDefaults( params ); 
 257:../../../../../../Middlewares/Third_Party/LoRaWAN/Mac/region/Region.c **** #define EU433_GET_NVM_CTX( )                       EU433_CASE { return RegionEU433GetNvmCtx( params
 258:../../../../../../Middlewares/Third_Party/LoRaWAN/Mac/region/Region.c **** #define EU433_VERIFY( )                            EU433_CASE { return RegionEU433Verify( verify, p
 259:../../../../../../Middlewares/Third_Party/LoRaWAN/Mac/region/Region.c **** #define EU433_APPLY_CF_LIST( )                     EU433_CASE { RegionEU433ApplyCFList( applyCFList
ARM GAS  C:\Users\EBANO_~1\AppData\Local\Temp\ccOSDu2a.s 			page 6


 260:../../../../../../Middlewares/Third_Party/LoRaWAN/Mac/region/Region.c **** #define EU433_CHAN_MASK_SET( )                     EU433_CASE { return RegionEU433ChanMaskSet( chan
 261:../../../../../../Middlewares/Third_Party/LoRaWAN/Mac/region/Region.c **** #define EU433_COMPUTE_RX_WINDOW_PARAMETERS( )      EU433_CASE { RegionEU433ComputeRxWindowParameter
 262:../../../../../../Middlewares/Third_Party/LoRaWAN/Mac/region/Region.c **** #define EU433_RX_CONFIG( )                         EU433_CASE { return RegionEU433RxConfig( rxConfi
 263:../../../../../../Middlewares/Third_Party/LoRaWAN/Mac/region/Region.c **** #define EU433_TX_CONFIG( )                         EU433_CASE { return RegionEU433TxConfig( txConfi
 264:../../../../../../Middlewares/Third_Party/LoRaWAN/Mac/region/Region.c **** #define EU433_LINK_ADR_REQ( )                      EU433_CASE { return RegionEU433LinkAdrReq( linkA
 265:../../../../../../Middlewares/Third_Party/LoRaWAN/Mac/region/Region.c **** #define EU433_RX_PARAM_SETUP_REQ( )                EU433_CASE { return RegionEU433RxParamSetupReq( 
 266:../../../../../../Middlewares/Third_Party/LoRaWAN/Mac/region/Region.c **** #define EU433_NEW_CHANNEL_REQ( )                   EU433_CASE { return RegionEU433NewChannelReq( ne
 267:../../../../../../Middlewares/Third_Party/LoRaWAN/Mac/region/Region.c **** #define EU433_TX_PARAM_SETUP_REQ( )                EU433_CASE { return RegionEU433TxParamSetupReq( 
 268:../../../../../../Middlewares/Third_Party/LoRaWAN/Mac/region/Region.c **** #define EU433_DL_CHANNEL_REQ( )                    EU433_CASE { return RegionEU433DlChannelReq( dlC
 269:../../../../../../Middlewares/Third_Party/LoRaWAN/Mac/region/Region.c **** #define EU433_ALTERNATE_DR( )                      EU433_CASE { return RegionEU433AlternateDr( curr
 270:../../../../../../Middlewares/Third_Party/LoRaWAN/Mac/region/Region.c **** #define EU433_CALC_BACKOFF( )                      EU433_CASE { RegionEU433CalcBackOff( calcBackOff
 271:../../../../../../Middlewares/Third_Party/LoRaWAN/Mac/region/Region.c **** #define EU433_NEXT_CHANNEL( )                      EU433_CASE { return RegionEU433NextChannel( next
 272:../../../../../../Middlewares/Third_Party/LoRaWAN/Mac/region/Region.c **** #define EU433_CHANNEL_ADD( )                       EU433_CASE { return RegionEU433ChannelAdd( chann
 273:../../../../../../Middlewares/Third_Party/LoRaWAN/Mac/region/Region.c **** #define EU433_CHANNEL_REMOVE( )                    EU433_CASE { return RegionEU433ChannelsRemove( c
 274:../../../../../../Middlewares/Third_Party/LoRaWAN/Mac/region/Region.c **** #define EU433_SET_CONTINUOUS_WAVE( )               EU433_CASE { RegionEU433SetContinuousWave( conti
 275:../../../../../../Middlewares/Third_Party/LoRaWAN/Mac/region/Region.c **** #define EU433_APPLY_DR_OFFSET( )                   EU433_CASE { return RegionEU433ApplyDrOffset( do
 276:../../../../../../Middlewares/Third_Party/LoRaWAN/Mac/region/Region.c **** #define EU433_RX_BEACON_SETUP( )                   EU433_CASE { RegionEU433RxBeaconSetup( rxBeaconS
 277:../../../../../../Middlewares/Third_Party/LoRaWAN/Mac/region/Region.c **** #else
 278:../../../../../../Middlewares/Third_Party/LoRaWAN/Mac/region/Region.c **** #define EU433_IS_ACTIVE( )
 279:../../../../../../Middlewares/Third_Party/LoRaWAN/Mac/region/Region.c **** #define EU433_GET_PHY_PARAM( )
 280:../../../../../../Middlewares/Third_Party/LoRaWAN/Mac/region/Region.c **** #define EU433_SET_BAND_TX_DONE( )
 281:../../../../../../Middlewares/Third_Party/LoRaWAN/Mac/region/Region.c **** #define EU433_INIT_DEFAULTS( )
 282:../../../../../../Middlewares/Third_Party/LoRaWAN/Mac/region/Region.c **** #define EU433_GET_NVM_CTX( )
 283:../../../../../../Middlewares/Third_Party/LoRaWAN/Mac/region/Region.c **** #define EU433_VERIFY( )
 284:../../../../../../Middlewares/Third_Party/LoRaWAN/Mac/region/Region.c **** #define EU433_APPLY_CF_LIST( )
 285:../../../../../../Middlewares/Third_Party/LoRaWAN/Mac/region/Region.c **** #define EU433_CHAN_MASK_SET( )
 286:../../../../../../Middlewares/Third_Party/LoRaWAN/Mac/region/Region.c **** #define EU433_COMPUTE_RX_WINDOW_PARAMETERS( )
 287:../../../../../../Middlewares/Third_Party/LoRaWAN/Mac/region/Region.c **** #define EU433_RX_CONFIG( )
 288:../../../../../../Middlewares/Third_Party/LoRaWAN/Mac/region/Region.c **** #define EU433_TX_CONFIG( )
 289:../../../../../../Middlewares/Third_Party/LoRaWAN/Mac/region/Region.c **** #define EU433_LINK_ADR_REQ( )
 290:../../../../../../Middlewares/Third_Party/LoRaWAN/Mac/region/Region.c **** #define EU433_RX_PARAM_SETUP_REQ( )
 291:../../../../../../Middlewares/Third_Party/LoRaWAN/Mac/region/Region.c **** #define EU433_NEW_CHANNEL_REQ( )
 292:../../../../../../Middlewares/Third_Party/LoRaWAN/Mac/region/Region.c **** #define EU433_TX_PARAM_SETUP_REQ( )
 293:../../../../../../Middlewares/Third_Party/LoRaWAN/Mac/region/Region.c **** #define EU433_DL_CHANNEL_REQ( )
 294:../../../../../../Middlewares/Third_Party/LoRaWAN/Mac/region/Region.c **** #define EU433_ALTERNATE_DR( )
 295:../../../../../../Middlewares/Third_Party/LoRaWAN/Mac/region/Region.c **** #define EU433_CALC_BACKOFF( )
 296:../../../../../../Middlewares/Third_Party/LoRaWAN/Mac/region/Region.c **** #define EU433_NEXT_CHANNEL( )
 297:../../../../../../Middlewares/Third_Party/LoRaWAN/Mac/region/Region.c **** #define EU433_CHANNEL_ADD( )
 298:../../../../../../Middlewares/Third_Party/LoRaWAN/Mac/region/Region.c **** #define EU433_CHANNEL_REMOVE( )
 299:../../../../../../Middlewares/Third_Party/LoRaWAN/Mac/region/Region.c **** #define EU433_SET_CONTINUOUS_WAVE( )
 300:../../../../../../Middlewares/Third_Party/LoRaWAN/Mac/region/Region.c **** #define EU433_APPLY_DR_OFFSET( )
 301:../../../../../../Middlewares/Third_Party/LoRaWAN/Mac/region/Region.c **** #define EU433_RX_BEACON_SETUP( )
 302:../../../../../../Middlewares/Third_Party/LoRaWAN/Mac/region/Region.c **** #endif
 303:../../../../../../Middlewares/Third_Party/LoRaWAN/Mac/region/Region.c **** 
 304:../../../../../../Middlewares/Third_Party/LoRaWAN/Mac/region/Region.c **** #ifdef REGION_EU868
 305:../../../../../../Middlewares/Third_Party/LoRaWAN/Mac/region/Region.c **** #include "RegionEU868.h"
 306:../../../../../../Middlewares/Third_Party/LoRaWAN/Mac/region/Region.c **** #define EU868_CASE                                 case LORAMAC_REGION_EU868:
 307:../../../../../../Middlewares/Third_Party/LoRaWAN/Mac/region/Region.c **** #define EU868_IS_ACTIVE( )                         EU868_CASE { return true; }
 308:../../../../../../Middlewares/Third_Party/LoRaWAN/Mac/region/Region.c **** #define EU868_GET_PHY_PARAM( )                     EU868_CASE { return RegionEU868GetPhyParam( getP
 309:../../../../../../Middlewares/Third_Party/LoRaWAN/Mac/region/Region.c **** #define EU868_SET_BAND_TX_DONE( )                  EU868_CASE { RegionEU868SetBandTxDone( txDone );
 310:../../../../../../Middlewares/Third_Party/LoRaWAN/Mac/region/Region.c **** #define EU868_INIT_DEFAULTS( )                     EU868_CASE { RegionEU868InitDefaults( params ); 
 311:../../../../../../Middlewares/Third_Party/LoRaWAN/Mac/region/Region.c **** #define EU868_GET_NVM_CTX( )                       EU868_CASE { return RegionEU868GetNvmCtx( params
 312:../../../../../../Middlewares/Third_Party/LoRaWAN/Mac/region/Region.c **** #define EU868_VERIFY( )                            EU868_CASE { return RegionEU868Verify( verify, p
 313:../../../../../../Middlewares/Third_Party/LoRaWAN/Mac/region/Region.c **** #define EU868_APPLY_CF_LIST( )                     EU868_CASE { RegionEU868ApplyCFList( applyCFList
 314:../../../../../../Middlewares/Third_Party/LoRaWAN/Mac/region/Region.c **** #define EU868_CHAN_MASK_SET( )                     EU868_CASE { return RegionEU868ChanMaskSet( chan
 315:../../../../../../Middlewares/Third_Party/LoRaWAN/Mac/region/Region.c **** #define EU868_COMPUTE_RX_WINDOW_PARAMETERS( )      EU868_CASE { RegionEU868ComputeRxWindowParameter
 316:../../../../../../Middlewares/Third_Party/LoRaWAN/Mac/region/Region.c **** #define EU868_RX_CONFIG( )                         EU868_CASE { return RegionEU868RxConfig( rxConfi
ARM GAS  C:\Users\EBANO_~1\AppData\Local\Temp\ccOSDu2a.s 			page 7


 317:../../../../../../Middlewares/Third_Party/LoRaWAN/Mac/region/Region.c **** #define EU868_TX_CONFIG( )                         EU868_CASE { return RegionEU868TxConfig( txConfi
 318:../../../../../../Middlewares/Third_Party/LoRaWAN/Mac/region/Region.c **** #define EU868_LINK_ADR_REQ( )                      EU868_CASE { return RegionEU868LinkAdrReq( linkA
 319:../../../../../../Middlewares/Third_Party/LoRaWAN/Mac/region/Region.c **** #define EU868_RX_PARAM_SETUP_REQ( )                EU868_CASE { return RegionEU868RxParamSetupReq( 
 320:../../../../../../Middlewares/Third_Party/LoRaWAN/Mac/region/Region.c **** #define EU868_NEW_CHANNEL_REQ( )                   EU868_CASE { return RegionEU868NewChannelReq( ne
 321:../../../../../../Middlewares/Third_Party/LoRaWAN/Mac/region/Region.c **** #define EU868_TX_PARAM_SETUP_REQ( )                EU868_CASE { return RegionEU868TxParamSetupReq( 
 322:../../../../../../Middlewares/Third_Party/LoRaWAN/Mac/region/Region.c **** #define EU868_DL_CHANNEL_REQ( )                    EU868_CASE { return RegionEU868DlChannelReq( dlC
 323:../../../../../../Middlewares/Third_Party/LoRaWAN/Mac/region/Region.c **** #define EU868_ALTERNATE_DR( )                      EU868_CASE { return RegionEU868AlternateDr( curr
 324:../../../../../../Middlewares/Third_Party/LoRaWAN/Mac/region/Region.c **** #define EU868_CALC_BACKOFF( )                      EU868_CASE { RegionEU868CalcBackOff( calcBackOff
 325:../../../../../../Middlewares/Third_Party/LoRaWAN/Mac/region/Region.c **** #define EU868_NEXT_CHANNEL( )                      EU868_CASE { return RegionEU868NextChannel( next
 326:../../../../../../Middlewares/Third_Party/LoRaWAN/Mac/region/Region.c **** #define EU868_CHANNEL_ADD( )                       EU868_CASE { return RegionEU868ChannelAdd( chann
 327:../../../../../../Middlewares/Third_Party/LoRaWAN/Mac/region/Region.c **** #define EU868_CHANNEL_REMOVE( )                    EU868_CASE { return RegionEU868ChannelsRemove( c
 328:../../../../../../Middlewares/Third_Party/LoRaWAN/Mac/region/Region.c **** #define EU868_SET_CONTINUOUS_WAVE( )               EU868_CASE { RegionEU868SetContinuousWave( conti
 329:../../../../../../Middlewares/Third_Party/LoRaWAN/Mac/region/Region.c **** #define EU868_APPLY_DR_OFFSET( )                   EU868_CASE { return RegionEU868ApplyDrOffset( do
 330:../../../../../../Middlewares/Third_Party/LoRaWAN/Mac/region/Region.c **** #define EU868_RX_BEACON_SETUP( )                   EU868_CASE { RegionEU868RxBeaconSetup( rxBeaconS
 331:../../../../../../Middlewares/Third_Party/LoRaWAN/Mac/region/Region.c **** #else
 332:../../../../../../Middlewares/Third_Party/LoRaWAN/Mac/region/Region.c **** #define EU868_IS_ACTIVE( )
 333:../../../../../../Middlewares/Third_Party/LoRaWAN/Mac/region/Region.c **** #define EU868_GET_PHY_PARAM( )
 334:../../../../../../Middlewares/Third_Party/LoRaWAN/Mac/region/Region.c **** #define EU868_SET_BAND_TX_DONE( )
 335:../../../../../../Middlewares/Third_Party/LoRaWAN/Mac/region/Region.c **** #define EU868_INIT_DEFAULTS( )
 336:../../../../../../Middlewares/Third_Party/LoRaWAN/Mac/region/Region.c **** #define EU868_GET_NVM_CTX( )
 337:../../../../../../Middlewares/Third_Party/LoRaWAN/Mac/region/Region.c **** #define EU868_VERIFY( )
 338:../../../../../../Middlewares/Third_Party/LoRaWAN/Mac/region/Region.c **** #define EU868_APPLY_CF_LIST( )
 339:../../../../../../Middlewares/Third_Party/LoRaWAN/Mac/region/Region.c **** #define EU868_CHAN_MASK_SET( )
 340:../../../../../../Middlewares/Third_Party/LoRaWAN/Mac/region/Region.c **** #define EU868_COMPUTE_RX_WINDOW_PARAMETERS( )
 341:../../../../../../Middlewares/Third_Party/LoRaWAN/Mac/region/Region.c **** #define EU868_RX_CONFIG( )
 342:../../../../../../Middlewares/Third_Party/LoRaWAN/Mac/region/Region.c **** #define EU868_TX_CONFIG( )
 343:../../../../../../Middlewares/Third_Party/LoRaWAN/Mac/region/Region.c **** #define EU868_LINK_ADR_REQ( )
 344:../../../../../../Middlewares/Third_Party/LoRaWAN/Mac/region/Region.c **** #define EU868_RX_PARAM_SETUP_REQ( )
 345:../../../../../../Middlewares/Third_Party/LoRaWAN/Mac/region/Region.c **** #define EU868_NEW_CHANNEL_REQ( )
 346:../../../../../../Middlewares/Third_Party/LoRaWAN/Mac/region/Region.c **** #define EU868_TX_PARAM_SETUP_REQ( )
 347:../../../../../../Middlewares/Third_Party/LoRaWAN/Mac/region/Region.c **** #define EU868_DL_CHANNEL_REQ( )
 348:../../../../../../Middlewares/Third_Party/LoRaWAN/Mac/region/Region.c **** #define EU868_ALTERNATE_DR( )
 349:../../../../../../Middlewares/Third_Party/LoRaWAN/Mac/region/Region.c **** #define EU868_CALC_BACKOFF( )
 350:../../../../../../Middlewares/Third_Party/LoRaWAN/Mac/region/Region.c **** #define EU868_NEXT_CHANNEL( )
 351:../../../../../../Middlewares/Third_Party/LoRaWAN/Mac/region/Region.c **** #define EU868_CHANNEL_ADD( )
 352:../../../../../../Middlewares/Third_Party/LoRaWAN/Mac/region/Region.c **** #define EU868_CHANNEL_REMOVE( )
 353:../../../../../../Middlewares/Third_Party/LoRaWAN/Mac/region/Region.c **** #define EU868_SET_CONTINUOUS_WAVE( )
 354:../../../../../../Middlewares/Third_Party/LoRaWAN/Mac/region/Region.c **** #define EU868_APPLY_DR_OFFSET( )
 355:../../../../../../Middlewares/Third_Party/LoRaWAN/Mac/region/Region.c **** #define EU868_RX_BEACON_SETUP( )
 356:../../../../../../Middlewares/Third_Party/LoRaWAN/Mac/region/Region.c **** #endif
 357:../../../../../../Middlewares/Third_Party/LoRaWAN/Mac/region/Region.c **** 
 358:../../../../../../Middlewares/Third_Party/LoRaWAN/Mac/region/Region.c **** #ifdef REGION_KR920
 359:../../../../../../Middlewares/Third_Party/LoRaWAN/Mac/region/Region.c **** #include "RegionKR920.h"
 360:../../../../../../Middlewares/Third_Party/LoRaWAN/Mac/region/Region.c **** #define KR920_CASE                                 case LORAMAC_REGION_KR920:
 361:../../../../../../Middlewares/Third_Party/LoRaWAN/Mac/region/Region.c **** #define KR920_IS_ACTIVE( )                         KR920_CASE { return true; }
 362:../../../../../../Middlewares/Third_Party/LoRaWAN/Mac/region/Region.c **** #define KR920_GET_PHY_PARAM( )                     KR920_CASE { return RegionKR920GetPhyParam( getP
 363:../../../../../../Middlewares/Third_Party/LoRaWAN/Mac/region/Region.c **** #define KR920_SET_BAND_TX_DONE( )                  KR920_CASE { RegionKR920SetBandTxDone( txDone );
 364:../../../../../../Middlewares/Third_Party/LoRaWAN/Mac/region/Region.c **** #define KR920_INIT_DEFAULTS( )                     KR920_CASE { RegionKR920InitDefaults( params ); 
 365:../../../../../../Middlewares/Third_Party/LoRaWAN/Mac/region/Region.c **** #define KR920_GET_NVM_CTX( )                       KR920_CASE { return RegionKR920GetNvmCtx( params
 366:../../../../../../Middlewares/Third_Party/LoRaWAN/Mac/region/Region.c **** #define KR920_VERIFY( )                            KR920_CASE { return RegionKR920Verify( verify, p
 367:../../../../../../Middlewares/Third_Party/LoRaWAN/Mac/region/Region.c **** #define KR920_APPLY_CF_LIST( )                     KR920_CASE { RegionKR920ApplyCFList( applyCFList
 368:../../../../../../Middlewares/Third_Party/LoRaWAN/Mac/region/Region.c **** #define KR920_CHAN_MASK_SET( )                     KR920_CASE { return RegionKR920ChanMaskSet( chan
 369:../../../../../../Middlewares/Third_Party/LoRaWAN/Mac/region/Region.c **** #define KR920_COMPUTE_RX_WINDOW_PARAMETERS( )      KR920_CASE { RegionKR920ComputeRxWindowParameter
 370:../../../../../../Middlewares/Third_Party/LoRaWAN/Mac/region/Region.c **** #define KR920_RX_CONFIG( )                         KR920_CASE { return RegionKR920RxConfig( rxConfi
 371:../../../../../../Middlewares/Third_Party/LoRaWAN/Mac/region/Region.c **** #define KR920_TX_CONFIG( )                         KR920_CASE { return RegionKR920TxConfig( txConfi
 372:../../../../../../Middlewares/Third_Party/LoRaWAN/Mac/region/Region.c **** #define KR920_LINK_ADR_REQ( )                      KR920_CASE { return RegionKR920LinkAdrReq( linkA
 373:../../../../../../Middlewares/Third_Party/LoRaWAN/Mac/region/Region.c **** #define KR920_RX_PARAM_SETUP_REQ( )                KR920_CASE { return RegionKR920RxParamSetupReq( 
ARM GAS  C:\Users\EBANO_~1\AppData\Local\Temp\ccOSDu2a.s 			page 8


 374:../../../../../../Middlewares/Third_Party/LoRaWAN/Mac/region/Region.c **** #define KR920_NEW_CHANNEL_REQ( )                   KR920_CASE { return RegionKR920NewChannelReq( ne
 375:../../../../../../Middlewares/Third_Party/LoRaWAN/Mac/region/Region.c **** #define KR920_TX_PARAM_SETUP_REQ( )                KR920_CASE { return RegionKR920TxParamSetupReq( 
 376:../../../../../../Middlewares/Third_Party/LoRaWAN/Mac/region/Region.c **** #define KR920_DL_CHANNEL_REQ( )                    KR920_CASE { return RegionKR920DlChannelReq( dlC
 377:../../../../../../Middlewares/Third_Party/LoRaWAN/Mac/region/Region.c **** #define KR920_ALTERNATE_DR( )                      KR920_CASE { return RegionKR920AlternateDr( curr
 378:../../../../../../Middlewares/Third_Party/LoRaWAN/Mac/region/Region.c **** #define KR920_CALC_BACKOFF( )                      KR920_CASE { RegionKR920CalcBackOff( calcBackOff
 379:../../../../../../Middlewares/Third_Party/LoRaWAN/Mac/region/Region.c **** #define KR920_NEXT_CHANNEL( )                      KR920_CASE { return RegionKR920NextChannel( next
 380:../../../../../../Middlewares/Third_Party/LoRaWAN/Mac/region/Region.c **** #define KR920_CHANNEL_ADD( )                       KR920_CASE { return RegionKR920ChannelAdd( chann
 381:../../../../../../Middlewares/Third_Party/LoRaWAN/Mac/region/Region.c **** #define KR920_CHANNEL_REMOVE( )                    KR920_CASE { return RegionKR920ChannelsRemove( c
 382:../../../../../../Middlewares/Third_Party/LoRaWAN/Mac/region/Region.c **** #define KR920_SET_CONTINUOUS_WAVE( )               KR920_CASE { RegionKR920SetContinuousWave( conti
 383:../../../../../../Middlewares/Third_Party/LoRaWAN/Mac/region/Region.c **** #define KR920_APPLY_DR_OFFSET( )                   KR920_CASE { return RegionKR920ApplyDrOffset( do
 384:../../../../../../Middlewares/Third_Party/LoRaWAN/Mac/region/Region.c **** #define KR920_RX_BEACON_SETUP( )                   KR920_CASE { RegionKR920RxBeaconSetup( rxBeaconS
 385:../../../../../../Middlewares/Third_Party/LoRaWAN/Mac/region/Region.c **** #else
 386:../../../../../../Middlewares/Third_Party/LoRaWAN/Mac/region/Region.c **** #define KR920_IS_ACTIVE( )
 387:../../../../../../Middlewares/Third_Party/LoRaWAN/Mac/region/Region.c **** #define KR920_GET_PHY_PARAM( )
 388:../../../../../../Middlewares/Third_Party/LoRaWAN/Mac/region/Region.c **** #define KR920_SET_BAND_TX_DONE( )
 389:../../../../../../Middlewares/Third_Party/LoRaWAN/Mac/region/Region.c **** #define KR920_INIT_DEFAULTS( )
 390:../../../../../../Middlewares/Third_Party/LoRaWAN/Mac/region/Region.c **** #define KR920_GET_NVM_CTX( )
 391:../../../../../../Middlewares/Third_Party/LoRaWAN/Mac/region/Region.c **** #define KR920_VERIFY( )
 392:../../../../../../Middlewares/Third_Party/LoRaWAN/Mac/region/Region.c **** #define KR920_APPLY_CF_LIST( )
 393:../../../../../../Middlewares/Third_Party/LoRaWAN/Mac/region/Region.c **** #define KR920_CHAN_MASK_SET( )
 394:../../../../../../Middlewares/Third_Party/LoRaWAN/Mac/region/Region.c **** #define KR920_COMPUTE_RX_WINDOW_PARAMETERS( )
 395:../../../../../../Middlewares/Third_Party/LoRaWAN/Mac/region/Region.c **** #define KR920_RX_CONFIG( )
 396:../../../../../../Middlewares/Third_Party/LoRaWAN/Mac/region/Region.c **** #define KR920_TX_CONFIG( )
 397:../../../../../../Middlewares/Third_Party/LoRaWAN/Mac/region/Region.c **** #define KR920_LINK_ADR_REQ( )
 398:../../../../../../Middlewares/Third_Party/LoRaWAN/Mac/region/Region.c **** #define KR920_RX_PARAM_SETUP_REQ( )
 399:../../../../../../Middlewares/Third_Party/LoRaWAN/Mac/region/Region.c **** #define KR920_NEW_CHANNEL_REQ( )
 400:../../../../../../Middlewares/Third_Party/LoRaWAN/Mac/region/Region.c **** #define KR920_TX_PARAM_SETUP_REQ( )
 401:../../../../../../Middlewares/Third_Party/LoRaWAN/Mac/region/Region.c **** #define KR920_DL_CHANNEL_REQ( )
 402:../../../../../../Middlewares/Third_Party/LoRaWAN/Mac/region/Region.c **** #define KR920_ALTERNATE_DR( )
 403:../../../../../../Middlewares/Third_Party/LoRaWAN/Mac/region/Region.c **** #define KR920_CALC_BACKOFF( )
 404:../../../../../../Middlewares/Third_Party/LoRaWAN/Mac/region/Region.c **** #define KR920_NEXT_CHANNEL( )
 405:../../../../../../Middlewares/Third_Party/LoRaWAN/Mac/region/Region.c **** #define KR920_CHANNEL_ADD( )
 406:../../../../../../Middlewares/Third_Party/LoRaWAN/Mac/region/Region.c **** #define KR920_CHANNEL_REMOVE( )
 407:../../../../../../Middlewares/Third_Party/LoRaWAN/Mac/region/Region.c **** #define KR920_SET_CONTINUOUS_WAVE( )
 408:../../../../../../Middlewares/Third_Party/LoRaWAN/Mac/region/Region.c **** #define KR920_APPLY_DR_OFFSET( )
 409:../../../../../../Middlewares/Third_Party/LoRaWAN/Mac/region/Region.c **** #define KR920_RX_BEACON_SETUP( )
 410:../../../../../../Middlewares/Third_Party/LoRaWAN/Mac/region/Region.c **** #endif
 411:../../../../../../Middlewares/Third_Party/LoRaWAN/Mac/region/Region.c **** 
 412:../../../../../../Middlewares/Third_Party/LoRaWAN/Mac/region/Region.c **** #ifdef REGION_IN865
 413:../../../../../../Middlewares/Third_Party/LoRaWAN/Mac/region/Region.c **** #include "RegionIN865.h"
 414:../../../../../../Middlewares/Third_Party/LoRaWAN/Mac/region/Region.c **** #define IN865_CASE                                 case LORAMAC_REGION_IN865:
 415:../../../../../../Middlewares/Third_Party/LoRaWAN/Mac/region/Region.c **** #define IN865_IS_ACTIVE( )                         IN865_CASE { return true; }
 416:../../../../../../Middlewares/Third_Party/LoRaWAN/Mac/region/Region.c **** #define IN865_GET_PHY_PARAM( )                     IN865_CASE { return RegionIN865GetPhyParam( getP
 417:../../../../../../Middlewares/Third_Party/LoRaWAN/Mac/region/Region.c **** #define IN865_SET_BAND_TX_DONE( )                  IN865_CASE { RegionIN865SetBandTxDone( txDone );
 418:../../../../../../Middlewares/Third_Party/LoRaWAN/Mac/region/Region.c **** #define IN865_INIT_DEFAULTS( )                     IN865_CASE { RegionIN865InitDefaults( params ); 
 419:../../../../../../Middlewares/Third_Party/LoRaWAN/Mac/region/Region.c **** #define IN865_GET_NVM_CTX( )                       IN865_CASE { return RegionIN865GetNvmCtx( params
 420:../../../../../../Middlewares/Third_Party/LoRaWAN/Mac/region/Region.c **** #define IN865_VERIFY( )                            IN865_CASE { return RegionIN865Verify( verify, p
 421:../../../../../../Middlewares/Third_Party/LoRaWAN/Mac/region/Region.c **** #define IN865_APPLY_CF_LIST( )                     IN865_CASE { RegionIN865ApplyCFList( applyCFList
 422:../../../../../../Middlewares/Third_Party/LoRaWAN/Mac/region/Region.c **** #define IN865_CHAN_MASK_SET( )                     IN865_CASE { return RegionIN865ChanMaskSet( chan
 423:../../../../../../Middlewares/Third_Party/LoRaWAN/Mac/region/Region.c **** #define IN865_COMPUTE_RX_WINDOW_PARAMETERS( )      IN865_CASE { RegionIN865ComputeRxWindowParameter
 424:../../../../../../Middlewares/Third_Party/LoRaWAN/Mac/region/Region.c **** #define IN865_RX_CONFIG( )                         IN865_CASE { return RegionIN865RxConfig( rxConfi
 425:../../../../../../Middlewares/Third_Party/LoRaWAN/Mac/region/Region.c **** #define IN865_TX_CONFIG( )                         IN865_CASE { return RegionIN865TxConfig( txConfi
 426:../../../../../../Middlewares/Third_Party/LoRaWAN/Mac/region/Region.c **** #define IN865_LINK_ADR_REQ( )                      IN865_CASE { return RegionIN865LinkAdrReq( linkA
 427:../../../../../../Middlewares/Third_Party/LoRaWAN/Mac/region/Region.c **** #define IN865_RX_PARAM_SETUP_REQ( )                IN865_CASE { return RegionIN865RxParamSetupReq( 
 428:../../../../../../Middlewares/Third_Party/LoRaWAN/Mac/region/Region.c **** #define IN865_NEW_CHANNEL_REQ( )                   IN865_CASE { return RegionIN865NewChannelReq( ne
 429:../../../../../../Middlewares/Third_Party/LoRaWAN/Mac/region/Region.c **** #define IN865_TX_PARAM_SETUP_REQ( )                IN865_CASE { return RegionIN865TxParamSetupReq( 
 430:../../../../../../Middlewares/Third_Party/LoRaWAN/Mac/region/Region.c **** #define IN865_DL_CHANNEL_REQ( )                    IN865_CASE { return RegionIN865DlChannelReq( dlC
ARM GAS  C:\Users\EBANO_~1\AppData\Local\Temp\ccOSDu2a.s 			page 9


 431:../../../../../../Middlewares/Third_Party/LoRaWAN/Mac/region/Region.c **** #define IN865_ALTERNATE_DR( )                      IN865_CASE { return RegionIN865AlternateDr( curr
 432:../../../../../../Middlewares/Third_Party/LoRaWAN/Mac/region/Region.c **** #define IN865_CALC_BACKOFF( )                      IN865_CASE { RegionIN865CalcBackOff( calcBackOff
 433:../../../../../../Middlewares/Third_Party/LoRaWAN/Mac/region/Region.c **** #define IN865_NEXT_CHANNEL( )                      IN865_CASE { return RegionIN865NextChannel( next
 434:../../../../../../Middlewares/Third_Party/LoRaWAN/Mac/region/Region.c **** #define IN865_CHANNEL_ADD( )                       IN865_CASE { return RegionIN865ChannelAdd( chann
 435:../../../../../../Middlewares/Third_Party/LoRaWAN/Mac/region/Region.c **** #define IN865_CHANNEL_REMOVE( )                    IN865_CASE { return RegionIN865ChannelsRemove( c
 436:../../../../../../Middlewares/Third_Party/LoRaWAN/Mac/region/Region.c **** #define IN865_SET_CONTINUOUS_WAVE( )               IN865_CASE { RegionIN865SetContinuousWave( conti
 437:../../../../../../Middlewares/Third_Party/LoRaWAN/Mac/region/Region.c **** #define IN865_APPLY_DR_OFFSET( )                   IN865_CASE { return RegionIN865ApplyDrOffset( do
 438:../../../../../../Middlewares/Third_Party/LoRaWAN/Mac/region/Region.c **** #define IN865_RX_BEACON_SETUP( )                   IN865_CASE { RegionIN865RxBeaconSetup( rxBeaconS
 439:../../../../../../Middlewares/Third_Party/LoRaWAN/Mac/region/Region.c **** #else
 440:../../../../../../Middlewares/Third_Party/LoRaWAN/Mac/region/Region.c **** #define IN865_IS_ACTIVE( )
 441:../../../../../../Middlewares/Third_Party/LoRaWAN/Mac/region/Region.c **** #define IN865_GET_PHY_PARAM( )
 442:../../../../../../Middlewares/Third_Party/LoRaWAN/Mac/region/Region.c **** #define IN865_SET_BAND_TX_DONE( )
 443:../../../../../../Middlewares/Third_Party/LoRaWAN/Mac/region/Region.c **** #define IN865_INIT_DEFAULTS( )
 444:../../../../../../Middlewares/Third_Party/LoRaWAN/Mac/region/Region.c **** #define IN865_GET_NVM_CTX( )
 445:../../../../../../Middlewares/Third_Party/LoRaWAN/Mac/region/Region.c **** #define IN865_VERIFY( )
 446:../../../../../../Middlewares/Third_Party/LoRaWAN/Mac/region/Region.c **** #define IN865_APPLY_CF_LIST( )
 447:../../../../../../Middlewares/Third_Party/LoRaWAN/Mac/region/Region.c **** #define IN865_CHAN_MASK_SET( )
 448:../../../../../../Middlewares/Third_Party/LoRaWAN/Mac/region/Region.c **** #define IN865_COMPUTE_RX_WINDOW_PARAMETERS( )
 449:../../../../../../Middlewares/Third_Party/LoRaWAN/Mac/region/Region.c **** #define IN865_RX_CONFIG( )
 450:../../../../../../Middlewares/Third_Party/LoRaWAN/Mac/region/Region.c **** #define IN865_TX_CONFIG( )
 451:../../../../../../Middlewares/Third_Party/LoRaWAN/Mac/region/Region.c **** #define IN865_LINK_ADR_REQ( )
 452:../../../../../../Middlewares/Third_Party/LoRaWAN/Mac/region/Region.c **** #define IN865_RX_PARAM_SETUP_REQ( )
 453:../../../../../../Middlewares/Third_Party/LoRaWAN/Mac/region/Region.c **** #define IN865_NEW_CHANNEL_REQ( )
 454:../../../../../../Middlewares/Third_Party/LoRaWAN/Mac/region/Region.c **** #define IN865_TX_PARAM_SETUP_REQ( )
 455:../../../../../../Middlewares/Third_Party/LoRaWAN/Mac/region/Region.c **** #define IN865_DL_CHANNEL_REQ( )
 456:../../../../../../Middlewares/Third_Party/LoRaWAN/Mac/region/Region.c **** #define IN865_ALTERNATE_DR( )
 457:../../../../../../Middlewares/Third_Party/LoRaWAN/Mac/region/Region.c **** #define IN865_CALC_BACKOFF( )
 458:../../../../../../Middlewares/Third_Party/LoRaWAN/Mac/region/Region.c **** #define IN865_NEXT_CHANNEL( )
 459:../../../../../../Middlewares/Third_Party/LoRaWAN/Mac/region/Region.c **** #define IN865_CHANNEL_ADD( )
 460:../../../../../../Middlewares/Third_Party/LoRaWAN/Mac/region/Region.c **** #define IN865_CHANNEL_REMOVE( )
 461:../../../../../../Middlewares/Third_Party/LoRaWAN/Mac/region/Region.c **** #define IN865_SET_CONTINUOUS_WAVE( )
 462:../../../../../../Middlewares/Third_Party/LoRaWAN/Mac/region/Region.c **** #define IN865_APPLY_DR_OFFSET( )
 463:../../../../../../Middlewares/Third_Party/LoRaWAN/Mac/region/Region.c **** #define IN865_RX_BEACON_SETUP( )
 464:../../../../../../Middlewares/Third_Party/LoRaWAN/Mac/region/Region.c **** #endif
 465:../../../../../../Middlewares/Third_Party/LoRaWAN/Mac/region/Region.c **** 
 466:../../../../../../Middlewares/Third_Party/LoRaWAN/Mac/region/Region.c **** #ifdef REGION_US915
 467:../../../../../../Middlewares/Third_Party/LoRaWAN/Mac/region/Region.c **** #include "RegionUS915.h"
 468:../../../../../../Middlewares/Third_Party/LoRaWAN/Mac/region/Region.c **** #define US915_CASE                                 case LORAMAC_REGION_US915:
 469:../../../../../../Middlewares/Third_Party/LoRaWAN/Mac/region/Region.c **** #define US915_IS_ACTIVE( )                         US915_CASE { return true; }
 470:../../../../../../Middlewares/Third_Party/LoRaWAN/Mac/region/Region.c **** #define US915_GET_PHY_PARAM( )                     US915_CASE { return RegionUS915GetPhyParam( getP
 471:../../../../../../Middlewares/Third_Party/LoRaWAN/Mac/region/Region.c **** #define US915_SET_BAND_TX_DONE( )                  US915_CASE { RegionUS915SetBandTxDone( txDone );
 472:../../../../../../Middlewares/Third_Party/LoRaWAN/Mac/region/Region.c **** #define US915_INIT_DEFAULTS( )                     US915_CASE { RegionUS915InitDefaults( params ); 
 473:../../../../../../Middlewares/Third_Party/LoRaWAN/Mac/region/Region.c **** #define US915_GET_NVM_CTX( )                       US915_CASE { return RegionUS915GetNvmCtx( params
 474:../../../../../../Middlewares/Third_Party/LoRaWAN/Mac/region/Region.c **** #define US915_VERIFY( )                            US915_CASE { return RegionUS915Verify( verify, p
 475:../../../../../../Middlewares/Third_Party/LoRaWAN/Mac/region/Region.c **** #define US915_APPLY_CF_LIST( )                     US915_CASE { RegionUS915ApplyCFList( applyCFList
 476:../../../../../../Middlewares/Third_Party/LoRaWAN/Mac/region/Region.c **** #define US915_CHAN_MASK_SET( )                     US915_CASE { return RegionUS915ChanMaskSet( chan
 477:../../../../../../Middlewares/Third_Party/LoRaWAN/Mac/region/Region.c **** #define US915_COMPUTE_RX_WINDOW_PARAMETERS( )      US915_CASE { RegionUS915ComputeRxWindowParameter
 478:../../../../../../Middlewares/Third_Party/LoRaWAN/Mac/region/Region.c **** #define US915_RX_CONFIG( )                         US915_CASE { return RegionUS915RxConfig( rxConfi
 479:../../../../../../Middlewares/Third_Party/LoRaWAN/Mac/region/Region.c **** #define US915_TX_CONFIG( )                         US915_CASE { return RegionUS915TxConfig( txConfi
 480:../../../../../../Middlewares/Third_Party/LoRaWAN/Mac/region/Region.c **** #define US915_LINK_ADR_REQ( )                      US915_CASE { return RegionUS915LinkAdrReq( linkA
 481:../../../../../../Middlewares/Third_Party/LoRaWAN/Mac/region/Region.c **** #define US915_RX_PARAM_SETUP_REQ( )                US915_CASE { return RegionUS915RxParamSetupReq( 
 482:../../../../../../Middlewares/Third_Party/LoRaWAN/Mac/region/Region.c **** #define US915_NEW_CHANNEL_REQ( )                   US915_CASE { return RegionUS915NewChannelReq( ne
 483:../../../../../../Middlewares/Third_Party/LoRaWAN/Mac/region/Region.c **** #define US915_TX_PARAM_SETUP_REQ( )                US915_CASE { return RegionUS915TxParamSetupReq( 
 484:../../../../../../Middlewares/Third_Party/LoRaWAN/Mac/region/Region.c **** #define US915_DL_CHANNEL_REQ( )                    US915_CASE { return RegionUS915DlChannelReq( dlC
 485:../../../../../../Middlewares/Third_Party/LoRaWAN/Mac/region/Region.c **** #define US915_ALTERNATE_DR( )                      US915_CASE { return RegionUS915AlternateDr( curr
 486:../../../../../../Middlewares/Third_Party/LoRaWAN/Mac/region/Region.c **** #define US915_CALC_BACKOFF( )                      US915_CASE { RegionUS915CalcBackOff( calcBackOff
 487:../../../../../../Middlewares/Third_Party/LoRaWAN/Mac/region/Region.c **** #define US915_NEXT_CHANNEL( )                      US915_CASE { return RegionUS915NextChannel( next
ARM GAS  C:\Users\EBANO_~1\AppData\Local\Temp\ccOSDu2a.s 			page 10


 488:../../../../../../Middlewares/Third_Party/LoRaWAN/Mac/region/Region.c **** #define US915_CHANNEL_ADD( )                       US915_CASE { return RegionUS915ChannelAdd( chann
 489:../../../../../../Middlewares/Third_Party/LoRaWAN/Mac/region/Region.c **** #define US915_CHANNEL_REMOVE( )                    US915_CASE { return RegionUS915ChannelsRemove( c
 490:../../../../../../Middlewares/Third_Party/LoRaWAN/Mac/region/Region.c **** #define US915_SET_CONTINUOUS_WAVE( )               US915_CASE { RegionUS915SetContinuousWave( conti
 491:../../../../../../Middlewares/Third_Party/LoRaWAN/Mac/region/Region.c **** #define US915_APPLY_DR_OFFSET( )                   US915_CASE { return RegionUS915ApplyDrOffset( do
 492:../../../../../../Middlewares/Third_Party/LoRaWAN/Mac/region/Region.c **** #define US915_RX_BEACON_SETUP( )                   US915_CASE { RegionUS915RxBeaconSetup( rxBeaconS
 493:../../../../../../Middlewares/Third_Party/LoRaWAN/Mac/region/Region.c **** #else
 494:../../../../../../Middlewares/Third_Party/LoRaWAN/Mac/region/Region.c **** #define US915_IS_ACTIVE( )
 495:../../../../../../Middlewares/Third_Party/LoRaWAN/Mac/region/Region.c **** #define US915_GET_PHY_PARAM( )
 496:../../../../../../Middlewares/Third_Party/LoRaWAN/Mac/region/Region.c **** #define US915_SET_BAND_TX_DONE( )
 497:../../../../../../Middlewares/Third_Party/LoRaWAN/Mac/region/Region.c **** #define US915_INIT_DEFAULTS( )
 498:../../../../../../Middlewares/Third_Party/LoRaWAN/Mac/region/Region.c **** #define US915_GET_NVM_CTX( )
 499:../../../../../../Middlewares/Third_Party/LoRaWAN/Mac/region/Region.c **** #define US915_VERIFY( )
 500:../../../../../../Middlewares/Third_Party/LoRaWAN/Mac/region/Region.c **** #define US915_APPLY_CF_LIST( )
 501:../../../../../../Middlewares/Third_Party/LoRaWAN/Mac/region/Region.c **** #define US915_CHAN_MASK_SET( )
 502:../../../../../../Middlewares/Third_Party/LoRaWAN/Mac/region/Region.c **** #define US915_COMPUTE_RX_WINDOW_PARAMETERS( )
 503:../../../../../../Middlewares/Third_Party/LoRaWAN/Mac/region/Region.c **** #define US915_RX_CONFIG( )
 504:../../../../../../Middlewares/Third_Party/LoRaWAN/Mac/region/Region.c **** #define US915_TX_CONFIG( )
 505:../../../../../../Middlewares/Third_Party/LoRaWAN/Mac/region/Region.c **** #define US915_LINK_ADR_REQ( )
 506:../../../../../../Middlewares/Third_Party/LoRaWAN/Mac/region/Region.c **** #define US915_RX_PARAM_SETUP_REQ( )
 507:../../../../../../Middlewares/Third_Party/LoRaWAN/Mac/region/Region.c **** #define US915_NEW_CHANNEL_REQ( )
 508:../../../../../../Middlewares/Third_Party/LoRaWAN/Mac/region/Region.c **** #define US915_TX_PARAM_SETUP_REQ( )
 509:../../../../../../Middlewares/Third_Party/LoRaWAN/Mac/region/Region.c **** #define US915_DL_CHANNEL_REQ( )
 510:../../../../../../Middlewares/Third_Party/LoRaWAN/Mac/region/Region.c **** #define US915_ALTERNATE_DR( )
 511:../../../../../../Middlewares/Third_Party/LoRaWAN/Mac/region/Region.c **** #define US915_CALC_BACKOFF( )
 512:../../../../../../Middlewares/Third_Party/LoRaWAN/Mac/region/Region.c **** #define US915_NEXT_CHANNEL( )
 513:../../../../../../Middlewares/Third_Party/LoRaWAN/Mac/region/Region.c **** #define US915_CHANNEL_ADD( )
 514:../../../../../../Middlewares/Third_Party/LoRaWAN/Mac/region/Region.c **** #define US915_CHANNEL_REMOVE( )
 515:../../../../../../Middlewares/Third_Party/LoRaWAN/Mac/region/Region.c **** #define US915_SET_CONTINUOUS_WAVE( )
 516:../../../../../../Middlewares/Third_Party/LoRaWAN/Mac/region/Region.c **** #define US915_APPLY_DR_OFFSET( )
 517:../../../../../../Middlewares/Third_Party/LoRaWAN/Mac/region/Region.c **** #define US915_RX_BEACON_SETUP( )
 518:../../../../../../Middlewares/Third_Party/LoRaWAN/Mac/region/Region.c **** #endif
 519:../../../../../../Middlewares/Third_Party/LoRaWAN/Mac/region/Region.c **** 
 520:../../../../../../Middlewares/Third_Party/LoRaWAN/Mac/region/Region.c **** #ifdef REGION_RU864
 521:../../../../../../Middlewares/Third_Party/LoRaWAN/Mac/region/Region.c **** #include "RegionRU864.h"
 522:../../../../../../Middlewares/Third_Party/LoRaWAN/Mac/region/Region.c **** #define RU864_CASE                                 case LORAMAC_REGION_RU864:
 523:../../../../../../Middlewares/Third_Party/LoRaWAN/Mac/region/Region.c **** #define RU864_IS_ACTIVE( )                         RU864_CASE { return true; }
 524:../../../../../../Middlewares/Third_Party/LoRaWAN/Mac/region/Region.c **** #define RU864_GET_PHY_PARAM( )                     RU864_CASE { return RegionRU864GetPhyParam( getP
 525:../../../../../../Middlewares/Third_Party/LoRaWAN/Mac/region/Region.c **** #define RU864_SET_BAND_TX_DONE( )                  RU864_CASE { RegionRU864SetBandTxDone( txDone );
 526:../../../../../../Middlewares/Third_Party/LoRaWAN/Mac/region/Region.c **** #define RU864_INIT_DEFAULTS( )                     RU864_CASE { RegionRU864InitDefaults( params ); 
 527:../../../../../../Middlewares/Third_Party/LoRaWAN/Mac/region/Region.c **** #define RU864_GET_NVM_CTX( )                       RU864_CASE { return RegionRU864GetNvmCtx( params
 528:../../../../../../Middlewares/Third_Party/LoRaWAN/Mac/region/Region.c **** #define RU864_VERIFY( )                            RU864_CASE { return RegionRU864Verify( verify, p
 529:../../../../../../Middlewares/Third_Party/LoRaWAN/Mac/region/Region.c **** #define RU864_APPLY_CF_LIST( )                     RU864_CASE { RegionRU864ApplyCFList( applyCFList
 530:../../../../../../Middlewares/Third_Party/LoRaWAN/Mac/region/Region.c **** #define RU864_CHAN_MASK_SET( )                     RU864_CASE { return RegionRU864ChanMaskSet( chan
 531:../../../../../../Middlewares/Third_Party/LoRaWAN/Mac/region/Region.c **** #define RU864_COMPUTE_RX_WINDOW_PARAMETERS( )      RU864_CASE { RegionRU864ComputeRxWindowParameter
 532:../../../../../../Middlewares/Third_Party/LoRaWAN/Mac/region/Region.c **** #define RU864_RX_CONFIG( )                         RU864_CASE { return RegionRU864RxConfig( rxConfi
 533:../../../../../../Middlewares/Third_Party/LoRaWAN/Mac/region/Region.c **** #define RU864_TX_CONFIG( )                         RU864_CASE { return RegionRU864TxConfig( txConfi
 534:../../../../../../Middlewares/Third_Party/LoRaWAN/Mac/region/Region.c **** #define RU864_LINK_ADR_REQ( )                      RU864_CASE { return RegionRU864LinkAdrReq( linkA
 535:../../../../../../Middlewares/Third_Party/LoRaWAN/Mac/region/Region.c **** #define RU864_RX_PARAM_SETUP_REQ( )                RU864_CASE { return RegionRU864RxParamSetupReq( 
 536:../../../../../../Middlewares/Third_Party/LoRaWAN/Mac/region/Region.c **** #define RU864_NEW_CHANNEL_REQ( )                   RU864_CASE { return RegionRU864NewChannelReq( ne
 537:../../../../../../Middlewares/Third_Party/LoRaWAN/Mac/region/Region.c **** #define RU864_TX_PARAM_SETUP_REQ( )                RU864_CASE { return RegionRU864TxParamSetupReq( 
 538:../../../../../../Middlewares/Third_Party/LoRaWAN/Mac/region/Region.c **** #define RU864_DL_CHANNEL_REQ( )                    RU864_CASE { return RegionRU864DlChannelReq( dlC
 539:../../../../../../Middlewares/Third_Party/LoRaWAN/Mac/region/Region.c **** #define RU864_ALTERNATE_DR( )                      RU864_CASE { return RegionRU864AlternateDr( curr
 540:../../../../../../Middlewares/Third_Party/LoRaWAN/Mac/region/Region.c **** #define RU864_CALC_BACKOFF( )                      RU864_CASE { RegionRU864CalcBackOff( calcBackOff
 541:../../../../../../Middlewares/Third_Party/LoRaWAN/Mac/region/Region.c **** #define RU864_NEXT_CHANNEL( )                      RU864_CASE { return RegionRU864NextChannel( next
 542:../../../../../../Middlewares/Third_Party/LoRaWAN/Mac/region/Region.c **** #define RU864_CHANNEL_ADD( )                       RU864_CASE { return RegionRU864ChannelAdd( chann
 543:../../../../../../Middlewares/Third_Party/LoRaWAN/Mac/region/Region.c **** #define RU864_CHANNEL_REMOVE( )                    RU864_CASE { return RegionRU864ChannelsRemove( c
 544:../../../../../../Middlewares/Third_Party/LoRaWAN/Mac/region/Region.c **** #define RU864_SET_CONTINUOUS_WAVE( )               RU864_CASE { RegionRU864SetContinuousWave( conti
ARM GAS  C:\Users\EBANO_~1\AppData\Local\Temp\ccOSDu2a.s 			page 11


 545:../../../../../../Middlewares/Third_Party/LoRaWAN/Mac/region/Region.c **** #define RU864_APPLY_DR_OFFSET( )                   RU864_CASE { return RegionRU864ApplyDrOffset( do
 546:../../../../../../Middlewares/Third_Party/LoRaWAN/Mac/region/Region.c **** #define RU864_RX_BEACON_SETUP( )                   RU864_CASE { RegionRU864RxBeaconSetup( rxBeaconS
 547:../../../../../../Middlewares/Third_Party/LoRaWAN/Mac/region/Region.c **** #else
 548:../../../../../../Middlewares/Third_Party/LoRaWAN/Mac/region/Region.c **** #define RU864_IS_ACTIVE( )
 549:../../../../../../Middlewares/Third_Party/LoRaWAN/Mac/region/Region.c **** #define RU864_GET_PHY_PARAM( )
 550:../../../../../../Middlewares/Third_Party/LoRaWAN/Mac/region/Region.c **** #define RU864_SET_BAND_TX_DONE( )
 551:../../../../../../Middlewares/Third_Party/LoRaWAN/Mac/region/Region.c **** #define RU864_INIT_DEFAULTS( )
 552:../../../../../../Middlewares/Third_Party/LoRaWAN/Mac/region/Region.c **** #define RU864_GET_NVM_CTX( )
 553:../../../../../../Middlewares/Third_Party/LoRaWAN/Mac/region/Region.c **** #define RU864_VERIFY( )
 554:../../../../../../Middlewares/Third_Party/LoRaWAN/Mac/region/Region.c **** #define RU864_APPLY_CF_LIST( )
 555:../../../../../../Middlewares/Third_Party/LoRaWAN/Mac/region/Region.c **** #define RU864_CHAN_MASK_SET( )
 556:../../../../../../Middlewares/Third_Party/LoRaWAN/Mac/region/Region.c **** #define RU864_COMPUTE_RX_WINDOW_PARAMETERS( )
 557:../../../../../../Middlewares/Third_Party/LoRaWAN/Mac/region/Region.c **** #define RU864_RX_CONFIG( )
 558:../../../../../../Middlewares/Third_Party/LoRaWAN/Mac/region/Region.c **** #define RU864_TX_CONFIG( )
 559:../../../../../../Middlewares/Third_Party/LoRaWAN/Mac/region/Region.c **** #define RU864_LINK_ADR_REQ( )
 560:../../../../../../Middlewares/Third_Party/LoRaWAN/Mac/region/Region.c **** #define RU864_RX_PARAM_SETUP_REQ( )
 561:../../../../../../Middlewares/Third_Party/LoRaWAN/Mac/region/Region.c **** #define RU864_NEW_CHANNEL_REQ( )
 562:../../../../../../Middlewares/Third_Party/LoRaWAN/Mac/region/Region.c **** #define RU864_TX_PARAM_SETUP_REQ( )
 563:../../../../../../Middlewares/Third_Party/LoRaWAN/Mac/region/Region.c **** #define RU864_DL_CHANNEL_REQ( )
 564:../../../../../../Middlewares/Third_Party/LoRaWAN/Mac/region/Region.c **** #define RU864_ALTERNATE_DR( )
 565:../../../../../../Middlewares/Third_Party/LoRaWAN/Mac/region/Region.c **** #define RU864_CALC_BACKOFF( )
 566:../../../../../../Middlewares/Third_Party/LoRaWAN/Mac/region/Region.c **** #define RU864_NEXT_CHANNEL( )
 567:../../../../../../Middlewares/Third_Party/LoRaWAN/Mac/region/Region.c **** #define RU864_CHANNEL_ADD( )
 568:../../../../../../Middlewares/Third_Party/LoRaWAN/Mac/region/Region.c **** #define RU864_CHANNEL_REMOVE( )
 569:../../../../../../Middlewares/Third_Party/LoRaWAN/Mac/region/Region.c **** #define RU864_SET_CONTINUOUS_WAVE( )
 570:../../../../../../Middlewares/Third_Party/LoRaWAN/Mac/region/Region.c **** #define RU864_APPLY_DR_OFFSET( )
 571:../../../../../../Middlewares/Third_Party/LoRaWAN/Mac/region/Region.c **** #define RU864_RX_BEACON_SETUP( )
 572:../../../../../../Middlewares/Third_Party/LoRaWAN/Mac/region/Region.c **** #endif
 573:../../../../../../Middlewares/Third_Party/LoRaWAN/Mac/region/Region.c **** 
 574:../../../../../../Middlewares/Third_Party/LoRaWAN/Mac/region/Region.c **** bool RegionIsActive( LoRaMacRegion_t region )
 575:../../../../../../Middlewares/Third_Party/LoRaWAN/Mac/region/Region.c **** {
  27              		.loc 1 575 0
  28              		.cfi_startproc
  29              		@ args = 0, pretend = 0, frame = 0
  30              		@ frame_needed = 0, uses_anonymous_args = 0
  31              		@ link register save eliminated.
  32              	.LVL0:
 576:../../../../../../Middlewares/Third_Party/LoRaWAN/Mac/region/Region.c ****     switch( region )
 577:../../../../../../Middlewares/Third_Party/LoRaWAN/Mac/region/Region.c ****     {
 578:../../../../../../Middlewares/Third_Party/LoRaWAN/Mac/region/Region.c ****         AS923_IS_ACTIVE( );
 579:../../../../../../Middlewares/Third_Party/LoRaWAN/Mac/region/Region.c ****         AU915_IS_ACTIVE( );
 580:../../../../../../Middlewares/Third_Party/LoRaWAN/Mac/region/Region.c ****         CN470_IS_ACTIVE( );
 581:../../../../../../Middlewares/Third_Party/LoRaWAN/Mac/region/Region.c ****         CN779_IS_ACTIVE( );
 582:../../../../../../Middlewares/Third_Party/LoRaWAN/Mac/region/Region.c ****         EU433_IS_ACTIVE( );
 583:../../../../../../Middlewares/Third_Party/LoRaWAN/Mac/region/Region.c ****         EU868_IS_ACTIVE( );
 584:../../../../../../Middlewares/Third_Party/LoRaWAN/Mac/region/Region.c ****         KR920_IS_ACTIVE( );
 585:../../../../../../Middlewares/Third_Party/LoRaWAN/Mac/region/Region.c ****         IN865_IS_ACTIVE( );
 586:../../../../../../Middlewares/Third_Party/LoRaWAN/Mac/region/Region.c ****         US915_IS_ACTIVE( );
 587:../../../../../../Middlewares/Third_Party/LoRaWAN/Mac/region/Region.c ****         RU864_IS_ACTIVE( );
 588:../../../../../../Middlewares/Third_Party/LoRaWAN/Mac/region/Region.c ****         default:
 589:../../../../../../Middlewares/Third_Party/LoRaWAN/Mac/region/Region.c ****         {
 590:../../../../../../Middlewares/Third_Party/LoRaWAN/Mac/region/Region.c ****             return false;
  33              		.loc 1 590 0
  34 0000 0538     		subs	r0, r0, #5
  35              	.LVL1:
  36 0002 4342     		rsbs	r3, r0, #0
  37 0004 5841     		adcs	r0, r0, r3
ARM GAS  C:\Users\EBANO_~1\AppData\Local\Temp\ccOSDu2a.s 			page 12


 591:../../../../../../Middlewares/Third_Party/LoRaWAN/Mac/region/Region.c ****         }
 592:../../../../../../Middlewares/Third_Party/LoRaWAN/Mac/region/Region.c ****     }
 593:../../../../../../Middlewares/Third_Party/LoRaWAN/Mac/region/Region.c **** }
  38              		.loc 1 593 0
  39              		@ sp needed
  40 0006 7047     		bx	lr
  41              		.cfi_endproc
  42              	.LFE39:
  43              		.size	RegionIsActive, .-RegionIsActive
  44              		.section	.text.RegionGetPhyParam,"ax",%progbits
  45              		.align	1
  46              		.p2align 2,,3
  47              		.global	RegionGetPhyParam
  48              		.syntax unified
  49              		.code	16
  50              		.thumb_func
  51              		.fpu softvfp
  52              		.type	RegionGetPhyParam, %function
  53              	RegionGetPhyParam:
  54              	.LFB40:
 594:../../../../../../Middlewares/Third_Party/LoRaWAN/Mac/region/Region.c **** 
 595:../../../../../../Middlewares/Third_Party/LoRaWAN/Mac/region/Region.c **** PhyParam_t RegionGetPhyParam( LoRaMacRegion_t region, GetPhyParams_t* getPhy )
 596:../../../../../../Middlewares/Third_Party/LoRaWAN/Mac/region/Region.c **** {
  55              		.loc 1 596 0
  56              		.cfi_startproc
  57              		@ args = 0, pretend = 0, frame = 8
  58              		@ frame_needed = 0, uses_anonymous_args = 0
  59              	.LVL2:
  60 0000 00B5     		push	{lr}
  61              	.LCFI0:
  62              		.cfi_def_cfa_offset 4
  63              		.cfi_offset 14, -4
  64 0002 83B0     		sub	sp, sp, #12
  65              	.LCFI1:
  66              		.cfi_def_cfa_offset 16
 597:../../../../../../Middlewares/Third_Party/LoRaWAN/Mac/region/Region.c ****     PhyParam_t phyParam = { 0 };
 598:../../../../../../Middlewares/Third_Party/LoRaWAN/Mac/region/Region.c ****     switch( region )
  67              		.loc 1 598 0
  68 0004 0528     		cmp	r0, #5
  69 0006 04D0     		beq	.L11
 599:../../../../../../Middlewares/Third_Party/LoRaWAN/Mac/region/Region.c ****     {
 600:../../../../../../Middlewares/Third_Party/LoRaWAN/Mac/region/Region.c ****         AS923_GET_PHY_PARAM( );
 601:../../../../../../Middlewares/Third_Party/LoRaWAN/Mac/region/Region.c ****         AU915_GET_PHY_PARAM( );
 602:../../../../../../Middlewares/Third_Party/LoRaWAN/Mac/region/Region.c ****         CN470_GET_PHY_PARAM( );
 603:../../../../../../Middlewares/Third_Party/LoRaWAN/Mac/region/Region.c ****         CN779_GET_PHY_PARAM( );
 604:../../../../../../Middlewares/Third_Party/LoRaWAN/Mac/region/Region.c ****         EU433_GET_PHY_PARAM( );
 605:../../../../../../Middlewares/Third_Party/LoRaWAN/Mac/region/Region.c ****         EU868_GET_PHY_PARAM( );
 606:../../../../../../Middlewares/Third_Party/LoRaWAN/Mac/region/Region.c ****         KR920_GET_PHY_PARAM( );
 607:../../../../../../Middlewares/Third_Party/LoRaWAN/Mac/region/Region.c ****         IN865_GET_PHY_PARAM( );
 608:../../../../../../Middlewares/Third_Party/LoRaWAN/Mac/region/Region.c ****         US915_GET_PHY_PARAM( );
 609:../../../../../../Middlewares/Third_Party/LoRaWAN/Mac/region/Region.c ****         RU864_GET_PHY_PARAM( );
 610:../../../../../../Middlewares/Third_Party/LoRaWAN/Mac/region/Region.c ****         default:
 611:../../../../../../Middlewares/Third_Party/LoRaWAN/Mac/region/Region.c ****         {
 612:../../../../../../Middlewares/Third_Party/LoRaWAN/Mac/region/Region.c ****             return phyParam;
  70              		.loc 1 612 0
  71 0008 0023     		movs	r3, #0
  72 000a 0193     		str	r3, [sp, #4]
ARM GAS  C:\Users\EBANO_~1\AppData\Local\Temp\ccOSDu2a.s 			page 13


  73 000c 0198     		ldr	r0, [sp, #4]
  74              	.LVL3:
  75              	.L9:
 613:../../../../../../Middlewares/Third_Party/LoRaWAN/Mac/region/Region.c ****         }
 614:../../../../../../Middlewares/Third_Party/LoRaWAN/Mac/region/Region.c ****     }
 615:../../../../../../Middlewares/Third_Party/LoRaWAN/Mac/region/Region.c **** }
  76              		.loc 1 615 0
  77 000e 03B0     		add	sp, sp, #12
  78              		@ sp needed
  79 0010 00BD     		pop	{pc}
  80              	.LVL4:
  81              	.L11:
 605:../../../../../../Middlewares/Third_Party/LoRaWAN/Mac/region/Region.c ****         KR920_GET_PHY_PARAM( );
  82              		.loc 1 605 0
  83 0012 0800     		movs	r0, r1
  84              	.LVL5:
  85 0014 FFF7FEFF 		bl	RegionEU868GetPhyParam
  86              	.LVL6:
  87 0018 0190     		str	r0, [sp, #4]
  88 001a F8E7     		b	.L9
  89              		.cfi_endproc
  90              	.LFE40:
  91              		.size	RegionGetPhyParam, .-RegionGetPhyParam
  92              		.section	.text.RegionSetBandTxDone,"ax",%progbits
  93              		.align	1
  94              		.p2align 2,,3
  95              		.global	RegionSetBandTxDone
  96              		.syntax unified
  97              		.code	16
  98              		.thumb_func
  99              		.fpu softvfp
 100              		.type	RegionSetBandTxDone, %function
 101              	RegionSetBandTxDone:
 102              	.LFB41:
 616:../../../../../../Middlewares/Third_Party/LoRaWAN/Mac/region/Region.c **** 
 617:../../../../../../Middlewares/Third_Party/LoRaWAN/Mac/region/Region.c **** void RegionSetBandTxDone( LoRaMacRegion_t region, SetBandTxDoneParams_t* txDone )
 618:../../../../../../Middlewares/Third_Party/LoRaWAN/Mac/region/Region.c **** {
 103              		.loc 1 618 0
 104              		.cfi_startproc
 105              		@ args = 0, pretend = 0, frame = 0
 106              		@ frame_needed = 0, uses_anonymous_args = 0
 107              	.LVL7:
 108 0000 10B5     		push	{r4, lr}
 109              	.LCFI2:
 110              		.cfi_def_cfa_offset 8
 111              		.cfi_offset 4, -8
 112              		.cfi_offset 14, -4
 619:../../../../../../Middlewares/Third_Party/LoRaWAN/Mac/region/Region.c ****     switch( region )
 113              		.loc 1 619 0
 114 0002 0528     		cmp	r0, #5
 115 0004 02D1     		bne	.L12
 620:../../../../../../Middlewares/Third_Party/LoRaWAN/Mac/region/Region.c ****     {
 621:../../../../../../Middlewares/Third_Party/LoRaWAN/Mac/region/Region.c ****         AS923_SET_BAND_TX_DONE( );
 622:../../../../../../Middlewares/Third_Party/LoRaWAN/Mac/region/Region.c ****         AU915_SET_BAND_TX_DONE( );
 623:../../../../../../Middlewares/Third_Party/LoRaWAN/Mac/region/Region.c ****         CN470_SET_BAND_TX_DONE( );
 624:../../../../../../Middlewares/Third_Party/LoRaWAN/Mac/region/Region.c ****         CN779_SET_BAND_TX_DONE( );
 625:../../../../../../Middlewares/Third_Party/LoRaWAN/Mac/region/Region.c ****         EU433_SET_BAND_TX_DONE( );
ARM GAS  C:\Users\EBANO_~1\AppData\Local\Temp\ccOSDu2a.s 			page 14


 626:../../../../../../Middlewares/Third_Party/LoRaWAN/Mac/region/Region.c ****         EU868_SET_BAND_TX_DONE( );
 116              		.loc 1 626 0
 117 0006 0800     		movs	r0, r1
 118              	.LVL8:
 119 0008 FFF7FEFF 		bl	RegionEU868SetBandTxDone
 120              	.LVL9:
 121              	.L12:
 627:../../../../../../Middlewares/Third_Party/LoRaWAN/Mac/region/Region.c ****         KR920_SET_BAND_TX_DONE( );
 628:../../../../../../Middlewares/Third_Party/LoRaWAN/Mac/region/Region.c ****         IN865_SET_BAND_TX_DONE( );
 629:../../../../../../Middlewares/Third_Party/LoRaWAN/Mac/region/Region.c ****         US915_SET_BAND_TX_DONE( );
 630:../../../../../../Middlewares/Third_Party/LoRaWAN/Mac/region/Region.c ****         RU864_SET_BAND_TX_DONE( );
 631:../../../../../../Middlewares/Third_Party/LoRaWAN/Mac/region/Region.c ****         default:
 632:../../../../../../Middlewares/Third_Party/LoRaWAN/Mac/region/Region.c ****         {
 633:../../../../../../Middlewares/Third_Party/LoRaWAN/Mac/region/Region.c ****             return;
 634:../../../../../../Middlewares/Third_Party/LoRaWAN/Mac/region/Region.c ****         }
 635:../../../../../../Middlewares/Third_Party/LoRaWAN/Mac/region/Region.c ****     }
 636:../../../../../../Middlewares/Third_Party/LoRaWAN/Mac/region/Region.c **** }
 122              		.loc 1 636 0
 123              		@ sp needed
 124 000c 10BD     		pop	{r4, pc}
 125              		.cfi_endproc
 126              	.LFE41:
 127              		.size	RegionSetBandTxDone, .-RegionSetBandTxDone
 128 000e C046     		.section	.text.RegionInitDefaults,"ax",%progbits
 129              		.align	1
 130              		.p2align 2,,3
 131              		.global	RegionInitDefaults
 132              		.syntax unified
 133              		.code	16
 134              		.thumb_func
 135              		.fpu softvfp
 136              		.type	RegionInitDefaults, %function
 137              	RegionInitDefaults:
 138              	.LFB42:
 637:../../../../../../Middlewares/Third_Party/LoRaWAN/Mac/region/Region.c **** 
 638:../../../../../../Middlewares/Third_Party/LoRaWAN/Mac/region/Region.c **** void RegionInitDefaults( LoRaMacRegion_t region, InitDefaultsParams_t* params )
 639:../../../../../../Middlewares/Third_Party/LoRaWAN/Mac/region/Region.c **** {
 139              		.loc 1 639 0
 140              		.cfi_startproc
 141              		@ args = 0, pretend = 0, frame = 0
 142              		@ frame_needed = 0, uses_anonymous_args = 0
 143              	.LVL10:
 144 0000 10B5     		push	{r4, lr}
 145              	.LCFI3:
 146              		.cfi_def_cfa_offset 8
 147              		.cfi_offset 4, -8
 148              		.cfi_offset 14, -4
 640:../../../../../../Middlewares/Third_Party/LoRaWAN/Mac/region/Region.c ****     switch( region )
 149              		.loc 1 640 0
 150 0002 0528     		cmp	r0, #5
 151 0004 02D1     		bne	.L15
 641:../../../../../../Middlewares/Third_Party/LoRaWAN/Mac/region/Region.c ****     {
 642:../../../../../../Middlewares/Third_Party/LoRaWAN/Mac/region/Region.c ****         AS923_INIT_DEFAULTS( );
 643:../../../../../../Middlewares/Third_Party/LoRaWAN/Mac/region/Region.c ****         AU915_INIT_DEFAULTS( );
 644:../../../../../../Middlewares/Third_Party/LoRaWAN/Mac/region/Region.c ****         CN470_INIT_DEFAULTS( );
 645:../../../../../../Middlewares/Third_Party/LoRaWAN/Mac/region/Region.c ****         CN779_INIT_DEFAULTS( );
 646:../../../../../../Middlewares/Third_Party/LoRaWAN/Mac/region/Region.c ****         EU433_INIT_DEFAULTS( );
ARM GAS  C:\Users\EBANO_~1\AppData\Local\Temp\ccOSDu2a.s 			page 15


 647:../../../../../../Middlewares/Third_Party/LoRaWAN/Mac/region/Region.c ****         EU868_INIT_DEFAULTS( );
 152              		.loc 1 647 0
 153 0006 0800     		movs	r0, r1
 154              	.LVL11:
 155 0008 FFF7FEFF 		bl	RegionEU868InitDefaults
 156              	.LVL12:
 157              	.L15:
 648:../../../../../../Middlewares/Third_Party/LoRaWAN/Mac/region/Region.c ****         KR920_INIT_DEFAULTS( );
 649:../../../../../../Middlewares/Third_Party/LoRaWAN/Mac/region/Region.c ****         IN865_INIT_DEFAULTS( );
 650:../../../../../../Middlewares/Third_Party/LoRaWAN/Mac/region/Region.c ****         US915_INIT_DEFAULTS( );
 651:../../../../../../Middlewares/Third_Party/LoRaWAN/Mac/region/Region.c ****         RU864_INIT_DEFAULTS( );
 652:../../../../../../Middlewares/Third_Party/LoRaWAN/Mac/region/Region.c ****         default:
 653:../../../../../../Middlewares/Third_Party/LoRaWAN/Mac/region/Region.c ****         {
 654:../../../../../../Middlewares/Third_Party/LoRaWAN/Mac/region/Region.c ****             break;
 655:../../../../../../Middlewares/Third_Party/LoRaWAN/Mac/region/Region.c ****         }
 656:../../../../../../Middlewares/Third_Party/LoRaWAN/Mac/region/Region.c ****     }
 657:../../../../../../Middlewares/Third_Party/LoRaWAN/Mac/region/Region.c **** }
 158              		.loc 1 657 0
 159              		@ sp needed
 160 000c 10BD     		pop	{r4, pc}
 161              		.cfi_endproc
 162              	.LFE42:
 163              		.size	RegionInitDefaults, .-RegionInitDefaults
 164 000e C046     		.section	.text.RegionGetNvmCtx,"ax",%progbits
 165              		.align	1
 166              		.p2align 2,,3
 167              		.global	RegionGetNvmCtx
 168              		.syntax unified
 169              		.code	16
 170              		.thumb_func
 171              		.fpu softvfp
 172              		.type	RegionGetNvmCtx, %function
 173              	RegionGetNvmCtx:
 174              	.LFB43:
 658:../../../../../../Middlewares/Third_Party/LoRaWAN/Mac/region/Region.c **** 
 659:../../../../../../Middlewares/Third_Party/LoRaWAN/Mac/region/Region.c **** void* RegionGetNvmCtx( LoRaMacRegion_t region, GetNvmCtxParams_t* params )
 660:../../../../../../Middlewares/Third_Party/LoRaWAN/Mac/region/Region.c **** {
 175              		.loc 1 660 0
 176              		.cfi_startproc
 177              		@ args = 0, pretend = 0, frame = 0
 178              		@ frame_needed = 0, uses_anonymous_args = 0
 179              	.LVL13:
 180 0000 10B5     		push	{r4, lr}
 181              	.LCFI4:
 182              		.cfi_def_cfa_offset 8
 183              		.cfi_offset 4, -8
 184              		.cfi_offset 14, -4
 661:../../../../../../Middlewares/Third_Party/LoRaWAN/Mac/region/Region.c ****     switch( region )
 185              		.loc 1 661 0
 186 0002 0528     		cmp	r0, #5
 187 0004 03D1     		bne	.L22
 662:../../../../../../Middlewares/Third_Party/LoRaWAN/Mac/region/Region.c ****     {
 663:../../../../../../Middlewares/Third_Party/LoRaWAN/Mac/region/Region.c ****         AS923_GET_NVM_CTX( );
 664:../../../../../../Middlewares/Third_Party/LoRaWAN/Mac/region/Region.c ****         AU915_GET_NVM_CTX( );
 665:../../../../../../Middlewares/Third_Party/LoRaWAN/Mac/region/Region.c ****         CN470_GET_NVM_CTX( );
 666:../../../../../../Middlewares/Third_Party/LoRaWAN/Mac/region/Region.c ****         CN779_GET_NVM_CTX( );
 667:../../../../../../Middlewares/Third_Party/LoRaWAN/Mac/region/Region.c ****         EU433_GET_NVM_CTX( );
ARM GAS  C:\Users\EBANO_~1\AppData\Local\Temp\ccOSDu2a.s 			page 16


 668:../../../../../../Middlewares/Third_Party/LoRaWAN/Mac/region/Region.c ****         EU868_GET_NVM_CTX( );
 188              		.loc 1 668 0
 189 0006 0800     		movs	r0, r1
 190              	.LVL14:
 191 0008 FFF7FEFF 		bl	RegionEU868GetNvmCtx
 192              	.LVL15:
 193              	.L18:
 669:../../../../../../Middlewares/Third_Party/LoRaWAN/Mac/region/Region.c ****         KR920_GET_NVM_CTX( );
 670:../../../../../../Middlewares/Third_Party/LoRaWAN/Mac/region/Region.c ****         IN865_GET_NVM_CTX( );
 671:../../../../../../Middlewares/Third_Party/LoRaWAN/Mac/region/Region.c ****         US915_GET_NVM_CTX( );
 672:../../../../../../Middlewares/Third_Party/LoRaWAN/Mac/region/Region.c ****         RU864_GET_NVM_CTX( );
 673:../../../../../../Middlewares/Third_Party/LoRaWAN/Mac/region/Region.c ****         default:
 674:../../../../../../Middlewares/Third_Party/LoRaWAN/Mac/region/Region.c ****         {
 675:../../../../../../Middlewares/Third_Party/LoRaWAN/Mac/region/Region.c ****            return 0;
 676:../../../../../../Middlewares/Third_Party/LoRaWAN/Mac/region/Region.c ****         }
 677:../../../../../../Middlewares/Third_Party/LoRaWAN/Mac/region/Region.c ****     }
 678:../../../../../../Middlewares/Third_Party/LoRaWAN/Mac/region/Region.c **** }
 194              		.loc 1 678 0
 195              		@ sp needed
 196 000c 10BD     		pop	{r4, pc}
 197              	.LVL16:
 198              	.L22:
 675:../../../../../../Middlewares/Third_Party/LoRaWAN/Mac/region/Region.c ****         }
 199              		.loc 1 675 0
 200 000e 0020     		movs	r0, #0
 201              	.LVL17:
 202 0010 FCE7     		b	.L18
 203              		.cfi_endproc
 204              	.LFE43:
 205              		.size	RegionGetNvmCtx, .-RegionGetNvmCtx
 206 0012 C046     		.section	.text.RegionVerify,"ax",%progbits
 207              		.align	1
 208              		.p2align 2,,3
 209              		.global	RegionVerify
 210              		.syntax unified
 211              		.code	16
 212              		.thumb_func
 213              		.fpu softvfp
 214              		.type	RegionVerify, %function
 215              	RegionVerify:
 216              	.LFB44:
 679:../../../../../../Middlewares/Third_Party/LoRaWAN/Mac/region/Region.c **** 
 680:../../../../../../Middlewares/Third_Party/LoRaWAN/Mac/region/Region.c **** bool RegionVerify( LoRaMacRegion_t region, VerifyParams_t* verify, PhyAttribute_t phyAttribute )
 681:../../../../../../Middlewares/Third_Party/LoRaWAN/Mac/region/Region.c **** {
 217              		.loc 1 681 0
 218              		.cfi_startproc
 219              		@ args = 0, pretend = 0, frame = 0
 220              		@ frame_needed = 0, uses_anonymous_args = 0
 221              	.LVL18:
 222 0000 10B5     		push	{r4, lr}
 223              	.LCFI5:
 224              		.cfi_def_cfa_offset 8
 225              		.cfi_offset 4, -8
 226              		.cfi_offset 14, -4
 227              		.loc 1 681 0
 228 0002 0B00     		movs	r3, r1
 682:../../../../../../Middlewares/Third_Party/LoRaWAN/Mac/region/Region.c ****     switch( region )
ARM GAS  C:\Users\EBANO_~1\AppData\Local\Temp\ccOSDu2a.s 			page 17


 229              		.loc 1 682 0
 230 0004 0528     		cmp	r0, #5
 231 0006 01D0     		beq	.L28
 683:../../../../../../Middlewares/Third_Party/LoRaWAN/Mac/region/Region.c ****     {
 684:../../../../../../Middlewares/Third_Party/LoRaWAN/Mac/region/Region.c ****         AS923_VERIFY( );
 685:../../../../../../Middlewares/Third_Party/LoRaWAN/Mac/region/Region.c ****         AU915_VERIFY( );
 686:../../../../../../Middlewares/Third_Party/LoRaWAN/Mac/region/Region.c ****         CN470_VERIFY( );
 687:../../../../../../Middlewares/Third_Party/LoRaWAN/Mac/region/Region.c ****         CN779_VERIFY( );
 688:../../../../../../Middlewares/Third_Party/LoRaWAN/Mac/region/Region.c ****         EU433_VERIFY( );
 689:../../../../../../Middlewares/Third_Party/LoRaWAN/Mac/region/Region.c ****         EU868_VERIFY( );
 690:../../../../../../Middlewares/Third_Party/LoRaWAN/Mac/region/Region.c ****         KR920_VERIFY( );
 691:../../../../../../Middlewares/Third_Party/LoRaWAN/Mac/region/Region.c ****         IN865_VERIFY( );
 692:../../../../../../Middlewares/Third_Party/LoRaWAN/Mac/region/Region.c ****         US915_VERIFY( );
 693:../../../../../../Middlewares/Third_Party/LoRaWAN/Mac/region/Region.c ****         RU864_VERIFY( );
 694:../../../../../../Middlewares/Third_Party/LoRaWAN/Mac/region/Region.c ****         default:
 695:../../../../../../Middlewares/Third_Party/LoRaWAN/Mac/region/Region.c ****         {
 696:../../../../../../Middlewares/Third_Party/LoRaWAN/Mac/region/Region.c ****             return false;
 232              		.loc 1 696 0
 233 0008 0020     		movs	r0, #0
 234              	.LVL19:
 235              	.L24:
 697:../../../../../../Middlewares/Third_Party/LoRaWAN/Mac/region/Region.c ****         }
 698:../../../../../../Middlewares/Third_Party/LoRaWAN/Mac/region/Region.c ****     }
 699:../../../../../../Middlewares/Third_Party/LoRaWAN/Mac/region/Region.c **** }
 236              		.loc 1 699 0
 237              		@ sp needed
 238 000a 10BD     		pop	{r4, pc}
 239              	.LVL20:
 240              	.L28:
 689:../../../../../../Middlewares/Third_Party/LoRaWAN/Mac/region/Region.c ****         KR920_VERIFY( );
 241              		.loc 1 689 0
 242 000c 1100     		movs	r1, r2
 243              	.LVL21:
 244 000e 1800     		movs	r0, r3
 245              	.LVL22:
 246 0010 FFF7FEFF 		bl	RegionEU868Verify
 247              	.LVL23:
 248 0014 F9E7     		b	.L24
 249              		.cfi_endproc
 250              	.LFE44:
 251              		.size	RegionVerify, .-RegionVerify
 252 0016 C046     		.section	.text.RegionApplyCFList,"ax",%progbits
 253              		.align	1
 254              		.p2align 2,,3
 255              		.global	RegionApplyCFList
 256              		.syntax unified
 257              		.code	16
 258              		.thumb_func
 259              		.fpu softvfp
 260              		.type	RegionApplyCFList, %function
 261              	RegionApplyCFList:
 262              	.LFB45:
 700:../../../../../../Middlewares/Third_Party/LoRaWAN/Mac/region/Region.c **** 
 701:../../../../../../Middlewares/Third_Party/LoRaWAN/Mac/region/Region.c **** void RegionApplyCFList( LoRaMacRegion_t region, ApplyCFListParams_t* applyCFList )
 702:../../../../../../Middlewares/Third_Party/LoRaWAN/Mac/region/Region.c **** {
 263              		.loc 1 702 0
 264              		.cfi_startproc
ARM GAS  C:\Users\EBANO_~1\AppData\Local\Temp\ccOSDu2a.s 			page 18


 265              		@ args = 0, pretend = 0, frame = 0
 266              		@ frame_needed = 0, uses_anonymous_args = 0
 267              	.LVL24:
 268 0000 10B5     		push	{r4, lr}
 269              	.LCFI6:
 270              		.cfi_def_cfa_offset 8
 271              		.cfi_offset 4, -8
 272              		.cfi_offset 14, -4
 703:../../../../../../Middlewares/Third_Party/LoRaWAN/Mac/region/Region.c ****     switch( region )
 273              		.loc 1 703 0
 274 0002 0528     		cmp	r0, #5
 275 0004 02D1     		bne	.L29
 704:../../../../../../Middlewares/Third_Party/LoRaWAN/Mac/region/Region.c ****     {
 705:../../../../../../Middlewares/Third_Party/LoRaWAN/Mac/region/Region.c ****         AS923_APPLY_CF_LIST( );
 706:../../../../../../Middlewares/Third_Party/LoRaWAN/Mac/region/Region.c ****         AU915_APPLY_CF_LIST( );
 707:../../../../../../Middlewares/Third_Party/LoRaWAN/Mac/region/Region.c ****         CN470_APPLY_CF_LIST( );
 708:../../../../../../Middlewares/Third_Party/LoRaWAN/Mac/region/Region.c ****         CN779_APPLY_CF_LIST( );
 709:../../../../../../Middlewares/Third_Party/LoRaWAN/Mac/region/Region.c ****         EU433_APPLY_CF_LIST( );
 710:../../../../../../Middlewares/Third_Party/LoRaWAN/Mac/region/Region.c ****         EU868_APPLY_CF_LIST( );
 276              		.loc 1 710 0
 277 0006 0800     		movs	r0, r1
 278              	.LVL25:
 279 0008 FFF7FEFF 		bl	RegionEU868ApplyCFList
 280              	.LVL26:
 281              	.L29:
 711:../../../../../../Middlewares/Third_Party/LoRaWAN/Mac/region/Region.c ****         KR920_APPLY_CF_LIST( );
 712:../../../../../../Middlewares/Third_Party/LoRaWAN/Mac/region/Region.c ****         IN865_APPLY_CF_LIST( );
 713:../../../../../../Middlewares/Third_Party/LoRaWAN/Mac/region/Region.c ****         US915_APPLY_CF_LIST( );
 714:../../../../../../Middlewares/Third_Party/LoRaWAN/Mac/region/Region.c ****         RU864_APPLY_CF_LIST( );
 715:../../../../../../Middlewares/Third_Party/LoRaWAN/Mac/region/Region.c ****         default:
 716:../../../../../../Middlewares/Third_Party/LoRaWAN/Mac/region/Region.c ****         {
 717:../../../../../../Middlewares/Third_Party/LoRaWAN/Mac/region/Region.c ****             break;
 718:../../../../../../Middlewares/Third_Party/LoRaWAN/Mac/region/Region.c ****         }
 719:../../../../../../Middlewares/Third_Party/LoRaWAN/Mac/region/Region.c ****     }
 720:../../../../../../Middlewares/Third_Party/LoRaWAN/Mac/region/Region.c **** }
 282              		.loc 1 720 0
 283              		@ sp needed
 284 000c 10BD     		pop	{r4, pc}
 285              		.cfi_endproc
 286              	.LFE45:
 287              		.size	RegionApplyCFList, .-RegionApplyCFList
 288 000e C046     		.section	.text.RegionChanMaskSet,"ax",%progbits
 289              		.align	1
 290              		.p2align 2,,3
 291              		.global	RegionChanMaskSet
 292              		.syntax unified
 293              		.code	16
 294              		.thumb_func
 295              		.fpu softvfp
 296              		.type	RegionChanMaskSet, %function
 297              	RegionChanMaskSet:
 298              	.LFB46:
 721:../../../../../../Middlewares/Third_Party/LoRaWAN/Mac/region/Region.c **** 
 722:../../../../../../Middlewares/Third_Party/LoRaWAN/Mac/region/Region.c **** bool RegionChanMaskSet( LoRaMacRegion_t region, ChanMaskSetParams_t* chanMaskSet )
 723:../../../../../../Middlewares/Third_Party/LoRaWAN/Mac/region/Region.c **** {
 299              		.loc 1 723 0
 300              		.cfi_startproc
ARM GAS  C:\Users\EBANO_~1\AppData\Local\Temp\ccOSDu2a.s 			page 19


 301              		@ args = 0, pretend = 0, frame = 0
 302              		@ frame_needed = 0, uses_anonymous_args = 0
 303              	.LVL27:
 304 0000 10B5     		push	{r4, lr}
 305              	.LCFI7:
 306              		.cfi_def_cfa_offset 8
 307              		.cfi_offset 4, -8
 308              		.cfi_offset 14, -4
 724:../../../../../../Middlewares/Third_Party/LoRaWAN/Mac/region/Region.c ****     switch( region )
 309              		.loc 1 724 0
 310 0002 0528     		cmp	r0, #5
 311 0004 01D0     		beq	.L37
 725:../../../../../../Middlewares/Third_Party/LoRaWAN/Mac/region/Region.c ****     {
 726:../../../../../../Middlewares/Third_Party/LoRaWAN/Mac/region/Region.c ****         AS923_CHAN_MASK_SET( );
 727:../../../../../../Middlewares/Third_Party/LoRaWAN/Mac/region/Region.c ****         AU915_CHAN_MASK_SET( );
 728:../../../../../../Middlewares/Third_Party/LoRaWAN/Mac/region/Region.c ****         CN470_CHAN_MASK_SET( );
 729:../../../../../../Middlewares/Third_Party/LoRaWAN/Mac/region/Region.c ****         CN779_CHAN_MASK_SET( );
 730:../../../../../../Middlewares/Third_Party/LoRaWAN/Mac/region/Region.c ****         EU433_CHAN_MASK_SET( );
 731:../../../../../../Middlewares/Third_Party/LoRaWAN/Mac/region/Region.c ****         EU868_CHAN_MASK_SET( );
 732:../../../../../../Middlewares/Third_Party/LoRaWAN/Mac/region/Region.c ****         KR920_CHAN_MASK_SET( );
 733:../../../../../../Middlewares/Third_Party/LoRaWAN/Mac/region/Region.c ****         IN865_CHAN_MASK_SET( );
 734:../../../../../../Middlewares/Third_Party/LoRaWAN/Mac/region/Region.c ****         US915_CHAN_MASK_SET( );
 735:../../../../../../Middlewares/Third_Party/LoRaWAN/Mac/region/Region.c ****         RU864_CHAN_MASK_SET( );
 736:../../../../../../Middlewares/Third_Party/LoRaWAN/Mac/region/Region.c ****         default:
 737:../../../../../../Middlewares/Third_Party/LoRaWAN/Mac/region/Region.c ****         {
 738:../../../../../../Middlewares/Third_Party/LoRaWAN/Mac/region/Region.c ****             return false;
 312              		.loc 1 738 0
 313 0006 0020     		movs	r0, #0
 314              	.LVL28:
 315              	.L33:
 739:../../../../../../Middlewares/Third_Party/LoRaWAN/Mac/region/Region.c ****         }
 740:../../../../../../Middlewares/Third_Party/LoRaWAN/Mac/region/Region.c ****     }
 741:../../../../../../Middlewares/Third_Party/LoRaWAN/Mac/region/Region.c **** }
 316              		.loc 1 741 0
 317              		@ sp needed
 318 0008 10BD     		pop	{r4, pc}
 319              	.LVL29:
 320              	.L37:
 731:../../../../../../Middlewares/Third_Party/LoRaWAN/Mac/region/Region.c ****         KR920_CHAN_MASK_SET( );
 321              		.loc 1 731 0
 322 000a 0800     		movs	r0, r1
 323              	.LVL30:
 324 000c FFF7FEFF 		bl	RegionEU868ChanMaskSet
 325              	.LVL31:
 326 0010 FAE7     		b	.L33
 327              		.cfi_endproc
 328              	.LFE46:
 329              		.size	RegionChanMaskSet, .-RegionChanMaskSet
 330 0012 C046     		.section	.text.RegionComputeRxWindowParameters,"ax",%progbits
 331              		.align	1
 332              		.p2align 2,,3
 333              		.global	RegionComputeRxWindowParameters
 334              		.syntax unified
 335              		.code	16
 336              		.thumb_func
 337              		.fpu softvfp
 338              		.type	RegionComputeRxWindowParameters, %function
ARM GAS  C:\Users\EBANO_~1\AppData\Local\Temp\ccOSDu2a.s 			page 20


 339              	RegionComputeRxWindowParameters:
 340              	.LFB47:
 742:../../../../../../Middlewares/Third_Party/LoRaWAN/Mac/region/Region.c **** 
 743:../../../../../../Middlewares/Third_Party/LoRaWAN/Mac/region/Region.c **** void RegionComputeRxWindowParameters( LoRaMacRegion_t region, int8_t datarate, uint8_t minRxSymbols
 744:../../../../../../Middlewares/Third_Party/LoRaWAN/Mac/region/Region.c **** {
 341              		.loc 1 744 0
 342              		.cfi_startproc
 343              		@ args = 4, pretend = 0, frame = 0
 344              		@ frame_needed = 0, uses_anonymous_args = 0
 345              	.LVL32:
 346 0000 10B5     		push	{r4, lr}
 347              	.LCFI8:
 348              		.cfi_def_cfa_offset 8
 349              		.cfi_offset 4, -8
 350              		.cfi_offset 14, -4
 351              		.loc 1 744 0
 352 0002 0C00     		movs	r4, r1
 353 0004 1100     		movs	r1, r2
 354              	.LVL33:
 355 0006 1A00     		movs	r2, r3
 356              	.LVL34:
 745:../../../../../../Middlewares/Third_Party/LoRaWAN/Mac/region/Region.c ****     switch( region )
 357              		.loc 1 745 0
 358 0008 0528     		cmp	r0, #5
 359 000a 03D1     		bne	.L38
 746:../../../../../../Middlewares/Third_Party/LoRaWAN/Mac/region/Region.c ****     {
 747:../../../../../../Middlewares/Third_Party/LoRaWAN/Mac/region/Region.c ****         AS923_COMPUTE_RX_WINDOW_PARAMETERS( );
 748:../../../../../../Middlewares/Third_Party/LoRaWAN/Mac/region/Region.c ****         AU915_COMPUTE_RX_WINDOW_PARAMETERS( );
 749:../../../../../../Middlewares/Third_Party/LoRaWAN/Mac/region/Region.c ****         CN470_COMPUTE_RX_WINDOW_PARAMETERS( );
 750:../../../../../../Middlewares/Third_Party/LoRaWAN/Mac/region/Region.c ****         CN779_COMPUTE_RX_WINDOW_PARAMETERS( );
 751:../../../../../../Middlewares/Third_Party/LoRaWAN/Mac/region/Region.c ****         EU433_COMPUTE_RX_WINDOW_PARAMETERS( );
 752:../../../../../../Middlewares/Third_Party/LoRaWAN/Mac/region/Region.c ****         EU868_COMPUTE_RX_WINDOW_PARAMETERS( );
 360              		.loc 1 752 0
 361 000c 029B     		ldr	r3, [sp, #8]
 362              	.LVL35:
 363 000e 2000     		movs	r0, r4
 364              	.LVL36:
 365 0010 FFF7FEFF 		bl	RegionEU868ComputeRxWindowParameters
 366              	.LVL37:
 367              	.L38:
 753:../../../../../../Middlewares/Third_Party/LoRaWAN/Mac/region/Region.c ****         KR920_COMPUTE_RX_WINDOW_PARAMETERS( );
 754:../../../../../../Middlewares/Third_Party/LoRaWAN/Mac/region/Region.c ****         IN865_COMPUTE_RX_WINDOW_PARAMETERS( );
 755:../../../../../../Middlewares/Third_Party/LoRaWAN/Mac/region/Region.c ****         US915_COMPUTE_RX_WINDOW_PARAMETERS( );
 756:../../../../../../Middlewares/Third_Party/LoRaWAN/Mac/region/Region.c ****         RU864_COMPUTE_RX_WINDOW_PARAMETERS( );
 757:../../../../../../Middlewares/Third_Party/LoRaWAN/Mac/region/Region.c ****         default:
 758:../../../../../../Middlewares/Third_Party/LoRaWAN/Mac/region/Region.c ****         {
 759:../../../../../../Middlewares/Third_Party/LoRaWAN/Mac/region/Region.c ****             break;
 760:../../../../../../Middlewares/Third_Party/LoRaWAN/Mac/region/Region.c ****         }
 761:../../../../../../Middlewares/Third_Party/LoRaWAN/Mac/region/Region.c ****     }
 762:../../../../../../Middlewares/Third_Party/LoRaWAN/Mac/region/Region.c **** }
 368              		.loc 1 762 0
 369              		@ sp needed
 370 0014 10BD     		pop	{r4, pc}
 371              		.cfi_endproc
 372              	.LFE47:
 373              		.size	RegionComputeRxWindowParameters, .-RegionComputeRxWindowParameters
 374 0016 C046     		.section	.text.RegionRxConfig,"ax",%progbits
ARM GAS  C:\Users\EBANO_~1\AppData\Local\Temp\ccOSDu2a.s 			page 21


 375              		.align	1
 376              		.p2align 2,,3
 377              		.global	RegionRxConfig
 378              		.syntax unified
 379              		.code	16
 380              		.thumb_func
 381              		.fpu softvfp
 382              		.type	RegionRxConfig, %function
 383              	RegionRxConfig:
 384              	.LFB48:
 763:../../../../../../Middlewares/Third_Party/LoRaWAN/Mac/region/Region.c **** 
 764:../../../../../../Middlewares/Third_Party/LoRaWAN/Mac/region/Region.c **** bool RegionRxConfig( LoRaMacRegion_t region, RxConfigParams_t* rxConfig, int8_t* datarate )
 765:../../../../../../Middlewares/Third_Party/LoRaWAN/Mac/region/Region.c **** {
 385              		.loc 1 765 0
 386              		.cfi_startproc
 387              		@ args = 0, pretend = 0, frame = 0
 388              		@ frame_needed = 0, uses_anonymous_args = 0
 389              	.LVL38:
 390 0000 10B5     		push	{r4, lr}
 391              	.LCFI9:
 392              		.cfi_def_cfa_offset 8
 393              		.cfi_offset 4, -8
 394              		.cfi_offset 14, -4
 395              		.loc 1 765 0
 396 0002 0B00     		movs	r3, r1
 766:../../../../../../Middlewares/Third_Party/LoRaWAN/Mac/region/Region.c ****     switch( region )
 397              		.loc 1 766 0
 398 0004 0528     		cmp	r0, #5
 399 0006 01D0     		beq	.L46
 767:../../../../../../Middlewares/Third_Party/LoRaWAN/Mac/region/Region.c ****     {
 768:../../../../../../Middlewares/Third_Party/LoRaWAN/Mac/region/Region.c ****         AS923_RX_CONFIG( );
 769:../../../../../../Middlewares/Third_Party/LoRaWAN/Mac/region/Region.c ****         AU915_RX_CONFIG( );
 770:../../../../../../Middlewares/Third_Party/LoRaWAN/Mac/region/Region.c ****         CN470_RX_CONFIG( );
 771:../../../../../../Middlewares/Third_Party/LoRaWAN/Mac/region/Region.c ****         CN779_RX_CONFIG( );
 772:../../../../../../Middlewares/Third_Party/LoRaWAN/Mac/region/Region.c ****         EU433_RX_CONFIG( );
 773:../../../../../../Middlewares/Third_Party/LoRaWAN/Mac/region/Region.c ****         EU868_RX_CONFIG( );
 774:../../../../../../Middlewares/Third_Party/LoRaWAN/Mac/region/Region.c ****         KR920_RX_CONFIG( );
 775:../../../../../../Middlewares/Third_Party/LoRaWAN/Mac/region/Region.c ****         IN865_RX_CONFIG( );
 776:../../../../../../Middlewares/Third_Party/LoRaWAN/Mac/region/Region.c ****         US915_RX_CONFIG( );
 777:../../../../../../Middlewares/Third_Party/LoRaWAN/Mac/region/Region.c ****         RU864_RX_CONFIG( );
 778:../../../../../../Middlewares/Third_Party/LoRaWAN/Mac/region/Region.c ****         default:
 779:../../../../../../Middlewares/Third_Party/LoRaWAN/Mac/region/Region.c ****         {
 780:../../../../../../Middlewares/Third_Party/LoRaWAN/Mac/region/Region.c ****             return false;
 400              		.loc 1 780 0
 401 0008 0020     		movs	r0, #0
 402              	.LVL39:
 403              	.L42:
 781:../../../../../../Middlewares/Third_Party/LoRaWAN/Mac/region/Region.c ****         }
 782:../../../../../../Middlewares/Third_Party/LoRaWAN/Mac/region/Region.c ****     }
 783:../../../../../../Middlewares/Third_Party/LoRaWAN/Mac/region/Region.c **** }
 404              		.loc 1 783 0
 405              		@ sp needed
 406 000a 10BD     		pop	{r4, pc}
 407              	.LVL40:
 408              	.L46:
 773:../../../../../../Middlewares/Third_Party/LoRaWAN/Mac/region/Region.c ****         KR920_RX_CONFIG( );
 409              		.loc 1 773 0
ARM GAS  C:\Users\EBANO_~1\AppData\Local\Temp\ccOSDu2a.s 			page 22


 410 000c 1100     		movs	r1, r2
 411              	.LVL41:
 412 000e 1800     		movs	r0, r3
 413              	.LVL42:
 414 0010 FFF7FEFF 		bl	RegionEU868RxConfig
 415              	.LVL43:
 416 0014 F9E7     		b	.L42
 417              		.cfi_endproc
 418              	.LFE48:
 419              		.size	RegionRxConfig, .-RegionRxConfig
 420 0016 C046     		.section	.text.RegionTxConfig,"ax",%progbits
 421              		.align	1
 422              		.p2align 2,,3
 423              		.global	RegionTxConfig
 424              		.syntax unified
 425              		.code	16
 426              		.thumb_func
 427              		.fpu softvfp
 428              		.type	RegionTxConfig, %function
 429              	RegionTxConfig:
 430              	.LFB49:
 784:../../../../../../Middlewares/Third_Party/LoRaWAN/Mac/region/Region.c **** 
 785:../../../../../../Middlewares/Third_Party/LoRaWAN/Mac/region/Region.c **** bool RegionTxConfig( LoRaMacRegion_t region, TxConfigParams_t* txConfig, int8_t* txPower, TimerTime
 786:../../../../../../Middlewares/Third_Party/LoRaWAN/Mac/region/Region.c **** {
 431              		.loc 1 786 0
 432              		.cfi_startproc
 433              		@ args = 0, pretend = 0, frame = 0
 434              		@ frame_needed = 0, uses_anonymous_args = 0
 435              	.LVL44:
 436 0000 10B5     		push	{r4, lr}
 437              	.LCFI10:
 438              		.cfi_def_cfa_offset 8
 439              		.cfi_offset 4, -8
 440              		.cfi_offset 14, -4
 441              		.loc 1 786 0
 442 0002 0C00     		movs	r4, r1
 443 0004 1100     		movs	r1, r2
 444              	.LVL45:
 787:../../../../../../Middlewares/Third_Party/LoRaWAN/Mac/region/Region.c ****     switch( region )
 445              		.loc 1 787 0
 446 0006 0528     		cmp	r0, #5
 447 0008 01D0     		beq	.L52
 788:../../../../../../Middlewares/Third_Party/LoRaWAN/Mac/region/Region.c ****     {
 789:../../../../../../Middlewares/Third_Party/LoRaWAN/Mac/region/Region.c ****         AS923_TX_CONFIG( );
 790:../../../../../../Middlewares/Third_Party/LoRaWAN/Mac/region/Region.c ****         AU915_TX_CONFIG( );
 791:../../../../../../Middlewares/Third_Party/LoRaWAN/Mac/region/Region.c ****         CN470_TX_CONFIG( );
 792:../../../../../../Middlewares/Third_Party/LoRaWAN/Mac/region/Region.c ****         CN779_TX_CONFIG( );
 793:../../../../../../Middlewares/Third_Party/LoRaWAN/Mac/region/Region.c ****         EU433_TX_CONFIG( );
 794:../../../../../../Middlewares/Third_Party/LoRaWAN/Mac/region/Region.c ****         EU868_TX_CONFIG( );
 795:../../../../../../Middlewares/Third_Party/LoRaWAN/Mac/region/Region.c ****         KR920_TX_CONFIG( );
 796:../../../../../../Middlewares/Third_Party/LoRaWAN/Mac/region/Region.c ****         IN865_TX_CONFIG( );
 797:../../../../../../Middlewares/Third_Party/LoRaWAN/Mac/region/Region.c ****         US915_TX_CONFIG( );
 798:../../../../../../Middlewares/Third_Party/LoRaWAN/Mac/region/Region.c ****         RU864_TX_CONFIG( );
 799:../../../../../../Middlewares/Third_Party/LoRaWAN/Mac/region/Region.c ****         default:
 800:../../../../../../Middlewares/Third_Party/LoRaWAN/Mac/region/Region.c ****         {
 801:../../../../../../Middlewares/Third_Party/LoRaWAN/Mac/region/Region.c ****             return false;
 448              		.loc 1 801 0
ARM GAS  C:\Users\EBANO_~1\AppData\Local\Temp\ccOSDu2a.s 			page 23


 449 000a 0020     		movs	r0, #0
 450              	.LVL46:
 451              	.L48:
 802:../../../../../../Middlewares/Third_Party/LoRaWAN/Mac/region/Region.c ****         }
 803:../../../../../../Middlewares/Third_Party/LoRaWAN/Mac/region/Region.c ****     }
 804:../../../../../../Middlewares/Third_Party/LoRaWAN/Mac/region/Region.c **** }
 452              		.loc 1 804 0
 453              		@ sp needed
 454              	.LVL47:
 455 000c 10BD     		pop	{r4, pc}
 456              	.LVL48:
 457              	.L52:
 794:../../../../../../Middlewares/Third_Party/LoRaWAN/Mac/region/Region.c ****         KR920_TX_CONFIG( );
 458              		.loc 1 794 0
 459 000e 1A00     		movs	r2, r3
 460 0010 2000     		movs	r0, r4
 461              	.LVL49:
 462 0012 FFF7FEFF 		bl	RegionEU868TxConfig
 463              	.LVL50:
 464 0016 F9E7     		b	.L48
 465              		.cfi_endproc
 466              	.LFE49:
 467              		.size	RegionTxConfig, .-RegionTxConfig
 468              		.section	.text.RegionLinkAdrReq,"ax",%progbits
 469              		.align	1
 470              		.p2align 2,,3
 471              		.global	RegionLinkAdrReq
 472              		.syntax unified
 473              		.code	16
 474              		.thumb_func
 475              		.fpu softvfp
 476              		.type	RegionLinkAdrReq, %function
 477              	RegionLinkAdrReq:
 478              	.LFB50:
 805:../../../../../../Middlewares/Third_Party/LoRaWAN/Mac/region/Region.c **** 
 806:../../../../../../Middlewares/Third_Party/LoRaWAN/Mac/region/Region.c **** uint8_t RegionLinkAdrReq( LoRaMacRegion_t region, LinkAdrReqParams_t* linkAdrReq, int8_t* drOut, in
 807:../../../../../../Middlewares/Third_Party/LoRaWAN/Mac/region/Region.c **** {
 479              		.loc 1 807 0
 480              		.cfi_startproc
 481              		@ args = 8, pretend = 0, frame = 0
 482              		@ frame_needed = 0, uses_anonymous_args = 0
 483              	.LVL51:
 484 0000 10B5     		push	{r4, lr}
 485              	.LCFI11:
 486              		.cfi_def_cfa_offset 8
 487              		.cfi_offset 4, -8
 488              		.cfi_offset 14, -4
 489 0002 0C00     		movs	r4, r1
 490 0004 82B0     		sub	sp, sp, #8
 491              	.LCFI12:
 492              		.cfi_def_cfa_offset 16
 493              		.loc 1 807 0
 494 0006 1100     		movs	r1, r2
 495              	.LVL52:
 496 0008 1A00     		movs	r2, r3
 497              	.LVL53:
 808:../../../../../../Middlewares/Third_Party/LoRaWAN/Mac/region/Region.c ****     switch( region )
ARM GAS  C:\Users\EBANO_~1\AppData\Local\Temp\ccOSDu2a.s 			page 24


 498              		.loc 1 808 0
 499 000a 0528     		cmp	r0, #5
 500 000c 02D0     		beq	.L58
 809:../../../../../../Middlewares/Third_Party/LoRaWAN/Mac/region/Region.c ****     {
 810:../../../../../../Middlewares/Third_Party/LoRaWAN/Mac/region/Region.c ****         AS923_LINK_ADR_REQ( );
 811:../../../../../../Middlewares/Third_Party/LoRaWAN/Mac/region/Region.c ****         AU915_LINK_ADR_REQ( );
 812:../../../../../../Middlewares/Third_Party/LoRaWAN/Mac/region/Region.c ****         CN470_LINK_ADR_REQ( );
 813:../../../../../../Middlewares/Third_Party/LoRaWAN/Mac/region/Region.c ****         CN779_LINK_ADR_REQ( );
 814:../../../../../../Middlewares/Third_Party/LoRaWAN/Mac/region/Region.c ****         EU433_LINK_ADR_REQ( );
 815:../../../../../../Middlewares/Third_Party/LoRaWAN/Mac/region/Region.c ****         EU868_LINK_ADR_REQ( );
 816:../../../../../../Middlewares/Third_Party/LoRaWAN/Mac/region/Region.c ****         KR920_LINK_ADR_REQ( );
 817:../../../../../../Middlewares/Third_Party/LoRaWAN/Mac/region/Region.c ****         IN865_LINK_ADR_REQ( );
 818:../../../../../../Middlewares/Third_Party/LoRaWAN/Mac/region/Region.c ****         US915_LINK_ADR_REQ( );
 819:../../../../../../Middlewares/Third_Party/LoRaWAN/Mac/region/Region.c ****         RU864_LINK_ADR_REQ( );
 820:../../../../../../Middlewares/Third_Party/LoRaWAN/Mac/region/Region.c ****         default:
 821:../../../../../../Middlewares/Third_Party/LoRaWAN/Mac/region/Region.c ****         {
 822:../../../../../../Middlewares/Third_Party/LoRaWAN/Mac/region/Region.c ****             return 0;
 501              		.loc 1 822 0
 502 000e 0020     		movs	r0, #0
 503              	.LVL54:
 504              	.L54:
 823:../../../../../../Middlewares/Third_Party/LoRaWAN/Mac/region/Region.c ****         }
 824:../../../../../../Middlewares/Third_Party/LoRaWAN/Mac/region/Region.c ****     }
 825:../../../../../../Middlewares/Third_Party/LoRaWAN/Mac/region/Region.c **** }
 505              		.loc 1 825 0
 506 0010 02B0     		add	sp, sp, #8
 507              		@ sp needed
 508              	.LVL55:
 509 0012 10BD     		pop	{r4, pc}
 510              	.LVL56:
 511              	.L58:
 815:../../../../../../Middlewares/Third_Party/LoRaWAN/Mac/region/Region.c ****         KR920_LINK_ADR_REQ( );
 512              		.loc 1 815 0
 513 0014 059B     		ldr	r3, [sp, #20]
 514 0016 2000     		movs	r0, r4
 515              	.LVL57:
 516 0018 0093     		str	r3, [sp]
 517 001a 049B     		ldr	r3, [sp, #16]
 518 001c FFF7FEFF 		bl	RegionEU868LinkAdrReq
 519              	.LVL58:
 520 0020 F6E7     		b	.L54
 521              		.cfi_endproc
 522              	.LFE50:
 523              		.size	RegionLinkAdrReq, .-RegionLinkAdrReq
 524 0022 C046     		.section	.text.RegionRxParamSetupReq,"ax",%progbits
 525              		.align	1
 526              		.p2align 2,,3
 527              		.global	RegionRxParamSetupReq
 528              		.syntax unified
 529              		.code	16
 530              		.thumb_func
 531              		.fpu softvfp
 532              		.type	RegionRxParamSetupReq, %function
 533              	RegionRxParamSetupReq:
 534              	.LFB51:
 826:../../../../../../Middlewares/Third_Party/LoRaWAN/Mac/region/Region.c **** 
 827:../../../../../../Middlewares/Third_Party/LoRaWAN/Mac/region/Region.c **** uint8_t RegionRxParamSetupReq( LoRaMacRegion_t region, RxParamSetupReqParams_t* rxParamSetupReq )
ARM GAS  C:\Users\EBANO_~1\AppData\Local\Temp\ccOSDu2a.s 			page 25


 828:../../../../../../Middlewares/Third_Party/LoRaWAN/Mac/region/Region.c **** {
 535              		.loc 1 828 0
 536              		.cfi_startproc
 537              		@ args = 0, pretend = 0, frame = 0
 538              		@ frame_needed = 0, uses_anonymous_args = 0
 539              	.LVL59:
 540 0000 10B5     		push	{r4, lr}
 541              	.LCFI13:
 542              		.cfi_def_cfa_offset 8
 543              		.cfi_offset 4, -8
 544              		.cfi_offset 14, -4
 829:../../../../../../Middlewares/Third_Party/LoRaWAN/Mac/region/Region.c ****     switch( region )
 545              		.loc 1 829 0
 546 0002 0528     		cmp	r0, #5
 547 0004 01D0     		beq	.L64
 830:../../../../../../Middlewares/Third_Party/LoRaWAN/Mac/region/Region.c ****     {
 831:../../../../../../Middlewares/Third_Party/LoRaWAN/Mac/region/Region.c ****         AS923_RX_PARAM_SETUP_REQ( );
 832:../../../../../../Middlewares/Third_Party/LoRaWAN/Mac/region/Region.c ****         AU915_RX_PARAM_SETUP_REQ( );
 833:../../../../../../Middlewares/Third_Party/LoRaWAN/Mac/region/Region.c ****         CN470_RX_PARAM_SETUP_REQ( );
 834:../../../../../../Middlewares/Third_Party/LoRaWAN/Mac/region/Region.c ****         CN779_RX_PARAM_SETUP_REQ( );
 835:../../../../../../Middlewares/Third_Party/LoRaWAN/Mac/region/Region.c ****         EU433_RX_PARAM_SETUP_REQ( );
 836:../../../../../../Middlewares/Third_Party/LoRaWAN/Mac/region/Region.c ****         EU868_RX_PARAM_SETUP_REQ( );
 837:../../../../../../Middlewares/Third_Party/LoRaWAN/Mac/region/Region.c ****         KR920_RX_PARAM_SETUP_REQ( );
 838:../../../../../../Middlewares/Third_Party/LoRaWAN/Mac/region/Region.c ****         IN865_RX_PARAM_SETUP_REQ( );
 839:../../../../../../Middlewares/Third_Party/LoRaWAN/Mac/region/Region.c ****         US915_RX_PARAM_SETUP_REQ( );
 840:../../../../../../Middlewares/Third_Party/LoRaWAN/Mac/region/Region.c ****         RU864_RX_PARAM_SETUP_REQ( );
 841:../../../../../../Middlewares/Third_Party/LoRaWAN/Mac/region/Region.c ****         default:
 842:../../../../../../Middlewares/Third_Party/LoRaWAN/Mac/region/Region.c ****         {
 843:../../../../../../Middlewares/Third_Party/LoRaWAN/Mac/region/Region.c ****             return 0;
 548              		.loc 1 843 0
 549 0006 0020     		movs	r0, #0
 550              	.LVL60:
 551              	.L60:
 844:../../../../../../Middlewares/Third_Party/LoRaWAN/Mac/region/Region.c ****         }
 845:../../../../../../Middlewares/Third_Party/LoRaWAN/Mac/region/Region.c ****     }
 846:../../../../../../Middlewares/Third_Party/LoRaWAN/Mac/region/Region.c **** }
 552              		.loc 1 846 0
 553              		@ sp needed
 554 0008 10BD     		pop	{r4, pc}
 555              	.LVL61:
 556              	.L64:
 836:../../../../../../Middlewares/Third_Party/LoRaWAN/Mac/region/Region.c ****         KR920_RX_PARAM_SETUP_REQ( );
 557              		.loc 1 836 0
 558 000a 0800     		movs	r0, r1
 559              	.LVL62:
 560 000c FFF7FEFF 		bl	RegionEU868RxParamSetupReq
 561              	.LVL63:
 562 0010 FAE7     		b	.L60
 563              		.cfi_endproc
 564              	.LFE51:
 565              		.size	RegionRxParamSetupReq, .-RegionRxParamSetupReq
 566 0012 C046     		.section	.text.RegionNewChannelReq,"ax",%progbits
 567              		.align	1
 568              		.p2align 2,,3
 569              		.global	RegionNewChannelReq
 570              		.syntax unified
 571              		.code	16
ARM GAS  C:\Users\EBANO_~1\AppData\Local\Temp\ccOSDu2a.s 			page 26


 572              		.thumb_func
 573              		.fpu softvfp
 574              		.type	RegionNewChannelReq, %function
 575              	RegionNewChannelReq:
 576              	.LFB52:
 847:../../../../../../Middlewares/Third_Party/LoRaWAN/Mac/region/Region.c **** 
 848:../../../../../../Middlewares/Third_Party/LoRaWAN/Mac/region/Region.c **** uint8_t RegionNewChannelReq( LoRaMacRegion_t region, NewChannelReqParams_t* newChannelReq )
 849:../../../../../../Middlewares/Third_Party/LoRaWAN/Mac/region/Region.c **** {
 577              		.loc 1 849 0
 578              		.cfi_startproc
 579              		@ args = 0, pretend = 0, frame = 0
 580              		@ frame_needed = 0, uses_anonymous_args = 0
 581              	.LVL64:
 582 0000 10B5     		push	{r4, lr}
 583              	.LCFI14:
 584              		.cfi_def_cfa_offset 8
 585              		.cfi_offset 4, -8
 586              		.cfi_offset 14, -4
 850:../../../../../../Middlewares/Third_Party/LoRaWAN/Mac/region/Region.c ****     switch( region )
 587              		.loc 1 850 0
 588 0002 0528     		cmp	r0, #5
 589 0004 01D0     		beq	.L70
 851:../../../../../../Middlewares/Third_Party/LoRaWAN/Mac/region/Region.c ****     {
 852:../../../../../../Middlewares/Third_Party/LoRaWAN/Mac/region/Region.c ****         AS923_NEW_CHANNEL_REQ( );
 853:../../../../../../Middlewares/Third_Party/LoRaWAN/Mac/region/Region.c ****         AU915_NEW_CHANNEL_REQ( );
 854:../../../../../../Middlewares/Third_Party/LoRaWAN/Mac/region/Region.c ****         CN470_NEW_CHANNEL_REQ( );
 855:../../../../../../Middlewares/Third_Party/LoRaWAN/Mac/region/Region.c ****         CN779_NEW_CHANNEL_REQ( );
 856:../../../../../../Middlewares/Third_Party/LoRaWAN/Mac/region/Region.c ****         EU433_NEW_CHANNEL_REQ( );
 857:../../../../../../Middlewares/Third_Party/LoRaWAN/Mac/region/Region.c ****         EU868_NEW_CHANNEL_REQ( );
 858:../../../../../../Middlewares/Third_Party/LoRaWAN/Mac/region/Region.c ****         KR920_NEW_CHANNEL_REQ( );
 859:../../../../../../Middlewares/Third_Party/LoRaWAN/Mac/region/Region.c ****         IN865_NEW_CHANNEL_REQ( );
 860:../../../../../../Middlewares/Third_Party/LoRaWAN/Mac/region/Region.c ****         US915_NEW_CHANNEL_REQ( );
 861:../../../../../../Middlewares/Third_Party/LoRaWAN/Mac/region/Region.c ****         RU864_NEW_CHANNEL_REQ( );
 862:../../../../../../Middlewares/Third_Party/LoRaWAN/Mac/region/Region.c ****         default:
 863:../../../../../../Middlewares/Third_Party/LoRaWAN/Mac/region/Region.c ****         {
 864:../../../../../../Middlewares/Third_Party/LoRaWAN/Mac/region/Region.c ****             return 0;
 590              		.loc 1 864 0
 591 0006 0020     		movs	r0, #0
 592              	.LVL65:
 593              	.L66:
 865:../../../../../../Middlewares/Third_Party/LoRaWAN/Mac/region/Region.c ****         }
 866:../../../../../../Middlewares/Third_Party/LoRaWAN/Mac/region/Region.c ****     }
 867:../../../../../../Middlewares/Third_Party/LoRaWAN/Mac/region/Region.c **** }
 594              		.loc 1 867 0
 595              		@ sp needed
 596 0008 10BD     		pop	{r4, pc}
 597              	.LVL66:
 598              	.L70:
 857:../../../../../../Middlewares/Third_Party/LoRaWAN/Mac/region/Region.c ****         KR920_NEW_CHANNEL_REQ( );
 599              		.loc 1 857 0
 600 000a 0800     		movs	r0, r1
 601              	.LVL67:
 602 000c FFF7FEFF 		bl	RegionEU868NewChannelReq
 603              	.LVL68:
 604 0010 FAE7     		b	.L66
 605              		.cfi_endproc
 606              	.LFE52:
ARM GAS  C:\Users\EBANO_~1\AppData\Local\Temp\ccOSDu2a.s 			page 27


 607              		.size	RegionNewChannelReq, .-RegionNewChannelReq
 608 0012 C046     		.section	.text.RegionTxParamSetupReq,"ax",%progbits
 609              		.align	1
 610              		.p2align 2,,3
 611              		.global	RegionTxParamSetupReq
 612              		.syntax unified
 613              		.code	16
 614              		.thumb_func
 615              		.fpu softvfp
 616              		.type	RegionTxParamSetupReq, %function
 617              	RegionTxParamSetupReq:
 618              	.LFB53:
 868:../../../../../../Middlewares/Third_Party/LoRaWAN/Mac/region/Region.c **** 
 869:../../../../../../Middlewares/Third_Party/LoRaWAN/Mac/region/Region.c **** int8_t RegionTxParamSetupReq( LoRaMacRegion_t region, TxParamSetupReqParams_t* txParamSetupReq )
 870:../../../../../../Middlewares/Third_Party/LoRaWAN/Mac/region/Region.c **** {
 619              		.loc 1 870 0
 620              		.cfi_startproc
 621              		@ args = 0, pretend = 0, frame = 0
 622              		@ frame_needed = 0, uses_anonymous_args = 0
 623              	.LVL69:
 624 0000 10B5     		push	{r4, lr}
 625              	.LCFI15:
 626              		.cfi_def_cfa_offset 8
 627              		.cfi_offset 4, -8
 628              		.cfi_offset 14, -4
 871:../../../../../../Middlewares/Third_Party/LoRaWAN/Mac/region/Region.c ****     switch( region )
 629              		.loc 1 871 0
 630 0002 0528     		cmp	r0, #5
 631 0004 01D0     		beq	.L76
 872:../../../../../../Middlewares/Third_Party/LoRaWAN/Mac/region/Region.c ****     {
 873:../../../../../../Middlewares/Third_Party/LoRaWAN/Mac/region/Region.c ****         AS923_TX_PARAM_SETUP_REQ( );
 874:../../../../../../Middlewares/Third_Party/LoRaWAN/Mac/region/Region.c ****         AU915_TX_PARAM_SETUP_REQ( );
 875:../../../../../../Middlewares/Third_Party/LoRaWAN/Mac/region/Region.c ****         CN470_TX_PARAM_SETUP_REQ( );
 876:../../../../../../Middlewares/Third_Party/LoRaWAN/Mac/region/Region.c ****         CN779_TX_PARAM_SETUP_REQ( );
 877:../../../../../../Middlewares/Third_Party/LoRaWAN/Mac/region/Region.c ****         EU433_TX_PARAM_SETUP_REQ( );
 878:../../../../../../Middlewares/Third_Party/LoRaWAN/Mac/region/Region.c ****         EU868_TX_PARAM_SETUP_REQ( );
 879:../../../../../../Middlewares/Third_Party/LoRaWAN/Mac/region/Region.c ****         KR920_TX_PARAM_SETUP_REQ( );
 880:../../../../../../Middlewares/Third_Party/LoRaWAN/Mac/region/Region.c ****         IN865_TX_PARAM_SETUP_REQ( );
 881:../../../../../../Middlewares/Third_Party/LoRaWAN/Mac/region/Region.c ****         US915_TX_PARAM_SETUP_REQ( );
 882:../../../../../../Middlewares/Third_Party/LoRaWAN/Mac/region/Region.c ****         RU864_TX_PARAM_SETUP_REQ( );
 883:../../../../../../Middlewares/Third_Party/LoRaWAN/Mac/region/Region.c ****         default:
 884:../../../../../../Middlewares/Third_Party/LoRaWAN/Mac/region/Region.c ****         {
 885:../../../../../../Middlewares/Third_Party/LoRaWAN/Mac/region/Region.c ****             return 0;
 632              		.loc 1 885 0
 633 0006 0020     		movs	r0, #0
 634              	.LVL70:
 635              	.L72:
 886:../../../../../../Middlewares/Third_Party/LoRaWAN/Mac/region/Region.c ****         }
 887:../../../../../../Middlewares/Third_Party/LoRaWAN/Mac/region/Region.c ****     }
 888:../../../../../../Middlewares/Third_Party/LoRaWAN/Mac/region/Region.c **** }
 636              		.loc 1 888 0
 637              		@ sp needed
 638 0008 10BD     		pop	{r4, pc}
 639              	.LVL71:
 640              	.L76:
 878:../../../../../../Middlewares/Third_Party/LoRaWAN/Mac/region/Region.c ****         KR920_TX_PARAM_SETUP_REQ( );
 641              		.loc 1 878 0
ARM GAS  C:\Users\EBANO_~1\AppData\Local\Temp\ccOSDu2a.s 			page 28


 642 000a 0800     		movs	r0, r1
 643              	.LVL72:
 644 000c FFF7FEFF 		bl	RegionEU868TxParamSetupReq
 645              	.LVL73:
 646 0010 FAE7     		b	.L72
 647              		.cfi_endproc
 648              	.LFE53:
 649              		.size	RegionTxParamSetupReq, .-RegionTxParamSetupReq
 650 0012 C046     		.section	.text.RegionDlChannelReq,"ax",%progbits
 651              		.align	1
 652              		.p2align 2,,3
 653              		.global	RegionDlChannelReq
 654              		.syntax unified
 655              		.code	16
 656              		.thumb_func
 657              		.fpu softvfp
 658              		.type	RegionDlChannelReq, %function
 659              	RegionDlChannelReq:
 660              	.LFB54:
 889:../../../../../../Middlewares/Third_Party/LoRaWAN/Mac/region/Region.c **** 
 890:../../../../../../Middlewares/Third_Party/LoRaWAN/Mac/region/Region.c **** uint8_t RegionDlChannelReq( LoRaMacRegion_t region, DlChannelReqParams_t* dlChannelReq )
 891:../../../../../../Middlewares/Third_Party/LoRaWAN/Mac/region/Region.c **** {
 661              		.loc 1 891 0
 662              		.cfi_startproc
 663              		@ args = 0, pretend = 0, frame = 0
 664              		@ frame_needed = 0, uses_anonymous_args = 0
 665              	.LVL74:
 666 0000 10B5     		push	{r4, lr}
 667              	.LCFI16:
 668              		.cfi_def_cfa_offset 8
 669              		.cfi_offset 4, -8
 670              		.cfi_offset 14, -4
 892:../../../../../../Middlewares/Third_Party/LoRaWAN/Mac/region/Region.c ****     switch( region )
 671              		.loc 1 892 0
 672 0002 0528     		cmp	r0, #5
 673 0004 01D0     		beq	.L82
 893:../../../../../../Middlewares/Third_Party/LoRaWAN/Mac/region/Region.c ****     {
 894:../../../../../../Middlewares/Third_Party/LoRaWAN/Mac/region/Region.c ****         AS923_DL_CHANNEL_REQ( );
 895:../../../../../../Middlewares/Third_Party/LoRaWAN/Mac/region/Region.c ****         AU915_DL_CHANNEL_REQ( );
 896:../../../../../../Middlewares/Third_Party/LoRaWAN/Mac/region/Region.c ****         CN470_DL_CHANNEL_REQ( );
 897:../../../../../../Middlewares/Third_Party/LoRaWAN/Mac/region/Region.c ****         CN779_DL_CHANNEL_REQ( );
 898:../../../../../../Middlewares/Third_Party/LoRaWAN/Mac/region/Region.c ****         EU433_DL_CHANNEL_REQ( );
 899:../../../../../../Middlewares/Third_Party/LoRaWAN/Mac/region/Region.c ****         EU868_DL_CHANNEL_REQ( );
 900:../../../../../../Middlewares/Third_Party/LoRaWAN/Mac/region/Region.c ****         KR920_DL_CHANNEL_REQ( );
 901:../../../../../../Middlewares/Third_Party/LoRaWAN/Mac/region/Region.c ****         IN865_DL_CHANNEL_REQ( );
 902:../../../../../../Middlewares/Third_Party/LoRaWAN/Mac/region/Region.c ****         US915_DL_CHANNEL_REQ( );
 903:../../../../../../Middlewares/Third_Party/LoRaWAN/Mac/region/Region.c ****         RU864_DL_CHANNEL_REQ( );
 904:../../../../../../Middlewares/Third_Party/LoRaWAN/Mac/region/Region.c ****         default:
 905:../../../../../../Middlewares/Third_Party/LoRaWAN/Mac/region/Region.c ****         {
 906:../../../../../../Middlewares/Third_Party/LoRaWAN/Mac/region/Region.c ****             return 0;
 674              		.loc 1 906 0
 675 0006 0020     		movs	r0, #0
 676              	.LVL75:
 677              	.L78:
 907:../../../../../../Middlewares/Third_Party/LoRaWAN/Mac/region/Region.c ****         }
 908:../../../../../../Middlewares/Third_Party/LoRaWAN/Mac/region/Region.c ****     }
 909:../../../../../../Middlewares/Third_Party/LoRaWAN/Mac/region/Region.c **** }
ARM GAS  C:\Users\EBANO_~1\AppData\Local\Temp\ccOSDu2a.s 			page 29


 678              		.loc 1 909 0
 679              		@ sp needed
 680 0008 10BD     		pop	{r4, pc}
 681              	.LVL76:
 682              	.L82:
 899:../../../../../../Middlewares/Third_Party/LoRaWAN/Mac/region/Region.c ****         KR920_DL_CHANNEL_REQ( );
 683              		.loc 1 899 0
 684 000a 0800     		movs	r0, r1
 685              	.LVL77:
 686 000c FFF7FEFF 		bl	RegionEU868DlChannelReq
 687              	.LVL78:
 688 0010 FAE7     		b	.L78
 689              		.cfi_endproc
 690              	.LFE54:
 691              		.size	RegionDlChannelReq, .-RegionDlChannelReq
 692 0012 C046     		.section	.text.RegionAlternateDr,"ax",%progbits
 693              		.align	1
 694              		.p2align 2,,3
 695              		.global	RegionAlternateDr
 696              		.syntax unified
 697              		.code	16
 698              		.thumb_func
 699              		.fpu softvfp
 700              		.type	RegionAlternateDr, %function
 701              	RegionAlternateDr:
 702              	.LFB55:
 910:../../../../../../Middlewares/Third_Party/LoRaWAN/Mac/region/Region.c **** 
 911:../../../../../../Middlewares/Third_Party/LoRaWAN/Mac/region/Region.c **** int8_t RegionAlternateDr( LoRaMacRegion_t region, int8_t currentDr, AlternateDrType_t type )
 912:../../../../../../Middlewares/Third_Party/LoRaWAN/Mac/region/Region.c **** {
 703              		.loc 1 912 0
 704              		.cfi_startproc
 705              		@ args = 0, pretend = 0, frame = 0
 706              		@ frame_needed = 0, uses_anonymous_args = 0
 707              	.LVL79:
 708 0000 10B5     		push	{r4, lr}
 709              	.LCFI17:
 710              		.cfi_def_cfa_offset 8
 711              		.cfi_offset 4, -8
 712              		.cfi_offset 14, -4
 713              		.loc 1 912 0
 714 0002 0B00     		movs	r3, r1
 913:../../../../../../Middlewares/Third_Party/LoRaWAN/Mac/region/Region.c ****     switch( region )
 715              		.loc 1 913 0
 716 0004 0528     		cmp	r0, #5
 717 0006 01D0     		beq	.L88
 914:../../../../../../Middlewares/Third_Party/LoRaWAN/Mac/region/Region.c ****     {
 915:../../../../../../Middlewares/Third_Party/LoRaWAN/Mac/region/Region.c ****         AS923_ALTERNATE_DR( );
 916:../../../../../../Middlewares/Third_Party/LoRaWAN/Mac/region/Region.c ****         AU915_ALTERNATE_DR( );
 917:../../../../../../Middlewares/Third_Party/LoRaWAN/Mac/region/Region.c ****         CN470_ALTERNATE_DR( );
 918:../../../../../../Middlewares/Third_Party/LoRaWAN/Mac/region/Region.c ****         CN779_ALTERNATE_DR( );
 919:../../../../../../Middlewares/Third_Party/LoRaWAN/Mac/region/Region.c ****         EU433_ALTERNATE_DR( );
 920:../../../../../../Middlewares/Third_Party/LoRaWAN/Mac/region/Region.c ****         EU868_ALTERNATE_DR( );
 921:../../../../../../Middlewares/Third_Party/LoRaWAN/Mac/region/Region.c ****         KR920_ALTERNATE_DR( );
 922:../../../../../../Middlewares/Third_Party/LoRaWAN/Mac/region/Region.c ****         IN865_ALTERNATE_DR( );
 923:../../../../../../Middlewares/Third_Party/LoRaWAN/Mac/region/Region.c ****         US915_ALTERNATE_DR( );
 924:../../../../../../Middlewares/Third_Party/LoRaWAN/Mac/region/Region.c ****         RU864_ALTERNATE_DR( );
 925:../../../../../../Middlewares/Third_Party/LoRaWAN/Mac/region/Region.c ****         default:
ARM GAS  C:\Users\EBANO_~1\AppData\Local\Temp\ccOSDu2a.s 			page 30


 926:../../../../../../Middlewares/Third_Party/LoRaWAN/Mac/region/Region.c ****         {
 927:../../../../../../Middlewares/Third_Party/LoRaWAN/Mac/region/Region.c ****             return 0;
 718              		.loc 1 927 0
 719 0008 0020     		movs	r0, #0
 720              	.LVL80:
 721              	.L84:
 928:../../../../../../Middlewares/Third_Party/LoRaWAN/Mac/region/Region.c ****         }
 929:../../../../../../Middlewares/Third_Party/LoRaWAN/Mac/region/Region.c ****     }
 930:../../../../../../Middlewares/Third_Party/LoRaWAN/Mac/region/Region.c **** }
 722              		.loc 1 930 0
 723              		@ sp needed
 724 000a 10BD     		pop	{r4, pc}
 725              	.LVL81:
 726              	.L88:
 920:../../../../../../Middlewares/Third_Party/LoRaWAN/Mac/region/Region.c ****         KR920_ALTERNATE_DR( );
 727              		.loc 1 920 0
 728 000c 1100     		movs	r1, r2
 729              	.LVL82:
 730 000e 1800     		movs	r0, r3
 731              	.LVL83:
 732 0010 FFF7FEFF 		bl	RegionEU868AlternateDr
 733              	.LVL84:
 734 0014 F9E7     		b	.L84
 735              		.cfi_endproc
 736              	.LFE55:
 737              		.size	RegionAlternateDr, .-RegionAlternateDr
 738 0016 C046     		.section	.text.RegionCalcBackOff,"ax",%progbits
 739              		.align	1
 740              		.p2align 2,,3
 741              		.global	RegionCalcBackOff
 742              		.syntax unified
 743              		.code	16
 744              		.thumb_func
 745              		.fpu softvfp
 746              		.type	RegionCalcBackOff, %function
 747              	RegionCalcBackOff:
 748              	.LFB56:
 931:../../../../../../Middlewares/Third_Party/LoRaWAN/Mac/region/Region.c **** 
 932:../../../../../../Middlewares/Third_Party/LoRaWAN/Mac/region/Region.c **** void RegionCalcBackOff( LoRaMacRegion_t region, CalcBackOffParams_t* calcBackOff )
 933:../../../../../../Middlewares/Third_Party/LoRaWAN/Mac/region/Region.c **** {
 749              		.loc 1 933 0
 750              		.cfi_startproc
 751              		@ args = 0, pretend = 0, frame = 0
 752              		@ frame_needed = 0, uses_anonymous_args = 0
 753              	.LVL85:
 754 0000 10B5     		push	{r4, lr}
 755              	.LCFI18:
 756              		.cfi_def_cfa_offset 8
 757              		.cfi_offset 4, -8
 758              		.cfi_offset 14, -4
 934:../../../../../../Middlewares/Third_Party/LoRaWAN/Mac/region/Region.c ****     switch( region )
 759              		.loc 1 934 0
 760 0002 0528     		cmp	r0, #5
 761 0004 02D1     		bne	.L89
 935:../../../../../../Middlewares/Third_Party/LoRaWAN/Mac/region/Region.c ****     {
 936:../../../../../../Middlewares/Third_Party/LoRaWAN/Mac/region/Region.c ****         AS923_CALC_BACKOFF( );
 937:../../../../../../Middlewares/Third_Party/LoRaWAN/Mac/region/Region.c ****         AU915_CALC_BACKOFF( );
ARM GAS  C:\Users\EBANO_~1\AppData\Local\Temp\ccOSDu2a.s 			page 31


 938:../../../../../../Middlewares/Third_Party/LoRaWAN/Mac/region/Region.c ****         CN470_CALC_BACKOFF( );
 939:../../../../../../Middlewares/Third_Party/LoRaWAN/Mac/region/Region.c ****         CN779_CALC_BACKOFF( );
 940:../../../../../../Middlewares/Third_Party/LoRaWAN/Mac/region/Region.c ****         EU433_CALC_BACKOFF( );
 941:../../../../../../Middlewares/Third_Party/LoRaWAN/Mac/region/Region.c ****         EU868_CALC_BACKOFF( );
 762              		.loc 1 941 0
 763 0006 0800     		movs	r0, r1
 764              	.LVL86:
 765 0008 FFF7FEFF 		bl	RegionEU868CalcBackOff
 766              	.LVL87:
 767              	.L89:
 942:../../../../../../Middlewares/Third_Party/LoRaWAN/Mac/region/Region.c ****         KR920_CALC_BACKOFF( );
 943:../../../../../../Middlewares/Third_Party/LoRaWAN/Mac/region/Region.c ****         IN865_CALC_BACKOFF( );
 944:../../../../../../Middlewares/Third_Party/LoRaWAN/Mac/region/Region.c ****         US915_CALC_BACKOFF( );
 945:../../../../../../Middlewares/Third_Party/LoRaWAN/Mac/region/Region.c ****         RU864_CALC_BACKOFF( );
 946:../../../../../../Middlewares/Third_Party/LoRaWAN/Mac/region/Region.c ****         default:
 947:../../../../../../Middlewares/Third_Party/LoRaWAN/Mac/region/Region.c ****         {
 948:../../../../../../Middlewares/Third_Party/LoRaWAN/Mac/region/Region.c ****             break;
 949:../../../../../../Middlewares/Third_Party/LoRaWAN/Mac/region/Region.c ****         }
 950:../../../../../../Middlewares/Third_Party/LoRaWAN/Mac/region/Region.c ****     }
 951:../../../../../../Middlewares/Third_Party/LoRaWAN/Mac/region/Region.c **** }
 768              		.loc 1 951 0
 769              		@ sp needed
 770 000c 10BD     		pop	{r4, pc}
 771              		.cfi_endproc
 772              	.LFE56:
 773              		.size	RegionCalcBackOff, .-RegionCalcBackOff
 774 000e C046     		.section	.text.RegionNextChannel,"ax",%progbits
 775              		.align	1
 776              		.p2align 2,,3
 777              		.global	RegionNextChannel
 778              		.syntax unified
 779              		.code	16
 780              		.thumb_func
 781              		.fpu softvfp
 782              		.type	RegionNextChannel, %function
 783              	RegionNextChannel:
 784              	.LFB57:
 952:../../../../../../Middlewares/Third_Party/LoRaWAN/Mac/region/Region.c **** 
 953:../../../../../../Middlewares/Third_Party/LoRaWAN/Mac/region/Region.c **** LoRaMacStatus_t RegionNextChannel( LoRaMacRegion_t region, NextChanParams_t* nextChanParams, uint8_
 954:../../../../../../Middlewares/Third_Party/LoRaWAN/Mac/region/Region.c **** {
 785              		.loc 1 954 0
 786              		.cfi_startproc
 787              		@ args = 4, pretend = 0, frame = 0
 788              		@ frame_needed = 0, uses_anonymous_args = 0
 789              	.LVL88:
 790 0000 10B5     		push	{r4, lr}
 791              	.LCFI19:
 792              		.cfi_def_cfa_offset 8
 793              		.cfi_offset 4, -8
 794              		.cfi_offset 14, -4
 795              		.loc 1 954 0
 796 0002 0C00     		movs	r4, r1
 797 0004 1100     		movs	r1, r2
 798              	.LVL89:
 799 0006 1A00     		movs	r2, r3
 800              	.LVL90:
 955:../../../../../../Middlewares/Third_Party/LoRaWAN/Mac/region/Region.c ****     switch( region )
ARM GAS  C:\Users\EBANO_~1\AppData\Local\Temp\ccOSDu2a.s 			page 32


 801              		.loc 1 955 0
 802 0008 0528     		cmp	r0, #5
 803 000a 04D1     		bne	.L96
 956:../../../../../../Middlewares/Third_Party/LoRaWAN/Mac/region/Region.c ****     {
 957:../../../../../../Middlewares/Third_Party/LoRaWAN/Mac/region/Region.c ****         AS923_NEXT_CHANNEL( );
 958:../../../../../../Middlewares/Third_Party/LoRaWAN/Mac/region/Region.c ****         AU915_NEXT_CHANNEL( );
 959:../../../../../../Middlewares/Third_Party/LoRaWAN/Mac/region/Region.c ****         CN470_NEXT_CHANNEL( );
 960:../../../../../../Middlewares/Third_Party/LoRaWAN/Mac/region/Region.c ****         CN779_NEXT_CHANNEL( );
 961:../../../../../../Middlewares/Third_Party/LoRaWAN/Mac/region/Region.c ****         EU433_NEXT_CHANNEL( );
 962:../../../../../../Middlewares/Third_Party/LoRaWAN/Mac/region/Region.c ****         EU868_NEXT_CHANNEL( );
 804              		.loc 1 962 0
 805 000c 029B     		ldr	r3, [sp, #8]
 806              	.LVL91:
 807 000e 2000     		movs	r0, r4
 808              	.LVL92:
 809 0010 FFF7FEFF 		bl	RegionEU868NextChannel
 810              	.LVL93:
 811              	.L93:
 963:../../../../../../Middlewares/Third_Party/LoRaWAN/Mac/region/Region.c ****         KR920_NEXT_CHANNEL( );
 964:../../../../../../Middlewares/Third_Party/LoRaWAN/Mac/region/Region.c ****         IN865_NEXT_CHANNEL( );
 965:../../../../../../Middlewares/Third_Party/LoRaWAN/Mac/region/Region.c ****         US915_NEXT_CHANNEL( );
 966:../../../../../../Middlewares/Third_Party/LoRaWAN/Mac/region/Region.c ****         RU864_NEXT_CHANNEL( );
 967:../../../../../../Middlewares/Third_Party/LoRaWAN/Mac/region/Region.c ****         default:
 968:../../../../../../Middlewares/Third_Party/LoRaWAN/Mac/region/Region.c ****         {
 969:../../../../../../Middlewares/Third_Party/LoRaWAN/Mac/region/Region.c ****             return LORAMAC_STATUS_REGION_NOT_SUPPORTED;
 970:../../../../../../Middlewares/Third_Party/LoRaWAN/Mac/region/Region.c ****         }
 971:../../../../../../Middlewares/Third_Party/LoRaWAN/Mac/region/Region.c ****     }
 972:../../../../../../Middlewares/Third_Party/LoRaWAN/Mac/region/Region.c **** }
 812              		.loc 1 972 0
 813              		@ sp needed
 814              	.LVL94:
 815 0014 10BD     		pop	{r4, pc}
 816              	.LVL95:
 817              	.L96:
 969:../../../../../../Middlewares/Third_Party/LoRaWAN/Mac/region/Region.c ****         }
 818              		.loc 1 969 0
 819 0016 0920     		movs	r0, #9
 820              	.LVL96:
 821 0018 FCE7     		b	.L93
 822              		.cfi_endproc
 823              	.LFE57:
 824              		.size	RegionNextChannel, .-RegionNextChannel
 825 001a C046     		.section	.text.RegionChannelAdd,"ax",%progbits
 826              		.align	1
 827              		.p2align 2,,3
 828              		.global	RegionChannelAdd
 829              		.syntax unified
 830              		.code	16
 831              		.thumb_func
 832              		.fpu softvfp
 833              		.type	RegionChannelAdd, %function
 834              	RegionChannelAdd:
 835              	.LFB58:
 973:../../../../../../Middlewares/Third_Party/LoRaWAN/Mac/region/Region.c **** 
 974:../../../../../../Middlewares/Third_Party/LoRaWAN/Mac/region/Region.c **** LoRaMacStatus_t RegionChannelAdd( LoRaMacRegion_t region, ChannelAddParams_t* channelAdd )
 975:../../../../../../Middlewares/Third_Party/LoRaWAN/Mac/region/Region.c **** {
 836              		.loc 1 975 0
ARM GAS  C:\Users\EBANO_~1\AppData\Local\Temp\ccOSDu2a.s 			page 33


 837              		.cfi_startproc
 838              		@ args = 0, pretend = 0, frame = 0
 839              		@ frame_needed = 0, uses_anonymous_args = 0
 840              	.LVL97:
 841 0000 10B5     		push	{r4, lr}
 842              	.LCFI20:
 843              		.cfi_def_cfa_offset 8
 844              		.cfi_offset 4, -8
 845              		.cfi_offset 14, -4
 976:../../../../../../Middlewares/Third_Party/LoRaWAN/Mac/region/Region.c ****     switch( region )
 846              		.loc 1 976 0
 847 0002 0528     		cmp	r0, #5
 848 0004 03D1     		bne	.L101
 977:../../../../../../Middlewares/Third_Party/LoRaWAN/Mac/region/Region.c ****     {
 978:../../../../../../Middlewares/Third_Party/LoRaWAN/Mac/region/Region.c ****         AS923_CHANNEL_ADD( );
 979:../../../../../../Middlewares/Third_Party/LoRaWAN/Mac/region/Region.c ****         AU915_CHANNEL_ADD( );
 980:../../../../../../Middlewares/Third_Party/LoRaWAN/Mac/region/Region.c ****         CN470_CHANNEL_ADD( );
 981:../../../../../../Middlewares/Third_Party/LoRaWAN/Mac/region/Region.c ****         CN779_CHANNEL_ADD( );
 982:../../../../../../Middlewares/Third_Party/LoRaWAN/Mac/region/Region.c ****         EU433_CHANNEL_ADD( );
 983:../../../../../../Middlewares/Third_Party/LoRaWAN/Mac/region/Region.c ****         EU868_CHANNEL_ADD( );
 849              		.loc 1 983 0
 850 0006 0800     		movs	r0, r1
 851              	.LVL98:
 852 0008 FFF7FEFF 		bl	RegionEU868ChannelAdd
 853              	.LVL99:
 854              	.L98:
 984:../../../../../../Middlewares/Third_Party/LoRaWAN/Mac/region/Region.c ****         KR920_CHANNEL_ADD( );
 985:../../../../../../Middlewares/Third_Party/LoRaWAN/Mac/region/Region.c ****         IN865_CHANNEL_ADD( );
 986:../../../../../../Middlewares/Third_Party/LoRaWAN/Mac/region/Region.c ****         US915_CHANNEL_ADD( );
 987:../../../../../../Middlewares/Third_Party/LoRaWAN/Mac/region/Region.c ****         RU864_CHANNEL_ADD( );
 988:../../../../../../Middlewares/Third_Party/LoRaWAN/Mac/region/Region.c ****         default:
 989:../../../../../../Middlewares/Third_Party/LoRaWAN/Mac/region/Region.c ****         {
 990:../../../../../../Middlewares/Third_Party/LoRaWAN/Mac/region/Region.c ****             return LORAMAC_STATUS_PARAMETER_INVALID;
 991:../../../../../../Middlewares/Third_Party/LoRaWAN/Mac/region/Region.c ****         }
 992:../../../../../../Middlewares/Third_Party/LoRaWAN/Mac/region/Region.c ****     }
 993:../../../../../../Middlewares/Third_Party/LoRaWAN/Mac/region/Region.c **** }
 855              		.loc 1 993 0
 856              		@ sp needed
 857 000c 10BD     		pop	{r4, pc}
 858              	.LVL100:
 859              	.L101:
 990:../../../../../../Middlewares/Third_Party/LoRaWAN/Mac/region/Region.c ****         }
 860              		.loc 1 990 0
 861 000e 0320     		movs	r0, #3
 862              	.LVL101:
 863 0010 FCE7     		b	.L98
 864              		.cfi_endproc
 865              	.LFE58:
 866              		.size	RegionChannelAdd, .-RegionChannelAdd
 867 0012 C046     		.section	.text.RegionChannelsRemove,"ax",%progbits
 868              		.align	1
 869              		.p2align 2,,3
 870              		.global	RegionChannelsRemove
 871              		.syntax unified
 872              		.code	16
 873              		.thumb_func
 874              		.fpu softvfp
ARM GAS  C:\Users\EBANO_~1\AppData\Local\Temp\ccOSDu2a.s 			page 34


 875              		.type	RegionChannelsRemove, %function
 876              	RegionChannelsRemove:
 877              	.LFB59:
 994:../../../../../../Middlewares/Third_Party/LoRaWAN/Mac/region/Region.c **** 
 995:../../../../../../Middlewares/Third_Party/LoRaWAN/Mac/region/Region.c **** bool RegionChannelsRemove( LoRaMacRegion_t region, ChannelRemoveParams_t* channelRemove )
 996:../../../../../../Middlewares/Third_Party/LoRaWAN/Mac/region/Region.c **** {
 878              		.loc 1 996 0
 879              		.cfi_startproc
 880              		@ args = 0, pretend = 0, frame = 0
 881              		@ frame_needed = 0, uses_anonymous_args = 0
 882              	.LVL102:
 883 0000 10B5     		push	{r4, lr}
 884              	.LCFI21:
 885              		.cfi_def_cfa_offset 8
 886              		.cfi_offset 4, -8
 887              		.cfi_offset 14, -4
 997:../../../../../../Middlewares/Third_Party/LoRaWAN/Mac/region/Region.c ****     switch( region )
 888              		.loc 1 997 0
 889 0002 0528     		cmp	r0, #5
 890 0004 01D0     		beq	.L107
 998:../../../../../../Middlewares/Third_Party/LoRaWAN/Mac/region/Region.c ****     {
 999:../../../../../../Middlewares/Third_Party/LoRaWAN/Mac/region/Region.c ****         AS923_CHANNEL_REMOVE( );
1000:../../../../../../Middlewares/Third_Party/LoRaWAN/Mac/region/Region.c ****         AU915_CHANNEL_REMOVE( );
1001:../../../../../../Middlewares/Third_Party/LoRaWAN/Mac/region/Region.c ****         CN470_CHANNEL_REMOVE( );
1002:../../../../../../Middlewares/Third_Party/LoRaWAN/Mac/region/Region.c ****         CN779_CHANNEL_REMOVE( );
1003:../../../../../../Middlewares/Third_Party/LoRaWAN/Mac/region/Region.c ****         EU433_CHANNEL_REMOVE( );
1004:../../../../../../Middlewares/Third_Party/LoRaWAN/Mac/region/Region.c ****         EU868_CHANNEL_REMOVE( );
1005:../../../../../../Middlewares/Third_Party/LoRaWAN/Mac/region/Region.c ****         KR920_CHANNEL_REMOVE( );
1006:../../../../../../Middlewares/Third_Party/LoRaWAN/Mac/region/Region.c ****         IN865_CHANNEL_REMOVE( );
1007:../../../../../../Middlewares/Third_Party/LoRaWAN/Mac/region/Region.c ****         US915_CHANNEL_REMOVE( );
1008:../../../../../../Middlewares/Third_Party/LoRaWAN/Mac/region/Region.c ****         RU864_CHANNEL_REMOVE( );
1009:../../../../../../Middlewares/Third_Party/LoRaWAN/Mac/region/Region.c ****         default:
1010:../../../../../../Middlewares/Third_Party/LoRaWAN/Mac/region/Region.c ****         {
1011:../../../../../../Middlewares/Third_Party/LoRaWAN/Mac/region/Region.c ****             return false;
 891              		.loc 1 1011 0
 892 0006 0020     		movs	r0, #0
 893              	.LVL103:
 894              	.L103:
1012:../../../../../../Middlewares/Third_Party/LoRaWAN/Mac/region/Region.c ****         }
1013:../../../../../../Middlewares/Third_Party/LoRaWAN/Mac/region/Region.c ****     }
1014:../../../../../../Middlewares/Third_Party/LoRaWAN/Mac/region/Region.c **** }
 895              		.loc 1 1014 0
 896              		@ sp needed
 897 0008 10BD     		pop	{r4, pc}
 898              	.LVL104:
 899              	.L107:
1004:../../../../../../Middlewares/Third_Party/LoRaWAN/Mac/region/Region.c ****         KR920_CHANNEL_REMOVE( );
 900              		.loc 1 1004 0
 901 000a 0800     		movs	r0, r1
 902              	.LVL105:
 903 000c FFF7FEFF 		bl	RegionEU868ChannelsRemove
 904              	.LVL106:
 905 0010 FAE7     		b	.L103
 906              		.cfi_endproc
 907              	.LFE59:
 908              		.size	RegionChannelsRemove, .-RegionChannelsRemove
 909 0012 C046     		.section	.text.RegionSetContinuousWave,"ax",%progbits
ARM GAS  C:\Users\EBANO_~1\AppData\Local\Temp\ccOSDu2a.s 			page 35


 910              		.align	1
 911              		.p2align 2,,3
 912              		.global	RegionSetContinuousWave
 913              		.syntax unified
 914              		.code	16
 915              		.thumb_func
 916              		.fpu softvfp
 917              		.type	RegionSetContinuousWave, %function
 918              	RegionSetContinuousWave:
 919              	.LFB60:
1015:../../../../../../Middlewares/Third_Party/LoRaWAN/Mac/region/Region.c **** 
1016:../../../../../../Middlewares/Third_Party/LoRaWAN/Mac/region/Region.c **** void RegionSetContinuousWave( LoRaMacRegion_t region, ContinuousWaveParams_t* continuousWave )
1017:../../../../../../Middlewares/Third_Party/LoRaWAN/Mac/region/Region.c **** {
 920              		.loc 1 1017 0
 921              		.cfi_startproc
 922              		@ args = 0, pretend = 0, frame = 0
 923              		@ frame_needed = 0, uses_anonymous_args = 0
 924              	.LVL107:
 925 0000 10B5     		push	{r4, lr}
 926              	.LCFI22:
 927              		.cfi_def_cfa_offset 8
 928              		.cfi_offset 4, -8
 929              		.cfi_offset 14, -4
1018:../../../../../../Middlewares/Third_Party/LoRaWAN/Mac/region/Region.c ****     switch( region )
 930              		.loc 1 1018 0
 931 0002 0528     		cmp	r0, #5
 932 0004 02D1     		bne	.L108
1019:../../../../../../Middlewares/Third_Party/LoRaWAN/Mac/region/Region.c ****     {
1020:../../../../../../Middlewares/Third_Party/LoRaWAN/Mac/region/Region.c ****         AS923_SET_CONTINUOUS_WAVE( );
1021:../../../../../../Middlewares/Third_Party/LoRaWAN/Mac/region/Region.c ****         AU915_SET_CONTINUOUS_WAVE( );
1022:../../../../../../Middlewares/Third_Party/LoRaWAN/Mac/region/Region.c ****         CN470_SET_CONTINUOUS_WAVE( );
1023:../../../../../../Middlewares/Third_Party/LoRaWAN/Mac/region/Region.c ****         CN779_SET_CONTINUOUS_WAVE( );
1024:../../../../../../Middlewares/Third_Party/LoRaWAN/Mac/region/Region.c ****         EU433_SET_CONTINUOUS_WAVE( );
1025:../../../../../../Middlewares/Third_Party/LoRaWAN/Mac/region/Region.c ****         EU868_SET_CONTINUOUS_WAVE( );
 933              		.loc 1 1025 0
 934 0006 0800     		movs	r0, r1
 935              	.LVL108:
 936 0008 FFF7FEFF 		bl	RegionEU868SetContinuousWave
 937              	.LVL109:
 938              	.L108:
1026:../../../../../../Middlewares/Third_Party/LoRaWAN/Mac/region/Region.c ****         KR920_SET_CONTINUOUS_WAVE( );
1027:../../../../../../Middlewares/Third_Party/LoRaWAN/Mac/region/Region.c ****         IN865_SET_CONTINUOUS_WAVE( );
1028:../../../../../../Middlewares/Third_Party/LoRaWAN/Mac/region/Region.c ****         US915_SET_CONTINUOUS_WAVE( );
1029:../../../../../../Middlewares/Third_Party/LoRaWAN/Mac/region/Region.c ****         RU864_SET_CONTINUOUS_WAVE( );
1030:../../../../../../Middlewares/Third_Party/LoRaWAN/Mac/region/Region.c ****         default:
1031:../../../../../../Middlewares/Third_Party/LoRaWAN/Mac/region/Region.c ****         {
1032:../../../../../../Middlewares/Third_Party/LoRaWAN/Mac/region/Region.c ****             break;
1033:../../../../../../Middlewares/Third_Party/LoRaWAN/Mac/region/Region.c ****         }
1034:../../../../../../Middlewares/Third_Party/LoRaWAN/Mac/region/Region.c ****     }
1035:../../../../../../Middlewares/Third_Party/LoRaWAN/Mac/region/Region.c **** }
 939              		.loc 1 1035 0
 940              		@ sp needed
 941 000c 10BD     		pop	{r4, pc}
 942              		.cfi_endproc
 943              	.LFE60:
 944              		.size	RegionSetContinuousWave, .-RegionSetContinuousWave
 945 000e C046     		.section	.text.RegionApplyDrOffset,"ax",%progbits
ARM GAS  C:\Users\EBANO_~1\AppData\Local\Temp\ccOSDu2a.s 			page 36


 946              		.align	1
 947              		.p2align 2,,3
 948              		.global	RegionApplyDrOffset
 949              		.syntax unified
 950              		.code	16
 951              		.thumb_func
 952              		.fpu softvfp
 953              		.type	RegionApplyDrOffset, %function
 954              	RegionApplyDrOffset:
 955              	.LFB61:
1036:../../../../../../Middlewares/Third_Party/LoRaWAN/Mac/region/Region.c **** 
1037:../../../../../../Middlewares/Third_Party/LoRaWAN/Mac/region/Region.c **** uint8_t RegionApplyDrOffset( LoRaMacRegion_t region, uint8_t downlinkDwellTime, int8_t dr, int8_t d
1038:../../../../../../Middlewares/Third_Party/LoRaWAN/Mac/region/Region.c **** {
 956              		.loc 1 1038 0
 957              		.cfi_startproc
 958              		@ args = 0, pretend = 0, frame = 0
 959              		@ frame_needed = 0, uses_anonymous_args = 0
 960              	.LVL110:
 961 0000 10B5     		push	{r4, lr}
 962              	.LCFI23:
 963              		.cfi_def_cfa_offset 8
 964              		.cfi_offset 4, -8
 965              		.cfi_offset 14, -4
 966              		.loc 1 1038 0
 967 0002 0C00     		movs	r4, r1
 968 0004 1100     		movs	r1, r2
 969              	.LVL111:
1039:../../../../../../Middlewares/Third_Party/LoRaWAN/Mac/region/Region.c ****     switch( region )
 970              		.loc 1 1039 0
 971 0006 0528     		cmp	r0, #5
 972 0008 01D0     		beq	.L116
1040:../../../../../../Middlewares/Third_Party/LoRaWAN/Mac/region/Region.c ****     {
1041:../../../../../../Middlewares/Third_Party/LoRaWAN/Mac/region/Region.c ****         AS923_APPLY_DR_OFFSET( );
1042:../../../../../../Middlewares/Third_Party/LoRaWAN/Mac/region/Region.c ****         AU915_APPLY_DR_OFFSET( );
1043:../../../../../../Middlewares/Third_Party/LoRaWAN/Mac/region/Region.c ****         CN470_APPLY_DR_OFFSET( );
1044:../../../../../../Middlewares/Third_Party/LoRaWAN/Mac/region/Region.c ****         CN779_APPLY_DR_OFFSET( );
1045:../../../../../../Middlewares/Third_Party/LoRaWAN/Mac/region/Region.c ****         EU433_APPLY_DR_OFFSET( );
1046:../../../../../../Middlewares/Third_Party/LoRaWAN/Mac/region/Region.c ****         EU868_APPLY_DR_OFFSET( );
1047:../../../../../../Middlewares/Third_Party/LoRaWAN/Mac/region/Region.c ****         KR920_APPLY_DR_OFFSET( );
1048:../../../../../../Middlewares/Third_Party/LoRaWAN/Mac/region/Region.c ****         IN865_APPLY_DR_OFFSET( );
1049:../../../../../../Middlewares/Third_Party/LoRaWAN/Mac/region/Region.c ****         US915_APPLY_DR_OFFSET( );
1050:../../../../../../Middlewares/Third_Party/LoRaWAN/Mac/region/Region.c ****         RU864_APPLY_DR_OFFSET( );
1051:../../../../../../Middlewares/Third_Party/LoRaWAN/Mac/region/Region.c ****         default:
1052:../../../../../../Middlewares/Third_Party/LoRaWAN/Mac/region/Region.c ****         {
1053:../../../../../../Middlewares/Third_Party/LoRaWAN/Mac/region/Region.c ****             return dr;
 973              		.loc 1 1053 0
 974 000a D0B2     		uxtb	r0, r2
 975              	.LVL112:
 976              	.L114:
1054:../../../../../../Middlewares/Third_Party/LoRaWAN/Mac/region/Region.c ****         }
1055:../../../../../../Middlewares/Third_Party/LoRaWAN/Mac/region/Region.c ****     }
1056:../../../../../../Middlewares/Third_Party/LoRaWAN/Mac/region/Region.c **** }
 977              		.loc 1 1056 0
 978              		@ sp needed
 979 000c 10BD     		pop	{r4, pc}
 980              	.LVL113:
 981              	.L116:
ARM GAS  C:\Users\EBANO_~1\AppData\Local\Temp\ccOSDu2a.s 			page 37


1046:../../../../../../Middlewares/Third_Party/LoRaWAN/Mac/region/Region.c ****         KR920_APPLY_DR_OFFSET( );
 982              		.loc 1 1046 0
 983 000e 1A00     		movs	r2, r3
 984              	.LVL114:
 985 0010 2000     		movs	r0, r4
 986              	.LVL115:
 987 0012 FFF7FEFF 		bl	RegionEU868ApplyDrOffset
 988              	.LVL116:
 989 0016 F9E7     		b	.L114
 990              		.cfi_endproc
 991              	.LFE61:
 992              		.size	RegionApplyDrOffset, .-RegionApplyDrOffset
 993              		.section	.text.RegionRxBeaconSetup,"ax",%progbits
 994              		.align	1
 995              		.p2align 2,,3
 996              		.global	RegionRxBeaconSetup
 997              		.syntax unified
 998              		.code	16
 999              		.thumb_func
 1000              		.fpu softvfp
 1001              		.type	RegionRxBeaconSetup, %function
 1002              	RegionRxBeaconSetup:
 1003              	.LFB62:
1057:../../../../../../Middlewares/Third_Party/LoRaWAN/Mac/region/Region.c **** 
1058:../../../../../../Middlewares/Third_Party/LoRaWAN/Mac/region/Region.c **** void RegionRxBeaconSetup( LoRaMacRegion_t region, RxBeaconSetup_t* rxBeaconSetup, uint8_t* outDr )
1059:../../../../../../Middlewares/Third_Party/LoRaWAN/Mac/region/Region.c **** {
 1004              		.loc 1 1059 0
 1005              		.cfi_startproc
 1006              		@ args = 0, pretend = 0, frame = 0
 1007              		@ frame_needed = 0, uses_anonymous_args = 0
 1008              	.LVL117:
 1009 0000 10B5     		push	{r4, lr}
 1010              	.LCFI24:
 1011              		.cfi_def_cfa_offset 8
 1012              		.cfi_offset 4, -8
 1013              		.cfi_offset 14, -4
 1014              		.loc 1 1059 0
 1015 0002 0B00     		movs	r3, r1
1060:../../../../../../Middlewares/Third_Party/LoRaWAN/Mac/region/Region.c ****     switch( region )
 1016              		.loc 1 1060 0
 1017 0004 0528     		cmp	r0, #5
 1018 0006 03D1     		bne	.L117
1061:../../../../../../Middlewares/Third_Party/LoRaWAN/Mac/region/Region.c ****     {
1062:../../../../../../Middlewares/Third_Party/LoRaWAN/Mac/region/Region.c ****         AS923_RX_BEACON_SETUP( );
1063:../../../../../../Middlewares/Third_Party/LoRaWAN/Mac/region/Region.c ****         AU915_RX_BEACON_SETUP( );
1064:../../../../../../Middlewares/Third_Party/LoRaWAN/Mac/region/Region.c ****         CN470_RX_BEACON_SETUP( );
1065:../../../../../../Middlewares/Third_Party/LoRaWAN/Mac/region/Region.c ****         CN779_RX_BEACON_SETUP( );
1066:../../../../../../Middlewares/Third_Party/LoRaWAN/Mac/region/Region.c ****         EU433_RX_BEACON_SETUP( );
1067:../../../../../../Middlewares/Third_Party/LoRaWAN/Mac/region/Region.c ****         EU868_RX_BEACON_SETUP( );
 1019              		.loc 1 1067 0
 1020 0008 1100     		movs	r1, r2
 1021              	.LVL118:
 1022 000a 1800     		movs	r0, r3
 1023              	.LVL119:
 1024 000c FFF7FEFF 		bl	RegionEU868RxBeaconSetup
 1025              	.LVL120:
 1026              	.L117:
ARM GAS  C:\Users\EBANO_~1\AppData\Local\Temp\ccOSDu2a.s 			page 38


1068:../../../../../../Middlewares/Third_Party/LoRaWAN/Mac/region/Region.c ****         KR920_RX_BEACON_SETUP( );
1069:../../../../../../Middlewares/Third_Party/LoRaWAN/Mac/region/Region.c ****         IN865_RX_BEACON_SETUP( );
1070:../../../../../../Middlewares/Third_Party/LoRaWAN/Mac/region/Region.c ****         US915_RX_BEACON_SETUP( );
1071:../../../../../../Middlewares/Third_Party/LoRaWAN/Mac/region/Region.c ****         RU864_RX_BEACON_SETUP( );
1072:../../../../../../Middlewares/Third_Party/LoRaWAN/Mac/region/Region.c ****         default:
1073:../../../../../../Middlewares/Third_Party/LoRaWAN/Mac/region/Region.c ****         {
1074:../../../../../../Middlewares/Third_Party/LoRaWAN/Mac/region/Region.c ****             break;
1075:../../../../../../Middlewares/Third_Party/LoRaWAN/Mac/region/Region.c ****         }
1076:../../../../../../Middlewares/Third_Party/LoRaWAN/Mac/region/Region.c ****     }
1077:../../../../../../Middlewares/Third_Party/LoRaWAN/Mac/region/Region.c **** }
 1027              		.loc 1 1077 0
 1028              		@ sp needed
 1029 0010 10BD     		pop	{r4, pc}
 1030              		.cfi_endproc
 1031              	.LFE62:
 1032              		.size	RegionRxBeaconSetup, .-RegionRxBeaconSetup
 1033 0012 C046     		.text
 1034              	.Letext0:
 1035              		.file 2 "c:\\program files (x86)\\gnu tools arm embedded\\7 2018-q2-update\\arm-none-eabi\\include
 1036              		.file 3 "c:\\program files (x86)\\gnu tools arm embedded\\7 2018-q2-update\\arm-none-eabi\\include
 1037              		.file 4 "../../../../../../Drivers/CMSIS/Device/ST/STM32L0xx/Include/system_stm32l0xx.h"
 1038              		.file 5 "c:\\program files (x86)\\gnu tools arm embedded\\7 2018-q2-update\\lib\\gcc\\arm-none-eab
 1039              		.file 6 "c:\\program files (x86)\\gnu tools arm embedded\\7 2018-q2-update\\arm-none-eabi\\include
 1040              		.file 7 "c:\\program files (x86)\\gnu tools arm embedded\\7 2018-q2-update\\arm-none-eabi\\include
 1041              		.file 8 "c:\\program files (x86)\\gnu tools arm embedded\\7 2018-q2-update\\arm-none-eabi\\include
 1042              		.file 9 "c:\\program files (x86)\\gnu tools arm embedded\\7 2018-q2-update\\arm-none-eabi\\include
 1043              		.file 10 "../../../../../../Middlewares/Third_Party/LoRaWAN/Utilities/utilities.h"
 1044              		.file 11 "c:\\program files (x86)\\gnu tools arm embedded\\7 2018-q2-update\\arm-none-eabi\\includ
 1045              		.file 12 "../../../../../../Middlewares/Third_Party/LoRaWAN/Phy/radio.h"
 1046              		.file 13 "../../../../../../Middlewares/Third_Party/LoRaWAN/Mac/LoRaMac.h"
 1047              		.file 14 "../../../../../../Middlewares/Third_Party/LoRaWAN/Mac/region/Region.h"
 1048              		.file 15 "../../../../../../Middlewares/Third_Party/LoRaWAN/Mac/region/RegionEU868.h"