ARM GAS  C:\Users\EBANO_~1\AppData\Local\Temp\ccazSBuk.s 			page 1


   1              		.cpu cortex-m0plus
   2              		.eabi_attribute 20, 1
   3              		.eabi_attribute 21, 1
   4              		.eabi_attribute 23, 3
   5              		.eabi_attribute 24, 1
   6              		.eabi_attribute 25, 1
   7              		.eabi_attribute 26, 1
   8              		.eabi_attribute 30, 2
   9              		.eabi_attribute 34, 0
  10              		.eabi_attribute 18, 4
  11              		.file	"RegionRU864.c"
  12              		.text
  13              	.Ltext0:
  14              		.cfi_sections	.debug_frame
  15              		.section	.text.RegionRU864GetPhyParam,"ax",%progbits
  16              		.align	1
  17              		.p2align 2,,3
  18              		.global	RegionRU864GetPhyParam
  19              		.syntax unified
  20              		.code	16
  21              		.thumb_func
  22              		.fpu softvfp
  23              		.type	RegionRU864GetPhyParam, %function
  24              	RegionRU864GetPhyParam:
  25              	.LFB44:
  26              		.file 1 "../../../../../../Middlewares/Third_Party/LoRaWAN/Mac/region/RegionRU864.c"
   1:../../../../../../Middlewares/Third_Party/LoRaWAN/Mac/region/RegionRU864.c **** /*!
   2:../../../../../../Middlewares/Third_Party/LoRaWAN/Mac/region/RegionRU864.c ****  * \file      RegionRU864.c
   3:../../../../../../Middlewares/Third_Party/LoRaWAN/Mac/region/RegionRU864.c ****  *
   4:../../../../../../Middlewares/Third_Party/LoRaWAN/Mac/region/RegionRU864.c ****  * \brief     Region implementation for RU864
   5:../../../../../../Middlewares/Third_Party/LoRaWAN/Mac/region/RegionRU864.c ****  *
   6:../../../../../../Middlewares/Third_Party/LoRaWAN/Mac/region/RegionRU864.c ****  * \copyright Revised BSD License, see section \ref LICENSE.
   7:../../../../../../Middlewares/Third_Party/LoRaWAN/Mac/region/RegionRU864.c ****  *
   8:../../../../../../Middlewares/Third_Party/LoRaWAN/Mac/region/RegionRU864.c ****  * \code
   9:../../../../../../Middlewares/Third_Party/LoRaWAN/Mac/region/RegionRU864.c ****  *                ______                              _
  10:../../../../../../Middlewares/Third_Party/LoRaWAN/Mac/region/RegionRU864.c ****  *               / _____)             _              | |
  11:../../../../../../Middlewares/Third_Party/LoRaWAN/Mac/region/RegionRU864.c ****  *              ( (____  _____ ____ _| |_ _____  ____| |__
  12:../../../../../../Middlewares/Third_Party/LoRaWAN/Mac/region/RegionRU864.c ****  *               \____ \| ___ |    (_   _) ___ |/ ___)  _ \
  13:../../../../../../Middlewares/Third_Party/LoRaWAN/Mac/region/RegionRU864.c ****  *               _____) ) ____| | | || |_| ____( (___| | | |
  14:../../../../../../Middlewares/Third_Party/LoRaWAN/Mac/region/RegionRU864.c ****  *              (______/|_____)_|_|_| \__)_____)\____)_| |_|
  15:../../../../../../Middlewares/Third_Party/LoRaWAN/Mac/region/RegionRU864.c ****  *              (C)2013-2017 Semtech
  16:../../../../../../Middlewares/Third_Party/LoRaWAN/Mac/region/RegionRU864.c ****  *
  17:../../../../../../Middlewares/Third_Party/LoRaWAN/Mac/region/RegionRU864.c ****  *               ___ _____ _   ___ _  _____ ___  ___  ___ ___
  18:../../../../../../Middlewares/Third_Party/LoRaWAN/Mac/region/RegionRU864.c ****  *              / __|_   _/_\ / __| |/ / __/ _ \| _ \/ __| __|
  19:../../../../../../Middlewares/Third_Party/LoRaWAN/Mac/region/RegionRU864.c ****  *              \__ \ | |/ _ \ (__| ' <| _| (_) |   / (__| _|
  20:../../../../../../Middlewares/Third_Party/LoRaWAN/Mac/region/RegionRU864.c ****  *              |___/ |_/_/ \_\___|_|\_\_| \___/|_|_\\___|___|
  21:../../../../../../Middlewares/Third_Party/LoRaWAN/Mac/region/RegionRU864.c ****  *              embedded.connectivity.solutions===============
  22:../../../../../../Middlewares/Third_Party/LoRaWAN/Mac/region/RegionRU864.c ****  *
  23:../../../../../../Middlewares/Third_Party/LoRaWAN/Mac/region/RegionRU864.c ****  * \endcode
  24:../../../../../../Middlewares/Third_Party/LoRaWAN/Mac/region/RegionRU864.c ****  *
  25:../../../../../../Middlewares/Third_Party/LoRaWAN/Mac/region/RegionRU864.c ****  * \author    Miguel Luis ( Semtech )
  26:../../../../../../Middlewares/Third_Party/LoRaWAN/Mac/region/RegionRU864.c ****  *
  27:../../../../../../Middlewares/Third_Party/LoRaWAN/Mac/region/RegionRU864.c ****  * \author    Gregory Cristian ( Semtech )
  28:../../../../../../Middlewares/Third_Party/LoRaWAN/Mac/region/RegionRU864.c ****  *
  29:../../../../../../Middlewares/Third_Party/LoRaWAN/Mac/region/RegionRU864.c ****  * \author    Daniel Jaeckle ( STACKFORCE )
  30:../../../../../../Middlewares/Third_Party/LoRaWAN/Mac/region/RegionRU864.c **** */
  31:../../../../../../Middlewares/Third_Party/LoRaWAN/Mac/region/RegionRU864.c **** #include "utilities.h"
ARM GAS  C:\Users\EBANO_~1\AppData\Local\Temp\ccazSBuk.s 			page 2


  32:../../../../../../Middlewares/Third_Party/LoRaWAN/Mac/region/RegionRU864.c **** 
  33:../../../../../../Middlewares/Third_Party/LoRaWAN/Mac/region/RegionRU864.c **** #include "RegionCommon.h"
  34:../../../../../../Middlewares/Third_Party/LoRaWAN/Mac/region/RegionRU864.c **** #include "RegionRU864.h"
  35:../../../../../../Middlewares/Third_Party/LoRaWAN/Mac/region/RegionRU864.c **** #include "util_console.h"
  36:../../../../../../Middlewares/Third_Party/LoRaWAN/Mac/region/RegionRU864.c **** 
  37:../../../../../../Middlewares/Third_Party/LoRaWAN/Mac/region/RegionRU864.c **** // Definitions
  38:../../../../../../Middlewares/Third_Party/LoRaWAN/Mac/region/RegionRU864.c **** #define CHANNELS_MASK_SIZE              1
  39:../../../../../../Middlewares/Third_Party/LoRaWAN/Mac/region/RegionRU864.c **** 
  40:../../../../../../Middlewares/Third_Party/LoRaWAN/Mac/region/RegionRU864.c **** /*!
  41:../../../../../../Middlewares/Third_Party/LoRaWAN/Mac/region/RegionRU864.c ****  * Region specific context
  42:../../../../../../Middlewares/Third_Party/LoRaWAN/Mac/region/RegionRU864.c ****  */
  43:../../../../../../Middlewares/Third_Party/LoRaWAN/Mac/region/RegionRU864.c **** typedef struct sRegionRU864NvmCtx
  44:../../../../../../Middlewares/Third_Party/LoRaWAN/Mac/region/RegionRU864.c **** {
  45:../../../../../../Middlewares/Third_Party/LoRaWAN/Mac/region/RegionRU864.c ****     /*!
  46:../../../../../../Middlewares/Third_Party/LoRaWAN/Mac/region/RegionRU864.c ****      * LoRaMAC channels
  47:../../../../../../Middlewares/Third_Party/LoRaWAN/Mac/region/RegionRU864.c ****      */
  48:../../../../../../Middlewares/Third_Party/LoRaWAN/Mac/region/RegionRU864.c ****     ChannelParams_t Channels[ RU864_MAX_NB_CHANNELS ];
  49:../../../../../../Middlewares/Third_Party/LoRaWAN/Mac/region/RegionRU864.c ****     /*!
  50:../../../../../../Middlewares/Third_Party/LoRaWAN/Mac/region/RegionRU864.c ****      * LoRaMac bands
  51:../../../../../../Middlewares/Third_Party/LoRaWAN/Mac/region/RegionRU864.c ****      */
  52:../../../../../../Middlewares/Third_Party/LoRaWAN/Mac/region/RegionRU864.c ****     Band_t Bands[ RU864_MAX_NB_BANDS ];
  53:../../../../../../Middlewares/Third_Party/LoRaWAN/Mac/region/RegionRU864.c ****     /*!
  54:../../../../../../Middlewares/Third_Party/LoRaWAN/Mac/region/RegionRU864.c ****      * LoRaMac channels mask
  55:../../../../../../Middlewares/Third_Party/LoRaWAN/Mac/region/RegionRU864.c ****      */
  56:../../../../../../Middlewares/Third_Party/LoRaWAN/Mac/region/RegionRU864.c ****     uint16_t ChannelsMask[ CHANNELS_MASK_SIZE ];
  57:../../../../../../Middlewares/Third_Party/LoRaWAN/Mac/region/RegionRU864.c ****     /*!
  58:../../../../../../Middlewares/Third_Party/LoRaWAN/Mac/region/RegionRU864.c ****      * LoRaMac channels default mask
  59:../../../../../../Middlewares/Third_Party/LoRaWAN/Mac/region/RegionRU864.c ****      */
  60:../../../../../../Middlewares/Third_Party/LoRaWAN/Mac/region/RegionRU864.c ****     uint16_t ChannelsDefaultMask[ CHANNELS_MASK_SIZE ];
  61:../../../../../../Middlewares/Third_Party/LoRaWAN/Mac/region/RegionRU864.c **** }RegionRU864NvmCtx_t;
  62:../../../../../../Middlewares/Third_Party/LoRaWAN/Mac/region/RegionRU864.c **** 
  63:../../../../../../Middlewares/Third_Party/LoRaWAN/Mac/region/RegionRU864.c **** /*
  64:../../../../../../Middlewares/Third_Party/LoRaWAN/Mac/region/RegionRU864.c ****  * Non-volatile module context.
  65:../../../../../../Middlewares/Third_Party/LoRaWAN/Mac/region/RegionRU864.c ****  */
  66:../../../../../../Middlewares/Third_Party/LoRaWAN/Mac/region/RegionRU864.c **** static RegionRU864NvmCtx_t NvmCtx;
  67:../../../../../../Middlewares/Third_Party/LoRaWAN/Mac/region/RegionRU864.c **** 
  68:../../../../../../Middlewares/Third_Party/LoRaWAN/Mac/region/RegionRU864.c **** // Static functions
  69:../../../../../../Middlewares/Third_Party/LoRaWAN/Mac/region/RegionRU864.c **** static int8_t GetNextLowerTxDr( int8_t dr, int8_t minDr )
  70:../../../../../../Middlewares/Third_Party/LoRaWAN/Mac/region/RegionRU864.c **** {
  71:../../../../../../Middlewares/Third_Party/LoRaWAN/Mac/region/RegionRU864.c ****     uint8_t nextLowerDr = 0;
  72:../../../../../../Middlewares/Third_Party/LoRaWAN/Mac/region/RegionRU864.c **** 
  73:../../../../../../Middlewares/Third_Party/LoRaWAN/Mac/region/RegionRU864.c ****     if( dr == minDr )
  74:../../../../../../Middlewares/Third_Party/LoRaWAN/Mac/region/RegionRU864.c ****     {
  75:../../../../../../Middlewares/Third_Party/LoRaWAN/Mac/region/RegionRU864.c ****         nextLowerDr = minDr;
  76:../../../../../../Middlewares/Third_Party/LoRaWAN/Mac/region/RegionRU864.c ****     }
  77:../../../../../../Middlewares/Third_Party/LoRaWAN/Mac/region/RegionRU864.c ****     else
  78:../../../../../../Middlewares/Third_Party/LoRaWAN/Mac/region/RegionRU864.c ****     {
  79:../../../../../../Middlewares/Third_Party/LoRaWAN/Mac/region/RegionRU864.c ****         nextLowerDr = dr - 1;
  80:../../../../../../Middlewares/Third_Party/LoRaWAN/Mac/region/RegionRU864.c ****     }
  81:../../../../../../Middlewares/Third_Party/LoRaWAN/Mac/region/RegionRU864.c ****     return nextLowerDr;
  82:../../../../../../Middlewares/Third_Party/LoRaWAN/Mac/region/RegionRU864.c **** }
  83:../../../../../../Middlewares/Third_Party/LoRaWAN/Mac/region/RegionRU864.c **** 
  84:../../../../../../Middlewares/Third_Party/LoRaWAN/Mac/region/RegionRU864.c **** static uint32_t GetBandwidth( uint32_t drIndex )
  85:../../../../../../Middlewares/Third_Party/LoRaWAN/Mac/region/RegionRU864.c **** {
  86:../../../../../../Middlewares/Third_Party/LoRaWAN/Mac/region/RegionRU864.c ****     switch( BandwidthsRU864[drIndex] )
  87:../../../../../../Middlewares/Third_Party/LoRaWAN/Mac/region/RegionRU864.c ****     {
  88:../../../../../../Middlewares/Third_Party/LoRaWAN/Mac/region/RegionRU864.c ****         default:
ARM GAS  C:\Users\EBANO_~1\AppData\Local\Temp\ccazSBuk.s 			page 3


  89:../../../../../../Middlewares/Third_Party/LoRaWAN/Mac/region/RegionRU864.c ****         case 125000:
  90:../../../../../../Middlewares/Third_Party/LoRaWAN/Mac/region/RegionRU864.c ****             return 0;
  91:../../../../../../Middlewares/Third_Party/LoRaWAN/Mac/region/RegionRU864.c ****         case 250000:
  92:../../../../../../Middlewares/Third_Party/LoRaWAN/Mac/region/RegionRU864.c ****             return 1;
  93:../../../../../../Middlewares/Third_Party/LoRaWAN/Mac/region/RegionRU864.c ****         case 500000:
  94:../../../../../../Middlewares/Third_Party/LoRaWAN/Mac/region/RegionRU864.c ****             return 2;
  95:../../../../../../Middlewares/Third_Party/LoRaWAN/Mac/region/RegionRU864.c ****     }
  96:../../../../../../Middlewares/Third_Party/LoRaWAN/Mac/region/RegionRU864.c **** }
  97:../../../../../../Middlewares/Third_Party/LoRaWAN/Mac/region/RegionRU864.c **** 
  98:../../../../../../Middlewares/Third_Party/LoRaWAN/Mac/region/RegionRU864.c **** static int8_t LimitTxPower( int8_t txPower, int8_t maxBandTxPower, int8_t datarate, uint16_t* chann
  99:../../../../../../Middlewares/Third_Party/LoRaWAN/Mac/region/RegionRU864.c **** {
 100:../../../../../../Middlewares/Third_Party/LoRaWAN/Mac/region/RegionRU864.c ****     int8_t txPowerResult = txPower;
 101:../../../../../../Middlewares/Third_Party/LoRaWAN/Mac/region/RegionRU864.c **** 
 102:../../../../../../Middlewares/Third_Party/LoRaWAN/Mac/region/RegionRU864.c ****     // Limit tx power to the band max
 103:../../../../../../Middlewares/Third_Party/LoRaWAN/Mac/region/RegionRU864.c ****     txPowerResult =  MAX( txPower, maxBandTxPower );
 104:../../../../../../Middlewares/Third_Party/LoRaWAN/Mac/region/RegionRU864.c **** 
 105:../../../../../../Middlewares/Third_Party/LoRaWAN/Mac/region/RegionRU864.c ****     return txPowerResult;
 106:../../../../../../Middlewares/Third_Party/LoRaWAN/Mac/region/RegionRU864.c **** }
 107:../../../../../../Middlewares/Third_Party/LoRaWAN/Mac/region/RegionRU864.c **** 
 108:../../../../../../Middlewares/Third_Party/LoRaWAN/Mac/region/RegionRU864.c **** static bool VerifyRfFreq( uint32_t freq )
 109:../../../../../../Middlewares/Third_Party/LoRaWAN/Mac/region/RegionRU864.c **** {
 110:../../../../../../Middlewares/Third_Party/LoRaWAN/Mac/region/RegionRU864.c ****     // Check radio driver support
 111:../../../../../../Middlewares/Third_Party/LoRaWAN/Mac/region/RegionRU864.c ****     if( Radio.CheckRfFrequency( freq ) == false )
 112:../../../../../../Middlewares/Third_Party/LoRaWAN/Mac/region/RegionRU864.c ****     {
 113:../../../../../../Middlewares/Third_Party/LoRaWAN/Mac/region/RegionRU864.c ****         return false;
 114:../../../../../../Middlewares/Third_Party/LoRaWAN/Mac/region/RegionRU864.c ****     }
 115:../../../../../../Middlewares/Third_Party/LoRaWAN/Mac/region/RegionRU864.c **** 
 116:../../../../../../Middlewares/Third_Party/LoRaWAN/Mac/region/RegionRU864.c ****     // Check frequency bands
 117:../../../../../../Middlewares/Third_Party/LoRaWAN/Mac/region/RegionRU864.c ****     if( ( freq < 864000000 ) ||  ( freq > 870000000 ) )
 118:../../../../../../Middlewares/Third_Party/LoRaWAN/Mac/region/RegionRU864.c ****     {
 119:../../../../../../Middlewares/Third_Party/LoRaWAN/Mac/region/RegionRU864.c ****         return false;
 120:../../../../../../Middlewares/Third_Party/LoRaWAN/Mac/region/RegionRU864.c ****     }
 121:../../../../../../Middlewares/Third_Party/LoRaWAN/Mac/region/RegionRU864.c ****     return true;
 122:../../../../../../Middlewares/Third_Party/LoRaWAN/Mac/region/RegionRU864.c **** }
 123:../../../../../../Middlewares/Third_Party/LoRaWAN/Mac/region/RegionRU864.c **** 
 124:../../../../../../Middlewares/Third_Party/LoRaWAN/Mac/region/RegionRU864.c **** static uint8_t CountNbOfEnabledChannels( bool joined, uint8_t datarate, uint16_t* channelsMask, Cha
 125:../../../../../../Middlewares/Third_Party/LoRaWAN/Mac/region/RegionRU864.c **** {
 126:../../../../../../Middlewares/Third_Party/LoRaWAN/Mac/region/RegionRU864.c ****     uint8_t nbEnabledChannels = 0;
 127:../../../../../../Middlewares/Third_Party/LoRaWAN/Mac/region/RegionRU864.c ****     uint8_t delayTransmission = 0;
 128:../../../../../../Middlewares/Third_Party/LoRaWAN/Mac/region/RegionRU864.c **** 
 129:../../../../../../Middlewares/Third_Party/LoRaWAN/Mac/region/RegionRU864.c ****     for( uint8_t i = 0, k = 0; i < RU864_MAX_NB_CHANNELS; i += 16, k++ )
 130:../../../../../../Middlewares/Third_Party/LoRaWAN/Mac/region/RegionRU864.c ****     {
 131:../../../../../../Middlewares/Third_Party/LoRaWAN/Mac/region/RegionRU864.c ****         for( uint8_t j = 0; j < 16; j++ )
 132:../../../../../../Middlewares/Third_Party/LoRaWAN/Mac/region/RegionRU864.c ****         {
 133:../../../../../../Middlewares/Third_Party/LoRaWAN/Mac/region/RegionRU864.c ****             if( ( channelsMask[k] & ( 1 << j ) ) != 0 )
 134:../../../../../../Middlewares/Third_Party/LoRaWAN/Mac/region/RegionRU864.c ****             {
 135:../../../../../../Middlewares/Third_Party/LoRaWAN/Mac/region/RegionRU864.c ****                 if( channels[i + j].Frequency == 0 )
 136:../../../../../../Middlewares/Third_Party/LoRaWAN/Mac/region/RegionRU864.c ****                 { // Check if the channel is enabled
 137:../../../../../../Middlewares/Third_Party/LoRaWAN/Mac/region/RegionRU864.c ****                     continue;
 138:../../../../../../Middlewares/Third_Party/LoRaWAN/Mac/region/RegionRU864.c ****                 }
 139:../../../../../../Middlewares/Third_Party/LoRaWAN/Mac/region/RegionRU864.c ****                 if( joined == false )
 140:../../../../../../Middlewares/Third_Party/LoRaWAN/Mac/region/RegionRU864.c ****                 {
 141:../../../../../../Middlewares/Third_Party/LoRaWAN/Mac/region/RegionRU864.c ****                     if( ( RU864_JOIN_CHANNELS & ( 1 << j ) ) == 0 )
 142:../../../../../../Middlewares/Third_Party/LoRaWAN/Mac/region/RegionRU864.c ****                     {
 143:../../../../../../Middlewares/Third_Party/LoRaWAN/Mac/region/RegionRU864.c ****                         continue;
 144:../../../../../../Middlewares/Third_Party/LoRaWAN/Mac/region/RegionRU864.c ****                     }
 145:../../../../../../Middlewares/Third_Party/LoRaWAN/Mac/region/RegionRU864.c ****                 }
ARM GAS  C:\Users\EBANO_~1\AppData\Local\Temp\ccazSBuk.s 			page 4


 146:../../../../../../Middlewares/Third_Party/LoRaWAN/Mac/region/RegionRU864.c ****                 if( RegionCommonValueInRange( datarate, channels[i + j].DrRange.Fields.Min,
 147:../../../../../../Middlewares/Third_Party/LoRaWAN/Mac/region/RegionRU864.c ****                                               channels[i + j].DrRange.Fields.Max ) == false )
 148:../../../../../../Middlewares/Third_Party/LoRaWAN/Mac/region/RegionRU864.c ****                 { // Check if the current channel selection supports the given datarate
 149:../../../../../../Middlewares/Third_Party/LoRaWAN/Mac/region/RegionRU864.c ****                     continue;
 150:../../../../../../Middlewares/Third_Party/LoRaWAN/Mac/region/RegionRU864.c ****                 }
 151:../../../../../../Middlewares/Third_Party/LoRaWAN/Mac/region/RegionRU864.c ****                 if( bands[channels[i + j].Band].TimeOff > 0 )
 152:../../../../../../Middlewares/Third_Party/LoRaWAN/Mac/region/RegionRU864.c ****                 { // Check if the band is available for transmission
 153:../../../../../../Middlewares/Third_Party/LoRaWAN/Mac/region/RegionRU864.c ****                     delayTransmission++;
 154:../../../../../../Middlewares/Third_Party/LoRaWAN/Mac/region/RegionRU864.c ****                     continue;
 155:../../../../../../Middlewares/Third_Party/LoRaWAN/Mac/region/RegionRU864.c ****                 }
 156:../../../../../../Middlewares/Third_Party/LoRaWAN/Mac/region/RegionRU864.c ****                 enabledChannels[nbEnabledChannels++] = i + j;
 157:../../../../../../Middlewares/Third_Party/LoRaWAN/Mac/region/RegionRU864.c ****             }
 158:../../../../../../Middlewares/Third_Party/LoRaWAN/Mac/region/RegionRU864.c ****         }
 159:../../../../../../Middlewares/Third_Party/LoRaWAN/Mac/region/RegionRU864.c ****     }
 160:../../../../../../Middlewares/Third_Party/LoRaWAN/Mac/region/RegionRU864.c **** 
 161:../../../../../../Middlewares/Third_Party/LoRaWAN/Mac/region/RegionRU864.c ****     *delayTx = delayTransmission;
 162:../../../../../../Middlewares/Third_Party/LoRaWAN/Mac/region/RegionRU864.c ****     return nbEnabledChannels;
 163:../../../../../../Middlewares/Third_Party/LoRaWAN/Mac/region/RegionRU864.c **** }
 164:../../../../../../Middlewares/Third_Party/LoRaWAN/Mac/region/RegionRU864.c **** 
 165:../../../../../../Middlewares/Third_Party/LoRaWAN/Mac/region/RegionRU864.c **** PhyParam_t RegionRU864GetPhyParam( GetPhyParams_t* getPhy )
 166:../../../../../../Middlewares/Third_Party/LoRaWAN/Mac/region/RegionRU864.c **** {
  27              		.loc 1 166 0
  28              		.cfi_startproc
  29              		@ args = 0, pretend = 0, frame = 8
  30              		@ frame_needed = 0, uses_anonymous_args = 0
  31              	.LVL0:
 167:../../../../../../Middlewares/Third_Party/LoRaWAN/Mac/region/RegionRU864.c ****     PhyParam_t phyParam = { 0 };
  32              		.loc 1 167 0
  33 0000 0023     		movs	r3, #0
 166:../../../../../../Middlewares/Third_Party/LoRaWAN/Mac/region/RegionRU864.c ****     PhyParam_t phyParam = { 0 };
  34              		.loc 1 166 0
  35 0002 00B5     		push	{lr}
  36              	.LCFI0:
  37              		.cfi_def_cfa_offset 4
  38              		.cfi_offset 14, -4
  39 0004 83B0     		sub	sp, sp, #12
  40              	.LCFI1:
  41              		.cfi_def_cfa_offset 16
  42              		.loc 1 167 0
  43 0006 0093     		str	r3, [sp]
 168:../../../../../../Middlewares/Third_Party/LoRaWAN/Mac/region/RegionRU864.c **** 
 169:../../../../../../Middlewares/Third_Party/LoRaWAN/Mac/region/RegionRU864.c ****     switch( getPhy->Attribute )
  44              		.loc 1 169 0
  45 0008 0378     		ldrb	r3, [r0]
  46 000a 0A3B     		subs	r3, r3, #10
  47 000c DBB2     		uxtb	r3, r3
  48 000e 272B     		cmp	r3, #39
  49 0010 05D8     		bhi	.L2
  50 0012 324A     		ldr	r2, .L30
  51 0014 9B00     		lsls	r3, r3, #2
  52 0016 D358     		ldr	r3, [r2, r3]
  53 0018 9F46     		mov	pc, r3
  54              		.section	.rodata
  55              		.align	2
  56              	.L4:
  57 0000 9E000000 		.word	.L3
  58 0004 98000000 		.word	.L5
ARM GAS  C:\Users\EBANO_~1\AppData\Local\Temp\ccazSBuk.s 			page 5


  59 0008 8C000000 		.word	.L6
  60 000c 7E000000 		.word	.L7
  61 0010 78000000 		.word	.L8
  62 0014 72000000 		.word	.L9
  63 0018 6A000000 		.word	.L10
  64 001c 62000000 		.word	.L11
  65 0020 5C000000 		.word	.L12
  66 0024 56000000 		.word	.L13
  67 0028 4E000000 		.word	.L14
  68 002c 38000000 		.word	.L15
  69 0030 1E000000 		.word	.L2
  70 0034 24000000 		.word	.L16
  71 0038 1E000000 		.word	.L2
  72 003c D2000000 		.word	.L17
  73 0040 CA000000 		.word	.L18
  74 0044 C4000000 		.word	.L19
  75 0048 B6000000 		.word	.L20
  76 004c 1E000000 		.word	.L2
  77 0050 1E000000 		.word	.L2
  78 0054 2A000000 		.word	.L21
  79 0058 32000000 		.word	.L22
  80 005c A4000000 		.word	.L23
  81 0060 1E000000 		.word	.L2
  82 0064 1E000000 		.word	.L2
  83 0068 1E000000 		.word	.L2
  84 006c 1E000000 		.word	.L2
  85 0070 1E000000 		.word	.L2
  86 0074 1E000000 		.word	.L2
  87 0078 1E000000 		.word	.L2
  88 007c 1E000000 		.word	.L2
  89 0080 1E000000 		.word	.L2
  90 0084 1E000000 		.word	.L2
  91 0088 1E000000 		.word	.L2
  92 008c 1E000000 		.word	.L2
  93 0090 1E000000 		.word	.L2
  94 0094 24000000 		.word	.L16
  95 0098 BC000000 		.word	.L24
  96 009c 1A000000 		.word	.L25
  97              		.section	.text.RegionRU864GetPhyParam
  98              	.L25:
 170:../../../../../../Middlewares/Third_Party/LoRaWAN/Mac/region/RegionRU864.c ****     {
 171:../../../../../../Middlewares/Third_Party/LoRaWAN/Mac/region/RegionRU864.c ****         case PHY_MIN_RX_DR:
 172:../../../../../../Middlewares/Third_Party/LoRaWAN/Mac/region/RegionRU864.c ****         {
 173:../../../../../../Middlewares/Third_Party/LoRaWAN/Mac/region/RegionRU864.c ****             phyParam.Value = RU864_RX_MIN_DATARATE;
 174:../../../../../../Middlewares/Third_Party/LoRaWAN/Mac/region/RegionRU864.c ****             break;
 175:../../../../../../Middlewares/Third_Party/LoRaWAN/Mac/region/RegionRU864.c ****         }
 176:../../../../../../Middlewares/Third_Party/LoRaWAN/Mac/region/RegionRU864.c ****         case PHY_MIN_TX_DR:
 177:../../../../../../Middlewares/Third_Party/LoRaWAN/Mac/region/RegionRU864.c ****         {
 178:../../../../../../Middlewares/Third_Party/LoRaWAN/Mac/region/RegionRU864.c ****             phyParam.Value = RU864_TX_MIN_DATARATE;
 179:../../../../../../Middlewares/Third_Party/LoRaWAN/Mac/region/RegionRU864.c ****             break;
 180:../../../../../../Middlewares/Third_Party/LoRaWAN/Mac/region/RegionRU864.c ****         }
 181:../../../../../../Middlewares/Third_Party/LoRaWAN/Mac/region/RegionRU864.c ****         case PHY_DEF_TX_DR:
 182:../../../../../../Middlewares/Third_Party/LoRaWAN/Mac/region/RegionRU864.c ****         {
 183:../../../../../../Middlewares/Third_Party/LoRaWAN/Mac/region/RegionRU864.c ****             phyParam.Value = RU864_DEFAULT_DATARATE;
 184:../../../../../../Middlewares/Third_Party/LoRaWAN/Mac/region/RegionRU864.c ****             break;
 185:../../../../../../Middlewares/Third_Party/LoRaWAN/Mac/region/RegionRU864.c ****         }
 186:../../../../../../Middlewares/Third_Party/LoRaWAN/Mac/region/RegionRU864.c ****         case PHY_NEXT_LOWER_TX_DR:
ARM GAS  C:\Users\EBANO_~1\AppData\Local\Temp\ccazSBuk.s 			page 6


 187:../../../../../../Middlewares/Third_Party/LoRaWAN/Mac/region/RegionRU864.c ****         {
 188:../../../../../../Middlewares/Third_Party/LoRaWAN/Mac/region/RegionRU864.c ****             phyParam.Value = GetNextLowerTxDr( getPhy->Datarate, RU864_TX_MIN_DATARATE );
 189:../../../../../../Middlewares/Third_Party/LoRaWAN/Mac/region/RegionRU864.c ****             break;
 190:../../../../../../Middlewares/Third_Party/LoRaWAN/Mac/region/RegionRU864.c ****         }
 191:../../../../../../Middlewares/Third_Party/LoRaWAN/Mac/region/RegionRU864.c ****         case PHY_DEF_TX_POWER:
 192:../../../../../../Middlewares/Third_Party/LoRaWAN/Mac/region/RegionRU864.c ****         {
 193:../../../../../../Middlewares/Third_Party/LoRaWAN/Mac/region/RegionRU864.c ****             phyParam.Value = RU864_DEFAULT_TX_POWER;
 194:../../../../../../Middlewares/Third_Party/LoRaWAN/Mac/region/RegionRU864.c ****             break;
 195:../../../../../../Middlewares/Third_Party/LoRaWAN/Mac/region/RegionRU864.c ****         }
 196:../../../../../../Middlewares/Third_Party/LoRaWAN/Mac/region/RegionRU864.c ****         case PHY_DEF_ADR_ACK_LIMIT:
 197:../../../../../../Middlewares/Third_Party/LoRaWAN/Mac/region/RegionRU864.c ****         {
 198:../../../../../../Middlewares/Third_Party/LoRaWAN/Mac/region/RegionRU864.c ****             phyParam.Value = RU864_ADR_ACK_LIMIT;
 199:../../../../../../Middlewares/Third_Party/LoRaWAN/Mac/region/RegionRU864.c ****             break;
 200:../../../../../../Middlewares/Third_Party/LoRaWAN/Mac/region/RegionRU864.c ****         }
 201:../../../../../../Middlewares/Third_Party/LoRaWAN/Mac/region/RegionRU864.c ****         case PHY_DEF_ADR_ACK_DELAY:
 202:../../../../../../Middlewares/Third_Party/LoRaWAN/Mac/region/RegionRU864.c ****         {
 203:../../../../../../Middlewares/Third_Party/LoRaWAN/Mac/region/RegionRU864.c ****             phyParam.Value = RU864_ADR_ACK_DELAY;
 204:../../../../../../Middlewares/Third_Party/LoRaWAN/Mac/region/RegionRU864.c ****             break;
 205:../../../../../../Middlewares/Third_Party/LoRaWAN/Mac/region/RegionRU864.c ****         }
 206:../../../../../../Middlewares/Third_Party/LoRaWAN/Mac/region/RegionRU864.c ****         case PHY_MAX_PAYLOAD:
 207:../../../../../../Middlewares/Third_Party/LoRaWAN/Mac/region/RegionRU864.c ****         {
 208:../../../../../../Middlewares/Third_Party/LoRaWAN/Mac/region/RegionRU864.c ****             phyParam.Value = MaxPayloadOfDatarateRU864[getPhy->Datarate];
 209:../../../../../../Middlewares/Third_Party/LoRaWAN/Mac/region/RegionRU864.c ****             break;
 210:../../../../../../Middlewares/Third_Party/LoRaWAN/Mac/region/RegionRU864.c ****         }
 211:../../../../../../Middlewares/Third_Party/LoRaWAN/Mac/region/RegionRU864.c ****         case PHY_MAX_PAYLOAD_REPEATER:
 212:../../../../../../Middlewares/Third_Party/LoRaWAN/Mac/region/RegionRU864.c ****         {
 213:../../../../../../Middlewares/Third_Party/LoRaWAN/Mac/region/RegionRU864.c ****             phyParam.Value = MaxPayloadOfDatarateRepeaterRU864[getPhy->Datarate];
 214:../../../../../../Middlewares/Third_Party/LoRaWAN/Mac/region/RegionRU864.c ****             break;
 215:../../../../../../Middlewares/Third_Party/LoRaWAN/Mac/region/RegionRU864.c ****         }
 216:../../../../../../Middlewares/Third_Party/LoRaWAN/Mac/region/RegionRU864.c ****         case PHY_DUTY_CYCLE:
 217:../../../../../../Middlewares/Third_Party/LoRaWAN/Mac/region/RegionRU864.c ****         {
 218:../../../../../../Middlewares/Third_Party/LoRaWAN/Mac/region/RegionRU864.c ****             phyParam.Value = RU864_DUTY_CYCLE_ENABLED;
 219:../../../../../../Middlewares/Third_Party/LoRaWAN/Mac/region/RegionRU864.c ****             break;
 220:../../../../../../Middlewares/Third_Party/LoRaWAN/Mac/region/RegionRU864.c ****         }
 221:../../../../../../Middlewares/Third_Party/LoRaWAN/Mac/region/RegionRU864.c ****         case PHY_MAX_RX_WINDOW:
 222:../../../../../../Middlewares/Third_Party/LoRaWAN/Mac/region/RegionRU864.c ****         {
 223:../../../../../../Middlewares/Third_Party/LoRaWAN/Mac/region/RegionRU864.c ****             phyParam.Value = RU864_MAX_RX_WINDOW;
 224:../../../../../../Middlewares/Third_Party/LoRaWAN/Mac/region/RegionRU864.c ****             break;
 225:../../../../../../Middlewares/Third_Party/LoRaWAN/Mac/region/RegionRU864.c ****         }
 226:../../../../../../Middlewares/Third_Party/LoRaWAN/Mac/region/RegionRU864.c ****         case PHY_RECEIVE_DELAY1:
 227:../../../../../../Middlewares/Third_Party/LoRaWAN/Mac/region/RegionRU864.c ****         {
 228:../../../../../../Middlewares/Third_Party/LoRaWAN/Mac/region/RegionRU864.c ****             phyParam.Value = RU864_RECEIVE_DELAY1;
 229:../../../../../../Middlewares/Third_Party/LoRaWAN/Mac/region/RegionRU864.c ****             break;
 230:../../../../../../Middlewares/Third_Party/LoRaWAN/Mac/region/RegionRU864.c ****         }
 231:../../../../../../Middlewares/Third_Party/LoRaWAN/Mac/region/RegionRU864.c ****         case PHY_RECEIVE_DELAY2:
 232:../../../../../../Middlewares/Third_Party/LoRaWAN/Mac/region/RegionRU864.c ****         {
 233:../../../../../../Middlewares/Third_Party/LoRaWAN/Mac/region/RegionRU864.c ****             phyParam.Value = RU864_RECEIVE_DELAY2;
 234:../../../../../../Middlewares/Third_Party/LoRaWAN/Mac/region/RegionRU864.c ****             break;
 235:../../../../../../Middlewares/Third_Party/LoRaWAN/Mac/region/RegionRU864.c ****         }
 236:../../../../../../Middlewares/Third_Party/LoRaWAN/Mac/region/RegionRU864.c ****         case PHY_JOIN_ACCEPT_DELAY1:
 237:../../../../../../Middlewares/Third_Party/LoRaWAN/Mac/region/RegionRU864.c ****         {
 238:../../../../../../Middlewares/Third_Party/LoRaWAN/Mac/region/RegionRU864.c ****             phyParam.Value = RU864_JOIN_ACCEPT_DELAY1;
 239:../../../../../../Middlewares/Third_Party/LoRaWAN/Mac/region/RegionRU864.c ****             break;
 240:../../../../../../Middlewares/Third_Party/LoRaWAN/Mac/region/RegionRU864.c ****         }
 241:../../../../../../Middlewares/Third_Party/LoRaWAN/Mac/region/RegionRU864.c ****         case PHY_JOIN_ACCEPT_DELAY2:
 242:../../../../../../Middlewares/Third_Party/LoRaWAN/Mac/region/RegionRU864.c ****         {
 243:../../../../../../Middlewares/Third_Party/LoRaWAN/Mac/region/RegionRU864.c ****             phyParam.Value = RU864_JOIN_ACCEPT_DELAY2;
ARM GAS  C:\Users\EBANO_~1\AppData\Local\Temp\ccazSBuk.s 			page 7


 244:../../../../../../Middlewares/Third_Party/LoRaWAN/Mac/region/RegionRU864.c ****             break;
 245:../../../../../../Middlewares/Third_Party/LoRaWAN/Mac/region/RegionRU864.c ****         }
 246:../../../../../../Middlewares/Third_Party/LoRaWAN/Mac/region/RegionRU864.c ****         case PHY_MAX_FCNT_GAP:
 247:../../../../../../Middlewares/Third_Party/LoRaWAN/Mac/region/RegionRU864.c ****         {
 248:../../../../../../Middlewares/Third_Party/LoRaWAN/Mac/region/RegionRU864.c ****             phyParam.Value = RU864_MAX_FCNT_GAP;
 249:../../../../../../Middlewares/Third_Party/LoRaWAN/Mac/region/RegionRU864.c ****             break;
 250:../../../../../../Middlewares/Third_Party/LoRaWAN/Mac/region/RegionRU864.c ****         }
 251:../../../../../../Middlewares/Third_Party/LoRaWAN/Mac/region/RegionRU864.c ****         case PHY_ACK_TIMEOUT:
 252:../../../../../../Middlewares/Third_Party/LoRaWAN/Mac/region/RegionRU864.c ****         {
 253:../../../../../../Middlewares/Third_Party/LoRaWAN/Mac/region/RegionRU864.c ****             phyParam.Value = ( RU864_ACKTIMEOUT + randr( -RU864_ACK_TIMEOUT_RND, RU864_ACK_TIMEOUT_
 254:../../../../../../Middlewares/Third_Party/LoRaWAN/Mac/region/RegionRU864.c ****             break;
 255:../../../../../../Middlewares/Third_Party/LoRaWAN/Mac/region/RegionRU864.c ****         }
 256:../../../../../../Middlewares/Third_Party/LoRaWAN/Mac/region/RegionRU864.c ****         case PHY_DEF_DR1_OFFSET:
 257:../../../../../../Middlewares/Third_Party/LoRaWAN/Mac/region/RegionRU864.c ****         {
 258:../../../../../../Middlewares/Third_Party/LoRaWAN/Mac/region/RegionRU864.c ****             phyParam.Value = RU864_DEFAULT_RX1_DR_OFFSET;
 259:../../../../../../Middlewares/Third_Party/LoRaWAN/Mac/region/RegionRU864.c ****             break;
 260:../../../../../../Middlewares/Third_Party/LoRaWAN/Mac/region/RegionRU864.c ****         }
 261:../../../../../../Middlewares/Third_Party/LoRaWAN/Mac/region/RegionRU864.c ****         case PHY_DEF_RX2_FREQUENCY:
 262:../../../../../../Middlewares/Third_Party/LoRaWAN/Mac/region/RegionRU864.c ****         {
 263:../../../../../../Middlewares/Third_Party/LoRaWAN/Mac/region/RegionRU864.c ****             phyParam.Value = RU864_RX_WND_2_FREQ;
 264:../../../../../../Middlewares/Third_Party/LoRaWAN/Mac/region/RegionRU864.c ****             break;
 265:../../../../../../Middlewares/Third_Party/LoRaWAN/Mac/region/RegionRU864.c ****         }
 266:../../../../../../Middlewares/Third_Party/LoRaWAN/Mac/region/RegionRU864.c ****         case PHY_DEF_RX2_DR:
 267:../../../../../../Middlewares/Third_Party/LoRaWAN/Mac/region/RegionRU864.c ****         {
 268:../../../../../../Middlewares/Third_Party/LoRaWAN/Mac/region/RegionRU864.c ****             phyParam.Value = RU864_RX_WND_2_DR;
 269:../../../../../../Middlewares/Third_Party/LoRaWAN/Mac/region/RegionRU864.c ****             break;
 270:../../../../../../Middlewares/Third_Party/LoRaWAN/Mac/region/RegionRU864.c ****         }
 271:../../../../../../Middlewares/Third_Party/LoRaWAN/Mac/region/RegionRU864.c ****         case PHY_CHANNELS_MASK:
 272:../../../../../../Middlewares/Third_Party/LoRaWAN/Mac/region/RegionRU864.c ****         {
 273:../../../../../../Middlewares/Third_Party/LoRaWAN/Mac/region/RegionRU864.c ****             phyParam.ChannelsMask = NvmCtx.ChannelsMask;
 274:../../../../../../Middlewares/Third_Party/LoRaWAN/Mac/region/RegionRU864.c ****             break;
 275:../../../../../../Middlewares/Third_Party/LoRaWAN/Mac/region/RegionRU864.c ****         }
 276:../../../../../../Middlewares/Third_Party/LoRaWAN/Mac/region/RegionRU864.c ****         case PHY_CHANNELS_DEFAULT_MASK:
 277:../../../../../../Middlewares/Third_Party/LoRaWAN/Mac/region/RegionRU864.c ****         {
 278:../../../../../../Middlewares/Third_Party/LoRaWAN/Mac/region/RegionRU864.c ****             phyParam.ChannelsMask = NvmCtx.ChannelsDefaultMask;
 279:../../../../../../Middlewares/Third_Party/LoRaWAN/Mac/region/RegionRU864.c ****             break;
 280:../../../../../../Middlewares/Third_Party/LoRaWAN/Mac/region/RegionRU864.c ****         }
 281:../../../../../../Middlewares/Third_Party/LoRaWAN/Mac/region/RegionRU864.c ****         case PHY_MAX_NB_CHANNELS:
 282:../../../../../../Middlewares/Third_Party/LoRaWAN/Mac/region/RegionRU864.c ****         {
 283:../../../../../../Middlewares/Third_Party/LoRaWAN/Mac/region/RegionRU864.c ****             phyParam.Value = RU864_MAX_NB_CHANNELS;
 284:../../../../../../Middlewares/Third_Party/LoRaWAN/Mac/region/RegionRU864.c ****             break;
 285:../../../../../../Middlewares/Third_Party/LoRaWAN/Mac/region/RegionRU864.c ****         }
 286:../../../../../../Middlewares/Third_Party/LoRaWAN/Mac/region/RegionRU864.c ****         case PHY_CHANNELS:
 287:../../../../../../Middlewares/Third_Party/LoRaWAN/Mac/region/RegionRU864.c ****         {
 288:../../../../../../Middlewares/Third_Party/LoRaWAN/Mac/region/RegionRU864.c ****             phyParam.Channels = NvmCtx.Channels;
 289:../../../../../../Middlewares/Third_Party/LoRaWAN/Mac/region/RegionRU864.c ****             break;
 290:../../../../../../Middlewares/Third_Party/LoRaWAN/Mac/region/RegionRU864.c ****         }
 291:../../../../../../Middlewares/Third_Party/LoRaWAN/Mac/region/RegionRU864.c ****         case PHY_DEF_UPLINK_DWELL_TIME:
 292:../../../../../../Middlewares/Third_Party/LoRaWAN/Mac/region/RegionRU864.c ****         case PHY_DEF_DOWNLINK_DWELL_TIME:
 293:../../../../../../Middlewares/Third_Party/LoRaWAN/Mac/region/RegionRU864.c ****         {
 294:../../../../../../Middlewares/Third_Party/LoRaWAN/Mac/region/RegionRU864.c ****             phyParam.Value = 0;
 295:../../../../../../Middlewares/Third_Party/LoRaWAN/Mac/region/RegionRU864.c ****             break;
 296:../../../../../../Middlewares/Third_Party/LoRaWAN/Mac/region/RegionRU864.c ****         }
 297:../../../../../../Middlewares/Third_Party/LoRaWAN/Mac/region/RegionRU864.c ****         case PHY_DEF_MAX_EIRP:
 298:../../../../../../Middlewares/Third_Party/LoRaWAN/Mac/region/RegionRU864.c ****         {
 299:../../../../../../Middlewares/Third_Party/LoRaWAN/Mac/region/RegionRU864.c ****             phyParam.fValue = RU864_DEFAULT_MAX_EIRP;
 300:../../../../../../Middlewares/Third_Party/LoRaWAN/Mac/region/RegionRU864.c ****             break;
ARM GAS  C:\Users\EBANO_~1\AppData\Local\Temp\ccazSBuk.s 			page 8


 301:../../../../../../Middlewares/Third_Party/LoRaWAN/Mac/region/RegionRU864.c ****         }
 302:../../../../../../Middlewares/Third_Party/LoRaWAN/Mac/region/RegionRU864.c ****         case PHY_DEF_ANTENNA_GAIN:
 303:../../../../../../Middlewares/Third_Party/LoRaWAN/Mac/region/RegionRU864.c ****         {
 304:../../../../../../Middlewares/Third_Party/LoRaWAN/Mac/region/RegionRU864.c ****             phyParam.fValue = RU864_DEFAULT_ANTENNA_GAIN;
 305:../../../../../../Middlewares/Third_Party/LoRaWAN/Mac/region/RegionRU864.c ****             break;
 306:../../../../../../Middlewares/Third_Party/LoRaWAN/Mac/region/RegionRU864.c ****         }
 307:../../../../../../Middlewares/Third_Party/LoRaWAN/Mac/region/RegionRU864.c ****         case PHY_BEACON_CHANNEL_FREQ:
 308:../../../../../../Middlewares/Third_Party/LoRaWAN/Mac/region/RegionRU864.c ****         {
 309:../../../../../../Middlewares/Third_Party/LoRaWAN/Mac/region/RegionRU864.c ****             phyParam.Value = RU864_BEACON_CHANNEL_FREQ;
 310:../../../../../../Middlewares/Third_Party/LoRaWAN/Mac/region/RegionRU864.c ****             break;
 311:../../../../../../Middlewares/Third_Party/LoRaWAN/Mac/region/RegionRU864.c ****         }
 312:../../../../../../Middlewares/Third_Party/LoRaWAN/Mac/region/RegionRU864.c ****         case PHY_BEACON_FORMAT:
 313:../../../../../../Middlewares/Third_Party/LoRaWAN/Mac/region/RegionRU864.c ****         {
 314:../../../../../../Middlewares/Third_Party/LoRaWAN/Mac/region/RegionRU864.c ****             phyParam.BeaconFormat.BeaconSize = RU864_BEACON_SIZE;
 315:../../../../../../Middlewares/Third_Party/LoRaWAN/Mac/region/RegionRU864.c ****             phyParam.BeaconFormat.Rfu1Size = RU864_RFU1_SIZE;
 316:../../../../../../Middlewares/Third_Party/LoRaWAN/Mac/region/RegionRU864.c ****             phyParam.BeaconFormat.Rfu2Size = RU864_RFU2_SIZE;
 317:../../../../../../Middlewares/Third_Party/LoRaWAN/Mac/region/RegionRU864.c ****             break;
 318:../../../../../../Middlewares/Third_Party/LoRaWAN/Mac/region/RegionRU864.c ****         }
 319:../../../../../../Middlewares/Third_Party/LoRaWAN/Mac/region/RegionRU864.c ****         case PHY_BEACON_CHANNEL_DR:
 320:../../../../../../Middlewares/Third_Party/LoRaWAN/Mac/region/RegionRU864.c ****         {
 321:../../../../../../Middlewares/Third_Party/LoRaWAN/Mac/region/RegionRU864.c ****             phyParam.Value = RU864_BEACON_CHANNEL_DR;
  99              		.loc 1 321 0
 100 001a 0323     		movs	r3, #3
 101 001c 0093     		str	r3, [sp]
 102              	.LVL1:
 103              	.L2:
 322:../../../../../../Middlewares/Third_Party/LoRaWAN/Mac/region/RegionRU864.c ****             break;
 323:../../../../../../Middlewares/Third_Party/LoRaWAN/Mac/region/RegionRU864.c ****         }
 324:../../../../../../Middlewares/Third_Party/LoRaWAN/Mac/region/RegionRU864.c ****         default:
 325:../../../../../../Middlewares/Third_Party/LoRaWAN/Mac/region/RegionRU864.c ****         {
 326:../../../../../../Middlewares/Third_Party/LoRaWAN/Mac/region/RegionRU864.c ****             break;
 327:../../../../../../Middlewares/Third_Party/LoRaWAN/Mac/region/RegionRU864.c ****         }
 328:../../../../../../Middlewares/Third_Party/LoRaWAN/Mac/region/RegionRU864.c ****     }
 329:../../../../../../Middlewares/Third_Party/LoRaWAN/Mac/region/RegionRU864.c **** 
 330:../../../../../../Middlewares/Third_Party/LoRaWAN/Mac/region/RegionRU864.c ****     return phyParam;
 331:../../../../../../Middlewares/Third_Party/LoRaWAN/Mac/region/RegionRU864.c **** }
 104              		.loc 1 331 0
 105 001e 0098     		ldr	r0, [sp]
 106 0020 03B0     		add	sp, sp, #12
 107              		@ sp needed
 108 0022 00BD     		pop	{pc}
 109              	.LVL2:
 110              	.L16:
 263:../../../../../../Middlewares/Third_Party/LoRaWAN/Mac/region/RegionRU864.c ****             break;
 111              		.loc 1 263 0
 112 0024 2E4B     		ldr	r3, .L30+4
 113 0026 0093     		str	r3, [sp]
 264:../../../../../../Middlewares/Third_Party/LoRaWAN/Mac/region/RegionRU864.c ****         }
 114              		.loc 1 264 0
 115 0028 F9E7     		b	.L2
 116              	.L21:
 299:../../../../../../Middlewares/Third_Party/LoRaWAN/Mac/region/RegionRU864.c ****             break;
 117              		.loc 1 299 0
 118 002a 8323     		movs	r3, #131
 119 002c DB05     		lsls	r3, r3, #23
 120 002e 0093     		str	r3, [sp]
 300:../../../../../../Middlewares/Third_Party/LoRaWAN/Mac/region/RegionRU864.c ****         }
ARM GAS  C:\Users\EBANO_~1\AppData\Local\Temp\ccazSBuk.s 			page 9


 121              		.loc 1 300 0
 122 0030 F5E7     		b	.L2
 123              	.L22:
 304:../../../../../../Middlewares/Third_Party/LoRaWAN/Mac/region/RegionRU864.c ****             break;
 124              		.loc 1 304 0
 125 0032 2C4B     		ldr	r3, .L30+8
 126 0034 0093     		str	r3, [sp]
 305:../../../../../../Middlewares/Third_Party/LoRaWAN/Mac/region/RegionRU864.c ****         }
 127              		.loc 1 305 0
 128 0036 F2E7     		b	.L2
 129              	.L15:
 253:../../../../../../Middlewares/Third_Party/LoRaWAN/Mac/region/RegionRU864.c ****             break;
 130              		.loc 1 253 0
 131 0038 FA21     		movs	r1, #250
 132 003a 2B48     		ldr	r0, .L30+12
 133              	.LVL3:
 134 003c 8900     		lsls	r1, r1, #2
 135 003e FFF7FEFF 		bl	randr
 136              	.LVL4:
 137 0042 FA23     		movs	r3, #250
 138 0044 DB00     		lsls	r3, r3, #3
 139 0046 9C46     		mov	ip, r3
 140 0048 6044     		add	r0, r0, ip
 141 004a 0090     		str	r0, [sp]
 254:../../../../../../Middlewares/Third_Party/LoRaWAN/Mac/region/RegionRU864.c ****         }
 142              		.loc 1 254 0
 143 004c E7E7     		b	.L2
 144              	.LVL5:
 145              	.L14:
 248:../../../../../../Middlewares/Third_Party/LoRaWAN/Mac/region/RegionRU864.c ****             break;
 146              		.loc 1 248 0
 147 004e 8023     		movs	r3, #128
 148 0050 DB01     		lsls	r3, r3, #7
 149 0052 0093     		str	r3, [sp]
 249:../../../../../../Middlewares/Third_Party/LoRaWAN/Mac/region/RegionRU864.c ****         }
 150              		.loc 1 249 0
 151 0054 E3E7     		b	.L2
 152              	.L13:
 243:../../../../../../Middlewares/Third_Party/LoRaWAN/Mac/region/RegionRU864.c ****             break;
 153              		.loc 1 243 0
 154 0056 254B     		ldr	r3, .L30+16
 155 0058 0093     		str	r3, [sp]
 244:../../../../../../Middlewares/Third_Party/LoRaWAN/Mac/region/RegionRU864.c ****         }
 156              		.loc 1 244 0
 157 005a E0E7     		b	.L2
 158              	.L12:
 238:../../../../../../Middlewares/Third_Party/LoRaWAN/Mac/region/RegionRU864.c ****             break;
 159              		.loc 1 238 0
 160 005c 244B     		ldr	r3, .L30+20
 161 005e 0093     		str	r3, [sp]
 239:../../../../../../Middlewares/Third_Party/LoRaWAN/Mac/region/RegionRU864.c ****         }
 162              		.loc 1 239 0
 163 0060 DDE7     		b	.L2
 164              	.L11:
 233:../../../../../../Middlewares/Third_Party/LoRaWAN/Mac/region/RegionRU864.c ****             break;
 165              		.loc 1 233 0
 166 0062 FA23     		movs	r3, #250
ARM GAS  C:\Users\EBANO_~1\AppData\Local\Temp\ccazSBuk.s 			page 10


 167 0064 DB00     		lsls	r3, r3, #3
 168 0066 0093     		str	r3, [sp]
 234:../../../../../../Middlewares/Third_Party/LoRaWAN/Mac/region/RegionRU864.c ****         }
 169              		.loc 1 234 0
 170 0068 D9E7     		b	.L2
 171              	.L10:
 228:../../../../../../Middlewares/Third_Party/LoRaWAN/Mac/region/RegionRU864.c ****             break;
 172              		.loc 1 228 0
 173 006a FA23     		movs	r3, #250
 174 006c 9B00     		lsls	r3, r3, #2
 175 006e 0093     		str	r3, [sp]
 229:../../../../../../Middlewares/Third_Party/LoRaWAN/Mac/region/RegionRU864.c ****         }
 176              		.loc 1 229 0
 177 0070 D5E7     		b	.L2
 178              	.L9:
 223:../../../../../../Middlewares/Third_Party/LoRaWAN/Mac/region/RegionRU864.c ****             break;
 179              		.loc 1 223 0
 180 0072 204B     		ldr	r3, .L30+24
 181 0074 0093     		str	r3, [sp]
 224:../../../../../../Middlewares/Third_Party/LoRaWAN/Mac/region/RegionRU864.c ****         }
 182              		.loc 1 224 0
 183 0076 D2E7     		b	.L2
 184              	.L8:
 218:../../../../../../Middlewares/Third_Party/LoRaWAN/Mac/region/RegionRU864.c ****             break;
 185              		.loc 1 218 0
 186 0078 0123     		movs	r3, #1
 187 007a 0093     		str	r3, [sp]
 219:../../../../../../Middlewares/Third_Party/LoRaWAN/Mac/region/RegionRU864.c ****         }
 188              		.loc 1 219 0
 189 007c CFE7     		b	.L2
 190              	.L7:
 213:../../../../../../Middlewares/Third_Party/LoRaWAN/Mac/region/RegionRU864.c ****             break;
 191              		.loc 1 213 0
 192 007e 0122     		movs	r2, #1
 193 0080 1D4B     		ldr	r3, .L30+28
 194 0082 8256     		ldrsb	r2, [r0, r2]
 195 0084 9B18     		adds	r3, r3, r2
 196 0086 1B7A     		ldrb	r3, [r3, #8]
 197 0088 0093     		str	r3, [sp]
 214:../../../../../../Middlewares/Third_Party/LoRaWAN/Mac/region/RegionRU864.c ****         }
 198              		.loc 1 214 0
 199 008a C8E7     		b	.L2
 200              	.L6:
 208:../../../../../../Middlewares/Third_Party/LoRaWAN/Mac/region/RegionRU864.c ****             break;
 201              		.loc 1 208 0
 202 008c 0123     		movs	r3, #1
 203 008e 1A4A     		ldr	r2, .L30+28
 204 0090 C356     		ldrsb	r3, [r0, r3]
 205 0092 D35C     		ldrb	r3, [r2, r3]
 206 0094 0093     		str	r3, [sp]
 209:../../../../../../Middlewares/Third_Party/LoRaWAN/Mac/region/RegionRU864.c ****         }
 207              		.loc 1 209 0
 208 0096 C2E7     		b	.L2
 209              	.L5:
 203:../../../../../../Middlewares/Third_Party/LoRaWAN/Mac/region/RegionRU864.c ****             break;
 210              		.loc 1 203 0
 211 0098 2023     		movs	r3, #32
ARM GAS  C:\Users\EBANO_~1\AppData\Local\Temp\ccazSBuk.s 			page 11


 212 009a 0093     		str	r3, [sp]
 204:../../../../../../Middlewares/Third_Party/LoRaWAN/Mac/region/RegionRU864.c ****         }
 213              		.loc 1 204 0
 214 009c BFE7     		b	.L2
 215              	.L3:
 198:../../../../../../Middlewares/Third_Party/LoRaWAN/Mac/region/RegionRU864.c ****             break;
 216              		.loc 1 198 0
 217 009e 4023     		movs	r3, #64
 218 00a0 0093     		str	r3, [sp]
 199:../../../../../../Middlewares/Third_Party/LoRaWAN/Mac/region/RegionRU864.c ****         }
 219              		.loc 1 199 0
 220 00a2 BCE7     		b	.L2
 221              	.L23:
 188:../../../../../../Middlewares/Third_Party/LoRaWAN/Mac/region/RegionRU864.c ****             break;
 222              		.loc 1 188 0
 223 00a4 0123     		movs	r3, #1
 224 00a6 C356     		ldrsb	r3, [r0, r3]
 225              	.LVL6:
 226              	.LBB22:
 227              	.LBB23:
  73:../../../../../../Middlewares/Third_Party/LoRaWAN/Mac/region/RegionRU864.c ****     {
 228              		.loc 1 73 0
 229 00a8 0022     		movs	r2, #0
 230 00aa 002B     		cmp	r3, #0
 231 00ac 01D0     		beq	.L26
 232              	.LVL7:
  79:../../../../../../Middlewares/Third_Party/LoRaWAN/Mac/region/RegionRU864.c ****     }
 233              		.loc 1 79 0
 234 00ae 013B     		subs	r3, r3, #1
 235              	.LVL8:
 236 00b0 5AB2     		sxtb	r2, r3
 237              	.LVL9:
 238              	.L26:
 239              	.LBE23:
 240              	.LBE22:
 188:../../../../../../Middlewares/Third_Party/LoRaWAN/Mac/region/RegionRU864.c ****             break;
 241              		.loc 1 188 0
 242 00b2 0092     		str	r2, [sp]
 189:../../../../../../Middlewares/Third_Party/LoRaWAN/Mac/region/RegionRU864.c ****         }
 243              		.loc 1 189 0
 244 00b4 B3E7     		b	.L2
 245              	.L20:
 288:../../../../../../Middlewares/Third_Party/LoRaWAN/Mac/region/RegionRU864.c ****             break;
 246              		.loc 1 288 0
 247 00b6 114B     		ldr	r3, .L30+32
 248 00b8 0093     		str	r3, [sp]
 289:../../../../../../Middlewares/Third_Party/LoRaWAN/Mac/region/RegionRU864.c ****         }
 249              		.loc 1 289 0
 250 00ba B0E7     		b	.L2
 251              	.L24:
 314:../../../../../../Middlewares/Third_Party/LoRaWAN/Mac/region/RegionRU864.c ****             phyParam.BeaconFormat.Rfu1Size = RU864_RFU1_SIZE;
 252              		.loc 1 314 0
 253 00bc 6A46     		mov	r2, sp
 254 00be 104B     		ldr	r3, .L30+36
 255 00c0 1380     		strh	r3, [r2]
 317:../../../../../../Middlewares/Third_Party/LoRaWAN/Mac/region/RegionRU864.c ****         }
 256              		.loc 1 317 0
ARM GAS  C:\Users\EBANO_~1\AppData\Local\Temp\ccazSBuk.s 			page 12


 257 00c2 ACE7     		b	.L2
 258              	.L19:
 283:../../../../../../Middlewares/Third_Party/LoRaWAN/Mac/region/RegionRU864.c ****             break;
 259              		.loc 1 283 0
 260 00c4 0823     		movs	r3, #8
 261 00c6 0093     		str	r3, [sp]
 284:../../../../../../Middlewares/Third_Party/LoRaWAN/Mac/region/RegionRU864.c ****         }
 262              		.loc 1 284 0
 263 00c8 A9E7     		b	.L2
 264              	.L18:
 278:../../../../../../Middlewares/Third_Party/LoRaWAN/Mac/region/RegionRU864.c ****             break;
 265              		.loc 1 278 0
 266 00ca 0C4B     		ldr	r3, .L30+32
 267 00cc 7233     		adds	r3, r3, #114
 268 00ce 0093     		str	r3, [sp]
 279:../../../../../../Middlewares/Third_Party/LoRaWAN/Mac/region/RegionRU864.c ****         }
 269              		.loc 1 279 0
 270 00d0 A5E7     		b	.L2
 271              	.L17:
 273:../../../../../../Middlewares/Third_Party/LoRaWAN/Mac/region/RegionRU864.c ****             break;
 272              		.loc 1 273 0
 273 00d2 0A4B     		ldr	r3, .L30+32
 274 00d4 7033     		adds	r3, r3, #112
 275 00d6 0093     		str	r3, [sp]
 274:../../../../../../Middlewares/Third_Party/LoRaWAN/Mac/region/RegionRU864.c ****         }
 276              		.loc 1 274 0
 277 00d8 A1E7     		b	.L2
 278              	.L31:
 279 00da C046     		.align	2
 280              	.L30:
 281 00dc 00000000 		.word	.L4
 282 00e0 E069CD33 		.word	869100000
 283 00e4 9A990940 		.word	1074370970
 284 00e8 18FCFFFF 		.word	-1000
 285 00ec 70170000 		.word	6000
 286 00f0 88130000 		.word	5000
 287 00f4 B80B0000 		.word	3000
 288 00f8 F4000000 		.word	.LANCHOR0
 289 00fc 00000000 		.word	.LANCHOR1
 290 0100 11020000 		.word	529
 291              		.cfi_endproc
 292              	.LFE44:
 293              		.size	RegionRU864GetPhyParam, .-RegionRU864GetPhyParam
 294              		.section	.text.RegionRU864SetBandTxDone,"ax",%progbits
 295              		.align	1
 296              		.p2align 2,,3
 297              		.global	RegionRU864SetBandTxDone
 298              		.syntax unified
 299              		.code	16
 300              		.thumb_func
 301              		.fpu softvfp
 302              		.type	RegionRU864SetBandTxDone, %function
 303              	RegionRU864SetBandTxDone:
 304              	.LFB45:
 332:../../../../../../Middlewares/Third_Party/LoRaWAN/Mac/region/RegionRU864.c **** 
 333:../../../../../../Middlewares/Third_Party/LoRaWAN/Mac/region/RegionRU864.c **** void RegionRU864SetBandTxDone( SetBandTxDoneParams_t* txDone )
 334:../../../../../../Middlewares/Third_Party/LoRaWAN/Mac/region/RegionRU864.c **** {
ARM GAS  C:\Users\EBANO_~1\AppData\Local\Temp\ccazSBuk.s 			page 13


 305              		.loc 1 334 0
 306              		.cfi_startproc
 307              		@ args = 0, pretend = 0, frame = 0
 308              		@ frame_needed = 0, uses_anonymous_args = 0
 309              	.LVL10:
 335:../../../../../../Middlewares/Third_Party/LoRaWAN/Mac/region/RegionRU864.c ****     RegionCommonSetBandTxDone( txDone->Joined, &NvmCtx.Bands[NvmCtx.Channels[txDone->Channel].Band]
 310              		.loc 1 335 0
 311 0000 0178     		ldrb	r1, [r0]
 334:../../../../../../Middlewares/Third_Party/LoRaWAN/Mac/region/RegionRU864.c ****     RegionCommonSetBandTxDone( txDone->Joined, &NvmCtx.Bands[NvmCtx.Channels[txDone->Channel].Band]
 312              		.loc 1 334 0
 313 0002 10B5     		push	{r4, lr}
 314              	.LCFI2:
 315              		.cfi_def_cfa_offset 8
 316              		.cfi_offset 4, -8
 317              		.cfi_offset 14, -4
 318              		.loc 1 335 0
 319 0004 4B00     		lsls	r3, r1, #1
 320 0006 064C     		ldr	r4, .L33
 321 0008 5B18     		adds	r3, r3, r1
 322 000a 9B00     		lsls	r3, r3, #2
 323 000c E318     		adds	r3, r4, r3
 324 000e 597A     		ldrb	r1, [r3, #9]
 325 0010 4268     		ldr	r2, [r0, #4]
 326 0012 0631     		adds	r1, r1, #6
 327 0014 0901     		lsls	r1, r1, #4
 328 0016 6118     		adds	r1, r4, r1
 329 0018 4078     		ldrb	r0, [r0, #1]
 330              	.LVL11:
 331 001a FFF7FEFF 		bl	RegionCommonSetBandTxDone
 332              	.LVL12:
 336:../../../../../../Middlewares/Third_Party/LoRaWAN/Mac/region/RegionRU864.c **** }
 333              		.loc 1 336 0
 334              		@ sp needed
 335 001e 10BD     		pop	{r4, pc}
 336              	.L34:
 337              		.align	2
 338              	.L33:
 339 0020 00000000 		.word	.LANCHOR1
 340              		.cfi_endproc
 341              	.LFE45:
 342              		.size	RegionRU864SetBandTxDone, .-RegionRU864SetBandTxDone
 343              		.section	.text.RegionRU864InitDefaults,"ax",%progbits
 344              		.align	1
 345              		.p2align 2,,3
 346              		.global	RegionRU864InitDefaults
 347              		.syntax unified
 348              		.code	16
 349              		.thumb_func
 350              		.fpu softvfp
 351              		.type	RegionRU864InitDefaults, %function
 352              	RegionRU864InitDefaults:
 353              	.LFB46:
 337:../../../../../../Middlewares/Third_Party/LoRaWAN/Mac/region/RegionRU864.c **** 
 338:../../../../../../Middlewares/Third_Party/LoRaWAN/Mac/region/RegionRU864.c **** void RegionRU864InitDefaults( InitDefaultsParams_t* params )
 339:../../../../../../Middlewares/Third_Party/LoRaWAN/Mac/region/RegionRU864.c **** {
 354              		.loc 1 339 0
 355              		.cfi_startproc
ARM GAS  C:\Users\EBANO_~1\AppData\Local\Temp\ccazSBuk.s 			page 14


 356              		@ args = 0, pretend = 0, frame = 16
 357              		@ frame_needed = 0, uses_anonymous_args = 0
 358              	.LVL13:
 359 0000 70B5     		push	{r4, r5, r6, lr}
 360              	.LCFI3:
 361              		.cfi_def_cfa_offset 16
 362              		.cfi_offset 4, -16
 363              		.cfi_offset 5, -12
 364              		.cfi_offset 6, -8
 365              		.cfi_offset 14, -4
 366 0002 84B0     		sub	sp, sp, #16
 367              	.LCFI4:
 368              		.cfi_def_cfa_offset 32
 340:../../../../../../Middlewares/Third_Party/LoRaWAN/Mac/region/RegionRU864.c ****     Band_t bands[RU864_MAX_NB_BANDS] =
 369              		.loc 1 340 0
 370 0004 6423     		movs	r3, #100
 371 0006 6A46     		mov	r2, sp
 372 0008 1380     		strh	r3, [r2]
 373 000a 0023     		movs	r3, #0
 374 000c 9370     		strb	r3, [r2, #2]
 375 000e 0193     		str	r3, [sp, #4]
 376 0010 0293     		str	r3, [sp, #8]
 377 0012 0393     		str	r3, [sp, #12]
 341:../../../../../../Middlewares/Third_Party/LoRaWAN/Mac/region/RegionRU864.c ****     {
 342:../../../../../../Middlewares/Third_Party/LoRaWAN/Mac/region/RegionRU864.c ****         RU864_BAND0
 343:../../../../../../Middlewares/Third_Party/LoRaWAN/Mac/region/RegionRU864.c ****     };
 344:../../../../../../Middlewares/Third_Party/LoRaWAN/Mac/region/RegionRU864.c **** 
 345:../../../../../../Middlewares/Third_Party/LoRaWAN/Mac/region/RegionRU864.c ****     switch( params->Type )
 378              		.loc 1 345 0
 379 0014 0379     		ldrb	r3, [r0, #4]
 380 0016 012B     		cmp	r3, #1
 381 0018 26D0     		beq	.L37
 382 001a 002B     		cmp	r3, #0
 383 001c 0AD0     		beq	.L38
 384 001e 022B     		cmp	r3, #2
 385 0020 06D1     		bne	.L35
 346:../../../../../../Middlewares/Third_Party/LoRaWAN/Mac/region/RegionRU864.c ****     {
 347:../../../../../../Middlewares/Third_Party/LoRaWAN/Mac/region/RegionRU864.c ****         case INIT_TYPE_INIT:
 348:../../../../../../Middlewares/Third_Party/LoRaWAN/Mac/region/RegionRU864.c ****         {
 349:../../../../../../Middlewares/Third_Party/LoRaWAN/Mac/region/RegionRU864.c ****             // Initialize bands
 350:../../../../../../Middlewares/Third_Party/LoRaWAN/Mac/region/RegionRU864.c ****             memcpy1( ( uint8_t* )NvmCtx.Bands, ( uint8_t* )bands, sizeof( Band_t ) * RU864_MAX_NB_B
 351:../../../../../../Middlewares/Third_Party/LoRaWAN/Mac/region/RegionRU864.c **** 
 352:../../../../../../Middlewares/Third_Party/LoRaWAN/Mac/region/RegionRU864.c ****             // Channels
 353:../../../../../../Middlewares/Third_Party/LoRaWAN/Mac/region/RegionRU864.c ****             NvmCtx.Channels[0] = ( ChannelParams_t ) RU864_LC1;
 354:../../../../../../Middlewares/Third_Party/LoRaWAN/Mac/region/RegionRU864.c ****             NvmCtx.Channels[1] = ( ChannelParams_t ) RU864_LC2;
 355:../../../../../../Middlewares/Third_Party/LoRaWAN/Mac/region/RegionRU864.c **** 
 356:../../../../../../Middlewares/Third_Party/LoRaWAN/Mac/region/RegionRU864.c ****             // Initialize the channels default mask
 357:../../../../../../Middlewares/Third_Party/LoRaWAN/Mac/region/RegionRU864.c ****             NvmCtx.ChannelsDefaultMask[0] = LC( 1 ) + LC( 2 );
 358:../../../../../../Middlewares/Third_Party/LoRaWAN/Mac/region/RegionRU864.c ****             // Update the channels mask
 359:../../../../../../Middlewares/Third_Party/LoRaWAN/Mac/region/RegionRU864.c ****             RegionCommonChanMaskCopy( NvmCtx.ChannelsMask, NvmCtx.ChannelsDefaultMask, 1 );
 360:../../../../../../Middlewares/Third_Party/LoRaWAN/Mac/region/RegionRU864.c ****             break;
 361:../../../../../../Middlewares/Third_Party/LoRaWAN/Mac/region/RegionRU864.c ****         }
 362:../../../../../../Middlewares/Third_Party/LoRaWAN/Mac/region/RegionRU864.c ****         case INIT_TYPE_RESTORE_CTX:
 363:../../../../../../Middlewares/Third_Party/LoRaWAN/Mac/region/RegionRU864.c ****         {
 364:../../../../../../Middlewares/Third_Party/LoRaWAN/Mac/region/RegionRU864.c ****             if( params->NvmCtx != 0 )
 386              		.loc 1 364 0
 387 0022 0168     		ldr	r1, [r0]
ARM GAS  C:\Users\EBANO_~1\AppData\Local\Temp\ccazSBuk.s 			page 15


 388 0024 0029     		cmp	r1, #0
 389 0026 03D0     		beq	.L35
 365:../../../../../../Middlewares/Third_Party/LoRaWAN/Mac/region/RegionRU864.c ****             {
 366:../../../../../../Middlewares/Third_Party/LoRaWAN/Mac/region/RegionRU864.c ****                 memcpy1( (uint8_t*) &NvmCtx, (uint8_t*) params->NvmCtx, sizeof( NvmCtx ) );
 390              		.loc 1 366 0
 391 0028 7422     		movs	r2, #116
 392 002a 1348     		ldr	r0, .L43
 393              	.LVL14:
 394 002c FFF7FEFF 		bl	memcpy1
 395              	.LVL15:
 396              	.L35:
 367:../../../../../../Middlewares/Third_Party/LoRaWAN/Mac/region/RegionRU864.c ****             }
 368:../../../../../../Middlewares/Third_Party/LoRaWAN/Mac/region/RegionRU864.c ****             break;
 369:../../../../../../Middlewares/Third_Party/LoRaWAN/Mac/region/RegionRU864.c ****         }
 370:../../../../../../Middlewares/Third_Party/LoRaWAN/Mac/region/RegionRU864.c ****         case INIT_TYPE_RESTORE_DEFAULT_CHANNELS:
 371:../../../../../../Middlewares/Third_Party/LoRaWAN/Mac/region/RegionRU864.c ****         {
 372:../../../../../../Middlewares/Third_Party/LoRaWAN/Mac/region/RegionRU864.c ****             // Restore channels default mask
 373:../../../../../../Middlewares/Third_Party/LoRaWAN/Mac/region/RegionRU864.c ****             NvmCtx.ChannelsMask[0] |= NvmCtx.ChannelsDefaultMask[0];
 374:../../../../../../Middlewares/Third_Party/LoRaWAN/Mac/region/RegionRU864.c ****             break;
 375:../../../../../../Middlewares/Third_Party/LoRaWAN/Mac/region/RegionRU864.c ****         }
 376:../../../../../../Middlewares/Third_Party/LoRaWAN/Mac/region/RegionRU864.c ****         default:
 377:../../../../../../Middlewares/Third_Party/LoRaWAN/Mac/region/RegionRU864.c ****         {
 378:../../../../../../Middlewares/Third_Party/LoRaWAN/Mac/region/RegionRU864.c ****             break;
 379:../../../../../../Middlewares/Third_Party/LoRaWAN/Mac/region/RegionRU864.c ****         }
 380:../../../../../../Middlewares/Third_Party/LoRaWAN/Mac/region/RegionRU864.c ****     }
 381:../../../../../../Middlewares/Third_Party/LoRaWAN/Mac/region/RegionRU864.c **** }
 397              		.loc 1 381 0
 398 0030 04B0     		add	sp, sp, #16
 399              		@ sp needed
 400 0032 70BD     		pop	{r4, r5, r6, pc}
 401              	.LVL16:
 402              	.L38:
 350:../../../../../../Middlewares/Third_Party/LoRaWAN/Mac/region/RegionRU864.c **** 
 403              		.loc 1 350 0
 404 0034 104C     		ldr	r4, .L43
 405 0036 6946     		mov	r1, sp
 406 0038 2000     		movs	r0, r4
 407              	.LVL17:
 408 003a 1022     		movs	r2, #16
 409 003c 6030     		adds	r0, r0, #96
 410 003e FFF7FEFF 		bl	memcpy1
 411              	.LVL18:
 353:../../../../../../Middlewares/Third_Party/LoRaWAN/Mac/region/RegionRU864.c ****             NvmCtx.Channels[1] = ( ChannelParams_t ) RU864_LC2;
 412              		.loc 1 353 0
 413 0042 0E4B     		ldr	r3, .L43+4
 414 0044 2100     		movs	r1, r4
 415 0046 1A00     		movs	r2, r3
 416 0048 1032     		adds	r2, r2, #16
 417 004a 61CA     		ldmia	r2!, {r0, r5, r6}
 418 004c 61C1     		stmia	r1!, {r0, r5, r6}
 354:../../../../../../Middlewares/Third_Party/LoRaWAN/Mac/region/RegionRU864.c **** 
 419              		.loc 1 354 0
 420 004e 1C33     		adds	r3, r3, #28
 421 0050 25CB     		ldmia	r3!, {r0, r2, r5}
 422 0052 25C1     		stmia	r1!, {r0, r2, r5}
 357:../../../../../../Middlewares/Third_Party/LoRaWAN/Mac/region/RegionRU864.c ****             // Update the channels mask
 423              		.loc 1 357 0
ARM GAS  C:\Users\EBANO_~1\AppData\Local\Temp\ccazSBuk.s 			page 16


 424 0054 7223     		movs	r3, #114
 425 0056 0322     		movs	r2, #3
 359:../../../../../../Middlewares/Third_Party/LoRaWAN/Mac/region/RegionRU864.c ****             break;
 426              		.loc 1 359 0
 427 0058 2000     		movs	r0, r4
 357:../../../../../../Middlewares/Third_Party/LoRaWAN/Mac/region/RegionRU864.c ****             // Update the channels mask
 428              		.loc 1 357 0
 429 005a E252     		strh	r2, [r4, r3]
 359:../../../../../../Middlewares/Third_Party/LoRaWAN/Mac/region/RegionRU864.c ****             break;
 430              		.loc 1 359 0
 431 005c 5A31     		adds	r1, r1, #90
 432 005e 7030     		adds	r0, r0, #112
 433 0060 023A     		subs	r2, r2, #2
 434 0062 FFF7FEFF 		bl	RegionCommonChanMaskCopy
 435              	.LVL19:
 360:../../../../../../Middlewares/Third_Party/LoRaWAN/Mac/region/RegionRU864.c ****         }
 436              		.loc 1 360 0
 437 0066 E3E7     		b	.L35
 438              	.LVL20:
 439              	.L37:
 373:../../../../../../Middlewares/Third_Party/LoRaWAN/Mac/region/RegionRU864.c ****             break;
 440              		.loc 1 373 0
 441 0068 7021     		movs	r1, #112
 442 006a 7220     		movs	r0, #114
 443              	.LVL21:
 444 006c 024B     		ldr	r3, .L43
 445 006e 5A5A     		ldrh	r2, [r3, r1]
 446 0070 185A     		ldrh	r0, [r3, r0]
 447 0072 0243     		orrs	r2, r0
 448 0074 5A52     		strh	r2, [r3, r1]
 449              		.loc 1 381 0
 450 0076 DBE7     		b	.L35
 451              	.L44:
 452              		.align	2
 453              	.L43:
 454 0078 00000000 		.word	.LANCHOR1
 455 007c F4000000 		.word	.LANCHOR0
 456              		.cfi_endproc
 457              	.LFE46:
 458              		.size	RegionRU864InitDefaults, .-RegionRU864InitDefaults
 459              		.section	.text.RegionRU864GetNvmCtx,"ax",%progbits
 460              		.align	1
 461              		.p2align 2,,3
 462              		.global	RegionRU864GetNvmCtx
 463              		.syntax unified
 464              		.code	16
 465              		.thumb_func
 466              		.fpu softvfp
 467              		.type	RegionRU864GetNvmCtx, %function
 468              	RegionRU864GetNvmCtx:
 469              	.LFB47:
 382:../../../../../../Middlewares/Third_Party/LoRaWAN/Mac/region/RegionRU864.c **** 
 383:../../../../../../Middlewares/Third_Party/LoRaWAN/Mac/region/RegionRU864.c **** void* RegionRU864GetNvmCtx( GetNvmCtxParams_t* params )
 384:../../../../../../Middlewares/Third_Party/LoRaWAN/Mac/region/RegionRU864.c **** {
 470              		.loc 1 384 0
 471              		.cfi_startproc
 472              		@ args = 0, pretend = 0, frame = 0
ARM GAS  C:\Users\EBANO_~1\AppData\Local\Temp\ccazSBuk.s 			page 17


 473              		@ frame_needed = 0, uses_anonymous_args = 0
 474              		@ link register save eliminated.
 475              	.LVL22:
 385:../../../../../../Middlewares/Third_Party/LoRaWAN/Mac/region/RegionRU864.c ****     params->nvmCtxSize = sizeof( RegionRU864NvmCtx_t );
 476              		.loc 1 385 0
 477 0000 7423     		movs	r3, #116
 386:../../../../../../Middlewares/Third_Party/LoRaWAN/Mac/region/RegionRU864.c ****     return &NvmCtx;
 387:../../../../../../Middlewares/Third_Party/LoRaWAN/Mac/region/RegionRU864.c **** }
 478              		.loc 1 387 0
 479              		@ sp needed
 385:../../../../../../Middlewares/Third_Party/LoRaWAN/Mac/region/RegionRU864.c ****     params->nvmCtxSize = sizeof( RegionRU864NvmCtx_t );
 480              		.loc 1 385 0
 481 0002 0360     		str	r3, [r0]
 482              		.loc 1 387 0
 483 0004 0048     		ldr	r0, .L46
 484              	.LVL23:
 485 0006 7047     		bx	lr
 486              	.L47:
 487              		.align	2
 488              	.L46:
 489 0008 00000000 		.word	.LANCHOR1
 490              		.cfi_endproc
 491              	.LFE47:
 492              		.size	RegionRU864GetNvmCtx, .-RegionRU864GetNvmCtx
 493              		.section	.text.RegionRU864Verify,"ax",%progbits
 494              		.align	1
 495              		.p2align 2,,3
 496              		.global	RegionRU864Verify
 497              		.syntax unified
 498              		.code	16
 499              		.thumb_func
 500              		.fpu softvfp
 501              		.type	RegionRU864Verify, %function
 502              	RegionRU864Verify:
 503              	.LFB48:
 388:../../../../../../Middlewares/Third_Party/LoRaWAN/Mac/region/RegionRU864.c **** 
 389:../../../../../../Middlewares/Third_Party/LoRaWAN/Mac/region/RegionRU864.c **** bool RegionRU864Verify( VerifyParams_t* verify, PhyAttribute_t phyAttribute )
 390:../../../../../../Middlewares/Third_Party/LoRaWAN/Mac/region/RegionRU864.c **** {
 504              		.loc 1 390 0
 505              		.cfi_startproc
 506              		@ args = 0, pretend = 0, frame = 0
 507              		@ frame_needed = 0, uses_anonymous_args = 0
 508              	.LVL24:
 391:../../../../../../Middlewares/Third_Party/LoRaWAN/Mac/region/RegionRU864.c ****     switch( phyAttribute )
 509              		.loc 1 391 0
 510 0000 0439     		subs	r1, r1, #4
 511              	.LVL25:
 512 0002 C9B2     		uxtb	r1, r1
 390:../../../../../../Middlewares/Third_Party/LoRaWAN/Mac/region/RegionRU864.c ****     switch( phyAttribute )
 513              		.loc 1 390 0
 514 0004 10B5     		push	{r4, lr}
 515              	.LCFI5:
 516              		.cfi_def_cfa_offset 8
 517              		.cfi_offset 4, -8
 518              		.cfi_offset 14, -4
 519              		.loc 1 391 0
 520 0006 0A29     		cmp	r1, #10
ARM GAS  C:\Users\EBANO_~1\AppData\Local\Temp\ccazSBuk.s 			page 18


 521 0008 19D8     		bhi	.L49
 522 000a 0E4B     		ldr	r3, .L56
 523 000c 8900     		lsls	r1, r1, #2
 524 000e 5B58     		ldr	r3, [r3, r1]
 525 0010 9F46     		mov	pc, r3
 526              		.section	.rodata
 527              		.align	2
 528              	.L51:
 529 00a0 12000000 		.word	.L53
 530 00a4 2A000000 		.word	.L52
 531 00a8 12000000 		.word	.L53
 532 00ac 3E000000 		.word	.L49
 533 00b0 12000000 		.word	.L53
 534 00b4 12000000 		.word	.L53
 535 00b8 3E000000 		.word	.L49
 536 00bc 3E000000 		.word	.L49
 537 00c0 3E000000 		.word	.L49
 538 00c4 3E000000 		.word	.L49
 539 00c8 26000000 		.word	.L55
 540              		.section	.text.RegionRU864Verify
 541              	.L53:
 392:../../../../../../Middlewares/Third_Party/LoRaWAN/Mac/region/RegionRU864.c ****     {
 393:../../../../../../Middlewares/Third_Party/LoRaWAN/Mac/region/RegionRU864.c ****         case PHY_TX_DR:
 394:../../../../../../Middlewares/Third_Party/LoRaWAN/Mac/region/RegionRU864.c ****         {
 395:../../../../../../Middlewares/Third_Party/LoRaWAN/Mac/region/RegionRU864.c ****             return RegionCommonValueInRange( verify->DatarateParams.Datarate, RU864_TX_MIN_DATARATE
 396:../../../../../../Middlewares/Third_Party/LoRaWAN/Mac/region/RegionRU864.c ****         }
 397:../../../../../../Middlewares/Third_Party/LoRaWAN/Mac/region/RegionRU864.c ****         case PHY_DEF_TX_DR:
 398:../../../../../../Middlewares/Third_Party/LoRaWAN/Mac/region/RegionRU864.c ****         {
 399:../../../../../../Middlewares/Third_Party/LoRaWAN/Mac/region/RegionRU864.c ****             return RegionCommonValueInRange( verify->DatarateParams.Datarate, DR_0, DR_5 );
 400:../../../../../../Middlewares/Third_Party/LoRaWAN/Mac/region/RegionRU864.c ****         }
 401:../../../../../../Middlewares/Third_Party/LoRaWAN/Mac/region/RegionRU864.c ****         case PHY_RX_DR:
 402:../../../../../../Middlewares/Third_Party/LoRaWAN/Mac/region/RegionRU864.c ****         {
 403:../../../../../../Middlewares/Third_Party/LoRaWAN/Mac/region/RegionRU864.c ****             return RegionCommonValueInRange( verify->DatarateParams.Datarate, RU864_RX_MIN_DATARATE
 404:../../../../../../Middlewares/Third_Party/LoRaWAN/Mac/region/RegionRU864.c ****         }
 405:../../../../../../Middlewares/Third_Party/LoRaWAN/Mac/region/RegionRU864.c ****         case PHY_DEF_TX_POWER:
 406:../../../../../../Middlewares/Third_Party/LoRaWAN/Mac/region/RegionRU864.c ****         case PHY_TX_POWER:
 407:../../../../../../Middlewares/Third_Party/LoRaWAN/Mac/region/RegionRU864.c ****         {
 408:../../../../../../Middlewares/Third_Party/LoRaWAN/Mac/region/RegionRU864.c ****             // Remark: switched min and max!
 409:../../../../../../Middlewares/Third_Party/LoRaWAN/Mac/region/RegionRU864.c ****             return RegionCommonValueInRange( verify->TxPower, RU864_MAX_TX_POWER, RU864_MIN_TX_POWE
 542              		.loc 1 409 0
 543 0012 0078     		ldrb	r0, [r0]
 544              	.LVL26:
 545 0014 0722     		movs	r2, #7
 546 0016 40B2     		sxtb	r0, r0
 547 0018 0021     		movs	r1, #0
 548 001a FFF7FEFF 		bl	RegionCommonValueInRange
 549              	.LVL27:
 550 001e 431E     		subs	r3, r0, #1
 551 0020 9841     		sbcs	r0, r0, r3
 552 0022 C0B2     		uxtb	r0, r0
 553              	.L54:
 410:../../../../../../Middlewares/Third_Party/LoRaWAN/Mac/region/RegionRU864.c ****         }
 411:../../../../../../Middlewares/Third_Party/LoRaWAN/Mac/region/RegionRU864.c ****         case PHY_DUTY_CYCLE:
 412:../../../../../../Middlewares/Third_Party/LoRaWAN/Mac/region/RegionRU864.c ****         {
 413:../../../../../../Middlewares/Third_Party/LoRaWAN/Mac/region/RegionRU864.c ****             return RU864_DUTY_CYCLE_ENABLED;
 414:../../../../../../Middlewares/Third_Party/LoRaWAN/Mac/region/RegionRU864.c ****         }
 415:../../../../../../Middlewares/Third_Party/LoRaWAN/Mac/region/RegionRU864.c ****         default:
ARM GAS  C:\Users\EBANO_~1\AppData\Local\Temp\ccazSBuk.s 			page 19


 416:../../../../../../Middlewares/Third_Party/LoRaWAN/Mac/region/RegionRU864.c ****             return false;
 417:../../../../../../Middlewares/Third_Party/LoRaWAN/Mac/region/RegionRU864.c ****     }
 418:../../../../../../Middlewares/Third_Party/LoRaWAN/Mac/region/RegionRU864.c **** }
 554              		.loc 1 418 0
 555              		@ sp needed
 556 0024 10BD     		pop	{r4, pc}
 557              	.LVL28:
 558              	.L55:
 413:../../../../../../Middlewares/Third_Party/LoRaWAN/Mac/region/RegionRU864.c ****         }
 559              		.loc 1 413 0
 560 0026 0120     		movs	r0, #1
 561              	.LVL29:
 562 0028 FCE7     		b	.L54
 563              	.LVL30:
 564              	.L52:
 399:../../../../../../Middlewares/Third_Party/LoRaWAN/Mac/region/RegionRU864.c ****         }
 565              		.loc 1 399 0
 566 002a 0078     		ldrb	r0, [r0]
 567              	.LVL31:
 568 002c 0522     		movs	r2, #5
 569 002e 40B2     		sxtb	r0, r0
 570 0030 0021     		movs	r1, #0
 571 0032 FFF7FEFF 		bl	RegionCommonValueInRange
 572              	.LVL32:
 573 0036 431E     		subs	r3, r0, #1
 574 0038 9841     		sbcs	r0, r0, r3
 575 003a C0B2     		uxtb	r0, r0
 576 003c F2E7     		b	.L54
 577              	.LVL33:
 578              	.L49:
 416:../../../../../../Middlewares/Third_Party/LoRaWAN/Mac/region/RegionRU864.c ****     }
 579              		.loc 1 416 0
 580 003e 0020     		movs	r0, #0
 581              	.LVL34:
 582 0040 F0E7     		b	.L54
 583              	.L57:
 584 0042 C046     		.align	2
 585              	.L56:
 586 0044 A0000000 		.word	.L51
 587              		.cfi_endproc
 588              	.LFE48:
 589              		.size	RegionRU864Verify, .-RegionRU864Verify
 590              		.section	.text.RegionRU864ApplyCFList,"ax",%progbits
 591              		.align	1
 592              		.p2align 2,,3
 593              		.global	RegionRU864ApplyCFList
 594              		.syntax unified
 595              		.code	16
 596              		.thumb_func
 597              		.fpu softvfp
 598              		.type	RegionRU864ApplyCFList, %function
 599              	RegionRU864ApplyCFList:
 600              	.LFB49:
 419:../../../../../../Middlewares/Third_Party/LoRaWAN/Mac/region/RegionRU864.c **** 
 420:../../../../../../Middlewares/Third_Party/LoRaWAN/Mac/region/RegionRU864.c **** void RegionRU864ApplyCFList( ApplyCFListParams_t* applyCFList )
 421:../../../../../../Middlewares/Third_Party/LoRaWAN/Mac/region/RegionRU864.c **** {
 601              		.loc 1 421 0
ARM GAS  C:\Users\EBANO_~1\AppData\Local\Temp\ccazSBuk.s 			page 20


 602              		.cfi_startproc
 603              		@ args = 0, pretend = 0, frame = 24
 604              		@ frame_needed = 0, uses_anonymous_args = 0
 605              	.LVL35:
 606 0000 F0B5     		push	{r4, r5, r6, r7, lr}
 607              	.LCFI6:
 608              		.cfi_def_cfa_offset 20
 609              		.cfi_offset 4, -20
 610              		.cfi_offset 5, -16
 611              		.cfi_offset 6, -12
 612              		.cfi_offset 7, -8
 613              		.cfi_offset 14, -4
 614 0002 5746     		mov	r7, r10
 615 0004 DE46     		mov	lr, fp
 616 0006 4E46     		mov	r6, r9
 617 0008 4546     		mov	r5, r8
 422:../../../../../../Middlewares/Third_Party/LoRaWAN/Mac/region/RegionRU864.c ****     ChannelParams_t newChannel;
 423:../../../../../../Middlewares/Third_Party/LoRaWAN/Mac/region/RegionRU864.c ****     ChannelAddParams_t channelAdd;
 424:../../../../../../Middlewares/Third_Party/LoRaWAN/Mac/region/RegionRU864.c ****     ChannelRemoveParams_t channelRemove;
 425:../../../../../../Middlewares/Third_Party/LoRaWAN/Mac/region/RegionRU864.c **** 
 426:../../../../../../Middlewares/Third_Party/LoRaWAN/Mac/region/RegionRU864.c ****     // Setup default datarate range
 427:../../../../../../Middlewares/Third_Party/LoRaWAN/Mac/region/RegionRU864.c ****     newChannel.DrRange.Value = ( DR_5 << 4 ) | DR_0;
 618              		.loc 1 427 0
 619 000a 5023     		movs	r3, #80
 421:../../../../../../Middlewares/Third_Party/LoRaWAN/Mac/region/RegionRU864.c ****     ChannelParams_t newChannel;
 620              		.loc 1 421 0
 621 000c E0B5     		push	{r5, r6, r7, lr}
 622              	.LCFI7:
 623              		.cfi_def_cfa_offset 36
 624              		.cfi_offset 8, -36
 625              		.cfi_offset 9, -32
 626              		.cfi_offset 10, -28
 627              		.cfi_offset 11, -24
 628 000e 87B0     		sub	sp, sp, #28
 629              	.LCFI8:
 630              		.cfi_def_cfa_offset 64
 631              		.loc 1 427 0
 632 0010 03AC     		add	r4, sp, #12
 633 0012 2372     		strb	r3, [r4, #8]
 428:../../../../../../Middlewares/Third_Party/LoRaWAN/Mac/region/RegionRU864.c **** 
 429:../../../../../../Middlewares/Third_Party/LoRaWAN/Mac/region/RegionRU864.c ****     // Size of the optional CF list
 430:../../../../../../Middlewares/Third_Party/LoRaWAN/Mac/region/RegionRU864.c ****     if( applyCFList->Size != 16 )
 634              		.loc 1 430 0
 635 0014 0379     		ldrb	r3, [r0, #4]
 421:../../../../../../Middlewares/Third_Party/LoRaWAN/Mac/region/RegionRU864.c ****     ChannelParams_t newChannel;
 636              		.loc 1 421 0
 637 0016 0700     		movs	r7, r0
 638              		.loc 1 430 0
 639 0018 102B     		cmp	r3, #16
 640 001a 06D0     		beq	.L76
 641              	.LVL36:
 642              	.L58:
 431:../../../../../../Middlewares/Third_Party/LoRaWAN/Mac/region/RegionRU864.c ****     {
 432:../../../../../../Middlewares/Third_Party/LoRaWAN/Mac/region/RegionRU864.c ****         return;
 433:../../../../../../Middlewares/Third_Party/LoRaWAN/Mac/region/RegionRU864.c ****     }
 434:../../../../../../Middlewares/Third_Party/LoRaWAN/Mac/region/RegionRU864.c **** 
 435:../../../../../../Middlewares/Third_Party/LoRaWAN/Mac/region/RegionRU864.c ****     // Last byte CFListType must be 0 to indicate the CFList contains a list of frequencies
ARM GAS  C:\Users\EBANO_~1\AppData\Local\Temp\ccazSBuk.s 			page 21


 436:../../../../../../Middlewares/Third_Party/LoRaWAN/Mac/region/RegionRU864.c ****     if( applyCFList->Payload[15] != 0 )
 437:../../../../../../Middlewares/Third_Party/LoRaWAN/Mac/region/RegionRU864.c ****     {
 438:../../../../../../Middlewares/Third_Party/LoRaWAN/Mac/region/RegionRU864.c ****         return;
 439:../../../../../../Middlewares/Third_Party/LoRaWAN/Mac/region/RegionRU864.c ****     }
 440:../../../../../../Middlewares/Third_Party/LoRaWAN/Mac/region/RegionRU864.c **** 
 441:../../../../../../Middlewares/Third_Party/LoRaWAN/Mac/region/RegionRU864.c ****     // Last byte is RFU, don't take it into account
 442:../../../../../../Middlewares/Third_Party/LoRaWAN/Mac/region/RegionRU864.c ****     for( uint8_t i = 0, chanIdx = RU864_NUMB_DEFAULT_CHANNELS; chanIdx < RU864_MAX_NB_CHANNELS; i+=
 443:../../../../../../Middlewares/Third_Party/LoRaWAN/Mac/region/RegionRU864.c ****     {
 444:../../../../../../Middlewares/Third_Party/LoRaWAN/Mac/region/RegionRU864.c ****         if( chanIdx < ( RU864_NUMB_CHANNELS_CF_LIST + RU864_NUMB_DEFAULT_CHANNELS ) )
 445:../../../../../../Middlewares/Third_Party/LoRaWAN/Mac/region/RegionRU864.c ****         {
 446:../../../../../../Middlewares/Third_Party/LoRaWAN/Mac/region/RegionRU864.c ****             // Channel frequency
 447:../../../../../../Middlewares/Third_Party/LoRaWAN/Mac/region/RegionRU864.c ****             newChannel.Frequency = (uint32_t) applyCFList->Payload[i];
 448:../../../../../../Middlewares/Third_Party/LoRaWAN/Mac/region/RegionRU864.c ****             newChannel.Frequency |= ( (uint32_t) applyCFList->Payload[i + 1] << 8 );
 449:../../../../../../Middlewares/Third_Party/LoRaWAN/Mac/region/RegionRU864.c ****             newChannel.Frequency |= ( (uint32_t) applyCFList->Payload[i + 2] << 16 );
 450:../../../../../../Middlewares/Third_Party/LoRaWAN/Mac/region/RegionRU864.c ****             newChannel.Frequency *= 100;
 451:../../../../../../Middlewares/Third_Party/LoRaWAN/Mac/region/RegionRU864.c **** 
 452:../../../../../../Middlewares/Third_Party/LoRaWAN/Mac/region/RegionRU864.c ****             // Initialize alternative frequency to 0
 453:../../../../../../Middlewares/Third_Party/LoRaWAN/Mac/region/RegionRU864.c ****             newChannel.Rx1Frequency = 0;
 454:../../../../../../Middlewares/Third_Party/LoRaWAN/Mac/region/RegionRU864.c ****         }
 455:../../../../../../Middlewares/Third_Party/LoRaWAN/Mac/region/RegionRU864.c ****         else
 456:../../../../../../Middlewares/Third_Party/LoRaWAN/Mac/region/RegionRU864.c ****         {
 457:../../../../../../Middlewares/Third_Party/LoRaWAN/Mac/region/RegionRU864.c ****             newChannel.Frequency = 0;
 458:../../../../../../Middlewares/Third_Party/LoRaWAN/Mac/region/RegionRU864.c ****             newChannel.DrRange.Value = 0;
 459:../../../../../../Middlewares/Third_Party/LoRaWAN/Mac/region/RegionRU864.c ****             newChannel.Rx1Frequency = 0;
 460:../../../../../../Middlewares/Third_Party/LoRaWAN/Mac/region/RegionRU864.c ****         }
 461:../../../../../../Middlewares/Third_Party/LoRaWAN/Mac/region/RegionRU864.c **** 
 462:../../../../../../Middlewares/Third_Party/LoRaWAN/Mac/region/RegionRU864.c ****         if( newChannel.Frequency != 0 )
 463:../../../../../../Middlewares/Third_Party/LoRaWAN/Mac/region/RegionRU864.c ****         {
 464:../../../../../../Middlewares/Third_Party/LoRaWAN/Mac/region/RegionRU864.c ****             channelAdd.NewChannel = &newChannel;
 465:../../../../../../Middlewares/Third_Party/LoRaWAN/Mac/region/RegionRU864.c ****             channelAdd.ChannelId = chanIdx;
 466:../../../../../../Middlewares/Third_Party/LoRaWAN/Mac/region/RegionRU864.c **** 
 467:../../../../../../Middlewares/Third_Party/LoRaWAN/Mac/region/RegionRU864.c ****             // Try to add all channels
 468:../../../../../../Middlewares/Third_Party/LoRaWAN/Mac/region/RegionRU864.c ****             RegionRU864ChannelAdd( &channelAdd );
 469:../../../../../../Middlewares/Third_Party/LoRaWAN/Mac/region/RegionRU864.c ****         }
 470:../../../../../../Middlewares/Third_Party/LoRaWAN/Mac/region/RegionRU864.c ****         else
 471:../../../../../../Middlewares/Third_Party/LoRaWAN/Mac/region/RegionRU864.c ****         {
 472:../../../../../../Middlewares/Third_Party/LoRaWAN/Mac/region/RegionRU864.c ****             channelRemove.ChannelId = chanIdx;
 473:../../../../../../Middlewares/Third_Party/LoRaWAN/Mac/region/RegionRU864.c **** 
 474:../../../../../../Middlewares/Third_Party/LoRaWAN/Mac/region/RegionRU864.c ****             RegionRU864ChannelsRemove( &channelRemove );
 475:../../../../../../Middlewares/Third_Party/LoRaWAN/Mac/region/RegionRU864.c ****         }
 476:../../../../../../Middlewares/Third_Party/LoRaWAN/Mac/region/RegionRU864.c ****     }
 477:../../../../../../Middlewares/Third_Party/LoRaWAN/Mac/region/RegionRU864.c **** }
 643              		.loc 1 477 0
 644 001c 07B0     		add	sp, sp, #28
 645              		@ sp needed
 646              	.LVL37:
 647 001e 3CBC     		pop	{r2, r3, r4, r5}
 648 0020 9046     		mov	r8, r2
 649 0022 9946     		mov	r9, r3
 650 0024 A246     		mov	r10, r4
 651 0026 AB46     		mov	fp, r5
 652 0028 F0BD     		pop	{r4, r5, r6, r7, pc}
 653              	.LVL38:
 654              	.L76:
 436:../../../../../../Middlewares/Third_Party/LoRaWAN/Mac/region/RegionRU864.c ****     {
 655              		.loc 1 436 0
 656 002a 0368     		ldr	r3, [r0]
ARM GAS  C:\Users\EBANO_~1\AppData\Local\Temp\ccazSBuk.s 			page 22


 657 002c DB7B     		ldrb	r3, [r3, #15]
 658 002e 002B     		cmp	r3, #0
 659 0030 F4D1     		bne	.L58
 660 0032 0225     		movs	r5, #2
 661              	.LBB31:
 662              	.LBB32:
 663              	.LBB33:
 478:../../../../../../Middlewares/Third_Party/LoRaWAN/Mac/region/RegionRU864.c **** 
 479:../../../../../../Middlewares/Third_Party/LoRaWAN/Mac/region/RegionRU864.c **** bool RegionRU864ChanMaskSet( ChanMaskSetParams_t* chanMaskSet )
 480:../../../../../../Middlewares/Third_Party/LoRaWAN/Mac/region/RegionRU864.c **** {
 481:../../../../../../Middlewares/Third_Party/LoRaWAN/Mac/region/RegionRU864.c ****     switch( chanMaskSet->ChannelsMaskType )
 482:../../../../../../Middlewares/Third_Party/LoRaWAN/Mac/region/RegionRU864.c ****     {
 483:../../../../../../Middlewares/Third_Party/LoRaWAN/Mac/region/RegionRU864.c ****         case CHANNELS_MASK:
 484:../../../../../../Middlewares/Third_Party/LoRaWAN/Mac/region/RegionRU864.c ****         {
 485:../../../../../../Middlewares/Third_Party/LoRaWAN/Mac/region/RegionRU864.c ****             RegionCommonChanMaskCopy( NvmCtx.ChannelsMask, chanMaskSet->ChannelsMaskIn, 1 );
 486:../../../../../../Middlewares/Third_Party/LoRaWAN/Mac/region/RegionRU864.c ****             break;
 487:../../../../../../Middlewares/Third_Party/LoRaWAN/Mac/region/RegionRU864.c ****         }
 488:../../../../../../Middlewares/Third_Party/LoRaWAN/Mac/region/RegionRU864.c ****         case CHANNELS_DEFAULT_MASK:
 489:../../../../../../Middlewares/Third_Party/LoRaWAN/Mac/region/RegionRU864.c ****         {
 490:../../../../../../Middlewares/Third_Party/LoRaWAN/Mac/region/RegionRU864.c ****             RegionCommonChanMaskCopy( NvmCtx.ChannelsDefaultMask, chanMaskSet->ChannelsMaskIn, 1 );
 491:../../../../../../Middlewares/Third_Party/LoRaWAN/Mac/region/RegionRU864.c ****             break;
 492:../../../../../../Middlewares/Third_Party/LoRaWAN/Mac/region/RegionRU864.c ****         }
 493:../../../../../../Middlewares/Third_Party/LoRaWAN/Mac/region/RegionRU864.c ****         default:
 494:../../../../../../Middlewares/Third_Party/LoRaWAN/Mac/region/RegionRU864.c ****             return false;
 495:../../../../../../Middlewares/Third_Party/LoRaWAN/Mac/region/RegionRU864.c ****     }
 496:../../../../../../Middlewares/Third_Party/LoRaWAN/Mac/region/RegionRU864.c ****     return true;
 497:../../../../../../Middlewares/Third_Party/LoRaWAN/Mac/region/RegionRU864.c **** }
 498:../../../../../../Middlewares/Third_Party/LoRaWAN/Mac/region/RegionRU864.c **** 
 499:../../../../../../Middlewares/Third_Party/LoRaWAN/Mac/region/RegionRU864.c **** void RegionRU864ComputeRxWindowParameters( int8_t datarate, uint8_t minRxSymbols, uint32_t rxError,
 500:../../../../../../Middlewares/Third_Party/LoRaWAN/Mac/region/RegionRU864.c **** {
 501:../../../../../../Middlewares/Third_Party/LoRaWAN/Mac/region/RegionRU864.c ****     double tSymbol = 0.0;
 502:../../../../../../Middlewares/Third_Party/LoRaWAN/Mac/region/RegionRU864.c **** 
 503:../../../../../../Middlewares/Third_Party/LoRaWAN/Mac/region/RegionRU864.c ****     // Get the datarate, perform a boundary check
 504:../../../../../../Middlewares/Third_Party/LoRaWAN/Mac/region/RegionRU864.c ****     rxConfigParams->Datarate = MIN( datarate, RU864_RX_MAX_DATARATE );
 505:../../../../../../Middlewares/Third_Party/LoRaWAN/Mac/region/RegionRU864.c ****     rxConfigParams->Bandwidth = GetBandwidth( rxConfigParams->Datarate );
 506:../../../../../../Middlewares/Third_Party/LoRaWAN/Mac/region/RegionRU864.c **** 
 507:../../../../../../Middlewares/Third_Party/LoRaWAN/Mac/region/RegionRU864.c ****     if( rxConfigParams->Datarate == DR_7 )
 508:../../../../../../Middlewares/Third_Party/LoRaWAN/Mac/region/RegionRU864.c ****     { // FSK
 509:../../../../../../Middlewares/Third_Party/LoRaWAN/Mac/region/RegionRU864.c ****         tSymbol = RegionCommonComputeSymbolTimeFsk( DataratesRU864[rxConfigParams->Datarate] );
 510:../../../../../../Middlewares/Third_Party/LoRaWAN/Mac/region/RegionRU864.c ****     }
 511:../../../../../../Middlewares/Third_Party/LoRaWAN/Mac/region/RegionRU864.c ****     else
 512:../../../../../../Middlewares/Third_Party/LoRaWAN/Mac/region/RegionRU864.c ****     { // LoRa
 513:../../../../../../Middlewares/Third_Party/LoRaWAN/Mac/region/RegionRU864.c ****         tSymbol = RegionCommonComputeSymbolTimeLoRa( DataratesRU864[rxConfigParams->Datarate], Band
 514:../../../../../../Middlewares/Third_Party/LoRaWAN/Mac/region/RegionRU864.c ****     }
 515:../../../../../../Middlewares/Third_Party/LoRaWAN/Mac/region/RegionRU864.c **** 
 516:../../../../../../Middlewares/Third_Party/LoRaWAN/Mac/region/RegionRU864.c ****     RegionCommonComputeRxWindowParameters( tSymbol, minRxSymbols, rxError, Radio.GetWakeupTime( ), 
 517:../../../../../../Middlewares/Third_Party/LoRaWAN/Mac/region/RegionRU864.c **** }
 518:../../../../../../Middlewares/Third_Party/LoRaWAN/Mac/region/RegionRU864.c **** 
 519:../../../../../../Middlewares/Third_Party/LoRaWAN/Mac/region/RegionRU864.c **** bool RegionRU864RxConfig( RxConfigParams_t* rxConfig, int8_t* datarate )
 520:../../../../../../Middlewares/Third_Party/LoRaWAN/Mac/region/RegionRU864.c **** {
 521:../../../../../../Middlewares/Third_Party/LoRaWAN/Mac/region/RegionRU864.c ****     RadioModems_t modem;
 522:../../../../../../Middlewares/Third_Party/LoRaWAN/Mac/region/RegionRU864.c ****     int8_t dr = rxConfig->Datarate;
 523:../../../../../../Middlewares/Third_Party/LoRaWAN/Mac/region/RegionRU864.c ****     uint8_t maxPayload = 0;
 524:../../../../../../Middlewares/Third_Party/LoRaWAN/Mac/region/RegionRU864.c ****     int8_t phyDr = 0;
 525:../../../../../../Middlewares/Third_Party/LoRaWAN/Mac/region/RegionRU864.c ****     uint32_t frequency = rxConfig->Frequency;
 526:../../../../../../Middlewares/Third_Party/LoRaWAN/Mac/region/RegionRU864.c **** 
 527:../../../../../../Middlewares/Third_Party/LoRaWAN/Mac/region/RegionRU864.c ****     if( Radio.GetStatus( ) != RF_IDLE )
ARM GAS  C:\Users\EBANO_~1\AppData\Local\Temp\ccazSBuk.s 			page 23


 528:../../../../../../Middlewares/Third_Party/LoRaWAN/Mac/region/RegionRU864.c ****     {
 529:../../../../../../Middlewares/Third_Party/LoRaWAN/Mac/region/RegionRU864.c ****         return false;
 530:../../../../../../Middlewares/Third_Party/LoRaWAN/Mac/region/RegionRU864.c ****     }
 531:../../../../../../Middlewares/Third_Party/LoRaWAN/Mac/region/RegionRU864.c **** 
 532:../../../../../../Middlewares/Third_Party/LoRaWAN/Mac/region/RegionRU864.c ****     if( rxConfig->RxSlot == RX_SLOT_WIN_1 )
 533:../../../../../../Middlewares/Third_Party/LoRaWAN/Mac/region/RegionRU864.c ****     {
 534:../../../../../../Middlewares/Third_Party/LoRaWAN/Mac/region/RegionRU864.c ****         // Apply window 1 frequency
 535:../../../../../../Middlewares/Third_Party/LoRaWAN/Mac/region/RegionRU864.c ****         frequency = NvmCtx.Channels[rxConfig->Channel].Frequency;
 536:../../../../../../Middlewares/Third_Party/LoRaWAN/Mac/region/RegionRU864.c ****         // Apply the alternative RX 1 window frequency, if it is available
 537:../../../../../../Middlewares/Third_Party/LoRaWAN/Mac/region/RegionRU864.c ****         if( NvmCtx.Channels[rxConfig->Channel].Rx1Frequency != 0 )
 538:../../../../../../Middlewares/Third_Party/LoRaWAN/Mac/region/RegionRU864.c ****         {
 539:../../../../../../Middlewares/Third_Party/LoRaWAN/Mac/region/RegionRU864.c ****             frequency = NvmCtx.Channels[rxConfig->Channel].Rx1Frequency;
 540:../../../../../../Middlewares/Third_Party/LoRaWAN/Mac/region/RegionRU864.c ****         }
 541:../../../../../../Middlewares/Third_Party/LoRaWAN/Mac/region/RegionRU864.c ****     }
 542:../../../../../../Middlewares/Third_Party/LoRaWAN/Mac/region/RegionRU864.c **** 
 543:../../../../../../Middlewares/Third_Party/LoRaWAN/Mac/region/RegionRU864.c ****     // Read the physical datarate from the datarates table
 544:../../../../../../Middlewares/Third_Party/LoRaWAN/Mac/region/RegionRU864.c ****     phyDr = DataratesRU864[dr];
 545:../../../../../../Middlewares/Third_Party/LoRaWAN/Mac/region/RegionRU864.c **** 
 546:../../../../../../Middlewares/Third_Party/LoRaWAN/Mac/region/RegionRU864.c ****     Radio.SetChannel( frequency );
 547:../../../../../../Middlewares/Third_Party/LoRaWAN/Mac/region/RegionRU864.c **** 
 548:../../../../../../Middlewares/Third_Party/LoRaWAN/Mac/region/RegionRU864.c ****     // Radio configuration
 549:../../../../../../Middlewares/Third_Party/LoRaWAN/Mac/region/RegionRU864.c ****     if( dr == DR_7 )
 550:../../../../../../Middlewares/Third_Party/LoRaWAN/Mac/region/RegionRU864.c ****     {
 551:../../../../../../Middlewares/Third_Party/LoRaWAN/Mac/region/RegionRU864.c ****         modem = MODEM_FSK;
 552:../../../../../../Middlewares/Third_Party/LoRaWAN/Mac/region/RegionRU864.c ****         Radio.SetRxConfig( modem, 50000, phyDr * 1000, 0, 83333, 5, rxConfig->WindowTimeout, false,
 553:../../../../../../Middlewares/Third_Party/LoRaWAN/Mac/region/RegionRU864.c ****     }
 554:../../../../../../Middlewares/Third_Party/LoRaWAN/Mac/region/RegionRU864.c ****     else
 555:../../../../../../Middlewares/Third_Party/LoRaWAN/Mac/region/RegionRU864.c ****     {
 556:../../../../../../Middlewares/Third_Party/LoRaWAN/Mac/region/RegionRU864.c ****         modem = MODEM_LORA;
 557:../../../../../../Middlewares/Third_Party/LoRaWAN/Mac/region/RegionRU864.c ****         Radio.SetRxConfig( modem, rxConfig->Bandwidth, phyDr, 1, 0, 8, rxConfig->WindowTimeout, fal
 558:../../../../../../Middlewares/Third_Party/LoRaWAN/Mac/region/RegionRU864.c ****     }
 559:../../../../../../Middlewares/Third_Party/LoRaWAN/Mac/region/RegionRU864.c **** 
 560:../../../../../../Middlewares/Third_Party/LoRaWAN/Mac/region/RegionRU864.c ****     if( rxConfig->RepeaterSupport == true )
 561:../../../../../../Middlewares/Third_Party/LoRaWAN/Mac/region/RegionRU864.c ****     {
 562:../../../../../../Middlewares/Third_Party/LoRaWAN/Mac/region/RegionRU864.c ****         maxPayload = MaxPayloadOfDatarateRepeaterRU864[dr];
 563:../../../../../../Middlewares/Third_Party/LoRaWAN/Mac/region/RegionRU864.c ****     }
 564:../../../../../../Middlewares/Third_Party/LoRaWAN/Mac/region/RegionRU864.c ****     else
 565:../../../../../../Middlewares/Third_Party/LoRaWAN/Mac/region/RegionRU864.c ****     {
 566:../../../../../../Middlewares/Third_Party/LoRaWAN/Mac/region/RegionRU864.c ****         maxPayload = MaxPayloadOfDatarateRU864[dr];
 567:../../../../../../Middlewares/Third_Party/LoRaWAN/Mac/region/RegionRU864.c ****     }
 568:../../../../../../Middlewares/Third_Party/LoRaWAN/Mac/region/RegionRU864.c **** 
 569:../../../../../../Middlewares/Third_Party/LoRaWAN/Mac/region/RegionRU864.c ****     Radio.SetMaxPayloadLength( modem, maxPayload + LORA_MAC_FRMPAYLOAD_OVERHEAD );
 570:../../../../../../Middlewares/Third_Party/LoRaWAN/Mac/region/RegionRU864.c ****     TVL1( PRINTF( "RX on freq %d Hz at DR %d\n\r", frequency, dr );)
 571:../../../../../../Middlewares/Third_Party/LoRaWAN/Mac/region/RegionRU864.c **** 
 572:../../../../../../Middlewares/Third_Party/LoRaWAN/Mac/region/RegionRU864.c ****     *datarate = (uint8_t) dr;
 573:../../../../../../Middlewares/Third_Party/LoRaWAN/Mac/region/RegionRU864.c ****     return true;
 574:../../../../../../Middlewares/Third_Party/LoRaWAN/Mac/region/RegionRU864.c **** }
 575:../../../../../../Middlewares/Third_Party/LoRaWAN/Mac/region/RegionRU864.c **** 
 576:../../../../../../Middlewares/Third_Party/LoRaWAN/Mac/region/RegionRU864.c **** bool RegionRU864TxConfig( TxConfigParams_t* txConfig, int8_t* txPower, TimerTime_t* txTimeOnAir )
 577:../../../../../../Middlewares/Third_Party/LoRaWAN/Mac/region/RegionRU864.c **** {
 578:../../../../../../Middlewares/Third_Party/LoRaWAN/Mac/region/RegionRU864.c ****     RadioModems_t modem;
 579:../../../../../../Middlewares/Third_Party/LoRaWAN/Mac/region/RegionRU864.c ****     int8_t phyDr = DataratesRU864[txConfig->Datarate];
 580:../../../../../../Middlewares/Third_Party/LoRaWAN/Mac/region/RegionRU864.c ****     int8_t txPowerLimited = LimitTxPower( txConfig->TxPower, NvmCtx.Bands[NvmCtx.Channels[txConfig-
 581:../../../../../../Middlewares/Third_Party/LoRaWAN/Mac/region/RegionRU864.c ****     uint32_t bandwidth = GetBandwidth( txConfig->Datarate );
 582:../../../../../../Middlewares/Third_Party/LoRaWAN/Mac/region/RegionRU864.c ****     int8_t phyTxPower = 0;
 583:../../../../../../Middlewares/Third_Party/LoRaWAN/Mac/region/RegionRU864.c **** 
 584:../../../../../../Middlewares/Third_Party/LoRaWAN/Mac/region/RegionRU864.c ****     // Calculate physical TX power
ARM GAS  C:\Users\EBANO_~1\AppData\Local\Temp\ccazSBuk.s 			page 24


 585:../../../../../../Middlewares/Third_Party/LoRaWAN/Mac/region/RegionRU864.c ****     phyTxPower = RegionCommonComputeTxPower( txPowerLimited, txConfig->MaxEirp, txConfig->AntennaGa
 586:../../../../../../Middlewares/Third_Party/LoRaWAN/Mac/region/RegionRU864.c **** 
 587:../../../../../../Middlewares/Third_Party/LoRaWAN/Mac/region/RegionRU864.c ****     // Setup the radio frequency
 588:../../../../../../Middlewares/Third_Party/LoRaWAN/Mac/region/RegionRU864.c ****     Radio.SetChannel( NvmCtx.Channels[txConfig->Channel].Frequency );
 589:../../../../../../Middlewares/Third_Party/LoRaWAN/Mac/region/RegionRU864.c **** 
 590:../../../../../../Middlewares/Third_Party/LoRaWAN/Mac/region/RegionRU864.c ****     if( txConfig->Datarate == DR_7 )
 591:../../../../../../Middlewares/Third_Party/LoRaWAN/Mac/region/RegionRU864.c ****     { // High Speed FSK channel
 592:../../../../../../Middlewares/Third_Party/LoRaWAN/Mac/region/RegionRU864.c ****         modem = MODEM_FSK;
 593:../../../../../../Middlewares/Third_Party/LoRaWAN/Mac/region/RegionRU864.c ****         Radio.SetTxConfig( modem, phyTxPower, 25000, bandwidth, phyDr * 1000, 0, 5, false, true, 0,
 594:../../../../../../Middlewares/Third_Party/LoRaWAN/Mac/region/RegionRU864.c ****     }
 595:../../../../../../Middlewares/Third_Party/LoRaWAN/Mac/region/RegionRU864.c ****     else
 596:../../../../../../Middlewares/Third_Party/LoRaWAN/Mac/region/RegionRU864.c ****     {
 597:../../../../../../Middlewares/Third_Party/LoRaWAN/Mac/region/RegionRU864.c ****         modem = MODEM_LORA;
 598:../../../../../../Middlewares/Third_Party/LoRaWAN/Mac/region/RegionRU864.c ****         Radio.SetTxConfig( modem, phyTxPower, 0, bandwidth, phyDr, 1, 8, false, true, 0, 0, false, 
 599:../../../../../../Middlewares/Third_Party/LoRaWAN/Mac/region/RegionRU864.c ****     }
 600:../../../../../../Middlewares/Third_Party/LoRaWAN/Mac/region/RegionRU864.c ****     TVL1( PRINTF( "TX on freq %d Hz at DR %d\n\r", NvmCtx.Channels[txConfig->Channel].Frequency, tx
 601:../../../../../../Middlewares/Third_Party/LoRaWAN/Mac/region/RegionRU864.c ****     // Setup maximum payload lenght of the radio driver
 602:../../../../../../Middlewares/Third_Party/LoRaWAN/Mac/region/RegionRU864.c ****     Radio.SetMaxPayloadLength( modem, txConfig->PktLen );
 603:../../../../../../Middlewares/Third_Party/LoRaWAN/Mac/region/RegionRU864.c ****     // Get the time-on-air of the next tx frame
 604:../../../../../../Middlewares/Third_Party/LoRaWAN/Mac/region/RegionRU864.c ****     *txTimeOnAir = Radio.TimeOnAir( modem, txConfig->PktLen );
 605:../../../../../../Middlewares/Third_Party/LoRaWAN/Mac/region/RegionRU864.c **** 
 606:../../../../../../Middlewares/Third_Party/LoRaWAN/Mac/region/RegionRU864.c ****     *txPower = txPowerLimited;
 607:../../../../../../Middlewares/Third_Party/LoRaWAN/Mac/region/RegionRU864.c ****     return true;
 608:../../../../../../Middlewares/Third_Party/LoRaWAN/Mac/region/RegionRU864.c **** }
 609:../../../../../../Middlewares/Third_Party/LoRaWAN/Mac/region/RegionRU864.c **** 
 610:../../../../../../Middlewares/Third_Party/LoRaWAN/Mac/region/RegionRU864.c **** uint8_t RegionRU864LinkAdrReq( LinkAdrReqParams_t* linkAdrReq, int8_t* drOut, int8_t* txPowOut, uin
 611:../../../../../../Middlewares/Third_Party/LoRaWAN/Mac/region/RegionRU864.c **** {
 612:../../../../../../Middlewares/Third_Party/LoRaWAN/Mac/region/RegionRU864.c ****     uint8_t status = 0x07;
 613:../../../../../../Middlewares/Third_Party/LoRaWAN/Mac/region/RegionRU864.c ****     RegionCommonLinkAdrParams_t linkAdrParams;
 614:../../../../../../Middlewares/Third_Party/LoRaWAN/Mac/region/RegionRU864.c ****     uint8_t nextIndex = 0;
 615:../../../../../../Middlewares/Third_Party/LoRaWAN/Mac/region/RegionRU864.c ****     uint8_t bytesProcessed = 0;
 616:../../../../../../Middlewares/Third_Party/LoRaWAN/Mac/region/RegionRU864.c ****     uint16_t chMask = 0;
 617:../../../../../../Middlewares/Third_Party/LoRaWAN/Mac/region/RegionRU864.c ****     GetPhyParams_t getPhy;
 618:../../../../../../Middlewares/Third_Party/LoRaWAN/Mac/region/RegionRU864.c ****     PhyParam_t phyParam;
 619:../../../../../../Middlewares/Third_Party/LoRaWAN/Mac/region/RegionRU864.c ****     RegionCommonLinkAdrReqVerifyParams_t linkAdrVerifyParams;
 620:../../../../../../Middlewares/Third_Party/LoRaWAN/Mac/region/RegionRU864.c **** 
 621:../../../../../../Middlewares/Third_Party/LoRaWAN/Mac/region/RegionRU864.c ****     while( bytesProcessed < linkAdrReq->PayloadSize )
 622:../../../../../../Middlewares/Third_Party/LoRaWAN/Mac/region/RegionRU864.c ****     {
 623:../../../../../../Middlewares/Third_Party/LoRaWAN/Mac/region/RegionRU864.c ****         // Get ADR request parameters
 624:../../../../../../Middlewares/Third_Party/LoRaWAN/Mac/region/RegionRU864.c ****         nextIndex = RegionCommonParseLinkAdrReq( &( linkAdrReq->Payload[bytesProcessed] ), &linkAdr
 625:../../../../../../Middlewares/Third_Party/LoRaWAN/Mac/region/RegionRU864.c **** 
 626:../../../../../../Middlewares/Third_Party/LoRaWAN/Mac/region/RegionRU864.c ****         if( nextIndex == 0 )
 627:../../../../../../Middlewares/Third_Party/LoRaWAN/Mac/region/RegionRU864.c ****             break; // break loop, since no more request has been found
 628:../../../../../../Middlewares/Third_Party/LoRaWAN/Mac/region/RegionRU864.c **** 
 629:../../../../../../Middlewares/Third_Party/LoRaWAN/Mac/region/RegionRU864.c ****         // Update bytes processed
 630:../../../../../../Middlewares/Third_Party/LoRaWAN/Mac/region/RegionRU864.c ****         bytesProcessed += nextIndex;
 631:../../../../../../Middlewares/Third_Party/LoRaWAN/Mac/region/RegionRU864.c **** 
 632:../../../../../../Middlewares/Third_Party/LoRaWAN/Mac/region/RegionRU864.c ****         // Revert status, as we only check the last ADR request for the channel mask KO
 633:../../../../../../Middlewares/Third_Party/LoRaWAN/Mac/region/RegionRU864.c ****         status = 0x07;
 634:../../../../../../Middlewares/Third_Party/LoRaWAN/Mac/region/RegionRU864.c **** 
 635:../../../../../../Middlewares/Third_Party/LoRaWAN/Mac/region/RegionRU864.c ****         // Setup temporary channels mask
 636:../../../../../../Middlewares/Third_Party/LoRaWAN/Mac/region/RegionRU864.c ****         chMask = linkAdrParams.ChMask;
 637:../../../../../../Middlewares/Third_Party/LoRaWAN/Mac/region/RegionRU864.c **** 
 638:../../../../../../Middlewares/Third_Party/LoRaWAN/Mac/region/RegionRU864.c ****         // Verify channels mask
 639:../../../../../../Middlewares/Third_Party/LoRaWAN/Mac/region/RegionRU864.c ****         if( ( linkAdrParams.ChMaskCtrl == 0 ) && ( chMask == 0 ) )
 640:../../../../../../Middlewares/Third_Party/LoRaWAN/Mac/region/RegionRU864.c ****         {
 641:../../../../../../Middlewares/Third_Party/LoRaWAN/Mac/region/RegionRU864.c ****             status &= 0xFE; // Channel mask KO
ARM GAS  C:\Users\EBANO_~1\AppData\Local\Temp\ccazSBuk.s 			page 25


 642:../../../../../../Middlewares/Third_Party/LoRaWAN/Mac/region/RegionRU864.c ****         }
 643:../../../../../../Middlewares/Third_Party/LoRaWAN/Mac/region/RegionRU864.c ****         else if( ( ( linkAdrParams.ChMaskCtrl >= 1 ) && ( linkAdrParams.ChMaskCtrl <= 5 )) ||
 644:../../../../../../Middlewares/Third_Party/LoRaWAN/Mac/region/RegionRU864.c ****                 ( linkAdrParams.ChMaskCtrl >= 7 ) )
 645:../../../../../../Middlewares/Third_Party/LoRaWAN/Mac/region/RegionRU864.c ****         {
 646:../../../../../../Middlewares/Third_Party/LoRaWAN/Mac/region/RegionRU864.c ****             // RFU
 647:../../../../../../Middlewares/Third_Party/LoRaWAN/Mac/region/RegionRU864.c ****             status &= 0xFE; // Channel mask KO
 648:../../../../../../Middlewares/Third_Party/LoRaWAN/Mac/region/RegionRU864.c ****         }
 649:../../../../../../Middlewares/Third_Party/LoRaWAN/Mac/region/RegionRU864.c ****         else
 650:../../../../../../Middlewares/Third_Party/LoRaWAN/Mac/region/RegionRU864.c ****         {
 651:../../../../../../Middlewares/Third_Party/LoRaWAN/Mac/region/RegionRU864.c ****             for( uint8_t i = 0; i < RU864_MAX_NB_CHANNELS; i++ )
 652:../../../../../../Middlewares/Third_Party/LoRaWAN/Mac/region/RegionRU864.c ****             {
 653:../../../../../../Middlewares/Third_Party/LoRaWAN/Mac/region/RegionRU864.c ****                 if( linkAdrParams.ChMaskCtrl == 6 )
 654:../../../../../../Middlewares/Third_Party/LoRaWAN/Mac/region/RegionRU864.c ****                 {
 655:../../../../../../Middlewares/Third_Party/LoRaWAN/Mac/region/RegionRU864.c ****                     if( NvmCtx.Channels[i].Frequency != 0 )
 656:../../../../../../Middlewares/Third_Party/LoRaWAN/Mac/region/RegionRU864.c ****                     {
 657:../../../../../../Middlewares/Third_Party/LoRaWAN/Mac/region/RegionRU864.c ****                         chMask |= 1 << i;
 658:../../../../../../Middlewares/Third_Party/LoRaWAN/Mac/region/RegionRU864.c ****                     }
 659:../../../../../../Middlewares/Third_Party/LoRaWAN/Mac/region/RegionRU864.c ****                 }
 660:../../../../../../Middlewares/Third_Party/LoRaWAN/Mac/region/RegionRU864.c ****                 else
 661:../../../../../../Middlewares/Third_Party/LoRaWAN/Mac/region/RegionRU864.c ****                 {
 662:../../../../../../Middlewares/Third_Party/LoRaWAN/Mac/region/RegionRU864.c ****                     if( ( ( chMask & ( 1 << i ) ) != 0 ) &&
 663:../../../../../../Middlewares/Third_Party/LoRaWAN/Mac/region/RegionRU864.c ****                         ( NvmCtx.Channels[i].Frequency == 0 ) )
 664:../../../../../../Middlewares/Third_Party/LoRaWAN/Mac/region/RegionRU864.c ****                     {// Trying to enable an undefined channel
 665:../../../../../../Middlewares/Third_Party/LoRaWAN/Mac/region/RegionRU864.c ****                         status &= 0xFE; // Channel mask KO
 666:../../../../../../Middlewares/Third_Party/LoRaWAN/Mac/region/RegionRU864.c ****                     }
 667:../../../../../../Middlewares/Third_Party/LoRaWAN/Mac/region/RegionRU864.c ****                 }
 668:../../../../../../Middlewares/Third_Party/LoRaWAN/Mac/region/RegionRU864.c ****             }
 669:../../../../../../Middlewares/Third_Party/LoRaWAN/Mac/region/RegionRU864.c ****         }
 670:../../../../../../Middlewares/Third_Party/LoRaWAN/Mac/region/RegionRU864.c ****     }
 671:../../../../../../Middlewares/Third_Party/LoRaWAN/Mac/region/RegionRU864.c **** 
 672:../../../../../../Middlewares/Third_Party/LoRaWAN/Mac/region/RegionRU864.c ****     // Get the minimum possible datarate
 673:../../../../../../Middlewares/Third_Party/LoRaWAN/Mac/region/RegionRU864.c ****     getPhy.Attribute = PHY_MIN_TX_DR;
 674:../../../../../../Middlewares/Third_Party/LoRaWAN/Mac/region/RegionRU864.c ****     getPhy.UplinkDwellTime = linkAdrReq->UplinkDwellTime;
 675:../../../../../../Middlewares/Third_Party/LoRaWAN/Mac/region/RegionRU864.c ****     phyParam = RegionRU864GetPhyParam( &getPhy );
 676:../../../../../../Middlewares/Third_Party/LoRaWAN/Mac/region/RegionRU864.c **** 
 677:../../../../../../Middlewares/Third_Party/LoRaWAN/Mac/region/RegionRU864.c ****     linkAdrVerifyParams.Status = status;
 678:../../../../../../Middlewares/Third_Party/LoRaWAN/Mac/region/RegionRU864.c ****     linkAdrVerifyParams.AdrEnabled = linkAdrReq->AdrEnabled;
 679:../../../../../../Middlewares/Third_Party/LoRaWAN/Mac/region/RegionRU864.c ****     linkAdrVerifyParams.Datarate = linkAdrParams.Datarate;
 680:../../../../../../Middlewares/Third_Party/LoRaWAN/Mac/region/RegionRU864.c ****     linkAdrVerifyParams.TxPower = linkAdrParams.TxPower;
 681:../../../../../../Middlewares/Third_Party/LoRaWAN/Mac/region/RegionRU864.c ****     linkAdrVerifyParams.NbRep = linkAdrParams.NbRep;
 682:../../../../../../Middlewares/Third_Party/LoRaWAN/Mac/region/RegionRU864.c ****     linkAdrVerifyParams.CurrentDatarate = linkAdrReq->CurrentDatarate;
 683:../../../../../../Middlewares/Third_Party/LoRaWAN/Mac/region/RegionRU864.c ****     linkAdrVerifyParams.CurrentTxPower = linkAdrReq->CurrentTxPower;
 684:../../../../../../Middlewares/Third_Party/LoRaWAN/Mac/region/RegionRU864.c ****     linkAdrVerifyParams.CurrentNbRep = linkAdrReq->CurrentNbRep;
 685:../../../../../../Middlewares/Third_Party/LoRaWAN/Mac/region/RegionRU864.c ****     linkAdrVerifyParams.NbChannels = RU864_MAX_NB_CHANNELS;
 686:../../../../../../Middlewares/Third_Party/LoRaWAN/Mac/region/RegionRU864.c ****     linkAdrVerifyParams.ChannelsMask = &chMask;
 687:../../../../../../Middlewares/Third_Party/LoRaWAN/Mac/region/RegionRU864.c ****     linkAdrVerifyParams.MinDatarate = ( int8_t )phyParam.Value;
 688:../../../../../../Middlewares/Third_Party/LoRaWAN/Mac/region/RegionRU864.c ****     linkAdrVerifyParams.MaxDatarate = RU864_TX_MAX_DATARATE;
 689:../../../../../../Middlewares/Third_Party/LoRaWAN/Mac/region/RegionRU864.c ****     linkAdrVerifyParams.Channels = NvmCtx.Channels;
 690:../../../../../../Middlewares/Third_Party/LoRaWAN/Mac/region/RegionRU864.c ****     linkAdrVerifyParams.MinTxPower = RU864_MIN_TX_POWER;
 691:../../../../../../Middlewares/Third_Party/LoRaWAN/Mac/region/RegionRU864.c ****     linkAdrVerifyParams.MaxTxPower = RU864_MAX_TX_POWER;
 692:../../../../../../Middlewares/Third_Party/LoRaWAN/Mac/region/RegionRU864.c ****     linkAdrVerifyParams.Version = linkAdrReq->Version;
 693:../../../../../../Middlewares/Third_Party/LoRaWAN/Mac/region/RegionRU864.c **** 
 694:../../../../../../Middlewares/Third_Party/LoRaWAN/Mac/region/RegionRU864.c ****     // Verify the parameters and update, if necessary
 695:../../../../../../Middlewares/Third_Party/LoRaWAN/Mac/region/RegionRU864.c ****     status = RegionCommonLinkAdrReqVerifyParams( &linkAdrVerifyParams, &linkAdrParams.Datarate, &li
 696:../../../../../../Middlewares/Third_Party/LoRaWAN/Mac/region/RegionRU864.c **** 
 697:../../../../../../Middlewares/Third_Party/LoRaWAN/Mac/region/RegionRU864.c ****     // Update channelsMask if everything is correct
 698:../../../../../../Middlewares/Third_Party/LoRaWAN/Mac/region/RegionRU864.c ****     if( status == 0x07 )
ARM GAS  C:\Users\EBANO_~1\AppData\Local\Temp\ccazSBuk.s 			page 26


 699:../../../../../../Middlewares/Third_Party/LoRaWAN/Mac/region/RegionRU864.c ****     {
 700:../../../../../../Middlewares/Third_Party/LoRaWAN/Mac/region/RegionRU864.c ****         // Set the channels mask to a default value
 701:../../../../../../Middlewares/Third_Party/LoRaWAN/Mac/region/RegionRU864.c ****         memset1( ( uint8_t* ) NvmCtx.ChannelsMask, 0, sizeof( NvmCtx.ChannelsMask ) );
 702:../../../../../../Middlewares/Third_Party/LoRaWAN/Mac/region/RegionRU864.c ****         // Update the channels mask
 703:../../../../../../Middlewares/Third_Party/LoRaWAN/Mac/region/RegionRU864.c ****         NvmCtx.ChannelsMask[0] = chMask;
 704:../../../../../../Middlewares/Third_Party/LoRaWAN/Mac/region/RegionRU864.c ****     }
 705:../../../../../../Middlewares/Third_Party/LoRaWAN/Mac/region/RegionRU864.c **** 
 706:../../../../../../Middlewares/Third_Party/LoRaWAN/Mac/region/RegionRU864.c ****     // Update status variables
 707:../../../../../../Middlewares/Third_Party/LoRaWAN/Mac/region/RegionRU864.c ****     *drOut = linkAdrParams.Datarate;
 708:../../../../../../Middlewares/Third_Party/LoRaWAN/Mac/region/RegionRU864.c ****     *txPowOut = linkAdrParams.TxPower;
 709:../../../../../../Middlewares/Third_Party/LoRaWAN/Mac/region/RegionRU864.c ****     *nbRepOut = linkAdrParams.NbRep;
 710:../../../../../../Middlewares/Third_Party/LoRaWAN/Mac/region/RegionRU864.c ****     *nbBytesParsed = bytesProcessed;
 711:../../../../../../Middlewares/Third_Party/LoRaWAN/Mac/region/RegionRU864.c **** 
 712:../../../../../../Middlewares/Third_Party/LoRaWAN/Mac/region/RegionRU864.c ****     return status;
 713:../../../../../../Middlewares/Third_Party/LoRaWAN/Mac/region/RegionRU864.c **** }
 714:../../../../../../Middlewares/Third_Party/LoRaWAN/Mac/region/RegionRU864.c **** 
 715:../../../../../../Middlewares/Third_Party/LoRaWAN/Mac/region/RegionRU864.c **** uint8_t RegionRU864RxParamSetupReq( RxParamSetupReqParams_t* rxParamSetupReq )
 716:../../../../../../Middlewares/Third_Party/LoRaWAN/Mac/region/RegionRU864.c **** {
 717:../../../../../../Middlewares/Third_Party/LoRaWAN/Mac/region/RegionRU864.c ****     uint8_t status = 0x07;
 718:../../../../../../Middlewares/Third_Party/LoRaWAN/Mac/region/RegionRU864.c **** 
 719:../../../../../../Middlewares/Third_Party/LoRaWAN/Mac/region/RegionRU864.c ****     // Verify radio frequency
 720:../../../../../../Middlewares/Third_Party/LoRaWAN/Mac/region/RegionRU864.c ****     if( VerifyRfFreq( rxParamSetupReq->Frequency ) == false )
 721:../../../../../../Middlewares/Third_Party/LoRaWAN/Mac/region/RegionRU864.c ****     {
 722:../../../../../../Middlewares/Third_Party/LoRaWAN/Mac/region/RegionRU864.c ****         status &= 0xFE; // Channel frequency KO
 723:../../../../../../Middlewares/Third_Party/LoRaWAN/Mac/region/RegionRU864.c ****     }
 724:../../../../../../Middlewares/Third_Party/LoRaWAN/Mac/region/RegionRU864.c **** 
 725:../../../../../../Middlewares/Third_Party/LoRaWAN/Mac/region/RegionRU864.c ****     // Verify datarate
 726:../../../../../../Middlewares/Third_Party/LoRaWAN/Mac/region/RegionRU864.c ****     if( RegionCommonValueInRange( rxParamSetupReq->Datarate, RU864_RX_MIN_DATARATE, RU864_RX_MAX_DA
 727:../../../../../../Middlewares/Third_Party/LoRaWAN/Mac/region/RegionRU864.c ****     {
 728:../../../../../../Middlewares/Third_Party/LoRaWAN/Mac/region/RegionRU864.c ****         status &= 0xFD; // Datarate KO
 729:../../../../../../Middlewares/Third_Party/LoRaWAN/Mac/region/RegionRU864.c ****     }
 730:../../../../../../Middlewares/Third_Party/LoRaWAN/Mac/region/RegionRU864.c **** 
 731:../../../../../../Middlewares/Third_Party/LoRaWAN/Mac/region/RegionRU864.c ****     // Verify datarate offset
 732:../../../../../../Middlewares/Third_Party/LoRaWAN/Mac/region/RegionRU864.c ****     if( RegionCommonValueInRange( rxParamSetupReq->DrOffset, RU864_MIN_RX1_DR_OFFSET, RU864_MAX_RX1
 733:../../../../../../Middlewares/Third_Party/LoRaWAN/Mac/region/RegionRU864.c ****     {
 734:../../../../../../Middlewares/Third_Party/LoRaWAN/Mac/region/RegionRU864.c ****         status &= 0xFB; // Rx1DrOffset range KO
 735:../../../../../../Middlewares/Third_Party/LoRaWAN/Mac/region/RegionRU864.c ****     }
 736:../../../../../../Middlewares/Third_Party/LoRaWAN/Mac/region/RegionRU864.c **** 
 737:../../../../../../Middlewares/Third_Party/LoRaWAN/Mac/region/RegionRU864.c ****     return status;
 738:../../../../../../Middlewares/Third_Party/LoRaWAN/Mac/region/RegionRU864.c **** }
 739:../../../../../../Middlewares/Third_Party/LoRaWAN/Mac/region/RegionRU864.c **** 
 740:../../../../../../Middlewares/Third_Party/LoRaWAN/Mac/region/RegionRU864.c **** uint8_t RegionRU864NewChannelReq( NewChannelReqParams_t* newChannelReq )
 741:../../../../../../Middlewares/Third_Party/LoRaWAN/Mac/region/RegionRU864.c **** {
 742:../../../../../../Middlewares/Third_Party/LoRaWAN/Mac/region/RegionRU864.c ****     uint8_t status = 0x03;
 743:../../../../../../Middlewares/Third_Party/LoRaWAN/Mac/region/RegionRU864.c ****     ChannelAddParams_t channelAdd;
 744:../../../../../../Middlewares/Third_Party/LoRaWAN/Mac/region/RegionRU864.c ****     ChannelRemoveParams_t channelRemove;
 745:../../../../../../Middlewares/Third_Party/LoRaWAN/Mac/region/RegionRU864.c **** 
 746:../../../../../../Middlewares/Third_Party/LoRaWAN/Mac/region/RegionRU864.c ****     if( newChannelReq->NewChannel->Frequency == 0 )
 747:../../../../../../Middlewares/Third_Party/LoRaWAN/Mac/region/RegionRU864.c ****     {
 748:../../../../../../Middlewares/Third_Party/LoRaWAN/Mac/region/RegionRU864.c ****         channelRemove.ChannelId = newChannelReq->ChannelId;
 749:../../../../../../Middlewares/Third_Party/LoRaWAN/Mac/region/RegionRU864.c **** 
 750:../../../../../../Middlewares/Third_Party/LoRaWAN/Mac/region/RegionRU864.c ****         // Remove
 751:../../../../../../Middlewares/Third_Party/LoRaWAN/Mac/region/RegionRU864.c ****         if( RegionRU864ChannelsRemove( &channelRemove ) == false )
 752:../../../../../../Middlewares/Third_Party/LoRaWAN/Mac/region/RegionRU864.c ****         {
 753:../../../../../../Middlewares/Third_Party/LoRaWAN/Mac/region/RegionRU864.c ****             status &= 0xFC;
 754:../../../../../../Middlewares/Third_Party/LoRaWAN/Mac/region/RegionRU864.c ****         }
 755:../../../../../../Middlewares/Third_Party/LoRaWAN/Mac/region/RegionRU864.c ****     }
ARM GAS  C:\Users\EBANO_~1\AppData\Local\Temp\ccazSBuk.s 			page 27


 756:../../../../../../Middlewares/Third_Party/LoRaWAN/Mac/region/RegionRU864.c ****     else
 757:../../../../../../Middlewares/Third_Party/LoRaWAN/Mac/region/RegionRU864.c ****     {
 758:../../../../../../Middlewares/Third_Party/LoRaWAN/Mac/region/RegionRU864.c ****         channelAdd.NewChannel = newChannelReq->NewChannel;
 759:../../../../../../Middlewares/Third_Party/LoRaWAN/Mac/region/RegionRU864.c ****         channelAdd.ChannelId = newChannelReq->ChannelId;
 760:../../../../../../Middlewares/Third_Party/LoRaWAN/Mac/region/RegionRU864.c **** 
 761:../../../../../../Middlewares/Third_Party/LoRaWAN/Mac/region/RegionRU864.c ****         switch( RegionRU864ChannelAdd( &channelAdd ) )
 762:../../../../../../Middlewares/Third_Party/LoRaWAN/Mac/region/RegionRU864.c ****         {
 763:../../../../../../Middlewares/Third_Party/LoRaWAN/Mac/region/RegionRU864.c ****             case LORAMAC_STATUS_OK:
 764:../../../../../../Middlewares/Third_Party/LoRaWAN/Mac/region/RegionRU864.c ****             {
 765:../../../../../../Middlewares/Third_Party/LoRaWAN/Mac/region/RegionRU864.c ****                 break;
 766:../../../../../../Middlewares/Third_Party/LoRaWAN/Mac/region/RegionRU864.c ****             }
 767:../../../../../../Middlewares/Third_Party/LoRaWAN/Mac/region/RegionRU864.c ****             case LORAMAC_STATUS_FREQUENCY_INVALID:
 768:../../../../../../Middlewares/Third_Party/LoRaWAN/Mac/region/RegionRU864.c ****             {
 769:../../../../../../Middlewares/Third_Party/LoRaWAN/Mac/region/RegionRU864.c ****                 status &= 0xFE;
 770:../../../../../../Middlewares/Third_Party/LoRaWAN/Mac/region/RegionRU864.c ****                 break;
 771:../../../../../../Middlewares/Third_Party/LoRaWAN/Mac/region/RegionRU864.c ****             }
 772:../../../../../../Middlewares/Third_Party/LoRaWAN/Mac/region/RegionRU864.c ****             case LORAMAC_STATUS_DATARATE_INVALID:
 773:../../../../../../Middlewares/Third_Party/LoRaWAN/Mac/region/RegionRU864.c ****             {
 774:../../../../../../Middlewares/Third_Party/LoRaWAN/Mac/region/RegionRU864.c ****                 status &= 0xFD;
 775:../../../../../../Middlewares/Third_Party/LoRaWAN/Mac/region/RegionRU864.c ****                 break;
 776:../../../../../../Middlewares/Third_Party/LoRaWAN/Mac/region/RegionRU864.c ****             }
 777:../../../../../../Middlewares/Third_Party/LoRaWAN/Mac/region/RegionRU864.c ****             case LORAMAC_STATUS_FREQ_AND_DR_INVALID:
 778:../../../../../../Middlewares/Third_Party/LoRaWAN/Mac/region/RegionRU864.c ****             {
 779:../../../../../../Middlewares/Third_Party/LoRaWAN/Mac/region/RegionRU864.c ****                 status &= 0xFC;
 780:../../../../../../Middlewares/Third_Party/LoRaWAN/Mac/region/RegionRU864.c ****                 break;
 781:../../../../../../Middlewares/Third_Party/LoRaWAN/Mac/region/RegionRU864.c ****             }
 782:../../../../../../Middlewares/Third_Party/LoRaWAN/Mac/region/RegionRU864.c ****             default:
 783:../../../../../../Middlewares/Third_Party/LoRaWAN/Mac/region/RegionRU864.c ****             {
 784:../../../../../../Middlewares/Third_Party/LoRaWAN/Mac/region/RegionRU864.c ****                 status &= 0xFC;
 785:../../../../../../Middlewares/Third_Party/LoRaWAN/Mac/region/RegionRU864.c ****                 break;
 786:../../../../../../Middlewares/Third_Party/LoRaWAN/Mac/region/RegionRU864.c ****             }
 787:../../../../../../Middlewares/Third_Party/LoRaWAN/Mac/region/RegionRU864.c ****         }
 788:../../../../../../Middlewares/Third_Party/LoRaWAN/Mac/region/RegionRU864.c ****     }
 789:../../../../../../Middlewares/Third_Party/LoRaWAN/Mac/region/RegionRU864.c **** 
 790:../../../../../../Middlewares/Third_Party/LoRaWAN/Mac/region/RegionRU864.c ****     return status;
 791:../../../../../../Middlewares/Third_Party/LoRaWAN/Mac/region/RegionRU864.c **** }
 792:../../../../../../Middlewares/Third_Party/LoRaWAN/Mac/region/RegionRU864.c **** 
 793:../../../../../../Middlewares/Third_Party/LoRaWAN/Mac/region/RegionRU864.c **** int8_t RegionRU864TxParamSetupReq( TxParamSetupReqParams_t* txParamSetupReq )
 794:../../../../../../Middlewares/Third_Party/LoRaWAN/Mac/region/RegionRU864.c **** {
 795:../../../../../../Middlewares/Third_Party/LoRaWAN/Mac/region/RegionRU864.c ****     return -1;
 796:../../../../../../Middlewares/Third_Party/LoRaWAN/Mac/region/RegionRU864.c **** }
 797:../../../../../../Middlewares/Third_Party/LoRaWAN/Mac/region/RegionRU864.c **** 
 798:../../../../../../Middlewares/Third_Party/LoRaWAN/Mac/region/RegionRU864.c **** uint8_t RegionRU864DlChannelReq( DlChannelReqParams_t* dlChannelReq )
 799:../../../../../../Middlewares/Third_Party/LoRaWAN/Mac/region/RegionRU864.c **** {
 800:../../../../../../Middlewares/Third_Party/LoRaWAN/Mac/region/RegionRU864.c ****     uint8_t status = 0x03;
 801:../../../../../../Middlewares/Third_Party/LoRaWAN/Mac/region/RegionRU864.c **** 
 802:../../../../../../Middlewares/Third_Party/LoRaWAN/Mac/region/RegionRU864.c ****     // Verify if the frequency is supported
 803:../../../../../../Middlewares/Third_Party/LoRaWAN/Mac/region/RegionRU864.c ****     if( VerifyRfFreq( dlChannelReq->Rx1Frequency ) == false )
 804:../../../../../../Middlewares/Third_Party/LoRaWAN/Mac/region/RegionRU864.c ****     {
 805:../../../../../../Middlewares/Third_Party/LoRaWAN/Mac/region/RegionRU864.c ****         status &= 0xFE;
 806:../../../../../../Middlewares/Third_Party/LoRaWAN/Mac/region/RegionRU864.c ****     }
 807:../../../../../../Middlewares/Third_Party/LoRaWAN/Mac/region/RegionRU864.c **** 
 808:../../../../../../Middlewares/Third_Party/LoRaWAN/Mac/region/RegionRU864.c ****     // Verify if an uplink frequency exists
 809:../../../../../../Middlewares/Third_Party/LoRaWAN/Mac/region/RegionRU864.c ****     if( NvmCtx.Channels[dlChannelReq->ChannelId].Frequency == 0 )
 810:../../../../../../Middlewares/Third_Party/LoRaWAN/Mac/region/RegionRU864.c ****     {
 811:../../../../../../Middlewares/Third_Party/LoRaWAN/Mac/region/RegionRU864.c ****         status &= 0xFD;
 812:../../../../../../Middlewares/Third_Party/LoRaWAN/Mac/region/RegionRU864.c ****     }
ARM GAS  C:\Users\EBANO_~1\AppData\Local\Temp\ccazSBuk.s 			page 28


 813:../../../../../../Middlewares/Third_Party/LoRaWAN/Mac/region/RegionRU864.c **** 
 814:../../../../../../Middlewares/Third_Party/LoRaWAN/Mac/region/RegionRU864.c ****     // Apply Rx1 frequency, if the status is OK
 815:../../../../../../Middlewares/Third_Party/LoRaWAN/Mac/region/RegionRU864.c ****     if( status == 0x03 )
 816:../../../../../../Middlewares/Third_Party/LoRaWAN/Mac/region/RegionRU864.c ****     {
 817:../../../../../../Middlewares/Third_Party/LoRaWAN/Mac/region/RegionRU864.c ****         NvmCtx.Channels[dlChannelReq->ChannelId].Rx1Frequency = dlChannelReq->Rx1Frequency;
 818:../../../../../../Middlewares/Third_Party/LoRaWAN/Mac/region/RegionRU864.c ****     }
 819:../../../../../../Middlewares/Third_Party/LoRaWAN/Mac/region/RegionRU864.c **** 
 820:../../../../../../Middlewares/Third_Party/LoRaWAN/Mac/region/RegionRU864.c ****     return status;
 821:../../../../../../Middlewares/Third_Party/LoRaWAN/Mac/region/RegionRU864.c **** }
 822:../../../../../../Middlewares/Third_Party/LoRaWAN/Mac/region/RegionRU864.c **** 
 823:../../../../../../Middlewares/Third_Party/LoRaWAN/Mac/region/RegionRU864.c **** int8_t RegionRU864AlternateDr( int8_t currentDr, AlternateDrType_t type )
 824:../../../../../../Middlewares/Third_Party/LoRaWAN/Mac/region/RegionRU864.c **** {
 825:../../../../../../Middlewares/Third_Party/LoRaWAN/Mac/region/RegionRU864.c ****     return currentDr;
 826:../../../../../../Middlewares/Third_Party/LoRaWAN/Mac/region/RegionRU864.c **** }
 827:../../../../../../Middlewares/Third_Party/LoRaWAN/Mac/region/RegionRU864.c **** 
 828:../../../../../../Middlewares/Third_Party/LoRaWAN/Mac/region/RegionRU864.c **** void RegionRU864CalcBackOff( CalcBackOffParams_t* calcBackOff )
 829:../../../../../../Middlewares/Third_Party/LoRaWAN/Mac/region/RegionRU864.c **** {
 830:../../../../../../Middlewares/Third_Party/LoRaWAN/Mac/region/RegionRU864.c ****     RegionCommonCalcBackOffParams_t calcBackOffParams;
 831:../../../../../../Middlewares/Third_Party/LoRaWAN/Mac/region/RegionRU864.c **** 
 832:../../../../../../Middlewares/Third_Party/LoRaWAN/Mac/region/RegionRU864.c ****     calcBackOffParams.Channels = NvmCtx.Channels;
 833:../../../../../../Middlewares/Third_Party/LoRaWAN/Mac/region/RegionRU864.c ****     calcBackOffParams.Bands = NvmCtx.Bands;
 834:../../../../../../Middlewares/Third_Party/LoRaWAN/Mac/region/RegionRU864.c ****     calcBackOffParams.LastTxIsJoinRequest = calcBackOff->LastTxIsJoinRequest;
 835:../../../../../../Middlewares/Third_Party/LoRaWAN/Mac/region/RegionRU864.c ****     calcBackOffParams.Joined = calcBackOff->Joined;
 836:../../../../../../Middlewares/Third_Party/LoRaWAN/Mac/region/RegionRU864.c ****     calcBackOffParams.DutyCycleEnabled = calcBackOff->DutyCycleEnabled;
 837:../../../../../../Middlewares/Third_Party/LoRaWAN/Mac/region/RegionRU864.c ****     calcBackOffParams.Channel = calcBackOff->Channel;
 838:../../../../../../Middlewares/Third_Party/LoRaWAN/Mac/region/RegionRU864.c ****     calcBackOffParams.ElapsedTime = calcBackOff->ElapsedTime;
 839:../../../../../../Middlewares/Third_Party/LoRaWAN/Mac/region/RegionRU864.c ****     calcBackOffParams.TxTimeOnAir = calcBackOff->TxTimeOnAir;
 840:../../../../../../Middlewares/Third_Party/LoRaWAN/Mac/region/RegionRU864.c **** 
 841:../../../../../../Middlewares/Third_Party/LoRaWAN/Mac/region/RegionRU864.c ****     RegionCommonCalcBackOff( &calcBackOffParams );
 842:../../../../../../Middlewares/Third_Party/LoRaWAN/Mac/region/RegionRU864.c **** }
 843:../../../../../../Middlewares/Third_Party/LoRaWAN/Mac/region/RegionRU864.c **** 
 844:../../../../../../Middlewares/Third_Party/LoRaWAN/Mac/region/RegionRU864.c **** LoRaMacStatus_t RegionRU864NextChannel( NextChanParams_t* nextChanParams, uint8_t* channel, TimerTi
 845:../../../../../../Middlewares/Third_Party/LoRaWAN/Mac/region/RegionRU864.c **** {
 846:../../../../../../Middlewares/Third_Party/LoRaWAN/Mac/region/RegionRU864.c ****     uint8_t nbEnabledChannels = 0;
 847:../../../../../../Middlewares/Third_Party/LoRaWAN/Mac/region/RegionRU864.c ****     uint8_t delayTx = 0;
 848:../../../../../../Middlewares/Third_Party/LoRaWAN/Mac/region/RegionRU864.c ****     uint8_t enabledChannels[RU864_MAX_NB_CHANNELS] = { 0 };
 849:../../../../../../Middlewares/Third_Party/LoRaWAN/Mac/region/RegionRU864.c ****     TimerTime_t nextTxDelay = 0;
 850:../../../../../../Middlewares/Third_Party/LoRaWAN/Mac/region/RegionRU864.c **** 
 851:../../../../../../Middlewares/Third_Party/LoRaWAN/Mac/region/RegionRU864.c ****     if( RegionCommonCountChannels( NvmCtx.ChannelsMask, 0, 1 ) == 0 )
 852:../../../../../../Middlewares/Third_Party/LoRaWAN/Mac/region/RegionRU864.c ****     { // Reactivate default channels
 853:../../../../../../Middlewares/Third_Party/LoRaWAN/Mac/region/RegionRU864.c ****         NvmCtx.ChannelsMask[0] |= LC( 1 ) + LC( 2 );
 854:../../../../../../Middlewares/Third_Party/LoRaWAN/Mac/region/RegionRU864.c ****     }
 855:../../../../../../Middlewares/Third_Party/LoRaWAN/Mac/region/RegionRU864.c **** 
 856:../../../../../../Middlewares/Third_Party/LoRaWAN/Mac/region/RegionRU864.c ****     if( nextChanParams->AggrTimeOff <= TimerGetElapsedTime( nextChanParams->LastAggrTx ) )
 857:../../../../../../Middlewares/Third_Party/LoRaWAN/Mac/region/RegionRU864.c ****     {
 858:../../../../../../Middlewares/Third_Party/LoRaWAN/Mac/region/RegionRU864.c ****         // Reset Aggregated time off
 859:../../../../../../Middlewares/Third_Party/LoRaWAN/Mac/region/RegionRU864.c ****         *aggregatedTimeOff = 0;
 860:../../../../../../Middlewares/Third_Party/LoRaWAN/Mac/region/RegionRU864.c **** 
 861:../../../../../../Middlewares/Third_Party/LoRaWAN/Mac/region/RegionRU864.c ****         // Update bands Time OFF
 862:../../../../../../Middlewares/Third_Party/LoRaWAN/Mac/region/RegionRU864.c ****         nextTxDelay = RegionCommonUpdateBandTimeOff( nextChanParams->Joined, nextChanParams->DutyCy
 863:../../../../../../Middlewares/Third_Party/LoRaWAN/Mac/region/RegionRU864.c **** 
 864:../../../../../../Middlewares/Third_Party/LoRaWAN/Mac/region/RegionRU864.c ****         // Search how many channels are enabled
 865:../../../../../../Middlewares/Third_Party/LoRaWAN/Mac/region/RegionRU864.c ****         nbEnabledChannels = CountNbOfEnabledChannels( nextChanParams->Joined, nextChanParams->Datar
 866:../../../../../../Middlewares/Third_Party/LoRaWAN/Mac/region/RegionRU864.c ****                                                       NvmCtx.ChannelsMask, NvmCtx.Channels,
 867:../../../../../../Middlewares/Third_Party/LoRaWAN/Mac/region/RegionRU864.c ****                                                       NvmCtx.Bands, enabledChannels, &delayTx );
 868:../../../../../../Middlewares/Third_Party/LoRaWAN/Mac/region/RegionRU864.c ****     }
 869:../../../../../../Middlewares/Third_Party/LoRaWAN/Mac/region/RegionRU864.c ****     else
ARM GAS  C:\Users\EBANO_~1\AppData\Local\Temp\ccazSBuk.s 			page 29


 870:../../../../../../Middlewares/Third_Party/LoRaWAN/Mac/region/RegionRU864.c ****     {
 871:../../../../../../Middlewares/Third_Party/LoRaWAN/Mac/region/RegionRU864.c ****         delayTx++;
 872:../../../../../../Middlewares/Third_Party/LoRaWAN/Mac/region/RegionRU864.c ****         nextTxDelay = nextChanParams->AggrTimeOff - TimerGetElapsedTime( nextChanParams->LastAggrTx
 873:../../../../../../Middlewares/Third_Party/LoRaWAN/Mac/region/RegionRU864.c ****     }
 874:../../../../../../Middlewares/Third_Party/LoRaWAN/Mac/region/RegionRU864.c **** 
 875:../../../../../../Middlewares/Third_Party/LoRaWAN/Mac/region/RegionRU864.c ****     if( nbEnabledChannels > 0 )
 876:../../../../../../Middlewares/Third_Party/LoRaWAN/Mac/region/RegionRU864.c ****     {
 877:../../../../../../Middlewares/Third_Party/LoRaWAN/Mac/region/RegionRU864.c ****         // We found a valid channel
 878:../../../../../../Middlewares/Third_Party/LoRaWAN/Mac/region/RegionRU864.c ****         *channel = enabledChannels[randr( 0, nbEnabledChannels - 1 )];
 879:../../../../../../Middlewares/Third_Party/LoRaWAN/Mac/region/RegionRU864.c **** 
 880:../../../../../../Middlewares/Third_Party/LoRaWAN/Mac/region/RegionRU864.c ****         *time = 0;
 881:../../../../../../Middlewares/Third_Party/LoRaWAN/Mac/region/RegionRU864.c ****         return LORAMAC_STATUS_OK;
 882:../../../../../../Middlewares/Third_Party/LoRaWAN/Mac/region/RegionRU864.c ****     }
 883:../../../../../../Middlewares/Third_Party/LoRaWAN/Mac/region/RegionRU864.c ****     else
 884:../../../../../../Middlewares/Third_Party/LoRaWAN/Mac/region/RegionRU864.c ****     {
 885:../../../../../../Middlewares/Third_Party/LoRaWAN/Mac/region/RegionRU864.c ****         if( delayTx > 0 )
 886:../../../../../../Middlewares/Third_Party/LoRaWAN/Mac/region/RegionRU864.c ****         {
 887:../../../../../../Middlewares/Third_Party/LoRaWAN/Mac/region/RegionRU864.c ****             // Delay transmission due to AggregatedTimeOff or to a band time off
 888:../../../../../../Middlewares/Third_Party/LoRaWAN/Mac/region/RegionRU864.c ****             *time = nextTxDelay;
 889:../../../../../../Middlewares/Third_Party/LoRaWAN/Mac/region/RegionRU864.c ****             return LORAMAC_STATUS_DUTYCYCLE_RESTRICTED;
 890:../../../../../../Middlewares/Third_Party/LoRaWAN/Mac/region/RegionRU864.c ****         }
 891:../../../../../../Middlewares/Third_Party/LoRaWAN/Mac/region/RegionRU864.c ****         // Datarate not supported by any channel, restore defaults
 892:../../../../../../Middlewares/Third_Party/LoRaWAN/Mac/region/RegionRU864.c ****         NvmCtx.ChannelsMask[0] |= LC( 1 ) + LC( 2 );
 893:../../../../../../Middlewares/Third_Party/LoRaWAN/Mac/region/RegionRU864.c ****         *time = 0;
 894:../../../../../../Middlewares/Third_Party/LoRaWAN/Mac/region/RegionRU864.c ****         return LORAMAC_STATUS_NO_CHANNEL_FOUND;
 895:../../../../../../Middlewares/Third_Party/LoRaWAN/Mac/region/RegionRU864.c ****     }
 896:../../../../../../Middlewares/Third_Party/LoRaWAN/Mac/region/RegionRU864.c **** }
 897:../../../../../../Middlewares/Third_Party/LoRaWAN/Mac/region/RegionRU864.c **** 
 898:../../../../../../Middlewares/Third_Party/LoRaWAN/Mac/region/RegionRU864.c **** LoRaMacStatus_t RegionRU864ChannelAdd( ChannelAddParams_t* channelAdd )
 899:../../../../../../Middlewares/Third_Party/LoRaWAN/Mac/region/RegionRU864.c **** {
 900:../../../../../../Middlewares/Third_Party/LoRaWAN/Mac/region/RegionRU864.c ****     bool drInvalid = false;
 901:../../../../../../Middlewares/Third_Party/LoRaWAN/Mac/region/RegionRU864.c ****     bool freqInvalid = false;
 902:../../../../../../Middlewares/Third_Party/LoRaWAN/Mac/region/RegionRU864.c ****     uint8_t id = channelAdd->ChannelId;
 903:../../../../../../Middlewares/Third_Party/LoRaWAN/Mac/region/RegionRU864.c **** 
 904:../../../../../../Middlewares/Third_Party/LoRaWAN/Mac/region/RegionRU864.c ****     if( id < RU864_NUMB_DEFAULT_CHANNELS )
 905:../../../../../../Middlewares/Third_Party/LoRaWAN/Mac/region/RegionRU864.c ****     {
 906:../../../../../../Middlewares/Third_Party/LoRaWAN/Mac/region/RegionRU864.c ****         return LORAMAC_STATUS_FREQ_AND_DR_INVALID;
 907:../../../../../../Middlewares/Third_Party/LoRaWAN/Mac/region/RegionRU864.c ****     }
 908:../../../../../../Middlewares/Third_Party/LoRaWAN/Mac/region/RegionRU864.c **** 
 909:../../../../../../Middlewares/Third_Party/LoRaWAN/Mac/region/RegionRU864.c ****     if( id >= RU864_MAX_NB_CHANNELS )
 910:../../../../../../Middlewares/Third_Party/LoRaWAN/Mac/region/RegionRU864.c ****     {
 911:../../../../../../Middlewares/Third_Party/LoRaWAN/Mac/region/RegionRU864.c ****         return LORAMAC_STATUS_PARAMETER_INVALID;
 912:../../../../../../Middlewares/Third_Party/LoRaWAN/Mac/region/RegionRU864.c ****     }
 913:../../../../../../Middlewares/Third_Party/LoRaWAN/Mac/region/RegionRU864.c **** 
 914:../../../../../../Middlewares/Third_Party/LoRaWAN/Mac/region/RegionRU864.c ****     // Validate the datarate range
 915:../../../../../../Middlewares/Third_Party/LoRaWAN/Mac/region/RegionRU864.c ****     if( RegionCommonValueInRange( channelAdd->NewChannel->DrRange.Fields.Min, RU864_TX_MIN_DATARATE
 916:../../../../../../Middlewares/Third_Party/LoRaWAN/Mac/region/RegionRU864.c ****     {
 917:../../../../../../Middlewares/Third_Party/LoRaWAN/Mac/region/RegionRU864.c ****         drInvalid = true;
 918:../../../../../../Middlewares/Third_Party/LoRaWAN/Mac/region/RegionRU864.c ****     }
 919:../../../../../../Middlewares/Third_Party/LoRaWAN/Mac/region/RegionRU864.c ****     if( RegionCommonValueInRange( channelAdd->NewChannel->DrRange.Fields.Max, RU864_TX_MIN_DATARATE
 920:../../../../../../Middlewares/Third_Party/LoRaWAN/Mac/region/RegionRU864.c ****     {
 921:../../../../../../Middlewares/Third_Party/LoRaWAN/Mac/region/RegionRU864.c ****         drInvalid = true;
 922:../../../../../../Middlewares/Third_Party/LoRaWAN/Mac/region/RegionRU864.c ****     }
 923:../../../../../../Middlewares/Third_Party/LoRaWAN/Mac/region/RegionRU864.c ****     if( channelAdd->NewChannel->DrRange.Fields.Min > channelAdd->NewChannel->DrRange.Fields.Max )
 924:../../../../../../Middlewares/Third_Party/LoRaWAN/Mac/region/RegionRU864.c ****     {
 925:../../../../../../Middlewares/Third_Party/LoRaWAN/Mac/region/RegionRU864.c ****         drInvalid = true;
 926:../../../../../../Middlewares/Third_Party/LoRaWAN/Mac/region/RegionRU864.c ****     }
ARM GAS  C:\Users\EBANO_~1\AppData\Local\Temp\ccazSBuk.s 			page 30


 927:../../../../../../Middlewares/Third_Party/LoRaWAN/Mac/region/RegionRU864.c **** 
 928:../../../../../../Middlewares/Third_Party/LoRaWAN/Mac/region/RegionRU864.c ****     // Check frequency
 929:../../../../../../Middlewares/Third_Party/LoRaWAN/Mac/region/RegionRU864.c ****     if( freqInvalid == false )
 930:../../../../../../Middlewares/Third_Party/LoRaWAN/Mac/region/RegionRU864.c ****     {
 931:../../../../../../Middlewares/Third_Party/LoRaWAN/Mac/region/RegionRU864.c ****         if( VerifyRfFreq( channelAdd->NewChannel->Frequency ) == false )
 932:../../../../../../Middlewares/Third_Party/LoRaWAN/Mac/region/RegionRU864.c ****         {
 933:../../../../../../Middlewares/Third_Party/LoRaWAN/Mac/region/RegionRU864.c ****             freqInvalid = true;
 934:../../../../../../Middlewares/Third_Party/LoRaWAN/Mac/region/RegionRU864.c ****         }
 935:../../../../../../Middlewares/Third_Party/LoRaWAN/Mac/region/RegionRU864.c ****     }
 936:../../../../../../Middlewares/Third_Party/LoRaWAN/Mac/region/RegionRU864.c **** 
 937:../../../../../../Middlewares/Third_Party/LoRaWAN/Mac/region/RegionRU864.c ****     // Check status
 938:../../../../../../Middlewares/Third_Party/LoRaWAN/Mac/region/RegionRU864.c ****     if( ( drInvalid == true ) && ( freqInvalid == true ) )
 939:../../../../../../Middlewares/Third_Party/LoRaWAN/Mac/region/RegionRU864.c ****     {
 940:../../../../../../Middlewares/Third_Party/LoRaWAN/Mac/region/RegionRU864.c ****         return LORAMAC_STATUS_FREQ_AND_DR_INVALID;
 941:../../../../../../Middlewares/Third_Party/LoRaWAN/Mac/region/RegionRU864.c ****     }
 942:../../../../../../Middlewares/Third_Party/LoRaWAN/Mac/region/RegionRU864.c ****     if( drInvalid == true )
 943:../../../../../../Middlewares/Third_Party/LoRaWAN/Mac/region/RegionRU864.c ****     {
 944:../../../../../../Middlewares/Third_Party/LoRaWAN/Mac/region/RegionRU864.c ****         return LORAMAC_STATUS_DATARATE_INVALID;
 945:../../../../../../Middlewares/Third_Party/LoRaWAN/Mac/region/RegionRU864.c ****     }
 946:../../../../../../Middlewares/Third_Party/LoRaWAN/Mac/region/RegionRU864.c ****     if( freqInvalid == true )
 947:../../../../../../Middlewares/Third_Party/LoRaWAN/Mac/region/RegionRU864.c ****     {
 948:../../../../../../Middlewares/Third_Party/LoRaWAN/Mac/region/RegionRU864.c ****         return LORAMAC_STATUS_FREQUENCY_INVALID;
 949:../../../../../../Middlewares/Third_Party/LoRaWAN/Mac/region/RegionRU864.c ****     }
 950:../../../../../../Middlewares/Third_Party/LoRaWAN/Mac/region/RegionRU864.c **** 
 951:../../../../../../Middlewares/Third_Party/LoRaWAN/Mac/region/RegionRU864.c ****     memcpy1( ( uint8_t* ) &(NvmCtx.Channels[id]), ( uint8_t* ) channelAdd->NewChannel, sizeof( NvmC
 952:../../../../../../Middlewares/Third_Party/LoRaWAN/Mac/region/RegionRU864.c ****     NvmCtx.Channels[id].Band = 0;
 953:../../../../../../Middlewares/Third_Party/LoRaWAN/Mac/region/RegionRU864.c ****     NvmCtx.ChannelsMask[0] |= ( 1 << id );
 954:../../../../../../Middlewares/Third_Party/LoRaWAN/Mac/region/RegionRU864.c ****     return LORAMAC_STATUS_OK;
 955:../../../../../../Middlewares/Third_Party/LoRaWAN/Mac/region/RegionRU864.c **** }
 956:../../../../../../Middlewares/Third_Party/LoRaWAN/Mac/region/RegionRU864.c **** 
 957:../../../../../../Middlewares/Third_Party/LoRaWAN/Mac/region/RegionRU864.c **** bool RegionRU864ChannelsRemove( ChannelRemoveParams_t* channelRemove  )
 958:../../../../../../Middlewares/Third_Party/LoRaWAN/Mac/region/RegionRU864.c **** {
 959:../../../../../../Middlewares/Third_Party/LoRaWAN/Mac/region/RegionRU864.c ****     uint8_t id = channelRemove->ChannelId;
 960:../../../../../../Middlewares/Third_Party/LoRaWAN/Mac/region/RegionRU864.c **** 
 961:../../../../../../Middlewares/Third_Party/LoRaWAN/Mac/region/RegionRU864.c ****     if( id < RU864_NUMB_DEFAULT_CHANNELS )
 962:../../../../../../Middlewares/Third_Party/LoRaWAN/Mac/region/RegionRU864.c ****     {
 963:../../../../../../Middlewares/Third_Party/LoRaWAN/Mac/region/RegionRU864.c ****         return false;
 964:../../../../../../Middlewares/Third_Party/LoRaWAN/Mac/region/RegionRU864.c ****     }
 965:../../../../../../Middlewares/Third_Party/LoRaWAN/Mac/region/RegionRU864.c **** 
 966:../../../../../../Middlewares/Third_Party/LoRaWAN/Mac/region/RegionRU864.c ****     // Remove the channel from the list of channels
 967:../../../../../../Middlewares/Third_Party/LoRaWAN/Mac/region/RegionRU864.c ****     NvmCtx.Channels[id] = ( ChannelParams_t ){ 0, 0, { 0 }, 0 };
 664              		.loc 1 967 0
 665 0034 444B     		ldr	r3, .L78
 666              	.LBE33:
 667              	.LBE32:
 668              	.LBE31:
 669 0036 0026     		movs	r6, #0
 670              	.LBB48:
 671              	.LBB36:
 672              	.LBB34:
 673 0038 9946     		mov	r9, r3
 674 003a 444B     		ldr	r3, .L78+4
 675 003c 9B46     		mov	fp, r3
 676 003e EBB2     		uxtb	r3, r5
 677 0040 9846     		mov	r8, r3
 678              	.LVL39:
 679              	.LBE34:
ARM GAS  C:\Users\EBANO_~1\AppData\Local\Temp\ccazSBuk.s 			page 31


 680              	.LBE36:
 444:../../../../../../Middlewares/Third_Party/LoRaWAN/Mac/region/RegionRU864.c ****         {
 681              		.loc 1 444 0
 682 0042 072D     		cmp	r5, #7
 683 0044 62D0     		beq	.L60
 684              	.LVL40:
 685              	.L77:
 447:../../../../../../Middlewares/Third_Party/LoRaWAN/Mac/region/RegionRU864.c ****             newChannel.Frequency |= ( (uint32_t) applyCFList->Payload[i + 1] << 8 );
 686              		.loc 1 447 0
 687 0046 3A68     		ldr	r2, [r7]
 688 0048 915D     		ldrb	r1, [r2, r6]
 448:../../../../../../Middlewares/Third_Party/LoRaWAN/Mac/region/RegionRU864.c ****             newChannel.Frequency |= ( (uint32_t) applyCFList->Payload[i + 2] << 16 );
 689              		.loc 1 448 0
 690 004a 9219     		adds	r2, r2, r6
 447:../../../../../../Middlewares/Third_Party/LoRaWAN/Mac/region/RegionRU864.c ****             newChannel.Frequency |= ( (uint32_t) applyCFList->Payload[i + 1] << 8 );
 691              		.loc 1 447 0
 692 004c 2160     		str	r1, [r4]
 448:../../../../../../Middlewares/Third_Party/LoRaWAN/Mac/region/RegionRU864.c ****             newChannel.Frequency |= ( (uint32_t) applyCFList->Payload[i + 2] << 16 );
 693              		.loc 1 448 0
 694 004e 5378     		ldrb	r3, [r2, #1]
 695              	.LVL41:
 696 0050 1B02     		lsls	r3, r3, #8
 697 0052 0B43     		orrs	r3, r1
 698 0054 2360     		str	r3, [r4]
 449:../../../../../../Middlewares/Third_Party/LoRaWAN/Mac/region/RegionRU864.c ****             newChannel.Frequency *= 100;
 699              		.loc 1 449 0
 700 0056 9278     		ldrb	r2, [r2, #2]
 701 0058 1204     		lsls	r2, r2, #16
 702 005a 1343     		orrs	r3, r2
 450:../../../../../../Middlewares/Third_Party/LoRaWAN/Mac/region/RegionRU864.c **** 
 703              		.loc 1 450 0
 704 005c 6422     		movs	r2, #100
 705 005e 5343     		muls	r3, r2
 453:../../../../../../Middlewares/Third_Party/LoRaWAN/Mac/region/RegionRU864.c ****         }
 706              		.loc 1 453 0
 707 0060 0022     		movs	r2, #0
 450:../../../../../../Middlewares/Third_Party/LoRaWAN/Mac/region/RegionRU864.c **** 
 708              		.loc 1 450 0
 709 0062 2360     		str	r3, [r4]
 453:../../../../../../Middlewares/Third_Party/LoRaWAN/Mac/region/RegionRU864.c ****         }
 710              		.loc 1 453 0
 711 0064 6260     		str	r2, [r4, #4]
 462:../../../../../../Middlewares/Third_Party/LoRaWAN/Mac/region/RegionRU864.c ****         {
 712              		.loc 1 462 0
 713 0066 002B     		cmp	r3, #0
 714 0068 54D0     		beq	.L62
 715              	.LVL42:
 716              	.LBB37:
 717              	.LBB38:
 915:../../../../../../Middlewares/Third_Party/LoRaWAN/Mac/region/RegionRU864.c ****     {
 718              		.loc 1 915 0
 719 006a 207A     		ldrb	r0, [r4, #8]
 720 006c 0722     		movs	r2, #7
 721 006e 0007     		lsls	r0, r0, #28
 722 0070 0021     		movs	r1, #0
 723 0072 0017     		asrs	r0, r0, #28
 724 0074 FFF7FEFF 		bl	RegionCommonValueInRange
ARM GAS  C:\Users\EBANO_~1\AppData\Local\Temp\ccazSBuk.s 			page 32


 725              	.LVL43:
 726 0078 8046     		mov	r8, r0
 727              	.LVL44:
 919:../../../../../../Middlewares/Third_Party/LoRaWAN/Mac/region/RegionRU864.c ****     {
 728              		.loc 1 919 0
 729 007a 0820     		movs	r0, #8
 730 007c 2056     		ldrsb	r0, [r4, r0]
 731 007e 0722     		movs	r2, #7
 732 0080 0011     		asrs	r0, r0, #4
 733 0082 0021     		movs	r1, #0
 734 0084 FFF7FEFF 		bl	RegionCommonValueInRange
 735              	.LVL45:
 921:../../../../../../Middlewares/Third_Party/LoRaWAN/Mac/region/RegionRU864.c ****     }
 736              		.loc 1 921 0
 737 0088 0123     		movs	r3, #1
 738 008a 9A46     		mov	r10, r3
 919:../../../../../../Middlewares/Third_Party/LoRaWAN/Mac/region/RegionRU864.c ****     {
 739              		.loc 1 919 0
 740 008c 0028     		cmp	r0, #0
 741 008e 04D0     		beq	.L67
 915:../../../../../../Middlewares/Third_Party/LoRaWAN/Mac/region/RegionRU864.c ****     {
 742              		.loc 1 915 0
 743 0090 4346     		mov	r3, r8
 744 0092 5A42     		rsbs	r2, r3, #0
 745 0094 5341     		adcs	r3, r3, r2
 746 0096 DBB2     		uxtb	r3, r3
 747 0098 9A46     		mov	r10, r3
 748              	.L67:
 749              	.LVL46:
 750 009a 2368     		ldr	r3, [r4]
 751 009c 9846     		mov	r8, r3
 752 009e 5B46     		mov	r3, fp
 753 00a0 9B6A     		ldr	r3, [r3, #40]
 754              	.LBB39:
 755              	.LBB40:
 111:../../../../../../Middlewares/Third_Party/LoRaWAN/Mac/region/RegionRU864.c ****     {
 756              		.loc 1 111 0
 757 00a2 4046     		mov	r0, r8
 758 00a4 0193     		str	r3, [sp, #4]
 759              	.LBE40:
 760              	.LBE39:
 923:../../../../../../Middlewares/Third_Party/LoRaWAN/Mac/region/RegionRU864.c ****     {
 761              		.loc 1 923 0
 762 00a6 237A     		ldrb	r3, [r4, #8]
 763 00a8 1A07     		lsls	r2, r3, #28
 764 00aa 5BB2     		sxtb	r3, r3
 765 00ac 1217     		asrs	r2, r2, #28
 766 00ae 1B11     		asrs	r3, r3, #4
 767 00b0 9A42     		cmp	r2, r3
 768 00b2 41DC     		bgt	.L63
 769              	.LVL47:
 770              	.LBB43:
 771              	.LBB41:
 111:../../../../../../Middlewares/Third_Party/LoRaWAN/Mac/region/RegionRU864.c ****     {
 772              		.loc 1 111 0
 773 00b4 019B     		ldr	r3, [sp, #4]
 774 00b6 9847     		blx	r3
ARM GAS  C:\Users\EBANO_~1\AppData\Local\Temp\ccazSBuk.s 			page 33


 775              	.LVL48:
 776 00b8 0028     		cmp	r0, #0
 777 00ba 1ED0     		beq	.L64
 117:../../../../../../Middlewares/Third_Party/LoRaWAN/Mac/region/RegionRU864.c ****     {
 778              		.loc 1 117 0
 779 00bc 244A     		ldr	r2, .L78+8
 780 00be 254B     		ldr	r3, .L78+12
 781 00c0 4244     		add	r2, r2, r8
 782 00c2 9A42     		cmp	r2, r3
 783 00c4 19D8     		bhi	.L64
 784              	.LBE41:
 785              	.LBE43:
 938:../../../../../../Middlewares/Third_Party/LoRaWAN/Mac/region/RegionRU864.c ****     {
 786              		.loc 1 938 0
 787 00c6 5346     		mov	r3, r10
 788 00c8 002B     		cmp	r3, #0
 789 00ca 16D1     		bne	.L64
 951:../../../../../../Middlewares/Third_Party/LoRaWAN/Mac/region/RegionRU864.c ****     NvmCtx.Channels[id].Band = 0;
 790              		.loc 1 951 0
 791 00cc 1E4B     		ldr	r3, .L78
 792 00ce 6800     		lsls	r0, r5, #1
 793 00d0 9846     		mov	r8, r3
 794 00d2 4019     		adds	r0, r0, r5
 795 00d4 8000     		lsls	r0, r0, #2
 796 00d6 0C22     		movs	r2, #12
 797 00d8 2100     		movs	r1, r4
 798 00da 4044     		add	r0, r0, r8
 799 00dc FFF7FEFF 		bl	memcpy1
 800              	.LVL49:
 952:../../../../../../Middlewares/Third_Party/LoRaWAN/Mac/region/RegionRU864.c ****     NvmCtx.ChannelsMask[0] |= ( 1 << id );
 801              		.loc 1 952 0
 802 00e0 4246     		mov	r2, r8
 803 00e2 5146     		mov	r1, r10
 804 00e4 B300     		lsls	r3, r6, #2
 805 00e6 2133     		adds	r3, r3, #33
 806 00e8 D154     		strb	r1, [r2, r3]
 953:../../../../../../Middlewares/Third_Party/LoRaWAN/Mac/region/RegionRU864.c ****     return LORAMAC_STATUS_OK;
 807              		.loc 1 953 0
 808 00ea 0122     		movs	r2, #1
 809 00ec 7021     		movs	r1, #112
 810 00ee 4346     		mov	r3, r8
 811 00f0 AA40     		lsls	r2, r2, r5
 812 00f2 5B5A     		ldrh	r3, [r3, r1]
 813 00f4 1343     		orrs	r3, r2
 814 00f6 4246     		mov	r2, r8
 815 00f8 5352     		strh	r3, [r2, r1]
 816              	.L64:
 817              	.LVL50:
 818 00fa 0135     		adds	r5, r5, #1
 819              	.LVL51:
 820 00fc 0336     		adds	r6, r6, #3
 821              	.LVL52:
 822              	.LBE38:
 823              	.LBE37:
 442:../../../../../../Middlewares/Third_Party/LoRaWAN/Mac/region/RegionRU864.c ****     {
 824              		.loc 1 442 0 discriminator 2
 825 00fe 082D     		cmp	r5, #8
ARM GAS  C:\Users\EBANO_~1\AppData\Local\Temp\ccazSBuk.s 			page 34


 826 0100 00D1     		bne	.LCB700
 827 0102 8BE7     		b	.L58	@long jump
 828              	.LCB700:
 829              	.LVL53:
 830              	.L75:
 831 0104 EBB2     		uxtb	r3, r5
 832 0106 9846     		mov	r8, r3
 833              	.LVL54:
 444:../../../../../../Middlewares/Third_Party/LoRaWAN/Mac/region/RegionRU864.c ****         {
 834              		.loc 1 444 0
 835 0108 072D     		cmp	r5, #7
 836 010a 9CD1     		bne	.L77
 837              	.LVL55:
 838              	.L60:
 457:../../../../../../Middlewares/Third_Party/LoRaWAN/Mac/region/RegionRU864.c ****             newChannel.DrRange.Value = 0;
 839              		.loc 1 457 0
 840 010c 0023     		movs	r3, #0
 841 010e 2360     		str	r3, [r4]
 458:../../../../../../Middlewares/Third_Party/LoRaWAN/Mac/region/RegionRU864.c ****             newChannel.Rx1Frequency = 0;
 842              		.loc 1 458 0
 843 0110 2372     		strb	r3, [r4, #8]
 459:../../../../../../Middlewares/Third_Party/LoRaWAN/Mac/region/RegionRU864.c ****         }
 844              		.loc 1 459 0
 845 0112 6360     		str	r3, [r4, #4]
 846              	.L62:
 847              	.LVL56:
 848              	.LBB46:
 849              	.LBB35:
 850              		.loc 1 967 0
 851 0114 6800     		lsls	r0, r5, #1
 852 0116 4019     		adds	r0, r0, r5
 853 0118 8000     		lsls	r0, r0, #2
 854 011a 0C22     		movs	r2, #12
 855 011c 0021     		movs	r1, #0
 856 011e 4844     		add	r0, r0, r9
 857 0120 FFF7FEFF 		bl	memset
 858              	.LVL57:
 859 0124 0135     		adds	r5, r5, #1
 968:../../../../../../Middlewares/Third_Party/LoRaWAN/Mac/region/RegionRU864.c **** 
 969:../../../../../../Middlewares/Third_Party/LoRaWAN/Mac/region/RegionRU864.c ****     return RegionCommonChanDisable( NvmCtx.ChannelsMask, id, RU864_MAX_NB_CHANNELS );
 860              		.loc 1 969 0
 861 0126 0822     		movs	r2, #8
 862 0128 4146     		mov	r1, r8
 863 012a 0B48     		ldr	r0, .L78+16
 864 012c FFF7FEFF 		bl	RegionCommonChanDisable
 865              	.LVL58:
 866 0130 0336     		adds	r6, r6, #3
 867              	.LVL59:
 868              	.LBE35:
 869              	.LBE46:
 442:../../../../../../Middlewares/Third_Party/LoRaWAN/Mac/region/RegionRU864.c ****     {
 870              		.loc 1 442 0
 871 0132 082D     		cmp	r5, #8
 872 0134 E6D1     		bne	.L75
 873 0136 71E7     		b	.L58
 874              	.LVL60:
 875              	.L63:
ARM GAS  C:\Users\EBANO_~1\AppData\Local\Temp\ccazSBuk.s 			page 35


 876              	.LBB47:
 877              	.LBB45:
 878              	.LBB44:
 879              	.LBB42:
 111:../../../../../../Middlewares/Third_Party/LoRaWAN/Mac/region/RegionRU864.c ****     {
 880              		.loc 1 111 0
 881 0138 019B     		ldr	r3, [sp, #4]
 882 013a 0135     		adds	r5, r5, #1
 883 013c 9847     		blx	r3
 884              	.LVL61:
 885 013e 0336     		adds	r6, r6, #3
 886              	.LVL62:
 887              	.LBE42:
 888              	.LBE44:
 889              	.LBE45:
 890              	.LBE47:
 442:../../../../../../Middlewares/Third_Party/LoRaWAN/Mac/region/RegionRU864.c ****     {
 891              		.loc 1 442 0
 892 0140 082D     		cmp	r5, #8
 893 0142 DFD1     		bne	.L75
 894 0144 6AE7     		b	.L58
 895              	.L79:
 896 0146 C046     		.align	2
 897              	.L78:
 898 0148 00000000 		.word	.LANCHOR1
 899 014c 00000000 		.word	Radio
 900 0150 006880CC 		.word	-864000000
 901 0154 808D5B00 		.word	6000000
 902 0158 70000000 		.word	.LANCHOR1+112
 903              	.LBE48:
 904              		.cfi_endproc
 905              	.LFE49:
 906              		.size	RegionRU864ApplyCFList, .-RegionRU864ApplyCFList
 907              		.section	.text.RegionRU864ChanMaskSet,"ax",%progbits
 908              		.align	1
 909              		.p2align 2,,3
 910              		.global	RegionRU864ChanMaskSet
 911              		.syntax unified
 912              		.code	16
 913              		.thumb_func
 914              		.fpu softvfp
 915              		.type	RegionRU864ChanMaskSet, %function
 916              	RegionRU864ChanMaskSet:
 917              	.LFB50:
 480:../../../../../../Middlewares/Third_Party/LoRaWAN/Mac/region/RegionRU864.c ****     switch( chanMaskSet->ChannelsMaskType )
 918              		.loc 1 480 0
 919              		.cfi_startproc
 920              		@ args = 0, pretend = 0, frame = 0
 921              		@ frame_needed = 0, uses_anonymous_args = 0
 922              	.LVL63:
 923 0000 10B5     		push	{r4, lr}
 924              	.LCFI9:
 925              		.cfi_def_cfa_offset 8
 926              		.cfi_offset 4, -8
 927              		.cfi_offset 14, -4
 481:../../../../../../Middlewares/Third_Party/LoRaWAN/Mac/region/RegionRU864.c ****     {
 928              		.loc 1 481 0
ARM GAS  C:\Users\EBANO_~1\AppData\Local\Temp\ccazSBuk.s 			page 36


 929 0002 0379     		ldrb	r3, [r0, #4]
 930 0004 002B     		cmp	r3, #0
 931 0006 0BD0     		beq	.L82
 932 0008 012B     		cmp	r3, #1
 933 000a 01D0     		beq	.L83
 494:../../../../../../Middlewares/Third_Party/LoRaWAN/Mac/region/RegionRU864.c ****     }
 934              		.loc 1 494 0
 935 000c 0020     		movs	r0, #0
 936              	.LVL64:
 937              	.L81:
 497:../../../../../../Middlewares/Third_Party/LoRaWAN/Mac/region/RegionRU864.c **** 
 938              		.loc 1 497 0
 939              		@ sp needed
 940 000e 10BD     		pop	{r4, pc}
 941              	.LVL65:
 942              	.L83:
 490:../../../../../../Middlewares/Third_Party/LoRaWAN/Mac/region/RegionRU864.c ****             break;
 943              		.loc 1 490 0
 944 0010 0168     		ldr	r1, [r0]
 945 0012 0748     		ldr	r0, .L86
 946              	.LVL66:
 947 0014 0122     		movs	r2, #1
 948 0016 7230     		adds	r0, r0, #114
 949 0018 FFF7FEFF 		bl	RegionCommonChanMaskCopy
 950              	.LVL67:
 496:../../../../../../Middlewares/Third_Party/LoRaWAN/Mac/region/RegionRU864.c **** }
 951              		.loc 1 496 0
 952 001c 0120     		movs	r0, #1
 491:../../../../../../Middlewares/Third_Party/LoRaWAN/Mac/region/RegionRU864.c ****         }
 953              		.loc 1 491 0
 954 001e F6E7     		b	.L81
 955              	.LVL68:
 956              	.L82:
 485:../../../../../../Middlewares/Third_Party/LoRaWAN/Mac/region/RegionRU864.c ****             break;
 957              		.loc 1 485 0
 958 0020 0168     		ldr	r1, [r0]
 959 0022 0348     		ldr	r0, .L86
 960              	.LVL69:
 961 0024 0122     		movs	r2, #1
 962 0026 7030     		adds	r0, r0, #112
 963 0028 FFF7FEFF 		bl	RegionCommonChanMaskCopy
 964              	.LVL70:
 496:../../../../../../Middlewares/Third_Party/LoRaWAN/Mac/region/RegionRU864.c **** }
 965              		.loc 1 496 0
 966 002c 0120     		movs	r0, #1
 486:../../../../../../Middlewares/Third_Party/LoRaWAN/Mac/region/RegionRU864.c ****         }
 967              		.loc 1 486 0
 968 002e EEE7     		b	.L81
 969              	.L87:
 970              		.align	2
 971              	.L86:
 972 0030 00000000 		.word	.LANCHOR1
 973              		.cfi_endproc
 974              	.LFE50:
 975              		.size	RegionRU864ChanMaskSet, .-RegionRU864ChanMaskSet
 976              		.section	.text.RegionRU864ComputeRxWindowParameters,"ax",%progbits
 977              		.align	1
ARM GAS  C:\Users\EBANO_~1\AppData\Local\Temp\ccazSBuk.s 			page 37


 978              		.p2align 2,,3
 979              		.global	RegionRU864ComputeRxWindowParameters
 980              		.syntax unified
 981              		.code	16
 982              		.thumb_func
 983              		.fpu softvfp
 984              		.type	RegionRU864ComputeRxWindowParameters, %function
 985              	RegionRU864ComputeRxWindowParameters:
 986              	.LFB51:
 500:../../../../../../Middlewares/Third_Party/LoRaWAN/Mac/region/RegionRU864.c ****     double tSymbol = 0.0;
 987              		.loc 1 500 0
 988              		.cfi_startproc
 989              		@ args = 0, pretend = 0, frame = 8
 990              		@ frame_needed = 0, uses_anonymous_args = 0
 991              	.LVL71:
 992 0000 F0B5     		push	{r4, r5, r6, r7, lr}
 993              	.LCFI10:
 994              		.cfi_def_cfa_offset 20
 995              		.cfi_offset 4, -20
 996              		.cfi_offset 5, -16
 997              		.cfi_offset 6, -12
 998              		.cfi_offset 7, -8
 999              		.cfi_offset 14, -4
 1000 0002 C646     		mov	lr, r8
 1001 0004 00B5     		push	{lr}
 1002              	.LCFI11:
 1003              		.cfi_def_cfa_offset 24
 1004              		.cfi_offset 8, -24
 1005 0006 1C00     		movs	r4, r3
 1006 0008 86B0     		sub	sp, sp, #24
 1007              	.LCFI12:
 1008              		.cfi_def_cfa_offset 48
 500:../../../../../../Middlewares/Third_Party/LoRaWAN/Mac/region/RegionRU864.c ****     double tSymbol = 0.0;
 1009              		.loc 1 500 0
 1010 000a 0D00     		movs	r5, r1
 1011 000c 9046     		mov	r8, r2
 504:../../../../../../Middlewares/Third_Party/LoRaWAN/Mac/region/RegionRU864.c ****     rxConfigParams->Bandwidth = GetBandwidth( rxConfigParams->Datarate );
 1012              		.loc 1 504 0
 1013 000e 031C     		adds	r3, r0, #0
 1014              	.LVL72:
 1015 0010 0728     		cmp	r0, #7
 1016 0012 00DD     		ble	.L89
 1017 0014 0723     		movs	r3, #7
 1018              	.L89:
 1019 0016 5EB2     		sxtb	r6, r3
 1020              	.LBB49:
 1021              	.LBB50:
  86:../../../../../../Middlewares/Third_Party/LoRaWAN/Mac/region/RegionRU864.c ****     {
 1022              		.loc 1 86 0
 1023 0018 1A4A     		ldr	r2, .L97
 1024              	.LVL73:
 1025 001a B100     		lsls	r1, r6, #2
 1026              	.LVL74:
 1027              	.LBE50:
 1028              	.LBE49:
 504:../../../../../../Middlewares/Third_Party/LoRaWAN/Mac/region/RegionRU864.c ****     rxConfigParams->Bandwidth = GetBandwidth( rxConfigParams->Datarate );
 1029              		.loc 1 504 0
ARM GAS  C:\Users\EBANO_~1\AppData\Local\Temp\ccazSBuk.s 			page 38


 1030 001c 6370     		strb	r3, [r4, #1]
 1031              	.LVL75:
 1032              	.LBB53:
 1033              	.LBB51:
  86:../../../../../../Middlewares/Third_Party/LoRaWAN/Mac/region/RegionRU864.c ****     {
 1034              		.loc 1 86 0
 1035 001e 1A4F     		ldr	r7, .L97+4
 1036 0020 5358     		ldr	r3, [r2, r1]
 1037 0022 BB42     		cmp	r3, r7
 1038 0024 24D0     		beq	.L95
 1039 0026 194F     		ldr	r7, .L97+8
 1040 0028 BC46     		mov	ip, r7
 1041 002a 6344     		add	r3, r3, ip
 1042 002c 5F42     		rsbs	r7, r3, #0
 1043 002e 7B41     		adcs	r3, r3, r7
 1044 0030 5B00     		lsls	r3, r3, #1
 1045              	.LBE51:
 1046              	.LBE53:
 505:../../../../../../Middlewares/Third_Party/LoRaWAN/Mac/region/RegionRU864.c **** 
 1047              		.loc 1 505 0
 1048 0032 A370     		strb	r3, [r4, #2]
 507:../../../../../../Middlewares/Third_Party/LoRaWAN/Mac/region/RegionRU864.c ****     { // FSK
 1049              		.loc 1 507 0
 1050 0034 0628     		cmp	r0, #6
 1051 0036 1FDC     		bgt	.L96
 1052              	.L93:
 513:../../../../../../Middlewares/Third_Party/LoRaWAN/Mac/region/RegionRU864.c ****     }
 1053              		.loc 1 513 0
 1054 0038 2023     		movs	r3, #32
 1055 003a 5158     		ldr	r1, [r2, r1]
 1056 003c 9219     		adds	r2, r2, r6
 1057 003e D05C     		ldrb	r0, [r2, r3]
 1058              	.LVL76:
 1059 0040 FFF7FEFF 		bl	RegionCommonComputeSymbolTimeLoRa
 1060              	.LVL77:
 1061 0044 0600     		movs	r6, r0
 1062 0046 0F00     		movs	r7, r1
 1063              	.LVL78:
 1064              	.L94:
 516:../../../../../../Middlewares/Third_Party/LoRaWAN/Mac/region/RegionRU864.c **** }
 1065              		.loc 1 516 0
 1066 0048 114B     		ldr	r3, .L97+12
 1067 004a 5B6E     		ldr	r3, [r3, #100]
 1068 004c 0593     		str	r3, [sp, #20]
 1069 004e 9847     		blx	r3
 1070              	.LVL79:
 1071 0050 2300     		movs	r3, r4
 1072 0052 0834     		adds	r4, r4, #8
 1073              	.LVL80:
 1074 0054 0C33     		adds	r3, r3, #12
 1075              	.LVL81:
 1076 0056 0293     		str	r3, [sp, #8]
 1077 0058 0090     		str	r0, [sp]
 1078 005a 0194     		str	r4, [sp, #4]
 1079 005c 4346     		mov	r3, r8
 1080              	.LVL82:
 1081 005e 2A00     		movs	r2, r5
ARM GAS  C:\Users\EBANO_~1\AppData\Local\Temp\ccazSBuk.s 			page 39


 1082 0060 3000     		movs	r0, r6
 1083 0062 3900     		movs	r1, r7
 1084 0064 FFF7FEFF 		bl	RegionCommonComputeRxWindowParameters
 1085              	.LVL83:
 517:../../../../../../Middlewares/Third_Party/LoRaWAN/Mac/region/RegionRU864.c **** 
 1086              		.loc 1 517 0
 1087 0068 06B0     		add	sp, sp, #24
 1088              		@ sp needed
 1089              	.LVL84:
 1090              	.LVL85:
 1091              	.LVL86:
 1092 006a 04BC     		pop	{r2}
 1093 006c 9046     		mov	r8, r2
 1094 006e F0BD     		pop	{r4, r5, r6, r7, pc}
 1095              	.LVL87:
 1096              	.L95:
 1097              	.LBB54:
 1098              	.LBB52:
  86:../../../../../../Middlewares/Third_Party/LoRaWAN/Mac/region/RegionRU864.c ****     {
 1099              		.loc 1 86 0
 1100 0070 0123     		movs	r3, #1
 1101              	.LBE52:
 1102              	.LBE54:
 505:../../../../../../Middlewares/Third_Party/LoRaWAN/Mac/region/RegionRU864.c **** 
 1103              		.loc 1 505 0
 1104 0072 A370     		strb	r3, [r4, #2]
 507:../../../../../../Middlewares/Third_Party/LoRaWAN/Mac/region/RegionRU864.c ****     { // FSK
 1105              		.loc 1 507 0
 1106 0074 0628     		cmp	r0, #6
 1107 0076 DFDD     		ble	.L93
 1108              	.L96:
 509:../../../../../../Middlewares/Third_Party/LoRaWAN/Mac/region/RegionRU864.c ****     }
 1109              		.loc 1 509 0
 1110 0078 3220     		movs	r0, #50
 1111              	.LVL88:
 1112 007a FFF7FEFF 		bl	RegionCommonComputeSymbolTimeFsk
 1113              	.LVL89:
 1114 007e 0600     		movs	r6, r0
 1115 0080 0F00     		movs	r7, r1
 1116              	.LVL90:
 1117 0082 E1E7     		b	.L94
 1118              	.L98:
 1119              		.align	2
 1120              	.L97:
 1121 0084 CC000000 		.word	.LANCHOR2
 1122 0088 90D00300 		.word	250000
 1123 008c E05EF8FF 		.word	-500000
 1124 0090 00000000 		.word	Radio
 1125              		.cfi_endproc
 1126              	.LFE51:
 1127              		.size	RegionRU864ComputeRxWindowParameters, .-RegionRU864ComputeRxWindowParameters
 1128              		.section	.text.RegionRU864RxConfig,"ax",%progbits
 1129              		.align	1
 1130              		.p2align 2,,3
 1131              		.global	RegionRU864RxConfig
 1132              		.syntax unified
 1133              		.code	16
ARM GAS  C:\Users\EBANO_~1\AppData\Local\Temp\ccazSBuk.s 			page 40


 1134              		.thumb_func
 1135              		.fpu softvfp
 1136              		.type	RegionRU864RxConfig, %function
 1137              	RegionRU864RxConfig:
 1138              	.LFB52:
 520:../../../../../../Middlewares/Third_Party/LoRaWAN/Mac/region/RegionRU864.c ****     RadioModems_t modem;
 1139              		.loc 1 520 0
 1140              		.cfi_startproc
 1141              		@ args = 0, pretend = 0, frame = 8
 1142              		@ frame_needed = 0, uses_anonymous_args = 0
 1143              	.LVL91:
 1144 0000 F0B5     		push	{r4, r5, r6, r7, lr}
 1145              	.LCFI13:
 1146              		.cfi_def_cfa_offset 20
 1147              		.cfi_offset 4, -20
 1148              		.cfi_offset 5, -16
 1149              		.cfi_offset 6, -12
 1150              		.cfi_offset 7, -8
 1151              		.cfi_offset 14, -4
 1152 0002 D646     		mov	lr, r10
 1153 0004 4646     		mov	r6, r8
 1154 0006 4F46     		mov	r7, r9
 1155 0008 C0B5     		push	{r6, r7, lr}
 1156              	.LCFI14:
 1157              		.cfi_def_cfa_offset 32
 1158              		.cfi_offset 8, -32
 1159              		.cfi_offset 9, -28
 1160              		.cfi_offset 10, -24
 522:../../../../../../Middlewares/Third_Party/LoRaWAN/Mac/region/RegionRU864.c ****     uint8_t maxPayload = 0;
 1161              		.loc 1 522 0
 1162 000a 0126     		movs	r6, #1
 525:../../../../../../Middlewares/Third_Party/LoRaWAN/Mac/region/RegionRU864.c **** 
 1163              		.loc 1 525 0
 1164 000c 4368     		ldr	r3, [r0, #4]
 527:../../../../../../Middlewares/Third_Party/LoRaWAN/Mac/region/RegionRU864.c ****     {
 1165              		.loc 1 527 0
 1166 000e 394D     		ldr	r5, .L109
 525:../../../../../../Middlewares/Third_Party/LoRaWAN/Mac/region/RegionRU864.c **** 
 1167              		.loc 1 525 0
 1168 0010 9846     		mov	r8, r3
 527:../../../../../../Middlewares/Third_Party/LoRaWAN/Mac/region/RegionRU864.c ****     {
 1169              		.loc 1 527 0
 1170 0012 EB68     		ldr	r3, [r5, #12]
 520:../../../../../../Middlewares/Third_Party/LoRaWAN/Mac/region/RegionRU864.c ****     RadioModems_t modem;
 1171              		.loc 1 520 0
 1172 0014 8CB0     		sub	sp, sp, #48
 1173              	.LCFI15:
 1174              		.cfi_def_cfa_offset 80
 522:../../../../../../Middlewares/Third_Party/LoRaWAN/Mac/region/RegionRU864.c ****     uint8_t maxPayload = 0;
 1175              		.loc 1 522 0
 1176 0016 8657     		ldrsb	r6, [r0, r6]
 1177              	.LVL92:
 520:../../../../../../Middlewares/Third_Party/LoRaWAN/Mac/region/RegionRU864.c ****     RadioModems_t modem;
 1178              		.loc 1 520 0
 1179 0018 0400     		movs	r4, r0
 527:../../../../../../Middlewares/Third_Party/LoRaWAN/Mac/region/RegionRU864.c ****     {
 1180              		.loc 1 527 0
ARM GAS  C:\Users\EBANO_~1\AppData\Local\Temp\ccazSBuk.s 			page 41


 1181 001a 0B93     		str	r3, [sp, #44]
 520:../../../../../../Middlewares/Third_Party/LoRaWAN/Mac/region/RegionRU864.c ****     RadioModems_t modem;
 1182              		.loc 1 520 0
 1183 001c 8A46     		mov	r10, r1
 527:../../../../../../Middlewares/Third_Party/LoRaWAN/Mac/region/RegionRU864.c ****     {
 1184              		.loc 1 527 0
 1185 001e 9847     		blx	r3
 1186              	.LVL93:
 529:../../../../../../Middlewares/Third_Party/LoRaWAN/Mac/region/RegionRU864.c ****     }
 1187              		.loc 1 529 0
 1188 0020 0023     		movs	r3, #0
 527:../../../../../../Middlewares/Third_Party/LoRaWAN/Mac/region/RegionRU864.c ****     {
 1189              		.loc 1 527 0
 1190 0022 0028     		cmp	r0, #0
 1191 0024 3ED1     		bne	.L100
 532:../../../../../../Middlewares/Third_Party/LoRaWAN/Mac/region/RegionRU864.c ****     {
 1192              		.loc 1 532 0
 1193 0026 E37C     		ldrb	r3, [r4, #19]
 1194 0028 002B     		cmp	r3, #0
 1195 002a 0AD1     		bne	.L101
 535:../../../../../../Middlewares/Third_Party/LoRaWAN/Mac/region/RegionRU864.c ****         // Apply the alternative RX 1 window frequency, if it is available
 1196              		.loc 1 535 0
 1197 002c 2178     		ldrb	r1, [r4]
 1198 002e 324A     		ldr	r2, .L109+4
 1199 0030 4B00     		lsls	r3, r1, #1
 1200 0032 5B18     		adds	r3, r3, r1
 1201 0034 9B00     		lsls	r3, r3, #2
 1202 0036 9958     		ldr	r1, [r3, r2]
 1203              	.LVL94:
 537:../../../../../../Middlewares/Third_Party/LoRaWAN/Mac/region/RegionRU864.c ****         {
 1204              		.loc 1 537 0
 1205 0038 D318     		adds	r3, r2, r3
 1206 003a 5B68     		ldr	r3, [r3, #4]
 1207 003c 9846     		mov	r8, r3
 1208 003e 002B     		cmp	r3, #0
 1209 0040 56D0     		beq	.L107
 1210              	.LVL95:
 1211              	.L101:
 544:../../../../../../Middlewares/Third_Party/LoRaWAN/Mac/region/RegionRU864.c **** 
 1212              		.loc 1 544 0
 1213 0042 2022     		movs	r2, #32
 1214 0044 2D4B     		ldr	r3, .L109+8
 546:../../../../../../Middlewares/Third_Party/LoRaWAN/Mac/region/RegionRU864.c **** 
 1215              		.loc 1 546 0
 1216 0046 4046     		mov	r0, r8
 544:../../../../../../Middlewares/Third_Party/LoRaWAN/Mac/region/RegionRU864.c **** 
 1217              		.loc 1 544 0
 1218 0048 9B19     		adds	r3, r3, r6
 1219 004a 9B56     		ldrsb	r3, [r3, r2]
 1220 004c 9946     		mov	r9, r3
 1221              	.LVL96:
 546:../../../../../../Middlewares/Third_Party/LoRaWAN/Mac/region/RegionRU864.c **** 
 1222              		.loc 1 546 0
 1223 004e 6B69     		ldr	r3, [r5, #20]
 1224 0050 0B93     		str	r3, [sp, #44]
 1225 0052 9847     		blx	r3
 1226              	.LVL97:
ARM GAS  C:\Users\EBANO_~1\AppData\Local\Temp\ccazSBuk.s 			page 42


 1227 0054 2B6A     		ldr	r3, [r5, #32]
 1228 0056 0B93     		str	r3, [sp, #44]
 1229 0058 1F00     		movs	r7, r3
 549:../../../../../../Middlewares/Third_Party/LoRaWAN/Mac/region/RegionRU864.c ****     {
 1230              		.loc 1 549 0
 1231 005a 072E     		cmp	r6, #7
 1232 005c 2CD0     		beq	.L108
 1233              	.LVL98:
 557:../../../../../../Middlewares/Third_Party/LoRaWAN/Mac/region/RegionRU864.c ****     }
 1234              		.loc 1 557 0
 1235 005e A37C     		ldrb	r3, [r4, #18]
 1236 0060 2289     		ldrh	r2, [r4, #8]
 1237 0062 0993     		str	r3, [sp, #36]
 1238 0064 0123     		movs	r3, #1
 1239 0066 0292     		str	r2, [sp, #8]
 1240 0068 0893     		str	r3, [sp, #32]
 1241 006a 0822     		movs	r2, #8
 1242 006c 0023     		movs	r3, #0
 1243 006e 0192     		str	r2, [sp, #4]
 1244 0070 0793     		str	r3, [sp, #28]
 1245 0072 0693     		str	r3, [sp, #24]
 1246 0074 0593     		str	r3, [sp, #20]
 1247 0076 0493     		str	r3, [sp, #16]
 1248 0078 0393     		str	r3, [sp, #12]
 1249 007a 0093     		str	r3, [sp]
 1250 007c 0120     		movs	r0, #1
 1251 007e A178     		ldrb	r1, [r4, #2]
 1252 0080 0133     		adds	r3, r3, #1
 1253 0082 4A46     		mov	r2, r9
 1254 0084 B847     		blx	r7
 1255              	.LVL99:
 556:../../../../../../Middlewares/Third_Party/LoRaWAN/Mac/region/RegionRU864.c ****         Radio.SetRxConfig( modem, rxConfig->Bandwidth, phyDr, 1, 0, 8, rxConfig->WindowTimeout, fal
 1256              		.loc 1 556 0
 1257 0086 0120     		movs	r0, #1
 1258              	.LVL100:
 1259              	.L103:
 560:../../../../../../Middlewares/Third_Party/LoRaWAN/Mac/region/RegionRU864.c ****     {
 1260              		.loc 1 560 0
 1261 0088 637C     		ldrb	r3, [r4, #17]
 1262 008a 002B     		cmp	r3, #0
 1263 008c 11D0     		beq	.L104
 562:../../../../../../Middlewares/Third_Party/LoRaWAN/Mac/region/RegionRU864.c ****     }
 1264              		.loc 1 562 0
 1265 008e 1C4B     		ldr	r3, .L109+12
 1266 0090 9B19     		adds	r3, r3, r6
 1267 0092 197A     		ldrb	r1, [r3, #8]
 1268              	.LVL101:
 1269              	.L105:
 569:../../../../../../Middlewares/Third_Party/LoRaWAN/Mac/region/RegionRU864.c ****     TVL1( PRINTF( "RX on freq %d Hz at DR %d\n\r", frequency, dr );)
 1270              		.loc 1 569 0
 1271 0094 EB6D     		ldr	r3, [r5, #92]
 1272 0096 0D31     		adds	r1, r1, #13
 1273              	.LVL102:
 1274 0098 C9B2     		uxtb	r1, r1
 1275 009a 0B93     		str	r3, [sp, #44]
 1276 009c 9847     		blx	r3
 1277              	.LVL103:
ARM GAS  C:\Users\EBANO_~1\AppData\Local\Temp\ccazSBuk.s 			page 43


 572:../../../../../../Middlewares/Third_Party/LoRaWAN/Mac/region/RegionRU864.c ****     return true;
 1278              		.loc 1 572 0
 1279 009e 5346     		mov	r3, r10
 1280 00a0 1E70     		strb	r6, [r3]
 573:../../../../../../Middlewares/Third_Party/LoRaWAN/Mac/region/RegionRU864.c **** }
 1281              		.loc 1 573 0
 1282 00a2 0123     		movs	r3, #1
 1283              	.LVL104:
 1284              	.L100:
 574:../../../../../../Middlewares/Third_Party/LoRaWAN/Mac/region/RegionRU864.c **** 
 1285              		.loc 1 574 0
 1286 00a4 1800     		movs	r0, r3
 1287 00a6 0CB0     		add	sp, sp, #48
 1288              		@ sp needed
 1289              	.LVL105:
 1290              	.LVL106:
 1291              	.LVL107:
 1292              	.LVL108:
 1293 00a8 1CBC     		pop	{r2, r3, r4}
 1294 00aa 9046     		mov	r8, r2
 1295 00ac 9946     		mov	r9, r3
 1296 00ae A246     		mov	r10, r4
 1297 00b0 F0BD     		pop	{r4, r5, r6, r7, pc}
 1298              	.LVL109:
 1299              	.L104:
 566:../../../../../../Middlewares/Third_Party/LoRaWAN/Mac/region/RegionRU864.c ****     }
 1300              		.loc 1 566 0
 1301 00b2 134B     		ldr	r3, .L109+12
 1302 00b4 995D     		ldrb	r1, [r3, r6]
 1303              	.LVL110:
 1304 00b6 EDE7     		b	.L105
 1305              	.LVL111:
 1306              	.L108:
 552:../../../../../../Middlewares/Third_Party/LoRaWAN/Mac/region/RegionRU864.c ****     }
 1307              		.loc 1 552 0
 1308 00b8 4B46     		mov	r3, r9
 1309 00ba 5A01     		lsls	r2, r3, #5
 1310 00bc D21A     		subs	r2, r2, r3
 1311 00be A37C     		ldrb	r3, [r4, #18]
 1312 00c0 0121     		movs	r1, #1
 1313 00c2 0993     		str	r3, [sp, #36]
 1314 00c4 0023     		movs	r3, #0
 1315 00c6 0893     		str	r3, [sp, #32]
 1316 00c8 0793     		str	r3, [sp, #28]
 1317 00ca 0693     		str	r3, [sp, #24]
 1318 00cc 0493     		str	r3, [sp, #16]
 1319 00ce 0393     		str	r3, [sp, #12]
 1320 00d0 2389     		ldrh	r3, [r4, #8]
 1321 00d2 9200     		lsls	r2, r2, #2
 1322 00d4 0293     		str	r3, [sp, #8]
 1323 00d6 0523     		movs	r3, #5
 1324 00d8 0193     		str	r3, [sp, #4]
 1325 00da 0A4B     		ldr	r3, .L109+16
 1326 00dc 4A44     		add	r2, r2, r9
 1327 00de 0591     		str	r1, [sp, #20]
 1328 00e0 0093     		str	r3, [sp]
 1329 00e2 0020     		movs	r0, #0
ARM GAS  C:\Users\EBANO_~1\AppData\Local\Temp\ccazSBuk.s 			page 44


 1330 00e4 D200     		lsls	r2, r2, #3
 1331 00e6 0023     		movs	r3, #0
 1332 00e8 0749     		ldr	r1, .L109+20
 1333 00ea B847     		blx	r7
 1334              	.LVL112:
 551:../../../../../../Middlewares/Third_Party/LoRaWAN/Mac/region/RegionRU864.c ****         Radio.SetRxConfig( modem, 50000, phyDr * 1000, 0, 83333, 5, rxConfig->WindowTimeout, false,
 1335              		.loc 1 551 0
 1336 00ec 0020     		movs	r0, #0
 1337 00ee CBE7     		b	.L103
 1338              	.LVL113:
 1339              	.L107:
 535:../../../../../../Middlewares/Third_Party/LoRaWAN/Mac/region/RegionRU864.c ****         // Apply the alternative RX 1 window frequency, if it is available
 1340              		.loc 1 535 0
 1341 00f0 8846     		mov	r8, r1
 1342 00f2 A6E7     		b	.L101
 1343              	.L110:
 1344              		.align	2
 1345              	.L109:
 1346 00f4 00000000 		.word	Radio
 1347 00f8 00000000 		.word	.LANCHOR1
 1348 00fc CC000000 		.word	.LANCHOR2
 1349 0100 F4000000 		.word	.LANCHOR0
 1350 0104 85450100 		.word	83333
 1351 0108 50C30000 		.word	50000
 1352              		.cfi_endproc
 1353              	.LFE52:
 1354              		.size	RegionRU864RxConfig, .-RegionRU864RxConfig
 1355              		.section	.text.RegionRU864TxConfig,"ax",%progbits
 1356              		.align	1
 1357              		.p2align 2,,3
 1358              		.global	RegionRU864TxConfig
 1359              		.syntax unified
 1360              		.code	16
 1361              		.thumb_func
 1362              		.fpu softvfp
 1363              		.type	RegionRU864TxConfig, %function
 1364              	RegionRU864TxConfig:
 1365              	.LFB53:
 577:../../../../../../Middlewares/Third_Party/LoRaWAN/Mac/region/RegionRU864.c ****     RadioModems_t modem;
 1366              		.loc 1 577 0
 1367              		.cfi_startproc
 1368              		@ args = 0, pretend = 0, frame = 8
 1369              		@ frame_needed = 0, uses_anonymous_args = 0
 1370              	.LVL114:
 1371 0000 F0B5     		push	{r4, r5, r6, r7, lr}
 1372              	.LCFI16:
 1373              		.cfi_def_cfa_offset 20
 1374              		.cfi_offset 4, -20
 1375              		.cfi_offset 5, -16
 1376              		.cfi_offset 6, -12
 1377              		.cfi_offset 7, -8
 1378              		.cfi_offset 14, -4
 1379 0002 4546     		mov	r5, r8
 1380 0004 5746     		mov	r7, r10
 1381 0006 4E46     		mov	r6, r9
 1382 0008 DE46     		mov	lr, fp
 1383 000a 9046     		mov	r8, r2
ARM GAS  C:\Users\EBANO_~1\AppData\Local\Temp\ccazSBuk.s 			page 45


 579:../../../../../../Middlewares/Third_Party/LoRaWAN/Mac/region/RegionRU864.c ****     int8_t txPowerLimited = LimitTxPower( txConfig->TxPower, NvmCtx.Bands[NvmCtx.Channels[txConfig-
 1384              		.loc 1 579 0
 1385 000c 0122     		movs	r2, #1
 1386              	.LVL115:
 577:../../../../../../Middlewares/Third_Party/LoRaWAN/Mac/region/RegionRU864.c ****     RadioModems_t modem;
 1387              		.loc 1 577 0
 1388 000e 0400     		movs	r4, r0
 579:../../../../../../Middlewares/Third_Party/LoRaWAN/Mac/region/RegionRU864.c ****     int8_t txPowerLimited = LimitTxPower( txConfig->TxPower, NvmCtx.Bands[NvmCtx.Channels[txConfig-
 1389              		.loc 1 579 0
 1390 0010 2023     		movs	r3, #32
 577:../../../../../../Middlewares/Third_Party/LoRaWAN/Mac/region/RegionRU864.c ****     RadioModems_t modem;
 1391              		.loc 1 577 0
 1392 0012 E0B5     		push	{r5, r6, r7, lr}
 1393              	.LCFI17:
 1394              		.cfi_def_cfa_offset 36
 1395              		.cfi_offset 8, -36
 1396              		.cfi_offset 9, -32
 1397              		.cfi_offset 10, -28
 1398              		.cfi_offset 11, -24
 1399 0014 8DB0     		sub	sp, sp, #52
 1400              	.LCFI18:
 1401              		.cfi_def_cfa_offset 88
 577:../../../../../../Middlewares/Third_Party/LoRaWAN/Mac/region/RegionRU864.c ****     RadioModems_t modem;
 1402              		.loc 1 577 0
 1403 0016 0A91     		str	r1, [sp, #40]
 579:../../../../../../Middlewares/Third_Party/LoRaWAN/Mac/region/RegionRU864.c ****     int8_t txPowerLimited = LimitTxPower( txConfig->TxPower, NvmCtx.Bands[NvmCtx.Channels[txConfig-
 1404              		.loc 1 579 0
 1405 0018 8256     		ldrsb	r2, [r0, r2]
 1406 001a 4149     		ldr	r1, .L120
 1407              	.LVL116:
 580:../../../../../../Middlewares/Third_Party/LoRaWAN/Mac/region/RegionRU864.c ****     uint32_t bandwidth = GetBandwidth( txConfig->Datarate );
 1408              		.loc 1 580 0
 1409 001c 414D     		ldr	r5, .L120+4
 579:../../../../../../Middlewares/Third_Party/LoRaWAN/Mac/region/RegionRU864.c ****     int8_t txPowerLimited = LimitTxPower( txConfig->TxPower, NvmCtx.Bands[NvmCtx.Channels[txConfig-
 1410              		.loc 1 579 0
 1411 001e 8818     		adds	r0, r1, r2
 1412              	.LVL117:
 1413 0020 C656     		ldrsb	r6, [r0, r3]
 1414              	.LVL118:
 580:../../../../../../Middlewares/Third_Party/LoRaWAN/Mac/region/RegionRU864.c ****     uint32_t bandwidth = GetBandwidth( txConfig->Datarate );
 1415              		.loc 1 580 0
 1416 0022 2078     		ldrb	r0, [r4]
 1417              	.LVL119:
 1418 0024 4300     		lsls	r3, r0, #1
 1419 0026 1B18     		adds	r3, r3, r0
 1420              	.LBB55:
 1421              	.LBB56:
 103:../../../../../../Middlewares/Third_Party/LoRaWAN/Mac/region/RegionRU864.c **** 
 1422              		.loc 1 103 0
 1423 0028 A078     		ldrb	r0, [r4, #2]
 1424              	.LVL120:
 1425              	.LBE56:
 1426              	.LBE55:
 580:../../../../../../Middlewares/Third_Party/LoRaWAN/Mac/region/RegionRU864.c ****     uint32_t bandwidth = GetBandwidth( txConfig->Datarate );
 1427              		.loc 1 580 0
 1428 002a 9B00     		lsls	r3, r3, #2
 1429              	.LBB61:
ARM GAS  C:\Users\EBANO_~1\AppData\Local\Temp\ccazSBuk.s 			page 46


 1430              	.LBB57:
 103:../../../../../../Middlewares/Third_Party/LoRaWAN/Mac/region/RegionRU864.c **** 
 1431              		.loc 1 103 0
 1432 002c 8446     		mov	ip, r0
 1433 002e 6746     		mov	r7, ip
 1434              	.LBE57:
 1435              	.LBE61:
 580:../../../../../../Middlewares/Third_Party/LoRaWAN/Mac/region/RegionRU864.c ****     uint32_t bandwidth = GetBandwidth( txConfig->Datarate );
 1436              		.loc 1 580 0
 1437 0030 EB18     		adds	r3, r5, r3
 1438 0032 5B7A     		ldrb	r3, [r3, #9]
 1439              	.LBB62:
 1440              	.LBB58:
 103:../../../../../../Middlewares/Third_Party/LoRaWAN/Mac/region/RegionRU864.c **** 
 1441              		.loc 1 103 0
 1442 0034 7FB2     		sxtb	r7, r7
 1443              	.LBE58:
 1444              	.LBE62:
 580:../../../../../../Middlewares/Third_Party/LoRaWAN/Mac/region/RegionRU864.c ****     uint32_t bandwidth = GetBandwidth( txConfig->Datarate );
 1445              		.loc 1 580 0
 1446 0036 0633     		adds	r3, r3, #6
 1447 0038 1B01     		lsls	r3, r3, #4
 1448 003a EB18     		adds	r3, r5, r3
 1449              	.LBB63:
 1450              	.LBB59:
 103:../../../../../../Middlewares/Third_Party/LoRaWAN/Mac/region/RegionRU864.c **** 
 1451              		.loc 1 103 0
 1452 003c 9B78     		ldrb	r3, [r3, #2]
 1453 003e 181C     		adds	r0, r3, #0
 1454 0040 5BB2     		sxtb	r3, r3
 1455 0042 BB42     		cmp	r3, r7
 1456 0044 00DA     		bge	.L112
 1457 0046 6046     		mov	r0, ip
 1458              	.L112:
 1459 0048 43B2     		sxtb	r3, r0
 1460              	.LBE59:
 1461              	.LBE63:
 1462              	.LBB64:
 1463              	.LBB65:
  86:../../../../../../Middlewares/Third_Party/LoRaWAN/Mac/region/RegionRU864.c ****     {
 1464              		.loc 1 86 0
 1465 004a 9200     		lsls	r2, r2, #2
 1466              	.LVL121:
 1467              	.LBE65:
 1468              	.LBE64:
 1469              	.LBB68:
 1470              	.LBB60:
 103:../../../../../../Middlewares/Third_Party/LoRaWAN/Mac/region/RegionRU864.c **** 
 1471              		.loc 1 103 0
 1472 004c 9946     		mov	r9, r3
 1473              	.LVL122:
 1474              	.LBE60:
 1475              	.LBE68:
 1476              	.LBB69:
 1477              	.LBB66:
  86:../../../../../../Middlewares/Third_Party/LoRaWAN/Mac/region/RegionRU864.c ****     {
 1478              		.loc 1 86 0
ARM GAS  C:\Users\EBANO_~1\AppData\Local\Temp\ccazSBuk.s 			page 47


 1479 004e 8B58     		ldr	r3, [r1, r2]
 1480 0050 354A     		ldr	r2, .L120+8
 1481 0052 9342     		cmp	r3, r2
 1482 0054 46D0     		beq	.L118
  90:../../../../../../Middlewares/Third_Party/LoRaWAN/Mac/region/RegionRU864.c ****         case 250000:
 1483              		.loc 1 90 0
 1484 0056 354A     		ldr	r2, .L120+12
 1485 0058 9446     		mov	ip, r2
 1486 005a 6344     		add	r3, r3, ip
 1487 005c 5A42     		rsbs	r2, r3, #0
 1488 005e 5341     		adcs	r3, r3, r2
 1489 0060 5B00     		lsls	r3, r3, #1
 1490 0062 9A46     		mov	r10, r3
 1491              	.L114:
 1492              	.LVL123:
 1493              	.LBE66:
 1494              	.LBE69:
 585:../../../../../../Middlewares/Third_Party/LoRaWAN/Mac/region/RegionRU864.c **** 
 1495              		.loc 1 585 0
 1496 0064 A268     		ldr	r2, [r4, #8]
 1497 0066 6168     		ldr	r1, [r4, #4]
 1498 0068 4846     		mov	r0, r9
 1499 006a FFF7FEFF 		bl	RegionCommonComputeTxPower
 1500              	.LVL124:
 588:../../../../../../Middlewares/Third_Party/LoRaWAN/Mac/region/RegionRU864.c **** 
 1501              		.loc 1 588 0
 1502 006e 2278     		ldrb	r2, [r4]
 585:../../../../../../Middlewares/Third_Party/LoRaWAN/Mac/region/RegionRU864.c **** 
 1503              		.loc 1 585 0
 1504 0070 8346     		mov	fp, r0
 1505              	.LVL125:
 588:../../../../../../Middlewares/Third_Party/LoRaWAN/Mac/region/RegionRU864.c **** 
 1506              		.loc 1 588 0
 1507 0072 5300     		lsls	r3, r2, #1
 1508 0074 9B18     		adds	r3, r3, r2
 1509 0076 9B00     		lsls	r3, r3, #2
 1510 0078 E858     		ldr	r0, [r5, r3]
 1511 007a 2D4D     		ldr	r5, .L120+16
 1512 007c 6B69     		ldr	r3, [r5, #20]
 1513 007e 0B93     		str	r3, [sp, #44]
 1514 0080 9847     		blx	r3
 1515              	.LVL126:
 1516 0082 6B6A     		ldr	r3, [r5, #36]
 1517 0084 0B93     		str	r3, [sp, #44]
 590:../../../../../../Middlewares/Third_Party/LoRaWAN/Mac/region/RegionRU864.c ****     { // High Speed FSK channel
 1518              		.loc 1 590 0
 1519 0086 0123     		movs	r3, #1
 1520 0088 E356     		ldrsb	r3, [r4, r3]
 1521 008a 072B     		cmp	r3, #7
 1522 008c 2DD0     		beq	.L119
 1523              	.LVL127:
 598:../../../../../../Middlewares/Third_Party/LoRaWAN/Mac/region/RegionRU864.c ****     }
 1524              		.loc 1 598 0
 1525 008e 294B     		ldr	r3, .L120+20
 1526 0090 0122     		movs	r2, #1
 1527 0092 0893     		str	r3, [sp, #32]
 1528 0094 0023     		movs	r3, #0
ARM GAS  C:\Users\EBANO_~1\AppData\Local\Temp\ccazSBuk.s 			page 48


 1529 0096 0793     		str	r3, [sp, #28]
 1530 0098 0693     		str	r3, [sp, #24]
 1531 009a 0593     		str	r3, [sp, #20]
 1532 009c 0393     		str	r3, [sp, #12]
 1533 009e 0833     		adds	r3, r3, #8
 1534 00a0 0492     		str	r2, [sp, #16]
 1535 00a2 0293     		str	r3, [sp, #8]
 1536 00a4 0192     		str	r2, [sp, #4]
 1537 00a6 0096     		str	r6, [sp]
 1538 00a8 5346     		mov	r3, r10
 1539 00aa 0B9E     		ldr	r6, [sp, #44]
 1540              	.LVL128:
 1541 00ac 0022     		movs	r2, #0
 1542 00ae 5946     		mov	r1, fp
 1543 00b0 0120     		movs	r0, #1
 1544 00b2 B047     		blx	r6
 1545              	.LVL129:
 597:../../../../../../Middlewares/Third_Party/LoRaWAN/Mac/region/RegionRU864.c ****         Radio.SetTxConfig( modem, phyTxPower, 0, bandwidth, phyDr, 1, 8, false, true, 0, 0, false, 
 1546              		.loc 1 597 0
 1547 00b4 0126     		movs	r6, #1
 1548              	.LVL130:
 1549              	.L117:
 602:../../../../../../Middlewares/Third_Party/LoRaWAN/Mac/region/RegionRU864.c ****     // Get the time-on-air of the next tx frame
 1550              		.loc 1 602 0
 1551 00b6 EB6D     		ldr	r3, [r5, #92]
 1552 00b8 217B     		ldrb	r1, [r4, #12]
 1553 00ba 3000     		movs	r0, r6
 1554 00bc 0B93     		str	r3, [sp, #44]
 1555 00be 9847     		blx	r3
 1556              	.LVL131:
 604:../../../../../../Middlewares/Third_Party/LoRaWAN/Mac/region/RegionRU864.c **** 
 1557              		.loc 1 604 0
 1558 00c0 EB6A     		ldr	r3, [r5, #44]
 1559 00c2 217B     		ldrb	r1, [r4, #12]
 1560 00c4 3000     		movs	r0, r6
 1561 00c6 0B93     		str	r3, [sp, #44]
 1562 00c8 9847     		blx	r3
 1563              	.LVL132:
 1564 00ca 4346     		mov	r3, r8
 1565 00cc 1860     		str	r0, [r3]
 606:../../../../../../Middlewares/Third_Party/LoRaWAN/Mac/region/RegionRU864.c ****     return true;
 1566              		.loc 1 606 0
 1567 00ce 4B46     		mov	r3, r9
 608:../../../../../../Middlewares/Third_Party/LoRaWAN/Mac/region/RegionRU864.c **** 
 1568              		.loc 1 608 0
 1569 00d0 0120     		movs	r0, #1
 606:../../../../../../Middlewares/Third_Party/LoRaWAN/Mac/region/RegionRU864.c ****     return true;
 1570              		.loc 1 606 0
 1571 00d2 0A9A     		ldr	r2, [sp, #40]
 1572 00d4 1370     		strb	r3, [r2]
 608:../../../../../../Middlewares/Third_Party/LoRaWAN/Mac/region/RegionRU864.c **** 
 1573              		.loc 1 608 0
 1574 00d6 0DB0     		add	sp, sp, #52
 1575              		@ sp needed
 1576              	.LVL133:
 1577              	.LVL134:
 1578              	.LVL135:
ARM GAS  C:\Users\EBANO_~1\AppData\Local\Temp\ccazSBuk.s 			page 49


 1579              	.LVL136:
 1580 00d8 3CBC     		pop	{r2, r3, r4, r5}
 1581 00da 9046     		mov	r8, r2
 1582 00dc 9946     		mov	r9, r3
 1583 00de A246     		mov	r10, r4
 1584 00e0 AB46     		mov	fp, r5
 1585 00e2 F0BD     		pop	{r4, r5, r6, r7, pc}
 1586              	.LVL137:
 1587              	.L118:
 1588              	.LBB70:
 1589              	.LBB67:
  92:../../../../../../Middlewares/Third_Party/LoRaWAN/Mac/region/RegionRU864.c ****         case 500000:
 1590              		.loc 1 92 0
 1591 00e4 0123     		movs	r3, #1
 1592              	.LVL138:
 1593 00e6 9A46     		mov	r10, r3
 1594 00e8 BCE7     		b	.L114
 1595              	.LVL139:
 1596              	.L119:
 1597              	.LBE67:
 1598              	.LBE70:
 593:../../../../../../Middlewares/Third_Party/LoRaWAN/Mac/region/RegionRU864.c ****     }
 1599              		.loc 1 593 0
 1600 00ea 124B     		ldr	r3, .L120+20
 1601 00ec 0122     		movs	r2, #1
 1602 00ee 0893     		str	r3, [sp, #32]
 1603 00f0 0023     		movs	r3, #0
 1604 00f2 0793     		str	r3, [sp, #28]
 1605 00f4 0693     		str	r3, [sp, #24]
 1606 00f6 0593     		str	r3, [sp, #20]
 1607 00f8 0393     		str	r3, [sp, #12]
 1608 00fa 0193     		str	r3, [sp, #4]
 1609 00fc 7301     		lsls	r3, r6, #5
 1610 00fe 9B1B     		subs	r3, r3, r6
 1611 0100 9B00     		lsls	r3, r3, #2
 1612 0102 9E19     		adds	r6, r3, r6
 1613              	.LVL140:
 1614 0104 0492     		str	r2, [sp, #16]
 1615 0106 F600     		lsls	r6, r6, #3
 1616 0108 0432     		adds	r2, r2, #4
 1617 010a 0292     		str	r2, [sp, #8]
 1618 010c 0096     		str	r6, [sp]
 1619 010e 5346     		mov	r3, r10
 1620 0110 0B9E     		ldr	r6, [sp, #44]
 1621 0112 094A     		ldr	r2, .L120+24
 1622 0114 5946     		mov	r1, fp
 1623 0116 0020     		movs	r0, #0
 1624 0118 B047     		blx	r6
 1625              	.LVL141:
 592:../../../../../../Middlewares/Third_Party/LoRaWAN/Mac/region/RegionRU864.c ****         Radio.SetTxConfig( modem, phyTxPower, 25000, bandwidth, phyDr * 1000, 0, 5, false, true, 0,
 1626              		.loc 1 592 0
 1627 011a 0026     		movs	r6, #0
 1628 011c CBE7     		b	.L117
 1629              	.L121:
 1630 011e C046     		.align	2
 1631              	.L120:
 1632 0120 CC000000 		.word	.LANCHOR2
ARM GAS  C:\Users\EBANO_~1\AppData\Local\Temp\ccazSBuk.s 			page 50


 1633 0124 00000000 		.word	.LANCHOR1
 1634 0128 90D00300 		.word	250000
 1635 012c E05EF8FF 		.word	-500000
 1636 0130 00000000 		.word	Radio
 1637 0134 B80B0000 		.word	3000
 1638 0138 A8610000 		.word	25000
 1639              		.cfi_endproc
 1640              	.LFE53:
 1641              		.size	RegionRU864TxConfig, .-RegionRU864TxConfig
 1642              		.section	.text.RegionRU864LinkAdrReq,"ax",%progbits
 1643              		.align	1
 1644              		.p2align 2,,3
 1645              		.global	RegionRU864LinkAdrReq
 1646              		.syntax unified
 1647              		.code	16
 1648              		.thumb_func
 1649              		.fpu softvfp
 1650              		.type	RegionRU864LinkAdrReq, %function
 1651              	RegionRU864LinkAdrReq:
 1652              	.LFB54:
 611:../../../../../../Middlewares/Third_Party/LoRaWAN/Mac/region/RegionRU864.c ****     uint8_t status = 0x07;
 1653              		.loc 1 611 0
 1654              		.cfi_startproc
 1655              		@ args = 4, pretend = 0, frame = 56
 1656              		@ frame_needed = 0, uses_anonymous_args = 0
 1657              	.LVL142:
 1658 0000 F0B5     		push	{r4, r5, r6, r7, lr}
 1659              	.LCFI19:
 1660              		.cfi_def_cfa_offset 20
 1661              		.cfi_offset 4, -20
 1662              		.cfi_offset 5, -16
 1663              		.cfi_offset 6, -12
 1664              		.cfi_offset 7, -8
 1665              		.cfi_offset 14, -4
 1666 0002 5746     		mov	r7, r10
 1667 0004 4E46     		mov	r6, r9
 1668 0006 4546     		mov	r5, r8
 1669 0008 DE46     		mov	lr, fp
 1670 000a E0B5     		push	{r5, r6, r7, lr}
 1671              	.LCFI20:
 1672              		.cfi_def_cfa_offset 36
 1673              		.cfi_offset 8, -36
 1674              		.cfi_offset 9, -32
 1675              		.cfi_offset 10, -28
 1676              		.cfi_offset 11, -24
 1677 000c 8FB0     		sub	sp, sp, #60
 1678              	.LCFI21:
 1679              		.cfi_def_cfa_offset 96
 611:../../../../../../Middlewares/Third_Party/LoRaWAN/Mac/region/RegionRU864.c ****     uint8_t status = 0x07;
 1680              		.loc 1 611 0
 1681 000e 0193     		str	r3, [sp, #4]
 616:../../../../../../Middlewares/Third_Party/LoRaWAN/Mac/region/RegionRU864.c ****     GetPhyParams_t getPhy;
 1682              		.loc 1 616 0
 1683 0010 02AB     		add	r3, sp, #8
 1684              	.LVL143:
 1685 0012 9F1D     		adds	r7, r3, #6
 1686 0014 0023     		movs	r3, #0
ARM GAS  C:\Users\EBANO_~1\AppData\Local\Temp\ccazSBuk.s 			page 51


 1687 0016 3B80     		strh	r3, [r7]
 612:../../../../../../Middlewares/Third_Party/LoRaWAN/Mac/region/RegionRU864.c ****     RegionCommonLinkAdrParams_t linkAdrParams;
 1688              		.loc 1 612 0
 1689 0018 0733     		adds	r3, r3, #7
 1690 001a 9846     		mov	r8, r3
 1691 001c 7F4B     		ldr	r3, .L192
 611:../../../../../../Middlewares/Third_Party/LoRaWAN/Mac/region/RegionRU864.c ****     uint8_t status = 0x07;
 1692              		.loc 1 611 0
 1693 001e 0600     		movs	r6, r0
 1694 0020 8B46     		mov	fp, r1
 1695 0022 9246     		mov	r10, r2
 615:../../../../../../Middlewares/Third_Party/LoRaWAN/Mac/region/RegionRU864.c ****     uint16_t chMask = 0;
 1696              		.loc 1 615 0
 1697 0024 0024     		movs	r4, #0
 1698 0026 9946     		mov	r9, r3
 1699 0028 04AD     		add	r5, sp, #16
 1700              	.LVL144:
 1701              	.L123:
 621:../../../../../../Middlewares/Third_Party/LoRaWAN/Mac/region/RegionRU864.c ****     {
 1702              		.loc 1 621 0
 1703 002a 337A     		ldrb	r3, [r6, #8]
 1704 002c A342     		cmp	r3, r4
 1705 002e 4DD9     		bls	.L150
 1706              	.L149:
 624:../../../../../../Middlewares/Third_Party/LoRaWAN/Mac/region/RegionRU864.c **** 
 1707              		.loc 1 624 0
 1708 0030 7368     		ldr	r3, [r6, #4]
 1709 0032 2900     		movs	r1, r5
 1710 0034 1819     		adds	r0, r3, r4
 1711 0036 FFF7FEFF 		bl	RegionCommonParseLinkAdrReq
 1712              	.LVL145:
 626:../../../../../../Middlewares/Third_Party/LoRaWAN/Mac/region/RegionRU864.c ****             break; // break loop, since no more request has been found
 1713              		.loc 1 626 0
 1714 003a 0028     		cmp	r0, #0
 1715 003c 46D0     		beq	.L150
 636:../../../../../../Middlewares/Third_Party/LoRaWAN/Mac/region/RegionRU864.c **** 
 1716              		.loc 1 636 0
 1717 003e AB88     		ldrh	r3, [r5, #4]
 630:../../../../../../Middlewares/Third_Party/LoRaWAN/Mac/region/RegionRU864.c **** 
 1718              		.loc 1 630 0
 1719 0040 2418     		adds	r4, r4, r0
 1720              	.LVL146:
 636:../../../../../../Middlewares/Third_Party/LoRaWAN/Mac/region/RegionRU864.c **** 
 1721              		.loc 1 636 0
 1722 0042 3B80     		strh	r3, [r7]
 639:../../../../../../Middlewares/Third_Party/LoRaWAN/Mac/region/RegionRU864.c ****         {
 1723              		.loc 1 639 0
 1724 0044 EA78     		ldrb	r2, [r5, #3]
 630:../../../../../../Middlewares/Third_Party/LoRaWAN/Mac/region/RegionRU864.c **** 
 1725              		.loc 1 630 0
 1726 0046 E4B2     		uxtb	r4, r4
 1727              	.LVL147:
 636:../../../../../../Middlewares/Third_Party/LoRaWAN/Mac/region/RegionRU864.c **** 
 1728              		.loc 1 636 0
 1729 0048 181C     		adds	r0, r3, #0
 1730              	.LVL148:
 639:../../../../../../Middlewares/Third_Party/LoRaWAN/Mac/region/RegionRU864.c ****         {
ARM GAS  C:\Users\EBANO_~1\AppData\Local\Temp\ccazSBuk.s 			page 52


 1731              		.loc 1 639 0
 1732 004a 002A     		cmp	r2, #0
 1733 004c 00D0     		beq	.LCB1605
 1734 004e 79E0     		b	.L127	@long jump
 1735              	.LCB1605:
 1736              	.LBB76:
 665:../../../../../../Middlewares/Third_Party/LoRaWAN/Mac/region/RegionRU864.c ****                     }
 1737              		.loc 1 665 0 discriminator 1
 1738 0050 0632     		adds	r2, r2, #6
 1739 0052 9046     		mov	r8, r2
 1740              	.LBE76:
 639:../../../../../../Middlewares/Third_Party/LoRaWAN/Mac/region/RegionRU864.c ****         {
 1741              		.loc 1 639 0 discriminator 1
 1742 0054 002B     		cmp	r3, #0
 1743 0056 E8D0     		beq	.L123
 1744              	.LVL149:
 1745              	.LBB77:
 662:../../../../../../Middlewares/Third_Party/LoRaWAN/Mac/region/RegionRU864.c ****                         ( NvmCtx.Channels[i].Frequency == 0 ) )
 1746              		.loc 1 662 0
 1747 0058 0722     		movs	r2, #7
 1748 005a 9046     		mov	r8, r2
 1749 005c DA07     		lsls	r2, r3, #31
 1750 005e 00D5     		bpl	.LCB1621
 1751 0060 B4E0     		b	.L189	@long jump
 1752              	.LCB1621:
 1753              	.L131:
 1754              	.LVL150:
 1755 0062 9A07     		lsls	r2, r3, #30
 1756 0064 04D5     		bpl	.L133
 1757 0066 4A46     		mov	r2, r9
 1758 0068 D268     		ldr	r2, [r2, #12]
 1759 006a 002A     		cmp	r2, #0
 1760 006c 00D1     		bne	.LCB1634
 1761 006e D1E0     		b	.L168	@long jump
 1762              	.LCB1634:
 1763              	.LVL151:
 1764              	.L133:
 1765 0070 5A07     		lsls	r2, r3, #29
 1766 0072 04D5     		bpl	.L135
 1767 0074 4A46     		mov	r2, r9
 1768 0076 9269     		ldr	r2, [r2, #24]
 1769 0078 002A     		cmp	r2, #0
 1770 007a 00D1     		bne	.LCB1648
 1771 007c C7E0     		b	.L169	@long jump
 1772              	.LCB1648:
 1773              	.LVL152:
 1774              	.L135:
 1775 007e 1A07     		lsls	r2, r3, #28
 1776 0080 04D5     		bpl	.L138
 1777 0082 4A46     		mov	r2, r9
 1778 0084 526A     		ldr	r2, [r2, #36]
 1779 0086 002A     		cmp	r2, #0
 1780 0088 00D1     		bne	.LCB1662
 1781 008a BDE0     		b	.L170	@long jump
 1782              	.LCB1662:
 1783              	.LVL153:
 1784              	.L138:
ARM GAS  C:\Users\EBANO_~1\AppData\Local\Temp\ccazSBuk.s 			page 53


 1785 008c DA06     		lsls	r2, r3, #27
 1786 008e 04D5     		bpl	.L141
 1787 0090 4A46     		mov	r2, r9
 1788 0092 126B     		ldr	r2, [r2, #48]
 1789 0094 002A     		cmp	r2, #0
 1790 0096 00D1     		bne	.LCB1676
 1791 0098 B3E0     		b	.L171	@long jump
 1792              	.LCB1676:
 1793              	.LVL154:
 1794              	.L141:
 1795 009a 9A06     		lsls	r2, r3, #26
 1796 009c 04D5     		bpl	.L144
 1797 009e 4A46     		mov	r2, r9
 1798 00a0 D26B     		ldr	r2, [r2, #60]
 1799 00a2 002A     		cmp	r2, #0
 1800 00a4 00D1     		bne	.LCB1690
 1801 00a6 A9E0     		b	.L172	@long jump
 1802              	.LCB1690:
 1803              	.LVL155:
 1804              	.L144:
 1805 00a8 5A06     		lsls	r2, r3, #25
 1806 00aa 04D5     		bpl	.L146
 1807 00ac 4A46     		mov	r2, r9
 1808 00ae 926C     		ldr	r2, [r2, #72]
 1809 00b0 002A     		cmp	r2, #0
 1810 00b2 00D1     		bne	.LCB1704
 1811 00b4 9FE0     		b	.L173	@long jump
 1812              	.LCB1704:
 1813              	.LVL156:
 1814              	.L146:
 1815 00b6 1B06     		lsls	r3, r3, #24
 1816 00b8 B7D5     		bpl	.L123
 1817 00ba 4B46     		mov	r3, r9
 1818 00bc 5B6D     		ldr	r3, [r3, #84]
 1819 00be 002B     		cmp	r3, #0
 1820 00c0 B3D1     		bne	.L123
 665:../../../../../../Middlewares/Third_Party/LoRaWAN/Mac/region/RegionRU864.c ****                     }
 1821              		.loc 1 665 0
 1822 00c2 0623     		movs	r3, #6
 1823 00c4 9846     		mov	r8, r3
 1824              	.LVL157:
 1825              	.LBE77:
 621:../../../../../../Middlewares/Third_Party/LoRaWAN/Mac/region/RegionRU864.c ****     {
 1826              		.loc 1 621 0
 1827 00c6 337A     		ldrb	r3, [r6, #8]
 1828 00c8 A342     		cmp	r3, r4
 1829 00ca B1D8     		bhi	.L149
 1830              	.LVL158:
 1831              	.L150:
 677:../../../../../../Middlewares/Third_Party/LoRaWAN/Mac/region/RegionRU864.c ****     linkAdrVerifyParams.AdrEnabled = linkAdrReq->AdrEnabled;
 1832              		.loc 1 677 0
 1833 00cc 4346     		mov	r3, r8
 1834 00ce 06A8     		add	r0, sp, #24
 1835 00d0 0371     		strb	r3, [r0, #4]
 678:../../../../../../Middlewares/Third_Party/LoRaWAN/Mac/region/RegionRU864.c ****     linkAdrVerifyParams.Datarate = linkAdrParams.Datarate;
 1836              		.loc 1 678 0
 1837 00d2 B37A     		ldrb	r3, [r6, #10]
ARM GAS  C:\Users\EBANO_~1\AppData\Local\Temp\ccazSBuk.s 			page 54


 695:../../../../../../Middlewares/Third_Party/LoRaWAN/Mac/region/RegionRU864.c **** 
 1838              		.loc 1 695 0
 1839 00d4 02A9     		add	r1, sp, #8
 678:../../../../../../Middlewares/Third_Party/LoRaWAN/Mac/region/RegionRU864.c ****     linkAdrVerifyParams.Datarate = linkAdrParams.Datarate;
 1840              		.loc 1 678 0
 1841 00d6 4371     		strb	r3, [r0, #5]
 679:../../../../../../Middlewares/Third_Party/LoRaWAN/Mac/region/RegionRU864.c ****     linkAdrVerifyParams.TxPower = linkAdrParams.TxPower;
 1842              		.loc 1 679 0
 1843 00d8 6B78     		ldrb	r3, [r5, #1]
 695:../../../../../../Middlewares/Third_Party/LoRaWAN/Mac/region/RegionRU864.c **** 
 1844              		.loc 1 695 0
 1845 00da 8C46     		mov	ip, r1
 679:../../../../../../Middlewares/Third_Party/LoRaWAN/Mac/region/RegionRU864.c ****     linkAdrVerifyParams.TxPower = linkAdrParams.TxPower;
 1846              		.loc 1 679 0
 1847 00dc 8371     		strb	r3, [r0, #6]
 680:../../../../../../Middlewares/Third_Party/LoRaWAN/Mac/region/RegionRU864.c ****     linkAdrVerifyParams.NbRep = linkAdrParams.NbRep;
 1848              		.loc 1 680 0
 1849 00de AB78     		ldrb	r3, [r5, #2]
 695:../../../../../../Middlewares/Third_Party/LoRaWAN/Mac/region/RegionRU864.c **** 
 1850              		.loc 1 695 0
 1851 00e0 0A22     		movs	r2, #10
 680:../../../../../../Middlewares/Third_Party/LoRaWAN/Mac/region/RegionRU864.c ****     linkAdrVerifyParams.NbRep = linkAdrParams.NbRep;
 1852              		.loc 1 680 0
 1853 00e2 C371     		strb	r3, [r0, #7]
 681:../../../../../../Middlewares/Third_Party/LoRaWAN/Mac/region/RegionRU864.c ****     linkAdrVerifyParams.CurrentDatarate = linkAdrReq->CurrentDatarate;
 1854              		.loc 1 681 0
 1855 00e4 2B78     		ldrb	r3, [r5]
 695:../../../../../../Middlewares/Third_Party/LoRaWAN/Mac/region/RegionRU864.c **** 
 1856              		.loc 1 695 0
 1857 00e6 0921     		movs	r1, #9
 681:../../../../../../Middlewares/Third_Party/LoRaWAN/Mac/region/RegionRU864.c ****     linkAdrVerifyParams.CurrentDatarate = linkAdrReq->CurrentDatarate;
 1858              		.loc 1 681 0
 1859 00e8 0372     		strb	r3, [r0, #8]
 682:../../../../../../Middlewares/Third_Party/LoRaWAN/Mac/region/RegionRU864.c ****     linkAdrVerifyParams.CurrentTxPower = linkAdrReq->CurrentTxPower;
 1860              		.loc 1 682 0
 1861 00ea F37A     		ldrb	r3, [r6, #11]
 695:../../../../../../Middlewares/Third_Party/LoRaWAN/Mac/region/RegionRU864.c **** 
 1862              		.loc 1 695 0
 1863 00ec 6244     		add	r2, r2, ip
 682:../../../../../../Middlewares/Third_Party/LoRaWAN/Mac/region/RegionRU864.c ****     linkAdrVerifyParams.CurrentTxPower = linkAdrReq->CurrentTxPower;
 1864              		.loc 1 682 0
 1865 00ee 4372     		strb	r3, [r0, #9]
 683:../../../../../../Middlewares/Third_Party/LoRaWAN/Mac/region/RegionRU864.c ****     linkAdrVerifyParams.CurrentNbRep = linkAdrReq->CurrentNbRep;
 1866              		.loc 1 683 0
 1867 00f0 337B     		ldrb	r3, [r6, #12]
 695:../../../../../../Middlewares/Third_Party/LoRaWAN/Mac/region/RegionRU864.c **** 
 1868              		.loc 1 695 0
 1869 00f2 6144     		add	r1, r1, ip
 683:../../../../../../Middlewares/Third_Party/LoRaWAN/Mac/region/RegionRU864.c ****     linkAdrVerifyParams.CurrentNbRep = linkAdrReq->CurrentNbRep;
 1870              		.loc 1 683 0
 1871 00f4 8372     		strb	r3, [r0, #10]
 684:../../../../../../Middlewares/Third_Party/LoRaWAN/Mac/region/RegionRU864.c ****     linkAdrVerifyParams.NbChannels = RU864_MAX_NB_CHANNELS;
 1872              		.loc 1 684 0
 1873 00f6 737B     		ldrb	r3, [r6, #13]
 686:../../../../../../Middlewares/Third_Party/LoRaWAN/Mac/region/RegionRU864.c ****     linkAdrVerifyParams.MinDatarate = ( int8_t )phyParam.Value;
 1874              		.loc 1 686 0
 1875 00f8 0761     		str	r7, [r0, #16]
ARM GAS  C:\Users\EBANO_~1\AppData\Local\Temp\ccazSBuk.s 			page 55


 684:../../../../../../Middlewares/Third_Party/LoRaWAN/Mac/region/RegionRU864.c ****     linkAdrVerifyParams.NbChannels = RU864_MAX_NB_CHANNELS;
 1876              		.loc 1 684 0
 1877 00fa C372     		strb	r3, [r0, #11]
 685:../../../../../../Middlewares/Third_Party/LoRaWAN/Mac/region/RegionRU864.c ****     linkAdrVerifyParams.ChannelsMask = &chMask;
 1878              		.loc 1 685 0
 1879 00fc 0823     		movs	r3, #8
 1880 00fe 0373     		strb	r3, [r0, #12]
 687:../../../../../../Middlewares/Third_Party/LoRaWAN/Mac/region/RegionRU864.c ****     linkAdrVerifyParams.MaxDatarate = RU864_TX_MAX_DATARATE;
 1881              		.loc 1 687 0
 1882 0100 E023     		movs	r3, #224
 1883 0102 DB00     		lsls	r3, r3, #3
 1884 0104 8382     		strh	r3, [r0, #20]
 689:../../../../../../Middlewares/Third_Party/LoRaWAN/Mac/region/RegionRU864.c ****     linkAdrVerifyParams.MinTxPower = RU864_MIN_TX_POWER;
 1885              		.loc 1 689 0
 1886 0106 4B46     		mov	r3, r9
 1887 0108 8361     		str	r3, [r0, #24]
 690:../../../../../../Middlewares/Third_Party/LoRaWAN/Mac/region/RegionRU864.c ****     linkAdrVerifyParams.MaxTxPower = RU864_MAX_TX_POWER;
 1888              		.loc 1 690 0
 1889 010a 0723     		movs	r3, #7
 1890 010c 8383     		strh	r3, [r0, #28]
 692:../../../../../../Middlewares/Third_Party/LoRaWAN/Mac/region/RegionRU864.c **** 
 1891              		.loc 1 692 0
 1892 010e 3368     		ldr	r3, [r6]
 1893 0110 0693     		str	r3, [sp, #24]
 695:../../../../../../Middlewares/Third_Party/LoRaWAN/Mac/region/RegionRU864.c **** 
 1894              		.loc 1 695 0
 1895 0112 2B00     		movs	r3, r5
 1896 0114 FFF7FEFF 		bl	RegionCommonLinkAdrReqVerifyParams
 1897              	.LVL159:
 1898 0118 0600     		movs	r6, r0
 1899              	.LVL160:
 698:../../../../../../Middlewares/Third_Party/LoRaWAN/Mac/region/RegionRU864.c ****     {
 1900              		.loc 1 698 0
 1901 011a 0728     		cmp	r0, #7
 1902 011c 5DD0     		beq	.L190
 1903              	.LVL161:
 1904              	.L126:
 707:../../../../../../Middlewares/Third_Party/LoRaWAN/Mac/region/RegionRU864.c ****     *txPowOut = linkAdrParams.TxPower;
 1905              		.loc 1 707 0
 1906 011e 5A46     		mov	r2, fp
 1907 0120 6B78     		ldrb	r3, [r5, #1]
 713:../../../../../../Middlewares/Third_Party/LoRaWAN/Mac/region/RegionRU864.c **** 
 1908              		.loc 1 713 0
 1909 0122 3000     		movs	r0, r6
 707:../../../../../../Middlewares/Third_Party/LoRaWAN/Mac/region/RegionRU864.c ****     *txPowOut = linkAdrParams.TxPower;
 1910              		.loc 1 707 0
 1911 0124 1370     		strb	r3, [r2]
 708:../../../../../../Middlewares/Third_Party/LoRaWAN/Mac/region/RegionRU864.c ****     *nbRepOut = linkAdrParams.NbRep;
 1912              		.loc 1 708 0
 1913 0126 5246     		mov	r2, r10
 1914 0128 AB78     		ldrb	r3, [r5, #2]
 1915 012a 1370     		strb	r3, [r2]
 709:../../../../../../Middlewares/Third_Party/LoRaWAN/Mac/region/RegionRU864.c ****     *nbBytesParsed = bytesProcessed;
 1916              		.loc 1 709 0
 1917 012c 2B78     		ldrb	r3, [r5]
 1918 012e 019A     		ldr	r2, [sp, #4]
 1919 0130 1370     		strb	r3, [r2]
ARM GAS  C:\Users\EBANO_~1\AppData\Local\Temp\ccazSBuk.s 			page 56


 710:../../../../../../Middlewares/Third_Party/LoRaWAN/Mac/region/RegionRU864.c **** 
 1920              		.loc 1 710 0
 1921 0132 189B     		ldr	r3, [sp, #96]
 1922 0134 1C70     		strb	r4, [r3]
 713:../../../../../../Middlewares/Third_Party/LoRaWAN/Mac/region/RegionRU864.c **** 
 1923              		.loc 1 713 0
 1924 0136 0FB0     		add	sp, sp, #60
 1925              		@ sp needed
 1926              	.LVL162:
 1927              	.LVL163:
 1928              	.LVL164:
 1929 0138 3CBC     		pop	{r2, r3, r4, r5}
 1930 013a 9046     		mov	r8, r2
 1931 013c 9946     		mov	r9, r3
 1932 013e A246     		mov	r10, r4
 1933 0140 AB46     		mov	fp, r5
 1934 0142 F0BD     		pop	{r4, r5, r6, r7, pc}
 1935              	.LVL165:
 1936              	.L127:
 1937              	.LBB78:
 665:../../../../../../Middlewares/Third_Party/LoRaWAN/Mac/region/RegionRU864.c ****                     }
 1938              		.loc 1 665 0
 1939 0144 0621     		movs	r1, #6
 1940 0146 8846     		mov	r8, r1
 1941              	.LBE78:
 643:../../../../../../Middlewares/Third_Party/LoRaWAN/Mac/region/RegionRU864.c ****                 ( linkAdrParams.ChMaskCtrl >= 7 ) )
 1942              		.loc 1 643 0
 1943 0148 511E     		subs	r1, r2, #1
 1944 014a 0429     		cmp	r1, #4
 1945 014c 00D8     		bhi	.LCB1830
 1946 014e 6CE7     		b	.L123	@long jump
 1947              	.LCB1830:
 643:../../../../../../Middlewares/Third_Party/LoRaWAN/Mac/region/RegionRU864.c ****                 ( linkAdrParams.ChMaskCtrl >= 7 ) )
 1948              		.loc 1 643 0 is_stmt 0 discriminator 1
 1949 0150 062A     		cmp	r2, #6
 1950 0152 00D0     		beq	.LCB1832
 1951 0154 69E7     		b	.L123	@long jump
 1952              	.LCB1832:
 1953              	.LVL166:
 1954              	.LBB79:
 655:../../../../../../Middlewares/Third_Party/LoRaWAN/Mac/region/RegionRU864.c ****                     {
 1955              		.loc 1 655 0 is_stmt 1
 1956 0156 4A46     		mov	r2, r9
 1957 0158 1268     		ldr	r2, [r2]
 1958 015a 002A     		cmp	r2, #0
 1959 015c 02D0     		beq	.L132
 657:../../../../../../Middlewares/Third_Party/LoRaWAN/Mac/region/RegionRU864.c ****                     }
 1960              		.loc 1 657 0
 1961 015e 0123     		movs	r3, #1
 1962 0160 0343     		orrs	r3, r0
 1963 0162 3B80     		strh	r3, [r7]
 1964              	.L132:
 1965              	.LVL167:
 655:../../../../../../Middlewares/Third_Party/LoRaWAN/Mac/region/RegionRU864.c ****                     {
 1966              		.loc 1 655 0
 1967 0164 4A46     		mov	r2, r9
 1968 0166 D268     		ldr	r2, [r2, #12]
ARM GAS  C:\Users\EBANO_~1\AppData\Local\Temp\ccazSBuk.s 			page 57


 1969 0168 002A     		cmp	r2, #0
 1970 016a 02D0     		beq	.L134
 657:../../../../../../Middlewares/Third_Party/LoRaWAN/Mac/region/RegionRU864.c ****                     }
 1971              		.loc 1 657 0
 1972 016c 0222     		movs	r2, #2
 1973 016e 1343     		orrs	r3, r2
 1974 0170 3B80     		strh	r3, [r7]
 1975              	.L134:
 1976              	.LVL168:
 655:../../../../../../Middlewares/Third_Party/LoRaWAN/Mac/region/RegionRU864.c ****                     {
 1977              		.loc 1 655 0
 1978 0172 4A46     		mov	r2, r9
 1979 0174 9269     		ldr	r2, [r2, #24]
 1980 0176 002A     		cmp	r2, #0
 1981 0178 02D0     		beq	.L137
 657:../../../../../../Middlewares/Third_Party/LoRaWAN/Mac/region/RegionRU864.c ****                     }
 1982              		.loc 1 657 0
 1983 017a 0422     		movs	r2, #4
 1984 017c 1343     		orrs	r3, r2
 1985 017e 3B80     		strh	r3, [r7]
 1986              	.L137:
 1987              	.LVL169:
 655:../../../../../../Middlewares/Third_Party/LoRaWAN/Mac/region/RegionRU864.c ****                     {
 1988              		.loc 1 655 0
 1989 0180 4A46     		mov	r2, r9
 1990 0182 526A     		ldr	r2, [r2, #36]
 1991 0184 002A     		cmp	r2, #0
 1992 0186 02D0     		beq	.L140
 657:../../../../../../Middlewares/Third_Party/LoRaWAN/Mac/region/RegionRU864.c ****                     }
 1993              		.loc 1 657 0
 1994 0188 0822     		movs	r2, #8
 1995 018a 1343     		orrs	r3, r2
 1996 018c 3B80     		strh	r3, [r7]
 1997              	.L140:
 1998              	.LVL170:
 655:../../../../../../Middlewares/Third_Party/LoRaWAN/Mac/region/RegionRU864.c ****                     {
 1999              		.loc 1 655 0
 2000 018e 4A46     		mov	r2, r9
 2001 0190 126B     		ldr	r2, [r2, #48]
 2002 0192 002A     		cmp	r2, #0
 2003 0194 02D0     		beq	.L143
 657:../../../../../../Middlewares/Third_Party/LoRaWAN/Mac/region/RegionRU864.c ****                     }
 2004              		.loc 1 657 0
 2005 0196 1022     		movs	r2, #16
 2006 0198 1343     		orrs	r3, r2
 2007 019a 3B80     		strh	r3, [r7]
 2008              	.L143:
 2009              	.LVL171:
 655:../../../../../../Middlewares/Third_Party/LoRaWAN/Mac/region/RegionRU864.c ****                     {
 2010              		.loc 1 655 0
 2011 019c 4A46     		mov	r2, r9
 2012 019e D26B     		ldr	r2, [r2, #60]
 2013 01a0 002A     		cmp	r2, #0
 2014 01a2 02D0     		beq	.L145
 657:../../../../../../Middlewares/Third_Party/LoRaWAN/Mac/region/RegionRU864.c ****                     }
 2015              		.loc 1 657 0
 2016 01a4 2022     		movs	r2, #32
ARM GAS  C:\Users\EBANO_~1\AppData\Local\Temp\ccazSBuk.s 			page 58


 2017 01a6 1343     		orrs	r3, r2
 2018 01a8 3B80     		strh	r3, [r7]
 2019              	.L145:
 2020              	.LVL172:
 655:../../../../../../Middlewares/Third_Party/LoRaWAN/Mac/region/RegionRU864.c ****                     {
 2021              		.loc 1 655 0
 2022 01aa 4A46     		mov	r2, r9
 2023 01ac 926C     		ldr	r2, [r2, #72]
 2024 01ae 002A     		cmp	r2, #0
 2025 01b0 02D0     		beq	.L148
 657:../../../../../../Middlewares/Third_Party/LoRaWAN/Mac/region/RegionRU864.c ****                     }
 2026              		.loc 1 657 0
 2027 01b2 4022     		movs	r2, #64
 2028 01b4 1343     		orrs	r3, r2
 2029 01b6 3B80     		strh	r3, [r7]
 2030              	.L148:
 2031              	.LVL173:
 655:../../../../../../Middlewares/Third_Party/LoRaWAN/Mac/region/RegionRU864.c ****                     {
 2032              		.loc 1 655 0
 2033 01b8 4A46     		mov	r2, r9
 2034 01ba 526D     		ldr	r2, [r2, #84]
 2035 01bc 002A     		cmp	r2, #0
 2036 01be 17D0     		beq	.L191
 657:../../../../../../Middlewares/Third_Party/LoRaWAN/Mac/region/RegionRU864.c ****                     }
 2037              		.loc 1 657 0
 2038 01c0 8022     		movs	r2, #128
 2039 01c2 1343     		orrs	r3, r2
 2040 01c4 3B80     		strh	r3, [r7]
 2041 01c6 0723     		movs	r3, #7
 2042 01c8 9846     		mov	r8, r3
 2043 01ca 2EE7     		b	.L123
 2044              	.LVL174:
 2045              	.L189:
 665:../../../../../../Middlewares/Third_Party/LoRaWAN/Mac/region/RegionRU864.c ****                     }
 2046              		.loc 1 665 0
 2047 01cc 4A46     		mov	r2, r9
 2048 01ce 1268     		ldr	r2, [r2]
 2049 01d0 511E     		subs	r1, r2, #1
 2050 01d2 8A41     		sbcs	r2, r2, r1
 2051 01d4 0632     		adds	r2, r2, #6
 2052 01d6 9046     		mov	r8, r2
 2053 01d8 43E7     		b	.L131
 2054              	.LVL175:
 2055              	.L190:
 2056              	.LBE79:
 701:../../../../../../Middlewares/Third_Party/LoRaWAN/Mac/region/RegionRU864.c ****         // Update the channels mask
 2057              		.loc 1 701 0
 2058 01da 4846     		mov	r0, r9
 2059              	.LVL176:
 2060 01dc 0222     		movs	r2, #2
 2061 01de 0021     		movs	r1, #0
 2062 01e0 7030     		adds	r0, r0, #112
 2063 01e2 FFF7FEFF 		bl	memset1
 2064              	.LVL177:
 703:../../../../../../Middlewares/Third_Party/LoRaWAN/Mac/region/RegionRU864.c ****     }
 2065              		.loc 1 703 0
 2066 01e6 7023     		movs	r3, #112
ARM GAS  C:\Users\EBANO_~1\AppData\Local\Temp\ccazSBuk.s 			page 59


 2067 01e8 4946     		mov	r1, r9
 2068 01ea 3A88     		ldrh	r2, [r7]
 2069 01ec CA52     		strh	r2, [r1, r3]
 2070 01ee 96E7     		b	.L126
 2071              	.LVL178:
 2072              	.L191:
 2073              	.LBB80:
 655:../../../../../../Middlewares/Third_Party/LoRaWAN/Mac/region/RegionRU864.c ****                     {
 2074              		.loc 1 655 0
 2075 01f0 0723     		movs	r3, #7
 2076 01f2 9846     		mov	r8, r3
 2077 01f4 19E7     		b	.L123
 2078              	.LVL179:
 2079              	.L173:
 665:../../../../../../Middlewares/Third_Party/LoRaWAN/Mac/region/RegionRU864.c ****                     }
 2080              		.loc 1 665 0
 2081 01f6 0622     		movs	r2, #6
 2082 01f8 9046     		mov	r8, r2
 2083              	.LVL180:
 2084 01fa 5CE7     		b	.L146
 2085              	.LVL181:
 2086              	.L172:
 2087 01fc 0622     		movs	r2, #6
 2088 01fe 9046     		mov	r8, r2
 2089              	.LVL182:
 2090 0200 52E7     		b	.L144
 2091              	.LVL183:
 2092              	.L171:
 2093 0202 0622     		movs	r2, #6
 2094 0204 9046     		mov	r8, r2
 2095              	.LVL184:
 2096 0206 48E7     		b	.L141
 2097              	.LVL185:
 2098              	.L170:
 2099 0208 0622     		movs	r2, #6
 2100 020a 9046     		mov	r8, r2
 2101              	.LVL186:
 2102 020c 3EE7     		b	.L138
 2103              	.LVL187:
 2104              	.L169:
 2105 020e 0622     		movs	r2, #6
 2106 0210 9046     		mov	r8, r2
 2107              	.LVL188:
 2108 0212 34E7     		b	.L135
 2109              	.LVL189:
 2110              	.L168:
 2111 0214 0622     		movs	r2, #6
 2112 0216 9046     		mov	r8, r2
 2113              	.LVL190:
 2114 0218 2AE7     		b	.L133
 2115              	.L193:
 2116 021a C046     		.align	2
 2117              	.L192:
 2118 021c 00000000 		.word	.LANCHOR1
 2119              	.LBE80:
 2120              		.cfi_endproc
 2121              	.LFE54:
ARM GAS  C:\Users\EBANO_~1\AppData\Local\Temp\ccazSBuk.s 			page 60


 2122              		.size	RegionRU864LinkAdrReq, .-RegionRU864LinkAdrReq
 2123              		.section	.text.RegionRU864RxParamSetupReq,"ax",%progbits
 2124              		.align	1
 2125              		.p2align 2,,3
 2126              		.global	RegionRU864RxParamSetupReq
 2127              		.syntax unified
 2128              		.code	16
 2129              		.thumb_func
 2130              		.fpu softvfp
 2131              		.type	RegionRU864RxParamSetupReq, %function
 2132              	RegionRU864RxParamSetupReq:
 2133              	.LFB55:
 716:../../../../../../Middlewares/Third_Party/LoRaWAN/Mac/region/RegionRU864.c ****     uint8_t status = 0x07;
 2134              		.loc 1 716 0
 2135              		.cfi_startproc
 2136              		@ args = 0, pretend = 0, frame = 8
 2137              		@ frame_needed = 0, uses_anonymous_args = 0
 2138              	.LVL191:
 2139 0000 70B5     		push	{r4, r5, r6, lr}
 2140              	.LCFI22:
 2141              		.cfi_def_cfa_offset 16
 2142              		.cfi_offset 4, -16
 2143              		.cfi_offset 5, -12
 2144              		.cfi_offset 6, -8
 2145              		.cfi_offset 14, -4
 2146              	.LBB81:
 2147              	.LBB82:
 111:../../../../../../Middlewares/Third_Party/LoRaWAN/Mac/region/RegionRU864.c ****     {
 2148              		.loc 1 111 0
 2149 0002 154B     		ldr	r3, .L204
 2150              	.LBE82:
 2151              	.LBE81:
 720:../../../../../../Middlewares/Third_Party/LoRaWAN/Mac/region/RegionRU864.c ****     {
 2152              		.loc 1 720 0
 2153 0004 4568     		ldr	r5, [r0, #4]
 2154              	.LVL192:
 2155              	.LBB86:
 2156              	.LBB83:
 111:../../../../../../Middlewares/Third_Party/LoRaWAN/Mac/region/RegionRU864.c ****     {
 2157              		.loc 1 111 0
 2158 0006 9B6A     		ldr	r3, [r3, #40]
 2159              	.LBE83:
 2160              	.LBE86:
 716:../../../../../../Middlewares/Third_Party/LoRaWAN/Mac/region/RegionRU864.c ****     uint8_t status = 0x07;
 2161              		.loc 1 716 0
 2162 0008 82B0     		sub	sp, sp, #8
 2163              	.LCFI23:
 2164              		.cfi_def_cfa_offset 24
 716:../../../../../../Middlewares/Third_Party/LoRaWAN/Mac/region/RegionRU864.c ****     uint8_t status = 0x07;
 2165              		.loc 1 716 0
 2166 000a 0400     		movs	r4, r0
 2167              	.LBB87:
 2168              	.LBB84:
 111:../../../../../../Middlewares/Third_Party/LoRaWAN/Mac/region/RegionRU864.c ****     {
 2169              		.loc 1 111 0
 2170 000c 2800     		movs	r0, r5
 2171              	.LVL193:
ARM GAS  C:\Users\EBANO_~1\AppData\Local\Temp\ccazSBuk.s 			page 61


 2172 000e 0193     		str	r3, [sp, #4]
 2173 0010 9847     		blx	r3
 2174              	.LVL194:
 2175 0012 0028     		cmp	r0, #0
 2176 0014 05D0     		beq	.L199
 117:../../../../../../Middlewares/Third_Party/LoRaWAN/Mac/region/RegionRU864.c ****     {
 2177              		.loc 1 117 0
 2178 0016 114B     		ldr	r3, .L204+4
 2179 0018 9C46     		mov	ip, r3
 2180 001a 114B     		ldr	r3, .L204+8
 2181 001c 6544     		add	r5, r5, ip
 2182              	.LVL195:
 2183 001e 9D42     		cmp	r5, r3
 2184 0020 17D9     		bls	.L203
 2185              	.LVL196:
 2186              	.L199:
 2187 0022 0425     		movs	r5, #4
 2188              	.LBE84:
 2189              	.LBE87:
 722:../../../../../../Middlewares/Third_Party/LoRaWAN/Mac/region/RegionRU864.c ****     }
 2190              		.loc 1 722 0
 2191 0024 0626     		movs	r6, #6
 2192              	.L195:
 2193              	.LVL197:
 726:../../../../../../Middlewares/Third_Party/LoRaWAN/Mac/region/RegionRU864.c ****     {
 2194              		.loc 1 726 0
 2195 0026 0020     		movs	r0, #0
 2196 0028 0722     		movs	r2, #7
 2197 002a 2056     		ldrsb	r0, [r4, r0]
 2198 002c 0021     		movs	r1, #0
 2199 002e FFF7FEFF 		bl	RegionCommonValueInRange
 2200              	.LVL198:
 2201 0032 0028     		cmp	r0, #0
 2202 0034 00D0     		beq	.L196
 2203 0036 3500     		movs	r5, r6
 2204              	.L196:
 2205              	.LVL199:
 732:../../../../../../Middlewares/Third_Party/LoRaWAN/Mac/region/RegionRU864.c ****     {
 2206              		.loc 1 732 0
 2207 0038 0120     		movs	r0, #1
 2208 003a 0522     		movs	r2, #5
 2209 003c 2056     		ldrsb	r0, [r4, r0]
 2210 003e 0021     		movs	r1, #0
 2211 0040 FFF7FEFF 		bl	RegionCommonValueInRange
 2212              	.LVL200:
 2213 0044 0028     		cmp	r0, #0
 2214 0046 01D1     		bne	.L197
 734:../../../../../../Middlewares/Third_Party/LoRaWAN/Mac/region/RegionRU864.c ****     }
 2215              		.loc 1 734 0
 2216 0048 FB23     		movs	r3, #251
 2217 004a 1D40     		ands	r5, r3
 2218              	.LVL201:
 2219              	.L197:
 738:../../../../../../Middlewares/Third_Party/LoRaWAN/Mac/region/RegionRU864.c **** 
 2220              		.loc 1 738 0
 2221 004c 2800     		movs	r0, r5
 2222 004e 02B0     		add	sp, sp, #8
ARM GAS  C:\Users\EBANO_~1\AppData\Local\Temp\ccazSBuk.s 			page 62


 2223              		@ sp needed
 2224              	.LVL202:
 2225              	.LVL203:
 2226 0050 70BD     		pop	{r4, r5, r6, pc}
 2227              	.LVL204:
 2228              	.L203:
 2229              	.LBB88:
 2230              	.LBB85:
 117:../../../../../../Middlewares/Third_Party/LoRaWAN/Mac/region/RegionRU864.c ****     {
 2231              		.loc 1 117 0
 2232 0052 0525     		movs	r5, #5
 2233              	.LVL205:
 2234              	.LBE85:
 2235              	.LBE88:
 717:../../../../../../Middlewares/Third_Party/LoRaWAN/Mac/region/RegionRU864.c **** 
 2236              		.loc 1 717 0
 2237 0054 0726     		movs	r6, #7
 2238 0056 E6E7     		b	.L195
 2239              	.L205:
 2240              		.align	2
 2241              	.L204:
 2242 0058 00000000 		.word	Radio
 2243 005c 006880CC 		.word	-864000000
 2244 0060 808D5B00 		.word	6000000
 2245              		.cfi_endproc
 2246              	.LFE55:
 2247              		.size	RegionRU864RxParamSetupReq, .-RegionRU864RxParamSetupReq
 2248              		.section	.text.RegionRU864NewChannelReq,"ax",%progbits
 2249              		.align	1
 2250              		.p2align 2,,3
 2251              		.global	RegionRU864NewChannelReq
 2252              		.syntax unified
 2253              		.code	16
 2254              		.thumb_func
 2255              		.fpu softvfp
 2256              		.type	RegionRU864NewChannelReq, %function
 2257              	RegionRU864NewChannelReq:
 2258              	.LFB56:
 741:../../../../../../Middlewares/Third_Party/LoRaWAN/Mac/region/RegionRU864.c ****     uint8_t status = 0x03;
 2259              		.loc 1 741 0
 2260              		.cfi_startproc
 2261              		@ args = 0, pretend = 0, frame = 8
 2262              		@ frame_needed = 0, uses_anonymous_args = 0
 2263              	.LVL206:
 2264 0000 F0B5     		push	{r4, r5, r6, r7, lr}
 2265              	.LCFI24:
 2266              		.cfi_def_cfa_offset 20
 2267              		.cfi_offset 4, -20
 2268              		.cfi_offset 5, -16
 2269              		.cfi_offset 6, -12
 2270              		.cfi_offset 7, -8
 2271              		.cfi_offset 14, -4
 2272 0002 C646     		mov	lr, r8
 2273 0004 00B5     		push	{lr}
 2274              	.LCFI25:
 2275              		.cfi_def_cfa_offset 24
 2276              		.cfi_offset 8, -24
ARM GAS  C:\Users\EBANO_~1\AppData\Local\Temp\ccazSBuk.s 			page 63


 746:../../../../../../Middlewares/Third_Party/LoRaWAN/Mac/region/RegionRU864.c ****     {
 2277              		.loc 1 746 0
 2278 0006 0568     		ldr	r5, [r0]
 741:../../../../../../Middlewares/Third_Party/LoRaWAN/Mac/region/RegionRU864.c ****     uint8_t status = 0x03;
 2279              		.loc 1 741 0
 2280 0008 82B0     		sub	sp, sp, #8
 2281              	.LCFI26:
 2282              		.cfi_def_cfa_offset 32
 746:../../../../../../Middlewares/Third_Party/LoRaWAN/Mac/region/RegionRU864.c ****     {
 2283              		.loc 1 746 0
 2284 000a 2B68     		ldr	r3, [r5]
 2285 000c 0479     		ldrb	r4, [r0, #4]
 2286 000e 002B     		cmp	r3, #0
 2287 0010 19D1     		bne	.L207
 2288              	.LVL207:
 2289              	.LBB95:
 2290              	.LBB96:
 961:../../../../../../Middlewares/Third_Party/LoRaWAN/Mac/region/RegionRU864.c ****     {
 2291              		.loc 1 961 0
 2292 0012 012C     		cmp	r4, #1
 2293 0014 12D9     		bls	.L208
 967:../../../../../../Middlewares/Third_Party/LoRaWAN/Mac/region/RegionRU864.c **** 
 2294              		.loc 1 967 0
 2295 0016 6000     		lsls	r0, r4, #1
 2296              	.LVL208:
 2297 0018 364D     		ldr	r5, .L228
 2298 001a 0019     		adds	r0, r0, r4
 2299 001c 8000     		lsls	r0, r0, #2
 2300 001e 0C22     		movs	r2, #12
 2301 0020 0021     		movs	r1, #0
 2302 0022 2818     		adds	r0, r5, r0
 2303 0024 FFF7FEFF 		bl	memset
 2304              	.LVL209:
 2305              		.loc 1 969 0
 2306 0028 2800     		movs	r0, r5
 2307 002a 0822     		movs	r2, #8
 2308 002c 7030     		adds	r0, r0, #112
 2309 002e 2100     		movs	r1, r4
 2310 0030 FFF7FEFF 		bl	RegionCommonChanDisable
 2311              	.LVL210:
 2312 0034 0300     		movs	r3, r0
 2313              	.LVL211:
 2314              	.LBE96:
 2315              	.LBE95:
 742:../../../../../../Middlewares/Third_Party/LoRaWAN/Mac/region/RegionRU864.c ****     ChannelAddParams_t channelAdd;
 2316              		.loc 1 742 0
 2317 0036 0320     		movs	r0, #3
 751:../../../../../../Middlewares/Third_Party/LoRaWAN/Mac/region/RegionRU864.c ****         {
 2318              		.loc 1 751 0
 2319 0038 002B     		cmp	r3, #0
 2320 003a 00D1     		bne	.L221
 2321              	.L208:
 753:../../../../../../Middlewares/Third_Party/LoRaWAN/Mac/region/RegionRU864.c ****         }
 2322              		.loc 1 753 0
 2323 003c 0020     		movs	r0, #0
 2324              	.L221:
 791:../../../../../../Middlewares/Third_Party/LoRaWAN/Mac/region/RegionRU864.c **** 
ARM GAS  C:\Users\EBANO_~1\AppData\Local\Temp\ccazSBuk.s 			page 64


 2325              		.loc 1 791 0
 2326 003e 02B0     		add	sp, sp, #8
 2327              		@ sp needed
 2328 0040 04BC     		pop	{r2}
 2329 0042 9046     		mov	r8, r2
 2330 0044 F0BD     		pop	{r4, r5, r6, r7, pc}
 2331              	.LVL212:
 2332              	.L207:
 2333              	.LBB97:
 2334              	.LBB98:
 904:../../../../../../Middlewares/Third_Party/LoRaWAN/Mac/region/RegionRU864.c ****     {
 2335              		.loc 1 904 0
 2336 0046 A31E     		subs	r3, r4, #2
 2337 0048 052B     		cmp	r3, #5
 2338 004a F7D8     		bhi	.L208
 915:../../../../../../Middlewares/Third_Party/LoRaWAN/Mac/region/RegionRU864.c ****     {
 2339              		.loc 1 915 0
 2340 004c 287A     		ldrb	r0, [r5, #8]
 2341              	.LVL213:
 2342 004e 0722     		movs	r2, #7
 2343 0050 0007     		lsls	r0, r0, #28
 2344 0052 0021     		movs	r1, #0
 2345 0054 0017     		asrs	r0, r0, #28
 2346 0056 FFF7FEFF 		bl	RegionCommonValueInRange
 2347              	.LVL214:
 2348 005a 0600     		movs	r6, r0
 2349              	.LVL215:
 919:../../../../../../Middlewares/Third_Party/LoRaWAN/Mac/region/RegionRU864.c ****     {
 2350              		.loc 1 919 0
 2351 005c 0820     		movs	r0, #8
 2352 005e 2856     		ldrsb	r0, [r5, r0]
 2353 0060 0722     		movs	r2, #7
 2354 0062 0011     		asrs	r0, r0, #4
 2355 0064 0021     		movs	r1, #0
 2356 0066 FFF7FEFF 		bl	RegionCommonValueInRange
 2357              	.LVL216:
 921:../../../../../../Middlewares/Third_Party/LoRaWAN/Mac/region/RegionRU864.c ****     }
 2358              		.loc 1 921 0
 2359 006a 0127     		movs	r7, #1
 919:../../../../../../Middlewares/Third_Party/LoRaWAN/Mac/region/RegionRU864.c ****     {
 2360              		.loc 1 919 0
 2361 006c 0028     		cmp	r0, #0
 2362 006e 25D1     		bne	.L226
 2363              	.LVL217:
 2364              	.L210:
 2365 0070 214B     		ldr	r3, .L228+4
 2366 0072 2E68     		ldr	r6, [r5]
 2367 0074 9B6A     		ldr	r3, [r3, #40]
 2368              	.LBB99:
 2369              	.LBB100:
 111:../../../../../../Middlewares/Third_Party/LoRaWAN/Mac/region/RegionRU864.c ****     {
 2370              		.loc 1 111 0
 2371 0076 3000     		movs	r0, r6
 2372 0078 0193     		str	r3, [sp, #4]
 2373              	.LBE100:
 2374              	.LBE99:
 923:../../../../../../Middlewares/Third_Party/LoRaWAN/Mac/region/RegionRU864.c ****     {
ARM GAS  C:\Users\EBANO_~1\AppData\Local\Temp\ccazSBuk.s 			page 65


 2375              		.loc 1 923 0
 2376 007a 2B7A     		ldrb	r3, [r5, #8]
 2377 007c 1A07     		lsls	r2, r3, #28
 2378 007e 5BB2     		sxtb	r3, r3
 2379 0080 1217     		asrs	r2, r2, #28
 2380 0082 1B11     		asrs	r3, r3, #4
 2381 0084 9A42     		cmp	r2, r3
 2382 0086 0BDD     		ble	.L227
 2383              	.LVL218:
 2384              	.LBB103:
 2385              	.LBB101:
 111:../../../../../../Middlewares/Third_Party/LoRaWAN/Mac/region/RegionRU864.c ****     {
 2386              		.loc 1 111 0
 2387 0088 019B     		ldr	r3, [sp, #4]
 2388 008a 9847     		blx	r3
 2389              	.LVL219:
 2390 008c 0028     		cmp	r0, #0
 2391 008e D5D0     		beq	.L208
 117:../../../../../../Middlewares/Third_Party/LoRaWAN/Mac/region/RegionRU864.c ****     {
 2392              		.loc 1 117 0
 2393 0090 1A4B     		ldr	r3, .L228+8
 2394 0092 9C46     		mov	ip, r3
 2395 0094 1A4B     		ldr	r3, .L228+12
 2396 0096 6644     		add	r6, r6, ip
 2397 0098 9E42     		cmp	r6, r3
 2398 009a CFD8     		bhi	.L208
 2399              	.LVL220:
 2400              	.L216:
 2401              	.LBE101:
 2402              	.LBE103:
 2403              	.LBE98:
 2404              	.LBE97:
 774:../../../../../../Middlewares/Third_Party/LoRaWAN/Mac/region/RegionRU864.c ****                 break;
 2405              		.loc 1 774 0
 2406 009c 0120     		movs	r0, #1
 2407 009e CEE7     		b	.L221
 2408              	.LVL221:
 2409              	.L227:
 2410              	.LBB108:
 2411              	.LBB105:
 2412              	.LBB104:
 2413              	.LBB102:
 111:../../../../../../Middlewares/Third_Party/LoRaWAN/Mac/region/RegionRU864.c ****     {
 2414              		.loc 1 111 0
 2415 00a0 019B     		ldr	r3, [sp, #4]
 2416 00a2 9847     		blx	r3
 2417              	.LVL222:
 2418 00a4 0028     		cmp	r0, #0
 2419 00a6 05D0     		beq	.L212
 117:../../../../../../Middlewares/Third_Party/LoRaWAN/Mac/region/RegionRU864.c ****     {
 2420              		.loc 1 117 0
 2421 00a8 144B     		ldr	r3, .L228+8
 2422 00aa 9C46     		mov	ip, r3
 2423 00ac 144B     		ldr	r3, .L228+12
 2424 00ae 6644     		add	r6, r6, ip
 2425 00b0 9E42     		cmp	r6, r3
 2426 00b2 07D9     		bls	.L213
ARM GAS  C:\Users\EBANO_~1\AppData\Local\Temp\ccazSBuk.s 			page 66


 2427              	.L212:
 2428              	.LVL223:
 2429              	.LBE102:
 2430              	.LBE104:
 938:../../../../../../Middlewares/Third_Party/LoRaWAN/Mac/region/RegionRU864.c ****     {
 2431              		.loc 1 938 0
 2432 00b4 002F     		cmp	r7, #0
 2433 00b6 C1D1     		bne	.L208
 2434              	.LBE105:
 2435              	.LBE108:
 769:../../../../../../Middlewares/Third_Party/LoRaWAN/Mac/region/RegionRU864.c ****                 break;
 2436              		.loc 1 769 0
 2437 00b8 0220     		movs	r0, #2
 2438 00ba C0E7     		b	.L221
 2439              	.LVL224:
 2440              	.L226:
 2441              	.LBB109:
 2442              	.LBB106:
 915:../../../../../../Middlewares/Third_Party/LoRaWAN/Mac/region/RegionRU864.c ****     {
 2443              		.loc 1 915 0
 2444 00bc 7742     		rsbs	r7, r6, #0
 2445 00be 7741     		adcs	r7, r7, r6
 2446              	.LVL225:
 2447 00c0 FFB2     		uxtb	r7, r7
 2448 00c2 D5E7     		b	.L210
 2449              	.LVL226:
 2450              	.L213:
 938:../../../../../../Middlewares/Third_Party/LoRaWAN/Mac/region/RegionRU864.c ****     {
 2451              		.loc 1 938 0
 2452 00c4 002F     		cmp	r7, #0
 2453 00c6 E9D1     		bne	.L216
 951:../../../../../../Middlewares/Third_Party/LoRaWAN/Mac/region/RegionRU864.c ****     NvmCtx.Channels[id].Band = 0;
 2454              		.loc 1 951 0
 2455 00c8 0A4B     		ldr	r3, .L228
 2456 00ca 6600     		lsls	r6, r4, #1
 2457 00cc 9846     		mov	r8, r3
 2458 00ce 3619     		adds	r6, r6, r4
 2459 00d0 B600     		lsls	r6, r6, #2
 2460 00d2 4644     		add	r6, r6, r8
 2461 00d4 0C22     		movs	r2, #12
 2462 00d6 2900     		movs	r1, r5
 2463 00d8 3000     		movs	r0, r6
 2464 00da FFF7FEFF 		bl	memcpy1
 2465              	.LVL227:
 953:../../../../../../Middlewares/Third_Party/LoRaWAN/Mac/region/RegionRU864.c ****     return LORAMAC_STATUS_OK;
 2466              		.loc 1 953 0
 2467 00de 0122     		movs	r2, #1
 2468 00e0 7021     		movs	r1, #112
 2469 00e2 4346     		mov	r3, r8
 2470 00e4 A240     		lsls	r2, r2, r4
 952:../../../../../../Middlewares/Third_Party/LoRaWAN/Mac/region/RegionRU864.c ****     NvmCtx.ChannelsMask[0] |= ( 1 << id );
 2471              		.loc 1 952 0
 2472 00e6 7772     		strb	r7, [r6, #9]
 953:../../../../../../Middlewares/Third_Party/LoRaWAN/Mac/region/RegionRU864.c ****     return LORAMAC_STATUS_OK;
 2473              		.loc 1 953 0
 2474 00e8 5B5A     		ldrh	r3, [r3, r1]
 2475              	.LBE106:
ARM GAS  C:\Users\EBANO_~1\AppData\Local\Temp\ccazSBuk.s 			page 67


 2476              	.LBE109:
 742:../../../../../../Middlewares/Third_Party/LoRaWAN/Mac/region/RegionRU864.c ****     ChannelAddParams_t channelAdd;
 2477              		.loc 1 742 0
 2478 00ea 0320     		movs	r0, #3
 2479              	.LBB110:
 2480              	.LBB107:
 953:../../../../../../Middlewares/Third_Party/LoRaWAN/Mac/region/RegionRU864.c ****     return LORAMAC_STATUS_OK;
 2481              		.loc 1 953 0
 2482 00ec 1343     		orrs	r3, r2
 2483 00ee 4246     		mov	r2, r8
 2484 00f0 5352     		strh	r3, [r2, r1]
 2485              	.LVL228:
 2486              	.LBE107:
 2487              	.LBE110:
 790:../../../../../../Middlewares/Third_Party/LoRaWAN/Mac/region/RegionRU864.c **** }
 2488              		.loc 1 790 0
 2489 00f2 A4E7     		b	.L221
 2490              	.L229:
 2491              		.align	2
 2492              	.L228:
 2493 00f4 00000000 		.word	.LANCHOR1
 2494 00f8 00000000 		.word	Radio
 2495 00fc 006880CC 		.word	-864000000
 2496 0100 808D5B00 		.word	6000000
 2497              		.cfi_endproc
 2498              	.LFE56:
 2499              		.size	RegionRU864NewChannelReq, .-RegionRU864NewChannelReq
 2500              		.section	.text.RegionRU864TxParamSetupReq,"ax",%progbits
 2501              		.align	1
 2502              		.p2align 2,,3
 2503              		.global	RegionRU864TxParamSetupReq
 2504              		.syntax unified
 2505              		.code	16
 2506              		.thumb_func
 2507              		.fpu softvfp
 2508              		.type	RegionRU864TxParamSetupReq, %function
 2509              	RegionRU864TxParamSetupReq:
 2510              	.LFB57:
 794:../../../../../../Middlewares/Third_Party/LoRaWAN/Mac/region/RegionRU864.c ****     return -1;
 2511              		.loc 1 794 0
 2512              		.cfi_startproc
 2513              		@ args = 0, pretend = 0, frame = 0
 2514              		@ frame_needed = 0, uses_anonymous_args = 0
 2515              		@ link register save eliminated.
 2516              	.LVL229:
 795:../../../../../../Middlewares/Third_Party/LoRaWAN/Mac/region/RegionRU864.c **** }
 2517              		.loc 1 795 0
 2518 0000 0120     		movs	r0, #1
 2519              	.LVL230:
 796:../../../../../../Middlewares/Third_Party/LoRaWAN/Mac/region/RegionRU864.c **** 
 2520              		.loc 1 796 0
 2521              		@ sp needed
 2522 0002 4042     		rsbs	r0, r0, #0
 2523 0004 7047     		bx	lr
 2524              		.cfi_endproc
 2525              	.LFE57:
 2526              		.size	RegionRU864TxParamSetupReq, .-RegionRU864TxParamSetupReq
ARM GAS  C:\Users\EBANO_~1\AppData\Local\Temp\ccazSBuk.s 			page 68


 2527 0006 C046     		.section	.text.RegionRU864DlChannelReq,"ax",%progbits
 2528              		.align	1
 2529              		.p2align 2,,3
 2530              		.global	RegionRU864DlChannelReq
 2531              		.syntax unified
 2532              		.code	16
 2533              		.thumb_func
 2534              		.fpu softvfp
 2535              		.type	RegionRU864DlChannelReq, %function
 2536              	RegionRU864DlChannelReq:
 2537              	.LFB58:
 799:../../../../../../Middlewares/Third_Party/LoRaWAN/Mac/region/RegionRU864.c ****     uint8_t status = 0x03;
 2538              		.loc 1 799 0
 2539              		.cfi_startproc
 2540              		@ args = 0, pretend = 0, frame = 8
 2541              		@ frame_needed = 0, uses_anonymous_args = 0
 2542              	.LVL231:
 2543 0000 30B5     		push	{r4, r5, lr}
 2544              	.LCFI27:
 2545              		.cfi_def_cfa_offset 12
 2546              		.cfi_offset 4, -12
 2547              		.cfi_offset 5, -8
 2548              		.cfi_offset 14, -4
 2549              	.LBB111:
 2550              	.LBB112:
 111:../../../../../../Middlewares/Third_Party/LoRaWAN/Mac/region/RegionRU864.c ****     {
 2551              		.loc 1 111 0
 2552 0002 174B     		ldr	r3, .L243
 2553              	.LBE112:
 2554              	.LBE111:
 803:../../../../../../Middlewares/Third_Party/LoRaWAN/Mac/region/RegionRU864.c ****     {
 2555              		.loc 1 803 0
 2556 0004 4468     		ldr	r4, [r0, #4]
 2557              	.LVL232:
 2558              	.LBB115:
 2559              	.LBB113:
 111:../../../../../../Middlewares/Third_Party/LoRaWAN/Mac/region/RegionRU864.c ****     {
 2560              		.loc 1 111 0
 2561 0006 9B6A     		ldr	r3, [r3, #40]
 2562              	.LBE113:
 2563              	.LBE115:
 799:../../../../../../Middlewares/Third_Party/LoRaWAN/Mac/region/RegionRU864.c ****     uint8_t status = 0x03;
 2564              		.loc 1 799 0
 2565 0008 83B0     		sub	sp, sp, #12
 2566              	.LCFI28:
 2567              		.cfi_def_cfa_offset 24
 799:../../../../../../Middlewares/Third_Party/LoRaWAN/Mac/region/RegionRU864.c ****     uint8_t status = 0x03;
 2568              		.loc 1 799 0
 2569 000a 0500     		movs	r5, r0
 2570              	.LBB116:
 2571              	.LBB114:
 111:../../../../../../Middlewares/Third_Party/LoRaWAN/Mac/region/RegionRU864.c ****     {
 2572              		.loc 1 111 0
 2573 000c 2000     		movs	r0, r4
 2574              	.LVL233:
 2575 000e 0193     		str	r3, [sp, #4]
 2576 0010 9847     		blx	r3
ARM GAS  C:\Users\EBANO_~1\AppData\Local\Temp\ccazSBuk.s 			page 69


 2577              	.LVL234:
 2578 0012 0028     		cmp	r0, #0
 2579 0014 19D0     		beq	.L232
 117:../../../../../../Middlewares/Third_Party/LoRaWAN/Mac/region/RegionRU864.c ****     {
 2580              		.loc 1 117 0
 2581 0016 1348     		ldr	r0, .L243+4
 2582 0018 2978     		ldrb	r1, [r5]
 2583 001a 8446     		mov	ip, r0
 2584 001c 4B00     		lsls	r3, r1, #1
 2585 001e 5B18     		adds	r3, r3, r1
 2586 0020 114A     		ldr	r2, .L243+8
 2587 0022 1248     		ldr	r0, .L243+12
 2588 0024 9B00     		lsls	r3, r3, #2
 2589 0026 6444     		add	r4, r4, ip
 2590              	.LVL235:
 2591 0028 9958     		ldr	r1, [r3, r2]
 2592 002a 8442     		cmp	r4, r0
 2593 002c 05D9     		bls	.L242
 2594              	.LVL236:
 2595              	.LBE114:
 2596              	.LBE116:
 805:../../../../../../Middlewares/Third_Party/LoRaWAN/Mac/region/RegionRU864.c ****     }
 2597              		.loc 1 805 0
 2598 002e 0800     		movs	r0, r1
 2599 0030 411E     		subs	r1, r0, #1
 2600 0032 8841     		sbcs	r0, r0, r1
 2601 0034 4000     		lsls	r0, r0, #1
 2602              	.LVL237:
 2603              	.L236:
 821:../../../../../../Middlewares/Third_Party/LoRaWAN/Mac/region/RegionRU864.c **** 
 2604              		.loc 1 821 0
 2605 0036 03B0     		add	sp, sp, #12
 2606              		@ sp needed
 2607              	.LVL238:
 2608 0038 30BD     		pop	{r4, r5, pc}
 2609              	.LVL239:
 2610              	.L242:
 809:../../../../../../Middlewares/Third_Party/LoRaWAN/Mac/region/RegionRU864.c ****     {
 2611              		.loc 1 809 0
 2612 003a 0120     		movs	r0, #1
 2613 003c 0029     		cmp	r1, #0
 2614 003e FAD0     		beq	.L236
 817:../../../../../../Middlewares/Third_Party/LoRaWAN/Mac/region/RegionRU864.c ****     }
 2615              		.loc 1 817 0
 2616 0040 D318     		adds	r3, r2, r3
 2617 0042 6A68     		ldr	r2, [r5, #4]
 2618 0044 0320     		movs	r0, #3
 2619 0046 5A60     		str	r2, [r3, #4]
 2620 0048 F5E7     		b	.L236
 2621              	.LVL240:
 2622              	.L232:
 809:../../../../../../Middlewares/Third_Party/LoRaWAN/Mac/region/RegionRU864.c ****     {
 2623              		.loc 1 809 0
 2624 004a 2A78     		ldrb	r2, [r5]
 2625 004c 5300     		lsls	r3, r2, #1
 2626 004e 9B18     		adds	r3, r3, r2
 2627 0050 054A     		ldr	r2, .L243+8
ARM GAS  C:\Users\EBANO_~1\AppData\Local\Temp\ccazSBuk.s 			page 70


 2628 0052 9B00     		lsls	r3, r3, #2
 2629 0054 9858     		ldr	r0, [r3, r2]
 2630 0056 431E     		subs	r3, r0, #1
 2631 0058 9841     		sbcs	r0, r0, r3
 2632 005a 4000     		lsls	r0, r0, #1
 2633 005c EBE7     		b	.L236
 2634              	.L244:
 2635 005e C046     		.align	2
 2636              	.L243:
 2637 0060 00000000 		.word	Radio
 2638 0064 006880CC 		.word	-864000000
 2639 0068 00000000 		.word	.LANCHOR1
 2640 006c 808D5B00 		.word	6000000
 2641              		.cfi_endproc
 2642              	.LFE58:
 2643              		.size	RegionRU864DlChannelReq, .-RegionRU864DlChannelReq
 2644              		.section	.text.RegionRU864AlternateDr,"ax",%progbits
 2645              		.align	1
 2646              		.p2align 2,,3
 2647              		.global	RegionRU864AlternateDr
 2648              		.syntax unified
 2649              		.code	16
 2650              		.thumb_func
 2651              		.fpu softvfp
 2652              		.type	RegionRU864AlternateDr, %function
 2653              	RegionRU864AlternateDr:
 2654              	.LFB59:
 824:../../../../../../Middlewares/Third_Party/LoRaWAN/Mac/region/RegionRU864.c ****     return currentDr;
 2655              		.loc 1 824 0
 2656              		.cfi_startproc
 2657              		@ args = 0, pretend = 0, frame = 0
 2658              		@ frame_needed = 0, uses_anonymous_args = 0
 2659              		@ link register save eliminated.
 2660              	.LVL241:
 826:../../../../../../Middlewares/Third_Party/LoRaWAN/Mac/region/RegionRU864.c **** 
 2661              		.loc 1 826 0
 2662              		@ sp needed
 2663 0000 7047     		bx	lr
 2664              		.cfi_endproc
 2665              	.LFE59:
 2666              		.size	RegionRU864AlternateDr, .-RegionRU864AlternateDr
 2667 0002 C046     		.section	.text.RegionRU864CalcBackOff,"ax",%progbits
 2668              		.align	1
 2669              		.p2align 2,,3
 2670              		.global	RegionRU864CalcBackOff
 2671              		.syntax unified
 2672              		.code	16
 2673              		.thumb_func
 2674              		.fpu softvfp
 2675              		.type	RegionRU864CalcBackOff, %function
 2676              	RegionRU864CalcBackOff:
 2677              	.LFB60:
 829:../../../../../../Middlewares/Third_Party/LoRaWAN/Mac/region/RegionRU864.c ****     RegionCommonCalcBackOffParams_t calcBackOffParams;
 2678              		.loc 1 829 0
 2679              		.cfi_startproc
 2680              		@ args = 0, pretend = 0, frame = 24
 2681              		@ frame_needed = 0, uses_anonymous_args = 0
ARM GAS  C:\Users\EBANO_~1\AppData\Local\Temp\ccazSBuk.s 			page 71


 2682              	.LVL242:
 2683 0000 00B5     		push	{lr}
 2684              	.LCFI29:
 2685              		.cfi_def_cfa_offset 4
 2686              		.cfi_offset 14, -4
 832:../../../../../../Middlewares/Third_Party/LoRaWAN/Mac/region/RegionRU864.c ****     calcBackOffParams.Bands = NvmCtx.Bands;
 2687              		.loc 1 832 0
 2688 0002 0B4A     		ldr	r2, .L247
 829:../../../../../../Middlewares/Third_Party/LoRaWAN/Mac/region/RegionRU864.c ****     RegionCommonCalcBackOffParams_t calcBackOffParams;
 2689              		.loc 1 829 0
 2690 0004 87B0     		sub	sp, sp, #28
 2691              	.LCFI30:
 2692              		.cfi_def_cfa_offset 32
 832:../../../../../../Middlewares/Third_Party/LoRaWAN/Mac/region/RegionRU864.c ****     calcBackOffParams.Bands = NvmCtx.Bands;
 2693              		.loc 1 832 0
 2694 0006 0192     		str	r2, [sp, #4]
 833:../../../../../../Middlewares/Third_Party/LoRaWAN/Mac/region/RegionRU864.c ****     calcBackOffParams.LastTxIsJoinRequest = calcBackOff->LastTxIsJoinRequest;
 2695              		.loc 1 833 0
 2696 0008 6032     		adds	r2, r2, #96
 2697 000a 0292     		str	r2, [sp, #8]
 834:../../../../../../Middlewares/Third_Party/LoRaWAN/Mac/region/RegionRU864.c ****     calcBackOffParams.Joined = calcBackOff->Joined;
 2698              		.loc 1 834 0
 2699 000c 4278     		ldrb	r2, [r0, #1]
 832:../../../../../../Middlewares/Third_Party/LoRaWAN/Mac/region/RegionRU864.c ****     calcBackOffParams.Bands = NvmCtx.Bands;
 2700              		.loc 1 832 0
 2701 000e 01AB     		add	r3, sp, #4
 834:../../../../../../Middlewares/Third_Party/LoRaWAN/Mac/region/RegionRU864.c ****     calcBackOffParams.Joined = calcBackOff->Joined;
 2702              		.loc 1 834 0
 2703 0010 1A72     		strb	r2, [r3, #8]
 835:../../../../../../Middlewares/Third_Party/LoRaWAN/Mac/region/RegionRU864.c ****     calcBackOffParams.DutyCycleEnabled = calcBackOff->DutyCycleEnabled;
 2704              		.loc 1 835 0
 2705 0012 0278     		ldrb	r2, [r0]
 2706 0014 5A72     		strb	r2, [r3, #9]
 836:../../../../../../Middlewares/Third_Party/LoRaWAN/Mac/region/RegionRU864.c ****     calcBackOffParams.Channel = calcBackOff->Channel;
 2707              		.loc 1 836 0
 2708 0016 8278     		ldrb	r2, [r0, #2]
 2709 0018 9A72     		strb	r2, [r3, #10]
 837:../../../../../../Middlewares/Third_Party/LoRaWAN/Mac/region/RegionRU864.c ****     calcBackOffParams.ElapsedTime = calcBackOff->ElapsedTime;
 2710              		.loc 1 837 0
 2711 001a C278     		ldrb	r2, [r0, #3]
 2712 001c DA72     		strb	r2, [r3, #11]
 838:../../../../../../Middlewares/Third_Party/LoRaWAN/Mac/region/RegionRU864.c ****     calcBackOffParams.TxTimeOnAir = calcBackOff->TxTimeOnAir;
 2713              		.loc 1 838 0
 2714 001e 4268     		ldr	r2, [r0, #4]
 2715 0020 0492     		str	r2, [sp, #16]
 839:../../../../../../Middlewares/Third_Party/LoRaWAN/Mac/region/RegionRU864.c **** 
 2716              		.loc 1 839 0
 2717 0022 8268     		ldr	r2, [r0, #8]
 841:../../../../../../Middlewares/Third_Party/LoRaWAN/Mac/region/RegionRU864.c **** }
 2718              		.loc 1 841 0
 2719 0024 1800     		movs	r0, r3
 2720              	.LVL243:
 839:../../../../../../Middlewares/Third_Party/LoRaWAN/Mac/region/RegionRU864.c **** 
 2721              		.loc 1 839 0
 2722 0026 0592     		str	r2, [sp, #20]
 841:../../../../../../Middlewares/Third_Party/LoRaWAN/Mac/region/RegionRU864.c **** }
 2723              		.loc 1 841 0
ARM GAS  C:\Users\EBANO_~1\AppData\Local\Temp\ccazSBuk.s 			page 72


 2724 0028 FFF7FEFF 		bl	RegionCommonCalcBackOff
 2725              	.LVL244:
 842:../../../../../../Middlewares/Third_Party/LoRaWAN/Mac/region/RegionRU864.c **** 
 2726              		.loc 1 842 0
 2727 002c 07B0     		add	sp, sp, #28
 2728              		@ sp needed
 2729 002e 00BD     		pop	{pc}
 2730              	.L248:
 2731              		.align	2
 2732              	.L247:
 2733 0030 00000000 		.word	.LANCHOR1
 2734              		.cfi_endproc
 2735              	.LFE60:
 2736              		.size	RegionRU864CalcBackOff, .-RegionRU864CalcBackOff
 2737              		.section	.text.RegionRU864NextChannel,"ax",%progbits
 2738              		.align	1
 2739              		.p2align 2,,3
 2740              		.global	RegionRU864NextChannel
 2741              		.syntax unified
 2742              		.code	16
 2743              		.thumb_func
 2744              		.fpu softvfp
 2745              		.type	RegionRU864NextChannel, %function
 2746              	RegionRU864NextChannel:
 2747              	.LFB61:
 845:../../../../../../Middlewares/Third_Party/LoRaWAN/Mac/region/RegionRU864.c ****     uint8_t nbEnabledChannels = 0;
 2748              		.loc 1 845 0
 2749              		.cfi_startproc
 2750              		@ args = 0, pretend = 0, frame = 24
 2751              		@ frame_needed = 0, uses_anonymous_args = 0
 2752              	.LVL245:
 2753 0000 F0B5     		push	{r4, r5, r6, r7, lr}
 2754              	.LCFI31:
 2755              		.cfi_def_cfa_offset 20
 2756              		.cfi_offset 4, -20
 2757              		.cfi_offset 5, -16
 2758              		.cfi_offset 6, -12
 2759              		.cfi_offset 7, -8
 2760              		.cfi_offset 14, -4
 2761 0002 4E46     		mov	r6, r9
 2762 0004 DE46     		mov	lr, fp
 2763 0006 5746     		mov	r7, r10
 2764 0008 4546     		mov	r5, r8
 2765 000a E0B5     		push	{r5, r6, r7, lr}
 2766              	.LCFI32:
 2767              		.cfi_def_cfa_offset 36
 2768              		.cfi_offset 8, -36
 2769              		.cfi_offset 9, -32
 2770              		.cfi_offset 10, -28
 2771              		.cfi_offset 11, -24
 2772 000c 87B0     		sub	sp, sp, #28
 2773              	.LCFI33:
 2774              		.cfi_def_cfa_offset 64
 845:../../../../../../Middlewares/Third_Party/LoRaWAN/Mac/region/RegionRU864.c ****     uint8_t nbEnabledChannels = 0;
 2775              		.loc 1 845 0
 2776 000e 0391     		str	r1, [sp, #12]
 2777 0010 0400     		movs	r4, r0
ARM GAS  C:\Users\EBANO_~1\AppData\Local\Temp\ccazSBuk.s 			page 73


 848:../../../../../../Middlewares/Third_Party/LoRaWAN/Mac/region/RegionRU864.c ****     TimerTime_t nextTxDelay = 0;
 2778              		.loc 1 848 0
 2779 0012 0021     		movs	r1, #0
 2780              	.LVL246:
 845:../../../../../../Middlewares/Third_Party/LoRaWAN/Mac/region/RegionRU864.c ****     uint8_t nbEnabledChannels = 0;
 2781              		.loc 1 845 0
 2782 0014 9146     		mov	r9, r2
 848:../../../../../../Middlewares/Third_Party/LoRaWAN/Mac/region/RegionRU864.c ****     TimerTime_t nextTxDelay = 0;
 2783              		.loc 1 848 0
 2784 0016 04A8     		add	r0, sp, #16
 2785              	.LVL247:
 2786 0018 0822     		movs	r2, #8
 2787              	.LVL248:
 845:../../../../../../Middlewares/Third_Party/LoRaWAN/Mac/region/RegionRU864.c ****     uint8_t nbEnabledChannels = 0;
 2788              		.loc 1 845 0
 2789 001a 1F00     		movs	r7, r3
 848:../../../../../../Middlewares/Third_Party/LoRaWAN/Mac/region/RegionRU864.c ****     TimerTime_t nextTxDelay = 0;
 2790              		.loc 1 848 0
 2791 001c FFF7FEFF 		bl	memset
 2792              	.LVL249:
 851:../../../../../../Middlewares/Third_Party/LoRaWAN/Mac/region/RegionRU864.c ****     { // Reactivate default channels
 2793              		.loc 1 851 0
 2794 0020 5F4E     		ldr	r6, .L288
 2795 0022 0122     		movs	r2, #1
 2796 0024 3000     		movs	r0, r6
 2797 0026 0021     		movs	r1, #0
 2798 0028 7030     		adds	r0, r0, #112
 2799 002a FFF7FEFF 		bl	RegionCommonCountChannels
 2800              	.LVL250:
 2801 002e 0028     		cmp	r0, #0
 2802 0030 04D1     		bne	.L250
 853:../../../../../../Middlewares/Third_Party/LoRaWAN/Mac/region/RegionRU864.c ****     }
 2803              		.loc 1 853 0
 2804 0032 7022     		movs	r2, #112
 2805 0034 0321     		movs	r1, #3
 2806 0036 B35A     		ldrh	r3, [r6, r2]
 2807 0038 0B43     		orrs	r3, r1
 2808 003a B352     		strh	r3, [r6, r2]
 2809              	.L250:
 856:../../../../../../Middlewares/Third_Party/LoRaWAN/Mac/region/RegionRU864.c ****     {
 2810              		.loc 1 856 0
 2811 003c 6068     		ldr	r0, [r4, #4]
 2812 003e 2568     		ldr	r5, [r4]
 2813 0040 FFF7FEFF 		bl	TimerGetElapsedTime
 2814              	.LVL251:
 2815 0044 8542     		cmp	r5, r0
 2816 0046 5FD8     		bhi	.L251
 859:../../../../../../Middlewares/Third_Party/LoRaWAN/Mac/region/RegionRU864.c **** 
 2817              		.loc 1 859 0
 2818 0048 0023     		movs	r3, #0
 862:../../../../../../Middlewares/Third_Party/LoRaWAN/Mac/region/RegionRU864.c **** 
 2819              		.loc 1 862 0
 2820 004a 3200     		movs	r2, r6
 859:../../../../../../Middlewares/Third_Party/LoRaWAN/Mac/region/RegionRU864.c **** 
 2821              		.loc 1 859 0
 2822 004c 3B60     		str	r3, [r7]
 862:../../../../../../Middlewares/Third_Party/LoRaWAN/Mac/region/RegionRU864.c **** 
ARM GAS  C:\Users\EBANO_~1\AppData\Local\Temp\ccazSBuk.s 			page 74


 2823              		.loc 1 862 0
 2824 004e A17A     		ldrb	r1, [r4, #10]
 2825 0050 607A     		ldrb	r0, [r4, #9]
 2826 0052 0133     		adds	r3, r3, #1
 2827 0054 6032     		adds	r2, r2, #96
 2828 0056 FFF7FEFF 		bl	RegionCommonUpdateBandTimeOff
 2829              	.LVL252:
 865:../../../../../../Middlewares/Third_Party/LoRaWAN/Mac/region/RegionRU864.c ****                                                       NvmCtx.ChannelsMask, NvmCtx.Channels,
 2830              		.loc 1 865 0
 2831 005a 0823     		movs	r3, #8
 862:../../../../../../Middlewares/Third_Party/LoRaWAN/Mac/region/RegionRU864.c **** 
 2832              		.loc 1 862 0
 2833 005c 0290     		str	r0, [sp, #8]
 2834              	.LVL253:
 865:../../../../../../Middlewares/Third_Party/LoRaWAN/Mac/region/RegionRU864.c ****                                                       NvmCtx.ChannelsMask, NvmCtx.Channels,
 2835              		.loc 1 865 0
 2836 005e E356     		ldrsb	r3, [r4, r3]
 2837 0060 3500     		movs	r5, r6
 2838 0062 0093     		str	r3, [sp]
 2839              	.LVL254:
 2840 0064 637A     		ldrb	r3, [r4, #9]
 2841 0066 0024     		movs	r4, #0
 2842              	.LVL255:
 2843 0068 002B     		cmp	r3, #0
 2844 006a 58D1     		bne	.L252
 2845              	.LBB121:
 2846              	.LBB122:
 127:../../../../../../Middlewares/Third_Party/LoRaWAN/Mac/region/RegionRU864.c **** 
 2847              		.loc 1 127 0
 2848 006c 0193     		str	r3, [sp, #4]
 126:../../../../../../Middlewares/Third_Party/LoRaWAN/Mac/region/RegionRU864.c ****     uint8_t delayTransmission = 0;
 2849              		.loc 1 126 0
 2850 006e 9846     		mov	r8, r3
 2851              	.LBB123:
 2852              	.LBB124:
 133:../../../../../../Middlewares/Third_Party/LoRaWAN/Mac/region/RegionRU864.c ****             {
 2853              		.loc 1 133 0
 2854 0070 7033     		adds	r3, r3, #112
 2855              	.LVL256:
 2856 0072 9B46     		mov	fp, r3
 2857 0074 0127     		movs	r7, #1
 2858              	.LVL257:
 2859 0076 0BE0     		b	.L255
 2860              	.LVL258:
 2861              	.L254:
 156:../../../../../../Middlewares/Third_Party/LoRaWAN/Mac/region/RegionRU864.c ****             }
 2862              		.loc 1 156 0
 2863 0078 4346     		mov	r3, r8
 2864 007a 0133     		adds	r3, r3, #1
 2865              	.LVL259:
 2866 007c 4146     		mov	r1, r8
 2867 007e 5046     		mov	r0, r10
 2868 0080 DBB2     		uxtb	r3, r3
 2869 0082 9846     		mov	r8, r3
 2870 0084 04AA     		add	r2, sp, #16
 2871              	.LVL260:
 2872 0086 5054     		strb	r0, [r2, r1]
ARM GAS  C:\Users\EBANO_~1\AppData\Local\Temp\ccazSBuk.s 			page 75


 2873              	.LVL261:
 2874              	.L253:
 2875 0088 0134     		adds	r4, r4, #1
 2876              	.LVL262:
 2877 008a 0C35     		adds	r5, r5, #12
 131:../../../../../../Middlewares/Third_Party/LoRaWAN/Mac/region/RegionRU864.c ****         {
 2878              		.loc 1 131 0
 2879 008c 102C     		cmp	r4, #16
 2880 008e 25D0     		beq	.L256
 2881              	.LVL263:
 2882              	.L255:
 2883 0090 E3B2     		uxtb	r3, r4
 2884 0092 9A46     		mov	r10, r3
 2885              	.LVL264:
 133:../../../../../../Middlewares/Third_Party/LoRaWAN/Mac/region/RegionRU864.c ****             {
 2886              		.loc 1 133 0
 2887 0094 5B46     		mov	r3, fp
 2888 0096 F35A     		ldrh	r3, [r6, r3]
 2889 0098 2341     		asrs	r3, r3, r4
 2890 009a 1F42     		tst	r7, r3
 2891 009c F4D0     		beq	.L253
 135:../../../../../../Middlewares/Third_Party/LoRaWAN/Mac/region/RegionRU864.c ****                 { // Check if the channel is enabled
 2892              		.loc 1 135 0
 2893 009e 2B68     		ldr	r3, [r5]
 2894 00a0 002B     		cmp	r3, #0
 2895 00a2 F1D0     		beq	.L253
 141:../../../../../../Middlewares/Third_Party/LoRaWAN/Mac/region/RegionRU864.c ****                     {
 2896              		.loc 1 141 0
 2897 00a4 0323     		movs	r3, #3
 2898 00a6 2341     		asrs	r3, r3, r4
 2899 00a8 1F42     		tst	r7, r3
 2900 00aa EDD0     		beq	.L253
 147:../../../../../../Middlewares/Third_Party/LoRaWAN/Mac/region/RegionRU864.c ****                 { // Check if the current channel selection supports the given datarate
 2901              		.loc 1 147 0
 2902 00ac 297A     		ldrb	r1, [r5, #8]
 146:../../../../../../Middlewares/Third_Party/LoRaWAN/Mac/region/RegionRU864.c ****                                               channels[i + j].DrRange.Fields.Max ) == false )
 2903              		.loc 1 146 0
 2904 00ae 0098     		ldr	r0, [sp]
 147:../../../../../../Middlewares/Third_Party/LoRaWAN/Mac/region/RegionRU864.c ****                 { // Check if the current channel selection supports the given datarate
 2905              		.loc 1 147 0
 2906 00b0 4AB2     		sxtb	r2, r1
 146:../../../../../../Middlewares/Third_Party/LoRaWAN/Mac/region/RegionRU864.c ****                                               channels[i + j].DrRange.Fields.Max ) == false )
 2907              		.loc 1 146 0
 2908 00b2 0907     		lsls	r1, r1, #28
 2909 00b4 1211     		asrs	r2, r2, #4
 2910 00b6 0917     		asrs	r1, r1, #28
 2911 00b8 FFF7FEFF 		bl	RegionCommonValueInRange
 2912              	.LVL265:
 2913 00bc 0028     		cmp	r0, #0
 2914 00be E3D0     		beq	.L253
 151:../../../../../../Middlewares/Third_Party/LoRaWAN/Mac/region/RegionRU864.c ****                 { // Check if the band is available for transmission
 2915              		.loc 1 151 0
 2916 00c0 6B7A     		ldrb	r3, [r5, #9]
 2917 00c2 1B01     		lsls	r3, r3, #4
 2918 00c4 F318     		adds	r3, r6, r3
 2919 00c6 DB6E     		ldr	r3, [r3, #108]
 2920 00c8 002B     		cmp	r3, #0
ARM GAS  C:\Users\EBANO_~1\AppData\Local\Temp\ccazSBuk.s 			page 76


 2921 00ca D5D0     		beq	.L254
 153:../../../../../../Middlewares/Third_Party/LoRaWAN/Mac/region/RegionRU864.c ****                     continue;
 2922              		.loc 1 153 0
 2923 00cc 019B     		ldr	r3, [sp, #4]
 2924 00ce 0134     		adds	r4, r4, #1
 2925 00d0 0133     		adds	r3, r3, #1
 2926 00d2 DBB2     		uxtb	r3, r3
 2927 00d4 0193     		str	r3, [sp, #4]
 2928              	.LVL266:
 2929 00d6 0C35     		adds	r5, r5, #12
 131:../../../../../../Middlewares/Third_Party/LoRaWAN/Mac/region/RegionRU864.c ****         {
 2930              		.loc 1 131 0
 2931 00d8 102C     		cmp	r4, #16
 2932 00da D9D1     		bne	.L255
 2933              	.LVL267:
 2934              	.L256:
 2935              	.LBE124:
 2936              	.LBE123:
 2937              	.LBE122:
 2938              	.LBE121:
 875:../../../../../../Middlewares/Third_Party/LoRaWAN/Mac/region/RegionRU864.c ****     {
 2939              		.loc 1 875 0
 2940 00dc 4346     		mov	r3, r8
 2941 00de 002B     		cmp	r3, #0
 2942 00e0 50D1     		bne	.L287
 885:../../../../../../Middlewares/Third_Party/LoRaWAN/Mac/region/RegionRU864.c ****         {
 2943              		.loc 1 885 0
 2944 00e2 019B     		ldr	r3, [sp, #4]
 2945 00e4 002B     		cmp	r3, #0
 2946 00e6 15D1     		bne	.L263
 892:../../../../../../Middlewares/Third_Party/LoRaWAN/Mac/region/RegionRU864.c ****         *time = 0;
 2947              		.loc 1 892 0
 2948 00e8 7022     		movs	r2, #112
 2949 00ea 0321     		movs	r1, #3
 2950 00ec B35A     		ldrh	r3, [r6, r2]
 894:../../../../../../Middlewares/Third_Party/LoRaWAN/Mac/region/RegionRU864.c ****     }
 2951              		.loc 1 894 0
 2952 00ee 0C20     		movs	r0, #12
 892:../../../../../../Middlewares/Third_Party/LoRaWAN/Mac/region/RegionRU864.c ****         *time = 0;
 2953              		.loc 1 892 0
 2954 00f0 0B43     		orrs	r3, r1
 2955 00f2 B352     		strh	r3, [r6, r2]
 893:../../../../../../Middlewares/Third_Party/LoRaWAN/Mac/region/RegionRU864.c ****         return LORAMAC_STATUS_NO_CHANNEL_FOUND;
 2956              		.loc 1 893 0
 2957 00f4 4B46     		mov	r3, r9
 2958 00f6 019A     		ldr	r2, [sp, #4]
 2959 00f8 1A60     		str	r2, [r3]
 2960              	.LVL268:
 2961              	.L264:
 896:../../../../../../Middlewares/Third_Party/LoRaWAN/Mac/region/RegionRU864.c **** 
 2962              		.loc 1 896 0
 2963 00fa 07B0     		add	sp, sp, #28
 2964              		@ sp needed
 2965              	.LVL269:
 2966 00fc 3CBC     		pop	{r2, r3, r4, r5}
 2967 00fe 9046     		mov	r8, r2
 2968 0100 9946     		mov	r9, r3
ARM GAS  C:\Users\EBANO_~1\AppData\Local\Temp\ccazSBuk.s 			page 77


 2969 0102 A246     		mov	r10, r4
 2970 0104 AB46     		mov	fp, r5
 2971 0106 F0BD     		pop	{r4, r5, r6, r7, pc}
 2972              	.LVL270:
 2973              	.L251:
 872:../../../../../../Middlewares/Third_Party/LoRaWAN/Mac/region/RegionRU864.c ****     }
 2974              		.loc 1 872 0
 2975 0108 6068     		ldr	r0, [r4, #4]
 2976 010a 2568     		ldr	r5, [r4]
 2977 010c FFF7FEFF 		bl	TimerGetElapsedTime
 2978              	.LVL271:
 2979 0110 2B1A     		subs	r3, r5, r0
 2980 0112 0293     		str	r3, [sp, #8]
 2981              	.LVL272:
 2982              	.L263:
 888:../../../../../../Middlewares/Third_Party/LoRaWAN/Mac/region/RegionRU864.c ****             return LORAMAC_STATUS_DUTYCYCLE_RESTRICTED;
 2983              		.loc 1 888 0
 2984 0114 4B46     		mov	r3, r9
 2985 0116 029A     		ldr	r2, [sp, #8]
 889:../../../../../../Middlewares/Third_Party/LoRaWAN/Mac/region/RegionRU864.c ****         }
 2986              		.loc 1 889 0
 2987 0118 0B20     		movs	r0, #11
 888:../../../../../../Middlewares/Third_Party/LoRaWAN/Mac/region/RegionRU864.c ****             return LORAMAC_STATUS_DUTYCYCLE_RESTRICTED;
 2988              		.loc 1 888 0
 2989 011a 1A60     		str	r2, [r3]
 889:../../../../../../Middlewares/Third_Party/LoRaWAN/Mac/region/RegionRU864.c ****         }
 2990              		.loc 1 889 0
 2991 011c EDE7     		b	.L264
 2992              	.LVL273:
 2993              	.L252:
 2994              	.LBB128:
 2995              	.LBB127:
 127:../../../../../../Middlewares/Third_Party/LoRaWAN/Mac/region/RegionRU864.c **** 
 2996              		.loc 1 127 0
 2997 011e 0023     		movs	r3, #0
 2998              	.LVL274:
 2999 0120 0193     		str	r3, [sp, #4]
 126:../../../../../../Middlewares/Third_Party/LoRaWAN/Mac/region/RegionRU864.c ****     uint8_t delayTransmission = 0;
 3000              		.loc 1 126 0
 3001 0122 9846     		mov	r8, r3
 3002              	.LBB126:
 3003              	.LBB125:
 133:../../../../../../Middlewares/Third_Party/LoRaWAN/Mac/region/RegionRU864.c ****             {
 3004              		.loc 1 133 0
 3005 0124 7033     		adds	r3, r3, #112
 3006 0126 9B46     		mov	fp, r3
 3007 0128 6F3B     		subs	r3, r3, #111
 3008 012a 9A46     		mov	r10, r3
 3009 012c 03E0     		b	.L258
 3010              	.LVL275:
 3011              	.L259:
 3012 012e 0134     		adds	r4, r4, #1
 3013              	.LVL276:
 3014 0130 0C35     		adds	r5, r5, #12
 131:../../../../../../Middlewares/Third_Party/LoRaWAN/Mac/region/RegionRU864.c ****         {
 3015              		.loc 1 131 0
 3016 0132 102C     		cmp	r4, #16
ARM GAS  C:\Users\EBANO_~1\AppData\Local\Temp\ccazSBuk.s 			page 78


 3017 0134 D2D0     		beq	.L256
 3018              	.LVL277:
 3019              	.L258:
 133:../../../../../../Middlewares/Third_Party/LoRaWAN/Mac/region/RegionRU864.c ****             {
 3020              		.loc 1 133 0
 3021 0136 5B46     		mov	r3, fp
 3022 0138 F35A     		ldrh	r3, [r6, r3]
 3023 013a 5246     		mov	r2, r10
 3024 013c 2341     		asrs	r3, r3, r4
 3025 013e E7B2     		uxtb	r7, r4
 3026              	.LVL278:
 3027 0140 1A42     		tst	r2, r3
 3028 0142 F4D0     		beq	.L259
 135:../../../../../../Middlewares/Third_Party/LoRaWAN/Mac/region/RegionRU864.c ****                 { // Check if the channel is enabled
 3029              		.loc 1 135 0
 3030 0144 2B68     		ldr	r3, [r5]
 3031 0146 002B     		cmp	r3, #0
 3032 0148 F1D0     		beq	.L259
 147:../../../../../../Middlewares/Third_Party/LoRaWAN/Mac/region/RegionRU864.c ****                 { // Check if the current channel selection supports the given datarate
 3033              		.loc 1 147 0
 3034 014a 297A     		ldrb	r1, [r5, #8]
 146:../../../../../../Middlewares/Third_Party/LoRaWAN/Mac/region/RegionRU864.c ****                                               channels[i + j].DrRange.Fields.Max ) == false )
 3035              		.loc 1 146 0
 3036 014c 0098     		ldr	r0, [sp]
 147:../../../../../../Middlewares/Third_Party/LoRaWAN/Mac/region/RegionRU864.c ****                 { // Check if the current channel selection supports the given datarate
 3037              		.loc 1 147 0
 3038 014e 4AB2     		sxtb	r2, r1
 146:../../../../../../Middlewares/Third_Party/LoRaWAN/Mac/region/RegionRU864.c ****                                               channels[i + j].DrRange.Fields.Max ) == false )
 3039              		.loc 1 146 0
 3040 0150 0907     		lsls	r1, r1, #28
 3041 0152 1211     		asrs	r2, r2, #4
 3042 0154 0917     		asrs	r1, r1, #28
 3043 0156 FFF7FEFF 		bl	RegionCommonValueInRange
 3044              	.LVL279:
 3045 015a 0028     		cmp	r0, #0
 3046 015c E7D0     		beq	.L259
 151:../../../../../../Middlewares/Third_Party/LoRaWAN/Mac/region/RegionRU864.c ****                 { // Check if the band is available for transmission
 3047              		.loc 1 151 0
 3048 015e 6B7A     		ldrb	r3, [r5, #9]
 3049 0160 1B01     		lsls	r3, r3, #4
 3050 0162 F318     		adds	r3, r6, r3
 3051 0164 DB6E     		ldr	r3, [r3, #108]
 3052 0166 002B     		cmp	r3, #0
 3053 0168 07D1     		bne	.L260
 156:../../../../../../Middlewares/Third_Party/LoRaWAN/Mac/region/RegionRU864.c ****             }
 3054              		.loc 1 156 0
 3055 016a 4346     		mov	r3, r8
 3056 016c 4146     		mov	r1, r8
 3057 016e 0133     		adds	r3, r3, #1
 3058              	.LVL280:
 3059 0170 04AA     		add	r2, sp, #16
 3060              	.LVL281:
 3061 0172 DBB2     		uxtb	r3, r3
 3062 0174 5754     		strb	r7, [r2, r1]
 3063 0176 9846     		mov	r8, r3
 3064 0178 D9E7     		b	.L259
 3065              	.LVL282:
ARM GAS  C:\Users\EBANO_~1\AppData\Local\Temp\ccazSBuk.s 			page 79


 3066              	.L260:
 153:../../../../../../Middlewares/Third_Party/LoRaWAN/Mac/region/RegionRU864.c ****                     continue;
 3067              		.loc 1 153 0
 3068 017a 019B     		ldr	r3, [sp, #4]
 3069 017c 0133     		adds	r3, r3, #1
 3070 017e DBB2     		uxtb	r3, r3
 3071 0180 0193     		str	r3, [sp, #4]
 3072              	.LVL283:
 3073 0182 D4E7     		b	.L259
 3074              	.LVL284:
 3075              	.L287:
 3076              	.LBE125:
 3077              	.LBE126:
 3078              	.LBE127:
 3079              	.LBE128:
 878:../../../../../../Middlewares/Third_Party/LoRaWAN/Mac/region/RegionRU864.c **** 
 3080              		.loc 1 878 0
 3081 0184 4146     		mov	r1, r8
 3082 0186 0020     		movs	r0, #0
 3083 0188 0139     		subs	r1, r1, #1
 3084 018a FFF7FEFF 		bl	randr
 3085              	.LVL285:
 3086 018e 04AB     		add	r3, sp, #16
 3087 0190 1B5C     		ldrb	r3, [r3, r0]
 3088 0192 039A     		ldr	r2, [sp, #12]
 881:../../../../../../Middlewares/Third_Party/LoRaWAN/Mac/region/RegionRU864.c ****     }
 3089              		.loc 1 881 0
 3090 0194 0020     		movs	r0, #0
 878:../../../../../../Middlewares/Third_Party/LoRaWAN/Mac/region/RegionRU864.c **** 
 3091              		.loc 1 878 0
 3092 0196 1370     		strb	r3, [r2]
 880:../../../../../../Middlewares/Third_Party/LoRaWAN/Mac/region/RegionRU864.c ****         return LORAMAC_STATUS_OK;
 3093              		.loc 1 880 0
 3094 0198 0023     		movs	r3, #0
 3095 019a 4A46     		mov	r2, r9
 3096 019c 1360     		str	r3, [r2]
 881:../../../../../../Middlewares/Third_Party/LoRaWAN/Mac/region/RegionRU864.c ****     }
 3097              		.loc 1 881 0
 3098 019e ACE7     		b	.L264
 3099              	.L289:
 3100              		.align	2
 3101              	.L288:
 3102 01a0 00000000 		.word	.LANCHOR1
 3103              		.cfi_endproc
 3104              	.LFE61:
 3105              		.size	RegionRU864NextChannel, .-RegionRU864NextChannel
 3106              		.section	.text.RegionRU864ChannelAdd,"ax",%progbits
 3107              		.align	1
 3108              		.p2align 2,,3
 3109              		.global	RegionRU864ChannelAdd
 3110              		.syntax unified
 3111              		.code	16
 3112              		.thumb_func
 3113              		.fpu softvfp
 3114              		.type	RegionRU864ChannelAdd, %function
 3115              	RegionRU864ChannelAdd:
 3116              	.LFB62:
ARM GAS  C:\Users\EBANO_~1\AppData\Local\Temp\ccazSBuk.s 			page 80


 899:../../../../../../Middlewares/Third_Party/LoRaWAN/Mac/region/RegionRU864.c ****     bool drInvalid = false;
 3117              		.loc 1 899 0
 3118              		.cfi_startproc
 3119              		@ args = 0, pretend = 0, frame = 8
 3120              		@ frame_needed = 0, uses_anonymous_args = 0
 3121              	.LVL286:
 3122 0000 F0B5     		push	{r4, r5, r6, r7, lr}
 3123              	.LCFI34:
 3124              		.cfi_def_cfa_offset 20
 3125              		.cfi_offset 4, -20
 3126              		.cfi_offset 5, -16
 3127              		.cfi_offset 6, -12
 3128              		.cfi_offset 7, -8
 3129              		.cfi_offset 14, -4
 902:../../../../../../Middlewares/Third_Party/LoRaWAN/Mac/region/RegionRU864.c **** 
 3130              		.loc 1 902 0
 3131 0002 0579     		ldrb	r5, [r0, #4]
 3132              	.LVL287:
 899:../../../../../../Middlewares/Third_Party/LoRaWAN/Mac/region/RegionRU864.c ****     bool drInvalid = false;
 3133              		.loc 1 899 0
 3134 0004 83B0     		sub	sp, sp, #12
 3135              	.LCFI35:
 3136              		.cfi_def_cfa_offset 32
 899:../../../../../../Middlewares/Third_Party/LoRaWAN/Mac/region/RegionRU864.c ****     bool drInvalid = false;
 3137              		.loc 1 899 0
 3138 0006 0400     		movs	r4, r0
 904:../../../../../../Middlewares/Third_Party/LoRaWAN/Mac/region/RegionRU864.c ****     {
 3139              		.loc 1 904 0
 3140 0008 012D     		cmp	r5, #1
 3141 000a 39D9     		bls	.L296
 911:../../../../../../Middlewares/Third_Party/LoRaWAN/Mac/region/RegionRU864.c ****     }
 3142              		.loc 1 911 0
 3143 000c 0320     		movs	r0, #3
 3144              	.LVL288:
 909:../../../../../../Middlewares/Third_Party/LoRaWAN/Mac/region/RegionRU864.c ****     {
 3145              		.loc 1 909 0
 3146 000e 072D     		cmp	r5, #7
 3147 0010 2AD8     		bhi	.L303
 915:../../../../../../Middlewares/Third_Party/LoRaWAN/Mac/region/RegionRU864.c ****     {
 3148              		.loc 1 915 0
 3149 0012 2368     		ldr	r3, [r4]
 3150 0014 0722     		movs	r2, #7
 3151 0016 187A     		ldrb	r0, [r3, #8]
 3152 0018 0021     		movs	r1, #0
 3153 001a 0007     		lsls	r0, r0, #28
 3154 001c 0017     		asrs	r0, r0, #28
 3155 001e FFF7FEFF 		bl	RegionCommonValueInRange
 3156              	.LVL289:
 3157 0022 0600     		movs	r6, r0
 3158              	.LVL290:
 919:../../../../../../Middlewares/Third_Party/LoRaWAN/Mac/region/RegionRU864.c ****     {
 3159              		.loc 1 919 0
 3160 0024 0820     		movs	r0, #8
 3161 0026 2368     		ldr	r3, [r4]
 3162 0028 0722     		movs	r2, #7
 3163 002a 1856     		ldrsb	r0, [r3, r0]
 3164 002c 0021     		movs	r1, #0
ARM GAS  C:\Users\EBANO_~1\AppData\Local\Temp\ccazSBuk.s 			page 81


 3165 002e 0011     		asrs	r0, r0, #4
 3166 0030 FFF7FEFF 		bl	RegionCommonValueInRange
 3167              	.LVL291:
 921:../../../../../../Middlewares/Third_Party/LoRaWAN/Mac/region/RegionRU864.c ****     }
 3168              		.loc 1 921 0
 3169 0034 0127     		movs	r7, #1
 919:../../../../../../Middlewares/Third_Party/LoRaWAN/Mac/region/RegionRU864.c ****     {
 3170              		.loc 1 919 0
 3171 0036 0028     		cmp	r0, #0
 3172 0038 02D0     		beq	.L293
 915:../../../../../../Middlewares/Third_Party/LoRaWAN/Mac/region/RegionRU864.c ****     {
 3173              		.loc 1 915 0
 3174 003a 7742     		rsbs	r7, r6, #0
 3175 003c 7741     		adcs	r7, r7, r6
 3176              	.LVL292:
 3177 003e FFB2     		uxtb	r7, r7
 3178              	.L293:
 3179              	.LVL293:
 923:../../../../../../Middlewares/Third_Party/LoRaWAN/Mac/region/RegionRU864.c ****     {
 3180              		.loc 1 923 0
 3181 0040 2368     		ldr	r3, [r4]
 3182 0042 214A     		ldr	r2, .L306
 3183 0044 1E68     		ldr	r6, [r3]
 3184 0046 926A     		ldr	r2, [r2, #40]
 3185 0048 1B7A     		ldrb	r3, [r3, #8]
 3186 004a 0192     		str	r2, [sp, #4]
 3187 004c 1A07     		lsls	r2, r3, #28
 3188 004e 5BB2     		sxtb	r3, r3
 3189 0050 1217     		asrs	r2, r2, #28
 3190 0052 1B11     		asrs	r3, r3, #4
 3191              	.LBB129:
 3192              	.LBB130:
 111:../../../../../../Middlewares/Third_Party/LoRaWAN/Mac/region/RegionRU864.c ****     {
 3193              		.loc 1 111 0
 3194 0054 3000     		movs	r0, r6
 3195              	.LBE130:
 3196              	.LBE129:
 923:../../../../../../Middlewares/Third_Party/LoRaWAN/Mac/region/RegionRU864.c ****     {
 3197              		.loc 1 923 0
 3198 0056 9A42     		cmp	r2, r3
 3199 0058 08DC     		bgt	.L294
 3200              	.LVL294:
 3201              	.LBB134:
 3202              	.LBB131:
 111:../../../../../../Middlewares/Third_Party/LoRaWAN/Mac/region/RegionRU864.c ****     {
 3203              		.loc 1 111 0
 3204 005a 019B     		ldr	r3, [sp, #4]
 3205 005c 9847     		blx	r3
 3206              	.LVL295:
 3207 005e 0028     		cmp	r0, #0
 3208 0060 10D1     		bne	.L295
 3209              	.LVL296:
 3210              	.LBE131:
 3211              	.LBE134:
 938:../../../../../../Middlewares/Third_Party/LoRaWAN/Mac/region/RegionRU864.c ****     {
 3212              		.loc 1 938 0
 3213 0062 002F     		cmp	r7, #0
ARM GAS  C:\Users\EBANO_~1\AppData\Local\Temp\ccazSBuk.s 			page 82


 3214 0064 0CD1     		bne	.L296
 948:../../../../../../Middlewares/Third_Party/LoRaWAN/Mac/region/RegionRU864.c ****     }
 3215              		.loc 1 948 0
 3216 0066 0430     		adds	r0, r0, #4
 3217              	.LVL297:
 3218              	.L303:
 955:../../../../../../Middlewares/Third_Party/LoRaWAN/Mac/region/RegionRU864.c **** 
 3219              		.loc 1 955 0
 3220 0068 03B0     		add	sp, sp, #12
 3221              		@ sp needed
 3222              	.LVL298:
 3223 006a F0BD     		pop	{r4, r5, r6, r7, pc}
 3224              	.LVL299:
 3225              	.L294:
 3226              	.LBB135:
 3227              	.LBB132:
 111:../../../../../../Middlewares/Third_Party/LoRaWAN/Mac/region/RegionRU864.c ****     {
 3228              		.loc 1 111 0
 3229 006c 019B     		ldr	r3, [sp, #4]
 3230 006e 9847     		blx	r3
 3231              	.LVL300:
 3232 0070 0028     		cmp	r0, #0
 3233 0072 05D0     		beq	.L296
 117:../../../../../../Middlewares/Third_Party/LoRaWAN/Mac/region/RegionRU864.c ****     {
 3234              		.loc 1 117 0
 3235 0074 154B     		ldr	r3, .L306+4
 3236 0076 9C46     		mov	ip, r3
 3237 0078 154B     		ldr	r3, .L306+8
 3238 007a 6644     		add	r6, r6, ip
 3239 007c 9E42     		cmp	r6, r3
 3240 007e 0BD9     		bls	.L297
 3241              	.LVL301:
 3242              	.L296:
 3243              	.LBE132:
 3244              	.LBE135:
 906:../../../../../../Middlewares/Third_Party/LoRaWAN/Mac/region/RegionRU864.c ****     }
 3245              		.loc 1 906 0
 3246 0080 0620     		movs	r0, #6
 3247 0082 F1E7     		b	.L303
 3248              	.LVL302:
 3249              	.L295:
 3250              	.LBB136:
 3251              	.LBB133:
 117:../../../../../../Middlewares/Third_Party/LoRaWAN/Mac/region/RegionRU864.c ****     {
 3252              		.loc 1 117 0
 3253 0084 114B     		ldr	r3, .L306+4
 3254 0086 9C46     		mov	ip, r3
 3255 0088 114B     		ldr	r3, .L306+8
 3256 008a 6644     		add	r6, r6, ip
 3257 008c 9E42     		cmp	r6, r3
 3258 008e 05D9     		bls	.L298
 3259              	.LVL303:
 3260              	.LBE133:
 3261              	.LBE136:
 938:../../../../../../Middlewares/Third_Party/LoRaWAN/Mac/region/RegionRU864.c ****     {
 3262              		.loc 1 938 0
 3263 0090 002F     		cmp	r7, #0
ARM GAS  C:\Users\EBANO_~1\AppData\Local\Temp\ccazSBuk.s 			page 83


 3264 0092 F5D1     		bne	.L296
 948:../../../../../../Middlewares/Third_Party/LoRaWAN/Mac/region/RegionRU864.c ****     }
 3265              		.loc 1 948 0
 3266 0094 0420     		movs	r0, #4
 3267 0096 E7E7     		b	.L303
 3268              	.LVL304:
 3269              	.L297:
 944:../../../../../../Middlewares/Third_Party/LoRaWAN/Mac/region/RegionRU864.c ****     }
 3270              		.loc 1 944 0
 3271 0098 0520     		movs	r0, #5
 3272 009a E5E7     		b	.L303
 3273              	.LVL305:
 3274              	.L298:
 938:../../../../../../Middlewares/Third_Party/LoRaWAN/Mac/region/RegionRU864.c ****     {
 3275              		.loc 1 938 0
 3276 009c 002F     		cmp	r7, #0
 3277 009e FBD1     		bne	.L297
 951:../../../../../../Middlewares/Third_Party/LoRaWAN/Mac/region/RegionRU864.c ****     NvmCtx.Channels[id].Band = 0;
 3278              		.loc 1 951 0
 3279 00a0 2168     		ldr	r1, [r4]
 3280 00a2 6C00     		lsls	r4, r5, #1
 3281              	.LVL306:
 3282 00a4 0B4E     		ldr	r6, .L306+12
 3283 00a6 6419     		adds	r4, r4, r5
 3284 00a8 A400     		lsls	r4, r4, #2
 3285 00aa 3419     		adds	r4, r6, r4
 3286 00ac 0C22     		movs	r2, #12
 3287 00ae 2000     		movs	r0, r4
 3288 00b0 FFF7FEFF 		bl	memcpy1
 3289              	.LVL307:
 953:../../../../../../Middlewares/Third_Party/LoRaWAN/Mac/region/RegionRU864.c ****     return LORAMAC_STATUS_OK;
 3290              		.loc 1 953 0
 3291 00b4 0122     		movs	r2, #1
 3292 00b6 7021     		movs	r1, #112
 3293 00b8 AA40     		lsls	r2, r2, r5
 952:../../../../../../Middlewares/Third_Party/LoRaWAN/Mac/region/RegionRU864.c ****     NvmCtx.ChannelsMask[0] |= ( 1 << id );
 3294              		.loc 1 952 0
 3295 00ba 6772     		strb	r7, [r4, #9]
 953:../../../../../../Middlewares/Third_Party/LoRaWAN/Mac/region/RegionRU864.c ****     return LORAMAC_STATUS_OK;
 3296              		.loc 1 953 0
 3297 00bc 735A     		ldrh	r3, [r6, r1]
 954:../../../../../../Middlewares/Third_Party/LoRaWAN/Mac/region/RegionRU864.c **** }
 3298              		.loc 1 954 0
 3299 00be 0020     		movs	r0, #0
 953:../../../../../../Middlewares/Third_Party/LoRaWAN/Mac/region/RegionRU864.c ****     return LORAMAC_STATUS_OK;
 3300              		.loc 1 953 0
 3301 00c0 1343     		orrs	r3, r2
 3302 00c2 7352     		strh	r3, [r6, r1]
 954:../../../../../../Middlewares/Third_Party/LoRaWAN/Mac/region/RegionRU864.c **** }
 3303              		.loc 1 954 0
 3304 00c4 D0E7     		b	.L303
 3305              	.L307:
 3306 00c6 C046     		.align	2
 3307              	.L306:
 3308 00c8 00000000 		.word	Radio
 3309 00cc 006880CC 		.word	-864000000
 3310 00d0 808D5B00 		.word	6000000
ARM GAS  C:\Users\EBANO_~1\AppData\Local\Temp\ccazSBuk.s 			page 84


 3311 00d4 00000000 		.word	.LANCHOR1
 3312              		.cfi_endproc
 3313              	.LFE62:
 3314              		.size	RegionRU864ChannelAdd, .-RegionRU864ChannelAdd
 3315              		.section	.text.RegionRU864ChannelsRemove,"ax",%progbits
 3316              		.align	1
 3317              		.p2align 2,,3
 3318              		.global	RegionRU864ChannelsRemove
 3319              		.syntax unified
 3320              		.code	16
 3321              		.thumb_func
 3322              		.fpu softvfp
 3323              		.type	RegionRU864ChannelsRemove, %function
 3324              	RegionRU864ChannelsRemove:
 3325              	.LFB63:
 958:../../../../../../Middlewares/Third_Party/LoRaWAN/Mac/region/RegionRU864.c ****     uint8_t id = channelRemove->ChannelId;
 3326              		.loc 1 958 0
 3327              		.cfi_startproc
 3328              		@ args = 0, pretend = 0, frame = 0
 3329              		@ frame_needed = 0, uses_anonymous_args = 0
 3330              	.LVL308:
 3331 0000 70B5     		push	{r4, r5, r6, lr}
 3332              	.LCFI36:
 3333              		.cfi_def_cfa_offset 16
 3334              		.cfi_offset 4, -16
 3335              		.cfi_offset 5, -12
 3336              		.cfi_offset 6, -8
 3337              		.cfi_offset 14, -4
 959:../../../../../../Middlewares/Third_Party/LoRaWAN/Mac/region/RegionRU864.c **** 
 3338              		.loc 1 959 0
 3339 0002 0478     		ldrb	r4, [r0]
 3340              	.LVL309:
 963:../../../../../../Middlewares/Third_Party/LoRaWAN/Mac/region/RegionRU864.c ****     }
 3341              		.loc 1 963 0
 3342 0004 0020     		movs	r0, #0
 3343              	.LVL310:
 961:../../../../../../Middlewares/Third_Party/LoRaWAN/Mac/region/RegionRU864.c ****     {
 3344              		.loc 1 961 0
 3345 0006 012C     		cmp	r4, #1
 3346 0008 0ED9     		bls	.L309
 967:../../../../../../Middlewares/Third_Party/LoRaWAN/Mac/region/RegionRU864.c **** 
 3347              		.loc 1 967 0
 3348 000a 6000     		lsls	r0, r4, #1
 3349 000c 074D     		ldr	r5, .L311
 3350 000e 0019     		adds	r0, r0, r4
 3351 0010 8000     		lsls	r0, r0, #2
 3352 0012 0C22     		movs	r2, #12
 3353 0014 0021     		movs	r1, #0
 3354 0016 2818     		adds	r0, r5, r0
 3355 0018 FFF7FEFF 		bl	memset
 3356              	.LVL311:
 3357              		.loc 1 969 0
 3358 001c 2800     		movs	r0, r5
 3359 001e 0822     		movs	r2, #8
 3360 0020 7030     		adds	r0, r0, #112
 3361 0022 2100     		movs	r1, r4
 3362 0024 FFF7FEFF 		bl	RegionCommonChanDisable
ARM GAS  C:\Users\EBANO_~1\AppData\Local\Temp\ccazSBuk.s 			page 85


 3363              	.LVL312:
 3364              	.L309:
 970:../../../../../../Middlewares/Third_Party/LoRaWAN/Mac/region/RegionRU864.c **** }
 3365              		.loc 1 970 0
 3366              		@ sp needed
 3367              	.LVL313:
 3368 0028 70BD     		pop	{r4, r5, r6, pc}
 3369              	.L312:
 3370 002a C046     		.align	2
 3371              	.L311:
 3372 002c 00000000 		.word	.LANCHOR1
 3373              		.cfi_endproc
 3374              	.LFE63:
 3375              		.size	RegionRU864ChannelsRemove, .-RegionRU864ChannelsRemove
 3376              		.section	.text.RegionRU864SetContinuousWave,"ax",%progbits
 3377              		.align	1
 3378              		.p2align 2,,3
 3379              		.global	RegionRU864SetContinuousWave
 3380              		.syntax unified
 3381              		.code	16
 3382              		.thumb_func
 3383              		.fpu softvfp
 3384              		.type	RegionRU864SetContinuousWave, %function
 3385              	RegionRU864SetContinuousWave:
 3386              	.LFB64:
 971:../../../../../../Middlewares/Third_Party/LoRaWAN/Mac/region/RegionRU864.c **** 
 972:../../../../../../Middlewares/Third_Party/LoRaWAN/Mac/region/RegionRU864.c **** void RegionRU864SetContinuousWave( ContinuousWaveParams_t* continuousWave )
 973:../../../../../../Middlewares/Third_Party/LoRaWAN/Mac/region/RegionRU864.c **** {
 3387              		.loc 1 973 0
 3388              		.cfi_startproc
 3389              		@ args = 0, pretend = 0, frame = 8
 3390              		@ frame_needed = 0, uses_anonymous_args = 0
 3391              	.LVL314:
 3392 0000 F0B5     		push	{r4, r5, r6, r7, lr}
 3393              	.LCFI37:
 3394              		.cfi_def_cfa_offset 20
 3395              		.cfi_offset 4, -20
 3396              		.cfi_offset 5, -16
 3397              		.cfi_offset 6, -12
 3398              		.cfi_offset 7, -8
 3399              		.cfi_offset 14, -4
 3400 0002 0400     		movs	r4, r0
 974:../../../../../../Middlewares/Third_Party/LoRaWAN/Mac/region/RegionRU864.c ****     int8_t txPowerLimited = LimitTxPower( continuousWave->TxPower, NvmCtx.Bands[NvmCtx.Channels[con
 3401              		.loc 1 974 0
 3402 0004 0278     		ldrb	r2, [r0]
 3403              	.LVL315:
 975:../../../../../../Middlewares/Third_Party/LoRaWAN/Mac/region/RegionRU864.c ****     int8_t phyTxPower = 0;
 976:../../../../../../Middlewares/Third_Party/LoRaWAN/Mac/region/RegionRU864.c ****     uint32_t frequency = NvmCtx.Channels[continuousWave->Channel].Frequency;
 3404              		.loc 1 976 0
 3405 0006 1048     		ldr	r0, .L315
 3406              	.LVL316:
 3407 0008 5300     		lsls	r3, r2, #1
 3408 000a 9B18     		adds	r3, r3, r2
 3409 000c 9B00     		lsls	r3, r3, #2
 3410 000e 1D58     		ldr	r5, [r3, r0]
 3411              	.LVL317:
 974:../../../../../../Middlewares/Third_Party/LoRaWAN/Mac/region/RegionRU864.c ****     int8_t txPowerLimited = LimitTxPower( continuousWave->TxPower, NvmCtx.Bands[NvmCtx.Channels[con
ARM GAS  C:\Users\EBANO_~1\AppData\Local\Temp\ccazSBuk.s 			page 86


 3412              		.loc 1 974 0
 3413 0010 C318     		adds	r3, r0, r3
 3414 0012 5B7A     		ldrb	r3, [r3, #9]
 3415              	.LBB137:
 3416              	.LBB138:
 103:../../../../../../Middlewares/Third_Party/LoRaWAN/Mac/region/RegionRU864.c **** 
 3417              		.loc 1 103 0
 3418 0014 A678     		ldrb	r6, [r4, #2]
 3419              	.LBE138:
 3420              	.LBE137:
 974:../../../../../../Middlewares/Third_Party/LoRaWAN/Mac/region/RegionRU864.c ****     int8_t txPowerLimited = LimitTxPower( continuousWave->TxPower, NvmCtx.Bands[NvmCtx.Channels[con
 3421              		.loc 1 974 0
 3422 0016 0633     		adds	r3, r3, #6
 3423 0018 1B01     		lsls	r3, r3, #4
 3424 001a C018     		adds	r0, r0, r3
 3425              	.LBB141:
 3426              	.LBB139:
 103:../../../../../../Middlewares/Third_Party/LoRaWAN/Mac/region/RegionRU864.c **** 
 3427              		.loc 1 103 0
 3428 001c 8378     		ldrb	r3, [r0, #2]
 3429 001e 77B2     		sxtb	r7, r6
 3430 0020 181C     		adds	r0, r3, #0
 3431 0022 5BB2     		sxtb	r3, r3
 3432              	.LBE139:
 3433              	.LBE141:
 973:../../../../../../Middlewares/Third_Party/LoRaWAN/Mac/region/RegionRU864.c ****     int8_t txPowerLimited = LimitTxPower( continuousWave->TxPower, NvmCtx.Bands[NvmCtx.Channels[con
 3434              		.loc 1 973 0
 3435 0024 83B0     		sub	sp, sp, #12
 3436              	.LCFI38:
 3437              		.cfi_def_cfa_offset 32
 977:../../../../../../Middlewares/Third_Party/LoRaWAN/Mac/region/RegionRU864.c **** 
 978:../../../../../../Middlewares/Third_Party/LoRaWAN/Mac/region/RegionRU864.c ****     // Calculate physical TX power
 979:../../../../../../Middlewares/Third_Party/LoRaWAN/Mac/region/RegionRU864.c ****     phyTxPower = RegionCommonComputeTxPower( txPowerLimited, continuousWave->MaxEirp, continuousWav
 3438              		.loc 1 979 0
 3439 0026 A268     		ldr	r2, [r4, #8]
 3440 0028 6168     		ldr	r1, [r4, #4]
 3441              	.LBB142:
 3442              	.LBB140:
 103:../../../../../../Middlewares/Third_Party/LoRaWAN/Mac/region/RegionRU864.c **** 
 3443              		.loc 1 103 0
 3444 002a BB42     		cmp	r3, r7
 3445 002c 00DA     		bge	.L314
 3446 002e 301C     		adds	r0, r6, #0
 3447              	.L314:
 3448              	.LBE140:
 3449              	.LBE142:
 3450              		.loc 1 979 0
 3451 0030 40B2     		sxtb	r0, r0
 3452 0032 FFF7FEFF 		bl	RegionCommonComputeTxPower
 3453              	.LVL318:
 980:../../../../../../Middlewares/Third_Party/LoRaWAN/Mac/region/RegionRU864.c **** 
 981:../../../../../../Middlewares/Third_Party/LoRaWAN/Mac/region/RegionRU864.c ****     Radio.SetTxContinuousWave( frequency, phyTxPower, continuousWave->Timeout );
 3454              		.loc 1 981 0
 3455 0036 054B     		ldr	r3, .L315+4
 979:../../../../../../Middlewares/Third_Party/LoRaWAN/Mac/region/RegionRU864.c **** 
 3456              		.loc 1 979 0
 3457 0038 0100     		movs	r1, r0
ARM GAS  C:\Users\EBANO_~1\AppData\Local\Temp\ccazSBuk.s 			page 87


 3458              	.LVL319:
 3459              		.loc 1 981 0
 3460 003a 5B6C     		ldr	r3, [r3, #68]
 3461 003c A289     		ldrh	r2, [r4, #12]
 3462 003e 2800     		movs	r0, r5
 3463 0040 0193     		str	r3, [sp, #4]
 3464 0042 9847     		blx	r3
 3465              	.LVL320:
 982:../../../../../../Middlewares/Third_Party/LoRaWAN/Mac/region/RegionRU864.c **** }
 3466              		.loc 1 982 0
 3467 0044 03B0     		add	sp, sp, #12
 3468              		@ sp needed
 3469              	.LVL321:
 3470              	.LVL322:
 3471 0046 F0BD     		pop	{r4, r5, r6, r7, pc}
 3472              	.L316:
 3473              		.align	2
 3474              	.L315:
 3475 0048 00000000 		.word	.LANCHOR1
 3476 004c 00000000 		.word	Radio
 3477              		.cfi_endproc
 3478              	.LFE64:
 3479              		.size	RegionRU864SetContinuousWave, .-RegionRU864SetContinuousWave
 3480              		.section	.text.RegionRU864ApplyDrOffset,"ax",%progbits
 3481              		.align	1
 3482              		.p2align 2,,3
 3483              		.global	RegionRU864ApplyDrOffset
 3484              		.syntax unified
 3485              		.code	16
 3486              		.thumb_func
 3487              		.fpu softvfp
 3488              		.type	RegionRU864ApplyDrOffset, %function
 3489              	RegionRU864ApplyDrOffset:
 3490              	.LFB65:
 983:../../../../../../Middlewares/Third_Party/LoRaWAN/Mac/region/RegionRU864.c **** 
 984:../../../../../../Middlewares/Third_Party/LoRaWAN/Mac/region/RegionRU864.c **** uint8_t RegionRU864ApplyDrOffset( uint8_t downlinkDwellTime, int8_t dr, int8_t drOffset )
 985:../../../../../../Middlewares/Third_Party/LoRaWAN/Mac/region/RegionRU864.c **** {
 3491              		.loc 1 985 0
 3492              		.cfi_startproc
 3493              		@ args = 0, pretend = 0, frame = 0
 3494              		@ frame_needed = 0, uses_anonymous_args = 0
 3495              		@ link register save eliminated.
 3496              	.LVL323:
 986:../../../../../../Middlewares/Third_Party/LoRaWAN/Mac/region/RegionRU864.c ****     int8_t datarate = dr - drOffset;
 3497              		.loc 1 986 0
 3498 0000 891A     		subs	r1, r1, r2
 3499              	.LVL324:
 3500 0002 49B2     		sxtb	r1, r1
 3501              	.LVL325:
 987:../../../../../../Middlewares/Third_Party/LoRaWAN/Mac/region/RegionRU864.c **** 
 988:../../../../../../Middlewares/Third_Party/LoRaWAN/Mac/region/RegionRU864.c ****     if( datarate < 0 )
 989:../../../../../../Middlewares/Third_Party/LoRaWAN/Mac/region/RegionRU864.c ****     {
 990:../../../../../../Middlewares/Third_Party/LoRaWAN/Mac/region/RegionRU864.c ****         datarate = DR_0;
 991:../../../../../../Middlewares/Third_Party/LoRaWAN/Mac/region/RegionRU864.c ****     }
 992:../../../../../../Middlewares/Third_Party/LoRaWAN/Mac/region/RegionRU864.c ****     return datarate;
 3502              		.loc 1 992 0
 3503 0004 C843     		mvns	r0, r1
ARM GAS  C:\Users\EBANO_~1\AppData\Local\Temp\ccazSBuk.s 			page 88


 3504              	.LVL326:
 3505 0006 C017     		asrs	r0, r0, #31
 3506 0008 0840     		ands	r0, r1
 3507 000a C0B2     		uxtb	r0, r0
 993:../../../../../../Middlewares/Third_Party/LoRaWAN/Mac/region/RegionRU864.c **** }
 3508              		.loc 1 993 0
 3509              		@ sp needed
 3510 000c 7047     		bx	lr
 3511              		.cfi_endproc
 3512              	.LFE65:
 3513              		.size	RegionRU864ApplyDrOffset, .-RegionRU864ApplyDrOffset
 3514 000e C046     		.section	.text.RegionRU864RxBeaconSetup,"ax",%progbits
 3515              		.align	1
 3516              		.p2align 2,,3
 3517              		.global	RegionRU864RxBeaconSetup
 3518              		.syntax unified
 3519              		.code	16
 3520              		.thumb_func
 3521              		.fpu softvfp
 3522              		.type	RegionRU864RxBeaconSetup, %function
 3523              	RegionRU864RxBeaconSetup:
 3524              	.LFB66:
 994:../../../../../../Middlewares/Third_Party/LoRaWAN/Mac/region/RegionRU864.c **** 
 995:../../../../../../Middlewares/Third_Party/LoRaWAN/Mac/region/RegionRU864.c **** void RegionRU864RxBeaconSetup( RxBeaconSetup_t* rxBeaconSetup, uint8_t* outDr )
 996:../../../../../../Middlewares/Third_Party/LoRaWAN/Mac/region/RegionRU864.c **** {
 3525              		.loc 1 996 0
 3526              		.cfi_startproc
 3527              		@ args = 0, pretend = 0, frame = 24
 3528              		@ frame_needed = 0, uses_anonymous_args = 0
 3529              	.LVL327:
 3530 0000 10B5     		push	{r4, lr}
 3531              	.LCFI39:
 3532              		.cfi_def_cfa_offset 8
 3533              		.cfi_offset 4, -8
 3534              		.cfi_offset 14, -4
 997:../../../../../../Middlewares/Third_Party/LoRaWAN/Mac/region/RegionRU864.c ****     RegionCommonRxBeaconSetupParams_t regionCommonRxBeaconSetup;
 998:../../../../../../Middlewares/Third_Party/LoRaWAN/Mac/region/RegionRU864.c **** 
 999:../../../../../../Middlewares/Third_Party/LoRaWAN/Mac/region/RegionRU864.c ****     regionCommonRxBeaconSetup.Datarates = DataratesRU864;
 3535              		.loc 1 999 0
 3536 0002 0B4A     		ldr	r2, .L320
 996:../../../../../../Middlewares/Third_Party/LoRaWAN/Mac/region/RegionRU864.c ****     RegionCommonRxBeaconSetupParams_t regionCommonRxBeaconSetup;
 3537              		.loc 1 996 0
 3538 0004 86B0     		sub	sp, sp, #24
 3539              	.LCFI40:
 3540              		.cfi_def_cfa_offset 32
 3541              		.loc 1 999 0
 3542 0006 2032     		adds	r2, r2, #32
 3543 0008 0192     		str	r2, [sp, #4]
1000:../../../../../../Middlewares/Third_Party/LoRaWAN/Mac/region/RegionRU864.c ****     regionCommonRxBeaconSetup.Frequency = rxBeaconSetup->Frequency;
 3544              		.loc 1 1000 0
 3545 000a 8268     		ldr	r2, [r0, #8]
 999:../../../../../../Middlewares/Third_Party/LoRaWAN/Mac/region/RegionRU864.c ****     regionCommonRxBeaconSetup.Frequency = rxBeaconSetup->Frequency;
 3546              		.loc 1 999 0
 3547 000c 01AB     		add	r3, sp, #4
 3548              		.loc 1 1000 0
 3549 000e 0292     		str	r2, [sp, #8]
1001:../../../../../../Middlewares/Third_Party/LoRaWAN/Mac/region/RegionRU864.c ****     regionCommonRxBeaconSetup.BeaconSize = RU864_BEACON_SIZE;
ARM GAS  C:\Users\EBANO_~1\AppData\Local\Temp\ccazSBuk.s 			page 89


 3550              		.loc 1 1001 0
 3551 0010 084A     		ldr	r2, .L320+4
 996:../../../../../../Middlewares/Third_Party/LoRaWAN/Mac/region/RegionRU864.c ****     RegionCommonRxBeaconSetupParams_t regionCommonRxBeaconSetup;
 3552              		.loc 1 996 0
 3553 0012 0C00     		movs	r4, r1
 3554              		.loc 1 1001 0
 3555 0014 1A81     		strh	r2, [r3, #8]
1002:../../../../../../Middlewares/Third_Party/LoRaWAN/Mac/region/RegionRU864.c ****     regionCommonRxBeaconSetup.BeaconDatarate = RU864_BEACON_CHANNEL_DR;
 3556              		.loc 1 1002 0
 3557 0016 0022     		movs	r2, #0
 3558 0018 9A72     		strb	r2, [r3, #10]
1003:../../../../../../Middlewares/Third_Party/LoRaWAN/Mac/region/RegionRU864.c ****     regionCommonRxBeaconSetup.BeaconChannelBW = RU864_BEACON_CHANNEL_BW;
1004:../../../../../../Middlewares/Third_Party/LoRaWAN/Mac/region/RegionRU864.c ****     regionCommonRxBeaconSetup.RxTime = rxBeaconSetup->RxTime;
 3559              		.loc 1 1004 0
 3560 001a 4268     		ldr	r2, [r0, #4]
 3561 001c 0492     		str	r2, [sp, #16]
1005:../../../../../../Middlewares/Third_Party/LoRaWAN/Mac/region/RegionRU864.c ****     regionCommonRxBeaconSetup.SymbolTimeout = rxBeaconSetup->SymbolTimeout;
 3562              		.loc 1 1005 0
 3563 001e 0288     		ldrh	r2, [r0]
1006:../../../../../../Middlewares/Third_Party/LoRaWAN/Mac/region/RegionRU864.c **** 
1007:../../../../../../Middlewares/Third_Party/LoRaWAN/Mac/region/RegionRU864.c ****     RegionCommonRxBeaconSetup( &regionCommonRxBeaconSetup );
 3564              		.loc 1 1007 0
 3565 0020 1800     		movs	r0, r3
 3566              	.LVL328:
1005:../../../../../../Middlewares/Third_Party/LoRaWAN/Mac/region/RegionRU864.c ****     regionCommonRxBeaconSetup.SymbolTimeout = rxBeaconSetup->SymbolTimeout;
 3567              		.loc 1 1005 0
 3568 0022 1A82     		strh	r2, [r3, #16]
 3569              		.loc 1 1007 0
 3570 0024 FFF7FEFF 		bl	RegionCommonRxBeaconSetup
 3571              	.LVL329:
1008:../../../../../../Middlewares/Third_Party/LoRaWAN/Mac/region/RegionRU864.c **** 
1009:../../../../../../Middlewares/Third_Party/LoRaWAN/Mac/region/RegionRU864.c ****     // Store downlink datarate
1010:../../../../../../Middlewares/Third_Party/LoRaWAN/Mac/region/RegionRU864.c ****     *outDr = RU864_BEACON_CHANNEL_DR;
 3572              		.loc 1 1010 0
 3573 0028 0323     		movs	r3, #3
 3574 002a 2370     		strb	r3, [r4]
1011:../../../../../../Middlewares/Third_Party/LoRaWAN/Mac/region/RegionRU864.c **** }
 3575              		.loc 1 1011 0
 3576 002c 06B0     		add	sp, sp, #24
 3577              		@ sp needed
 3578              	.LVL330:
 3579 002e 10BD     		pop	{r4, pc}
 3580              	.L321:
 3581              		.align	2
 3582              	.L320:
 3583 0030 CC000000 		.word	.LANCHOR2
 3584 0034 11030000 		.word	785
 3585              		.cfi_endproc
 3586              	.LFE66:
 3587              		.size	RegionRU864RxBeaconSetup, .-RegionRU864RxBeaconSetup
 3588              		.bss
 3589              		.align	2
 3590              		.set	.LANCHOR1,. + 0
 3591              		.type	NvmCtx, %object
 3592              		.size	NvmCtx, 116
 3593              	NvmCtx:
 3594 0000 00000000 		.space	116
ARM GAS  C:\Users\EBANO_~1\AppData\Local\Temp\ccazSBuk.s 			page 90


 3594      00000000 
 3594      00000000 
 3594      00000000 
 3594      00000000 
 3595              		.section	.rodata
 3596              		.align	2
 3597              		.set	.LANCHOR2,. + 0
 3598              		.type	BandwidthsRU864, %object
 3599              		.size	BandwidthsRU864, 32
 3600              	BandwidthsRU864:
 3601 00cc 48E80100 		.word	125000
 3602 00d0 48E80100 		.word	125000
 3603 00d4 48E80100 		.word	125000
 3604 00d8 48E80100 		.word	125000
 3605 00dc 48E80100 		.word	125000
 3606 00e0 48E80100 		.word	125000
 3607 00e4 90D00300 		.word	250000
 3608 00e8 00000000 		.word	0
 3609              		.type	DataratesRU864, %object
 3610              		.size	DataratesRU864, 8
 3611              	DataratesRU864:
 3612 00ec 0C       		.byte	12
 3613 00ed 0B       		.byte	11
 3614 00ee 0A       		.byte	10
 3615 00ef 09       		.byte	9
 3616 00f0 08       		.byte	8
 3617 00f1 07       		.byte	7
 3618 00f2 07       		.byte	7
 3619 00f3 32       		.byte	50
 3620              		.align	2
 3621              		.set	.LANCHOR0,. + 0
 3622              		.type	MaxPayloadOfDatarateRU864, %object
 3623              		.size	MaxPayloadOfDatarateRU864, 8
 3624              	MaxPayloadOfDatarateRU864:
 3625 00f4 33       		.byte	51
 3626 00f5 33       		.byte	51
 3627 00f6 33       		.byte	51
 3628 00f7 73       		.byte	115
 3629 00f8 F2       		.byte	-14
 3630 00f9 F2       		.byte	-14
 3631 00fa F2       		.byte	-14
 3632 00fb F2       		.byte	-14
 3633              		.type	MaxPayloadOfDatarateRepeaterRU864, %object
 3634              		.size	MaxPayloadOfDatarateRepeaterRU864, 8
 3635              	MaxPayloadOfDatarateRepeaterRU864:
 3636 00fc 33       		.byte	51
 3637 00fd 33       		.byte	51
 3638 00fe 33       		.byte	51
 3639 00ff 73       		.byte	115
 3640 0100 DE       		.byte	-34
 3641 0101 DE       		.byte	-34
 3642 0102 DE       		.byte	-34
 3643 0103 DE       		.byte	-34
 3644              	.LC0:
 3645 0104 A05CCA33 		.word	868900000
 3646 0108 00000000 		.word	0
 3647 010c 50       		.byte	80
ARM GAS  C:\Users\EBANO_~1\AppData\Local\Temp\ccazSBuk.s 			page 91


 3648 010d 00       		.byte	0
 3649 010e 0000     		.space	2
 3650              	.LC1:
 3651 0110 E069CD33 		.word	869100000
 3652 0114 00000000 		.word	0
 3653 0118 50       		.byte	80
 3654 0119 00       		.byte	0
 3655 011a 0000     		.space	2
 3656              		.text
 3657              	.Letext0:
 3658              		.file 2 "c:\\program files (x86)\\gnu tools arm embedded\\7 2018-q2-update\\arm-none-eabi\\include
 3659              		.file 3 "c:\\program files (x86)\\gnu tools arm embedded\\7 2018-q2-update\\arm-none-eabi\\include
 3660              		.file 4 "../../../../../../Drivers/CMSIS/Device/ST/STM32L0xx/Include/system_stm32l0xx.h"
 3661              		.file 5 "c:\\program files (x86)\\gnu tools arm embedded\\7 2018-q2-update\\lib\\gcc\\arm-none-eab
 3662              		.file 6 "c:\\program files (x86)\\gnu tools arm embedded\\7 2018-q2-update\\arm-none-eabi\\include
 3663              		.file 7 "c:\\program files (x86)\\gnu tools arm embedded\\7 2018-q2-update\\arm-none-eabi\\include
 3664              		.file 8 "c:\\program files (x86)\\gnu tools arm embedded\\7 2018-q2-update\\arm-none-eabi\\include
 3665              		.file 9 "c:\\program files (x86)\\gnu tools arm embedded\\7 2018-q2-update\\arm-none-eabi\\include
 3666              		.file 10 "../../../../../../Middlewares/Third_Party/LoRaWAN/Utilities/utilities.h"
 3667              		.file 11 "../../../../../../Middlewares/Third_Party/LoRaWAN/Mac/LoRaMacTypes.h"
 3668              		.file 12 "c:\\program files (x86)\\gnu tools arm embedded\\7 2018-q2-update\\arm-none-eabi\\includ
 3669              		.file 13 "../../../../../../Middlewares/Third_Party/LoRaWAN/Phy/radio.h"
 3670              		.file 14 "../../../../../../Middlewares/Third_Party/LoRaWAN/Mac/LoRaMac.h"
 3671              		.file 15 "../../../../../../Middlewares/Third_Party/LoRaWAN/Mac/region/Region.h"
 3672              		.file 16 "../../../../../../Middlewares/Third_Party/LoRaWAN/Mac/region/RegionCommon.h"
 3673              		.file 17 "../../../../../../Middlewares/Third_Party/LoRaWAN/Mac/region/RegionRU864.h"
 3674              		.file 18 "../../../../../../Middlewares/Third_Party/LoRaWAN/Utilities/timeServer.h"
 3675              		.file 19 "<built-in>"
 3676              		.section	.debug_info,"",%progbits
 3677              	.Ldebug_info0:
 3678 0000 7A330000 		.4byte	0x337a
 3679 0004 0200     		.2byte	0x2
 3680 0006 00000000 		.4byte	.Ldebug_abbrev0
 3681 000a 04       		.byte	0x4
 3682 000b 01       		.uleb128 0x1
 3683 000c 05090000 		.4byte	.LASF560
 3684 0010 0C       		.byte	0xc
 3685 0011 74100000 		.4byte	.LASF561
 3686 0015 4E070000 		.4byte	.LASF562
 3687 0019 18020000 		.4byte	.Ldebug_ranges0+0x218
 3688 001d 00000000 		.4byte	0
 3689 0021 00000000 		.4byte	0
 3690 0025 00000000 		.4byte	.Ldebug_line0
 3691 0029 02       		.uleb128 0x2
 3692 002a 01       		.byte	0x1
 3693 002b 06       		.byte	0x6
 3694 002c 9C120000 		.4byte	.LASF2
 3695 0030 03       		.uleb128 0x3
 3696 0031 5E200000 		.4byte	.LASF0
 3697 0035 02       		.byte	0x2
 3698 0036 29       		.byte	0x29
 3699 0037 29000000 		.4byte	0x29
 3700 003b 03       		.uleb128 0x3
 3701 003c 82000000 		.4byte	.LASF1
 3702 0040 02       		.byte	0x2
 3703 0041 2B       		.byte	0x2b
 3704 0042 46000000 		.4byte	0x46
ARM GAS  C:\Users\EBANO_~1\AppData\Local\Temp\ccazSBuk.s 			page 92


 3705 0046 02       		.uleb128 0x2
 3706 0047 01       		.byte	0x1
 3707 0048 08       		.byte	0x8
 3708 0049 01070000 		.4byte	.LASF3
 3709 004d 03       		.uleb128 0x3
 3710 004e 8D050000 		.4byte	.LASF4
 3711 0052 02       		.byte	0x2
 3712 0053 37       		.byte	0x37
 3713 0054 58000000 		.4byte	0x58
 3714 0058 02       		.uleb128 0x2
 3715 0059 02       		.byte	0x2
 3716 005a 05       		.byte	0x5
 3717 005b F0200000 		.4byte	.LASF5
 3718 005f 03       		.uleb128 0x3
 3719 0060 A3050000 		.4byte	.LASF6
 3720 0064 02       		.byte	0x2
 3721 0065 39       		.byte	0x39
 3722 0066 6A000000 		.4byte	0x6a
 3723 006a 02       		.uleb128 0x2
 3724 006b 02       		.byte	0x2
 3725 006c 07       		.byte	0x7
 3726 006d 89120000 		.4byte	.LASF7
 3727 0071 03       		.uleb128 0x3
 3728 0072 051A0000 		.4byte	.LASF8
 3729 0076 02       		.byte	0x2
 3730 0077 4D       		.byte	0x4d
 3731 0078 7C000000 		.4byte	0x7c
 3732 007c 02       		.uleb128 0x2
 3733 007d 04       		.byte	0x4
 3734 007e 05       		.byte	0x5
 3735 007f 59140000 		.4byte	.LASF9
 3736 0083 03       		.uleb128 0x3
 3737 0084 181A0000 		.4byte	.LASF10
 3738 0088 02       		.byte	0x2
 3739 0089 4F       		.byte	0x4f
 3740 008a 8E000000 		.4byte	0x8e
 3741 008e 02       		.uleb128 0x2
 3742 008f 04       		.byte	0x4
 3743 0090 07       		.byte	0x7
 3744 0091 D3150000 		.4byte	.LASF11
 3745 0095 02       		.uleb128 0x2
 3746 0096 08       		.byte	0x8
 3747 0097 05       		.byte	0x5
 3748 0098 4A1E0000 		.4byte	.LASF12
 3749 009c 02       		.uleb128 0x2
 3750 009d 08       		.byte	0x8
 3751 009e 07       		.byte	0x7
 3752 009f DC1B0000 		.4byte	.LASF13
 3753 00a3 04       		.uleb128 0x4
 3754 00a4 04       		.byte	0x4
 3755 00a5 05       		.byte	0x5
 3756 00a6 696E7400 		.ascii	"int\000"
 3757 00aa 02       		.uleb128 0x2
 3758 00ab 04       		.byte	0x4
 3759 00ac 07       		.byte	0x7
 3760 00ad 7F200000 		.4byte	.LASF14
 3761 00b1 03       		.uleb128 0x3
ARM GAS  C:\Users\EBANO_~1\AppData\Local\Temp\ccazSBuk.s 			page 93


 3762 00b2 A1110000 		.4byte	.LASF15
 3763 00b6 03       		.byte	0x3
 3764 00b7 14       		.byte	0x14
 3765 00b8 30000000 		.4byte	0x30
 3766 00bc 03       		.uleb128 0x3
 3767 00bd 3C0B0000 		.4byte	.LASF16
 3768 00c1 03       		.byte	0x3
 3769 00c2 18       		.byte	0x18
 3770 00c3 3B000000 		.4byte	0x3b
 3771 00c7 05       		.uleb128 0x5
 3772 00c8 BC000000 		.4byte	0xbc
 3773 00cc 03       		.uleb128 0x3
 3774 00cd 6A120000 		.4byte	.LASF17
 3775 00d1 03       		.byte	0x3
 3776 00d2 20       		.byte	0x20
 3777 00d3 4D000000 		.4byte	0x4d
 3778 00d7 03       		.uleb128 0x3
 3779 00d8 25010000 		.4byte	.LASF18
 3780 00dc 03       		.byte	0x3
 3781 00dd 24       		.byte	0x24
 3782 00de 5F000000 		.4byte	0x5f
 3783 00e2 03       		.uleb128 0x3
 3784 00e3 8A020000 		.4byte	.LASF19
 3785 00e7 03       		.byte	0x3
 3786 00e8 2C       		.byte	0x2c
 3787 00e9 71000000 		.4byte	0x71
 3788 00ed 03       		.uleb128 0x3
 3789 00ee 02150000 		.4byte	.LASF20
 3790 00f2 03       		.byte	0x3
 3791 00f3 30       		.byte	0x30
 3792 00f4 83000000 		.4byte	0x83
 3793 00f8 05       		.uleb128 0x5
 3794 00f9 ED000000 		.4byte	0xed
 3795 00fd 06       		.uleb128 0x6
 3796 00fe 36130000 		.4byte	.LASF21
 3797 0102 04       		.byte	0x4
 3798 0103 4A       		.byte	0x4a
 3799 0104 ED000000 		.4byte	0xed
 3800 0108 01       		.byte	0x1
 3801 0109 01       		.byte	0x1
 3802 010a 07       		.uleb128 0x7
 3803 010b C7000000 		.4byte	0xc7
 3804 010f 1A010000 		.4byte	0x11a
 3805 0113 08       		.uleb128 0x8
 3806 0114 AA000000 		.4byte	0xaa
 3807 0118 0F       		.byte	0xf
 3808 0119 00       		.byte	0
 3809 011a 05       		.uleb128 0x5
 3810 011b 0A010000 		.4byte	0x10a
 3811 011f 06       		.uleb128 0x6
 3812 0120 FE1E0000 		.4byte	.LASF22
 3813 0124 04       		.byte	0x4
 3814 0125 4D       		.byte	0x4d
 3815 0126 1A010000 		.4byte	0x11a
 3816 012a 01       		.byte	0x1
 3817 012b 01       		.byte	0x1
 3818 012c 07       		.uleb128 0x7
ARM GAS  C:\Users\EBANO_~1\AppData\Local\Temp\ccazSBuk.s 			page 94


 3819 012d C7000000 		.4byte	0xc7
 3820 0131 3C010000 		.4byte	0x13c
 3821 0135 08       		.uleb128 0x8
 3822 0136 AA000000 		.4byte	0xaa
 3823 013a 07       		.byte	0x7
 3824 013b 00       		.byte	0
 3825 013c 05       		.uleb128 0x5
 3826 013d 2C010000 		.4byte	0x12c
 3827 0141 06       		.uleb128 0x6
 3828 0142 C9160000 		.4byte	.LASF23
 3829 0146 04       		.byte	0x4
 3830 0147 4E       		.byte	0x4e
 3831 0148 3C010000 		.4byte	0x13c
 3832 014c 01       		.byte	0x1
 3833 014d 01       		.byte	0x1
 3834 014e 07       		.uleb128 0x7
 3835 014f C7000000 		.4byte	0xc7
 3836 0153 5E010000 		.4byte	0x15e
 3837 0157 08       		.uleb128 0x8
 3838 0158 AA000000 		.4byte	0xaa
 3839 015c 08       		.byte	0x8
 3840 015d 00       		.byte	0
 3841 015e 05       		.uleb128 0x5
 3842 015f 4E010000 		.4byte	0x14e
 3843 0163 06       		.uleb128 0x6
 3844 0164 49190000 		.4byte	.LASF24
 3845 0168 04       		.byte	0x4
 3846 0169 4F       		.byte	0x4f
 3847 016a 5E010000 		.4byte	0x15e
 3848 016e 01       		.byte	0x1
 3849 016f 01       		.byte	0x1
 3850 0170 03       		.uleb128 0x3
 3851 0171 1E0B0000 		.4byte	.LASF25
 3852 0175 05       		.byte	0x5
 3853 0176 D8       		.byte	0xd8
 3854 0177 AA000000 		.4byte	0xaa
 3855 017b 02       		.uleb128 0x2
 3856 017c 08       		.byte	0x8
 3857 017d 04       		.byte	0x4
 3858 017e 6C150000 		.4byte	.LASF26
 3859 0182 09       		.uleb128 0x9
 3860 0183 04       		.byte	0x4
 3861 0184 03       		.uleb128 0x3
 3862 0185 33050000 		.4byte	.LASF27
 3863 0189 06       		.byte	0x6
 3864 018a 22       		.byte	0x22
 3865 018b 8F010000 		.4byte	0x18f
 3866 018f 0A       		.uleb128 0xa
 3867 0190 04       		.byte	0x4
 3868 0191 95010000 		.4byte	0x195
 3869 0195 0B       		.uleb128 0xb
 3870 0196 22040000 		.4byte	.LASF134
 3871 019a 01       		.byte	0x1
 3872 019b 03       		.uleb128 0x3
 3873 019c F10A0000 		.4byte	.LASF28
 3874 01a0 07       		.byte	0x7
 3875 01a1 2C       		.byte	0x2c
ARM GAS  C:\Users\EBANO_~1\AppData\Local\Temp\ccazSBuk.s 			page 95


 3876 01a2 7C000000 		.4byte	0x7c
 3877 01a6 03       		.uleb128 0x3
 3878 01a7 6D190000 		.4byte	.LASF29
 3879 01ab 07       		.byte	0x7
 3880 01ac 72       		.byte	0x72
 3881 01ad 7C000000 		.4byte	0x7c
 3882 01b1 0C       		.uleb128 0xc
 3883 01b2 E60C0000 		.4byte	.LASF30
 3884 01b6 05       		.byte	0x5
 3885 01b7 6501     		.2byte	0x165
 3886 01b9 AA000000 		.4byte	0xaa
 3887 01bd 0D       		.uleb128 0xd
 3888 01be 04       		.byte	0x4
 3889 01bf 07       		.byte	0x7
 3890 01c0 A6       		.byte	0xa6
 3891 01c1 DC010000 		.4byte	0x1dc
 3892 01c5 0E       		.uleb128 0xe
 3893 01c6 C7130000 		.4byte	.LASF31
 3894 01ca 07       		.byte	0x7
 3895 01cb A8       		.byte	0xa8
 3896 01cc B1010000 		.4byte	0x1b1
 3897 01d0 0E       		.uleb128 0xe
 3898 01d1 8C0C0000 		.4byte	.LASF32
 3899 01d5 07       		.byte	0x7
 3900 01d6 A9       		.byte	0xa9
 3901 01d7 DC010000 		.4byte	0x1dc
 3902 01db 00       		.byte	0
 3903 01dc 07       		.uleb128 0x7
 3904 01dd 46000000 		.4byte	0x46
 3905 01e1 EC010000 		.4byte	0x1ec
 3906 01e5 08       		.uleb128 0x8
 3907 01e6 AA000000 		.4byte	0xaa
 3908 01ea 03       		.byte	0x3
 3909 01eb 00       		.byte	0
 3910 01ec 0F       		.uleb128 0xf
 3911 01ed 08       		.byte	0x8
 3912 01ee 07       		.byte	0x7
 3913 01ef A3       		.byte	0xa3
 3914 01f0 11020000 		.4byte	0x211
 3915 01f4 10       		.uleb128 0x10
 3916 01f5 340B0000 		.4byte	.LASF33
 3917 01f9 07       		.byte	0x7
 3918 01fa A5       		.byte	0xa5
 3919 01fb A3000000 		.4byte	0xa3
 3920 01ff 02       		.byte	0x2
 3921 0200 23       		.byte	0x23
 3922 0201 00       		.uleb128 0
 3923 0202 10       		.uleb128 0x10
 3924 0203 4B1A0000 		.4byte	.LASF34
 3925 0207 07       		.byte	0x7
 3926 0208 AA       		.byte	0xaa
 3927 0209 BD010000 		.4byte	0x1bd
 3928 020d 02       		.byte	0x2
 3929 020e 23       		.byte	0x23
 3930 020f 04       		.uleb128 0x4
 3931 0210 00       		.byte	0
 3932 0211 03       		.uleb128 0x3
ARM GAS  C:\Users\EBANO_~1\AppData\Local\Temp\ccazSBuk.s 			page 96


 3933 0212 E2190000 		.4byte	.LASF35
 3934 0216 07       		.byte	0x7
 3935 0217 AB       		.byte	0xab
 3936 0218 EC010000 		.4byte	0x1ec
 3937 021c 03       		.uleb128 0x3
 3938 021d A71D0000 		.4byte	.LASF36
 3939 0221 07       		.byte	0x7
 3940 0222 AF       		.byte	0xaf
 3941 0223 84010000 		.4byte	0x184
 3942 0227 03       		.uleb128 0x3
 3943 0228 CD110000 		.4byte	.LASF37
 3944 022c 08       		.byte	0x8
 3945 022d 16       		.byte	0x16
 3946 022e 8E000000 		.4byte	0x8e
 3947 0232 11       		.uleb128 0x11
 3948 0233 58170000 		.4byte	.LASF42
 3949 0237 18       		.byte	0x18
 3950 0238 08       		.byte	0x8
 3951 0239 2F       		.byte	0x2f
 3952 023a 91020000 		.4byte	0x291
 3953 023e 10       		.uleb128 0x10
 3954 023f 5B0E0000 		.4byte	.LASF38
 3955 0243 08       		.byte	0x8
 3956 0244 31       		.byte	0x31
 3957 0245 91020000 		.4byte	0x291
 3958 0249 02       		.byte	0x2
 3959 024a 23       		.byte	0x23
 3960 024b 00       		.uleb128 0
 3961 024c 12       		.uleb128 0x12
 3962 024d 5F6B00   		.ascii	"_k\000"
 3963 0250 08       		.byte	0x8
 3964 0251 32       		.byte	0x32
 3965 0252 A3000000 		.4byte	0xa3
 3966 0256 02       		.byte	0x2
 3967 0257 23       		.byte	0x23
 3968 0258 04       		.uleb128 0x4
 3969 0259 10       		.uleb128 0x10
 3970 025a 4A150000 		.4byte	.LASF39
 3971 025e 08       		.byte	0x8
 3972 025f 32       		.byte	0x32
 3973 0260 A3000000 		.4byte	0xa3
 3974 0264 02       		.byte	0x2
 3975 0265 23       		.byte	0x23
 3976 0266 08       		.uleb128 0x8
 3977 0267 10       		.uleb128 0x10
 3978 0268 58200000 		.4byte	.LASF40
 3979 026c 08       		.byte	0x8
 3980 026d 32       		.byte	0x32
 3981 026e A3000000 		.4byte	0xa3
 3982 0272 02       		.byte	0x2
 3983 0273 23       		.byte	0x23
 3984 0274 0C       		.uleb128 0xc
 3985 0275 10       		.uleb128 0x10
 3986 0276 39070000 		.4byte	.LASF41
 3987 027a 08       		.byte	0x8
 3988 027b 32       		.byte	0x32
 3989 027c A3000000 		.4byte	0xa3
ARM GAS  C:\Users\EBANO_~1\AppData\Local\Temp\ccazSBuk.s 			page 97


 3990 0280 02       		.byte	0x2
 3991 0281 23       		.byte	0x23
 3992 0282 10       		.uleb128 0x10
 3993 0283 12       		.uleb128 0x12
 3994 0284 5F7800   		.ascii	"_x\000"
 3995 0287 08       		.byte	0x8
 3996 0288 33       		.byte	0x33
 3997 0289 97020000 		.4byte	0x297
 3998 028d 02       		.byte	0x2
 3999 028e 23       		.byte	0x23
 4000 028f 14       		.uleb128 0x14
 4001 0290 00       		.byte	0
 4002 0291 0A       		.uleb128 0xa
 4003 0292 04       		.byte	0x4
 4004 0293 32020000 		.4byte	0x232
 4005 0297 07       		.uleb128 0x7
 4006 0298 27020000 		.4byte	0x227
 4007 029c A7020000 		.4byte	0x2a7
 4008 02a0 08       		.uleb128 0x8
 4009 02a1 AA000000 		.4byte	0xaa
 4010 02a5 00       		.byte	0
 4011 02a6 00       		.byte	0
 4012 02a7 11       		.uleb128 0x11
 4013 02a8 E0040000 		.4byte	.LASF43
 4014 02ac 24       		.byte	0x24
 4015 02ad 08       		.byte	0x8
 4016 02ae 37       		.byte	0x37
 4017 02af 32030000 		.4byte	0x332
 4018 02b3 10       		.uleb128 0x10
 4019 02b4 13100000 		.4byte	.LASF44
 4020 02b8 08       		.byte	0x8
 4021 02b9 39       		.byte	0x39
 4022 02ba A3000000 		.4byte	0xa3
 4023 02be 02       		.byte	0x2
 4024 02bf 23       		.byte	0x23
 4025 02c0 00       		.uleb128 0
 4026 02c1 10       		.uleb128 0x10
 4027 02c2 67200000 		.4byte	.LASF45
 4028 02c6 08       		.byte	0x8
 4029 02c7 3A       		.byte	0x3a
 4030 02c8 A3000000 		.4byte	0xa3
 4031 02cc 02       		.byte	0x2
 4032 02cd 23       		.byte	0x23
 4033 02ce 04       		.uleb128 0x4
 4034 02cf 10       		.uleb128 0x10
 4035 02d0 A20C0000 		.4byte	.LASF46
 4036 02d4 08       		.byte	0x8
 4037 02d5 3B       		.byte	0x3b
 4038 02d6 A3000000 		.4byte	0xa3
 4039 02da 02       		.byte	0x2
 4040 02db 23       		.byte	0x23
 4041 02dc 08       		.uleb128 0x8
 4042 02dd 10       		.uleb128 0x10
 4043 02de A20D0000 		.4byte	.LASF47
 4044 02e2 08       		.byte	0x8
 4045 02e3 3C       		.byte	0x3c
 4046 02e4 A3000000 		.4byte	0xa3
ARM GAS  C:\Users\EBANO_~1\AppData\Local\Temp\ccazSBuk.s 			page 98


 4047 02e8 02       		.byte	0x2
 4048 02e9 23       		.byte	0x23
 4049 02ea 0C       		.uleb128 0xc
 4050 02eb 10       		.uleb128 0x10
 4051 02ec F5000000 		.4byte	.LASF48
 4052 02f0 08       		.byte	0x8
 4053 02f1 3D       		.byte	0x3d
 4054 02f2 A3000000 		.4byte	0xa3
 4055 02f6 02       		.byte	0x2
 4056 02f7 23       		.byte	0x23
 4057 02f8 10       		.uleb128 0x10
 4058 02f9 10       		.uleb128 0x10
 4059 02fa C7080000 		.4byte	.LASF49
 4060 02fe 08       		.byte	0x8
 4061 02ff 3E       		.byte	0x3e
 4062 0300 A3000000 		.4byte	0xa3
 4063 0304 02       		.byte	0x2
 4064 0305 23       		.byte	0x23
 4065 0306 14       		.uleb128 0x14
 4066 0307 10       		.uleb128 0x10
 4067 0308 A7060000 		.4byte	.LASF50
 4068 030c 08       		.byte	0x8
 4069 030d 3F       		.byte	0x3f
 4070 030e A3000000 		.4byte	0xa3
 4071 0312 02       		.byte	0x2
 4072 0313 23       		.byte	0x23
 4073 0314 18       		.uleb128 0x18
 4074 0315 10       		.uleb128 0x10
 4075 0316 01050000 		.4byte	.LASF51
 4076 031a 08       		.byte	0x8
 4077 031b 40       		.byte	0x40
 4078 031c A3000000 		.4byte	0xa3
 4079 0320 02       		.byte	0x2
 4080 0321 23       		.byte	0x23
 4081 0322 1C       		.uleb128 0x1c
 4082 0323 10       		.uleb128 0x10
 4083 0324 B1060000 		.4byte	.LASF52
 4084 0328 08       		.byte	0x8
 4085 0329 41       		.byte	0x41
 4086 032a A3000000 		.4byte	0xa3
 4087 032e 02       		.byte	0x2
 4088 032f 23       		.byte	0x23
 4089 0330 20       		.uleb128 0x20
 4090 0331 00       		.byte	0
 4091 0332 13       		.uleb128 0x13
 4092 0333 34100000 		.4byte	.LASF53
 4093 0337 0801     		.2byte	0x108
 4094 0339 08       		.byte	0x8
 4095 033a 4A       		.byte	0x4a
 4096 033b 7B030000 		.4byte	0x37b
 4097 033f 10       		.uleb128 0x10
 4098 0340 AC0D0000 		.4byte	.LASF54
 4099 0344 08       		.byte	0x8
 4100 0345 4B       		.byte	0x4b
 4101 0346 7B030000 		.4byte	0x37b
 4102 034a 02       		.byte	0x2
 4103 034b 23       		.byte	0x23
ARM GAS  C:\Users\EBANO_~1\AppData\Local\Temp\ccazSBuk.s 			page 99


 4104 034c 00       		.uleb128 0
 4105 034d 10       		.uleb128 0x10
 4106 034e 88060000 		.4byte	.LASF55
 4107 0352 08       		.byte	0x8
 4108 0353 4C       		.byte	0x4c
 4109 0354 7B030000 		.4byte	0x37b
 4110 0358 03       		.byte	0x3
 4111 0359 23       		.byte	0x23
 4112 035a 8001     		.uleb128 0x80
 4113 035c 10       		.uleb128 0x10
 4114 035d FE000000 		.4byte	.LASF56
 4115 0361 08       		.byte	0x8
 4116 0362 4E       		.byte	0x4e
 4117 0363 27020000 		.4byte	0x227
 4118 0367 03       		.byte	0x3
 4119 0368 23       		.byte	0x23
 4120 0369 8002     		.uleb128 0x100
 4121 036b 10       		.uleb128 0x10
 4122 036c 631A0000 		.4byte	.LASF57
 4123 0370 08       		.byte	0x8
 4124 0371 51       		.byte	0x51
 4125 0372 27020000 		.4byte	0x227
 4126 0376 03       		.byte	0x3
 4127 0377 23       		.byte	0x23
 4128 0378 8402     		.uleb128 0x104
 4129 037a 00       		.byte	0
 4130 037b 07       		.uleb128 0x7
 4131 037c 82010000 		.4byte	0x182
 4132 0380 8B030000 		.4byte	0x38b
 4133 0384 08       		.uleb128 0x8
 4134 0385 AA000000 		.4byte	0xaa
 4135 0389 1F       		.byte	0x1f
 4136 038a 00       		.byte	0
 4137 038b 13       		.uleb128 0x13
 4138 038c C6000000 		.4byte	.LASF58
 4139 0390 9001     		.2byte	0x190
 4140 0392 08       		.byte	0x8
 4141 0393 5D       		.byte	0x5d
 4142 0394 D2030000 		.4byte	0x3d2
 4143 0398 10       		.uleb128 0x10
 4144 0399 5B0E0000 		.4byte	.LASF38
 4145 039d 08       		.byte	0x8
 4146 039e 5E       		.byte	0x5e
 4147 039f D2030000 		.4byte	0x3d2
 4148 03a3 02       		.byte	0x2
 4149 03a4 23       		.byte	0x23
 4150 03a5 00       		.uleb128 0
 4151 03a6 10       		.uleb128 0x10
 4152 03a7 0C010000 		.4byte	.LASF59
 4153 03ab 08       		.byte	0x8
 4154 03ac 5F       		.byte	0x5f
 4155 03ad A3000000 		.4byte	0xa3
 4156 03b1 02       		.byte	0x2
 4157 03b2 23       		.byte	0x23
 4158 03b3 04       		.uleb128 0x4
 4159 03b4 10       		.uleb128 0x10
 4160 03b5 B6190000 		.4byte	.LASF60
ARM GAS  C:\Users\EBANO_~1\AppData\Local\Temp\ccazSBuk.s 			page 100


 4161 03b9 08       		.byte	0x8
 4162 03ba 61       		.byte	0x61
 4163 03bb D8030000 		.4byte	0x3d8
 4164 03bf 02       		.byte	0x2
 4165 03c0 23       		.byte	0x23
 4166 03c1 08       		.uleb128 0x8
 4167 03c2 10       		.uleb128 0x10
 4168 03c3 34100000 		.4byte	.LASF53
 4169 03c7 08       		.byte	0x8
 4170 03c8 62       		.byte	0x62
 4171 03c9 32030000 		.4byte	0x332
 4172 03cd 03       		.byte	0x3
 4173 03ce 23       		.byte	0x23
 4174 03cf 8801     		.uleb128 0x88
 4175 03d1 00       		.byte	0
 4176 03d2 0A       		.uleb128 0xa
 4177 03d3 04       		.byte	0x4
 4178 03d4 8B030000 		.4byte	0x38b
 4179 03d8 07       		.uleb128 0x7
 4180 03d9 E8030000 		.4byte	0x3e8
 4181 03dd E8030000 		.4byte	0x3e8
 4182 03e1 08       		.uleb128 0x8
 4183 03e2 AA000000 		.4byte	0xaa
 4184 03e6 1F       		.byte	0x1f
 4185 03e7 00       		.byte	0
 4186 03e8 0A       		.uleb128 0xa
 4187 03e9 04       		.byte	0x4
 4188 03ea EE030000 		.4byte	0x3ee
 4189 03ee 14       		.uleb128 0x14
 4190 03ef 01       		.byte	0x1
 4191 03f0 11       		.uleb128 0x11
 4192 03f1 62130000 		.4byte	.LASF61
 4193 03f5 08       		.byte	0x8
 4194 03f6 08       		.byte	0x8
 4195 03f7 75       		.byte	0x75
 4196 03f8 19040000 		.4byte	0x419
 4197 03fc 10       		.uleb128 0x10
 4198 03fd 93040000 		.4byte	.LASF62
 4199 0401 08       		.byte	0x8
 4200 0402 76       		.byte	0x76
 4201 0403 19040000 		.4byte	0x419
 4202 0407 02       		.byte	0x2
 4203 0408 23       		.byte	0x23
 4204 0409 00       		.uleb128 0
 4205 040a 10       		.uleb128 0x10
 4206 040b EF070000 		.4byte	.LASF63
 4207 040f 08       		.byte	0x8
 4208 0410 77       		.byte	0x77
 4209 0411 A3000000 		.4byte	0xa3
 4210 0415 02       		.byte	0x2
 4211 0416 23       		.byte	0x23
 4212 0417 04       		.uleb128 0x4
 4213 0418 00       		.byte	0
 4214 0419 0A       		.uleb128 0xa
 4215 041a 04       		.byte	0x4
 4216 041b 46000000 		.4byte	0x46
 4217 041f 11       		.uleb128 0x11
ARM GAS  C:\Users\EBANO_~1\AppData\Local\Temp\ccazSBuk.s 			page 101


 4218 0420 9D190000 		.4byte	.LASF64
 4219 0424 68       		.byte	0x68
 4220 0425 08       		.byte	0x8
 4221 0426 B5       		.byte	0xb5
 4222 0427 79050000 		.4byte	0x579
 4223 042b 12       		.uleb128 0x12
 4224 042c 5F7000   		.ascii	"_p\000"
 4225 042f 08       		.byte	0x8
 4226 0430 B6       		.byte	0xb6
 4227 0431 19040000 		.4byte	0x419
 4228 0435 02       		.byte	0x2
 4229 0436 23       		.byte	0x23
 4230 0437 00       		.uleb128 0
 4231 0438 12       		.uleb128 0x12
 4232 0439 5F7200   		.ascii	"_r\000"
 4233 043c 08       		.byte	0x8
 4234 043d B7       		.byte	0xb7
 4235 043e A3000000 		.4byte	0xa3
 4236 0442 02       		.byte	0x2
 4237 0443 23       		.byte	0x23
 4238 0444 04       		.uleb128 0x4
 4239 0445 12       		.uleb128 0x12
 4240 0446 5F7700   		.ascii	"_w\000"
 4241 0449 08       		.byte	0x8
 4242 044a B8       		.byte	0xb8
 4243 044b A3000000 		.4byte	0xa3
 4244 044f 02       		.byte	0x2
 4245 0450 23       		.byte	0x23
 4246 0451 08       		.uleb128 0x8
 4247 0452 10       		.uleb128 0x10
 4248 0453 5B010000 		.4byte	.LASF65
 4249 0457 08       		.byte	0x8
 4250 0458 B9       		.byte	0xb9
 4251 0459 58000000 		.4byte	0x58
 4252 045d 02       		.byte	0x2
 4253 045e 23       		.byte	0x23
 4254 045f 0C       		.uleb128 0xc
 4255 0460 10       		.uleb128 0x10
 4256 0461 88190000 		.4byte	.LASF66
 4257 0465 08       		.byte	0x8
 4258 0466 BA       		.byte	0xba
 4259 0467 58000000 		.4byte	0x58
 4260 046b 02       		.byte	0x2
 4261 046c 23       		.byte	0x23
 4262 046d 0E       		.uleb128 0xe
 4263 046e 12       		.uleb128 0x12
 4264 046f 5F626600 		.ascii	"_bf\000"
 4265 0473 08       		.byte	0x8
 4266 0474 BB       		.byte	0xbb
 4267 0475 F0030000 		.4byte	0x3f0
 4268 0479 02       		.byte	0x2
 4269 047a 23       		.byte	0x23
 4270 047b 10       		.uleb128 0x10
 4271 047c 10       		.uleb128 0x10
 4272 047d 27030000 		.4byte	.LASF67
 4273 0481 08       		.byte	0x8
 4274 0482 BC       		.byte	0xbc
ARM GAS  C:\Users\EBANO_~1\AppData\Local\Temp\ccazSBuk.s 			page 102


 4275 0483 A3000000 		.4byte	0xa3
 4276 0487 02       		.byte	0x2
 4277 0488 23       		.byte	0x23
 4278 0489 18       		.uleb128 0x18
 4279 048a 10       		.uleb128 0x10
 4280 048b 940E0000 		.4byte	.LASF68
 4281 048f 08       		.byte	0x8
 4282 0490 C3       		.byte	0xc3
 4283 0491 82010000 		.4byte	0x182
 4284 0495 02       		.byte	0x2
 4285 0496 23       		.byte	0x23
 4286 0497 1C       		.uleb128 0x1c
 4287 0498 10       		.uleb128 0x10
 4288 0499 2C210000 		.4byte	.LASF69
 4289 049d 08       		.byte	0x8
 4290 049e C5       		.byte	0xc5
 4291 049f 13070000 		.4byte	0x713
 4292 04a3 02       		.byte	0x2
 4293 04a4 23       		.byte	0x23
 4294 04a5 20       		.uleb128 0x20
 4295 04a6 10       		.uleb128 0x10
 4296 04a7 0F080000 		.4byte	.LASF70
 4297 04ab 08       		.byte	0x8
 4298 04ac C7       		.byte	0xc7
 4299 04ad 3E070000 		.4byte	0x73e
 4300 04b1 02       		.byte	0x2
 4301 04b2 23       		.byte	0x23
 4302 04b3 24       		.uleb128 0x24
 4303 04b4 10       		.uleb128 0x10
 4304 04b5 57120000 		.4byte	.LASF71
 4305 04b9 08       		.byte	0x8
 4306 04ba CA       		.byte	0xca
 4307 04bb 63070000 		.4byte	0x763
 4308 04bf 02       		.byte	0x2
 4309 04c0 23       		.byte	0x23
 4310 04c1 28       		.uleb128 0x28
 4311 04c2 10       		.uleb128 0x10
 4312 04c3 50160000 		.4byte	.LASF72
 4313 04c7 08       		.byte	0x8
 4314 04c8 CB       		.byte	0xcb
 4315 04c9 7E070000 		.4byte	0x77e
 4316 04cd 02       		.byte	0x2
 4317 04ce 23       		.byte	0x23
 4318 04cf 2C       		.uleb128 0x2c
 4319 04d0 12       		.uleb128 0x12
 4320 04d1 5F756200 		.ascii	"_ub\000"
 4321 04d5 08       		.byte	0x8
 4322 04d6 CE       		.byte	0xce
 4323 04d7 F0030000 		.4byte	0x3f0
 4324 04db 02       		.byte	0x2
 4325 04dc 23       		.byte	0x23
 4326 04dd 30       		.uleb128 0x30
 4327 04de 12       		.uleb128 0x12
 4328 04df 5F757000 		.ascii	"_up\000"
 4329 04e3 08       		.byte	0x8
 4330 04e4 CF       		.byte	0xcf
 4331 04e5 19040000 		.4byte	0x419
ARM GAS  C:\Users\EBANO_~1\AppData\Local\Temp\ccazSBuk.s 			page 103


 4332 04e9 02       		.byte	0x2
 4333 04ea 23       		.byte	0x23
 4334 04eb 38       		.uleb128 0x38
 4335 04ec 12       		.uleb128 0x12
 4336 04ed 5F757200 		.ascii	"_ur\000"
 4337 04f1 08       		.byte	0x8
 4338 04f2 D0       		.byte	0xd0
 4339 04f3 A3000000 		.4byte	0xa3
 4340 04f7 02       		.byte	0x2
 4341 04f8 23       		.byte	0x23
 4342 04f9 3C       		.uleb128 0x3c
 4343 04fa 10       		.uleb128 0x10
 4344 04fb CD180000 		.4byte	.LASF73
 4345 04ff 08       		.byte	0x8
 4346 0500 D3       		.byte	0xd3
 4347 0501 84070000 		.4byte	0x784
 4348 0505 02       		.byte	0x2
 4349 0506 23       		.byte	0x23
 4350 0507 40       		.uleb128 0x40
 4351 0508 10       		.uleb128 0x10
 4352 0509 D5010000 		.4byte	.LASF74
 4353 050d 08       		.byte	0x8
 4354 050e D4       		.byte	0xd4
 4355 050f 94070000 		.4byte	0x794
 4356 0513 02       		.byte	0x2
 4357 0514 23       		.byte	0x23
 4358 0515 43       		.uleb128 0x43
 4359 0516 12       		.uleb128 0x12
 4360 0517 5F6C6200 		.ascii	"_lb\000"
 4361 051b 08       		.byte	0x8
 4362 051c D7       		.byte	0xd7
 4363 051d F0030000 		.4byte	0x3f0
 4364 0521 02       		.byte	0x2
 4365 0522 23       		.byte	0x23
 4366 0523 44       		.uleb128 0x44
 4367 0524 10       		.uleb128 0x10
 4368 0525 B5180000 		.4byte	.LASF75
 4369 0529 08       		.byte	0x8
 4370 052a DA       		.byte	0xda
 4371 052b A3000000 		.4byte	0xa3
 4372 052f 02       		.byte	0x2
 4373 0530 23       		.byte	0x23
 4374 0531 4C       		.uleb128 0x4c
 4375 0532 10       		.uleb128 0x10
 4376 0533 2E130000 		.4byte	.LASF76
 4377 0537 08       		.byte	0x8
 4378 0538 DB       		.byte	0xdb
 4379 0539 9B010000 		.4byte	0x19b
 4380 053d 02       		.byte	0x2
 4381 053e 23       		.byte	0x23
 4382 053f 50       		.uleb128 0x50
 4383 0540 10       		.uleb128 0x10
 4384 0541 76030000 		.4byte	.LASF77
 4385 0545 08       		.byte	0x8
 4386 0546 DE       		.byte	0xde
 4387 0547 98050000 		.4byte	0x598
 4388 054b 02       		.byte	0x2
ARM GAS  C:\Users\EBANO_~1\AppData\Local\Temp\ccazSBuk.s 			page 104


 4389 054c 23       		.byte	0x23
 4390 054d 54       		.uleb128 0x54
 4391 054e 10       		.uleb128 0x10
 4392 054f CF010000 		.4byte	.LASF78
 4393 0553 08       		.byte	0x8
 4394 0554 E2       		.byte	0xe2
 4395 0555 1C020000 		.4byte	0x21c
 4396 0559 02       		.byte	0x2
 4397 055a 23       		.byte	0x23
 4398 055b 58       		.uleb128 0x58
 4399 055c 10       		.uleb128 0x10
 4400 055d B1000000 		.4byte	.LASF79
 4401 0561 08       		.byte	0x8
 4402 0562 E4       		.byte	0xe4
 4403 0563 11020000 		.4byte	0x211
 4404 0567 02       		.byte	0x2
 4405 0568 23       		.byte	0x23
 4406 0569 5C       		.uleb128 0x5c
 4407 056a 10       		.uleb128 0x10
 4408 056b 981E0000 		.4byte	.LASF80
 4409 056f 08       		.byte	0x8
 4410 0570 E5       		.byte	0xe5
 4411 0571 A3000000 		.4byte	0xa3
 4412 0575 02       		.byte	0x2
 4413 0576 23       		.byte	0x23
 4414 0577 64       		.uleb128 0x64
 4415 0578 00       		.byte	0
 4416 0579 15       		.uleb128 0x15
 4417 057a 01       		.byte	0x1
 4418 057b A3000000 		.4byte	0xa3
 4419 057f 98050000 		.4byte	0x598
 4420 0583 16       		.uleb128 0x16
 4421 0584 98050000 		.4byte	0x598
 4422 0588 16       		.uleb128 0x16
 4423 0589 82010000 		.4byte	0x182
 4424 058d 16       		.uleb128 0x16
 4425 058e 01070000 		.4byte	0x701
 4426 0592 16       		.uleb128 0x16
 4427 0593 A3000000 		.4byte	0xa3
 4428 0597 00       		.byte	0
 4429 0598 0A       		.uleb128 0xa
 4430 0599 04       		.byte	0x4
 4431 059a A3050000 		.4byte	0x5a3
 4432 059e 05       		.uleb128 0x5
 4433 059f 98050000 		.4byte	0x598
 4434 05a3 17       		.uleb128 0x17
 4435 05a4 40040000 		.4byte	.LASF81
 4436 05a8 2804     		.2byte	0x428
 4437 05aa 08       		.byte	0x8
 4438 05ab 6002     		.2byte	0x260
 4439 05ad 01070000 		.4byte	0x701
 4440 05b1 18       		.uleb128 0x18
 4441 05b2 7F0D0000 		.4byte	.LASF82
 4442 05b6 08       		.byte	0x8
 4443 05b7 6202     		.2byte	0x262
 4444 05b9 A3000000 		.4byte	0xa3
 4445 05bd 02       		.byte	0x2
ARM GAS  C:\Users\EBANO_~1\AppData\Local\Temp\ccazSBuk.s 			page 105


 4446 05be 23       		.byte	0x23
 4447 05bf 00       		.uleb128 0
 4448 05c0 18       		.uleb128 0x18
 4449 05c1 730A0000 		.4byte	.LASF83
 4450 05c5 08       		.byte	0x8
 4451 05c6 6702     		.2byte	0x267
 4452 05c8 F1070000 		.4byte	0x7f1
 4453 05cc 02       		.byte	0x2
 4454 05cd 23       		.byte	0x23
 4455 05ce 04       		.uleb128 0x4
 4456 05cf 18       		.uleb128 0x18
 4457 05d0 0F070000 		.4byte	.LASF84
 4458 05d4 08       		.byte	0x8
 4459 05d5 6702     		.2byte	0x267
 4460 05d7 F1070000 		.4byte	0x7f1
 4461 05db 02       		.byte	0x2
 4462 05dc 23       		.byte	0x23
 4463 05dd 08       		.uleb128 0x8
 4464 05de 18       		.uleb128 0x18
 4465 05df 69060000 		.4byte	.LASF85
 4466 05e3 08       		.byte	0x8
 4467 05e4 6702     		.2byte	0x267
 4468 05e6 F1070000 		.4byte	0x7f1
 4469 05ea 02       		.byte	0x2
 4470 05eb 23       		.byte	0x23
 4471 05ec 0C       		.uleb128 0xc
 4472 05ed 18       		.uleb128 0x18
 4473 05ee 07010000 		.4byte	.LASF86
 4474 05f2 08       		.byte	0x8
 4475 05f3 6902     		.2byte	0x269
 4476 05f5 A3000000 		.4byte	0xa3
 4477 05f9 02       		.byte	0x2
 4478 05fa 23       		.byte	0x23
 4479 05fb 10       		.uleb128 0x10
 4480 05fc 18       		.uleb128 0x18
 4481 05fd CB140000 		.4byte	.LASF87
 4482 0601 08       		.byte	0x8
 4483 0602 6A02     		.2byte	0x26a
 4484 0604 0C0A0000 		.4byte	0xa0c
 4485 0608 02       		.byte	0x2
 4486 0609 23       		.byte	0x23
 4487 060a 14       		.uleb128 0x14
 4488 060b 18       		.uleb128 0x18
 4489 060c 081D0000 		.4byte	.LASF88
 4490 0610 08       		.byte	0x8
 4491 0611 6D02     		.2byte	0x26d
 4492 0613 A3000000 		.4byte	0xa3
 4493 0617 02       		.byte	0x2
 4494 0618 23       		.byte	0x23
 4495 0619 30       		.uleb128 0x30
 4496 061a 18       		.uleb128 0x18
 4497 061b C31E0000 		.4byte	.LASF89
 4498 061f 08       		.byte	0x8
 4499 0620 6E02     		.2byte	0x26e
 4500 0622 220A0000 		.4byte	0xa22
 4501 0626 02       		.byte	0x2
 4502 0627 23       		.byte	0x23
ARM GAS  C:\Users\EBANO_~1\AppData\Local\Temp\ccazSBuk.s 			page 106


 4503 0628 34       		.uleb128 0x34
 4504 0629 18       		.uleb128 0x18
 4505 062a 581D0000 		.4byte	.LASF90
 4506 062e 08       		.byte	0x8
 4507 062f 7002     		.2byte	0x270
 4508 0631 A3000000 		.4byte	0xa3
 4509 0635 02       		.byte	0x2
 4510 0636 23       		.byte	0x23
 4511 0637 38       		.uleb128 0x38
 4512 0638 18       		.uleb128 0x18
 4513 0639 11190000 		.4byte	.LASF91
 4514 063d 08       		.byte	0x8
 4515 063e 7202     		.2byte	0x272
 4516 0640 340A0000 		.4byte	0xa34
 4517 0644 02       		.byte	0x2
 4518 0645 23       		.byte	0x23
 4519 0646 3C       		.uleb128 0x3c
 4520 0647 18       		.uleb128 0x18
 4521 0648 71060000 		.4byte	.LASF92
 4522 064c 08       		.byte	0x8
 4523 064d 7502     		.2byte	0x275
 4524 064f 91020000 		.4byte	0x291
 4525 0653 02       		.byte	0x2
 4526 0654 23       		.byte	0x23
 4527 0655 40       		.uleb128 0x40
 4528 0656 18       		.uleb128 0x18
 4529 0657 5F060000 		.4byte	.LASF93
 4530 065b 08       		.byte	0x8
 4531 065c 7602     		.2byte	0x276
 4532 065e A3000000 		.4byte	0xa3
 4533 0662 02       		.byte	0x2
 4534 0663 23       		.byte	0x23
 4535 0664 44       		.uleb128 0x44
 4536 0665 18       		.uleb128 0x18
 4537 0666 9D1A0000 		.4byte	.LASF94
 4538 066a 08       		.byte	0x8
 4539 066b 7702     		.2byte	0x277
 4540 066d 91020000 		.4byte	0x291
 4541 0671 02       		.byte	0x2
 4542 0672 23       		.byte	0x23
 4543 0673 48       		.uleb128 0x48
 4544 0674 18       		.uleb128 0x18
 4545 0675 14130000 		.4byte	.LASF95
 4546 0679 08       		.byte	0x8
 4547 067a 7802     		.2byte	0x278
 4548 067c 3A0A0000 		.4byte	0xa3a
 4549 0680 02       		.byte	0x2
 4550 0681 23       		.byte	0x23
 4551 0682 4C       		.uleb128 0x4c
 4552 0683 18       		.uleb128 0x18
 4553 0684 71010000 		.4byte	.LASF96
 4554 0688 08       		.byte	0x8
 4555 0689 7B02     		.2byte	0x27b
 4556 068b A3000000 		.4byte	0xa3
 4557 068f 02       		.byte	0x2
 4558 0690 23       		.byte	0x23
 4559 0691 50       		.uleb128 0x50
ARM GAS  C:\Users\EBANO_~1\AppData\Local\Temp\ccazSBuk.s 			page 107


 4560 0692 18       		.uleb128 0x18
 4561 0693 E50B0000 		.4byte	.LASF97
 4562 0697 08       		.byte	0x8
 4563 0698 7C02     		.2byte	0x27c
 4564 069a 01070000 		.4byte	0x701
 4565 069e 02       		.byte	0x2
 4566 069f 23       		.byte	0x23
 4567 06a0 54       		.uleb128 0x54
 4568 06a1 18       		.uleb128 0x18
 4569 06a2 ED0C0000 		.4byte	.LASF98
 4570 06a6 08       		.byte	0x8
 4571 06a7 9F02     		.2byte	0x29f
 4572 06a9 EA090000 		.4byte	0x9ea
 4573 06ad 02       		.byte	0x2
 4574 06ae 23       		.byte	0x23
 4575 06af 58       		.uleb128 0x58
 4576 06b0 18       		.uleb128 0x18
 4577 06b1 C6000000 		.4byte	.LASF58
 4578 06b5 08       		.byte	0x8
 4579 06b6 A302     		.2byte	0x2a3
 4580 06b8 D2030000 		.4byte	0x3d2
 4581 06bc 03       		.byte	0x3
 4582 06bd 23       		.byte	0x23
 4583 06be C802     		.uleb128 0x148
 4584 06c0 18       		.uleb128 0x18
 4585 06c1 A5170000 		.4byte	.LASF99
 4586 06c5 08       		.byte	0x8
 4587 06c6 A402     		.2byte	0x2a4
 4588 06c8 8B030000 		.4byte	0x38b
 4589 06cc 03       		.byte	0x3
 4590 06cd 23       		.byte	0x23
 4591 06ce CC02     		.uleb128 0x14c
 4592 06d0 18       		.uleb128 0x18
 4593 06d1 9A010000 		.4byte	.LASF100
 4594 06d5 08       		.byte	0x8
 4595 06d6 A802     		.2byte	0x2a8
 4596 06d8 4C0A0000 		.4byte	0xa4c
 4597 06dc 03       		.byte	0x3
 4598 06dd 23       		.byte	0x23
 4599 06de DC05     		.uleb128 0x2dc
 4600 06e0 18       		.uleb128 0x18
 4601 06e1 F8180000 		.4byte	.LASF101
 4602 06e5 08       		.byte	0x8
 4603 06e6 AD02     		.2byte	0x2ad
 4604 06e8 B0070000 		.4byte	0x7b0
 4605 06ec 03       		.byte	0x3
 4606 06ed 23       		.byte	0x23
 4607 06ee E005     		.uleb128 0x2e0
 4608 06f0 18       		.uleb128 0x18
 4609 06f1 8E040000 		.4byte	.LASF102
 4610 06f5 08       		.byte	0x8
 4611 06f6 AF02     		.2byte	0x2af
 4612 06f8 580A0000 		.4byte	0xa58
 4613 06fc 03       		.byte	0x3
 4614 06fd 23       		.byte	0x23
 4615 06fe EC05     		.uleb128 0x2ec
 4616 0700 00       		.byte	0
ARM GAS  C:\Users\EBANO_~1\AppData\Local\Temp\ccazSBuk.s 			page 108


 4617 0701 0A       		.uleb128 0xa
 4618 0702 04       		.byte	0x4
 4619 0703 07070000 		.4byte	0x707
 4620 0707 02       		.uleb128 0x2
 4621 0708 01       		.byte	0x1
 4622 0709 08       		.byte	0x8
 4623 070a 7C160000 		.4byte	.LASF103
 4624 070e 05       		.uleb128 0x5
 4625 070f 07070000 		.4byte	0x707
 4626 0713 0A       		.uleb128 0xa
 4627 0714 04       		.byte	0x4
 4628 0715 79050000 		.4byte	0x579
 4629 0719 15       		.uleb128 0x15
 4630 071a 01       		.byte	0x1
 4631 071b A3000000 		.4byte	0xa3
 4632 071f 38070000 		.4byte	0x738
 4633 0723 16       		.uleb128 0x16
 4634 0724 98050000 		.4byte	0x598
 4635 0728 16       		.uleb128 0x16
 4636 0729 82010000 		.4byte	0x182
 4637 072d 16       		.uleb128 0x16
 4638 072e 38070000 		.4byte	0x738
 4639 0732 16       		.uleb128 0x16
 4640 0733 A3000000 		.4byte	0xa3
 4641 0737 00       		.byte	0
 4642 0738 0A       		.uleb128 0xa
 4643 0739 04       		.byte	0x4
 4644 073a 0E070000 		.4byte	0x70e
 4645 073e 0A       		.uleb128 0xa
 4646 073f 04       		.byte	0x4
 4647 0740 19070000 		.4byte	0x719
 4648 0744 15       		.uleb128 0x15
 4649 0745 01       		.byte	0x1
 4650 0746 A6010000 		.4byte	0x1a6
 4651 074a 63070000 		.4byte	0x763
 4652 074e 16       		.uleb128 0x16
 4653 074f 98050000 		.4byte	0x598
 4654 0753 16       		.uleb128 0x16
 4655 0754 82010000 		.4byte	0x182
 4656 0758 16       		.uleb128 0x16
 4657 0759 A6010000 		.4byte	0x1a6
 4658 075d 16       		.uleb128 0x16
 4659 075e A3000000 		.4byte	0xa3
 4660 0762 00       		.byte	0
 4661 0763 0A       		.uleb128 0xa
 4662 0764 04       		.byte	0x4
 4663 0765 44070000 		.4byte	0x744
 4664 0769 15       		.uleb128 0x15
 4665 076a 01       		.byte	0x1
 4666 076b A3000000 		.4byte	0xa3
 4667 076f 7E070000 		.4byte	0x77e
 4668 0773 16       		.uleb128 0x16
 4669 0774 98050000 		.4byte	0x598
 4670 0778 16       		.uleb128 0x16
 4671 0779 82010000 		.4byte	0x182
 4672 077d 00       		.byte	0
 4673 077e 0A       		.uleb128 0xa
ARM GAS  C:\Users\EBANO_~1\AppData\Local\Temp\ccazSBuk.s 			page 109


 4674 077f 04       		.byte	0x4
 4675 0780 69070000 		.4byte	0x769
 4676 0784 07       		.uleb128 0x7
 4677 0785 46000000 		.4byte	0x46
 4678 0789 94070000 		.4byte	0x794
 4679 078d 08       		.uleb128 0x8
 4680 078e AA000000 		.4byte	0xaa
 4681 0792 02       		.byte	0x2
 4682 0793 00       		.byte	0
 4683 0794 07       		.uleb128 0x7
 4684 0795 46000000 		.4byte	0x46
 4685 0799 A4070000 		.4byte	0x7a4
 4686 079d 08       		.uleb128 0x8
 4687 079e AA000000 		.4byte	0xaa
 4688 07a2 00       		.byte	0
 4689 07a3 00       		.byte	0
 4690 07a4 0C       		.uleb128 0xc
 4691 07a5 D71F0000 		.4byte	.LASF104
 4692 07a9 08       		.byte	0x8
 4693 07aa 1F01     		.2byte	0x11f
 4694 07ac 1F040000 		.4byte	0x41f
 4695 07b0 19       		.uleb128 0x19
 4696 07b1 9D160000 		.4byte	.LASF105
 4697 07b5 0C       		.byte	0xc
 4698 07b6 08       		.byte	0x8
 4699 07b7 2301     		.2byte	0x123
 4700 07b9 EB070000 		.4byte	0x7eb
 4701 07bd 18       		.uleb128 0x18
 4702 07be 5B0E0000 		.4byte	.LASF38
 4703 07c2 08       		.byte	0x8
 4704 07c3 2501     		.2byte	0x125
 4705 07c5 EB070000 		.4byte	0x7eb
 4706 07c9 02       		.byte	0x2
 4707 07ca 23       		.byte	0x23
 4708 07cb 00       		.uleb128 0
 4709 07cc 18       		.uleb128 0x18
 4710 07cd 0B0D0000 		.4byte	.LASF106
 4711 07d1 08       		.byte	0x8
 4712 07d2 2601     		.2byte	0x126
 4713 07d4 A3000000 		.4byte	0xa3
 4714 07d8 02       		.byte	0x2
 4715 07d9 23       		.byte	0x23
 4716 07da 04       		.uleb128 0x4
 4717 07db 18       		.uleb128 0x18
 4718 07dc C5140000 		.4byte	.LASF107
 4719 07e0 08       		.byte	0x8
 4720 07e1 2701     		.2byte	0x127
 4721 07e3 F1070000 		.4byte	0x7f1
 4722 07e7 02       		.byte	0x2
 4723 07e8 23       		.byte	0x23
 4724 07e9 08       		.uleb128 0x8
 4725 07ea 00       		.byte	0
 4726 07eb 0A       		.uleb128 0xa
 4727 07ec 04       		.byte	0x4
 4728 07ed B0070000 		.4byte	0x7b0
 4729 07f1 0A       		.uleb128 0xa
 4730 07f2 04       		.byte	0x4
ARM GAS  C:\Users\EBANO_~1\AppData\Local\Temp\ccazSBuk.s 			page 110


 4731 07f3 A4070000 		.4byte	0x7a4
 4732 07f7 19       		.uleb128 0x19
 4733 07f8 56210000 		.4byte	.LASF108
 4734 07fc 0E       		.byte	0xe
 4735 07fd 08       		.byte	0x8
 4736 07fe 3F01     		.2byte	0x13f
 4737 0800 32080000 		.4byte	0x832
 4738 0804 18       		.uleb128 0x18
 4739 0805 45120000 		.4byte	.LASF109
 4740 0809 08       		.byte	0x8
 4741 080a 4001     		.2byte	0x140
 4742 080c 32080000 		.4byte	0x832
 4743 0810 02       		.byte	0x2
 4744 0811 23       		.byte	0x23
 4745 0812 00       		.uleb128 0
 4746 0813 18       		.uleb128 0x18
 4747 0814 9D090000 		.4byte	.LASF110
 4748 0818 08       		.byte	0x8
 4749 0819 4101     		.2byte	0x141
 4750 081b 32080000 		.4byte	0x832
 4751 081f 02       		.byte	0x2
 4752 0820 23       		.byte	0x23
 4753 0821 06       		.uleb128 0x6
 4754 0822 18       		.uleb128 0x18
 4755 0823 92020000 		.4byte	.LASF111
 4756 0827 08       		.byte	0x8
 4757 0828 4201     		.2byte	0x142
 4758 082a 6A000000 		.4byte	0x6a
 4759 082e 02       		.byte	0x2
 4760 082f 23       		.byte	0x23
 4761 0830 0C       		.uleb128 0xc
 4762 0831 00       		.byte	0
 4763 0832 07       		.uleb128 0x7
 4764 0833 6A000000 		.4byte	0x6a
 4765 0837 42080000 		.4byte	0x842
 4766 083b 08       		.uleb128 0x8
 4767 083c AA000000 		.4byte	0xaa
 4768 0840 02       		.byte	0x2
 4769 0841 00       		.byte	0
 4770 0842 1A       		.uleb128 0x1a
 4771 0843 D0       		.byte	0xd0
 4772 0844 08       		.byte	0x8
 4773 0845 8002     		.2byte	0x280
 4774 0847 72090000 		.4byte	0x972
 4775 084b 18       		.uleb128 0x18
 4776 084c C1050000 		.4byte	.LASF112
 4777 0850 08       		.byte	0x8
 4778 0851 8202     		.2byte	0x282
 4779 0853 AA000000 		.4byte	0xaa
 4780 0857 02       		.byte	0x2
 4781 0858 23       		.byte	0x23
 4782 0859 00       		.uleb128 0
 4783 085a 18       		.uleb128 0x18
 4784 085b 1A120000 		.4byte	.LASF113
 4785 085f 08       		.byte	0x8
 4786 0860 8302     		.2byte	0x283
 4787 0862 01070000 		.4byte	0x701
ARM GAS  C:\Users\EBANO_~1\AppData\Local\Temp\ccazSBuk.s 			page 111


 4788 0866 02       		.byte	0x2
 4789 0867 23       		.byte	0x23
 4790 0868 04       		.uleb128 0x4
 4791 0869 18       		.uleb128 0x18
 4792 086a AE130000 		.4byte	.LASF114
 4793 086e 08       		.byte	0x8
 4794 086f 8402     		.2byte	0x284
 4795 0871 72090000 		.4byte	0x972
 4796 0875 02       		.byte	0x2
 4797 0876 23       		.byte	0x23
 4798 0877 08       		.uleb128 0x8
 4799 0878 18       		.uleb128 0x18
 4800 0879 250B0000 		.4byte	.LASF115
 4801 087d 08       		.byte	0x8
 4802 087e 8502     		.2byte	0x285
 4803 0880 A7020000 		.4byte	0x2a7
 4804 0884 02       		.byte	0x2
 4805 0885 23       		.byte	0x23
 4806 0886 24       		.uleb128 0x24
 4807 0887 18       		.uleb128 0x18
 4808 0888 301C0000 		.4byte	.LASF116
 4809 088c 08       		.byte	0x8
 4810 088d 8602     		.2byte	0x286
 4811 088f A3000000 		.4byte	0xa3
 4812 0893 02       		.byte	0x2
 4813 0894 23       		.byte	0x23
 4814 0895 48       		.uleb128 0x48
 4815 0896 18       		.uleb128 0x18
 4816 0897 EA140000 		.4byte	.LASF117
 4817 089b 08       		.byte	0x8
 4818 089c 8702     		.2byte	0x287
 4819 089e 9C000000 		.4byte	0x9c
 4820 08a2 02       		.byte	0x2
 4821 08a3 23       		.byte	0x23
 4822 08a4 50       		.uleb128 0x50
 4823 08a5 18       		.uleb128 0x18
 4824 08a6 8C200000 		.4byte	.LASF118
 4825 08aa 08       		.byte	0x8
 4826 08ab 8802     		.2byte	0x288
 4827 08ad F7070000 		.4byte	0x7f7
 4828 08b1 02       		.byte	0x2
 4829 08b2 23       		.byte	0x23
 4830 08b3 58       		.uleb128 0x58
 4831 08b4 18       		.uleb128 0x18
 4832 08b5 EB180000 		.4byte	.LASF119
 4833 08b9 08       		.byte	0x8
 4834 08ba 8902     		.2byte	0x289
 4835 08bc 11020000 		.4byte	0x211
 4836 08c0 02       		.byte	0x2
 4837 08c1 23       		.byte	0x23
 4838 08c2 68       		.uleb128 0x68
 4839 08c3 18       		.uleb128 0x18
 4840 08c4 9F040000 		.4byte	.LASF120
 4841 08c8 08       		.byte	0x8
 4842 08c9 8A02     		.2byte	0x28a
 4843 08cb 11020000 		.4byte	0x211
 4844 08cf 02       		.byte	0x2
ARM GAS  C:\Users\EBANO_~1\AppData\Local\Temp\ccazSBuk.s 			page 112


 4845 08d0 23       		.byte	0x23
 4846 08d1 70       		.uleb128 0x70
 4847 08d2 18       		.uleb128 0x18
 4848 08d3 62140000 		.4byte	.LASF121
 4849 08d7 08       		.byte	0x8
 4850 08d8 8B02     		.2byte	0x28b
 4851 08da 11020000 		.4byte	0x211
 4852 08de 02       		.byte	0x2
 4853 08df 23       		.byte	0x23
 4854 08e0 78       		.uleb128 0x78
 4855 08e1 18       		.uleb128 0x18
 4856 08e2 69130000 		.4byte	.LASF122
 4857 08e6 08       		.byte	0x8
 4858 08e7 8C02     		.2byte	0x28c
 4859 08e9 82090000 		.4byte	0x982
 4860 08ed 03       		.byte	0x3
 4861 08ee 23       		.byte	0x23
 4862 08ef 8001     		.uleb128 0x80
 4863 08f1 18       		.uleb128 0x18
 4864 08f2 880E0000 		.4byte	.LASF123
 4865 08f6 08       		.byte	0x8
 4866 08f7 8D02     		.2byte	0x28d
 4867 08f9 92090000 		.4byte	0x992
 4868 08fd 03       		.byte	0x3
 4869 08fe 23       		.byte	0x23
 4870 08ff 8801     		.uleb128 0x88
 4871 0901 18       		.uleb128 0x18
 4872 0902 E0170000 		.4byte	.LASF124
 4873 0906 08       		.byte	0x8
 4874 0907 8E02     		.2byte	0x28e
 4875 0909 A3000000 		.4byte	0xa3
 4876 090d 03       		.byte	0x3
 4877 090e 23       		.byte	0x23
 4878 090f A001     		.uleb128 0xa0
 4879 0911 18       		.uleb128 0x18
 4880 0912 DA090000 		.4byte	.LASF125
 4881 0916 08       		.byte	0x8
 4882 0917 8F02     		.2byte	0x28f
 4883 0919 11020000 		.4byte	0x211
 4884 091d 03       		.byte	0x3
 4885 091e 23       		.byte	0x23
 4886 091f A401     		.uleb128 0xa4
 4887 0921 18       		.uleb128 0x18
 4888 0922 930C0000 		.4byte	.LASF126
 4889 0926 08       		.byte	0x8
 4890 0927 9002     		.2byte	0x290
 4891 0929 11020000 		.4byte	0x211
 4892 092d 03       		.byte	0x3
 4893 092e 23       		.byte	0x23
 4894 092f AC01     		.uleb128 0xac
 4895 0931 18       		.uleb128 0x18
 4896 0932 28070000 		.4byte	.LASF127
 4897 0936 08       		.byte	0x8
 4898 0937 9102     		.2byte	0x291
 4899 0939 11020000 		.4byte	0x211
 4900 093d 03       		.byte	0x3
 4901 093e 23       		.byte	0x23
ARM GAS  C:\Users\EBANO_~1\AppData\Local\Temp\ccazSBuk.s 			page 113


 4902 093f B401     		.uleb128 0xb4
 4903 0941 18       		.uleb128 0x18
 4904 0942 D5100000 		.4byte	.LASF128
 4905 0946 08       		.byte	0x8
 4906 0947 9202     		.2byte	0x292
 4907 0949 11020000 		.4byte	0x211
 4908 094d 03       		.byte	0x3
 4909 094e 23       		.byte	0x23
 4910 094f BC01     		.uleb128 0xbc
 4911 0951 18       		.uleb128 0x18
 4912 0952 D8130000 		.4byte	.LASF129
 4913 0956 08       		.byte	0x8
 4914 0957 9302     		.2byte	0x293
 4915 0959 11020000 		.4byte	0x211
 4916 095d 03       		.byte	0x3
 4917 095e 23       		.byte	0x23
 4918 095f C401     		.uleb128 0xc4
 4919 0961 18       		.uleb128 0x18
 4920 0962 ED190000 		.4byte	.LASF130
 4921 0966 08       		.byte	0x8
 4922 0967 9402     		.2byte	0x294
 4923 0969 A3000000 		.4byte	0xa3
 4924 096d 03       		.byte	0x3
 4925 096e 23       		.byte	0x23
 4926 096f CC01     		.uleb128 0xcc
 4927 0971 00       		.byte	0
 4928 0972 07       		.uleb128 0x7
 4929 0973 07070000 		.4byte	0x707
 4930 0977 82090000 		.4byte	0x982
 4931 097b 08       		.uleb128 0x8
 4932 097c AA000000 		.4byte	0xaa
 4933 0980 19       		.byte	0x19
 4934 0981 00       		.byte	0
 4935 0982 07       		.uleb128 0x7
 4936 0983 07070000 		.4byte	0x707
 4937 0987 92090000 		.4byte	0x992
 4938 098b 08       		.uleb128 0x8
 4939 098c AA000000 		.4byte	0xaa
 4940 0990 07       		.byte	0x7
 4941 0991 00       		.byte	0
 4942 0992 07       		.uleb128 0x7
 4943 0993 07070000 		.4byte	0x707
 4944 0997 A2090000 		.4byte	0x9a2
 4945 099b 08       		.uleb128 0x8
 4946 099c AA000000 		.4byte	0xaa
 4947 09a0 17       		.byte	0x17
 4948 09a1 00       		.byte	0
 4949 09a2 1A       		.uleb128 0x1a
 4950 09a3 F0       		.byte	0xf0
 4951 09a4 08       		.byte	0x8
 4952 09a5 9902     		.2byte	0x299
 4953 09a7 CA090000 		.4byte	0x9ca
 4954 09ab 18       		.uleb128 0x18
 4955 09ac E3140000 		.4byte	.LASF131
 4956 09b0 08       		.byte	0x8
 4957 09b1 9C02     		.2byte	0x29c
 4958 09b3 CA090000 		.4byte	0x9ca
ARM GAS  C:\Users\EBANO_~1\AppData\Local\Temp\ccazSBuk.s 			page 114


 4959 09b7 02       		.byte	0x2
 4960 09b8 23       		.byte	0x23
 4961 09b9 00       		.uleb128 0
 4962 09ba 18       		.uleb128 0x18
 4963 09bb 880A0000 		.4byte	.LASF132
 4964 09bf 08       		.byte	0x8
 4965 09c0 9D02     		.2byte	0x29d
 4966 09c2 DA090000 		.4byte	0x9da
 4967 09c6 02       		.byte	0x2
 4968 09c7 23       		.byte	0x23
 4969 09c8 78       		.uleb128 0x78
 4970 09c9 00       		.byte	0
 4971 09ca 07       		.uleb128 0x7
 4972 09cb 19040000 		.4byte	0x419
 4973 09cf DA090000 		.4byte	0x9da
 4974 09d3 08       		.uleb128 0x8
 4975 09d4 AA000000 		.4byte	0xaa
 4976 09d8 1D       		.byte	0x1d
 4977 09d9 00       		.byte	0
 4978 09da 07       		.uleb128 0x7
 4979 09db AA000000 		.4byte	0xaa
 4980 09df EA090000 		.4byte	0x9ea
 4981 09e3 08       		.uleb128 0x8
 4982 09e4 AA000000 		.4byte	0xaa
 4983 09e8 1D       		.byte	0x1d
 4984 09e9 00       		.byte	0
 4985 09ea 1B       		.uleb128 0x1b
 4986 09eb F0       		.byte	0xf0
 4987 09ec 08       		.byte	0x8
 4988 09ed 7E02     		.2byte	0x27e
 4989 09ef 0C0A0000 		.4byte	0xa0c
 4990 09f3 1C       		.uleb128 0x1c
 4991 09f4 40040000 		.4byte	.LASF81
 4992 09f8 08       		.byte	0x8
 4993 09f9 9502     		.2byte	0x295
 4994 09fb 42080000 		.4byte	0x842
 4995 09ff 1C       		.uleb128 0x1c
 4996 0a00 DB010000 		.4byte	.LASF133
 4997 0a04 08       		.byte	0x8
 4998 0a05 9E02     		.2byte	0x29e
 4999 0a07 A2090000 		.4byte	0x9a2
 5000 0a0b 00       		.byte	0
 5001 0a0c 07       		.uleb128 0x7
 5002 0a0d 07070000 		.4byte	0x707
 5003 0a11 1C0A0000 		.4byte	0xa1c
 5004 0a15 08       		.uleb128 0x8
 5005 0a16 AA000000 		.4byte	0xaa
 5006 0a1a 18       		.byte	0x18
 5007 0a1b 00       		.byte	0
 5008 0a1c 0B       		.uleb128 0xb
 5009 0a1d 00190000 		.4byte	.LASF135
 5010 0a21 01       		.byte	0x1
 5011 0a22 0A       		.uleb128 0xa
 5012 0a23 04       		.byte	0x4
 5013 0a24 1C0A0000 		.4byte	0xa1c
 5014 0a28 1D       		.uleb128 0x1d
 5015 0a29 01       		.byte	0x1
ARM GAS  C:\Users\EBANO_~1\AppData\Local\Temp\ccazSBuk.s 			page 115


 5016 0a2a 340A0000 		.4byte	0xa34
 5017 0a2e 16       		.uleb128 0x16
 5018 0a2f 98050000 		.4byte	0x598
 5019 0a33 00       		.byte	0
 5020 0a34 0A       		.uleb128 0xa
 5021 0a35 04       		.byte	0x4
 5022 0a36 280A0000 		.4byte	0xa28
 5023 0a3a 0A       		.uleb128 0xa
 5024 0a3b 04       		.byte	0x4
 5025 0a3c 91020000 		.4byte	0x291
 5026 0a40 1D       		.uleb128 0x1d
 5027 0a41 01       		.byte	0x1
 5028 0a42 4C0A0000 		.4byte	0xa4c
 5029 0a46 16       		.uleb128 0x16
 5030 0a47 A3000000 		.4byte	0xa3
 5031 0a4b 00       		.byte	0
 5032 0a4c 0A       		.uleb128 0xa
 5033 0a4d 04       		.byte	0x4
 5034 0a4e 520A0000 		.4byte	0xa52
 5035 0a52 0A       		.uleb128 0xa
 5036 0a53 04       		.byte	0x4
 5037 0a54 400A0000 		.4byte	0xa40
 5038 0a58 07       		.uleb128 0x7
 5039 0a59 A4070000 		.4byte	0x7a4
 5040 0a5d 680A0000 		.4byte	0xa68
 5041 0a61 08       		.uleb128 0x8
 5042 0a62 AA000000 		.4byte	0xaa
 5043 0a66 02       		.byte	0x2
 5044 0a67 00       		.byte	0
 5045 0a68 1E       		.uleb128 0x1e
 5046 0a69 A9180000 		.4byte	.LASF136
 5047 0a6d 08       		.byte	0x8
 5048 0a6e 2E03     		.2byte	0x32e
 5049 0a70 98050000 		.4byte	0x598
 5050 0a74 01       		.byte	0x1
 5051 0a75 01       		.byte	0x1
 5052 0a76 1E       		.uleb128 0x1e
 5053 0a77 E71C0000 		.4byte	.LASF137
 5054 0a7b 08       		.byte	0x8
 5055 0a7c 2F03     		.2byte	0x32f
 5056 0a7e 9E050000 		.4byte	0x59e
 5057 0a82 01       		.byte	0x1
 5058 0a83 01       		.byte	0x1
 5059 0a84 0A       		.uleb128 0xa
 5060 0a85 04       		.byte	0x4
 5061 0a86 BC000000 		.4byte	0xbc
 5062 0a8a 06       		.uleb128 0x6
 5063 0a8b 9D150000 		.4byte	.LASF138
 5064 0a8f 09       		.byte	0x9
 5065 0a90 63       		.byte	0x63
 5066 0a91 01070000 		.4byte	0x701
 5067 0a95 01       		.byte	0x1
 5068 0a96 01       		.byte	0x1
 5069 0a97 03       		.uleb128 0x3
 5070 0a98 0F1B0000 		.4byte	.LASF139
 5071 0a9c 0A       		.byte	0xa
 5072 0a9d 3D       		.byte	0x3d
ARM GAS  C:\Users\EBANO_~1\AppData\Local\Temp\ccazSBuk.s 			page 116


 5073 0a9e ED000000 		.4byte	0xed
 5074 0aa2 11       		.uleb128 0x11
 5075 0aa3 F80A0000 		.4byte	.LASF140
 5076 0aa7 04       		.byte	0x4
 5077 0aa8 0A       		.byte	0xa
 5078 0aa9 5F       		.byte	0x5f
 5079 0aaa E70A0000 		.4byte	0xae7
 5080 0aae 12       		.uleb128 0x12
 5081 0aaf 52667500 		.ascii	"Rfu\000"
 5082 0ab3 0A       		.byte	0xa
 5083 0ab4 61       		.byte	0x61
 5084 0ab5 BC000000 		.4byte	0xbc
 5085 0ab9 02       		.byte	0x2
 5086 0aba 23       		.byte	0x23
 5087 0abb 00       		.uleb128 0
 5088 0abc 10       		.uleb128 0x10
 5089 0abd 6F000000 		.4byte	.LASF141
 5090 0ac1 0A       		.byte	0xa
 5091 0ac2 62       		.byte	0x62
 5092 0ac3 BC000000 		.4byte	0xbc
 5093 0ac7 02       		.byte	0x2
 5094 0ac8 23       		.byte	0x23
 5095 0ac9 01       		.uleb128 0x1
 5096 0aca 10       		.uleb128 0x10
 5097 0acb 58020000 		.4byte	.LASF142
 5098 0acf 0A       		.byte	0xa
 5099 0ad0 63       		.byte	0x63
 5100 0ad1 BC000000 		.4byte	0xbc
 5101 0ad5 02       		.byte	0x2
 5102 0ad6 23       		.byte	0x23
 5103 0ad7 02       		.uleb128 0x2
 5104 0ad8 10       		.uleb128 0x10
 5105 0ad9 C51C0000 		.4byte	.LASF143
 5106 0add 0A       		.byte	0xa
 5107 0ade 64       		.byte	0x64
 5108 0adf BC000000 		.4byte	0xbc
 5109 0ae3 02       		.byte	0x2
 5110 0ae4 23       		.byte	0x23
 5111 0ae5 03       		.uleb128 0x3
 5112 0ae6 00       		.byte	0
 5113 0ae7 1F       		.uleb128 0x1f
 5114 0ae8 0C0B0000 		.4byte	.LASF205
 5115 0aec 04       		.byte	0x4
 5116 0aed 0A       		.byte	0xa
 5117 0aee 5D       		.byte	0x5d
 5118 0aef 0A0B0000 		.4byte	0xb0a
 5119 0af3 0E       		.uleb128 0xe
 5120 0af4 FB110000 		.4byte	.LASF144
 5121 0af8 0A       		.byte	0xa
 5122 0af9 65       		.byte	0x65
 5123 0afa A20A0000 		.4byte	0xaa2
 5124 0afe 0E       		.uleb128 0xe
 5125 0aff 91200000 		.4byte	.LASF145
 5126 0b03 0A       		.byte	0xa
 5127 0b04 66       		.byte	0x66
 5128 0b05 ED000000 		.4byte	0xed
 5129 0b09 00       		.byte	0
ARM GAS  C:\Users\EBANO_~1\AppData\Local\Temp\ccazSBuk.s 			page 117


 5130 0b0a 03       		.uleb128 0x3
 5131 0b0b 020B0000 		.4byte	.LASF146
 5132 0b0f 0A       		.byte	0xa
 5133 0b10 67       		.byte	0x67
 5134 0b11 E70A0000 		.4byte	0xae7
 5135 0b15 02       		.uleb128 0x2
 5136 0b16 01       		.byte	0x1
 5137 0b17 02       		.byte	0x2
 5138 0b18 AB000000 		.4byte	.LASF147
 5139 0b1c 19       		.uleb128 0x19
 5140 0b1d 870B0000 		.4byte	.LASF148
 5141 0b21 10       		.byte	0x10
 5142 0b22 0B       		.byte	0xb
 5143 0b23 D301     		.2byte	0x1d3
 5144 0b25 750B0000 		.4byte	0xb75
 5145 0b29 18       		.uleb128 0x18
 5146 0b2a 28020000 		.4byte	.LASF149
 5147 0b2e 0B       		.byte	0xb
 5148 0b2f D801     		.2byte	0x1d8
 5149 0b31 D7000000 		.4byte	0xd7
 5150 0b35 02       		.byte	0x2
 5151 0b36 23       		.byte	0x23
 5152 0b37 00       		.uleb128 0
 5153 0b38 18       		.uleb128 0x18
 5154 0b39 C7020000 		.4byte	.LASF150
 5155 0b3d 0B       		.byte	0xb
 5156 0b3e DC01     		.2byte	0x1dc
 5157 0b40 B1000000 		.4byte	0xb1
 5158 0b44 02       		.byte	0x2
 5159 0b45 23       		.byte	0x23
 5160 0b46 02       		.uleb128 0x2
 5161 0b47 18       		.uleb128 0x18
 5162 0b48 3F1C0000 		.4byte	.LASF151
 5163 0b4c 0B       		.byte	0xb
 5164 0b4d E001     		.2byte	0x1e0
 5165 0b4f 970A0000 		.4byte	0xa97
 5166 0b53 02       		.byte	0x2
 5167 0b54 23       		.byte	0x23
 5168 0b55 04       		.uleb128 0x4
 5169 0b56 18       		.uleb128 0x18
 5170 0b57 CC040000 		.4byte	.LASF152
 5171 0b5b 0B       		.byte	0xb
 5172 0b5c E401     		.2byte	0x1e4
 5173 0b5e 970A0000 		.4byte	0xa97
 5174 0b62 02       		.byte	0x2
 5175 0b63 23       		.byte	0x23
 5176 0b64 08       		.uleb128 0x8
 5177 0b65 18       		.uleb128 0x18
 5178 0b66 F9060000 		.4byte	.LASF153
 5179 0b6a 0B       		.byte	0xb
 5180 0b6b E801     		.2byte	0x1e8
 5181 0b6d 970A0000 		.4byte	0xa97
 5182 0b71 02       		.byte	0x2
 5183 0b72 23       		.byte	0x23
 5184 0b73 0C       		.uleb128 0xc
 5185 0b74 00       		.byte	0
 5186 0b75 0C       		.uleb128 0xc
ARM GAS  C:\Users\EBANO_~1\AppData\Local\Temp\ccazSBuk.s 			page 118


 5187 0b76 77020000 		.4byte	.LASF154
 5188 0b7a 0B       		.byte	0xb
 5189 0b7b E901     		.2byte	0x1e9
 5190 0b7d 1C0B0000 		.4byte	0xb1c
 5191 0b81 06       		.uleb128 0x6
 5192 0b82 B41B0000 		.4byte	.LASF155
 5193 0b86 0C       		.byte	0xc
 5194 0b87 9A       		.byte	0x9a
 5195 0b88 7C000000 		.4byte	0x7c
 5196 0b8c 01       		.byte	0x1
 5197 0b8d 01       		.byte	0x1
 5198 0b8e 06       		.uleb128 0x6
 5199 0b8f D7030000 		.4byte	.LASF156
 5200 0b93 0C       		.byte	0xc
 5201 0b94 9B       		.byte	0x9b
 5202 0b95 A3000000 		.4byte	0xa3
 5203 0b99 01       		.byte	0x1
 5204 0b9a 01       		.byte	0x1
 5205 0b9b 07       		.uleb128 0x7
 5206 0b9c 01070000 		.4byte	0x701
 5207 0ba0 AB0B0000 		.4byte	0xbab
 5208 0ba4 08       		.uleb128 0x8
 5209 0ba5 AA000000 		.4byte	0xaa
 5210 0ba9 01       		.byte	0x1
 5211 0baa 00       		.byte	0
 5212 0bab 06       		.uleb128 0x6
 5213 0bac E90E0000 		.4byte	.LASF157
 5214 0bb0 0C       		.byte	0xc
 5215 0bb1 9E       		.byte	0x9e
 5216 0bb2 9B0B0000 		.4byte	0xb9b
 5217 0bb6 01       		.byte	0x1
 5218 0bb7 01       		.byte	0x1
 5219 0bb8 20       		.uleb128 0x20
 5220 0bb9 07       		.byte	0x7
 5221 0bba 01       		.byte	0x1
 5222 0bbb 46000000 		.4byte	0x46
 5223 0bbf 0D       		.byte	0xd
 5224 0bc0 21       		.byte	0x21
 5225 0bc1 D20B0000 		.4byte	0xbd2
 5226 0bc5 21       		.uleb128 0x21
 5227 0bc6 AC0C0000 		.4byte	.LASF158
 5228 0bca 00       		.byte	0
 5229 0bcb 21       		.uleb128 0x21
 5230 0bcc D11B0000 		.4byte	.LASF159
 5231 0bd0 01       		.byte	0x1
 5232 0bd1 00       		.byte	0
 5233 0bd2 03       		.uleb128 0x3
 5234 0bd3 400D0000 		.4byte	.LASF160
 5235 0bd7 0D       		.byte	0xd
 5236 0bd8 24       		.byte	0x24
 5237 0bd9 B80B0000 		.4byte	0xbb8
 5238 0bdd 20       		.uleb128 0x20
 5239 0bde 07       		.byte	0x7
 5240 0bdf 01       		.byte	0x1
 5241 0be0 46000000 		.4byte	0x46
 5242 0be4 0D       		.byte	0xd
 5243 0be5 2A       		.byte	0x2a
ARM GAS  C:\Users\EBANO_~1\AppData\Local\Temp\ccazSBuk.s 			page 119


 5244 0be6 030C0000 		.4byte	0xc03
 5245 0bea 21       		.uleb128 0x21
 5246 0beb A7020000 		.4byte	.LASF161
 5247 0bef 00       		.byte	0
 5248 0bf0 21       		.uleb128 0x21
 5249 0bf1 390F0000 		.4byte	.LASF162
 5250 0bf5 01       		.byte	0x1
 5251 0bf6 21       		.uleb128 0x21
 5252 0bf7 AA1A0000 		.4byte	.LASF163
 5253 0bfb 02       		.byte	0x2
 5254 0bfc 21       		.uleb128 0x21
 5255 0bfd 96160000 		.4byte	.LASF164
 5256 0c01 03       		.byte	0x3
 5257 0c02 00       		.byte	0
 5258 0c03 03       		.uleb128 0x3
 5259 0c04 F4100000 		.4byte	.LASF165
 5260 0c08 0D       		.byte	0xd
 5261 0c09 2F       		.byte	0x2f
 5262 0c0a DD0B0000 		.4byte	0xbdd
 5263 0c0e 0F       		.uleb128 0xf
 5264 0c0f 1C       		.byte	0x1c
 5265 0c10 0D       		.byte	0xd
 5266 0c11 34       		.byte	0x34
 5267 0c12 790C0000 		.4byte	0xc79
 5268 0c16 10       		.uleb128 0x10
 5269 0c17 A7080000 		.4byte	.LASF166
 5270 0c1b 0D       		.byte	0xd
 5271 0c1c 39       		.byte	0x39
 5272 0c1d E8030000 		.4byte	0x3e8
 5273 0c21 02       		.byte	0x2
 5274 0c22 23       		.byte	0x23
 5275 0c23 00       		.uleb128 0
 5276 0c24 10       		.uleb128 0x10
 5277 0c25 1E020000 		.4byte	.LASF167
 5278 0c29 0D       		.byte	0xd
 5279 0c2a 3D       		.byte	0x3d
 5280 0c2b E8030000 		.4byte	0x3e8
 5281 0c2f 02       		.byte	0x2
 5282 0c30 23       		.byte	0x23
 5283 0c31 04       		.uleb128 0x4
 5284 0c32 10       		.uleb128 0x10
 5285 0c33 6C0A0000 		.4byte	.LASF168
 5286 0c37 0D       		.byte	0xd
 5287 0c38 48       		.byte	0x48
 5288 0c39 940C0000 		.4byte	0xc94
 5289 0c3d 02       		.byte	0x2
 5290 0c3e 23       		.byte	0x23
 5291 0c3f 08       		.uleb128 0x8
 5292 0c40 10       		.uleb128 0x10
 5293 0c41 05020000 		.4byte	.LASF169
 5294 0c45 0D       		.byte	0xd
 5295 0c46 4C       		.byte	0x4c
 5296 0c47 E8030000 		.4byte	0x3e8
 5297 0c4b 02       		.byte	0x2
 5298 0c4c 23       		.byte	0x23
 5299 0c4d 0C       		.uleb128 0xc
 5300 0c4e 10       		.uleb128 0x10
ARM GAS  C:\Users\EBANO_~1\AppData\Local\Temp\ccazSBuk.s 			page 120


 5301 0c4f 1D010000 		.4byte	.LASF170
 5302 0c53 0D       		.byte	0xd
 5303 0c54 50       		.byte	0x50
 5304 0c55 E8030000 		.4byte	0x3e8
 5305 0c59 02       		.byte	0x2
 5306 0c5a 23       		.byte	0x23
 5307 0c5b 10       		.uleb128 0x10
 5308 0c5c 10       		.uleb128 0x10
 5309 0c5d 610E0000 		.4byte	.LASF171
 5310 0c61 0D       		.byte	0xd
 5311 0c62 56       		.byte	0x56
 5312 0c63 A60C0000 		.4byte	0xca6
 5313 0c67 02       		.byte	0x2
 5314 0c68 23       		.byte	0x23
 5315 0c69 14       		.uleb128 0x14
 5316 0c6a 10       		.uleb128 0x10
 5317 0c6b BB1E0000 		.4byte	.LASF172
 5318 0c6f 0D       		.byte	0xd
 5319 0c70 5D       		.byte	0x5d
 5320 0c71 B80C0000 		.4byte	0xcb8
 5321 0c75 02       		.byte	0x2
 5322 0c76 23       		.byte	0x23
 5323 0c77 18       		.uleb128 0x18
 5324 0c78 00       		.byte	0
 5325 0c79 1D       		.uleb128 0x1d
 5326 0c7a 01       		.byte	0x1
 5327 0c7b 940C0000 		.4byte	0xc94
 5328 0c7f 16       		.uleb128 0x16
 5329 0c80 840A0000 		.4byte	0xa84
 5330 0c84 16       		.uleb128 0x16
 5331 0c85 D7000000 		.4byte	0xd7
 5332 0c89 16       		.uleb128 0x16
 5333 0c8a CC000000 		.4byte	0xcc
 5334 0c8e 16       		.uleb128 0x16
 5335 0c8f B1000000 		.4byte	0xb1
 5336 0c93 00       		.byte	0
 5337 0c94 0A       		.uleb128 0xa
 5338 0c95 04       		.byte	0x4
 5339 0c96 790C0000 		.4byte	0xc79
 5340 0c9a 1D       		.uleb128 0x1d
 5341 0c9b 01       		.byte	0x1
 5342 0c9c A60C0000 		.4byte	0xca6
 5343 0ca0 16       		.uleb128 0x16
 5344 0ca1 BC000000 		.4byte	0xbc
 5345 0ca5 00       		.byte	0
 5346 0ca6 0A       		.uleb128 0xa
 5347 0ca7 04       		.byte	0x4
 5348 0ca8 9A0C0000 		.4byte	0xc9a
 5349 0cac 1D       		.uleb128 0x1d
 5350 0cad 01       		.byte	0x1
 5351 0cae B80C0000 		.4byte	0xcb8
 5352 0cb2 16       		.uleb128 0x16
 5353 0cb3 150B0000 		.4byte	0xb15
 5354 0cb7 00       		.byte	0
 5355 0cb8 0A       		.uleb128 0xa
 5356 0cb9 04       		.byte	0x4
 5357 0cba AC0C0000 		.4byte	0xcac
ARM GAS  C:\Users\EBANO_~1\AppData\Local\Temp\ccazSBuk.s 			page 121


 5358 0cbe 03       		.uleb128 0x3
 5359 0cbf F71D0000 		.4byte	.LASF173
 5360 0cc3 0D       		.byte	0xd
 5361 0cc4 5E       		.byte	0x5e
 5362 0cc5 0E0C0000 		.4byte	0xc0e
 5363 0cc9 11       		.uleb128 0x11
 5364 0cca 46030000 		.4byte	.LASF174
 5365 0cce 74       		.byte	0x74
 5366 0ccf 0D       		.byte	0xd
 5367 0cd0 63       		.byte	0x63
 5368 0cd1 7D0E0000 		.4byte	0xe7d
 5369 0cd5 10       		.uleb128 0x10
 5370 0cd6 0D130000 		.4byte	.LASF175
 5371 0cda 0D       		.byte	0xd
 5372 0cdb 68       		.byte	0x68
 5373 0cdc E8030000 		.4byte	0x3e8
 5374 0ce0 02       		.byte	0x2
 5375 0ce1 23       		.byte	0x23
 5376 0ce2 00       		.uleb128 0
 5377 0ce3 10       		.uleb128 0x10
 5378 0ce4 4B080000 		.4byte	.LASF176
 5379 0ce8 0D       		.byte	0xd
 5380 0ce9 6C       		.byte	0x6c
 5381 0cea E8030000 		.4byte	0x3e8
 5382 0cee 02       		.byte	0x2
 5383 0cef 23       		.byte	0x23
 5384 0cf0 04       		.uleb128 0x4
 5385 0cf1 10       		.uleb128 0x10
 5386 0cf2 521C0000 		.4byte	.LASF177
 5387 0cf6 0D       		.byte	0xd
 5388 0cf7 73       		.byte	0x73
 5389 0cf8 980E0000 		.4byte	0xe98
 5390 0cfc 02       		.byte	0x2
 5391 0cfd 23       		.byte	0x23
 5392 0cfe 08       		.uleb128 0x8
 5393 0cff 10       		.uleb128 0x10
 5394 0d00 BD0F0000 		.4byte	.LASF178
 5395 0d04 0D       		.byte	0xd
 5396 0d05 79       		.byte	0x79
 5397 0d06 A40E0000 		.4byte	0xea4
 5398 0d0a 02       		.byte	0x2
 5399 0d0b 23       		.byte	0x23
 5400 0d0c 0C       		.uleb128 0xc
 5401 0d0d 10       		.uleb128 0x10
 5402 0d0e 54080000 		.4byte	.LASF179
 5403 0d12 0D       		.byte	0xd
 5404 0d13 7F       		.byte	0x7f
 5405 0d14 B60E0000 		.4byte	0xeb6
 5406 0d18 02       		.byte	0x2
 5407 0d19 23       		.byte	0x23
 5408 0d1a 10       		.uleb128 0x10
 5409 0d1b 10       		.uleb128 0x10
 5410 0d1c 87170000 		.4byte	.LASF180
 5411 0d20 0D       		.byte	0xd
 5412 0d21 85       		.byte	0x85
 5413 0d22 C80E0000 		.4byte	0xec8
 5414 0d26 02       		.byte	0x2
ARM GAS  C:\Users\EBANO_~1\AppData\Local\Temp\ccazSBuk.s 			page 122


 5415 0d27 23       		.byte	0x23
 5416 0d28 14       		.uleb128 0x14
 5417 0d29 10       		.uleb128 0x10
 5418 0d2a 42160000 		.4byte	.LASF181
 5419 0d2e 0D       		.byte	0xd
 5420 0d2f 90       		.byte	0x90
 5421 0d30 ED0E0000 		.4byte	0xeed
 5422 0d34 02       		.byte	0x2
 5423 0d35 23       		.byte	0x23
 5424 0d36 18       		.uleb128 0x18
 5425 0d37 10       		.uleb128 0x10
 5426 0d38 9C0A0000 		.4byte	.LASF182
 5427 0d3c 0D       		.byte	0xd
 5428 0d3d 9B       		.byte	0x9b
 5429 0d3e F90E0000 		.4byte	0xef9
 5430 0d42 02       		.byte	0x2
 5431 0d43 23       		.byte	0x23
 5432 0d44 1C       		.uleb128 0x1c
 5433 0d45 10       		.uleb128 0x10
 5434 0d46 20210000 		.4byte	.LASF183
 5435 0d4a 0D       		.byte	0xd
 5436 0d4b C3       		.byte	0xc3
 5437 0d4c 4C0F0000 		.4byte	0xf4c
 5438 0d50 02       		.byte	0x2
 5439 0d51 23       		.byte	0x23
 5440 0d52 20       		.uleb128 0x20
 5441 0d53 10       		.uleb128 0x10
 5442 0d54 DE0F0000 		.4byte	.LASF184
 5443 0d58 0D       		.byte	0xd
 5444 0d59 ED       		.byte	0xed
 5445 0d5a 9A0F0000 		.4byte	0xf9a
 5446 0d5e 02       		.byte	0x2
 5447 0d5f 23       		.byte	0x23
 5448 0d60 24       		.uleb128 0x24
 5449 0d61 10       		.uleb128 0x10
 5450 0d62 27120000 		.4byte	.LASF185
 5451 0d66 0D       		.byte	0xd
 5452 0d67 F8       		.byte	0xf8
 5453 0d68 B00F0000 		.4byte	0xfb0
 5454 0d6c 02       		.byte	0x2
 5455 0d6d 23       		.byte	0x23
 5456 0d6e 28       		.uleb128 0x28
 5457 0d6f 18       		.uleb128 0x18
 5458 0d70 58130000 		.4byte	.LASF186
 5459 0d74 0D       		.byte	0xd
 5460 0d75 0301     		.2byte	0x103
 5461 0d77 CB0F0000 		.4byte	0xfcb
 5462 0d7b 02       		.byte	0x2
 5463 0d7c 23       		.byte	0x23
 5464 0d7d 2C       		.uleb128 0x2c
 5465 0d7e 18       		.uleb128 0x18
 5466 0d7f 801D0000 		.4byte	.LASF187
 5467 0d83 0D       		.byte	0xd
 5468 0d84 0B01     		.2byte	0x10b
 5469 0d86 E20F0000 		.4byte	0xfe2
 5470 0d8a 02       		.byte	0x2
 5471 0d8b 23       		.byte	0x23
ARM GAS  C:\Users\EBANO_~1\AppData\Local\Temp\ccazSBuk.s 			page 123


 5472 0d8c 30       		.uleb128 0x30
 5473 0d8d 18       		.uleb128 0x18
 5474 0d8e F20C0000 		.4byte	.LASF188
 5475 0d92 0D       		.byte	0xd
 5476 0d93 0F01     		.2byte	0x10f
 5477 0d95 E8030000 		.4byte	0x3e8
 5478 0d99 02       		.byte	0x2
 5479 0d9a 23       		.byte	0x23
 5480 0d9b 34       		.uleb128 0x34
 5481 0d9c 18       		.uleb128 0x18
 5482 0d9d 7A040000 		.4byte	.LASF189
 5483 0da1 0D       		.byte	0xd
 5484 0da2 1301     		.2byte	0x113
 5485 0da4 E8030000 		.4byte	0x3e8
 5486 0da8 02       		.byte	0x2
 5487 0da9 23       		.byte	0x23
 5488 0daa 38       		.uleb128 0x38
 5489 0dab 22       		.uleb128 0x22
 5490 0dac 527800   		.ascii	"Rx\000"
 5491 0daf 0D       		.byte	0xd
 5492 0db0 1901     		.2byte	0x119
 5493 0db2 C80E0000 		.4byte	0xec8
 5494 0db6 02       		.byte	0x2
 5495 0db7 23       		.byte	0x23
 5496 0db8 3C       		.uleb128 0x3c
 5497 0db9 18       		.uleb128 0x18
 5498 0dba BC090000 		.4byte	.LASF190
 5499 0dbe 0D       		.byte	0xd
 5500 0dbf 1D01     		.2byte	0x11d
 5501 0dc1 E8030000 		.4byte	0x3e8
 5502 0dc5 02       		.byte	0x2
 5503 0dc6 23       		.byte	0x23
 5504 0dc7 40       		.uleb128 0x40
 5505 0dc8 18       		.uleb128 0x18
 5506 0dc9 58150000 		.4byte	.LASF191
 5507 0dcd 0D       		.byte	0xd
 5508 0dce 2501     		.2byte	0x125
 5509 0dd0 FE0F0000 		.4byte	0xffe
 5510 0dd4 02       		.byte	0x2
 5511 0dd5 23       		.byte	0x23
 5512 0dd6 44       		.uleb128 0x44
 5513 0dd7 18       		.uleb128 0x18
 5514 0dd8 CC1B0000 		.4byte	.LASF192
 5515 0ddc 0D       		.byte	0xd
 5516 0ddd 2B01     		.2byte	0x12b
 5517 0ddf 14100000 		.4byte	0x1014
 5518 0de3 02       		.byte	0x2
 5519 0de4 23       		.byte	0x23
 5520 0de5 48       		.uleb128 0x48
 5521 0de6 18       		.uleb128 0x18
 5522 0de7 99040000 		.4byte	.LASF193
 5523 0deb 0D       		.byte	0xd
 5524 0dec 3201     		.2byte	0x132
 5525 0dee 2B100000 		.4byte	0x102b
 5526 0df2 02       		.byte	0x2
 5527 0df3 23       		.byte	0x23
 5528 0df4 4C       		.uleb128 0x4c
ARM GAS  C:\Users\EBANO_~1\AppData\Local\Temp\ccazSBuk.s 			page 124


 5529 0df5 18       		.uleb128 0x18
 5530 0df6 DB040000 		.4byte	.LASF194
 5531 0dfa 0D       		.byte	0xd
 5532 0dfb 3901     		.2byte	0x139
 5533 0dfd 41100000 		.4byte	0x1041
 5534 0e01 02       		.byte	0x2
 5535 0e02 23       		.byte	0x23
 5536 0e03 50       		.uleb128 0x50
 5537 0e04 18       		.uleb128 0x18
 5538 0e05 11010000 		.4byte	.LASF195
 5539 0e09 0D       		.byte	0xd
 5540 0e0a 4101     		.2byte	0x141
 5541 0e0c 5D100000 		.4byte	0x105d
 5542 0e10 02       		.byte	0x2
 5543 0e11 23       		.byte	0x23
 5544 0e12 54       		.uleb128 0x54
 5545 0e13 18       		.uleb128 0x18
 5546 0e14 2E010000 		.4byte	.LASF196
 5547 0e18 0D       		.byte	0xd
 5548 0e19 4901     		.2byte	0x149
 5549 0e1b 5D100000 		.4byte	0x105d
 5550 0e1f 02       		.byte	0x2
 5551 0e20 23       		.byte	0x23
 5552 0e21 58       		.uleb128 0x58
 5553 0e22 18       		.uleb128 0x18
 5554 0e23 B6030000 		.4byte	.LASF197
 5555 0e27 0D       		.byte	0xd
 5556 0e28 5001     		.2byte	0x150
 5557 0e2a 74100000 		.4byte	0x1074
 5558 0e2e 02       		.byte	0x2
 5559 0e2f 23       		.byte	0x23
 5560 0e30 5C       		.uleb128 0x5c
 5561 0e31 18       		.uleb128 0x18
 5562 0e32 6B160000 		.4byte	.LASF198
 5563 0e36 0D       		.byte	0xd
 5564 0e37 5801     		.2byte	0x158
 5565 0e39 B80C0000 		.4byte	0xcb8
 5566 0e3d 02       		.byte	0x2
 5567 0e3e 23       		.byte	0x23
 5568 0e3f 60       		.uleb128 0x60
 5569 0e40 18       		.uleb128 0x18
 5570 0e41 701F0000 		.4byte	.LASF199
 5571 0e45 0D       		.byte	0xd
 5572 0e46 5E01     		.2byte	0x15e
 5573 0e48 F90E0000 		.4byte	0xef9
 5574 0e4c 02       		.byte	0x2
 5575 0e4d 23       		.byte	0x23
 5576 0e4e 64       		.uleb128 0x64
 5577 0e4f 18       		.uleb128 0x18
 5578 0e50 D7160000 		.4byte	.LASF200
 5579 0e54 0D       		.byte	0xd
 5580 0e55 6201     		.2byte	0x162
 5581 0e57 E8030000 		.4byte	0x3e8
 5582 0e5b 02       		.byte	0x2
 5583 0e5c 23       		.byte	0x23
 5584 0e5d 68       		.uleb128 0x68
 5585 0e5e 18       		.uleb128 0x18
ARM GAS  C:\Users\EBANO_~1\AppData\Local\Temp\ccazSBuk.s 			page 125


 5586 0e5f 83050000 		.4byte	.LASF201
 5587 0e63 0D       		.byte	0xd
 5588 0e64 6E01     		.2byte	0x16e
 5589 0e66 C80E0000 		.4byte	0xec8
 5590 0e6a 02       		.byte	0x2
 5591 0e6b 23       		.byte	0x23
 5592 0e6c 6C       		.uleb128 0x6c
 5593 0e6d 18       		.uleb128 0x18
 5594 0e6e 540C0000 		.4byte	.LASF202
 5595 0e72 0D       		.byte	0xd
 5596 0e73 7701     		.2byte	0x177
 5597 0e75 8B100000 		.4byte	0x108b
 5598 0e79 02       		.byte	0x2
 5599 0e7a 23       		.byte	0x23
 5600 0e7b 70       		.uleb128 0x70
 5601 0e7c 00       		.byte	0
 5602 0e7d 05       		.uleb128 0x5
 5603 0e7e C90C0000 		.4byte	0xcc9
 5604 0e82 15       		.uleb128 0x15
 5605 0e83 01       		.byte	0x1
 5606 0e84 ED000000 		.4byte	0xed
 5607 0e88 920E0000 		.4byte	0xe92
 5608 0e8c 16       		.uleb128 0x16
 5609 0e8d 920E0000 		.4byte	0xe92
 5610 0e91 00       		.byte	0
 5611 0e92 0A       		.uleb128 0xa
 5612 0e93 04       		.byte	0x4
 5613 0e94 BE0C0000 		.4byte	0xcbe
 5614 0e98 0A       		.uleb128 0xa
 5615 0e99 04       		.byte	0x4
 5616 0e9a 820E0000 		.4byte	0xe82
 5617 0e9e 23       		.uleb128 0x23
 5618 0e9f 01       		.byte	0x1
 5619 0ea0 030C0000 		.4byte	0xc03
 5620 0ea4 0A       		.uleb128 0xa
 5621 0ea5 04       		.byte	0x4
 5622 0ea6 9E0E0000 		.4byte	0xe9e
 5623 0eaa 1D       		.uleb128 0x1d
 5624 0eab 01       		.byte	0x1
 5625 0eac B60E0000 		.4byte	0xeb6
 5626 0eb0 16       		.uleb128 0x16
 5627 0eb1 D20B0000 		.4byte	0xbd2
 5628 0eb5 00       		.byte	0
 5629 0eb6 0A       		.uleb128 0xa
 5630 0eb7 04       		.byte	0x4
 5631 0eb8 AA0E0000 		.4byte	0xeaa
 5632 0ebc 1D       		.uleb128 0x1d
 5633 0ebd 01       		.byte	0x1
 5634 0ebe C80E0000 		.4byte	0xec8
 5635 0ec2 16       		.uleb128 0x16
 5636 0ec3 ED000000 		.4byte	0xed
 5637 0ec7 00       		.byte	0
 5638 0ec8 0A       		.uleb128 0xa
 5639 0ec9 04       		.byte	0x4
 5640 0eca BC0E0000 		.4byte	0xebc
 5641 0ece 15       		.uleb128 0x15
 5642 0ecf 01       		.byte	0x1
ARM GAS  C:\Users\EBANO_~1\AppData\Local\Temp\ccazSBuk.s 			page 126


 5643 0ed0 150B0000 		.4byte	0xb15
 5644 0ed4 ED0E0000 		.4byte	0xeed
 5645 0ed8 16       		.uleb128 0x16
 5646 0ed9 D20B0000 		.4byte	0xbd2
 5647 0edd 16       		.uleb128 0x16
 5648 0ede ED000000 		.4byte	0xed
 5649 0ee2 16       		.uleb128 0x16
 5650 0ee3 CC000000 		.4byte	0xcc
 5651 0ee7 16       		.uleb128 0x16
 5652 0ee8 ED000000 		.4byte	0xed
 5653 0eec 00       		.byte	0
 5654 0eed 0A       		.uleb128 0xa
 5655 0eee 04       		.byte	0x4
 5656 0eef CE0E0000 		.4byte	0xece
 5657 0ef3 23       		.uleb128 0x23
 5658 0ef4 01       		.byte	0x1
 5659 0ef5 ED000000 		.4byte	0xed
 5660 0ef9 0A       		.uleb128 0xa
 5661 0efa 04       		.byte	0x4
 5662 0efb F30E0000 		.4byte	0xef3
 5663 0eff 1D       		.uleb128 0x1d
 5664 0f00 01       		.byte	0x1
 5665 0f01 4C0F0000 		.4byte	0xf4c
 5666 0f05 16       		.uleb128 0x16
 5667 0f06 D20B0000 		.4byte	0xbd2
 5668 0f0a 16       		.uleb128 0x16
 5669 0f0b ED000000 		.4byte	0xed
 5670 0f0f 16       		.uleb128 0x16
 5671 0f10 ED000000 		.4byte	0xed
 5672 0f14 16       		.uleb128 0x16
 5673 0f15 BC000000 		.4byte	0xbc
 5674 0f19 16       		.uleb128 0x16
 5675 0f1a ED000000 		.4byte	0xed
 5676 0f1e 16       		.uleb128 0x16
 5677 0f1f D7000000 		.4byte	0xd7
 5678 0f23 16       		.uleb128 0x16
 5679 0f24 D7000000 		.4byte	0xd7
 5680 0f28 16       		.uleb128 0x16
 5681 0f29 150B0000 		.4byte	0xb15
 5682 0f2d 16       		.uleb128 0x16
 5683 0f2e BC000000 		.4byte	0xbc
 5684 0f32 16       		.uleb128 0x16
 5685 0f33 150B0000 		.4byte	0xb15
 5686 0f37 16       		.uleb128 0x16
 5687 0f38 150B0000 		.4byte	0xb15
 5688 0f3c 16       		.uleb128 0x16
 5689 0f3d BC000000 		.4byte	0xbc
 5690 0f41 16       		.uleb128 0x16
 5691 0f42 150B0000 		.4byte	0xb15
 5692 0f46 16       		.uleb128 0x16
 5693 0f47 150B0000 		.4byte	0xb15
 5694 0f4b 00       		.byte	0
 5695 0f4c 0A       		.uleb128 0xa
 5696 0f4d 04       		.byte	0x4
 5697 0f4e FF0E0000 		.4byte	0xeff
 5698 0f52 1D       		.uleb128 0x1d
 5699 0f53 01       		.byte	0x1
ARM GAS  C:\Users\EBANO_~1\AppData\Local\Temp\ccazSBuk.s 			page 127


 5700 0f54 9A0F0000 		.4byte	0xf9a
 5701 0f58 16       		.uleb128 0x16
 5702 0f59 D20B0000 		.4byte	0xbd2
 5703 0f5d 16       		.uleb128 0x16
 5704 0f5e B1000000 		.4byte	0xb1
 5705 0f62 16       		.uleb128 0x16
 5706 0f63 ED000000 		.4byte	0xed
 5707 0f67 16       		.uleb128 0x16
 5708 0f68 ED000000 		.4byte	0xed
 5709 0f6c 16       		.uleb128 0x16
 5710 0f6d ED000000 		.4byte	0xed
 5711 0f71 16       		.uleb128 0x16
 5712 0f72 BC000000 		.4byte	0xbc
 5713 0f76 16       		.uleb128 0x16
 5714 0f77 D7000000 		.4byte	0xd7
 5715 0f7b 16       		.uleb128 0x16
 5716 0f7c 150B0000 		.4byte	0xb15
 5717 0f80 16       		.uleb128 0x16
 5718 0f81 150B0000 		.4byte	0xb15
 5719 0f85 16       		.uleb128 0x16
 5720 0f86 150B0000 		.4byte	0xb15
 5721 0f8a 16       		.uleb128 0x16
 5722 0f8b BC000000 		.4byte	0xbc
 5723 0f8f 16       		.uleb128 0x16
 5724 0f90 150B0000 		.4byte	0xb15
 5725 0f94 16       		.uleb128 0x16
 5726 0f95 ED000000 		.4byte	0xed
 5727 0f99 00       		.byte	0
 5728 0f9a 0A       		.uleb128 0xa
 5729 0f9b 04       		.byte	0x4
 5730 0f9c 520F0000 		.4byte	0xf52
 5731 0fa0 15       		.uleb128 0x15
 5732 0fa1 01       		.byte	0x1
 5733 0fa2 150B0000 		.4byte	0xb15
 5734 0fa6 B00F0000 		.4byte	0xfb0
 5735 0faa 16       		.uleb128 0x16
 5736 0fab ED000000 		.4byte	0xed
 5737 0faf 00       		.byte	0
 5738 0fb0 0A       		.uleb128 0xa
 5739 0fb1 04       		.byte	0x4
 5740 0fb2 A00F0000 		.4byte	0xfa0
 5741 0fb6 15       		.uleb128 0x15
 5742 0fb7 01       		.byte	0x1
 5743 0fb8 ED000000 		.4byte	0xed
 5744 0fbc CB0F0000 		.4byte	0xfcb
 5745 0fc0 16       		.uleb128 0x16
 5746 0fc1 D20B0000 		.4byte	0xbd2
 5747 0fc5 16       		.uleb128 0x16
 5748 0fc6 BC000000 		.4byte	0xbc
 5749 0fca 00       		.byte	0
 5750 0fcb 0A       		.uleb128 0xa
 5751 0fcc 04       		.byte	0x4
 5752 0fcd B60F0000 		.4byte	0xfb6
 5753 0fd1 1D       		.uleb128 0x1d
 5754 0fd2 01       		.byte	0x1
 5755 0fd3 E20F0000 		.4byte	0xfe2
 5756 0fd7 16       		.uleb128 0x16
ARM GAS  C:\Users\EBANO_~1\AppData\Local\Temp\ccazSBuk.s 			page 128


 5757 0fd8 840A0000 		.4byte	0xa84
 5758 0fdc 16       		.uleb128 0x16
 5759 0fdd BC000000 		.4byte	0xbc
 5760 0fe1 00       		.byte	0
 5761 0fe2 0A       		.uleb128 0xa
 5762 0fe3 04       		.byte	0x4
 5763 0fe4 D10F0000 		.4byte	0xfd1
 5764 0fe8 1D       		.uleb128 0x1d
 5765 0fe9 01       		.byte	0x1
 5766 0fea FE0F0000 		.4byte	0xffe
 5767 0fee 16       		.uleb128 0x16
 5768 0fef ED000000 		.4byte	0xed
 5769 0ff3 16       		.uleb128 0x16
 5770 0ff4 B1000000 		.4byte	0xb1
 5771 0ff8 16       		.uleb128 0x16
 5772 0ff9 D7000000 		.4byte	0xd7
 5773 0ffd 00       		.byte	0
 5774 0ffe 0A       		.uleb128 0xa
 5775 0fff 04       		.byte	0x4
 5776 1000 E80F0000 		.4byte	0xfe8
 5777 1004 15       		.uleb128 0x15
 5778 1005 01       		.byte	0x1
 5779 1006 CC000000 		.4byte	0xcc
 5780 100a 14100000 		.4byte	0x1014
 5781 100e 16       		.uleb128 0x16
 5782 100f D20B0000 		.4byte	0xbd2
 5783 1013 00       		.byte	0
 5784 1014 0A       		.uleb128 0xa
 5785 1015 04       		.byte	0x4
 5786 1016 04100000 		.4byte	0x1004
 5787 101a 1D       		.uleb128 0x1d
 5788 101b 01       		.byte	0x1
 5789 101c 2B100000 		.4byte	0x102b
 5790 1020 16       		.uleb128 0x16
 5791 1021 D7000000 		.4byte	0xd7
 5792 1025 16       		.uleb128 0x16
 5793 1026 BC000000 		.4byte	0xbc
 5794 102a 00       		.byte	0
 5795 102b 0A       		.uleb128 0xa
 5796 102c 04       		.byte	0x4
 5797 102d 1A100000 		.4byte	0x101a
 5798 1031 15       		.uleb128 0x15
 5799 1032 01       		.byte	0x1
 5800 1033 BC000000 		.4byte	0xbc
 5801 1037 41100000 		.4byte	0x1041
 5802 103b 16       		.uleb128 0x16
 5803 103c D7000000 		.4byte	0xd7
 5804 1040 00       		.byte	0
 5805 1041 0A       		.uleb128 0xa
 5806 1042 04       		.byte	0x4
 5807 1043 31100000 		.4byte	0x1031
 5808 1047 1D       		.uleb128 0x1d
 5809 1048 01       		.byte	0x1
 5810 1049 5D100000 		.4byte	0x105d
 5811 104d 16       		.uleb128 0x16
 5812 104e D7000000 		.4byte	0xd7
 5813 1052 16       		.uleb128 0x16
ARM GAS  C:\Users\EBANO_~1\AppData\Local\Temp\ccazSBuk.s 			page 129


 5814 1053 840A0000 		.4byte	0xa84
 5815 1057 16       		.uleb128 0x16
 5816 1058 BC000000 		.4byte	0xbc
 5817 105c 00       		.byte	0
 5818 105d 0A       		.uleb128 0xa
 5819 105e 04       		.byte	0x4
 5820 105f 47100000 		.4byte	0x1047
 5821 1063 1D       		.uleb128 0x1d
 5822 1064 01       		.byte	0x1
 5823 1065 74100000 		.4byte	0x1074
 5824 1069 16       		.uleb128 0x16
 5825 106a D20B0000 		.4byte	0xbd2
 5826 106e 16       		.uleb128 0x16
 5827 106f BC000000 		.4byte	0xbc
 5828 1073 00       		.byte	0
 5829 1074 0A       		.uleb128 0xa
 5830 1075 04       		.byte	0x4
 5831 1076 63100000 		.4byte	0x1063
 5832 107a 1D       		.uleb128 0x1d
 5833 107b 01       		.byte	0x1
 5834 107c 8B100000 		.4byte	0x108b
 5835 1080 16       		.uleb128 0x16
 5836 1081 ED000000 		.4byte	0xed
 5837 1085 16       		.uleb128 0x16
 5838 1086 ED000000 		.4byte	0xed
 5839 108a 00       		.byte	0
 5840 108b 0A       		.uleb128 0xa
 5841 108c 04       		.byte	0x4
 5842 108d 7A100000 		.4byte	0x107a
 5843 1091 1E       		.uleb128 0x1e
 5844 1092 FF080000 		.4byte	.LASF203
 5845 1096 0D       		.byte	0xd
 5846 1097 8001     		.2byte	0x180
 5847 1099 7D0E0000 		.4byte	0xe7d
 5848 109d 01       		.byte	0x1
 5849 109e 01       		.byte	0x1
 5850 109f 11       		.uleb128 0x11
 5851 10a0 421F0000 		.4byte	.LASF204
 5852 10a4 01       		.byte	0x1
 5853 10a5 0E       		.byte	0xe
 5854 10a6 B4       		.byte	0xb4
 5855 10a7 CE100000 		.4byte	0x10ce
 5856 10ab 24       		.uleb128 0x24
 5857 10ac 4D696E00 		.ascii	"Min\000"
 5858 10b0 0E       		.byte	0xe
 5859 10b1 BD       		.byte	0xbd
 5860 10b2 B1000000 		.4byte	0xb1
 5861 10b6 01       		.byte	0x1
 5862 10b7 04       		.byte	0x4
 5863 10b8 04       		.byte	0x4
 5864 10b9 02       		.byte	0x2
 5865 10ba 23       		.byte	0x23
 5866 10bb 00       		.uleb128 0
 5867 10bc 24       		.uleb128 0x24
 5868 10bd 4D617800 		.ascii	"Max\000"
 5869 10c1 0E       		.byte	0xe
 5870 10c2 C5       		.byte	0xc5
ARM GAS  C:\Users\EBANO_~1\AppData\Local\Temp\ccazSBuk.s 			page 130


 5871 10c3 B1000000 		.4byte	0xb1
 5872 10c7 01       		.byte	0x1
 5873 10c8 04       		.byte	0x4
 5874 10c9 00       		.byte	0
 5875 10ca 02       		.byte	0x2
 5876 10cb 23       		.byte	0x23
 5877 10cc 00       		.uleb128 0
 5878 10cd 00       		.byte	0
 5879 10ce 1F       		.uleb128 0x1f
 5880 10cf D1080000 		.4byte	.LASF206
 5881 10d3 01       		.byte	0x1
 5882 10d4 0E       		.byte	0xe
 5883 10d5 AB       		.byte	0xab
 5884 10d6 F1100000 		.4byte	0x10f1
 5885 10da 0E       		.uleb128 0xe
 5886 10db 91200000 		.4byte	.LASF145
 5887 10df 0E       		.byte	0xe
 5888 10e0 B0       		.byte	0xb0
 5889 10e1 B1000000 		.4byte	0xb1
 5890 10e5 0E       		.uleb128 0xe
 5891 10e6 FB110000 		.4byte	.LASF144
 5892 10ea 0E       		.byte	0xe
 5893 10eb C6       		.byte	0xc6
 5894 10ec 9F100000 		.4byte	0x109f
 5895 10f0 00       		.byte	0
 5896 10f1 03       		.uleb128 0x3
 5897 10f2 3E070000 		.4byte	.LASF207
 5898 10f6 0E       		.byte	0xe
 5899 10f7 C7       		.byte	0xc7
 5900 10f8 CE100000 		.4byte	0x10ce
 5901 10fc 11       		.uleb128 0x11
 5902 10fd 8E190000 		.4byte	.LASF208
 5903 1101 0C       		.byte	0xc
 5904 1102 0E       		.byte	0xe
 5905 1103 CC       		.byte	0xcc
 5906 1104 41110000 		.4byte	0x1141
 5907 1108 10       		.uleb128 0x10
 5908 1109 CB1C0000 		.4byte	.LASF209
 5909 110d 0E       		.byte	0xe
 5910 110e D1       		.byte	0xd1
 5911 110f ED000000 		.4byte	0xed
 5912 1113 02       		.byte	0x2
 5913 1114 23       		.byte	0x23
 5914 1115 00       		.uleb128 0
 5915 1116 10       		.uleb128 0x10
 5916 1117 5D120000 		.4byte	.LASF210
 5917 111b 0E       		.byte	0xe
 5918 111c D5       		.byte	0xd5
 5919 111d ED000000 		.4byte	0xed
 5920 1121 02       		.byte	0x2
 5921 1122 23       		.byte	0x23
 5922 1123 04       		.uleb128 0x4
 5923 1124 10       		.uleb128 0x10
 5924 1125 3B050000 		.4byte	.LASF211
 5925 1129 0E       		.byte	0xe
 5926 112a D9       		.byte	0xd9
 5927 112b F1100000 		.4byte	0x10f1
ARM GAS  C:\Users\EBANO_~1\AppData\Local\Temp\ccazSBuk.s 			page 131


 5928 112f 02       		.byte	0x2
 5929 1130 23       		.byte	0x23
 5930 1131 08       		.uleb128 0x8
 5931 1132 10       		.uleb128 0x10
 5932 1133 DA080000 		.4byte	.LASF212
 5933 1137 0E       		.byte	0xe
 5934 1138 DD       		.byte	0xdd
 5935 1139 BC000000 		.4byte	0xbc
 5936 113d 02       		.byte	0x2
 5937 113e 23       		.byte	0x23
 5938 113f 09       		.uleb128 0x9
 5939 1140 00       		.byte	0
 5940 1141 03       		.uleb128 0x3
 5941 1142 EA0F0000 		.4byte	.LASF213
 5942 1146 0E       		.byte	0xe
 5943 1147 DE       		.byte	0xde
 5944 1148 FC100000 		.4byte	0x10fc
 5945 114c 25       		.uleb128 0x25
 5946 114d D60B0000 		.4byte	.LASF221
 5947 1151 07       		.byte	0x7
 5948 1152 01       		.byte	0x1
 5949 1153 46000000 		.4byte	0x46
 5950 1157 0E       		.byte	0xe
 5951 1158 F6       		.byte	0xf6
 5952 1159 7C110000 		.4byte	0x117c
 5953 115d 21       		.uleb128 0x21
 5954 115e 23190000 		.4byte	.LASF214
 5955 1162 00       		.byte	0
 5956 1163 21       		.uleb128 0x21
 5957 1164 31190000 		.4byte	.LASF215
 5958 1168 01       		.byte	0x1
 5959 1169 21       		.uleb128 0x21
 5960 116a 00000000 		.4byte	.LASF216
 5961 116e 02       		.byte	0x2
 5962 116f 21       		.uleb128 0x21
 5963 1170 DE1F0000 		.4byte	.LASF217
 5964 1174 03       		.byte	0x3
 5965 1175 21       		.uleb128 0x21
 5966 1176 390C0000 		.4byte	.LASF218
 5967 117a 04       		.byte	0x4
 5968 117b 00       		.byte	0
 5969 117c 0C       		.uleb128 0xc
 5970 117d 290F0000 		.4byte	.LASF219
 5971 1181 0E       		.byte	0xe
 5972 1182 0C01     		.2byte	0x10c
 5973 1184 4C110000 		.4byte	0x114c
 5974 1188 02       		.uleb128 0x2
 5975 1189 04       		.byte	0x4
 5976 118a 04       		.byte	0x4
 5977 118b 48070000 		.4byte	.LASF220
 5978 118f 0A       		.uleb128 0xa
 5979 1190 04       		.byte	0x4
 5980 1191 41110000 		.4byte	0x1141
 5981 1195 0A       		.uleb128 0xa
 5982 1196 04       		.byte	0x4
 5983 1197 D7000000 		.4byte	0xd7
 5984 119b 26       		.uleb128 0x26
ARM GAS  C:\Users\EBANO_~1\AppData\Local\Temp\ccazSBuk.s 			page 132


 5985 119c 0A040000 		.4byte	.LASF222
 5986 11a0 07       		.byte	0x7
 5987 11a1 01       		.byte	0x1
 5988 11a2 46000000 		.4byte	0x46
 5989 11a6 0E       		.byte	0xe
 5990 11a7 2508     		.2byte	0x825
 5991 11a9 38120000 		.4byte	0x1238
 5992 11ad 21       		.uleb128 0x21
 5993 11ae BD170000 		.4byte	.LASF223
 5994 11b2 00       		.byte	0
 5995 11b3 21       		.uleb128 0x21
 5996 11b4 FA0F0000 		.4byte	.LASF224
 5997 11b8 01       		.byte	0x1
 5998 11b9 21       		.uleb128 0x21
 5999 11ba 97200000 		.4byte	.LASF225
 6000 11be 02       		.byte	0x2
 6001 11bf 21       		.uleb128 0x21
 6002 11c0 64080000 		.4byte	.LASF226
 6003 11c4 03       		.byte	0x3
 6004 11c5 21       		.uleb128 0x21
 6005 11c6 24170000 		.4byte	.LASF227
 6006 11ca 04       		.byte	0x4
 6007 11cb 21       		.uleb128 0x21
 6008 11cc CB1E0000 		.4byte	.LASF228
 6009 11d0 05       		.byte	0x5
 6010 11d1 21       		.uleb128 0x21
 6011 11d2 581E0000 		.4byte	.LASF229
 6012 11d6 06       		.byte	0x6
 6013 11d7 21       		.uleb128 0x21
 6014 11d8 79010000 		.4byte	.LASF230
 6015 11dc 07       		.byte	0x7
 6016 11dd 21       		.uleb128 0x21
 6017 11de DD060000 		.4byte	.LASF231
 6018 11e2 08       		.byte	0x8
 6019 11e3 21       		.uleb128 0x21
 6020 11e4 050F0000 		.4byte	.LASF232
 6021 11e8 09       		.byte	0x9
 6022 11e9 21       		.uleb128 0x21
 6023 11ea C7200000 		.4byte	.LASF233
 6024 11ee 0A       		.byte	0xa
 6025 11ef 21       		.uleb128 0x21
 6026 11f0 47040000 		.4byte	.LASF234
 6027 11f4 0B       		.byte	0xb
 6028 11f5 21       		.uleb128 0x21
 6029 11f6 6B1A0000 		.4byte	.LASF235
 6030 11fa 0C       		.byte	0xc
 6031 11fb 21       		.uleb128 0x21
 6032 11fc A8110000 		.4byte	.LASF236
 6033 1200 0D       		.byte	0xd
 6034 1201 21       		.uleb128 0x21
 6035 1202 42100000 		.4byte	.LASF237
 6036 1206 0E       		.byte	0xe
 6037 1207 21       		.uleb128 0x21
 6038 1208 2E200000 		.4byte	.LASF238
 6039 120c 0F       		.byte	0xf
 6040 120d 21       		.uleb128 0x21
 6041 120e BC1D0000 		.4byte	.LASF239
ARM GAS  C:\Users\EBANO_~1\AppData\Local\Temp\ccazSBuk.s 			page 133


 6042 1212 10       		.byte	0x10
 6043 1213 21       		.uleb128 0x21
 6044 1214 D2020000 		.4byte	.LASF240
 6045 1218 11       		.byte	0x11
 6046 1219 21       		.uleb128 0x21
 6047 121a 160A0000 		.4byte	.LASF241
 6048 121e 12       		.byte	0x12
 6049 121f 21       		.uleb128 0x21
 6050 1220 200D0000 		.4byte	.LASF242
 6051 1224 13       		.byte	0x13
 6052 1225 21       		.uleb128 0x21
 6053 1226 7B1E0000 		.4byte	.LASF243
 6054 122a 14       		.byte	0x14
 6055 122b 21       		.uleb128 0x21
 6056 122c 901C0000 		.4byte	.LASF244
 6057 1230 15       		.byte	0x15
 6058 1231 21       		.uleb128 0x21
 6059 1232 470F0000 		.4byte	.LASF245
 6060 1236 16       		.byte	0x16
 6061 1237 00       		.byte	0
 6062 1238 0C       		.uleb128 0xc
 6063 1239 2D1E0000 		.4byte	.LASF246
 6064 123d 0E       		.byte	0xe
 6065 123e 8508     		.2byte	0x885
 6066 1240 9B110000 		.4byte	0x119b
 6067 1244 27       		.uleb128 0x27
 6068 1245 8E1F0000 		.4byte	.LASF431
 6069 1249 0E       		.byte	0xe
 6070 124a 2509     		.2byte	0x925
 6071 124c 1A010000 		.4byte	0x11a
 6072 1250 10       		.byte	0x10
 6073 1251 08       		.byte	0x8
 6074 1252 0A       		.byte	0xa
 6075 1253 0C       		.byte	0xc
 6076 1254 0D       		.byte	0xd
 6077 1255 0E       		.byte	0xe
 6078 1256 10       		.byte	0x10
 6079 1257 12       		.byte	0x12
 6080 1258 14       		.byte	0x14
 6081 1259 15       		.byte	0x15
 6082 125a 18       		.byte	0x18
 6083 125b 1A       		.byte	0x1a
 6084 125c 1B       		.byte	0x1b
 6085 125d 1D       		.byte	0x1d
 6086 125e 1E       		.byte	0x1e
 6087 125f 21       		.byte	0x21
 6088 1260 24       		.byte	0x24
 6089 1261 26       		.uleb128 0x26
 6090 1262 E1070000 		.4byte	.LASF247
 6091 1266 07       		.byte	0x7
 6092 1267 01       		.byte	0x1
 6093 1268 46000000 		.4byte	0x46
 6094 126c 0F       		.byte	0xf
 6095 126d 1202     		.2byte	0x212
 6096 126f B2130000 		.4byte	0x13b2
 6097 1273 21       		.uleb128 0x21
 6098 1274 7A0A0000 		.4byte	.LASF248
ARM GAS  C:\Users\EBANO_~1\AppData\Local\Temp\ccazSBuk.s 			page 134


 6099 1278 00       		.byte	0
 6100 1279 21       		.uleb128 0x21
 6101 127a 8D0B0000 		.4byte	.LASF249
 6102 127e 01       		.byte	0x1
 6103 127f 21       		.uleb128 0x21
 6104 1280 BE1B0000 		.4byte	.LASF250
 6105 1284 02       		.byte	0x2
 6106 1285 21       		.uleb128 0x21
 6107 1286 C70F0000 		.4byte	.LASF251
 6108 128a 03       		.byte	0x3
 6109 128b 21       		.uleb128 0x21
 6110 128c 8F1B0000 		.4byte	.LASF252
 6111 1290 04       		.byte	0x4
 6112 1291 21       		.uleb128 0x21
 6113 1292 16170000 		.4byte	.LASF253
 6114 1296 05       		.byte	0x5
 6115 1297 21       		.uleb128 0x21
 6116 1298 12050000 		.4byte	.LASF254
 6117 129c 06       		.byte	0x6
 6118 129d 21       		.uleb128 0x21
 6119 129e C30D0000 		.4byte	.LASF255
 6120 12a2 07       		.byte	0x7
 6121 12a3 21       		.uleb128 0x21
 6122 12a4 7A170000 		.4byte	.LASF256
 6123 12a8 08       		.byte	0x8
 6124 12a9 21       		.uleb128 0x21
 6125 12aa CF170000 		.4byte	.LASF257
 6126 12ae 09       		.byte	0x9
 6127 12af 21       		.uleb128 0x21
 6128 12b0 30030000 		.4byte	.LASF258
 6129 12b4 0A       		.byte	0xa
 6130 12b5 21       		.uleb128 0x21
 6131 12b6 BF100000 		.4byte	.LASF259
 6132 12ba 0B       		.byte	0xb
 6133 12bb 21       		.uleb128 0x21
 6134 12bc D60C0000 		.4byte	.LASF260
 6135 12c0 0C       		.byte	0xc
 6136 12c1 21       		.uleb128 0x21
 6137 12c2 B81A0000 		.4byte	.LASF261
 6138 12c6 0D       		.byte	0xd
 6139 12c7 21       		.uleb128 0x21
 6140 12c8 9F130000 		.4byte	.LASF262
 6141 12cc 0E       		.byte	0xe
 6142 12cd 21       		.uleb128 0x21
 6143 12ce C80A0000 		.4byte	.LASF263
 6144 12d2 0F       		.byte	0xf
 6145 12d3 21       		.uleb128 0x21
 6146 12d4 C30E0000 		.4byte	.LASF264
 6147 12d8 10       		.byte	0x10
 6148 12d9 21       		.uleb128 0x21
 6149 12da D60E0000 		.4byte	.LASF265
 6150 12de 11       		.byte	0x11
 6151 12df 21       		.uleb128 0x21
 6152 12e0 38000000 		.4byte	.LASF266
 6153 12e4 12       		.byte	0x12
 6154 12e5 21       		.uleb128 0x21
 6155 12e6 4F000000 		.4byte	.LASF267
ARM GAS  C:\Users\EBANO_~1\AppData\Local\Temp\ccazSBuk.s 			page 135


 6156 12ea 13       		.byte	0x13
 6157 12eb 21       		.uleb128 0x21
 6158 12ec 65180000 		.4byte	.LASF268
 6159 12f0 14       		.byte	0x14
 6160 12f1 21       		.uleb128 0x21
 6161 12f2 231A0000 		.4byte	.LASF269
 6162 12f6 15       		.byte	0x15
 6163 12f7 21       		.uleb128 0x21
 6164 12f8 AE050000 		.4byte	.LASF270
 6165 12fc 16       		.byte	0x16
 6166 12fd 21       		.uleb128 0x21
 6167 12fe C1070000 		.4byte	.LASF271
 6168 1302 17       		.byte	0x17
 6169 1303 21       		.uleb128 0x21
 6170 1304 9C0E0000 		.4byte	.LASF272
 6171 1308 18       		.byte	0x18
 6172 1309 21       		.uleb128 0x21
 6173 130a B31C0000 		.4byte	.LASF273
 6174 130e 19       		.byte	0x19
 6175 130f 21       		.uleb128 0x21
 6176 1310 DE050000 		.4byte	.LASF274
 6177 1314 1A       		.byte	0x1a
 6178 1315 21       		.uleb128 0x21
 6179 1316 A7150000 		.4byte	.LASF275
 6180 131a 1B       		.byte	0x1b
 6181 131b 21       		.uleb128 0x21
 6182 131c 0C1F0000 		.4byte	.LASF276
 6183 1320 1C       		.byte	0x1c
 6184 1321 21       		.uleb128 0x21
 6185 1322 35180000 		.4byte	.LASF277
 6186 1326 1D       		.byte	0x1d
 6187 1327 21       		.uleb128 0x21
 6188 1328 F50D0000 		.4byte	.LASF278
 6189 132c 1E       		.byte	0x1e
 6190 132d 21       		.uleb128 0x21
 6191 132e DA180000 		.4byte	.LASF279
 6192 1332 1F       		.byte	0x1f
 6193 1333 21       		.uleb128 0x21
 6194 1334 81160000 		.4byte	.LASF280
 6195 1338 20       		.byte	0x20
 6196 1339 21       		.uleb128 0x21
 6197 133a DA0D0000 		.4byte	.LASF281
 6198 133e 21       		.byte	0x21
 6199 133f 21       		.uleb128 0x21
 6200 1340 21180000 		.4byte	.LASF282
 6201 1344 22       		.byte	0x22
 6202 1345 21       		.uleb128 0x21
 6203 1346 AF010000 		.4byte	.LASF283
 6204 134a 23       		.byte	0x23
 6205 134b 21       		.uleb128 0x21
 6206 134c 38020000 		.4byte	.LASF284
 6207 1350 24       		.byte	0x24
 6208 1351 21       		.uleb128 0x21
 6209 1352 4D060000 		.4byte	.LASF285
 6210 1356 25       		.byte	0x25
 6211 1357 21       		.uleb128 0x21
 6212 1358 02120000 		.4byte	.LASF286
ARM GAS  C:\Users\EBANO_~1\AppData\Local\Temp\ccazSBuk.s 			page 136


 6213 135c 26       		.byte	0x26
 6214 135d 21       		.uleb128 0x21
 6215 135e 860D0000 		.4byte	.LASF287
 6216 1362 27       		.byte	0x27
 6217 1363 21       		.uleb128 0x21
 6218 1364 B90B0000 		.4byte	.LASF288
 6219 1368 28       		.byte	0x28
 6220 1369 21       		.uleb128 0x21
 6221 136a 1D0E0000 		.4byte	.LASF289
 6222 136e 29       		.byte	0x29
 6223 136f 21       		.uleb128 0x21
 6224 1370 440B0000 		.4byte	.LASF290
 6225 1374 2A       		.byte	0x2a
 6226 1375 21       		.uleb128 0x21
 6227 1376 FA200000 		.4byte	.LASF291
 6228 137a 2B       		.byte	0x2b
 6229 137b 21       		.uleb128 0x21
 6230 137c 43050000 		.4byte	.LASF292
 6231 1380 2C       		.byte	0x2c
 6232 1381 21       		.uleb128 0x21
 6233 1382 A01E0000 		.4byte	.LASF293
 6234 1386 2D       		.byte	0x2d
 6235 1387 21       		.uleb128 0x21
 6236 1388 D11A0000 		.4byte	.LASF294
 6237 138c 2E       		.byte	0x2e
 6238 138d 21       		.uleb128 0x21
 6239 138e F5170000 		.4byte	.LASF295
 6240 1392 2F       		.byte	0x2f
 6241 1393 21       		.uleb128 0x21
 6242 1394 CE000000 		.4byte	.LASF296
 6243 1398 30       		.byte	0x30
 6244 1399 21       		.uleb128 0x21
 6245 139a D5110000 		.4byte	.LASF297
 6246 139e 31       		.byte	0x31
 6247 139f 21       		.uleb128 0x21
 6248 13a0 6A0B0000 		.4byte	.LASF298
 6249 13a4 32       		.byte	0x32
 6250 13a5 21       		.uleb128 0x21
 6251 13a6 72120000 		.4byte	.LASF299
 6252 13aa 33       		.byte	0x33
 6253 13ab 21       		.uleb128 0x21
 6254 13ac 851D0000 		.4byte	.LASF300
 6255 13b0 34       		.byte	0x34
 6256 13b1 00       		.byte	0
 6257 13b2 0C       		.uleb128 0xc
 6258 13b3 0F020000 		.4byte	.LASF301
 6259 13b7 0F       		.byte	0xf
 6260 13b8 EE02     		.2byte	0x2ee
 6261 13ba 61120000 		.4byte	0x1261
 6262 13be 26       		.uleb128 0x26
 6263 13bf 3F190000 		.4byte	.LASF302
 6264 13c3 07       		.byte	0x7
 6265 13c4 01       		.byte	0x1
 6266 13c5 46000000 		.4byte	0x46
 6267 13c9 0F       		.byte	0xf
 6268 13ca F302     		.2byte	0x2f3
 6269 13cc E3130000 		.4byte	0x13e3
ARM GAS  C:\Users\EBANO_~1\AppData\Local\Temp\ccazSBuk.s 			page 137


 6270 13d0 21       		.uleb128 0x21
 6271 13d1 B40D0000 		.4byte	.LASF303
 6272 13d5 00       		.byte	0
 6273 13d6 21       		.uleb128 0x21
 6274 13d7 351D0000 		.4byte	.LASF304
 6275 13db 01       		.byte	0x1
 6276 13dc 21       		.uleb128 0x21
 6277 13dd 591B0000 		.4byte	.LASF305
 6278 13e1 02       		.byte	0x2
 6279 13e2 00       		.byte	0
 6280 13e3 0C       		.uleb128 0xc
 6281 13e4 AD040000 		.4byte	.LASF306
 6282 13e8 0F       		.byte	0xf
 6283 13e9 0203     		.2byte	0x302
 6284 13eb BE130000 		.4byte	0x13be
 6285 13ef 26       		.uleb128 0x26
 6286 13f0 34160000 		.4byte	.LASF307
 6287 13f4 07       		.byte	0x7
 6288 13f5 01       		.byte	0x1
 6289 13f6 46000000 		.4byte	0x46
 6290 13fa 0F       		.byte	0xf
 6291 13fb 0403     		.2byte	0x304
 6292 13fd 0E140000 		.4byte	0x140e
 6293 1401 21       		.uleb128 0x21
 6294 1402 AA140000 		.4byte	.LASF308
 6295 1406 00       		.byte	0
 6296 1407 21       		.uleb128 0x21
 6297 1408 4F180000 		.4byte	.LASF309
 6298 140c 01       		.byte	0x1
 6299 140d 00       		.byte	0
 6300 140e 0C       		.uleb128 0xc
 6301 140f 62010000 		.4byte	.LASF310
 6302 1413 0F       		.byte	0xf
 6303 1414 0E03     		.2byte	0x30e
 6304 1416 EF130000 		.4byte	0x13ef
 6305 141a 19       		.uleb128 0x19
 6306 141b 8C000000 		.4byte	.LASF311
 6307 141f 03       		.byte	0x3
 6308 1420 0F       		.byte	0xf
 6309 1421 1303     		.2byte	0x313
 6310 1423 55140000 		.4byte	0x1455
 6311 1427 18       		.uleb128 0x18
 6312 1428 AB030000 		.4byte	.LASF312
 6313 142c 0F       		.byte	0xf
 6314 142d 1803     		.2byte	0x318
 6315 142f BC000000 		.4byte	0xbc
 6316 1433 02       		.byte	0x2
 6317 1434 23       		.byte	0x23
 6318 1435 00       		.uleb128 0
 6319 1436 18       		.uleb128 0x18
 6320 1437 66000000 		.4byte	.LASF313
 6321 143b 0F       		.byte	0xf
 6322 143c 1C03     		.2byte	0x31c
 6323 143e BC000000 		.4byte	0xbc
 6324 1442 02       		.byte	0x2
 6325 1443 23       		.byte	0x23
 6326 1444 01       		.uleb128 0x1
ARM GAS  C:\Users\EBANO_~1\AppData\Local\Temp\ccazSBuk.s 			page 138


 6327 1445 18       		.uleb128 0x18
 6328 1446 D50F0000 		.4byte	.LASF314
 6329 144a 0F       		.byte	0xf
 6330 144b 2003     		.2byte	0x320
 6331 144d BC000000 		.4byte	0xbc
 6332 1451 02       		.byte	0x2
 6333 1452 23       		.byte	0x23
 6334 1453 02       		.uleb128 0x2
 6335 1454 00       		.byte	0
 6336 1455 0C       		.uleb128 0xc
 6337 1456 F6190000 		.4byte	.LASF315
 6338 145a 0F       		.byte	0xf
 6339 145b 2103     		.2byte	0x321
 6340 145d 1A140000 		.4byte	0x141a
 6341 1461 28       		.uleb128 0x28
 6342 1462 92170000 		.4byte	.LASF316
 6343 1466 04       		.byte	0x4
 6344 1467 0F       		.byte	0xf
 6345 1468 2603     		.2byte	0x326
 6346 146a AB140000 		.4byte	0x14ab
 6347 146e 1C       		.uleb128 0x1c
 6348 146f 91200000 		.4byte	.LASF145
 6349 1473 0F       		.byte	0xf
 6350 1474 2B03     		.2byte	0x32b
 6351 1476 ED000000 		.4byte	0xed
 6352 147a 1C       		.uleb128 0x1c
 6353 147b 081B0000 		.4byte	.LASF317
 6354 147f 0F       		.byte	0xf
 6355 1480 2F03     		.2byte	0x32f
 6356 1482 88110000 		.4byte	0x1188
 6357 1486 1C       		.uleb128 0x1c
 6358 1487 731D0000 		.4byte	.LASF318
 6359 148b 0F       		.byte	0xf
 6360 148c 3303     		.2byte	0x333
 6361 148e 95110000 		.4byte	0x1195
 6362 1492 1C       		.uleb128 0x1c
 6363 1493 4E0D0000 		.4byte	.LASF319
 6364 1497 0F       		.byte	0xf
 6365 1498 3703     		.2byte	0x337
 6366 149a 8F110000 		.4byte	0x118f
 6367 149e 1C       		.uleb128 0x1c
 6368 149f 710F0000 		.4byte	.LASF320
 6369 14a3 0F       		.byte	0xf
 6370 14a4 3B03     		.2byte	0x33b
 6371 14a6 55140000 		.4byte	0x1455
 6372 14aa 00       		.byte	0
 6373 14ab 0C       		.uleb128 0xc
 6374 14ac 73130000 		.4byte	.LASF321
 6375 14b0 0F       		.byte	0xf
 6376 14b1 3C03     		.2byte	0x33c
 6377 14b3 61140000 		.4byte	0x1461
 6378 14b7 19       		.uleb128 0x19
 6379 14b8 120D0000 		.4byte	.LASF322
 6380 14bc 04       		.byte	0x4
 6381 14bd 0F       		.byte	0xf
 6382 14be 4103     		.2byte	0x341
 6383 14c0 01150000 		.4byte	0x1501
ARM GAS  C:\Users\EBANO_~1\AppData\Local\Temp\ccazSBuk.s 			page 139


 6384 14c4 18       		.uleb128 0x18
 6385 14c5 D7070000 		.4byte	.LASF323
 6386 14c9 0F       		.byte	0xf
 6387 14ca 4603     		.2byte	0x346
 6388 14cc B2130000 		.4byte	0x13b2
 6389 14d0 02       		.byte	0x2
 6390 14d1 23       		.byte	0x23
 6391 14d2 00       		.uleb128 0
 6392 14d3 18       		.uleb128 0x18
 6393 14d4 9E1D0000 		.4byte	.LASF324
 6394 14d8 0F       		.byte	0xf
 6395 14d9 4C03     		.2byte	0x34c
 6396 14db B1000000 		.4byte	0xb1
 6397 14df 02       		.byte	0x2
 6398 14e0 23       		.byte	0x23
 6399 14e1 01       		.uleb128 0x1
 6400 14e2 18       		.uleb128 0x18
 6401 14e3 331A0000 		.4byte	.LASF325
 6402 14e7 0F       		.byte	0xf
 6403 14e8 5303     		.2byte	0x353
 6404 14ea BC000000 		.4byte	0xbc
 6405 14ee 02       		.byte	0x2
 6406 14ef 23       		.byte	0x23
 6407 14f0 02       		.uleb128 0x2
 6408 14f1 18       		.uleb128 0x18
 6409 14f2 46130000 		.4byte	.LASF326
 6410 14f6 0F       		.byte	0xf
 6411 14f7 5A03     		.2byte	0x35a
 6412 14f9 BC000000 		.4byte	0xbc
 6413 14fd 02       		.byte	0x2
 6414 14fe 23       		.byte	0x23
 6415 14ff 03       		.uleb128 0x3
 6416 1500 00       		.byte	0
 6417 1501 0C       		.uleb128 0xc
 6418 1502 6B040000 		.4byte	.LASF327
 6419 1506 0F       		.byte	0xf
 6420 1507 5B03     		.2byte	0x35b
 6421 1509 B7140000 		.4byte	0x14b7
 6422 150d 19       		.uleb128 0x19
 6423 150e 7E130000 		.4byte	.LASF328
 6424 1512 08       		.byte	0x8
 6425 1513 0F       		.byte	0xf
 6426 1514 6003     		.2byte	0x360
 6427 1516 48150000 		.4byte	0x1548
 6428 151a 18       		.uleb128 0x18
 6429 151b 80190000 		.4byte	.LASF329
 6430 151f 0F       		.byte	0xf
 6431 1520 6503     		.2byte	0x365
 6432 1522 BC000000 		.4byte	0xbc
 6433 1526 02       		.byte	0x2
 6434 1527 23       		.byte	0x23
 6435 1528 00       		.uleb128 0
 6436 1529 18       		.uleb128 0x18
 6437 152a 7F110000 		.4byte	.LASF330
 6438 152e 0F       		.byte	0xf
 6439 152f 6903     		.2byte	0x369
 6440 1531 150B0000 		.4byte	0xb15
ARM GAS  C:\Users\EBANO_~1\AppData\Local\Temp\ccazSBuk.s 			page 140


 6441 1535 02       		.byte	0x2
 6442 1536 23       		.byte	0x23
 6443 1537 01       		.uleb128 0x1
 6444 1538 18       		.uleb128 0x18
 6445 1539 CC040000 		.4byte	.LASF152
 6446 153d 0F       		.byte	0xf
 6447 153e 6D03     		.2byte	0x36d
 6448 1540 970A0000 		.4byte	0xa97
 6449 1544 02       		.byte	0x2
 6450 1545 23       		.byte	0x23
 6451 1546 04       		.uleb128 0x4
 6452 1547 00       		.byte	0
 6453 1548 0C       		.uleb128 0xc
 6454 1549 570D0000 		.4byte	.LASF331
 6455 154d 0F       		.byte	0xf
 6456 154e 6E03     		.2byte	0x36e
 6457 1550 0D150000 		.4byte	0x150d
 6458 1554 19       		.uleb128 0x19
 6459 1555 76180000 		.4byte	.LASF332
 6460 1559 08       		.byte	0x8
 6461 155a 0F       		.byte	0xf
 6462 155b 7303     		.2byte	0x373
 6463 155d 80150000 		.4byte	0x1580
 6464 1561 18       		.uleb128 0x18
 6465 1562 2B1F0000 		.4byte	.LASF333
 6466 1566 0F       		.byte	0xf
 6467 1567 7803     		.2byte	0x378
 6468 1569 82010000 		.4byte	0x182
 6469 156d 02       		.byte	0x2
 6470 156e 23       		.byte	0x23
 6471 156f 00       		.uleb128 0
 6472 1570 18       		.uleb128 0x18
 6473 1571 AB0A0000 		.4byte	.LASF334
 6474 1575 0F       		.byte	0xf
 6475 1576 7C03     		.2byte	0x37c
 6476 1578 E3130000 		.4byte	0x13e3
 6477 157c 02       		.byte	0x2
 6478 157d 23       		.byte	0x23
 6479 157e 04       		.uleb128 0x4
 6480 157f 00       		.byte	0
 6481 1580 0C       		.uleb128 0xc
 6482 1581 090C0000 		.4byte	.LASF335
 6483 1585 0F       		.byte	0xf
 6484 1586 7D03     		.2byte	0x37d
 6485 1588 54150000 		.4byte	0x1554
 6486 158c 19       		.uleb128 0x19
 6487 158d 17070000 		.4byte	.LASF336
 6488 1591 04       		.byte	0x4
 6489 1592 0F       		.byte	0xf
 6490 1593 8203     		.2byte	0x382
 6491 1595 A9150000 		.4byte	0x15a9
 6492 1599 18       		.uleb128 0x18
 6493 159a 910A0000 		.4byte	.LASF337
 6494 159e 0F       		.byte	0xf
 6495 159f 8703     		.2byte	0x387
 6496 15a1 70010000 		.4byte	0x170
 6497 15a5 02       		.byte	0x2
ARM GAS  C:\Users\EBANO_~1\AppData\Local\Temp\ccazSBuk.s 			page 141


 6498 15a6 23       		.byte	0x23
 6499 15a7 00       		.uleb128 0
 6500 15a8 00       		.byte	0
 6501 15a9 0C       		.uleb128 0xc
 6502 15aa BF120000 		.4byte	.LASF338
 6503 15ae 0F       		.byte	0xf
 6504 15af 8803     		.2byte	0x388
 6505 15b1 8C150000 		.4byte	0x158c
 6506 15b5 19       		.uleb128 0x19
 6507 15b6 CE050000 		.4byte	.LASF339
 6508 15ba 03       		.byte	0x3
 6509 15bb 0F       		.byte	0xf
 6510 15bc 9B03     		.2byte	0x39b
 6511 15be F0150000 		.4byte	0x15f0
 6512 15c2 18       		.uleb128 0x18
 6513 15c3 9E1D0000 		.4byte	.LASF324
 6514 15c7 0F       		.byte	0xf
 6515 15c8 A003     		.2byte	0x3a0
 6516 15ca B1000000 		.4byte	0xb1
 6517 15ce 02       		.byte	0x2
 6518 15cf 23       		.byte	0x23
 6519 15d0 00       		.uleb128 0
 6520 15d1 18       		.uleb128 0x18
 6521 15d2 46130000 		.4byte	.LASF326
 6522 15d6 0F       		.byte	0xf
 6523 15d7 A403     		.2byte	0x3a4
 6524 15d9 BC000000 		.4byte	0xbc
 6525 15dd 02       		.byte	0x2
 6526 15de 23       		.byte	0x23
 6527 15df 01       		.uleb128 0x1
 6528 15e0 18       		.uleb128 0x18
 6529 15e1 331A0000 		.4byte	.LASF325
 6530 15e5 0F       		.byte	0xf
 6531 15e6 A803     		.2byte	0x3a8
 6532 15e8 BC000000 		.4byte	0xbc
 6533 15ec 02       		.byte	0x2
 6534 15ed 23       		.byte	0x23
 6535 15ee 02       		.uleb128 0x2
 6536 15ef 00       		.byte	0
 6537 15f0 28       		.uleb128 0x28
 6538 15f1 20200000 		.4byte	.LASF340
 6539 15f5 03       		.byte	0x3
 6540 15f6 0F       		.byte	0xf
 6541 15f7 8E03     		.2byte	0x38e
 6542 15f9 22160000 		.4byte	0x1622
 6543 15fd 1C       		.uleb128 0x1c
 6544 15fe A21A0000 		.4byte	.LASF341
 6545 1602 0F       		.byte	0xf
 6546 1603 9303     		.2byte	0x393
 6547 1605 B1000000 		.4byte	0xb1
 6548 1609 1C       		.uleb128 0x1c
 6549 160a FE1A0000 		.4byte	.LASF342
 6550 160e 0F       		.byte	0xf
 6551 160f 9703     		.2byte	0x397
 6552 1611 150B0000 		.4byte	0xb15
 6553 1615 1C       		.uleb128 0x1c
 6554 1616 49020000 		.4byte	.LASF343
ARM GAS  C:\Users\EBANO_~1\AppData\Local\Temp\ccazSBuk.s 			page 142


 6555 161a 0F       		.byte	0xf
 6556 161b A903     		.2byte	0x3a9
 6557 161d B5150000 		.4byte	0x15b5
 6558 1621 00       		.byte	0
 6559 1622 0C       		.uleb128 0xc
 6560 1623 70200000 		.4byte	.LASF344
 6561 1627 0F       		.byte	0xf
 6562 1628 AA03     		.2byte	0x3aa
 6563 162a F0150000 		.4byte	0x15f0
 6564 162e 19       		.uleb128 0x19
 6565 162f F80C0000 		.4byte	.LASF345
 6566 1633 08       		.byte	0x8
 6567 1634 0F       		.byte	0xf
 6568 1635 AF03     		.2byte	0x3af
 6569 1637 5A160000 		.4byte	0x165a
 6570 163b 18       		.uleb128 0x18
 6571 163c C00A0000 		.4byte	.LASF346
 6572 1640 0F       		.byte	0xf
 6573 1641 B403     		.2byte	0x3b4
 6574 1643 840A0000 		.4byte	0xa84
 6575 1647 02       		.byte	0x2
 6576 1648 23       		.byte	0x23
 6577 1649 00       		.uleb128 0
 6578 164a 18       		.uleb128 0x18
 6579 164b 0E100000 		.4byte	.LASF347
 6580 164f 0F       		.byte	0xf
 6581 1650 B803     		.2byte	0x3b8
 6582 1652 BC000000 		.4byte	0xbc
 6583 1656 02       		.byte	0x2
 6584 1657 23       		.byte	0x23
 6585 1658 04       		.uleb128 0x4
 6586 1659 00       		.byte	0
 6587 165a 0C       		.uleb128 0xc
 6588 165b C20C0000 		.4byte	.LASF348
 6589 165f 0F       		.byte	0xf
 6590 1660 B903     		.2byte	0x3b9
 6591 1662 2E160000 		.4byte	0x162e
 6592 1666 19       		.uleb128 0x19
 6593 1667 EB1E0000 		.4byte	.LASF349
 6594 166b 08       		.byte	0x8
 6595 166c 0F       		.byte	0xf
 6596 166d BE03     		.2byte	0x3be
 6597 166f 92160000 		.4byte	0x1692
 6598 1673 18       		.uleb128 0x18
 6599 1674 AE170000 		.4byte	.LASF350
 6600 1678 0F       		.byte	0xf
 6601 1679 C303     		.2byte	0x3c3
 6602 167b 95110000 		.4byte	0x1195
 6603 167f 02       		.byte	0x2
 6604 1680 23       		.byte	0x23
 6605 1681 00       		.uleb128 0
 6606 1682 18       		.uleb128 0x18
 6607 1683 BB190000 		.4byte	.LASF351
 6608 1687 0F       		.byte	0xf
 6609 1688 C703     		.2byte	0x3c7
 6610 168a 0E140000 		.4byte	0x140e
 6611 168e 02       		.byte	0x2
ARM GAS  C:\Users\EBANO_~1\AppData\Local\Temp\ccazSBuk.s 			page 143


 6612 168f 23       		.byte	0x23
 6613 1690 04       		.uleb128 0x4
 6614 1691 00       		.byte	0
 6615 1692 0C       		.uleb128 0xc
 6616 1693 F10E0000 		.4byte	.LASF352
 6617 1697 0F       		.byte	0xf
 6618 1698 C803     		.2byte	0x3c8
 6619 169a 66160000 		.4byte	0x1666
 6620 169e 19       		.uleb128 0x19
 6621 169f EB110000 		.4byte	.LASF353
 6622 16a3 14       		.byte	0x14
 6623 16a4 0F       		.byte	0xf
 6624 16a5 CD03     		.2byte	0x3cd
 6625 16a7 51170000 		.4byte	0x1751
 6626 16ab 18       		.uleb128 0x18
 6627 16ac 80190000 		.4byte	.LASF329
 6628 16b0 0F       		.byte	0xf
 6629 16b1 D203     		.2byte	0x3d2
 6630 16b3 BC000000 		.4byte	0xbc
 6631 16b7 02       		.byte	0x2
 6632 16b8 23       		.byte	0x23
 6633 16b9 00       		.uleb128 0
 6634 16ba 18       		.uleb128 0x18
 6635 16bb 9E1D0000 		.4byte	.LASF324
 6636 16bf 0F       		.byte	0xf
 6637 16c0 D603     		.2byte	0x3d6
 6638 16c2 B1000000 		.4byte	0xb1
 6639 16c6 02       		.byte	0x2
 6640 16c7 23       		.byte	0x23
 6641 16c8 01       		.uleb128 0x1
 6642 16c9 18       		.uleb128 0x18
 6643 16ca F41A0000 		.4byte	.LASF354
 6644 16ce 0F       		.byte	0xf
 6645 16cf DA03     		.2byte	0x3da
 6646 16d1 BC000000 		.4byte	0xbc
 6647 16d5 02       		.byte	0x2
 6648 16d6 23       		.byte	0x23
 6649 16d7 02       		.uleb128 0x2
 6650 16d8 18       		.uleb128 0x18
 6651 16d9 2F020000 		.4byte	.LASF355
 6652 16dd 0F       		.byte	0xf
 6653 16de DE03     		.2byte	0x3de
 6654 16e0 B1000000 		.4byte	0xb1
 6655 16e4 02       		.byte	0x2
 6656 16e5 23       		.byte	0x23
 6657 16e6 03       		.uleb128 0x3
 6658 16e7 18       		.uleb128 0x18
 6659 16e8 CB1C0000 		.4byte	.LASF209
 6660 16ec 0F       		.byte	0xf
 6661 16ed E203     		.2byte	0x3e2
 6662 16ef ED000000 		.4byte	0xed
 6663 16f3 02       		.byte	0x2
 6664 16f4 23       		.byte	0x23
 6665 16f5 04       		.uleb128 0x4
 6666 16f6 18       		.uleb128 0x18
 6667 16f7 F1080000 		.4byte	.LASF356
 6668 16fb 0F       		.byte	0xf
ARM GAS  C:\Users\EBANO_~1\AppData\Local\Temp\ccazSBuk.s 			page 144


 6669 16fc E603     		.2byte	0x3e6
 6670 16fe ED000000 		.4byte	0xed
 6671 1702 02       		.byte	0x2
 6672 1703 23       		.byte	0x23
 6673 1704 08       		.uleb128 0x8
 6674 1705 18       		.uleb128 0x18
 6675 1706 40060000 		.4byte	.LASF357
 6676 170a 0F       		.byte	0xf
 6677 170b EA03     		.2byte	0x3ea
 6678 170d E2000000 		.4byte	0xe2
 6679 1711 02       		.byte	0x2
 6680 1712 23       		.byte	0x23
 6681 1713 0C       		.uleb128 0xc
 6682 1714 18       		.uleb128 0x18
 6683 1715 46130000 		.4byte	.LASF326
 6684 1719 0F       		.byte	0xf
 6685 171a EE03     		.2byte	0x3ee
 6686 171c BC000000 		.4byte	0xbc
 6687 1720 02       		.byte	0x2
 6688 1721 23       		.byte	0x23
 6689 1722 10       		.uleb128 0x10
 6690 1723 18       		.uleb128 0x18
 6691 1724 290C0000 		.4byte	.LASF358
 6692 1728 0F       		.byte	0xf
 6693 1729 F203     		.2byte	0x3f2
 6694 172b 150B0000 		.4byte	0xb15
 6695 172f 02       		.byte	0x2
 6696 1730 23       		.byte	0x23
 6697 1731 11       		.uleb128 0x11
 6698 1732 18       		.uleb128 0x18
 6699 1733 361B0000 		.4byte	.LASF359
 6700 1737 0F       		.byte	0xf
 6701 1738 F603     		.2byte	0x3f6
 6702 173a 150B0000 		.4byte	0xb15
 6703 173e 02       		.byte	0x2
 6704 173f 23       		.byte	0x23
 6705 1740 12       		.uleb128 0x12
 6706 1741 18       		.uleb128 0x18
 6707 1742 5D080000 		.4byte	.LASF360
 6708 1746 0F       		.byte	0xf
 6709 1747 FA03     		.2byte	0x3fa
 6710 1749 7C110000 		.4byte	0x117c
 6711 174d 02       		.byte	0x2
 6712 174e 23       		.byte	0x23
 6713 174f 13       		.uleb128 0x13
 6714 1750 00       		.byte	0
 6715 1751 0C       		.uleb128 0xc
 6716 1752 9A000000 		.4byte	.LASF361
 6717 1756 0F       		.byte	0xf
 6718 1757 FB03     		.2byte	0x3fb
 6719 1759 9E160000 		.4byte	0x169e
 6720 175d 19       		.uleb128 0x19
 6721 175e E4100000 		.4byte	.LASF362
 6722 1762 10       		.byte	0x10
 6723 1763 0F       		.byte	0xf
 6724 1764 0004     		.2byte	0x400
 6725 1766 C5170000 		.4byte	0x17c5
ARM GAS  C:\Users\EBANO_~1\AppData\Local\Temp\ccazSBuk.s 			page 145


 6726 176a 18       		.uleb128 0x18
 6727 176b 80190000 		.4byte	.LASF329
 6728 176f 0F       		.byte	0xf
 6729 1770 0504     		.2byte	0x405
 6730 1772 BC000000 		.4byte	0xbc
 6731 1776 02       		.byte	0x2
 6732 1777 23       		.byte	0x23
 6733 1778 00       		.uleb128 0
 6734 1779 18       		.uleb128 0x18
 6735 177a 9E1D0000 		.4byte	.LASF324
 6736 177e 0F       		.byte	0xf
 6737 177f 0904     		.2byte	0x409
 6738 1781 B1000000 		.4byte	0xb1
 6739 1785 02       		.byte	0x2
 6740 1786 23       		.byte	0x23
 6741 1787 01       		.uleb128 0x1
 6742 1788 18       		.uleb128 0x18
 6743 1789 A21A0000 		.4byte	.LASF341
 6744 178d 0F       		.byte	0xf
 6745 178e 0D04     		.2byte	0x40d
 6746 1790 B1000000 		.4byte	0xb1
 6747 1794 02       		.byte	0x2
 6748 1795 23       		.byte	0x23
 6749 1796 02       		.uleb128 0x2
 6750 1797 18       		.uleb128 0x18
 6751 1798 CA030000 		.4byte	.LASF363
 6752 179c 0F       		.byte	0xf
 6753 179d 1104     		.2byte	0x411
 6754 179f 88110000 		.4byte	0x1188
 6755 17a3 02       		.byte	0x2
 6756 17a4 23       		.byte	0x23
 6757 17a5 04       		.uleb128 0x4
 6758 17a6 18       		.uleb128 0x18
 6759 17a7 93130000 		.4byte	.LASF364
 6760 17ab 0F       		.byte	0xf
 6761 17ac 1504     		.2byte	0x415
 6762 17ae 88110000 		.4byte	0x1188
 6763 17b2 02       		.byte	0x2
 6764 17b3 23       		.byte	0x23
 6765 17b4 08       		.uleb128 0x8
 6766 17b5 18       		.uleb128 0x18
 6767 17b6 9F0F0000 		.4byte	.LASF365
 6768 17ba 0F       		.byte	0xf
 6769 17bb 1904     		.2byte	0x419
 6770 17bd D7000000 		.4byte	0xd7
 6771 17c1 02       		.byte	0x2
 6772 17c2 23       		.byte	0x23
 6773 17c3 0C       		.uleb128 0xc
 6774 17c4 00       		.byte	0
 6775 17c5 0C       		.uleb128 0xc
 6776 17c6 B6200000 		.4byte	.LASF366
 6777 17ca 0F       		.byte	0xf
 6778 17cb 1A04     		.2byte	0x41a
 6779 17cd 5D170000 		.4byte	0x175d
 6780 17d1 19       		.uleb128 0x19
 6781 17d2 DF080000 		.4byte	.LASF367
 6782 17d6 10       		.byte	0x10
ARM GAS  C:\Users\EBANO_~1\AppData\Local\Temp\ccazSBuk.s 			page 146


 6783 17d7 0F       		.byte	0xf
 6784 17d8 1F04     		.2byte	0x41f
 6785 17da 57180000 		.4byte	0x1857
 6786 17de 18       		.uleb128 0x18
 6787 17df 07080000 		.4byte	.LASF368
 6788 17e3 0F       		.byte	0xf
 6789 17e4 2404     		.2byte	0x424
 6790 17e6 0A0B0000 		.4byte	0xb0a
 6791 17ea 02       		.byte	0x2
 6792 17eb 23       		.byte	0x23
 6793 17ec 00       		.uleb128 0
 6794 17ed 18       		.uleb128 0x18
 6795 17ee C00A0000 		.4byte	.LASF346
 6796 17f2 0F       		.byte	0xf
 6797 17f3 2804     		.2byte	0x428
 6798 17f5 840A0000 		.4byte	0xa84
 6799 17f9 02       		.byte	0x2
 6800 17fa 23       		.byte	0x23
 6801 17fb 04       		.uleb128 0x4
 6802 17fc 18       		.uleb128 0x18
 6803 17fd 4B120000 		.4byte	.LASF369
 6804 1801 0F       		.byte	0xf
 6805 1802 2C04     		.2byte	0x42c
 6806 1804 BC000000 		.4byte	0xbc
 6807 1808 02       		.byte	0x2
 6808 1809 23       		.byte	0x23
 6809 180a 08       		.uleb128 0x8
 6810 180b 18       		.uleb128 0x18
 6811 180c 331A0000 		.4byte	.LASF325
 6812 1810 0F       		.byte	0xf
 6813 1811 3004     		.2byte	0x430
 6814 1813 BC000000 		.4byte	0xbc
 6815 1817 02       		.byte	0x2
 6816 1818 23       		.byte	0x23
 6817 1819 09       		.uleb128 0x9
 6818 181a 18       		.uleb128 0x18
 6819 181b A4010000 		.4byte	.LASF370
 6820 181f 0F       		.byte	0xf
 6821 1820 3404     		.2byte	0x434
 6822 1822 150B0000 		.4byte	0xb15
 6823 1826 02       		.byte	0x2
 6824 1827 23       		.byte	0x23
 6825 1828 0A       		.uleb128 0xa
 6826 1829 18       		.uleb128 0x18
 6827 182a B00A0000 		.4byte	.LASF371
 6828 182e 0F       		.byte	0xf
 6829 182f 3804     		.2byte	0x438
 6830 1831 B1000000 		.4byte	0xb1
 6831 1835 02       		.byte	0x2
 6832 1836 23       		.byte	0x23
 6833 1837 0B       		.uleb128 0xb
 6834 1838 18       		.uleb128 0x18
 6835 1839 95140000 		.4byte	.LASF372
 6836 183d 0F       		.byte	0xf
 6837 183e 3C04     		.2byte	0x43c
 6838 1840 B1000000 		.4byte	0xb1
 6839 1844 02       		.byte	0x2
ARM GAS  C:\Users\EBANO_~1\AppData\Local\Temp\ccazSBuk.s 			page 147


 6840 1845 23       		.byte	0x23
 6841 1846 0C       		.uleb128 0xc
 6842 1847 18       		.uleb128 0x18
 6843 1848 3D1E0000 		.4byte	.LASF373
 6844 184c 0F       		.byte	0xf
 6845 184d 4004     		.2byte	0x440
 6846 184f BC000000 		.4byte	0xbc
 6847 1853 02       		.byte	0x2
 6848 1854 23       		.byte	0x23
 6849 1855 0D       		.uleb128 0xd
 6850 1856 00       		.byte	0
 6851 1857 0C       		.uleb128 0xc
 6852 1858 B61F0000 		.4byte	.LASF374
 6853 185c 0F       		.byte	0xf
 6854 185d 4104     		.2byte	0x441
 6855 185f D1170000 		.4byte	0x17d1
 6856 1863 19       		.uleb128 0x19
 6857 1864 F8020000 		.4byte	.LASF375
 6858 1868 08       		.byte	0x8
 6859 1869 0F       		.byte	0xf
 6860 186a 4604     		.2byte	0x446
 6861 186c 9E180000 		.4byte	0x189e
 6862 1870 18       		.uleb128 0x18
 6863 1871 9E1D0000 		.4byte	.LASF324
 6864 1875 0F       		.byte	0xf
 6865 1876 4B04     		.2byte	0x44b
 6866 1878 B1000000 		.4byte	0xb1
 6867 187c 02       		.byte	0x2
 6868 187d 23       		.byte	0x23
 6869 187e 00       		.uleb128 0
 6870 187f 18       		.uleb128 0x18
 6871 1880 2F020000 		.4byte	.LASF355
 6872 1884 0F       		.byte	0xf
 6873 1885 4F04     		.2byte	0x44f
 6874 1887 B1000000 		.4byte	0xb1
 6875 188b 02       		.byte	0x2
 6876 188c 23       		.byte	0x23
 6877 188d 01       		.uleb128 0x1
 6878 188e 18       		.uleb128 0x18
 6879 188f CB1C0000 		.4byte	.LASF209
 6880 1893 0F       		.byte	0xf
 6881 1894 5304     		.2byte	0x453
 6882 1896 ED000000 		.4byte	0xed
 6883 189a 02       		.byte	0x2
 6884 189b 23       		.byte	0x23
 6885 189c 04       		.uleb128 0x4
 6886 189d 00       		.byte	0
 6887 189e 0C       		.uleb128 0xc
 6888 189f 56030000 		.4byte	.LASF376
 6889 18a3 0F       		.byte	0xf
 6890 18a4 5404     		.2byte	0x454
 6891 18a6 63180000 		.4byte	0x1863
 6892 18aa 19       		.uleb128 0x19
 6893 18ab C5090000 		.4byte	.LASF377
 6894 18af 08       		.byte	0x8
 6895 18b0 0F       		.byte	0xf
 6896 18b1 5904     		.2byte	0x459
ARM GAS  C:\Users\EBANO_~1\AppData\Local\Temp\ccazSBuk.s 			page 148


 6897 18b3 D6180000 		.4byte	0x18d6
 6898 18b7 18       		.uleb128 0x18
 6899 18b8 211D0000 		.4byte	.LASF378
 6900 18bc 0F       		.byte	0xf
 6901 18bd 5E04     		.2byte	0x45e
 6902 18bf 8F110000 		.4byte	0x118f
 6903 18c3 02       		.byte	0x2
 6904 18c4 23       		.byte	0x23
 6905 18c5 00       		.uleb128 0
 6906 18c6 18       		.uleb128 0x18
 6907 18c7 EE020000 		.4byte	.LASF379
 6908 18cb 0F       		.byte	0xf
 6909 18cc 6204     		.2byte	0x462
 6910 18ce B1000000 		.4byte	0xb1
 6911 18d2 02       		.byte	0x2
 6912 18d3 23       		.byte	0x23
 6913 18d4 04       		.uleb128 0x4
 6914 18d5 00       		.byte	0
 6915 18d6 0C       		.uleb128 0xc
 6916 18d7 560A0000 		.4byte	.LASF380
 6917 18db 0F       		.byte	0xf
 6918 18dc 6304     		.2byte	0x463
 6919 18de AA180000 		.4byte	0x18aa
 6920 18e2 19       		.uleb128 0x19
 6921 18e3 A8120000 		.4byte	.LASF381
 6922 18e7 03       		.byte	0x3
 6923 18e8 0F       		.byte	0xf
 6924 18e9 6804     		.2byte	0x468
 6925 18eb 1D190000 		.4byte	0x191d
 6926 18ef 18       		.uleb128 0x18
 6927 18f0 331A0000 		.4byte	.LASF325
 6928 18f4 0F       		.byte	0xf
 6929 18f5 6D04     		.2byte	0x46d
 6930 18f7 BC000000 		.4byte	0xbc
 6931 18fb 02       		.byte	0x2
 6932 18fc 23       		.byte	0x23
 6933 18fd 00       		.uleb128 0
 6934 18fe 18       		.uleb128 0x18
 6935 18ff 46130000 		.4byte	.LASF326
 6936 1903 0F       		.byte	0xf
 6937 1904 7104     		.2byte	0x471
 6938 1906 BC000000 		.4byte	0xbc
 6939 190a 02       		.byte	0x2
 6940 190b 23       		.byte	0x23
 6941 190c 01       		.uleb128 0x1
 6942 190d 18       		.uleb128 0x18
 6943 190e CA030000 		.4byte	.LASF363
 6944 1912 0F       		.byte	0xf
 6945 1913 7504     		.2byte	0x475
 6946 1915 BC000000 		.4byte	0xbc
 6947 1919 02       		.byte	0x2
 6948 191a 23       		.byte	0x23
 6949 191b 02       		.uleb128 0x2
 6950 191c 00       		.byte	0
 6951 191d 0C       		.uleb128 0xc
 6952 191e BB150000 		.4byte	.LASF382
 6953 1922 0F       		.byte	0xf
ARM GAS  C:\Users\EBANO_~1\AppData\Local\Temp\ccazSBuk.s 			page 149


 6954 1923 7604     		.2byte	0x476
 6955 1925 E2180000 		.4byte	0x18e2
 6956 1929 19       		.uleb128 0x19
 6957 192a A21F0000 		.4byte	.LASF383
 6958 192e 08       		.byte	0x8
 6959 192f 0F       		.byte	0xf
 6960 1930 7B04     		.2byte	0x47b
 6961 1932 55190000 		.4byte	0x1955
 6962 1936 18       		.uleb128 0x18
 6963 1937 EE020000 		.4byte	.LASF379
 6964 193b 0F       		.byte	0xf
 6965 193c 8004     		.2byte	0x480
 6966 193e BC000000 		.4byte	0xbc
 6967 1942 02       		.byte	0x2
 6968 1943 23       		.byte	0x23
 6969 1944 00       		.uleb128 0
 6970 1945 18       		.uleb128 0x18
 6971 1946 5D120000 		.4byte	.LASF210
 6972 194a 0F       		.byte	0xf
 6973 194b 8404     		.2byte	0x484
 6974 194d ED000000 		.4byte	0xed
 6975 1951 02       		.byte	0x2
 6976 1952 23       		.byte	0x23
 6977 1953 04       		.uleb128 0x4
 6978 1954 00       		.byte	0
 6979 1955 0C       		.uleb128 0xc
 6980 1956 D8120000 		.4byte	.LASF384
 6981 195a 0F       		.byte	0xf
 6982 195b 8504     		.2byte	0x485
 6983 195d 29190000 		.4byte	0x1929
 6984 1961 26       		.uleb128 0x26
 6985 1962 16080000 		.4byte	.LASF385
 6986 1966 07       		.byte	0x7
 6987 1967 01       		.byte	0x1
 6988 1968 46000000 		.4byte	0x46
 6989 196c 0F       		.byte	0xf
 6990 196d 8A04     		.2byte	0x48a
 6991 196f 80190000 		.4byte	0x1980
 6992 1973 21       		.uleb128 0x21
 6993 1974 60170000 		.4byte	.LASF386
 6994 1978 00       		.byte	0
 6995 1979 21       		.uleb128 0x21
 6996 197a 5C0F0000 		.4byte	.LASF387
 6997 197e 01       		.byte	0x1
 6998 197f 00       		.byte	0
 6999 1980 0C       		.uleb128 0xc
 7000 1981 A21B0000 		.4byte	.LASF388
 7001 1985 0F       		.byte	0xf
 7002 1986 9404     		.2byte	0x494
 7003 1988 61190000 		.4byte	0x1961
 7004 198c 19       		.uleb128 0x19
 7005 198d 94060000 		.4byte	.LASF389
 7006 1991 0C       		.byte	0xc
 7007 1992 0F       		.byte	0xf
 7008 1993 9904     		.2byte	0x499
 7009 1995 F4190000 		.4byte	0x19f4
 7010 1999 18       		.uleb128 0x18
ARM GAS  C:\Users\EBANO_~1\AppData\Local\Temp\ccazSBuk.s 			page 150


 7011 199a 7F110000 		.4byte	.LASF330
 7012 199e 0F       		.byte	0xf
 7013 199f 9E04     		.2byte	0x49e
 7014 19a1 150B0000 		.4byte	0xb15
 7015 19a5 02       		.byte	0x2
 7016 19a6 23       		.byte	0x23
 7017 19a7 00       		.uleb128 0
 7018 19a8 18       		.uleb128 0x18
 7019 19a9 7F210000 		.4byte	.LASF390
 7020 19ad 0F       		.byte	0xf
 7021 19ae A204     		.2byte	0x4a2
 7022 19b0 150B0000 		.4byte	0xb15
 7023 19b4 02       		.byte	0x2
 7024 19b5 23       		.byte	0x23
 7025 19b6 01       		.uleb128 0x1
 7026 19b7 18       		.uleb128 0x18
 7027 19b8 E9130000 		.4byte	.LASF391
 7028 19bc 0F       		.byte	0xf
 7029 19bd A604     		.2byte	0x4a6
 7030 19bf 150B0000 		.4byte	0xb15
 7031 19c3 02       		.byte	0x2
 7032 19c4 23       		.byte	0x23
 7033 19c5 02       		.uleb128 0x2
 7034 19c6 18       		.uleb128 0x18
 7035 19c7 80190000 		.4byte	.LASF329
 7036 19cb 0F       		.byte	0xf
 7037 19cc AA04     		.2byte	0x4aa
 7038 19ce BC000000 		.4byte	0xbc
 7039 19d2 02       		.byte	0x2
 7040 19d3 23       		.byte	0x23
 7041 19d4 03       		.uleb128 0x3
 7042 19d5 18       		.uleb128 0x18
 7043 19d6 110E0000 		.4byte	.LASF392
 7044 19da 0F       		.byte	0xf
 7045 19db AE04     		.2byte	0x4ae
 7046 19dd 970A0000 		.4byte	0xa97
 7047 19e1 02       		.byte	0x2
 7048 19e2 23       		.byte	0x23
 7049 19e3 04       		.uleb128 0x4
 7050 19e4 18       		.uleb128 0x18
 7051 19e5 C3010000 		.4byte	.LASF393
 7052 19e9 0F       		.byte	0xf
 7053 19ea B204     		.2byte	0x4b2
 7054 19ec 970A0000 		.4byte	0xa97
 7055 19f0 02       		.byte	0x2
 7056 19f1 23       		.byte	0x23
 7057 19f2 08       		.uleb128 0x8
 7058 19f3 00       		.byte	0
 7059 19f4 0C       		.uleb128 0xc
 7060 19f5 B5160000 		.4byte	.LASF394
 7061 19f9 0F       		.byte	0xf
 7062 19fa B304     		.2byte	0x4b3
 7063 19fc 8C190000 		.4byte	0x198c
 7064 1a00 19       		.uleb128 0x19
 7065 1a01 7E1F0000 		.4byte	.LASF395
 7066 1a05 0C       		.byte	0xc
 7067 1a06 0F       		.byte	0xf
ARM GAS  C:\Users\EBANO_~1\AppData\Local\Temp\ccazSBuk.s 			page 151


 7068 1a07 B804     		.2byte	0x4b8
 7069 1a09 591A0000 		.4byte	0x1a59
 7070 1a0d 18       		.uleb128 0x18
 7071 1a0e 7E020000 		.4byte	.LASF396
 7072 1a12 0F       		.byte	0xf
 7073 1a13 BD04     		.2byte	0x4bd
 7074 1a15 970A0000 		.4byte	0xa97
 7075 1a19 02       		.byte	0x2
 7076 1a1a 23       		.byte	0x23
 7077 1a1b 00       		.uleb128 0
 7078 1a1c 18       		.uleb128 0x18
 7079 1a1d E9010000 		.4byte	.LASF397
 7080 1a21 0F       		.byte	0xf
 7081 1a22 C104     		.2byte	0x4c1
 7082 1a24 970A0000 		.4byte	0xa97
 7083 1a28 02       		.byte	0x2
 7084 1a29 23       		.byte	0x23
 7085 1a2a 04       		.uleb128 0x4
 7086 1a2b 18       		.uleb128 0x18
 7087 1a2c 9E1D0000 		.4byte	.LASF324
 7088 1a30 0F       		.byte	0xf
 7089 1a31 C504     		.2byte	0x4c5
 7090 1a33 B1000000 		.4byte	0xb1
 7091 1a37 02       		.byte	0x2
 7092 1a38 23       		.byte	0x23
 7093 1a39 08       		.uleb128 0x8
 7094 1a3a 18       		.uleb128 0x18
 7095 1a3b 7F110000 		.4byte	.LASF330
 7096 1a3f 0F       		.byte	0xf
 7097 1a40 C904     		.2byte	0x4c9
 7098 1a42 150B0000 		.4byte	0xb15
 7099 1a46 02       		.byte	0x2
 7100 1a47 23       		.byte	0x23
 7101 1a48 09       		.uleb128 0x9
 7102 1a49 18       		.uleb128 0x18
 7103 1a4a E9130000 		.4byte	.LASF391
 7104 1a4e 0F       		.byte	0xf
 7105 1a4f CD04     		.2byte	0x4cd
 7106 1a51 150B0000 		.4byte	0xb15
 7107 1a55 02       		.byte	0x2
 7108 1a56 23       		.byte	0x23
 7109 1a57 0A       		.uleb128 0xa
 7110 1a58 00       		.byte	0
 7111 1a59 0C       		.uleb128 0xc
 7112 1a5a F4010000 		.4byte	.LASF398
 7113 1a5e 0F       		.byte	0xf
 7114 1a5f CE04     		.2byte	0x4ce
 7115 1a61 001A0000 		.4byte	0x1a00
 7116 1a65 19       		.uleb128 0x19
 7117 1a66 21050000 		.4byte	.LASF399
 7118 1a6a 08       		.byte	0x8
 7119 1a6b 0F       		.byte	0xf
 7120 1a6c D304     		.2byte	0x4d3
 7121 1a6e 911A0000 		.4byte	0x1a91
 7122 1a72 18       		.uleb128 0x18
 7123 1a73 211D0000 		.4byte	.LASF378
 7124 1a77 0F       		.byte	0xf
ARM GAS  C:\Users\EBANO_~1\AppData\Local\Temp\ccazSBuk.s 			page 152


 7125 1a78 D804     		.2byte	0x4d8
 7126 1a7a 8F110000 		.4byte	0x118f
 7127 1a7e 02       		.byte	0x2
 7128 1a7f 23       		.byte	0x23
 7129 1a80 00       		.uleb128 0
 7130 1a81 18       		.uleb128 0x18
 7131 1a82 EE020000 		.4byte	.LASF379
 7132 1a86 0F       		.byte	0xf
 7133 1a87 DC04     		.2byte	0x4dc
 7134 1a89 BC000000 		.4byte	0xbc
 7135 1a8d 02       		.byte	0x2
 7136 1a8e 23       		.byte	0x23
 7137 1a8f 04       		.uleb128 0x4
 7138 1a90 00       		.byte	0
 7139 1a91 0C       		.uleb128 0xc
 7140 1a92 FA120000 		.4byte	.LASF400
 7141 1a96 0F       		.byte	0xf
 7142 1a97 DD04     		.2byte	0x4dd
 7143 1a99 651A0000 		.4byte	0x1a65
 7144 1a9d 19       		.uleb128 0x19
 7145 1a9e 651C0000 		.4byte	.LASF401
 7146 1aa2 01       		.byte	0x1
 7147 1aa3 0F       		.byte	0xf
 7148 1aa4 E204     		.2byte	0x4e2
 7149 1aa6 BA1A0000 		.4byte	0x1aba
 7150 1aaa 18       		.uleb128 0x18
 7151 1aab EE020000 		.4byte	.LASF379
 7152 1aaf 0F       		.byte	0xf
 7153 1ab0 E704     		.2byte	0x4e7
 7154 1ab2 BC000000 		.4byte	0xbc
 7155 1ab6 02       		.byte	0x2
 7156 1ab7 23       		.byte	0x23
 7157 1ab8 00       		.uleb128 0
 7158 1ab9 00       		.byte	0
 7159 1aba 0C       		.uleb128 0xc
 7160 1abb 91080000 		.4byte	.LASF402
 7161 1abf 0F       		.byte	0xf
 7162 1ac0 E804     		.2byte	0x4e8
 7163 1ac2 9D1A0000 		.4byte	0x1a9d
 7164 1ac6 19       		.uleb128 0x19
 7165 1ac7 7A1C0000 		.4byte	.LASF403
 7166 1acb 10       		.byte	0x10
 7167 1acc 0F       		.byte	0xf
 7168 1acd ED04     		.2byte	0x4ed
 7169 1acf 2E1B0000 		.4byte	0x1b2e
 7170 1ad3 18       		.uleb128 0x18
 7171 1ad4 80190000 		.4byte	.LASF329
 7172 1ad8 0F       		.byte	0xf
 7173 1ad9 F204     		.2byte	0x4f2
 7174 1adb BC000000 		.4byte	0xbc
 7175 1adf 02       		.byte	0x2
 7176 1ae0 23       		.byte	0x23
 7177 1ae1 00       		.uleb128 0
 7178 1ae2 18       		.uleb128 0x18
 7179 1ae3 9E1D0000 		.4byte	.LASF324
 7180 1ae7 0F       		.byte	0xf
 7181 1ae8 F604     		.2byte	0x4f6
ARM GAS  C:\Users\EBANO_~1\AppData\Local\Temp\ccazSBuk.s 			page 153


 7182 1aea B1000000 		.4byte	0xb1
 7183 1aee 02       		.byte	0x2
 7184 1aef 23       		.byte	0x23
 7185 1af0 01       		.uleb128 0x1
 7186 1af1 18       		.uleb128 0x18
 7187 1af2 A21A0000 		.4byte	.LASF341
 7188 1af6 0F       		.byte	0xf
 7189 1af7 FA04     		.2byte	0x4fa
 7190 1af9 B1000000 		.4byte	0xb1
 7191 1afd 02       		.byte	0x2
 7192 1afe 23       		.byte	0x23
 7193 1aff 02       		.uleb128 0x2
 7194 1b00 18       		.uleb128 0x18
 7195 1b01 CA030000 		.4byte	.LASF363
 7196 1b05 0F       		.byte	0xf
 7197 1b06 FE04     		.2byte	0x4fe
 7198 1b08 88110000 		.4byte	0x1188
 7199 1b0c 02       		.byte	0x2
 7200 1b0d 23       		.byte	0x23
 7201 1b0e 04       		.uleb128 0x4
 7202 1b0f 18       		.uleb128 0x18
 7203 1b10 93130000 		.4byte	.LASF364
 7204 1b14 0F       		.byte	0xf
 7205 1b15 0205     		.2byte	0x502
 7206 1b17 88110000 		.4byte	0x1188
 7207 1b1b 02       		.byte	0x2
 7208 1b1c 23       		.byte	0x23
 7209 1b1d 08       		.uleb128 0x8
 7210 1b1e 18       		.uleb128 0x18
 7211 1b1f A30A0000 		.4byte	.LASF404
 7212 1b23 0F       		.byte	0xf
 7213 1b24 0605     		.2byte	0x506
 7214 1b26 D7000000 		.4byte	0xd7
 7215 1b2a 02       		.byte	0x2
 7216 1b2b 23       		.byte	0x23
 7217 1b2c 0C       		.uleb128 0xc
 7218 1b2d 00       		.byte	0
 7219 1b2e 0C       		.uleb128 0xc
 7220 1b2f 33150000 		.4byte	.LASF405
 7221 1b33 0F       		.byte	0xf
 7222 1b34 0705     		.2byte	0x507
 7223 1b36 C61A0000 		.4byte	0x1ac6
 7224 1b3a 19       		.uleb128 0x19
 7225 1b3b 12060000 		.4byte	.LASF406
 7226 1b3f 0C       		.byte	0xc
 7227 1b40 0F       		.byte	0xf
 7228 1b41 0C05     		.2byte	0x50c
 7229 1b43 751B0000 		.4byte	0x1b75
 7230 1b47 18       		.uleb128 0x18
 7231 1b48 FA1C0000 		.4byte	.LASF407
 7232 1b4c 0F       		.byte	0xf
 7233 1b4d 1105     		.2byte	0x511
 7234 1b4f D7000000 		.4byte	0xd7
 7235 1b53 02       		.byte	0x2
 7236 1b54 23       		.byte	0x23
 7237 1b55 00       		.uleb128 0
 7238 1b56 18       		.uleb128 0x18
ARM GAS  C:\Users\EBANO_~1\AppData\Local\Temp\ccazSBuk.s 			page 154


 7239 1b57 BC0E0000 		.4byte	.LASF408
 7240 1b5b 0F       		.byte	0xf
 7241 1b5c 1505     		.2byte	0x515
 7242 1b5e ED000000 		.4byte	0xed
 7243 1b62 02       		.byte	0x2
 7244 1b63 23       		.byte	0x23
 7245 1b64 04       		.uleb128 0x4
 7246 1b65 18       		.uleb128 0x18
 7247 1b66 CB1C0000 		.4byte	.LASF209
 7248 1b6a 0F       		.byte	0xf
 7249 1b6b 1905     		.2byte	0x519
 7250 1b6d ED000000 		.4byte	0xed
 7251 1b71 02       		.byte	0x2
 7252 1b72 23       		.byte	0x23
 7253 1b73 08       		.uleb128 0x8
 7254 1b74 00       		.byte	0
 7255 1b75 0C       		.uleb128 0xc
 7256 1b76 321F0000 		.4byte	.LASF409
 7257 1b7a 0F       		.byte	0xf
 7258 1b7b 1A05     		.2byte	0x51a
 7259 1b7d 3A1B0000 		.4byte	0x1b3a
 7260 1b81 11       		.uleb128 0x11
 7261 1b82 1B1B0000 		.4byte	.LASF410
 7262 1b86 06       		.byte	0x6
 7263 1b87 10       		.byte	0x10
 7264 1b88 2B       		.byte	0x2b
 7265 1b89 D41B0000 		.4byte	0x1bd4
 7266 1b8d 10       		.uleb128 0x10
 7267 1b8e 88040000 		.4byte	.LASF411
 7268 1b92 10       		.byte	0x10
 7269 1b93 30       		.byte	0x30
 7270 1b94 BC000000 		.4byte	0xbc
 7271 1b98 02       		.byte	0x2
 7272 1b99 23       		.byte	0x23
 7273 1b9a 00       		.uleb128 0
 7274 1b9b 10       		.uleb128 0x10
 7275 1b9c 9E1D0000 		.4byte	.LASF324
 7276 1ba0 10       		.byte	0x10
 7277 1ba1 34       		.byte	0x34
 7278 1ba2 B1000000 		.4byte	0xb1
 7279 1ba6 02       		.byte	0x2
 7280 1ba7 23       		.byte	0x23
 7281 1ba8 01       		.uleb128 0x1
 7282 1ba9 10       		.uleb128 0x10
 7283 1baa A21A0000 		.4byte	.LASF341
 7284 1bae 10       		.byte	0x10
 7285 1baf 38       		.byte	0x38
 7286 1bb0 B1000000 		.4byte	0xb1
 7287 1bb4 02       		.byte	0x2
 7288 1bb5 23       		.byte	0x23
 7289 1bb6 02       		.uleb128 0x2
 7290 1bb7 10       		.uleb128 0x10
 7291 1bb8 27080000 		.4byte	.LASF412
 7292 1bbc 10       		.byte	0x10
 7293 1bbd 3C       		.byte	0x3c
 7294 1bbe BC000000 		.4byte	0xbc
 7295 1bc2 02       		.byte	0x2
ARM GAS  C:\Users\EBANO_~1\AppData\Local\Temp\ccazSBuk.s 			page 155


 7296 1bc3 23       		.byte	0x23
 7297 1bc4 03       		.uleb128 0x3
 7298 1bc5 10       		.uleb128 0x10
 7299 1bc6 9B0D0000 		.4byte	.LASF413
 7300 1bca 10       		.byte	0x10
 7301 1bcb 40       		.byte	0x40
 7302 1bcc D7000000 		.4byte	0xd7
 7303 1bd0 02       		.byte	0x2
 7304 1bd1 23       		.byte	0x23
 7305 1bd2 04       		.uleb128 0x4
 7306 1bd3 00       		.byte	0
 7307 1bd4 03       		.uleb128 0x3
 7308 1bd5 ED0B0000 		.4byte	.LASF414
 7309 1bd9 10       		.byte	0x10
 7310 1bda 41       		.byte	0x41
 7311 1bdb 811B0000 		.4byte	0x1b81
 7312 1bdf 11       		.uleb128 0x11
 7313 1be0 14000000 		.4byte	.LASF415
 7314 1be4 20       		.byte	0x20
 7315 1be5 10       		.byte	0x10
 7316 1be6 43       		.byte	0x43
 7317 1be7 CC1C0000 		.4byte	0x1ccc
 7318 1beb 10       		.uleb128 0x10
 7319 1bec 07080000 		.4byte	.LASF368
 7320 1bf0 10       		.byte	0x10
 7321 1bf1 48       		.byte	0x48
 7322 1bf2 0A0B0000 		.4byte	0xb0a
 7323 1bf6 02       		.byte	0x2
 7324 1bf7 23       		.byte	0x23
 7325 1bf8 00       		.uleb128 0
 7326 1bf9 10       		.uleb128 0x10
 7327 1bfa 0B150000 		.4byte	.LASF416
 7328 1bfe 10       		.byte	0x10
 7329 1bff 4C       		.byte	0x4c
 7330 1c00 BC000000 		.4byte	0xbc
 7331 1c04 02       		.byte	0x2
 7332 1c05 23       		.byte	0x23
 7333 1c06 04       		.uleb128 0x4
 7334 1c07 10       		.uleb128 0x10
 7335 1c08 A4010000 		.4byte	.LASF370
 7336 1c0c 10       		.byte	0x10
 7337 1c0d 50       		.byte	0x50
 7338 1c0e 150B0000 		.4byte	0xb15
 7339 1c12 02       		.byte	0x2
 7340 1c13 23       		.byte	0x23
 7341 1c14 05       		.uleb128 0x5
 7342 1c15 10       		.uleb128 0x10
 7343 1c16 9E1D0000 		.4byte	.LASF324
 7344 1c1a 10       		.byte	0x10
 7345 1c1b 54       		.byte	0x54
 7346 1c1c B1000000 		.4byte	0xb1
 7347 1c20 02       		.byte	0x2
 7348 1c21 23       		.byte	0x23
 7349 1c22 06       		.uleb128 0x6
 7350 1c23 10       		.uleb128 0x10
 7351 1c24 A21A0000 		.4byte	.LASF341
 7352 1c28 10       		.byte	0x10
ARM GAS  C:\Users\EBANO_~1\AppData\Local\Temp\ccazSBuk.s 			page 156


 7353 1c29 58       		.byte	0x58
 7354 1c2a B1000000 		.4byte	0xb1
 7355 1c2e 02       		.byte	0x2
 7356 1c2f 23       		.byte	0x23
 7357 1c30 07       		.uleb128 0x7
 7358 1c31 10       		.uleb128 0x10
 7359 1c32 88040000 		.4byte	.LASF411
 7360 1c36 10       		.byte	0x10
 7361 1c37 5C       		.byte	0x5c
 7362 1c38 BC000000 		.4byte	0xbc
 7363 1c3c 02       		.byte	0x2
 7364 1c3d 23       		.byte	0x23
 7365 1c3e 08       		.uleb128 0x8
 7366 1c3f 10       		.uleb128 0x10
 7367 1c40 B00A0000 		.4byte	.LASF371
 7368 1c44 10       		.byte	0x10
 7369 1c45 60       		.byte	0x60
 7370 1c46 B1000000 		.4byte	0xb1
 7371 1c4a 02       		.byte	0x2
 7372 1c4b 23       		.byte	0x23
 7373 1c4c 09       		.uleb128 0x9
 7374 1c4d 10       		.uleb128 0x10
 7375 1c4e 95140000 		.4byte	.LASF372
 7376 1c52 10       		.byte	0x10
 7377 1c53 64       		.byte	0x64
 7378 1c54 B1000000 		.4byte	0xb1
 7379 1c58 02       		.byte	0x2
 7380 1c59 23       		.byte	0x23
 7381 1c5a 0A       		.uleb128 0xa
 7382 1c5b 10       		.uleb128 0x10
 7383 1c5c 3D1E0000 		.4byte	.LASF373
 7384 1c60 10       		.byte	0x10
 7385 1c61 68       		.byte	0x68
 7386 1c62 B1000000 		.4byte	0xb1
 7387 1c66 02       		.byte	0x2
 7388 1c67 23       		.byte	0x23
 7389 1c68 0B       		.uleb128 0xb
 7390 1c69 10       		.uleb128 0x10
 7391 1c6a 1E0C0000 		.4byte	.LASF417
 7392 1c6e 10       		.byte	0x10
 7393 1c6f 6C       		.byte	0x6c
 7394 1c70 BC000000 		.4byte	0xbc
 7395 1c74 02       		.byte	0x2
 7396 1c75 23       		.byte	0x23
 7397 1c76 0C       		.uleb128 0xc
 7398 1c77 10       		.uleb128 0x10
 7399 1c78 731D0000 		.4byte	.LASF318
 7400 1c7c 10       		.byte	0x10
 7401 1c7d 70       		.byte	0x70
 7402 1c7e 95110000 		.4byte	0x1195
 7403 1c82 02       		.byte	0x2
 7404 1c83 23       		.byte	0x23
 7405 1c84 10       		.uleb128 0x10
 7406 1c85 10       		.uleb128 0x10
 7407 1c86 FE030000 		.4byte	.LASF418
 7408 1c8a 10       		.byte	0x10
 7409 1c8b 74       		.byte	0x74
ARM GAS  C:\Users\EBANO_~1\AppData\Local\Temp\ccazSBuk.s 			page 157


 7410 1c8c B1000000 		.4byte	0xb1
 7411 1c90 02       		.byte	0x2
 7412 1c91 23       		.byte	0x23
 7413 1c92 14       		.uleb128 0x14
 7414 1c93 10       		.uleb128 0x10
 7415 1c94 85080000 		.4byte	.LASF419
 7416 1c98 10       		.byte	0x10
 7417 1c99 78       		.byte	0x78
 7418 1c9a B1000000 		.4byte	0xb1
 7419 1c9e 02       		.byte	0x2
 7420 1c9f 23       		.byte	0x23
 7421 1ca0 15       		.uleb128 0x15
 7422 1ca1 10       		.uleb128 0x10
 7423 1ca2 4E0D0000 		.4byte	.LASF319
 7424 1ca6 10       		.byte	0x10
 7425 1ca7 7C       		.byte	0x7c
 7426 1ca8 8F110000 		.4byte	0x118f
 7427 1cac 02       		.byte	0x2
 7428 1cad 23       		.byte	0x23
 7429 1cae 18       		.uleb128 0x18
 7430 1caf 10       		.uleb128 0x10
 7431 1cb0 5E020000 		.4byte	.LASF420
 7432 1cb4 10       		.byte	0x10
 7433 1cb5 80       		.byte	0x80
 7434 1cb6 B1000000 		.4byte	0xb1
 7435 1cba 02       		.byte	0x2
 7436 1cbb 23       		.byte	0x23
 7437 1cbc 1C       		.uleb128 0x1c
 7438 1cbd 10       		.uleb128 0x10
 7439 1cbe C1040000 		.4byte	.LASF421
 7440 1cc2 10       		.byte	0x10
 7441 1cc3 84       		.byte	0x84
 7442 1cc4 B1000000 		.4byte	0xb1
 7443 1cc8 02       		.byte	0x2
 7444 1cc9 23       		.byte	0x23
 7445 1cca 1D       		.uleb128 0x1d
 7446 1ccb 00       		.byte	0
 7447 1ccc 03       		.uleb128 0x3
 7448 1ccd 70140000 		.4byte	.LASF422
 7449 1cd1 10       		.byte	0x10
 7450 1cd2 85       		.byte	0x85
 7451 1cd3 DF1B0000 		.4byte	0x1bdf
 7452 1cd7 11       		.uleb128 0x11
 7453 1cd8 8A180000 		.4byte	.LASF423
 7454 1cdc 14       		.byte	0x14
 7455 1cdd 10       		.byte	0x10
 7456 1cde 87       		.byte	0x87
 7457 1cdf 541D0000 		.4byte	0x1d54
 7458 1ce3 10       		.uleb128 0x10
 7459 1ce4 4E0D0000 		.4byte	.LASF319
 7460 1ce8 10       		.byte	0x10
 7461 1ce9 8C       		.byte	0x8c
 7462 1cea 8F110000 		.4byte	0x118f
 7463 1cee 02       		.byte	0x2
 7464 1cef 23       		.byte	0x23
 7465 1cf0 00       		.uleb128 0
 7466 1cf1 10       		.uleb128 0x10
ARM GAS  C:\Users\EBANO_~1\AppData\Local\Temp\ccazSBuk.s 			page 158


 7467 1cf2 A4140000 		.4byte	.LASF424
 7468 1cf6 10       		.byte	0x10
 7469 1cf7 90       		.byte	0x90
 7470 1cf8 541D0000 		.4byte	0x1d54
 7471 1cfc 02       		.byte	0x2
 7472 1cfd 23       		.byte	0x23
 7473 1cfe 04       		.uleb128 0x4
 7474 1cff 10       		.uleb128 0x10
 7475 1d00 7F210000 		.4byte	.LASF390
 7476 1d04 10       		.byte	0x10
 7477 1d05 94       		.byte	0x94
 7478 1d06 150B0000 		.4byte	0xb15
 7479 1d0a 02       		.byte	0x2
 7480 1d0b 23       		.byte	0x23
 7481 1d0c 08       		.uleb128 0x8
 7482 1d0d 10       		.uleb128 0x10
 7483 1d0e 7F110000 		.4byte	.LASF330
 7484 1d12 10       		.byte	0x10
 7485 1d13 98       		.byte	0x98
 7486 1d14 150B0000 		.4byte	0xb15
 7487 1d18 02       		.byte	0x2
 7488 1d19 23       		.byte	0x23
 7489 1d1a 09       		.uleb128 0x9
 7490 1d1b 10       		.uleb128 0x10
 7491 1d1c E9130000 		.4byte	.LASF391
 7492 1d20 10       		.byte	0x10
 7493 1d21 9C       		.byte	0x9c
 7494 1d22 150B0000 		.4byte	0xb15
 7495 1d26 02       		.byte	0x2
 7496 1d27 23       		.byte	0x23
 7497 1d28 0A       		.uleb128 0xa
 7498 1d29 10       		.uleb128 0x10
 7499 1d2a 80190000 		.4byte	.LASF329
 7500 1d2e 10       		.byte	0x10
 7501 1d2f A0       		.byte	0xa0
 7502 1d30 BC000000 		.4byte	0xbc
 7503 1d34 02       		.byte	0x2
 7504 1d35 23       		.byte	0x23
 7505 1d36 0B       		.uleb128 0xb
 7506 1d37 10       		.uleb128 0x10
 7507 1d38 110E0000 		.4byte	.LASF392
 7508 1d3c 10       		.byte	0x10
 7509 1d3d A4       		.byte	0xa4
 7510 1d3e 970A0000 		.4byte	0xa97
 7511 1d42 02       		.byte	0x2
 7512 1d43 23       		.byte	0x23
 7513 1d44 0C       		.uleb128 0xc
 7514 1d45 10       		.uleb128 0x10
 7515 1d46 C3010000 		.4byte	.LASF393
 7516 1d4a 10       		.byte	0x10
 7517 1d4b A8       		.byte	0xa8
 7518 1d4c 970A0000 		.4byte	0xa97
 7519 1d50 02       		.byte	0x2
 7520 1d51 23       		.byte	0x23
 7521 1d52 10       		.uleb128 0x10
 7522 1d53 00       		.byte	0
 7523 1d54 0A       		.uleb128 0xa
ARM GAS  C:\Users\EBANO_~1\AppData\Local\Temp\ccazSBuk.s 			page 159


 7524 1d55 04       		.byte	0x4
 7525 1d56 750B0000 		.4byte	0xb75
 7526 1d5a 03       		.uleb128 0x3
 7527 1d5b 6F1B0000 		.4byte	.LASF425
 7528 1d5f 10       		.byte	0x10
 7529 1d60 A9       		.byte	0xa9
 7530 1d61 D71C0000 		.4byte	0x1cd7
 7531 1d65 11       		.uleb128 0x11
 7532 1d66 8A030000 		.4byte	.LASF426
 7533 1d6a 14       		.byte	0x14
 7534 1d6b 10       		.byte	0x10
 7535 1d6c AB       		.byte	0xab
 7536 1d6d D41D0000 		.4byte	0x1dd4
 7537 1d71 10       		.uleb128 0x10
 7538 1d72 78000000 		.4byte	.LASF427
 7539 1d76 10       		.byte	0x10
 7540 1d77 B0       		.byte	0xb0
 7541 1d78 D41D0000 		.4byte	0x1dd4
 7542 1d7c 02       		.byte	0x2
 7543 1d7d 23       		.byte	0x23
 7544 1d7e 00       		.uleb128 0
 7545 1d7f 10       		.uleb128 0x10
 7546 1d80 CB1C0000 		.4byte	.LASF209
 7547 1d84 10       		.byte	0x10
 7548 1d85 B4       		.byte	0xb4
 7549 1d86 ED000000 		.4byte	0xed
 7550 1d8a 02       		.byte	0x2
 7551 1d8b 23       		.byte	0x23
 7552 1d8c 04       		.uleb128 0x4
 7553 1d8d 10       		.uleb128 0x10
 7554 1d8e AB030000 		.4byte	.LASF312
 7555 1d92 10       		.byte	0x10
 7556 1d93 B8       		.byte	0xb8
 7557 1d94 BC000000 		.4byte	0xbc
 7558 1d98 02       		.byte	0x2
 7559 1d99 23       		.byte	0x23
 7560 1d9a 08       		.uleb128 0x8
 7561 1d9b 10       		.uleb128 0x10
 7562 1d9c 79060000 		.4byte	.LASF428
 7563 1da0 10       		.byte	0x10
 7564 1da1 BC       		.byte	0xbc
 7565 1da2 BC000000 		.4byte	0xbc
 7566 1da6 02       		.byte	0x2
 7567 1da7 23       		.byte	0x23
 7568 1da8 09       		.uleb128 0x9
 7569 1da9 10       		.uleb128 0x10
 7570 1daa 1E130000 		.4byte	.LASF429
 7571 1dae 10       		.byte	0x10
 7572 1daf C0       		.byte	0xc0
 7573 1db0 BC000000 		.4byte	0xbc
 7574 1db4 02       		.byte	0x2
 7575 1db5 23       		.byte	0x23
 7576 1db6 0A       		.uleb128 0xa
 7577 1db7 10       		.uleb128 0x10
 7578 1db8 BC0E0000 		.4byte	.LASF408
 7579 1dbc 10       		.byte	0x10
 7580 1dbd C4       		.byte	0xc4
ARM GAS  C:\Users\EBANO_~1\AppData\Local\Temp\ccazSBuk.s 			page 160


 7581 1dbe ED000000 		.4byte	0xed
 7582 1dc2 02       		.byte	0x2
 7583 1dc3 23       		.byte	0x23
 7584 1dc4 0C       		.uleb128 0xc
 7585 1dc5 10       		.uleb128 0x10
 7586 1dc6 FA1C0000 		.4byte	.LASF407
 7587 1dca 10       		.byte	0x10
 7588 1dcb C8       		.byte	0xc8
 7589 1dcc D7000000 		.4byte	0xd7
 7590 1dd0 02       		.byte	0x2
 7591 1dd1 23       		.byte	0x23
 7592 1dd2 10       		.uleb128 0x10
 7593 1dd3 00       		.byte	0
 7594 1dd4 0A       		.uleb128 0xa
 7595 1dd5 04       		.byte	0x4
 7596 1dd6 C7000000 		.4byte	0xc7
 7597 1dda 03       		.uleb128 0x3
 7598 1ddb 39010000 		.4byte	.LASF430
 7599 1ddf 10       		.byte	0x10
 7600 1de0 C9       		.byte	0xc9
 7601 1de1 651D0000 		.4byte	0x1d65
 7602 1de5 29       		.uleb128 0x29
 7603 1de6 F31B0000 		.4byte	.LASF432
 7604 1dea 11       		.byte	0x11
 7605 1deb FE       		.byte	0xfe
 7606 1dec 3C010000 		.4byte	0x13c
 7607 1df0 05       		.byte	0x5
 7608 1df1 03       		.byte	0x3
 7609 1df2 EC000000 		.4byte	DataratesRU864
 7610 1df6 07       		.uleb128 0x7
 7611 1df7 F8000000 		.4byte	0xf8
 7612 1dfb 061E0000 		.4byte	0x1e06
 7613 1dff 08       		.uleb128 0x8
 7614 1e00 AA000000 		.4byte	0xaa
 7615 1e04 07       		.byte	0x7
 7616 1e05 00       		.byte	0
 7617 1e06 05       		.uleb128 0x5
 7618 1e07 F61D0000 		.4byte	0x1df6
 7619 1e0b 2A       		.uleb128 0x2a
 7620 1e0c E71D0000 		.4byte	.LASF433
 7621 1e10 11       		.byte	0x11
 7622 1e11 0301     		.2byte	0x103
 7623 1e13 061E0000 		.4byte	0x1e06
 7624 1e17 05       		.byte	0x5
 7625 1e18 03       		.byte	0x3
 7626 1e19 CC000000 		.4byte	BandwidthsRU864
 7627 1e1d 2A       		.uleb128 0x2a
 7628 1e1e 720C0000 		.4byte	.LASF434
 7629 1e22 11       		.byte	0x11
 7630 1e23 0801     		.2byte	0x108
 7631 1e25 3C010000 		.4byte	0x13c
 7632 1e29 05       		.byte	0x5
 7633 1e2a 03       		.byte	0x3
 7634 1e2b F4000000 		.4byte	MaxPayloadOfDatarateRU864
 7635 1e2f 2A       		.uleb128 0x2a
 7636 1e30 FE1F0000 		.4byte	.LASF435
 7637 1e34 11       		.byte	0x11
ARM GAS  C:\Users\EBANO_~1\AppData\Local\Temp\ccazSBuk.s 			page 161


 7638 1e35 0D01     		.2byte	0x10d
 7639 1e37 3C010000 		.4byte	0x13c
 7640 1e3b 05       		.byte	0x5
 7641 1e3c 03       		.byte	0x3
 7642 1e3d FC000000 		.4byte	MaxPayloadOfDatarateRepeaterRU864
 7643 1e41 11       		.uleb128 0x11
 7644 1e42 6C110000 		.4byte	.LASF436
 7645 1e46 74       		.byte	0x74
 7646 1e47 01       		.byte	0x1
 7647 1e48 2B       		.byte	0x2b
 7648 1e49 861E0000 		.4byte	0x1e86
 7649 1e4d 10       		.uleb128 0x10
 7650 1e4e 4E0D0000 		.4byte	.LASF319
 7651 1e52 01       		.byte	0x1
 7652 1e53 30       		.byte	0x30
 7653 1e54 861E0000 		.4byte	0x1e86
 7654 1e58 02       		.byte	0x2
 7655 1e59 23       		.byte	0x23
 7656 1e5a 00       		.uleb128 0
 7657 1e5b 10       		.uleb128 0x10
 7658 1e5c A4140000 		.4byte	.LASF424
 7659 1e60 01       		.byte	0x1
 7660 1e61 34       		.byte	0x34
 7661 1e62 961E0000 		.4byte	0x1e96
 7662 1e66 02       		.byte	0x2
 7663 1e67 23       		.byte	0x23
 7664 1e68 60       		.uleb128 0x60
 7665 1e69 10       		.uleb128 0x10
 7666 1e6a 731D0000 		.4byte	.LASF318
 7667 1e6e 01       		.byte	0x1
 7668 1e6f 38       		.byte	0x38
 7669 1e70 A61E0000 		.4byte	0x1ea6
 7670 1e74 02       		.byte	0x2
 7671 1e75 23       		.byte	0x23
 7672 1e76 70       		.uleb128 0x70
 7673 1e77 10       		.uleb128 0x10
 7674 1e78 E5150000 		.4byte	.LASF437
 7675 1e7c 01       		.byte	0x1
 7676 1e7d 3C       		.byte	0x3c
 7677 1e7e A61E0000 		.4byte	0x1ea6
 7678 1e82 02       		.byte	0x2
 7679 1e83 23       		.byte	0x23
 7680 1e84 72       		.uleb128 0x72
 7681 1e85 00       		.byte	0
 7682 1e86 07       		.uleb128 0x7
 7683 1e87 41110000 		.4byte	0x1141
 7684 1e8b 961E0000 		.4byte	0x1e96
 7685 1e8f 08       		.uleb128 0x8
 7686 1e90 AA000000 		.4byte	0xaa
 7687 1e94 07       		.byte	0x7
 7688 1e95 00       		.byte	0
 7689 1e96 07       		.uleb128 0x7
 7690 1e97 750B0000 		.4byte	0xb75
 7691 1e9b A61E0000 		.4byte	0x1ea6
 7692 1e9f 08       		.uleb128 0x8
 7693 1ea0 AA000000 		.4byte	0xaa
 7694 1ea4 00       		.byte	0
ARM GAS  C:\Users\EBANO_~1\AppData\Local\Temp\ccazSBuk.s 			page 162


 7695 1ea5 00       		.byte	0
 7696 1ea6 07       		.uleb128 0x7
 7697 1ea7 D7000000 		.4byte	0xd7
 7698 1eab B61E0000 		.4byte	0x1eb6
 7699 1eaf 08       		.uleb128 0x8
 7700 1eb0 AA000000 		.4byte	0xaa
 7701 1eb4 00       		.byte	0
 7702 1eb5 00       		.byte	0
 7703 1eb6 03       		.uleb128 0x3
 7704 1eb7 08110000 		.4byte	.LASF438
 7705 1ebb 01       		.byte	0x1
 7706 1ebc 3D       		.byte	0x3d
 7707 1ebd 411E0000 		.4byte	0x1e41
 7708 1ec1 29       		.uleb128 0x29
 7709 1ec2 2B1F0000 		.4byte	.LASF333
 7710 1ec6 01       		.byte	0x1
 7711 1ec7 42       		.byte	0x42
 7712 1ec8 B61E0000 		.4byte	0x1eb6
 7713 1ecc 05       		.byte	0x5
 7714 1ecd 03       		.byte	0x3
 7715 1ece 00000000 		.4byte	NvmCtx
 7716 1ed2 2B       		.uleb128 0x2b
 7717 1ed3 01       		.byte	0x1
 7718 1ed4 860F0000 		.4byte	.LASF445
 7719 1ed8 01       		.byte	0x1
 7720 1ed9 E303     		.2byte	0x3e3
 7721 1edb 01       		.byte	0x1
 7722 1edc 00000000 		.4byte	.LFB66
 7723 1ee0 38000000 		.4byte	.LFE66
 7724 1ee4 00000000 		.4byte	.LLST115
 7725 1ee8 01       		.byte	0x1
 7726 1ee9 2D1F0000 		.4byte	0x1f2d
 7727 1eed 2C       		.uleb128 0x2c
 7728 1eee 571C0000 		.4byte	.LASF439
 7729 1ef2 01       		.byte	0x1
 7730 1ef3 E303     		.2byte	0x3e3
 7731 1ef5 2D1F0000 		.4byte	0x1f2d
 7732 1ef9 2C000000 		.4byte	.LLST116
 7733 1efd 2C       		.uleb128 0x2c
 7734 1efe D40D0000 		.4byte	.LASF440
 7735 1f02 01       		.byte	0x1
 7736 1f03 E303     		.2byte	0x3e3
 7737 1f05 840A0000 		.4byte	0xa84
 7738 1f09 4D000000 		.4byte	.LLST117
 7739 1f0d 2A       		.uleb128 0x2a
 7740 1f0e 131E0000 		.4byte	.LASF441
 7741 1f12 01       		.byte	0x1
 7742 1f13 E503     		.2byte	0x3e5
 7743 1f15 DA1D0000 		.4byte	0x1dda
 7744 1f19 02       		.byte	0x2
 7745 1f1a 91       		.byte	0x91
 7746 1f1b 64       		.sleb128 -28
 7747 1f1c 2D       		.uleb128 0x2d
 7748 1f1d 28000000 		.4byte	.LVL329
 7749 1f21 75320000 		.4byte	0x3275
 7750 1f25 2E       		.uleb128 0x2e
 7751 1f26 01       		.byte	0x1
ARM GAS  C:\Users\EBANO_~1\AppData\Local\Temp\ccazSBuk.s 			page 163


 7752 1f27 50       		.byte	0x50
 7753 1f28 02       		.byte	0x2
 7754 1f29 91       		.byte	0x91
 7755 1f2a 64       		.sleb128 -28
 7756 1f2b 00       		.byte	0
 7757 1f2c 00       		.byte	0
 7758 1f2d 0A       		.uleb128 0xa
 7759 1f2e 04       		.byte	0x4
 7760 1f2f 751B0000 		.4byte	0x1b75
 7761 1f33 2F       		.uleb128 0x2f
 7762 1f34 01       		.byte	0x1
 7763 1f35 27060000 		.4byte	.LASF457
 7764 1f39 01       		.byte	0x1
 7765 1f3a D803     		.2byte	0x3d8
 7766 1f3c 01       		.byte	0x1
 7767 1f3d BC000000 		.4byte	0xbc
 7768 1f41 00000000 		.4byte	.LFB65
 7769 1f45 0E000000 		.4byte	.LFE65
 7770 1f49 02       		.byte	0x2
 7771 1f4a 7D       		.byte	0x7d
 7772 1f4b 00       		.sleb128 0
 7773 1f4c 01       		.byte	0x1
 7774 1f4d 991F0000 		.4byte	0x1f99
 7775 1f51 2C       		.uleb128 0x2c
 7776 1f52 8B1A0000 		.4byte	.LASF442
 7777 1f56 01       		.byte	0x1
 7778 1f57 D803     		.2byte	0x3d8
 7779 1f59 BC000000 		.4byte	0xbc
 7780 1f5d 79000000 		.4byte	.LLST113
 7781 1f61 30       		.uleb128 0x30
 7782 1f62 647200   		.ascii	"dr\000"
 7783 1f65 01       		.byte	0x1
 7784 1f66 D803     		.2byte	0x3d8
 7785 1f68 B1000000 		.4byte	0xb1
 7786 1f6c 9A000000 		.4byte	.LLST114
 7787 1f70 31       		.uleb128 0x31
 7788 1f71 E7200000 		.4byte	.LASF443
 7789 1f75 01       		.byte	0x1
 7790 1f76 D803     		.2byte	0x3d8
 7791 1f78 B1000000 		.4byte	0xb1
 7792 1f7c 01       		.byte	0x1
 7793 1f7d 52       		.byte	0x52
 7794 1f7e 2A       		.uleb128 0x2a
 7795 1f7f B8040000 		.4byte	.LASF444
 7796 1f83 01       		.byte	0x1
 7797 1f84 DA03     		.2byte	0x3da
 7798 1f86 B1000000 		.4byte	0xb1
 7799 1f8a 0D       		.byte	0xd
 7800 1f8b 71       		.byte	0x71
 7801 1f8c 00       		.sleb128 0
 7802 1f8d 12       		.byte	0x12
 7803 1f8e 30       		.byte	0x30
 7804 1f8f 16       		.byte	0x16
 7805 1f90 14       		.byte	0x14
 7806 1f91 2B       		.byte	0x2b
 7807 1f92 28       		.byte	0x28
 7808 1f93 0100     		.2byte	0x1
ARM GAS  C:\Users\EBANO_~1\AppData\Local\Temp\ccazSBuk.s 			page 164


 7809 1f95 16       		.byte	0x16
 7810 1f96 13       		.byte	0x13
 7811 1f97 9F       		.byte	0x9f
 7812 1f98 00       		.byte	0
 7813 1f99 2B       		.uleb128 0x2b
 7814 1f9a 01       		.byte	0x1
 7815 1f9b E1030000 		.4byte	.LASF446
 7816 1f9f 01       		.byte	0x1
 7817 1fa0 CC03     		.2byte	0x3cc
 7818 1fa2 01       		.byte	0x1
 7819 1fa3 00000000 		.4byte	.LFB64
 7820 1fa7 50000000 		.4byte	.LFE64
 7821 1fab BB000000 		.4byte	.LLST108
 7822 1faf 01       		.byte	0x1
 7823 1fb0 45200000 		.4byte	0x2045
 7824 1fb4 2C       		.uleb128 0x2c
 7825 1fb5 F8050000 		.4byte	.LASF447
 7826 1fb9 01       		.byte	0x1
 7827 1fba CC03     		.2byte	0x3cc
 7828 1fbc 45200000 		.4byte	0x2045
 7829 1fc0 E7000000 		.4byte	.LLST109
 7830 1fc4 32       		.uleb128 0x32
 7831 1fc5 1E140000 		.4byte	.LASF450
 7832 1fc9 01       		.byte	0x1
 7833 1fca CE03     		.2byte	0x3ce
 7834 1fcc B1000000 		.4byte	0xb1
 7835 1fd0 33       		.uleb128 0x33
 7836 1fd1 07060000 		.4byte	.LASF448
 7837 1fd5 01       		.byte	0x1
 7838 1fd6 CF03     		.2byte	0x3cf
 7839 1fd8 B1000000 		.4byte	0xb1
 7840 1fdc 13010000 		.4byte	.LLST110
 7841 1fe0 33       		.uleb128 0x33
 7842 1fe1 F41F0000 		.4byte	.LASF449
 7843 1fe5 01       		.byte	0x1
 7844 1fe6 D003     		.2byte	0x3d0
 7845 1fe8 ED000000 		.4byte	0xed
 7846 1fec 32010000 		.4byte	.LLST111
 7847 1ff0 34       		.uleb128 0x34
 7848 1ff1 40300000 		.4byte	0x3040
 7849 1ff5 14000000 		.4byte	.LBB137
 7850 1ff9 F8010000 		.4byte	.Ldebug_ranges0+0x1f8
 7851 1ffd 01       		.byte	0x1
 7852 1ffe CE03     		.2byte	0x3ce
 7853 2000 2F200000 		.4byte	0x202f
 7854 2004 35       		.uleb128 0x35
 7855 2005 67300000 		.4byte	0x3067
 7856 2009 45010000 		.4byte	.LLST112
 7857 200d 36       		.uleb128 0x36
 7858 200e 72300000 		.4byte	0x3072
 7859 2012 06       		.byte	0x6
 7860 2013 03       		.byte	0x3
 7861 2014 70000000 		.4byte	NvmCtx+112
 7862 2018 9F       		.byte	0x9f
 7863 2019 37       		.uleb128 0x37
 7864 201a 5C300000 		.4byte	0x305c
 7865 201e 37       		.uleb128 0x37
ARM GAS  C:\Users\EBANO_~1\AppData\Local\Temp\ccazSBuk.s 			page 165


 7866 201f 51300000 		.4byte	0x3051
 7867 2023 38       		.uleb128 0x38
 7868 2024 F8010000 		.4byte	.Ldebug_ranges0+0x1f8
 7869 2028 39       		.uleb128 0x39
 7870 2029 7D300000 		.4byte	0x307d
 7871 202d 00       		.byte	0
 7872 202e 00       		.byte	0
 7873 202f 3A       		.uleb128 0x3a
 7874 2030 36000000 		.4byte	.LVL318
 7875 2034 83320000 		.4byte	0x3283
 7876 2038 3B       		.uleb128 0x3b
 7877 2039 44000000 		.4byte	.LVL320
 7878 203d 2E       		.uleb128 0x2e
 7879 203e 01       		.byte	0x1
 7880 203f 50       		.byte	0x50
 7881 2040 02       		.byte	0x2
 7882 2041 75       		.byte	0x75
 7883 2042 00       		.sleb128 0
 7884 2043 00       		.byte	0
 7885 2044 00       		.byte	0
 7886 2045 0A       		.uleb128 0xa
 7887 2046 04       		.byte	0x4
 7888 2047 2E1B0000 		.4byte	0x1b2e
 7889 204b 3C       		.uleb128 0x3c
 7890 204c 01       		.byte	0x1
 7891 204d 47110000 		.4byte	.LASF451
 7892 2051 01       		.byte	0x1
 7893 2052 BD03     		.2byte	0x3bd
 7894 2054 01       		.byte	0x1
 7895 2055 150B0000 		.4byte	0xb15
 7896 2059 01       		.byte	0x1
 7897 205a 76200000 		.4byte	0x2076
 7898 205e 3D       		.uleb128 0x3d
 7899 205f C91F0000 		.4byte	.LASF453
 7900 2063 01       		.byte	0x1
 7901 2064 BD03     		.2byte	0x3bd
 7902 2066 76200000 		.4byte	0x2076
 7903 206a 3E       		.uleb128 0x3e
 7904 206b 696400   		.ascii	"id\000"
 7905 206e 01       		.byte	0x1
 7906 206f BF03     		.2byte	0x3bf
 7907 2071 BC000000 		.4byte	0xbc
 7908 2075 00       		.byte	0
 7909 2076 0A       		.uleb128 0xa
 7910 2077 04       		.byte	0x4
 7911 2078 BA1A0000 		.4byte	0x1aba
 7912 207c 3C       		.uleb128 0x3c
 7913 207d 01       		.byte	0x1
 7914 207e CC190000 		.4byte	.LASF452
 7915 2082 01       		.byte	0x1
 7916 2083 8203     		.2byte	0x382
 7917 2085 01       		.byte	0x1
 7918 2086 38120000 		.4byte	0x1238
 7919 208a 01       		.byte	0x1
 7920 208b BF200000 		.4byte	0x20bf
 7921 208f 3D       		.uleb128 0x3d
 7922 2090 CD130000 		.4byte	.LASF454
ARM GAS  C:\Users\EBANO_~1\AppData\Local\Temp\ccazSBuk.s 			page 166


 7923 2094 01       		.byte	0x1
 7924 2095 8203     		.2byte	0x382
 7925 2097 BF200000 		.4byte	0x20bf
 7926 209b 32       		.uleb128 0x32
 7927 209c 75210000 		.4byte	.LASF455
 7928 20a0 01       		.byte	0x1
 7929 20a1 8403     		.2byte	0x384
 7930 20a3 150B0000 		.4byte	0xb15
 7931 20a7 32       		.uleb128 0x32
 7932 20a8 32210000 		.4byte	.LASF456
 7933 20ac 01       		.byte	0x1
 7934 20ad 8503     		.2byte	0x385
 7935 20af 150B0000 		.4byte	0xb15
 7936 20b3 3E       		.uleb128 0x3e
 7937 20b4 696400   		.ascii	"id\000"
 7938 20b7 01       		.byte	0x1
 7939 20b8 8603     		.2byte	0x386
 7940 20ba BC000000 		.4byte	0xbc
 7941 20be 00       		.byte	0
 7942 20bf 0A       		.uleb128 0xa
 7943 20c0 04       		.byte	0x4
 7944 20c1 911A0000 		.4byte	0x1a91
 7945 20c5 3F       		.uleb128 0x3f
 7946 20c6 01       		.byte	0x1
 7947 20c7 380A0000 		.4byte	.LASF458
 7948 20cb 01       		.byte	0x1
 7949 20cc 4C03     		.2byte	0x34c
 7950 20ce 01       		.byte	0x1
 7951 20cf 38120000 		.4byte	0x1238
 7952 20d3 00000000 		.4byte	.LFB61
 7953 20d7 A4010000 		.4byte	.LFE61
 7954 20db 65010000 		.4byte	.LLST79
 7955 20df 01       		.byte	0x1
 7956 20e0 A5220000 		.4byte	0x22a5
 7957 20e4 2C       		.uleb128 0x2c
 7958 20e5 BE180000 		.4byte	.LASF459
 7959 20e9 01       		.byte	0x1
 7960 20ea 4C03     		.2byte	0x34c
 7961 20ec A5220000 		.4byte	0x22a5
 7962 20f0 9E010000 		.4byte	.LLST80
 7963 20f4 2C       		.uleb128 0x2c
 7964 20f5 7E0F0000 		.4byte	.LASF460
 7965 20f9 01       		.byte	0x1
 7966 20fa 4C03     		.2byte	0x34c
 7967 20fc 840A0000 		.4byte	0xa84
 7968 2100 E3010000 		.4byte	.LLST81
 7969 2104 2C       		.uleb128 0x2c
 7970 2105 F7090000 		.4byte	.LASF461
 7971 2109 01       		.byte	0x1
 7972 210a 4C03     		.2byte	0x34c
 7973 210c AB220000 		.4byte	0x22ab
 7974 2110 02020000 		.4byte	.LLST82
 7975 2114 2C       		.uleb128 0x2c
 7976 2115 6D0D0000 		.4byte	.LASF462
 7977 2119 01       		.byte	0x1
 7978 211a 4C03     		.2byte	0x34c
 7979 211c AB220000 		.4byte	0x22ab
ARM GAS  C:\Users\EBANO_~1\AppData\Local\Temp\ccazSBuk.s 			page 167


 7980 2120 39020000 		.4byte	.LLST83
 7981 2124 33       		.uleb128 0x33
 7982 2125 A3160000 		.4byte	.LASF463
 7983 2129 01       		.byte	0x1
 7984 212a 4E03     		.2byte	0x34e
 7985 212c BC000000 		.4byte	0xbc
 7986 2130 97020000 		.4byte	.LLST84
 7987 2134 33       		.uleb128 0x33
 7988 2135 BC060000 		.4byte	.LASF464
 7989 2139 01       		.byte	0x1
 7990 213a 4F03     		.2byte	0x34f
 7991 213c BC000000 		.4byte	0xbc
 7992 2140 C3020000 		.4byte	.LLST85
 7993 2144 2A       		.uleb128 0x2a
 7994 2145 531A0000 		.4byte	.LASF465
 7995 2149 01       		.byte	0x1
 7996 214a 5003     		.2byte	0x350
 7997 214c B1220000 		.4byte	0x22b1
 7998 2150 02       		.byte	0x2
 7999 2151 91       		.byte	0x91
 8000 2152 50       		.sleb128 -48
 8001 2153 33       		.uleb128 0x33
 8002 2154 45170000 		.4byte	.LASF466
 8003 2158 01       		.byte	0x1
 8004 2159 5103     		.2byte	0x351
 8005 215b 970A0000 		.4byte	0xa97
 8006 215f 07030000 		.4byte	.LLST86
 8007 2163 34       		.uleb128 0x34
 8008 2164 8F2F0000 		.4byte	0x2f8f
 8009 2168 6C000000 		.4byte	.LBB121
 8010 216c A0010000 		.4byte	.Ldebug_ranges0+0x1a0
 8011 2170 01       		.byte	0x1
 8012 2171 6103     		.2byte	0x361
 8013 2173 26220000 		.4byte	0x2226
 8014 2177 35       		.uleb128 0x35
 8015 2178 B62F0000 		.4byte	0x2fb6
 8016 217c 61030000 		.4byte	.LLST87
 8017 2180 35       		.uleb128 0x35
 8018 2181 C12F0000 		.4byte	0x2fc1
 8019 2185 89030000 		.4byte	.LLST88
 8020 2189 35       		.uleb128 0x35
 8021 218a CC2F0000 		.4byte	0x2fcc
 8022 218e B1030000 		.4byte	.LLST89
 8023 2192 35       		.uleb128 0x35
 8024 2193 E22F0000 		.4byte	0x2fe2
 8025 2197 D9030000 		.4byte	.LLST90
 8026 219b 35       		.uleb128 0x35
 8027 219c D72F0000 		.4byte	0x2fd7
 8028 21a0 01040000 		.4byte	.LLST91
 8029 21a4 35       		.uleb128 0x35
 8030 21a5 AB2F0000 		.4byte	0x2fab
 8031 21a9 53040000 		.4byte	.LLST92
 8032 21ad 35       		.uleb128 0x35
 8033 21ae A02F0000 		.4byte	0x2fa0
 8034 21b2 73040000 		.4byte	.LLST93
 8035 21b6 38       		.uleb128 0x38
 8036 21b7 A0010000 		.4byte	.Ldebug_ranges0+0x1a0
ARM GAS  C:\Users\EBANO_~1\AppData\Local\Temp\ccazSBuk.s 			page 168


 8037 21bb 40       		.uleb128 0x40
 8038 21bc ED2F0000 		.4byte	0x2fed
 8039 21c0 C5040000 		.4byte	.LLST94
 8040 21c4 40       		.uleb128 0x40
 8041 21c5 F82F0000 		.4byte	0x2ff8
 8042 21c9 3D050000 		.4byte	.LLST95
 8043 21cd 41       		.uleb128 0x41
 8044 21ce 03300000 		.4byte	0x3003
 8045 21d2 B8010000 		.4byte	.Ldebug_ranges0+0x1b8
 8046 21d6 40       		.uleb128 0x40
 8047 21d7 04300000 		.4byte	0x3004
 8048 21db 8D050000 		.4byte	.LLST96
 8049 21df 40       		.uleb128 0x40
 8050 21e0 0D300000 		.4byte	0x300d
 8051 21e4 8D050000 		.4byte	.LLST96
 8052 21e8 41       		.uleb128 0x41
 8053 21e9 16300000 		.4byte	0x3016
 8054 21ed B8010000 		.4byte	.Ldebug_ranges0+0x1b8
 8055 21f1 40       		.uleb128 0x40
 8056 21f2 17300000 		.4byte	0x3017
 8057 21f6 AD050000 		.4byte	.LLST98
 8058 21fa 42       		.uleb128 0x42
 8059 21fb BC000000 		.4byte	.LVL265
 8060 21ff 91320000 		.4byte	0x3291
 8061 2203 10220000 		.4byte	0x2210
 8062 2207 2E       		.uleb128 0x2e
 8063 2208 01       		.byte	0x1
 8064 2209 50       		.byte	0x50
 8065 220a 04       		.byte	0x4
 8066 220b 7D       		.byte	0x7d
 8067 220c 00       		.sleb128 0
 8068 220d 94       		.byte	0x94
 8069 220e 01       		.byte	0x1
 8070 220f 00       		.byte	0
 8071 2210 2D       		.uleb128 0x2d
 8072 2211 5A010000 		.4byte	.LVL279
 8073 2215 91320000 		.4byte	0x3291
 8074 2219 2E       		.uleb128 0x2e
 8075 221a 01       		.byte	0x1
 8076 221b 50       		.byte	0x50
 8077 221c 04       		.byte	0x4
 8078 221d 7D       		.byte	0x7d
 8079 221e 00       		.sleb128 0
 8080 221f 94       		.byte	0x94
 8081 2220 01       		.byte	0x1
 8082 2221 00       		.byte	0
 8083 2222 00       		.byte	0
 8084 2223 00       		.byte	0
 8085 2224 00       		.byte	0
 8086 2225 00       		.byte	0
 8087 2226 42       		.uleb128 0x42
 8088 2227 20000000 		.4byte	.LVL249
 8089 222b 9E320000 		.4byte	0x329e
 8090 222f 44220000 		.4byte	0x2244
 8091 2233 2E       		.uleb128 0x2e
 8092 2234 01       		.byte	0x1
 8093 2235 50       		.byte	0x50
ARM GAS  C:\Users\EBANO_~1\AppData\Local\Temp\ccazSBuk.s 			page 169


 8094 2236 02       		.byte	0x2
 8095 2237 91       		.byte	0x91
 8096 2238 50       		.sleb128 -48
 8097 2239 2E       		.uleb128 0x2e
 8098 223a 01       		.byte	0x1
 8099 223b 51       		.byte	0x51
 8100 223c 01       		.byte	0x1
 8101 223d 30       		.byte	0x30
 8102 223e 2E       		.uleb128 0x2e
 8103 223f 01       		.byte	0x1
 8104 2240 52       		.byte	0x52
 8105 2241 01       		.byte	0x1
 8106 2242 38       		.byte	0x38
 8107 2243 00       		.byte	0
 8108 2244 42       		.uleb128 0x42
 8109 2245 2E000000 		.4byte	.LVL250
 8110 2249 AF320000 		.4byte	0x32af
 8111 224d 63220000 		.4byte	0x2263
 8112 2251 2E       		.uleb128 0x2e
 8113 2252 01       		.byte	0x1
 8114 2253 50       		.byte	0x50
 8115 2254 03       		.byte	0x3
 8116 2255 76       		.byte	0x76
 8117 2256 F000     		.sleb128 112
 8118 2258 2E       		.uleb128 0x2e
 8119 2259 01       		.byte	0x1
 8120 225a 51       		.byte	0x51
 8121 225b 01       		.byte	0x1
 8122 225c 30       		.byte	0x30
 8123 225d 2E       		.uleb128 0x2e
 8124 225e 01       		.byte	0x1
 8125 225f 52       		.byte	0x52
 8126 2260 01       		.byte	0x1
 8127 2261 31       		.byte	0x31
 8128 2262 00       		.byte	0
 8129 2263 3A       		.uleb128 0x3a
 8130 2264 44000000 		.4byte	.LVL251
 8131 2268 BD320000 		.4byte	0x32bd
 8132 226c 42       		.uleb128 0x42
 8133 226d 5A000000 		.4byte	.LVL252
 8134 2271 CA320000 		.4byte	0x32ca
 8135 2275 86220000 		.4byte	0x2286
 8136 2279 2E       		.uleb128 0x2e
 8137 227a 01       		.byte	0x1
 8138 227b 52       		.byte	0x52
 8139 227c 03       		.byte	0x3
 8140 227d 76       		.byte	0x76
 8141 227e E000     		.sleb128 96
 8142 2280 2E       		.uleb128 0x2e
 8143 2281 01       		.byte	0x1
 8144 2282 53       		.byte	0x53
 8145 2283 01       		.byte	0x1
 8146 2284 31       		.byte	0x31
 8147 2285 00       		.byte	0
 8148 2286 3A       		.uleb128 0x3a
 8149 2287 10010000 		.4byte	.LVL271
 8150 228b BD320000 		.4byte	0x32bd
ARM GAS  C:\Users\EBANO_~1\AppData\Local\Temp\ccazSBuk.s 			page 170


 8151 228f 2D       		.uleb128 0x2d
 8152 2290 8E010000 		.4byte	.LVL285
 8153 2294 D8320000 		.4byte	0x32d8
 8154 2298 2E       		.uleb128 0x2e
 8155 2299 01       		.byte	0x1
 8156 229a 50       		.byte	0x50
 8157 229b 01       		.byte	0x1
 8158 229c 30       		.byte	0x30
 8159 229d 2E       		.uleb128 0x2e
 8160 229e 01       		.byte	0x1
 8161 229f 51       		.byte	0x51
 8162 22a0 02       		.byte	0x2
 8163 22a1 78       		.byte	0x78
 8164 22a2 7F       		.sleb128 -1
 8165 22a3 00       		.byte	0
 8166 22a4 00       		.byte	0
 8167 22a5 0A       		.uleb128 0xa
 8168 22a6 04       		.byte	0x4
 8169 22a7 591A0000 		.4byte	0x1a59
 8170 22ab 0A       		.uleb128 0xa
 8171 22ac 04       		.byte	0x4
 8172 22ad 970A0000 		.4byte	0xa97
 8173 22b1 07       		.uleb128 0x7
 8174 22b2 BC000000 		.4byte	0xbc
 8175 22b6 C1220000 		.4byte	0x22c1
 8176 22ba 08       		.uleb128 0x8
 8177 22bb AA000000 		.4byte	0xaa
 8178 22bf 07       		.byte	0x7
 8179 22c0 00       		.byte	0
 8180 22c1 2B       		.uleb128 0x2b
 8181 22c2 01       		.byte	0x1
 8182 22c3 DA0A0000 		.4byte	.LASF467
 8183 22c7 01       		.byte	0x1
 8184 22c8 3C03     		.2byte	0x33c
 8185 22ca 01       		.byte	0x1
 8186 22cb 00000000 		.4byte	.LFB60
 8187 22cf 34000000 		.4byte	.LFE60
 8188 22d3 22060000 		.4byte	.LLST77
 8189 22d7 01       		.byte	0x1
 8190 22d8 0C230000 		.4byte	0x230c
 8191 22dc 2C       		.uleb128 0x2c
 8192 22dd B60C0000 		.4byte	.LASF468
 8193 22e1 01       		.byte	0x1
 8194 22e2 3C03     		.2byte	0x33c
 8195 22e4 0C230000 		.4byte	0x230c
 8196 22e8 4E060000 		.4byte	.LLST78
 8197 22ec 2A       		.uleb128 0x2a
 8198 22ed 191F0000 		.4byte	.LASF469
 8199 22f1 01       		.byte	0x1
 8200 22f2 3E03     		.2byte	0x33e
 8201 22f4 5A1D0000 		.4byte	0x1d5a
 8202 22f8 02       		.byte	0x2
 8203 22f9 91       		.byte	0x91
 8204 22fa 64       		.sleb128 -28
 8205 22fb 2D       		.uleb128 0x2d
 8206 22fc 2C000000 		.4byte	.LVL244
 8207 2300 E5320000 		.4byte	0x32e5
ARM GAS  C:\Users\EBANO_~1\AppData\Local\Temp\ccazSBuk.s 			page 171


 8208 2304 2E       		.uleb128 0x2e
 8209 2305 01       		.byte	0x1
 8210 2306 50       		.byte	0x50
 8211 2307 02       		.byte	0x2
 8212 2308 91       		.byte	0x91
 8213 2309 64       		.sleb128 -28
 8214 230a 00       		.byte	0
 8215 230b 00       		.byte	0
 8216 230c 0A       		.uleb128 0xa
 8217 230d 04       		.byte	0x4
 8218 230e F4190000 		.4byte	0x19f4
 8219 2312 2F       		.uleb128 0x2f
 8220 2313 01       		.byte	0x1
 8221 2314 A60F0000 		.4byte	.LASF470
 8222 2318 01       		.byte	0x1
 8223 2319 3703     		.2byte	0x337
 8224 231b 01       		.byte	0x1
 8225 231c B1000000 		.4byte	0xb1
 8226 2320 00000000 		.4byte	.LFB59
 8227 2324 02000000 		.4byte	.LFE59
 8228 2328 02       		.byte	0x2
 8229 2329 7D       		.byte	0x7d
 8230 232a 00       		.sleb128 0
 8231 232b 01       		.byte	0x1
 8232 232c 4D230000 		.4byte	0x234d
 8233 2330 31       		.uleb128 0x31
 8234 2331 FA130000 		.4byte	.LASF471
 8235 2335 01       		.byte	0x1
 8236 2336 3703     		.2byte	0x337
 8237 2338 B1000000 		.4byte	0xb1
 8238 233c 01       		.byte	0x1
 8239 233d 50       		.byte	0x50
 8240 233e 31       		.uleb128 0x31
 8241 233f 1C050000 		.4byte	.LASF472
 8242 2343 01       		.byte	0x1
 8243 2344 3703     		.2byte	0x337
 8244 2346 80190000 		.4byte	0x1980
 8245 234a 01       		.byte	0x1
 8246 234b 51       		.byte	0x51
 8247 234c 00       		.byte	0
 8248 234d 3F       		.uleb128 0x3f
 8249 234e 01       		.byte	0x1
 8250 234f 1C100000 		.4byte	.LASF473
 8251 2353 01       		.byte	0x1
 8252 2354 1E03     		.2byte	0x31e
 8253 2356 01       		.byte	0x1
 8254 2357 BC000000 		.4byte	0xbc
 8255 235b 00000000 		.4byte	.LFB58
 8256 235f 70000000 		.4byte	.LFE58
 8257 2363 6F060000 		.4byte	.LLST73
 8258 2367 01       		.byte	0x1
 8259 2368 B3230000 		.4byte	0x23b3
 8260 236c 2C       		.uleb128 0x2c
 8261 236d 38120000 		.4byte	.LASF474
 8262 2371 01       		.byte	0x1
 8263 2372 1E03     		.2byte	0x31e
 8264 2374 B3230000 		.4byte	0x23b3
ARM GAS  C:\Users\EBANO_~1\AppData\Local\Temp\ccazSBuk.s 			page 172


 8265 2378 9B060000 		.4byte	.LLST74
 8266 237c 33       		.uleb128 0x33
 8267 237d D1120000 		.4byte	.LASF475
 8268 2381 01       		.byte	0x1
 8269 2382 2003     		.2byte	0x320
 8270 2384 BC000000 		.4byte	0xbc
 8271 2388 D2060000 		.4byte	.LLST75
 8272 238c 43       		.uleb128 0x43
 8273 238d 23300000 		.4byte	0x3023
 8274 2391 02000000 		.4byte	.LBB111
 8275 2395 80010000 		.4byte	.Ldebug_ranges0+0x180
 8276 2399 01       		.byte	0x1
 8277 239a 2303     		.2byte	0x323
 8278 239c 35       		.uleb128 0x35
 8279 239d 34300000 		.4byte	0x3034
 8280 23a1 0A070000 		.4byte	.LLST76
 8281 23a5 3B       		.uleb128 0x3b
 8282 23a6 12000000 		.4byte	.LVL234
 8283 23aa 2E       		.uleb128 0x2e
 8284 23ab 01       		.byte	0x1
 8285 23ac 50       		.byte	0x50
 8286 23ad 02       		.byte	0x2
 8287 23ae 74       		.byte	0x74
 8288 23af 00       		.sleb128 0
 8289 23b0 00       		.byte	0
 8290 23b1 00       		.byte	0
 8291 23b2 00       		.byte	0
 8292 23b3 0A       		.uleb128 0xa
 8293 23b4 04       		.byte	0x4
 8294 23b5 55190000 		.4byte	0x1955
 8295 23b9 2F       		.uleb128 0x2f
 8296 23ba 01       		.byte	0x1
 8297 23bb 400E0000 		.4byte	.LASF476
 8298 23bf 01       		.byte	0x1
 8299 23c0 1903     		.2byte	0x319
 8300 23c2 01       		.byte	0x1
 8301 23c3 B1000000 		.4byte	0xb1
 8302 23c7 00000000 		.4byte	.LFB57
 8303 23cb 06000000 		.4byte	.LFE57
 8304 23cf 02       		.byte	0x2
 8305 23d0 7D       		.byte	0x7d
 8306 23d1 00       		.sleb128 0
 8307 23d2 01       		.byte	0x1
 8308 23d3 E8230000 		.4byte	0x23e8
 8309 23d7 2C       		.uleb128 0x2c
 8310 23d8 631D0000 		.4byte	.LASF477
 8311 23dc 01       		.byte	0x1
 8312 23dd 1903     		.2byte	0x319
 8313 23df E8230000 		.4byte	0x23e8
 8314 23e3 4A070000 		.4byte	.LLST72
 8315 23e7 00       		.byte	0
 8316 23e8 0A       		.uleb128 0xa
 8317 23e9 04       		.byte	0x4
 8318 23ea 1D190000 		.4byte	0x191d
 8319 23ee 3F       		.uleb128 0x3f
 8320 23ef 01       		.byte	0x1
 8321 23f0 32080000 		.4byte	.LASF478
ARM GAS  C:\Users\EBANO_~1\AppData\Local\Temp\ccazSBuk.s 			page 173


 8322 23f4 01       		.byte	0x1
 8323 23f5 E402     		.2byte	0x2e4
 8324 23f7 01       		.byte	0x1
 8325 23f8 BC000000 		.4byte	0xbc
 8326 23fc 00000000 		.4byte	.LFB56
 8327 2400 04010000 		.4byte	.LFE56
 8328 2404 6B070000 		.4byte	.LLST64
 8329 2408 01       		.byte	0x1
 8330 2409 71250000 		.4byte	0x2571
 8331 240d 2C       		.uleb128 0x2c
 8332 240e 69020000 		.4byte	.LASF479
 8333 2412 01       		.byte	0x1
 8334 2413 E402     		.2byte	0x2e4
 8335 2415 71250000 		.4byte	0x2571
 8336 2419 A3070000 		.4byte	.LLST65
 8337 241d 44       		.uleb128 0x44
 8338 241e D1120000 		.4byte	.LASF475
 8339 2422 01       		.byte	0x1
 8340 2423 E602     		.2byte	0x2e6
 8341 2425 BC000000 		.4byte	0xbc
 8342 2429 03       		.byte	0x3
 8343 242a 32       		.uleb128 0x32
 8344 242b CD130000 		.4byte	.LASF454
 8345 242f 01       		.byte	0x1
 8346 2430 E702     		.2byte	0x2e7
 8347 2432 911A0000 		.4byte	0x1a91
 8348 2436 32       		.uleb128 0x32
 8349 2437 C91F0000 		.4byte	.LASF453
 8350 243b 01       		.byte	0x1
 8351 243c E802     		.2byte	0x2e8
 8352 243e BA1A0000 		.4byte	0x1aba
 8353 2442 45       		.uleb128 0x45
 8354 2443 4B200000 		.4byte	0x204b
 8355 2447 12000000 		.4byte	.LBB95
 8356 244b 36000000 		.4byte	.LBE95
 8357 244f 01       		.byte	0x1
 8358 2450 EF02     		.2byte	0x2ef
 8359 2452 B7240000 		.4byte	0x24b7
 8360 2456 35       		.uleb128 0x35
 8361 2457 5E200000 		.4byte	0x205e
 8362 245b DD070000 		.4byte	.LLST66
 8363 245f 46       		.uleb128 0x46
 8364 2460 12000000 		.4byte	.LBB96
 8365 2464 36000000 		.4byte	.LBE96
 8366 2468 40       		.uleb128 0x40
 8367 2469 6A200000 		.4byte	0x206a
 8368 246d F5070000 		.4byte	.LLST67
 8369 2471 42       		.uleb128 0x42
 8370 2472 28000000 		.4byte	.LVL209
 8371 2476 9E320000 		.4byte	0x329e
 8372 247a 99240000 		.4byte	0x2499
 8373 247e 2E       		.uleb128 0x2e
 8374 247f 01       		.byte	0x1
 8375 2480 50       		.byte	0x50
 8376 2481 0C       		.byte	0xc
 8377 2482 74       		.byte	0x74
 8378 2483 00       		.sleb128 0
ARM GAS  C:\Users\EBANO_~1\AppData\Local\Temp\ccazSBuk.s 			page 174


 8379 2484 31       		.byte	0x31
 8380 2485 24       		.byte	0x24
 8381 2486 74       		.byte	0x74
 8382 2487 00       		.sleb128 0
 8383 2488 22       		.byte	0x22
 8384 2489 32       		.byte	0x32
 8385 248a 24       		.byte	0x24
 8386 248b 75       		.byte	0x75
 8387 248c 00       		.sleb128 0
 8388 248d 22       		.byte	0x22
 8389 248e 2E       		.uleb128 0x2e
 8390 248f 01       		.byte	0x1
 8391 2490 51       		.byte	0x51
 8392 2491 01       		.byte	0x1
 8393 2492 30       		.byte	0x30
 8394 2493 2E       		.uleb128 0x2e
 8395 2494 01       		.byte	0x1
 8396 2495 52       		.byte	0x52
 8397 2496 01       		.byte	0x1
 8398 2497 3C       		.byte	0x3c
 8399 2498 00       		.byte	0
 8400 2499 2D       		.uleb128 0x2d
 8401 249a 34000000 		.4byte	.LVL210
 8402 249e F3320000 		.4byte	0x32f3
 8403 24a2 2E       		.uleb128 0x2e
 8404 24a3 01       		.byte	0x1
 8405 24a4 50       		.byte	0x50
 8406 24a5 03       		.byte	0x3
 8407 24a6 75       		.byte	0x75
 8408 24a7 F000     		.sleb128 112
 8409 24a9 2E       		.uleb128 0x2e
 8410 24aa 01       		.byte	0x1
 8411 24ab 51       		.byte	0x51
 8412 24ac 02       		.byte	0x2
 8413 24ad 74       		.byte	0x74
 8414 24ae 00       		.sleb128 0
 8415 24af 2E       		.uleb128 0x2e
 8416 24b0 01       		.byte	0x1
 8417 24b1 52       		.byte	0x52
 8418 24b2 01       		.byte	0x1
 8419 24b3 38       		.byte	0x38
 8420 24b4 00       		.byte	0
 8421 24b5 00       		.byte	0
 8422 24b6 00       		.byte	0
 8423 24b7 43       		.uleb128 0x43
 8424 24b8 7C200000 		.4byte	0x207c
 8425 24bc 46000000 		.4byte	.LBB97
 8426 24c0 38010000 		.4byte	.Ldebug_ranges0+0x138
 8427 24c4 01       		.byte	0x1
 8428 24c5 F902     		.2byte	0x2f9
 8429 24c7 35       		.uleb128 0x35
 8430 24c8 8F200000 		.4byte	0x208f
 8431 24cc 18080000 		.4byte	.LLST68
 8432 24d0 38       		.uleb128 0x38
 8433 24d1 38010000 		.4byte	.Ldebug_ranges0+0x138
 8434 24d5 40       		.uleb128 0x40
 8435 24d6 9B200000 		.4byte	0x209b
ARM GAS  C:\Users\EBANO_~1\AppData\Local\Temp\ccazSBuk.s 			page 175


 8436 24da 30080000 		.4byte	.LLST69
 8437 24de 40       		.uleb128 0x40
 8438 24df A7200000 		.4byte	0x20a7
 8439 24e3 93080000 		.4byte	.LLST70
 8440 24e7 40       		.uleb128 0x40
 8441 24e8 B3200000 		.4byte	0x20b3
 8442 24ec BF080000 		.4byte	.LLST71
 8443 24f0 34       		.uleb128 0x34
 8444 24f1 23300000 		.4byte	0x3023
 8445 24f5 76000000 		.4byte	.LBB99
 8446 24f9 60010000 		.4byte	.Ldebug_ranges0+0x160
 8447 24fd 01       		.byte	0x1
 8448 24fe A303     		.2byte	0x3a3
 8449 2500 23250000 		.4byte	0x2523
 8450 2504 37       		.uleb128 0x37
 8451 2505 34300000 		.4byte	0x3034
 8452 2509 47       		.uleb128 0x47
 8453 250a 8C000000 		.4byte	.LVL219
 8454 250e 19250000 		.4byte	0x2519
 8455 2512 2E       		.uleb128 0x2e
 8456 2513 01       		.byte	0x1
 8457 2514 50       		.byte	0x50
 8458 2515 02       		.byte	0x2
 8459 2516 76       		.byte	0x76
 8460 2517 00       		.sleb128 0
 8461 2518 00       		.byte	0
 8462 2519 48       		.uleb128 0x48
 8463 251a A4000000 		.4byte	.LVL222
 8464 251e 03       		.byte	0x3
 8465 251f 91       		.byte	0x91
 8466 2520 64       		.sleb128 -28
 8467 2521 06       		.byte	0x6
 8468 2522 00       		.byte	0
 8469 2523 42       		.uleb128 0x42
 8470 2524 5A000000 		.4byte	.LVL214
 8471 2528 91320000 		.4byte	0x3291
 8472 252c 3B250000 		.4byte	0x253b
 8473 2530 2E       		.uleb128 0x2e
 8474 2531 01       		.byte	0x1
 8475 2532 51       		.byte	0x51
 8476 2533 01       		.byte	0x1
 8477 2534 30       		.byte	0x30
 8478 2535 2E       		.uleb128 0x2e
 8479 2536 01       		.byte	0x1
 8480 2537 52       		.byte	0x52
 8481 2538 01       		.byte	0x1
 8482 2539 37       		.byte	0x37
 8483 253a 00       		.byte	0
 8484 253b 42       		.uleb128 0x42
 8485 253c 6A000000 		.4byte	.LVL216
 8486 2540 91320000 		.4byte	0x3291
 8487 2544 53250000 		.4byte	0x2553
 8488 2548 2E       		.uleb128 0x2e
 8489 2549 01       		.byte	0x1
 8490 254a 51       		.byte	0x51
 8491 254b 01       		.byte	0x1
 8492 254c 30       		.byte	0x30
ARM GAS  C:\Users\EBANO_~1\AppData\Local\Temp\ccazSBuk.s 			page 176


 8493 254d 2E       		.uleb128 0x2e
 8494 254e 01       		.byte	0x1
 8495 254f 52       		.byte	0x52
 8496 2550 01       		.byte	0x1
 8497 2551 37       		.byte	0x37
 8498 2552 00       		.byte	0
 8499 2553 2D       		.uleb128 0x2d
 8500 2554 DE000000 		.4byte	.LVL227
 8501 2558 01330000 		.4byte	0x3301
 8502 255c 2E       		.uleb128 0x2e
 8503 255d 01       		.byte	0x1
 8504 255e 50       		.byte	0x50
 8505 255f 02       		.byte	0x2
 8506 2560 76       		.byte	0x76
 8507 2561 00       		.sleb128 0
 8508 2562 2E       		.uleb128 0x2e
 8509 2563 01       		.byte	0x1
 8510 2564 51       		.byte	0x51
 8511 2565 02       		.byte	0x2
 8512 2566 75       		.byte	0x75
 8513 2567 00       		.sleb128 0
 8514 2568 2E       		.uleb128 0x2e
 8515 2569 01       		.byte	0x1
 8516 256a 52       		.byte	0x52
 8517 256b 01       		.byte	0x1
 8518 256c 3C       		.byte	0x3c
 8519 256d 00       		.byte	0
 8520 256e 00       		.byte	0
 8521 256f 00       		.byte	0
 8522 2570 00       		.byte	0
 8523 2571 0A       		.uleb128 0xa
 8524 2572 04       		.byte	0x4
 8525 2573 D6180000 		.4byte	0x18d6
 8526 2577 3F       		.uleb128 0x3f
 8527 2578 01       		.byte	0x1
 8528 2579 86110000 		.4byte	.LASF480
 8529 257d 01       		.byte	0x1
 8530 257e CB02     		.2byte	0x2cb
 8531 2580 01       		.byte	0x1
 8532 2581 BC000000 		.4byte	0xbc
 8533 2585 00000000 		.4byte	.LFB55
 8534 2589 64000000 		.4byte	.LFE55
 8535 258d E2080000 		.4byte	.LLST60
 8536 2591 01       		.byte	0x1
 8537 2592 0D260000 		.4byte	0x260d
 8538 2596 2C       		.uleb128 0x2c
 8539 2597 97020000 		.4byte	.LASF481
 8540 259b 01       		.byte	0x1
 8541 259c CB02     		.2byte	0x2cb
 8542 259e 0D260000 		.4byte	0x260d
 8543 25a2 0E090000 		.4byte	.LLST61
 8544 25a6 33       		.uleb128 0x33
 8545 25a7 D1120000 		.4byte	.LASF475
 8546 25ab 01       		.byte	0x1
 8547 25ac CD02     		.2byte	0x2cd
 8548 25ae BC000000 		.4byte	0xbc
 8549 25b2 45090000 		.4byte	.LLST62
ARM GAS  C:\Users\EBANO_~1\AppData\Local\Temp\ccazSBuk.s 			page 177


 8550 25b6 34       		.uleb128 0x34
 8551 25b7 23300000 		.4byte	0x3023
 8552 25bb 02000000 		.4byte	.LBB81
 8553 25bf 10010000 		.4byte	.Ldebug_ranges0+0x110
 8554 25c3 01       		.byte	0x1
 8555 25c4 D002     		.2byte	0x2d0
 8556 25c6 E0250000 		.4byte	0x25e0
 8557 25ca 35       		.uleb128 0x35
 8558 25cb 34300000 		.4byte	0x3034
 8559 25cf 7B090000 		.4byte	.LLST63
 8560 25d3 3B       		.uleb128 0x3b
 8561 25d4 12000000 		.4byte	.LVL194
 8562 25d8 2E       		.uleb128 0x2e
 8563 25d9 01       		.byte	0x1
 8564 25da 50       		.byte	0x50
 8565 25db 02       		.byte	0x2
 8566 25dc 75       		.byte	0x75
 8567 25dd 00       		.sleb128 0
 8568 25de 00       		.byte	0
 8569 25df 00       		.byte	0
 8570 25e0 42       		.uleb128 0x42
 8571 25e1 32000000 		.4byte	.LVL198
 8572 25e5 91320000 		.4byte	0x3291
 8573 25e9 F8250000 		.4byte	0x25f8
 8574 25ed 2E       		.uleb128 0x2e
 8575 25ee 01       		.byte	0x1
 8576 25ef 51       		.byte	0x51
 8577 25f0 01       		.byte	0x1
 8578 25f1 30       		.byte	0x30
 8579 25f2 2E       		.uleb128 0x2e
 8580 25f3 01       		.byte	0x1
 8581 25f4 52       		.byte	0x52
 8582 25f5 01       		.byte	0x1
 8583 25f6 37       		.byte	0x37
 8584 25f7 00       		.byte	0
 8585 25f8 2D       		.uleb128 0x2d
 8586 25f9 44000000 		.4byte	.LVL200
 8587 25fd 91320000 		.4byte	0x3291
 8588 2601 2E       		.uleb128 0x2e
 8589 2602 01       		.byte	0x1
 8590 2603 51       		.byte	0x51
 8591 2604 01       		.byte	0x1
 8592 2605 30       		.byte	0x30
 8593 2606 2E       		.uleb128 0x2e
 8594 2607 01       		.byte	0x1
 8595 2608 52       		.byte	0x52
 8596 2609 01       		.byte	0x1
 8597 260a 35       		.byte	0x35
 8598 260b 00       		.byte	0
 8599 260c 00       		.byte	0
 8600 260d 0A       		.uleb128 0xa
 8601 260e 04       		.byte	0x4
 8602 260f 9E180000 		.4byte	0x189e
 8603 2613 3F       		.uleb128 0x3f
 8604 2614 01       		.byte	0x1
 8605 2615 431B0000 		.4byte	.LASF482
 8606 2619 01       		.byte	0x1
ARM GAS  C:\Users\EBANO_~1\AppData\Local\Temp\ccazSBuk.s 			page 178


 8607 261a 6202     		.2byte	0x262
 8608 261c 01       		.byte	0x1
 8609 261d BC000000 		.4byte	0xbc
 8610 2621 00000000 		.4byte	.LFB54
 8611 2625 20020000 		.4byte	.LFE54
 8612 2629 B0090000 		.4byte	.LLST51
 8613 262d 01       		.byte	0x1
 8614 262e 68270000 		.4byte	0x2768
 8615 2632 2C       		.uleb128 0x2c
 8616 2633 61110000 		.4byte	.LASF483
 8617 2637 01       		.byte	0x1
 8618 2638 6202     		.2byte	0x262
 8619 263a 68270000 		.4byte	0x2768
 8620 263e E9090000 		.4byte	.LLST52
 8621 2642 2C       		.uleb128 0x2c
 8622 2643 0B190000 		.4byte	.LASF484
 8623 2647 01       		.byte	0x1
 8624 2648 6202     		.2byte	0x262
 8625 264a 6E270000 		.4byte	0x276e
 8626 264e 390A0000 		.4byte	.LLST53
 8627 2652 2C       		.uleb128 0x2c
 8628 2653 9C170000 		.4byte	.LASF485
 8629 2657 01       		.byte	0x1
 8630 2658 6202     		.2byte	0x262
 8631 265a 6E270000 		.4byte	0x276e
 8632 265e 700A0000 		.4byte	.LLST54
 8633 2662 2C       		.uleb128 0x2c
 8634 2663 6B100000 		.4byte	.LASF486
 8635 2667 01       		.byte	0x1
 8636 2668 6202     		.2byte	0x262
 8637 266a 840A0000 		.4byte	0xa84
 8638 266e A70A0000 		.4byte	.LLST55
 8639 2672 31       		.uleb128 0x31
 8640 2673 730E0000 		.4byte	.LASF487
 8641 2677 01       		.byte	0x1
 8642 2678 6202     		.2byte	0x262
 8643 267a 840A0000 		.4byte	0xa84
 8644 267e 02       		.byte	0x2
 8645 267f 91       		.byte	0x91
 8646 2680 00       		.sleb128 0
 8647 2681 33       		.uleb128 0x33
 8648 2682 D1120000 		.4byte	.LASF475
 8649 2686 01       		.byte	0x1
 8650 2687 6402     		.2byte	0x264
 8651 2689 BC000000 		.4byte	0xbc
 8652 268d C70A0000 		.4byte	.LLST56
 8653 2691 2A       		.uleb128 0x2a
 8654 2692 051E0000 		.4byte	.LASF488
 8655 2696 01       		.byte	0x1
 8656 2697 6502     		.2byte	0x265
 8657 2699 D41B0000 		.4byte	0x1bd4
 8658 269d 03       		.byte	0x3
 8659 269e 91       		.byte	0x91
 8660 269f B07F     		.sleb128 -80
 8661 26a1 33       		.uleb128 0x33
 8662 26a2 B2090000 		.4byte	.LASF489
 8663 26a6 01       		.byte	0x1
ARM GAS  C:\Users\EBANO_~1\AppData\Local\Temp\ccazSBuk.s 			page 179


 8664 26a7 6602     		.2byte	0x266
 8665 26a9 BC000000 		.4byte	0xbc
 8666 26ad 6D0B0000 		.4byte	.LLST57
 8667 26b1 33       		.uleb128 0x33
 8668 26b2 630C0000 		.4byte	.LASF490
 8669 26b6 01       		.byte	0x1
 8670 26b7 6702     		.2byte	0x267
 8671 26b9 BC000000 		.4byte	0xbc
 8672 26bd 8C0B0000 		.4byte	.LLST58
 8673 26c1 2A       		.uleb128 0x2a
 8674 26c2 4F0A0000 		.4byte	.LASF491
 8675 26c6 01       		.byte	0x1
 8676 26c7 6802     		.2byte	0x268
 8677 26c9 D7000000 		.4byte	0xd7
 8678 26cd 03       		.byte	0x3
 8679 26ce 91       		.byte	0x91
 8680 26cf AE7F     		.sleb128 -82
 8681 26d1 32       		.uleb128 0x32
 8682 26d2 D3180000 		.4byte	.LASF492
 8683 26d6 01       		.byte	0x1
 8684 26d7 6902     		.2byte	0x269
 8685 26d9 01150000 		.4byte	0x1501
 8686 26dd 32       		.uleb128 0x32
 8687 26de 19040000 		.4byte	.LASF493
 8688 26e2 01       		.byte	0x1
 8689 26e3 6A02     		.2byte	0x26a
 8690 26e5 AB140000 		.4byte	0x14ab
 8691 26e9 2A       		.uleb128 0x2a
 8692 26ea 1C1C0000 		.4byte	.LASF494
 8693 26ee 01       		.byte	0x1
 8694 26ef 6B02     		.2byte	0x26b
 8695 26f1 CC1C0000 		.4byte	0x1ccc
 8696 26f5 03       		.byte	0x3
 8697 26f6 91       		.byte	0x91
 8698 26f7 B87F     		.sleb128 -72
 8699 26f9 49       		.uleb128 0x49
 8700 26fa E0000000 		.4byte	.Ldebug_ranges0+0xe0
 8701 26fe 11270000 		.4byte	0x2711
 8702 2702 4A       		.uleb128 0x4a
 8703 2703 6900     		.ascii	"i\000"
 8704 2705 01       		.byte	0x1
 8705 2706 8B02     		.2byte	0x28b
 8706 2708 BC000000 		.4byte	0xbc
 8707 270c CD0B0000 		.4byte	.LLST59
 8708 2710 00       		.byte	0
 8709 2711 42       		.uleb128 0x42
 8710 2712 3A000000 		.4byte	.LVL145
 8711 2716 0E330000 		.4byte	0x330e
 8712 271a 25270000 		.4byte	0x2725
 8713 271e 2E       		.uleb128 0x2e
 8714 271f 01       		.byte	0x1
 8715 2720 51       		.byte	0x51
 8716 2721 02       		.byte	0x2
 8717 2722 75       		.byte	0x75
 8718 2723 00       		.sleb128 0
 8719 2724 00       		.byte	0
 8720 2725 42       		.uleb128 0x42
ARM GAS  C:\Users\EBANO_~1\AppData\Local\Temp\ccazSBuk.s 			page 180


 8721 2726 18010000 		.4byte	.LVL159
 8722 272a 1C330000 		.4byte	0x331c
 8723 272e 4C270000 		.4byte	0x274c
 8724 2732 2E       		.uleb128 0x2e
 8725 2733 01       		.byte	0x1
 8726 2734 50       		.byte	0x50
 8727 2735 03       		.byte	0x3
 8728 2736 91       		.byte	0x91
 8729 2737 B87F     		.sleb128 -72
 8730 2739 2E       		.uleb128 0x2e
 8731 273a 01       		.byte	0x1
 8732 273b 51       		.byte	0x51
 8733 273c 02       		.byte	0x2
 8734 273d 77       		.byte	0x77
 8735 273e 03       		.sleb128 3
 8736 273f 2E       		.uleb128 0x2e
 8737 2740 01       		.byte	0x1
 8738 2741 52       		.byte	0x52
 8739 2742 02       		.byte	0x2
 8740 2743 77       		.byte	0x77
 8741 2744 04       		.sleb128 4
 8742 2745 2E       		.uleb128 0x2e
 8743 2746 01       		.byte	0x1
 8744 2747 53       		.byte	0x53
 8745 2748 02       		.byte	0x2
 8746 2749 75       		.byte	0x75
 8747 274a 00       		.sleb128 0
 8748 274b 00       		.byte	0
 8749 274c 2D       		.uleb128 0x2d
 8750 274d E6010000 		.4byte	.LVL177
 8751 2751 2A330000 		.4byte	0x332a
 8752 2755 2E       		.uleb128 0x2e
 8753 2756 01       		.byte	0x1
 8754 2757 50       		.byte	0x50
 8755 2758 03       		.byte	0x3
 8756 2759 79       		.byte	0x79
 8757 275a F000     		.sleb128 112
 8758 275c 2E       		.uleb128 0x2e
 8759 275d 01       		.byte	0x1
 8760 275e 51       		.byte	0x51
 8761 275f 01       		.byte	0x1
 8762 2760 30       		.byte	0x30
 8763 2761 2E       		.uleb128 0x2e
 8764 2762 01       		.byte	0x1
 8765 2763 52       		.byte	0x52
 8766 2764 01       		.byte	0x1
 8767 2765 32       		.byte	0x32
 8768 2766 00       		.byte	0
 8769 2767 00       		.byte	0
 8770 2768 0A       		.uleb128 0xa
 8771 2769 04       		.byte	0x4
 8772 276a 57180000 		.4byte	0x1857
 8773 276e 0A       		.uleb128 0xa
 8774 276f 04       		.byte	0x4
 8775 2770 B1000000 		.4byte	0xb1
 8776 2774 3F       		.uleb128 0x3f
 8777 2775 01       		.byte	0x1
ARM GAS  C:\Users\EBANO_~1\AppData\Local\Temp\ccazSBuk.s 			page 181


 8778 2776 0D180000 		.4byte	.LASF495
 8779 277a 01       		.byte	0x1
 8780 277b 4002     		.2byte	0x240
 8781 277d 01       		.byte	0x1
 8782 277e 150B0000 		.4byte	0xb15
 8783 2782 00000000 		.4byte	.LFB53
 8784 2786 3C010000 		.4byte	.LFE53
 8785 278a F50C0000 		.4byte	.LLST40
 8786 278e 01       		.byte	0x1
 8787 278f 5E290000 		.4byte	0x295e
 8788 2793 2C       		.uleb128 0x2c
 8789 2794 991B0000 		.4byte	.LASF496
 8790 2798 01       		.byte	0x1
 8791 2799 4002     		.2byte	0x240
 8792 279b 5E290000 		.4byte	0x295e
 8793 279f 2E0D0000 		.4byte	.LLST41
 8794 27a3 2C       		.uleb128 0x2c
 8795 27a4 3F110000 		.4byte	.LASF497
 8796 27a8 01       		.byte	0x1
 8797 27a9 4002     		.2byte	0x240
 8798 27ab 6E270000 		.4byte	0x276e
 8799 27af 650D0000 		.4byte	.LLST42
 8800 27b3 2C       		.uleb128 0x2c
 8801 27b4 BB130000 		.4byte	.LASF498
 8802 27b8 01       		.byte	0x1
 8803 27b9 4002     		.2byte	0x240
 8804 27bb AB220000 		.4byte	0x22ab
 8805 27bf 840D0000 		.4byte	.LLST43
 8806 27c3 33       		.uleb128 0x33
 8807 27c4 E11D0000 		.4byte	.LASF499
 8808 27c8 01       		.byte	0x1
 8809 27c9 4202     		.2byte	0x242
 8810 27cb D20B0000 		.4byte	0xbd2
 8811 27cf BB0D0000 		.4byte	.LLST44
 8812 27d3 33       		.uleb128 0x33
 8813 27d4 82040000 		.4byte	.LASF500
 8814 27d8 01       		.byte	0x1
 8815 27d9 4302     		.2byte	0x243
 8816 27db B1000000 		.4byte	0xb1
 8817 27df E60D0000 		.4byte	.LLST45
 8818 27e3 32       		.uleb128 0x32
 8819 27e4 1E140000 		.4byte	.LASF450
 8820 27e8 01       		.byte	0x1
 8821 27e9 4402     		.2byte	0x244
 8822 27eb B1000000 		.4byte	0xb1
 8823 27ef 32       		.uleb128 0x32
 8824 27f0 A5190000 		.4byte	.LASF501
 8825 27f4 01       		.byte	0x1
 8826 27f5 4502     		.2byte	0x245
 8827 27f7 ED000000 		.4byte	0xed
 8828 27fb 33       		.uleb128 0x33
 8829 27fc 07060000 		.4byte	.LASF448
 8830 2800 01       		.byte	0x1
 8831 2801 4602     		.2byte	0x246
 8832 2803 B1000000 		.4byte	0xb1
 8833 2807 100E0000 		.4byte	.LLST46
 8834 280b 34       		.uleb128 0x34
ARM GAS  C:\Users\EBANO_~1\AppData\Local\Temp\ccazSBuk.s 			page 182


 8835 280c 40300000 		.4byte	0x3040
 8836 2810 28000000 		.4byte	.LBB55
 8837 2814 90000000 		.4byte	.Ldebug_ranges0+0x90
 8838 2818 01       		.byte	0x1
 8839 2819 4402     		.2byte	0x244
 8840 281b 56280000 		.4byte	0x2856
 8841 281f 35       		.uleb128 0x35
 8842 2820 67300000 		.4byte	0x3067
 8843 2824 3A0E0000 		.4byte	.LLST47
 8844 2828 36       		.uleb128 0x36
 8845 2829 72300000 		.4byte	0x3072
 8846 282d 06       		.byte	0x6
 8847 282e 03       		.byte	0x3
 8848 282f 70000000 		.4byte	NvmCtx+112
 8849 2833 9F       		.byte	0x9f
 8850 2834 35       		.uleb128 0x35
 8851 2835 5C300000 		.4byte	0x305c
 8852 2839 740E0000 		.4byte	.LLST48
 8853 283d 35       		.uleb128 0x35
 8854 283e 51300000 		.4byte	0x3051
 8855 2842 EF0E0000 		.4byte	.LLST49
 8856 2846 38       		.uleb128 0x38
 8857 2847 90000000 		.4byte	.Ldebug_ranges0+0x90
 8858 284b 40       		.uleb128 0x40
 8859 284c 7D300000 		.4byte	0x307d
 8860 2850 EF0E0000 		.4byte	.LLST49
 8861 2854 00       		.byte	0
 8862 2855 00       		.byte	0
 8863 2856 34       		.uleb128 0x34
 8864 2857 89300000 		.4byte	0x3089
 8865 285b 4A000000 		.4byte	.LBB64
 8866 285f C0000000 		.4byte	.Ldebug_ranges0+0xc0
 8867 2863 01       		.byte	0x1
 8868 2864 4502     		.2byte	0x245
 8869 2866 70280000 		.4byte	0x2870
 8870 286a 37       		.uleb128 0x37
 8871 286b 9A300000 		.4byte	0x309a
 8872 286f 00       		.byte	0
 8873 2870 42       		.uleb128 0x42
 8874 2871 6E000000 		.4byte	.LVL124
 8875 2875 83320000 		.4byte	0x3283
 8876 2879 84280000 		.4byte	0x2884
 8877 287d 2E       		.uleb128 0x2e
 8878 287e 01       		.byte	0x1
 8879 287f 50       		.byte	0x50
 8880 2880 02       		.byte	0x2
 8881 2881 79       		.byte	0x79
 8882 2882 00       		.sleb128 0
 8883 2883 00       		.byte	0
 8884 2884 48       		.uleb128 0x48
 8885 2885 82000000 		.4byte	.LVL126
 8886 2889 03       		.byte	0x3
 8887 288a 75       		.byte	0x75
 8888 288b 14       		.sleb128 20
 8889 288c 06       		.byte	0x6
 8890 288d 4B       		.uleb128 0x4b
 8891 288e B4000000 		.4byte	.LVL129
ARM GAS  C:\Users\EBANO_~1\AppData\Local\Temp\ccazSBuk.s 			page 183


 8892 2892 02       		.byte	0x2
 8893 2893 76       		.byte	0x76
 8894 2894 00       		.sleb128 0
 8895 2895 E2280000 		.4byte	0x28e2
 8896 2899 2E       		.uleb128 0x2e
 8897 289a 01       		.byte	0x1
 8898 289b 50       		.byte	0x50
 8899 289c 01       		.byte	0x1
 8900 289d 31       		.byte	0x31
 8901 289e 2E       		.uleb128 0x2e
 8902 289f 01       		.byte	0x1
 8903 28a0 51       		.byte	0x51
 8904 28a1 02       		.byte	0x2
 8905 28a2 7B       		.byte	0x7b
 8906 28a3 00       		.sleb128 0
 8907 28a4 2E       		.uleb128 0x2e
 8908 28a5 01       		.byte	0x1
 8909 28a6 52       		.byte	0x52
 8910 28a7 01       		.byte	0x1
 8911 28a8 30       		.byte	0x30
 8912 28a9 2E       		.uleb128 0x2e
 8913 28aa 01       		.byte	0x1
 8914 28ab 53       		.byte	0x53
 8915 28ac 02       		.byte	0x2
 8916 28ad 7A       		.byte	0x7a
 8917 28ae 00       		.sleb128 0
 8918 28af 2E       		.uleb128 0x2e
 8919 28b0 02       		.byte	0x2
 8920 28b1 7D       		.byte	0x7d
 8921 28b2 04       		.sleb128 4
 8922 28b3 01       		.byte	0x1
 8923 28b4 31       		.byte	0x31
 8924 28b5 2E       		.uleb128 0x2e
 8925 28b6 02       		.byte	0x2
 8926 28b7 7D       		.byte	0x7d
 8927 28b8 08       		.sleb128 8
 8928 28b9 01       		.byte	0x1
 8929 28ba 38       		.byte	0x38
 8930 28bb 2E       		.uleb128 0x2e
 8931 28bc 02       		.byte	0x2
 8932 28bd 7D       		.byte	0x7d
 8933 28be 0C       		.sleb128 12
 8934 28bf 01       		.byte	0x1
 8935 28c0 30       		.byte	0x30
 8936 28c1 2E       		.uleb128 0x2e
 8937 28c2 02       		.byte	0x2
 8938 28c3 7D       		.byte	0x7d
 8939 28c4 10       		.sleb128 16
 8940 28c5 01       		.byte	0x1
 8941 28c6 31       		.byte	0x31
 8942 28c7 2E       		.uleb128 0x2e
 8943 28c8 02       		.byte	0x2
 8944 28c9 7D       		.byte	0x7d
 8945 28ca 14       		.sleb128 20
 8946 28cb 01       		.byte	0x1
 8947 28cc 30       		.byte	0x30
 8948 28cd 2E       		.uleb128 0x2e
ARM GAS  C:\Users\EBANO_~1\AppData\Local\Temp\ccazSBuk.s 			page 184


 8949 28ce 02       		.byte	0x2
 8950 28cf 7D       		.byte	0x7d
 8951 28d0 18       		.sleb128 24
 8952 28d1 01       		.byte	0x1
 8953 28d2 30       		.byte	0x30
 8954 28d3 2E       		.uleb128 0x2e
 8955 28d4 02       		.byte	0x2
 8956 28d5 7D       		.byte	0x7d
 8957 28d6 1C       		.sleb128 28
 8958 28d7 01       		.byte	0x1
 8959 28d8 30       		.byte	0x30
 8960 28d9 2E       		.uleb128 0x2e
 8961 28da 02       		.byte	0x2
 8962 28db 7D       		.byte	0x7d
 8963 28dc 20       		.sleb128 32
 8964 28dd 03       		.byte	0x3
 8965 28de 0A       		.byte	0xa
 8966 28df B80B     		.2byte	0xbb8
 8967 28e1 00       		.byte	0
 8968 28e2 4B       		.uleb128 0x4b
 8969 28e3 C0000000 		.4byte	.LVL131
 8970 28e7 03       		.byte	0x3
 8971 28e8 91       		.byte	0x91
 8972 28e9 54       		.sleb128 -44
 8973 28ea 06       		.byte	0x6
 8974 28eb F6280000 		.4byte	0x28f6
 8975 28ef 2E       		.uleb128 0x2e
 8976 28f0 01       		.byte	0x1
 8977 28f1 50       		.byte	0x50
 8978 28f2 02       		.byte	0x2
 8979 28f3 76       		.byte	0x76
 8980 28f4 00       		.sleb128 0
 8981 28f5 00       		.byte	0
 8982 28f6 4B       		.uleb128 0x4b
 8983 28f7 CA000000 		.4byte	.LVL132
 8984 28fb 03       		.byte	0x3
 8985 28fc 91       		.byte	0x91
 8986 28fd 54       		.sleb128 -44
 8987 28fe 06       		.byte	0x6
 8988 28ff 0A290000 		.4byte	0x290a
 8989 2903 2E       		.uleb128 0x2e
 8990 2904 01       		.byte	0x1
 8991 2905 50       		.byte	0x50
 8992 2906 02       		.byte	0x2
 8993 2907 76       		.byte	0x76
 8994 2908 00       		.sleb128 0
 8995 2909 00       		.byte	0
 8996 290a 4C       		.uleb128 0x4c
 8997 290b 1A010000 		.4byte	.LVL141
 8998 290f 02       		.byte	0x2
 8999 2910 76       		.byte	0x76
 9000 2911 00       		.sleb128 0
 9001 2912 2E       		.uleb128 0x2e
 9002 2913 01       		.byte	0x1
 9003 2914 50       		.byte	0x50
 9004 2915 01       		.byte	0x1
 9005 2916 30       		.byte	0x30
ARM GAS  C:\Users\EBANO_~1\AppData\Local\Temp\ccazSBuk.s 			page 185


 9006 2917 2E       		.uleb128 0x2e
 9007 2918 01       		.byte	0x1
 9008 2919 51       		.byte	0x51
 9009 291a 02       		.byte	0x2
 9010 291b 7B       		.byte	0x7b
 9011 291c 00       		.sleb128 0
 9012 291d 2E       		.uleb128 0x2e
 9013 291e 01       		.byte	0x1
 9014 291f 52       		.byte	0x52
 9015 2920 03       		.byte	0x3
 9016 2921 0A       		.byte	0xa
 9017 2922 A861     		.2byte	0x61a8
 9018 2924 2E       		.uleb128 0x2e
 9019 2925 01       		.byte	0x1
 9020 2926 53       		.byte	0x53
 9021 2927 02       		.byte	0x2
 9022 2928 7A       		.byte	0x7a
 9023 2929 00       		.sleb128 0
 9024 292a 2E       		.uleb128 0x2e
 9025 292b 02       		.byte	0x2
 9026 292c 7D       		.byte	0x7d
 9027 292d 04       		.sleb128 4
 9028 292e 01       		.byte	0x1
 9029 292f 30       		.byte	0x30
 9030 2930 2E       		.uleb128 0x2e
 9031 2931 02       		.byte	0x2
 9032 2932 7D       		.byte	0x7d
 9033 2933 08       		.sleb128 8
 9034 2934 01       		.byte	0x1
 9035 2935 35       		.byte	0x35
 9036 2936 2E       		.uleb128 0x2e
 9037 2937 02       		.byte	0x2
 9038 2938 7D       		.byte	0x7d
 9039 2939 0C       		.sleb128 12
 9040 293a 01       		.byte	0x1
 9041 293b 30       		.byte	0x30
 9042 293c 2E       		.uleb128 0x2e
 9043 293d 02       		.byte	0x2
 9044 293e 7D       		.byte	0x7d
 9045 293f 10       		.sleb128 16
 9046 2940 01       		.byte	0x1
 9047 2941 31       		.byte	0x31
 9048 2942 2E       		.uleb128 0x2e
 9049 2943 02       		.byte	0x2
 9050 2944 7D       		.byte	0x7d
 9051 2945 14       		.sleb128 20
 9052 2946 01       		.byte	0x1
 9053 2947 30       		.byte	0x30
 9054 2948 2E       		.uleb128 0x2e
 9055 2949 02       		.byte	0x2
 9056 294a 7D       		.byte	0x7d
 9057 294b 18       		.sleb128 24
 9058 294c 01       		.byte	0x1
 9059 294d 30       		.byte	0x30
 9060 294e 2E       		.uleb128 0x2e
 9061 294f 02       		.byte	0x2
 9062 2950 7D       		.byte	0x7d
ARM GAS  C:\Users\EBANO_~1\AppData\Local\Temp\ccazSBuk.s 			page 186


 9063 2951 1C       		.sleb128 28
 9064 2952 01       		.byte	0x1
 9065 2953 30       		.byte	0x30
 9066 2954 2E       		.uleb128 0x2e
 9067 2955 02       		.byte	0x2
 9068 2956 7D       		.byte	0x7d
 9069 2957 20       		.sleb128 32
 9070 2958 03       		.byte	0x3
 9071 2959 0A       		.byte	0xa
 9072 295a B80B     		.2byte	0xbb8
 9073 295c 00       		.byte	0
 9074 295d 00       		.byte	0
 9075 295e 0A       		.uleb128 0xa
 9076 295f 04       		.byte	0x4
 9077 2960 C5170000 		.4byte	0x17c5
 9078 2964 3F       		.uleb128 0x3f
 9079 2965 01       		.byte	0x1
 9080 2966 57160000 		.4byte	.LASF502
 9081 296a 01       		.byte	0x1
 9082 296b 0702     		.2byte	0x207
 9083 296d 01       		.byte	0x1
 9084 296e 150B0000 		.4byte	0xb15
 9085 2972 00000000 		.4byte	.LFB52
 9086 2976 0C010000 		.4byte	.LFE52
 9087 297a 030F0000 		.4byte	.LLST32
 9088 297e 01       		.byte	0x1
 9089 297f C32A0000 		.4byte	0x2ac3
 9090 2983 2C       		.uleb128 0x2c
 9091 2984 0F1A0000 		.4byte	.LASF503
 9092 2988 01       		.byte	0x1
 9093 2989 0702     		.2byte	0x207
 9094 298b C32A0000 		.4byte	0x2ac3
 9095 298f 3C0F0000 		.4byte	.LLST33
 9096 2993 2C       		.uleb128 0x2c
 9097 2994 B8040000 		.4byte	.LASF444
 9098 2998 01       		.byte	0x1
 9099 2999 0702     		.2byte	0x207
 9100 299b 6E270000 		.4byte	0x276e
 9101 299f 730F0000 		.4byte	.LLST34
 9102 29a3 33       		.uleb128 0x33
 9103 29a4 E11D0000 		.4byte	.LASF499
 9104 29a8 01       		.byte	0x1
 9105 29a9 0902     		.2byte	0x209
 9106 29ab D20B0000 		.4byte	0xbd2
 9107 29af AA0F0000 		.4byte	.LLST35
 9108 29b3 4A       		.uleb128 0x4a
 9109 29b4 647200   		.ascii	"dr\000"
 9110 29b7 01       		.byte	0x1
 9111 29b8 0A02     		.2byte	0x20a
 9112 29ba B1000000 		.4byte	0xb1
 9113 29be E00F0000 		.4byte	.LLST36
 9114 29c2 33       		.uleb128 0x33
 9115 29c3 41140000 		.4byte	.LASF504
 9116 29c7 01       		.byte	0x1
 9117 29c8 0B02     		.2byte	0x20b
 9118 29ca BC000000 		.4byte	0xbc
 9119 29ce FE0F0000 		.4byte	.LLST37
ARM GAS  C:\Users\EBANO_~1\AppData\Local\Temp\ccazSBuk.s 			page 187


 9120 29d2 33       		.uleb128 0x33
 9121 29d3 82040000 		.4byte	.LASF500
 9122 29d7 01       		.byte	0x1
 9123 29d8 0C02     		.2byte	0x20c
 9124 29da B1000000 		.4byte	0xb1
 9125 29de 40100000 		.4byte	.LLST38
 9126 29e2 33       		.uleb128 0x33
 9127 29e3 F41F0000 		.4byte	.LASF449
 9128 29e7 01       		.byte	0x1
 9129 29e8 0D02     		.2byte	0x20d
 9130 29ea ED000000 		.4byte	0xed
 9131 29ee 76100000 		.4byte	.LLST39
 9132 29f2 48       		.uleb128 0x48
 9133 29f3 20000000 		.4byte	.LVL93
 9134 29f7 03       		.byte	0x3
 9135 29f8 75       		.byte	0x75
 9136 29f9 0C       		.sleb128 12
 9137 29fa 06       		.byte	0x6
 9138 29fb 4B       		.uleb128 0x4b
 9139 29fc 54000000 		.4byte	.LVL97
 9140 2a00 03       		.byte	0x3
 9141 2a01 91       		.byte	0x91
 9142 2a02 5C       		.sleb128 -36
 9143 2a03 06       		.byte	0x6
 9144 2a04 0F2A0000 		.4byte	0x2a0f
 9145 2a08 2E       		.uleb128 0x2e
 9146 2a09 01       		.byte	0x1
 9147 2a0a 50       		.byte	0x50
 9148 2a0b 02       		.byte	0x2
 9149 2a0c 78       		.byte	0x78
 9150 2a0d 00       		.sleb128 0
 9151 2a0e 00       		.byte	0
 9152 2a0f 4B       		.uleb128 0x4b
 9153 2a10 86000000 		.4byte	.LVL99
 9154 2a14 02       		.byte	0x2
 9155 2a15 77       		.byte	0x77
 9156 2a16 00       		.sleb128 0
 9157 2a17 5C2A0000 		.4byte	0x2a5c
 9158 2a1b 2E       		.uleb128 0x2e
 9159 2a1c 01       		.byte	0x1
 9160 2a1d 50       		.byte	0x50
 9161 2a1e 01       		.byte	0x1
 9162 2a1f 31       		.byte	0x31
 9163 2a20 2E       		.uleb128 0x2e
 9164 2a21 01       		.byte	0x1
 9165 2a22 52       		.byte	0x52
 9166 2a23 02       		.byte	0x2
 9167 2a24 79       		.byte	0x79
 9168 2a25 00       		.sleb128 0
 9169 2a26 2E       		.uleb128 0x2e
 9170 2a27 01       		.byte	0x1
 9171 2a28 53       		.byte	0x53
 9172 2a29 01       		.byte	0x1
 9173 2a2a 31       		.byte	0x31
 9174 2a2b 2E       		.uleb128 0x2e
 9175 2a2c 02       		.byte	0x2
 9176 2a2d 7D       		.byte	0x7d
ARM GAS  C:\Users\EBANO_~1\AppData\Local\Temp\ccazSBuk.s 			page 188


 9177 2a2e 00       		.sleb128 0
 9178 2a2f 01       		.byte	0x1
 9179 2a30 30       		.byte	0x30
 9180 2a31 2E       		.uleb128 0x2e
 9181 2a32 02       		.byte	0x2
 9182 2a33 7D       		.byte	0x7d
 9183 2a34 04       		.sleb128 4
 9184 2a35 01       		.byte	0x1
 9185 2a36 38       		.byte	0x38
 9186 2a37 2E       		.uleb128 0x2e
 9187 2a38 02       		.byte	0x2
 9188 2a39 7D       		.byte	0x7d
 9189 2a3a 0C       		.sleb128 12
 9190 2a3b 01       		.byte	0x1
 9191 2a3c 30       		.byte	0x30
 9192 2a3d 2E       		.uleb128 0x2e
 9193 2a3e 02       		.byte	0x2
 9194 2a3f 7D       		.byte	0x7d
 9195 2a40 10       		.sleb128 16
 9196 2a41 01       		.byte	0x1
 9197 2a42 30       		.byte	0x30
 9198 2a43 2E       		.uleb128 0x2e
 9199 2a44 02       		.byte	0x2
 9200 2a45 7D       		.byte	0x7d
 9201 2a46 14       		.sleb128 20
 9202 2a47 01       		.byte	0x1
 9203 2a48 30       		.byte	0x30
 9204 2a49 2E       		.uleb128 0x2e
 9205 2a4a 02       		.byte	0x2
 9206 2a4b 7D       		.byte	0x7d
 9207 2a4c 18       		.sleb128 24
 9208 2a4d 01       		.byte	0x1
 9209 2a4e 30       		.byte	0x30
 9210 2a4f 2E       		.uleb128 0x2e
 9211 2a50 02       		.byte	0x2
 9212 2a51 7D       		.byte	0x7d
 9213 2a52 1C       		.sleb128 28
 9214 2a53 01       		.byte	0x1
 9215 2a54 30       		.byte	0x30
 9216 2a55 2E       		.uleb128 0x2e
 9217 2a56 02       		.byte	0x2
 9218 2a57 7D       		.byte	0x7d
 9219 2a58 20       		.sleb128 32
 9220 2a59 01       		.byte	0x1
 9221 2a5a 31       		.byte	0x31
 9222 2a5b 00       		.byte	0
 9223 2a5c 48       		.uleb128 0x48
 9224 2a5d 9E000000 		.4byte	.LVL103
 9225 2a61 03       		.byte	0x3
 9226 2a62 91       		.byte	0x91
 9227 2a63 5C       		.sleb128 -36
 9228 2a64 06       		.byte	0x6
 9229 2a65 3B       		.uleb128 0x3b
 9230 2a66 EC000000 		.4byte	.LVL112
 9231 2a6a 2E       		.uleb128 0x2e
 9232 2a6b 01       		.byte	0x1
 9233 2a6c 50       		.byte	0x50
ARM GAS  C:\Users\EBANO_~1\AppData\Local\Temp\ccazSBuk.s 			page 189


 9234 2a6d 01       		.byte	0x1
 9235 2a6e 30       		.byte	0x30
 9236 2a6f 2E       		.uleb128 0x2e
 9237 2a70 01       		.byte	0x1
 9238 2a71 51       		.byte	0x51
 9239 2a72 03       		.byte	0x3
 9240 2a73 0A       		.byte	0xa
 9241 2a74 50C3     		.2byte	0xc350
 9242 2a76 2E       		.uleb128 0x2e
 9243 2a77 01       		.byte	0x1
 9244 2a78 52       		.byte	0x52
 9245 2a79 0E       		.byte	0xe
 9246 2a7a 79       		.byte	0x79
 9247 2a7b 00       		.sleb128 0
 9248 2a7c 35       		.byte	0x35
 9249 2a7d 24       		.byte	0x24
 9250 2a7e 79       		.byte	0x79
 9251 2a7f 00       		.sleb128 0
 9252 2a80 1C       		.byte	0x1c
 9253 2a81 32       		.byte	0x32
 9254 2a82 24       		.byte	0x24
 9255 2a83 79       		.byte	0x79
 9256 2a84 00       		.sleb128 0
 9257 2a85 22       		.byte	0x22
 9258 2a86 33       		.byte	0x33
 9259 2a87 24       		.byte	0x24
 9260 2a88 2E       		.uleb128 0x2e
 9261 2a89 01       		.byte	0x1
 9262 2a8a 53       		.byte	0x53
 9263 2a8b 01       		.byte	0x1
 9264 2a8c 30       		.byte	0x30
 9265 2a8d 2E       		.uleb128 0x2e
 9266 2a8e 02       		.byte	0x2
 9267 2a8f 7D       		.byte	0x7d
 9268 2a90 00       		.sleb128 0
 9269 2a91 05       		.byte	0x5
 9270 2a92 0C       		.byte	0xc
 9271 2a93 85450100 		.4byte	0x14585
 9272 2a97 2E       		.uleb128 0x2e
 9273 2a98 02       		.byte	0x2
 9274 2a99 7D       		.byte	0x7d
 9275 2a9a 04       		.sleb128 4
 9276 2a9b 01       		.byte	0x1
 9277 2a9c 35       		.byte	0x35
 9278 2a9d 2E       		.uleb128 0x2e
 9279 2a9e 02       		.byte	0x2
 9280 2a9f 7D       		.byte	0x7d
 9281 2aa0 0C       		.sleb128 12
 9282 2aa1 01       		.byte	0x1
 9283 2aa2 30       		.byte	0x30
 9284 2aa3 2E       		.uleb128 0x2e
 9285 2aa4 02       		.byte	0x2
 9286 2aa5 7D       		.byte	0x7d
 9287 2aa6 10       		.sleb128 16
 9288 2aa7 01       		.byte	0x1
 9289 2aa8 30       		.byte	0x30
 9290 2aa9 2E       		.uleb128 0x2e
ARM GAS  C:\Users\EBANO_~1\AppData\Local\Temp\ccazSBuk.s 			page 190


 9291 2aaa 02       		.byte	0x2
 9292 2aab 7D       		.byte	0x7d
 9293 2aac 14       		.sleb128 20
 9294 2aad 01       		.byte	0x1
 9295 2aae 31       		.byte	0x31
 9296 2aaf 2E       		.uleb128 0x2e
 9297 2ab0 02       		.byte	0x2
 9298 2ab1 7D       		.byte	0x7d
 9299 2ab2 18       		.sleb128 24
 9300 2ab3 01       		.byte	0x1
 9301 2ab4 30       		.byte	0x30
 9302 2ab5 2E       		.uleb128 0x2e
 9303 2ab6 02       		.byte	0x2
 9304 2ab7 7D       		.byte	0x7d
 9305 2ab8 1C       		.sleb128 28
 9306 2ab9 01       		.byte	0x1
 9307 2aba 30       		.byte	0x30
 9308 2abb 2E       		.uleb128 0x2e
 9309 2abc 02       		.byte	0x2
 9310 2abd 7D       		.byte	0x7d
 9311 2abe 20       		.sleb128 32
 9312 2abf 01       		.byte	0x1
 9313 2ac0 30       		.byte	0x30
 9314 2ac1 00       		.byte	0
 9315 2ac2 00       		.byte	0
 9316 2ac3 0A       		.uleb128 0xa
 9317 2ac4 04       		.byte	0x4
 9318 2ac5 51170000 		.4byte	0x1751
 9319 2ac9 2B       		.uleb128 0x2b
 9320 2aca 01       		.byte	0x1
 9321 2acb 78150000 		.4byte	.LASF505
 9322 2acf 01       		.byte	0x1
 9323 2ad0 F301     		.2byte	0x1f3
 9324 2ad2 01       		.byte	0x1
 9325 2ad3 00000000 		.4byte	.LFB51
 9326 2ad7 94000000 		.4byte	.LFE51
 9327 2adb B5100000 		.4byte	.LLST26
 9328 2adf 01       		.byte	0x1
 9329 2ae0 B72B0000 		.4byte	0x2bb7
 9330 2ae4 2C       		.uleb128 0x2c
 9331 2ae5 B8040000 		.4byte	.LASF444
 9332 2ae9 01       		.byte	0x1
 9333 2aea F301     		.2byte	0x1f3
 9334 2aec B1000000 		.4byte	0xb1
 9335 2af0 ED100000 		.4byte	.LLST27
 9336 2af4 2C       		.uleb128 0x2c
 9337 2af5 D6140000 		.4byte	.LASF506
 9338 2af9 01       		.byte	0x1
 9339 2afa F301     		.2byte	0x1f3
 9340 2afc BC000000 		.4byte	0xbc
 9341 2b00 27110000 		.4byte	.LLST28
 9342 2b04 2C       		.uleb128 0x2c
 9343 2b05 1B190000 		.4byte	.LASF507
 9344 2b09 01       		.byte	0x1
 9345 2b0a F301     		.2byte	0x1f3
 9346 2b0c ED000000 		.4byte	0xed
 9347 2b10 48110000 		.4byte	.LLST29
ARM GAS  C:\Users\EBANO_~1\AppData\Local\Temp\ccazSBuk.s 			page 191


 9348 2b14 2C       		.uleb128 0x2c
 9349 2b15 E8090000 		.4byte	.LASF508
 9350 2b19 01       		.byte	0x1
 9351 2b1a F301     		.2byte	0x1f3
 9352 2b1c C32A0000 		.4byte	0x2ac3
 9353 2b20 7F110000 		.4byte	.LLST30
 9354 2b24 33       		.uleb128 0x33
 9355 2b25 431A0000 		.4byte	.LASF509
 9356 2b29 01       		.byte	0x1
 9357 2b2a F501     		.2byte	0x1f5
 9358 2b2c B72B0000 		.4byte	0x2bb7
 9359 2b30 EB110000 		.4byte	.LLST31
 9360 2b34 34       		.uleb128 0x34
 9361 2b35 89300000 		.4byte	0x3089
 9362 2b39 18000000 		.4byte	.LBB49
 9363 2b3d 70000000 		.4byte	.Ldebug_ranges0+0x70
 9364 2b41 01       		.byte	0x1
 9365 2b42 F901     		.2byte	0x1f9
 9366 2b44 4E2B0000 		.4byte	0x2b4e
 9367 2b48 37       		.uleb128 0x37
 9368 2b49 9A300000 		.4byte	0x309a
 9369 2b4d 00       		.byte	0
 9370 2b4e 42       		.uleb128 0x42
 9371 2b4f 44000000 		.4byte	.LVL77
 9372 2b53 37330000 		.4byte	0x3337
 9373 2b57 792B0000 		.4byte	0x2b79
 9374 2b5b 2E       		.uleb128 0x2e
 9375 2b5c 01       		.byte	0x1
 9376 2b5d 50       		.byte	0x50
 9377 2b5e 0A       		.byte	0xa
 9378 2b5f 76       		.byte	0x76
 9379 2b60 00       		.sleb128 0
 9380 2b61 03       		.byte	0x3
 9381 2b62 EC000000 		.4byte	.LANCHOR2+32
 9382 2b66 22       		.byte	0x22
 9383 2b67 94       		.byte	0x94
 9384 2b68 01       		.byte	0x1
 9385 2b69 2E       		.uleb128 0x2e
 9386 2b6a 01       		.byte	0x1
 9387 2b6b 51       		.byte	0x51
 9388 2b6c 0B       		.byte	0xb
 9389 2b6d 76       		.byte	0x76
 9390 2b6e 00       		.sleb128 0
 9391 2b6f 32       		.byte	0x32
 9392 2b70 24       		.byte	0x24
 9393 2b71 03       		.byte	0x3
 9394 2b72 CC000000 		.4byte	.LANCHOR2
 9395 2b76 22       		.byte	0x22
 9396 2b77 06       		.byte	0x6
 9397 2b78 00       		.byte	0
 9398 2b79 4D       		.uleb128 0x4d
 9399 2b7a 50000000 		.4byte	.LVL79
 9400 2b7e 42       		.uleb128 0x42
 9401 2b7f 68000000 		.4byte	.LVL83
 9402 2b83 45330000 		.4byte	0x3345
 9403 2b87 A62B0000 		.4byte	0x2ba6
 9404 2b8b 2E       		.uleb128 0x2e
ARM GAS  C:\Users\EBANO_~1\AppData\Local\Temp\ccazSBuk.s 			page 192


 9405 2b8c 01       		.byte	0x1
 9406 2b8d 52       		.byte	0x52
 9407 2b8e 02       		.byte	0x2
 9408 2b8f 75       		.byte	0x75
 9409 2b90 00       		.sleb128 0
 9410 2b91 2E       		.uleb128 0x2e
 9411 2b92 01       		.byte	0x1
 9412 2b93 53       		.byte	0x53
 9413 2b94 02       		.byte	0x2
 9414 2b95 78       		.byte	0x78
 9415 2b96 00       		.sleb128 0
 9416 2b97 2E       		.uleb128 0x2e
 9417 2b98 02       		.byte	0x2
 9418 2b99 7D       		.byte	0x7d
 9419 2b9a 04       		.sleb128 4
 9420 2b9b 02       		.byte	0x2
 9421 2b9c 74       		.byte	0x74
 9422 2b9d 00       		.sleb128 0
 9423 2b9e 2E       		.uleb128 0x2e
 9424 2b9f 02       		.byte	0x2
 9425 2ba0 7D       		.byte	0x7d
 9426 2ba1 08       		.sleb128 8
 9427 2ba2 02       		.byte	0x2
 9428 2ba3 74       		.byte	0x74
 9429 2ba4 04       		.sleb128 4
 9430 2ba5 00       		.byte	0
 9431 2ba6 2D       		.uleb128 0x2d
 9432 2ba7 7E000000 		.4byte	.LVL89
 9433 2bab 53330000 		.4byte	0x3353
 9434 2baf 2E       		.uleb128 0x2e
 9435 2bb0 01       		.byte	0x1
 9436 2bb1 50       		.byte	0x50
 9437 2bb2 02       		.byte	0x2
 9438 2bb3 08       		.byte	0x8
 9439 2bb4 32       		.byte	0x32
 9440 2bb5 00       		.byte	0
 9441 2bb6 00       		.byte	0
 9442 2bb7 02       		.uleb128 0x2
 9443 2bb8 08       		.byte	0x8
 9444 2bb9 04       		.byte	0x4
 9445 2bba AF190000 		.4byte	.LASF510
 9446 2bbe 3F       		.uleb128 0x3f
 9447 2bbf 01       		.byte	0x1
 9448 2bc0 5E210000 		.4byte	.LASF511
 9449 2bc4 01       		.byte	0x1
 9450 2bc5 DF01     		.2byte	0x1df
 9451 2bc7 01       		.byte	0x1
 9452 2bc8 150B0000 		.4byte	0xb15
 9453 2bcc 00000000 		.4byte	.LFB50
 9454 2bd0 34000000 		.4byte	.LFE50
 9455 2bd4 3B120000 		.4byte	.LLST24
 9456 2bd8 01       		.byte	0x1
 9457 2bd9 222C0000 		.4byte	0x2c22
 9458 2bdd 2C       		.uleb128 0x2c
 9459 2bde BA000000 		.4byte	.LASF512
 9460 2be2 01       		.byte	0x1
 9461 2be3 DF01     		.2byte	0x1df
ARM GAS  C:\Users\EBANO_~1\AppData\Local\Temp\ccazSBuk.s 			page 193


 9462 2be5 222C0000 		.4byte	0x2c22
 9463 2be9 5B120000 		.4byte	.LLST25
 9464 2bed 42       		.uleb128 0x42
 9465 2bee 1C000000 		.4byte	.LVL67
 9466 2bf2 61330000 		.4byte	0x3361
 9467 2bf6 092C0000 		.4byte	0x2c09
 9468 2bfa 2E       		.uleb128 0x2e
 9469 2bfb 01       		.byte	0x1
 9470 2bfc 50       		.byte	0x50
 9471 2bfd 05       		.byte	0x5
 9472 2bfe 03       		.byte	0x3
 9473 2bff 72000000 		.4byte	.LANCHOR1+114
 9474 2c03 2E       		.uleb128 0x2e
 9475 2c04 01       		.byte	0x1
 9476 2c05 52       		.byte	0x52
 9477 2c06 01       		.byte	0x1
 9478 2c07 31       		.byte	0x31
 9479 2c08 00       		.byte	0
 9480 2c09 2D       		.uleb128 0x2d
 9481 2c0a 2C000000 		.4byte	.LVL70
 9482 2c0e 61330000 		.4byte	0x3361
 9483 2c12 2E       		.uleb128 0x2e
 9484 2c13 01       		.byte	0x1
 9485 2c14 50       		.byte	0x50
 9486 2c15 05       		.byte	0x5
 9487 2c16 03       		.byte	0x3
 9488 2c17 70000000 		.4byte	.LANCHOR1+112
 9489 2c1b 2E       		.uleb128 0x2e
 9490 2c1c 01       		.byte	0x1
 9491 2c1d 52       		.byte	0x52
 9492 2c1e 01       		.byte	0x1
 9493 2c1f 31       		.byte	0x31
 9494 2c20 00       		.byte	0
 9495 2c21 00       		.byte	0
 9496 2c22 0A       		.uleb128 0xa
 9497 2c23 04       		.byte	0x4
 9498 2c24 92160000 		.4byte	0x1692
 9499 2c28 2B       		.uleb128 0x2b
 9500 2c29 01       		.byte	0x1
 9501 2c2a 29040000 		.4byte	.LASF513
 9502 2c2e 01       		.byte	0x1
 9503 2c2f A401     		.2byte	0x1a4
 9504 2c31 01       		.byte	0x1
 9505 2c32 00000000 		.4byte	.LFB49
 9506 2c36 5C010000 		.4byte	.LFE49
 9507 2c3a AE120000 		.4byte	.LLST13
 9508 2c3e 01       		.byte	0x1
 9509 2c3f DD2D0000 		.4byte	0x2ddd
 9510 2c43 2C       		.uleb128 0x2c
 9511 2c44 97050000 		.4byte	.LASF514
 9512 2c48 01       		.byte	0x1
 9513 2c49 A401     		.2byte	0x1a4
 9514 2c4b DD2D0000 		.4byte	0x2ddd
 9515 2c4f E7120000 		.4byte	.LLST14
 9516 2c53 2A       		.uleb128 0x2a
 9517 2c54 75190000 		.4byte	.LASF515
 9518 2c58 01       		.byte	0x1
ARM GAS  C:\Users\EBANO_~1\AppData\Local\Temp\ccazSBuk.s 			page 194


 9519 2c59 A601     		.2byte	0x1a6
 9520 2c5b 41110000 		.4byte	0x1141
 9521 2c5f 02       		.byte	0x2
 9522 2c60 91       		.byte	0x91
 9523 2c61 4C       		.sleb128 -52
 9524 2c62 32       		.uleb128 0x32
 9525 2c63 CD130000 		.4byte	.LASF454
 9526 2c67 01       		.byte	0x1
 9527 2c68 A701     		.2byte	0x1a7
 9528 2c6a 911A0000 		.4byte	0x1a91
 9529 2c6e 32       		.uleb128 0x32
 9530 2c6f C91F0000 		.4byte	.LASF453
 9531 2c73 01       		.byte	0x1
 9532 2c74 A801     		.2byte	0x1a8
 9533 2c76 BA1A0000 		.4byte	0x1aba
 9534 2c7a 38       		.uleb128 0x38
 9535 2c7b 00000000 		.4byte	.Ldebug_ranges0+0
 9536 2c7f 4A       		.uleb128 0x4a
 9537 2c80 6900     		.ascii	"i\000"
 9538 2c82 01       		.byte	0x1
 9539 2c83 BA01     		.2byte	0x1ba
 9540 2c85 BC000000 		.4byte	0xbc
 9541 2c89 29130000 		.4byte	.LLST15
 9542 2c8d 33       		.uleb128 0x33
 9543 2c8e 6E030000 		.4byte	.LASF516
 9544 2c92 01       		.byte	0x1
 9545 2c93 BA01     		.2byte	0x1ba
 9546 2c95 BC000000 		.4byte	0xbc
 9547 2c99 79130000 		.4byte	.LLST16
 9548 2c9d 34       		.uleb128 0x34
 9549 2c9e 4B200000 		.4byte	0x204b
 9550 2ca2 34000000 		.4byte	.LBB32
 9551 2ca6 18000000 		.4byte	.Ldebug_ranges0+0x18
 9552 2caa 01       		.byte	0x1
 9553 2cab DA01     		.2byte	0x1da
 9554 2cad 102D0000 		.4byte	0x2d10
 9555 2cb1 35       		.uleb128 0x35
 9556 2cb2 5E200000 		.4byte	0x205e
 9557 2cb6 AF130000 		.4byte	.LLST17
 9558 2cba 38       		.uleb128 0x38
 9559 2cbb 18000000 		.4byte	.Ldebug_ranges0+0x18
 9560 2cbf 40       		.uleb128 0x40
 9561 2cc0 6A200000 		.4byte	0x206a
 9562 2cc4 C7130000 		.4byte	.LLST18
 9563 2cc8 42       		.uleb128 0x42
 9564 2cc9 24010000 		.4byte	.LVL57
 9565 2ccd 9E320000 		.4byte	0x329e
 9566 2cd1 F02C0000 		.4byte	0x2cf0
 9567 2cd5 2E       		.uleb128 0x2e
 9568 2cd6 01       		.byte	0x1
 9569 2cd7 50       		.byte	0x50
 9570 2cd8 0C       		.byte	0xc
 9571 2cd9 75       		.byte	0x75
 9572 2cda 00       		.sleb128 0
 9573 2cdb 31       		.byte	0x31
 9574 2cdc 24       		.byte	0x24
 9575 2cdd 75       		.byte	0x75
ARM GAS  C:\Users\EBANO_~1\AppData\Local\Temp\ccazSBuk.s 			page 195


 9576 2cde 00       		.sleb128 0
 9577 2cdf 22       		.byte	0x22
 9578 2ce0 32       		.byte	0x32
 9579 2ce1 24       		.byte	0x24
 9580 2ce2 79       		.byte	0x79
 9581 2ce3 00       		.sleb128 0
 9582 2ce4 22       		.byte	0x22
 9583 2ce5 2E       		.uleb128 0x2e
 9584 2ce6 01       		.byte	0x1
 9585 2ce7 51       		.byte	0x51
 9586 2ce8 01       		.byte	0x1
 9587 2ce9 30       		.byte	0x30
 9588 2cea 2E       		.uleb128 0x2e
 9589 2ceb 01       		.byte	0x1
 9590 2cec 52       		.byte	0x52
 9591 2ced 01       		.byte	0x1
 9592 2cee 3C       		.byte	0x3c
 9593 2cef 00       		.byte	0
 9594 2cf0 2D       		.uleb128 0x2d
 9595 2cf1 30010000 		.4byte	.LVL58
 9596 2cf5 F3320000 		.4byte	0x32f3
 9597 2cf9 2E       		.uleb128 0x2e
 9598 2cfa 01       		.byte	0x1
 9599 2cfb 50       		.byte	0x50
 9600 2cfc 05       		.byte	0x5
 9601 2cfd 03       		.byte	0x3
 9602 2cfe 70000000 		.4byte	.LANCHOR1+112
 9603 2d02 2E       		.uleb128 0x2e
 9604 2d03 01       		.byte	0x1
 9605 2d04 51       		.byte	0x51
 9606 2d05 02       		.byte	0x2
 9607 2d06 78       		.byte	0x78
 9608 2d07 00       		.sleb128 0
 9609 2d08 2E       		.uleb128 0x2e
 9610 2d09 01       		.byte	0x1
 9611 2d0a 52       		.byte	0x52
 9612 2d0b 01       		.byte	0x1
 9613 2d0c 38       		.byte	0x38
 9614 2d0d 00       		.byte	0
 9615 2d0e 00       		.byte	0
 9616 2d0f 00       		.byte	0
 9617 2d10 43       		.uleb128 0x43
 9618 2d11 7C200000 		.4byte	0x207c
 9619 2d15 6A000000 		.4byte	.LBB37
 9620 2d19 38000000 		.4byte	.Ldebug_ranges0+0x38
 9621 2d1d 01       		.byte	0x1
 9622 2d1e D401     		.2byte	0x1d4
 9623 2d20 35       		.uleb128 0x35
 9624 2d21 8F200000 		.4byte	0x208f
 9625 2d25 DA130000 		.4byte	.LLST19
 9626 2d29 38       		.uleb128 0x38
 9627 2d2a 38000000 		.4byte	.Ldebug_ranges0+0x38
 9628 2d2e 40       		.uleb128 0x40
 9629 2d2f 9B200000 		.4byte	0x209b
 9630 2d33 02140000 		.4byte	.LLST20
 9631 2d37 40       		.uleb128 0x40
 9632 2d38 A7200000 		.4byte	0x20a7
ARM GAS  C:\Users\EBANO_~1\AppData\Local\Temp\ccazSBuk.s 			page 196


 9633 2d3c 3E140000 		.4byte	.LLST21
 9634 2d40 40       		.uleb128 0x40
 9635 2d41 B3200000 		.4byte	0x20b3
 9636 2d45 5E140000 		.4byte	.LLST22
 9637 2d49 34       		.uleb128 0x34
 9638 2d4a 23300000 		.4byte	0x3023
 9639 2d4e A2000000 		.4byte	.LBB39
 9640 2d52 50000000 		.4byte	.Ldebug_ranges0+0x50
 9641 2d56 01       		.byte	0x1
 9642 2d57 A303     		.2byte	0x3a3
 9643 2d59 842D0000 		.4byte	0x2d84
 9644 2d5d 35       		.uleb128 0x35
 9645 2d5e 34300000 		.4byte	0x3034
 9646 2d62 71140000 		.4byte	.LLST23
 9647 2d66 4B       		.uleb128 0x4b
 9648 2d67 B8000000 		.4byte	.LVL48
 9649 2d6b 03       		.byte	0x3
 9650 2d6c 7B       		.byte	0x7b
 9651 2d6d 28       		.sleb128 40
 9652 2d6e 06       		.byte	0x6
 9653 2d6f 7A2D0000 		.4byte	0x2d7a
 9654 2d73 2E       		.uleb128 0x2e
 9655 2d74 01       		.byte	0x1
 9656 2d75 50       		.byte	0x50
 9657 2d76 02       		.byte	0x2
 9658 2d77 78       		.byte	0x78
 9659 2d78 00       		.sleb128 0
 9660 2d79 00       		.byte	0
 9661 2d7a 48       		.uleb128 0x48
 9662 2d7b 3E010000 		.4byte	.LVL61
 9663 2d7f 03       		.byte	0x3
 9664 2d80 91       		.byte	0x91
 9665 2d81 44       		.sleb128 -60
 9666 2d82 06       		.byte	0x6
 9667 2d83 00       		.byte	0
 9668 2d84 42       		.uleb128 0x42
 9669 2d85 78000000 		.4byte	.LVL43
 9670 2d89 91320000 		.4byte	0x3291
 9671 2d8d 9C2D0000 		.4byte	0x2d9c
 9672 2d91 2E       		.uleb128 0x2e
 9673 2d92 01       		.byte	0x1
 9674 2d93 51       		.byte	0x51
 9675 2d94 01       		.byte	0x1
 9676 2d95 30       		.byte	0x30
 9677 2d96 2E       		.uleb128 0x2e
 9678 2d97 01       		.byte	0x1
 9679 2d98 52       		.byte	0x52
 9680 2d99 01       		.byte	0x1
 9681 2d9a 37       		.byte	0x37
 9682 2d9b 00       		.byte	0
 9683 2d9c 42       		.uleb128 0x42
 9684 2d9d 88000000 		.4byte	.LVL45
 9685 2da1 91320000 		.4byte	0x3291
 9686 2da5 B42D0000 		.4byte	0x2db4
 9687 2da9 2E       		.uleb128 0x2e
 9688 2daa 01       		.byte	0x1
 9689 2dab 51       		.byte	0x51
ARM GAS  C:\Users\EBANO_~1\AppData\Local\Temp\ccazSBuk.s 			page 197


 9690 2dac 01       		.byte	0x1
 9691 2dad 30       		.byte	0x30
 9692 2dae 2E       		.uleb128 0x2e
 9693 2daf 01       		.byte	0x1
 9694 2db0 52       		.byte	0x52
 9695 2db1 01       		.byte	0x1
 9696 2db2 37       		.byte	0x37
 9697 2db3 00       		.byte	0
 9698 2db4 2D       		.uleb128 0x2d
 9699 2db5 E0000000 		.4byte	.LVL49
 9700 2db9 01330000 		.4byte	0x3301
 9701 2dbd 2E       		.uleb128 0x2e
 9702 2dbe 01       		.byte	0x1
 9703 2dbf 50       		.byte	0x50
 9704 2dc0 0C       		.byte	0xc
 9705 2dc1 75       		.byte	0x75
 9706 2dc2 00       		.sleb128 0
 9707 2dc3 31       		.byte	0x31
 9708 2dc4 24       		.byte	0x24
 9709 2dc5 75       		.byte	0x75
 9710 2dc6 00       		.sleb128 0
 9711 2dc7 22       		.byte	0x22
 9712 2dc8 32       		.byte	0x32
 9713 2dc9 24       		.byte	0x24
 9714 2dca 78       		.byte	0x78
 9715 2dcb 00       		.sleb128 0
 9716 2dcc 22       		.byte	0x22
 9717 2dcd 2E       		.uleb128 0x2e
 9718 2dce 01       		.byte	0x1
 9719 2dcf 51       		.byte	0x51
 9720 2dd0 02       		.byte	0x2
 9721 2dd1 74       		.byte	0x74
 9722 2dd2 00       		.sleb128 0
 9723 2dd3 2E       		.uleb128 0x2e
 9724 2dd4 01       		.byte	0x1
 9725 2dd5 52       		.byte	0x52
 9726 2dd6 01       		.byte	0x1
 9727 2dd7 3C       		.byte	0x3c
 9728 2dd8 00       		.byte	0
 9729 2dd9 00       		.byte	0
 9730 2dda 00       		.byte	0
 9731 2ddb 00       		.byte	0
 9732 2ddc 00       		.byte	0
 9733 2ddd 0A       		.uleb128 0xa
 9734 2dde 04       		.byte	0x4
 9735 2ddf 5A160000 		.4byte	0x165a
 9736 2de3 3F       		.uleb128 0x3f
 9737 2de4 01       		.byte	0x1
 9738 2de5 F5070000 		.4byte	.LASF517
 9739 2de9 01       		.byte	0x1
 9740 2dea 8501     		.2byte	0x185
 9741 2dec 01       		.byte	0x1
 9742 2ded 150B0000 		.4byte	0xb15
 9743 2df1 00000000 		.4byte	.LFB48
 9744 2df5 48000000 		.4byte	.LFE48
 9745 2df9 91140000 		.4byte	.LLST10
 9746 2dfd 01       		.byte	0x1
ARM GAS  C:\Users\EBANO_~1\AppData\Local\Temp\ccazSBuk.s 			page 198


 9747 2dfe 4F2E0000 		.4byte	0x2e4f
 9748 2e02 2C       		.uleb128 0x2c
 9749 2e03 0F030000 		.4byte	.LASF518
 9750 2e07 01       		.byte	0x1
 9751 2e08 8501     		.2byte	0x185
 9752 2e0a 4F2E0000 		.4byte	0x2e4f
 9753 2e0e B1140000 		.4byte	.LLST11
 9754 2e12 2C       		.uleb128 0x2c
 9755 2e13 F5140000 		.4byte	.LASF519
 9756 2e17 01       		.byte	0x1
 9757 2e18 8501     		.2byte	0x185
 9758 2e1a B2130000 		.4byte	0x13b2
 9759 2e1e 1D150000 		.4byte	.LLST12
 9760 2e22 42       		.uleb128 0x42
 9761 2e23 1E000000 		.4byte	.LVL27
 9762 2e27 91320000 		.4byte	0x3291
 9763 2e2b 3A2E0000 		.4byte	0x2e3a
 9764 2e2f 2E       		.uleb128 0x2e
 9765 2e30 01       		.byte	0x1
 9766 2e31 51       		.byte	0x51
 9767 2e32 01       		.byte	0x1
 9768 2e33 30       		.byte	0x30
 9769 2e34 2E       		.uleb128 0x2e
 9770 2e35 01       		.byte	0x1
 9771 2e36 52       		.byte	0x52
 9772 2e37 01       		.byte	0x1
 9773 2e38 37       		.byte	0x37
 9774 2e39 00       		.byte	0
 9775 2e3a 2D       		.uleb128 0x2d
 9776 2e3b 36000000 		.4byte	.LVL32
 9777 2e3f 91320000 		.4byte	0x3291
 9778 2e43 2E       		.uleb128 0x2e
 9779 2e44 01       		.byte	0x1
 9780 2e45 51       		.byte	0x51
 9781 2e46 01       		.byte	0x1
 9782 2e47 30       		.byte	0x30
 9783 2e48 2E       		.uleb128 0x2e
 9784 2e49 01       		.byte	0x1
 9785 2e4a 52       		.byte	0x52
 9786 2e4b 01       		.byte	0x1
 9787 2e4c 35       		.byte	0x35
 9788 2e4d 00       		.byte	0
 9789 2e4e 00       		.byte	0
 9790 2e4f 0A       		.uleb128 0xa
 9791 2e50 04       		.byte	0x4
 9792 2e51 22160000 		.4byte	0x1622
 9793 2e55 2F       		.uleb128 0x2f
 9794 2e56 01       		.byte	0x1
 9795 2e57 E0000000 		.4byte	.LASF520
 9796 2e5b 01       		.byte	0x1
 9797 2e5c 7F01     		.2byte	0x17f
 9798 2e5e 01       		.byte	0x1
 9799 2e5f 82010000 		.4byte	0x182
 9800 2e63 00000000 		.4byte	.LFB47
 9801 2e67 0C000000 		.4byte	.LFE47
 9802 2e6b 02       		.byte	0x2
 9803 2e6c 7D       		.byte	0x7d
ARM GAS  C:\Users\EBANO_~1\AppData\Local\Temp\ccazSBuk.s 			page 199


 9804 2e6d 00       		.sleb128 0
 9805 2e6e 01       		.byte	0x1
 9806 2e6f 842E0000 		.4byte	0x2e84
 9807 2e73 2C       		.uleb128 0x2c
 9808 2e74 810E0000 		.4byte	.LASF521
 9809 2e78 01       		.byte	0x1
 9810 2e79 7F01     		.2byte	0x17f
 9811 2e7b 842E0000 		.4byte	0x2e84
 9812 2e7f 3E150000 		.4byte	.LLST9
 9813 2e83 00       		.byte	0
 9814 2e84 0A       		.uleb128 0xa
 9815 2e85 04       		.byte	0x4
 9816 2e86 A9150000 		.4byte	0x15a9
 9817 2e8a 2B       		.uleb128 0x2b
 9818 2e8b 01       		.byte	0x1
 9819 2e8c AF020000 		.4byte	.LASF522
 9820 2e90 01       		.byte	0x1
 9821 2e91 5201     		.2byte	0x152
 9822 2e93 01       		.byte	0x1
 9823 2e94 00000000 		.4byte	.LFB46
 9824 2e98 80000000 		.4byte	.LFE46
 9825 2e9c 5F150000 		.4byte	.LLST7
 9826 2ea0 01       		.byte	0x1
 9827 2ea1 1F2F0000 		.4byte	0x2f1f
 9828 2ea5 2C       		.uleb128 0x2c
 9829 2ea6 810E0000 		.4byte	.LASF521
 9830 2eaa 01       		.byte	0x1
 9831 2eab 5201     		.2byte	0x152
 9832 2ead 1F2F0000 		.4byte	0x2f1f
 9833 2eb1 8B150000 		.4byte	.LLST8
 9834 2eb5 2A       		.uleb128 0x2a
 9835 2eb6 52150000 		.4byte	.LASF523
 9836 2eba 01       		.byte	0x1
 9837 2ebb 5401     		.2byte	0x154
 9838 2ebd 961E0000 		.4byte	0x1e96
 9839 2ec1 02       		.byte	0x2
 9840 2ec2 91       		.byte	0x91
 9841 2ec3 60       		.sleb128 -32
 9842 2ec4 42       		.uleb128 0x42
 9843 2ec5 30000000 		.4byte	.LVL15
 9844 2ec9 01330000 		.4byte	0x3301
 9845 2ecd E12E0000 		.4byte	0x2ee1
 9846 2ed1 2E       		.uleb128 0x2e
 9847 2ed2 01       		.byte	0x1
 9848 2ed3 50       		.byte	0x50
 9849 2ed4 05       		.byte	0x5
 9850 2ed5 03       		.byte	0x3
 9851 2ed6 00000000 		.4byte	.LANCHOR1
 9852 2eda 2E       		.uleb128 0x2e
 9853 2edb 01       		.byte	0x1
 9854 2edc 52       		.byte	0x52
 9855 2edd 02       		.byte	0x2
 9856 2ede 08       		.byte	0x8
 9857 2edf 74       		.byte	0x74
 9858 2ee0 00       		.byte	0
 9859 2ee1 42       		.uleb128 0x42
 9860 2ee2 42000000 		.4byte	.LVL18
ARM GAS  C:\Users\EBANO_~1\AppData\Local\Temp\ccazSBuk.s 			page 200


 9861 2ee6 01330000 		.4byte	0x3301
 9862 2eea 012F0000 		.4byte	0x2f01
 9863 2eee 2E       		.uleb128 0x2e
 9864 2eef 01       		.byte	0x1
 9865 2ef0 50       		.byte	0x50
 9866 2ef1 03       		.byte	0x3
 9867 2ef2 74       		.byte	0x74
 9868 2ef3 E000     		.sleb128 96
 9869 2ef5 2E       		.uleb128 0x2e
 9870 2ef6 01       		.byte	0x1
 9871 2ef7 51       		.byte	0x51
 9872 2ef8 02       		.byte	0x2
 9873 2ef9 7D       		.byte	0x7d
 9874 2efa 00       		.sleb128 0
 9875 2efb 2E       		.uleb128 0x2e
 9876 2efc 01       		.byte	0x1
 9877 2efd 52       		.byte	0x52
 9878 2efe 01       		.byte	0x1
 9879 2eff 40       		.byte	0x40
 9880 2f00 00       		.byte	0
 9881 2f01 2D       		.uleb128 0x2d
 9882 2f02 66000000 		.4byte	.LVL19
 9883 2f06 61330000 		.4byte	0x3361
 9884 2f0a 2E       		.uleb128 0x2e
 9885 2f0b 01       		.byte	0x1
 9886 2f0c 50       		.byte	0x50
 9887 2f0d 03       		.byte	0x3
 9888 2f0e 74       		.byte	0x74
 9889 2f0f F000     		.sleb128 112
 9890 2f11 2E       		.uleb128 0x2e
 9891 2f12 01       		.byte	0x1
 9892 2f13 51       		.byte	0x51
 9893 2f14 03       		.byte	0x3
 9894 2f15 74       		.byte	0x74
 9895 2f16 F200     		.sleb128 114
 9896 2f18 2E       		.uleb128 0x2e
 9897 2f19 01       		.byte	0x1
 9898 2f1a 52       		.byte	0x52
 9899 2f1b 01       		.byte	0x1
 9900 2f1c 31       		.byte	0x31
 9901 2f1d 00       		.byte	0
 9902 2f1e 00       		.byte	0
 9903 2f1f 0A       		.uleb128 0xa
 9904 2f20 04       		.byte	0x4
 9905 2f21 80150000 		.4byte	0x1580
 9906 2f25 2B       		.uleb128 0x2b
 9907 2f26 01       		.byte	0x1
 9908 2f27 1B160000 		.4byte	.LASF524
 9909 2f2b 01       		.byte	0x1
 9910 2f2c 4D01     		.2byte	0x14d
 9911 2f2e 01       		.byte	0x1
 9912 2f2f 00000000 		.4byte	.LFB45
 9913 2f33 24000000 		.4byte	.LFE45
 9914 2f37 DE150000 		.4byte	.LLST5
 9915 2f3b 01       		.byte	0x1
 9916 2f3c 5A2F0000 		.4byte	0x2f5a
 9917 2f40 2C       		.uleb128 0x2c
ARM GAS  C:\Users\EBANO_~1\AppData\Local\Temp\ccazSBuk.s 			page 201


 9918 2f41 0B050000 		.4byte	.LASF525
 9919 2f45 01       		.byte	0x1
 9920 2f46 4D01     		.2byte	0x14d
 9921 2f48 5A2F0000 		.4byte	0x2f5a
 9922 2f4c FE150000 		.4byte	.LLST6
 9923 2f50 3A       		.uleb128 0x3a
 9924 2f51 1E000000 		.4byte	.LVL12
 9925 2f55 6F330000 		.4byte	0x336f
 9926 2f59 00       		.byte	0
 9927 2f5a 0A       		.uleb128 0xa
 9928 2f5b 04       		.byte	0x4
 9929 2f5c 48150000 		.4byte	0x1548
 9930 2f60 4E       		.uleb128 0x4e
 9931 2f61 01       		.byte	0x1
 9932 2f62 6C050000 		.4byte	.LASF526
 9933 2f66 01       		.byte	0x1
 9934 2f67 A5       		.byte	0xa5
 9935 2f68 01       		.byte	0x1
 9936 2f69 AB140000 		.4byte	0x14ab
 9937 2f6d 01       		.byte	0x1
 9938 2f6e 892F0000 		.4byte	0x2f89
 9939 2f72 4F       		.uleb128 0x4f
 9940 2f73 D3180000 		.4byte	.LASF492
 9941 2f77 01       		.byte	0x1
 9942 2f78 A5       		.byte	0xa5
 9943 2f79 892F0000 		.4byte	0x2f89
 9944 2f7d 50       		.uleb128 0x50
 9945 2f7e 19040000 		.4byte	.LASF493
 9946 2f82 01       		.byte	0x1
 9947 2f83 A7       		.byte	0xa7
 9948 2f84 AB140000 		.4byte	0x14ab
 9949 2f88 00       		.byte	0
 9950 2f89 0A       		.uleb128 0xa
 9951 2f8a 04       		.byte	0x4
 9952 2f8b 01150000 		.4byte	0x1501
 9953 2f8f 51       		.uleb128 0x51
 9954 2f90 AE080000 		.4byte	.LASF531
 9955 2f94 01       		.byte	0x1
 9956 2f95 7C       		.byte	0x7c
 9957 2f96 01       		.byte	0x1
 9958 2f97 BC000000 		.4byte	0xbc
 9959 2f9b 01       		.byte	0x1
 9960 2f9c 23300000 		.4byte	0x3023
 9961 2fa0 4F       		.uleb128 0x4f
 9962 2fa1 51170000 		.4byte	.LASF527
 9963 2fa5 01       		.byte	0x1
 9964 2fa6 7C       		.byte	0x7c
 9965 2fa7 150B0000 		.4byte	0xb15
 9966 2fab 4F       		.uleb128 0x4f
 9967 2fac B8040000 		.4byte	.LASF444
 9968 2fb0 01       		.byte	0x1
 9969 2fb1 7C       		.byte	0x7c
 9970 2fb2 BC000000 		.4byte	0xbc
 9971 2fb6 4F       		.uleb128 0x4f
 9972 2fb7 4C140000 		.4byte	.LASF528
 9973 2fbb 01       		.byte	0x1
 9974 2fbc 7C       		.byte	0x7c
ARM GAS  C:\Users\EBANO_~1\AppData\Local\Temp\ccazSBuk.s 			page 202


 9975 2fbd 95110000 		.4byte	0x1195
 9976 2fc1 4F       		.uleb128 0x4f
 9977 2fc2 2C1D0000 		.4byte	.LASF529
 9978 2fc6 01       		.byte	0x1
 9979 2fc7 7C       		.byte	0x7c
 9980 2fc8 8F110000 		.4byte	0x118f
 9981 2fcc 4F       		.uleb128 0x4f
 9982 2fcd 52150000 		.4byte	.LASF523
 9983 2fd1 01       		.byte	0x1
 9984 2fd2 7C       		.byte	0x7c
 9985 2fd3 541D0000 		.4byte	0x1d54
 9986 2fd7 4F       		.uleb128 0x4f
 9987 2fd8 531A0000 		.4byte	.LASF465
 9988 2fdc 01       		.byte	0x1
 9989 2fdd 7C       		.byte	0x7c
 9990 2fde 840A0000 		.4byte	0xa84
 9991 2fe2 4F       		.uleb128 0x4f
 9992 2fe3 BC060000 		.4byte	.LASF464
 9993 2fe7 01       		.byte	0x1
 9994 2fe8 7C       		.byte	0x7c
 9995 2fe9 840A0000 		.4byte	0xa84
 9996 2fed 50       		.uleb128 0x50
 9997 2fee A3160000 		.4byte	.LASF463
 9998 2ff2 01       		.byte	0x1
 9999 2ff3 7E       		.byte	0x7e
 10000 2ff4 BC000000 		.4byte	0xbc
 10001 2ff8 50       		.uleb128 0x50
 10002 2ff9 D51C0000 		.4byte	.LASF530
 10003 2ffd 01       		.byte	0x1
 10004 2ffe 7F       		.byte	0x7f
 10005 2fff BC000000 		.4byte	0xbc
 10006 3003 52       		.uleb128 0x52
 10007 3004 53       		.uleb128 0x53
 10008 3005 6900     		.ascii	"i\000"
 10009 3007 01       		.byte	0x1
 10010 3008 81       		.byte	0x81
 10011 3009 BC000000 		.4byte	0xbc
 10012 300d 53       		.uleb128 0x53
 10013 300e 6B00     		.ascii	"k\000"
 10014 3010 01       		.byte	0x1
 10015 3011 81       		.byte	0x81
 10016 3012 BC000000 		.4byte	0xbc
 10017 3016 52       		.uleb128 0x52
 10018 3017 53       		.uleb128 0x53
 10019 3018 6A00     		.ascii	"j\000"
 10020 301a 01       		.byte	0x1
 10021 301b 83       		.byte	0x83
 10022 301c BC000000 		.4byte	0xbc
 10023 3020 00       		.byte	0
 10024 3021 00       		.byte	0
 10025 3022 00       		.byte	0
 10026 3023 51       		.uleb128 0x51
 10027 3024 B8140000 		.4byte	.LASF532
 10028 3028 01       		.byte	0x1
 10029 3029 6C       		.byte	0x6c
 10030 302a 01       		.byte	0x1
 10031 302b 150B0000 		.4byte	0xb15
ARM GAS  C:\Users\EBANO_~1\AppData\Local\Temp\ccazSBuk.s 			page 203


 10032 302f 01       		.byte	0x1
 10033 3030 40300000 		.4byte	0x3040
 10034 3034 4F       		.uleb128 0x4f
 10035 3035 D2030000 		.4byte	.LASF533
 10036 3039 01       		.byte	0x1
 10037 303a 6C       		.byte	0x6c
 10038 303b ED000000 		.4byte	0xed
 10039 303f 00       		.byte	0
 10040 3040 51       		.uleb128 0x51
 10041 3041 ED120000 		.4byte	.LASF534
 10042 3045 01       		.byte	0x1
 10043 3046 62       		.byte	0x62
 10044 3047 01       		.byte	0x1
 10045 3048 B1000000 		.4byte	0xb1
 10046 304c 01       		.byte	0x1
 10047 304d 89300000 		.4byte	0x3089
 10048 3051 4F       		.uleb128 0x4f
 10049 3052 3F110000 		.4byte	.LASF497
 10050 3056 01       		.byte	0x1
 10051 3057 62       		.byte	0x62
 10052 3058 B1000000 		.4byte	0xb1
 10053 305c 4F       		.uleb128 0x4f
 10054 305d A3090000 		.4byte	.LASF535
 10055 3061 01       		.byte	0x1
 10056 3062 62       		.byte	0x62
 10057 3063 B1000000 		.4byte	0xb1
 10058 3067 4F       		.uleb128 0x4f
 10059 3068 B8040000 		.4byte	.LASF444
 10060 306c 01       		.byte	0x1
 10061 306d 62       		.byte	0x62
 10062 306e B1000000 		.4byte	0xb1
 10063 3072 4F       		.uleb128 0x4f
 10064 3073 4C140000 		.4byte	.LASF528
 10065 3077 01       		.byte	0x1
 10066 3078 62       		.byte	0x62
 10067 3079 95110000 		.4byte	0x1195
 10068 307d 50       		.uleb128 0x50
 10069 307e 7C030000 		.4byte	.LASF536
 10070 3082 01       		.byte	0x1
 10071 3083 64       		.byte	0x64
 10072 3084 B1000000 		.4byte	0xb1
 10073 3088 00       		.byte	0
 10074 3089 51       		.uleb128 0x51
 10075 308a 6D170000 		.4byte	.LASF537
 10076 308e 01       		.byte	0x1
 10077 308f 54       		.byte	0x54
 10078 3090 01       		.byte	0x1
 10079 3091 ED000000 		.4byte	0xed
 10080 3095 01       		.byte	0x1
 10081 3096 A6300000 		.4byte	0x30a6
 10082 309a 4F       		.uleb128 0x4f
 10083 309b 160B0000 		.4byte	.LASF538
 10084 309f 01       		.byte	0x1
 10085 30a0 54       		.byte	0x54
 10086 30a1 ED000000 		.4byte	0xed
 10087 30a5 00       		.byte	0
 10088 30a6 51       		.uleb128 0x51
ARM GAS  C:\Users\EBANO_~1\AppData\Local\Temp\ccazSBuk.s 			page 204


 10089 30a7 AB0E0000 		.4byte	.LASF539
 10090 30ab 01       		.byte	0x1
 10091 30ac 45       		.byte	0x45
 10092 30ad 01       		.byte	0x1
 10093 30ae B1000000 		.4byte	0xb1
 10094 30b2 01       		.byte	0x1
 10095 30b3 D8300000 		.4byte	0x30d8
 10096 30b7 54       		.uleb128 0x54
 10097 30b8 647200   		.ascii	"dr\000"
 10098 30bb 01       		.byte	0x1
 10099 30bc 45       		.byte	0x45
 10100 30bd B1000000 		.4byte	0xb1
 10101 30c1 4F       		.uleb128 0x4f
 10102 30c2 EF0D0000 		.4byte	.LASF540
 10103 30c6 01       		.byte	0x1
 10104 30c7 45       		.byte	0x45
 10105 30c8 B1000000 		.4byte	0xb1
 10106 30cc 50       		.uleb128 0x50
 10107 30cd B01D0000 		.4byte	.LASF541
 10108 30d1 01       		.byte	0x1
 10109 30d2 47       		.byte	0x47
 10110 30d3 BC000000 		.4byte	0xbc
 10111 30d7 00       		.byte	0
 10112 30d8 55       		.uleb128 0x55
 10113 30d9 602F0000 		.4byte	0x2f60
 10114 30dd 00000000 		.4byte	.LFB44
 10115 30e1 04010000 		.4byte	.LFE44
 10116 30e5 1F160000 		.4byte	.LLST0
 10117 30e9 01       		.byte	0x1
 10118 30ea 51310000 		.4byte	0x3151
 10119 30ee 35       		.uleb128 0x35
 10120 30ef 722F0000 		.4byte	0x2f72
 10121 30f3 4B160000 		.4byte	.LLST1
 10122 30f7 56       		.uleb128 0x56
 10123 30f8 7D2F0000 		.4byte	0x2f7d
 10124 30fc 02       		.byte	0x2
 10125 30fd 91       		.byte	0x91
 10126 30fe 70       		.sleb128 -16
 10127 30ff 57       		.uleb128 0x57
 10128 3100 A6300000 		.4byte	0x30a6
 10129 3104 A8000000 		.4byte	.LBB22
 10130 3108 B2000000 		.4byte	.LBE22
 10131 310c 01       		.byte	0x1
 10132 310d BC       		.byte	0xbc
 10133 310e 38310000 		.4byte	0x3138
 10134 3112 35       		.uleb128 0x35
 10135 3113 C1300000 		.4byte	0x30c1
 10136 3117 90160000 		.4byte	.LLST2
 10137 311b 35       		.uleb128 0x35
 10138 311c B7300000 		.4byte	0x30b7
 10139 3120 A4160000 		.4byte	.LLST3
 10140 3124 46       		.uleb128 0x46
 10141 3125 A8000000 		.4byte	.LBB23
 10142 3129 B2000000 		.4byte	.LBE23
 10143 312d 40       		.uleb128 0x40
 10144 312e CC300000 		.4byte	0x30cc
 10145 3132 C4160000 		.4byte	.LLST4
ARM GAS  C:\Users\EBANO_~1\AppData\Local\Temp\ccazSBuk.s 			page 205


 10146 3136 00       		.byte	0
 10147 3137 00       		.byte	0
 10148 3138 2D       		.uleb128 0x2d
 10149 3139 42000000 		.4byte	.LVL4
 10150 313d D8320000 		.4byte	0x32d8
 10151 3141 2E       		.uleb128 0x2e
 10152 3142 01       		.byte	0x1
 10153 3143 50       		.byte	0x50
 10154 3144 03       		.byte	0x3
 10155 3145 0B       		.byte	0xb
 10156 3146 18FC     		.2byte	0xfc18
 10157 3148 2E       		.uleb128 0x2e
 10158 3149 01       		.byte	0x1
 10159 314a 51       		.byte	0x51
 10160 314b 03       		.byte	0x3
 10161 314c 0A       		.byte	0xa
 10162 314d E803     		.2byte	0x3e8
 10163 314f 00       		.byte	0
 10164 3150 00       		.byte	0
 10165 3151 55       		.uleb128 0x55
 10166 3152 7C200000 		.4byte	0x207c
 10167 3156 00000000 		.4byte	.LFB62
 10168 315a D8000000 		.4byte	.LFE62
 10169 315e F2160000 		.4byte	.LLST99
 10170 3162 01       		.byte	0x1
 10171 3163 08320000 		.4byte	0x3208
 10172 3167 35       		.uleb128 0x35
 10173 3168 8F200000 		.4byte	0x208f
 10174 316c 1E170000 		.4byte	.LLST100
 10175 3170 40       		.uleb128 0x40
 10176 3171 9B200000 		.4byte	0x209b
 10177 3175 63170000 		.4byte	.LLST101
 10178 3179 40       		.uleb128 0x40
 10179 317a A7200000 		.4byte	0x20a7
 10180 317e B5170000 		.4byte	.LLST102
 10181 3182 40       		.uleb128 0x40
 10182 3183 B3200000 		.4byte	0x20b3
 10183 3187 05180000 		.4byte	.LLST103
 10184 318b 34       		.uleb128 0x34
 10185 318c 23300000 		.4byte	0x3023
 10186 3190 54000000 		.4byte	.LBB129
 10187 3194 D0010000 		.4byte	.Ldebug_ranges0+0x1d0
 10188 3198 01       		.byte	0x1
 10189 3199 A303     		.2byte	0x3a3
 10190 319b C2310000 		.4byte	0x31c2
 10191 319f 35       		.uleb128 0x35
 10192 31a0 34300000 		.4byte	0x3034
 10193 31a4 23180000 		.4byte	.LLST104
 10194 31a8 47       		.uleb128 0x47
 10195 31a9 5E000000 		.4byte	.LVL295
 10196 31ad B8310000 		.4byte	0x31b8
 10197 31b1 2E       		.uleb128 0x2e
 10198 31b2 01       		.byte	0x1
 10199 31b3 50       		.byte	0x50
 10200 31b4 02       		.byte	0x2
 10201 31b5 76       		.byte	0x76
 10202 31b6 00       		.sleb128 0
ARM GAS  C:\Users\EBANO_~1\AppData\Local\Temp\ccazSBuk.s 			page 206


 10203 31b7 00       		.byte	0
 10204 31b8 48       		.uleb128 0x48
 10205 31b9 70000000 		.4byte	.LVL300
 10206 31bd 03       		.byte	0x3
 10207 31be 91       		.byte	0x91
 10208 31bf 64       		.sleb128 -28
 10209 31c0 06       		.byte	0x6
 10210 31c1 00       		.byte	0
 10211 31c2 42       		.uleb128 0x42
 10212 31c3 22000000 		.4byte	.LVL289
 10213 31c7 91320000 		.4byte	0x3291
 10214 31cb DA310000 		.4byte	0x31da
 10215 31cf 2E       		.uleb128 0x2e
 10216 31d0 01       		.byte	0x1
 10217 31d1 51       		.byte	0x51
 10218 31d2 01       		.byte	0x1
 10219 31d3 30       		.byte	0x30
 10220 31d4 2E       		.uleb128 0x2e
 10221 31d5 01       		.byte	0x1
 10222 31d6 52       		.byte	0x52
 10223 31d7 01       		.byte	0x1
 10224 31d8 37       		.byte	0x37
 10225 31d9 00       		.byte	0
 10226 31da 42       		.uleb128 0x42
 10227 31db 34000000 		.4byte	.LVL291
 10228 31df 91320000 		.4byte	0x3291
 10229 31e3 F2310000 		.4byte	0x31f2
 10230 31e7 2E       		.uleb128 0x2e
 10231 31e8 01       		.byte	0x1
 10232 31e9 51       		.byte	0x51
 10233 31ea 01       		.byte	0x1
 10234 31eb 30       		.byte	0x30
 10235 31ec 2E       		.uleb128 0x2e
 10236 31ed 01       		.byte	0x1
 10237 31ee 52       		.byte	0x52
 10238 31ef 01       		.byte	0x1
 10239 31f0 37       		.byte	0x37
 10240 31f1 00       		.byte	0
 10241 31f2 2D       		.uleb128 0x2d
 10242 31f3 B4000000 		.4byte	.LVL307
 10243 31f7 01330000 		.4byte	0x3301
 10244 31fb 2E       		.uleb128 0x2e
 10245 31fc 01       		.byte	0x1
 10246 31fd 50       		.byte	0x50
 10247 31fe 02       		.byte	0x2
 10248 31ff 74       		.byte	0x74
 10249 3200 00       		.sleb128 0
 10250 3201 2E       		.uleb128 0x2e
 10251 3202 01       		.byte	0x1
 10252 3203 52       		.byte	0x52
 10253 3204 01       		.byte	0x1
 10254 3205 3C       		.byte	0x3c
 10255 3206 00       		.byte	0
 10256 3207 00       		.byte	0
 10257 3208 55       		.uleb128 0x55
 10258 3209 4B200000 		.4byte	0x204b
 10259 320d 00000000 		.4byte	.LFB63
ARM GAS  C:\Users\EBANO_~1\AppData\Local\Temp\ccazSBuk.s 			page 207


 10260 3211 30000000 		.4byte	.LFE63
 10261 3215 45180000 		.4byte	.LLST105
 10262 3219 01       		.byte	0x1
 10263 321a 75320000 		.4byte	0x3275
 10264 321e 35       		.uleb128 0x35
 10265 321f 5E200000 		.4byte	0x205e
 10266 3223 65180000 		.4byte	.LLST106
 10267 3227 40       		.uleb128 0x40
 10268 3228 6A200000 		.4byte	0x206a
 10269 322c 86180000 		.4byte	.LLST107
 10270 3230 42       		.uleb128 0x42
 10271 3231 1C000000 		.4byte	.LVL311
 10272 3235 9E320000 		.4byte	0x329e
 10273 3239 58320000 		.4byte	0x3258
 10274 323d 2E       		.uleb128 0x2e
 10275 323e 01       		.byte	0x1
 10276 323f 50       		.byte	0x50
 10277 3240 0C       		.byte	0xc
 10278 3241 74       		.byte	0x74
 10279 3242 00       		.sleb128 0
 10280 3243 31       		.byte	0x31
 10281 3244 24       		.byte	0x24
 10282 3245 74       		.byte	0x74
 10283 3246 00       		.sleb128 0
 10284 3247 22       		.byte	0x22
 10285 3248 32       		.byte	0x32
 10286 3249 24       		.byte	0x24
 10287 324a 75       		.byte	0x75
 10288 324b 00       		.sleb128 0
 10289 324c 22       		.byte	0x22
 10290 324d 2E       		.uleb128 0x2e
 10291 324e 01       		.byte	0x1
 10292 324f 51       		.byte	0x51
 10293 3250 01       		.byte	0x1
 10294 3251 30       		.byte	0x30
 10295 3252 2E       		.uleb128 0x2e
 10296 3253 01       		.byte	0x1
 10297 3254 52       		.byte	0x52
 10298 3255 01       		.byte	0x1
 10299 3256 3C       		.byte	0x3c
 10300 3257 00       		.byte	0
 10301 3258 2D       		.uleb128 0x2d
 10302 3259 28000000 		.4byte	.LVL312
 10303 325d F3320000 		.4byte	0x32f3
 10304 3261 2E       		.uleb128 0x2e
 10305 3262 01       		.byte	0x1
 10306 3263 50       		.byte	0x50
 10307 3264 03       		.byte	0x3
 10308 3265 75       		.byte	0x75
 10309 3266 F000     		.sleb128 112
 10310 3268 2E       		.uleb128 0x2e
 10311 3269 01       		.byte	0x1
 10312 326a 51       		.byte	0x51
 10313 326b 02       		.byte	0x2
 10314 326c 74       		.byte	0x74
 10315 326d 00       		.sleb128 0
 10316 326e 2E       		.uleb128 0x2e
ARM GAS  C:\Users\EBANO_~1\AppData\Local\Temp\ccazSBuk.s 			page 208


 10317 326f 01       		.byte	0x1
 10318 3270 52       		.byte	0x52
 10319 3271 01       		.byte	0x1
 10320 3272 38       		.byte	0x38
 10321 3273 00       		.byte	0
 10322 3274 00       		.byte	0
 10323 3275 58       		.uleb128 0x58
 10324 3276 01       		.byte	0x1
 10325 3277 01       		.byte	0x1
 10326 3278 021C0000 		.4byte	.LASF542
 10327 327c 021C0000 		.4byte	.LASF542
 10328 3280 10       		.byte	0x10
 10329 3281 9F01     		.2byte	0x19f
 10330 3283 58       		.uleb128 0x58
 10331 3284 01       		.byte	0x1
 10332 3285 01       		.byte	0x1
 10333 3286 E2160000 		.4byte	.LASF543
 10334 328a E2160000 		.4byte	.LASF543
 10335 328e 10       		.byte	0x10
 10336 328f 9101     		.2byte	0x191
 10337 3291 59       		.uleb128 0x59
 10338 3292 01       		.byte	0x1
 10339 3293 01       		.byte	0x1
 10340 3294 FD160000 		.4byte	.LASF544
 10341 3298 FD160000 		.4byte	.LASF544
 10342 329c 10       		.byte	0x10
 10343 329d E1       		.byte	0xe1
 10344 329e 5A       		.uleb128 0x5a
 10345 329f 01       		.byte	0x1
 10346 32a0 01       		.byte	0x1
 10347 32a1 01110000 		.4byte	.LASF563
 10348 32a5 16030000 		.4byte	.LASF564
 10349 32a9 13       		.byte	0x13
 10350 32aa 00       		.byte	0
 10351 32ab 01110000 		.4byte	.LASF563
 10352 32af 58       		.uleb128 0x58
 10353 32b0 01       		.byte	0x1
 10354 32b1 01       		.byte	0x1
 10355 32b2 FC090000 		.4byte	.LASF545
 10356 32b6 FC090000 		.4byte	.LASF545
 10357 32ba 10       		.byte	0x10
 10358 32bb 1201     		.2byte	0x112
 10359 32bd 59       		.uleb128 0x59
 10360 32be 01       		.byte	0x1
 10361 32bf 01       		.byte	0x1
 10362 32c0 2D140000 		.4byte	.LASF546
 10363 32c4 2D140000 		.4byte	.LASF546
 10364 32c8 12       		.byte	0x12
 10365 32c9 94       		.byte	0x94
 10366 32ca 58       		.uleb128 0x58
 10367 32cb 01       		.byte	0x1
 10368 32cc 01       		.byte	0x1
 10369 32cd 9B0B0000 		.4byte	.LASF547
 10370 32d1 9B0B0000 		.4byte	.LASF547
 10371 32d5 10       		.byte	0x10
 10372 32d6 3A01     		.2byte	0x13a
 10373 32d8 59       		.uleb128 0x59
ARM GAS  C:\Users\EBANO_~1\AppData\Local\Temp\ccazSBuk.s 			page 209


 10374 32d9 01       		.byte	0x1
 10375 32da 01       		.byte	0x1
 10376 32db E3010000 		.4byte	.LASF548
 10377 32df E3010000 		.4byte	.LASF548
 10378 32e3 0A       		.byte	0xa
 10379 32e4 77       		.byte	0x77
 10380 32e5 58       		.uleb128 0x58
 10381 32e6 01       		.byte	0x1
 10382 32e7 01       		.byte	0x1
 10383 32e8 55190000 		.4byte	.LASF549
 10384 32ec 55190000 		.4byte	.LASF549
 10385 32f0 10       		.byte	0x10
 10386 32f1 9801     		.2byte	0x198
 10387 32f3 58       		.uleb128 0x58
 10388 32f4 01       		.byte	0x1
 10389 32f5 01       		.byte	0x1
 10390 32f6 3E210000 		.4byte	.LASF550
 10391 32fa 3E210000 		.4byte	.LASF550
 10392 32fe 10       		.byte	0x10
 10393 32ff 0401     		.2byte	0x104
 10394 3301 59       		.uleb128 0x59
 10395 3302 01       		.byte	0x1
 10396 3303 01       		.byte	0x1
 10397 3304 4E030000 		.4byte	.LASF551
 10398 3308 4E030000 		.4byte	.LASF551
 10399 330c 0A       		.byte	0xa
 10400 330d 89       		.byte	0x89
 10401 330e 58       		.uleb128 0x58
 10402 330f 01       		.byte	0x1
 10403 3310 01       		.byte	0x1
 10404 3311 E5040000 		.4byte	.LASF552
 10405 3315 E5040000 		.4byte	.LASF552
 10406 3319 10       		.byte	0x10
 10407 331a 4801     		.2byte	0x148
 10408 331c 58       		.uleb128 0x58
 10409 331d 01       		.byte	0x1
 10410 331e 01       		.byte	0x1
 10411 331f 1C110000 		.4byte	.LASF553
 10412 3323 1C110000 		.4byte	.LASF553
 10413 3327 10       		.byte	0x10
 10414 3328 5801     		.2byte	0x158
 10415 332a 59       		.uleb128 0x59
 10416 332b 01       		.byte	0x1
 10417 332c 01       		.byte	0x1
 10418 332d ED170000 		.4byte	.LASF554
 10419 3331 ED170000 		.4byte	.LASF554
 10420 3335 0A       		.byte	0xa
 10421 3336 9D       		.byte	0x9d
 10422 3337 58       		.uleb128 0x58
 10423 3338 01       		.byte	0x1
 10424 3339 01       		.byte	0x1
 10425 333a F9150000 		.4byte	.LASF555
 10426 333e F9150000 		.4byte	.LASF555
 10427 3342 10       		.byte	0x10
 10428 3343 6301     		.2byte	0x163
 10429 3345 58       		.uleb128 0x58
 10430 3346 01       		.byte	0x1
ARM GAS  C:\Users\EBANO_~1\AppData\Local\Temp\ccazSBuk.s 			page 210


 10431 3347 01       		.byte	0x1
 10432 3348 4A1F0000 		.4byte	.LASF556
 10433 334c 4A1F0000 		.4byte	.LASF556
 10434 3350 10       		.byte	0x10
 10435 3351 8001     		.2byte	0x180
 10436 3353 58       		.uleb128 0x58
 10437 3354 01       		.byte	0x1
 10438 3355 01       		.byte	0x1
 10439 3356 12150000 		.4byte	.LASF557
 10440 335a 12150000 		.4byte	.LASF557
 10441 335e 10       		.byte	0x10
 10442 335f 6E01     		.2byte	0x16e
 10443 3361 58       		.uleb128 0x58
 10444 3362 01       		.byte	0x1
 10445 3363 01       		.byte	0x1
 10446 3364 C4060000 		.4byte	.LASF558
 10447 3368 C4060000 		.4byte	.LASF558
 10448 336c 10       		.byte	0x10
 10449 336d 1E01     		.2byte	0x11e
 10450 336f 58       		.uleb128 0x58
 10451 3370 01       		.byte	0x1
 10452 3371 01       		.byte	0x1
 10453 3372 04140000 		.4byte	.LASF559
 10454 3376 04140000 		.4byte	.LASF559
 10455 337a 10       		.byte	0x10
 10456 337b 2A01     		.2byte	0x12a
 10457 337d 00       		.byte	0
 10458              		.section	.debug_abbrev,"",%progbits
 10459              	.Ldebug_abbrev0:
 10460 0000 01       		.uleb128 0x1
 10461 0001 11       		.uleb128 0x11
 10462 0002 01       		.byte	0x1
 10463 0003 25       		.uleb128 0x25
 10464 0004 0E       		.uleb128 0xe
 10465 0005 13       		.uleb128 0x13
 10466 0006 0B       		.uleb128 0xb
 10467 0007 03       		.uleb128 0x3
 10468 0008 0E       		.uleb128 0xe
 10469 0009 1B       		.uleb128 0x1b
 10470 000a 0E       		.uleb128 0xe
 10471 000b 55       		.uleb128 0x55
 10472 000c 06       		.uleb128 0x6
 10473 000d 11       		.uleb128 0x11
 10474 000e 01       		.uleb128 0x1
 10475 000f 52       		.uleb128 0x52
 10476 0010 01       		.uleb128 0x1
 10477 0011 10       		.uleb128 0x10
 10478 0012 06       		.uleb128 0x6
 10479 0013 00       		.byte	0
 10480 0014 00       		.byte	0
 10481 0015 02       		.uleb128 0x2
 10482 0016 24       		.uleb128 0x24
 10483 0017 00       		.byte	0
 10484 0018 0B       		.uleb128 0xb
 10485 0019 0B       		.uleb128 0xb
 10486 001a 3E       		.uleb128 0x3e
 10487 001b 0B       		.uleb128 0xb
ARM GAS  C:\Users\EBANO_~1\AppData\Local\Temp\ccazSBuk.s 			page 211


 10488 001c 03       		.uleb128 0x3
 10489 001d 0E       		.uleb128 0xe
 10490 001e 00       		.byte	0
 10491 001f 00       		.byte	0
 10492 0020 03       		.uleb128 0x3
 10493 0021 16       		.uleb128 0x16
 10494 0022 00       		.byte	0
 10495 0023 03       		.uleb128 0x3
 10496 0024 0E       		.uleb128 0xe
 10497 0025 3A       		.uleb128 0x3a
 10498 0026 0B       		.uleb128 0xb
 10499 0027 3B       		.uleb128 0x3b
 10500 0028 0B       		.uleb128 0xb
 10501 0029 49       		.uleb128 0x49
 10502 002a 13       		.uleb128 0x13
 10503 002b 00       		.byte	0
 10504 002c 00       		.byte	0
 10505 002d 04       		.uleb128 0x4
 10506 002e 24       		.uleb128 0x24
 10507 002f 00       		.byte	0
 10508 0030 0B       		.uleb128 0xb
 10509 0031 0B       		.uleb128 0xb
 10510 0032 3E       		.uleb128 0x3e
 10511 0033 0B       		.uleb128 0xb
 10512 0034 03       		.uleb128 0x3
 10513 0035 08       		.uleb128 0x8
 10514 0036 00       		.byte	0
 10515 0037 00       		.byte	0
 10516 0038 05       		.uleb128 0x5
 10517 0039 26       		.uleb128 0x26
 10518 003a 00       		.byte	0
 10519 003b 49       		.uleb128 0x49
 10520 003c 13       		.uleb128 0x13
 10521 003d 00       		.byte	0
 10522 003e 00       		.byte	0
 10523 003f 06       		.uleb128 0x6
 10524 0040 34       		.uleb128 0x34
 10525 0041 00       		.byte	0
 10526 0042 03       		.uleb128 0x3
 10527 0043 0E       		.uleb128 0xe
 10528 0044 3A       		.uleb128 0x3a
 10529 0045 0B       		.uleb128 0xb
 10530 0046 3B       		.uleb128 0x3b
 10531 0047 0B       		.uleb128 0xb
 10532 0048 49       		.uleb128 0x49
 10533 0049 13       		.uleb128 0x13
 10534 004a 3F       		.uleb128 0x3f
 10535 004b 0C       		.uleb128 0xc
 10536 004c 3C       		.uleb128 0x3c
 10537 004d 0C       		.uleb128 0xc
 10538 004e 00       		.byte	0
 10539 004f 00       		.byte	0
 10540 0050 07       		.uleb128 0x7
 10541 0051 01       		.uleb128 0x1
 10542 0052 01       		.byte	0x1
 10543 0053 49       		.uleb128 0x49
 10544 0054 13       		.uleb128 0x13
ARM GAS  C:\Users\EBANO_~1\AppData\Local\Temp\ccazSBuk.s 			page 212


 10545 0055 01       		.uleb128 0x1
 10546 0056 13       		.uleb128 0x13
 10547 0057 00       		.byte	0
 10548 0058 00       		.byte	0
 10549 0059 08       		.uleb128 0x8
 10550 005a 21       		.uleb128 0x21
 10551 005b 00       		.byte	0
 10552 005c 49       		.uleb128 0x49
 10553 005d 13       		.uleb128 0x13
 10554 005e 2F       		.uleb128 0x2f
 10555 005f 0B       		.uleb128 0xb
 10556 0060 00       		.byte	0
 10557 0061 00       		.byte	0
 10558 0062 09       		.uleb128 0x9
 10559 0063 0F       		.uleb128 0xf
 10560 0064 00       		.byte	0
 10561 0065 0B       		.uleb128 0xb
 10562 0066 0B       		.uleb128 0xb
 10563 0067 00       		.byte	0
 10564 0068 00       		.byte	0
 10565 0069 0A       		.uleb128 0xa
 10566 006a 0F       		.uleb128 0xf
 10567 006b 00       		.byte	0
 10568 006c 0B       		.uleb128 0xb
 10569 006d 0B       		.uleb128 0xb
 10570 006e 49       		.uleb128 0x49
 10571 006f 13       		.uleb128 0x13
 10572 0070 00       		.byte	0
 10573 0071 00       		.byte	0
 10574 0072 0B       		.uleb128 0xb
 10575 0073 13       		.uleb128 0x13
 10576 0074 00       		.byte	0
 10577 0075 03       		.uleb128 0x3
 10578 0076 0E       		.uleb128 0xe
 10579 0077 3C       		.uleb128 0x3c
 10580 0078 0C       		.uleb128 0xc
 10581 0079 00       		.byte	0
 10582 007a 00       		.byte	0
 10583 007b 0C       		.uleb128 0xc
 10584 007c 16       		.uleb128 0x16
 10585 007d 00       		.byte	0
 10586 007e 03       		.uleb128 0x3
 10587 007f 0E       		.uleb128 0xe
 10588 0080 3A       		.uleb128 0x3a
 10589 0081 0B       		.uleb128 0xb
 10590 0082 3B       		.uleb128 0x3b
 10591 0083 05       		.uleb128 0x5
 10592 0084 49       		.uleb128 0x49
 10593 0085 13       		.uleb128 0x13
 10594 0086 00       		.byte	0
 10595 0087 00       		.byte	0
 10596 0088 0D       		.uleb128 0xd
 10597 0089 17       		.uleb128 0x17
 10598 008a 01       		.byte	0x1
 10599 008b 0B       		.uleb128 0xb
 10600 008c 0B       		.uleb128 0xb
 10601 008d 3A       		.uleb128 0x3a
ARM GAS  C:\Users\EBANO_~1\AppData\Local\Temp\ccazSBuk.s 			page 213


 10602 008e 0B       		.uleb128 0xb
 10603 008f 3B       		.uleb128 0x3b
 10604 0090 0B       		.uleb128 0xb
 10605 0091 01       		.uleb128 0x1
 10606 0092 13       		.uleb128 0x13
 10607 0093 00       		.byte	0
 10608 0094 00       		.byte	0
 10609 0095 0E       		.uleb128 0xe
 10610 0096 0D       		.uleb128 0xd
 10611 0097 00       		.byte	0
 10612 0098 03       		.uleb128 0x3
 10613 0099 0E       		.uleb128 0xe
 10614 009a 3A       		.uleb128 0x3a
 10615 009b 0B       		.uleb128 0xb
 10616 009c 3B       		.uleb128 0x3b
 10617 009d 0B       		.uleb128 0xb
 10618 009e 49       		.uleb128 0x49
 10619 009f 13       		.uleb128 0x13
 10620 00a0 00       		.byte	0
 10621 00a1 00       		.byte	0
 10622 00a2 0F       		.uleb128 0xf
 10623 00a3 13       		.uleb128 0x13
 10624 00a4 01       		.byte	0x1
 10625 00a5 0B       		.uleb128 0xb
 10626 00a6 0B       		.uleb128 0xb
 10627 00a7 3A       		.uleb128 0x3a
 10628 00a8 0B       		.uleb128 0xb
 10629 00a9 3B       		.uleb128 0x3b
 10630 00aa 0B       		.uleb128 0xb
 10631 00ab 01       		.uleb128 0x1
 10632 00ac 13       		.uleb128 0x13
 10633 00ad 00       		.byte	0
 10634 00ae 00       		.byte	0
 10635 00af 10       		.uleb128 0x10
 10636 00b0 0D       		.uleb128 0xd
 10637 00b1 00       		.byte	0
 10638 00b2 03       		.uleb128 0x3
 10639 00b3 0E       		.uleb128 0xe
 10640 00b4 3A       		.uleb128 0x3a
 10641 00b5 0B       		.uleb128 0xb
 10642 00b6 3B       		.uleb128 0x3b
 10643 00b7 0B       		.uleb128 0xb
 10644 00b8 49       		.uleb128 0x49
 10645 00b9 13       		.uleb128 0x13
 10646 00ba 38       		.uleb128 0x38
 10647 00bb 0A       		.uleb128 0xa
 10648 00bc 00       		.byte	0
 10649 00bd 00       		.byte	0
 10650 00be 11       		.uleb128 0x11
 10651 00bf 13       		.uleb128 0x13
 10652 00c0 01       		.byte	0x1
 10653 00c1 03       		.uleb128 0x3
 10654 00c2 0E       		.uleb128 0xe
 10655 00c3 0B       		.uleb128 0xb
 10656 00c4 0B       		.uleb128 0xb
 10657 00c5 3A       		.uleb128 0x3a
 10658 00c6 0B       		.uleb128 0xb
ARM GAS  C:\Users\EBANO_~1\AppData\Local\Temp\ccazSBuk.s 			page 214


 10659 00c7 3B       		.uleb128 0x3b
 10660 00c8 0B       		.uleb128 0xb
 10661 00c9 01       		.uleb128 0x1
 10662 00ca 13       		.uleb128 0x13
 10663 00cb 00       		.byte	0
 10664 00cc 00       		.byte	0
 10665 00cd 12       		.uleb128 0x12
 10666 00ce 0D       		.uleb128 0xd
 10667 00cf 00       		.byte	0
 10668 00d0 03       		.uleb128 0x3
 10669 00d1 08       		.uleb128 0x8
 10670 00d2 3A       		.uleb128 0x3a
 10671 00d3 0B       		.uleb128 0xb
 10672 00d4 3B       		.uleb128 0x3b
 10673 00d5 0B       		.uleb128 0xb
 10674 00d6 49       		.uleb128 0x49
 10675 00d7 13       		.uleb128 0x13
 10676 00d8 38       		.uleb128 0x38
 10677 00d9 0A       		.uleb128 0xa
 10678 00da 00       		.byte	0
 10679 00db 00       		.byte	0
 10680 00dc 13       		.uleb128 0x13
 10681 00dd 13       		.uleb128 0x13
 10682 00de 01       		.byte	0x1
 10683 00df 03       		.uleb128 0x3
 10684 00e0 0E       		.uleb128 0xe
 10685 00e1 0B       		.uleb128 0xb
 10686 00e2 05       		.uleb128 0x5
 10687 00e3 3A       		.uleb128 0x3a
 10688 00e4 0B       		.uleb128 0xb
 10689 00e5 3B       		.uleb128 0x3b
 10690 00e6 0B       		.uleb128 0xb
 10691 00e7 01       		.uleb128 0x1
 10692 00e8 13       		.uleb128 0x13
 10693 00e9 00       		.byte	0
 10694 00ea 00       		.byte	0
 10695 00eb 14       		.uleb128 0x14
 10696 00ec 15       		.uleb128 0x15
 10697 00ed 00       		.byte	0
 10698 00ee 27       		.uleb128 0x27
 10699 00ef 0C       		.uleb128 0xc
 10700 00f0 00       		.byte	0
 10701 00f1 00       		.byte	0
 10702 00f2 15       		.uleb128 0x15
 10703 00f3 15       		.uleb128 0x15
 10704 00f4 01       		.byte	0x1
 10705 00f5 27       		.uleb128 0x27
 10706 00f6 0C       		.uleb128 0xc
 10707 00f7 49       		.uleb128 0x49
 10708 00f8 13       		.uleb128 0x13
 10709 00f9 01       		.uleb128 0x1
 10710 00fa 13       		.uleb128 0x13
 10711 00fb 00       		.byte	0
 10712 00fc 00       		.byte	0
 10713 00fd 16       		.uleb128 0x16
 10714 00fe 05       		.uleb128 0x5
 10715 00ff 00       		.byte	0
ARM GAS  C:\Users\EBANO_~1\AppData\Local\Temp\ccazSBuk.s 			page 215


 10716 0100 49       		.uleb128 0x49
 10717 0101 13       		.uleb128 0x13
 10718 0102 00       		.byte	0
 10719 0103 00       		.byte	0
 10720 0104 17       		.uleb128 0x17
 10721 0105 13       		.uleb128 0x13
 10722 0106 01       		.byte	0x1
 10723 0107 03       		.uleb128 0x3
 10724 0108 0E       		.uleb128 0xe
 10725 0109 0B       		.uleb128 0xb
 10726 010a 05       		.uleb128 0x5
 10727 010b 3A       		.uleb128 0x3a
 10728 010c 0B       		.uleb128 0xb
 10729 010d 3B       		.uleb128 0x3b
 10730 010e 05       		.uleb128 0x5
 10731 010f 01       		.uleb128 0x1
 10732 0110 13       		.uleb128 0x13
 10733 0111 00       		.byte	0
 10734 0112 00       		.byte	0
 10735 0113 18       		.uleb128 0x18
 10736 0114 0D       		.uleb128 0xd
 10737 0115 00       		.byte	0
 10738 0116 03       		.uleb128 0x3
 10739 0117 0E       		.uleb128 0xe
 10740 0118 3A       		.uleb128 0x3a
 10741 0119 0B       		.uleb128 0xb
 10742 011a 3B       		.uleb128 0x3b
 10743 011b 05       		.uleb128 0x5
 10744 011c 49       		.uleb128 0x49
 10745 011d 13       		.uleb128 0x13
 10746 011e 38       		.uleb128 0x38
 10747 011f 0A       		.uleb128 0xa
 10748 0120 00       		.byte	0
 10749 0121 00       		.byte	0
 10750 0122 19       		.uleb128 0x19
 10751 0123 13       		.uleb128 0x13
 10752 0124 01       		.byte	0x1
 10753 0125 03       		.uleb128 0x3
 10754 0126 0E       		.uleb128 0xe
 10755 0127 0B       		.uleb128 0xb
 10756 0128 0B       		.uleb128 0xb
 10757 0129 3A       		.uleb128 0x3a
 10758 012a 0B       		.uleb128 0xb
 10759 012b 3B       		.uleb128 0x3b
 10760 012c 05       		.uleb128 0x5
 10761 012d 01       		.uleb128 0x1
 10762 012e 13       		.uleb128 0x13
 10763 012f 00       		.byte	0
 10764 0130 00       		.byte	0
 10765 0131 1A       		.uleb128 0x1a
 10766 0132 13       		.uleb128 0x13
 10767 0133 01       		.byte	0x1
 10768 0134 0B       		.uleb128 0xb
 10769 0135 0B       		.uleb128 0xb
 10770 0136 3A       		.uleb128 0x3a
 10771 0137 0B       		.uleb128 0xb
 10772 0138 3B       		.uleb128 0x3b
ARM GAS  C:\Users\EBANO_~1\AppData\Local\Temp\ccazSBuk.s 			page 216


 10773 0139 05       		.uleb128 0x5
 10774 013a 01       		.uleb128 0x1
 10775 013b 13       		.uleb128 0x13
 10776 013c 00       		.byte	0
 10777 013d 00       		.byte	0
 10778 013e 1B       		.uleb128 0x1b
 10779 013f 17       		.uleb128 0x17
 10780 0140 01       		.byte	0x1
 10781 0141 0B       		.uleb128 0xb
 10782 0142 0B       		.uleb128 0xb
 10783 0143 3A       		.uleb128 0x3a
 10784 0144 0B       		.uleb128 0xb
 10785 0145 3B       		.uleb128 0x3b
 10786 0146 05       		.uleb128 0x5
 10787 0147 01       		.uleb128 0x1
 10788 0148 13       		.uleb128 0x13
 10789 0149 00       		.byte	0
 10790 014a 00       		.byte	0
 10791 014b 1C       		.uleb128 0x1c
 10792 014c 0D       		.uleb128 0xd
 10793 014d 00       		.byte	0
 10794 014e 03       		.uleb128 0x3
 10795 014f 0E       		.uleb128 0xe
 10796 0150 3A       		.uleb128 0x3a
 10797 0151 0B       		.uleb128 0xb
 10798 0152 3B       		.uleb128 0x3b
 10799 0153 05       		.uleb128 0x5
 10800 0154 49       		.uleb128 0x49
 10801 0155 13       		.uleb128 0x13
 10802 0156 00       		.byte	0
 10803 0157 00       		.byte	0
 10804 0158 1D       		.uleb128 0x1d
 10805 0159 15       		.uleb128 0x15
 10806 015a 01       		.byte	0x1
 10807 015b 27       		.uleb128 0x27
 10808 015c 0C       		.uleb128 0xc
 10809 015d 01       		.uleb128 0x1
 10810 015e 13       		.uleb128 0x13
 10811 015f 00       		.byte	0
 10812 0160 00       		.byte	0
 10813 0161 1E       		.uleb128 0x1e
 10814 0162 34       		.uleb128 0x34
 10815 0163 00       		.byte	0
 10816 0164 03       		.uleb128 0x3
 10817 0165 0E       		.uleb128 0xe
 10818 0166 3A       		.uleb128 0x3a
 10819 0167 0B       		.uleb128 0xb
 10820 0168 3B       		.uleb128 0x3b
 10821 0169 05       		.uleb128 0x5
 10822 016a 49       		.uleb128 0x49
 10823 016b 13       		.uleb128 0x13
 10824 016c 3F       		.uleb128 0x3f
 10825 016d 0C       		.uleb128 0xc
 10826 016e 3C       		.uleb128 0x3c
 10827 016f 0C       		.uleb128 0xc
 10828 0170 00       		.byte	0
 10829 0171 00       		.byte	0
ARM GAS  C:\Users\EBANO_~1\AppData\Local\Temp\ccazSBuk.s 			page 217


 10830 0172 1F       		.uleb128 0x1f
 10831 0173 17       		.uleb128 0x17
 10832 0174 01       		.byte	0x1
 10833 0175 03       		.uleb128 0x3
 10834 0176 0E       		.uleb128 0xe
 10835 0177 0B       		.uleb128 0xb
 10836 0178 0B       		.uleb128 0xb
 10837 0179 3A       		.uleb128 0x3a
 10838 017a 0B       		.uleb128 0xb
 10839 017b 3B       		.uleb128 0x3b
 10840 017c 0B       		.uleb128 0xb
 10841 017d 01       		.uleb128 0x1
 10842 017e 13       		.uleb128 0x13
 10843 017f 00       		.byte	0
 10844 0180 00       		.byte	0
 10845 0181 20       		.uleb128 0x20
 10846 0182 04       		.uleb128 0x4
 10847 0183 01       		.byte	0x1
 10848 0184 3E       		.uleb128 0x3e
 10849 0185 0B       		.uleb128 0xb
 10850 0186 0B       		.uleb128 0xb
 10851 0187 0B       		.uleb128 0xb
 10852 0188 49       		.uleb128 0x49
 10853 0189 13       		.uleb128 0x13
 10854 018a 3A       		.uleb128 0x3a
 10855 018b 0B       		.uleb128 0xb
 10856 018c 3B       		.uleb128 0x3b
 10857 018d 0B       		.uleb128 0xb
 10858 018e 01       		.uleb128 0x1
 10859 018f 13       		.uleb128 0x13
 10860 0190 00       		.byte	0
 10861 0191 00       		.byte	0
 10862 0192 21       		.uleb128 0x21
 10863 0193 28       		.uleb128 0x28
 10864 0194 00       		.byte	0
 10865 0195 03       		.uleb128 0x3
 10866 0196 0E       		.uleb128 0xe
 10867 0197 1C       		.uleb128 0x1c
 10868 0198 0B       		.uleb128 0xb
 10869 0199 00       		.byte	0
 10870 019a 00       		.byte	0
 10871 019b 22       		.uleb128 0x22
 10872 019c 0D       		.uleb128 0xd
 10873 019d 00       		.byte	0
 10874 019e 03       		.uleb128 0x3
 10875 019f 08       		.uleb128 0x8
 10876 01a0 3A       		.uleb128 0x3a
 10877 01a1 0B       		.uleb128 0xb
 10878 01a2 3B       		.uleb128 0x3b
 10879 01a3 05       		.uleb128 0x5
 10880 01a4 49       		.uleb128 0x49
 10881 01a5 13       		.uleb128 0x13
 10882 01a6 38       		.uleb128 0x38
 10883 01a7 0A       		.uleb128 0xa
 10884 01a8 00       		.byte	0
 10885 01a9 00       		.byte	0
 10886 01aa 23       		.uleb128 0x23
ARM GAS  C:\Users\EBANO_~1\AppData\Local\Temp\ccazSBuk.s 			page 218


 10887 01ab 15       		.uleb128 0x15
 10888 01ac 00       		.byte	0
 10889 01ad 27       		.uleb128 0x27
 10890 01ae 0C       		.uleb128 0xc
 10891 01af 49       		.uleb128 0x49
 10892 01b0 13       		.uleb128 0x13
 10893 01b1 00       		.byte	0
 10894 01b2 00       		.byte	0
 10895 01b3 24       		.uleb128 0x24
 10896 01b4 0D       		.uleb128 0xd
 10897 01b5 00       		.byte	0
 10898 01b6 03       		.uleb128 0x3
 10899 01b7 08       		.uleb128 0x8
 10900 01b8 3A       		.uleb128 0x3a
 10901 01b9 0B       		.uleb128 0xb
 10902 01ba 3B       		.uleb128 0x3b
 10903 01bb 0B       		.uleb128 0xb
 10904 01bc 49       		.uleb128 0x49
 10905 01bd 13       		.uleb128 0x13
 10906 01be 0B       		.uleb128 0xb
 10907 01bf 0B       		.uleb128 0xb
 10908 01c0 0D       		.uleb128 0xd
 10909 01c1 0B       		.uleb128 0xb
 10910 01c2 0C       		.uleb128 0xc
 10911 01c3 0B       		.uleb128 0xb
 10912 01c4 38       		.uleb128 0x38
 10913 01c5 0A       		.uleb128 0xa
 10914 01c6 00       		.byte	0
 10915 01c7 00       		.byte	0
 10916 01c8 25       		.uleb128 0x25
 10917 01c9 04       		.uleb128 0x4
 10918 01ca 01       		.byte	0x1
 10919 01cb 03       		.uleb128 0x3
 10920 01cc 0E       		.uleb128 0xe
 10921 01cd 3E       		.uleb128 0x3e
 10922 01ce 0B       		.uleb128 0xb
 10923 01cf 0B       		.uleb128 0xb
 10924 01d0 0B       		.uleb128 0xb
 10925 01d1 49       		.uleb128 0x49
 10926 01d2 13       		.uleb128 0x13
 10927 01d3 3A       		.uleb128 0x3a
 10928 01d4 0B       		.uleb128 0xb
 10929 01d5 3B       		.uleb128 0x3b
 10930 01d6 0B       		.uleb128 0xb
 10931 01d7 01       		.uleb128 0x1
 10932 01d8 13       		.uleb128 0x13
 10933 01d9 00       		.byte	0
 10934 01da 00       		.byte	0
 10935 01db 26       		.uleb128 0x26
 10936 01dc 04       		.uleb128 0x4
 10937 01dd 01       		.byte	0x1
 10938 01de 03       		.uleb128 0x3
 10939 01df 0E       		.uleb128 0xe
 10940 01e0 3E       		.uleb128 0x3e
 10941 01e1 0B       		.uleb128 0xb
 10942 01e2 0B       		.uleb128 0xb
 10943 01e3 0B       		.uleb128 0xb
ARM GAS  C:\Users\EBANO_~1\AppData\Local\Temp\ccazSBuk.s 			page 219


 10944 01e4 49       		.uleb128 0x49
 10945 01e5 13       		.uleb128 0x13
 10946 01e6 3A       		.uleb128 0x3a
 10947 01e7 0B       		.uleb128 0xb
 10948 01e8 3B       		.uleb128 0x3b
 10949 01e9 05       		.uleb128 0x5
 10950 01ea 01       		.uleb128 0x1
 10951 01eb 13       		.uleb128 0x13
 10952 01ec 00       		.byte	0
 10953 01ed 00       		.byte	0
 10954 01ee 27       		.uleb128 0x27
 10955 01ef 34       		.uleb128 0x34
 10956 01f0 00       		.byte	0
 10957 01f1 03       		.uleb128 0x3
 10958 01f2 0E       		.uleb128 0xe
 10959 01f3 3A       		.uleb128 0x3a
 10960 01f4 0B       		.uleb128 0xb
 10961 01f5 3B       		.uleb128 0x3b
 10962 01f6 05       		.uleb128 0x5
 10963 01f7 49       		.uleb128 0x49
 10964 01f8 13       		.uleb128 0x13
 10965 01f9 1C       		.uleb128 0x1c
 10966 01fa 0A       		.uleb128 0xa
 10967 01fb 00       		.byte	0
 10968 01fc 00       		.byte	0
 10969 01fd 28       		.uleb128 0x28
 10970 01fe 17       		.uleb128 0x17
 10971 01ff 01       		.byte	0x1
 10972 0200 03       		.uleb128 0x3
 10973 0201 0E       		.uleb128 0xe
 10974 0202 0B       		.uleb128 0xb
 10975 0203 0B       		.uleb128 0xb
 10976 0204 3A       		.uleb128 0x3a
 10977 0205 0B       		.uleb128 0xb
 10978 0206 3B       		.uleb128 0x3b
 10979 0207 05       		.uleb128 0x5
 10980 0208 01       		.uleb128 0x1
 10981 0209 13       		.uleb128 0x13
 10982 020a 00       		.byte	0
 10983 020b 00       		.byte	0
 10984 020c 29       		.uleb128 0x29
 10985 020d 34       		.uleb128 0x34
 10986 020e 00       		.byte	0
 10987 020f 03       		.uleb128 0x3
 10988 0210 0E       		.uleb128 0xe
 10989 0211 3A       		.uleb128 0x3a
 10990 0212 0B       		.uleb128 0xb
 10991 0213 3B       		.uleb128 0x3b
 10992 0214 0B       		.uleb128 0xb
 10993 0215 49       		.uleb128 0x49
 10994 0216 13       		.uleb128 0x13
 10995 0217 02       		.uleb128 0x2
 10996 0218 0A       		.uleb128 0xa
 10997 0219 00       		.byte	0
 10998 021a 00       		.byte	0
 10999 021b 2A       		.uleb128 0x2a
 11000 021c 34       		.uleb128 0x34
ARM GAS  C:\Users\EBANO_~1\AppData\Local\Temp\ccazSBuk.s 			page 220


 11001 021d 00       		.byte	0
 11002 021e 03       		.uleb128 0x3
 11003 021f 0E       		.uleb128 0xe
 11004 0220 3A       		.uleb128 0x3a
 11005 0221 0B       		.uleb128 0xb
 11006 0222 3B       		.uleb128 0x3b
 11007 0223 05       		.uleb128 0x5
 11008 0224 49       		.uleb128 0x49
 11009 0225 13       		.uleb128 0x13
 11010 0226 02       		.uleb128 0x2
 11011 0227 0A       		.uleb128 0xa
 11012 0228 00       		.byte	0
 11013 0229 00       		.byte	0
 11014 022a 2B       		.uleb128 0x2b
 11015 022b 2E       		.uleb128 0x2e
 11016 022c 01       		.byte	0x1
 11017 022d 3F       		.uleb128 0x3f
 11018 022e 0C       		.uleb128 0xc
 11019 022f 03       		.uleb128 0x3
 11020 0230 0E       		.uleb128 0xe
 11021 0231 3A       		.uleb128 0x3a
 11022 0232 0B       		.uleb128 0xb
 11023 0233 3B       		.uleb128 0x3b
 11024 0234 05       		.uleb128 0x5
 11025 0235 27       		.uleb128 0x27
 11026 0236 0C       		.uleb128 0xc
 11027 0237 11       		.uleb128 0x11
 11028 0238 01       		.uleb128 0x1
 11029 0239 12       		.uleb128 0x12
 11030 023a 01       		.uleb128 0x1
 11031 023b 40       		.uleb128 0x40
 11032 023c 06       		.uleb128 0x6
 11033 023d 9742     		.uleb128 0x2117
 11034 023f 0C       		.uleb128 0xc
 11035 0240 01       		.uleb128 0x1
 11036 0241 13       		.uleb128 0x13
 11037 0242 00       		.byte	0
 11038 0243 00       		.byte	0
 11039 0244 2C       		.uleb128 0x2c
 11040 0245 05       		.uleb128 0x5
 11041 0246 00       		.byte	0
 11042 0247 03       		.uleb128 0x3
 11043 0248 0E       		.uleb128 0xe
 11044 0249 3A       		.uleb128 0x3a
 11045 024a 0B       		.uleb128 0xb
 11046 024b 3B       		.uleb128 0x3b
 11047 024c 05       		.uleb128 0x5
 11048 024d 49       		.uleb128 0x49
 11049 024e 13       		.uleb128 0x13
 11050 024f 02       		.uleb128 0x2
 11051 0250 06       		.uleb128 0x6
 11052 0251 00       		.byte	0
 11053 0252 00       		.byte	0
 11054 0253 2D       		.uleb128 0x2d
 11055 0254 898201   		.uleb128 0x4109
 11056 0257 01       		.byte	0x1
 11057 0258 11       		.uleb128 0x11
ARM GAS  C:\Users\EBANO_~1\AppData\Local\Temp\ccazSBuk.s 			page 221


 11058 0259 01       		.uleb128 0x1
 11059 025a 31       		.uleb128 0x31
 11060 025b 13       		.uleb128 0x13
 11061 025c 00       		.byte	0
 11062 025d 00       		.byte	0
 11063 025e 2E       		.uleb128 0x2e
 11064 025f 8A8201   		.uleb128 0x410a
 11065 0262 00       		.byte	0
 11066 0263 02       		.uleb128 0x2
 11067 0264 0A       		.uleb128 0xa
 11068 0265 9142     		.uleb128 0x2111
 11069 0267 0A       		.uleb128 0xa
 11070 0268 00       		.byte	0
 11071 0269 00       		.byte	0
 11072 026a 2F       		.uleb128 0x2f
 11073 026b 2E       		.uleb128 0x2e
 11074 026c 01       		.byte	0x1
 11075 026d 3F       		.uleb128 0x3f
 11076 026e 0C       		.uleb128 0xc
 11077 026f 03       		.uleb128 0x3
 11078 0270 0E       		.uleb128 0xe
 11079 0271 3A       		.uleb128 0x3a
 11080 0272 0B       		.uleb128 0xb
 11081 0273 3B       		.uleb128 0x3b
 11082 0274 05       		.uleb128 0x5
 11083 0275 27       		.uleb128 0x27
 11084 0276 0C       		.uleb128 0xc
 11085 0277 49       		.uleb128 0x49
 11086 0278 13       		.uleb128 0x13
 11087 0279 11       		.uleb128 0x11
 11088 027a 01       		.uleb128 0x1
 11089 027b 12       		.uleb128 0x12
 11090 027c 01       		.uleb128 0x1
 11091 027d 40       		.uleb128 0x40
 11092 027e 0A       		.uleb128 0xa
 11093 027f 9742     		.uleb128 0x2117
 11094 0281 0C       		.uleb128 0xc
 11095 0282 01       		.uleb128 0x1
 11096 0283 13       		.uleb128 0x13
 11097 0284 00       		.byte	0
 11098 0285 00       		.byte	0
 11099 0286 30       		.uleb128 0x30
 11100 0287 05       		.uleb128 0x5
 11101 0288 00       		.byte	0
 11102 0289 03       		.uleb128 0x3
 11103 028a 08       		.uleb128 0x8
 11104 028b 3A       		.uleb128 0x3a
 11105 028c 0B       		.uleb128 0xb
 11106 028d 3B       		.uleb128 0x3b
 11107 028e 05       		.uleb128 0x5
 11108 028f 49       		.uleb128 0x49
 11109 0290 13       		.uleb128 0x13
 11110 0291 02       		.uleb128 0x2
 11111 0292 06       		.uleb128 0x6
 11112 0293 00       		.byte	0
 11113 0294 00       		.byte	0
 11114 0295 31       		.uleb128 0x31
ARM GAS  C:\Users\EBANO_~1\AppData\Local\Temp\ccazSBuk.s 			page 222


 11115 0296 05       		.uleb128 0x5
 11116 0297 00       		.byte	0
 11117 0298 03       		.uleb128 0x3
 11118 0299 0E       		.uleb128 0xe
 11119 029a 3A       		.uleb128 0x3a
 11120 029b 0B       		.uleb128 0xb
 11121 029c 3B       		.uleb128 0x3b
 11122 029d 05       		.uleb128 0x5
 11123 029e 49       		.uleb128 0x49
 11124 029f 13       		.uleb128 0x13
 11125 02a0 02       		.uleb128 0x2
 11126 02a1 0A       		.uleb128 0xa
 11127 02a2 00       		.byte	0
 11128 02a3 00       		.byte	0
 11129 02a4 32       		.uleb128 0x32
 11130 02a5 34       		.uleb128 0x34
 11131 02a6 00       		.byte	0
 11132 02a7 03       		.uleb128 0x3
 11133 02a8 0E       		.uleb128 0xe
 11134 02a9 3A       		.uleb128 0x3a
 11135 02aa 0B       		.uleb128 0xb
 11136 02ab 3B       		.uleb128 0x3b
 11137 02ac 05       		.uleb128 0x5
 11138 02ad 49       		.uleb128 0x49
 11139 02ae 13       		.uleb128 0x13
 11140 02af 00       		.byte	0
 11141 02b0 00       		.byte	0
 11142 02b1 33       		.uleb128 0x33
 11143 02b2 34       		.uleb128 0x34
 11144 02b3 00       		.byte	0
 11145 02b4 03       		.uleb128 0x3
 11146 02b5 0E       		.uleb128 0xe
 11147 02b6 3A       		.uleb128 0x3a
 11148 02b7 0B       		.uleb128 0xb
 11149 02b8 3B       		.uleb128 0x3b
 11150 02b9 05       		.uleb128 0x5
 11151 02ba 49       		.uleb128 0x49
 11152 02bb 13       		.uleb128 0x13
 11153 02bc 02       		.uleb128 0x2
 11154 02bd 06       		.uleb128 0x6
 11155 02be 00       		.byte	0
 11156 02bf 00       		.byte	0
 11157 02c0 34       		.uleb128 0x34
 11158 02c1 1D       		.uleb128 0x1d
 11159 02c2 01       		.byte	0x1
 11160 02c3 31       		.uleb128 0x31
 11161 02c4 13       		.uleb128 0x13
 11162 02c5 52       		.uleb128 0x52
 11163 02c6 01       		.uleb128 0x1
 11164 02c7 55       		.uleb128 0x55
 11165 02c8 06       		.uleb128 0x6
 11166 02c9 58       		.uleb128 0x58
 11167 02ca 0B       		.uleb128 0xb
 11168 02cb 59       		.uleb128 0x59
 11169 02cc 05       		.uleb128 0x5
 11170 02cd 01       		.uleb128 0x1
 11171 02ce 13       		.uleb128 0x13
ARM GAS  C:\Users\EBANO_~1\AppData\Local\Temp\ccazSBuk.s 			page 223


 11172 02cf 00       		.byte	0
 11173 02d0 00       		.byte	0
 11174 02d1 35       		.uleb128 0x35
 11175 02d2 05       		.uleb128 0x5
 11176 02d3 00       		.byte	0
 11177 02d4 31       		.uleb128 0x31
 11178 02d5 13       		.uleb128 0x13
 11179 02d6 02       		.uleb128 0x2
 11180 02d7 06       		.uleb128 0x6
 11181 02d8 00       		.byte	0
 11182 02d9 00       		.byte	0
 11183 02da 36       		.uleb128 0x36
 11184 02db 05       		.uleb128 0x5
 11185 02dc 00       		.byte	0
 11186 02dd 31       		.uleb128 0x31
 11187 02de 13       		.uleb128 0x13
 11188 02df 02       		.uleb128 0x2
 11189 02e0 0A       		.uleb128 0xa
 11190 02e1 00       		.byte	0
 11191 02e2 00       		.byte	0
 11192 02e3 37       		.uleb128 0x37
 11193 02e4 05       		.uleb128 0x5
 11194 02e5 00       		.byte	0
 11195 02e6 31       		.uleb128 0x31
 11196 02e7 13       		.uleb128 0x13
 11197 02e8 00       		.byte	0
 11198 02e9 00       		.byte	0
 11199 02ea 38       		.uleb128 0x38
 11200 02eb 0B       		.uleb128 0xb
 11201 02ec 01       		.byte	0x1
 11202 02ed 55       		.uleb128 0x55
 11203 02ee 06       		.uleb128 0x6
 11204 02ef 00       		.byte	0
 11205 02f0 00       		.byte	0
 11206 02f1 39       		.uleb128 0x39
 11207 02f2 34       		.uleb128 0x34
 11208 02f3 00       		.byte	0
 11209 02f4 31       		.uleb128 0x31
 11210 02f5 13       		.uleb128 0x13
 11211 02f6 00       		.byte	0
 11212 02f7 00       		.byte	0
 11213 02f8 3A       		.uleb128 0x3a
 11214 02f9 898201   		.uleb128 0x4109
 11215 02fc 00       		.byte	0
 11216 02fd 11       		.uleb128 0x11
 11217 02fe 01       		.uleb128 0x1
 11218 02ff 31       		.uleb128 0x31
 11219 0300 13       		.uleb128 0x13
 11220 0301 00       		.byte	0
 11221 0302 00       		.byte	0
 11222 0303 3B       		.uleb128 0x3b
 11223 0304 898201   		.uleb128 0x4109
 11224 0307 01       		.byte	0x1
 11225 0308 11       		.uleb128 0x11
 11226 0309 01       		.uleb128 0x1
 11227 030a 00       		.byte	0
 11228 030b 00       		.byte	0
ARM GAS  C:\Users\EBANO_~1\AppData\Local\Temp\ccazSBuk.s 			page 224


 11229 030c 3C       		.uleb128 0x3c
 11230 030d 2E       		.uleb128 0x2e
 11231 030e 01       		.byte	0x1
 11232 030f 3F       		.uleb128 0x3f
 11233 0310 0C       		.uleb128 0xc
 11234 0311 03       		.uleb128 0x3
 11235 0312 0E       		.uleb128 0xe
 11236 0313 3A       		.uleb128 0x3a
 11237 0314 0B       		.uleb128 0xb
 11238 0315 3B       		.uleb128 0x3b
 11239 0316 05       		.uleb128 0x5
 11240 0317 27       		.uleb128 0x27
 11241 0318 0C       		.uleb128 0xc
 11242 0319 49       		.uleb128 0x49
 11243 031a 13       		.uleb128 0x13
 11244 031b 20       		.uleb128 0x20
 11245 031c 0B       		.uleb128 0xb
 11246 031d 01       		.uleb128 0x1
 11247 031e 13       		.uleb128 0x13
 11248 031f 00       		.byte	0
 11249 0320 00       		.byte	0
 11250 0321 3D       		.uleb128 0x3d
 11251 0322 05       		.uleb128 0x5
 11252 0323 00       		.byte	0
 11253 0324 03       		.uleb128 0x3
 11254 0325 0E       		.uleb128 0xe
 11255 0326 3A       		.uleb128 0x3a
 11256 0327 0B       		.uleb128 0xb
 11257 0328 3B       		.uleb128 0x3b
 11258 0329 05       		.uleb128 0x5
 11259 032a 49       		.uleb128 0x49
 11260 032b 13       		.uleb128 0x13
 11261 032c 00       		.byte	0
 11262 032d 00       		.byte	0
 11263 032e 3E       		.uleb128 0x3e
 11264 032f 34       		.uleb128 0x34
 11265 0330 00       		.byte	0
 11266 0331 03       		.uleb128 0x3
 11267 0332 08       		.uleb128 0x8
 11268 0333 3A       		.uleb128 0x3a
 11269 0334 0B       		.uleb128 0xb
 11270 0335 3B       		.uleb128 0x3b
 11271 0336 05       		.uleb128 0x5
 11272 0337 49       		.uleb128 0x49
 11273 0338 13       		.uleb128 0x13
 11274 0339 00       		.byte	0
 11275 033a 00       		.byte	0
 11276 033b 3F       		.uleb128 0x3f
 11277 033c 2E       		.uleb128 0x2e
 11278 033d 01       		.byte	0x1
 11279 033e 3F       		.uleb128 0x3f
 11280 033f 0C       		.uleb128 0xc
 11281 0340 03       		.uleb128 0x3
 11282 0341 0E       		.uleb128 0xe
 11283 0342 3A       		.uleb128 0x3a
 11284 0343 0B       		.uleb128 0xb
 11285 0344 3B       		.uleb128 0x3b
ARM GAS  C:\Users\EBANO_~1\AppData\Local\Temp\ccazSBuk.s 			page 225


 11286 0345 05       		.uleb128 0x5
 11287 0346 27       		.uleb128 0x27
 11288 0347 0C       		.uleb128 0xc
 11289 0348 49       		.uleb128 0x49
 11290 0349 13       		.uleb128 0x13
 11291 034a 11       		.uleb128 0x11
 11292 034b 01       		.uleb128 0x1
 11293 034c 12       		.uleb128 0x12
 11294 034d 01       		.uleb128 0x1
 11295 034e 40       		.uleb128 0x40
 11296 034f 06       		.uleb128 0x6
 11297 0350 9742     		.uleb128 0x2117
 11298 0352 0C       		.uleb128 0xc
 11299 0353 01       		.uleb128 0x1
 11300 0354 13       		.uleb128 0x13
 11301 0355 00       		.byte	0
 11302 0356 00       		.byte	0
 11303 0357 40       		.uleb128 0x40
 11304 0358 34       		.uleb128 0x34
 11305 0359 00       		.byte	0
 11306 035a 31       		.uleb128 0x31
 11307 035b 13       		.uleb128 0x13
 11308 035c 02       		.uleb128 0x2
 11309 035d 06       		.uleb128 0x6
 11310 035e 00       		.byte	0
 11311 035f 00       		.byte	0
 11312 0360 41       		.uleb128 0x41
 11313 0361 0B       		.uleb128 0xb
 11314 0362 01       		.byte	0x1
 11315 0363 31       		.uleb128 0x31
 11316 0364 13       		.uleb128 0x13
 11317 0365 55       		.uleb128 0x55
 11318 0366 06       		.uleb128 0x6
 11319 0367 00       		.byte	0
 11320 0368 00       		.byte	0
 11321 0369 42       		.uleb128 0x42
 11322 036a 898201   		.uleb128 0x4109
 11323 036d 01       		.byte	0x1
 11324 036e 11       		.uleb128 0x11
 11325 036f 01       		.uleb128 0x1
 11326 0370 31       		.uleb128 0x31
 11327 0371 13       		.uleb128 0x13
 11328 0372 01       		.uleb128 0x1
 11329 0373 13       		.uleb128 0x13
 11330 0374 00       		.byte	0
 11331 0375 00       		.byte	0
 11332 0376 43       		.uleb128 0x43
 11333 0377 1D       		.uleb128 0x1d
 11334 0378 01       		.byte	0x1
 11335 0379 31       		.uleb128 0x31
 11336 037a 13       		.uleb128 0x13
 11337 037b 52       		.uleb128 0x52
 11338 037c 01       		.uleb128 0x1
 11339 037d 55       		.uleb128 0x55
 11340 037e 06       		.uleb128 0x6
 11341 037f 58       		.uleb128 0x58
 11342 0380 0B       		.uleb128 0xb
ARM GAS  C:\Users\EBANO_~1\AppData\Local\Temp\ccazSBuk.s 			page 226


 11343 0381 59       		.uleb128 0x59
 11344 0382 05       		.uleb128 0x5
 11345 0383 00       		.byte	0
 11346 0384 00       		.byte	0
 11347 0385 44       		.uleb128 0x44
 11348 0386 34       		.uleb128 0x34
 11349 0387 00       		.byte	0
 11350 0388 03       		.uleb128 0x3
 11351 0389 0E       		.uleb128 0xe
 11352 038a 3A       		.uleb128 0x3a
 11353 038b 0B       		.uleb128 0xb
 11354 038c 3B       		.uleb128 0x3b
 11355 038d 05       		.uleb128 0x5
 11356 038e 49       		.uleb128 0x49
 11357 038f 13       		.uleb128 0x13
 11358 0390 1C       		.uleb128 0x1c
 11359 0391 0B       		.uleb128 0xb
 11360 0392 00       		.byte	0
 11361 0393 00       		.byte	0
 11362 0394 45       		.uleb128 0x45
 11363 0395 1D       		.uleb128 0x1d
 11364 0396 01       		.byte	0x1
 11365 0397 31       		.uleb128 0x31
 11366 0398 13       		.uleb128 0x13
 11367 0399 11       		.uleb128 0x11
 11368 039a 01       		.uleb128 0x1
 11369 039b 12       		.uleb128 0x12
 11370 039c 01       		.uleb128 0x1
 11371 039d 58       		.uleb128 0x58
 11372 039e 0B       		.uleb128 0xb
 11373 039f 59       		.uleb128 0x59
 11374 03a0 05       		.uleb128 0x5
 11375 03a1 01       		.uleb128 0x1
 11376 03a2 13       		.uleb128 0x13
 11377 03a3 00       		.byte	0
 11378 03a4 00       		.byte	0
 11379 03a5 46       		.uleb128 0x46
 11380 03a6 0B       		.uleb128 0xb
 11381 03a7 01       		.byte	0x1
 11382 03a8 11       		.uleb128 0x11
 11383 03a9 01       		.uleb128 0x1
 11384 03aa 12       		.uleb128 0x12
 11385 03ab 01       		.uleb128 0x1
 11386 03ac 00       		.byte	0
 11387 03ad 00       		.byte	0
 11388 03ae 47       		.uleb128 0x47
 11389 03af 898201   		.uleb128 0x4109
 11390 03b2 01       		.byte	0x1
 11391 03b3 11       		.uleb128 0x11
 11392 03b4 01       		.uleb128 0x1
 11393 03b5 01       		.uleb128 0x1
 11394 03b6 13       		.uleb128 0x13
 11395 03b7 00       		.byte	0
 11396 03b8 00       		.byte	0
 11397 03b9 48       		.uleb128 0x48
 11398 03ba 898201   		.uleb128 0x4109
 11399 03bd 00       		.byte	0
ARM GAS  C:\Users\EBANO_~1\AppData\Local\Temp\ccazSBuk.s 			page 227


 11400 03be 11       		.uleb128 0x11
 11401 03bf 01       		.uleb128 0x1
 11402 03c0 9342     		.uleb128 0x2113
 11403 03c2 0A       		.uleb128 0xa
 11404 03c3 00       		.byte	0
 11405 03c4 00       		.byte	0
 11406 03c5 49       		.uleb128 0x49
 11407 03c6 0B       		.uleb128 0xb
 11408 03c7 01       		.byte	0x1
 11409 03c8 55       		.uleb128 0x55
 11410 03c9 06       		.uleb128 0x6
 11411 03ca 01       		.uleb128 0x1
 11412 03cb 13       		.uleb128 0x13
 11413 03cc 00       		.byte	0
 11414 03cd 00       		.byte	0
 11415 03ce 4A       		.uleb128 0x4a
 11416 03cf 34       		.uleb128 0x34
 11417 03d0 00       		.byte	0
 11418 03d1 03       		.uleb128 0x3
 11419 03d2 08       		.uleb128 0x8
 11420 03d3 3A       		.uleb128 0x3a
 11421 03d4 0B       		.uleb128 0xb
 11422 03d5 3B       		.uleb128 0x3b
 11423 03d6 05       		.uleb128 0x5
 11424 03d7 49       		.uleb128 0x49
 11425 03d8 13       		.uleb128 0x13
 11426 03d9 02       		.uleb128 0x2
 11427 03da 06       		.uleb128 0x6
 11428 03db 00       		.byte	0
 11429 03dc 00       		.byte	0
 11430 03dd 4B       		.uleb128 0x4b
 11431 03de 898201   		.uleb128 0x4109
 11432 03e1 01       		.byte	0x1
 11433 03e2 11       		.uleb128 0x11
 11434 03e3 01       		.uleb128 0x1
 11435 03e4 9342     		.uleb128 0x2113
 11436 03e6 0A       		.uleb128 0xa
 11437 03e7 01       		.uleb128 0x1
 11438 03e8 13       		.uleb128 0x13
 11439 03e9 00       		.byte	0
 11440 03ea 00       		.byte	0
 11441 03eb 4C       		.uleb128 0x4c
 11442 03ec 898201   		.uleb128 0x4109
 11443 03ef 01       		.byte	0x1
 11444 03f0 11       		.uleb128 0x11
 11445 03f1 01       		.uleb128 0x1
 11446 03f2 9342     		.uleb128 0x2113
 11447 03f4 0A       		.uleb128 0xa
 11448 03f5 00       		.byte	0
 11449 03f6 00       		.byte	0
 11450 03f7 4D       		.uleb128 0x4d
 11451 03f8 898201   		.uleb128 0x4109
 11452 03fb 00       		.byte	0
 11453 03fc 11       		.uleb128 0x11
 11454 03fd 01       		.uleb128 0x1
 11455 03fe 00       		.byte	0
 11456 03ff 00       		.byte	0
ARM GAS  C:\Users\EBANO_~1\AppData\Local\Temp\ccazSBuk.s 			page 228


 11457 0400 4E       		.uleb128 0x4e
 11458 0401 2E       		.uleb128 0x2e
 11459 0402 01       		.byte	0x1
 11460 0403 3F       		.uleb128 0x3f
 11461 0404 0C       		.uleb128 0xc
 11462 0405 03       		.uleb128 0x3
 11463 0406 0E       		.uleb128 0xe
 11464 0407 3A       		.uleb128 0x3a
 11465 0408 0B       		.uleb128 0xb
 11466 0409 3B       		.uleb128 0x3b
 11467 040a 0B       		.uleb128 0xb
 11468 040b 27       		.uleb128 0x27
 11469 040c 0C       		.uleb128 0xc
 11470 040d 49       		.uleb128 0x49
 11471 040e 13       		.uleb128 0x13
 11472 040f 20       		.uleb128 0x20
 11473 0410 0B       		.uleb128 0xb
 11474 0411 01       		.uleb128 0x1
 11475 0412 13       		.uleb128 0x13
 11476 0413 00       		.byte	0
 11477 0414 00       		.byte	0
 11478 0415 4F       		.uleb128 0x4f
 11479 0416 05       		.uleb128 0x5
 11480 0417 00       		.byte	0
 11481 0418 03       		.uleb128 0x3
 11482 0419 0E       		.uleb128 0xe
 11483 041a 3A       		.uleb128 0x3a
 11484 041b 0B       		.uleb128 0xb
 11485 041c 3B       		.uleb128 0x3b
 11486 041d 0B       		.uleb128 0xb
 11487 041e 49       		.uleb128 0x49
 11488 041f 13       		.uleb128 0x13
 11489 0420 00       		.byte	0
 11490 0421 00       		.byte	0
 11491 0422 50       		.uleb128 0x50
 11492 0423 34       		.uleb128 0x34
 11493 0424 00       		.byte	0
 11494 0425 03       		.uleb128 0x3
 11495 0426 0E       		.uleb128 0xe
 11496 0427 3A       		.uleb128 0x3a
 11497 0428 0B       		.uleb128 0xb
 11498 0429 3B       		.uleb128 0x3b
 11499 042a 0B       		.uleb128 0xb
 11500 042b 49       		.uleb128 0x49
 11501 042c 13       		.uleb128 0x13
 11502 042d 00       		.byte	0
 11503 042e 00       		.byte	0
 11504 042f 51       		.uleb128 0x51
 11505 0430 2E       		.uleb128 0x2e
 11506 0431 01       		.byte	0x1
 11507 0432 03       		.uleb128 0x3
 11508 0433 0E       		.uleb128 0xe
 11509 0434 3A       		.uleb128 0x3a
 11510 0435 0B       		.uleb128 0xb
 11511 0436 3B       		.uleb128 0x3b
 11512 0437 0B       		.uleb128 0xb
 11513 0438 27       		.uleb128 0x27
ARM GAS  C:\Users\EBANO_~1\AppData\Local\Temp\ccazSBuk.s 			page 229


 11514 0439 0C       		.uleb128 0xc
 11515 043a 49       		.uleb128 0x49
 11516 043b 13       		.uleb128 0x13
 11517 043c 20       		.uleb128 0x20
 11518 043d 0B       		.uleb128 0xb
 11519 043e 01       		.uleb128 0x1
 11520 043f 13       		.uleb128 0x13
 11521 0440 00       		.byte	0
 11522 0441 00       		.byte	0
 11523 0442 52       		.uleb128 0x52
 11524 0443 0B       		.uleb128 0xb
 11525 0444 01       		.byte	0x1
 11526 0445 00       		.byte	0
 11527 0446 00       		.byte	0
 11528 0447 53       		.uleb128 0x53
 11529 0448 34       		.uleb128 0x34
 11530 0449 00       		.byte	0
 11531 044a 03       		.uleb128 0x3
 11532 044b 08       		.uleb128 0x8
 11533 044c 3A       		.uleb128 0x3a
 11534 044d 0B       		.uleb128 0xb
 11535 044e 3B       		.uleb128 0x3b
 11536 044f 0B       		.uleb128 0xb
 11537 0450 49       		.uleb128 0x49
 11538 0451 13       		.uleb128 0x13
 11539 0452 00       		.byte	0
 11540 0453 00       		.byte	0
 11541 0454 54       		.uleb128 0x54
 11542 0455 05       		.uleb128 0x5
 11543 0456 00       		.byte	0
 11544 0457 03       		.uleb128 0x3
 11545 0458 08       		.uleb128 0x8
 11546 0459 3A       		.uleb128 0x3a
 11547 045a 0B       		.uleb128 0xb
 11548 045b 3B       		.uleb128 0x3b
 11549 045c 0B       		.uleb128 0xb
 11550 045d 49       		.uleb128 0x49
 11551 045e 13       		.uleb128 0x13
 11552 045f 00       		.byte	0
 11553 0460 00       		.byte	0
 11554 0461 55       		.uleb128 0x55
 11555 0462 2E       		.uleb128 0x2e
 11556 0463 01       		.byte	0x1
 11557 0464 31       		.uleb128 0x31
 11558 0465 13       		.uleb128 0x13
 11559 0466 11       		.uleb128 0x11
 11560 0467 01       		.uleb128 0x1
 11561 0468 12       		.uleb128 0x12
 11562 0469 01       		.uleb128 0x1
 11563 046a 40       		.uleb128 0x40
 11564 046b 06       		.uleb128 0x6
 11565 046c 9742     		.uleb128 0x2117
 11566 046e 0C       		.uleb128 0xc
 11567 046f 01       		.uleb128 0x1
 11568 0470 13       		.uleb128 0x13
 11569 0471 00       		.byte	0
 11570 0472 00       		.byte	0
ARM GAS  C:\Users\EBANO_~1\AppData\Local\Temp\ccazSBuk.s 			page 230


 11571 0473 56       		.uleb128 0x56
 11572 0474 34       		.uleb128 0x34
 11573 0475 00       		.byte	0
 11574 0476 31       		.uleb128 0x31
 11575 0477 13       		.uleb128 0x13
 11576 0478 02       		.uleb128 0x2
 11577 0479 0A       		.uleb128 0xa
 11578 047a 00       		.byte	0
 11579 047b 00       		.byte	0
 11580 047c 57       		.uleb128 0x57
 11581 047d 1D       		.uleb128 0x1d
 11582 047e 01       		.byte	0x1
 11583 047f 31       		.uleb128 0x31
 11584 0480 13       		.uleb128 0x13
 11585 0481 11       		.uleb128 0x11
 11586 0482 01       		.uleb128 0x1
 11587 0483 12       		.uleb128 0x12
 11588 0484 01       		.uleb128 0x1
 11589 0485 58       		.uleb128 0x58
 11590 0486 0B       		.uleb128 0xb
 11591 0487 59       		.uleb128 0x59
 11592 0488 0B       		.uleb128 0xb
 11593 0489 01       		.uleb128 0x1
 11594 048a 13       		.uleb128 0x13
 11595 048b 00       		.byte	0
 11596 048c 00       		.byte	0
 11597 048d 58       		.uleb128 0x58
 11598 048e 2E       		.uleb128 0x2e
 11599 048f 00       		.byte	0
 11600 0490 3F       		.uleb128 0x3f
 11601 0491 0C       		.uleb128 0xc
 11602 0492 3C       		.uleb128 0x3c
 11603 0493 0C       		.uleb128 0xc
 11604 0494 8740     		.uleb128 0x2007
 11605 0496 0E       		.uleb128 0xe
 11606 0497 03       		.uleb128 0x3
 11607 0498 0E       		.uleb128 0xe
 11608 0499 3A       		.uleb128 0x3a
 11609 049a 0B       		.uleb128 0xb
 11610 049b 3B       		.uleb128 0x3b
 11611 049c 05       		.uleb128 0x5
 11612 049d 00       		.byte	0
 11613 049e 00       		.byte	0
 11614 049f 59       		.uleb128 0x59
 11615 04a0 2E       		.uleb128 0x2e
 11616 04a1 00       		.byte	0
 11617 04a2 3F       		.uleb128 0x3f
 11618 04a3 0C       		.uleb128 0xc
 11619 04a4 3C       		.uleb128 0x3c
 11620 04a5 0C       		.uleb128 0xc
 11621 04a6 8740     		.uleb128 0x2007
 11622 04a8 0E       		.uleb128 0xe
 11623 04a9 03       		.uleb128 0x3
 11624 04aa 0E       		.uleb128 0xe
 11625 04ab 3A       		.uleb128 0x3a
 11626 04ac 0B       		.uleb128 0xb
 11627 04ad 3B       		.uleb128 0x3b
ARM GAS  C:\Users\EBANO_~1\AppData\Local\Temp\ccazSBuk.s 			page 231


 11628 04ae 0B       		.uleb128 0xb
 11629 04af 00       		.byte	0
 11630 04b0 00       		.byte	0
 11631 04b1 5A       		.uleb128 0x5a
 11632 04b2 2E       		.uleb128 0x2e
 11633 04b3 00       		.byte	0
 11634 04b4 3F       		.uleb128 0x3f
 11635 04b5 0C       		.uleb128 0xc
 11636 04b6 3C       		.uleb128 0x3c
 11637 04b7 0C       		.uleb128 0xc
 11638 04b8 8740     		.uleb128 0x2007
 11639 04ba 0E       		.uleb128 0xe
 11640 04bb 03       		.uleb128 0x3
 11641 04bc 0E       		.uleb128 0xe
 11642 04bd 3A       		.uleb128 0x3a
 11643 04be 0B       		.uleb128 0xb
 11644 04bf 3B       		.uleb128 0x3b
 11645 04c0 0B       		.uleb128 0xb
 11646 04c1 8740     		.uleb128 0x2007
 11647 04c3 0E       		.uleb128 0xe
 11648 04c4 00       		.byte	0
 11649 04c5 00       		.byte	0
 11650 04c6 00       		.byte	0
 11651              		.section	.debug_loc,"",%progbits
 11652              	.Ldebug_loc0:
 11653              	.LLST115:
 11654 0000 00000000 		.4byte	.LFB66
 11655 0004 02000000 		.4byte	.LCFI39
 11656 0008 0200     		.2byte	0x2
 11657 000a 7D       		.byte	0x7d
 11658 000b 00       		.sleb128 0
 11659 000c 02000000 		.4byte	.LCFI39
 11660 0010 06000000 		.4byte	.LCFI40
 11661 0014 0200     		.2byte	0x2
 11662 0016 7D       		.byte	0x7d
 11663 0017 08       		.sleb128 8
 11664 0018 06000000 		.4byte	.LCFI40
 11665 001c 38000000 		.4byte	.LFE66
 11666 0020 0200     		.2byte	0x2
 11667 0022 7D       		.byte	0x7d
 11668 0023 20       		.sleb128 32
 11669 0024 00000000 		.4byte	0
 11670 0028 00000000 		.4byte	0
 11671              	.LLST116:
 11672 002c 00000000 		.4byte	.LVL327
 11673 0030 22000000 		.4byte	.LVL328
 11674 0034 0100     		.2byte	0x1
 11675 0036 50       		.byte	0x50
 11676 0037 22000000 		.4byte	.LVL328
 11677 003b 38000000 		.4byte	.LFE66
 11678 003f 0400     		.2byte	0x4
 11679 0041 F3       		.byte	0xf3
 11680 0042 01       		.uleb128 0x1
 11681 0043 50       		.byte	0x50
 11682 0044 9F       		.byte	0x9f
 11683 0045 00000000 		.4byte	0
 11684 0049 00000000 		.4byte	0
ARM GAS  C:\Users\EBANO_~1\AppData\Local\Temp\ccazSBuk.s 			page 232


 11685              	.LLST117:
 11686 004d 00000000 		.4byte	.LVL327
 11687 0051 27000000 		.4byte	.LVL329-1
 11688 0055 0100     		.2byte	0x1
 11689 0057 51       		.byte	0x51
 11690 0058 27000000 		.4byte	.LVL329-1
 11691 005c 2E000000 		.4byte	.LVL330
 11692 0060 0100     		.2byte	0x1
 11693 0062 54       		.byte	0x54
 11694 0063 2E000000 		.4byte	.LVL330
 11695 0067 38000000 		.4byte	.LFE66
 11696 006b 0400     		.2byte	0x4
 11697 006d F3       		.byte	0xf3
 11698 006e 01       		.uleb128 0x1
 11699 006f 51       		.byte	0x51
 11700 0070 9F       		.byte	0x9f
 11701 0071 00000000 		.4byte	0
 11702 0075 00000000 		.4byte	0
 11703              	.LLST113:
 11704 0079 00000000 		.4byte	.LVL323
 11705 007d 06000000 		.4byte	.LVL326
 11706 0081 0100     		.2byte	0x1
 11707 0083 50       		.byte	0x50
 11708 0084 06000000 		.4byte	.LVL326
 11709 0088 0E000000 		.4byte	.LFE65
 11710 008c 0400     		.2byte	0x4
 11711 008e F3       		.byte	0xf3
 11712 008f 01       		.uleb128 0x1
 11713 0090 50       		.byte	0x50
 11714 0091 9F       		.byte	0x9f
 11715 0092 00000000 		.4byte	0
 11716 0096 00000000 		.4byte	0
 11717              	.LLST114:
 11718 009a 00000000 		.4byte	.LVL323
 11719 009e 02000000 		.4byte	.LVL324
 11720 00a2 0100     		.2byte	0x1
 11721 00a4 51       		.byte	0x51
 11722 00a5 02000000 		.4byte	.LVL324
 11723 00a9 0E000000 		.4byte	.LFE65
 11724 00ad 0400     		.2byte	0x4
 11725 00af F3       		.byte	0xf3
 11726 00b0 01       		.uleb128 0x1
 11727 00b1 51       		.byte	0x51
 11728 00b2 9F       		.byte	0x9f
 11729 00b3 00000000 		.4byte	0
 11730 00b7 00000000 		.4byte	0
 11731              	.LLST108:
 11732 00bb 00000000 		.4byte	.LFB64
 11733 00bf 02000000 		.4byte	.LCFI37
 11734 00c3 0200     		.2byte	0x2
 11735 00c5 7D       		.byte	0x7d
 11736 00c6 00       		.sleb128 0
 11737 00c7 02000000 		.4byte	.LCFI37
 11738 00cb 26000000 		.4byte	.LCFI38
 11739 00cf 0200     		.2byte	0x2
 11740 00d1 7D       		.byte	0x7d
 11741 00d2 14       		.sleb128 20
ARM GAS  C:\Users\EBANO_~1\AppData\Local\Temp\ccazSBuk.s 			page 233


 11742 00d3 26000000 		.4byte	.LCFI38
 11743 00d7 50000000 		.4byte	.LFE64
 11744 00db 0200     		.2byte	0x2
 11745 00dd 7D       		.byte	0x7d
 11746 00de 20       		.sleb128 32
 11747 00df 00000000 		.4byte	0
 11748 00e3 00000000 		.4byte	0
 11749              	.LLST109:
 11750 00e7 00000000 		.4byte	.LVL314
 11751 00eb 08000000 		.4byte	.LVL316
 11752 00ef 0100     		.2byte	0x1
 11753 00f1 50       		.byte	0x50
 11754 00f2 08000000 		.4byte	.LVL316
 11755 00f6 46000000 		.4byte	.LVL321
 11756 00fa 0100     		.2byte	0x1
 11757 00fc 54       		.byte	0x54
 11758 00fd 46000000 		.4byte	.LVL321
 11759 0101 50000000 		.4byte	.LFE64
 11760 0105 0400     		.2byte	0x4
 11761 0107 F3       		.byte	0xf3
 11762 0108 01       		.uleb128 0x1
 11763 0109 50       		.byte	0x50
 11764 010a 9F       		.byte	0x9f
 11765 010b 00000000 		.4byte	0
 11766 010f 00000000 		.4byte	0
 11767              	.LLST110:
 11768 0113 06000000 		.4byte	.LVL315
 11769 0117 3A000000 		.4byte	.LVL319
 11770 011b 0200     		.2byte	0x2
 11771 011d 30       		.byte	0x30
 11772 011e 9F       		.byte	0x9f
 11773 011f 3A000000 		.4byte	.LVL319
 11774 0123 43000000 		.4byte	.LVL320-1
 11775 0127 0100     		.2byte	0x1
 11776 0129 51       		.byte	0x51
 11777 012a 00000000 		.4byte	0
 11778 012e 00000000 		.4byte	0
 11779              	.LLST111:
 11780 0132 10000000 		.4byte	.LVL317
 11781 0136 46000000 		.4byte	.LVL322
 11782 013a 0100     		.2byte	0x1
 11783 013c 55       		.byte	0x55
 11784 013d 00000000 		.4byte	0
 11785 0141 00000000 		.4byte	0
 11786              	.LLST112:
 11787 0145 06000000 		.4byte	.LVL315
 11788 0149 08000000 		.4byte	.LVL316
 11789 014d 0200     		.2byte	0x2
 11790 014f 70       		.byte	0x70
 11791 0150 01       		.sleb128 1
 11792 0151 08000000 		.4byte	.LVL316
 11793 0155 35000000 		.4byte	.LVL318-1
 11794 0159 0200     		.2byte	0x2
 11795 015b 74       		.byte	0x74
 11796 015c 01       		.sleb128 1
 11797 015d 00000000 		.4byte	0
 11798 0161 00000000 		.4byte	0
ARM GAS  C:\Users\EBANO_~1\AppData\Local\Temp\ccazSBuk.s 			page 234


 11799              	.LLST79:
 11800 0165 00000000 		.4byte	.LFB61
 11801 0169 02000000 		.4byte	.LCFI31
 11802 016d 0200     		.2byte	0x2
 11803 016f 7D       		.byte	0x7d
 11804 0170 00       		.sleb128 0
 11805 0171 02000000 		.4byte	.LCFI31
 11806 0175 0C000000 		.4byte	.LCFI32
 11807 0179 0200     		.2byte	0x2
 11808 017b 7D       		.byte	0x7d
 11809 017c 14       		.sleb128 20
 11810 017d 0C000000 		.4byte	.LCFI32
 11811 0181 0E000000 		.4byte	.LCFI33
 11812 0185 0200     		.2byte	0x2
 11813 0187 7D       		.byte	0x7d
 11814 0188 24       		.sleb128 36
 11815 0189 0E000000 		.4byte	.LCFI33
 11816 018d A4010000 		.4byte	.LFE61
 11817 0191 0300     		.2byte	0x3
 11818 0193 7D       		.byte	0x7d
 11819 0194 C000     		.sleb128 64
 11820 0196 00000000 		.4byte	0
 11821 019a 00000000 		.4byte	0
 11822              	.LLST80:
 11823 019e 00000000 		.4byte	.LVL245
 11824 01a2 18000000 		.4byte	.LVL247
 11825 01a6 0100     		.2byte	0x1
 11826 01a8 50       		.byte	0x50
 11827 01a9 18000000 		.4byte	.LVL247
 11828 01ad 68000000 		.4byte	.LVL255
 11829 01b1 0100     		.2byte	0x1
 11830 01b3 54       		.byte	0x54
 11831 01b4 68000000 		.4byte	.LVL255
 11832 01b8 08010000 		.4byte	.LVL270
 11833 01bc 0400     		.2byte	0x4
 11834 01be F3       		.byte	0xf3
 11835 01bf 01       		.uleb128 0x1
 11836 01c0 50       		.byte	0x50
 11837 01c1 9F       		.byte	0x9f
 11838 01c2 08010000 		.4byte	.LVL270
 11839 01c6 14010000 		.4byte	.LVL272
 11840 01ca 0100     		.2byte	0x1
 11841 01cc 54       		.byte	0x54
 11842 01cd 14010000 		.4byte	.LVL272
 11843 01d1 A4010000 		.4byte	.LFE61
 11844 01d5 0400     		.2byte	0x4
 11845 01d7 F3       		.byte	0xf3
 11846 01d8 01       		.uleb128 0x1
 11847 01d9 50       		.byte	0x50
 11848 01da 9F       		.byte	0x9f
 11849 01db 00000000 		.4byte	0
 11850 01df 00000000 		.4byte	0
 11851              	.LLST81:
 11852 01e3 00000000 		.4byte	.LVL245
 11853 01e7 14000000 		.4byte	.LVL246
 11854 01eb 0100     		.2byte	0x1
 11855 01ed 51       		.byte	0x51
ARM GAS  C:\Users\EBANO_~1\AppData\Local\Temp\ccazSBuk.s 			page 235


 11856 01ee 14000000 		.4byte	.LVL246
 11857 01f2 A4010000 		.4byte	.LFE61
 11858 01f6 0200     		.2byte	0x2
 11859 01f8 91       		.byte	0x91
 11860 01f9 4C       		.sleb128 -52
 11861 01fa 00000000 		.4byte	0
 11862 01fe 00000000 		.4byte	0
 11863              	.LLST82:
 11864 0202 00000000 		.4byte	.LVL245
 11865 0206 1A000000 		.4byte	.LVL248
 11866 020a 0100     		.2byte	0x1
 11867 020c 52       		.byte	0x52
 11868 020d 1A000000 		.4byte	.LVL248
 11869 0211 FC000000 		.4byte	.LVL269
 11870 0215 0100     		.2byte	0x1
 11871 0217 59       		.byte	0x59
 11872 0218 FC000000 		.4byte	.LVL269
 11873 021c 08010000 		.4byte	.LVL270
 11874 0220 0400     		.2byte	0x4
 11875 0222 F3       		.byte	0xf3
 11876 0223 01       		.uleb128 0x1
 11877 0224 52       		.byte	0x52
 11878 0225 9F       		.byte	0x9f
 11879 0226 08010000 		.4byte	.LVL270
 11880 022a A4010000 		.4byte	.LFE61
 11881 022e 0100     		.2byte	0x1
 11882 0230 59       		.byte	0x59
 11883 0231 00000000 		.4byte	0
 11884 0235 00000000 		.4byte	0
 11885              	.LLST83:
 11886 0239 00000000 		.4byte	.LVL245
 11887 023d 1F000000 		.4byte	.LVL249-1
 11888 0241 0100     		.2byte	0x1
 11889 0243 53       		.byte	0x53
 11890 0244 1F000000 		.4byte	.LVL249-1
 11891 0248 76000000 		.4byte	.LVL257
 11892 024c 0100     		.2byte	0x1
 11893 024e 57       		.byte	0x57
 11894 024f 76000000 		.4byte	.LVL257
 11895 0253 08010000 		.4byte	.LVL270
 11896 0257 0400     		.2byte	0x4
 11897 0259 F3       		.byte	0xf3
 11898 025a 01       		.uleb128 0x1
 11899 025b 53       		.byte	0x53
 11900 025c 9F       		.byte	0x9f
 11901 025d 08010000 		.4byte	.LVL270
 11902 0261 14010000 		.4byte	.LVL272
 11903 0265 0100     		.2byte	0x1
 11904 0267 57       		.byte	0x57
 11905 0268 14010000 		.4byte	.LVL272
 11906 026c 1E010000 		.4byte	.LVL273
 11907 0270 0400     		.2byte	0x4
 11908 0272 F3       		.byte	0xf3
 11909 0273 01       		.uleb128 0x1
 11910 0274 53       		.byte	0x53
 11911 0275 9F       		.byte	0x9f
 11912 0276 1E010000 		.4byte	.LVL273
ARM GAS  C:\Users\EBANO_~1\AppData\Local\Temp\ccazSBuk.s 			page 236


 11913 027a 2E010000 		.4byte	.LVL275
 11914 027e 0100     		.2byte	0x1
 11915 0280 57       		.byte	0x57
 11916 0281 2E010000 		.4byte	.LVL275
 11917 0285 A4010000 		.4byte	.LFE61
 11918 0289 0400     		.2byte	0x4
 11919 028b F3       		.byte	0xf3
 11920 028c 01       		.uleb128 0x1
 11921 028d 53       		.byte	0x53
 11922 028e 9F       		.byte	0x9f
 11923 028f 00000000 		.4byte	0
 11924 0293 00000000 		.4byte	0
 11925              	.LLST84:
 11926 0297 00000000 		.4byte	.LVL245
 11927 029b DC000000 		.4byte	.LVL267
 11928 029f 0200     		.2byte	0x2
 11929 02a1 30       		.byte	0x30
 11930 02a2 9F       		.byte	0x9f
 11931 02a3 08010000 		.4byte	.LVL270
 11932 02a7 14010000 		.4byte	.LVL272
 11933 02ab 0200     		.2byte	0x2
 11934 02ad 30       		.byte	0x30
 11935 02ae 9F       		.byte	0x9f
 11936 02af 1E010000 		.4byte	.LVL273
 11937 02b3 84010000 		.4byte	.LVL284
 11938 02b7 0200     		.2byte	0x2
 11939 02b9 30       		.byte	0x30
 11940 02ba 9F       		.byte	0x9f
 11941 02bb 00000000 		.4byte	0
 11942 02bf 00000000 		.4byte	0
 11943              	.LLST85:
 11944 02c3 00000000 		.4byte	.LVL245
 11945 02c7 DC000000 		.4byte	.LVL267
 11946 02cb 0200     		.2byte	0x2
 11947 02cd 30       		.byte	0x30
 11948 02ce 9F       		.byte	0x9f
 11949 02cf DC000000 		.4byte	.LVL267
 11950 02d3 FA000000 		.4byte	.LVL268
 11951 02d7 0200     		.2byte	0x2
 11952 02d9 91       		.byte	0x91
 11953 02da 44       		.sleb128 -60
 11954 02db 08010000 		.4byte	.LVL270
 11955 02df 14010000 		.4byte	.LVL272
 11956 02e3 0200     		.2byte	0x2
 11957 02e5 31       		.byte	0x31
 11958 02e6 9F       		.byte	0x9f
 11959 02e7 1E010000 		.4byte	.LVL273
 11960 02eb 84010000 		.4byte	.LVL284
 11961 02ef 0200     		.2byte	0x2
 11962 02f1 30       		.byte	0x30
 11963 02f2 9F       		.byte	0x9f
 11964 02f3 84010000 		.4byte	.LVL284
 11965 02f7 A4010000 		.4byte	.LFE61
 11966 02fb 0200     		.2byte	0x2
 11967 02fd 91       		.byte	0x91
 11968 02fe 44       		.sleb128 -60
 11969 02ff 00000000 		.4byte	0
ARM GAS  C:\Users\EBANO_~1\AppData\Local\Temp\ccazSBuk.s 			page 237


 11970 0303 00000000 		.4byte	0
 11971              	.LLST86:
 11972 0307 20000000 		.4byte	.LVL249
 11973 030b 5E000000 		.4byte	.LVL253
 11974 030f 0200     		.2byte	0x2
 11975 0311 30       		.byte	0x30
 11976 0312 9F       		.byte	0x9f
 11977 0313 5E000000 		.4byte	.LVL253
 11978 0317 78000000 		.4byte	.LVL258
 11979 031b 0100     		.2byte	0x1
 11980 031d 50       		.byte	0x50
 11981 031e 78000000 		.4byte	.LVL258
 11982 0322 08010000 		.4byte	.LVL270
 11983 0326 0200     		.2byte	0x2
 11984 0328 91       		.byte	0x91
 11985 0329 48       		.sleb128 -56
 11986 032a 08010000 		.4byte	.LVL270
 11987 032e 14010000 		.4byte	.LVL272
 11988 0332 0200     		.2byte	0x2
 11989 0334 30       		.byte	0x30
 11990 0335 9F       		.byte	0x9f
 11991 0336 14010000 		.4byte	.LVL272
 11992 033a 1E010000 		.4byte	.LVL273
 11993 033e 0200     		.2byte	0x2
 11994 0340 91       		.byte	0x91
 11995 0341 48       		.sleb128 -56
 11996 0342 1E010000 		.4byte	.LVL273
 11997 0346 2E010000 		.4byte	.LVL275
 11998 034a 0100     		.2byte	0x1
 11999 034c 50       		.byte	0x50
 12000 034d 2E010000 		.4byte	.LVL275
 12001 0351 A4010000 		.4byte	.LFE61
 12002 0355 0200     		.2byte	0x2
 12003 0357 91       		.byte	0x91
 12004 0358 48       		.sleb128 -56
 12005 0359 00000000 		.4byte	0
 12006 035d 00000000 		.4byte	0
 12007              	.LLST87:
 12008 0361 64000000 		.4byte	.LVL254
 12009 0365 DC000000 		.4byte	.LVL267
 12010 0369 0600     		.2byte	0x6
 12011 036b 03       		.byte	0x3
 12012 036c 70000000 		.4byte	NvmCtx+112
 12013 0370 9F       		.byte	0x9f
 12014 0371 1E010000 		.4byte	.LVL273
 12015 0375 84010000 		.4byte	.LVL284
 12016 0379 0600     		.2byte	0x6
 12017 037b 03       		.byte	0x3
 12018 037c 70000000 		.4byte	NvmCtx+112
 12019 0380 9F       		.byte	0x9f
 12020 0381 00000000 		.4byte	0
 12021 0385 00000000 		.4byte	0
 12022              	.LLST88:
 12023 0389 64000000 		.4byte	.LVL254
 12024 038d DC000000 		.4byte	.LVL267
 12025 0391 0600     		.2byte	0x6
 12026 0393 03       		.byte	0x3
ARM GAS  C:\Users\EBANO_~1\AppData\Local\Temp\ccazSBuk.s 			page 238


 12027 0394 00000000 		.4byte	NvmCtx
 12028 0398 9F       		.byte	0x9f
 12029 0399 1E010000 		.4byte	.LVL273
 12030 039d 84010000 		.4byte	.LVL284
 12031 03a1 0600     		.2byte	0x6
 12032 03a3 03       		.byte	0x3
 12033 03a4 00000000 		.4byte	NvmCtx
 12034 03a8 9F       		.byte	0x9f
 12035 03a9 00000000 		.4byte	0
 12036 03ad 00000000 		.4byte	0
 12037              	.LLST89:
 12038 03b1 64000000 		.4byte	.LVL254
 12039 03b5 DC000000 		.4byte	.LVL267
 12040 03b9 0600     		.2byte	0x6
 12041 03bb 03       		.byte	0x3
 12042 03bc 60000000 		.4byte	NvmCtx+96
 12043 03c0 9F       		.byte	0x9f
 12044 03c1 1E010000 		.4byte	.LVL273
 12045 03c5 84010000 		.4byte	.LVL284
 12046 03c9 0600     		.2byte	0x6
 12047 03cb 03       		.byte	0x3
 12048 03cc 60000000 		.4byte	NvmCtx+96
 12049 03d0 9F       		.byte	0x9f
 12050 03d1 00000000 		.4byte	0
 12051 03d5 00000000 		.4byte	0
 12052              	.LLST90:
 12053 03d9 64000000 		.4byte	.LVL254
 12054 03dd DC000000 		.4byte	.LVL267
 12055 03e1 0600     		.2byte	0x6
 12056 03e3 F2       		.byte	0xf2
 12057 03e4 34210000 		.4byte	.Ldebug_info0+8500
 12058 03e8 00       		.sleb128 0
 12059 03e9 1E010000 		.4byte	.LVL273
 12060 03ed 84010000 		.4byte	.LVL284
 12061 03f1 0600     		.2byte	0x6
 12062 03f3 F2       		.byte	0xf2
 12063 03f4 34210000 		.4byte	.Ldebug_info0+8500
 12064 03f8 00       		.sleb128 0
 12065 03f9 00000000 		.4byte	0
 12066 03fd 00000000 		.4byte	0
 12067              	.LLST91:
 12068 0401 64000000 		.4byte	.LVL254
 12069 0405 86000000 		.4byte	.LVL260
 12070 0409 0300     		.2byte	0x3
 12071 040b 91       		.byte	0x91
 12072 040c 50       		.sleb128 -48
 12073 040d 9F       		.byte	0x9f
 12074 040e 86000000 		.4byte	.LVL260
 12075 0412 88000000 		.4byte	.LVL261
 12076 0416 0100     		.2byte	0x1
 12077 0418 52       		.byte	0x52
 12078 0419 88000000 		.4byte	.LVL261
 12079 041d DC000000 		.4byte	.LVL267
 12080 0421 0300     		.2byte	0x3
 12081 0423 91       		.byte	0x91
 12082 0424 50       		.sleb128 -48
 12083 0425 9F       		.byte	0x9f
ARM GAS  C:\Users\EBANO_~1\AppData\Local\Temp\ccazSBuk.s 			page 239


 12084 0426 1E010000 		.4byte	.LVL273
 12085 042a 72010000 		.4byte	.LVL281
 12086 042e 0300     		.2byte	0x3
 12087 0430 91       		.byte	0x91
 12088 0431 50       		.sleb128 -48
 12089 0432 9F       		.byte	0x9f
 12090 0433 72010000 		.4byte	.LVL281
 12091 0437 7A010000 		.4byte	.LVL282
 12092 043b 0100     		.2byte	0x1
 12093 043d 52       		.byte	0x52
 12094 043e 7A010000 		.4byte	.LVL282
 12095 0442 84010000 		.4byte	.LVL284
 12096 0446 0300     		.2byte	0x3
 12097 0448 91       		.byte	0x91
 12098 0449 50       		.sleb128 -48
 12099 044a 9F       		.byte	0x9f
 12100 044b 00000000 		.4byte	0
 12101 044f 00000000 		.4byte	0
 12102              	.LLST92:
 12103 0453 64000000 		.4byte	.LVL254
 12104 0457 DC000000 		.4byte	.LVL267
 12105 045b 0200     		.2byte	0x2
 12106 045d 7D       		.byte	0x7d
 12107 045e 00       		.sleb128 0
 12108 045f 1E010000 		.4byte	.LVL273
 12109 0463 84010000 		.4byte	.LVL284
 12110 0467 0200     		.2byte	0x2
 12111 0469 7D       		.byte	0x7d
 12112 046a 00       		.sleb128 0
 12113 046b 00000000 		.4byte	0
 12114 046f 00000000 		.4byte	0
 12115              	.LLST93:
 12116 0473 64000000 		.4byte	.LVL254
 12117 0477 68000000 		.4byte	.LVL255
 12118 047b 0200     		.2byte	0x2
 12119 047d 74       		.byte	0x74
 12120 047e 09       		.sleb128 9
 12121 047f 68000000 		.4byte	.LVL255
 12122 0483 72000000 		.4byte	.LVL256
 12123 0487 0100     		.2byte	0x1
 12124 0489 53       		.byte	0x53
 12125 048a 72000000 		.4byte	.LVL256
 12126 048e 78000000 		.4byte	.LVL258
 12127 0492 0100     		.2byte	0x1
 12128 0494 58       		.byte	0x58
 12129 0495 78000000 		.4byte	.LVL258
 12130 0499 DC000000 		.4byte	.LVL267
 12131 049d 0400     		.2byte	0x4
 12132 049f 7B       		.byte	0x7b
 12133 04a0 907F     		.sleb128 -112
 12134 04a2 9F       		.byte	0x9f
 12135 04a3 1E010000 		.4byte	.LVL273
 12136 04a7 20010000 		.4byte	.LVL274
 12137 04ab 0100     		.2byte	0x1
 12138 04ad 53       		.byte	0x53
 12139 04ae 20010000 		.4byte	.LVL274
 12140 04b2 2E010000 		.4byte	.LVL275
ARM GAS  C:\Users\EBANO_~1\AppData\Local\Temp\ccazSBuk.s 			page 240


 12141 04b6 0500     		.2byte	0x5
 12142 04b8 F3       		.byte	0xf3
 12143 04b9 01       		.uleb128 0x1
 12144 04ba 50       		.byte	0x50
 12145 04bb 23       		.byte	0x23
 12146 04bc 09       		.uleb128 0x9
 12147 04bd 00000000 		.4byte	0
 12148 04c1 00000000 		.4byte	0
 12149              	.LLST94:
 12150 04c5 64000000 		.4byte	.LVL254
 12151 04c9 78000000 		.4byte	.LVL258
 12152 04cd 0200     		.2byte	0x2
 12153 04cf 30       		.byte	0x30
 12154 04d0 9F       		.byte	0x9f
 12155 04d1 78000000 		.4byte	.LVL258
 12156 04d5 7C000000 		.4byte	.LVL259
 12157 04d9 0100     		.2byte	0x1
 12158 04db 58       		.byte	0x58
 12159 04dc 7C000000 		.4byte	.LVL259
 12160 04e0 88000000 		.4byte	.LVL261
 12161 04e4 0100     		.2byte	0x1
 12162 04e6 53       		.byte	0x53
 12163 04e7 88000000 		.4byte	.LVL261
 12164 04eb 90000000 		.4byte	.LVL263
 12165 04ef 0100     		.2byte	0x1
 12166 04f1 58       		.byte	0x58
 12167 04f2 94000000 		.4byte	.LVL264
 12168 04f6 DC000000 		.4byte	.LVL267
 12169 04fa 0100     		.2byte	0x1
 12170 04fc 58       		.byte	0x58
 12171 04fd 1E010000 		.4byte	.LVL273
 12172 0501 2E010000 		.4byte	.LVL275
 12173 0505 0200     		.2byte	0x2
 12174 0507 30       		.byte	0x30
 12175 0508 9F       		.byte	0x9f
 12176 0509 2E010000 		.4byte	.LVL275
 12177 050d 36010000 		.4byte	.LVL277
 12178 0511 0100     		.2byte	0x1
 12179 0513 58       		.byte	0x58
 12180 0514 40010000 		.4byte	.LVL278
 12181 0518 70010000 		.4byte	.LVL280
 12182 051c 0100     		.2byte	0x1
 12183 051e 58       		.byte	0x58
 12184 051f 70010000 		.4byte	.LVL280
 12185 0523 7A010000 		.4byte	.LVL282
 12186 0527 0100     		.2byte	0x1
 12187 0529 53       		.byte	0x53
 12188 052a 7A010000 		.4byte	.LVL282
 12189 052e 84010000 		.4byte	.LVL284
 12190 0532 0100     		.2byte	0x1
 12191 0534 58       		.byte	0x58
 12192 0535 00000000 		.4byte	0
 12193 0539 00000000 		.4byte	0
 12194              	.LLST95:
 12195 053d 64000000 		.4byte	.LVL254
 12196 0541 78000000 		.4byte	.LVL258
 12197 0545 0200     		.2byte	0x2
ARM GAS  C:\Users\EBANO_~1\AppData\Local\Temp\ccazSBuk.s 			page 241


 12198 0547 30       		.byte	0x30
 12199 0548 9F       		.byte	0x9f
 12200 0549 78000000 		.4byte	.LVL258
 12201 054d 90000000 		.4byte	.LVL263
 12202 0551 0200     		.2byte	0x2
 12203 0553 91       		.byte	0x91
 12204 0554 44       		.sleb128 -60
 12205 0555 94000000 		.4byte	.LVL264
 12206 0559 DC000000 		.4byte	.LVL267
 12207 055d 0200     		.2byte	0x2
 12208 055f 91       		.byte	0x91
 12209 0560 44       		.sleb128 -60
 12210 0561 1E010000 		.4byte	.LVL273
 12211 0565 2E010000 		.4byte	.LVL275
 12212 0569 0200     		.2byte	0x2
 12213 056b 30       		.byte	0x30
 12214 056c 9F       		.byte	0x9f
 12215 056d 2E010000 		.4byte	.LVL275
 12216 0571 36010000 		.4byte	.LVL277
 12217 0575 0200     		.2byte	0x2
 12218 0577 91       		.byte	0x91
 12219 0578 44       		.sleb128 -60
 12220 0579 40010000 		.4byte	.LVL278
 12221 057d 84010000 		.4byte	.LVL284
 12222 0581 0200     		.2byte	0x2
 12223 0583 91       		.byte	0x91
 12224 0584 44       		.sleb128 -60
 12225 0585 00000000 		.4byte	0
 12226 0589 00000000 		.4byte	0
 12227              	.LLST96:
 12228 058d 64000000 		.4byte	.LVL254
 12229 0591 DC000000 		.4byte	.LVL267
 12230 0595 0200     		.2byte	0x2
 12231 0597 30       		.byte	0x30
 12232 0598 9F       		.byte	0x9f
 12233 0599 1E010000 		.4byte	.LVL273
 12234 059d 84010000 		.4byte	.LVL284
 12235 05a1 0200     		.2byte	0x2
 12236 05a3 30       		.byte	0x30
 12237 05a4 9F       		.byte	0x9f
 12238 05a5 00000000 		.4byte	0
 12239 05a9 00000000 		.4byte	0
 12240              	.LLST98:
 12241 05ad 64000000 		.4byte	.LVL254
 12242 05b1 78000000 		.4byte	.LVL258
 12243 05b5 0200     		.2byte	0x2
 12244 05b7 30       		.byte	0x30
 12245 05b8 9F       		.byte	0x9f
 12246 05b9 78000000 		.4byte	.LVL258
 12247 05bd 88000000 		.4byte	.LVL261
 12248 05c1 0100     		.2byte	0x1
 12249 05c3 5A       		.byte	0x5a
 12250 05c4 88000000 		.4byte	.LVL261
 12251 05c8 8A000000 		.4byte	.LVL262
 12252 05cc 0300     		.2byte	0x3
 12253 05ce 74       		.byte	0x74
 12254 05cf 01       		.sleb128 1
ARM GAS  C:\Users\EBANO_~1\AppData\Local\Temp\ccazSBuk.s 			page 242


 12255 05d0 9F       		.byte	0x9f
 12256 05d1 8A000000 		.4byte	.LVL262
 12257 05d5 90000000 		.4byte	.LVL263
 12258 05d9 0300     		.2byte	0x3
 12259 05db 7A       		.byte	0x7a
 12260 05dc 01       		.sleb128 1
 12261 05dd 9F       		.byte	0x9f
 12262 05de 94000000 		.4byte	.LVL264
 12263 05e2 D6000000 		.4byte	.LVL266
 12264 05e6 0100     		.2byte	0x1
 12265 05e8 5A       		.byte	0x5a
 12266 05e9 1E010000 		.4byte	.LVL273
 12267 05ed 2E010000 		.4byte	.LVL275
 12268 05f1 0200     		.2byte	0x2
 12269 05f3 30       		.byte	0x30
 12270 05f4 9F       		.byte	0x9f
 12271 05f5 2E010000 		.4byte	.LVL275
 12272 05f9 30010000 		.4byte	.LVL276
 12273 05fd 0300     		.2byte	0x3
 12274 05ff 74       		.byte	0x74
 12275 0600 01       		.sleb128 1
 12276 0601 9F       		.byte	0x9f
 12277 0602 30010000 		.4byte	.LVL276
 12278 0606 36010000 		.4byte	.LVL277
 12279 060a 0300     		.2byte	0x3
 12280 060c 77       		.byte	0x77
 12281 060d 01       		.sleb128 1
 12282 060e 9F       		.byte	0x9f
 12283 060f 40010000 		.4byte	.LVL278
 12284 0613 84010000 		.4byte	.LVL284
 12285 0617 0100     		.2byte	0x1
 12286 0619 57       		.byte	0x57
 12287 061a 00000000 		.4byte	0
 12288 061e 00000000 		.4byte	0
 12289              	.LLST77:
 12290 0622 00000000 		.4byte	.LFB60
 12291 0626 02000000 		.4byte	.LCFI29
 12292 062a 0200     		.2byte	0x2
 12293 062c 7D       		.byte	0x7d
 12294 062d 00       		.sleb128 0
 12295 062e 02000000 		.4byte	.LCFI29
 12296 0632 06000000 		.4byte	.LCFI30
 12297 0636 0200     		.2byte	0x2
 12298 0638 7D       		.byte	0x7d
 12299 0639 04       		.sleb128 4
 12300 063a 06000000 		.4byte	.LCFI30
 12301 063e 34000000 		.4byte	.LFE60
 12302 0642 0200     		.2byte	0x2
 12303 0644 7D       		.byte	0x7d
 12304 0645 20       		.sleb128 32
 12305 0646 00000000 		.4byte	0
 12306 064a 00000000 		.4byte	0
 12307              	.LLST78:
 12308 064e 00000000 		.4byte	.LVL242
 12309 0652 26000000 		.4byte	.LVL243
 12310 0656 0100     		.2byte	0x1
 12311 0658 50       		.byte	0x50
ARM GAS  C:\Users\EBANO_~1\AppData\Local\Temp\ccazSBuk.s 			page 243


 12312 0659 26000000 		.4byte	.LVL243
 12313 065d 34000000 		.4byte	.LFE60
 12314 0661 0400     		.2byte	0x4
 12315 0663 F3       		.byte	0xf3
 12316 0664 01       		.uleb128 0x1
 12317 0665 50       		.byte	0x50
 12318 0666 9F       		.byte	0x9f
 12319 0667 00000000 		.4byte	0
 12320 066b 00000000 		.4byte	0
 12321              	.LLST73:
 12322 066f 00000000 		.4byte	.LFB58
 12323 0673 02000000 		.4byte	.LCFI27
 12324 0677 0200     		.2byte	0x2
 12325 0679 7D       		.byte	0x7d
 12326 067a 00       		.sleb128 0
 12327 067b 02000000 		.4byte	.LCFI27
 12328 067f 0A000000 		.4byte	.LCFI28
 12329 0683 0200     		.2byte	0x2
 12330 0685 7D       		.byte	0x7d
 12331 0686 0C       		.sleb128 12
 12332 0687 0A000000 		.4byte	.LCFI28
 12333 068b 70000000 		.4byte	.LFE58
 12334 068f 0200     		.2byte	0x2
 12335 0691 7D       		.byte	0x7d
 12336 0692 18       		.sleb128 24
 12337 0693 00000000 		.4byte	0
 12338 0697 00000000 		.4byte	0
 12339              	.LLST74:
 12340 069b 00000000 		.4byte	.LVL231
 12341 069f 0E000000 		.4byte	.LVL233
 12342 06a3 0100     		.2byte	0x1
 12343 06a5 50       		.byte	0x50
 12344 06a6 0E000000 		.4byte	.LVL233
 12345 06aa 38000000 		.4byte	.LVL238
 12346 06ae 0100     		.2byte	0x1
 12347 06b0 55       		.byte	0x55
 12348 06b1 38000000 		.4byte	.LVL238
 12349 06b5 3A000000 		.4byte	.LVL239
 12350 06b9 0400     		.2byte	0x4
 12351 06bb F3       		.byte	0xf3
 12352 06bc 01       		.uleb128 0x1
 12353 06bd 50       		.byte	0x50
 12354 06be 9F       		.byte	0x9f
 12355 06bf 3A000000 		.4byte	.LVL239
 12356 06c3 70000000 		.4byte	.LFE58
 12357 06c7 0100     		.2byte	0x1
 12358 06c9 55       		.byte	0x55
 12359 06ca 00000000 		.4byte	0
 12360 06ce 00000000 		.4byte	0
 12361              	.LLST75:
 12362 06d2 00000000 		.4byte	.LVL231
 12363 06d6 2E000000 		.4byte	.LVL236
 12364 06da 0200     		.2byte	0x2
 12365 06dc 33       		.byte	0x33
 12366 06dd 9F       		.byte	0x9f
 12367 06de 2E000000 		.4byte	.LVL236
 12368 06e2 36000000 		.4byte	.LVL237
ARM GAS  C:\Users\EBANO_~1\AppData\Local\Temp\ccazSBuk.s 			page 244


 12369 06e6 0200     		.2byte	0x2
 12370 06e8 32       		.byte	0x32
 12371 06e9 9F       		.byte	0x9f
 12372 06ea 3A000000 		.4byte	.LVL239
 12373 06ee 4A000000 		.4byte	.LVL240
 12374 06f2 0200     		.2byte	0x2
 12375 06f4 33       		.byte	0x33
 12376 06f5 9F       		.byte	0x9f
 12377 06f6 4A000000 		.4byte	.LVL240
 12378 06fa 70000000 		.4byte	.LFE58
 12379 06fe 0200     		.2byte	0x2
 12380 0700 32       		.byte	0x32
 12381 0701 9F       		.byte	0x9f
 12382 0702 00000000 		.4byte	0
 12383 0706 00000000 		.4byte	0
 12384              	.LLST76:
 12385 070a 06000000 		.4byte	.LVL232
 12386 070e 28000000 		.4byte	.LVL235
 12387 0712 0100     		.2byte	0x1
 12388 0714 54       		.byte	0x54
 12389 0715 28000000 		.4byte	.LVL235
 12390 0719 2E000000 		.4byte	.LVL236
 12391 071d 0700     		.2byte	0x7
 12392 071f 74       		.byte	0x74
 12393 0720 80B0FE9B 		.sleb128 864000000
 12393      03
 12394 0725 9F       		.byte	0x9f
 12395 0726 3A000000 		.4byte	.LVL239
 12396 072a 4A000000 		.4byte	.LVL240
 12397 072e 0700     		.2byte	0x7
 12398 0730 74       		.byte	0x74
 12399 0731 80B0FE9B 		.sleb128 864000000
 12399      03
 12400 0736 9F       		.byte	0x9f
 12401 0737 4A000000 		.4byte	.LVL240
 12402 073b 70000000 		.4byte	.LFE58
 12403 073f 0100     		.2byte	0x1
 12404 0741 54       		.byte	0x54
 12405 0742 00000000 		.4byte	0
 12406 0746 00000000 		.4byte	0
 12407              	.LLST72:
 12408 074a 00000000 		.4byte	.LVL229
 12409 074e 02000000 		.4byte	.LVL230
 12410 0752 0100     		.2byte	0x1
 12411 0754 50       		.byte	0x50
 12412 0755 02000000 		.4byte	.LVL230
 12413 0759 06000000 		.4byte	.LFE57
 12414 075d 0400     		.2byte	0x4
 12415 075f F3       		.byte	0xf3
 12416 0760 01       		.uleb128 0x1
 12417 0761 50       		.byte	0x50
 12418 0762 9F       		.byte	0x9f
 12419 0763 00000000 		.4byte	0
 12420 0767 00000000 		.4byte	0
 12421              	.LLST64:
 12422 076b 00000000 		.4byte	.LFB56
 12423 076f 02000000 		.4byte	.LCFI24
ARM GAS  C:\Users\EBANO_~1\AppData\Local\Temp\ccazSBuk.s 			page 245


 12424 0773 0200     		.2byte	0x2
 12425 0775 7D       		.byte	0x7d
 12426 0776 00       		.sleb128 0
 12427 0777 02000000 		.4byte	.LCFI24
 12428 077b 06000000 		.4byte	.LCFI25
 12429 077f 0200     		.2byte	0x2
 12430 0781 7D       		.byte	0x7d
 12431 0782 14       		.sleb128 20
 12432 0783 06000000 		.4byte	.LCFI25
 12433 0787 0A000000 		.4byte	.LCFI26
 12434 078b 0200     		.2byte	0x2
 12435 078d 7D       		.byte	0x7d
 12436 078e 18       		.sleb128 24
 12437 078f 0A000000 		.4byte	.LCFI26
 12438 0793 04010000 		.4byte	.LFE56
 12439 0797 0200     		.2byte	0x2
 12440 0799 7D       		.byte	0x7d
 12441 079a 20       		.sleb128 32
 12442 079b 00000000 		.4byte	0
 12443 079f 00000000 		.4byte	0
 12444              	.LLST65:
 12445 07a3 00000000 		.4byte	.LVL206
 12446 07a7 18000000 		.4byte	.LVL208
 12447 07ab 0100     		.2byte	0x1
 12448 07ad 50       		.byte	0x50
 12449 07ae 18000000 		.4byte	.LVL208
 12450 07b2 46000000 		.4byte	.LVL212
 12451 07b6 0400     		.2byte	0x4
 12452 07b8 F3       		.byte	0xf3
 12453 07b9 01       		.uleb128 0x1
 12454 07ba 50       		.byte	0x50
 12455 07bb 9F       		.byte	0x9f
 12456 07bc 46000000 		.4byte	.LVL212
 12457 07c0 4E000000 		.4byte	.LVL213
 12458 07c4 0100     		.2byte	0x1
 12459 07c6 50       		.byte	0x50
 12460 07c7 4E000000 		.4byte	.LVL213
 12461 07cb 04010000 		.4byte	.LFE56
 12462 07cf 0400     		.2byte	0x4
 12463 07d1 F3       		.byte	0xf3
 12464 07d2 01       		.uleb128 0x1
 12465 07d3 50       		.byte	0x50
 12466 07d4 9F       		.byte	0x9f
 12467 07d5 00000000 		.4byte	0
 12468 07d9 00000000 		.4byte	0
 12469              	.LLST66:
 12470 07dd 12000000 		.4byte	.LVL207
 12471 07e1 36000000 		.4byte	.LVL211
 12472 07e5 0600     		.2byte	0x6
 12473 07e7 F2       		.byte	0xf2
 12474 07e8 36240000 		.4byte	.Ldebug_info0+9270
 12475 07ec 00       		.sleb128 0
 12476 07ed 00000000 		.4byte	0
 12477 07f1 00000000 		.4byte	0
 12478              	.LLST67:
 12479 07f5 12000000 		.4byte	.LVL207
 12480 07f9 18000000 		.4byte	.LVL208
ARM GAS  C:\Users\EBANO_~1\AppData\Local\Temp\ccazSBuk.s 			page 246


 12481 07fd 0200     		.2byte	0x2
 12482 07ff 70       		.byte	0x70
 12483 0800 04       		.sleb128 4
 12484 0801 18000000 		.4byte	.LVL208
 12485 0805 27000000 		.4byte	.LVL209-1
 12486 0809 0500     		.2byte	0x5
 12487 080b F3       		.byte	0xf3
 12488 080c 01       		.uleb128 0x1
 12489 080d 50       		.byte	0x50
 12490 080e 23       		.byte	0x23
 12491 080f 04       		.uleb128 0x4
 12492 0810 00000000 		.4byte	0
 12493 0814 00000000 		.4byte	0
 12494              	.LLST68:
 12495 0818 46000000 		.4byte	.LVL212
 12496 081c F2000000 		.4byte	.LVL228
 12497 0820 0600     		.2byte	0x6
 12498 0822 F2       		.byte	0xf2
 12499 0823 2A240000 		.4byte	.Ldebug_info0+9258
 12500 0827 00       		.sleb128 0
 12501 0828 00000000 		.4byte	0
 12502 082c 00000000 		.4byte	0
 12503              	.LLST69:
 12504 0830 46000000 		.4byte	.LVL212
 12505 0834 5C000000 		.4byte	.LVL215
 12506 0838 0200     		.2byte	0x2
 12507 083a 30       		.byte	0x30
 12508 083b 9F       		.byte	0x9f
 12509 083c 5C000000 		.4byte	.LVL215
 12510 0840 70000000 		.4byte	.LVL217
 12511 0844 0700     		.2byte	0x7
 12512 0846 76       		.byte	0x76
 12513 0847 00       		.sleb128 0
 12514 0848 48       		.byte	0x48
 12515 0849 24       		.byte	0x24
 12516 084a 30       		.byte	0x30
 12517 084b 29       		.byte	0x29
 12518 084c 9F       		.byte	0x9f
 12519 084d 70000000 		.4byte	.LVL217
 12520 0851 88000000 		.4byte	.LVL218
 12521 0855 0100     		.2byte	0x1
 12522 0857 57       		.byte	0x57
 12523 0858 88000000 		.4byte	.LVL218
 12524 085c 9C000000 		.4byte	.LVL220
 12525 0860 0200     		.2byte	0x2
 12526 0862 31       		.byte	0x31
 12527 0863 9F       		.byte	0x9f
 12528 0864 A0000000 		.4byte	.LVL221
 12529 0868 BC000000 		.4byte	.LVL224
 12530 086c 0100     		.2byte	0x1
 12531 086e 57       		.byte	0x57
 12532 086f BC000000 		.4byte	.LVL224
 12533 0873 C0000000 		.4byte	.LVL225
 12534 0877 0700     		.2byte	0x7
 12535 0879 76       		.byte	0x76
 12536 087a 00       		.sleb128 0
 12537 087b 48       		.byte	0x48
ARM GAS  C:\Users\EBANO_~1\AppData\Local\Temp\ccazSBuk.s 			page 247


 12538 087c 24       		.byte	0x24
 12539 087d 30       		.byte	0x30
 12540 087e 29       		.byte	0x29
 12541 087f 9F       		.byte	0x9f
 12542 0880 C4000000 		.4byte	.LVL226
 12543 0884 F2000000 		.4byte	.LVL228
 12544 0888 0100     		.2byte	0x1
 12545 088a 57       		.byte	0x57
 12546 088b 00000000 		.4byte	0
 12547 088f 00000000 		.4byte	0
 12548              	.LLST70:
 12549 0893 46000000 		.4byte	.LVL212
 12550 0897 B4000000 		.4byte	.LVL223
 12551 089b 0200     		.2byte	0x2
 12552 089d 30       		.byte	0x30
 12553 089e 9F       		.byte	0x9f
 12554 089f B4000000 		.4byte	.LVL223
 12555 08a3 BC000000 		.4byte	.LVL224
 12556 08a7 0200     		.2byte	0x2
 12557 08a9 31       		.byte	0x31
 12558 08aa 9F       		.byte	0x9f
 12559 08ab BC000000 		.4byte	.LVL224
 12560 08af F2000000 		.4byte	.LVL228
 12561 08b3 0200     		.2byte	0x2
 12562 08b5 30       		.byte	0x30
 12563 08b6 9F       		.byte	0x9f
 12564 08b7 00000000 		.4byte	0
 12565 08bb 00000000 		.4byte	0
 12566              	.LLST71:
 12567 08bf 46000000 		.4byte	.LVL212
 12568 08c3 4E000000 		.4byte	.LVL213
 12569 08c7 0200     		.2byte	0x2
 12570 08c9 70       		.byte	0x70
 12571 08ca 04       		.sleb128 4
 12572 08cb 4E000000 		.4byte	.LVL213
 12573 08cf 59000000 		.4byte	.LVL214-1
 12574 08d3 0500     		.2byte	0x5
 12575 08d5 F3       		.byte	0xf3
 12576 08d6 01       		.uleb128 0x1
 12577 08d7 50       		.byte	0x50
 12578 08d8 23       		.byte	0x23
 12579 08d9 04       		.uleb128 0x4
 12580 08da 00000000 		.4byte	0
 12581 08de 00000000 		.4byte	0
 12582              	.LLST60:
 12583 08e2 00000000 		.4byte	.LFB55
 12584 08e6 02000000 		.4byte	.LCFI22
 12585 08ea 0200     		.2byte	0x2
 12586 08ec 7D       		.byte	0x7d
 12587 08ed 00       		.sleb128 0
 12588 08ee 02000000 		.4byte	.LCFI22
 12589 08f2 0A000000 		.4byte	.LCFI23
 12590 08f6 0200     		.2byte	0x2
 12591 08f8 7D       		.byte	0x7d
 12592 08f9 10       		.sleb128 16
 12593 08fa 0A000000 		.4byte	.LCFI23
 12594 08fe 64000000 		.4byte	.LFE55
ARM GAS  C:\Users\EBANO_~1\AppData\Local\Temp\ccazSBuk.s 			page 248


 12595 0902 0200     		.2byte	0x2
 12596 0904 7D       		.byte	0x7d
 12597 0905 18       		.sleb128 24
 12598 0906 00000000 		.4byte	0
 12599 090a 00000000 		.4byte	0
 12600              	.LLST61:
 12601 090e 00000000 		.4byte	.LVL191
 12602 0912 0E000000 		.4byte	.LVL193
 12603 0916 0100     		.2byte	0x1
 12604 0918 50       		.byte	0x50
 12605 0919 0E000000 		.4byte	.LVL193
 12606 091d 50000000 		.4byte	.LVL202
 12607 0921 0100     		.2byte	0x1
 12608 0923 54       		.byte	0x54
 12609 0924 50000000 		.4byte	.LVL202
 12610 0928 52000000 		.4byte	.LVL204
 12611 092c 0400     		.2byte	0x4
 12612 092e F3       		.byte	0xf3
 12613 092f 01       		.uleb128 0x1
 12614 0930 50       		.byte	0x50
 12615 0931 9F       		.byte	0x9f
 12616 0932 52000000 		.4byte	.LVL204
 12617 0936 64000000 		.4byte	.LFE55
 12618 093a 0100     		.2byte	0x1
 12619 093c 54       		.byte	0x54
 12620 093d 00000000 		.4byte	0
 12621 0941 00000000 		.4byte	0
 12622              	.LLST62:
 12623 0945 00000000 		.4byte	.LVL191
 12624 0949 26000000 		.4byte	.LVL197
 12625 094d 0200     		.2byte	0x2
 12626 094f 37       		.byte	0x37
 12627 0950 9F       		.byte	0x9f
 12628 0951 26000000 		.4byte	.LVL197
 12629 0955 38000000 		.4byte	.LVL199
 12630 0959 0100     		.2byte	0x1
 12631 095b 56       		.byte	0x56
 12632 095c 38000000 		.4byte	.LVL199
 12633 0960 50000000 		.4byte	.LVL203
 12634 0964 0100     		.2byte	0x1
 12635 0966 55       		.byte	0x55
 12636 0967 52000000 		.4byte	.LVL204
 12637 096b 64000000 		.4byte	.LFE55
 12638 096f 0200     		.2byte	0x2
 12639 0971 37       		.byte	0x37
 12640 0972 9F       		.byte	0x9f
 12641 0973 00000000 		.4byte	0
 12642 0977 00000000 		.4byte	0
 12643              	.LLST63:
 12644 097b 06000000 		.4byte	.LVL192
 12645 097f 1E000000 		.4byte	.LVL195
 12646 0983 0100     		.2byte	0x1
 12647 0985 55       		.byte	0x55
 12648 0986 1E000000 		.4byte	.LVL195
 12649 098a 22000000 		.4byte	.LVL196
 12650 098e 0700     		.2byte	0x7
 12651 0990 75       		.byte	0x75
ARM GAS  C:\Users\EBANO_~1\AppData\Local\Temp\ccazSBuk.s 			page 249


 12652 0991 80B0FE9B 		.sleb128 864000000
 12652      03
 12653 0996 9F       		.byte	0x9f
 12654 0997 52000000 		.4byte	.LVL204
 12655 099b 54000000 		.4byte	.LVL205
 12656 099f 0700     		.2byte	0x7
 12657 09a1 75       		.byte	0x75
 12658 09a2 80B0FE9B 		.sleb128 864000000
 12658      03
 12659 09a7 9F       		.byte	0x9f
 12660 09a8 00000000 		.4byte	0
 12661 09ac 00000000 		.4byte	0
 12662              	.LLST51:
 12663 09b0 00000000 		.4byte	.LFB54
 12664 09b4 02000000 		.4byte	.LCFI19
 12665 09b8 0200     		.2byte	0x2
 12666 09ba 7D       		.byte	0x7d
 12667 09bb 00       		.sleb128 0
 12668 09bc 02000000 		.4byte	.LCFI19
 12669 09c0 0C000000 		.4byte	.LCFI20
 12670 09c4 0200     		.2byte	0x2
 12671 09c6 7D       		.byte	0x7d
 12672 09c7 14       		.sleb128 20
 12673 09c8 0C000000 		.4byte	.LCFI20
 12674 09cc 0E000000 		.4byte	.LCFI21
 12675 09d0 0200     		.2byte	0x2
 12676 09d2 7D       		.byte	0x7d
 12677 09d3 24       		.sleb128 36
 12678 09d4 0E000000 		.4byte	.LCFI21
 12679 09d8 20020000 		.4byte	.LFE54
 12680 09dc 0300     		.2byte	0x3
 12681 09de 7D       		.byte	0x7d
 12682 09df E000     		.sleb128 96
 12683 09e1 00000000 		.4byte	0
 12684 09e5 00000000 		.4byte	0
 12685              	.LLST52:
 12686 09e9 00000000 		.4byte	.LVL142
 12687 09ed 2A000000 		.4byte	.LVL144
 12688 09f1 0100     		.2byte	0x1
 12689 09f3 50       		.byte	0x50
 12690 09f4 2A000000 		.4byte	.LVL144
 12691 09f8 1A010000 		.4byte	.LVL160
 12692 09fc 0100     		.2byte	0x1
 12693 09fe 56       		.byte	0x56
 12694 09ff 1A010000 		.4byte	.LVL160
 12695 0a03 44010000 		.4byte	.LVL165
 12696 0a07 0400     		.2byte	0x4
 12697 0a09 F3       		.byte	0xf3
 12698 0a0a 01       		.uleb128 0x1
 12699 0a0b 50       		.byte	0x50
 12700 0a0c 9F       		.byte	0x9f
 12701 0a0d 44010000 		.4byte	.LVL165
 12702 0a11 DA010000 		.4byte	.LVL175
 12703 0a15 0100     		.2byte	0x1
 12704 0a17 56       		.byte	0x56
 12705 0a18 DA010000 		.4byte	.LVL175
 12706 0a1c F0010000 		.4byte	.LVL178
ARM GAS  C:\Users\EBANO_~1\AppData\Local\Temp\ccazSBuk.s 			page 250


 12707 0a20 0400     		.2byte	0x4
 12708 0a22 F3       		.byte	0xf3
 12709 0a23 01       		.uleb128 0x1
 12710 0a24 50       		.byte	0x50
 12711 0a25 9F       		.byte	0x9f
 12712 0a26 F0010000 		.4byte	.LVL178
 12713 0a2a 20020000 		.4byte	.LFE54
 12714 0a2e 0100     		.2byte	0x1
 12715 0a30 56       		.byte	0x56
 12716 0a31 00000000 		.4byte	0
 12717 0a35 00000000 		.4byte	0
 12718              	.LLST53:
 12719 0a39 00000000 		.4byte	.LVL142
 12720 0a3d 2A000000 		.4byte	.LVL144
 12721 0a41 0100     		.2byte	0x1
 12722 0a43 51       		.byte	0x51
 12723 0a44 2A000000 		.4byte	.LVL144
 12724 0a48 38010000 		.4byte	.LVL164
 12725 0a4c 0100     		.2byte	0x1
 12726 0a4e 5B       		.byte	0x5b
 12727 0a4f 38010000 		.4byte	.LVL164
 12728 0a53 44010000 		.4byte	.LVL165
 12729 0a57 0400     		.2byte	0x4
 12730 0a59 F3       		.byte	0xf3
 12731 0a5a 01       		.uleb128 0x1
 12732 0a5b 51       		.byte	0x51
 12733 0a5c 9F       		.byte	0x9f
 12734 0a5d 44010000 		.4byte	.LVL165
 12735 0a61 20020000 		.4byte	.LFE54
 12736 0a65 0100     		.2byte	0x1
 12737 0a67 5B       		.byte	0x5b
 12738 0a68 00000000 		.4byte	0
 12739 0a6c 00000000 		.4byte	0
 12740              	.LLST54:
 12741 0a70 00000000 		.4byte	.LVL142
 12742 0a74 2A000000 		.4byte	.LVL144
 12743 0a78 0100     		.2byte	0x1
 12744 0a7a 52       		.byte	0x52
 12745 0a7b 2A000000 		.4byte	.LVL144
 12746 0a7f 38010000 		.4byte	.LVL163
 12747 0a83 0100     		.2byte	0x1
 12748 0a85 5A       		.byte	0x5a
 12749 0a86 38010000 		.4byte	.LVL163
 12750 0a8a 44010000 		.4byte	.LVL165
 12751 0a8e 0400     		.2byte	0x4
 12752 0a90 F3       		.byte	0xf3
 12753 0a91 01       		.uleb128 0x1
 12754 0a92 52       		.byte	0x52
 12755 0a93 9F       		.byte	0x9f
 12756 0a94 44010000 		.4byte	.LVL165
 12757 0a98 20020000 		.4byte	.LFE54
 12758 0a9c 0100     		.2byte	0x1
 12759 0a9e 5A       		.byte	0x5a
 12760 0a9f 00000000 		.4byte	0
 12761 0aa3 00000000 		.4byte	0
 12762              	.LLST55:
 12763 0aa7 00000000 		.4byte	.LVL142
ARM GAS  C:\Users\EBANO_~1\AppData\Local\Temp\ccazSBuk.s 			page 251


 12764 0aab 12000000 		.4byte	.LVL143
 12765 0aaf 0100     		.2byte	0x1
 12766 0ab1 53       		.byte	0x53
 12767 0ab2 12000000 		.4byte	.LVL143
 12768 0ab6 20020000 		.4byte	.LFE54
 12769 0aba 0300     		.2byte	0x3
 12770 0abc 91       		.byte	0x91
 12771 0abd A47F     		.sleb128 -92
 12772 0abf 00000000 		.4byte	0
 12773 0ac3 00000000 		.4byte	0
 12774              	.LLST56:
 12775 0ac7 00000000 		.4byte	.LVL142
 12776 0acb 2A000000 		.4byte	.LVL144
 12777 0acf 0200     		.2byte	0x2
 12778 0ad1 37       		.byte	0x37
 12779 0ad2 9F       		.byte	0x9f
 12780 0ad3 2A000000 		.4byte	.LVL144
 12781 0ad7 48000000 		.4byte	.LVL147
 12782 0adb 0100     		.2byte	0x1
 12783 0add 58       		.byte	0x58
 12784 0ade 48000000 		.4byte	.LVL147
 12785 0ae2 62000000 		.4byte	.LVL150
 12786 0ae6 0200     		.2byte	0x2
 12787 0ae8 37       		.byte	0x37
 12788 0ae9 9F       		.byte	0x9f
 12789 0aea 62000000 		.4byte	.LVL150
 12790 0aee 1A010000 		.4byte	.LVL160
 12791 0af2 0100     		.2byte	0x1
 12792 0af4 58       		.byte	0x58
 12793 0af5 1A010000 		.4byte	.LVL160
 12794 0af9 1E010000 		.4byte	.LVL161
 12795 0afd 0100     		.2byte	0x1
 12796 0aff 50       		.byte	0x50
 12797 0b00 44010000 		.4byte	.LVL165
 12798 0b04 DA010000 		.4byte	.LVL175
 12799 0b08 0200     		.2byte	0x2
 12800 0b0a 37       		.byte	0x37
 12801 0b0b 9F       		.byte	0x9f
 12802 0b0c DA010000 		.4byte	.LVL175
 12803 0b10 DC010000 		.4byte	.LVL176
 12804 0b14 0100     		.2byte	0x1
 12805 0b16 50       		.byte	0x50
 12806 0b17 F0010000 		.4byte	.LVL178
 12807 0b1b F6010000 		.4byte	.LVL179
 12808 0b1f 0200     		.2byte	0x2
 12809 0b21 37       		.byte	0x37
 12810 0b22 9F       		.byte	0x9f
 12811 0b23 F6010000 		.4byte	.LVL179
 12812 0b27 FA010000 		.4byte	.LVL180
 12813 0b2b 0100     		.2byte	0x1
 12814 0b2d 58       		.byte	0x58
 12815 0b2e FC010000 		.4byte	.LVL181
 12816 0b32 00020000 		.4byte	.LVL182
 12817 0b36 0100     		.2byte	0x1
 12818 0b38 58       		.byte	0x58
 12819 0b39 02020000 		.4byte	.LVL183
 12820 0b3d 06020000 		.4byte	.LVL184
ARM GAS  C:\Users\EBANO_~1\AppData\Local\Temp\ccazSBuk.s 			page 252


 12821 0b41 0100     		.2byte	0x1
 12822 0b43 58       		.byte	0x58
 12823 0b44 08020000 		.4byte	.LVL185
 12824 0b48 0C020000 		.4byte	.LVL186
 12825 0b4c 0100     		.2byte	0x1
 12826 0b4e 58       		.byte	0x58
 12827 0b4f 0E020000 		.4byte	.LVL187
 12828 0b53 12020000 		.4byte	.LVL188
 12829 0b57 0100     		.2byte	0x1
 12830 0b59 58       		.byte	0x58
 12831 0b5a 14020000 		.4byte	.LVL189
 12832 0b5e 18020000 		.4byte	.LVL190
 12833 0b62 0100     		.2byte	0x1
 12834 0b64 58       		.byte	0x58
 12835 0b65 00000000 		.4byte	0
 12836 0b69 00000000 		.4byte	0
 12837              	.LLST57:
 12838 0b6d 00000000 		.4byte	.LVL142
 12839 0b71 2A000000 		.4byte	.LVL144
 12840 0b75 0200     		.2byte	0x2
 12841 0b77 30       		.byte	0x30
 12842 0b78 9F       		.byte	0x9f
 12843 0b79 3A000000 		.4byte	.LVL145
 12844 0b7d 4A000000 		.4byte	.LVL148
 12845 0b81 0100     		.2byte	0x1
 12846 0b83 50       		.byte	0x50
 12847 0b84 00000000 		.4byte	0
 12848 0b88 00000000 		.4byte	0
 12849              	.LLST58:
 12850 0b8c 00000000 		.4byte	.LVL142
 12851 0b90 2A000000 		.4byte	.LVL144
 12852 0b94 0200     		.2byte	0x2
 12853 0b96 30       		.byte	0x30
 12854 0b97 9F       		.byte	0x9f
 12855 0b98 2A000000 		.4byte	.LVL144
 12856 0b9c 42000000 		.4byte	.LVL146
 12857 0ba0 0100     		.2byte	0x1
 12858 0ba2 54       		.byte	0x54
 12859 0ba3 48000000 		.4byte	.LVL147
 12860 0ba7 38010000 		.4byte	.LVL162
 12861 0bab 0100     		.2byte	0x1
 12862 0bad 54       		.byte	0x54
 12863 0bae 38010000 		.4byte	.LVL162
 12864 0bb2 44010000 		.4byte	.LVL165
 12865 0bb6 0200     		.2byte	0x2
 12866 0bb8 73       		.byte	0x73
 12867 0bb9 00       		.sleb128 0
 12868 0bba 44010000 		.4byte	.LVL165
 12869 0bbe 20020000 		.4byte	.LFE54
 12870 0bc2 0100     		.2byte	0x1
 12871 0bc4 54       		.byte	0x54
 12872 0bc5 00000000 		.4byte	0
 12873 0bc9 00000000 		.4byte	0
 12874              	.LLST59:
 12875 0bcd 58000000 		.4byte	.LVL149
 12876 0bd1 62000000 		.4byte	.LVL150
 12877 0bd5 0200     		.2byte	0x2
ARM GAS  C:\Users\EBANO_~1\AppData\Local\Temp\ccazSBuk.s 			page 253


 12878 0bd7 30       		.byte	0x30
 12879 0bd8 9F       		.byte	0x9f
 12880 0bd9 62000000 		.4byte	.LVL150
 12881 0bdd 70000000 		.4byte	.LVL151
 12882 0be1 0200     		.2byte	0x2
 12883 0be3 31       		.byte	0x31
 12884 0be4 9F       		.byte	0x9f
 12885 0be5 70000000 		.4byte	.LVL151
 12886 0be9 7E000000 		.4byte	.LVL152
 12887 0bed 0200     		.2byte	0x2
 12888 0bef 32       		.byte	0x32
 12889 0bf0 9F       		.byte	0x9f
 12890 0bf1 7E000000 		.4byte	.LVL152
 12891 0bf5 8C000000 		.4byte	.LVL153
 12892 0bf9 0200     		.2byte	0x2
 12893 0bfb 33       		.byte	0x33
 12894 0bfc 9F       		.byte	0x9f
 12895 0bfd 8C000000 		.4byte	.LVL153
 12896 0c01 9A000000 		.4byte	.LVL154
 12897 0c05 0200     		.2byte	0x2
 12898 0c07 34       		.byte	0x34
 12899 0c08 9F       		.byte	0x9f
 12900 0c09 9A000000 		.4byte	.LVL154
 12901 0c0d A8000000 		.4byte	.LVL155
 12902 0c11 0200     		.2byte	0x2
 12903 0c13 35       		.byte	0x35
 12904 0c14 9F       		.byte	0x9f
 12905 0c15 A8000000 		.4byte	.LVL155
 12906 0c19 B6000000 		.4byte	.LVL156
 12907 0c1d 0200     		.2byte	0x2
 12908 0c1f 36       		.byte	0x36
 12909 0c20 9F       		.byte	0x9f
 12910 0c21 B6000000 		.4byte	.LVL156
 12911 0c25 CC000000 		.4byte	.LVL158
 12912 0c29 0200     		.2byte	0x2
 12913 0c2b 37       		.byte	0x37
 12914 0c2c 9F       		.byte	0x9f
 12915 0c2d 56010000 		.4byte	.LVL166
 12916 0c31 64010000 		.4byte	.LVL167
 12917 0c35 0200     		.2byte	0x2
 12918 0c37 30       		.byte	0x30
 12919 0c38 9F       		.byte	0x9f
 12920 0c39 64010000 		.4byte	.LVL167
 12921 0c3d 72010000 		.4byte	.LVL168
 12922 0c41 0200     		.2byte	0x2
 12923 0c43 31       		.byte	0x31
 12924 0c44 9F       		.byte	0x9f
 12925 0c45 72010000 		.4byte	.LVL168
 12926 0c49 80010000 		.4byte	.LVL169
 12927 0c4d 0200     		.2byte	0x2
 12928 0c4f 32       		.byte	0x32
 12929 0c50 9F       		.byte	0x9f
 12930 0c51 80010000 		.4byte	.LVL169
 12931 0c55 8E010000 		.4byte	.LVL170
 12932 0c59 0200     		.2byte	0x2
 12933 0c5b 33       		.byte	0x33
 12934 0c5c 9F       		.byte	0x9f
ARM GAS  C:\Users\EBANO_~1\AppData\Local\Temp\ccazSBuk.s 			page 254


 12935 0c5d 8E010000 		.4byte	.LVL170
 12936 0c61 9C010000 		.4byte	.LVL171
 12937 0c65 0200     		.2byte	0x2
 12938 0c67 34       		.byte	0x34
 12939 0c68 9F       		.byte	0x9f
 12940 0c69 9C010000 		.4byte	.LVL171
 12941 0c6d AA010000 		.4byte	.LVL172
 12942 0c71 0200     		.2byte	0x2
 12943 0c73 35       		.byte	0x35
 12944 0c74 9F       		.byte	0x9f
 12945 0c75 AA010000 		.4byte	.LVL172
 12946 0c79 B8010000 		.4byte	.LVL173
 12947 0c7d 0200     		.2byte	0x2
 12948 0c7f 36       		.byte	0x36
 12949 0c80 9F       		.byte	0x9f
 12950 0c81 B8010000 		.4byte	.LVL173
 12951 0c85 CC010000 		.4byte	.LVL174
 12952 0c89 0200     		.2byte	0x2
 12953 0c8b 37       		.byte	0x37
 12954 0c8c 9F       		.byte	0x9f
 12955 0c8d CC010000 		.4byte	.LVL174
 12956 0c91 DA010000 		.4byte	.LVL175
 12957 0c95 0200     		.2byte	0x2
 12958 0c97 30       		.byte	0x30
 12959 0c98 9F       		.byte	0x9f
 12960 0c99 F0010000 		.4byte	.LVL178
 12961 0c9d F6010000 		.4byte	.LVL179
 12962 0ca1 0200     		.2byte	0x2
 12963 0ca3 37       		.byte	0x37
 12964 0ca4 9F       		.byte	0x9f
 12965 0ca5 F6010000 		.4byte	.LVL179
 12966 0ca9 FC010000 		.4byte	.LVL181
 12967 0cad 0200     		.2byte	0x2
 12968 0caf 36       		.byte	0x36
 12969 0cb0 9F       		.byte	0x9f
 12970 0cb1 FC010000 		.4byte	.LVL181
 12971 0cb5 02020000 		.4byte	.LVL183
 12972 0cb9 0200     		.2byte	0x2
 12973 0cbb 35       		.byte	0x35
 12974 0cbc 9F       		.byte	0x9f
 12975 0cbd 02020000 		.4byte	.LVL183
 12976 0cc1 08020000 		.4byte	.LVL185
 12977 0cc5 0200     		.2byte	0x2
 12978 0cc7 34       		.byte	0x34
 12979 0cc8 9F       		.byte	0x9f
 12980 0cc9 08020000 		.4byte	.LVL185
 12981 0ccd 0E020000 		.4byte	.LVL187
 12982 0cd1 0200     		.2byte	0x2
 12983 0cd3 33       		.byte	0x33
 12984 0cd4 9F       		.byte	0x9f
 12985 0cd5 0E020000 		.4byte	.LVL187
 12986 0cd9 14020000 		.4byte	.LVL189
 12987 0cdd 0200     		.2byte	0x2
 12988 0cdf 32       		.byte	0x32
 12989 0ce0 9F       		.byte	0x9f
 12990 0ce1 14020000 		.4byte	.LVL189
 12991 0ce5 20020000 		.4byte	.LFE54
ARM GAS  C:\Users\EBANO_~1\AppData\Local\Temp\ccazSBuk.s 			page 255


 12992 0ce9 0200     		.2byte	0x2
 12993 0ceb 31       		.byte	0x31
 12994 0cec 9F       		.byte	0x9f
 12995 0ced 00000000 		.4byte	0
 12996 0cf1 00000000 		.4byte	0
 12997              	.LLST40:
 12998 0cf5 00000000 		.4byte	.LFB53
 12999 0cf9 02000000 		.4byte	.LCFI16
 13000 0cfd 0200     		.2byte	0x2
 13001 0cff 7D       		.byte	0x7d
 13002 0d00 00       		.sleb128 0
 13003 0d01 02000000 		.4byte	.LCFI16
 13004 0d05 14000000 		.4byte	.LCFI17
 13005 0d09 0200     		.2byte	0x2
 13006 0d0b 7D       		.byte	0x7d
 13007 0d0c 14       		.sleb128 20
 13008 0d0d 14000000 		.4byte	.LCFI17
 13009 0d11 16000000 		.4byte	.LCFI18
 13010 0d15 0200     		.2byte	0x2
 13011 0d17 7D       		.byte	0x7d
 13012 0d18 24       		.sleb128 36
 13013 0d19 16000000 		.4byte	.LCFI18
 13014 0d1d 3C010000 		.4byte	.LFE53
 13015 0d21 0300     		.2byte	0x3
 13016 0d23 7D       		.byte	0x7d
 13017 0d24 D800     		.sleb128 88
 13018 0d26 00000000 		.4byte	0
 13019 0d2a 00000000 		.4byte	0
 13020              	.LLST41:
 13021 0d2e 00000000 		.4byte	.LVL114
 13022 0d32 20000000 		.4byte	.LVL117
 13023 0d36 0100     		.2byte	0x1
 13024 0d38 50       		.byte	0x50
 13025 0d39 20000000 		.4byte	.LVL117
 13026 0d3d D8000000 		.4byte	.LVL133
 13027 0d41 0100     		.2byte	0x1
 13028 0d43 54       		.byte	0x54
 13029 0d44 D8000000 		.4byte	.LVL133
 13030 0d48 E4000000 		.4byte	.LVL137
 13031 0d4c 0400     		.2byte	0x4
 13032 0d4e F3       		.byte	0xf3
 13033 0d4f 01       		.uleb128 0x1
 13034 0d50 50       		.byte	0x50
 13035 0d51 9F       		.byte	0x9f
 13036 0d52 E4000000 		.4byte	.LVL137
 13037 0d56 3C010000 		.4byte	.LFE53
 13038 0d5a 0100     		.2byte	0x1
 13039 0d5c 54       		.byte	0x54
 13040 0d5d 00000000 		.4byte	0
 13041 0d61 00000000 		.4byte	0
 13042              	.LLST42:
 13043 0d65 00000000 		.4byte	.LVL114
 13044 0d69 1C000000 		.4byte	.LVL116
 13045 0d6d 0100     		.2byte	0x1
 13046 0d6f 51       		.byte	0x51
 13047 0d70 1C000000 		.4byte	.LVL116
 13048 0d74 3C010000 		.4byte	.LFE53
ARM GAS  C:\Users\EBANO_~1\AppData\Local\Temp\ccazSBuk.s 			page 256


 13049 0d78 0200     		.2byte	0x2
 13050 0d7a 91       		.byte	0x91
 13051 0d7b 50       		.sleb128 -48
 13052 0d7c 00000000 		.4byte	0
 13053 0d80 00000000 		.4byte	0
 13054              	.LLST43:
 13055 0d84 00000000 		.4byte	.LVL114
 13056 0d88 0E000000 		.4byte	.LVL115
 13057 0d8c 0100     		.2byte	0x1
 13058 0d8e 52       		.byte	0x52
 13059 0d8f 0E000000 		.4byte	.LVL115
 13060 0d93 D8000000 		.4byte	.LVL135
 13061 0d97 0100     		.2byte	0x1
 13062 0d99 58       		.byte	0x58
 13063 0d9a D8000000 		.4byte	.LVL135
 13064 0d9e E4000000 		.4byte	.LVL137
 13065 0da2 0400     		.2byte	0x4
 13066 0da4 F3       		.byte	0xf3
 13067 0da5 01       		.uleb128 0x1
 13068 0da6 52       		.byte	0x52
 13069 0da7 9F       		.byte	0x9f
 13070 0da8 E4000000 		.4byte	.LVL137
 13071 0dac 3C010000 		.4byte	.LFE53
 13072 0db0 0100     		.2byte	0x1
 13073 0db2 58       		.byte	0x58
 13074 0db3 00000000 		.4byte	0
 13075 0db7 00000000 		.4byte	0
 13076              	.LLST44:
 13077 0dbb 8E000000 		.4byte	.LVL127
 13078 0dbf B6000000 		.4byte	.LVL130
 13079 0dc3 0200     		.2byte	0x2
 13080 0dc5 31       		.byte	0x31
 13081 0dc6 9F       		.byte	0x9f
 13082 0dc7 B6000000 		.4byte	.LVL130
 13083 0dcb D8000000 		.4byte	.LVL134
 13084 0dcf 0100     		.2byte	0x1
 13085 0dd1 56       		.byte	0x56
 13086 0dd2 EA000000 		.4byte	.LVL139
 13087 0dd6 3C010000 		.4byte	.LFE53
 13088 0dda 0200     		.2byte	0x2
 13089 0ddc 30       		.byte	0x30
 13090 0ddd 9F       		.byte	0x9f
 13091 0dde 00000000 		.4byte	0
 13092 0de2 00000000 		.4byte	0
 13093              	.LLST45:
 13094 0de6 22000000 		.4byte	.LVL118
 13095 0dea AC000000 		.4byte	.LVL128
 13096 0dee 0100     		.2byte	0x1
 13097 0df0 56       		.byte	0x56
 13098 0df1 AC000000 		.4byte	.LVL128
 13099 0df5 B3000000 		.4byte	.LVL129-1
 13100 0df9 0200     		.2byte	0x2
 13101 0dfb 7D       		.byte	0x7d
 13102 0dfc 00       		.sleb128 0
 13103 0dfd E4000000 		.4byte	.LVL137
 13104 0e01 04010000 		.4byte	.LVL140
 13105 0e05 0100     		.2byte	0x1
ARM GAS  C:\Users\EBANO_~1\AppData\Local\Temp\ccazSBuk.s 			page 257


 13106 0e07 56       		.byte	0x56
 13107 0e08 00000000 		.4byte	0
 13108 0e0c 00000000 		.4byte	0
 13109              	.LLST46:
 13110 0e10 64000000 		.4byte	.LVL123
 13111 0e14 72000000 		.4byte	.LVL125
 13112 0e18 0200     		.2byte	0x2
 13113 0e1a 30       		.byte	0x30
 13114 0e1b 9F       		.byte	0x9f
 13115 0e1c 72000000 		.4byte	.LVL125
 13116 0e20 D8000000 		.4byte	.LVL136
 13117 0e24 0100     		.2byte	0x1
 13118 0e26 5B       		.byte	0x5b
 13119 0e27 EA000000 		.4byte	.LVL139
 13120 0e2b 3C010000 		.4byte	.LFE53
 13121 0e2f 0100     		.2byte	0x1
 13122 0e31 5B       		.byte	0x5b
 13123 0e32 00000000 		.4byte	0
 13124 0e36 00000000 		.4byte	0
 13125              	.LLST47:
 13126 0e3a 22000000 		.4byte	.LVL118
 13127 0e3e 4C000000 		.4byte	.LVL121
 13128 0e42 0100     		.2byte	0x1
 13129 0e44 52       		.byte	0x52
 13130 0e45 4C000000 		.4byte	.LVL121
 13131 0e49 6D000000 		.4byte	.LVL124-1
 13132 0e4d 0200     		.2byte	0x2
 13133 0e4f 74       		.byte	0x74
 13134 0e50 01       		.sleb128 1
 13135 0e51 E4000000 		.4byte	.LVL137
 13136 0e55 E6000000 		.4byte	.LVL138
 13137 0e59 0200     		.2byte	0x2
 13138 0e5b 74       		.byte	0x74
 13139 0e5c 01       		.sleb128 1
 13140 0e5d E6000000 		.4byte	.LVL138
 13141 0e61 EA000000 		.4byte	.LVL139
 13142 0e65 0500     		.2byte	0x5
 13143 0e67 74       		.byte	0x74
 13144 0e68 00       		.sleb128 0
 13145 0e69 73       		.byte	0x73
 13146 0e6a 00       		.sleb128 0
 13147 0e6b 22       		.byte	0x22
 13148 0e6c 00000000 		.4byte	0
 13149 0e70 00000000 		.4byte	0
 13150              	.LLST48:
 13151 0e74 22000000 		.4byte	.LVL118
 13152 0e78 24000000 		.4byte	.LVL119
 13153 0e7c 1E00     		.2byte	0x1e
 13154 0e7e 74       		.byte	0x74
 13155 0e7f 00       		.sleb128 0
 13156 0e80 94       		.byte	0x94
 13157 0e81 01       		.byte	0x1
 13158 0e82 08       		.byte	0x8
 13159 0e83 FF       		.byte	0xff
 13160 0e84 1A       		.byte	0x1a
 13161 0e85 3C       		.byte	0x3c
 13162 0e86 1E       		.byte	0x1e
ARM GAS  C:\Users\EBANO_~1\AppData\Local\Temp\ccazSBuk.s 			page 258


 13163 0e87 03       		.byte	0x3
 13164 0e88 09000000 		.4byte	NvmCtx+9
 13165 0e8c 22       		.byte	0x22
 13166 0e8d 94       		.byte	0x94
 13167 0e8e 01       		.byte	0x1
 13168 0e8f 08       		.byte	0x8
 13169 0e90 FF       		.byte	0xff
 13170 0e91 1A       		.byte	0x1a
 13171 0e92 23       		.byte	0x23
 13172 0e93 06       		.uleb128 0x6
 13173 0e94 34       		.byte	0x34
 13174 0e95 24       		.byte	0x24
 13175 0e96 03       		.byte	0x3
 13176 0e97 02000000 		.4byte	NvmCtx+2
 13177 0e9b 22       		.byte	0x22
 13178 0e9c 24000000 		.4byte	.LVL119
 13179 0ea0 2A000000 		.4byte	.LVL120
 13180 0ea4 1900     		.2byte	0x19
 13181 0ea6 70       		.byte	0x70
 13182 0ea7 00       		.sleb128 0
 13183 0ea8 3C       		.byte	0x3c
 13184 0ea9 1E       		.byte	0x1e
 13185 0eaa 03       		.byte	0x3
 13186 0eab 09000000 		.4byte	NvmCtx+9
 13187 0eaf 22       		.byte	0x22
 13188 0eb0 94       		.byte	0x94
 13189 0eb1 01       		.byte	0x1
 13190 0eb2 08       		.byte	0x8
 13191 0eb3 FF       		.byte	0xff
 13192 0eb4 1A       		.byte	0x1a
 13193 0eb5 23       		.byte	0x23
 13194 0eb6 06       		.uleb128 0x6
 13195 0eb7 34       		.byte	0x34
 13196 0eb8 24       		.byte	0x24
 13197 0eb9 03       		.byte	0x3
 13198 0eba 02000000 		.4byte	NvmCtx+2
 13199 0ebe 22       		.byte	0x22
 13200 0ebf 2A000000 		.4byte	.LVL120
 13201 0ec3 4E000000 		.4byte	.LVL122
 13202 0ec7 1E00     		.2byte	0x1e
 13203 0ec9 74       		.byte	0x74
 13204 0eca 00       		.sleb128 0
 13205 0ecb 94       		.byte	0x94
 13206 0ecc 01       		.byte	0x1
 13207 0ecd 08       		.byte	0x8
 13208 0ece FF       		.byte	0xff
 13209 0ecf 1A       		.byte	0x1a
 13210 0ed0 3C       		.byte	0x3c
 13211 0ed1 1E       		.byte	0x1e
 13212 0ed2 03       		.byte	0x3
 13213 0ed3 09000000 		.4byte	NvmCtx+9
 13214 0ed7 22       		.byte	0x22
 13215 0ed8 94       		.byte	0x94
 13216 0ed9 01       		.byte	0x1
 13217 0eda 08       		.byte	0x8
 13218 0edb FF       		.byte	0xff
 13219 0edc 1A       		.byte	0x1a
ARM GAS  C:\Users\EBANO_~1\AppData\Local\Temp\ccazSBuk.s 			page 259


 13220 0edd 23       		.byte	0x23
 13221 0ede 06       		.uleb128 0x6
 13222 0edf 34       		.byte	0x34
 13223 0ee0 24       		.byte	0x24
 13224 0ee1 03       		.byte	0x3
 13225 0ee2 02000000 		.4byte	NvmCtx+2
 13226 0ee6 22       		.byte	0x22
 13227 0ee7 00000000 		.4byte	0
 13228 0eeb 00000000 		.4byte	0
 13229              	.LLST49:
 13230 0eef 22000000 		.4byte	.LVL118
 13231 0ef3 4E000000 		.4byte	.LVL122
 13232 0ef7 0200     		.2byte	0x2
 13233 0ef9 74       		.byte	0x74
 13234 0efa 02       		.sleb128 2
 13235 0efb 00000000 		.4byte	0
 13236 0eff 00000000 		.4byte	0
 13237              	.LLST32:
 13238 0f03 00000000 		.4byte	.LFB52
 13239 0f07 02000000 		.4byte	.LCFI13
 13240 0f0b 0200     		.2byte	0x2
 13241 0f0d 7D       		.byte	0x7d
 13242 0f0e 00       		.sleb128 0
 13243 0f0f 02000000 		.4byte	.LCFI13
 13244 0f13 0A000000 		.4byte	.LCFI14
 13245 0f17 0200     		.2byte	0x2
 13246 0f19 7D       		.byte	0x7d
 13247 0f1a 14       		.sleb128 20
 13248 0f1b 0A000000 		.4byte	.LCFI14
 13249 0f1f 16000000 		.4byte	.LCFI15
 13250 0f23 0200     		.2byte	0x2
 13251 0f25 7D       		.byte	0x7d
 13252 0f26 20       		.sleb128 32
 13253 0f27 16000000 		.4byte	.LCFI15
 13254 0f2b 0C010000 		.4byte	.LFE52
 13255 0f2f 0300     		.2byte	0x3
 13256 0f31 7D       		.byte	0x7d
 13257 0f32 D000     		.sleb128 80
 13258 0f34 00000000 		.4byte	0
 13259 0f38 00000000 		.4byte	0
 13260              	.LLST33:
 13261 0f3c 00000000 		.4byte	.LVL91
 13262 0f40 1F000000 		.4byte	.LVL93-1
 13263 0f44 0100     		.2byte	0x1
 13264 0f46 50       		.byte	0x50
 13265 0f47 1F000000 		.4byte	.LVL93-1
 13266 0f4b A8000000 		.4byte	.LVL105
 13267 0f4f 0100     		.2byte	0x1
 13268 0f51 54       		.byte	0x54
 13269 0f52 A8000000 		.4byte	.LVL105
 13270 0f56 B2000000 		.4byte	.LVL109
 13271 0f5a 0400     		.2byte	0x4
 13272 0f5c F3       		.byte	0xf3
 13273 0f5d 01       		.uleb128 0x1
 13274 0f5e 50       		.byte	0x50
 13275 0f5f 9F       		.byte	0x9f
 13276 0f60 B2000000 		.4byte	.LVL109
ARM GAS  C:\Users\EBANO_~1\AppData\Local\Temp\ccazSBuk.s 			page 260


 13277 0f64 0C010000 		.4byte	.LFE52
 13278 0f68 0100     		.2byte	0x1
 13279 0f6a 54       		.byte	0x54
 13280 0f6b 00000000 		.4byte	0
 13281 0f6f 00000000 		.4byte	0
 13282              	.LLST34:
 13283 0f73 00000000 		.4byte	.LVL91
 13284 0f77 1F000000 		.4byte	.LVL93-1
 13285 0f7b 0100     		.2byte	0x1
 13286 0f7d 51       		.byte	0x51
 13287 0f7e 1F000000 		.4byte	.LVL93-1
 13288 0f82 A8000000 		.4byte	.LVL108
 13289 0f86 0100     		.2byte	0x1
 13290 0f88 5A       		.byte	0x5a
 13291 0f89 A8000000 		.4byte	.LVL108
 13292 0f8d B2000000 		.4byte	.LVL109
 13293 0f91 0400     		.2byte	0x4
 13294 0f93 F3       		.byte	0xf3
 13295 0f94 01       		.uleb128 0x1
 13296 0f95 51       		.byte	0x51
 13297 0f96 9F       		.byte	0x9f
 13298 0f97 B2000000 		.4byte	.LVL109
 13299 0f9b 0C010000 		.4byte	.LFE52
 13300 0f9f 0100     		.2byte	0x1
 13301 0fa1 5A       		.byte	0x5a
 13302 0fa2 00000000 		.4byte	0
 13303 0fa6 00000000 		.4byte	0
 13304              	.LLST35:
 13305 0faa 5E000000 		.4byte	.LVL98
 13306 0fae 88000000 		.4byte	.LVL100
 13307 0fb2 0200     		.2byte	0x2
 13308 0fb4 31       		.byte	0x31
 13309 0fb5 9F       		.byte	0x9f
 13310 0fb6 88000000 		.4byte	.LVL100
 13311 0fba 9D000000 		.4byte	.LVL103-1
 13312 0fbe 0100     		.2byte	0x1
 13313 0fc0 50       		.byte	0x50
 13314 0fc1 B2000000 		.4byte	.LVL109
 13315 0fc5 B8000000 		.4byte	.LVL111
 13316 0fc9 0100     		.2byte	0x1
 13317 0fcb 50       		.byte	0x50
 13318 0fcc B8000000 		.4byte	.LVL111
 13319 0fd0 F0000000 		.4byte	.LVL113
 13320 0fd4 0200     		.2byte	0x2
 13321 0fd6 30       		.byte	0x30
 13322 0fd7 9F       		.byte	0x9f
 13323 0fd8 00000000 		.4byte	0
 13324 0fdc 00000000 		.4byte	0
 13325              	.LLST36:
 13326 0fe0 18000000 		.4byte	.LVL92
 13327 0fe4 A8000000 		.4byte	.LVL106
 13328 0fe8 0100     		.2byte	0x1
 13329 0fea 56       		.byte	0x56
 13330 0feb B2000000 		.4byte	.LVL109
 13331 0fef 0C010000 		.4byte	.LFE52
 13332 0ff3 0100     		.2byte	0x1
 13333 0ff5 56       		.byte	0x56
ARM GAS  C:\Users\EBANO_~1\AppData\Local\Temp\ccazSBuk.s 			page 261


 13334 0ff6 00000000 		.4byte	0
 13335 0ffa 00000000 		.4byte	0
 13336              	.LLST37:
 13337 0ffe 18000000 		.4byte	.LVL92
 13338 1002 94000000 		.4byte	.LVL101
 13339 1006 0200     		.2byte	0x2
 13340 1008 30       		.byte	0x30
 13341 1009 9F       		.byte	0x9f
 13342 100a 94000000 		.4byte	.LVL101
 13343 100e 98000000 		.4byte	.LVL102
 13344 1012 0100     		.2byte	0x1
 13345 1014 51       		.byte	0x51
 13346 1015 B2000000 		.4byte	.LVL109
 13347 1019 B6000000 		.4byte	.LVL110
 13348 101d 0200     		.2byte	0x2
 13349 101f 30       		.byte	0x30
 13350 1020 9F       		.byte	0x9f
 13351 1021 B6000000 		.4byte	.LVL110
 13352 1025 B8000000 		.4byte	.LVL111
 13353 1029 0100     		.2byte	0x1
 13354 102b 51       		.byte	0x51
 13355 102c B8000000 		.4byte	.LVL111
 13356 1030 0C010000 		.4byte	.LFE52
 13357 1034 0200     		.2byte	0x2
 13358 1036 30       		.byte	0x30
 13359 1037 9F       		.byte	0x9f
 13360 1038 00000000 		.4byte	0
 13361 103c 00000000 		.4byte	0
 13362              	.LLST38:
 13363 1040 18000000 		.4byte	.LVL92
 13364 1044 4E000000 		.4byte	.LVL96
 13365 1048 0200     		.2byte	0x2
 13366 104a 30       		.byte	0x30
 13367 104b 9F       		.byte	0x9f
 13368 104c 4E000000 		.4byte	.LVL96
 13369 1050 A4000000 		.4byte	.LVL104
 13370 1054 0100     		.2byte	0x1
 13371 1056 59       		.byte	0x59
 13372 1057 B2000000 		.4byte	.LVL109
 13373 105b F0000000 		.4byte	.LVL113
 13374 105f 0100     		.2byte	0x1
 13375 1061 59       		.byte	0x59
 13376 1062 F0000000 		.4byte	.LVL113
 13377 1066 0C010000 		.4byte	.LFE52
 13378 106a 0200     		.2byte	0x2
 13379 106c 30       		.byte	0x30
 13380 106d 9F       		.byte	0x9f
 13381 106e 00000000 		.4byte	0
 13382 1072 00000000 		.4byte	0
 13383              	.LLST39:
 13384 1076 18000000 		.4byte	.LVL92
 13385 107a 38000000 		.4byte	.LVL94
 13386 107e 0100     		.2byte	0x1
 13387 1080 58       		.byte	0x58
 13388 1081 38000000 		.4byte	.LVL94
 13389 1085 42000000 		.4byte	.LVL95
 13390 1089 0100     		.2byte	0x1
ARM GAS  C:\Users\EBANO_~1\AppData\Local\Temp\ccazSBuk.s 			page 262


 13391 108b 51       		.byte	0x51
 13392 108c 42000000 		.4byte	.LVL95
 13393 1090 A8000000 		.4byte	.LVL107
 13394 1094 0100     		.2byte	0x1
 13395 1096 58       		.byte	0x58
 13396 1097 B2000000 		.4byte	.LVL109
 13397 109b F0000000 		.4byte	.LVL113
 13398 109f 0100     		.2byte	0x1
 13399 10a1 58       		.byte	0x58
 13400 10a2 F0000000 		.4byte	.LVL113
 13401 10a6 0C010000 		.4byte	.LFE52
 13402 10aa 0100     		.2byte	0x1
 13403 10ac 51       		.byte	0x51
 13404 10ad 00000000 		.4byte	0
 13405 10b1 00000000 		.4byte	0
 13406              	.LLST26:
 13407 10b5 00000000 		.4byte	.LFB51
 13408 10b9 02000000 		.4byte	.LCFI10
 13409 10bd 0200     		.2byte	0x2
 13410 10bf 7D       		.byte	0x7d
 13411 10c0 00       		.sleb128 0
 13412 10c1 02000000 		.4byte	.LCFI10
 13413 10c5 06000000 		.4byte	.LCFI11
 13414 10c9 0200     		.2byte	0x2
 13415 10cb 7D       		.byte	0x7d
 13416 10cc 14       		.sleb128 20
 13417 10cd 06000000 		.4byte	.LCFI11
 13418 10d1 0A000000 		.4byte	.LCFI12
 13419 10d5 0200     		.2byte	0x2
 13420 10d7 7D       		.byte	0x7d
 13421 10d8 18       		.sleb128 24
 13422 10d9 0A000000 		.4byte	.LCFI12
 13423 10dd 94000000 		.4byte	.LFE51
 13424 10e1 0200     		.2byte	0x2
 13425 10e3 7D       		.byte	0x7d
 13426 10e4 30       		.sleb128 48
 13427 10e5 00000000 		.4byte	0
 13428 10e9 00000000 		.4byte	0
 13429              	.LLST27:
 13430 10ed 00000000 		.4byte	.LVL71
 13431 10f1 40000000 		.4byte	.LVL76
 13432 10f5 0100     		.2byte	0x1
 13433 10f7 50       		.byte	0x50
 13434 10f8 40000000 		.4byte	.LVL76
 13435 10fc 70000000 		.4byte	.LVL87
 13436 1100 0400     		.2byte	0x4
 13437 1102 F3       		.byte	0xf3
 13438 1103 01       		.uleb128 0x1
 13439 1104 50       		.byte	0x50
 13440 1105 9F       		.byte	0x9f
 13441 1106 70000000 		.4byte	.LVL87
 13442 110a 7A000000 		.4byte	.LVL88
 13443 110e 0100     		.2byte	0x1
 13444 1110 50       		.byte	0x50
 13445 1111 7A000000 		.4byte	.LVL88
 13446 1115 94000000 		.4byte	.LFE51
 13447 1119 0400     		.2byte	0x4
ARM GAS  C:\Users\EBANO_~1\AppData\Local\Temp\ccazSBuk.s 			page 263


 13448 111b F3       		.byte	0xf3
 13449 111c 01       		.uleb128 0x1
 13450 111d 50       		.byte	0x50
 13451 111e 9F       		.byte	0x9f
 13452 111f 00000000 		.4byte	0
 13453 1123 00000000 		.4byte	0
 13454              	.LLST28:
 13455 1127 00000000 		.4byte	.LVL71
 13456 112b 1C000000 		.4byte	.LVL74
 13457 112f 0100     		.2byte	0x1
 13458 1131 51       		.byte	0x51
 13459 1132 1C000000 		.4byte	.LVL74
 13460 1136 94000000 		.4byte	.LFE51
 13461 113a 0400     		.2byte	0x4
 13462 113c F3       		.byte	0xf3
 13463 113d 01       		.uleb128 0x1
 13464 113e 51       		.byte	0x51
 13465 113f 9F       		.byte	0x9f
 13466 1140 00000000 		.4byte	0
 13467 1144 00000000 		.4byte	0
 13468              	.LLST29:
 13469 1148 00000000 		.4byte	.LVL71
 13470 114c 1A000000 		.4byte	.LVL73
 13471 1150 0100     		.2byte	0x1
 13472 1152 52       		.byte	0x52
 13473 1153 1A000000 		.4byte	.LVL73
 13474 1157 6A000000 		.4byte	.LVL86
 13475 115b 0100     		.2byte	0x1
 13476 115d 58       		.byte	0x58
 13477 115e 6A000000 		.4byte	.LVL86
 13478 1162 70000000 		.4byte	.LVL87
 13479 1166 0400     		.2byte	0x4
 13480 1168 F3       		.byte	0xf3
 13481 1169 01       		.uleb128 0x1
 13482 116a 52       		.byte	0x52
 13483 116b 9F       		.byte	0x9f
 13484 116c 70000000 		.4byte	.LVL87
 13485 1170 94000000 		.4byte	.LFE51
 13486 1174 0100     		.2byte	0x1
 13487 1176 58       		.byte	0x58
 13488 1177 00000000 		.4byte	0
 13489 117b 00000000 		.4byte	0
 13490              	.LLST30:
 13491 117f 00000000 		.4byte	.LVL71
 13492 1183 10000000 		.4byte	.LVL72
 13493 1187 0100     		.2byte	0x1
 13494 1189 53       		.byte	0x53
 13495 118a 10000000 		.4byte	.LVL72
 13496 118e 54000000 		.4byte	.LVL80
 13497 1192 0100     		.2byte	0x1
 13498 1194 54       		.byte	0x54
 13499 1195 54000000 		.4byte	.LVL80
 13500 1199 56000000 		.4byte	.LVL81
 13501 119d 0100     		.2byte	0x1
 13502 119f 53       		.byte	0x53
 13503 11a0 56000000 		.4byte	.LVL81
 13504 11a4 5E000000 		.4byte	.LVL82
ARM GAS  C:\Users\EBANO_~1\AppData\Local\Temp\ccazSBuk.s 			page 264


 13505 11a8 0300     		.2byte	0x3
 13506 11aa 73       		.byte	0x73
 13507 11ab 74       		.sleb128 -12
 13508 11ac 9F       		.byte	0x9f
 13509 11ad 5E000000 		.4byte	.LVL82
 13510 11b1 67000000 		.4byte	.LVL83-1
 13511 11b5 0600     		.2byte	0x6
 13512 11b7 91       		.byte	0x91
 13513 11b8 58       		.sleb128 -40
 13514 11b9 06       		.byte	0x6
 13515 11ba 3C       		.byte	0x3c
 13516 11bb 1C       		.byte	0x1c
 13517 11bc 9F       		.byte	0x9f
 13518 11bd 67000000 		.4byte	.LVL83-1
 13519 11c1 6A000000 		.4byte	.LVL84
 13520 11c5 0300     		.2byte	0x3
 13521 11c7 74       		.byte	0x74
 13522 11c8 78       		.sleb128 -8
 13523 11c9 9F       		.byte	0x9f
 13524 11ca 6A000000 		.4byte	.LVL84
 13525 11ce 70000000 		.4byte	.LVL87
 13526 11d2 0400     		.2byte	0x4
 13527 11d4 F3       		.byte	0xf3
 13528 11d5 01       		.uleb128 0x1
 13529 11d6 53       		.byte	0x53
 13530 11d7 9F       		.byte	0x9f
 13531 11d8 70000000 		.4byte	.LVL87
 13532 11dc 94000000 		.4byte	.LFE51
 13533 11e0 0100     		.2byte	0x1
 13534 11e2 54       		.byte	0x54
 13535 11e3 00000000 		.4byte	0
 13536 11e7 00000000 		.4byte	0
 13537              	.LLST31:
 13538 11eb 00000000 		.4byte	.LVL71
 13539 11ef 48000000 		.4byte	.LVL78
 13540 11f3 0A00     		.2byte	0xa
 13541 11f5 9E       		.byte	0x9e
 13542 11f6 08       		.uleb128 0x8
 13543 11f7 00000000 		.4byte	0
 13544 11fb 00000000 		.4byte	0
 13545 11ff 48000000 		.4byte	.LVL78
 13546 1203 6A000000 		.4byte	.LVL85
 13547 1207 0600     		.2byte	0x6
 13548 1209 56       		.byte	0x56
 13549 120a 93       		.byte	0x93
 13550 120b 04       		.uleb128 0x4
 13551 120c 57       		.byte	0x57
 13552 120d 93       		.byte	0x93
 13553 120e 04       		.uleb128 0x4
 13554 120f 70000000 		.4byte	.LVL87
 13555 1213 82000000 		.4byte	.LVL90
 13556 1217 0A00     		.2byte	0xa
 13557 1219 9E       		.byte	0x9e
 13558 121a 08       		.uleb128 0x8
 13559 121b 00000000 		.4byte	0
 13560 121f 00000000 		.4byte	0
 13561 1223 82000000 		.4byte	.LVL90
ARM GAS  C:\Users\EBANO_~1\AppData\Local\Temp\ccazSBuk.s 			page 265


 13562 1227 94000000 		.4byte	.LFE51
 13563 122b 0600     		.2byte	0x6
 13564 122d 56       		.byte	0x56
 13565 122e 93       		.byte	0x93
 13566 122f 04       		.uleb128 0x4
 13567 1230 57       		.byte	0x57
 13568 1231 93       		.byte	0x93
 13569 1232 04       		.uleb128 0x4
 13570 1233 00000000 		.4byte	0
 13571 1237 00000000 		.4byte	0
 13572              	.LLST24:
 13573 123b 00000000 		.4byte	.LFB50
 13574 123f 02000000 		.4byte	.LCFI9
 13575 1243 0200     		.2byte	0x2
 13576 1245 7D       		.byte	0x7d
 13577 1246 00       		.sleb128 0
 13578 1247 02000000 		.4byte	.LCFI9
 13579 124b 34000000 		.4byte	.LFE50
 13580 124f 0200     		.2byte	0x2
 13581 1251 7D       		.byte	0x7d
 13582 1252 08       		.sleb128 8
 13583 1253 00000000 		.4byte	0
 13584 1257 00000000 		.4byte	0
 13585              	.LLST25:
 13586 125b 00000000 		.4byte	.LVL63
 13587 125f 0E000000 		.4byte	.LVL64
 13588 1263 0100     		.2byte	0x1
 13589 1265 50       		.byte	0x50
 13590 1266 0E000000 		.4byte	.LVL64
 13591 126a 10000000 		.4byte	.LVL65
 13592 126e 0400     		.2byte	0x4
 13593 1270 F3       		.byte	0xf3
 13594 1271 01       		.uleb128 0x1
 13595 1272 50       		.byte	0x50
 13596 1273 9F       		.byte	0x9f
 13597 1274 10000000 		.4byte	.LVL65
 13598 1278 14000000 		.4byte	.LVL66
 13599 127c 0100     		.2byte	0x1
 13600 127e 50       		.byte	0x50
 13601 127f 14000000 		.4byte	.LVL66
 13602 1283 20000000 		.4byte	.LVL68
 13603 1287 0400     		.2byte	0x4
 13604 1289 F3       		.byte	0xf3
 13605 128a 01       		.uleb128 0x1
 13606 128b 50       		.byte	0x50
 13607 128c 9F       		.byte	0x9f
 13608 128d 20000000 		.4byte	.LVL68
 13609 1291 24000000 		.4byte	.LVL69
 13610 1295 0100     		.2byte	0x1
 13611 1297 50       		.byte	0x50
 13612 1298 24000000 		.4byte	.LVL69
 13613 129c 34000000 		.4byte	.LFE50
 13614 12a0 0400     		.2byte	0x4
 13615 12a2 F3       		.byte	0xf3
 13616 12a3 01       		.uleb128 0x1
 13617 12a4 50       		.byte	0x50
 13618 12a5 9F       		.byte	0x9f
ARM GAS  C:\Users\EBANO_~1\AppData\Local\Temp\ccazSBuk.s 			page 266


 13619 12a6 00000000 		.4byte	0
 13620 12aa 00000000 		.4byte	0
 13621              	.LLST13:
 13622 12ae 00000000 		.4byte	.LFB49
 13623 12b2 02000000 		.4byte	.LCFI6
 13624 12b6 0200     		.2byte	0x2
 13625 12b8 7D       		.byte	0x7d
 13626 12b9 00       		.sleb128 0
 13627 12ba 02000000 		.4byte	.LCFI6
 13628 12be 0E000000 		.4byte	.LCFI7
 13629 12c2 0200     		.2byte	0x2
 13630 12c4 7D       		.byte	0x7d
 13631 12c5 14       		.sleb128 20
 13632 12c6 0E000000 		.4byte	.LCFI7
 13633 12ca 10000000 		.4byte	.LCFI8
 13634 12ce 0200     		.2byte	0x2
 13635 12d0 7D       		.byte	0x7d
 13636 12d1 24       		.sleb128 36
 13637 12d2 10000000 		.4byte	.LCFI8
 13638 12d6 5C010000 		.4byte	.LFE49
 13639 12da 0300     		.2byte	0x3
 13640 12dc 7D       		.byte	0x7d
 13641 12dd C000     		.sleb128 64
 13642 12df 00000000 		.4byte	0
 13643 12e3 00000000 		.4byte	0
 13644              	.LLST14:
 13645 12e7 00000000 		.4byte	.LVL35
 13646 12eb 1C000000 		.4byte	.LVL36
 13647 12ef 0100     		.2byte	0x1
 13648 12f1 50       		.byte	0x50
 13649 12f2 1C000000 		.4byte	.LVL36
 13650 12f6 1E000000 		.4byte	.LVL37
 13651 12fa 0100     		.2byte	0x1
 13652 12fc 57       		.byte	0x57
 13653 12fd 1E000000 		.4byte	.LVL37
 13654 1301 2A000000 		.4byte	.LVL38
 13655 1305 0400     		.2byte	0x4
 13656 1307 F3       		.byte	0xf3
 13657 1308 01       		.uleb128 0x1
 13658 1309 50       		.byte	0x50
 13659 130a 9F       		.byte	0x9f
 13660 130b 2A000000 		.4byte	.LVL38
 13661 130f 46000000 		.4byte	.LVL40
 13662 1313 0100     		.2byte	0x1
 13663 1315 50       		.byte	0x50
 13664 1316 46000000 		.4byte	.LVL40
 13665 131a 5C010000 		.4byte	.LFE49
 13666 131e 0100     		.2byte	0x1
 13667 1320 57       		.byte	0x57
 13668 1321 00000000 		.4byte	0
 13669 1325 00000000 		.4byte	0
 13670              	.LLST15:
 13671 1329 42000000 		.4byte	.LVL39
 13672 132d FA000000 		.4byte	.LVL50
 13673 1331 0100     		.2byte	0x1
 13674 1333 56       		.byte	0x56
 13675 1334 FA000000 		.4byte	.LVL50
ARM GAS  C:\Users\EBANO_~1\AppData\Local\Temp\ccazSBuk.s 			page 267


 13676 1338 FE000000 		.4byte	.LVL52
 13677 133c 0300     		.2byte	0x3
 13678 133e 76       		.byte	0x76
 13679 133f 03       		.sleb128 3
 13680 1340 9F       		.byte	0x9f
 13681 1341 08010000 		.4byte	.LVL54
 13682 1345 30010000 		.4byte	.LVL58
 13683 1349 0100     		.2byte	0x1
 13684 134b 56       		.byte	0x56
 13685 134c 30010000 		.4byte	.LVL58
 13686 1350 32010000 		.4byte	.LVL59
 13687 1354 0300     		.2byte	0x3
 13688 1356 76       		.byte	0x76
 13689 1357 03       		.sleb128 3
 13690 1358 9F       		.byte	0x9f
 13691 1359 38010000 		.4byte	.LVL60
 13692 135d 3E010000 		.4byte	.LVL61
 13693 1361 0100     		.2byte	0x1
 13694 1363 56       		.byte	0x56
 13695 1364 3E010000 		.4byte	.LVL61
 13696 1368 40010000 		.4byte	.LVL62
 13697 136c 0300     		.2byte	0x3
 13698 136e 76       		.byte	0x76
 13699 136f 03       		.sleb128 3
 13700 1370 9F       		.byte	0x9f
 13701 1371 00000000 		.4byte	0
 13702 1375 00000000 		.4byte	0
 13703              	.LLST16:
 13704 1379 42000000 		.4byte	.LVL39
 13705 137d 50000000 		.4byte	.LVL41
 13706 1381 0100     		.2byte	0x1
 13707 1383 53       		.byte	0x53
 13708 1384 50000000 		.4byte	.LVL41
 13709 1388 7A000000 		.4byte	.LVL44
 13710 138c 0100     		.2byte	0x1
 13711 138e 58       		.byte	0x58
 13712 138f FA000000 		.4byte	.LVL50
 13713 1393 FC000000 		.4byte	.LVL51
 13714 1397 0300     		.2byte	0x3
 13715 1399 75       		.byte	0x75
 13716 139a 01       		.sleb128 1
 13717 139b 9F       		.byte	0x9f
 13718 139c 08010000 		.4byte	.LVL54
 13719 13a0 0C010000 		.4byte	.LVL55
 13720 13a4 0100     		.2byte	0x1
 13721 13a6 53       		.byte	0x53
 13722 13a7 00000000 		.4byte	0
 13723 13ab 00000000 		.4byte	0
 13724              	.LLST17:
 13725 13af 14010000 		.4byte	.LVL56
 13726 13b3 38010000 		.4byte	.LVL60
 13727 13b7 0600     		.2byte	0x6
 13728 13b9 F2       		.byte	0xf2
 13729 13ba 6E2C0000 		.4byte	.Ldebug_info0+11374
 13730 13be 00       		.sleb128 0
 13731 13bf 00000000 		.4byte	0
 13732 13c3 00000000 		.4byte	0
ARM GAS  C:\Users\EBANO_~1\AppData\Local\Temp\ccazSBuk.s 			page 268


 13733              	.LLST18:
 13734 13c7 14010000 		.4byte	.LVL56
 13735 13cb 38010000 		.4byte	.LVL60
 13736 13cf 0100     		.2byte	0x1
 13737 13d1 58       		.byte	0x58
 13738 13d2 00000000 		.4byte	0
 13739 13d6 00000000 		.4byte	0
 13740              	.LLST19:
 13741 13da 6A000000 		.4byte	.LVL42
 13742 13de 04010000 		.4byte	.LVL53
 13743 13e2 0600     		.2byte	0x6
 13744 13e4 F2       		.byte	0xf2
 13745 13e5 622C0000 		.4byte	.Ldebug_info0+11362
 13746 13e9 00       		.sleb128 0
 13747 13ea 38010000 		.4byte	.LVL60
 13748 13ee 5C010000 		.4byte	.LFE49
 13749 13f2 0600     		.2byte	0x6
 13750 13f4 F2       		.byte	0xf2
 13751 13f5 622C0000 		.4byte	.Ldebug_info0+11362
 13752 13f9 00       		.sleb128 0
 13753 13fa 00000000 		.4byte	0
 13754 13fe 00000000 		.4byte	0
 13755              	.LLST20:
 13756 1402 6A000000 		.4byte	.LVL42
 13757 1406 7A000000 		.4byte	.LVL44
 13758 140a 0200     		.2byte	0x2
 13759 140c 30       		.byte	0x30
 13760 140d 9F       		.byte	0x9f
 13761 140e 7A000000 		.4byte	.LVL44
 13762 1412 9A000000 		.4byte	.LVL46
 13763 1416 0700     		.2byte	0x7
 13764 1418 78       		.byte	0x78
 13765 1419 00       		.sleb128 0
 13766 141a 48       		.byte	0x48
 13767 141b 24       		.byte	0x24
 13768 141c 30       		.byte	0x30
 13769 141d 29       		.byte	0x29
 13770 141e 9F       		.byte	0x9f
 13771 141f 9A000000 		.4byte	.LVL46
 13772 1423 04010000 		.4byte	.LVL53
 13773 1427 0100     		.2byte	0x1
 13774 1429 5A       		.byte	0x5a
 13775 142a 38010000 		.4byte	.LVL60
 13776 142e 5C010000 		.4byte	.LFE49
 13777 1432 0200     		.2byte	0x2
 13778 1434 31       		.byte	0x31
 13779 1435 9F       		.byte	0x9f
 13780 1436 00000000 		.4byte	0
 13781 143a 00000000 		.4byte	0
 13782              	.LLST21:
 13783 143e 6A000000 		.4byte	.LVL42
 13784 1442 04010000 		.4byte	.LVL53
 13785 1446 0200     		.2byte	0x2
 13786 1448 30       		.byte	0x30
 13787 1449 9F       		.byte	0x9f
 13788 144a 38010000 		.4byte	.LVL60
 13789 144e 5C010000 		.4byte	.LFE49
ARM GAS  C:\Users\EBANO_~1\AppData\Local\Temp\ccazSBuk.s 			page 269


 13790 1452 0200     		.2byte	0x2
 13791 1454 30       		.byte	0x30
 13792 1455 9F       		.byte	0x9f
 13793 1456 00000000 		.4byte	0
 13794 145a 00000000 		.4byte	0
 13795              	.LLST22:
 13796 145e 6A000000 		.4byte	.LVL42
 13797 1462 7A000000 		.4byte	.LVL44
 13798 1466 0100     		.2byte	0x1
 13799 1468 58       		.byte	0x58
 13800 1469 00000000 		.4byte	0
 13801 146d 00000000 		.4byte	0
 13802              	.LLST23:
 13803 1471 B4000000 		.4byte	.LVL47
 13804 1475 B7000000 		.4byte	.LVL48-1
 13805 1479 0200     		.2byte	0x2
 13806 147b 74       		.byte	0x74
 13807 147c 00       		.sleb128 0
 13808 147d 38010000 		.4byte	.LVL60
 13809 1481 3D010000 		.4byte	.LVL61-1
 13810 1485 0200     		.2byte	0x2
 13811 1487 74       		.byte	0x74
 13812 1488 00       		.sleb128 0
 13813 1489 00000000 		.4byte	0
 13814 148d 00000000 		.4byte	0
 13815              	.LLST10:
 13816 1491 00000000 		.4byte	.LFB48
 13817 1495 06000000 		.4byte	.LCFI5
 13818 1499 0200     		.2byte	0x2
 13819 149b 7D       		.byte	0x7d
 13820 149c 00       		.sleb128 0
 13821 149d 06000000 		.4byte	.LCFI5
 13822 14a1 48000000 		.4byte	.LFE48
 13823 14a5 0200     		.2byte	0x2
 13824 14a7 7D       		.byte	0x7d
 13825 14a8 08       		.sleb128 8
 13826 14a9 00000000 		.4byte	0
 13827 14ad 00000000 		.4byte	0
 13828              	.LLST11:
 13829 14b1 00000000 		.4byte	.LVL24
 13830 14b5 14000000 		.4byte	.LVL26
 13831 14b9 0100     		.2byte	0x1
 13832 14bb 50       		.byte	0x50
 13833 14bc 14000000 		.4byte	.LVL26
 13834 14c0 26000000 		.4byte	.LVL28
 13835 14c4 0400     		.2byte	0x4
 13836 14c6 F3       		.byte	0xf3
 13837 14c7 01       		.uleb128 0x1
 13838 14c8 50       		.byte	0x50
 13839 14c9 9F       		.byte	0x9f
 13840 14ca 26000000 		.4byte	.LVL28
 13841 14ce 28000000 		.4byte	.LVL29
 13842 14d2 0100     		.2byte	0x1
 13843 14d4 50       		.byte	0x50
 13844 14d5 28000000 		.4byte	.LVL29
 13845 14d9 2A000000 		.4byte	.LVL30
 13846 14dd 0400     		.2byte	0x4
ARM GAS  C:\Users\EBANO_~1\AppData\Local\Temp\ccazSBuk.s 			page 270


 13847 14df F3       		.byte	0xf3
 13848 14e0 01       		.uleb128 0x1
 13849 14e1 50       		.byte	0x50
 13850 14e2 9F       		.byte	0x9f
 13851 14e3 2A000000 		.4byte	.LVL30
 13852 14e7 2C000000 		.4byte	.LVL31
 13853 14eb 0100     		.2byte	0x1
 13854 14ed 50       		.byte	0x50
 13855 14ee 2C000000 		.4byte	.LVL31
 13856 14f2 3E000000 		.4byte	.LVL33
 13857 14f6 0400     		.2byte	0x4
 13858 14f8 F3       		.byte	0xf3
 13859 14f9 01       		.uleb128 0x1
 13860 14fa 50       		.byte	0x50
 13861 14fb 9F       		.byte	0x9f
 13862 14fc 3E000000 		.4byte	.LVL33
 13863 1500 40000000 		.4byte	.LVL34
 13864 1504 0100     		.2byte	0x1
 13865 1506 50       		.byte	0x50
 13866 1507 40000000 		.4byte	.LVL34
 13867 150b 48000000 		.4byte	.LFE48
 13868 150f 0400     		.2byte	0x4
 13869 1511 F3       		.byte	0xf3
 13870 1512 01       		.uleb128 0x1
 13871 1513 50       		.byte	0x50
 13872 1514 9F       		.byte	0x9f
 13873 1515 00000000 		.4byte	0
 13874 1519 00000000 		.4byte	0
 13875              	.LLST12:
 13876 151d 00000000 		.4byte	.LVL24
 13877 1521 02000000 		.4byte	.LVL25
 13878 1525 0100     		.2byte	0x1
 13879 1527 51       		.byte	0x51
 13880 1528 02000000 		.4byte	.LVL25
 13881 152c 48000000 		.4byte	.LFE48
 13882 1530 0400     		.2byte	0x4
 13883 1532 F3       		.byte	0xf3
 13884 1533 01       		.uleb128 0x1
 13885 1534 51       		.byte	0x51
 13886 1535 9F       		.byte	0x9f
 13887 1536 00000000 		.4byte	0
 13888 153a 00000000 		.4byte	0
 13889              	.LLST9:
 13890 153e 00000000 		.4byte	.LVL22
 13891 1542 06000000 		.4byte	.LVL23
 13892 1546 0100     		.2byte	0x1
 13893 1548 50       		.byte	0x50
 13894 1549 06000000 		.4byte	.LVL23
 13895 154d 0C000000 		.4byte	.LFE47
 13896 1551 0400     		.2byte	0x4
 13897 1553 F3       		.byte	0xf3
 13898 1554 01       		.uleb128 0x1
 13899 1555 50       		.byte	0x50
 13900 1556 9F       		.byte	0x9f
 13901 1557 00000000 		.4byte	0
 13902 155b 00000000 		.4byte	0
 13903              	.LLST7:
ARM GAS  C:\Users\EBANO_~1\AppData\Local\Temp\ccazSBuk.s 			page 271


 13904 155f 00000000 		.4byte	.LFB46
 13905 1563 02000000 		.4byte	.LCFI3
 13906 1567 0200     		.2byte	0x2
 13907 1569 7D       		.byte	0x7d
 13908 156a 00       		.sleb128 0
 13909 156b 02000000 		.4byte	.LCFI3
 13910 156f 04000000 		.4byte	.LCFI4
 13911 1573 0200     		.2byte	0x2
 13912 1575 7D       		.byte	0x7d
 13913 1576 10       		.sleb128 16
 13914 1577 04000000 		.4byte	.LCFI4
 13915 157b 80000000 		.4byte	.LFE46
 13916 157f 0200     		.2byte	0x2
 13917 1581 7D       		.byte	0x7d
 13918 1582 20       		.sleb128 32
 13919 1583 00000000 		.4byte	0
 13920 1587 00000000 		.4byte	0
 13921              	.LLST8:
 13922 158b 00000000 		.4byte	.LVL13
 13923 158f 2C000000 		.4byte	.LVL14
 13924 1593 0100     		.2byte	0x1
 13925 1595 50       		.byte	0x50
 13926 1596 2C000000 		.4byte	.LVL14
 13927 159a 34000000 		.4byte	.LVL16
 13928 159e 0400     		.2byte	0x4
 13929 15a0 F3       		.byte	0xf3
 13930 15a1 01       		.uleb128 0x1
 13931 15a2 50       		.byte	0x50
 13932 15a3 9F       		.byte	0x9f
 13933 15a4 34000000 		.4byte	.LVL16
 13934 15a8 3A000000 		.4byte	.LVL17
 13935 15ac 0100     		.2byte	0x1
 13936 15ae 50       		.byte	0x50
 13937 15af 3A000000 		.4byte	.LVL17
 13938 15b3 68000000 		.4byte	.LVL20
 13939 15b7 0400     		.2byte	0x4
 13940 15b9 F3       		.byte	0xf3
 13941 15ba 01       		.uleb128 0x1
 13942 15bb 50       		.byte	0x50
 13943 15bc 9F       		.byte	0x9f
 13944 15bd 68000000 		.4byte	.LVL20
 13945 15c1 6C000000 		.4byte	.LVL21
 13946 15c5 0100     		.2byte	0x1
 13947 15c7 50       		.byte	0x50
 13948 15c8 6C000000 		.4byte	.LVL21
 13949 15cc 80000000 		.4byte	.LFE46
 13950 15d0 0400     		.2byte	0x4
 13951 15d2 F3       		.byte	0xf3
 13952 15d3 01       		.uleb128 0x1
 13953 15d4 50       		.byte	0x50
 13954 15d5 9F       		.byte	0x9f
 13955 15d6 00000000 		.4byte	0
 13956 15da 00000000 		.4byte	0
 13957              	.LLST5:
 13958 15de 00000000 		.4byte	.LFB45
 13959 15e2 04000000 		.4byte	.LCFI2
 13960 15e6 0200     		.2byte	0x2
ARM GAS  C:\Users\EBANO_~1\AppData\Local\Temp\ccazSBuk.s 			page 272


 13961 15e8 7D       		.byte	0x7d
 13962 15e9 00       		.sleb128 0
 13963 15ea 04000000 		.4byte	.LCFI2
 13964 15ee 24000000 		.4byte	.LFE45
 13965 15f2 0200     		.2byte	0x2
 13966 15f4 7D       		.byte	0x7d
 13967 15f5 08       		.sleb128 8
 13968 15f6 00000000 		.4byte	0
 13969 15fa 00000000 		.4byte	0
 13970              	.LLST6:
 13971 15fe 00000000 		.4byte	.LVL10
 13972 1602 1A000000 		.4byte	.LVL11
 13973 1606 0100     		.2byte	0x1
 13974 1608 50       		.byte	0x50
 13975 1609 1A000000 		.4byte	.LVL11
 13976 160d 24000000 		.4byte	.LFE45
 13977 1611 0400     		.2byte	0x4
 13978 1613 F3       		.byte	0xf3
 13979 1614 01       		.uleb128 0x1
 13980 1615 50       		.byte	0x50
 13981 1616 9F       		.byte	0x9f
 13982 1617 00000000 		.4byte	0
 13983 161b 00000000 		.4byte	0
 13984              	.LLST0:
 13985 161f 00000000 		.4byte	.LFB44
 13986 1623 04000000 		.4byte	.LCFI0
 13987 1627 0200     		.2byte	0x2
 13988 1629 7D       		.byte	0x7d
 13989 162a 00       		.sleb128 0
 13990 162b 04000000 		.4byte	.LCFI0
 13991 162f 06000000 		.4byte	.LCFI1
 13992 1633 0200     		.2byte	0x2
 13993 1635 7D       		.byte	0x7d
 13994 1636 04       		.sleb128 4
 13995 1637 06000000 		.4byte	.LCFI1
 13996 163b 04010000 		.4byte	.LFE44
 13997 163f 0200     		.2byte	0x2
 13998 1641 7D       		.byte	0x7d
 13999 1642 10       		.sleb128 16
 14000 1643 00000000 		.4byte	0
 14001 1647 00000000 		.4byte	0
 14002              	.LLST1:
 14003 164b 00000000 		.4byte	.LVL0
 14004 164f 1E000000 		.4byte	.LVL1
 14005 1653 0100     		.2byte	0x1
 14006 1655 50       		.byte	0x50
 14007 1656 1E000000 		.4byte	.LVL1
 14008 165a 24000000 		.4byte	.LVL2
 14009 165e 0400     		.2byte	0x4
 14010 1660 F3       		.byte	0xf3
 14011 1661 01       		.uleb128 0x1
 14012 1662 50       		.byte	0x50
 14013 1663 9F       		.byte	0x9f
 14014 1664 24000000 		.4byte	.LVL2
 14015 1668 3C000000 		.4byte	.LVL3
 14016 166c 0100     		.2byte	0x1
 14017 166e 50       		.byte	0x50
ARM GAS  C:\Users\EBANO_~1\AppData\Local\Temp\ccazSBuk.s 			page 273


 14018 166f 3C000000 		.4byte	.LVL3
 14019 1673 4E000000 		.4byte	.LVL5
 14020 1677 0400     		.2byte	0x4
 14021 1679 F3       		.byte	0xf3
 14022 167a 01       		.uleb128 0x1
 14023 167b 50       		.byte	0x50
 14024 167c 9F       		.byte	0x9f
 14025 167d 4E000000 		.4byte	.LVL5
 14026 1681 04010000 		.4byte	.LFE44
 14027 1685 0100     		.2byte	0x1
 14028 1687 50       		.byte	0x50
 14029 1688 00000000 		.4byte	0
 14030 168c 00000000 		.4byte	0
 14031              	.LLST2:
 14032 1690 A8000000 		.4byte	.LVL6
 14033 1694 B2000000 		.4byte	.LVL9
 14034 1698 0200     		.2byte	0x2
 14035 169a 30       		.byte	0x30
 14036 169b 9F       		.byte	0x9f
 14037 169c 00000000 		.4byte	0
 14038 16a0 00000000 		.4byte	0
 14039              	.LLST3:
 14040 16a4 A8000000 		.4byte	.LVL6
 14041 16a8 B0000000 		.4byte	.LVL8
 14042 16ac 0100     		.2byte	0x1
 14043 16ae 53       		.byte	0x53
 14044 16af B0000000 		.4byte	.LVL8
 14045 16b3 B2000000 		.4byte	.LVL9
 14046 16b7 0300     		.2byte	0x3
 14047 16b9 73       		.byte	0x73
 14048 16ba 01       		.sleb128 1
 14049 16bb 9F       		.byte	0x9f
 14050 16bc 00000000 		.4byte	0
 14051 16c0 00000000 		.4byte	0
 14052              	.LLST4:
 14053 16c4 A8000000 		.4byte	.LVL6
 14054 16c8 AE000000 		.4byte	.LVL7
 14055 16cc 0200     		.2byte	0x2
 14056 16ce 30       		.byte	0x30
 14057 16cf 9F       		.byte	0x9f
 14058 16d0 AE000000 		.4byte	.LVL7
 14059 16d4 B0000000 		.4byte	.LVL8
 14060 16d8 0300     		.2byte	0x3
 14061 16da 73       		.byte	0x73
 14062 16db 7F       		.sleb128 -1
 14063 16dc 9F       		.byte	0x9f
 14064 16dd B0000000 		.4byte	.LVL8
 14065 16e1 B2000000 		.4byte	.LVL9
 14066 16e5 0300     		.2byte	0x3
 14067 16e7 73       		.byte	0x73
 14068 16e8 00       		.sleb128 0
 14069 16e9 9F       		.byte	0x9f
 14070 16ea 00000000 		.4byte	0
 14071 16ee 00000000 		.4byte	0
 14072              	.LLST99:
 14073 16f2 00000000 		.4byte	.LFB62
 14074 16f6 02000000 		.4byte	.LCFI34
ARM GAS  C:\Users\EBANO_~1\AppData\Local\Temp\ccazSBuk.s 			page 274


 14075 16fa 0200     		.2byte	0x2
 14076 16fc 7D       		.byte	0x7d
 14077 16fd 00       		.sleb128 0
 14078 16fe 02000000 		.4byte	.LCFI34
 14079 1702 06000000 		.4byte	.LCFI35
 14080 1706 0200     		.2byte	0x2
 14081 1708 7D       		.byte	0x7d
 14082 1709 14       		.sleb128 20
 14083 170a 06000000 		.4byte	.LCFI35
 14084 170e D8000000 		.4byte	.LFE62
 14085 1712 0200     		.2byte	0x2
 14086 1714 7D       		.byte	0x7d
 14087 1715 20       		.sleb128 32
 14088 1716 00000000 		.4byte	0
 14089 171a 00000000 		.4byte	0
 14090              	.LLST100:
 14091 171e 00000000 		.4byte	.LVL286
 14092 1722 0E000000 		.4byte	.LVL288
 14093 1726 0100     		.2byte	0x1
 14094 1728 50       		.byte	0x50
 14095 1729 0E000000 		.4byte	.LVL288
 14096 172d 68000000 		.4byte	.LVL297
 14097 1731 0100     		.2byte	0x1
 14098 1733 54       		.byte	0x54
 14099 1734 68000000 		.4byte	.LVL297
 14100 1738 6C000000 		.4byte	.LVL299
 14101 173c 0400     		.2byte	0x4
 14102 173e F3       		.byte	0xf3
 14103 173f 01       		.uleb128 0x1
 14104 1740 50       		.byte	0x50
 14105 1741 9F       		.byte	0x9f
 14106 1742 6C000000 		.4byte	.LVL299
 14107 1746 A4000000 		.4byte	.LVL306
 14108 174a 0100     		.2byte	0x1
 14109 174c 54       		.byte	0x54
 14110 174d A4000000 		.4byte	.LVL306
 14111 1751 D8000000 		.4byte	.LFE62
 14112 1755 0400     		.2byte	0x4
 14113 1757 F3       		.byte	0xf3
 14114 1758 01       		.uleb128 0x1
 14115 1759 50       		.byte	0x50
 14116 175a 9F       		.byte	0x9f
 14117 175b 00000000 		.4byte	0
 14118 175f 00000000 		.4byte	0
 14119              	.LLST101:
 14120 1763 00000000 		.4byte	.LVL286
 14121 1767 24000000 		.4byte	.LVL290
 14122 176b 0200     		.2byte	0x2
 14123 176d 30       		.byte	0x30
 14124 176e 9F       		.byte	0x9f
 14125 176f 24000000 		.4byte	.LVL290
 14126 1773 3E000000 		.4byte	.LVL292
 14127 1777 0700     		.2byte	0x7
 14128 1779 76       		.byte	0x76
 14129 177a 00       		.sleb128 0
 14130 177b 48       		.byte	0x48
 14131 177c 24       		.byte	0x24
ARM GAS  C:\Users\EBANO_~1\AppData\Local\Temp\ccazSBuk.s 			page 275


 14132 177d 30       		.byte	0x30
 14133 177e 29       		.byte	0x29
 14134 177f 9F       		.byte	0x9f
 14135 1780 40000000 		.4byte	.LVL293
 14136 1784 68000000 		.4byte	.LVL297
 14137 1788 0100     		.2byte	0x1
 14138 178a 57       		.byte	0x57
 14139 178b 6C000000 		.4byte	.LVL299
 14140 178f 80000000 		.4byte	.LVL301
 14141 1793 0200     		.2byte	0x2
 14142 1795 31       		.byte	0x31
 14143 1796 9F       		.byte	0x9f
 14144 1797 84000000 		.4byte	.LVL302
 14145 179b 98000000 		.4byte	.LVL304
 14146 179f 0100     		.2byte	0x1
 14147 17a1 57       		.byte	0x57
 14148 17a2 9C000000 		.4byte	.LVL305
 14149 17a6 D8000000 		.4byte	.LFE62
 14150 17aa 0100     		.2byte	0x1
 14151 17ac 57       		.byte	0x57
 14152 17ad 00000000 		.4byte	0
 14153 17b1 00000000 		.4byte	0
 14154              	.LLST102:
 14155 17b5 00000000 		.4byte	.LVL286
 14156 17b9 62000000 		.4byte	.LVL296
 14157 17bd 0200     		.2byte	0x2
 14158 17bf 30       		.byte	0x30
 14159 17c0 9F       		.byte	0x9f
 14160 17c1 62000000 		.4byte	.LVL296
 14161 17c5 68000000 		.4byte	.LVL297
 14162 17c9 0200     		.2byte	0x2
 14163 17cb 31       		.byte	0x31
 14164 17cc 9F       		.byte	0x9f
 14165 17cd 6C000000 		.4byte	.LVL299
 14166 17d1 80000000 		.4byte	.LVL301
 14167 17d5 0200     		.2byte	0x2
 14168 17d7 30       		.byte	0x30
 14169 17d8 9F       		.byte	0x9f
 14170 17d9 84000000 		.4byte	.LVL302
 14171 17dd 90000000 		.4byte	.LVL303
 14172 17e1 0200     		.2byte	0x2
 14173 17e3 30       		.byte	0x30
 14174 17e4 9F       		.byte	0x9f
 14175 17e5 90000000 		.4byte	.LVL303
 14176 17e9 98000000 		.4byte	.LVL304
 14177 17ed 0200     		.2byte	0x2
 14178 17ef 31       		.byte	0x31
 14179 17f0 9F       		.byte	0x9f
 14180 17f1 98000000 		.4byte	.LVL304
 14181 17f5 D8000000 		.4byte	.LFE62
 14182 17f9 0200     		.2byte	0x2
 14183 17fb 30       		.byte	0x30
 14184 17fc 9F       		.byte	0x9f
 14185 17fd 00000000 		.4byte	0
 14186 1801 00000000 		.4byte	0
 14187              	.LLST103:
 14188 1805 04000000 		.4byte	.LVL287
ARM GAS  C:\Users\EBANO_~1\AppData\Local\Temp\ccazSBuk.s 			page 276


 14189 1809 6A000000 		.4byte	.LVL298
 14190 180d 0100     		.2byte	0x1
 14191 180f 55       		.byte	0x55
 14192 1810 6C000000 		.4byte	.LVL299
 14193 1814 D8000000 		.4byte	.LFE62
 14194 1818 0100     		.2byte	0x1
 14195 181a 55       		.byte	0x55
 14196 181b 00000000 		.4byte	0
 14197 181f 00000000 		.4byte	0
 14198              	.LLST104:
 14199 1823 5A000000 		.4byte	.LVL294
 14200 1827 5D000000 		.4byte	.LVL295-1
 14201 182b 0300     		.2byte	0x3
 14202 182d 74       		.byte	0x74
 14203 182e 00       		.sleb128 0
 14204 182f 06       		.byte	0x6
 14205 1830 6C000000 		.4byte	.LVL299
 14206 1834 6F000000 		.4byte	.LVL300-1
 14207 1838 0300     		.2byte	0x3
 14208 183a 74       		.byte	0x74
 14209 183b 00       		.sleb128 0
 14210 183c 06       		.byte	0x6
 14211 183d 00000000 		.4byte	0
 14212 1841 00000000 		.4byte	0
 14213              	.LLST105:
 14214 1845 00000000 		.4byte	.LFB63
 14215 1849 02000000 		.4byte	.LCFI36
 14216 184d 0200     		.2byte	0x2
 14217 184f 7D       		.byte	0x7d
 14218 1850 00       		.sleb128 0
 14219 1851 02000000 		.4byte	.LCFI36
 14220 1855 30000000 		.4byte	.LFE63
 14221 1859 0200     		.2byte	0x2
 14222 185b 7D       		.byte	0x7d
 14223 185c 10       		.sleb128 16
 14224 185d 00000000 		.4byte	0
 14225 1861 00000000 		.4byte	0
 14226              	.LLST106:
 14227 1865 00000000 		.4byte	.LVL308
 14228 1869 06000000 		.4byte	.LVL310
 14229 186d 0100     		.2byte	0x1
 14230 186f 50       		.byte	0x50
 14231 1870 06000000 		.4byte	.LVL310
 14232 1874 30000000 		.4byte	.LFE63
 14233 1878 0400     		.2byte	0x4
 14234 187a F3       		.byte	0xf3
 14235 187b 01       		.uleb128 0x1
 14236 187c 50       		.byte	0x50
 14237 187d 9F       		.byte	0x9f
 14238 187e 00000000 		.4byte	0
 14239 1882 00000000 		.4byte	0
 14240              	.LLST107:
 14241 1886 04000000 		.4byte	.LVL309
 14242 188a 28000000 		.4byte	.LVL313
 14243 188e 0100     		.2byte	0x1
 14244 1890 54       		.byte	0x54
 14245 1891 00000000 		.4byte	0
ARM GAS  C:\Users\EBANO_~1\AppData\Local\Temp\ccazSBuk.s 			page 277


 14246 1895 00000000 		.4byte	0
 14247              		.section	.debug_aranges,"",%progbits
 14248 0000 CC000000 		.4byte	0xcc
 14249 0004 0200     		.2byte	0x2
 14250 0006 00000000 		.4byte	.Ldebug_info0
 14251 000a 04       		.byte	0x4
 14252 000b 00       		.byte	0
 14253 000c 0000     		.2byte	0
 14254 000e 0000     		.2byte	0
 14255 0010 00000000 		.4byte	.LFB44
 14256 0014 04010000 		.4byte	.LFE44-.LFB44
 14257 0018 00000000 		.4byte	.LFB45
 14258 001c 24000000 		.4byte	.LFE45-.LFB45
 14259 0020 00000000 		.4byte	.LFB46
 14260 0024 80000000 		.4byte	.LFE46-.LFB46
 14261 0028 00000000 		.4byte	.LFB47
 14262 002c 0C000000 		.4byte	.LFE47-.LFB47
 14263 0030 00000000 		.4byte	.LFB48
 14264 0034 48000000 		.4byte	.LFE48-.LFB48
 14265 0038 00000000 		.4byte	.LFB49
 14266 003c 5C010000 		.4byte	.LFE49-.LFB49
 14267 0040 00000000 		.4byte	.LFB50
 14268 0044 34000000 		.4byte	.LFE50-.LFB50
 14269 0048 00000000 		.4byte	.LFB51
 14270 004c 94000000 		.4byte	.LFE51-.LFB51
 14271 0050 00000000 		.4byte	.LFB52
 14272 0054 0C010000 		.4byte	.LFE52-.LFB52
 14273 0058 00000000 		.4byte	.LFB53
 14274 005c 3C010000 		.4byte	.LFE53-.LFB53
 14275 0060 00000000 		.4byte	.LFB54
 14276 0064 20020000 		.4byte	.LFE54-.LFB54
 14277 0068 00000000 		.4byte	.LFB55
 14278 006c 64000000 		.4byte	.LFE55-.LFB55
 14279 0070 00000000 		.4byte	.LFB56
 14280 0074 04010000 		.4byte	.LFE56-.LFB56
 14281 0078 00000000 		.4byte	.LFB57
 14282 007c 06000000 		.4byte	.LFE57-.LFB57
 14283 0080 00000000 		.4byte	.LFB58
 14284 0084 70000000 		.4byte	.LFE58-.LFB58
 14285 0088 00000000 		.4byte	.LFB59
 14286 008c 02000000 		.4byte	.LFE59-.LFB59
 14287 0090 00000000 		.4byte	.LFB60
 14288 0094 34000000 		.4byte	.LFE60-.LFB60
 14289 0098 00000000 		.4byte	.LFB61
 14290 009c A4010000 		.4byte	.LFE61-.LFB61
 14291 00a0 00000000 		.4byte	.LFB62
 14292 00a4 D8000000 		.4byte	.LFE62-.LFB62
 14293 00a8 00000000 		.4byte	.LFB63
 14294 00ac 30000000 		.4byte	.LFE63-.LFB63
 14295 00b0 00000000 		.4byte	.LFB64
 14296 00b4 50000000 		.4byte	.LFE64-.LFB64
 14297 00b8 00000000 		.4byte	.LFB65
 14298 00bc 0E000000 		.4byte	.LFE65-.LFB65
 14299 00c0 00000000 		.4byte	.LFB66
 14300 00c4 38000000 		.4byte	.LFE66-.LFB66
 14301 00c8 00000000 		.4byte	0
 14302 00cc 00000000 		.4byte	0
ARM GAS  C:\Users\EBANO_~1\AppData\Local\Temp\ccazSBuk.s 			page 278


 14303              		.section	.debug_ranges,"",%progbits
 14304              	.Ldebug_ranges0:
 14305 0000 34000000 		.4byte	.LBB31
 14306 0004 36000000 		.4byte	.LBE31
 14307 0008 38000000 		.4byte	.LBB48
 14308 000c 5C010000 		.4byte	.LBE48
 14309 0010 00000000 		.4byte	0
 14310 0014 00000000 		.4byte	0
 14311 0018 34000000 		.4byte	.LBB32
 14312 001c 36000000 		.4byte	.LBE32
 14313 0020 38000000 		.4byte	.LBB36
 14314 0024 42000000 		.4byte	.LBE36
 14315 0028 14010000 		.4byte	.LBB46
 14316 002c 32010000 		.4byte	.LBE46
 14317 0030 00000000 		.4byte	0
 14318 0034 00000000 		.4byte	0
 14319 0038 6A000000 		.4byte	.LBB37
 14320 003c FE000000 		.4byte	.LBE37
 14321 0040 38010000 		.4byte	.LBB47
 14322 0044 40010000 		.4byte	.LBE47
 14323 0048 00000000 		.4byte	0
 14324 004c 00000000 		.4byte	0
 14325 0050 A2000000 		.4byte	.LBB39
 14326 0054 A6000000 		.4byte	.LBE39
 14327 0058 B4000000 		.4byte	.LBB43
 14328 005c C6000000 		.4byte	.LBE43
 14329 0060 38010000 		.4byte	.LBB44
 14330 0064 40010000 		.4byte	.LBE44
 14331 0068 00000000 		.4byte	0
 14332 006c 00000000 		.4byte	0
 14333 0070 18000000 		.4byte	.LBB49
 14334 0074 1C000000 		.4byte	.LBE49
 14335 0078 1E000000 		.4byte	.LBB53
 14336 007c 32000000 		.4byte	.LBE53
 14337 0080 70000000 		.4byte	.LBB54
 14338 0084 72000000 		.4byte	.LBE54
 14339 0088 00000000 		.4byte	0
 14340 008c 00000000 		.4byte	0
 14341 0090 28000000 		.4byte	.LBB55
 14342 0094 2A000000 		.4byte	.LBE55
 14343 0098 2C000000 		.4byte	.LBB61
 14344 009c 30000000 		.4byte	.LBE61
 14345 00a0 34000000 		.4byte	.LBB62
 14346 00a4 36000000 		.4byte	.LBE62
 14347 00a8 3C000000 		.4byte	.LBB63
 14348 00ac 4A000000 		.4byte	.LBE63
 14349 00b0 4C000000 		.4byte	.LBB68
 14350 00b4 4E000000 		.4byte	.LBE68
 14351 00b8 00000000 		.4byte	0
 14352 00bc 00000000 		.4byte	0
 14353 00c0 4A000000 		.4byte	.LBB64
 14354 00c4 4C000000 		.4byte	.LBE64
 14355 00c8 4E000000 		.4byte	.LBB69
 14356 00cc 64000000 		.4byte	.LBE69
 14357 00d0 E4000000 		.4byte	.LBB70
 14358 00d4 EA000000 		.4byte	.LBE70
 14359 00d8 00000000 		.4byte	0
ARM GAS  C:\Users\EBANO_~1\AppData\Local\Temp\ccazSBuk.s 			page 279


 14360 00dc 00000000 		.4byte	0
 14361 00e0 50000000 		.4byte	.LBB76
 14362 00e4 54000000 		.4byte	.LBE76
 14363 00e8 58000000 		.4byte	.LBB77
 14364 00ec C6000000 		.4byte	.LBE77
 14365 00f0 44010000 		.4byte	.LBB78
 14366 00f4 48010000 		.4byte	.LBE78
 14367 00f8 56010000 		.4byte	.LBB79
 14368 00fc DA010000 		.4byte	.LBE79
 14369 0100 F0010000 		.4byte	.LBB80
 14370 0104 20020000 		.4byte	.LBE80
 14371 0108 00000000 		.4byte	0
 14372 010c 00000000 		.4byte	0
 14373 0110 02000000 		.4byte	.LBB81
 14374 0114 04000000 		.4byte	.LBE81
 14375 0118 06000000 		.4byte	.LBB86
 14376 011c 08000000 		.4byte	.LBE86
 14377 0120 0C000000 		.4byte	.LBB87
 14378 0124 24000000 		.4byte	.LBE87
 14379 0128 52000000 		.4byte	.LBB88
 14380 012c 54000000 		.4byte	.LBE88
 14381 0130 00000000 		.4byte	0
 14382 0134 00000000 		.4byte	0
 14383 0138 46000000 		.4byte	.LBB97
 14384 013c 9C000000 		.4byte	.LBE97
 14385 0140 A0000000 		.4byte	.LBB108
 14386 0144 B8000000 		.4byte	.LBE108
 14387 0148 BC000000 		.4byte	.LBB109
 14388 014c EA000000 		.4byte	.LBE109
 14389 0150 EC000000 		.4byte	.LBB110
 14390 0154 F2000000 		.4byte	.LBE110
 14391 0158 00000000 		.4byte	0
 14392 015c 00000000 		.4byte	0
 14393 0160 76000000 		.4byte	.LBB99
 14394 0164 7A000000 		.4byte	.LBE99
 14395 0168 88000000 		.4byte	.LBB103
 14396 016c 9C000000 		.4byte	.LBE103
 14397 0170 A0000000 		.4byte	.LBB104
 14398 0174 B4000000 		.4byte	.LBE104
 14399 0178 00000000 		.4byte	0
 14400 017c 00000000 		.4byte	0
 14401 0180 02000000 		.4byte	.LBB111
 14402 0184 04000000 		.4byte	.LBE111
 14403 0188 06000000 		.4byte	.LBB115
 14404 018c 08000000 		.4byte	.LBE115
 14405 0190 0C000000 		.4byte	.LBB116
 14406 0194 2E000000 		.4byte	.LBE116
 14407 0198 00000000 		.4byte	0
 14408 019c 00000000 		.4byte	0
 14409 01a0 6C000000 		.4byte	.LBB121
 14410 01a4 DC000000 		.4byte	.LBE121
 14411 01a8 1E010000 		.4byte	.LBB128
 14412 01ac 84010000 		.4byte	.LBE128
 14413 01b0 00000000 		.4byte	0
 14414 01b4 00000000 		.4byte	0
 14415 01b8 70000000 		.4byte	.LBB123
 14416 01bc DC000000 		.4byte	.LBE123
ARM GAS  C:\Users\EBANO_~1\AppData\Local\Temp\ccazSBuk.s 			page 280


 14417 01c0 24010000 		.4byte	.LBB126
 14418 01c4 84010000 		.4byte	.LBE126
 14419 01c8 00000000 		.4byte	0
 14420 01cc 00000000 		.4byte	0
 14421 01d0 54000000 		.4byte	.LBB129
 14422 01d4 56000000 		.4byte	.LBE129
 14423 01d8 5A000000 		.4byte	.LBB134
 14424 01dc 62000000 		.4byte	.LBE134
 14425 01e0 6C000000 		.4byte	.LBB135
 14426 01e4 80000000 		.4byte	.LBE135
 14427 01e8 84000000 		.4byte	.LBB136
 14428 01ec 90000000 		.4byte	.LBE136
 14429 01f0 00000000 		.4byte	0
 14430 01f4 00000000 		.4byte	0
 14431 01f8 14000000 		.4byte	.LBB137
 14432 01fc 16000000 		.4byte	.LBE137
 14433 0200 1C000000 		.4byte	.LBB141
 14434 0204 24000000 		.4byte	.LBE141
 14435 0208 2A000000 		.4byte	.LBB142
 14436 020c 30000000 		.4byte	.LBE142
 14437 0210 00000000 		.4byte	0
 14438 0214 00000000 		.4byte	0
 14439 0218 00000000 		.4byte	.LFB44
 14440 021c 04010000 		.4byte	.LFE44
 14441 0220 00000000 		.4byte	.LFB45
 14442 0224 24000000 		.4byte	.LFE45
 14443 0228 00000000 		.4byte	.LFB46
 14444 022c 80000000 		.4byte	.LFE46
 14445 0230 00000000 		.4byte	.LFB47
 14446 0234 0C000000 		.4byte	.LFE47
 14447 0238 00000000 		.4byte	.LFB48
 14448 023c 48000000 		.4byte	.LFE48
 14449 0240 00000000 		.4byte	.LFB49
 14450 0244 5C010000 		.4byte	.LFE49
 14451 0248 00000000 		.4byte	.LFB50
 14452 024c 34000000 		.4byte	.LFE50
 14453 0250 00000000 		.4byte	.LFB51
 14454 0254 94000000 		.4byte	.LFE51
 14455 0258 00000000 		.4byte	.LFB52
 14456 025c 0C010000 		.4byte	.LFE52
 14457 0260 00000000 		.4byte	.LFB53
 14458 0264 3C010000 		.4byte	.LFE53
 14459 0268 00000000 		.4byte	.LFB54
 14460 026c 20020000 		.4byte	.LFE54
 14461 0270 00000000 		.4byte	.LFB55
 14462 0274 64000000 		.4byte	.LFE55
 14463 0278 00000000 		.4byte	.LFB56
 14464 027c 04010000 		.4byte	.LFE56
 14465 0280 00000000 		.4byte	.LFB57
 14466 0284 06000000 		.4byte	.LFE57
 14467 0288 00000000 		.4byte	.LFB58
 14468 028c 70000000 		.4byte	.LFE58
 14469 0290 00000000 		.4byte	.LFB59
 14470 0294 02000000 		.4byte	.LFE59
 14471 0298 00000000 		.4byte	.LFB60
 14472 029c 34000000 		.4byte	.LFE60
 14473 02a0 00000000 		.4byte	.LFB61
ARM GAS  C:\Users\EBANO_~1\AppData\Local\Temp\ccazSBuk.s 			page 281


 14474 02a4 A4010000 		.4byte	.LFE61
 14475 02a8 00000000 		.4byte	.LFB62
 14476 02ac D8000000 		.4byte	.LFE62
 14477 02b0 00000000 		.4byte	.LFB63
 14478 02b4 30000000 		.4byte	.LFE63
 14479 02b8 00000000 		.4byte	.LFB64
 14480 02bc 50000000 		.4byte	.LFE64
 14481 02c0 00000000 		.4byte	.LFB65
 14482 02c4 0E000000 		.4byte	.LFE65
 14483 02c8 00000000 		.4byte	.LFB66
 14484 02cc 38000000 		.4byte	.LFE66
 14485 02d0 00000000 		.4byte	0
 14486 02d4 00000000 		.4byte	0
 14487              		.section	.debug_line,"",%progbits
 14488              	.Ldebug_line0:
 14489 0000 E8080000 		.section	.debug_str,"MS",%progbits,1
 14489      0200B303 
 14489      00000201 
 14489      FB0E0D00 
 14489      01010101 
 14490              	.LASF216:
 14491 0000 52585F53 		.ascii	"RX_SLOT_WIN_CLASS_C\000"
 14491      4C4F545F 
 14491      57494E5F 
 14491      434C4153 
 14491      535F4300 
 14492              	.LASF415:
 14493 0014 73526567 		.ascii	"sRegionCommonLinkAdrReqVerifyParams\000"
 14493      696F6E43 
 14493      6F6D6D6F 
 14493      6E4C696E 
 14493      6B416472 
 14494              	.LASF266:
 14495 0038 5048595F 		.ascii	"PHY_JOIN_ACCEPT_DELAY1\000"
 14495      4A4F494E 
 14495      5F414343 
 14495      4550545F 
 14495      44454C41 
 14496              	.LASF267:
 14497 004f 5048595F 		.ascii	"PHY_JOIN_ACCEPT_DELAY2\000"
 14497      4A4F494E 
 14497      5F414343 
 14497      4550545F 
 14497      44454C41 
 14498              	.LASF313:
 14499 0066 52667531 		.ascii	"Rfu1Size\000"
 14499      53697A65 
 14499      00
 14500              	.LASF141:
 14501 006f 52657669 		.ascii	"Revision\000"
 14501      73696F6E 
 14501      00
 14502              	.LASF427:
 14503 0078 44617461 		.ascii	"Datarates\000"
 14503      72617465 
 14503      7300
 14504              	.LASF1:
ARM GAS  C:\Users\EBANO_~1\AppData\Local\Temp\ccazSBuk.s 			page 282


 14505 0082 5F5F7569 		.ascii	"__uint8_t\000"
 14505      6E74385F 
 14505      7400
 14506              	.LASF311:
 14507 008c 73426561 		.ascii	"sBeaconFormat\000"
 14507      636F6E46 
 14507      6F726D61 
 14507      7400
 14508              	.LASF361:
 14509 009a 5278436F 		.ascii	"RxConfigParams_t\000"
 14509      6E666967 
 14509      50617261 
 14509      6D735F74 
 14509      00
 14510              	.LASF147:
 14511 00ab 5F426F6F 		.ascii	"_Bool\000"
 14511      6C00
 14512              	.LASF79:
 14513 00b1 5F6D6273 		.ascii	"_mbstate\000"
 14513      74617465 
 14513      00
 14514              	.LASF512:
 14515 00ba 6368616E 		.ascii	"chanMaskSet\000"
 14515      4D61736B 
 14515      53657400 
 14516              	.LASF58:
 14517 00c6 5F617465 		.ascii	"_atexit\000"
 14517      78697400 
 14518              	.LASF296:
 14519 00ce 5048595F 		.ascii	"PHY_BEACON_FORMAT\000"
 14519      42454143 
 14519      4F4E5F46 
 14519      4F524D41 
 14519      5400
 14520              	.LASF520:
 14521 00e0 52656769 		.ascii	"RegionRU864GetNvmCtx\000"
 14521      6F6E5255 
 14521      38363447 
 14521      65744E76 
 14521      6D437478 
 14522              	.LASF48:
 14523 00f5 5F5F746D 		.ascii	"__tm_mon\000"
 14523      5F6D6F6E 
 14523      00
 14524              	.LASF56:
 14525 00fe 5F666E74 		.ascii	"_fntypes\000"
 14525      79706573 
 14525      00
 14526              	.LASF86:
 14527 0107 5F696E63 		.ascii	"_inc\000"
 14527      00
 14528              	.LASF59:
 14529 010c 5F696E64 		.ascii	"_ind\000"
 14529      00
 14530              	.LASF195:
 14531 0111 57726974 		.ascii	"WriteBuffer\000"
 14531      65427566 
ARM GAS  C:\Users\EBANO_~1\AppData\Local\Temp\ccazSBuk.s 			page 283


 14531      66657200 
 14532              	.LASF170:
 14533 011d 52784572 		.ascii	"RxError\000"
 14533      726F7200 
 14534              	.LASF18:
 14535 0125 75696E74 		.ascii	"uint16_t\000"
 14535      31365F74 
 14535      00
 14536              	.LASF196:
 14537 012e 52656164 		.ascii	"ReadBuffer\000"
 14537      42756666 
 14537      657200
 14538              	.LASF430:
 14539 0139 52656769 		.ascii	"RegionCommonRxBeaconSetupParams_t\000"
 14539      6F6E436F 
 14539      6D6D6F6E 
 14539      52784265 
 14539      61636F6E 
 14540              	.LASF65:
 14541 015b 5F666C61 		.ascii	"_flags\000"
 14541      677300
 14542              	.LASF310:
 14543 0162 4368616E 		.ascii	"ChannelsMask_t\000"
 14543      6E656C73 
 14543      4D61736B 
 14543      5F7400
 14544              	.LASF96:
 14545 0171 5F637674 		.ascii	"_cvtlen\000"
 14545      6C656E00 
 14546              	.LASF230:
 14547 0179 4C4F5241 		.ascii	"LORAMAC_STATUS_NO_NETWORK_JOINED\000"
 14547      4D41435F 
 14547      53544154 
 14547      55535F4E 
 14547      4F5F4E45 
 14548              	.LASF100:
 14549 019a 5F736967 		.ascii	"_sig_func\000"
 14549      5F66756E 
 14549      6300
 14550              	.LASF370:
 14551 01a4 41647245 		.ascii	"AdrEnabled\000"
 14551      6E61626C 
 14551      656400
 14552              	.LASF283:
 14553 01af 5048595F 		.ascii	"PHY_BEACON_RESERVED\000"
 14553      42454143 
 14553      4F4E5F52 
 14553      45534552 
 14553      56454400 
 14554              	.LASF393:
 14555 01c3 54785469 		.ascii	"TxTimeOnAir\000"
 14555      6D654F6E 
 14555      41697200 
 14556              	.LASF78:
 14557 01cf 5F6C6F63 		.ascii	"_lock\000"
 14557      6B00
 14558              	.LASF74:
ARM GAS  C:\Users\EBANO_~1\AppData\Local\Temp\ccazSBuk.s 			page 284


 14559 01d5 5F6E6275 		.ascii	"_nbuf\000"
 14559      6600
 14560              	.LASF133:
 14561 01db 5F756E75 		.ascii	"_unused\000"
 14561      73656400 
 14562              	.LASF548:
 14563 01e3 72616E64 		.ascii	"randr\000"
 14563      7200
 14564              	.LASF397:
 14565 01e9 4C617374 		.ascii	"LastAggrTx\000"
 14565      41676772 
 14565      547800
 14566              	.LASF398:
 14567 01f4 4E657874 		.ascii	"NextChanParams_t\000"
 14567      4368616E 
 14567      50617261 
 14567      6D735F74 
 14567      00
 14568              	.LASF169:
 14569 0205 52785469 		.ascii	"RxTimeout\000"
 14569      6D656F75 
 14569      7400
 14570              	.LASF301:
 14571 020f 50687941 		.ascii	"PhyAttribute_t\000"
 14571      74747269 
 14571      62757465 
 14571      5F7400
 14572              	.LASF167:
 14573 021e 54785469 		.ascii	"TxTimeout\000"
 14573      6D656F75 
 14573      7400
 14574              	.LASF149:
 14575 0228 44437963 		.ascii	"DCycle\000"
 14575      6C6500
 14576              	.LASF355:
 14577 022f 44724F66 		.ascii	"DrOffset\000"
 14577      66736574 
 14577      00
 14578              	.LASF284:
 14579 0238 5048595F 		.ascii	"PHY_BEACON_GUARD\000"
 14579      42454143 
 14579      4F4E5F47 
 14579      55415244 
 14579      00
 14580              	.LASF343:
 14581 0249 44617461 		.ascii	"DatarateParams\000"
 14581      72617465 
 14581      50617261 
 14581      6D7300
 14582              	.LASF142:
 14583 0258 4D696E6F 		.ascii	"Minor\000"
 14583      7200
 14584              	.LASF420:
 14585 025e 4D696E54 		.ascii	"MinTxPower\000"
 14585      78506F77 
 14585      657200
 14586              	.LASF479:
ARM GAS  C:\Users\EBANO_~1\AppData\Local\Temp\ccazSBuk.s 			page 285


 14587 0269 6E657743 		.ascii	"newChannelReq\000"
 14587      68616E6E 
 14587      656C5265 
 14587      7100
 14588              	.LASF154:
 14589 0277 42616E64 		.ascii	"Band_t\000"
 14589      5F7400
 14590              	.LASF396:
 14591 027e 41676772 		.ascii	"AggrTimeOff\000"
 14591      54696D65 
 14591      4F666600 
 14592              	.LASF19:
 14593 028a 696E7433 		.ascii	"int32_t\000"
 14593      325F7400 
 14594              	.LASF111:
 14595 0292 5F616464 		.ascii	"_add\000"
 14595      00
 14596              	.LASF481:
 14597 0297 72785061 		.ascii	"rxParamSetupReq\000"
 14597      72616D53 
 14597      65747570 
 14597      52657100 
 14598              	.LASF161:
 14599 02a7 52465F49 		.ascii	"RF_IDLE\000"
 14599      444C4500 
 14600              	.LASF522:
 14601 02af 52656769 		.ascii	"RegionRU864InitDefaults\000"
 14601      6F6E5255 
 14601      38363449 
 14601      6E697444 
 14601      65666175 
 14602              	.LASF150:
 14603 02c7 54784D61 		.ascii	"TxMaxPower\000"
 14603      78506F77 
 14603      657200
 14604              	.LASF240:
 14605 02d2 4C4F5241 		.ascii	"LORAMAC_STATUS_CRYPTO_ERROR\000"
 14605      4D41435F 
 14605      53544154 
 14605      55535F43 
 14605      52595054 
 14606              	.LASF379:
 14607 02ee 4368616E 		.ascii	"ChannelId\000"
 14607      6E656C49 
 14607      6400
 14608              	.LASF375:
 14609 02f8 73527850 		.ascii	"sRxParamSetupReqParams\000"
 14609      6172616D 
 14609      53657475 
 14609      70526571 
 14609      50617261 
 14610              	.LASF518:
 14611 030f 76657269 		.ascii	"verify\000"
 14611      667900
 14612              	.LASF564:
 14613 0316 5F5F6275 		.ascii	"__builtin_memset\000"
 14613      696C7469 
ARM GAS  C:\Users\EBANO_~1\AppData\Local\Temp\ccazSBuk.s 			page 286


 14613      6E5F6D65 
 14613      6D736574 
 14613      00
 14614              	.LASF67:
 14615 0327 5F6C6266 		.ascii	"_lbfsize\000"
 14615      73697A65 
 14615      00
 14616              	.LASF258:
 14617 0330 5048595F 		.ascii	"PHY_DEF_ADR_ACK_LIMIT\000"
 14617      4445465F 
 14617      4144525F 
 14617      41434B5F 
 14617      4C494D49 
 14618              	.LASF174:
 14619 0346 52616469 		.ascii	"Radio_s\000"
 14619      6F5F7300 
 14620              	.LASF551:
 14621 034e 6D656D63 		.ascii	"memcpy1\000"
 14621      70793100 
 14622              	.LASF376:
 14623 0356 52785061 		.ascii	"RxParamSetupReqParams_t\000"
 14623      72616D53 
 14623      65747570 
 14623      52657150 
 14623      6172616D 
 14624              	.LASF516:
 14625 036e 6368616E 		.ascii	"chanIdx\000"
 14625      49647800 
 14626              	.LASF77:
 14627 0376 5F646174 		.ascii	"_data\000"
 14627      6100
 14628              	.LASF536:
 14629 037c 7478506F 		.ascii	"txPowerResult\000"
 14629      77657252 
 14629      6573756C 
 14629      7400
 14630              	.LASF426:
 14631 038a 73526567 		.ascii	"sRegionCommonRxBeaconSetupParams\000"
 14631      696F6E43 
 14631      6F6D6D6F 
 14631      6E527842 
 14631      6561636F 
 14632              	.LASF312:
 14633 03ab 42656163 		.ascii	"BeaconSize\000"
 14633      6F6E5369 
 14633      7A6500
 14634              	.LASF197:
 14635 03b6 5365744D 		.ascii	"SetMaxPayloadLength\000"
 14635      61785061 
 14635      796C6F61 
 14635      644C656E 
 14635      67746800 
 14636              	.LASF363:
 14637 03ca 4D617845 		.ascii	"MaxEirp\000"
 14637      69727000 
 14638              	.LASF533:
 14639 03d2 66726571 		.ascii	"freq\000"
ARM GAS  C:\Users\EBANO_~1\AppData\Local\Temp\ccazSBuk.s 			page 287


 14639      00
 14640              	.LASF156:
 14641 03d7 5F646179 		.ascii	"_daylight\000"
 14641      6C696768 
 14641      7400
 14642              	.LASF446:
 14643 03e1 52656769 		.ascii	"RegionRU864SetContinuousWave\000"
 14643      6F6E5255 
 14643      38363453 
 14643      6574436F 
 14643      6E74696E 
 14644              	.LASF418:
 14645 03fe 4D696E44 		.ascii	"MinDatarate\000"
 14645      61746172 
 14645      61746500 
 14646              	.LASF222:
 14647 040a 654C6F52 		.ascii	"eLoRaMacStatus\000"
 14647      614D6163 
 14647      53746174 
 14647      757300
 14648              	.LASF493:
 14649 0419 70687950 		.ascii	"phyParam\000"
 14649      6172616D 
 14649      00
 14650              	.LASF134:
 14651 0422 5F5F6C6F 		.ascii	"__lock\000"
 14651      636B00
 14652              	.LASF513:
 14653 0429 52656769 		.ascii	"RegionRU864ApplyCFList\000"
 14653      6F6E5255 
 14653      38363441 
 14653      70706C79 
 14653      43464C69 
 14654              	.LASF81:
 14655 0440 5F726565 		.ascii	"_reent\000"
 14655      6E7400
 14656              	.LASF234:
 14657 0447 4C4F5241 		.ascii	"LORAMAC_STATUS_DUTYCYCLE_RESTRICTED\000"
 14657      4D41435F 
 14657      53544154 
 14657      55535F44 
 14657      55545943 
 14658              	.LASF327:
 14659 046b 47657450 		.ascii	"GetPhyParams_t\000"
 14659      68795061 
 14659      72616D73 
 14659      5F7400
 14660              	.LASF189:
 14661 047a 5374616E 		.ascii	"Standby\000"
 14661      64627900 
 14662              	.LASF500:
 14663 0482 70687944 		.ascii	"phyDr\000"
 14663      7200
 14664              	.LASF411:
 14665 0488 4E625265 		.ascii	"NbRep\000"
 14665      7000
 14666              	.LASF102:
ARM GAS  C:\Users\EBANO_~1\AppData\Local\Temp\ccazSBuk.s 			page 288


 14667 048e 5F5F7366 		.ascii	"__sf\000"
 14667      00
 14668              	.LASF62:
 14669 0493 5F626173 		.ascii	"_base\000"
 14669      6500
 14670              	.LASF193:
 14671 0499 57726974 		.ascii	"Write\000"
 14671      6500
 14672              	.LASF120:
 14673 049f 5F6D6274 		.ascii	"_mbtowc_state\000"
 14673      6F77635F 
 14673      73746174 
 14673      6500
 14674              	.LASF306:
 14675 04ad 496E6974 		.ascii	"InitType_t\000"
 14675      54797065 
 14675      5F7400
 14676              	.LASF444:
 14677 04b8 64617461 		.ascii	"datarate\000"
 14677      72617465 
 14677      00
 14678              	.LASF421:
 14679 04c1 4D617854 		.ascii	"MaxTxPower\000"
 14679      78506F77 
 14679      657200
 14680              	.LASF152:
 14681 04cc 4C617374 		.ascii	"LastTxDoneTime\000"
 14681      5478446F 
 14681      6E655469 
 14681      6D6500
 14682              	.LASF194:
 14683 04db 52656164 		.ascii	"Read\000"
 14683      00
 14684              	.LASF43:
 14685 04e0 5F5F746D 		.ascii	"__tm\000"
 14685      00
 14686              	.LASF552:
 14687 04e5 52656769 		.ascii	"RegionCommonParseLinkAdrReq\000"
 14687      6F6E436F 
 14687      6D6D6F6E 
 14687      50617273 
 14687      654C696E 
 14688              	.LASF51:
 14689 0501 5F5F746D 		.ascii	"__tm_yday\000"
 14689      5F796461 
 14689      7900
 14690              	.LASF525:
 14691 050b 7478446F 		.ascii	"txDone\000"
 14691      6E6500
 14692              	.LASF254:
 14693 0512 5048595F 		.ascii	"PHY_RX_DR\000"
 14693      52585F44 
 14693      5200
 14694              	.LASF472:
 14695 051c 74797065 		.ascii	"type\000"
 14695      00
 14696              	.LASF399:
ARM GAS  C:\Users\EBANO_~1\AppData\Local\Temp\ccazSBuk.s 			page 289


 14697 0521 73436861 		.ascii	"sChannelAddParams\000"
 14697      6E6E656C 
 14697      41646450 
 14697      6172616D 
 14697      7300
 14698              	.LASF27:
 14699 0533 5F4C4F43 		.ascii	"_LOCK_T\000"
 14699      4B5F5400 
 14700              	.LASF211:
 14701 053b 44725261 		.ascii	"DrRange\000"
 14701      6E676500 
 14702              	.LASF292:
 14703 0543 5048595F 		.ascii	"PHY_PING_SLOT_SYMBOL_TO_EXPANSION_FACTOR\000"
 14703      50494E47 
 14703      5F534C4F 
 14703      545F5359 
 14703      4D424F4C 
 14704              	.LASF526:
 14705 056c 52656769 		.ascii	"RegionRU864GetPhyParam\000"
 14705      6F6E5255 
 14705      38363447 
 14705      65745068 
 14705      79506172 
 14706              	.LASF201:
 14707 0583 5278426F 		.ascii	"RxBoosted\000"
 14707      6F737465 
 14707      6400
 14708              	.LASF4:
 14709 058d 5F5F696E 		.ascii	"__int16_t\000"
 14709      7431365F 
 14709      7400
 14710              	.LASF514:
 14711 0597 6170706C 		.ascii	"applyCFList\000"
 14711      7943464C 
 14711      69737400 
 14712              	.LASF6:
 14713 05a3 5F5F7569 		.ascii	"__uint16_t\000"
 14713      6E743136 
 14713      5F7400
 14714              	.LASF270:
 14715 05ae 5048595F 		.ascii	"PHY_DEF_DR1_OFFSET\000"
 14715      4445465F 
 14715      4452315F 
 14715      4F464653 
 14715      455400
 14716              	.LASF112:
 14717 05c1 5F756E75 		.ascii	"_unused_rand\000"
 14717      7365645F 
 14717      72616E64 
 14717      00
 14718              	.LASF339:
 14719 05ce 73446174 		.ascii	"sDatarateParams\000"
 14719      61726174 
 14719      65506172 
 14719      616D7300 
 14720              	.LASF274:
 14721 05de 5048595F 		.ascii	"PHY_CHANNELS_DEFAULT_MASK\000"
ARM GAS  C:\Users\EBANO_~1\AppData\Local\Temp\ccazSBuk.s 			page 290


 14721      4348414E 
 14721      4E454C53 
 14721      5F444546 
 14721      41554C54 
 14722              	.LASF447:
 14723 05f8 636F6E74 		.ascii	"continuousWave\000"
 14723      696E756F 
 14723      75735761 
 14723      766500
 14724              	.LASF448:
 14725 0607 70687954 		.ascii	"phyTxPower\000"
 14725      78506F77 
 14725      657200
 14726              	.LASF406:
 14727 0612 73527842 		.ascii	"sRxBeaconSetupParams\000"
 14727      6561636F 
 14727      6E536574 
 14727      75705061 
 14727      72616D73 
 14728              	.LASF457:
 14729 0627 52656769 		.ascii	"RegionRU864ApplyDrOffset\000"
 14729      6F6E5255 
 14729      38363441 
 14729      70706C79 
 14729      44724F66 
 14730              	.LASF357:
 14731 0640 57696E64 		.ascii	"WindowOffset\000"
 14731      6F774F66 
 14731      66736574 
 14731      00
 14732              	.LASF285:
 14733 064d 5048595F 		.ascii	"PHY_BEACON_WINDOW\000"
 14733      42454143 
 14733      4F4E5F57 
 14733      494E444F 
 14733      5700
 14734              	.LASF93:
 14735 065f 5F726573 		.ascii	"_result_k\000"
 14735      756C745F 
 14735      6B00
 14736              	.LASF85:
 14737 0669 5F737464 		.ascii	"_stderr\000"
 14737      65727200 
 14738              	.LASF92:
 14739 0671 5F726573 		.ascii	"_result\000"
 14739      756C7400 
 14740              	.LASF428:
 14741 0679 42656163 		.ascii	"BeaconDatarate\000"
 14741      6F6E4461 
 14741      74617261 
 14741      746500
 14742              	.LASF55:
 14743 0688 5F64736F 		.ascii	"_dso_handle\000"
 14743      5F68616E 
 14743      646C6500 
 14744              	.LASF389:
 14745 0694 7343616C 		.ascii	"sCalcBackOffParams\000"
ARM GAS  C:\Users\EBANO_~1\AppData\Local\Temp\ccazSBuk.s 			page 291


 14745      63426163 
 14745      6B4F6666 
 14745      50617261 
 14745      6D7300
 14746              	.LASF50:
 14747 06a7 5F5F746D 		.ascii	"__tm_wday\000"
 14747      5F776461 
 14747      7900
 14748              	.LASF52:
 14749 06b1 5F5F746D 		.ascii	"__tm_isdst\000"
 14749      5F697364 
 14749      737400
 14750              	.LASF464:
 14751 06bc 64656C61 		.ascii	"delayTx\000"
 14751      79547800 
 14752              	.LASF558:
 14753 06c4 52656769 		.ascii	"RegionCommonChanMaskCopy\000"
 14753      6F6E436F 
 14753      6D6D6F6E 
 14753      4368616E 
 14753      4D61736B 
 14754              	.LASF231:
 14755 06dd 4C4F5241 		.ascii	"LORAMAC_STATUS_LENGTH_ERROR\000"
 14755      4D41435F 
 14755      53544154 
 14755      55535F4C 
 14755      454E4754 
 14756              	.LASF153:
 14757 06f9 54696D65 		.ascii	"TimeOff\000"
 14757      4F666600 
 14758              	.LASF3:
 14759 0701 756E7369 		.ascii	"unsigned char\000"
 14759      676E6564 
 14759      20636861 
 14759      7200
 14760              	.LASF84:
 14761 070f 5F737464 		.ascii	"_stdout\000"
 14761      6F757400 
 14762              	.LASF336:
 14763 0717 73476574 		.ascii	"sGetNvmCtxParams\000"
 14763      4E766D43 
 14763      74785061 
 14763      72616D73 
 14763      00
 14764              	.LASF127:
 14765 0728 5F6D6273 		.ascii	"_mbsrtowcs_state\000"
 14765      72746F77 
 14765      63735F73 
 14765      74617465 
 14765      00
 14766              	.LASF41:
 14767 0739 5F776473 		.ascii	"_wds\000"
 14767      00
 14768              	.LASF207:
 14769 073e 44725261 		.ascii	"DrRange_t\000"
 14769      6E67655F 
 14769      7400
ARM GAS  C:\Users\EBANO_~1\AppData\Local\Temp\ccazSBuk.s 			page 292


 14770              	.LASF220:
 14771 0748 666C6F61 		.ascii	"float\000"
 14771      7400
 14772              	.LASF562:
 14773 074e 443A5C67 		.ascii	"D:\\git_pessoal\\keil_gcc\\STM32CubeExpansion_LRWAN"
 14773      69745F70 
 14773      6573736F 
 14773      616C5C6B 
 14773      65696C5F 
 14774 077e 5F56312E 		.ascii	"_V1.2.1\\Projects\\B-L072Z-LRWAN1\\Applications\\Lo"
 14774      322E315C 
 14774      50726F6A 
 14774      65637473 
 14774      5C422D4C 
 14775 07ad 52615C45 		.ascii	"Ra\\End_Node\\MDK-ARM\000"
 14775      6E645F4E 
 14775      6F64655C 
 14775      4D444B2D 
 14775      41524D00 
 14776              	.LASF271:
 14777 07c1 5048595F 		.ascii	"PHY_DEF_RX2_FREQUENCY\000"
 14777      4445465F 
 14777      5258325F 
 14777      46524551 
 14777      55454E43 
 14778              	.LASF323:
 14779 07d7 41747472 		.ascii	"Attribute\000"
 14779      69627574 
 14779      6500
 14780              	.LASF247:
 14781 07e1 65506879 		.ascii	"ePhyAttribute\000"
 14781      41747472 
 14781      69627574 
 14781      6500
 14782              	.LASF63:
 14783 07ef 5F73697A 		.ascii	"_size\000"
 14783      6500
 14784              	.LASF517:
 14785 07f5 52656769 		.ascii	"RegionRU864Verify\000"
 14785      6F6E5255 
 14785      38363456 
 14785      65726966 
 14785      7900
 14786              	.LASF368:
 14787 0807 56657273 		.ascii	"Version\000"
 14787      696F6E00 
 14788              	.LASF70:
 14789 080f 5F777269 		.ascii	"_write\000"
 14789      746500
 14790              	.LASF385:
 14791 0816 65416C74 		.ascii	"eAlternateDrType\000"
 14791      65726E61 
 14791      74654472 
 14791      54797065 
 14791      00
 14792              	.LASF412:
 14793 0827 43684D61 		.ascii	"ChMaskCtrl\000"
ARM GAS  C:\Users\EBANO_~1\AppData\Local\Temp\ccazSBuk.s 			page 293


 14793      736B4374 
 14793      726C00
 14794              	.LASF478:
 14795 0832 52656769 		.ascii	"RegionRU864NewChannelReq\000"
 14795      6F6E5255 
 14795      3836344E 
 14795      65774368 
 14795      616E6E65 
 14796              	.LASF176:
 14797 084b 496F4465 		.ascii	"IoDeInit\000"
 14797      496E6974 
 14797      00
 14798              	.LASF179:
 14799 0854 5365744D 		.ascii	"SetModem\000"
 14799      6F64656D 
 14799      00
 14800              	.LASF360:
 14801 085d 5278536C 		.ascii	"RxSlot\000"
 14801      6F7400
 14802              	.LASF226:
 14803 0864 4C4F5241 		.ascii	"LORAMAC_STATUS_PARAMETER_INVALID\000"
 14803      4D41435F 
 14803      53544154 
 14803      55535F50 
 14803      4152414D 
 14804              	.LASF419:
 14805 0885 4D617844 		.ascii	"MaxDatarate\000"
 14805      61746172 
 14805      61746500 
 14806              	.LASF402:
 14807 0891 4368616E 		.ascii	"ChannelRemoveParams_t\000"
 14807      6E656C52 
 14807      656D6F76 
 14807      65506172 
 14807      616D735F 
 14808              	.LASF166:
 14809 08a7 5478446F 		.ascii	"TxDone\000"
 14809      6E6500
 14810              	.LASF531:
 14811 08ae 436F756E 		.ascii	"CountNbOfEnabledChannels\000"
 14811      744E624F 
 14811      66456E61 
 14811      626C6564 
 14811      4368616E 
 14812              	.LASF49:
 14813 08c7 5F5F746D 		.ascii	"__tm_year\000"
 14813      5F796561 
 14813      7200
 14814              	.LASF206:
 14815 08d1 75447252 		.ascii	"uDrRange\000"
 14815      616E6765 
 14815      00
 14816              	.LASF212:
 14817 08da 42616E64 		.ascii	"Band\000"
 14817      00
 14818              	.LASF367:
 14819 08df 734C696E 		.ascii	"sLinkAdrReqParams\000"
ARM GAS  C:\Users\EBANO_~1\AppData\Local\Temp\ccazSBuk.s 			page 294


 14819      6B416472 
 14819      52657150 
 14819      6172616D 
 14819      7300
 14820              	.LASF356:
 14821 08f1 57696E64 		.ascii	"WindowTimeout\000"
 14821      6F775469 
 14821      6D656F75 
 14821      7400
 14822              	.LASF203:
 14823 08ff 52616469 		.ascii	"Radio\000"
 14823      6F00
 14824              	.LASF560:
 14825 0905 474E5520 		.ascii	"GNU C11 7.3.1 20180622 (release) [ARM/embedded-7-br"
 14825      43313120 
 14825      372E332E 
 14825      31203230 
 14825      31383036 
 14826 0938 616E6368 		.ascii	"anch revision 261907] -mcpu=cortex-m0plus -mthumb -"
 14826      20726576 
 14826      6973696F 
 14826      6E203236 
 14826      31393037 
 14827 096b 6D666C6F 		.ascii	"mfloat-abi=soft -gdwarf-2 -O3 -ffunction-sections\000"
 14827      61742D61 
 14827      62693D73 
 14827      6F667420 
 14827      2D676477 
 14828              	.LASF110:
 14829 099d 5F6D756C 		.ascii	"_mult\000"
 14829      7400
 14830              	.LASF535:
 14831 09a3 6D617842 		.ascii	"maxBandTxPower\000"
 14831      616E6454 
 14831      78506F77 
 14831      657200
 14832              	.LASF489:
 14833 09b2 6E657874 		.ascii	"nextIndex\000"
 14833      496E6465 
 14833      7800
 14834              	.LASF190:
 14835 09bc 53746172 		.ascii	"StartCad\000"
 14835      74436164 
 14835      00
 14836              	.LASF377:
 14837 09c5 734E6577 		.ascii	"sNewChannelReqParams\000"
 14837      4368616E 
 14837      6E656C52 
 14837      65715061 
 14837      72616D73 
 14838              	.LASF125:
 14839 09da 5F6D6272 		.ascii	"_mbrlen_state\000"
 14839      6C656E5F 
 14839      73746174 
 14839      6500
 14840              	.LASF508:
 14841 09e8 7278436F 		.ascii	"rxConfigParams\000"
ARM GAS  C:\Users\EBANO_~1\AppData\Local\Temp\ccazSBuk.s 			page 295


 14841      6E666967 
 14841      50617261 
 14841      6D7300
 14842              	.LASF461:
 14843 09f7 74696D65 		.ascii	"time\000"
 14843      00
 14844              	.LASF545:
 14845 09fc 52656769 		.ascii	"RegionCommonCountChannels\000"
 14845      6F6E436F 
 14845      6D6D6F6E 
 14845      436F756E 
 14845      74436861 
 14846              	.LASF241:
 14847 0a16 4C4F5241 		.ascii	"LORAMAC_STATUS_FCNT_HANDLER_ERROR\000"
 14847      4D41435F 
 14847      53544154 
 14847      55535F46 
 14847      434E545F 
 14848              	.LASF458:
 14849 0a38 52656769 		.ascii	"RegionRU864NextChannel\000"
 14849      6F6E5255 
 14849      3836344E 
 14849      65787443 
 14849      68616E6E 
 14850              	.LASF491:
 14851 0a4f 63684D61 		.ascii	"chMask\000"
 14851      736B00
 14852              	.LASF380:
 14853 0a56 4E657743 		.ascii	"NewChannelReqParams_t\000"
 14853      68616E6E 
 14853      656C5265 
 14853      71506172 
 14853      616D735F 
 14854              	.LASF168:
 14855 0a6c 5278446F 		.ascii	"RxDone\000"
 14855      6E6500
 14856              	.LASF83:
 14857 0a73 5F737464 		.ascii	"_stdin\000"
 14857      696E00
 14858              	.LASF248:
 14859 0a7a 5048595F 		.ascii	"PHY_MIN_RX_DR\000"
 14859      4D494E5F 
 14859      52585F44 
 14859      5200
 14860              	.LASF132:
 14861 0a88 5F6E6D61 		.ascii	"_nmalloc\000"
 14861      6C6C6F63 
 14861      00
 14862              	.LASF337:
 14863 0a91 6E766D43 		.ascii	"nvmCtxSize\000"
 14863      74785369 
 14863      7A6500
 14864              	.LASF182:
 14865 0a9c 52616E64 		.ascii	"Random\000"
 14865      6F6D00
 14866              	.LASF404:
 14867 0aa3 54696D65 		.ascii	"Timeout\000"
ARM GAS  C:\Users\EBANO_~1\AppData\Local\Temp\ccazSBuk.s 			page 296


 14867      6F757400 
 14868              	.LASF334:
 14869 0aab 54797065 		.ascii	"Type\000"
 14869      00
 14870              	.LASF371:
 14871 0ab0 43757272 		.ascii	"CurrentDatarate\000"
 14871      656E7444 
 14871      61746172 
 14871      61746500 
 14872              	.LASF346:
 14873 0ac0 5061796C 		.ascii	"Payload\000"
 14873      6F616400 
 14874              	.LASF263:
 14875 0ac8 5048595F 		.ascii	"PHY_MAX_RX_WINDOW\000"
 14875      4D41585F 
 14875      52585F57 
 14875      494E444F 
 14875      5700
 14876              	.LASF467:
 14877 0ada 52656769 		.ascii	"RegionRU864CalcBackOff\000"
 14877      6F6E5255 
 14877      38363443 
 14877      616C6342 
 14877      61636B4F 
 14878              	.LASF28:
 14879 0af1 5F6F6666 		.ascii	"_off_t\000"
 14879      5F7400
 14880              	.LASF140:
 14881 0af8 56657273 		.ascii	"Version_s\000"
 14881      696F6E5F 
 14881      7300
 14882              	.LASF146:
 14883 0b02 56657273 		.ascii	"Version_t\000"
 14883      696F6E5F 
 14883      7400
 14884              	.LASF205:
 14885 0b0c 56657273 		.ascii	"Version_u\000"
 14885      696F6E5F 
 14885      7500
 14886              	.LASF538:
 14887 0b16 6472496E 		.ascii	"drIndex\000"
 14887      64657800 
 14888              	.LASF25:
 14889 0b1e 73697A65 		.ascii	"size_t\000"
 14889      5F7400
 14890              	.LASF115:
 14891 0b25 5F6C6F63 		.ascii	"_localtime_buf\000"
 14891      616C7469 
 14891      6D655F62 
 14891      756600
 14892              	.LASF33:
 14893 0b34 5F5F636F 		.ascii	"__count\000"
 14893      756E7400 
 14894              	.LASF16:
 14895 0b3c 75696E74 		.ascii	"uint8_t\000"
 14895      385F7400 
 14896              	.LASF290:
ARM GAS  C:\Users\EBANO_~1\AppData\Local\Temp\ccazSBuk.s 			page 297


 14897 0b44 5048595F 		.ascii	"PHY_PING_SLOT_SYMBOL_TO_EXPANSION_MAX\000"
 14897      50494E47 
 14897      5F534C4F 
 14897      545F5359 
 14897      4D424F4C 
 14898              	.LASF298:
 14899 0b6a 5048595F 		.ascii	"PHY_BEACON_CHANNEL_STEPWIDTH\000"
 14899      42454143 
 14899      4F4E5F43 
 14899      48414E4E 
 14899      454C5F53 
 14900              	.LASF148:
 14901 0b87 7342616E 		.ascii	"sBand\000"
 14901      6400
 14902              	.LASF249:
 14903 0b8d 5048595F 		.ascii	"PHY_MIN_TX_DR\000"
 14903      4D494E5F 
 14903      54585F44 
 14903      5200
 14904              	.LASF547:
 14905 0b9b 52656769 		.ascii	"RegionCommonUpdateBandTimeOff\000"
 14905      6F6E436F 
 14905      6D6D6F6E 
 14905      55706461 
 14905      74654261 
 14906              	.LASF288:
 14907 0bb9 5048595F 		.ascii	"PHY_BEACON_SYMBOL_TO_DEFAULT\000"
 14907      42454143 
 14907      4F4E5F53 
 14907      594D424F 
 14907      4C5F544F 
 14908              	.LASF221:
 14909 0bd6 654C6F52 		.ascii	"eLoRaMacRxSlot\000"
 14909      614D6163 
 14909      5278536C 
 14909      6F7400
 14910              	.LASF97:
 14911 0be5 5F637674 		.ascii	"_cvtbuf\000"
 14911      62756600 
 14912              	.LASF414:
 14913 0bed 52656769 		.ascii	"RegionCommonLinkAdrParams_t\000"
 14913      6F6E436F 
 14913      6D6D6F6E 
 14913      4C696E6B 
 14913      41647250 
 14914              	.LASF335:
 14915 0c09 496E6974 		.ascii	"InitDefaultsParams_t\000"
 14915      44656661 
 14915      756C7473 
 14915      50617261 
 14915      6D735F74 
 14916              	.LASF417:
 14917 0c1e 4E624368 		.ascii	"NbChannels\000"
 14917      616E6E65 
 14917      6C7300
 14918              	.LASF358:
 14919 0c29 52657065 		.ascii	"RepeaterSupport\000"
ARM GAS  C:\Users\EBANO_~1\AppData\Local\Temp\ccazSBuk.s 			page 298


 14919      61746572 
 14919      53757070 
 14919      6F727400 
 14920              	.LASF218:
 14921 0c39 52585F53 		.ascii	"RX_SLOT_WIN_MULTICAST_SLOT\000"
 14921      4C4F545F 
 14921      57494E5F 
 14921      4D554C54 
 14921      49434153 
 14922              	.LASF202:
 14923 0c54 53657452 		.ascii	"SetRxDutyCycle\000"
 14923      78447574 
 14923      79437963 
 14923      6C6500
 14924              	.LASF490:
 14925 0c63 62797465 		.ascii	"bytesProcessed\000"
 14925      7350726F 
 14925      63657373 
 14925      656400
 14926              	.LASF434:
 14927 0c72 4D617850 		.ascii	"MaxPayloadOfDatarateRU864\000"
 14927      61796C6F 
 14927      61644F66 
 14927      44617461 
 14927      72617465 
 14928              	.LASF32:
 14929 0c8c 5F5F7763 		.ascii	"__wchb\000"
 14929      686200
 14930              	.LASF126:
 14931 0c93 5F6D6272 		.ascii	"_mbrtowc_state\000"
 14931      746F7763 
 14931      5F737461 
 14931      746500
 14932              	.LASF46:
 14933 0ca2 5F5F746D 		.ascii	"__tm_hour\000"
 14933      5F686F75 
 14933      7200
 14934              	.LASF158:
 14935 0cac 4D4F4445 		.ascii	"MODEM_FSK\000"
 14935      4D5F4653 
 14935      4B00
 14936              	.LASF468:
 14937 0cb6 63616C63 		.ascii	"calcBackOff\000"
 14937      4261636B 
 14937      4F666600 
 14938              	.LASF348:
 14939 0cc2 4170706C 		.ascii	"ApplyCFListParams_t\000"
 14939      7943464C 
 14939      69737450 
 14939      6172616D 
 14939      735F7400 
 14940              	.LASF260:
 14941 0cd6 5048595F 		.ascii	"PHY_MAX_PAYLOAD\000"
 14941      4D41585F 
 14941      5041594C 
 14941      4F414400 
 14942              	.LASF30:
ARM GAS  C:\Users\EBANO_~1\AppData\Local\Temp\ccazSBuk.s 			page 299


 14943 0ce6 77696E74 		.ascii	"wint_t\000"
 14943      5F7400
 14944              	.LASF98:
 14945 0ced 5F6E6577 		.ascii	"_new\000"
 14945      00
 14946              	.LASF188:
 14947 0cf2 536C6565 		.ascii	"Sleep\000"
 14947      7000
 14948              	.LASF345:
 14949 0cf8 73417070 		.ascii	"sApplyCFListParams\000"
 14949      6C794346 
 14949      4C697374 
 14949      50617261 
 14949      6D7300
 14950              	.LASF106:
 14951 0d0b 5F6E696F 		.ascii	"_niobs\000"
 14951      627300
 14952              	.LASF322:
 14953 0d12 73476574 		.ascii	"sGetPhyParams\000"
 14953      50687950 
 14953      6172616D 
 14953      7300
 14954              	.LASF242:
 14955 0d20 4C4F5241 		.ascii	"LORAMAC_STATUS_MAC_COMMAD_ERROR\000"
 14955      4D41435F 
 14955      53544154 
 14955      55535F4D 
 14955      41435F43 
 14956              	.LASF160:
 14957 0d40 52616469 		.ascii	"RadioModems_t\000"
 14957      6F4D6F64 
 14957      656D735F 
 14957      7400
 14958              	.LASF319:
 14959 0d4e 4368616E 		.ascii	"Channels\000"
 14959      6E656C73 
 14959      00
 14960              	.LASF331:
 14961 0d57 53657442 		.ascii	"SetBandTxDoneParams_t\000"
 14961      616E6454 
 14961      78446F6E 
 14961      65506172 
 14961      616D735F 
 14962              	.LASF462:
 14963 0d6d 61676772 		.ascii	"aggregatedTimeOff\000"
 14963      65676174 
 14963      65645469 
 14963      6D654F66 
 14963      6600
 14964              	.LASF82:
 14965 0d7f 5F657272 		.ascii	"_errno\000"
 14965      6E6F00
 14966              	.LASF287:
 14967 0d86 5048595F 		.ascii	"PHY_PING_SLOT_WINDOW\000"
 14967      50494E47 
 14967      5F534C4F 
 14967      545F5749 
ARM GAS  C:\Users\EBANO_~1\AppData\Local\Temp\ccazSBuk.s 			page 300


 14967      4E444F57 
 14968              	.LASF413:
 14969 0d9b 43684D61 		.ascii	"ChMask\000"
 14969      736B00
 14970              	.LASF47:
 14971 0da2 5F5F746D 		.ascii	"__tm_mday\000"
 14971      5F6D6461 
 14971      7900
 14972              	.LASF54:
 14973 0dac 5F666E61 		.ascii	"_fnargs\000"
 14973      72677300 
 14974              	.LASF303:
 14975 0db4 494E4954 		.ascii	"INIT_TYPE_INIT\000"
 14975      5F545950 
 14975      455F494E 
 14975      495400
 14976              	.LASF255:
 14977 0dc3 5048595F 		.ascii	"PHY_MAX_TX_POWER\000"
 14977      4D41585F 
 14977      54585F50 
 14977      4F574552 
 14977      00
 14978              	.LASF440:
 14979 0dd4 6F757444 		.ascii	"outDr\000"
 14979      7200
 14980              	.LASF281:
 14981 0dda 5048595F 		.ascii	"PHY_NEXT_LOWER_TX_DR\000"
 14981      4E455854 
 14981      5F4C4F57 
 14981      45525F54 
 14981      585F4452 
 14982              	.LASF540:
 14983 0def 6D696E44 		.ascii	"minDr\000"
 14983      7200
 14984              	.LASF278:
 14985 0df5 5048595F 		.ascii	"PHY_DEF_DOWNLINK_DWELL_TIME\000"
 14985      4445465F 
 14985      444F574E 
 14985      4C494E4B 
 14985      5F445745 
 14986              	.LASF392:
 14987 0e11 456C6170 		.ascii	"ElapsedTime\000"
 14987      73656454 
 14987      696D6500 
 14988              	.LASF289:
 14989 0e1d 5048595F 		.ascii	"PHY_BEACON_SYMBOL_TO_EXPANSION_MAX\000"
 14989      42454143 
 14989      4F4E5F53 
 14989      594D424F 
 14989      4C5F544F 
 14990              	.LASF476:
 14991 0e40 52656769 		.ascii	"RegionRU864TxParamSetupReq\000"
 14991      6F6E5255 
 14991      38363454 
 14991      78506172 
 14991      616D5365 
 14992              	.LASF38:
ARM GAS  C:\Users\EBANO_~1\AppData\Local\Temp\ccazSBuk.s 			page 301


 14993 0e5b 5F6E6578 		.ascii	"_next\000"
 14993      7400
 14994              	.LASF171:
 14995 0e61 46687373 		.ascii	"FhssChangeChannel\000"
 14995      4368616E 
 14995      67654368 
 14995      616E6E65 
 14995      6C00
 14996              	.LASF487:
 14997 0e73 6E624279 		.ascii	"nbBytesParsed\000"
 14997      74657350 
 14997      61727365 
 14997      6400
 14998              	.LASF521:
 14999 0e81 70617261 		.ascii	"params\000"
 14999      6D7300
 15000              	.LASF123:
 15001 0e88 5F736967 		.ascii	"_signal_buf\000"
 15001      6E616C5F 
 15001      62756600 
 15002              	.LASF68:
 15003 0e94 5F636F6F 		.ascii	"_cookie\000"
 15003      6B696500 
 15004              	.LASF272:
 15005 0e9c 5048595F 		.ascii	"PHY_DEF_RX2_DR\000"
 15005      4445465F 
 15005      5258325F 
 15005      445200
 15006              	.LASF539:
 15007 0eab 4765744E 		.ascii	"GetNextLowerTxDr\000"
 15007      6578744C 
 15007      6F776572 
 15007      54784472 
 15007      00
 15008              	.LASF408:
 15009 0ebc 52785469 		.ascii	"RxTime\000"
 15009      6D6500
 15010              	.LASF264:
 15011 0ec3 5048595F 		.ascii	"PHY_RECEIVE_DELAY1\000"
 15011      52454345 
 15011      4956455F 
 15011      44454C41 
 15011      593100
 15012              	.LASF265:
 15013 0ed6 5048595F 		.ascii	"PHY_RECEIVE_DELAY2\000"
 15013      52454345 
 15013      4956455F 
 15013      44454C41 
 15013      593200
 15014              	.LASF157:
 15015 0ee9 5F747A6E 		.ascii	"_tzname\000"
 15015      616D6500 
 15016              	.LASF352:
 15017 0ef1 4368616E 		.ascii	"ChanMaskSetParams_t\000"
 15017      4D61736B 
 15017      53657450 
 15017      6172616D 
ARM GAS  C:\Users\EBANO_~1\AppData\Local\Temp\ccazSBuk.s 			page 302


 15017      735F7400 
 15018              	.LASF232:
 15019 0f05 4C4F5241 		.ascii	"LORAMAC_STATUS_REGION_NOT_SUPPORTED\000"
 15019      4D41435F 
 15019      53544154 
 15019      55535F52 
 15019      4547494F 
 15020              	.LASF219:
 15021 0f29 4C6F5261 		.ascii	"LoRaMacRxSlot_t\000"
 15021      4D616352 
 15021      78536C6F 
 15021      745F7400 
 15022              	.LASF162:
 15023 0f39 52465F52 		.ascii	"RF_RX_RUNNING\000"
 15023      585F5255 
 15023      4E4E494E 
 15023      4700
 15024              	.LASF245:
 15025 0f47 4C4F5241 		.ascii	"LORAMAC_STATUS_ERROR\000"
 15025      4D41435F 
 15025      53544154 
 15025      55535F45 
 15025      52524F52 
 15026              	.LASF387:
 15027 0f5c 414C5445 		.ascii	"ALTERNATE_DR_RESTORE\000"
 15027      524E4154 
 15027      455F4452 
 15027      5F524553 
 15027      544F5245 
 15028              	.LASF320:
 15029 0f71 42656163 		.ascii	"BeaconFormat\000"
 15029      6F6E466F 
 15029      726D6174 
 15029      00
 15030              	.LASF460:
 15031 0f7e 6368616E 		.ascii	"channel\000"
 15031      6E656C00 
 15032              	.LASF445:
 15033 0f86 52656769 		.ascii	"RegionRU864RxBeaconSetup\000"
 15033      6F6E5255 
 15033      38363452 
 15033      78426561 
 15033      636F6E53 
 15034              	.LASF365:
 15035 0f9f 506B744C 		.ascii	"PktLen\000"
 15035      656E00
 15036              	.LASF470:
 15037 0fa6 52656769 		.ascii	"RegionRU864AlternateDr\000"
 15037      6F6E5255 
 15037      38363441 
 15037      6C746572 
 15037      6E617465 
 15038              	.LASF178:
 15039 0fbd 47657453 		.ascii	"GetStatus\000"
 15039      74617475 
 15039      7300
 15040              	.LASF251:
ARM GAS  C:\Users\EBANO_~1\AppData\Local\Temp\ccazSBuk.s 			page 303


 15041 0fc7 5048595F 		.ascii	"PHY_MAX_TX_DR\000"
 15041      4D41585F 
 15041      54585F44 
 15041      5200
 15042              	.LASF314:
 15043 0fd5 52667532 		.ascii	"Rfu2Size\000"
 15043      53697A65 
 15043      00
 15044              	.LASF184:
 15045 0fde 53657454 		.ascii	"SetTxConfig\000"
 15045      78436F6E 
 15045      66696700 
 15046              	.LASF213:
 15047 0fea 4368616E 		.ascii	"ChannelParams_t\000"
 15047      6E656C50 
 15047      6172616D 
 15047      735F7400 
 15048              	.LASF224:
 15049 0ffa 4C4F5241 		.ascii	"LORAMAC_STATUS_BUSY\000"
 15049      4D41435F 
 15049      53544154 
 15049      55535F42 
 15049      55535900 
 15050              	.LASF347:
 15051 100e 53697A65 		.ascii	"Size\000"
 15051      00
 15052              	.LASF44:
 15053 1013 5F5F746D 		.ascii	"__tm_sec\000"
 15053      5F736563 
 15053      00
 15054              	.LASF473:
 15055 101c 52656769 		.ascii	"RegionRU864DlChannelReq\000"
 15055      6F6E5255 
 15055      38363444 
 15055      6C436861 
 15055      6E6E656C 
 15056              	.LASF53:
 15057 1034 5F6F6E5F 		.ascii	"_on_exit_args\000"
 15057      65786974 
 15057      5F617267 
 15057      7300
 15058              	.LASF237:
 15059 1042 4C4F5241 		.ascii	"LORAMAC_STATUS_BUSY_BEACON_RESERVED_TIME\000"
 15059      4D41435F 
 15059      53544154 
 15059      55535F42 
 15059      5553595F 
 15060              	.LASF486:
 15061 106b 6E625265 		.ascii	"nbRepOut\000"
 15061      704F7574 
 15061      00
 15062              	.LASF561:
 15063 1074 2E2E2F2E 		.ascii	"../../../../../../Middlewares/Third_Party/LoRaWAN/M"
 15063      2E2F2E2E 
 15063      2F2E2E2F 
 15063      2E2E2F2E 
 15063      2E2F4D69 
ARM GAS  C:\Users\EBANO_~1\AppData\Local\Temp\ccazSBuk.s 			page 304


 15064 10a7 61632F72 		.ascii	"ac/region/RegionRU864.c\000"
 15064      6567696F 
 15064      6E2F5265 
 15064      67696F6E 
 15064      52553836 
 15065              	.LASF259:
 15066 10bf 5048595F 		.ascii	"PHY_DEF_ADR_ACK_DELAY\000"
 15066      4445465F 
 15066      4144525F 
 15066      41434B5F 
 15066      44454C41 
 15067              	.LASF128:
 15068 10d5 5F776372 		.ascii	"_wcrtomb_state\000"
 15068      746F6D62 
 15068      5F737461 
 15068      746500
 15069              	.LASF362:
 15070 10e4 73547843 		.ascii	"sTxConfigParams\000"
 15070      6F6E6669 
 15070      67506172 
 15070      616D7300 
 15071              	.LASF165:
 15072 10f4 52616469 		.ascii	"RadioState_t\000"
 15072      6F537461 
 15072      74655F74 
 15072      00
 15073              	.LASF563:
 15074 1101 6D656D73 		.ascii	"memset\000"
 15074      657400
 15075              	.LASF438:
 15076 1108 52656769 		.ascii	"RegionRU864NvmCtx_t\000"
 15076      6F6E5255 
 15076      3836344E 
 15076      766D4374 
 15076      785F7400 
 15077              	.LASF553:
 15078 111c 52656769 		.ascii	"RegionCommonLinkAdrReqVerifyParams\000"
 15078      6F6E436F 
 15078      6D6D6F6E 
 15078      4C696E6B 
 15078      41647252 
 15079              	.LASF497:
 15080 113f 7478506F 		.ascii	"txPower\000"
 15080      77657200 
 15081              	.LASF451:
 15082 1147 52656769 		.ascii	"RegionRU864ChannelsRemove\000"
 15082      6F6E5255 
 15082      38363443 
 15082      68616E6E 
 15082      656C7352 
 15083              	.LASF483:
 15084 1161 6C696E6B 		.ascii	"linkAdrReq\000"
 15084      41647252 
 15084      657100
 15085              	.LASF436:
 15086 116c 73526567 		.ascii	"sRegionRU864NvmCtx\000"
 15086      696F6E52 
ARM GAS  C:\Users\EBANO_~1\AppData\Local\Temp\ccazSBuk.s 			page 305


 15086      55383634 
 15086      4E766D43 
 15086      747800
 15087              	.LASF330:
 15088 117f 4A6F696E 		.ascii	"Joined\000"
 15088      656400
 15089              	.LASF480:
 15090 1186 52656769 		.ascii	"RegionRU864RxParamSetupReq\000"
 15090      6F6E5255 
 15090      38363452 
 15090      78506172 
 15090      616D5365 
 15091              	.LASF15:
 15092 11a1 696E7438 		.ascii	"int8_t\000"
 15092      5F7400
 15093              	.LASF236:
 15094 11a8 4C4F5241 		.ascii	"LORAMAC_STATUS_NO_FREE_CHANNEL_FOUND\000"
 15094      4D41435F 
 15094      53544154 
 15094      55535F4E 
 15094      4F5F4652 
 15095              	.LASF37:
 15096 11cd 5F5F554C 		.ascii	"__ULong\000"
 15096      6F6E6700 
 15097              	.LASF297:
 15098 11d5 5048595F 		.ascii	"PHY_BEACON_CHANNEL_DR\000"
 15098      42454143 
 15098      4F4E5F43 
 15098      48414E4E 
 15098      454C5F44 
 15099              	.LASF353:
 15100 11eb 73527843 		.ascii	"sRxConfigParams\000"
 15100      6F6E6669 
 15100      67506172 
 15100      616D7300 
 15101              	.LASF144:
 15102 11fb 4669656C 		.ascii	"Fields\000"
 15102      647300
 15103              	.LASF286:
 15104 1202 5048595F 		.ascii	"PHY_BEACON_WINDOW_SLOTS\000"
 15104      42454143 
 15104      4F4E5F57 
 15104      494E444F 
 15104      575F534C 
 15105              	.LASF113:
 15106 121a 5F737472 		.ascii	"_strtok_last\000"
 15106      746F6B5F 
 15106      6C617374 
 15106      00
 15107              	.LASF185:
 15108 1227 43686563 		.ascii	"CheckRfFrequency\000"
 15108      6B526646 
 15108      72657175 
 15108      656E6379 
 15108      00
 15109              	.LASF474:
 15110 1238 646C4368 		.ascii	"dlChannelReq\000"
ARM GAS  C:\Users\EBANO_~1\AppData\Local\Temp\ccazSBuk.s 			page 306


 15110      616E6E65 
 15110      6C526571 
 15110      00
 15111              	.LASF109:
 15112 1245 5F736565 		.ascii	"_seed\000"
 15112      6400
 15113              	.LASF369:
 15114 124b 5061796C 		.ascii	"PayloadSize\000"
 15114      6F616453 
 15114      697A6500 
 15115              	.LASF71:
 15116 1257 5F736565 		.ascii	"_seek\000"
 15116      6B00
 15117              	.LASF210:
 15118 125d 52783146 		.ascii	"Rx1Frequency\000"
 15118      72657175 
 15118      656E6379 
 15118      00
 15119              	.LASF17:
 15120 126a 696E7431 		.ascii	"int16_t\000"
 15120      365F7400 
 15121              	.LASF299:
 15122 1272 5048595F 		.ascii	"PHY_BEACON_NB_CHANNELS\000"
 15122      42454143 
 15122      4F4E5F4E 
 15122      425F4348 
 15122      414E4E45 
 15123              	.LASF7:
 15124 1289 73686F72 		.ascii	"short unsigned int\000"
 15124      7420756E 
 15124      7369676E 
 15124      65642069 
 15124      6E7400
 15125              	.LASF2:
 15126 129c 7369676E 		.ascii	"signed char\000"
 15126      65642063 
 15126      68617200 
 15127              	.LASF381:
 15128 12a8 73547850 		.ascii	"sTxParamSetupReqParams\000"
 15128      6172616D 
 15128      53657475 
 15128      70526571 
 15128      50617261 
 15129              	.LASF338:
 15130 12bf 4765744E 		.ascii	"GetNvmCtxParams_t\000"
 15130      766D4374 
 15130      78506172 
 15130      616D735F 
 15130      7400
 15131              	.LASF475:
 15132 12d1 73746174 		.ascii	"status\000"
 15132      757300
 15133              	.LASF384:
 15134 12d8 446C4368 		.ascii	"DlChannelReqParams_t\000"
 15134      616E6E65 
 15134      6C526571 
 15134      50617261 
ARM GAS  C:\Users\EBANO_~1\AppData\Local\Temp\ccazSBuk.s 			page 307


 15134      6D735F74 
 15135              	.LASF534:
 15136 12ed 4C696D69 		.ascii	"LimitTxPower\000"
 15136      74547850 
 15136      6F776572 
 15136      00
 15137              	.LASF400:
 15138 12fa 4368616E 		.ascii	"ChannelAddParams_t\000"
 15138      6E656C41 
 15138      64645061 
 15138      72616D73 
 15138      5F7400
 15139              	.LASF175:
 15140 130d 496F496E 		.ascii	"IoInit\000"
 15140      697400
 15141              	.LASF95:
 15142 1314 5F667265 		.ascii	"_freelist\000"
 15142      656C6973 
 15142      7400
 15143              	.LASF429:
 15144 131e 42656163 		.ascii	"BeaconChannelBW\000"
 15144      6F6E4368 
 15144      616E6E65 
 15144      6C425700 
 15145              	.LASF76:
 15146 132e 5F6F6666 		.ascii	"_offset\000"
 15146      73657400 
 15147              	.LASF21:
 15148 1336 53797374 		.ascii	"SystemCoreClock\000"
 15148      656D436F 
 15148      7265436C 
 15148      6F636B00 
 15149              	.LASF326:
 15150 1346 446F776E 		.ascii	"DownlinkDwellTime\000"
 15150      6C696E6B 
 15150      4477656C 
 15150      6C54696D 
 15150      6500
 15151              	.LASF186:
 15152 1358 54696D65 		.ascii	"TimeOnAir\000"
 15152      4F6E4169 
 15152      7200
 15153              	.LASF61:
 15154 1362 5F5F7362 		.ascii	"__sbuf\000"
 15154      756600
 15155              	.LASF122:
 15156 1369 5F6C3634 		.ascii	"_l64a_buf\000"
 15156      615F6275 
 15156      6600
 15157              	.LASF321:
 15158 1373 50687950 		.ascii	"PhyParam_t\000"
 15158      6172616D 
 15158      5F7400
 15159              	.LASF328:
 15160 137e 73536574 		.ascii	"sSetBandTxDoneParams\000"
 15160      42616E64 
 15160      5478446F 
ARM GAS  C:\Users\EBANO_~1\AppData\Local\Temp\ccazSBuk.s 			page 308


 15160      6E655061 
 15160      72616D73 
 15161              	.LASF364:
 15162 1393 416E7465 		.ascii	"AntennaGain\000"
 15162      6E6E6147 
 15162      61696E00 
 15163              	.LASF262:
 15164 139f 5048595F 		.ascii	"PHY_DUTY_CYCLE\000"
 15164      44555459 
 15164      5F435943 
 15164      4C4500
 15165              	.LASF114:
 15166 13ae 5F617363 		.ascii	"_asctime_buf\000"
 15166      74696D65 
 15166      5F627566 
 15166      00
 15167              	.LASF498:
 15168 13bb 74785469 		.ascii	"txTimeOnAir\000"
 15168      6D654F6E 
 15168      41697200 
 15169              	.LASF31:
 15170 13c7 5F5F7763 		.ascii	"__wch\000"
 15170      6800
 15171              	.LASF454:
 15172 13cd 6368616E 		.ascii	"channelAdd\000"
 15172      6E656C41 
 15172      646400
 15173              	.LASF129:
 15174 13d8 5F776373 		.ascii	"_wcsrtombs_state\000"
 15174      72746F6D 
 15174      62735F73 
 15174      74617465 
 15174      00
 15175              	.LASF391:
 15176 13e9 44757479 		.ascii	"DutyCycleEnabled\000"
 15176      4379636C 
 15176      65456E61 
 15176      626C6564 
 15176      00
 15177              	.LASF471:
 15178 13fa 63757272 		.ascii	"currentDr\000"
 15178      656E7444 
 15178      7200
 15179              	.LASF559:
 15180 1404 52656769 		.ascii	"RegionCommonSetBandTxDone\000"
 15180      6F6E436F 
 15180      6D6D6F6E 
 15180      53657442 
 15180      616E6454 
 15181              	.LASF450:
 15182 141e 7478506F 		.ascii	"txPowerLimited\000"
 15182      7765724C 
 15182      696D6974 
 15182      656400
 15183              	.LASF546:
 15184 142d 54696D65 		.ascii	"TimerGetElapsedTime\000"
 15184      72476574 
ARM GAS  C:\Users\EBANO_~1\AppData\Local\Temp\ccazSBuk.s 			page 309


 15184      456C6170 
 15184      73656454 
 15184      696D6500 
 15185              	.LASF504:
 15186 1441 6D617850 		.ascii	"maxPayload\000"
 15186      61796C6F 
 15186      616400
 15187              	.LASF528:
 15188 144c 6368616E 		.ascii	"channelsMask\000"
 15188      6E656C73 
 15188      4D61736B 
 15188      00
 15189              	.LASF9:
 15190 1459 6C6F6E67 		.ascii	"long int\000"
 15190      20696E74 
 15190      00
 15191              	.LASF121:
 15192 1462 5F776374 		.ascii	"_wctomb_state\000"
 15192      6F6D625F 
 15192      73746174 
 15192      6500
 15193              	.LASF422:
 15194 1470 52656769 		.ascii	"RegionCommonLinkAdrReqVerifyParams_t\000"
 15194      6F6E436F 
 15194      6D6D6F6E 
 15194      4C696E6B 
 15194      41647252 
 15195              	.LASF372:
 15196 1495 43757272 		.ascii	"CurrentTxPower\000"
 15196      656E7454 
 15196      78506F77 
 15196      657200
 15197              	.LASF424:
 15198 14a4 42616E64 		.ascii	"Bands\000"
 15198      7300
 15199              	.LASF308:
 15200 14aa 4348414E 		.ascii	"CHANNELS_MASK\000"
 15200      4E454C53 
 15200      5F4D4153 
 15200      4B00
 15201              	.LASF532:
 15202 14b8 56657269 		.ascii	"VerifyRfFreq\000"
 15202      66795266 
 15202      46726571 
 15202      00
 15203              	.LASF107:
 15204 14c5 5F696F62 		.ascii	"_iobs\000"
 15204      7300
 15205              	.LASF87:
 15206 14cb 5F656D65 		.ascii	"_emergency\000"
 15206      7267656E 
 15206      637900
 15207              	.LASF506:
 15208 14d6 6D696E52 		.ascii	"minRxSymbols\000"
 15208      7853796D 
 15208      626F6C73 
 15208      00
ARM GAS  C:\Users\EBANO_~1\AppData\Local\Temp\ccazSBuk.s 			page 310


 15209              	.LASF131:
 15210 14e3 5F6E6578 		.ascii	"_nextf\000"
 15210      746600
 15211              	.LASF117:
 15212 14ea 5F72616E 		.ascii	"_rand_next\000"
 15212      645F6E65 
 15212      787400
 15213              	.LASF519:
 15214 14f5 70687941 		.ascii	"phyAttribute\000"
 15214      74747269 
 15214      62757465 
 15214      00
 15215              	.LASF20:
 15216 1502 75696E74 		.ascii	"uint32_t\000"
 15216      33325F74 
 15216      00
 15217              	.LASF416:
 15218 150b 53746174 		.ascii	"Status\000"
 15218      757300
 15219              	.LASF557:
 15220 1512 52656769 		.ascii	"RegionCommonComputeSymbolTimeFsk\000"
 15220      6F6E436F 
 15220      6D6D6F6E 
 15220      436F6D70 
 15220      75746553 
 15221              	.LASF405:
 15222 1533 436F6E74 		.ascii	"ContinuousWaveParams_t\000"
 15222      696E756F 
 15222      75735761 
 15222      76655061 
 15222      72616D73 
 15223              	.LASF39:
 15224 154a 5F6D6178 		.ascii	"_maxwds\000"
 15224      77647300 
 15225              	.LASF523:
 15226 1552 62616E64 		.ascii	"bands\000"
 15226      7300
 15227              	.LASF191:
 15228 1558 53657454 		.ascii	"SetTxContinuousWave\000"
 15228      78436F6E 
 15228      74696E75 
 15228      6F757357 
 15228      61766500 
 15229              	.LASF26:
 15230 156c 6C6F6E67 		.ascii	"long double\000"
 15230      20646F75 
 15230      626C6500 
 15231              	.LASF505:
 15232 1578 52656769 		.ascii	"RegionRU864ComputeRxWindowParameters\000"
 15232      6F6E5255 
 15232      38363443 
 15232      6F6D7075 
 15232      74655278 
 15233              	.LASF138:
 15234 159d 7375626F 		.ascii	"suboptarg\000"
 15234      70746172 
 15234      6700
ARM GAS  C:\Users\EBANO_~1\AppData\Local\Temp\ccazSBuk.s 			page 311


 15235              	.LASF275:
 15236 15a7 5048595F 		.ascii	"PHY_MAX_NB_CHANNELS\000"
 15236      4D41585F 
 15236      4E425F43 
 15236      48414E4E 
 15236      454C5300 
 15237              	.LASF382:
 15238 15bb 54785061 		.ascii	"TxParamSetupReqParams_t\000"
 15238      72616D53 
 15238      65747570 
 15238      52657150 
 15238      6172616D 
 15239              	.LASF11:
 15240 15d3 6C6F6E67 		.ascii	"long unsigned int\000"
 15240      20756E73 
 15240      69676E65 
 15240      6420696E 
 15240      7400
 15241              	.LASF437:
 15242 15e5 4368616E 		.ascii	"ChannelsDefaultMask\000"
 15242      6E656C73 
 15242      44656661 
 15242      756C744D 
 15242      61736B00 
 15243              	.LASF555:
 15244 15f9 52656769 		.ascii	"RegionCommonComputeSymbolTimeLoRa\000"
 15244      6F6E436F 
 15244      6D6D6F6E 
 15244      436F6D70 
 15244      75746553 
 15245              	.LASF524:
 15246 161b 52656769 		.ascii	"RegionRU864SetBandTxDone\000"
 15246      6F6E5255 
 15246      38363453 
 15246      65744261 
 15246      6E645478 
 15247              	.LASF307:
 15248 1634 65436861 		.ascii	"eChannelsMask\000"
 15248      6E6E656C 
 15248      734D6173 
 15248      6B00
 15249              	.LASF181:
 15250 1642 49734368 		.ascii	"IsChannelFree\000"
 15250      616E6E65 
 15250      6C467265 
 15250      6500
 15251              	.LASF72:
 15252 1650 5F636C6F 		.ascii	"_close\000"
 15252      736500
 15253              	.LASF502:
 15254 1657 52656769 		.ascii	"RegionRU864RxConfig\000"
 15254      6F6E5255 
 15254      38363452 
 15254      78436F6E 
 15254      66696700 
 15255              	.LASF198:
 15256 166b 53657450 		.ascii	"SetPublicNetwork\000"
ARM GAS  C:\Users\EBANO_~1\AppData\Local\Temp\ccazSBuk.s 			page 312


 15256      75626C69 
 15256      634E6574 
 15256      776F726B 
 15256      00
 15257              	.LASF103:
 15258 167c 63686172 		.ascii	"char\000"
 15258      00
 15259              	.LASF280:
 15260 1681 5048595F 		.ascii	"PHY_DEF_ANTENNA_GAIN\000"
 15260      4445465F 
 15260      414E5445 
 15260      4E4E415F 
 15260      4741494E 
 15261              	.LASF164:
 15262 1696 52465F43 		.ascii	"RF_CAD\000"
 15262      414400
 15263              	.LASF105:
 15264 169d 5F676C75 		.ascii	"_glue\000"
 15264      6500
 15265              	.LASF463:
 15266 16a3 6E62456E 		.ascii	"nbEnabledChannels\000"
 15266      61626C65 
 15266      64436861 
 15266      6E6E656C 
 15266      7300
 15267              	.LASF394:
 15268 16b5 43616C63 		.ascii	"CalcBackOffParams_t\000"
 15268      4261636B 
 15268      4F666650 
 15268      6172616D 
 15268      735F7400 
 15269              	.LASF23:
 15270 16c9 41504250 		.ascii	"APBPrescTable\000"
 15270      72657363 
 15270      5461626C 
 15270      6500
 15271              	.LASF200:
 15272 16d7 49727150 		.ascii	"IrqProcess\000"
 15272      726F6365 
 15272      737300
 15273              	.LASF543:
 15274 16e2 52656769 		.ascii	"RegionCommonComputeTxPower\000"
 15274      6F6E436F 
 15274      6D6D6F6E 
 15274      436F6D70 
 15274      75746554 
 15275              	.LASF544:
 15276 16fd 52656769 		.ascii	"RegionCommonValueInRange\000"
 15276      6F6E436F 
 15276      6D6D6F6E 
 15276      56616C75 
 15276      65496E52 
 15277              	.LASF253:
 15278 1716 5048595F 		.ascii	"PHY_DEF_TX_DR\000"
 15278      4445465F 
 15278      54585F44 
 15278      5200
ARM GAS  C:\Users\EBANO_~1\AppData\Local\Temp\ccazSBuk.s 			page 313


 15279              	.LASF227:
 15280 1724 4C4F5241 		.ascii	"LORAMAC_STATUS_FREQUENCY_INVALID\000"
 15280      4D41435F 
 15280      53544154 
 15280      55535F46 
 15280      52455155 
 15281              	.LASF466:
 15282 1745 6E657874 		.ascii	"nextTxDelay\000"
 15282      54784465 
 15282      6C617900 
 15283              	.LASF527:
 15284 1751 6A6F696E 		.ascii	"joined\000"
 15284      656400
 15285              	.LASF42:
 15286 1758 5F426967 		.ascii	"_Bigint\000"
 15286      696E7400 
 15287              	.LASF386:
 15288 1760 414C5445 		.ascii	"ALTERNATE_DR\000"
 15288      524E4154 
 15288      455F4452 
 15288      00
 15289              	.LASF537:
 15290 176d 47657442 		.ascii	"GetBandwidth\000"
 15290      616E6477 
 15290      69647468 
 15290      00
 15291              	.LASF256:
 15292 177a 5048595F 		.ascii	"PHY_TX_POWER\000"
 15292      54585F50 
 15292      4F574552 
 15292      00
 15293              	.LASF180:
 15294 1787 53657443 		.ascii	"SetChannel\000"
 15294      68616E6E 
 15294      656C00
 15295              	.LASF316:
 15296 1792 75506879 		.ascii	"uPhyParam\000"
 15296      50617261 
 15296      6D00
 15297              	.LASF485:
 15298 179c 7478506F 		.ascii	"txPowOut\000"
 15298      774F7574 
 15298      00
 15299              	.LASF99:
 15300 17a5 5F617465 		.ascii	"_atexit0\000"
 15300      78697430 
 15300      00
 15301              	.LASF350:
 15302 17ae 4368616E 		.ascii	"ChannelsMaskIn\000"
 15302      6E656C73 
 15302      4D61736B 
 15302      496E00
 15303              	.LASF223:
 15304 17bd 4C4F5241 		.ascii	"LORAMAC_STATUS_OK\000"
 15304      4D41435F 
 15304      53544154 
 15304      55535F4F 
ARM GAS  C:\Users\EBANO_~1\AppData\Local\Temp\ccazSBuk.s 			page 314


 15304      4B00
 15305              	.LASF257:
 15306 17cf 5048595F 		.ascii	"PHY_DEF_TX_POWER\000"
 15306      4445465F 
 15306      54585F50 
 15306      4F574552 
 15306      00
 15307              	.LASF124:
 15308 17e0 5F676574 		.ascii	"_getdate_err\000"
 15308      64617465 
 15308      5F657272 
 15308      00
 15309              	.LASF554:
 15310 17ed 6D656D73 		.ascii	"memset1\000"
 15310      65743100 
 15311              	.LASF295:
 15312 17f5 5048595F 		.ascii	"PHY_BEACON_CHANNEL_FREQ\000"
 15312      42454143 
 15312      4F4E5F43 
 15312      48414E4E 
 15312      454C5F46 
 15313              	.LASF495:
 15314 180d 52656769 		.ascii	"RegionRU864TxConfig\000"
 15314      6F6E5255 
 15314      38363454 
 15314      78436F6E 
 15314      66696700 
 15315              	.LASF282:
 15316 1821 5048595F 		.ascii	"PHY_BEACON_INTERVAL\000"
 15316      42454143 
 15316      4F4E5F49 
 15316      4E544552 
 15316      56414C00 
 15317              	.LASF277:
 15318 1835 5048595F 		.ascii	"PHY_DEF_UPLINK_DWELL_TIME\000"
 15318      4445465F 
 15318      55504C49 
 15318      4E4B5F44 
 15318      57454C4C 
 15319              	.LASF309:
 15320 184f 4348414E 		.ascii	"CHANNELS_DEFAULT_MASK\000"
 15320      4E454C53 
 15320      5F444546 
 15320      41554C54 
 15320      5F4D4153 
 15321              	.LASF268:
 15322 1865 5048595F 		.ascii	"PHY_MAX_FCNT_GAP\000"
 15322      4D41585F 
 15322      46434E54 
 15322      5F474150 
 15322      00
 15323              	.LASF332:
 15324 1876 73496E69 		.ascii	"sInitDefaultsParams\000"
 15324      74446566 
 15324      61756C74 
 15324      73506172 
 15324      616D7300 
ARM GAS  C:\Users\EBANO_~1\AppData\Local\Temp\ccazSBuk.s 			page 315


 15325              	.LASF423:
 15326 188a 73526567 		.ascii	"sRegionCommonCalcBackOffParams\000"
 15326      696F6E43 
 15326      6F6D6D6F 
 15326      6E43616C 
 15326      63426163 
 15327              	.LASF136:
 15328 18a9 5F696D70 		.ascii	"_impure_ptr\000"
 15328      7572655F 
 15328      70747200 
 15329              	.LASF75:
 15330 18b5 5F626C6B 		.ascii	"_blksize\000"
 15330      73697A65 
 15330      00
 15331              	.LASF459:
 15332 18be 6E657874 		.ascii	"nextChanParams\000"
 15332      4368616E 
 15332      50617261 
 15332      6D7300
 15333              	.LASF73:
 15334 18cd 5F756275 		.ascii	"_ubuf\000"
 15334      6600
 15335              	.LASF492:
 15336 18d3 67657450 		.ascii	"getPhy\000"
 15336      687900
 15337              	.LASF279:
 15338 18da 5048595F 		.ascii	"PHY_DEF_MAX_EIRP\000"
 15338      4445465F 
 15338      4D41585F 
 15338      45495250 
 15338      00
 15339              	.LASF119:
 15340 18eb 5F6D626C 		.ascii	"_mblen_state\000"
 15340      656E5F73 
 15340      74617465 
 15340      00
 15341              	.LASF101:
 15342 18f8 5F5F7367 		.ascii	"__sglue\000"
 15342      6C756500 
 15343              	.LASF135:
 15344 1900 5F5F6C6F 		.ascii	"__locale_t\000"
 15344      63616C65 
 15344      5F7400
 15345              	.LASF484:
 15346 190b 64724F75 		.ascii	"drOut\000"
 15346      7400
 15347              	.LASF91:
 15348 1911 5F5F636C 		.ascii	"__cleanup\000"
 15348      65616E75 
 15348      7000
 15349              	.LASF507:
 15350 191b 72784572 		.ascii	"rxError\000"
 15350      726F7200 
 15351              	.LASF214:
 15352 1923 52585F53 		.ascii	"RX_SLOT_WIN_1\000"
 15352      4C4F545F 
 15352      57494E5F 
ARM GAS  C:\Users\EBANO_~1\AppData\Local\Temp\ccazSBuk.s 			page 316


 15352      3100
 15353              	.LASF215:
 15354 1931 52585F53 		.ascii	"RX_SLOT_WIN_2\000"
 15354      4C4F545F 
 15354      57494E5F 
 15354      3200
 15355              	.LASF302:
 15356 193f 65496E69 		.ascii	"eInitType\000"
 15356      74547970 
 15356      6500
 15357              	.LASF24:
 15358 1949 504C4C4D 		.ascii	"PLLMulTable\000"
 15358      756C5461 
 15358      626C6500 
 15359              	.LASF549:
 15360 1955 52656769 		.ascii	"RegionCommonCalcBackOff\000"
 15360      6F6E436F 
 15360      6D6D6F6E 
 15360      43616C63 
 15360      4261636B 
 15361              	.LASF29:
 15362 196d 5F66706F 		.ascii	"_fpos_t\000"
 15362      735F7400 
 15363              	.LASF515:
 15364 1975 6E657743 		.ascii	"newChannel\000"
 15364      68616E6E 
 15364      656C00
 15365              	.LASF329:
 15366 1980 4368616E 		.ascii	"Channel\000"
 15366      6E656C00 
 15367              	.LASF66:
 15368 1988 5F66696C 		.ascii	"_file\000"
 15368      6500
 15369              	.LASF208:
 15370 198e 73436861 		.ascii	"sChannelParams\000"
 15370      6E6E656C 
 15370      50617261 
 15370      6D7300
 15371              	.LASF64:
 15372 199d 5F5F7346 		.ascii	"__sFILE\000"
 15372      494C4500 
 15373              	.LASF501:
 15374 19a5 62616E64 		.ascii	"bandwidth\000"
 15374      77696474 
 15374      6800
 15375              	.LASF510:
 15376 19af 646F7562 		.ascii	"double\000"
 15376      6C6500
 15377              	.LASF60:
 15378 19b6 5F666E73 		.ascii	"_fns\000"
 15378      00
 15379              	.LASF351:
 15380 19bb 4368616E 		.ascii	"ChannelsMaskType\000"
 15380      6E656C73 
 15380      4D61736B 
 15380      54797065 
 15380      00
ARM GAS  C:\Users\EBANO_~1\AppData\Local\Temp\ccazSBuk.s 			page 317


 15381              	.LASF452:
 15382 19cc 52656769 		.ascii	"RegionRU864ChannelAdd\000"
 15382      6F6E5255 
 15382      38363443 
 15382      68616E6E 
 15382      656C4164 
 15383              	.LASF35:
 15384 19e2 5F6D6273 		.ascii	"_mbstate_t\000"
 15384      74617465 
 15384      5F7400
 15385              	.LASF130:
 15386 19ed 5F685F65 		.ascii	"_h_errno\000"
 15386      72726E6F 
 15386      00
 15387              	.LASF315:
 15388 19f6 42656163 		.ascii	"BeaconFormat_t\000"
 15388      6F6E466F 
 15388      726D6174 
 15388      5F7400
 15389              	.LASF8:
 15390 1a05 5F5F696E 		.ascii	"__int32_t\000"
 15390      7433325F 
 15390      7400
 15391              	.LASF503:
 15392 1a0f 7278436F 		.ascii	"rxConfig\000"
 15392      6E666967 
 15392      00
 15393              	.LASF10:
 15394 1a18 5F5F7569 		.ascii	"__uint32_t\000"
 15394      6E743332 
 15394      5F7400
 15395              	.LASF269:
 15396 1a23 5048595F 		.ascii	"PHY_ACK_TIMEOUT\000"
 15396      41434B5F 
 15396      54494D45 
 15396      4F555400 
 15397              	.LASF325:
 15398 1a33 55706C69 		.ascii	"UplinkDwellTime\000"
 15398      6E6B4477 
 15398      656C6C54 
 15398      696D6500 
 15399              	.LASF509:
 15400 1a43 7453796D 		.ascii	"tSymbol\000"
 15400      626F6C00 
 15401              	.LASF34:
 15402 1a4b 5F5F7661 		.ascii	"__value\000"
 15402      6C756500 
 15403              	.LASF465:
 15404 1a53 656E6162 		.ascii	"enabledChannels\000"
 15404      6C656443 
 15404      68616E6E 
 15404      656C7300 
 15405              	.LASF57:
 15406 1a63 5F69735F 		.ascii	"_is_cxa\000"
 15406      63786100 
 15407              	.LASF235:
 15408 1a6b 4C4F5241 		.ascii	"LORAMAC_STATUS_NO_CHANNEL_FOUND\000"
ARM GAS  C:\Users\EBANO_~1\AppData\Local\Temp\ccazSBuk.s 			page 318


 15408      4D41435F 
 15408      53544154 
 15408      55535F4E 
 15408      4F5F4348 
 15409              	.LASF442:
 15410 1a8b 646F776E 		.ascii	"downlinkDwellTime\000"
 15410      6C696E6B 
 15410      4477656C 
 15410      6C54696D 
 15410      6500
 15411              	.LASF94:
 15412 1a9d 5F703573 		.ascii	"_p5s\000"
 15412      00
 15413              	.LASF341:
 15414 1aa2 5478506F 		.ascii	"TxPower\000"
 15414      77657200 
 15415              	.LASF163:
 15416 1aaa 52465F54 		.ascii	"RF_TX_RUNNING\000"
 15416      585F5255 
 15416      4E4E494E 
 15416      4700
 15417              	.LASF261:
 15418 1ab8 5048595F 		.ascii	"PHY_MAX_PAYLOAD_REPEATER\000"
 15418      4D41585F 
 15418      5041594C 
 15418      4F41445F 
 15418      52455045 
 15419              	.LASF294:
 15420 1ad1 5048595F 		.ascii	"PHY_BEACON_DELAY_BEACON_TIMING_ANS\000"
 15420      42454143 
 15420      4F4E5F44 
 15420      454C4159 
 15420      5F424541 
 15421              	.LASF354:
 15422 1af4 42616E64 		.ascii	"Bandwidth\000"
 15422      77696474 
 15422      6800
 15423              	.LASF342:
 15424 1afe 44757479 		.ascii	"DutyCycle\000"
 15424      4379636C 
 15424      6500
 15425              	.LASF317:
 15426 1b08 6656616C 		.ascii	"fValue\000"
 15426      756500
 15427              	.LASF139:
 15428 1b0f 54696D65 		.ascii	"TimerTime_t\000"
 15428      7254696D 
 15428      655F7400 
 15429              	.LASF410:
 15430 1b1b 73526567 		.ascii	"sRegionCommonLinkAdrParams\000"
 15430      696F6E43 
 15430      6F6D6D6F 
 15430      6E4C696E 
 15430      6B416472 
 15431              	.LASF359:
 15432 1b36 5278436F 		.ascii	"RxContinuous\000"
 15432      6E74696E 
ARM GAS  C:\Users\EBANO_~1\AppData\Local\Temp\ccazSBuk.s 			page 319


 15432      756F7573 
 15432      00
 15433              	.LASF482:
 15434 1b43 52656769 		.ascii	"RegionRU864LinkAdrReq\000"
 15434      6F6E5255 
 15434      3836344C 
 15434      696E6B41 
 15434      64725265 
 15435              	.LASF305:
 15436 1b59 494E4954 		.ascii	"INIT_TYPE_RESTORE_CTX\000"
 15436      5F545950 
 15436      455F5245 
 15436      53544F52 
 15436      455F4354 
 15437              	.LASF425:
 15438 1b6f 52656769 		.ascii	"RegionCommonCalcBackOffParams_t\000"
 15438      6F6E436F 
 15438      6D6D6F6E 
 15438      43616C63 
 15438      4261636B 
 15439              	.LASF252:
 15440 1b8f 5048595F 		.ascii	"PHY_TX_DR\000"
 15440      54585F44 
 15440      5200
 15441              	.LASF496:
 15442 1b99 7478436F 		.ascii	"txConfig\000"
 15442      6E666967 
 15442      00
 15443              	.LASF388:
 15444 1ba2 416C7465 		.ascii	"AlternateDrType_t\000"
 15444      726E6174 
 15444      65447254 
 15444      7970655F 
 15444      7400
 15445              	.LASF155:
 15446 1bb4 5F74696D 		.ascii	"_timezone\000"
 15446      657A6F6E 
 15446      6500
 15447              	.LASF250:
 15448 1bbe 5048595F 		.ascii	"PHY_MAX_RX_DR\000"
 15448      4D41585F 
 15448      52585F44 
 15448      5200
 15449              	.LASF192:
 15450 1bcc 52737369 		.ascii	"Rssi\000"
 15450      00
 15451              	.LASF159:
 15452 1bd1 4D4F4445 		.ascii	"MODEM_LORA\000"
 15452      4D5F4C4F 
 15452      524100
 15453              	.LASF13:
 15454 1bdc 6C6F6E67 		.ascii	"long long unsigned int\000"
 15454      206C6F6E 
 15454      6720756E 
 15454      7369676E 
 15454      65642069 
 15455              	.LASF432:
ARM GAS  C:\Users\EBANO_~1\AppData\Local\Temp\ccazSBuk.s 			page 320


 15456 1bf3 44617461 		.ascii	"DataratesRU864\000"
 15456      72617465 
 15456      73525538 
 15456      363400
 15457              	.LASF542:
 15458 1c02 52656769 		.ascii	"RegionCommonRxBeaconSetup\000"
 15458      6F6E436F 
 15458      6D6D6F6E 
 15458      52784265 
 15458      61636F6E 
 15459              	.LASF494:
 15460 1c1c 6C696E6B 		.ascii	"linkAdrVerifyParams\000"
 15460      41647256 
 15460      65726966 
 15460      79506172 
 15460      616D7300 
 15461              	.LASF116:
 15462 1c30 5F67616D 		.ascii	"_gamma_signgam\000"
 15462      6D615F73 
 15462      69676E67 
 15462      616D00
 15463              	.LASF151:
 15464 1c3f 4C617374 		.ascii	"LastJoinTxDoneTime\000"
 15464      4A6F696E 
 15464      5478446F 
 15464      6E655469 
 15464      6D6500
 15465              	.LASF177:
 15466 1c52 496E6974 		.ascii	"Init\000"
 15466      00
 15467              	.LASF439:
 15468 1c57 72784265 		.ascii	"rxBeaconSetup\000"
 15468      61636F6E 
 15468      53657475 
 15468      7000
 15469              	.LASF401:
 15470 1c65 73436861 		.ascii	"sChannelRemoveParams\000"
 15470      6E6E656C 
 15470      52656D6F 
 15470      76655061 
 15470      72616D73 
 15471              	.LASF403:
 15472 1c7a 73436F6E 		.ascii	"sContinuousWaveParams\000"
 15472      74696E75 
 15472      6F757357 
 15472      61766550 
 15472      6172616D 
 15473              	.LASF244:
 15474 1c90 4C4F5241 		.ascii	"LORAMAC_STATUS_CONFIRM_QUEUE_ERROR\000"
 15474      4D41435F 
 15474      53544154 
 15474      55535F43 
 15474      4F4E4649 
 15475              	.LASF273:
 15476 1cb3 5048595F 		.ascii	"PHY_CHANNELS_MASK\000"
 15476      4348414E 
 15476      4E454C53 
ARM GAS  C:\Users\EBANO_~1\AppData\Local\Temp\ccazSBuk.s 			page 321


 15476      5F4D4153 
 15476      4B00
 15477              	.LASF143:
 15478 1cc5 4D616A6F 		.ascii	"Major\000"
 15478      7200
 15479              	.LASF209:
 15480 1ccb 46726571 		.ascii	"Frequency\000"
 15480      75656E63 
 15480      7900
 15481              	.LASF530:
 15482 1cd5 64656C61 		.ascii	"delayTransmission\000"
 15482      79547261 
 15482      6E736D69 
 15482      7373696F 
 15482      6E00
 15483              	.LASF137:
 15484 1ce7 5F676C6F 		.ascii	"_global_impure_ptr\000"
 15484      62616C5F 
 15484      696D7075 
 15484      72655F70 
 15484      747200
 15485              	.LASF407:
 15486 1cfa 53796D62 		.ascii	"SymbolTimeout\000"
 15486      6F6C5469 
 15486      6D656F75 
 15486      7400
 15487              	.LASF88:
 15488 1d08 5F756E73 		.ascii	"_unspecified_locale_info\000"
 15488      70656369 
 15488      66696564 
 15488      5F6C6F63 
 15488      616C655F 
 15489              	.LASF378:
 15490 1d21 4E657743 		.ascii	"NewChannel\000"
 15490      68616E6E 
 15490      656C00
 15491              	.LASF529:
 15492 1d2c 6368616E 		.ascii	"channels\000"
 15492      6E656C73 
 15492      00
 15493              	.LASF304:
 15494 1d35 494E4954 		.ascii	"INIT_TYPE_RESTORE_DEFAULT_CHANNELS\000"
 15494      5F545950 
 15494      455F5245 
 15494      53544F52 
 15494      455F4445 
 15495              	.LASF90:
 15496 1d58 5F5F7364 		.ascii	"__sdidinit\000"
 15496      6964696E 
 15496      697400
 15497              	.LASF477:
 15498 1d63 74785061 		.ascii	"txParamSetupReq\000"
 15498      72616D53 
 15498      65747570 
 15498      52657100 
 15499              	.LASF318:
 15500 1d73 4368616E 		.ascii	"ChannelsMask\000"
ARM GAS  C:\Users\EBANO_~1\AppData\Local\Temp\ccazSBuk.s 			page 322


 15500      6E656C73 
 15500      4D61736B 
 15500      00
 15501              	.LASF187:
 15502 1d80 53656E64 		.ascii	"Send\000"
 15502      00
 15503              	.LASF300:
 15504 1d85 5048595F 		.ascii	"PHY_PING_SLOT_CHANNEL_DR\000"
 15504      50494E47 
 15504      5F534C4F 
 15504      545F4348 
 15504      414E4E45 
 15505              	.LASF324:
 15506 1d9e 44617461 		.ascii	"Datarate\000"
 15506      72617465 
 15506      00
 15507              	.LASF36:
 15508 1da7 5F666C6F 		.ascii	"_flock_t\000"
 15508      636B5F74 
 15508      00
 15509              	.LASF541:
 15510 1db0 6E657874 		.ascii	"nextLowerDr\000"
 15510      4C6F7765 
 15510      72447200 
 15511              	.LASF239:
 15512 1dbc 4C4F5241 		.ascii	"LORAMAC_STATUS_BUSY_UPLINK_COLLISION\000"
 15512      4D41435F 
 15512      53544154 
 15512      55535F42 
 15512      5553595F 
 15513              	.LASF499:
 15514 1de1 6D6F6465 		.ascii	"modem\000"
 15514      6D00
 15515              	.LASF433:
 15516 1de7 42616E64 		.ascii	"BandwidthsRU864\000"
 15516      77696474 
 15516      68735255 
 15516      38363400 
 15517              	.LASF173:
 15518 1df7 52616469 		.ascii	"RadioEvents_t\000"
 15518      6F457665 
 15518      6E74735F 
 15518      7400
 15519              	.LASF488:
 15520 1e05 6C696E6B 		.ascii	"linkAdrParams\000"
 15520      41647250 
 15520      6172616D 
 15520      7300
 15521              	.LASF441:
 15522 1e13 72656769 		.ascii	"regionCommonRxBeaconSetup\000"
 15522      6F6E436F 
 15522      6D6D6F6E 
 15522      52784265 
 15522      61636F6E 
 15523              	.LASF246:
 15524 1e2d 4C6F5261 		.ascii	"LoRaMacStatus_t\000"
 15524      4D616353 
ARM GAS  C:\Users\EBANO_~1\AppData\Local\Temp\ccazSBuk.s 			page 323


 15524      74617475 
 15524      735F7400 
 15525              	.LASF373:
 15526 1e3d 43757272 		.ascii	"CurrentNbRep\000"
 15526      656E744E 
 15526      62526570 
 15526      00
 15527              	.LASF12:
 15528 1e4a 6C6F6E67 		.ascii	"long long int\000"
 15528      206C6F6E 
 15528      6720696E 
 15528      7400
 15529              	.LASF229:
 15530 1e58 4C4F5241 		.ascii	"LORAMAC_STATUS_FREQ_AND_DR_INVALID\000"
 15530      4D41435F 
 15530      53544154 
 15530      55535F46 
 15530      5245515F 
 15531              	.LASF243:
 15532 1e7b 4C4F5241 		.ascii	"LORAMAC_STATUS_CLASS_B_ERROR\000"
 15532      4D41435F 
 15532      53544154 
 15532      55535F43 
 15532      4C415353 
 15533              	.LASF80:
 15534 1e98 5F666C61 		.ascii	"_flags2\000"
 15534      67733200 
 15535              	.LASF293:
 15536 1ea0 5048595F 		.ascii	"PHY_MAX_BEACON_LESS_PERIOD\000"
 15536      4D41585F 
 15536      42454143 
 15536      4F4E5F4C 
 15536      4553535F 
 15537              	.LASF172:
 15538 1ebb 43616444 		.ascii	"CadDone\000"
 15538      6F6E6500 
 15539              	.LASF89:
 15540 1ec3 5F6C6F63 		.ascii	"_locale\000"
 15540      616C6500 
 15541              	.LASF228:
 15542 1ecb 4C4F5241 		.ascii	"LORAMAC_STATUS_DATARATE_INVALID\000"
 15542      4D41435F 
 15542      53544154 
 15542      55535F44 
 15542      41544152 
 15543              	.LASF349:
 15544 1eeb 73436861 		.ascii	"sChanMaskSetParams\000"
 15544      6E4D6173 
 15544      6B536574 
 15544      50617261 
 15544      6D7300
 15545              	.LASF22:
 15546 1efe 41484250 		.ascii	"AHBPrescTable\000"
 15546      72657363 
 15546      5461626C 
 15546      6500
 15547              	.LASF276:
ARM GAS  C:\Users\EBANO_~1\AppData\Local\Temp\ccazSBuk.s 			page 324


 15548 1f0c 5048595F 		.ascii	"PHY_CHANNELS\000"
 15548      4348414E 
 15548      4E454C53 
 15548      00
 15549              	.LASF469:
 15550 1f19 63616C63 		.ascii	"calcBackOffParams\000"
 15550      4261636B 
 15550      4F666650 
 15550      6172616D 
 15550      7300
 15551              	.LASF333:
 15552 1f2b 4E766D43 		.ascii	"NvmCtx\000"
 15552      747800
 15553              	.LASF409:
 15554 1f32 52784265 		.ascii	"RxBeaconSetup_t\000"
 15554      61636F6E 
 15554      53657475 
 15554      705F7400 
 15555              	.LASF204:
 15556 1f42 73466965 		.ascii	"sFields\000"
 15556      6C647300 
 15557              	.LASF556:
 15558 1f4a 52656769 		.ascii	"RegionCommonComputeRxWindowParameters\000"
 15558      6F6E436F 
 15558      6D6D6F6E 
 15558      436F6D70 
 15558      75746552 
 15559              	.LASF199:
 15560 1f70 47657457 		.ascii	"GetWakeupTime\000"
 15560      616B6575 
 15560      7054696D 
 15560      6500
 15561              	.LASF395:
 15562 1f7e 734E6578 		.ascii	"sNextChanParams\000"
 15562      74436861 
 15562      6E506172 
 15562      616D7300 
 15563              	.LASF431:
 15564 1f8e 4C6F5261 		.ascii	"LoRaMacMaxEirpTable\000"
 15564      4D61634D 
 15564      61784569 
 15564      72705461 
 15564      626C6500 
 15565              	.LASF383:
 15566 1fa2 73446C43 		.ascii	"sDlChannelReqParams\000"
 15566      68616E6E 
 15566      656C5265 
 15566      71506172 
 15566      616D7300 
 15567              	.LASF374:
 15568 1fb6 4C696E6B 		.ascii	"LinkAdrReqParams_t\000"
 15568      41647252 
 15568      65715061 
 15568      72616D73 
 15568      5F7400
 15569              	.LASF453:
 15570 1fc9 6368616E 		.ascii	"channelRemove\000"
ARM GAS  C:\Users\EBANO_~1\AppData\Local\Temp\ccazSBuk.s 			page 325


 15570      6E656C52 
 15570      656D6F76 
 15570      6500
 15571              	.LASF104:
 15572 1fd7 5F5F4649 		.ascii	"__FILE\000"
 15572      4C4500
 15573              	.LASF217:
 15574 1fde 52585F53 		.ascii	"RX_SLOT_WIN_PING_SLOT\000"
 15574      4C4F545F 
 15574      57494E5F 
 15574      50494E47 
 15574      5F534C4F 
 15575              	.LASF449:
 15576 1ff4 66726571 		.ascii	"frequency\000"
 15576      75656E63 
 15576      7900
 15577              	.LASF435:
 15578 1ffe 4D617850 		.ascii	"MaxPayloadOfDatarateRepeaterRU864\000"
 15578      61796C6F 
 15578      61644F66 
 15578      44617461 
 15578      72617465 
 15579              	.LASF340:
 15580 2020 75566572 		.ascii	"uVerifyParams\000"
 15580      69667950 
 15580      6172616D 
 15580      7300
 15581              	.LASF238:
 15582 202e 4C4F5241 		.ascii	"LORAMAC_STATUS_BUSY_PING_SLOT_WINDOW_TIME\000"
 15582      4D41435F 
 15582      53544154 
 15582      55535F42 
 15582      5553595F 
 15583              	.LASF40:
 15584 2058 5F736967 		.ascii	"_sign\000"
 15584      6E00
 15585              	.LASF0:
 15586 205e 5F5F696E 		.ascii	"__int8_t\000"
 15586      74385F74 
 15586      00
 15587              	.LASF45:
 15588 2067 5F5F746D 		.ascii	"__tm_min\000"
 15588      5F6D696E 
 15588      00
 15589              	.LASF344:
 15590 2070 56657269 		.ascii	"VerifyParams_t\000"
 15590      66795061 
 15590      72616D73 
 15590      5F7400
 15591              	.LASF14:
 15592 207f 756E7369 		.ascii	"unsigned int\000"
 15592      676E6564 
 15592      20696E74 
 15592      00
 15593              	.LASF118:
 15594 208c 5F723438 		.ascii	"_r48\000"
 15594      00
ARM GAS  C:\Users\EBANO_~1\AppData\Local\Temp\ccazSBuk.s 			page 326


 15595              	.LASF145:
 15596 2091 56616C75 		.ascii	"Value\000"
 15596      6500
 15597              	.LASF225:
 15598 2097 4C4F5241 		.ascii	"LORAMAC_STATUS_SERVICE_UNKNOWN\000"
 15598      4D41435F 
 15598      53544154 
 15598      55535F53 
 15598      45525649 
 15599              	.LASF366:
 15600 20b6 5478436F 		.ascii	"TxConfigParams_t\000"
 15600      6E666967 
 15600      50617261 
 15600      6D735F74 
 15600      00
 15601              	.LASF233:
 15602 20c7 4C4F5241 		.ascii	"LORAMAC_STATUS_SKIPPED_APP_DATA\000"
 15602      4D41435F 
 15602      53544154 
 15602      55535F53 
 15602      4B495050 
 15603              	.LASF443:
 15604 20e7 64724F66 		.ascii	"drOffset\000"
 15604      66736574 
 15604      00
 15605              	.LASF5:
 15606 20f0 73686F72 		.ascii	"short int\000"
 15606      7420696E 
 15606      7400
 15607              	.LASF291:
 15608 20fa 5048595F 		.ascii	"PHY_BEACON_SYMBOL_TO_EXPANSION_FACTOR\000"
 15608      42454143 
 15608      4F4E5F53 
 15608      594D424F 
 15608      4C5F544F 
 15609              	.LASF183:
 15610 2120 53657452 		.ascii	"SetRxConfig\000"
 15610      78436F6E 
 15610      66696700 
 15611              	.LASF69:
 15612 212c 5F726561 		.ascii	"_read\000"
 15612      6400
 15613              	.LASF456:
 15614 2132 66726571 		.ascii	"freqInvalid\000"
 15614      496E7661 
 15614      6C696400 
 15615              	.LASF550:
 15616 213e 52656769 		.ascii	"RegionCommonChanDisable\000"
 15616      6F6E436F 
 15616      6D6D6F6E 
 15616      4368616E 
 15616      44697361 
 15617              	.LASF108:
 15618 2156 5F72616E 		.ascii	"_rand48\000"
 15618      64343800 
 15619              	.LASF511:
 15620 215e 52656769 		.ascii	"RegionRU864ChanMaskSet\000"
ARM GAS  C:\Users\EBANO_~1\AppData\Local\Temp\ccazSBuk.s 			page 327


 15620      6F6E5255 
 15620      38363443 
 15620      68616E4D 
 15620      61736B53 
 15621              	.LASF455:
 15622 2175 6472496E 		.ascii	"drInvalid\000"
 15622      76616C69 
 15622      6400
 15623              	.LASF390:
 15624 217f 4C617374 		.ascii	"LastTxIsJoinRequest\000"
 15624      54784973 
 15624      4A6F696E 
 15624      52657175 
 15624      65737400 
 15625              		.ident	"GCC: (GNU Tools for Arm Embedded Processors 7-2018-q2-update) 7.3.1 20180622 (release) [AR
ARM GAS  C:\Users\EBANO_~1\AppData\Local\Temp\ccazSBuk.s 			page 328


DEFINED SYMBOLS
                            *ABS*:00000000 RegionRU864.c
C:\Users\EBANO_~1\AppData\Local\Temp\ccazSBuk.s:16     .text.RegionRU864GetPhyParam:00000000 $t
C:\Users\EBANO_~1\AppData\Local\Temp\ccazSBuk.s:24     .text.RegionRU864GetPhyParam:00000000 RegionRU864GetPhyParam
C:\Users\EBANO_~1\AppData\Local\Temp\ccazSBuk.s:55     .rodata:00000000 $d
C:\Users\EBANO_~1\AppData\Local\Temp\ccazSBuk.s:281    .text.RegionRU864GetPhyParam:000000dc $d
C:\Users\EBANO_~1\AppData\Local\Temp\ccazSBuk.s:295    .text.RegionRU864SetBandTxDone:00000000 $t
C:\Users\EBANO_~1\AppData\Local\Temp\ccazSBuk.s:303    .text.RegionRU864SetBandTxDone:00000000 RegionRU864SetBandTxDone
C:\Users\EBANO_~1\AppData\Local\Temp\ccazSBuk.s:339    .text.RegionRU864SetBandTxDone:00000020 $d
C:\Users\EBANO_~1\AppData\Local\Temp\ccazSBuk.s:344    .text.RegionRU864InitDefaults:00000000 $t
C:\Users\EBANO_~1\AppData\Local\Temp\ccazSBuk.s:352    .text.RegionRU864InitDefaults:00000000 RegionRU864InitDefaults
C:\Users\EBANO_~1\AppData\Local\Temp\ccazSBuk.s:454    .text.RegionRU864InitDefaults:00000078 $d
C:\Users\EBANO_~1\AppData\Local\Temp\ccazSBuk.s:460    .text.RegionRU864GetNvmCtx:00000000 $t
C:\Users\EBANO_~1\AppData\Local\Temp\ccazSBuk.s:468    .text.RegionRU864GetNvmCtx:00000000 RegionRU864GetNvmCtx
C:\Users\EBANO_~1\AppData\Local\Temp\ccazSBuk.s:489    .text.RegionRU864GetNvmCtx:00000008 $d
C:\Users\EBANO_~1\AppData\Local\Temp\ccazSBuk.s:494    .text.RegionRU864Verify:00000000 $t
C:\Users\EBANO_~1\AppData\Local\Temp\ccazSBuk.s:502    .text.RegionRU864Verify:00000000 RegionRU864Verify
C:\Users\EBANO_~1\AppData\Local\Temp\ccazSBuk.s:586    .text.RegionRU864Verify:00000044 $d
C:\Users\EBANO_~1\AppData\Local\Temp\ccazSBuk.s:591    .text.RegionRU864ApplyCFList:00000000 $t
C:\Users\EBANO_~1\AppData\Local\Temp\ccazSBuk.s:599    .text.RegionRU864ApplyCFList:00000000 RegionRU864ApplyCFList
C:\Users\EBANO_~1\AppData\Local\Temp\ccazSBuk.s:898    .text.RegionRU864ApplyCFList:00000148 $d
C:\Users\EBANO_~1\AppData\Local\Temp\ccazSBuk.s:908    .text.RegionRU864ChanMaskSet:00000000 $t
C:\Users\EBANO_~1\AppData\Local\Temp\ccazSBuk.s:916    .text.RegionRU864ChanMaskSet:00000000 RegionRU864ChanMaskSet
C:\Users\EBANO_~1\AppData\Local\Temp\ccazSBuk.s:972    .text.RegionRU864ChanMaskSet:00000030 $d
C:\Users\EBANO_~1\AppData\Local\Temp\ccazSBuk.s:977    .text.RegionRU864ComputeRxWindowParameters:00000000 $t
C:\Users\EBANO_~1\AppData\Local\Temp\ccazSBuk.s:985    .text.RegionRU864ComputeRxWindowParameters:00000000 RegionRU864ComputeRxWindowParameters
C:\Users\EBANO_~1\AppData\Local\Temp\ccazSBuk.s:1121   .text.RegionRU864ComputeRxWindowParameters:00000084 $d
C:\Users\EBANO_~1\AppData\Local\Temp\ccazSBuk.s:1129   .text.RegionRU864RxConfig:00000000 $t
C:\Users\EBANO_~1\AppData\Local\Temp\ccazSBuk.s:1137   .text.RegionRU864RxConfig:00000000 RegionRU864RxConfig
C:\Users\EBANO_~1\AppData\Local\Temp\ccazSBuk.s:1346   .text.RegionRU864RxConfig:000000f4 $d
C:\Users\EBANO_~1\AppData\Local\Temp\ccazSBuk.s:1356   .text.RegionRU864TxConfig:00000000 $t
C:\Users\EBANO_~1\AppData\Local\Temp\ccazSBuk.s:1364   .text.RegionRU864TxConfig:00000000 RegionRU864TxConfig
C:\Users\EBANO_~1\AppData\Local\Temp\ccazSBuk.s:1632   .text.RegionRU864TxConfig:00000120 $d
C:\Users\EBANO_~1\AppData\Local\Temp\ccazSBuk.s:1643   .text.RegionRU864LinkAdrReq:00000000 $t
C:\Users\EBANO_~1\AppData\Local\Temp\ccazSBuk.s:1651   .text.RegionRU864LinkAdrReq:00000000 RegionRU864LinkAdrReq
C:\Users\EBANO_~1\AppData\Local\Temp\ccazSBuk.s:2118   .text.RegionRU864LinkAdrReq:0000021c $d
C:\Users\EBANO_~1\AppData\Local\Temp\ccazSBuk.s:2124   .text.RegionRU864RxParamSetupReq:00000000 $t
C:\Users\EBANO_~1\AppData\Local\Temp\ccazSBuk.s:2132   .text.RegionRU864RxParamSetupReq:00000000 RegionRU864RxParamSetupReq
C:\Users\EBANO_~1\AppData\Local\Temp\ccazSBuk.s:2242   .text.RegionRU864RxParamSetupReq:00000058 $d
C:\Users\EBANO_~1\AppData\Local\Temp\ccazSBuk.s:2249   .text.RegionRU864NewChannelReq:00000000 $t
C:\Users\EBANO_~1\AppData\Local\Temp\ccazSBuk.s:2257   .text.RegionRU864NewChannelReq:00000000 RegionRU864NewChannelReq
C:\Users\EBANO_~1\AppData\Local\Temp\ccazSBuk.s:2493   .text.RegionRU864NewChannelReq:000000f4 $d
C:\Users\EBANO_~1\AppData\Local\Temp\ccazSBuk.s:2501   .text.RegionRU864TxParamSetupReq:00000000 $t
C:\Users\EBANO_~1\AppData\Local\Temp\ccazSBuk.s:2509   .text.RegionRU864TxParamSetupReq:00000000 RegionRU864TxParamSetupReq
C:\Users\EBANO_~1\AppData\Local\Temp\ccazSBuk.s:2528   .text.RegionRU864DlChannelReq:00000000 $t
C:\Users\EBANO_~1\AppData\Local\Temp\ccazSBuk.s:2536   .text.RegionRU864DlChannelReq:00000000 RegionRU864DlChannelReq
C:\Users\EBANO_~1\AppData\Local\Temp\ccazSBuk.s:2637   .text.RegionRU864DlChannelReq:00000060 $d
C:\Users\EBANO_~1\AppData\Local\Temp\ccazSBuk.s:2645   .text.RegionRU864AlternateDr:00000000 $t
C:\Users\EBANO_~1\AppData\Local\Temp\ccazSBuk.s:2653   .text.RegionRU864AlternateDr:00000000 RegionRU864AlternateDr
C:\Users\EBANO_~1\AppData\Local\Temp\ccazSBuk.s:2668   .text.RegionRU864CalcBackOff:00000000 $t
C:\Users\EBANO_~1\AppData\Local\Temp\ccazSBuk.s:2676   .text.RegionRU864CalcBackOff:00000000 RegionRU864CalcBackOff
C:\Users\EBANO_~1\AppData\Local\Temp\ccazSBuk.s:2733   .text.RegionRU864CalcBackOff:00000030 $d
C:\Users\EBANO_~1\AppData\Local\Temp\ccazSBuk.s:2738   .text.RegionRU864NextChannel:00000000 $t
C:\Users\EBANO_~1\AppData\Local\Temp\ccazSBuk.s:2746   .text.RegionRU864NextChannel:00000000 RegionRU864NextChannel
C:\Users\EBANO_~1\AppData\Local\Temp\ccazSBuk.s:3102   .text.RegionRU864NextChannel:000001a0 $d
C:\Users\EBANO_~1\AppData\Local\Temp\ccazSBuk.s:3107   .text.RegionRU864ChannelAdd:00000000 $t
C:\Users\EBANO_~1\AppData\Local\Temp\ccazSBuk.s:3115   .text.RegionRU864ChannelAdd:00000000 RegionRU864ChannelAdd
ARM GAS  C:\Users\EBANO_~1\AppData\Local\Temp\ccazSBuk.s 			page 329


C:\Users\EBANO_~1\AppData\Local\Temp\ccazSBuk.s:3308   .text.RegionRU864ChannelAdd:000000c8 $d
C:\Users\EBANO_~1\AppData\Local\Temp\ccazSBuk.s:3316   .text.RegionRU864ChannelsRemove:00000000 $t
C:\Users\EBANO_~1\AppData\Local\Temp\ccazSBuk.s:3324   .text.RegionRU864ChannelsRemove:00000000 RegionRU864ChannelsRemove
C:\Users\EBANO_~1\AppData\Local\Temp\ccazSBuk.s:3372   .text.RegionRU864ChannelsRemove:0000002c $d
C:\Users\EBANO_~1\AppData\Local\Temp\ccazSBuk.s:3377   .text.RegionRU864SetContinuousWave:00000000 $t
C:\Users\EBANO_~1\AppData\Local\Temp\ccazSBuk.s:3385   .text.RegionRU864SetContinuousWave:00000000 RegionRU864SetContinuousWave
C:\Users\EBANO_~1\AppData\Local\Temp\ccazSBuk.s:3475   .text.RegionRU864SetContinuousWave:00000048 $d
C:\Users\EBANO_~1\AppData\Local\Temp\ccazSBuk.s:3481   .text.RegionRU864ApplyDrOffset:00000000 $t
C:\Users\EBANO_~1\AppData\Local\Temp\ccazSBuk.s:3489   .text.RegionRU864ApplyDrOffset:00000000 RegionRU864ApplyDrOffset
C:\Users\EBANO_~1\AppData\Local\Temp\ccazSBuk.s:3515   .text.RegionRU864RxBeaconSetup:00000000 $t
C:\Users\EBANO_~1\AppData\Local\Temp\ccazSBuk.s:3523   .text.RegionRU864RxBeaconSetup:00000000 RegionRU864RxBeaconSetup
C:\Users\EBANO_~1\AppData\Local\Temp\ccazSBuk.s:3583   .text.RegionRU864RxBeaconSetup:00000030 $d
C:\Users\EBANO_~1\AppData\Local\Temp\ccazSBuk.s:3589   .bss:00000000 $d
C:\Users\EBANO_~1\AppData\Local\Temp\ccazSBuk.s:3593   .bss:00000000 NvmCtx
C:\Users\EBANO_~1\AppData\Local\Temp\ccazSBuk.s:3600   .rodata:000000cc BandwidthsRU864
C:\Users\EBANO_~1\AppData\Local\Temp\ccazSBuk.s:3611   .rodata:000000ec DataratesRU864
C:\Users\EBANO_~1\AppData\Local\Temp\ccazSBuk.s:3624   .rodata:000000f4 MaxPayloadOfDatarateRU864
C:\Users\EBANO_~1\AppData\Local\Temp\ccazSBuk.s:3635   .rodata:000000fc MaxPayloadOfDatarateRepeaterRU864

UNDEFINED SYMBOLS
randr
RegionCommonSetBandTxDone
memcpy1
RegionCommonChanMaskCopy
RegionCommonValueInRange
memset
RegionCommonChanDisable
Radio
RegionCommonComputeSymbolTimeLoRa
RegionCommonComputeRxWindowParameters
RegionCommonComputeSymbolTimeFsk
RegionCommonComputeTxPower
RegionCommonParseLinkAdrReq
RegionCommonLinkAdrReqVerifyParams
memset1
RegionCommonCalcBackOff
RegionCommonCountChannels
TimerGetElapsedTime
RegionCommonUpdateBandTimeOff
RegionCommonRxBeaconSetup
