ARM GAS  C:\Users\EBANO_~1\AppData\Local\Temp\ccJkfoGk.s 			page 1


   1              		.cpu cortex-m0plus
   2              		.eabi_attribute 20, 1
   3              		.eabi_attribute 21, 1
   4              		.eabi_attribute 23, 3
   5              		.eabi_attribute 24, 1
   6              		.eabi_attribute 25, 1
   7              		.eabi_attribute 26, 1
   8              		.eabi_attribute 30, 2
   9              		.eabi_attribute 34, 0
  10              		.eabi_attribute 18, 4
  11              		.file	"RegionEU868.c"
  12              		.text
  13              	.Ltext0:
  14              		.cfi_sections	.debug_frame
  15              		.section	.text.RegionEU868GetPhyParam,"ax",%progbits
  16              		.align	1
  17              		.p2align 2,,3
  18              		.global	RegionEU868GetPhyParam
  19              		.syntax unified
  20              		.code	16
  21              		.thumb_func
  22              		.fpu softvfp
  23              		.type	RegionEU868GetPhyParam, %function
  24              	RegionEU868GetPhyParam:
  25              	.LFB44:
  26              		.file 1 "../../../../../../Middlewares/Third_Party/LoRaWAN/Mac/region/RegionEU868.c"
   1:../../../../../../Middlewares/Third_Party/LoRaWAN/Mac/region/RegionEU868.c **** /*!
   2:../../../../../../Middlewares/Third_Party/LoRaWAN/Mac/region/RegionEU868.c ****  * \file      RegionEU868.c
   3:../../../../../../Middlewares/Third_Party/LoRaWAN/Mac/region/RegionEU868.c ****  *
   4:../../../../../../Middlewares/Third_Party/LoRaWAN/Mac/region/RegionEU868.c ****  * \brief     Region implementation for EU868
   5:../../../../../../Middlewares/Third_Party/LoRaWAN/Mac/region/RegionEU868.c ****  *
   6:../../../../../../Middlewares/Third_Party/LoRaWAN/Mac/region/RegionEU868.c ****  * \copyright Revised BSD License, see section \ref LICENSE.
   7:../../../../../../Middlewares/Third_Party/LoRaWAN/Mac/region/RegionEU868.c ****  *
   8:../../../../../../Middlewares/Third_Party/LoRaWAN/Mac/region/RegionEU868.c ****  * \code
   9:../../../../../../Middlewares/Third_Party/LoRaWAN/Mac/region/RegionEU868.c ****  *                ______                              _
  10:../../../../../../Middlewares/Third_Party/LoRaWAN/Mac/region/RegionEU868.c ****  *               / _____)             _              | |
  11:../../../../../../Middlewares/Third_Party/LoRaWAN/Mac/region/RegionEU868.c ****  *              ( (____  _____ ____ _| |_ _____  ____| |__
  12:../../../../../../Middlewares/Third_Party/LoRaWAN/Mac/region/RegionEU868.c ****  *               \____ \| ___ |    (_   _) ___ |/ ___)  _ \
  13:../../../../../../Middlewares/Third_Party/LoRaWAN/Mac/region/RegionEU868.c ****  *               _____) ) ____| | | || |_| ____( (___| | | |
  14:../../../../../../Middlewares/Third_Party/LoRaWAN/Mac/region/RegionEU868.c ****  *              (______/|_____)_|_|_| \__)_____)\____)_| |_|
  15:../../../../../../Middlewares/Third_Party/LoRaWAN/Mac/region/RegionEU868.c ****  *              (C)2013-2017 Semtech
  16:../../../../../../Middlewares/Third_Party/LoRaWAN/Mac/region/RegionEU868.c ****  *
  17:../../../../../../Middlewares/Third_Party/LoRaWAN/Mac/region/RegionEU868.c ****  *               ___ _____ _   ___ _  _____ ___  ___  ___ ___
  18:../../../../../../Middlewares/Third_Party/LoRaWAN/Mac/region/RegionEU868.c ****  *              / __|_   _/_\ / __| |/ / __/ _ \| _ \/ __| __|
  19:../../../../../../Middlewares/Third_Party/LoRaWAN/Mac/region/RegionEU868.c ****  *              \__ \ | |/ _ \ (__| ' <| _| (_) |   / (__| _|
  20:../../../../../../Middlewares/Third_Party/LoRaWAN/Mac/region/RegionEU868.c ****  *              |___/ |_/_/ \_\___|_|\_\_| \___/|_|_\\___|___|
  21:../../../../../../Middlewares/Third_Party/LoRaWAN/Mac/region/RegionEU868.c ****  *              embedded.connectivity.solutions===============
  22:../../../../../../Middlewares/Third_Party/LoRaWAN/Mac/region/RegionEU868.c ****  *
  23:../../../../../../Middlewares/Third_Party/LoRaWAN/Mac/region/RegionEU868.c ****  * \endcode
  24:../../../../../../Middlewares/Third_Party/LoRaWAN/Mac/region/RegionEU868.c ****  *
  25:../../../../../../Middlewares/Third_Party/LoRaWAN/Mac/region/RegionEU868.c ****  * \author    Miguel Luis ( Semtech )
  26:../../../../../../Middlewares/Third_Party/LoRaWAN/Mac/region/RegionEU868.c ****  *
  27:../../../../../../Middlewares/Third_Party/LoRaWAN/Mac/region/RegionEU868.c ****  * \author    Gregory Cristian ( Semtech )
  28:../../../../../../Middlewares/Third_Party/LoRaWAN/Mac/region/RegionEU868.c ****  *
  29:../../../../../../Middlewares/Third_Party/LoRaWAN/Mac/region/RegionEU868.c ****  * \author    Daniel Jaeckle ( STACKFORCE )
  30:../../../../../../Middlewares/Third_Party/LoRaWAN/Mac/region/RegionEU868.c **** */
  31:../../../../../../Middlewares/Third_Party/LoRaWAN/Mac/region/RegionEU868.c **** #include "utilities.h"
ARM GAS  C:\Users\EBANO_~1\AppData\Local\Temp\ccJkfoGk.s 			page 2


  32:../../../../../../Middlewares/Third_Party/LoRaWAN/Mac/region/RegionEU868.c **** 
  33:../../../../../../Middlewares/Third_Party/LoRaWAN/Mac/region/RegionEU868.c **** #include "RegionCommon.h"
  34:../../../../../../Middlewares/Third_Party/LoRaWAN/Mac/region/RegionEU868.c **** #include "RegionEU868.h"
  35:../../../../../../Middlewares/Third_Party/LoRaWAN/Mac/region/RegionEU868.c **** #include "util_console.h"
  36:../../../../../../Middlewares/Third_Party/LoRaWAN/Mac/region/RegionEU868.c **** 
  37:../../../../../../Middlewares/Third_Party/LoRaWAN/Mac/region/RegionEU868.c **** // Definitions
  38:../../../../../../Middlewares/Third_Party/LoRaWAN/Mac/region/RegionEU868.c **** #define CHANNELS_MASK_SIZE              1
  39:../../../../../../Middlewares/Third_Party/LoRaWAN/Mac/region/RegionEU868.c **** 
  40:../../../../../../Middlewares/Third_Party/LoRaWAN/Mac/region/RegionEU868.c **** /*!
  41:../../../../../../Middlewares/Third_Party/LoRaWAN/Mac/region/RegionEU868.c ****  * Region specific context
  42:../../../../../../Middlewares/Third_Party/LoRaWAN/Mac/region/RegionEU868.c ****  */
  43:../../../../../../Middlewares/Third_Party/LoRaWAN/Mac/region/RegionEU868.c **** typedef struct sRegionEU868NvmCtx
  44:../../../../../../Middlewares/Third_Party/LoRaWAN/Mac/region/RegionEU868.c **** {
  45:../../../../../../Middlewares/Third_Party/LoRaWAN/Mac/region/RegionEU868.c ****     /*!
  46:../../../../../../Middlewares/Third_Party/LoRaWAN/Mac/region/RegionEU868.c ****      * LoRaMAC channels
  47:../../../../../../Middlewares/Third_Party/LoRaWAN/Mac/region/RegionEU868.c ****      */
  48:../../../../../../Middlewares/Third_Party/LoRaWAN/Mac/region/RegionEU868.c ****     ChannelParams_t Channels[ EU868_MAX_NB_CHANNELS ];
  49:../../../../../../Middlewares/Third_Party/LoRaWAN/Mac/region/RegionEU868.c ****     /*!
  50:../../../../../../Middlewares/Third_Party/LoRaWAN/Mac/region/RegionEU868.c ****      * LoRaMac bands
  51:../../../../../../Middlewares/Third_Party/LoRaWAN/Mac/region/RegionEU868.c ****      */
  52:../../../../../../Middlewares/Third_Party/LoRaWAN/Mac/region/RegionEU868.c ****     Band_t Bands[ EU868_MAX_NB_BANDS ];
  53:../../../../../../Middlewares/Third_Party/LoRaWAN/Mac/region/RegionEU868.c ****     /*!
  54:../../../../../../Middlewares/Third_Party/LoRaWAN/Mac/region/RegionEU868.c ****      * LoRaMac channels mask
  55:../../../../../../Middlewares/Third_Party/LoRaWAN/Mac/region/RegionEU868.c ****      */
  56:../../../../../../Middlewares/Third_Party/LoRaWAN/Mac/region/RegionEU868.c ****     uint16_t ChannelsMask[ CHANNELS_MASK_SIZE ];
  57:../../../../../../Middlewares/Third_Party/LoRaWAN/Mac/region/RegionEU868.c ****     /*!
  58:../../../../../../Middlewares/Third_Party/LoRaWAN/Mac/region/RegionEU868.c ****      * LoRaMac channels default mask
  59:../../../../../../Middlewares/Third_Party/LoRaWAN/Mac/region/RegionEU868.c ****      */
  60:../../../../../../Middlewares/Third_Party/LoRaWAN/Mac/region/RegionEU868.c ****     uint16_t ChannelsDefaultMask[ CHANNELS_MASK_SIZE ];
  61:../../../../../../Middlewares/Third_Party/LoRaWAN/Mac/region/RegionEU868.c **** }RegionEU868NvmCtx_t;
  62:../../../../../../Middlewares/Third_Party/LoRaWAN/Mac/region/RegionEU868.c **** 
  63:../../../../../../Middlewares/Third_Party/LoRaWAN/Mac/region/RegionEU868.c **** /*
  64:../../../../../../Middlewares/Third_Party/LoRaWAN/Mac/region/RegionEU868.c ****  * Non-volatile module context.
  65:../../../../../../Middlewares/Third_Party/LoRaWAN/Mac/region/RegionEU868.c ****  */
  66:../../../../../../Middlewares/Third_Party/LoRaWAN/Mac/region/RegionEU868.c **** static RegionEU868NvmCtx_t NvmCtx;
  67:../../../../../../Middlewares/Third_Party/LoRaWAN/Mac/region/RegionEU868.c **** 
  68:../../../../../../Middlewares/Third_Party/LoRaWAN/Mac/region/RegionEU868.c **** // Static functions
  69:../../../../../../Middlewares/Third_Party/LoRaWAN/Mac/region/RegionEU868.c **** static int8_t GetNextLowerTxDr( int8_t dr, int8_t minDr )
  70:../../../../../../Middlewares/Third_Party/LoRaWAN/Mac/region/RegionEU868.c **** {
  71:../../../../../../Middlewares/Third_Party/LoRaWAN/Mac/region/RegionEU868.c ****     uint8_t nextLowerDr = 0;
  72:../../../../../../Middlewares/Third_Party/LoRaWAN/Mac/region/RegionEU868.c **** 
  73:../../../../../../Middlewares/Third_Party/LoRaWAN/Mac/region/RegionEU868.c ****     if( dr == minDr )
  74:../../../../../../Middlewares/Third_Party/LoRaWAN/Mac/region/RegionEU868.c ****     {
  75:../../../../../../Middlewares/Third_Party/LoRaWAN/Mac/region/RegionEU868.c ****         nextLowerDr = minDr;
  76:../../../../../../Middlewares/Third_Party/LoRaWAN/Mac/region/RegionEU868.c ****     }
  77:../../../../../../Middlewares/Third_Party/LoRaWAN/Mac/region/RegionEU868.c ****     else
  78:../../../../../../Middlewares/Third_Party/LoRaWAN/Mac/region/RegionEU868.c ****     {
  79:../../../../../../Middlewares/Third_Party/LoRaWAN/Mac/region/RegionEU868.c ****         nextLowerDr = dr - 1;
  80:../../../../../../Middlewares/Third_Party/LoRaWAN/Mac/region/RegionEU868.c ****     }
  81:../../../../../../Middlewares/Third_Party/LoRaWAN/Mac/region/RegionEU868.c ****     return nextLowerDr;
  82:../../../../../../Middlewares/Third_Party/LoRaWAN/Mac/region/RegionEU868.c **** }
  83:../../../../../../Middlewares/Third_Party/LoRaWAN/Mac/region/RegionEU868.c **** 
  84:../../../../../../Middlewares/Third_Party/LoRaWAN/Mac/region/RegionEU868.c **** static uint32_t GetBandwidth( uint32_t drIndex )
  85:../../../../../../Middlewares/Third_Party/LoRaWAN/Mac/region/RegionEU868.c **** {
  86:../../../../../../Middlewares/Third_Party/LoRaWAN/Mac/region/RegionEU868.c ****     switch( BandwidthsEU868[drIndex] )
  87:../../../../../../Middlewares/Third_Party/LoRaWAN/Mac/region/RegionEU868.c ****     {
  88:../../../../../../Middlewares/Third_Party/LoRaWAN/Mac/region/RegionEU868.c ****         default:
ARM GAS  C:\Users\EBANO_~1\AppData\Local\Temp\ccJkfoGk.s 			page 3


  89:../../../../../../Middlewares/Third_Party/LoRaWAN/Mac/region/RegionEU868.c ****         case 125000:
  90:../../../../../../Middlewares/Third_Party/LoRaWAN/Mac/region/RegionEU868.c ****             return 0;
  91:../../../../../../Middlewares/Third_Party/LoRaWAN/Mac/region/RegionEU868.c ****         case 250000:
  92:../../../../../../Middlewares/Third_Party/LoRaWAN/Mac/region/RegionEU868.c ****             return 1;
  93:../../../../../../Middlewares/Third_Party/LoRaWAN/Mac/region/RegionEU868.c ****         case 500000:
  94:../../../../../../Middlewares/Third_Party/LoRaWAN/Mac/region/RegionEU868.c ****             return 2;
  95:../../../../../../Middlewares/Third_Party/LoRaWAN/Mac/region/RegionEU868.c ****     }
  96:../../../../../../Middlewares/Third_Party/LoRaWAN/Mac/region/RegionEU868.c **** }
  97:../../../../../../Middlewares/Third_Party/LoRaWAN/Mac/region/RegionEU868.c **** 
  98:../../../../../../Middlewares/Third_Party/LoRaWAN/Mac/region/RegionEU868.c **** static int8_t LimitTxPower( int8_t txPower, int8_t maxBandTxPower, int8_t datarate, uint16_t* chann
  99:../../../../../../Middlewares/Third_Party/LoRaWAN/Mac/region/RegionEU868.c **** {
 100:../../../../../../Middlewares/Third_Party/LoRaWAN/Mac/region/RegionEU868.c ****     int8_t txPowerResult = txPower;
 101:../../../../../../Middlewares/Third_Party/LoRaWAN/Mac/region/RegionEU868.c **** 
 102:../../../../../../Middlewares/Third_Party/LoRaWAN/Mac/region/RegionEU868.c ****     // Limit tx power to the band max
 103:../../../../../../Middlewares/Third_Party/LoRaWAN/Mac/region/RegionEU868.c ****     txPowerResult =  MAX( txPower, maxBandTxPower );
 104:../../../../../../Middlewares/Third_Party/LoRaWAN/Mac/region/RegionEU868.c **** 
 105:../../../../../../Middlewares/Third_Party/LoRaWAN/Mac/region/RegionEU868.c ****     return txPowerResult;
 106:../../../../../../Middlewares/Third_Party/LoRaWAN/Mac/region/RegionEU868.c **** }
 107:../../../../../../Middlewares/Third_Party/LoRaWAN/Mac/region/RegionEU868.c **** 
 108:../../../../../../Middlewares/Third_Party/LoRaWAN/Mac/region/RegionEU868.c **** static bool VerifyRfFreq( uint32_t freq, uint8_t *band )
 109:../../../../../../Middlewares/Third_Party/LoRaWAN/Mac/region/RegionEU868.c **** {
 110:../../../../../../Middlewares/Third_Party/LoRaWAN/Mac/region/RegionEU868.c ****     // Check radio driver support
 111:../../../../../../Middlewares/Third_Party/LoRaWAN/Mac/region/RegionEU868.c ****     if( Radio.CheckRfFrequency( freq ) == false )
 112:../../../../../../Middlewares/Third_Party/LoRaWAN/Mac/region/RegionEU868.c ****     {
 113:../../../../../../Middlewares/Third_Party/LoRaWAN/Mac/region/RegionEU868.c ****         return false;
 114:../../../../../../Middlewares/Third_Party/LoRaWAN/Mac/region/RegionEU868.c ****     }
 115:../../../../../../Middlewares/Third_Party/LoRaWAN/Mac/region/RegionEU868.c **** 
 116:../../../../../../Middlewares/Third_Party/LoRaWAN/Mac/region/RegionEU868.c ****     // Check frequency bands
 117:../../../../../../Middlewares/Third_Party/LoRaWAN/Mac/region/RegionEU868.c ****     if( ( freq >= 863000000 ) && ( freq < 865000000 ) )
 118:../../../../../../Middlewares/Third_Party/LoRaWAN/Mac/region/RegionEU868.c ****     {
 119:../../../../../../Middlewares/Third_Party/LoRaWAN/Mac/region/RegionEU868.c ****         *band = 2;
 120:../../../../../../Middlewares/Third_Party/LoRaWAN/Mac/region/RegionEU868.c ****     }
 121:../../../../../../Middlewares/Third_Party/LoRaWAN/Mac/region/RegionEU868.c ****     else if( ( freq >= 865000000 ) && ( freq <= 868000000 ) )
 122:../../../../../../Middlewares/Third_Party/LoRaWAN/Mac/region/RegionEU868.c ****     {
 123:../../../../../../Middlewares/Third_Party/LoRaWAN/Mac/region/RegionEU868.c ****         *band = 0;
 124:../../../../../../Middlewares/Third_Party/LoRaWAN/Mac/region/RegionEU868.c ****     }
 125:../../../../../../Middlewares/Third_Party/LoRaWAN/Mac/region/RegionEU868.c ****     else if( ( freq > 868000000 ) && ( freq <= 868600000 ) )
 126:../../../../../../Middlewares/Third_Party/LoRaWAN/Mac/region/RegionEU868.c ****     {
 127:../../../../../../Middlewares/Third_Party/LoRaWAN/Mac/region/RegionEU868.c ****         *band = 1;
 128:../../../../../../Middlewares/Third_Party/LoRaWAN/Mac/region/RegionEU868.c ****     }
 129:../../../../../../Middlewares/Third_Party/LoRaWAN/Mac/region/RegionEU868.c ****     else if( ( freq >= 868700000 ) && ( freq <= 869200000 ) )
 130:../../../../../../Middlewares/Third_Party/LoRaWAN/Mac/region/RegionEU868.c ****     {
 131:../../../../../../Middlewares/Third_Party/LoRaWAN/Mac/region/RegionEU868.c ****         *band = 2;
 132:../../../../../../Middlewares/Third_Party/LoRaWAN/Mac/region/RegionEU868.c ****     }
 133:../../../../../../Middlewares/Third_Party/LoRaWAN/Mac/region/RegionEU868.c ****     else if( ( freq >= 869400000 ) && ( freq <= 869650000 ) )
 134:../../../../../../Middlewares/Third_Party/LoRaWAN/Mac/region/RegionEU868.c ****     {
 135:../../../../../../Middlewares/Third_Party/LoRaWAN/Mac/region/RegionEU868.c ****         *band = 3;
 136:../../../../../../Middlewares/Third_Party/LoRaWAN/Mac/region/RegionEU868.c ****     }
 137:../../../../../../Middlewares/Third_Party/LoRaWAN/Mac/region/RegionEU868.c ****     else if( ( freq >= 869700000 ) && ( freq <= 870000000 ) )
 138:../../../../../../Middlewares/Third_Party/LoRaWAN/Mac/region/RegionEU868.c ****     {
 139:../../../../../../Middlewares/Third_Party/LoRaWAN/Mac/region/RegionEU868.c ****         *band = 4;
 140:../../../../../../Middlewares/Third_Party/LoRaWAN/Mac/region/RegionEU868.c ****     }
 141:../../../../../../Middlewares/Third_Party/LoRaWAN/Mac/region/RegionEU868.c ****     else
 142:../../../../../../Middlewares/Third_Party/LoRaWAN/Mac/region/RegionEU868.c ****     {
 143:../../../../../../Middlewares/Third_Party/LoRaWAN/Mac/region/RegionEU868.c ****         return false;
 144:../../../../../../Middlewares/Third_Party/LoRaWAN/Mac/region/RegionEU868.c ****     }
 145:../../../../../../Middlewares/Third_Party/LoRaWAN/Mac/region/RegionEU868.c ****     return true;
ARM GAS  C:\Users\EBANO_~1\AppData\Local\Temp\ccJkfoGk.s 			page 4


 146:../../../../../../Middlewares/Third_Party/LoRaWAN/Mac/region/RegionEU868.c **** }
 147:../../../../../../Middlewares/Third_Party/LoRaWAN/Mac/region/RegionEU868.c **** 
 148:../../../../../../Middlewares/Third_Party/LoRaWAN/Mac/region/RegionEU868.c **** static uint8_t CountNbOfEnabledChannels( bool joined, uint8_t datarate, uint16_t* channelsMask, Cha
 149:../../../../../../Middlewares/Third_Party/LoRaWAN/Mac/region/RegionEU868.c **** {
 150:../../../../../../Middlewares/Third_Party/LoRaWAN/Mac/region/RegionEU868.c ****     uint8_t nbEnabledChannels = 0;
 151:../../../../../../Middlewares/Third_Party/LoRaWAN/Mac/region/RegionEU868.c ****     uint8_t delayTransmission = 0;
 152:../../../../../../Middlewares/Third_Party/LoRaWAN/Mac/region/RegionEU868.c **** 
 153:../../../../../../Middlewares/Third_Party/LoRaWAN/Mac/region/RegionEU868.c ****     for( uint8_t i = 0, k = 0; i < EU868_MAX_NB_CHANNELS; i += 16, k++ )
 154:../../../../../../Middlewares/Third_Party/LoRaWAN/Mac/region/RegionEU868.c ****     {
 155:../../../../../../Middlewares/Third_Party/LoRaWAN/Mac/region/RegionEU868.c ****         for( uint8_t j = 0; j < 16; j++ )
 156:../../../../../../Middlewares/Third_Party/LoRaWAN/Mac/region/RegionEU868.c ****         {
 157:../../../../../../Middlewares/Third_Party/LoRaWAN/Mac/region/RegionEU868.c ****             if( ( channelsMask[k] & ( 1 << j ) ) != 0 )
 158:../../../../../../Middlewares/Third_Party/LoRaWAN/Mac/region/RegionEU868.c ****             {
 159:../../../../../../Middlewares/Third_Party/LoRaWAN/Mac/region/RegionEU868.c ****                 if( channels[i + j].Frequency == 0 )
 160:../../../../../../Middlewares/Third_Party/LoRaWAN/Mac/region/RegionEU868.c ****                 { // Check if the channel is enabled
 161:../../../../../../Middlewares/Third_Party/LoRaWAN/Mac/region/RegionEU868.c ****                     continue;
 162:../../../../../../Middlewares/Third_Party/LoRaWAN/Mac/region/RegionEU868.c ****                 }
 163:../../../../../../Middlewares/Third_Party/LoRaWAN/Mac/region/RegionEU868.c ****                 if( joined == false )
 164:../../../../../../Middlewares/Third_Party/LoRaWAN/Mac/region/RegionEU868.c ****                 {
 165:../../../../../../Middlewares/Third_Party/LoRaWAN/Mac/region/RegionEU868.c ****                     if( ( EU868_JOIN_CHANNELS & ( 1 << j ) ) == 0 )
 166:../../../../../../Middlewares/Third_Party/LoRaWAN/Mac/region/RegionEU868.c ****                     {
 167:../../../../../../Middlewares/Third_Party/LoRaWAN/Mac/region/RegionEU868.c ****                         continue;
 168:../../../../../../Middlewares/Third_Party/LoRaWAN/Mac/region/RegionEU868.c ****                     }
 169:../../../../../../Middlewares/Third_Party/LoRaWAN/Mac/region/RegionEU868.c ****                 }
 170:../../../../../../Middlewares/Third_Party/LoRaWAN/Mac/region/RegionEU868.c ****                 if( RegionCommonValueInRange( datarate, channels[i + j].DrRange.Fields.Min,
 171:../../../../../../Middlewares/Third_Party/LoRaWAN/Mac/region/RegionEU868.c ****                                               channels[i + j].DrRange.Fields.Max ) == false )
 172:../../../../../../Middlewares/Third_Party/LoRaWAN/Mac/region/RegionEU868.c ****                 { // Check if the current channel selection supports the given datarate
 173:../../../../../../Middlewares/Third_Party/LoRaWAN/Mac/region/RegionEU868.c ****                     continue;
 174:../../../../../../Middlewares/Third_Party/LoRaWAN/Mac/region/RegionEU868.c ****                 }
 175:../../../../../../Middlewares/Third_Party/LoRaWAN/Mac/region/RegionEU868.c ****                 if( bands[channels[i + j].Band].TimeOff > 0 )
 176:../../../../../../Middlewares/Third_Party/LoRaWAN/Mac/region/RegionEU868.c ****                 { // Check if the band is available for transmission
 177:../../../../../../Middlewares/Third_Party/LoRaWAN/Mac/region/RegionEU868.c ****                     delayTransmission++;
 178:../../../../../../Middlewares/Third_Party/LoRaWAN/Mac/region/RegionEU868.c ****                     continue;
 179:../../../../../../Middlewares/Third_Party/LoRaWAN/Mac/region/RegionEU868.c ****                 }
 180:../../../../../../Middlewares/Third_Party/LoRaWAN/Mac/region/RegionEU868.c ****                 enabledChannels[nbEnabledChannels++] = i + j;
 181:../../../../../../Middlewares/Third_Party/LoRaWAN/Mac/region/RegionEU868.c ****             }
 182:../../../../../../Middlewares/Third_Party/LoRaWAN/Mac/region/RegionEU868.c ****         }
 183:../../../../../../Middlewares/Third_Party/LoRaWAN/Mac/region/RegionEU868.c ****     }
 184:../../../../../../Middlewares/Third_Party/LoRaWAN/Mac/region/RegionEU868.c **** 
 185:../../../../../../Middlewares/Third_Party/LoRaWAN/Mac/region/RegionEU868.c ****     *delayTx = delayTransmission;
 186:../../../../../../Middlewares/Third_Party/LoRaWAN/Mac/region/RegionEU868.c ****     return nbEnabledChannels;
 187:../../../../../../Middlewares/Third_Party/LoRaWAN/Mac/region/RegionEU868.c **** }
 188:../../../../../../Middlewares/Third_Party/LoRaWAN/Mac/region/RegionEU868.c **** 
 189:../../../../../../Middlewares/Third_Party/LoRaWAN/Mac/region/RegionEU868.c **** PhyParam_t RegionEU868GetPhyParam( GetPhyParams_t* getPhy )
 190:../../../../../../Middlewares/Third_Party/LoRaWAN/Mac/region/RegionEU868.c **** {
  27              		.loc 1 190 0
  28              		.cfi_startproc
  29              		@ args = 0, pretend = 0, frame = 8
  30              		@ frame_needed = 0, uses_anonymous_args = 0
  31              	.LVL0:
 191:../../../../../../Middlewares/Third_Party/LoRaWAN/Mac/region/RegionEU868.c ****     PhyParam_t phyParam = { 0 };
  32              		.loc 1 191 0
  33 0000 0023     		movs	r3, #0
 190:../../../../../../Middlewares/Third_Party/LoRaWAN/Mac/region/RegionEU868.c ****     PhyParam_t phyParam = { 0 };
  34              		.loc 1 190 0
  35 0002 00B5     		push	{lr}
  36              	.LCFI0:
ARM GAS  C:\Users\EBANO_~1\AppData\Local\Temp\ccJkfoGk.s 			page 5


  37              		.cfi_def_cfa_offset 4
  38              		.cfi_offset 14, -4
  39 0004 83B0     		sub	sp, sp, #12
  40              	.LCFI1:
  41              		.cfi_def_cfa_offset 16
  42              		.loc 1 191 0
  43 0006 0093     		str	r3, [sp]
 192:../../../../../../Middlewares/Third_Party/LoRaWAN/Mac/region/RegionEU868.c **** 
 193:../../../../../../Middlewares/Third_Party/LoRaWAN/Mac/region/RegionEU868.c ****     switch( getPhy->Attribute )
  44              		.loc 1 193 0
  45 0008 0378     		ldrb	r3, [r0]
  46 000a 0A3B     		subs	r3, r3, #10
  47 000c DBB2     		uxtb	r3, r3
  48 000e 2A2B     		cmp	r3, #42
  49 0010 05D8     		bhi	.L2
  50 0012 314A     		ldr	r2, .L30
  51 0014 9B00     		lsls	r3, r3, #2
  52 0016 D358     		ldr	r3, [r2, r3]
  53 0018 9F46     		mov	pc, r3
  54              		.section	.rodata
  55              		.align	2
  56              	.L4:
  57 0000 B0000000 		.word	.L3
  58 0004 30000000 		.word	.L5
  59 0008 CA000000 		.word	.L6
  60 000c BC000000 		.word	.L7
  61 0010 B6000000 		.word	.L8
  62 0014 60000000 		.word	.L9
  63 0018 58000000 		.word	.L10
  64 001c 50000000 		.word	.L11
  65 0020 66000000 		.word	.L12
  66 0024 94000000 		.word	.L13
  67 0028 8C000000 		.word	.L14
  68 002c 9A000000 		.word	.L15
  69 0030 1E000000 		.word	.L2
  70 0034 24000000 		.word	.L16
  71 0038 1E000000 		.word	.L2
  72 003c 42000000 		.word	.L17
  73 0040 1A000000 		.word	.L18
  74 0044 3C000000 		.word	.L19
  75 0048 36000000 		.word	.L20
  76 004c 1E000000 		.word	.L2
  77 0050 1E000000 		.word	.L2
  78 0054 48000000 		.word	.L21
  79 0058 6C000000 		.word	.L22
  80 005c 7A000000 		.word	.L23
  81 0060 1E000000 		.word	.L2
  82 0064 1E000000 		.word	.L2
  83 0068 1E000000 		.word	.L2
  84 006c 1E000000 		.word	.L2
  85 0070 1E000000 		.word	.L2
  86 0074 1E000000 		.word	.L2
  87 0078 1E000000 		.word	.L2
  88 007c 1E000000 		.word	.L2
  89 0080 1E000000 		.word	.L2
  90 0084 1E000000 		.word	.L2
  91 0088 1E000000 		.word	.L2
ARM GAS  C:\Users\EBANO_~1\AppData\Local\Temp\ccJkfoGk.s 			page 6


  92 008c 1E000000 		.word	.L2
  93 0090 1E000000 		.word	.L2
  94 0094 24000000 		.word	.L16
  95 0098 72000000 		.word	.L24
  96 009c 2A000000 		.word	.L25
  97 00a0 1E000000 		.word	.L2
  98 00a4 1E000000 		.word	.L2
  99 00a8 2A000000 		.word	.L25
 100              		.section	.text.RegionEU868GetPhyParam
 101              	.L18:
 194:../../../../../../Middlewares/Third_Party/LoRaWAN/Mac/region/RegionEU868.c ****     {
 195:../../../../../../Middlewares/Third_Party/LoRaWAN/Mac/region/RegionEU868.c ****         case PHY_MIN_RX_DR:
 196:../../../../../../Middlewares/Third_Party/LoRaWAN/Mac/region/RegionEU868.c ****         {
 197:../../../../../../Middlewares/Third_Party/LoRaWAN/Mac/region/RegionEU868.c ****             phyParam.Value = EU868_RX_MIN_DATARATE;
 198:../../../../../../Middlewares/Third_Party/LoRaWAN/Mac/region/RegionEU868.c ****             break;
 199:../../../../../../Middlewares/Third_Party/LoRaWAN/Mac/region/RegionEU868.c ****         }
 200:../../../../../../Middlewares/Third_Party/LoRaWAN/Mac/region/RegionEU868.c ****         case PHY_MIN_TX_DR:
 201:../../../../../../Middlewares/Third_Party/LoRaWAN/Mac/region/RegionEU868.c ****         {
 202:../../../../../../Middlewares/Third_Party/LoRaWAN/Mac/region/RegionEU868.c ****             phyParam.Value = EU868_TX_MIN_DATARATE;
 203:../../../../../../Middlewares/Third_Party/LoRaWAN/Mac/region/RegionEU868.c ****             break;
 204:../../../../../../Middlewares/Third_Party/LoRaWAN/Mac/region/RegionEU868.c ****         }
 205:../../../../../../Middlewares/Third_Party/LoRaWAN/Mac/region/RegionEU868.c ****         case PHY_DEF_TX_DR:
 206:../../../../../../Middlewares/Third_Party/LoRaWAN/Mac/region/RegionEU868.c ****         {
 207:../../../../../../Middlewares/Third_Party/LoRaWAN/Mac/region/RegionEU868.c ****             phyParam.Value = EU868_DEFAULT_DATARATE;
 208:../../../../../../Middlewares/Third_Party/LoRaWAN/Mac/region/RegionEU868.c ****             break;
 209:../../../../../../Middlewares/Third_Party/LoRaWAN/Mac/region/RegionEU868.c ****         }
 210:../../../../../../Middlewares/Third_Party/LoRaWAN/Mac/region/RegionEU868.c ****         case PHY_NEXT_LOWER_TX_DR:
 211:../../../../../../Middlewares/Third_Party/LoRaWAN/Mac/region/RegionEU868.c ****         {
 212:../../../../../../Middlewares/Third_Party/LoRaWAN/Mac/region/RegionEU868.c ****             phyParam.Value = GetNextLowerTxDr( getPhy->Datarate, EU868_TX_MIN_DATARATE );
 213:../../../../../../Middlewares/Third_Party/LoRaWAN/Mac/region/RegionEU868.c ****             break;
 214:../../../../../../Middlewares/Third_Party/LoRaWAN/Mac/region/RegionEU868.c ****         }
 215:../../../../../../Middlewares/Third_Party/LoRaWAN/Mac/region/RegionEU868.c ****         case PHY_MAX_TX_POWER:
 216:../../../../../../Middlewares/Third_Party/LoRaWAN/Mac/region/RegionEU868.c ****         {
 217:../../../../../../Middlewares/Third_Party/LoRaWAN/Mac/region/RegionEU868.c ****             phyParam.Value = EU868_MAX_TX_POWER;
 218:../../../../../../Middlewares/Third_Party/LoRaWAN/Mac/region/RegionEU868.c ****             break;
 219:../../../../../../Middlewares/Third_Party/LoRaWAN/Mac/region/RegionEU868.c ****         }
 220:../../../../../../Middlewares/Third_Party/LoRaWAN/Mac/region/RegionEU868.c ****         case PHY_DEF_TX_POWER:
 221:../../../../../../Middlewares/Third_Party/LoRaWAN/Mac/region/RegionEU868.c ****         {
 222:../../../../../../Middlewares/Third_Party/LoRaWAN/Mac/region/RegionEU868.c ****             phyParam.Value = EU868_DEFAULT_TX_POWER;
 223:../../../../../../Middlewares/Third_Party/LoRaWAN/Mac/region/RegionEU868.c ****             break;
 224:../../../../../../Middlewares/Third_Party/LoRaWAN/Mac/region/RegionEU868.c ****         }
 225:../../../../../../Middlewares/Third_Party/LoRaWAN/Mac/region/RegionEU868.c ****         case PHY_DEF_ADR_ACK_LIMIT:
 226:../../../../../../Middlewares/Third_Party/LoRaWAN/Mac/region/RegionEU868.c ****         {
 227:../../../../../../Middlewares/Third_Party/LoRaWAN/Mac/region/RegionEU868.c ****             phyParam.Value = EU868_ADR_ACK_LIMIT;
 228:../../../../../../Middlewares/Third_Party/LoRaWAN/Mac/region/RegionEU868.c ****             break;
 229:../../../../../../Middlewares/Third_Party/LoRaWAN/Mac/region/RegionEU868.c ****         }
 230:../../../../../../Middlewares/Third_Party/LoRaWAN/Mac/region/RegionEU868.c ****         case PHY_DEF_ADR_ACK_DELAY:
 231:../../../../../../Middlewares/Third_Party/LoRaWAN/Mac/region/RegionEU868.c ****         {
 232:../../../../../../Middlewares/Third_Party/LoRaWAN/Mac/region/RegionEU868.c ****             phyParam.Value = EU868_ADR_ACK_DELAY;
 233:../../../../../../Middlewares/Third_Party/LoRaWAN/Mac/region/RegionEU868.c ****             break;
 234:../../../../../../Middlewares/Third_Party/LoRaWAN/Mac/region/RegionEU868.c ****         }
 235:../../../../../../Middlewares/Third_Party/LoRaWAN/Mac/region/RegionEU868.c ****         case PHY_MAX_PAYLOAD:
 236:../../../../../../Middlewares/Third_Party/LoRaWAN/Mac/region/RegionEU868.c ****         {
 237:../../../../../../Middlewares/Third_Party/LoRaWAN/Mac/region/RegionEU868.c ****             phyParam.Value = MaxPayloadOfDatarateEU868[getPhy->Datarate];
 238:../../../../../../Middlewares/Third_Party/LoRaWAN/Mac/region/RegionEU868.c ****             break;
 239:../../../../../../Middlewares/Third_Party/LoRaWAN/Mac/region/RegionEU868.c ****         }
 240:../../../../../../Middlewares/Third_Party/LoRaWAN/Mac/region/RegionEU868.c ****         case PHY_MAX_PAYLOAD_REPEATER:
ARM GAS  C:\Users\EBANO_~1\AppData\Local\Temp\ccJkfoGk.s 			page 7


 241:../../../../../../Middlewares/Third_Party/LoRaWAN/Mac/region/RegionEU868.c ****         {
 242:../../../../../../Middlewares/Third_Party/LoRaWAN/Mac/region/RegionEU868.c ****             phyParam.Value = MaxPayloadOfDatarateRepeaterEU868[getPhy->Datarate];
 243:../../../../../../Middlewares/Third_Party/LoRaWAN/Mac/region/RegionEU868.c ****             break;
 244:../../../../../../Middlewares/Third_Party/LoRaWAN/Mac/region/RegionEU868.c ****         }
 245:../../../../../../Middlewares/Third_Party/LoRaWAN/Mac/region/RegionEU868.c ****         case PHY_DUTY_CYCLE:
 246:../../../../../../Middlewares/Third_Party/LoRaWAN/Mac/region/RegionEU868.c ****         {
 247:../../../../../../Middlewares/Third_Party/LoRaWAN/Mac/region/RegionEU868.c ****             phyParam.Value = EU868_DUTY_CYCLE_ENABLED;
 248:../../../../../../Middlewares/Third_Party/LoRaWAN/Mac/region/RegionEU868.c ****             break;
 249:../../../../../../Middlewares/Third_Party/LoRaWAN/Mac/region/RegionEU868.c ****         }
 250:../../../../../../Middlewares/Third_Party/LoRaWAN/Mac/region/RegionEU868.c ****         case PHY_MAX_RX_WINDOW:
 251:../../../../../../Middlewares/Third_Party/LoRaWAN/Mac/region/RegionEU868.c ****         {
 252:../../../../../../Middlewares/Third_Party/LoRaWAN/Mac/region/RegionEU868.c ****             phyParam.Value = EU868_MAX_RX_WINDOW;
 253:../../../../../../Middlewares/Third_Party/LoRaWAN/Mac/region/RegionEU868.c ****             break;
 254:../../../../../../Middlewares/Third_Party/LoRaWAN/Mac/region/RegionEU868.c ****         }
 255:../../../../../../Middlewares/Third_Party/LoRaWAN/Mac/region/RegionEU868.c ****         case PHY_RECEIVE_DELAY1:
 256:../../../../../../Middlewares/Third_Party/LoRaWAN/Mac/region/RegionEU868.c ****         {
 257:../../../../../../Middlewares/Third_Party/LoRaWAN/Mac/region/RegionEU868.c ****             phyParam.Value = EU868_RECEIVE_DELAY1;
 258:../../../../../../Middlewares/Third_Party/LoRaWAN/Mac/region/RegionEU868.c ****             break;
 259:../../../../../../Middlewares/Third_Party/LoRaWAN/Mac/region/RegionEU868.c ****         }
 260:../../../../../../Middlewares/Third_Party/LoRaWAN/Mac/region/RegionEU868.c ****         case PHY_RECEIVE_DELAY2:
 261:../../../../../../Middlewares/Third_Party/LoRaWAN/Mac/region/RegionEU868.c ****         {
 262:../../../../../../Middlewares/Third_Party/LoRaWAN/Mac/region/RegionEU868.c ****             phyParam.Value = EU868_RECEIVE_DELAY2;
 263:../../../../../../Middlewares/Third_Party/LoRaWAN/Mac/region/RegionEU868.c ****             break;
 264:../../../../../../Middlewares/Third_Party/LoRaWAN/Mac/region/RegionEU868.c ****         }
 265:../../../../../../Middlewares/Third_Party/LoRaWAN/Mac/region/RegionEU868.c ****         case PHY_JOIN_ACCEPT_DELAY1:
 266:../../../../../../Middlewares/Third_Party/LoRaWAN/Mac/region/RegionEU868.c ****         {
 267:../../../../../../Middlewares/Third_Party/LoRaWAN/Mac/region/RegionEU868.c ****             phyParam.Value = EU868_JOIN_ACCEPT_DELAY1;
 268:../../../../../../Middlewares/Third_Party/LoRaWAN/Mac/region/RegionEU868.c ****             break;
 269:../../../../../../Middlewares/Third_Party/LoRaWAN/Mac/region/RegionEU868.c ****         }
 270:../../../../../../Middlewares/Third_Party/LoRaWAN/Mac/region/RegionEU868.c ****         case PHY_JOIN_ACCEPT_DELAY2:
 271:../../../../../../Middlewares/Third_Party/LoRaWAN/Mac/region/RegionEU868.c ****         {
 272:../../../../../../Middlewares/Third_Party/LoRaWAN/Mac/region/RegionEU868.c ****             phyParam.Value = EU868_JOIN_ACCEPT_DELAY2;
 273:../../../../../../Middlewares/Third_Party/LoRaWAN/Mac/region/RegionEU868.c ****             break;
 274:../../../../../../Middlewares/Third_Party/LoRaWAN/Mac/region/RegionEU868.c ****         }
 275:../../../../../../Middlewares/Third_Party/LoRaWAN/Mac/region/RegionEU868.c ****         case PHY_MAX_FCNT_GAP:
 276:../../../../../../Middlewares/Third_Party/LoRaWAN/Mac/region/RegionEU868.c ****         {
 277:../../../../../../Middlewares/Third_Party/LoRaWAN/Mac/region/RegionEU868.c ****             phyParam.Value = EU868_MAX_FCNT_GAP;
 278:../../../../../../Middlewares/Third_Party/LoRaWAN/Mac/region/RegionEU868.c ****             break;
 279:../../../../../../Middlewares/Third_Party/LoRaWAN/Mac/region/RegionEU868.c ****         }
 280:../../../../../../Middlewares/Third_Party/LoRaWAN/Mac/region/RegionEU868.c ****         case PHY_ACK_TIMEOUT:
 281:../../../../../../Middlewares/Third_Party/LoRaWAN/Mac/region/RegionEU868.c ****         {
 282:../../../../../../Middlewares/Third_Party/LoRaWAN/Mac/region/RegionEU868.c ****             phyParam.Value = ( EU868_ACKTIMEOUT + randr( -EU868_ACK_TIMEOUT_RND, EU868_ACK_TIMEOUT_
 283:../../../../../../Middlewares/Third_Party/LoRaWAN/Mac/region/RegionEU868.c ****             break;
 284:../../../../../../Middlewares/Third_Party/LoRaWAN/Mac/region/RegionEU868.c ****         }
 285:../../../../../../Middlewares/Third_Party/LoRaWAN/Mac/region/RegionEU868.c ****         case PHY_DEF_DR1_OFFSET:
 286:../../../../../../Middlewares/Third_Party/LoRaWAN/Mac/region/RegionEU868.c ****         {
 287:../../../../../../Middlewares/Third_Party/LoRaWAN/Mac/region/RegionEU868.c ****             phyParam.Value = EU868_DEFAULT_RX1_DR_OFFSET;
 288:../../../../../../Middlewares/Third_Party/LoRaWAN/Mac/region/RegionEU868.c ****             break;
 289:../../../../../../Middlewares/Third_Party/LoRaWAN/Mac/region/RegionEU868.c ****         }
 290:../../../../../../Middlewares/Third_Party/LoRaWAN/Mac/region/RegionEU868.c ****         case PHY_DEF_RX2_FREQUENCY:
 291:../../../../../../Middlewares/Third_Party/LoRaWAN/Mac/region/RegionEU868.c ****         {
 292:../../../../../../Middlewares/Third_Party/LoRaWAN/Mac/region/RegionEU868.c ****             phyParam.Value = EU868_RX_WND_2_FREQ;
 293:../../../../../../Middlewares/Third_Party/LoRaWAN/Mac/region/RegionEU868.c ****             break;
 294:../../../../../../Middlewares/Third_Party/LoRaWAN/Mac/region/RegionEU868.c ****         }
 295:../../../../../../Middlewares/Third_Party/LoRaWAN/Mac/region/RegionEU868.c ****         case PHY_DEF_RX2_DR:
 296:../../../../../../Middlewares/Third_Party/LoRaWAN/Mac/region/RegionEU868.c ****         {
 297:../../../../../../Middlewares/Third_Party/LoRaWAN/Mac/region/RegionEU868.c ****             phyParam.Value = EU868_RX_WND_2_DR;
ARM GAS  C:\Users\EBANO_~1\AppData\Local\Temp\ccJkfoGk.s 			page 8


 298:../../../../../../Middlewares/Third_Party/LoRaWAN/Mac/region/RegionEU868.c ****             break;
 299:../../../../../../Middlewares/Third_Party/LoRaWAN/Mac/region/RegionEU868.c ****         }
 300:../../../../../../Middlewares/Third_Party/LoRaWAN/Mac/region/RegionEU868.c ****         case PHY_CHANNELS_MASK:
 301:../../../../../../Middlewares/Third_Party/LoRaWAN/Mac/region/RegionEU868.c ****         {
 302:../../../../../../Middlewares/Third_Party/LoRaWAN/Mac/region/RegionEU868.c ****             phyParam.ChannelsMask = NvmCtx.ChannelsMask;
 303:../../../../../../Middlewares/Third_Party/LoRaWAN/Mac/region/RegionEU868.c ****             break;
 304:../../../../../../Middlewares/Third_Party/LoRaWAN/Mac/region/RegionEU868.c ****         }
 305:../../../../../../Middlewares/Third_Party/LoRaWAN/Mac/region/RegionEU868.c ****         case PHY_CHANNELS_DEFAULT_MASK:
 306:../../../../../../Middlewares/Third_Party/LoRaWAN/Mac/region/RegionEU868.c ****         {
 307:../../../../../../Middlewares/Third_Party/LoRaWAN/Mac/region/RegionEU868.c ****             phyParam.ChannelsMask = NvmCtx.ChannelsDefaultMask;
 102              		.loc 1 307 0
 103 001a 304B     		ldr	r3, .L30+4
 104 001c 0093     		str	r3, [sp]
 105              	.LVL1:
 106              	.L2:
 308:../../../../../../Middlewares/Third_Party/LoRaWAN/Mac/region/RegionEU868.c ****             break;
 309:../../../../../../Middlewares/Third_Party/LoRaWAN/Mac/region/RegionEU868.c ****         }
 310:../../../../../../Middlewares/Third_Party/LoRaWAN/Mac/region/RegionEU868.c ****         case PHY_MAX_NB_CHANNELS:
 311:../../../../../../Middlewares/Third_Party/LoRaWAN/Mac/region/RegionEU868.c ****         {
 312:../../../../../../Middlewares/Third_Party/LoRaWAN/Mac/region/RegionEU868.c ****             phyParam.Value = EU868_MAX_NB_CHANNELS;
 313:../../../../../../Middlewares/Third_Party/LoRaWAN/Mac/region/RegionEU868.c ****             break;
 314:../../../../../../Middlewares/Third_Party/LoRaWAN/Mac/region/RegionEU868.c ****         }
 315:../../../../../../Middlewares/Third_Party/LoRaWAN/Mac/region/RegionEU868.c ****         case PHY_CHANNELS:
 316:../../../../../../Middlewares/Third_Party/LoRaWAN/Mac/region/RegionEU868.c ****         {
 317:../../../../../../Middlewares/Third_Party/LoRaWAN/Mac/region/RegionEU868.c ****             phyParam.Channels = NvmCtx.Channels;
 318:../../../../../../Middlewares/Third_Party/LoRaWAN/Mac/region/RegionEU868.c ****             break;
 319:../../../../../../Middlewares/Third_Party/LoRaWAN/Mac/region/RegionEU868.c ****         }
 320:../../../../../../Middlewares/Third_Party/LoRaWAN/Mac/region/RegionEU868.c ****         case PHY_DEF_UPLINK_DWELL_TIME:
 321:../../../../../../Middlewares/Third_Party/LoRaWAN/Mac/region/RegionEU868.c ****         case PHY_DEF_DOWNLINK_DWELL_TIME:
 322:../../../../../../Middlewares/Third_Party/LoRaWAN/Mac/region/RegionEU868.c ****         {
 323:../../../../../../Middlewares/Third_Party/LoRaWAN/Mac/region/RegionEU868.c ****             phyParam.Value = 0;
 324:../../../../../../Middlewares/Third_Party/LoRaWAN/Mac/region/RegionEU868.c ****             break;
 325:../../../../../../Middlewares/Third_Party/LoRaWAN/Mac/region/RegionEU868.c ****         }
 326:../../../../../../Middlewares/Third_Party/LoRaWAN/Mac/region/RegionEU868.c ****         case PHY_DEF_MAX_EIRP:
 327:../../../../../../Middlewares/Third_Party/LoRaWAN/Mac/region/RegionEU868.c ****         {
 328:../../../../../../Middlewares/Third_Party/LoRaWAN/Mac/region/RegionEU868.c ****             phyParam.fValue = EU868_DEFAULT_MAX_EIRP;
 329:../../../../../../Middlewares/Third_Party/LoRaWAN/Mac/region/RegionEU868.c ****             break;
 330:../../../../../../Middlewares/Third_Party/LoRaWAN/Mac/region/RegionEU868.c ****         }
 331:../../../../../../Middlewares/Third_Party/LoRaWAN/Mac/region/RegionEU868.c ****         case PHY_DEF_ANTENNA_GAIN:
 332:../../../../../../Middlewares/Third_Party/LoRaWAN/Mac/region/RegionEU868.c ****         {
 333:../../../../../../Middlewares/Third_Party/LoRaWAN/Mac/region/RegionEU868.c ****             phyParam.fValue = EU868_DEFAULT_ANTENNA_GAIN;
 334:../../../../../../Middlewares/Third_Party/LoRaWAN/Mac/region/RegionEU868.c ****             break;
 335:../../../../../../Middlewares/Third_Party/LoRaWAN/Mac/region/RegionEU868.c ****         }
 336:../../../../../../Middlewares/Third_Party/LoRaWAN/Mac/region/RegionEU868.c ****         case PHY_BEACON_CHANNEL_FREQ:
 337:../../../../../../Middlewares/Third_Party/LoRaWAN/Mac/region/RegionEU868.c ****         {
 338:../../../../../../Middlewares/Third_Party/LoRaWAN/Mac/region/RegionEU868.c ****             phyParam.Value = EU868_BEACON_CHANNEL_FREQ;
 339:../../../../../../Middlewares/Third_Party/LoRaWAN/Mac/region/RegionEU868.c ****             break;
 340:../../../../../../Middlewares/Third_Party/LoRaWAN/Mac/region/RegionEU868.c ****         }
 341:../../../../../../Middlewares/Third_Party/LoRaWAN/Mac/region/RegionEU868.c ****         case PHY_BEACON_FORMAT:
 342:../../../../../../Middlewares/Third_Party/LoRaWAN/Mac/region/RegionEU868.c ****         {
 343:../../../../../../Middlewares/Third_Party/LoRaWAN/Mac/region/RegionEU868.c ****             phyParam.BeaconFormat.BeaconSize = EU868_BEACON_SIZE;
 344:../../../../../../Middlewares/Third_Party/LoRaWAN/Mac/region/RegionEU868.c ****             phyParam.BeaconFormat.Rfu1Size = EU868_RFU1_SIZE;
 345:../../../../../../Middlewares/Third_Party/LoRaWAN/Mac/region/RegionEU868.c ****             phyParam.BeaconFormat.Rfu2Size = EU868_RFU2_SIZE;
 346:../../../../../../Middlewares/Third_Party/LoRaWAN/Mac/region/RegionEU868.c ****             break;
 347:../../../../../../Middlewares/Third_Party/LoRaWAN/Mac/region/RegionEU868.c ****         }
 348:../../../../../../Middlewares/Third_Party/LoRaWAN/Mac/region/RegionEU868.c ****         case PHY_BEACON_CHANNEL_DR:
 349:../../../../../../Middlewares/Third_Party/LoRaWAN/Mac/region/RegionEU868.c ****         {
ARM GAS  C:\Users\EBANO_~1\AppData\Local\Temp\ccJkfoGk.s 			page 9


 350:../../../../../../Middlewares/Third_Party/LoRaWAN/Mac/region/RegionEU868.c ****             phyParam.Value = EU868_BEACON_CHANNEL_DR;
 351:../../../../../../Middlewares/Third_Party/LoRaWAN/Mac/region/RegionEU868.c ****             break;
 352:../../../../../../Middlewares/Third_Party/LoRaWAN/Mac/region/RegionEU868.c ****         }
 353:../../../../../../Middlewares/Third_Party/LoRaWAN/Mac/region/RegionEU868.c ****         case PHY_PING_SLOT_CHANNEL_DR:
 354:../../../../../../Middlewares/Third_Party/LoRaWAN/Mac/region/RegionEU868.c ****         {
 355:../../../../../../Middlewares/Third_Party/LoRaWAN/Mac/region/RegionEU868.c ****             phyParam.Value = EU868_PING_SLOT_CHANNEL_DR;
 356:../../../../../../Middlewares/Third_Party/LoRaWAN/Mac/region/RegionEU868.c ****             break;
 357:../../../../../../Middlewares/Third_Party/LoRaWAN/Mac/region/RegionEU868.c ****         }
 358:../../../../../../Middlewares/Third_Party/LoRaWAN/Mac/region/RegionEU868.c ****         default:
 359:../../../../../../Middlewares/Third_Party/LoRaWAN/Mac/region/RegionEU868.c ****         {
 360:../../../../../../Middlewares/Third_Party/LoRaWAN/Mac/region/RegionEU868.c ****             break;
 361:../../../../../../Middlewares/Third_Party/LoRaWAN/Mac/region/RegionEU868.c ****         }
 362:../../../../../../Middlewares/Third_Party/LoRaWAN/Mac/region/RegionEU868.c ****     }
 363:../../../../../../Middlewares/Third_Party/LoRaWAN/Mac/region/RegionEU868.c **** 
 364:../../../../../../Middlewares/Third_Party/LoRaWAN/Mac/region/RegionEU868.c ****     return phyParam;
 365:../../../../../../Middlewares/Third_Party/LoRaWAN/Mac/region/RegionEU868.c **** }
 107              		.loc 1 365 0
 108 001e 0098     		ldr	r0, [sp]
 109 0020 03B0     		add	sp, sp, #12
 110              		@ sp needed
 111 0022 00BD     		pop	{pc}
 112              	.LVL2:
 113              	.L16:
 292:../../../../../../Middlewares/Third_Party/LoRaWAN/Mac/region/RegionEU868.c ****             break;
 114              		.loc 1 292 0
 115 0024 2E4B     		ldr	r3, .L30+8
 116 0026 0093     		str	r3, [sp]
 293:../../../../../../Middlewares/Third_Party/LoRaWAN/Mac/region/RegionEU868.c ****         }
 117              		.loc 1 293 0
 118 0028 F9E7     		b	.L2
 119              	.L25:
 350:../../../../../../Middlewares/Third_Party/LoRaWAN/Mac/region/RegionEU868.c ****             break;
 120              		.loc 1 350 0
 121 002a 0323     		movs	r3, #3
 122 002c 0093     		str	r3, [sp]
 351:../../../../../../Middlewares/Third_Party/LoRaWAN/Mac/region/RegionEU868.c ****         }
 123              		.loc 1 351 0
 124 002e F6E7     		b	.L2
 125              	.L5:
 232:../../../../../../Middlewares/Third_Party/LoRaWAN/Mac/region/RegionEU868.c ****             break;
 126              		.loc 1 232 0
 127 0030 2023     		movs	r3, #32
 128 0032 0093     		str	r3, [sp]
 233:../../../../../../Middlewares/Third_Party/LoRaWAN/Mac/region/RegionEU868.c ****         }
 129              		.loc 1 233 0
 130 0034 F3E7     		b	.L2
 131              	.L20:
 317:../../../../../../Middlewares/Third_Party/LoRaWAN/Mac/region/RegionEU868.c ****             break;
 132              		.loc 1 317 0
 133 0036 2B4B     		ldr	r3, .L30+12
 134 0038 0093     		str	r3, [sp]
 318:../../../../../../Middlewares/Third_Party/LoRaWAN/Mac/region/RegionEU868.c ****         }
 135              		.loc 1 318 0
 136 003a F0E7     		b	.L2
 137              	.L19:
 312:../../../../../../Middlewares/Third_Party/LoRaWAN/Mac/region/RegionEU868.c ****             break;
 138              		.loc 1 312 0
ARM GAS  C:\Users\EBANO_~1\AppData\Local\Temp\ccJkfoGk.s 			page 10


 139 003c 1023     		movs	r3, #16
 140 003e 0093     		str	r3, [sp]
 313:../../../../../../Middlewares/Third_Party/LoRaWAN/Mac/region/RegionEU868.c ****         }
 141              		.loc 1 313 0
 142 0040 EDE7     		b	.L2
 143              	.L17:
 302:../../../../../../Middlewares/Third_Party/LoRaWAN/Mac/region/RegionEU868.c ****             break;
 144              		.loc 1 302 0
 145 0042 294B     		ldr	r3, .L30+16
 146 0044 0093     		str	r3, [sp]
 303:../../../../../../Middlewares/Third_Party/LoRaWAN/Mac/region/RegionEU868.c ****         }
 147              		.loc 1 303 0
 148 0046 EAE7     		b	.L2
 149              	.L21:
 328:../../../../../../Middlewares/Third_Party/LoRaWAN/Mac/region/RegionEU868.c ****             break;
 150              		.loc 1 328 0
 151 0048 8323     		movs	r3, #131
 152 004a DB05     		lsls	r3, r3, #23
 153 004c 0093     		str	r3, [sp]
 329:../../../../../../Middlewares/Third_Party/LoRaWAN/Mac/region/RegionEU868.c ****         }
 154              		.loc 1 329 0
 155 004e E6E7     		b	.L2
 156              	.L11:
 262:../../../../../../Middlewares/Third_Party/LoRaWAN/Mac/region/RegionEU868.c ****             break;
 157              		.loc 1 262 0
 158 0050 FA23     		movs	r3, #250
 159 0052 DB00     		lsls	r3, r3, #3
 160 0054 0093     		str	r3, [sp]
 263:../../../../../../Middlewares/Third_Party/LoRaWAN/Mac/region/RegionEU868.c ****         }
 161              		.loc 1 263 0
 162 0056 E2E7     		b	.L2
 163              	.L10:
 257:../../../../../../Middlewares/Third_Party/LoRaWAN/Mac/region/RegionEU868.c ****             break;
 164              		.loc 1 257 0
 165 0058 FA23     		movs	r3, #250
 166 005a 9B00     		lsls	r3, r3, #2
 167 005c 0093     		str	r3, [sp]
 258:../../../../../../Middlewares/Third_Party/LoRaWAN/Mac/region/RegionEU868.c ****         }
 168              		.loc 1 258 0
 169 005e DEE7     		b	.L2
 170              	.L9:
 252:../../../../../../Middlewares/Third_Party/LoRaWAN/Mac/region/RegionEU868.c ****             break;
 171              		.loc 1 252 0
 172 0060 224B     		ldr	r3, .L30+20
 173 0062 0093     		str	r3, [sp]
 253:../../../../../../Middlewares/Third_Party/LoRaWAN/Mac/region/RegionEU868.c ****         }
 174              		.loc 1 253 0
 175 0064 DBE7     		b	.L2
 176              	.L12:
 267:../../../../../../Middlewares/Third_Party/LoRaWAN/Mac/region/RegionEU868.c ****             break;
 177              		.loc 1 267 0
 178 0066 224B     		ldr	r3, .L30+24
 179 0068 0093     		str	r3, [sp]
 268:../../../../../../Middlewares/Third_Party/LoRaWAN/Mac/region/RegionEU868.c ****         }
 180              		.loc 1 268 0
 181 006a D8E7     		b	.L2
 182              	.L22:
ARM GAS  C:\Users\EBANO_~1\AppData\Local\Temp\ccJkfoGk.s 			page 11


 333:../../../../../../Middlewares/Third_Party/LoRaWAN/Mac/region/RegionEU868.c ****             break;
 183              		.loc 1 333 0
 184 006c 214B     		ldr	r3, .L30+28
 185 006e 0093     		str	r3, [sp]
 334:../../../../../../Middlewares/Third_Party/LoRaWAN/Mac/region/RegionEU868.c ****         }
 186              		.loc 1 334 0
 187 0070 D5E7     		b	.L2
 188              	.L24:
 343:../../../../../../Middlewares/Third_Party/LoRaWAN/Mac/region/RegionEU868.c ****             phyParam.BeaconFormat.Rfu1Size = EU868_RFU1_SIZE;
 189              		.loc 1 343 0
 190 0072 6A46     		mov	r2, sp
 191 0074 204B     		ldr	r3, .L30+32
 192 0076 1380     		strh	r3, [r2]
 346:../../../../../../Middlewares/Third_Party/LoRaWAN/Mac/region/RegionEU868.c ****         }
 193              		.loc 1 346 0
 194 0078 D1E7     		b	.L2
 195              	.L23:
 212:../../../../../../Middlewares/Third_Party/LoRaWAN/Mac/region/RegionEU868.c ****             break;
 196              		.loc 1 212 0
 197 007a 0123     		movs	r3, #1
 198 007c C356     		ldrsb	r3, [r0, r3]
 199              	.LVL3:
 200              	.LBB16:
 201              	.LBB17:
  73:../../../../../../Middlewares/Third_Party/LoRaWAN/Mac/region/RegionEU868.c ****     {
 202              		.loc 1 73 0
 203 007e 0022     		movs	r2, #0
 204 0080 002B     		cmp	r3, #0
 205 0082 01D0     		beq	.L26
 206              	.LVL4:
  79:../../../../../../Middlewares/Third_Party/LoRaWAN/Mac/region/RegionEU868.c ****     }
 207              		.loc 1 79 0
 208 0084 013B     		subs	r3, r3, #1
 209              	.LVL5:
 210 0086 5AB2     		sxtb	r2, r3
 211              	.LVL6:
 212              	.L26:
 213              	.LBE17:
 214              	.LBE16:
 212:../../../../../../Middlewares/Third_Party/LoRaWAN/Mac/region/RegionEU868.c ****             break;
 215              		.loc 1 212 0
 216 0088 0092     		str	r2, [sp]
 213:../../../../../../Middlewares/Third_Party/LoRaWAN/Mac/region/RegionEU868.c ****         }
 217              		.loc 1 213 0
 218 008a C8E7     		b	.L2
 219              	.L14:
 277:../../../../../../Middlewares/Third_Party/LoRaWAN/Mac/region/RegionEU868.c ****             break;
 220              		.loc 1 277 0
 221 008c 8023     		movs	r3, #128
 222 008e DB01     		lsls	r3, r3, #7
 223 0090 0093     		str	r3, [sp]
 278:../../../../../../Middlewares/Third_Party/LoRaWAN/Mac/region/RegionEU868.c ****         }
 224              		.loc 1 278 0
 225 0092 C4E7     		b	.L2
 226              	.L13:
 272:../../../../../../Middlewares/Third_Party/LoRaWAN/Mac/region/RegionEU868.c ****             break;
 227              		.loc 1 272 0
ARM GAS  C:\Users\EBANO_~1\AppData\Local\Temp\ccJkfoGk.s 			page 12


 228 0094 194B     		ldr	r3, .L30+36
 229 0096 0093     		str	r3, [sp]
 273:../../../../../../Middlewares/Third_Party/LoRaWAN/Mac/region/RegionEU868.c ****         }
 230              		.loc 1 273 0
 231 0098 C1E7     		b	.L2
 232              	.L15:
 282:../../../../../../Middlewares/Third_Party/LoRaWAN/Mac/region/RegionEU868.c ****             break;
 233              		.loc 1 282 0
 234 009a FA21     		movs	r1, #250
 235 009c 1848     		ldr	r0, .L30+40
 236              	.LVL7:
 237 009e 8900     		lsls	r1, r1, #2
 238 00a0 FFF7FEFF 		bl	randr
 239              	.LVL8:
 240 00a4 FA23     		movs	r3, #250
 241 00a6 DB00     		lsls	r3, r3, #3
 242 00a8 9C46     		mov	ip, r3
 243 00aa 6044     		add	r0, r0, ip
 244 00ac 0090     		str	r0, [sp]
 283:../../../../../../Middlewares/Third_Party/LoRaWAN/Mac/region/RegionEU868.c ****         }
 245              		.loc 1 283 0
 246 00ae B6E7     		b	.L2
 247              	.LVL9:
 248              	.L3:
 227:../../../../../../Middlewares/Third_Party/LoRaWAN/Mac/region/RegionEU868.c ****             break;
 249              		.loc 1 227 0
 250 00b0 4023     		movs	r3, #64
 251 00b2 0093     		str	r3, [sp]
 228:../../../../../../Middlewares/Third_Party/LoRaWAN/Mac/region/RegionEU868.c ****         }
 252              		.loc 1 228 0
 253 00b4 B3E7     		b	.L2
 254              	.L8:
 247:../../../../../../Middlewares/Third_Party/LoRaWAN/Mac/region/RegionEU868.c ****             break;
 255              		.loc 1 247 0
 256 00b6 0123     		movs	r3, #1
 257 00b8 0093     		str	r3, [sp]
 248:../../../../../../Middlewares/Third_Party/LoRaWAN/Mac/region/RegionEU868.c ****         }
 258              		.loc 1 248 0
 259 00ba B0E7     		b	.L2
 260              	.L7:
 242:../../../../../../Middlewares/Third_Party/LoRaWAN/Mac/region/RegionEU868.c ****             break;
 261              		.loc 1 242 0
 262 00bc 0122     		movs	r2, #1
 263 00be 114B     		ldr	r3, .L30+44
 264 00c0 8256     		ldrsb	r2, [r0, r2]
 265 00c2 9B18     		adds	r3, r3, r2
 266 00c4 1B7A     		ldrb	r3, [r3, #8]
 267 00c6 0093     		str	r3, [sp]
 243:../../../../../../Middlewares/Third_Party/LoRaWAN/Mac/region/RegionEU868.c ****         }
 268              		.loc 1 243 0
 269 00c8 A9E7     		b	.L2
 270              	.L6:
 237:../../../../../../Middlewares/Third_Party/LoRaWAN/Mac/region/RegionEU868.c ****             break;
 271              		.loc 1 237 0
 272 00ca 0123     		movs	r3, #1
 273 00cc 0D4A     		ldr	r2, .L30+44
 274 00ce C356     		ldrsb	r3, [r0, r3]
ARM GAS  C:\Users\EBANO_~1\AppData\Local\Temp\ccJkfoGk.s 			page 13


 275 00d0 D35C     		ldrb	r3, [r2, r3]
 276 00d2 0093     		str	r3, [sp]
 238:../../../../../../Middlewares/Third_Party/LoRaWAN/Mac/region/RegionEU868.c ****         }
 277              		.loc 1 238 0
 278 00d4 A3E7     		b	.L2
 279              	.L31:
 280 00d6 C046     		.align	2
 281              	.L30:
 282 00d8 00000000 		.word	.L4
 283 00dc 12010000 		.word	NvmCtx+274
 284 00e0 08E6D333 		.word	869525000
 285 00e4 00000000 		.word	NvmCtx
 286 00e8 10010000 		.word	NvmCtx+272
 287 00ec B80B0000 		.word	3000
 288 00f0 88130000 		.word	5000
 289 00f4 9A990940 		.word	1074370970
 290 00f8 11020000 		.word	529
 291 00fc 70170000 		.word	6000
 292 0100 18FCFFFF 		.word	-1000
 293 0104 00010000 		.word	.LANCHOR0
 294              		.cfi_endproc
 295              	.LFE44:
 296              		.size	RegionEU868GetPhyParam, .-RegionEU868GetPhyParam
 297              		.section	.text.RegionEU868SetBandTxDone,"ax",%progbits
 298              		.align	1
 299              		.p2align 2,,3
 300              		.global	RegionEU868SetBandTxDone
 301              		.syntax unified
 302              		.code	16
 303              		.thumb_func
 304              		.fpu softvfp
 305              		.type	RegionEU868SetBandTxDone, %function
 306              	RegionEU868SetBandTxDone:
 307              	.LFB45:
 366:../../../../../../Middlewares/Third_Party/LoRaWAN/Mac/region/RegionEU868.c **** 
 367:../../../../../../Middlewares/Third_Party/LoRaWAN/Mac/region/RegionEU868.c **** void RegionEU868SetBandTxDone( SetBandTxDoneParams_t* txDone )
 368:../../../../../../Middlewares/Third_Party/LoRaWAN/Mac/region/RegionEU868.c **** {
 308              		.loc 1 368 0
 309              		.cfi_startproc
 310              		@ args = 0, pretend = 0, frame = 0
 311              		@ frame_needed = 0, uses_anonymous_args = 0
 312              	.LVL10:
 369:../../../../../../Middlewares/Third_Party/LoRaWAN/Mac/region/RegionEU868.c ****     RegionCommonSetBandTxDone( txDone->Joined, &NvmCtx.Bands[NvmCtx.Channels[txDone->Channel].Band]
 313              		.loc 1 369 0
 314 0000 0178     		ldrb	r1, [r0]
 368:../../../../../../Middlewares/Third_Party/LoRaWAN/Mac/region/RegionEU868.c ****     RegionCommonSetBandTxDone( txDone->Joined, &NvmCtx.Bands[NvmCtx.Channels[txDone->Channel].Band]
 315              		.loc 1 368 0
 316 0002 10B5     		push	{r4, lr}
 317              	.LCFI2:
 318              		.cfi_def_cfa_offset 8
 319              		.cfi_offset 4, -8
 320              		.cfi_offset 14, -4
 321              		.loc 1 369 0
 322 0004 4B00     		lsls	r3, r1, #1
 323 0006 064C     		ldr	r4, .L33
 324 0008 5B18     		adds	r3, r3, r1
 325 000a 9B00     		lsls	r3, r3, #2
ARM GAS  C:\Users\EBANO_~1\AppData\Local\Temp\ccJkfoGk.s 			page 14


 326 000c E318     		adds	r3, r4, r3
 327 000e 597A     		ldrb	r1, [r3, #9]
 328 0010 4268     		ldr	r2, [r0, #4]
 329 0012 0C31     		adds	r1, r1, #12
 330 0014 0901     		lsls	r1, r1, #4
 331 0016 0919     		adds	r1, r1, r4
 332 0018 4078     		ldrb	r0, [r0, #1]
 333              	.LVL11:
 334 001a FFF7FEFF 		bl	RegionCommonSetBandTxDone
 335              	.LVL12:
 370:../../../../../../Middlewares/Third_Party/LoRaWAN/Mac/region/RegionEU868.c **** }
 336              		.loc 1 370 0
 337              		@ sp needed
 338 001e 10BD     		pop	{r4, pc}
 339              	.L34:
 340              		.align	2
 341              	.L33:
 342 0020 00000000 		.word	NvmCtx
 343              		.cfi_endproc
 344              	.LFE45:
 345              		.size	RegionEU868SetBandTxDone, .-RegionEU868SetBandTxDone
 346              		.section	.text.RegionEU868InitDefaults,"ax",%progbits
 347              		.align	1
 348              		.p2align 2,,3
 349              		.global	RegionEU868InitDefaults
 350              		.syntax unified
 351              		.code	16
 352              		.thumb_func
 353              		.fpu softvfp
 354              		.type	RegionEU868InitDefaults, %function
 355              	RegionEU868InitDefaults:
 356              	.LFB46:
 371:../../../../../../Middlewares/Third_Party/LoRaWAN/Mac/region/RegionEU868.c **** 
 372:../../../../../../Middlewares/Third_Party/LoRaWAN/Mac/region/RegionEU868.c **** void RegionEU868InitDefaults( InitDefaultsParams_t* params )
 373:../../../../../../Middlewares/Third_Party/LoRaWAN/Mac/region/RegionEU868.c **** {
 357              		.loc 1 373 0
 358              		.cfi_startproc
 359              		@ args = 0, pretend = 0, frame = 80
 360              		@ frame_needed = 0, uses_anonymous_args = 0
 361              	.LVL13:
 362 0000 F0B5     		push	{r4, r5, r6, r7, lr}
 363              	.LCFI3:
 364              		.cfi_def_cfa_offset 20
 365              		.cfi_offset 4, -20
 366              		.cfi_offset 5, -16
 367              		.cfi_offset 6, -12
 368              		.cfi_offset 7, -8
 369              		.cfi_offset 14, -4
 370 0002 95B0     		sub	sp, sp, #84
 371              	.LCFI4:
 372              		.cfi_def_cfa_offset 104
 374:../../../../../../Middlewares/Third_Party/LoRaWAN/Mac/region/RegionEU868.c ****     Band_t bands[EU868_MAX_NB_BANDS] =
 373              		.loc 1 374 0
 374 0004 6B46     		mov	r3, sp
 373:../../../../../../Middlewares/Third_Party/LoRaWAN/Mac/region/RegionEU868.c ****     Band_t bands[EU868_MAX_NB_BANDS] =
 375              		.loc 1 373 0
 376 0006 0400     		movs	r4, r0
ARM GAS  C:\Users\EBANO_~1\AppData\Local\Temp\ccJkfoGk.s 			page 15


 377              		.loc 1 374 0
 378 0008 4E22     		movs	r2, #78
 379 000a 0021     		movs	r1, #0
 380 000c 981C     		adds	r0, r3, #2
 381              	.LVL14:
 382 000e FFF7FEFF 		bl	memset
 383              	.LVL15:
 384 0012 6423     		movs	r3, #100
 385 0014 6A46     		mov	r2, sp
 386 0016 1380     		strh	r3, [r2]
 387 0018 1382     		strh	r3, [r2, #16]
 388 001a FA22     		movs	r2, #250
 389 001c 6946     		mov	r1, sp
 390 001e 9200     		lsls	r2, r2, #2
 391 0020 0A84     		strh	r2, [r1, #32]
 392 0022 0A22     		movs	r2, #10
 393 0024 0A86     		strh	r2, [r1, #48]
 394 0026 3632     		adds	r2, r2, #54
 395 0028 8B52     		strh	r3, [r1, r2]
 375:../../../../../../Middlewares/Third_Party/LoRaWAN/Mac/region/RegionEU868.c ****     {
 376:../../../../../../Middlewares/Third_Party/LoRaWAN/Mac/region/RegionEU868.c ****         EU868_BAND0,
 377:../../../../../../Middlewares/Third_Party/LoRaWAN/Mac/region/RegionEU868.c ****         EU868_BAND1,
 378:../../../../../../Middlewares/Third_Party/LoRaWAN/Mac/region/RegionEU868.c ****         EU868_BAND2,
 379:../../../../../../Middlewares/Third_Party/LoRaWAN/Mac/region/RegionEU868.c ****         EU868_BAND3,
 380:../../../../../../Middlewares/Third_Party/LoRaWAN/Mac/region/RegionEU868.c ****         EU868_BAND4,
 381:../../../../../../Middlewares/Third_Party/LoRaWAN/Mac/region/RegionEU868.c ****     };
 382:../../../../../../Middlewares/Third_Party/LoRaWAN/Mac/region/RegionEU868.c **** 
 383:../../../../../../Middlewares/Third_Party/LoRaWAN/Mac/region/RegionEU868.c ****     switch( params->Type )
 396              		.loc 1 383 0
 397 002a 2379     		ldrb	r3, [r4, #4]
 398 002c 012B     		cmp	r3, #1
 399 002e 30D0     		beq	.L37
 400 0030 002B     		cmp	r3, #0
 401 0032 0BD0     		beq	.L38
 402 0034 022B     		cmp	r3, #2
 403 0036 07D1     		bne	.L35
 384:../../../../../../Middlewares/Third_Party/LoRaWAN/Mac/region/RegionEU868.c ****     {
 385:../../../../../../Middlewares/Third_Party/LoRaWAN/Mac/region/RegionEU868.c ****         case INIT_TYPE_INIT:
 386:../../../../../../Middlewares/Third_Party/LoRaWAN/Mac/region/RegionEU868.c ****         {
 387:../../../../../../Middlewares/Third_Party/LoRaWAN/Mac/region/RegionEU868.c ****             // Initialize bands
 388:../../../../../../Middlewares/Third_Party/LoRaWAN/Mac/region/RegionEU868.c ****             memcpy1( ( uint8_t* )NvmCtx.Bands, ( uint8_t* )bands, sizeof( Band_t ) * EU868_MAX_NB_B
 389:../../../../../../Middlewares/Third_Party/LoRaWAN/Mac/region/RegionEU868.c **** 
 390:../../../../../../Middlewares/Third_Party/LoRaWAN/Mac/region/RegionEU868.c ****             // Channels
 391:../../../../../../Middlewares/Third_Party/LoRaWAN/Mac/region/RegionEU868.c ****             NvmCtx.Channels[0] = ( ChannelParams_t ) EU868_LC1;
 392:../../../../../../Middlewares/Third_Party/LoRaWAN/Mac/region/RegionEU868.c ****             NvmCtx.Channels[1] = ( ChannelParams_t ) EU868_LC2;
 393:../../../../../../Middlewares/Third_Party/LoRaWAN/Mac/region/RegionEU868.c ****             NvmCtx.Channels[2] = ( ChannelParams_t ) EU868_LC3;
 394:../../../../../../Middlewares/Third_Party/LoRaWAN/Mac/region/RegionEU868.c **** 
 395:../../../../../../Middlewares/Third_Party/LoRaWAN/Mac/region/RegionEU868.c ****             // Initialize the channels default mask
 396:../../../../../../Middlewares/Third_Party/LoRaWAN/Mac/region/RegionEU868.c ****             NvmCtx.ChannelsDefaultMask[0] = LC( 1 ) + LC( 2 ) + LC( 3 );
 397:../../../../../../Middlewares/Third_Party/LoRaWAN/Mac/region/RegionEU868.c ****             // Update the channels mask
 398:../../../../../../Middlewares/Third_Party/LoRaWAN/Mac/region/RegionEU868.c ****             RegionCommonChanMaskCopy( NvmCtx.ChannelsMask, NvmCtx.ChannelsDefaultMask, 1 );
 399:../../../../../../Middlewares/Third_Party/LoRaWAN/Mac/region/RegionEU868.c ****             break;
 400:../../../../../../Middlewares/Third_Party/LoRaWAN/Mac/region/RegionEU868.c ****         }
 401:../../../../../../Middlewares/Third_Party/LoRaWAN/Mac/region/RegionEU868.c ****         case INIT_TYPE_RESTORE_CTX:
 402:../../../../../../Middlewares/Third_Party/LoRaWAN/Mac/region/RegionEU868.c ****         {
 403:../../../../../../Middlewares/Third_Party/LoRaWAN/Mac/region/RegionEU868.c ****             if( params->NvmCtx != 0 )
 404              		.loc 1 403 0
ARM GAS  C:\Users\EBANO_~1\AppData\Local\Temp\ccJkfoGk.s 			page 16


 405 0038 2168     		ldr	r1, [r4]
 406 003a 0029     		cmp	r1, #0
 407 003c 04D0     		beq	.L35
 404:../../../../../../Middlewares/Third_Party/LoRaWAN/Mac/region/RegionEU868.c ****             {
 405:../../../../../../Middlewares/Third_Party/LoRaWAN/Mac/region/RegionEU868.c ****                 memcpy1( (uint8_t*) &NvmCtx, (uint8_t*) params->NvmCtx, sizeof( NvmCtx ) );
 408              		.loc 1 405 0
 409 003e 8A22     		movs	r2, #138
 410 0040 1948     		ldr	r0, .L43
 411 0042 5200     		lsls	r2, r2, #1
 412 0044 FFF7FEFF 		bl	memcpy1
 413              	.LVL16:
 414              	.L35:
 406:../../../../../../Middlewares/Third_Party/LoRaWAN/Mac/region/RegionEU868.c ****             }
 407:../../../../../../Middlewares/Third_Party/LoRaWAN/Mac/region/RegionEU868.c ****             break;
 408:../../../../../../Middlewares/Third_Party/LoRaWAN/Mac/region/RegionEU868.c ****         }
 409:../../../../../../Middlewares/Third_Party/LoRaWAN/Mac/region/RegionEU868.c ****         case INIT_TYPE_RESTORE_DEFAULT_CHANNELS:
 410:../../../../../../Middlewares/Third_Party/LoRaWAN/Mac/region/RegionEU868.c ****         {
 411:../../../../../../Middlewares/Third_Party/LoRaWAN/Mac/region/RegionEU868.c ****             // Restore channels default mask
 412:../../../../../../Middlewares/Third_Party/LoRaWAN/Mac/region/RegionEU868.c ****             NvmCtx.ChannelsMask[0] |= NvmCtx.ChannelsDefaultMask[0];
 413:../../../../../../Middlewares/Third_Party/LoRaWAN/Mac/region/RegionEU868.c ****             break;
 414:../../../../../../Middlewares/Third_Party/LoRaWAN/Mac/region/RegionEU868.c ****         }
 415:../../../../../../Middlewares/Third_Party/LoRaWAN/Mac/region/RegionEU868.c ****         default:
 416:../../../../../../Middlewares/Third_Party/LoRaWAN/Mac/region/RegionEU868.c ****         {
 417:../../../../../../Middlewares/Third_Party/LoRaWAN/Mac/region/RegionEU868.c ****             break;
 418:../../../../../../Middlewares/Third_Party/LoRaWAN/Mac/region/RegionEU868.c ****         }
 419:../../../../../../Middlewares/Third_Party/LoRaWAN/Mac/region/RegionEU868.c ****     }
 420:../../../../../../Middlewares/Third_Party/LoRaWAN/Mac/region/RegionEU868.c **** }
 415              		.loc 1 420 0
 416 0048 15B0     		add	sp, sp, #84
 417              		@ sp needed
 418 004a F0BD     		pop	{r4, r5, r6, r7, pc}
 419              	.LVL17:
 420              	.L38:
 388:../../../../../../Middlewares/Third_Party/LoRaWAN/Mac/region/RegionEU868.c **** 
 421              		.loc 1 388 0
 422 004c 174C     		ldr	r4, .L43+4
 423              	.LVL18:
 424 004e 6946     		mov	r1, sp
 425 0050 2000     		movs	r0, r4
 426 0052 5022     		movs	r2, #80
 427 0054 FFF7FEFF 		bl	memcpy1
 428              	.LVL19:
 391:../../../../../../Middlewares/Third_Party/LoRaWAN/Mac/region/RegionEU868.c ****             NvmCtx.Channels[1] = ( ChannelParams_t ) EU868_LC2;
 429              		.loc 1 391 0
 430 0058 2200     		movs	r2, r4
 431 005a 154B     		ldr	r3, .L43+8
 432 005c C03A     		subs	r2, r2, #192
 433 005e 1900     		movs	r1, r3
 434 0060 1000     		movs	r0, r2
 435 0062 1031     		adds	r1, r1, #16
 436 0064 E0C9     		ldmia	r1!, {r5, r6, r7}
 437 0066 E0C0     		stmia	r0!, {r5, r6, r7}
 392:../../../../../../Middlewares/Third_Party/LoRaWAN/Mac/region/RegionEU868.c ****             NvmCtx.Channels[2] = ( ChannelParams_t ) EU868_LC3;
 438              		.loc 1 392 0
 439 0068 1900     		movs	r1, r3
 440 006a 1C31     		adds	r1, r1, #28
 441 006c E0C9     		ldmia	r1!, {r5, r6, r7}
ARM GAS  C:\Users\EBANO_~1\AppData\Local\Temp\ccJkfoGk.s 			page 17


 442 006e E0C0     		stmia	r0!, {r5, r6, r7}
 393:../../../../../../Middlewares/Third_Party/LoRaWAN/Mac/region/RegionEU868.c **** 
 443              		.loc 1 393 0
 444 0070 2100     		movs	r1, r4
 445 0072 2833     		adds	r3, r3, #40
 446 0074 A839     		subs	r1, r1, #168
 447 0076 61CB     		ldmia	r3!, {r0, r5, r6}
 448 0078 61C1     		stmia	r1!, {r0, r5, r6}
 396:../../../../../../Middlewares/Third_Party/LoRaWAN/Mac/region/RegionEU868.c ****             // Update the channels mask
 449              		.loc 1 396 0
 450 007a 8923     		movs	r3, #137
 451 007c 0721     		movs	r1, #7
 452 007e 5B00     		lsls	r3, r3, #1
 453 0080 D152     		strh	r1, [r2, r3]
 398:../../../../../../Middlewares/Third_Party/LoRaWAN/Mac/region/RegionEU868.c ****             break;
 454              		.loc 1 398 0
 455 0082 2000     		movs	r0, r4
 456 0084 2100     		movs	r1, r4
 457 0086 5030     		adds	r0, r0, #80
 458 0088 5231     		adds	r1, r1, #82
 459 008a 0122     		movs	r2, #1
 460 008c FFF7FEFF 		bl	RegionCommonChanMaskCopy
 461              	.LVL20:
 399:../../../../../../Middlewares/Third_Party/LoRaWAN/Mac/region/RegionEU868.c ****         }
 462              		.loc 1 399 0
 463 0090 DAE7     		b	.L35
 464              	.LVL21:
 465              	.L37:
 412:../../../../../../Middlewares/Third_Party/LoRaWAN/Mac/region/RegionEU868.c ****             break;
 466              		.loc 1 412 0
 467 0092 8821     		movs	r1, #136
 468 0094 8920     		movs	r0, #137
 469 0096 044B     		ldr	r3, .L43
 470 0098 4900     		lsls	r1, r1, #1
 471 009a 4000     		lsls	r0, r0, #1
 472 009c 5A5A     		ldrh	r2, [r3, r1]
 473 009e 185A     		ldrh	r0, [r3, r0]
 474 00a0 0243     		orrs	r2, r0
 475 00a2 5A52     		strh	r2, [r3, r1]
 476              		.loc 1 420 0
 477 00a4 D0E7     		b	.L35
 478              	.L44:
 479 00a6 C046     		.align	2
 480              	.L43:
 481 00a8 00000000 		.word	NvmCtx
 482 00ac C0000000 		.word	NvmCtx+192
 483 00b0 00010000 		.word	.LANCHOR0
 484              		.cfi_endproc
 485              	.LFE46:
 486              		.size	RegionEU868InitDefaults, .-RegionEU868InitDefaults
 487              		.section	.text.RegionEU868GetNvmCtx,"ax",%progbits
 488              		.align	1
 489              		.p2align 2,,3
 490              		.global	RegionEU868GetNvmCtx
 491              		.syntax unified
 492              		.code	16
 493              		.thumb_func
ARM GAS  C:\Users\EBANO_~1\AppData\Local\Temp\ccJkfoGk.s 			page 18


 494              		.fpu softvfp
 495              		.type	RegionEU868GetNvmCtx, %function
 496              	RegionEU868GetNvmCtx:
 497              	.LFB47:
 421:../../../../../../Middlewares/Third_Party/LoRaWAN/Mac/region/RegionEU868.c **** 
 422:../../../../../../Middlewares/Third_Party/LoRaWAN/Mac/region/RegionEU868.c **** void* RegionEU868GetNvmCtx( GetNvmCtxParams_t* params )
 423:../../../../../../Middlewares/Third_Party/LoRaWAN/Mac/region/RegionEU868.c **** {
 498              		.loc 1 423 0
 499              		.cfi_startproc
 500              		@ args = 0, pretend = 0, frame = 0
 501              		@ frame_needed = 0, uses_anonymous_args = 0
 502              		@ link register save eliminated.
 503              	.LVL22:
 424:../../../../../../Middlewares/Third_Party/LoRaWAN/Mac/region/RegionEU868.c ****     params->nvmCtxSize = sizeof( RegionEU868NvmCtx_t );
 504              		.loc 1 424 0
 505 0000 8A23     		movs	r3, #138
 506 0002 5B00     		lsls	r3, r3, #1
 507 0004 0360     		str	r3, [r0]
 425:../../../../../../Middlewares/Third_Party/LoRaWAN/Mac/region/RegionEU868.c ****     return &NvmCtx;
 426:../../../../../../Middlewares/Third_Party/LoRaWAN/Mac/region/RegionEU868.c **** }
 508              		.loc 1 426 0
 509              		@ sp needed
 510 0006 0148     		ldr	r0, .L46
 511              	.LVL23:
 512 0008 7047     		bx	lr
 513              	.L47:
 514 000a C046     		.align	2
 515              	.L46:
 516 000c 00000000 		.word	NvmCtx
 517              		.cfi_endproc
 518              	.LFE47:
 519              		.size	RegionEU868GetNvmCtx, .-RegionEU868GetNvmCtx
 520              		.section	.text.RegionEU868Verify,"ax",%progbits
 521              		.align	1
 522              		.p2align 2,,3
 523              		.global	RegionEU868Verify
 524              		.syntax unified
 525              		.code	16
 526              		.thumb_func
 527              		.fpu softvfp
 528              		.type	RegionEU868Verify, %function
 529              	RegionEU868Verify:
 530              	.LFB48:
 427:../../../../../../Middlewares/Third_Party/LoRaWAN/Mac/region/RegionEU868.c **** 
 428:../../../../../../Middlewares/Third_Party/LoRaWAN/Mac/region/RegionEU868.c **** bool RegionEU868Verify( VerifyParams_t* verify, PhyAttribute_t phyAttribute )
 429:../../../../../../Middlewares/Third_Party/LoRaWAN/Mac/region/RegionEU868.c **** {
 531              		.loc 1 429 0
 532              		.cfi_startproc
 533              		@ args = 0, pretend = 0, frame = 0
 534              		@ frame_needed = 0, uses_anonymous_args = 0
 535              	.LVL24:
 430:../../../../../../Middlewares/Third_Party/LoRaWAN/Mac/region/RegionEU868.c ****     switch( phyAttribute )
 536              		.loc 1 430 0
 537 0000 0439     		subs	r1, r1, #4
 538              	.LVL25:
 539 0002 C9B2     		uxtb	r1, r1
 429:../../../../../../Middlewares/Third_Party/LoRaWAN/Mac/region/RegionEU868.c ****     switch( phyAttribute )
ARM GAS  C:\Users\EBANO_~1\AppData\Local\Temp\ccJkfoGk.s 			page 19


 540              		.loc 1 429 0
 541 0004 10B5     		push	{r4, lr}
 542              	.LCFI5:
 543              		.cfi_def_cfa_offset 8
 544              		.cfi_offset 4, -8
 545              		.cfi_offset 14, -4
 546              		.loc 1 430 0
 547 0006 0A29     		cmp	r1, #10
 548 0008 19D8     		bhi	.L49
 549 000a 0E4B     		ldr	r3, .L56
 550 000c 8900     		lsls	r1, r1, #2
 551 000e 5B58     		ldr	r3, [r3, r1]
 552 0010 9F46     		mov	pc, r3
 553              		.section	.rodata
 554              		.align	2
 555              	.L51:
 556 00ac 12000000 		.word	.L53
 557 00b0 2A000000 		.word	.L52
 558 00b4 12000000 		.word	.L53
 559 00b8 3E000000 		.word	.L49
 560 00bc 12000000 		.word	.L53
 561 00c0 12000000 		.word	.L53
 562 00c4 3E000000 		.word	.L49
 563 00c8 3E000000 		.word	.L49
 564 00cc 3E000000 		.word	.L49
 565 00d0 3E000000 		.word	.L49
 566 00d4 26000000 		.word	.L55
 567              		.section	.text.RegionEU868Verify
 568              	.L53:
 431:../../../../../../Middlewares/Third_Party/LoRaWAN/Mac/region/RegionEU868.c ****     {
 432:../../../../../../Middlewares/Third_Party/LoRaWAN/Mac/region/RegionEU868.c ****         case PHY_TX_DR:
 433:../../../../../../Middlewares/Third_Party/LoRaWAN/Mac/region/RegionEU868.c ****         {
 434:../../../../../../Middlewares/Third_Party/LoRaWAN/Mac/region/RegionEU868.c ****             return RegionCommonValueInRange( verify->DatarateParams.Datarate, EU868_TX_MIN_DATARATE
 435:../../../../../../Middlewares/Third_Party/LoRaWAN/Mac/region/RegionEU868.c ****         }
 436:../../../../../../Middlewares/Third_Party/LoRaWAN/Mac/region/RegionEU868.c ****         case PHY_DEF_TX_DR:
 437:../../../../../../Middlewares/Third_Party/LoRaWAN/Mac/region/RegionEU868.c ****         {
 438:../../../../../../Middlewares/Third_Party/LoRaWAN/Mac/region/RegionEU868.c ****             return RegionCommonValueInRange( verify->DatarateParams.Datarate, DR_0, DR_5 );
 439:../../../../../../Middlewares/Third_Party/LoRaWAN/Mac/region/RegionEU868.c ****         }
 440:../../../../../../Middlewares/Third_Party/LoRaWAN/Mac/region/RegionEU868.c ****         case PHY_RX_DR:
 441:../../../../../../Middlewares/Third_Party/LoRaWAN/Mac/region/RegionEU868.c ****         {
 442:../../../../../../Middlewares/Third_Party/LoRaWAN/Mac/region/RegionEU868.c ****             return RegionCommonValueInRange( verify->DatarateParams.Datarate, EU868_RX_MIN_DATARATE
 443:../../../../../../Middlewares/Third_Party/LoRaWAN/Mac/region/RegionEU868.c ****         }
 444:../../../../../../Middlewares/Third_Party/LoRaWAN/Mac/region/RegionEU868.c ****         case PHY_DEF_TX_POWER:
 445:../../../../../../Middlewares/Third_Party/LoRaWAN/Mac/region/RegionEU868.c ****         case PHY_TX_POWER:
 446:../../../../../../Middlewares/Third_Party/LoRaWAN/Mac/region/RegionEU868.c ****         {
 447:../../../../../../Middlewares/Third_Party/LoRaWAN/Mac/region/RegionEU868.c ****             // Remark: switched min and max!
 448:../../../../../../Middlewares/Third_Party/LoRaWAN/Mac/region/RegionEU868.c ****             return RegionCommonValueInRange( verify->TxPower, EU868_MAX_TX_POWER, EU868_MIN_TX_POWE
 569              		.loc 1 448 0
 570 0012 0078     		ldrb	r0, [r0]
 571              	.LVL26:
 572 0014 0722     		movs	r2, #7
 573 0016 40B2     		sxtb	r0, r0
 574 0018 0021     		movs	r1, #0
 575 001a FFF7FEFF 		bl	RegionCommonValueInRange
 576              	.LVL27:
 577 001e 431E     		subs	r3, r0, #1
 578 0020 9841     		sbcs	r0, r0, r3
ARM GAS  C:\Users\EBANO_~1\AppData\Local\Temp\ccJkfoGk.s 			page 20


 579 0022 C0B2     		uxtb	r0, r0
 580              	.L54:
 449:../../../../../../Middlewares/Third_Party/LoRaWAN/Mac/region/RegionEU868.c ****         }
 450:../../../../../../Middlewares/Third_Party/LoRaWAN/Mac/region/RegionEU868.c ****         case PHY_DUTY_CYCLE:
 451:../../../../../../Middlewares/Third_Party/LoRaWAN/Mac/region/RegionEU868.c ****         {
 452:../../../../../../Middlewares/Third_Party/LoRaWAN/Mac/region/RegionEU868.c ****             return EU868_DUTY_CYCLE_ENABLED;
 453:../../../../../../Middlewares/Third_Party/LoRaWAN/Mac/region/RegionEU868.c ****         }
 454:../../../../../../Middlewares/Third_Party/LoRaWAN/Mac/region/RegionEU868.c ****         default:
 455:../../../../../../Middlewares/Third_Party/LoRaWAN/Mac/region/RegionEU868.c ****             return false;
 456:../../../../../../Middlewares/Third_Party/LoRaWAN/Mac/region/RegionEU868.c ****     }
 457:../../../../../../Middlewares/Third_Party/LoRaWAN/Mac/region/RegionEU868.c **** }
 581              		.loc 1 457 0
 582              		@ sp needed
 583 0024 10BD     		pop	{r4, pc}
 584              	.LVL28:
 585              	.L55:
 452:../../../../../../Middlewares/Third_Party/LoRaWAN/Mac/region/RegionEU868.c ****         }
 586              		.loc 1 452 0
 587 0026 0120     		movs	r0, #1
 588              	.LVL29:
 589 0028 FCE7     		b	.L54
 590              	.LVL30:
 591              	.L52:
 438:../../../../../../Middlewares/Third_Party/LoRaWAN/Mac/region/RegionEU868.c ****         }
 592              		.loc 1 438 0
 593 002a 0078     		ldrb	r0, [r0]
 594              	.LVL31:
 595 002c 0522     		movs	r2, #5
 596 002e 40B2     		sxtb	r0, r0
 597 0030 0021     		movs	r1, #0
 598 0032 FFF7FEFF 		bl	RegionCommonValueInRange
 599              	.LVL32:
 600 0036 431E     		subs	r3, r0, #1
 601 0038 9841     		sbcs	r0, r0, r3
 602 003a C0B2     		uxtb	r0, r0
 603 003c F2E7     		b	.L54
 604              	.LVL33:
 605              	.L49:
 455:../../../../../../Middlewares/Third_Party/LoRaWAN/Mac/region/RegionEU868.c ****     }
 606              		.loc 1 455 0
 607 003e 0020     		movs	r0, #0
 608              	.LVL34:
 609 0040 F0E7     		b	.L54
 610              	.L57:
 611 0042 C046     		.align	2
 612              	.L56:
 613 0044 AC000000 		.word	.L51
 614              		.cfi_endproc
 615              	.LFE48:
 616              		.size	RegionEU868Verify, .-RegionEU868Verify
 617              		.section	.text.RegionEU868ApplyCFList,"ax",%progbits
 618              		.align	1
 619              		.p2align 2,,3
 620              		.global	RegionEU868ApplyCFList
 621              		.syntax unified
 622              		.code	16
 623              		.thumb_func
ARM GAS  C:\Users\EBANO_~1\AppData\Local\Temp\ccJkfoGk.s 			page 21


 624              		.fpu softvfp
 625              		.type	RegionEU868ApplyCFList, %function
 626              	RegionEU868ApplyCFList:
 627              	.LFB49:
 458:../../../../../../Middlewares/Third_Party/LoRaWAN/Mac/region/RegionEU868.c **** 
 459:../../../../../../Middlewares/Third_Party/LoRaWAN/Mac/region/RegionEU868.c **** void RegionEU868ApplyCFList( ApplyCFListParams_t* applyCFList )
 460:../../../../../../Middlewares/Third_Party/LoRaWAN/Mac/region/RegionEU868.c **** {
 628              		.loc 1 460 0
 629              		.cfi_startproc
 630              		@ args = 0, pretend = 0, frame = 24
 631              		@ frame_needed = 0, uses_anonymous_args = 0
 632              	.LVL35:
 633 0000 F0B5     		push	{r4, r5, r6, r7, lr}
 634              	.LCFI6:
 635              		.cfi_def_cfa_offset 20
 636              		.cfi_offset 4, -20
 637              		.cfi_offset 5, -16
 638              		.cfi_offset 6, -12
 639              		.cfi_offset 7, -8
 640              		.cfi_offset 14, -4
 641 0002 5746     		mov	r7, r10
 642 0004 DE46     		mov	lr, fp
 643 0006 4E46     		mov	r6, r9
 644 0008 4546     		mov	r5, r8
 461:../../../../../../Middlewares/Third_Party/LoRaWAN/Mac/region/RegionEU868.c ****     ChannelParams_t newChannel;
 462:../../../../../../Middlewares/Third_Party/LoRaWAN/Mac/region/RegionEU868.c ****     ChannelAddParams_t channelAdd;
 463:../../../../../../Middlewares/Third_Party/LoRaWAN/Mac/region/RegionEU868.c ****     ChannelRemoveParams_t channelRemove;
 464:../../../../../../Middlewares/Third_Party/LoRaWAN/Mac/region/RegionEU868.c **** 
 465:../../../../../../Middlewares/Third_Party/LoRaWAN/Mac/region/RegionEU868.c ****     // Setup default datarate range
 466:../../../../../../Middlewares/Third_Party/LoRaWAN/Mac/region/RegionEU868.c ****     newChannel.DrRange.Value = ( DR_5 << 4 ) | DR_0;
 645              		.loc 1 466 0
 646 000a 5023     		movs	r3, #80
 460:../../../../../../Middlewares/Third_Party/LoRaWAN/Mac/region/RegionEU868.c ****     ChannelParams_t newChannel;
 647              		.loc 1 460 0
 648 000c E0B5     		push	{r5, r6, r7, lr}
 649              	.LCFI7:
 650              		.cfi_def_cfa_offset 36
 651              		.cfi_offset 8, -36
 652              		.cfi_offset 9, -32
 653              		.cfi_offset 10, -28
 654              		.cfi_offset 11, -24
 655 000e 87B0     		sub	sp, sp, #28
 656              	.LCFI8:
 657              		.cfi_def_cfa_offset 64
 658              		.loc 1 466 0
 659 0010 03AC     		add	r4, sp, #12
 660 0012 2372     		strb	r3, [r4, #8]
 467:../../../../../../Middlewares/Third_Party/LoRaWAN/Mac/region/RegionEU868.c **** 
 468:../../../../../../Middlewares/Third_Party/LoRaWAN/Mac/region/RegionEU868.c ****     // Size of the optional CF list
 469:../../../../../../Middlewares/Third_Party/LoRaWAN/Mac/region/RegionEU868.c ****     if( applyCFList->Size != 16 )
 661              		.loc 1 469 0
 662 0014 0379     		ldrb	r3, [r0, #4]
 460:../../../../../../Middlewares/Third_Party/LoRaWAN/Mac/region/RegionEU868.c ****     ChannelParams_t newChannel;
 663              		.loc 1 460 0
 664 0016 0700     		movs	r7, r0
 665              		.loc 1 469 0
 666 0018 102B     		cmp	r3, #16
ARM GAS  C:\Users\EBANO_~1\AppData\Local\Temp\ccJkfoGk.s 			page 22


 667 001a 06D0     		beq	.L83
 668              	.LVL36:
 669              	.L58:
 470:../../../../../../Middlewares/Third_Party/LoRaWAN/Mac/region/RegionEU868.c ****     {
 471:../../../../../../Middlewares/Third_Party/LoRaWAN/Mac/region/RegionEU868.c ****         return;
 472:../../../../../../Middlewares/Third_Party/LoRaWAN/Mac/region/RegionEU868.c ****     }
 473:../../../../../../Middlewares/Third_Party/LoRaWAN/Mac/region/RegionEU868.c **** 
 474:../../../../../../Middlewares/Third_Party/LoRaWAN/Mac/region/RegionEU868.c ****     // Last byte CFListType must be 0 to indicate the CFList contains a list of frequencies
 475:../../../../../../Middlewares/Third_Party/LoRaWAN/Mac/region/RegionEU868.c ****     if( applyCFList->Payload[15] != 0 )
 476:../../../../../../Middlewares/Third_Party/LoRaWAN/Mac/region/RegionEU868.c ****     {
 477:../../../../../../Middlewares/Third_Party/LoRaWAN/Mac/region/RegionEU868.c ****         return;
 478:../../../../../../Middlewares/Third_Party/LoRaWAN/Mac/region/RegionEU868.c ****     }
 479:../../../../../../Middlewares/Third_Party/LoRaWAN/Mac/region/RegionEU868.c **** 
 480:../../../../../../Middlewares/Third_Party/LoRaWAN/Mac/region/RegionEU868.c ****     // Last byte is RFU, don't take it into account
 481:../../../../../../Middlewares/Third_Party/LoRaWAN/Mac/region/RegionEU868.c ****     for( uint8_t i = 0, chanIdx = EU868_NUMB_DEFAULT_CHANNELS; chanIdx < EU868_MAX_NB_CHANNELS; i+=
 482:../../../../../../Middlewares/Third_Party/LoRaWAN/Mac/region/RegionEU868.c ****     {
 483:../../../../../../Middlewares/Third_Party/LoRaWAN/Mac/region/RegionEU868.c ****         if( chanIdx < ( EU868_NUMB_CHANNELS_CF_LIST + EU868_NUMB_DEFAULT_CHANNELS ) )
 484:../../../../../../Middlewares/Third_Party/LoRaWAN/Mac/region/RegionEU868.c ****         {
 485:../../../../../../Middlewares/Third_Party/LoRaWAN/Mac/region/RegionEU868.c ****             // Channel frequency
 486:../../../../../../Middlewares/Third_Party/LoRaWAN/Mac/region/RegionEU868.c ****             newChannel.Frequency = (uint32_t) applyCFList->Payload[i];
 487:../../../../../../Middlewares/Third_Party/LoRaWAN/Mac/region/RegionEU868.c ****             newChannel.Frequency |= ( (uint32_t) applyCFList->Payload[i + 1] << 8 );
 488:../../../../../../Middlewares/Third_Party/LoRaWAN/Mac/region/RegionEU868.c ****             newChannel.Frequency |= ( (uint32_t) applyCFList->Payload[i + 2] << 16 );
 489:../../../../../../Middlewares/Third_Party/LoRaWAN/Mac/region/RegionEU868.c ****             newChannel.Frequency *= 100;
 490:../../../../../../Middlewares/Third_Party/LoRaWAN/Mac/region/RegionEU868.c **** 
 491:../../../../../../Middlewares/Third_Party/LoRaWAN/Mac/region/RegionEU868.c ****             // Initialize alternative frequency to 0
 492:../../../../../../Middlewares/Third_Party/LoRaWAN/Mac/region/RegionEU868.c ****             newChannel.Rx1Frequency = 0;
 493:../../../../../../Middlewares/Third_Party/LoRaWAN/Mac/region/RegionEU868.c ****         }
 494:../../../../../../Middlewares/Third_Party/LoRaWAN/Mac/region/RegionEU868.c ****         else
 495:../../../../../../Middlewares/Third_Party/LoRaWAN/Mac/region/RegionEU868.c ****         {
 496:../../../../../../Middlewares/Third_Party/LoRaWAN/Mac/region/RegionEU868.c ****             newChannel.Frequency = 0;
 497:../../../../../../Middlewares/Third_Party/LoRaWAN/Mac/region/RegionEU868.c ****             newChannel.DrRange.Value = 0;
 498:../../../../../../Middlewares/Third_Party/LoRaWAN/Mac/region/RegionEU868.c ****             newChannel.Rx1Frequency = 0;
 499:../../../../../../Middlewares/Third_Party/LoRaWAN/Mac/region/RegionEU868.c ****         }
 500:../../../../../../Middlewares/Third_Party/LoRaWAN/Mac/region/RegionEU868.c **** 
 501:../../../../../../Middlewares/Third_Party/LoRaWAN/Mac/region/RegionEU868.c ****         if( newChannel.Frequency != 0 )
 502:../../../../../../Middlewares/Third_Party/LoRaWAN/Mac/region/RegionEU868.c ****         {
 503:../../../../../../Middlewares/Third_Party/LoRaWAN/Mac/region/RegionEU868.c ****             channelAdd.NewChannel = &newChannel;
 504:../../../../../../Middlewares/Third_Party/LoRaWAN/Mac/region/RegionEU868.c ****             channelAdd.ChannelId = chanIdx;
 505:../../../../../../Middlewares/Third_Party/LoRaWAN/Mac/region/RegionEU868.c **** 
 506:../../../../../../Middlewares/Third_Party/LoRaWAN/Mac/region/RegionEU868.c ****             // Try to add all channels
 507:../../../../../../Middlewares/Third_Party/LoRaWAN/Mac/region/RegionEU868.c ****             RegionEU868ChannelAdd( &channelAdd );
 508:../../../../../../Middlewares/Third_Party/LoRaWAN/Mac/region/RegionEU868.c ****         }
 509:../../../../../../Middlewares/Third_Party/LoRaWAN/Mac/region/RegionEU868.c ****         else
 510:../../../../../../Middlewares/Third_Party/LoRaWAN/Mac/region/RegionEU868.c ****         {
 511:../../../../../../Middlewares/Third_Party/LoRaWAN/Mac/region/RegionEU868.c ****             channelRemove.ChannelId = chanIdx;
 512:../../../../../../Middlewares/Third_Party/LoRaWAN/Mac/region/RegionEU868.c **** 
 513:../../../../../../Middlewares/Third_Party/LoRaWAN/Mac/region/RegionEU868.c ****             RegionEU868ChannelsRemove( &channelRemove );
 514:../../../../../../Middlewares/Third_Party/LoRaWAN/Mac/region/RegionEU868.c ****         }
 515:../../../../../../Middlewares/Third_Party/LoRaWAN/Mac/region/RegionEU868.c ****     }
 516:../../../../../../Middlewares/Third_Party/LoRaWAN/Mac/region/RegionEU868.c **** }
 670              		.loc 1 516 0
 671 001c 07B0     		add	sp, sp, #28
 672              		@ sp needed
 673              	.LVL37:
 674 001e 3CBC     		pop	{r2, r3, r4, r5}
 675 0020 9046     		mov	r8, r2
 676 0022 9946     		mov	r9, r3
ARM GAS  C:\Users\EBANO_~1\AppData\Local\Temp\ccJkfoGk.s 			page 23


 677 0024 A246     		mov	r10, r4
 678 0026 AB46     		mov	fp, r5
 679 0028 F0BD     		pop	{r4, r5, r6, r7, pc}
 680              	.LVL38:
 681              	.L83:
 475:../../../../../../Middlewares/Third_Party/LoRaWAN/Mac/region/RegionEU868.c ****     {
 682              		.loc 1 475 0
 683 002a 0368     		ldr	r3, [r0]
 684 002c DB7B     		ldrb	r3, [r3, #15]
 685 002e 002B     		cmp	r3, #0
 686 0030 F4D1     		bne	.L58
 687              	.LBB27:
 688              	.LBB28:
 689              	.LBB29:
 517:../../../../../../Middlewares/Third_Party/LoRaWAN/Mac/region/RegionEU868.c **** 
 518:../../../../../../Middlewares/Third_Party/LoRaWAN/Mac/region/RegionEU868.c **** bool RegionEU868ChanMaskSet( ChanMaskSetParams_t* chanMaskSet )
 519:../../../../../../Middlewares/Third_Party/LoRaWAN/Mac/region/RegionEU868.c **** {
 520:../../../../../../Middlewares/Third_Party/LoRaWAN/Mac/region/RegionEU868.c ****     switch( chanMaskSet->ChannelsMaskType )
 521:../../../../../../Middlewares/Third_Party/LoRaWAN/Mac/region/RegionEU868.c ****     {
 522:../../../../../../Middlewares/Third_Party/LoRaWAN/Mac/region/RegionEU868.c ****         case CHANNELS_MASK:
 523:../../../../../../Middlewares/Third_Party/LoRaWAN/Mac/region/RegionEU868.c ****         {
 524:../../../../../../Middlewares/Third_Party/LoRaWAN/Mac/region/RegionEU868.c ****             RegionCommonChanMaskCopy( NvmCtx.ChannelsMask, chanMaskSet->ChannelsMaskIn, 1 );
 525:../../../../../../Middlewares/Third_Party/LoRaWAN/Mac/region/RegionEU868.c ****             break;
 526:../../../../../../Middlewares/Third_Party/LoRaWAN/Mac/region/RegionEU868.c ****         }
 527:../../../../../../Middlewares/Third_Party/LoRaWAN/Mac/region/RegionEU868.c ****         case CHANNELS_DEFAULT_MASK:
 528:../../../../../../Middlewares/Third_Party/LoRaWAN/Mac/region/RegionEU868.c ****         {
 529:../../../../../../Middlewares/Third_Party/LoRaWAN/Mac/region/RegionEU868.c ****             RegionCommonChanMaskCopy( NvmCtx.ChannelsDefaultMask, chanMaskSet->ChannelsMaskIn, 1 );
 530:../../../../../../Middlewares/Third_Party/LoRaWAN/Mac/region/RegionEU868.c ****             break;
 531:../../../../../../Middlewares/Third_Party/LoRaWAN/Mac/region/RegionEU868.c ****         }
 532:../../../../../../Middlewares/Third_Party/LoRaWAN/Mac/region/RegionEU868.c ****         default:
 533:../../../../../../Middlewares/Third_Party/LoRaWAN/Mac/region/RegionEU868.c ****             return false;
 534:../../../../../../Middlewares/Third_Party/LoRaWAN/Mac/region/RegionEU868.c ****     }
 535:../../../../../../Middlewares/Third_Party/LoRaWAN/Mac/region/RegionEU868.c ****     return true;
 536:../../../../../../Middlewares/Third_Party/LoRaWAN/Mac/region/RegionEU868.c **** }
 537:../../../../../../Middlewares/Third_Party/LoRaWAN/Mac/region/RegionEU868.c **** 
 538:../../../../../../Middlewares/Third_Party/LoRaWAN/Mac/region/RegionEU868.c **** void RegionEU868ComputeRxWindowParameters( int8_t datarate, uint8_t minRxSymbols, uint32_t rxError,
 539:../../../../../../Middlewares/Third_Party/LoRaWAN/Mac/region/RegionEU868.c **** {
 540:../../../../../../Middlewares/Third_Party/LoRaWAN/Mac/region/RegionEU868.c ****     double tSymbol = 0.0;
 541:../../../../../../Middlewares/Third_Party/LoRaWAN/Mac/region/RegionEU868.c **** 
 542:../../../../../../Middlewares/Third_Party/LoRaWAN/Mac/region/RegionEU868.c ****     // Get the datarate, perform a boundary check
 543:../../../../../../Middlewares/Third_Party/LoRaWAN/Mac/region/RegionEU868.c ****     rxConfigParams->Datarate = MIN( datarate, EU868_RX_MAX_DATARATE );
 544:../../../../../../Middlewares/Third_Party/LoRaWAN/Mac/region/RegionEU868.c ****     rxConfigParams->Bandwidth = GetBandwidth( rxConfigParams->Datarate );
 545:../../../../../../Middlewares/Third_Party/LoRaWAN/Mac/region/RegionEU868.c **** 
 546:../../../../../../Middlewares/Third_Party/LoRaWAN/Mac/region/RegionEU868.c ****     if( rxConfigParams->Datarate == DR_7 )
 547:../../../../../../Middlewares/Third_Party/LoRaWAN/Mac/region/RegionEU868.c ****     { // FSK
 548:../../../../../../Middlewares/Third_Party/LoRaWAN/Mac/region/RegionEU868.c ****         tSymbol = RegionCommonComputeSymbolTimeFsk( DataratesEU868[rxConfigParams->Datarate] );
 549:../../../../../../Middlewares/Third_Party/LoRaWAN/Mac/region/RegionEU868.c ****     }
 550:../../../../../../Middlewares/Third_Party/LoRaWAN/Mac/region/RegionEU868.c ****     else
 551:../../../../../../Middlewares/Third_Party/LoRaWAN/Mac/region/RegionEU868.c ****     { // LoRa
 552:../../../../../../Middlewares/Third_Party/LoRaWAN/Mac/region/RegionEU868.c ****         tSymbol = RegionCommonComputeSymbolTimeLoRa( DataratesEU868[rxConfigParams->Datarate], Band
 553:../../../../../../Middlewares/Third_Party/LoRaWAN/Mac/region/RegionEU868.c ****     }
 554:../../../../../../Middlewares/Third_Party/LoRaWAN/Mac/region/RegionEU868.c **** 
 555:../../../../../../Middlewares/Third_Party/LoRaWAN/Mac/region/RegionEU868.c ****     RegionCommonComputeRxWindowParameters( tSymbol, minRxSymbols, rxError, Radio.GetWakeupTime( ), 
 556:../../../../../../Middlewares/Third_Party/LoRaWAN/Mac/region/RegionEU868.c **** }
 557:../../../../../../Middlewares/Third_Party/LoRaWAN/Mac/region/RegionEU868.c **** 
 558:../../../../../../Middlewares/Third_Party/LoRaWAN/Mac/region/RegionEU868.c **** bool RegionEU868RxConfig( RxConfigParams_t* rxConfig, int8_t* datarate )
 559:../../../../../../Middlewares/Third_Party/LoRaWAN/Mac/region/RegionEU868.c **** {
ARM GAS  C:\Users\EBANO_~1\AppData\Local\Temp\ccJkfoGk.s 			page 24


 560:../../../../../../Middlewares/Third_Party/LoRaWAN/Mac/region/RegionEU868.c ****     RadioModems_t modem;
 561:../../../../../../Middlewares/Third_Party/LoRaWAN/Mac/region/RegionEU868.c ****     int8_t dr = rxConfig->Datarate;
 562:../../../../../../Middlewares/Third_Party/LoRaWAN/Mac/region/RegionEU868.c ****     uint8_t maxPayload = 0;
 563:../../../../../../Middlewares/Third_Party/LoRaWAN/Mac/region/RegionEU868.c ****     int8_t phyDr = 0;
 564:../../../../../../Middlewares/Third_Party/LoRaWAN/Mac/region/RegionEU868.c ****     uint32_t frequency = rxConfig->Frequency;
 565:../../../../../../Middlewares/Third_Party/LoRaWAN/Mac/region/RegionEU868.c **** 
 566:../../../../../../Middlewares/Third_Party/LoRaWAN/Mac/region/RegionEU868.c ****     if( Radio.GetStatus( ) != RF_IDLE )
 567:../../../../../../Middlewares/Third_Party/LoRaWAN/Mac/region/RegionEU868.c ****     {
 568:../../../../../../Middlewares/Third_Party/LoRaWAN/Mac/region/RegionEU868.c ****         return false;
 569:../../../../../../Middlewares/Third_Party/LoRaWAN/Mac/region/RegionEU868.c ****     }
 570:../../../../../../Middlewares/Third_Party/LoRaWAN/Mac/region/RegionEU868.c **** 
 571:../../../../../../Middlewares/Third_Party/LoRaWAN/Mac/region/RegionEU868.c ****     if( rxConfig->RxSlot == RX_SLOT_WIN_1 )
 572:../../../../../../Middlewares/Third_Party/LoRaWAN/Mac/region/RegionEU868.c ****     {
 573:../../../../../../Middlewares/Third_Party/LoRaWAN/Mac/region/RegionEU868.c ****         // Apply window 1 frequency
 574:../../../../../../Middlewares/Third_Party/LoRaWAN/Mac/region/RegionEU868.c ****         frequency = NvmCtx.Channels[rxConfig->Channel].Frequency;
 575:../../../../../../Middlewares/Third_Party/LoRaWAN/Mac/region/RegionEU868.c ****         // Apply the alternative RX 1 window frequency, if it is available
 576:../../../../../../Middlewares/Third_Party/LoRaWAN/Mac/region/RegionEU868.c ****         if( NvmCtx.Channels[rxConfig->Channel].Rx1Frequency != 0 )
 577:../../../../../../Middlewares/Third_Party/LoRaWAN/Mac/region/RegionEU868.c ****         {
 578:../../../../../../Middlewares/Third_Party/LoRaWAN/Mac/region/RegionEU868.c ****             frequency = NvmCtx.Channels[rxConfig->Channel].Rx1Frequency;
 579:../../../../../../Middlewares/Third_Party/LoRaWAN/Mac/region/RegionEU868.c ****         }
 580:../../../../../../Middlewares/Third_Party/LoRaWAN/Mac/region/RegionEU868.c ****     }
 581:../../../../../../Middlewares/Third_Party/LoRaWAN/Mac/region/RegionEU868.c **** 
 582:../../../../../../Middlewares/Third_Party/LoRaWAN/Mac/region/RegionEU868.c ****     // Read the physical datarate from the datarates table
 583:../../../../../../Middlewares/Third_Party/LoRaWAN/Mac/region/RegionEU868.c ****     phyDr = DataratesEU868[dr];
 584:../../../../../../Middlewares/Third_Party/LoRaWAN/Mac/region/RegionEU868.c **** 
 585:../../../../../../Middlewares/Third_Party/LoRaWAN/Mac/region/RegionEU868.c ****     Radio.SetChannel( frequency );
 586:../../../../../../Middlewares/Third_Party/LoRaWAN/Mac/region/RegionEU868.c **** 
 587:../../../../../../Middlewares/Third_Party/LoRaWAN/Mac/region/RegionEU868.c ****     // Radio configuration
 588:../../../../../../Middlewares/Third_Party/LoRaWAN/Mac/region/RegionEU868.c ****     if( dr == DR_7 )
 589:../../../../../../Middlewares/Third_Party/LoRaWAN/Mac/region/RegionEU868.c ****     {
 590:../../../../../../Middlewares/Third_Party/LoRaWAN/Mac/region/RegionEU868.c ****         modem = MODEM_FSK;
 591:../../../../../../Middlewares/Third_Party/LoRaWAN/Mac/region/RegionEU868.c ****         Radio.SetRxConfig( modem, 50000, phyDr * 1000, 0, 83333, 5, rxConfig->WindowTimeout, false,
 592:../../../../../../Middlewares/Third_Party/LoRaWAN/Mac/region/RegionEU868.c ****     }
 593:../../../../../../Middlewares/Third_Party/LoRaWAN/Mac/region/RegionEU868.c ****     else
 594:../../../../../../Middlewares/Third_Party/LoRaWAN/Mac/region/RegionEU868.c ****     {
 595:../../../../../../Middlewares/Third_Party/LoRaWAN/Mac/region/RegionEU868.c ****         modem = MODEM_LORA;
 596:../../../../../../Middlewares/Third_Party/LoRaWAN/Mac/region/RegionEU868.c ****         Radio.SetRxConfig( modem, rxConfig->Bandwidth, phyDr, 1, 0, 8, rxConfig->WindowTimeout, fal
 597:../../../../../../Middlewares/Third_Party/LoRaWAN/Mac/region/RegionEU868.c ****     }
 598:../../../../../../Middlewares/Third_Party/LoRaWAN/Mac/region/RegionEU868.c **** 
 599:../../../../../../Middlewares/Third_Party/LoRaWAN/Mac/region/RegionEU868.c ****     if( rxConfig->RepeaterSupport == true )
 600:../../../../../../Middlewares/Third_Party/LoRaWAN/Mac/region/RegionEU868.c ****     {
 601:../../../../../../Middlewares/Third_Party/LoRaWAN/Mac/region/RegionEU868.c ****         maxPayload = MaxPayloadOfDatarateRepeaterEU868[dr];
 602:../../../../../../Middlewares/Third_Party/LoRaWAN/Mac/region/RegionEU868.c ****     }
 603:../../../../../../Middlewares/Third_Party/LoRaWAN/Mac/region/RegionEU868.c ****     else
 604:../../../../../../Middlewares/Third_Party/LoRaWAN/Mac/region/RegionEU868.c ****     {
 605:../../../../../../Middlewares/Third_Party/LoRaWAN/Mac/region/RegionEU868.c ****         maxPayload = MaxPayloadOfDatarateEU868[dr];
 606:../../../../../../Middlewares/Third_Party/LoRaWAN/Mac/region/RegionEU868.c ****     }
 607:../../../../../../Middlewares/Third_Party/LoRaWAN/Mac/region/RegionEU868.c **** 
 608:../../../../../../Middlewares/Third_Party/LoRaWAN/Mac/region/RegionEU868.c ****     Radio.SetMaxPayloadLength( modem, maxPayload + LORA_MAC_FRMPAYLOAD_OVERHEAD );
 609:../../../../../../Middlewares/Third_Party/LoRaWAN/Mac/region/RegionEU868.c ****     TVL1( PRINTF( "RX on freq %d Hz at DR %d\n\r", frequency, dr );)
 610:../../../../../../Middlewares/Third_Party/LoRaWAN/Mac/region/RegionEU868.c **** 
 611:../../../../../../Middlewares/Third_Party/LoRaWAN/Mac/region/RegionEU868.c ****     *datarate = (uint8_t) dr;
 612:../../../../../../Middlewares/Third_Party/LoRaWAN/Mac/region/RegionEU868.c ****     return true;
 613:../../../../../../Middlewares/Third_Party/LoRaWAN/Mac/region/RegionEU868.c **** }
 614:../../../../../../Middlewares/Third_Party/LoRaWAN/Mac/region/RegionEU868.c **** 
 615:../../../../../../Middlewares/Third_Party/LoRaWAN/Mac/region/RegionEU868.c **** bool RegionEU868TxConfig( TxConfigParams_t* txConfig, int8_t* txPower, TimerTime_t* txTimeOnAir )
 616:../../../../../../Middlewares/Third_Party/LoRaWAN/Mac/region/RegionEU868.c **** {
ARM GAS  C:\Users\EBANO_~1\AppData\Local\Temp\ccJkfoGk.s 			page 25


 617:../../../../../../Middlewares/Third_Party/LoRaWAN/Mac/region/RegionEU868.c ****     RadioModems_t modem;
 618:../../../../../../Middlewares/Third_Party/LoRaWAN/Mac/region/RegionEU868.c ****     int8_t phyDr = DataratesEU868[txConfig->Datarate];
 619:../../../../../../Middlewares/Third_Party/LoRaWAN/Mac/region/RegionEU868.c ****     int8_t txPowerLimited = LimitTxPower( txConfig->TxPower, NvmCtx.Bands[NvmCtx.Channels[txConfig-
 620:../../../../../../Middlewares/Third_Party/LoRaWAN/Mac/region/RegionEU868.c ****     uint32_t bandwidth = GetBandwidth( txConfig->Datarate );
 621:../../../../../../Middlewares/Third_Party/LoRaWAN/Mac/region/RegionEU868.c ****     int8_t phyTxPower = 0;
 622:../../../../../../Middlewares/Third_Party/LoRaWAN/Mac/region/RegionEU868.c **** 
 623:../../../../../../Middlewares/Third_Party/LoRaWAN/Mac/region/RegionEU868.c ****     // Calculate physical TX power
 624:../../../../../../Middlewares/Third_Party/LoRaWAN/Mac/region/RegionEU868.c ****     phyTxPower = RegionCommonComputeTxPower( txPowerLimited, txConfig->MaxEirp, txConfig->AntennaGa
 625:../../../../../../Middlewares/Third_Party/LoRaWAN/Mac/region/RegionEU868.c **** 
 626:../../../../../../Middlewares/Third_Party/LoRaWAN/Mac/region/RegionEU868.c ****     // Setup the radio frequency
 627:../../../../../../Middlewares/Third_Party/LoRaWAN/Mac/region/RegionEU868.c ****     Radio.SetChannel( NvmCtx.Channels[txConfig->Channel].Frequency );
 628:../../../../../../Middlewares/Third_Party/LoRaWAN/Mac/region/RegionEU868.c **** 
 629:../../../../../../Middlewares/Third_Party/LoRaWAN/Mac/region/RegionEU868.c ****     if( txConfig->Datarate == DR_7 )
 630:../../../../../../Middlewares/Third_Party/LoRaWAN/Mac/region/RegionEU868.c ****     { // High Speed FSK channel
 631:../../../../../../Middlewares/Third_Party/LoRaWAN/Mac/region/RegionEU868.c ****         modem = MODEM_FSK;
 632:../../../../../../Middlewares/Third_Party/LoRaWAN/Mac/region/RegionEU868.c ****         Radio.SetTxConfig( modem, phyTxPower, 25000, bandwidth, phyDr * 1000, 0, 5, false, true, 0,
 633:../../../../../../Middlewares/Third_Party/LoRaWAN/Mac/region/RegionEU868.c ****     }
 634:../../../../../../Middlewares/Third_Party/LoRaWAN/Mac/region/RegionEU868.c ****     else
 635:../../../../../../Middlewares/Third_Party/LoRaWAN/Mac/region/RegionEU868.c ****     {
 636:../../../../../../Middlewares/Third_Party/LoRaWAN/Mac/region/RegionEU868.c ****         modem = MODEM_LORA;
 637:../../../../../../Middlewares/Third_Party/LoRaWAN/Mac/region/RegionEU868.c ****         Radio.SetTxConfig( modem, phyTxPower, 0, bandwidth, phyDr, 1, 8, false, true, 0, 0, false, 
 638:../../../../../../Middlewares/Third_Party/LoRaWAN/Mac/region/RegionEU868.c ****     }
 639:../../../../../../Middlewares/Third_Party/LoRaWAN/Mac/region/RegionEU868.c ****     TVL1( PRINTF( "TX on freq %d Hz at DR %d\n\r", NvmCtx.Channels[txConfig->Channel].Frequency, tx
 640:../../../../../../Middlewares/Third_Party/LoRaWAN/Mac/region/RegionEU868.c **** 
 641:../../../../../../Middlewares/Third_Party/LoRaWAN/Mac/region/RegionEU868.c ****     // Setup maximum payload lenght of the radio driver
 642:../../../../../../Middlewares/Third_Party/LoRaWAN/Mac/region/RegionEU868.c ****     Radio.SetMaxPayloadLength( modem, txConfig->PktLen );
 643:../../../../../../Middlewares/Third_Party/LoRaWAN/Mac/region/RegionEU868.c ****     // Get the time-on-air of the next tx frame
 644:../../../../../../Middlewares/Third_Party/LoRaWAN/Mac/region/RegionEU868.c ****     *txTimeOnAir = Radio.TimeOnAir( modem, txConfig->PktLen );
 645:../../../../../../Middlewares/Third_Party/LoRaWAN/Mac/region/RegionEU868.c **** 
 646:../../../../../../Middlewares/Third_Party/LoRaWAN/Mac/region/RegionEU868.c ****     *txPower = txPowerLimited;
 647:../../../../../../Middlewares/Third_Party/LoRaWAN/Mac/region/RegionEU868.c ****     return true;
 648:../../../../../../Middlewares/Third_Party/LoRaWAN/Mac/region/RegionEU868.c **** }
 649:../../../../../../Middlewares/Third_Party/LoRaWAN/Mac/region/RegionEU868.c **** 
 650:../../../../../../Middlewares/Third_Party/LoRaWAN/Mac/region/RegionEU868.c **** uint8_t RegionEU868LinkAdrReq( LinkAdrReqParams_t* linkAdrReq, int8_t* drOut, int8_t* txPowOut, uin
 651:../../../../../../Middlewares/Third_Party/LoRaWAN/Mac/region/RegionEU868.c **** {
 652:../../../../../../Middlewares/Third_Party/LoRaWAN/Mac/region/RegionEU868.c ****     uint8_t status = 0x07;
 653:../../../../../../Middlewares/Third_Party/LoRaWAN/Mac/region/RegionEU868.c ****     RegionCommonLinkAdrParams_t linkAdrParams;
 654:../../../../../../Middlewares/Third_Party/LoRaWAN/Mac/region/RegionEU868.c ****     uint8_t nextIndex = 0;
 655:../../../../../../Middlewares/Third_Party/LoRaWAN/Mac/region/RegionEU868.c ****     uint8_t bytesProcessed = 0;
 656:../../../../../../Middlewares/Third_Party/LoRaWAN/Mac/region/RegionEU868.c ****     uint16_t chMask = 0;
 657:../../../../../../Middlewares/Third_Party/LoRaWAN/Mac/region/RegionEU868.c ****     GetPhyParams_t getPhy;
 658:../../../../../../Middlewares/Third_Party/LoRaWAN/Mac/region/RegionEU868.c ****     PhyParam_t phyParam;
 659:../../../../../../Middlewares/Third_Party/LoRaWAN/Mac/region/RegionEU868.c ****     RegionCommonLinkAdrReqVerifyParams_t linkAdrVerifyParams;
 660:../../../../../../Middlewares/Third_Party/LoRaWAN/Mac/region/RegionEU868.c **** 
 661:../../../../../../Middlewares/Third_Party/LoRaWAN/Mac/region/RegionEU868.c ****     while( bytesProcessed < linkAdrReq->PayloadSize )
 662:../../../../../../Middlewares/Third_Party/LoRaWAN/Mac/region/RegionEU868.c ****     {
 663:../../../../../../Middlewares/Third_Party/LoRaWAN/Mac/region/RegionEU868.c ****         // Get ADR request parameters
 664:../../../../../../Middlewares/Third_Party/LoRaWAN/Mac/region/RegionEU868.c ****         nextIndex = RegionCommonParseLinkAdrReq( &( linkAdrReq->Payload[bytesProcessed] ), &linkAdr
 665:../../../../../../Middlewares/Third_Party/LoRaWAN/Mac/region/RegionEU868.c **** 
 666:../../../../../../Middlewares/Third_Party/LoRaWAN/Mac/region/RegionEU868.c ****         if( nextIndex == 0 )
 667:../../../../../../Middlewares/Third_Party/LoRaWAN/Mac/region/RegionEU868.c ****             break; // break loop, since no more request has been found
 668:../../../../../../Middlewares/Third_Party/LoRaWAN/Mac/region/RegionEU868.c **** 
 669:../../../../../../Middlewares/Third_Party/LoRaWAN/Mac/region/RegionEU868.c ****         // Update bytes processed
 670:../../../../../../Middlewares/Third_Party/LoRaWAN/Mac/region/RegionEU868.c ****         bytesProcessed += nextIndex;
 671:../../../../../../Middlewares/Third_Party/LoRaWAN/Mac/region/RegionEU868.c **** 
 672:../../../../../../Middlewares/Third_Party/LoRaWAN/Mac/region/RegionEU868.c ****         // Revert status, as we only check the last ADR request for the channel mask KO
 673:../../../../../../Middlewares/Third_Party/LoRaWAN/Mac/region/RegionEU868.c ****         status = 0x07;
ARM GAS  C:\Users\EBANO_~1\AppData\Local\Temp\ccJkfoGk.s 			page 26


 674:../../../../../../Middlewares/Third_Party/LoRaWAN/Mac/region/RegionEU868.c **** 
 675:../../../../../../Middlewares/Third_Party/LoRaWAN/Mac/region/RegionEU868.c ****         // Setup temporary channels mask
 676:../../../../../../Middlewares/Third_Party/LoRaWAN/Mac/region/RegionEU868.c ****         chMask = linkAdrParams.ChMask;
 677:../../../../../../Middlewares/Third_Party/LoRaWAN/Mac/region/RegionEU868.c **** 
 678:../../../../../../Middlewares/Third_Party/LoRaWAN/Mac/region/RegionEU868.c ****         // Verify channels mask
 679:../../../../../../Middlewares/Third_Party/LoRaWAN/Mac/region/RegionEU868.c ****         if( ( linkAdrParams.ChMaskCtrl == 0 ) && ( chMask == 0 ) )
 680:../../../../../../Middlewares/Third_Party/LoRaWAN/Mac/region/RegionEU868.c ****         {
 681:../../../../../../Middlewares/Third_Party/LoRaWAN/Mac/region/RegionEU868.c ****             status &= 0xFE; // Channel mask KO
 682:../../../../../../Middlewares/Third_Party/LoRaWAN/Mac/region/RegionEU868.c ****         }
 683:../../../../../../Middlewares/Third_Party/LoRaWAN/Mac/region/RegionEU868.c ****         else if( ( ( linkAdrParams.ChMaskCtrl >= 1 ) && ( linkAdrParams.ChMaskCtrl <= 5 )) ||
 684:../../../../../../Middlewares/Third_Party/LoRaWAN/Mac/region/RegionEU868.c ****                 ( linkAdrParams.ChMaskCtrl >= 7 ) )
 685:../../../../../../Middlewares/Third_Party/LoRaWAN/Mac/region/RegionEU868.c ****         {
 686:../../../../../../Middlewares/Third_Party/LoRaWAN/Mac/region/RegionEU868.c ****             // RFU
 687:../../../../../../Middlewares/Third_Party/LoRaWAN/Mac/region/RegionEU868.c ****             status &= 0xFE; // Channel mask KO
 688:../../../../../../Middlewares/Third_Party/LoRaWAN/Mac/region/RegionEU868.c ****         }
 689:../../../../../../Middlewares/Third_Party/LoRaWAN/Mac/region/RegionEU868.c ****         else
 690:../../../../../../Middlewares/Third_Party/LoRaWAN/Mac/region/RegionEU868.c ****         {
 691:../../../../../../Middlewares/Third_Party/LoRaWAN/Mac/region/RegionEU868.c ****             for( uint8_t i = 0; i < EU868_MAX_NB_CHANNELS; i++ )
 692:../../../../../../Middlewares/Third_Party/LoRaWAN/Mac/region/RegionEU868.c ****             {
 693:../../../../../../Middlewares/Third_Party/LoRaWAN/Mac/region/RegionEU868.c ****                 if( linkAdrParams.ChMaskCtrl == 6 )
 694:../../../../../../Middlewares/Third_Party/LoRaWAN/Mac/region/RegionEU868.c ****                 {
 695:../../../../../../Middlewares/Third_Party/LoRaWAN/Mac/region/RegionEU868.c ****                     if( NvmCtx.Channels[i].Frequency != 0 )
 696:../../../../../../Middlewares/Third_Party/LoRaWAN/Mac/region/RegionEU868.c ****                     {
 697:../../../../../../Middlewares/Third_Party/LoRaWAN/Mac/region/RegionEU868.c ****                         chMask |= 1 << i;
 698:../../../../../../Middlewares/Third_Party/LoRaWAN/Mac/region/RegionEU868.c ****                     }
 699:../../../../../../Middlewares/Third_Party/LoRaWAN/Mac/region/RegionEU868.c ****                 }
 700:../../../../../../Middlewares/Third_Party/LoRaWAN/Mac/region/RegionEU868.c ****                 else
 701:../../../../../../Middlewares/Third_Party/LoRaWAN/Mac/region/RegionEU868.c ****                 {
 702:../../../../../../Middlewares/Third_Party/LoRaWAN/Mac/region/RegionEU868.c ****                     if( ( ( chMask & ( 1 << i ) ) != 0 ) &&
 703:../../../../../../Middlewares/Third_Party/LoRaWAN/Mac/region/RegionEU868.c ****                         ( NvmCtx.Channels[i].Frequency == 0 ) )
 704:../../../../../../Middlewares/Third_Party/LoRaWAN/Mac/region/RegionEU868.c ****                     {// Trying to enable an undefined channel
 705:../../../../../../Middlewares/Third_Party/LoRaWAN/Mac/region/RegionEU868.c ****                         status &= 0xFE; // Channel mask KO
 706:../../../../../../Middlewares/Third_Party/LoRaWAN/Mac/region/RegionEU868.c ****                     }
 707:../../../../../../Middlewares/Third_Party/LoRaWAN/Mac/region/RegionEU868.c ****                 }
 708:../../../../../../Middlewares/Third_Party/LoRaWAN/Mac/region/RegionEU868.c ****             }
 709:../../../../../../Middlewares/Third_Party/LoRaWAN/Mac/region/RegionEU868.c ****         }
 710:../../../../../../Middlewares/Third_Party/LoRaWAN/Mac/region/RegionEU868.c ****     }
 711:../../../../../../Middlewares/Third_Party/LoRaWAN/Mac/region/RegionEU868.c **** 
 712:../../../../../../Middlewares/Third_Party/LoRaWAN/Mac/region/RegionEU868.c ****     // Get the minimum possible datarate
 713:../../../../../../Middlewares/Third_Party/LoRaWAN/Mac/region/RegionEU868.c ****     getPhy.Attribute = PHY_MIN_TX_DR;
 714:../../../../../../Middlewares/Third_Party/LoRaWAN/Mac/region/RegionEU868.c ****     getPhy.UplinkDwellTime = linkAdrReq->UplinkDwellTime;
 715:../../../../../../Middlewares/Third_Party/LoRaWAN/Mac/region/RegionEU868.c ****     phyParam = RegionEU868GetPhyParam( &getPhy );
 716:../../../../../../Middlewares/Third_Party/LoRaWAN/Mac/region/RegionEU868.c **** 
 717:../../../../../../Middlewares/Third_Party/LoRaWAN/Mac/region/RegionEU868.c ****     linkAdrVerifyParams.Status = status;
 718:../../../../../../Middlewares/Third_Party/LoRaWAN/Mac/region/RegionEU868.c ****     linkAdrVerifyParams.AdrEnabled = linkAdrReq->AdrEnabled;
 719:../../../../../../Middlewares/Third_Party/LoRaWAN/Mac/region/RegionEU868.c ****     linkAdrVerifyParams.Datarate = linkAdrParams.Datarate;
 720:../../../../../../Middlewares/Third_Party/LoRaWAN/Mac/region/RegionEU868.c ****     linkAdrVerifyParams.TxPower = linkAdrParams.TxPower;
 721:../../../../../../Middlewares/Third_Party/LoRaWAN/Mac/region/RegionEU868.c ****     linkAdrVerifyParams.NbRep = linkAdrParams.NbRep;
 722:../../../../../../Middlewares/Third_Party/LoRaWAN/Mac/region/RegionEU868.c ****     linkAdrVerifyParams.CurrentDatarate = linkAdrReq->CurrentDatarate;
 723:../../../../../../Middlewares/Third_Party/LoRaWAN/Mac/region/RegionEU868.c ****     linkAdrVerifyParams.CurrentTxPower = linkAdrReq->CurrentTxPower;
 724:../../../../../../Middlewares/Third_Party/LoRaWAN/Mac/region/RegionEU868.c ****     linkAdrVerifyParams.CurrentNbRep = linkAdrReq->CurrentNbRep;
 725:../../../../../../Middlewares/Third_Party/LoRaWAN/Mac/region/RegionEU868.c ****     linkAdrVerifyParams.NbChannels = EU868_MAX_NB_CHANNELS;
 726:../../../../../../Middlewares/Third_Party/LoRaWAN/Mac/region/RegionEU868.c ****     linkAdrVerifyParams.ChannelsMask = &chMask;
 727:../../../../../../Middlewares/Third_Party/LoRaWAN/Mac/region/RegionEU868.c ****     linkAdrVerifyParams.MinDatarate = ( int8_t )phyParam.Value;
 728:../../../../../../Middlewares/Third_Party/LoRaWAN/Mac/region/RegionEU868.c ****     linkAdrVerifyParams.MaxDatarate = EU868_TX_MAX_DATARATE;
 729:../../../../../../Middlewares/Third_Party/LoRaWAN/Mac/region/RegionEU868.c ****     linkAdrVerifyParams.Channels = NvmCtx.Channels;
 730:../../../../../../Middlewares/Third_Party/LoRaWAN/Mac/region/RegionEU868.c ****     linkAdrVerifyParams.MinTxPower = EU868_MIN_TX_POWER;
ARM GAS  C:\Users\EBANO_~1\AppData\Local\Temp\ccJkfoGk.s 			page 27


 731:../../../../../../Middlewares/Third_Party/LoRaWAN/Mac/region/RegionEU868.c ****     linkAdrVerifyParams.MaxTxPower = EU868_MAX_TX_POWER;
 732:../../../../../../Middlewares/Third_Party/LoRaWAN/Mac/region/RegionEU868.c ****     linkAdrVerifyParams.Version = linkAdrReq->Version;
 733:../../../../../../Middlewares/Third_Party/LoRaWAN/Mac/region/RegionEU868.c **** 
 734:../../../../../../Middlewares/Third_Party/LoRaWAN/Mac/region/RegionEU868.c ****     // Verify the parameters and update, if necessary
 735:../../../../../../Middlewares/Third_Party/LoRaWAN/Mac/region/RegionEU868.c ****     status = RegionCommonLinkAdrReqVerifyParams( &linkAdrVerifyParams, &linkAdrParams.Datarate, &li
 736:../../../../../../Middlewares/Third_Party/LoRaWAN/Mac/region/RegionEU868.c **** 
 737:../../../../../../Middlewares/Third_Party/LoRaWAN/Mac/region/RegionEU868.c ****     // Update channelsMask if everything is correct
 738:../../../../../../Middlewares/Third_Party/LoRaWAN/Mac/region/RegionEU868.c ****     if( status == 0x07 )
 739:../../../../../../Middlewares/Third_Party/LoRaWAN/Mac/region/RegionEU868.c ****     {
 740:../../../../../../Middlewares/Third_Party/LoRaWAN/Mac/region/RegionEU868.c ****         // Set the channels mask to a default value
 741:../../../../../../Middlewares/Third_Party/LoRaWAN/Mac/region/RegionEU868.c ****         memset1( ( uint8_t* ) NvmCtx.ChannelsMask, 0, sizeof( NvmCtx.ChannelsMask ) );
 742:../../../../../../Middlewares/Third_Party/LoRaWAN/Mac/region/RegionEU868.c ****         // Update the channels mask
 743:../../../../../../Middlewares/Third_Party/LoRaWAN/Mac/region/RegionEU868.c ****         NvmCtx.ChannelsMask[0] = chMask;
 744:../../../../../../Middlewares/Third_Party/LoRaWAN/Mac/region/RegionEU868.c ****     }
 745:../../../../../../Middlewares/Third_Party/LoRaWAN/Mac/region/RegionEU868.c **** 
 746:../../../../../../Middlewares/Third_Party/LoRaWAN/Mac/region/RegionEU868.c ****     // Update status variables
 747:../../../../../../Middlewares/Third_Party/LoRaWAN/Mac/region/RegionEU868.c ****     *drOut = linkAdrParams.Datarate;
 748:../../../../../../Middlewares/Third_Party/LoRaWAN/Mac/region/RegionEU868.c ****     *txPowOut = linkAdrParams.TxPower;
 749:../../../../../../Middlewares/Third_Party/LoRaWAN/Mac/region/RegionEU868.c ****     *nbRepOut = linkAdrParams.NbRep;
 750:../../../../../../Middlewares/Third_Party/LoRaWAN/Mac/region/RegionEU868.c ****     *nbBytesParsed = bytesProcessed;
 751:../../../../../../Middlewares/Third_Party/LoRaWAN/Mac/region/RegionEU868.c **** 
 752:../../../../../../Middlewares/Third_Party/LoRaWAN/Mac/region/RegionEU868.c ****     return status;
 753:../../../../../../Middlewares/Third_Party/LoRaWAN/Mac/region/RegionEU868.c **** }
 754:../../../../../../Middlewares/Third_Party/LoRaWAN/Mac/region/RegionEU868.c **** 
 755:../../../../../../Middlewares/Third_Party/LoRaWAN/Mac/region/RegionEU868.c **** uint8_t RegionEU868RxParamSetupReq( RxParamSetupReqParams_t* rxParamSetupReq )
 756:../../../../../../Middlewares/Third_Party/LoRaWAN/Mac/region/RegionEU868.c **** {
 757:../../../../../../Middlewares/Third_Party/LoRaWAN/Mac/region/RegionEU868.c ****     uint8_t status = 0x07;
 758:../../../../../../Middlewares/Third_Party/LoRaWAN/Mac/region/RegionEU868.c ****     uint8_t band = 0;
 759:../../../../../../Middlewares/Third_Party/LoRaWAN/Mac/region/RegionEU868.c **** 
 760:../../../../../../Middlewares/Third_Party/LoRaWAN/Mac/region/RegionEU868.c ****     // Verify radio frequency
 761:../../../../../../Middlewares/Third_Party/LoRaWAN/Mac/region/RegionEU868.c ****     if( VerifyRfFreq( rxParamSetupReq->Frequency, &band ) == false )
 762:../../../../../../Middlewares/Third_Party/LoRaWAN/Mac/region/RegionEU868.c ****     {
 763:../../../../../../Middlewares/Third_Party/LoRaWAN/Mac/region/RegionEU868.c ****         status &= 0xFE; // Channel frequency KO
 764:../../../../../../Middlewares/Third_Party/LoRaWAN/Mac/region/RegionEU868.c ****     }
 765:../../../../../../Middlewares/Third_Party/LoRaWAN/Mac/region/RegionEU868.c **** 
 766:../../../../../../Middlewares/Third_Party/LoRaWAN/Mac/region/RegionEU868.c ****     // Verify datarate
 767:../../../../../../Middlewares/Third_Party/LoRaWAN/Mac/region/RegionEU868.c ****     if( RegionCommonValueInRange( rxParamSetupReq->Datarate, EU868_RX_MIN_DATARATE, EU868_RX_MAX_DA
 768:../../../../../../Middlewares/Third_Party/LoRaWAN/Mac/region/RegionEU868.c ****     {
 769:../../../../../../Middlewares/Third_Party/LoRaWAN/Mac/region/RegionEU868.c ****         status &= 0xFD; // Datarate KO
 770:../../../../../../Middlewares/Third_Party/LoRaWAN/Mac/region/RegionEU868.c ****     }
 771:../../../../../../Middlewares/Third_Party/LoRaWAN/Mac/region/RegionEU868.c **** 
 772:../../../../../../Middlewares/Third_Party/LoRaWAN/Mac/region/RegionEU868.c ****     // Verify datarate offset
 773:../../../../../../Middlewares/Third_Party/LoRaWAN/Mac/region/RegionEU868.c ****     if( RegionCommonValueInRange( rxParamSetupReq->DrOffset, EU868_MIN_RX1_DR_OFFSET, EU868_MAX_RX1
 774:../../../../../../Middlewares/Third_Party/LoRaWAN/Mac/region/RegionEU868.c ****     {
 775:../../../../../../Middlewares/Third_Party/LoRaWAN/Mac/region/RegionEU868.c ****         status &= 0xFB; // Rx1DrOffset range KO
 776:../../../../../../Middlewares/Third_Party/LoRaWAN/Mac/region/RegionEU868.c ****     }
 777:../../../../../../Middlewares/Third_Party/LoRaWAN/Mac/region/RegionEU868.c **** 
 778:../../../../../../Middlewares/Third_Party/LoRaWAN/Mac/region/RegionEU868.c ****     return status;
 779:../../../../../../Middlewares/Third_Party/LoRaWAN/Mac/region/RegionEU868.c **** }
 780:../../../../../../Middlewares/Third_Party/LoRaWAN/Mac/region/RegionEU868.c **** 
 781:../../../../../../Middlewares/Third_Party/LoRaWAN/Mac/region/RegionEU868.c **** uint8_t RegionEU868NewChannelReq( NewChannelReqParams_t* newChannelReq )
 782:../../../../../../Middlewares/Third_Party/LoRaWAN/Mac/region/RegionEU868.c **** {
 783:../../../../../../Middlewares/Third_Party/LoRaWAN/Mac/region/RegionEU868.c ****     uint8_t status = 0x03;
 784:../../../../../../Middlewares/Third_Party/LoRaWAN/Mac/region/RegionEU868.c ****     ChannelAddParams_t channelAdd;
 785:../../../../../../Middlewares/Third_Party/LoRaWAN/Mac/region/RegionEU868.c ****     ChannelRemoveParams_t channelRemove;
 786:../../../../../../Middlewares/Third_Party/LoRaWAN/Mac/region/RegionEU868.c **** 
 787:../../../../../../Middlewares/Third_Party/LoRaWAN/Mac/region/RegionEU868.c ****     if( newChannelReq->NewChannel->Frequency == 0 )
ARM GAS  C:\Users\EBANO_~1\AppData\Local\Temp\ccJkfoGk.s 			page 28


 788:../../../../../../Middlewares/Third_Party/LoRaWAN/Mac/region/RegionEU868.c ****     {
 789:../../../../../../Middlewares/Third_Party/LoRaWAN/Mac/region/RegionEU868.c ****         channelRemove.ChannelId = newChannelReq->ChannelId;
 790:../../../../../../Middlewares/Third_Party/LoRaWAN/Mac/region/RegionEU868.c **** 
 791:../../../../../../Middlewares/Third_Party/LoRaWAN/Mac/region/RegionEU868.c ****         // Remove
 792:../../../../../../Middlewares/Third_Party/LoRaWAN/Mac/region/RegionEU868.c ****         if( RegionEU868ChannelsRemove( &channelRemove ) == false )
 793:../../../../../../Middlewares/Third_Party/LoRaWAN/Mac/region/RegionEU868.c ****         {
 794:../../../../../../Middlewares/Third_Party/LoRaWAN/Mac/region/RegionEU868.c ****             status &= 0xFC;
 795:../../../../../../Middlewares/Third_Party/LoRaWAN/Mac/region/RegionEU868.c ****         }
 796:../../../../../../Middlewares/Third_Party/LoRaWAN/Mac/region/RegionEU868.c ****     }
 797:../../../../../../Middlewares/Third_Party/LoRaWAN/Mac/region/RegionEU868.c ****     else
 798:../../../../../../Middlewares/Third_Party/LoRaWAN/Mac/region/RegionEU868.c ****     {
 799:../../../../../../Middlewares/Third_Party/LoRaWAN/Mac/region/RegionEU868.c ****         channelAdd.NewChannel = newChannelReq->NewChannel;
 800:../../../../../../Middlewares/Third_Party/LoRaWAN/Mac/region/RegionEU868.c ****         channelAdd.ChannelId = newChannelReq->ChannelId;
 801:../../../../../../Middlewares/Third_Party/LoRaWAN/Mac/region/RegionEU868.c **** 
 802:../../../../../../Middlewares/Third_Party/LoRaWAN/Mac/region/RegionEU868.c ****         switch( RegionEU868ChannelAdd( &channelAdd ) )
 803:../../../../../../Middlewares/Third_Party/LoRaWAN/Mac/region/RegionEU868.c ****         {
 804:../../../../../../Middlewares/Third_Party/LoRaWAN/Mac/region/RegionEU868.c ****             case LORAMAC_STATUS_OK:
 805:../../../../../../Middlewares/Third_Party/LoRaWAN/Mac/region/RegionEU868.c ****             {
 806:../../../../../../Middlewares/Third_Party/LoRaWAN/Mac/region/RegionEU868.c ****                 break;
 807:../../../../../../Middlewares/Third_Party/LoRaWAN/Mac/region/RegionEU868.c ****             }
 808:../../../../../../Middlewares/Third_Party/LoRaWAN/Mac/region/RegionEU868.c ****             case LORAMAC_STATUS_FREQUENCY_INVALID:
 809:../../../../../../Middlewares/Third_Party/LoRaWAN/Mac/region/RegionEU868.c ****             {
 810:../../../../../../Middlewares/Third_Party/LoRaWAN/Mac/region/RegionEU868.c ****                 status &= 0xFE;
 811:../../../../../../Middlewares/Third_Party/LoRaWAN/Mac/region/RegionEU868.c ****                 break;
 812:../../../../../../Middlewares/Third_Party/LoRaWAN/Mac/region/RegionEU868.c ****             }
 813:../../../../../../Middlewares/Third_Party/LoRaWAN/Mac/region/RegionEU868.c ****             case LORAMAC_STATUS_DATARATE_INVALID:
 814:../../../../../../Middlewares/Third_Party/LoRaWAN/Mac/region/RegionEU868.c ****             {
 815:../../../../../../Middlewares/Third_Party/LoRaWAN/Mac/region/RegionEU868.c ****                 status &= 0xFD;
 816:../../../../../../Middlewares/Third_Party/LoRaWAN/Mac/region/RegionEU868.c ****                 break;
 817:../../../../../../Middlewares/Third_Party/LoRaWAN/Mac/region/RegionEU868.c ****             }
 818:../../../../../../Middlewares/Third_Party/LoRaWAN/Mac/region/RegionEU868.c ****             case LORAMAC_STATUS_FREQ_AND_DR_INVALID:
 819:../../../../../../Middlewares/Third_Party/LoRaWAN/Mac/region/RegionEU868.c ****             {
 820:../../../../../../Middlewares/Third_Party/LoRaWAN/Mac/region/RegionEU868.c ****                 status &= 0xFC;
 821:../../../../../../Middlewares/Third_Party/LoRaWAN/Mac/region/RegionEU868.c ****                 break;
 822:../../../../../../Middlewares/Third_Party/LoRaWAN/Mac/region/RegionEU868.c ****             }
 823:../../../../../../Middlewares/Third_Party/LoRaWAN/Mac/region/RegionEU868.c ****             default:
 824:../../../../../../Middlewares/Third_Party/LoRaWAN/Mac/region/RegionEU868.c ****             {
 825:../../../../../../Middlewares/Third_Party/LoRaWAN/Mac/region/RegionEU868.c ****                 status &= 0xFC;
 826:../../../../../../Middlewares/Third_Party/LoRaWAN/Mac/region/RegionEU868.c ****                 break;
 827:../../../../../../Middlewares/Third_Party/LoRaWAN/Mac/region/RegionEU868.c ****             }
 828:../../../../../../Middlewares/Third_Party/LoRaWAN/Mac/region/RegionEU868.c ****         }
 829:../../../../../../Middlewares/Third_Party/LoRaWAN/Mac/region/RegionEU868.c ****     }
 830:../../../../../../Middlewares/Third_Party/LoRaWAN/Mac/region/RegionEU868.c **** 
 831:../../../../../../Middlewares/Third_Party/LoRaWAN/Mac/region/RegionEU868.c ****     return status;
 832:../../../../../../Middlewares/Third_Party/LoRaWAN/Mac/region/RegionEU868.c **** }
 833:../../../../../../Middlewares/Third_Party/LoRaWAN/Mac/region/RegionEU868.c **** 
 834:../../../../../../Middlewares/Third_Party/LoRaWAN/Mac/region/RegionEU868.c **** int8_t RegionEU868TxParamSetupReq( TxParamSetupReqParams_t* txParamSetupReq )
 835:../../../../../../Middlewares/Third_Party/LoRaWAN/Mac/region/RegionEU868.c **** {
 836:../../../../../../Middlewares/Third_Party/LoRaWAN/Mac/region/RegionEU868.c ****     return -1;
 837:../../../../../../Middlewares/Third_Party/LoRaWAN/Mac/region/RegionEU868.c **** }
 838:../../../../../../Middlewares/Third_Party/LoRaWAN/Mac/region/RegionEU868.c **** 
 839:../../../../../../Middlewares/Third_Party/LoRaWAN/Mac/region/RegionEU868.c **** uint8_t RegionEU868DlChannelReq( DlChannelReqParams_t* dlChannelReq )
 840:../../../../../../Middlewares/Third_Party/LoRaWAN/Mac/region/RegionEU868.c **** {
 841:../../../../../../Middlewares/Third_Party/LoRaWAN/Mac/region/RegionEU868.c ****     uint8_t status = 0x03;
 842:../../../../../../Middlewares/Third_Party/LoRaWAN/Mac/region/RegionEU868.c ****     uint8_t band = 0;
 843:../../../../../../Middlewares/Third_Party/LoRaWAN/Mac/region/RegionEU868.c **** 
 844:../../../../../../Middlewares/Third_Party/LoRaWAN/Mac/region/RegionEU868.c ****     // Verify if the frequency is supported
ARM GAS  C:\Users\EBANO_~1\AppData\Local\Temp\ccJkfoGk.s 			page 29


 845:../../../../../../Middlewares/Third_Party/LoRaWAN/Mac/region/RegionEU868.c ****     if( VerifyRfFreq( dlChannelReq->Rx1Frequency, &band ) == false )
 846:../../../../../../Middlewares/Third_Party/LoRaWAN/Mac/region/RegionEU868.c ****     {
 847:../../../../../../Middlewares/Third_Party/LoRaWAN/Mac/region/RegionEU868.c ****         status &= 0xFE;
 848:../../../../../../Middlewares/Third_Party/LoRaWAN/Mac/region/RegionEU868.c ****     }
 849:../../../../../../Middlewares/Third_Party/LoRaWAN/Mac/region/RegionEU868.c **** 
 850:../../../../../../Middlewares/Third_Party/LoRaWAN/Mac/region/RegionEU868.c ****     // Verify if an uplink frequency exists
 851:../../../../../../Middlewares/Third_Party/LoRaWAN/Mac/region/RegionEU868.c ****     if( NvmCtx.Channels[dlChannelReq->ChannelId].Frequency == 0 )
 852:../../../../../../Middlewares/Third_Party/LoRaWAN/Mac/region/RegionEU868.c ****     {
 853:../../../../../../Middlewares/Third_Party/LoRaWAN/Mac/region/RegionEU868.c ****         status &= 0xFD;
 854:../../../../../../Middlewares/Third_Party/LoRaWAN/Mac/region/RegionEU868.c ****     }
 855:../../../../../../Middlewares/Third_Party/LoRaWAN/Mac/region/RegionEU868.c **** 
 856:../../../../../../Middlewares/Third_Party/LoRaWAN/Mac/region/RegionEU868.c ****     // Apply Rx1 frequency, if the status is OK
 857:../../../../../../Middlewares/Third_Party/LoRaWAN/Mac/region/RegionEU868.c ****     if( status == 0x03 )
 858:../../../../../../Middlewares/Third_Party/LoRaWAN/Mac/region/RegionEU868.c ****     {
 859:../../../../../../Middlewares/Third_Party/LoRaWAN/Mac/region/RegionEU868.c ****         NvmCtx.Channels[dlChannelReq->ChannelId].Rx1Frequency = dlChannelReq->Rx1Frequency;
 860:../../../../../../Middlewares/Third_Party/LoRaWAN/Mac/region/RegionEU868.c ****     }
 861:../../../../../../Middlewares/Third_Party/LoRaWAN/Mac/region/RegionEU868.c **** 
 862:../../../../../../Middlewares/Third_Party/LoRaWAN/Mac/region/RegionEU868.c ****     return status;
 863:../../../../../../Middlewares/Third_Party/LoRaWAN/Mac/region/RegionEU868.c **** }
 864:../../../../../../Middlewares/Third_Party/LoRaWAN/Mac/region/RegionEU868.c **** 
 865:../../../../../../Middlewares/Third_Party/LoRaWAN/Mac/region/RegionEU868.c **** int8_t RegionEU868AlternateDr( int8_t currentDr, AlternateDrType_t type )
 866:../../../../../../Middlewares/Third_Party/LoRaWAN/Mac/region/RegionEU868.c **** {
 867:../../../../../../Middlewares/Third_Party/LoRaWAN/Mac/region/RegionEU868.c ****     return currentDr;
 868:../../../../../../Middlewares/Third_Party/LoRaWAN/Mac/region/RegionEU868.c **** }
 869:../../../../../../Middlewares/Third_Party/LoRaWAN/Mac/region/RegionEU868.c **** 
 870:../../../../../../Middlewares/Third_Party/LoRaWAN/Mac/region/RegionEU868.c **** void RegionEU868CalcBackOff( CalcBackOffParams_t* calcBackOff )
 871:../../../../../../Middlewares/Third_Party/LoRaWAN/Mac/region/RegionEU868.c **** {
 872:../../../../../../Middlewares/Third_Party/LoRaWAN/Mac/region/RegionEU868.c ****     RegionCommonCalcBackOffParams_t calcBackOffParams;
 873:../../../../../../Middlewares/Third_Party/LoRaWAN/Mac/region/RegionEU868.c **** 
 874:../../../../../../Middlewares/Third_Party/LoRaWAN/Mac/region/RegionEU868.c ****     calcBackOffParams.Channels = NvmCtx.Channels;
 875:../../../../../../Middlewares/Third_Party/LoRaWAN/Mac/region/RegionEU868.c ****     calcBackOffParams.Bands = NvmCtx.Bands;
 876:../../../../../../Middlewares/Third_Party/LoRaWAN/Mac/region/RegionEU868.c ****     calcBackOffParams.LastTxIsJoinRequest = calcBackOff->LastTxIsJoinRequest;
 877:../../../../../../Middlewares/Third_Party/LoRaWAN/Mac/region/RegionEU868.c ****     calcBackOffParams.Joined = calcBackOff->Joined;
 878:../../../../../../Middlewares/Third_Party/LoRaWAN/Mac/region/RegionEU868.c ****     calcBackOffParams.DutyCycleEnabled = calcBackOff->DutyCycleEnabled;
 879:../../../../../../Middlewares/Third_Party/LoRaWAN/Mac/region/RegionEU868.c ****     calcBackOffParams.Channel = calcBackOff->Channel;
 880:../../../../../../Middlewares/Third_Party/LoRaWAN/Mac/region/RegionEU868.c ****     calcBackOffParams.ElapsedTime = calcBackOff->ElapsedTime;
 881:../../../../../../Middlewares/Third_Party/LoRaWAN/Mac/region/RegionEU868.c ****     calcBackOffParams.TxTimeOnAir = calcBackOff->TxTimeOnAir;
 882:../../../../../../Middlewares/Third_Party/LoRaWAN/Mac/region/RegionEU868.c **** 
 883:../../../../../../Middlewares/Third_Party/LoRaWAN/Mac/region/RegionEU868.c ****     RegionCommonCalcBackOff( &calcBackOffParams );
 884:../../../../../../Middlewares/Third_Party/LoRaWAN/Mac/region/RegionEU868.c **** }
 885:../../../../../../Middlewares/Third_Party/LoRaWAN/Mac/region/RegionEU868.c **** 
 886:../../../../../../Middlewares/Third_Party/LoRaWAN/Mac/region/RegionEU868.c **** LoRaMacStatus_t RegionEU868NextChannel( NextChanParams_t* nextChanParams, uint8_t* channel, TimerTi
 887:../../../../../../Middlewares/Third_Party/LoRaWAN/Mac/region/RegionEU868.c **** {
 888:../../../../../../Middlewares/Third_Party/LoRaWAN/Mac/region/RegionEU868.c ****     uint8_t nbEnabledChannels = 0;
 889:../../../../../../Middlewares/Third_Party/LoRaWAN/Mac/region/RegionEU868.c ****     uint8_t delayTx = 0;
 890:../../../../../../Middlewares/Third_Party/LoRaWAN/Mac/region/RegionEU868.c ****     uint8_t enabledChannels[EU868_MAX_NB_CHANNELS] = { 0 };
 891:../../../../../../Middlewares/Third_Party/LoRaWAN/Mac/region/RegionEU868.c ****     TimerTime_t nextTxDelay = 0;
 892:../../../../../../Middlewares/Third_Party/LoRaWAN/Mac/region/RegionEU868.c **** 
 893:../../../../../../Middlewares/Third_Party/LoRaWAN/Mac/region/RegionEU868.c ****     if( RegionCommonCountChannels( NvmCtx.ChannelsMask, 0, 1 ) == 0 )
 894:../../../../../../Middlewares/Third_Party/LoRaWAN/Mac/region/RegionEU868.c ****     { // Reactivate default channels
 895:../../../../../../Middlewares/Third_Party/LoRaWAN/Mac/region/RegionEU868.c ****         NvmCtx.ChannelsMask[0] |= LC( 1 ) + LC( 2 ) + LC( 3 );
 896:../../../../../../Middlewares/Third_Party/LoRaWAN/Mac/region/RegionEU868.c ****     }
 897:../../../../../../Middlewares/Third_Party/LoRaWAN/Mac/region/RegionEU868.c **** 
 898:../../../../../../Middlewares/Third_Party/LoRaWAN/Mac/region/RegionEU868.c ****     if( nextChanParams->AggrTimeOff <= TimerGetElapsedTime( nextChanParams->LastAggrTx ) )
 899:../../../../../../Middlewares/Third_Party/LoRaWAN/Mac/region/RegionEU868.c ****     {
 900:../../../../../../Middlewares/Third_Party/LoRaWAN/Mac/region/RegionEU868.c ****         // Reset Aggregated time off
 901:../../../../../../Middlewares/Third_Party/LoRaWAN/Mac/region/RegionEU868.c ****         *aggregatedTimeOff = 0;
ARM GAS  C:\Users\EBANO_~1\AppData\Local\Temp\ccJkfoGk.s 			page 30


 902:../../../../../../Middlewares/Third_Party/LoRaWAN/Mac/region/RegionEU868.c **** 
 903:../../../../../../Middlewares/Third_Party/LoRaWAN/Mac/region/RegionEU868.c ****         // Update bands Time OFF
 904:../../../../../../Middlewares/Third_Party/LoRaWAN/Mac/region/RegionEU868.c ****         nextTxDelay = RegionCommonUpdateBandTimeOff( nextChanParams->Joined, nextChanParams->DutyCy
 905:../../../../../../Middlewares/Third_Party/LoRaWAN/Mac/region/RegionEU868.c **** 
 906:../../../../../../Middlewares/Third_Party/LoRaWAN/Mac/region/RegionEU868.c ****         // Search how many channels are enabled
 907:../../../../../../Middlewares/Third_Party/LoRaWAN/Mac/region/RegionEU868.c ****         nbEnabledChannels = CountNbOfEnabledChannels( nextChanParams->Joined, nextChanParams->Datar
 908:../../../../../../Middlewares/Third_Party/LoRaWAN/Mac/region/RegionEU868.c ****                                                       NvmCtx.ChannelsMask, NvmCtx.Channels,
 909:../../../../../../Middlewares/Third_Party/LoRaWAN/Mac/region/RegionEU868.c ****                                                       NvmCtx.Bands, enabledChannels, &delayTx );
 910:../../../../../../Middlewares/Third_Party/LoRaWAN/Mac/region/RegionEU868.c ****     }
 911:../../../../../../Middlewares/Third_Party/LoRaWAN/Mac/region/RegionEU868.c ****     else
 912:../../../../../../Middlewares/Third_Party/LoRaWAN/Mac/region/RegionEU868.c ****     {
 913:../../../../../../Middlewares/Third_Party/LoRaWAN/Mac/region/RegionEU868.c ****         delayTx++;
 914:../../../../../../Middlewares/Third_Party/LoRaWAN/Mac/region/RegionEU868.c ****         nextTxDelay = nextChanParams->AggrTimeOff - TimerGetElapsedTime( nextChanParams->LastAggrTx
 915:../../../../../../Middlewares/Third_Party/LoRaWAN/Mac/region/RegionEU868.c ****     }
 916:../../../../../../Middlewares/Third_Party/LoRaWAN/Mac/region/RegionEU868.c **** 
 917:../../../../../../Middlewares/Third_Party/LoRaWAN/Mac/region/RegionEU868.c ****     if( nbEnabledChannels > 0 )
 918:../../../../../../Middlewares/Third_Party/LoRaWAN/Mac/region/RegionEU868.c ****     {
 919:../../../../../../Middlewares/Third_Party/LoRaWAN/Mac/region/RegionEU868.c ****         // We found a valid channel
 920:../../../../../../Middlewares/Third_Party/LoRaWAN/Mac/region/RegionEU868.c ****         *channel = enabledChannels[randr( 0, nbEnabledChannels - 1 )];
 921:../../../../../../Middlewares/Third_Party/LoRaWAN/Mac/region/RegionEU868.c **** 
 922:../../../../../../Middlewares/Third_Party/LoRaWAN/Mac/region/RegionEU868.c ****         *time = 0;
 923:../../../../../../Middlewares/Third_Party/LoRaWAN/Mac/region/RegionEU868.c ****         return LORAMAC_STATUS_OK;
 924:../../../../../../Middlewares/Third_Party/LoRaWAN/Mac/region/RegionEU868.c ****     }
 925:../../../../../../Middlewares/Third_Party/LoRaWAN/Mac/region/RegionEU868.c ****     else
 926:../../../../../../Middlewares/Third_Party/LoRaWAN/Mac/region/RegionEU868.c ****     {
 927:../../../../../../Middlewares/Third_Party/LoRaWAN/Mac/region/RegionEU868.c ****         if( delayTx > 0 )
 928:../../../../../../Middlewares/Third_Party/LoRaWAN/Mac/region/RegionEU868.c ****         {
 929:../../../../../../Middlewares/Third_Party/LoRaWAN/Mac/region/RegionEU868.c ****             // Delay transmission due to AggregatedTimeOff or to a band time off
 930:../../../../../../Middlewares/Third_Party/LoRaWAN/Mac/region/RegionEU868.c ****             *time = nextTxDelay;
 931:../../../../../../Middlewares/Third_Party/LoRaWAN/Mac/region/RegionEU868.c ****             return LORAMAC_STATUS_DUTYCYCLE_RESTRICTED;
 932:../../../../../../Middlewares/Third_Party/LoRaWAN/Mac/region/RegionEU868.c ****         }
 933:../../../../../../Middlewares/Third_Party/LoRaWAN/Mac/region/RegionEU868.c ****         // Datarate not supported by any channel, restore defaults
 934:../../../../../../Middlewares/Third_Party/LoRaWAN/Mac/region/RegionEU868.c ****         NvmCtx.ChannelsMask[0] |= LC( 1 ) + LC( 2 ) + LC( 3 );
 935:../../../../../../Middlewares/Third_Party/LoRaWAN/Mac/region/RegionEU868.c ****         *time = 0;
 936:../../../../../../Middlewares/Third_Party/LoRaWAN/Mac/region/RegionEU868.c ****         return LORAMAC_STATUS_NO_CHANNEL_FOUND;
 937:../../../../../../Middlewares/Third_Party/LoRaWAN/Mac/region/RegionEU868.c ****     }
 938:../../../../../../Middlewares/Third_Party/LoRaWAN/Mac/region/RegionEU868.c **** }
 939:../../../../../../Middlewares/Third_Party/LoRaWAN/Mac/region/RegionEU868.c **** 
 940:../../../../../../Middlewares/Third_Party/LoRaWAN/Mac/region/RegionEU868.c **** LoRaMacStatus_t RegionEU868ChannelAdd( ChannelAddParams_t* channelAdd )
 941:../../../../../../Middlewares/Third_Party/LoRaWAN/Mac/region/RegionEU868.c **** {
 942:../../../../../../Middlewares/Third_Party/LoRaWAN/Mac/region/RegionEU868.c ****     uint8_t band = 0;
 943:../../../../../../Middlewares/Third_Party/LoRaWAN/Mac/region/RegionEU868.c ****     bool drInvalid = false;
 944:../../../../../../Middlewares/Third_Party/LoRaWAN/Mac/region/RegionEU868.c ****     bool freqInvalid = false;
 945:../../../../../../Middlewares/Third_Party/LoRaWAN/Mac/region/RegionEU868.c ****     uint8_t id = channelAdd->ChannelId;
 946:../../../../../../Middlewares/Third_Party/LoRaWAN/Mac/region/RegionEU868.c **** 
 947:../../../../../../Middlewares/Third_Party/LoRaWAN/Mac/region/RegionEU868.c ****     if( id < EU868_NUMB_DEFAULT_CHANNELS )
 948:../../../../../../Middlewares/Third_Party/LoRaWAN/Mac/region/RegionEU868.c ****     {
 949:../../../../../../Middlewares/Third_Party/LoRaWAN/Mac/region/RegionEU868.c ****         return LORAMAC_STATUS_FREQ_AND_DR_INVALID;
 950:../../../../../../Middlewares/Third_Party/LoRaWAN/Mac/region/RegionEU868.c ****     }
 951:../../../../../../Middlewares/Third_Party/LoRaWAN/Mac/region/RegionEU868.c **** 
 952:../../../../../../Middlewares/Third_Party/LoRaWAN/Mac/region/RegionEU868.c ****     if( id >= EU868_MAX_NB_CHANNELS )
 953:../../../../../../Middlewares/Third_Party/LoRaWAN/Mac/region/RegionEU868.c ****     {
 954:../../../../../../Middlewares/Third_Party/LoRaWAN/Mac/region/RegionEU868.c ****         return LORAMAC_STATUS_PARAMETER_INVALID;
 955:../../../../../../Middlewares/Third_Party/LoRaWAN/Mac/region/RegionEU868.c ****     }
 956:../../../../../../Middlewares/Third_Party/LoRaWAN/Mac/region/RegionEU868.c **** 
 957:../../../../../../Middlewares/Third_Party/LoRaWAN/Mac/region/RegionEU868.c ****     // Validate the datarate range
 958:../../../../../../Middlewares/Third_Party/LoRaWAN/Mac/region/RegionEU868.c ****     if( RegionCommonValueInRange( channelAdd->NewChannel->DrRange.Fields.Min, EU868_TX_MIN_DATARATE
ARM GAS  C:\Users\EBANO_~1\AppData\Local\Temp\ccJkfoGk.s 			page 31


 959:../../../../../../Middlewares/Third_Party/LoRaWAN/Mac/region/RegionEU868.c ****     {
 960:../../../../../../Middlewares/Third_Party/LoRaWAN/Mac/region/RegionEU868.c ****         drInvalid = true;
 961:../../../../../../Middlewares/Third_Party/LoRaWAN/Mac/region/RegionEU868.c ****     }
 962:../../../../../../Middlewares/Third_Party/LoRaWAN/Mac/region/RegionEU868.c ****     if( RegionCommonValueInRange( channelAdd->NewChannel->DrRange.Fields.Max, EU868_TX_MIN_DATARATE
 963:../../../../../../Middlewares/Third_Party/LoRaWAN/Mac/region/RegionEU868.c ****     {
 964:../../../../../../Middlewares/Third_Party/LoRaWAN/Mac/region/RegionEU868.c ****         drInvalid = true;
 965:../../../../../../Middlewares/Third_Party/LoRaWAN/Mac/region/RegionEU868.c ****     }
 966:../../../../../../Middlewares/Third_Party/LoRaWAN/Mac/region/RegionEU868.c ****     if( channelAdd->NewChannel->DrRange.Fields.Min > channelAdd->NewChannel->DrRange.Fields.Max )
 967:../../../../../../Middlewares/Third_Party/LoRaWAN/Mac/region/RegionEU868.c ****     {
 968:../../../../../../Middlewares/Third_Party/LoRaWAN/Mac/region/RegionEU868.c ****         drInvalid = true;
 969:../../../../../../Middlewares/Third_Party/LoRaWAN/Mac/region/RegionEU868.c ****     }
 970:../../../../../../Middlewares/Third_Party/LoRaWAN/Mac/region/RegionEU868.c **** 
 971:../../../../../../Middlewares/Third_Party/LoRaWAN/Mac/region/RegionEU868.c ****     // Check frequency
 972:../../../../../../Middlewares/Third_Party/LoRaWAN/Mac/region/RegionEU868.c ****     if( freqInvalid == false )
 973:../../../../../../Middlewares/Third_Party/LoRaWAN/Mac/region/RegionEU868.c ****     {
 974:../../../../../../Middlewares/Third_Party/LoRaWAN/Mac/region/RegionEU868.c ****         if( VerifyRfFreq( channelAdd->NewChannel->Frequency, &band ) == false )
 975:../../../../../../Middlewares/Third_Party/LoRaWAN/Mac/region/RegionEU868.c ****         {
 976:../../../../../../Middlewares/Third_Party/LoRaWAN/Mac/region/RegionEU868.c ****             freqInvalid = true;
 977:../../../../../../Middlewares/Third_Party/LoRaWAN/Mac/region/RegionEU868.c ****         }
 978:../../../../../../Middlewares/Third_Party/LoRaWAN/Mac/region/RegionEU868.c ****     }
 979:../../../../../../Middlewares/Third_Party/LoRaWAN/Mac/region/RegionEU868.c **** 
 980:../../../../../../Middlewares/Third_Party/LoRaWAN/Mac/region/RegionEU868.c ****     // Check status
 981:../../../../../../Middlewares/Third_Party/LoRaWAN/Mac/region/RegionEU868.c ****     if( ( drInvalid == true ) && ( freqInvalid == true ) )
 982:../../../../../../Middlewares/Third_Party/LoRaWAN/Mac/region/RegionEU868.c ****     {
 983:../../../../../../Middlewares/Third_Party/LoRaWAN/Mac/region/RegionEU868.c ****         return LORAMAC_STATUS_FREQ_AND_DR_INVALID;
 984:../../../../../../Middlewares/Third_Party/LoRaWAN/Mac/region/RegionEU868.c ****     }
 985:../../../../../../Middlewares/Third_Party/LoRaWAN/Mac/region/RegionEU868.c ****     if( drInvalid == true )
 986:../../../../../../Middlewares/Third_Party/LoRaWAN/Mac/region/RegionEU868.c ****     {
 987:../../../../../../Middlewares/Third_Party/LoRaWAN/Mac/region/RegionEU868.c ****         return LORAMAC_STATUS_DATARATE_INVALID;
 988:../../../../../../Middlewares/Third_Party/LoRaWAN/Mac/region/RegionEU868.c ****     }
 989:../../../../../../Middlewares/Third_Party/LoRaWAN/Mac/region/RegionEU868.c ****     if( freqInvalid == true )
 990:../../../../../../Middlewares/Third_Party/LoRaWAN/Mac/region/RegionEU868.c ****     {
 991:../../../../../../Middlewares/Third_Party/LoRaWAN/Mac/region/RegionEU868.c ****         return LORAMAC_STATUS_FREQUENCY_INVALID;
 992:../../../../../../Middlewares/Third_Party/LoRaWAN/Mac/region/RegionEU868.c ****     }
 993:../../../../../../Middlewares/Third_Party/LoRaWAN/Mac/region/RegionEU868.c **** 
 994:../../../../../../Middlewares/Third_Party/LoRaWAN/Mac/region/RegionEU868.c ****     memcpy1( ( uint8_t* ) &(NvmCtx.Channels[id]), ( uint8_t* ) channelAdd->NewChannel, sizeof( NvmC
 995:../../../../../../Middlewares/Third_Party/LoRaWAN/Mac/region/RegionEU868.c ****     NvmCtx.Channels[id].Band = band;
 996:../../../../../../Middlewares/Third_Party/LoRaWAN/Mac/region/RegionEU868.c ****     NvmCtx.ChannelsMask[0] |= ( 1 << id );
 997:../../../../../../Middlewares/Third_Party/LoRaWAN/Mac/region/RegionEU868.c ****     return LORAMAC_STATUS_OK;
 998:../../../../../../Middlewares/Third_Party/LoRaWAN/Mac/region/RegionEU868.c **** }
 999:../../../../../../Middlewares/Third_Party/LoRaWAN/Mac/region/RegionEU868.c **** 
1000:../../../../../../Middlewares/Third_Party/LoRaWAN/Mac/region/RegionEU868.c **** bool RegionEU868ChannelsRemove( ChannelRemoveParams_t* channelRemove  )
1001:../../../../../../Middlewares/Third_Party/LoRaWAN/Mac/region/RegionEU868.c **** {
1002:../../../../../../Middlewares/Third_Party/LoRaWAN/Mac/region/RegionEU868.c ****     uint8_t id = channelRemove->ChannelId;
1003:../../../../../../Middlewares/Third_Party/LoRaWAN/Mac/region/RegionEU868.c **** 
1004:../../../../../../Middlewares/Third_Party/LoRaWAN/Mac/region/RegionEU868.c ****     if( id < EU868_NUMB_DEFAULT_CHANNELS )
1005:../../../../../../Middlewares/Third_Party/LoRaWAN/Mac/region/RegionEU868.c ****     {
1006:../../../../../../Middlewares/Third_Party/LoRaWAN/Mac/region/RegionEU868.c ****         return false;
1007:../../../../../../Middlewares/Third_Party/LoRaWAN/Mac/region/RegionEU868.c ****     }
1008:../../../../../../Middlewares/Third_Party/LoRaWAN/Mac/region/RegionEU868.c **** 
1009:../../../../../../Middlewares/Third_Party/LoRaWAN/Mac/region/RegionEU868.c ****     // Remove the channel from the list of channels
1010:../../../../../../Middlewares/Third_Party/LoRaWAN/Mac/region/RegionEU868.c ****     NvmCtx.Channels[id] = ( ChannelParams_t ){ 0, 0, { 0 }, 0 };
 690              		.loc 1 1010 0
 691 0032 524B     		ldr	r3, .L84
 692              	.LBE29:
 693              	.LBE28:
 694              	.LBE27:
ARM GAS  C:\Users\EBANO_~1\AppData\Local\Temp\ccJkfoGk.s 			page 32


 695 0034 0126     		movs	r6, #1
 696              	.LBB52:
 697              	.LBB32:
 698              	.LBB30:
 699 0036 9A46     		mov	r10, r3
 700              	.LBE30:
 701              	.LBE32:
 702              	.LBB33:
 703              	.LBB34:
 704              	.LBB35:
 705              	.LBB36:
 111:../../../../../../Middlewares/Third_Party/LoRaWAN/Mac/region/RegionEU868.c ****     {
 706              		.loc 1 111 0
 707 0038 514B     		ldr	r3, .L84+4
 708              	.LBE36:
 709              	.LBE35:
 710              	.LBE34:
 711              	.LBE33:
 712              	.LBE52:
 713 003a 0325     		movs	r5, #3
 714              	.LBB53:
 715              	.LBB49:
 716              	.LBB47:
 717              	.LBB44:
 718              	.LBB41:
 719 003c 9B46     		mov	fp, r3
 720 003e 14E0     		b	.L67
 721              	.LVL39:
 722              	.L60:
 723              	.LBE41:
 724              	.LBE44:
 725              	.LBE47:
 726              	.LBE49:
 496:../../../../../../Middlewares/Third_Party/LoRaWAN/Mac/region/RegionEU868.c ****             newChannel.DrRange.Value = 0;
 727              		.loc 1 496 0
 728 0040 0023     		movs	r3, #0
 729              	.LVL40:
 730 0042 2360     		str	r3, [r4]
 497:../../../../../../Middlewares/Third_Party/LoRaWAN/Mac/region/RegionEU868.c ****             newChannel.Rx1Frequency = 0;
 731              		.loc 1 497 0
 732 0044 2372     		strb	r3, [r4, #8]
 498:../../../../../../Middlewares/Third_Party/LoRaWAN/Mac/region/RegionEU868.c ****         }
 733              		.loc 1 498 0
 734 0046 6360     		str	r3, [r4, #4]
 735              	.L62:
 736              	.LVL41:
 737              	.LBB50:
 738              	.LBB31:
 739              		.loc 1 1010 0
 740 0048 6800     		lsls	r0, r5, #1
 741 004a 4019     		adds	r0, r0, r5
 742 004c 8000     		lsls	r0, r0, #2
 743 004e 0C22     		movs	r2, #12
 744 0050 0021     		movs	r1, #0
 745 0052 5044     		add	r0, r0, r10
 746 0054 FFF7FEFF 		bl	memset
 747              	.LVL42:
ARM GAS  C:\Users\EBANO_~1\AppData\Local\Temp\ccJkfoGk.s 			page 33


1011:../../../../../../Middlewares/Third_Party/LoRaWAN/Mac/region/RegionEU868.c **** 
1012:../../../../../../Middlewares/Third_Party/LoRaWAN/Mac/region/RegionEU868.c ****     return RegionCommonChanDisable( NvmCtx.ChannelsMask, id, EU868_MAX_NB_CHANNELS );
 748              		.loc 1 1012 0
 749 0058 1022     		movs	r2, #16
 750 005a 4146     		mov	r1, r8
 751 005c 4948     		ldr	r0, .L84+8
 752 005e FFF7FEFF 		bl	RegionCommonChanDisable
 753              	.LVL43:
 754              	.L64:
 755 0062 0336     		adds	r6, r6, #3
 756              	.LVL44:
 757 0064 0135     		adds	r5, r5, #1
 758              	.LVL45:
 759              	.LBE31:
 760              	.LBE50:
 481:../../../../../../Middlewares/Third_Party/LoRaWAN/Mac/region/RegionEU868.c ****     {
 761              		.loc 1 481 0 discriminator 2
 762 0066 282E     		cmp	r6, #40
 763 0068 D8D0     		beq	.L58
 764              	.L67:
 765 006a EBB2     		uxtb	r3, r5
 766 006c 9846     		mov	r8, r3
 767              	.LVL46:
 483:../../../../../../Middlewares/Third_Party/LoRaWAN/Mac/region/RegionEU868.c ****         {
 768              		.loc 1 483 0
 769 006e 072D     		cmp	r5, #7
 770 0070 E6D8     		bhi	.L60
 486:../../../../../../Middlewares/Third_Party/LoRaWAN/Mac/region/RegionEU868.c ****             newChannel.Frequency |= ( (uint32_t) applyCFList->Payload[i + 1] << 8 );
 771              		.loc 1 486 0
 772 0072 3B68     		ldr	r3, [r7]
 773              	.LVL47:
 774 0074 9A19     		adds	r2, r3, r6
 775 0076 511E     		subs	r1, r2, #1
 776 0078 0978     		ldrb	r1, [r1]
 777 007a 2160     		str	r1, [r4]
 487:../../../../../../Middlewares/Third_Party/LoRaWAN/Mac/region/RegionEU868.c ****             newChannel.Frequency |= ( (uint32_t) applyCFList->Payload[i + 2] << 16 );
 778              		.loc 1 487 0
 779 007c 9B5D     		ldrb	r3, [r3, r6]
 780 007e 1B02     		lsls	r3, r3, #8
 781 0080 0B43     		orrs	r3, r1
 782 0082 2360     		str	r3, [r4]
 488:../../../../../../Middlewares/Third_Party/LoRaWAN/Mac/region/RegionEU868.c ****             newChannel.Frequency *= 100;
 783              		.loc 1 488 0
 784 0084 5278     		ldrb	r2, [r2, #1]
 785 0086 1204     		lsls	r2, r2, #16
 786 0088 1343     		orrs	r3, r2
 489:../../../../../../Middlewares/Third_Party/LoRaWAN/Mac/region/RegionEU868.c **** 
 787              		.loc 1 489 0
 788 008a 6422     		movs	r2, #100
 789 008c 5343     		muls	r3, r2
 492:../../../../../../Middlewares/Third_Party/LoRaWAN/Mac/region/RegionEU868.c ****         }
 790              		.loc 1 492 0
 791 008e 0022     		movs	r2, #0
 489:../../../../../../Middlewares/Third_Party/LoRaWAN/Mac/region/RegionEU868.c **** 
 792              		.loc 1 489 0
 793 0090 2360     		str	r3, [r4]
 492:../../../../../../Middlewares/Third_Party/LoRaWAN/Mac/region/RegionEU868.c ****         }
ARM GAS  C:\Users\EBANO_~1\AppData\Local\Temp\ccJkfoGk.s 			page 34


 794              		.loc 1 492 0
 795 0092 6260     		str	r2, [r4, #4]
 501:../../../../../../Middlewares/Third_Party/LoRaWAN/Mac/region/RegionEU868.c ****         {
 796              		.loc 1 501 0
 797 0094 002B     		cmp	r3, #0
 798 0096 D7D0     		beq	.L62
 799              	.LVL48:
 800              	.LBB51:
 801              	.LBB48:
 958:../../../../../../Middlewares/Third_Party/LoRaWAN/Mac/region/RegionEU868.c ****     {
 802              		.loc 1 958 0
 803 0098 207A     		ldrb	r0, [r4, #8]
 804 009a 0722     		movs	r2, #7
 805 009c 0007     		lsls	r0, r0, #28
 806 009e 0021     		movs	r1, #0
 807 00a0 0017     		asrs	r0, r0, #28
 808 00a2 FFF7FEFF 		bl	RegionCommonValueInRange
 809              	.LVL49:
 810 00a6 8046     		mov	r8, r0
 811              	.LVL50:
 962:../../../../../../Middlewares/Third_Party/LoRaWAN/Mac/region/RegionEU868.c ****     {
 812              		.loc 1 962 0
 813 00a8 0820     		movs	r0, #8
 814 00aa 2056     		ldrsb	r0, [r4, r0]
 815 00ac 0722     		movs	r2, #7
 816 00ae 0011     		asrs	r0, r0, #4
 817 00b0 0021     		movs	r1, #0
 818 00b2 FFF7FEFF 		bl	RegionCommonValueInRange
 819              	.LVL51:
 964:../../../../../../Middlewares/Third_Party/LoRaWAN/Mac/region/RegionEU868.c ****     }
 820              		.loc 1 964 0
 821 00b6 0123     		movs	r3, #1
 822 00b8 9946     		mov	r9, r3
 962:../../../../../../Middlewares/Third_Party/LoRaWAN/Mac/region/RegionEU868.c ****     {
 823              		.loc 1 962 0
 824 00ba 0028     		cmp	r0, #0
 825 00bc 04D0     		beq	.L68
 958:../../../../../../Middlewares/Third_Party/LoRaWAN/Mac/region/RegionEU868.c ****     {
 826              		.loc 1 958 0
 827 00be 4346     		mov	r3, r8
 828 00c0 5A42     		rsbs	r2, r3, #0
 829 00c2 5341     		adcs	r3, r3, r2
 830 00c4 DBB2     		uxtb	r3, r3
 831 00c6 9946     		mov	r9, r3
 832              	.L68:
 833              	.LVL52:
 966:../../../../../../Middlewares/Third_Party/LoRaWAN/Mac/region/RegionEU868.c ****     {
 834              		.loc 1 966 0
 835 00c8 237A     		ldrb	r3, [r4, #8]
 836 00ca 1A07     		lsls	r2, r3, #28
 837 00cc 5BB2     		sxtb	r3, r3
 838 00ce 1217     		asrs	r2, r2, #28
 839 00d0 1B11     		asrs	r3, r3, #4
 840 00d2 9A42     		cmp	r2, r3
 841 00d4 01DD     		ble	.L63
 968:../../../../../../Middlewares/Third_Party/LoRaWAN/Mac/region/RegionEU868.c ****     }
 842              		.loc 1 968 0
ARM GAS  C:\Users\EBANO_~1\AppData\Local\Temp\ccJkfoGk.s 			page 35


 843 00d6 0123     		movs	r3, #1
 844 00d8 9946     		mov	r9, r3
 845              	.LVL53:
 846              	.L63:
 974:../../../../../../Middlewares/Third_Party/LoRaWAN/Mac/region/RegionEU868.c ****         {
 847              		.loc 1 974 0
 848 00da 2368     		ldr	r3, [r4]
 849 00dc 9846     		mov	r8, r3
 850              	.LVL54:
 851              	.LBB45:
 852              	.LBB42:
 111:../../../../../../Middlewares/Third_Party/LoRaWAN/Mac/region/RegionEU868.c ****     {
 853              		.loc 1 111 0
 854 00de 5B46     		mov	r3, fp
 855              	.LVL55:
 856 00e0 9B6A     		ldr	r3, [r3, #40]
 857 00e2 4046     		mov	r0, r8
 858 00e4 0193     		str	r3, [sp, #4]
 859 00e6 9847     		blx	r3
 860              	.LVL56:
 861 00e8 0028     		cmp	r0, #0
 862 00ea BAD0     		beq	.L64
 117:../../../../../../Middlewares/Third_Party/LoRaWAN/Mac/region/RegionEU868.c ****     {
 863              		.loc 1 117 0
 864 00ec 264B     		ldr	r3, .L84+12
 865 00ee 274A     		ldr	r2, .L84+16
 866 00f0 4344     		add	r3, r3, r8
 867 00f2 9342     		cmp	r3, r2
 868 00f4 1BD9     		bls	.L74
 121:../../../../../../Middlewares/Third_Party/LoRaWAN/Mac/region/RegionEU868.c ****     {
 869              		.loc 1 121 0
 870 00f6 264B     		ldr	r3, .L84+20
 871 00f8 264A     		ldr	r2, .L84+24
 872 00fa 4344     		add	r3, r3, r8
 873 00fc 9342     		cmp	r3, r2
 874 00fe 34D9     		bls	.L72
 125:../../../../../../Middlewares/Third_Party/LoRaWAN/Mac/region/RegionEU868.c ****     {
 875              		.loc 1 125 0
 876 0100 254B     		ldr	r3, .L84+28
 877 0102 264A     		ldr	r2, .L84+32
 878 0104 4344     		add	r3, r3, r8
 879 0106 9342     		cmp	r3, r2
 880 0108 32D9     		bls	.L73
 129:../../../../../../Middlewares/Third_Party/LoRaWAN/Mac/region/RegionEU868.c ****     {
 881              		.loc 1 129 0
 882 010a 254B     		ldr	r3, .L84+36
 883 010c 254A     		ldr	r2, .L84+40
 884 010e 4344     		add	r3, r3, r8
 885 0110 9342     		cmp	r3, r2
 886 0112 0CD9     		bls	.L74
 887              	.LVL57:
 888              	.LBB37:
 889              	.LBB38:
 133:../../../../../../Middlewares/Third_Party/LoRaWAN/Mac/region/RegionEU868.c ****     {
 890              		.loc 1 133 0
 891 0114 244B     		ldr	r3, .L84+44
 892 0116 254A     		ldr	r2, .L84+48
ARM GAS  C:\Users\EBANO_~1\AppData\Local\Temp\ccJkfoGk.s 			page 36


 893 0118 4344     		add	r3, r3, r8
 894 011a 9342     		cmp	r3, r2
 895 011c 2BD9     		bls	.L75
 139:../../../../../../Middlewares/Third_Party/LoRaWAN/Mac/region/RegionEU868.c ****     }
 896              		.loc 1 139 0
 897 011e 0421     		movs	r1, #4
 137:../../../../../../Middlewares/Third_Party/LoRaWAN/Mac/region/RegionEU868.c ****     {
 898              		.loc 1 137 0
 899 0120 234B     		ldr	r3, .L84+52
 900 0122 244A     		ldr	r2, .L84+56
 901 0124 4344     		add	r3, r3, r8
 139:../../../../../../Middlewares/Third_Party/LoRaWAN/Mac/region/RegionEU868.c ****     }
 902              		.loc 1 139 0
 903 0126 0191     		str	r1, [sp, #4]
 137:../../../../../../Middlewares/Third_Party/LoRaWAN/Mac/region/RegionEU868.c ****     {
 904              		.loc 1 137 0
 905 0128 9342     		cmp	r3, r2
 906 012a 02D9     		bls	.L65
 907 012c 99E7     		b	.L64
 908              	.LVL58:
 909              	.L74:
 910              	.LBE38:
 911              	.LBE37:
 131:../../../../../../Middlewares/Third_Party/LoRaWAN/Mac/region/RegionEU868.c ****     }
 912              		.loc 1 131 0
 913 012e 0223     		movs	r3, #2
 914 0130 0193     		str	r3, [sp, #4]
 915              	.L65:
 916              	.LBE42:
 917              	.LBE45:
 981:../../../../../../Middlewares/Third_Party/LoRaWAN/Mac/region/RegionEU868.c ****     {
 918              		.loc 1 981 0
 919 0132 4B46     		mov	r3, r9
 920 0134 002B     		cmp	r3, #0
 921 0136 94D1     		bne	.L64
 994:../../../../../../Middlewares/Third_Party/LoRaWAN/Mac/region/RegionEU868.c ****     NvmCtx.Channels[id].Band = band;
 922              		.loc 1 994 0
 923 0138 104B     		ldr	r3, .L84
 924 013a 6800     		lsls	r0, r5, #1
 925 013c 9846     		mov	r8, r3
 926              	.LVL59:
 927 013e 4019     		adds	r0, r0, r5
 928 0140 8000     		lsls	r0, r0, #2
 929 0142 0C22     		movs	r2, #12
 930 0144 2100     		movs	r1, r4
 931 0146 4044     		add	r0, r0, r8
 932 0148 FFF7FEFF 		bl	memcpy1
 933              	.LVL60:
 995:../../../../../../Middlewares/Third_Party/LoRaWAN/Mac/region/RegionEU868.c ****     NvmCtx.ChannelsMask[0] |= ( 1 << id );
 934              		.loc 1 995 0
 935 014c 4246     		mov	r2, r8
 936 014e 0199     		ldr	r1, [sp, #4]
 937 0150 B300     		lsls	r3, r6, #2
 938 0152 2933     		adds	r3, r3, #41
 939 0154 D154     		strb	r1, [r2, r3]
 996:../../../../../../Middlewares/Third_Party/LoRaWAN/Mac/region/RegionEU868.c ****     return LORAMAC_STATUS_OK;
 940              		.loc 1 996 0
ARM GAS  C:\Users\EBANO_~1\AppData\Local\Temp\ccJkfoGk.s 			page 37


 941 0156 0122     		movs	r2, #1
 942 0158 8821     		movs	r1, #136
 943 015a 4346     		mov	r3, r8
 944 015c AA40     		lsls	r2, r2, r5
 945 015e 4900     		lsls	r1, r1, #1
 946 0160 5B5A     		ldrh	r3, [r3, r1]
 947 0162 1343     		orrs	r3, r2
 948 0164 4246     		mov	r2, r8
 949 0166 5352     		strh	r3, [r2, r1]
 950 0168 7BE7     		b	.L64
 951              	.LVL61:
 952              	.L72:
 953              	.LBB46:
 954              	.LBB43:
 123:../../../../../../Middlewares/Third_Party/LoRaWAN/Mac/region/RegionEU868.c ****     }
 955              		.loc 1 123 0
 956 016a 0023     		movs	r3, #0
 957 016c 0193     		str	r3, [sp, #4]
 958 016e E0E7     		b	.L65
 959              	.L73:
 127:../../../../../../Middlewares/Third_Party/LoRaWAN/Mac/region/RegionEU868.c ****     }
 960              		.loc 1 127 0
 961 0170 0123     		movs	r3, #1
 962 0172 0193     		str	r3, [sp, #4]
 963 0174 DDE7     		b	.L65
 964              	.LVL62:
 965              	.L75:
 966              	.LBB40:
 967              	.LBB39:
 135:../../../../../../Middlewares/Third_Party/LoRaWAN/Mac/region/RegionEU868.c ****     }
 968              		.loc 1 135 0
 969 0176 0323     		movs	r3, #3
 970 0178 0193     		str	r3, [sp, #4]
 971 017a DAE7     		b	.L65
 972              	.L85:
 973              		.align	2
 974              	.L84:
 975 017c 00000000 		.word	NvmCtx
 976 0180 00000000 		.word	Radio
 977 0184 10010000 		.word	NvmCtx+272
 978 0188 40AA8FCC 		.word	-863000000
 979 018c 7F841E00 		.word	1999999
 980 0190 C02571CC 		.word	-865000000
 981 0194 C0C62D00 		.word	3000000
 982 0198 FF5E43CC 		.word	-868000001
 983 019c BF270900 		.word	599999
 984 01a0 A0B038CC 		.word	-868700000
 985 01a4 20A10700 		.word	500000
 986 01a8 40022ECC 		.word	-869400000
 987 01ac 90D00300 		.word	250000
 988 01b0 606E29CC 		.word	-869700000
 989 01b4 E0930400 		.word	300000
 990              	.LBE39:
 991              	.LBE40:
 992              	.LBE43:
 993              	.LBE46:
 994              	.LBE48:
ARM GAS  C:\Users\EBANO_~1\AppData\Local\Temp\ccJkfoGk.s 			page 38


 995              	.LBE51:
 996              	.LBE53:
 997              		.cfi_endproc
 998              	.LFE49:
 999              		.size	RegionEU868ApplyCFList, .-RegionEU868ApplyCFList
 1000              		.section	.text.RegionEU868ChanMaskSet,"ax",%progbits
 1001              		.align	1
 1002              		.p2align 2,,3
 1003              		.global	RegionEU868ChanMaskSet
 1004              		.syntax unified
 1005              		.code	16
 1006              		.thumb_func
 1007              		.fpu softvfp
 1008              		.type	RegionEU868ChanMaskSet, %function
 1009              	RegionEU868ChanMaskSet:
 1010              	.LFB50:
 519:../../../../../../Middlewares/Third_Party/LoRaWAN/Mac/region/RegionEU868.c ****     switch( chanMaskSet->ChannelsMaskType )
 1011              		.loc 1 519 0
 1012              		.cfi_startproc
 1013              		@ args = 0, pretend = 0, frame = 0
 1014              		@ frame_needed = 0, uses_anonymous_args = 0
 1015              	.LVL63:
 1016 0000 10B5     		push	{r4, lr}
 1017              	.LCFI9:
 1018              		.cfi_def_cfa_offset 8
 1019              		.cfi_offset 4, -8
 1020              		.cfi_offset 14, -4
 520:../../../../../../Middlewares/Third_Party/LoRaWAN/Mac/region/RegionEU868.c ****     {
 1021              		.loc 1 520 0
 1022 0002 0379     		ldrb	r3, [r0, #4]
 1023 0004 002B     		cmp	r3, #0
 1024 0006 0AD0     		beq	.L88
 1025 0008 012B     		cmp	r3, #1
 1026 000a 01D0     		beq	.L89
 533:../../../../../../Middlewares/Third_Party/LoRaWAN/Mac/region/RegionEU868.c ****     }
 1027              		.loc 1 533 0
 1028 000c 0020     		movs	r0, #0
 1029              	.LVL64:
 1030              	.L87:
 536:../../../../../../Middlewares/Third_Party/LoRaWAN/Mac/region/RegionEU868.c **** 
 1031              		.loc 1 536 0
 1032              		@ sp needed
 1033 000e 10BD     		pop	{r4, pc}
 1034              	.LVL65:
 1035              	.L89:
 529:../../../../../../Middlewares/Third_Party/LoRaWAN/Mac/region/RegionEU868.c ****             break;
 1036              		.loc 1 529 0
 1037 0010 0168     		ldr	r1, [r0]
 1038 0012 0122     		movs	r2, #1
 1039 0014 0548     		ldr	r0, .L92
 1040              	.LVL66:
 1041 0016 FFF7FEFF 		bl	RegionCommonChanMaskCopy
 1042              	.LVL67:
 535:../../../../../../Middlewares/Third_Party/LoRaWAN/Mac/region/RegionEU868.c **** }
 1043              		.loc 1 535 0
 1044 001a 0120     		movs	r0, #1
 530:../../../../../../Middlewares/Third_Party/LoRaWAN/Mac/region/RegionEU868.c ****         }
ARM GAS  C:\Users\EBANO_~1\AppData\Local\Temp\ccJkfoGk.s 			page 39


 1045              		.loc 1 530 0
 1046 001c F7E7     		b	.L87
 1047              	.LVL68:
 1048              	.L88:
 524:../../../../../../Middlewares/Third_Party/LoRaWAN/Mac/region/RegionEU868.c ****             break;
 1049              		.loc 1 524 0
 1050 001e 0168     		ldr	r1, [r0]
 1051 0020 0122     		movs	r2, #1
 1052 0022 0348     		ldr	r0, .L92+4
 1053              	.LVL69:
 1054 0024 FFF7FEFF 		bl	RegionCommonChanMaskCopy
 1055              	.LVL70:
 535:../../../../../../Middlewares/Third_Party/LoRaWAN/Mac/region/RegionEU868.c **** }
 1056              		.loc 1 535 0
 1057 0028 0120     		movs	r0, #1
 525:../../../../../../Middlewares/Third_Party/LoRaWAN/Mac/region/RegionEU868.c ****         }
 1058              		.loc 1 525 0
 1059 002a F0E7     		b	.L87
 1060              	.L93:
 1061              		.align	2
 1062              	.L92:
 1063 002c 12010000 		.word	NvmCtx+274
 1064 0030 10010000 		.word	NvmCtx+272
 1065              		.cfi_endproc
 1066              	.LFE50:
 1067              		.size	RegionEU868ChanMaskSet, .-RegionEU868ChanMaskSet
 1068              		.section	.text.RegionEU868ComputeRxWindowParameters,"ax",%progbits
 1069              		.align	1
 1070              		.p2align 2,,3
 1071              		.global	RegionEU868ComputeRxWindowParameters
 1072              		.syntax unified
 1073              		.code	16
 1074              		.thumb_func
 1075              		.fpu softvfp
 1076              		.type	RegionEU868ComputeRxWindowParameters, %function
 1077              	RegionEU868ComputeRxWindowParameters:
 1078              	.LFB51:
 539:../../../../../../Middlewares/Third_Party/LoRaWAN/Mac/region/RegionEU868.c ****     double tSymbol = 0.0;
 1079              		.loc 1 539 0
 1080              		.cfi_startproc
 1081              		@ args = 0, pretend = 0, frame = 8
 1082              		@ frame_needed = 0, uses_anonymous_args = 0
 1083              	.LVL71:
 1084 0000 F0B5     		push	{r4, r5, r6, r7, lr}
 1085              	.LCFI10:
 1086              		.cfi_def_cfa_offset 20
 1087              		.cfi_offset 4, -20
 1088              		.cfi_offset 5, -16
 1089              		.cfi_offset 6, -12
 1090              		.cfi_offset 7, -8
 1091              		.cfi_offset 14, -4
 1092 0002 C646     		mov	lr, r8
 1093 0004 00B5     		push	{lr}
 1094              	.LCFI11:
 1095              		.cfi_def_cfa_offset 24
 1096              		.cfi_offset 8, -24
 1097 0006 1C00     		movs	r4, r3
ARM GAS  C:\Users\EBANO_~1\AppData\Local\Temp\ccJkfoGk.s 			page 40


 1098 0008 86B0     		sub	sp, sp, #24
 1099              	.LCFI12:
 1100              		.cfi_def_cfa_offset 48
 539:../../../../../../Middlewares/Third_Party/LoRaWAN/Mac/region/RegionEU868.c ****     double tSymbol = 0.0;
 1101              		.loc 1 539 0
 1102 000a 0D00     		movs	r5, r1
 1103 000c 9046     		mov	r8, r2
 543:../../../../../../Middlewares/Third_Party/LoRaWAN/Mac/region/RegionEU868.c ****     rxConfigParams->Bandwidth = GetBandwidth( rxConfigParams->Datarate );
 1104              		.loc 1 543 0
 1105 000e 031C     		adds	r3, r0, #0
 1106              	.LVL72:
 1107 0010 0728     		cmp	r0, #7
 1108 0012 00DD     		ble	.L95
 1109 0014 0723     		movs	r3, #7
 1110              	.L95:
 1111 0016 5EB2     		sxtb	r6, r3
 1112              	.LBB54:
 1113              	.LBB55:
  86:../../../../../../Middlewares/Third_Party/LoRaWAN/Mac/region/RegionEU868.c ****     {
 1114              		.loc 1 86 0
 1115 0018 1A4A     		ldr	r2, .L103
 1116              	.LVL73:
 1117 001a B100     		lsls	r1, r6, #2
 1118              	.LVL74:
 1119              	.LBE55:
 1120              	.LBE54:
 543:../../../../../../Middlewares/Third_Party/LoRaWAN/Mac/region/RegionEU868.c ****     rxConfigParams->Bandwidth = GetBandwidth( rxConfigParams->Datarate );
 1121              		.loc 1 543 0
 1122 001c 6370     		strb	r3, [r4, #1]
 1123              	.LVL75:
 1124              	.LBB58:
 1125              	.LBB56:
  86:../../../../../../Middlewares/Third_Party/LoRaWAN/Mac/region/RegionEU868.c ****     {
 1126              		.loc 1 86 0
 1127 001e 1A4F     		ldr	r7, .L103+4
 1128 0020 5358     		ldr	r3, [r2, r1]
 1129 0022 BB42     		cmp	r3, r7
 1130 0024 24D0     		beq	.L101
 1131 0026 194F     		ldr	r7, .L103+8
 1132 0028 BC46     		mov	ip, r7
 1133 002a 6344     		add	r3, r3, ip
 1134 002c 5F42     		rsbs	r7, r3, #0
 1135 002e 7B41     		adcs	r3, r3, r7
 1136 0030 5B00     		lsls	r3, r3, #1
 1137              	.LBE56:
 1138              	.LBE58:
 544:../../../../../../Middlewares/Third_Party/LoRaWAN/Mac/region/RegionEU868.c **** 
 1139              		.loc 1 544 0
 1140 0032 A370     		strb	r3, [r4, #2]
 546:../../../../../../Middlewares/Third_Party/LoRaWAN/Mac/region/RegionEU868.c ****     { // FSK
 1141              		.loc 1 546 0
 1142 0034 0628     		cmp	r0, #6
 1143 0036 1FDC     		bgt	.L102
 1144              	.L99:
 552:../../../../../../Middlewares/Third_Party/LoRaWAN/Mac/region/RegionEU868.c ****     }
 1145              		.loc 1 552 0
 1146 0038 2023     		movs	r3, #32
ARM GAS  C:\Users\EBANO_~1\AppData\Local\Temp\ccJkfoGk.s 			page 41


 1147 003a 5158     		ldr	r1, [r2, r1]
 1148 003c 9219     		adds	r2, r2, r6
 1149 003e D05C     		ldrb	r0, [r2, r3]
 1150              	.LVL76:
 1151 0040 FFF7FEFF 		bl	RegionCommonComputeSymbolTimeLoRa
 1152              	.LVL77:
 1153 0044 0600     		movs	r6, r0
 1154 0046 0F00     		movs	r7, r1
 1155              	.LVL78:
 1156              	.L100:
 555:../../../../../../Middlewares/Third_Party/LoRaWAN/Mac/region/RegionEU868.c **** }
 1157              		.loc 1 555 0
 1158 0048 114B     		ldr	r3, .L103+12
 1159 004a 5B6E     		ldr	r3, [r3, #100]
 1160 004c 0593     		str	r3, [sp, #20]
 1161 004e 9847     		blx	r3
 1162              	.LVL79:
 1163 0050 2300     		movs	r3, r4
 1164 0052 0834     		adds	r4, r4, #8
 1165              	.LVL80:
 1166 0054 0C33     		adds	r3, r3, #12
 1167              	.LVL81:
 1168 0056 0293     		str	r3, [sp, #8]
 1169 0058 0090     		str	r0, [sp]
 1170 005a 0194     		str	r4, [sp, #4]
 1171 005c 4346     		mov	r3, r8
 1172              	.LVL82:
 1173 005e 2A00     		movs	r2, r5
 1174 0060 3000     		movs	r0, r6
 1175 0062 3900     		movs	r1, r7
 1176 0064 FFF7FEFF 		bl	RegionCommonComputeRxWindowParameters
 1177              	.LVL83:
 556:../../../../../../Middlewares/Third_Party/LoRaWAN/Mac/region/RegionEU868.c **** 
 1178              		.loc 1 556 0
 1179 0068 06B0     		add	sp, sp, #24
 1180              		@ sp needed
 1181              	.LVL84:
 1182              	.LVL85:
 1183              	.LVL86:
 1184 006a 04BC     		pop	{r2}
 1185 006c 9046     		mov	r8, r2
 1186 006e F0BD     		pop	{r4, r5, r6, r7, pc}
 1187              	.LVL87:
 1188              	.L101:
 1189              	.LBB59:
 1190              	.LBB57:
  86:../../../../../../Middlewares/Third_Party/LoRaWAN/Mac/region/RegionEU868.c ****     {
 1191              		.loc 1 86 0
 1192 0070 0123     		movs	r3, #1
 1193              	.LBE57:
 1194              	.LBE59:
 544:../../../../../../Middlewares/Third_Party/LoRaWAN/Mac/region/RegionEU868.c **** 
 1195              		.loc 1 544 0
 1196 0072 A370     		strb	r3, [r4, #2]
 546:../../../../../../Middlewares/Third_Party/LoRaWAN/Mac/region/RegionEU868.c ****     { // FSK
 1197              		.loc 1 546 0
 1198 0074 0628     		cmp	r0, #6
ARM GAS  C:\Users\EBANO_~1\AppData\Local\Temp\ccJkfoGk.s 			page 42


 1199 0076 DFDD     		ble	.L99
 1200              	.L102:
 548:../../../../../../Middlewares/Third_Party/LoRaWAN/Mac/region/RegionEU868.c ****     }
 1201              		.loc 1 548 0
 1202 0078 3220     		movs	r0, #50
 1203              	.LVL88:
 1204 007a FFF7FEFF 		bl	RegionCommonComputeSymbolTimeFsk
 1205              	.LVL89:
 1206 007e 0600     		movs	r6, r0
 1207 0080 0F00     		movs	r7, r1
 1208              	.LVL90:
 1209 0082 E1E7     		b	.L100
 1210              	.L104:
 1211              		.align	2
 1212              	.L103:
 1213 0084 D8000000 		.word	.LANCHOR1
 1214 0088 90D00300 		.word	250000
 1215 008c E05EF8FF 		.word	-500000
 1216 0090 00000000 		.word	Radio
 1217              		.cfi_endproc
 1218              	.LFE51:
 1219              		.size	RegionEU868ComputeRxWindowParameters, .-RegionEU868ComputeRxWindowParameters
 1220              		.section	.text.RegionEU868RxConfig,"ax",%progbits
 1221              		.align	1
 1222              		.p2align 2,,3
 1223              		.global	RegionEU868RxConfig
 1224              		.syntax unified
 1225              		.code	16
 1226              		.thumb_func
 1227              		.fpu softvfp
 1228              		.type	RegionEU868RxConfig, %function
 1229              	RegionEU868RxConfig:
 1230              	.LFB52:
 559:../../../../../../Middlewares/Third_Party/LoRaWAN/Mac/region/RegionEU868.c ****     RadioModems_t modem;
 1231              		.loc 1 559 0
 1232              		.cfi_startproc
 1233              		@ args = 0, pretend = 0, frame = 8
 1234              		@ frame_needed = 0, uses_anonymous_args = 0
 1235              	.LVL91:
 1236 0000 F0B5     		push	{r4, r5, r6, r7, lr}
 1237              	.LCFI13:
 1238              		.cfi_def_cfa_offset 20
 1239              		.cfi_offset 4, -20
 1240              		.cfi_offset 5, -16
 1241              		.cfi_offset 6, -12
 1242              		.cfi_offset 7, -8
 1243              		.cfi_offset 14, -4
 1244 0002 D646     		mov	lr, r10
 1245 0004 4646     		mov	r6, r8
 1246 0006 4F46     		mov	r7, r9
 1247 0008 C0B5     		push	{r6, r7, lr}
 1248              	.LCFI14:
 1249              		.cfi_def_cfa_offset 32
 1250              		.cfi_offset 8, -32
 1251              		.cfi_offset 9, -28
 1252              		.cfi_offset 10, -24
 561:../../../../../../Middlewares/Third_Party/LoRaWAN/Mac/region/RegionEU868.c ****     uint8_t maxPayload = 0;
ARM GAS  C:\Users\EBANO_~1\AppData\Local\Temp\ccJkfoGk.s 			page 43


 1253              		.loc 1 561 0
 1254 000a 0126     		movs	r6, #1
 564:../../../../../../Middlewares/Third_Party/LoRaWAN/Mac/region/RegionEU868.c **** 
 1255              		.loc 1 564 0
 1256 000c 4368     		ldr	r3, [r0, #4]
 566:../../../../../../Middlewares/Third_Party/LoRaWAN/Mac/region/RegionEU868.c ****     {
 1257              		.loc 1 566 0
 1258 000e 394D     		ldr	r5, .L115
 564:../../../../../../Middlewares/Third_Party/LoRaWAN/Mac/region/RegionEU868.c **** 
 1259              		.loc 1 564 0
 1260 0010 9846     		mov	r8, r3
 566:../../../../../../Middlewares/Third_Party/LoRaWAN/Mac/region/RegionEU868.c ****     {
 1261              		.loc 1 566 0
 1262 0012 EB68     		ldr	r3, [r5, #12]
 559:../../../../../../Middlewares/Third_Party/LoRaWAN/Mac/region/RegionEU868.c ****     RadioModems_t modem;
 1263              		.loc 1 559 0
 1264 0014 8CB0     		sub	sp, sp, #48
 1265              	.LCFI15:
 1266              		.cfi_def_cfa_offset 80
 561:../../../../../../Middlewares/Third_Party/LoRaWAN/Mac/region/RegionEU868.c ****     uint8_t maxPayload = 0;
 1267              		.loc 1 561 0
 1268 0016 8657     		ldrsb	r6, [r0, r6]
 1269              	.LVL92:
 559:../../../../../../Middlewares/Third_Party/LoRaWAN/Mac/region/RegionEU868.c ****     RadioModems_t modem;
 1270              		.loc 1 559 0
 1271 0018 0400     		movs	r4, r0
 566:../../../../../../Middlewares/Third_Party/LoRaWAN/Mac/region/RegionEU868.c ****     {
 1272              		.loc 1 566 0
 1273 001a 0B93     		str	r3, [sp, #44]
 559:../../../../../../Middlewares/Third_Party/LoRaWAN/Mac/region/RegionEU868.c ****     RadioModems_t modem;
 1274              		.loc 1 559 0
 1275 001c 8A46     		mov	r10, r1
 566:../../../../../../Middlewares/Third_Party/LoRaWAN/Mac/region/RegionEU868.c ****     {
 1276              		.loc 1 566 0
 1277 001e 9847     		blx	r3
 1278              	.LVL93:
 568:../../../../../../Middlewares/Third_Party/LoRaWAN/Mac/region/RegionEU868.c ****     }
 1279              		.loc 1 568 0
 1280 0020 0023     		movs	r3, #0
 566:../../../../../../Middlewares/Third_Party/LoRaWAN/Mac/region/RegionEU868.c ****     {
 1281              		.loc 1 566 0
 1282 0022 0028     		cmp	r0, #0
 1283 0024 3ED1     		bne	.L106
 571:../../../../../../Middlewares/Third_Party/LoRaWAN/Mac/region/RegionEU868.c ****     {
 1284              		.loc 1 571 0
 1285 0026 E37C     		ldrb	r3, [r4, #19]
 1286 0028 002B     		cmp	r3, #0
 1287 002a 0AD1     		bne	.L107
 574:../../../../../../Middlewares/Third_Party/LoRaWAN/Mac/region/RegionEU868.c ****         // Apply the alternative RX 1 window frequency, if it is available
 1288              		.loc 1 574 0
 1289 002c 2178     		ldrb	r1, [r4]
 1290 002e 324A     		ldr	r2, .L115+4
 1291 0030 4B00     		lsls	r3, r1, #1
 1292 0032 5B18     		adds	r3, r3, r1
 1293 0034 9B00     		lsls	r3, r3, #2
 1294 0036 9958     		ldr	r1, [r3, r2]
 1295              	.LVL94:
ARM GAS  C:\Users\EBANO_~1\AppData\Local\Temp\ccJkfoGk.s 			page 44


 576:../../../../../../Middlewares/Third_Party/LoRaWAN/Mac/region/RegionEU868.c ****         {
 1296              		.loc 1 576 0
 1297 0038 D318     		adds	r3, r2, r3
 1298 003a 5B68     		ldr	r3, [r3, #4]
 1299 003c 9846     		mov	r8, r3
 1300 003e 002B     		cmp	r3, #0
 1301 0040 56D0     		beq	.L113
 1302              	.LVL95:
 1303              	.L107:
 583:../../../../../../Middlewares/Third_Party/LoRaWAN/Mac/region/RegionEU868.c **** 
 1304              		.loc 1 583 0
 1305 0042 2022     		movs	r2, #32
 1306 0044 2D4B     		ldr	r3, .L115+8
 585:../../../../../../Middlewares/Third_Party/LoRaWAN/Mac/region/RegionEU868.c **** 
 1307              		.loc 1 585 0
 1308 0046 4046     		mov	r0, r8
 583:../../../../../../Middlewares/Third_Party/LoRaWAN/Mac/region/RegionEU868.c **** 
 1309              		.loc 1 583 0
 1310 0048 9B19     		adds	r3, r3, r6
 1311 004a 9B56     		ldrsb	r3, [r3, r2]
 1312 004c 9946     		mov	r9, r3
 1313              	.LVL96:
 585:../../../../../../Middlewares/Third_Party/LoRaWAN/Mac/region/RegionEU868.c **** 
 1314              		.loc 1 585 0
 1315 004e 6B69     		ldr	r3, [r5, #20]
 1316 0050 0B93     		str	r3, [sp, #44]
 1317 0052 9847     		blx	r3
 1318              	.LVL97:
 1319 0054 2B6A     		ldr	r3, [r5, #32]
 1320 0056 0B93     		str	r3, [sp, #44]
 1321 0058 1F00     		movs	r7, r3
 588:../../../../../../Middlewares/Third_Party/LoRaWAN/Mac/region/RegionEU868.c ****     {
 1322              		.loc 1 588 0
 1323 005a 072E     		cmp	r6, #7
 1324 005c 2CD0     		beq	.L114
 1325              	.LVL98:
 596:../../../../../../Middlewares/Third_Party/LoRaWAN/Mac/region/RegionEU868.c ****     }
 1326              		.loc 1 596 0
 1327 005e A37C     		ldrb	r3, [r4, #18]
 1328 0060 2289     		ldrh	r2, [r4, #8]
 1329 0062 0993     		str	r3, [sp, #36]
 1330 0064 0123     		movs	r3, #1
 1331 0066 0292     		str	r2, [sp, #8]
 1332 0068 0893     		str	r3, [sp, #32]
 1333 006a 0822     		movs	r2, #8
 1334 006c 0023     		movs	r3, #0
 1335 006e 0192     		str	r2, [sp, #4]
 1336 0070 0793     		str	r3, [sp, #28]
 1337 0072 0693     		str	r3, [sp, #24]
 1338 0074 0593     		str	r3, [sp, #20]
 1339 0076 0493     		str	r3, [sp, #16]
 1340 0078 0393     		str	r3, [sp, #12]
 1341 007a 0093     		str	r3, [sp]
 1342 007c 0120     		movs	r0, #1
 1343 007e A178     		ldrb	r1, [r4, #2]
 1344 0080 0133     		adds	r3, r3, #1
 1345 0082 4A46     		mov	r2, r9
ARM GAS  C:\Users\EBANO_~1\AppData\Local\Temp\ccJkfoGk.s 			page 45


 1346 0084 B847     		blx	r7
 1347              	.LVL99:
 595:../../../../../../Middlewares/Third_Party/LoRaWAN/Mac/region/RegionEU868.c ****         Radio.SetRxConfig( modem, rxConfig->Bandwidth, phyDr, 1, 0, 8, rxConfig->WindowTimeout, fal
 1348              		.loc 1 595 0
 1349 0086 0120     		movs	r0, #1
 1350              	.LVL100:
 1351              	.L109:
 599:../../../../../../Middlewares/Third_Party/LoRaWAN/Mac/region/RegionEU868.c ****     {
 1352              		.loc 1 599 0
 1353 0088 637C     		ldrb	r3, [r4, #17]
 1354 008a 002B     		cmp	r3, #0
 1355 008c 11D0     		beq	.L110
 601:../../../../../../Middlewares/Third_Party/LoRaWAN/Mac/region/RegionEU868.c ****     }
 1356              		.loc 1 601 0
 1357 008e 1C4B     		ldr	r3, .L115+12
 1358 0090 9B19     		adds	r3, r3, r6
 1359 0092 197A     		ldrb	r1, [r3, #8]
 1360              	.LVL101:
 1361              	.L111:
 608:../../../../../../Middlewares/Third_Party/LoRaWAN/Mac/region/RegionEU868.c ****     TVL1( PRINTF( "RX on freq %d Hz at DR %d\n\r", frequency, dr );)
 1362              		.loc 1 608 0
 1363 0094 EB6D     		ldr	r3, [r5, #92]
 1364 0096 0D31     		adds	r1, r1, #13
 1365              	.LVL102:
 1366 0098 C9B2     		uxtb	r1, r1
 1367 009a 0B93     		str	r3, [sp, #44]
 1368 009c 9847     		blx	r3
 1369              	.LVL103:
 611:../../../../../../Middlewares/Third_Party/LoRaWAN/Mac/region/RegionEU868.c ****     return true;
 1370              		.loc 1 611 0
 1371 009e 5346     		mov	r3, r10
 1372 00a0 1E70     		strb	r6, [r3]
 612:../../../../../../Middlewares/Third_Party/LoRaWAN/Mac/region/RegionEU868.c **** }
 1373              		.loc 1 612 0
 1374 00a2 0123     		movs	r3, #1
 1375              	.LVL104:
 1376              	.L106:
 613:../../../../../../Middlewares/Third_Party/LoRaWAN/Mac/region/RegionEU868.c **** 
 1377              		.loc 1 613 0
 1378 00a4 1800     		movs	r0, r3
 1379 00a6 0CB0     		add	sp, sp, #48
 1380              		@ sp needed
 1381              	.LVL105:
 1382              	.LVL106:
 1383              	.LVL107:
 1384              	.LVL108:
 1385 00a8 1CBC     		pop	{r2, r3, r4}
 1386 00aa 9046     		mov	r8, r2
 1387 00ac 9946     		mov	r9, r3
 1388 00ae A246     		mov	r10, r4
 1389 00b0 F0BD     		pop	{r4, r5, r6, r7, pc}
 1390              	.LVL109:
 1391              	.L110:
 605:../../../../../../Middlewares/Third_Party/LoRaWAN/Mac/region/RegionEU868.c ****     }
 1392              		.loc 1 605 0
 1393 00b2 134B     		ldr	r3, .L115+12
 1394 00b4 995D     		ldrb	r1, [r3, r6]
ARM GAS  C:\Users\EBANO_~1\AppData\Local\Temp\ccJkfoGk.s 			page 46


 1395              	.LVL110:
 1396 00b6 EDE7     		b	.L111
 1397              	.LVL111:
 1398              	.L114:
 591:../../../../../../Middlewares/Third_Party/LoRaWAN/Mac/region/RegionEU868.c ****     }
 1399              		.loc 1 591 0
 1400 00b8 4B46     		mov	r3, r9
 1401 00ba 5A01     		lsls	r2, r3, #5
 1402 00bc D21A     		subs	r2, r2, r3
 1403 00be A37C     		ldrb	r3, [r4, #18]
 1404 00c0 0121     		movs	r1, #1
 1405 00c2 0993     		str	r3, [sp, #36]
 1406 00c4 0023     		movs	r3, #0
 1407 00c6 0893     		str	r3, [sp, #32]
 1408 00c8 0793     		str	r3, [sp, #28]
 1409 00ca 0693     		str	r3, [sp, #24]
 1410 00cc 0493     		str	r3, [sp, #16]
 1411 00ce 0393     		str	r3, [sp, #12]
 1412 00d0 2389     		ldrh	r3, [r4, #8]
 1413 00d2 9200     		lsls	r2, r2, #2
 1414 00d4 0293     		str	r3, [sp, #8]
 1415 00d6 0523     		movs	r3, #5
 1416 00d8 0193     		str	r3, [sp, #4]
 1417 00da 0A4B     		ldr	r3, .L115+16
 1418 00dc 4A44     		add	r2, r2, r9
 1419 00de 0591     		str	r1, [sp, #20]
 1420 00e0 0093     		str	r3, [sp]
 1421 00e2 0020     		movs	r0, #0
 1422 00e4 D200     		lsls	r2, r2, #3
 1423 00e6 0023     		movs	r3, #0
 1424 00e8 0749     		ldr	r1, .L115+20
 1425 00ea B847     		blx	r7
 1426              	.LVL112:
 590:../../../../../../Middlewares/Third_Party/LoRaWAN/Mac/region/RegionEU868.c ****         Radio.SetRxConfig( modem, 50000, phyDr * 1000, 0, 83333, 5, rxConfig->WindowTimeout, false,
 1427              		.loc 1 590 0
 1428 00ec 0020     		movs	r0, #0
 1429 00ee CBE7     		b	.L109
 1430              	.LVL113:
 1431              	.L113:
 574:../../../../../../Middlewares/Third_Party/LoRaWAN/Mac/region/RegionEU868.c ****         // Apply the alternative RX 1 window frequency, if it is available
 1432              		.loc 1 574 0
 1433 00f0 8846     		mov	r8, r1
 1434 00f2 A6E7     		b	.L107
 1435              	.L116:
 1436              		.align	2
 1437              	.L115:
 1438 00f4 00000000 		.word	Radio
 1439 00f8 00000000 		.word	NvmCtx
 1440 00fc D8000000 		.word	.LANCHOR1
 1441 0100 00010000 		.word	.LANCHOR0
 1442 0104 85450100 		.word	83333
 1443 0108 50C30000 		.word	50000
 1444              		.cfi_endproc
 1445              	.LFE52:
 1446              		.size	RegionEU868RxConfig, .-RegionEU868RxConfig
 1447              		.section	.text.RegionEU868TxConfig,"ax",%progbits
 1448              		.align	1
ARM GAS  C:\Users\EBANO_~1\AppData\Local\Temp\ccJkfoGk.s 			page 47


 1449              		.p2align 2,,3
 1450              		.global	RegionEU868TxConfig
 1451              		.syntax unified
 1452              		.code	16
 1453              		.thumb_func
 1454              		.fpu softvfp
 1455              		.type	RegionEU868TxConfig, %function
 1456              	RegionEU868TxConfig:
 1457              	.LFB53:
 616:../../../../../../Middlewares/Third_Party/LoRaWAN/Mac/region/RegionEU868.c ****     RadioModems_t modem;
 1458              		.loc 1 616 0
 1459              		.cfi_startproc
 1460              		@ args = 0, pretend = 0, frame = 8
 1461              		@ frame_needed = 0, uses_anonymous_args = 0
 1462              	.LVL114:
 1463 0000 F0B5     		push	{r4, r5, r6, r7, lr}
 1464              	.LCFI16:
 1465              		.cfi_def_cfa_offset 20
 1466              		.cfi_offset 4, -20
 1467              		.cfi_offset 5, -16
 1468              		.cfi_offset 6, -12
 1469              		.cfi_offset 7, -8
 1470              		.cfi_offset 14, -4
 1471 0002 4546     		mov	r5, r8
 1472 0004 5746     		mov	r7, r10
 1473 0006 4E46     		mov	r6, r9
 1474 0008 DE46     		mov	lr, fp
 1475 000a 9046     		mov	r8, r2
 618:../../../../../../Middlewares/Third_Party/LoRaWAN/Mac/region/RegionEU868.c ****     int8_t txPowerLimited = LimitTxPower( txConfig->TxPower, NvmCtx.Bands[NvmCtx.Channels[txConfig-
 1476              		.loc 1 618 0
 1477 000c 0122     		movs	r2, #1
 1478              	.LVL115:
 616:../../../../../../Middlewares/Third_Party/LoRaWAN/Mac/region/RegionEU868.c ****     RadioModems_t modem;
 1479              		.loc 1 616 0
 1480 000e 0400     		movs	r4, r0
 618:../../../../../../Middlewares/Third_Party/LoRaWAN/Mac/region/RegionEU868.c ****     int8_t txPowerLimited = LimitTxPower( txConfig->TxPower, NvmCtx.Bands[NvmCtx.Channels[txConfig-
 1481              		.loc 1 618 0
 1482 0010 2023     		movs	r3, #32
 616:../../../../../../Middlewares/Third_Party/LoRaWAN/Mac/region/RegionEU868.c ****     RadioModems_t modem;
 1483              		.loc 1 616 0
 1484 0012 E0B5     		push	{r5, r6, r7, lr}
 1485              	.LCFI17:
 1486              		.cfi_def_cfa_offset 36
 1487              		.cfi_offset 8, -36
 1488              		.cfi_offset 9, -32
 1489              		.cfi_offset 10, -28
 1490              		.cfi_offset 11, -24
 1491 0014 8DB0     		sub	sp, sp, #52
 1492              	.LCFI18:
 1493              		.cfi_def_cfa_offset 88
 616:../../../../../../Middlewares/Third_Party/LoRaWAN/Mac/region/RegionEU868.c ****     RadioModems_t modem;
 1494              		.loc 1 616 0
 1495 0016 0A91     		str	r1, [sp, #40]
 618:../../../../../../Middlewares/Third_Party/LoRaWAN/Mac/region/RegionEU868.c ****     int8_t txPowerLimited = LimitTxPower( txConfig->TxPower, NvmCtx.Bands[NvmCtx.Channels[txConfig-
 1496              		.loc 1 618 0
 1497 0018 8256     		ldrsb	r2, [r0, r2]
 1498 001a 4149     		ldr	r1, .L126
ARM GAS  C:\Users\EBANO_~1\AppData\Local\Temp\ccJkfoGk.s 			page 48


 1499              	.LVL116:
 619:../../../../../../Middlewares/Third_Party/LoRaWAN/Mac/region/RegionEU868.c ****     uint32_t bandwidth = GetBandwidth( txConfig->Datarate );
 1500              		.loc 1 619 0
 1501 001c 414D     		ldr	r5, .L126+4
 618:../../../../../../Middlewares/Third_Party/LoRaWAN/Mac/region/RegionEU868.c ****     int8_t txPowerLimited = LimitTxPower( txConfig->TxPower, NvmCtx.Bands[NvmCtx.Channels[txConfig-
 1502              		.loc 1 618 0
 1503 001e 8818     		adds	r0, r1, r2
 1504              	.LVL117:
 1505 0020 C656     		ldrsb	r6, [r0, r3]
 1506              	.LVL118:
 619:../../../../../../Middlewares/Third_Party/LoRaWAN/Mac/region/RegionEU868.c ****     uint32_t bandwidth = GetBandwidth( txConfig->Datarate );
 1507              		.loc 1 619 0
 1508 0022 2078     		ldrb	r0, [r4]
 1509              	.LVL119:
 1510 0024 4300     		lsls	r3, r0, #1
 1511 0026 1B18     		adds	r3, r3, r0
 1512              	.LBB60:
 1513              	.LBB61:
 103:../../../../../../Middlewares/Third_Party/LoRaWAN/Mac/region/RegionEU868.c **** 
 1514              		.loc 1 103 0
 1515 0028 A078     		ldrb	r0, [r4, #2]
 1516              	.LVL120:
 1517              	.LBE61:
 1518              	.LBE60:
 619:../../../../../../Middlewares/Third_Party/LoRaWAN/Mac/region/RegionEU868.c ****     uint32_t bandwidth = GetBandwidth( txConfig->Datarate );
 1519              		.loc 1 619 0
 1520 002a 9B00     		lsls	r3, r3, #2
 1521              	.LBB66:
 1522              	.LBB62:
 103:../../../../../../Middlewares/Third_Party/LoRaWAN/Mac/region/RegionEU868.c **** 
 1523              		.loc 1 103 0
 1524 002c 8446     		mov	ip, r0
 1525 002e 6746     		mov	r7, ip
 1526              	.LBE62:
 1527              	.LBE66:
 619:../../../../../../Middlewares/Third_Party/LoRaWAN/Mac/region/RegionEU868.c ****     uint32_t bandwidth = GetBandwidth( txConfig->Datarate );
 1528              		.loc 1 619 0
 1529 0030 EB18     		adds	r3, r5, r3
 1530 0032 5B7A     		ldrb	r3, [r3, #9]
 1531              	.LBB67:
 1532              	.LBB63:
 103:../../../../../../Middlewares/Third_Party/LoRaWAN/Mac/region/RegionEU868.c **** 
 1533              		.loc 1 103 0
 1534 0034 7FB2     		sxtb	r7, r7
 1535              	.LBE63:
 1536              	.LBE67:
 619:../../../../../../Middlewares/Third_Party/LoRaWAN/Mac/region/RegionEU868.c ****     uint32_t bandwidth = GetBandwidth( txConfig->Datarate );
 1537              		.loc 1 619 0
 1538 0036 0C33     		adds	r3, r3, #12
 1539 0038 1B01     		lsls	r3, r3, #4
 1540 003a EB18     		adds	r3, r5, r3
 1541              	.LBB68:
 1542              	.LBB64:
 103:../../../../../../Middlewares/Third_Party/LoRaWAN/Mac/region/RegionEU868.c **** 
 1543              		.loc 1 103 0
 1544 003c 9B78     		ldrb	r3, [r3, #2]
 1545 003e 181C     		adds	r0, r3, #0
ARM GAS  C:\Users\EBANO_~1\AppData\Local\Temp\ccJkfoGk.s 			page 49


 1546 0040 5BB2     		sxtb	r3, r3
 1547 0042 BB42     		cmp	r3, r7
 1548 0044 00DA     		bge	.L118
 1549 0046 6046     		mov	r0, ip
 1550              	.L118:
 1551 0048 43B2     		sxtb	r3, r0
 1552              	.LBE64:
 1553              	.LBE68:
 1554              	.LBB69:
 1555              	.LBB70:
  86:../../../../../../Middlewares/Third_Party/LoRaWAN/Mac/region/RegionEU868.c ****     {
 1556              		.loc 1 86 0
 1557 004a 9200     		lsls	r2, r2, #2
 1558              	.LVL121:
 1559              	.LBE70:
 1560              	.LBE69:
 1561              	.LBB73:
 1562              	.LBB65:
 103:../../../../../../Middlewares/Third_Party/LoRaWAN/Mac/region/RegionEU868.c **** 
 1563              		.loc 1 103 0
 1564 004c 9946     		mov	r9, r3
 1565              	.LVL122:
 1566              	.LBE65:
 1567              	.LBE73:
 1568              	.LBB74:
 1569              	.LBB71:
  86:../../../../../../Middlewares/Third_Party/LoRaWAN/Mac/region/RegionEU868.c ****     {
 1570              		.loc 1 86 0
 1571 004e 8B58     		ldr	r3, [r1, r2]
 1572 0050 354A     		ldr	r2, .L126+8
 1573 0052 9342     		cmp	r3, r2
 1574 0054 46D0     		beq	.L124
  90:../../../../../../Middlewares/Third_Party/LoRaWAN/Mac/region/RegionEU868.c ****         case 250000:
 1575              		.loc 1 90 0
 1576 0056 354A     		ldr	r2, .L126+12
 1577 0058 9446     		mov	ip, r2
 1578 005a 6344     		add	r3, r3, ip
 1579 005c 5A42     		rsbs	r2, r3, #0
 1580 005e 5341     		adcs	r3, r3, r2
 1581 0060 5B00     		lsls	r3, r3, #1
 1582 0062 9A46     		mov	r10, r3
 1583              	.L120:
 1584              	.LVL123:
 1585              	.LBE71:
 1586              	.LBE74:
 624:../../../../../../Middlewares/Third_Party/LoRaWAN/Mac/region/RegionEU868.c **** 
 1587              		.loc 1 624 0
 1588 0064 A268     		ldr	r2, [r4, #8]
 1589 0066 6168     		ldr	r1, [r4, #4]
 1590 0068 4846     		mov	r0, r9
 1591 006a FFF7FEFF 		bl	RegionCommonComputeTxPower
 1592              	.LVL124:
 627:../../../../../../Middlewares/Third_Party/LoRaWAN/Mac/region/RegionEU868.c **** 
 1593              		.loc 1 627 0
 1594 006e 2278     		ldrb	r2, [r4]
 624:../../../../../../Middlewares/Third_Party/LoRaWAN/Mac/region/RegionEU868.c **** 
 1595              		.loc 1 624 0
ARM GAS  C:\Users\EBANO_~1\AppData\Local\Temp\ccJkfoGk.s 			page 50


 1596 0070 8346     		mov	fp, r0
 1597              	.LVL125:
 627:../../../../../../Middlewares/Third_Party/LoRaWAN/Mac/region/RegionEU868.c **** 
 1598              		.loc 1 627 0
 1599 0072 5300     		lsls	r3, r2, #1
 1600 0074 9B18     		adds	r3, r3, r2
 1601 0076 9B00     		lsls	r3, r3, #2
 1602 0078 E858     		ldr	r0, [r5, r3]
 1603 007a 2D4D     		ldr	r5, .L126+16
 1604 007c 6B69     		ldr	r3, [r5, #20]
 1605 007e 0B93     		str	r3, [sp, #44]
 1606 0080 9847     		blx	r3
 1607              	.LVL126:
 1608 0082 6B6A     		ldr	r3, [r5, #36]
 1609 0084 0B93     		str	r3, [sp, #44]
 629:../../../../../../Middlewares/Third_Party/LoRaWAN/Mac/region/RegionEU868.c ****     { // High Speed FSK channel
 1610              		.loc 1 629 0
 1611 0086 0123     		movs	r3, #1
 1612 0088 E356     		ldrsb	r3, [r4, r3]
 1613 008a 072B     		cmp	r3, #7
 1614 008c 2DD0     		beq	.L125
 1615              	.LVL127:
 637:../../../../../../Middlewares/Third_Party/LoRaWAN/Mac/region/RegionEU868.c ****     }
 1616              		.loc 1 637 0
 1617 008e 294B     		ldr	r3, .L126+20
 1618 0090 0122     		movs	r2, #1
 1619 0092 0893     		str	r3, [sp, #32]
 1620 0094 0023     		movs	r3, #0
 1621 0096 0793     		str	r3, [sp, #28]
 1622 0098 0693     		str	r3, [sp, #24]
 1623 009a 0593     		str	r3, [sp, #20]
 1624 009c 0393     		str	r3, [sp, #12]
 1625 009e 0833     		adds	r3, r3, #8
 1626 00a0 0492     		str	r2, [sp, #16]
 1627 00a2 0293     		str	r3, [sp, #8]
 1628 00a4 0192     		str	r2, [sp, #4]
 1629 00a6 0096     		str	r6, [sp]
 1630 00a8 5346     		mov	r3, r10
 1631 00aa 0B9E     		ldr	r6, [sp, #44]
 1632              	.LVL128:
 1633 00ac 0022     		movs	r2, #0
 1634 00ae 5946     		mov	r1, fp
 1635 00b0 0120     		movs	r0, #1
 1636 00b2 B047     		blx	r6
 1637              	.LVL129:
 636:../../../../../../Middlewares/Third_Party/LoRaWAN/Mac/region/RegionEU868.c ****         Radio.SetTxConfig( modem, phyTxPower, 0, bandwidth, phyDr, 1, 8, false, true, 0, 0, false, 
 1638              		.loc 1 636 0
 1639 00b4 0126     		movs	r6, #1
 1640              	.LVL130:
 1641              	.L123:
 642:../../../../../../Middlewares/Third_Party/LoRaWAN/Mac/region/RegionEU868.c ****     // Get the time-on-air of the next tx frame
 1642              		.loc 1 642 0
 1643 00b6 EB6D     		ldr	r3, [r5, #92]
 1644 00b8 217B     		ldrb	r1, [r4, #12]
 1645 00ba 3000     		movs	r0, r6
 1646 00bc 0B93     		str	r3, [sp, #44]
 1647 00be 9847     		blx	r3
ARM GAS  C:\Users\EBANO_~1\AppData\Local\Temp\ccJkfoGk.s 			page 51


 1648              	.LVL131:
 644:../../../../../../Middlewares/Third_Party/LoRaWAN/Mac/region/RegionEU868.c **** 
 1649              		.loc 1 644 0
 1650 00c0 EB6A     		ldr	r3, [r5, #44]
 1651 00c2 217B     		ldrb	r1, [r4, #12]
 1652 00c4 3000     		movs	r0, r6
 1653 00c6 0B93     		str	r3, [sp, #44]
 1654 00c8 9847     		blx	r3
 1655              	.LVL132:
 1656 00ca 4346     		mov	r3, r8
 1657 00cc 1860     		str	r0, [r3]
 646:../../../../../../Middlewares/Third_Party/LoRaWAN/Mac/region/RegionEU868.c ****     return true;
 1658              		.loc 1 646 0
 1659 00ce 4B46     		mov	r3, r9
 648:../../../../../../Middlewares/Third_Party/LoRaWAN/Mac/region/RegionEU868.c **** 
 1660              		.loc 1 648 0
 1661 00d0 0120     		movs	r0, #1
 646:../../../../../../Middlewares/Third_Party/LoRaWAN/Mac/region/RegionEU868.c ****     return true;
 1662              		.loc 1 646 0
 1663 00d2 0A9A     		ldr	r2, [sp, #40]
 1664 00d4 1370     		strb	r3, [r2]
 648:../../../../../../Middlewares/Third_Party/LoRaWAN/Mac/region/RegionEU868.c **** 
 1665              		.loc 1 648 0
 1666 00d6 0DB0     		add	sp, sp, #52
 1667              		@ sp needed
 1668              	.LVL133:
 1669              	.LVL134:
 1670              	.LVL135:
 1671              	.LVL136:
 1672 00d8 3CBC     		pop	{r2, r3, r4, r5}
 1673 00da 9046     		mov	r8, r2
 1674 00dc 9946     		mov	r9, r3
 1675 00de A246     		mov	r10, r4
 1676 00e0 AB46     		mov	fp, r5
 1677 00e2 F0BD     		pop	{r4, r5, r6, r7, pc}
 1678              	.LVL137:
 1679              	.L124:
 1680              	.LBB75:
 1681              	.LBB72:
  92:../../../../../../Middlewares/Third_Party/LoRaWAN/Mac/region/RegionEU868.c ****         case 500000:
 1682              		.loc 1 92 0
 1683 00e4 0123     		movs	r3, #1
 1684              	.LVL138:
 1685 00e6 9A46     		mov	r10, r3
 1686 00e8 BCE7     		b	.L120
 1687              	.LVL139:
 1688              	.L125:
 1689              	.LBE72:
 1690              	.LBE75:
 632:../../../../../../Middlewares/Third_Party/LoRaWAN/Mac/region/RegionEU868.c ****     }
 1691              		.loc 1 632 0
 1692 00ea 124B     		ldr	r3, .L126+20
 1693 00ec 0122     		movs	r2, #1
 1694 00ee 0893     		str	r3, [sp, #32]
 1695 00f0 0023     		movs	r3, #0
 1696 00f2 0793     		str	r3, [sp, #28]
 1697 00f4 0693     		str	r3, [sp, #24]
ARM GAS  C:\Users\EBANO_~1\AppData\Local\Temp\ccJkfoGk.s 			page 52


 1698 00f6 0593     		str	r3, [sp, #20]
 1699 00f8 0393     		str	r3, [sp, #12]
 1700 00fa 0193     		str	r3, [sp, #4]
 1701 00fc 7301     		lsls	r3, r6, #5
 1702 00fe 9B1B     		subs	r3, r3, r6
 1703 0100 9B00     		lsls	r3, r3, #2
 1704 0102 9E19     		adds	r6, r3, r6
 1705              	.LVL140:
 1706 0104 0492     		str	r2, [sp, #16]
 1707 0106 F600     		lsls	r6, r6, #3
 1708 0108 0432     		adds	r2, r2, #4
 1709 010a 0292     		str	r2, [sp, #8]
 1710 010c 0096     		str	r6, [sp]
 1711 010e 5346     		mov	r3, r10
 1712 0110 0B9E     		ldr	r6, [sp, #44]
 1713 0112 094A     		ldr	r2, .L126+24
 1714 0114 5946     		mov	r1, fp
 1715 0116 0020     		movs	r0, #0
 1716 0118 B047     		blx	r6
 1717              	.LVL141:
 631:../../../../../../Middlewares/Third_Party/LoRaWAN/Mac/region/RegionEU868.c ****         Radio.SetTxConfig( modem, phyTxPower, 25000, bandwidth, phyDr * 1000, 0, 5, false, true, 0,
 1718              		.loc 1 631 0
 1719 011a 0026     		movs	r6, #0
 1720 011c CBE7     		b	.L123
 1721              	.L127:
 1722 011e C046     		.align	2
 1723              	.L126:
 1724 0120 D8000000 		.word	.LANCHOR1
 1725 0124 00000000 		.word	NvmCtx
 1726 0128 90D00300 		.word	250000
 1727 012c E05EF8FF 		.word	-500000
 1728 0130 00000000 		.word	Radio
 1729 0134 B80B0000 		.word	3000
 1730 0138 A8610000 		.word	25000
 1731              		.cfi_endproc
 1732              	.LFE53:
 1733              		.size	RegionEU868TxConfig, .-RegionEU868TxConfig
 1734              		.section	.text.RegionEU868LinkAdrReq,"ax",%progbits
 1735              		.align	1
 1736              		.p2align 2,,3
 1737              		.global	RegionEU868LinkAdrReq
 1738              		.syntax unified
 1739              		.code	16
 1740              		.thumb_func
 1741              		.fpu softvfp
 1742              		.type	RegionEU868LinkAdrReq, %function
 1743              	RegionEU868LinkAdrReq:
 1744              	.LFB54:
 651:../../../../../../Middlewares/Third_Party/LoRaWAN/Mac/region/RegionEU868.c ****     uint8_t status = 0x07;
 1745              		.loc 1 651 0
 1746              		.cfi_startproc
 1747              		@ args = 4, pretend = 0, frame = 56
 1748              		@ frame_needed = 0, uses_anonymous_args = 0
 1749              	.LVL142:
 1750 0000 F0B5     		push	{r4, r5, r6, r7, lr}
 1751              	.LCFI19:
 1752              		.cfi_def_cfa_offset 20
ARM GAS  C:\Users\EBANO_~1\AppData\Local\Temp\ccJkfoGk.s 			page 53


 1753              		.cfi_offset 4, -20
 1754              		.cfi_offset 5, -16
 1755              		.cfi_offset 6, -12
 1756              		.cfi_offset 7, -8
 1757              		.cfi_offset 14, -4
 1758 0002 5746     		mov	r7, r10
 1759 0004 4E46     		mov	r6, r9
 1760 0006 4546     		mov	r5, r8
 1761 0008 DE46     		mov	lr, fp
 1762 000a E0B5     		push	{r5, r6, r7, lr}
 1763              	.LCFI20:
 1764              		.cfi_def_cfa_offset 36
 1765              		.cfi_offset 8, -36
 1766              		.cfi_offset 9, -32
 1767              		.cfi_offset 10, -28
 1768              		.cfi_offset 11, -24
 1769 000c 8FB0     		sub	sp, sp, #60
 1770              	.LCFI21:
 1771              		.cfi_def_cfa_offset 96
 651:../../../../../../Middlewares/Third_Party/LoRaWAN/Mac/region/RegionEU868.c ****     uint8_t status = 0x07;
 1772              		.loc 1 651 0
 1773 000e 0193     		str	r3, [sp, #4]
 656:../../../../../../Middlewares/Third_Party/LoRaWAN/Mac/region/RegionEU868.c ****     GetPhyParams_t getPhy;
 1774              		.loc 1 656 0
 1775 0010 0023     		movs	r3, #0
 1776              	.LVL143:
 651:../../../../../../Middlewares/Third_Party/LoRaWAN/Mac/region/RegionEU868.c ****     uint8_t status = 0x07;
 1777              		.loc 1 651 0
 1778 0012 9246     		mov	r10, r2
 656:../../../../../../Middlewares/Third_Party/LoRaWAN/Mac/region/RegionEU868.c ****     GetPhyParams_t getPhy;
 1779              		.loc 1 656 0
 1780 0014 02AA     		add	r2, sp, #8
 1781              	.LVL144:
 1782 0016 D380     		strh	r3, [r2, #6]
 652:../../../../../../Middlewares/Third_Party/LoRaWAN/Mac/region/RegionEU868.c ****     RegionCommonLinkAdrParams_t linkAdrParams;
 1783              		.loc 1 652 0
 1784 0018 0733     		adds	r3, r3, #7
 651:../../../../../../Middlewares/Third_Party/LoRaWAN/Mac/region/RegionEU868.c ****     uint8_t status = 0x07;
 1785              		.loc 1 651 0
 1786 001a 0600     		movs	r6, r0
 1787 001c 8B46     		mov	fp, r1
 655:../../../../../../Middlewares/Third_Party/LoRaWAN/Mac/region/RegionEU868.c ****     uint16_t chMask = 0;
 1788              		.loc 1 655 0
 1789 001e 0024     		movs	r4, #0
 652:../../../../../../Middlewares/Third_Party/LoRaWAN/Mac/region/RegionEU868.c ****     RegionCommonLinkAdrParams_t linkAdrParams;
 1790              		.loc 1 652 0
 1791 0020 9946     		mov	r9, r3
 1792              	.LBB81:
 695:../../../../../../Middlewares/Third_Party/LoRaWAN/Mac/region/RegionEU868.c ****                     {
 1793              		.loc 1 695 0
 1794 0022 9846     		mov	r8, r3
 1795 0024 B54F     		ldr	r7, .L284
 1796 0026 04AD     		add	r5, sp, #16
 1797              	.LVL145:
 1798              	.L129:
 1799              	.LBE81:
 661:../../../../../../Middlewares/Third_Party/LoRaWAN/Mac/region/RegionEU868.c ****     {
ARM GAS  C:\Users\EBANO_~1\AppData\Local\Temp\ccJkfoGk.s 			page 54


 1800              		.loc 1 661 0
 1801 0028 337A     		ldrb	r3, [r6, #8]
 1802 002a A342     		cmp	r3, r4
 1803 002c 00D8     		bhi	.LCB1660
 1804 002e 93E0     		b	.L174	@long jump
 1805              	.LCB1660:
 1806              	.L173:
 664:../../../../../../Middlewares/Third_Party/LoRaWAN/Mac/region/RegionEU868.c **** 
 1807              		.loc 1 664 0
 1808 0030 7368     		ldr	r3, [r6, #4]
 1809 0032 2900     		movs	r1, r5
 1810 0034 1819     		adds	r0, r3, r4
 1811 0036 FFF7FEFF 		bl	RegionCommonParseLinkAdrReq
 1812              	.LVL146:
 666:../../../../../../Middlewares/Third_Party/LoRaWAN/Mac/region/RegionEU868.c ****             break; // break loop, since no more request has been found
 1813              		.loc 1 666 0
 1814 003a 0028     		cmp	r0, #0
 1815 003c 00D1     		bne	.LCB1672
 1816 003e 8BE0     		b	.L174	@long jump
 1817              	.LCB1672:
 676:../../../../../../Middlewares/Third_Party/LoRaWAN/Mac/region/RegionEU868.c **** 
 1818              		.loc 1 676 0
 1819 0040 AB88     		ldrh	r3, [r5, #4]
 1820 0042 02AA     		add	r2, sp, #8
 1821 0044 D380     		strh	r3, [r2, #6]
 679:../../../../../../Middlewares/Third_Party/LoRaWAN/Mac/region/RegionEU868.c ****         {
 1822              		.loc 1 679 0
 1823 0046 EA78     		ldrb	r2, [r5, #3]
 670:../../../../../../Middlewares/Third_Party/LoRaWAN/Mac/region/RegionEU868.c **** 
 1824              		.loc 1 670 0
 1825 0048 2418     		adds	r4, r4, r0
 1826              	.LVL147:
 1827 004a E4B2     		uxtb	r4, r4
 1828              	.LVL148:
 676:../../../../../../Middlewares/Third_Party/LoRaWAN/Mac/region/RegionEU868.c **** 
 1829              		.loc 1 676 0
 1830 004c 181C     		adds	r0, r3, #0
 1831              	.LVL149:
 679:../../../../../../Middlewares/Third_Party/LoRaWAN/Mac/region/RegionEU868.c ****         {
 1832              		.loc 1 679 0
 1833 004e 002A     		cmp	r2, #0
 1834 0050 00D0     		beq	.LCB1685
 1835 0052 BFE0     		b	.L133	@long jump
 1836              	.LCB1685:
 681:../../../../../../Middlewares/Third_Party/LoRaWAN/Mac/region/RegionEU868.c ****         }
 1837              		.loc 1 681 0 discriminator 1
 1838 0054 0632     		adds	r2, r2, #6
 1839 0056 9146     		mov	r9, r2
 679:../../../../../../Middlewares/Third_Party/LoRaWAN/Mac/region/RegionEU868.c ****         {
 1840              		.loc 1 679 0 discriminator 1
 1841 0058 002B     		cmp	r3, #0
 1842 005a E5D0     		beq	.L129
 1843              	.LVL150:
 1844              	.LBB82:
 702:../../../../../../Middlewares/Third_Party/LoRaWAN/Mac/region/RegionEU868.c ****                         ( NvmCtx.Channels[i].Frequency == 0 ) )
 1845              		.loc 1 702 0
 1846 005c 0722     		movs	r2, #7
ARM GAS  C:\Users\EBANO_~1\AppData\Local\Temp\ccJkfoGk.s 			page 55


 1847 005e 9146     		mov	r9, r2
 1848 0060 DA07     		lsls	r2, r3, #31
 1849 0062 04D5     		bpl	.L137
 1850 0064 3A68     		ldr	r2, [r7]
 1851 0066 511E     		subs	r1, r2, #1
 1852 0068 8A41     		sbcs	r2, r2, r1
 1853 006a 0632     		adds	r2, r2, #6
 1854 006c 9146     		mov	r9, r2
 1855              	.L137:
 1856              	.LVL151:
 1857 006e 9A07     		lsls	r2, r3, #30
 1858 0070 04D5     		bpl	.L138
 1859 0072 FA68     		ldr	r2, [r7, #12]
 1860 0074 002A     		cmp	r2, #0
 1861 0076 01D1     		bne	.L138
 705:../../../../../../Middlewares/Third_Party/LoRaWAN/Mac/region/RegionEU868.c ****                     }
 1862              		.loc 1 705 0
 1863 0078 0632     		adds	r2, r2, #6
 1864 007a 9146     		mov	r9, r2
 1865              	.LVL152:
 1866              	.L138:
 702:../../../../../../Middlewares/Third_Party/LoRaWAN/Mac/region/RegionEU868.c ****                         ( NvmCtx.Channels[i].Frequency == 0 ) )
 1867              		.loc 1 702 0
 1868 007c 5A07     		lsls	r2, r3, #29
 1869 007e 04D5     		bpl	.L139
 1870 0080 BA69     		ldr	r2, [r7, #24]
 1871 0082 002A     		cmp	r2, #0
 1872 0084 01D1     		bne	.L139
 705:../../../../../../Middlewares/Third_Party/LoRaWAN/Mac/region/RegionEU868.c ****                     }
 1873              		.loc 1 705 0
 1874 0086 0632     		adds	r2, r2, #6
 1875 0088 9146     		mov	r9, r2
 1876              	.LVL153:
 1877              	.L139:
 702:../../../../../../Middlewares/Third_Party/LoRaWAN/Mac/region/RegionEU868.c ****                         ( NvmCtx.Channels[i].Frequency == 0 ) )
 1878              		.loc 1 702 0
 1879 008a 1A07     		lsls	r2, r3, #28
 1880 008c 04D5     		bpl	.L140
 1881 008e 7A6A     		ldr	r2, [r7, #36]
 1882 0090 002A     		cmp	r2, #0
 1883 0092 01D1     		bne	.L140
 705:../../../../../../Middlewares/Third_Party/LoRaWAN/Mac/region/RegionEU868.c ****                     }
 1884              		.loc 1 705 0
 1885 0094 0632     		adds	r2, r2, #6
 1886 0096 9146     		mov	r9, r2
 1887              	.LVL154:
 1888              	.L140:
 702:../../../../../../Middlewares/Third_Party/LoRaWAN/Mac/region/RegionEU868.c ****                         ( NvmCtx.Channels[i].Frequency == 0 ) )
 1889              		.loc 1 702 0
 1890 0098 DA06     		lsls	r2, r3, #27
 1891 009a 04D5     		bpl	.L141
 1892 009c 3A6B     		ldr	r2, [r7, #48]
 1893 009e 002A     		cmp	r2, #0
 1894 00a0 01D1     		bne	.L141
 705:../../../../../../Middlewares/Third_Party/LoRaWAN/Mac/region/RegionEU868.c ****                     }
 1895              		.loc 1 705 0
 1896 00a2 0632     		adds	r2, r2, #6
ARM GAS  C:\Users\EBANO_~1\AppData\Local\Temp\ccJkfoGk.s 			page 56


 1897 00a4 9146     		mov	r9, r2
 1898              	.LVL155:
 1899              	.L141:
 702:../../../../../../Middlewares/Third_Party/LoRaWAN/Mac/region/RegionEU868.c ****                         ( NvmCtx.Channels[i].Frequency == 0 ) )
 1900              		.loc 1 702 0
 1901 00a6 9A06     		lsls	r2, r3, #26
 1902 00a8 04D5     		bpl	.L142
 1903 00aa FA6B     		ldr	r2, [r7, #60]
 1904 00ac 002A     		cmp	r2, #0
 1905 00ae 01D1     		bne	.L142
 705:../../../../../../Middlewares/Third_Party/LoRaWAN/Mac/region/RegionEU868.c ****                     }
 1906              		.loc 1 705 0
 1907 00b0 0632     		adds	r2, r2, #6
 1908 00b2 9146     		mov	r9, r2
 1909              	.LVL156:
 1910              	.L142:
 702:../../../../../../Middlewares/Third_Party/LoRaWAN/Mac/region/RegionEU868.c ****                         ( NvmCtx.Channels[i].Frequency == 0 ) )
 1911              		.loc 1 702 0
 1912 00b4 5A06     		lsls	r2, r3, #25
 1913 00b6 04D5     		bpl	.L143
 1914 00b8 BA6C     		ldr	r2, [r7, #72]
 1915 00ba 002A     		cmp	r2, #0
 1916 00bc 01D1     		bne	.L143
 705:../../../../../../Middlewares/Third_Party/LoRaWAN/Mac/region/RegionEU868.c ****                     }
 1917              		.loc 1 705 0
 1918 00be 0632     		adds	r2, r2, #6
 1919 00c0 9146     		mov	r9, r2
 1920              	.LVL157:
 1921              	.L143:
 702:../../../../../../Middlewares/Third_Party/LoRaWAN/Mac/region/RegionEU868.c ****                         ( NvmCtx.Channels[i].Frequency == 0 ) )
 1922              		.loc 1 702 0
 1923 00c2 1A06     		lsls	r2, r3, #24
 1924 00c4 04D5     		bpl	.L144
 1925 00c6 7A6D     		ldr	r2, [r7, #84]
 1926 00c8 002A     		cmp	r2, #0
 1927 00ca 01D1     		bne	.L144
 705:../../../../../../Middlewares/Third_Party/LoRaWAN/Mac/region/RegionEU868.c ****                     }
 1928              		.loc 1 705 0
 1929 00cc 0632     		adds	r2, r2, #6
 1930 00ce 9146     		mov	r9, r2
 1931              	.LVL158:
 1932              	.L144:
 702:../../../../../../Middlewares/Third_Party/LoRaWAN/Mac/region/RegionEU868.c ****                         ( NvmCtx.Channels[i].Frequency == 0 ) )
 1933              		.loc 1 702 0
 1934 00d0 DA05     		lsls	r2, r3, #23
 1935 00d2 04D5     		bpl	.L145
 1936 00d4 3A6E     		ldr	r2, [r7, #96]
 1937 00d6 002A     		cmp	r2, #0
 1938 00d8 01D1     		bne	.L145
 705:../../../../../../Middlewares/Third_Party/LoRaWAN/Mac/region/RegionEU868.c ****                     }
 1939              		.loc 1 705 0
 1940 00da 0632     		adds	r2, r2, #6
 1941 00dc 9146     		mov	r9, r2
 1942              	.LVL159:
 1943              	.L145:
 702:../../../../../../Middlewares/Third_Party/LoRaWAN/Mac/region/RegionEU868.c ****                         ( NvmCtx.Channels[i].Frequency == 0 ) )
 1944              		.loc 1 702 0
ARM GAS  C:\Users\EBANO_~1\AppData\Local\Temp\ccJkfoGk.s 			page 57


 1945 00de 9A05     		lsls	r2, r3, #22
 1946 00e0 04D5     		bpl	.L146
 1947 00e2 FA6E     		ldr	r2, [r7, #108]
 1948 00e4 002A     		cmp	r2, #0
 1949 00e6 01D1     		bne	.L146
 705:../../../../../../Middlewares/Third_Party/LoRaWAN/Mac/region/RegionEU868.c ****                     }
 1950              		.loc 1 705 0
 1951 00e8 0632     		adds	r2, r2, #6
 1952 00ea 9146     		mov	r9, r2
 1953              	.LVL160:
 1954              	.L146:
 702:../../../../../../Middlewares/Third_Party/LoRaWAN/Mac/region/RegionEU868.c ****                         ( NvmCtx.Channels[i].Frequency == 0 ) )
 1955              		.loc 1 702 0
 1956 00ec 5A05     		lsls	r2, r3, #21
 1957 00ee 04D5     		bpl	.L147
 1958 00f0 BA6F     		ldr	r2, [r7, #120]
 1959 00f2 002A     		cmp	r2, #0
 1960 00f4 01D1     		bne	.L147
 705:../../../../../../Middlewares/Third_Party/LoRaWAN/Mac/region/RegionEU868.c ****                     }
 1961              		.loc 1 705 0
 1962 00f6 0632     		adds	r2, r2, #6
 1963 00f8 9146     		mov	r9, r2
 1964              	.LVL161:
 1965              	.L147:
 702:../../../../../../Middlewares/Third_Party/LoRaWAN/Mac/region/RegionEU868.c ****                         ( NvmCtx.Channels[i].Frequency == 0 ) )
 1966              		.loc 1 702 0
 1967 00fa 1A05     		lsls	r2, r3, #20
 1968 00fc 05D5     		bpl	.L148
 703:../../../../../../Middlewares/Third_Party/LoRaWAN/Mac/region/RegionEU868.c ****                     {// Trying to enable an undefined channel
 1969              		.loc 1 703 0
 1970 00fe 8422     		movs	r2, #132
 702:../../../../../../Middlewares/Third_Party/LoRaWAN/Mac/region/RegionEU868.c ****                         ( NvmCtx.Channels[i].Frequency == 0 ) )
 1971              		.loc 1 702 0
 1972 0100 BA58     		ldr	r2, [r7, r2]
 1973 0102 002A     		cmp	r2, #0
 1974 0104 01D1     		bne	.L148
 705:../../../../../../Middlewares/Third_Party/LoRaWAN/Mac/region/RegionEU868.c ****                     }
 1975              		.loc 1 705 0
 1976 0106 0632     		adds	r2, r2, #6
 1977 0108 9146     		mov	r9, r2
 1978              	.LVL162:
 1979              	.L148:
 702:../../../../../../Middlewares/Third_Party/LoRaWAN/Mac/region/RegionEU868.c ****                         ( NvmCtx.Channels[i].Frequency == 0 ) )
 1980              		.loc 1 702 0
 1981 010a DA04     		lsls	r2, r3, #19
 1982 010c 05D5     		bpl	.L149
 703:../../../../../../Middlewares/Third_Party/LoRaWAN/Mac/region/RegionEU868.c ****                     {// Trying to enable an undefined channel
 1983              		.loc 1 703 0
 1984 010e 9022     		movs	r2, #144
 702:../../../../../../Middlewares/Third_Party/LoRaWAN/Mac/region/RegionEU868.c ****                         ( NvmCtx.Channels[i].Frequency == 0 ) )
 1985              		.loc 1 702 0
 1986 0110 BA58     		ldr	r2, [r7, r2]
 1987 0112 002A     		cmp	r2, #0
 1988 0114 01D1     		bne	.L149
 705:../../../../../../Middlewares/Third_Party/LoRaWAN/Mac/region/RegionEU868.c ****                     }
 1989              		.loc 1 705 0
 1990 0116 0632     		adds	r2, r2, #6
ARM GAS  C:\Users\EBANO_~1\AppData\Local\Temp\ccJkfoGk.s 			page 58


 1991 0118 9146     		mov	r9, r2
 1992              	.LVL163:
 1993              	.L149:
 702:../../../../../../Middlewares/Third_Party/LoRaWAN/Mac/region/RegionEU868.c ****                         ( NvmCtx.Channels[i].Frequency == 0 ) )
 1994              		.loc 1 702 0
 1995 011a 9A04     		lsls	r2, r3, #18
 1996 011c 05D5     		bpl	.L150
 703:../../../../../../Middlewares/Third_Party/LoRaWAN/Mac/region/RegionEU868.c ****                     {// Trying to enable an undefined channel
 1997              		.loc 1 703 0
 1998 011e 9C22     		movs	r2, #156
 702:../../../../../../Middlewares/Third_Party/LoRaWAN/Mac/region/RegionEU868.c ****                         ( NvmCtx.Channels[i].Frequency == 0 ) )
 1999              		.loc 1 702 0
 2000 0120 BA58     		ldr	r2, [r7, r2]
 2001 0122 002A     		cmp	r2, #0
 2002 0124 01D1     		bne	.L150
 705:../../../../../../Middlewares/Third_Party/LoRaWAN/Mac/region/RegionEU868.c ****                     }
 2003              		.loc 1 705 0
 2004 0126 0632     		adds	r2, r2, #6
 2005 0128 9146     		mov	r9, r2
 2006              	.LVL164:
 2007              	.L150:
 702:../../../../../../Middlewares/Third_Party/LoRaWAN/Mac/region/RegionEU868.c ****                         ( NvmCtx.Channels[i].Frequency == 0 ) )
 2008              		.loc 1 702 0
 2009 012a 5A04     		lsls	r2, r3, #17
 2010 012c 05D5     		bpl	.L151
 703:../../../../../../Middlewares/Third_Party/LoRaWAN/Mac/region/RegionEU868.c ****                     {// Trying to enable an undefined channel
 2011              		.loc 1 703 0
 2012 012e A822     		movs	r2, #168
 702:../../../../../../Middlewares/Third_Party/LoRaWAN/Mac/region/RegionEU868.c ****                         ( NvmCtx.Channels[i].Frequency == 0 ) )
 2013              		.loc 1 702 0
 2014 0130 BA58     		ldr	r2, [r7, r2]
 2015 0132 002A     		cmp	r2, #0
 2016 0134 01D1     		bne	.L151
 705:../../../../../../Middlewares/Third_Party/LoRaWAN/Mac/region/RegionEU868.c ****                     }
 2017              		.loc 1 705 0
 2018 0136 0632     		adds	r2, r2, #6
 2019 0138 9146     		mov	r9, r2
 2020              	.LVL165:
 2021              	.L151:
 702:../../../../../../Middlewares/Third_Party/LoRaWAN/Mac/region/RegionEU868.c ****                         ( NvmCtx.Channels[i].Frequency == 0 ) )
 2022              		.loc 1 702 0
 2023 013a 1BB2     		sxth	r3, r3
 2024 013c 002B     		cmp	r3, #0
 2025 013e 00DB     		blt	.LCB1935
 2026 0140 72E7     		b	.L129	@long jump
 2027              	.LCB1935:
 703:../../../../../../Middlewares/Third_Party/LoRaWAN/Mac/region/RegionEU868.c ****                     {// Trying to enable an undefined channel
 2028              		.loc 1 703 0
 2029 0142 B423     		movs	r3, #180
 702:../../../../../../Middlewares/Third_Party/LoRaWAN/Mac/region/RegionEU868.c ****                         ( NvmCtx.Channels[i].Frequency == 0 ) )
 2030              		.loc 1 702 0
 2031 0144 FB58     		ldr	r3, [r7, r3]
 2032 0146 002B     		cmp	r3, #0
 2033 0148 00D0     		beq	.LCB1939
 2034 014a 6DE7     		b	.L129	@long jump
 2035              	.LCB1939:
 705:../../../../../../Middlewares/Third_Party/LoRaWAN/Mac/region/RegionEU868.c ****                     }
ARM GAS  C:\Users\EBANO_~1\AppData\Local\Temp\ccJkfoGk.s 			page 59


 2036              		.loc 1 705 0
 2037 014c 0633     		adds	r3, r3, #6
 2038 014e 9946     		mov	r9, r3
 2039              	.LVL166:
 2040              	.LBE82:
 661:../../../../../../Middlewares/Third_Party/LoRaWAN/Mac/region/RegionEU868.c ****     {
 2041              		.loc 1 661 0
 2042 0150 337A     		ldrb	r3, [r6, #8]
 2043 0152 A342     		cmp	r3, r4
 2044 0154 00D9     		bls	.LCB1948
 2045 0156 6BE7     		b	.L173	@long jump
 2046              	.LCB1948:
 2047              	.LVL167:
 2048              	.L174:
 717:../../../../../../Middlewares/Third_Party/LoRaWAN/Mac/region/RegionEU868.c ****     linkAdrVerifyParams.AdrEnabled = linkAdrReq->AdrEnabled;
 2049              		.loc 1 717 0
 2050 0158 4B46     		mov	r3, r9
 2051 015a 06A8     		add	r0, sp, #24
 2052 015c 0371     		strb	r3, [r0, #4]
 718:../../../../../../Middlewares/Third_Party/LoRaWAN/Mac/region/RegionEU868.c ****     linkAdrVerifyParams.Datarate = linkAdrParams.Datarate;
 2053              		.loc 1 718 0
 2054 015e B37A     		ldrb	r3, [r6, #10]
 735:../../../../../../Middlewares/Third_Party/LoRaWAN/Mac/region/RegionEU868.c **** 
 2055              		.loc 1 735 0
 2056 0160 02A9     		add	r1, sp, #8
 718:../../../../../../Middlewares/Third_Party/LoRaWAN/Mac/region/RegionEU868.c ****     linkAdrVerifyParams.Datarate = linkAdrParams.Datarate;
 2057              		.loc 1 718 0
 2058 0162 4371     		strb	r3, [r0, #5]
 719:../../../../../../Middlewares/Third_Party/LoRaWAN/Mac/region/RegionEU868.c ****     linkAdrVerifyParams.TxPower = linkAdrParams.TxPower;
 2059              		.loc 1 719 0
 2060 0164 6B78     		ldrb	r3, [r5, #1]
 735:../../../../../../Middlewares/Third_Party/LoRaWAN/Mac/region/RegionEU868.c **** 
 2061              		.loc 1 735 0
 2062 0166 8C46     		mov	ip, r1
 719:../../../../../../Middlewares/Third_Party/LoRaWAN/Mac/region/RegionEU868.c ****     linkAdrVerifyParams.TxPower = linkAdrParams.TxPower;
 2063              		.loc 1 719 0
 2064 0168 8371     		strb	r3, [r0, #6]
 720:../../../../../../Middlewares/Third_Party/LoRaWAN/Mac/region/RegionEU868.c ****     linkAdrVerifyParams.NbRep = linkAdrParams.NbRep;
 2065              		.loc 1 720 0
 2066 016a AB78     		ldrb	r3, [r5, #2]
 735:../../../../../../Middlewares/Third_Party/LoRaWAN/Mac/region/RegionEU868.c **** 
 2067              		.loc 1 735 0
 2068 016c 0A22     		movs	r2, #10
 720:../../../../../../Middlewares/Third_Party/LoRaWAN/Mac/region/RegionEU868.c ****     linkAdrVerifyParams.NbRep = linkAdrParams.NbRep;
 2069              		.loc 1 720 0
 2070 016e C371     		strb	r3, [r0, #7]
 721:../../../../../../Middlewares/Third_Party/LoRaWAN/Mac/region/RegionEU868.c ****     linkAdrVerifyParams.CurrentDatarate = linkAdrReq->CurrentDatarate;
 2071              		.loc 1 721 0
 2072 0170 2B78     		ldrb	r3, [r5]
 735:../../../../../../Middlewares/Third_Party/LoRaWAN/Mac/region/RegionEU868.c **** 
 2073              		.loc 1 735 0
 2074 0172 0921     		movs	r1, #9
 721:../../../../../../Middlewares/Third_Party/LoRaWAN/Mac/region/RegionEU868.c ****     linkAdrVerifyParams.CurrentDatarate = linkAdrReq->CurrentDatarate;
 2075              		.loc 1 721 0
 2076 0174 0372     		strb	r3, [r0, #8]
 722:../../../../../../Middlewares/Third_Party/LoRaWAN/Mac/region/RegionEU868.c ****     linkAdrVerifyParams.CurrentTxPower = linkAdrReq->CurrentTxPower;
 2077              		.loc 1 722 0
ARM GAS  C:\Users\EBANO_~1\AppData\Local\Temp\ccJkfoGk.s 			page 60


 2078 0176 F37A     		ldrb	r3, [r6, #11]
 735:../../../../../../Middlewares/Third_Party/LoRaWAN/Mac/region/RegionEU868.c **** 
 2079              		.loc 1 735 0
 2080 0178 6244     		add	r2, r2, ip
 722:../../../../../../Middlewares/Third_Party/LoRaWAN/Mac/region/RegionEU868.c ****     linkAdrVerifyParams.CurrentTxPower = linkAdrReq->CurrentTxPower;
 2081              		.loc 1 722 0
 2082 017a 4372     		strb	r3, [r0, #9]
 723:../../../../../../Middlewares/Third_Party/LoRaWAN/Mac/region/RegionEU868.c ****     linkAdrVerifyParams.CurrentNbRep = linkAdrReq->CurrentNbRep;
 2083              		.loc 1 723 0
 2084 017c 337B     		ldrb	r3, [r6, #12]
 735:../../../../../../Middlewares/Third_Party/LoRaWAN/Mac/region/RegionEU868.c **** 
 2085              		.loc 1 735 0
 2086 017e 6144     		add	r1, r1, ip
 723:../../../../../../Middlewares/Third_Party/LoRaWAN/Mac/region/RegionEU868.c ****     linkAdrVerifyParams.CurrentNbRep = linkAdrReq->CurrentNbRep;
 2087              		.loc 1 723 0
 2088 0180 8372     		strb	r3, [r0, #10]
 724:../../../../../../Middlewares/Third_Party/LoRaWAN/Mac/region/RegionEU868.c ****     linkAdrVerifyParams.NbChannels = EU868_MAX_NB_CHANNELS;
 2089              		.loc 1 724 0
 2090 0182 737B     		ldrb	r3, [r6, #13]
 729:../../../../../../Middlewares/Third_Party/LoRaWAN/Mac/region/RegionEU868.c ****     linkAdrVerifyParams.MinTxPower = EU868_MIN_TX_POWER;
 2091              		.loc 1 729 0
 2092 0184 8761     		str	r7, [r0, #24]
 724:../../../../../../Middlewares/Third_Party/LoRaWAN/Mac/region/RegionEU868.c ****     linkAdrVerifyParams.NbChannels = EU868_MAX_NB_CHANNELS;
 2093              		.loc 1 724 0
 2094 0186 C372     		strb	r3, [r0, #11]
 725:../../../../../../Middlewares/Third_Party/LoRaWAN/Mac/region/RegionEU868.c ****     linkAdrVerifyParams.ChannelsMask = &chMask;
 2095              		.loc 1 725 0
 2096 0188 1023     		movs	r3, #16
 2097 018a 0373     		strb	r3, [r0, #12]
 726:../../../../../../Middlewares/Third_Party/LoRaWAN/Mac/region/RegionEU868.c ****     linkAdrVerifyParams.MinDatarate = ( int8_t )phyParam.Value;
 2098              		.loc 1 726 0
 2099 018c 02AB     		add	r3, sp, #8
 2100 018e 0633     		adds	r3, r3, #6
 2101 0190 0361     		str	r3, [r0, #16]
 727:../../../../../../Middlewares/Third_Party/LoRaWAN/Mac/region/RegionEU868.c ****     linkAdrVerifyParams.MaxDatarate = EU868_TX_MAX_DATARATE;
 2102              		.loc 1 727 0
 2103 0192 E023     		movs	r3, #224
 2104 0194 DB00     		lsls	r3, r3, #3
 2105 0196 8382     		strh	r3, [r0, #20]
 730:../../../../../../Middlewares/Third_Party/LoRaWAN/Mac/region/RegionEU868.c ****     linkAdrVerifyParams.MaxTxPower = EU868_MAX_TX_POWER;
 2106              		.loc 1 730 0
 2107 0198 0723     		movs	r3, #7
 2108 019a 8383     		strh	r3, [r0, #28]
 732:../../../../../../Middlewares/Third_Party/LoRaWAN/Mac/region/RegionEU868.c **** 
 2109              		.loc 1 732 0
 2110 019c 3368     		ldr	r3, [r6]
 2111 019e 0693     		str	r3, [sp, #24]
 735:../../../../../../Middlewares/Third_Party/LoRaWAN/Mac/region/RegionEU868.c **** 
 2112              		.loc 1 735 0
 2113 01a0 2B00     		movs	r3, r5
 2114 01a2 FFF7FEFF 		bl	RegionCommonLinkAdrReqVerifyParams
 2115              	.LVL168:
 2116 01a6 0600     		movs	r6, r0
 2117              	.LVL169:
 738:../../../../../../Middlewares/Third_Party/LoRaWAN/Mac/region/RegionEU868.c ****     {
 2118              		.loc 1 738 0
 2119 01a8 0728     		cmp	r0, #7
ARM GAS  C:\Users\EBANO_~1\AppData\Local\Temp\ccJkfoGk.s 			page 61


 2120 01aa 00D1     		bne	.LCB1999
 2121 01ac 91E0     		b	.L282	@long jump
 2122              	.LCB1999:
 2123              	.LVL170:
 2124              	.L132:
 747:../../../../../../Middlewares/Third_Party/LoRaWAN/Mac/region/RegionEU868.c ****     *txPowOut = linkAdrParams.TxPower;
 2125              		.loc 1 747 0
 2126 01ae 5A46     		mov	r2, fp
 2127 01b0 6B78     		ldrb	r3, [r5, #1]
 753:../../../../../../Middlewares/Third_Party/LoRaWAN/Mac/region/RegionEU868.c **** 
 2128              		.loc 1 753 0
 2129 01b2 3000     		movs	r0, r6
 747:../../../../../../Middlewares/Third_Party/LoRaWAN/Mac/region/RegionEU868.c ****     *txPowOut = linkAdrParams.TxPower;
 2130              		.loc 1 747 0
 2131 01b4 1370     		strb	r3, [r2]
 748:../../../../../../Middlewares/Third_Party/LoRaWAN/Mac/region/RegionEU868.c ****     *nbRepOut = linkAdrParams.NbRep;
 2132              		.loc 1 748 0
 2133 01b6 5246     		mov	r2, r10
 2134 01b8 AB78     		ldrb	r3, [r5, #2]
 2135 01ba 1370     		strb	r3, [r2]
 749:../../../../../../Middlewares/Third_Party/LoRaWAN/Mac/region/RegionEU868.c ****     *nbBytesParsed = bytesProcessed;
 2136              		.loc 1 749 0
 2137 01bc 2B78     		ldrb	r3, [r5]
 2138 01be 019A     		ldr	r2, [sp, #4]
 2139 01c0 1370     		strb	r3, [r2]
 750:../../../../../../Middlewares/Third_Party/LoRaWAN/Mac/region/RegionEU868.c **** 
 2140              		.loc 1 750 0
 2141 01c2 189B     		ldr	r3, [sp, #96]
 2142 01c4 1C70     		strb	r4, [r3]
 753:../../../../../../Middlewares/Third_Party/LoRaWAN/Mac/region/RegionEU868.c **** 
 2143              		.loc 1 753 0
 2144 01c6 0FB0     		add	sp, sp, #60
 2145              		@ sp needed
 2146              	.LVL171:
 2147              	.LVL172:
 2148              	.LVL173:
 2149 01c8 3CBC     		pop	{r2, r3, r4, r5}
 2150 01ca 9046     		mov	r8, r2
 2151 01cc 9946     		mov	r9, r3
 2152 01ce A246     		mov	r10, r4
 2153 01d0 AB46     		mov	fp, r5
 2154 01d2 F0BD     		pop	{r4, r5, r6, r7, pc}
 2155              	.LVL174:
 2156              	.L133:
 681:../../../../../../Middlewares/Third_Party/LoRaWAN/Mac/region/RegionEU868.c ****         }
 2157              		.loc 1 681 0
 2158 01d4 0621     		movs	r1, #6
 2159 01d6 8946     		mov	r9, r1
 683:../../../../../../Middlewares/Third_Party/LoRaWAN/Mac/region/RegionEU868.c ****                 ( linkAdrParams.ChMaskCtrl >= 7 ) )
 2160              		.loc 1 683 0
 2161 01d8 511E     		subs	r1, r2, #1
 2162 01da 0429     		cmp	r1, #4
 2163 01dc 00D8     		bhi	.LCB2050
 2164 01de 23E7     		b	.L129	@long jump
 2165              	.LCB2050:
 683:../../../../../../Middlewares/Third_Party/LoRaWAN/Mac/region/RegionEU868.c ****                 ( linkAdrParams.ChMaskCtrl >= 7 ) )
 2166              		.loc 1 683 0 is_stmt 0 discriminator 1
ARM GAS  C:\Users\EBANO_~1\AppData\Local\Temp\ccJkfoGk.s 			page 62


 2167 01e0 062A     		cmp	r2, #6
 2168 01e2 00D0     		beq	.LCB2052
 2169 01e4 20E7     		b	.L129	@long jump
 2170              	.LCB2052:
 2171              	.LVL175:
 2172              	.LBB83:
 695:../../../../../../Middlewares/Third_Party/LoRaWAN/Mac/region/RegionEU868.c ****                     {
 2173              		.loc 1 695 0 is_stmt 1
 2174 01e6 3968     		ldr	r1, [r7]
 2175 01e8 0022     		movs	r2, #0
 2176 01ea 0029     		cmp	r1, #0
 2177 01ec 02D0     		beq	.L154
 697:../../../../../../Middlewares/Third_Party/LoRaWAN/Mac/region/RegionEU868.c ****                     }
 2178              		.loc 1 697 0
 2179 01ee 0123     		movs	r3, #1
 2180 01f0 0132     		adds	r2, r2, #1
 2181 01f2 0343     		orrs	r3, r0
 2182              	.L154:
 2183              	.LVL176:
 695:../../../../../../Middlewares/Third_Party/LoRaWAN/Mac/region/RegionEU868.c ****                     {
 2184              		.loc 1 695 0
 2185 01f4 F968     		ldr	r1, [r7, #12]
 2186 01f6 0029     		cmp	r1, #0
 2187 01f8 02D0     		beq	.L155
 697:../../../../../../Middlewares/Third_Party/LoRaWAN/Mac/region/RegionEU868.c ****                     }
 2188              		.loc 1 697 0
 2189 01fa 0222     		movs	r2, #2
 2190 01fc 1343     		orrs	r3, r2
 2191 01fe 0122     		movs	r2, #1
 2192              	.L155:
 2193              	.LVL177:
 695:../../../../../../Middlewares/Third_Party/LoRaWAN/Mac/region/RegionEU868.c ****                     {
 2194              		.loc 1 695 0
 2195 0200 B969     		ldr	r1, [r7, #24]
 2196 0202 0029     		cmp	r1, #0
 2197 0204 02D0     		beq	.L156
 697:../../../../../../Middlewares/Third_Party/LoRaWAN/Mac/region/RegionEU868.c ****                     }
 2198              		.loc 1 697 0
 2199 0206 0422     		movs	r2, #4
 2200 0208 1343     		orrs	r3, r2
 2201 020a 0122     		movs	r2, #1
 2202              	.L156:
 2203              	.LVL178:
 695:../../../../../../Middlewares/Third_Party/LoRaWAN/Mac/region/RegionEU868.c ****                     {
 2204              		.loc 1 695 0
 2205 020c 796A     		ldr	r1, [r7, #36]
 2206 020e 0029     		cmp	r1, #0
 2207 0210 02D0     		beq	.L157
 697:../../../../../../Middlewares/Third_Party/LoRaWAN/Mac/region/RegionEU868.c ****                     }
 2208              		.loc 1 697 0
 2209 0212 0822     		movs	r2, #8
 2210 0214 1343     		orrs	r3, r2
 2211 0216 0122     		movs	r2, #1
 2212              	.L157:
 2213              	.LVL179:
 695:../../../../../../Middlewares/Third_Party/LoRaWAN/Mac/region/RegionEU868.c ****                     {
 2214              		.loc 1 695 0
ARM GAS  C:\Users\EBANO_~1\AppData\Local\Temp\ccJkfoGk.s 			page 63


 2215 0218 396B     		ldr	r1, [r7, #48]
 2216 021a 0029     		cmp	r1, #0
 2217 021c 02D0     		beq	.L158
 697:../../../../../../Middlewares/Third_Party/LoRaWAN/Mac/region/RegionEU868.c ****                     }
 2218              		.loc 1 697 0
 2219 021e 1022     		movs	r2, #16
 2220 0220 1343     		orrs	r3, r2
 2221 0222 0122     		movs	r2, #1
 2222              	.L158:
 2223              	.LVL180:
 695:../../../../../../Middlewares/Third_Party/LoRaWAN/Mac/region/RegionEU868.c ****                     {
 2224              		.loc 1 695 0
 2225 0224 F96B     		ldr	r1, [r7, #60]
 2226 0226 0029     		cmp	r1, #0
 2227 0228 02D0     		beq	.L159
 697:../../../../../../Middlewares/Third_Party/LoRaWAN/Mac/region/RegionEU868.c ****                     }
 2228              		.loc 1 697 0
 2229 022a 2022     		movs	r2, #32
 2230 022c 1343     		orrs	r3, r2
 2231 022e 0122     		movs	r2, #1
 2232              	.L159:
 2233              	.LVL181:
 695:../../../../../../Middlewares/Third_Party/LoRaWAN/Mac/region/RegionEU868.c ****                     {
 2234              		.loc 1 695 0
 2235 0230 B96C     		ldr	r1, [r7, #72]
 2236 0232 0029     		cmp	r1, #0
 2237 0234 02D0     		beq	.L160
 697:../../../../../../Middlewares/Third_Party/LoRaWAN/Mac/region/RegionEU868.c ****                     }
 2238              		.loc 1 697 0
 2239 0236 4022     		movs	r2, #64
 2240 0238 1343     		orrs	r3, r2
 2241 023a 0122     		movs	r2, #1
 2242              	.L160:
 2243              	.LVL182:
 695:../../../../../../Middlewares/Third_Party/LoRaWAN/Mac/region/RegionEU868.c ****                     {
 2244              		.loc 1 695 0
 2245 023c 796D     		ldr	r1, [r7, #84]
 2246 023e 0029     		cmp	r1, #0
 2247 0240 02D0     		beq	.L161
 697:../../../../../../Middlewares/Third_Party/LoRaWAN/Mac/region/RegionEU868.c ****                     }
 2248              		.loc 1 697 0
 2249 0242 8022     		movs	r2, #128
 2250 0244 1343     		orrs	r3, r2
 2251 0246 0122     		movs	r2, #1
 2252              	.L161:
 2253              	.LVL183:
 695:../../../../../../Middlewares/Third_Party/LoRaWAN/Mac/region/RegionEU868.c ****                     {
 2254              		.loc 1 695 0
 2255 0248 396E     		ldr	r1, [r7, #96]
 2256 024a 0029     		cmp	r1, #0
 2257 024c 03D0     		beq	.L162
 697:../../../../../../Middlewares/Third_Party/LoRaWAN/Mac/region/RegionEU868.c ****                     }
 2258              		.loc 1 697 0
 2259 024e 8022     		movs	r2, #128
 2260 0250 5200     		lsls	r2, r2, #1
 2261 0252 1343     		orrs	r3, r2
 2262 0254 FF3A     		subs	r2, r2, #255
ARM GAS  C:\Users\EBANO_~1\AppData\Local\Temp\ccJkfoGk.s 			page 64


 2263              	.L162:
 2264              	.LVL184:
 695:../../../../../../Middlewares/Third_Party/LoRaWAN/Mac/region/RegionEU868.c ****                     {
 2265              		.loc 1 695 0
 2266 0256 F96E     		ldr	r1, [r7, #108]
 2267 0258 0029     		cmp	r1, #0
 2268 025a 03D0     		beq	.L163
 697:../../../../../../Middlewares/Third_Party/LoRaWAN/Mac/region/RegionEU868.c ****                     }
 2269              		.loc 1 697 0
 2270 025c 8022     		movs	r2, #128
 2271 025e 9200     		lsls	r2, r2, #2
 2272 0260 1343     		orrs	r3, r2
 2273 0262 0122     		movs	r2, #1
 2274              	.L163:
 2275              	.LVL185:
 695:../../../../../../Middlewares/Third_Party/LoRaWAN/Mac/region/RegionEU868.c ****                     {
 2276              		.loc 1 695 0
 2277 0264 B96F     		ldr	r1, [r7, #120]
 2278 0266 0029     		cmp	r1, #0
 2279 0268 03D0     		beq	.L164
 697:../../../../../../Middlewares/Third_Party/LoRaWAN/Mac/region/RegionEU868.c ****                     }
 2280              		.loc 1 697 0
 2281 026a 8022     		movs	r2, #128
 2282 026c D200     		lsls	r2, r2, #3
 2283 026e 1343     		orrs	r3, r2
 2284 0270 0122     		movs	r2, #1
 2285              	.L164:
 2286              	.LVL186:
 695:../../../../../../Middlewares/Third_Party/LoRaWAN/Mac/region/RegionEU868.c ****                     {
 2287              		.loc 1 695 0
 2288 0272 8421     		movs	r1, #132
 2289 0274 7958     		ldr	r1, [r7, r1]
 2290 0276 0029     		cmp	r1, #0
 2291 0278 03D0     		beq	.L165
 697:../../../../../../Middlewares/Third_Party/LoRaWAN/Mac/region/RegionEU868.c ****                     }
 2292              		.loc 1 697 0
 2293 027a 8022     		movs	r2, #128
 2294 027c 1201     		lsls	r2, r2, #4
 2295 027e 1343     		orrs	r3, r2
 2296 0280 0122     		movs	r2, #1
 2297              	.L165:
 2298              	.LVL187:
 695:../../../../../../Middlewares/Third_Party/LoRaWAN/Mac/region/RegionEU868.c ****                     {
 2299              		.loc 1 695 0
 2300 0282 9021     		movs	r1, #144
 2301 0284 7958     		ldr	r1, [r7, r1]
 2302 0286 0029     		cmp	r1, #0
 2303 0288 03D0     		beq	.L166
 697:../../../../../../Middlewares/Third_Party/LoRaWAN/Mac/region/RegionEU868.c ****                     }
 2304              		.loc 1 697 0
 2305 028a 8022     		movs	r2, #128
 2306 028c 5201     		lsls	r2, r2, #5
 2307 028e 1343     		orrs	r3, r2
 2308 0290 0122     		movs	r2, #1
 2309              	.L166:
 2310              	.LVL188:
 695:../../../../../../Middlewares/Third_Party/LoRaWAN/Mac/region/RegionEU868.c ****                     {
ARM GAS  C:\Users\EBANO_~1\AppData\Local\Temp\ccJkfoGk.s 			page 65


 2311              		.loc 1 695 0
 2312 0292 9C21     		movs	r1, #156
 2313 0294 7958     		ldr	r1, [r7, r1]
 2314 0296 0029     		cmp	r1, #0
 2315 0298 28D1     		bne	.L283
 2316              	.LVL189:
 2317 029a A821     		movs	r1, #168
 2318 029c 7958     		ldr	r1, [r7, r1]
 2319 029e 0029     		cmp	r1, #0
 2320 02a0 0DD0     		beq	.L171
 2321              	.L168:
 697:../../../../../../Middlewares/Third_Party/LoRaWAN/Mac/region/RegionEU868.c ****                     }
 2322              		.loc 1 697 0
 2323 02a2 8022     		movs	r2, #128
 2324 02a4 D201     		lsls	r2, r2, #7
 2325 02a6 1343     		orrs	r3, r2
 2326              	.L281:
 2327              	.LVL190:
 695:../../../../../../Middlewares/Third_Party/LoRaWAN/Mac/region/RegionEU868.c ****                     {
 2328              		.loc 1 695 0
 2329 02a8 B422     		movs	r2, #180
 2330 02aa BA58     		ldr	r2, [r7, r2]
 2331 02ac 002A     		cmp	r2, #0
 2332 02ae 02D0     		beq	.L170
 2333              	.L169:
 697:../../../../../../Middlewares/Third_Party/LoRaWAN/Mac/region/RegionEU868.c ****                     }
 2334              		.loc 1 697 0
 2335 02b0 8022     		movs	r2, #128
 2336 02b2 1202     		lsls	r2, r2, #8
 2337 02b4 1343     		orrs	r3, r2
 2338              	.LVL191:
 2339              	.L170:
 2340 02b6 02AA     		add	r2, sp, #8
 2341 02b8 D380     		strh	r3, [r2, #6]
 695:../../../../../../Middlewares/Third_Party/LoRaWAN/Mac/region/RegionEU868.c ****                     {
 2342              		.loc 1 695 0
 2343 02ba C146     		mov	r9, r8
 2344 02bc B4E6     		b	.L129
 2345              	.LVL192:
 2346              	.L171:
 2347 02be B421     		movs	r1, #180
 2348 02c0 7958     		ldr	r1, [r7, r1]
 2349 02c2 0029     		cmp	r1, #0
 2350 02c4 F4D1     		bne	.L169
 2351              	.LVL193:
 2352 02c6 0721     		movs	r1, #7
 2353 02c8 8946     		mov	r9, r1
 2354 02ca 002A     		cmp	r2, #0
 2355 02cc 00D1     		bne	.LCB2270
 2356 02ce ABE6     		b	.L129	@long jump
 2357              	.LCB2270:
 2358 02d0 F1E7     		b	.L170
 2359              	.LVL194:
 2360              	.L282:
 2361              	.LBE83:
 741:../../../../../../Middlewares/Third_Party/LoRaWAN/Mac/region/RegionEU868.c ****         // Update the channels mask
 2362              		.loc 1 741 0
ARM GAS  C:\Users\EBANO_~1\AppData\Local\Temp\ccJkfoGk.s 			page 66


 2363 02d2 3800     		movs	r0, r7
 2364              	.LVL195:
 2365 02d4 1130     		adds	r0, r0, #17
 2366 02d6 0222     		movs	r2, #2
 2367 02d8 FF30     		adds	r0, r0, #255
 2368 02da 0021     		movs	r1, #0
 2369 02dc FFF7FEFF 		bl	memset1
 2370              	.LVL196:
 743:../../../../../../Middlewares/Third_Party/LoRaWAN/Mac/region/RegionEU868.c ****     }
 2371              		.loc 1 743 0
 2372 02e0 02AB     		add	r3, sp, #8
 2373 02e2 DA88     		ldrh	r2, [r3, #6]
 2374 02e4 8823     		movs	r3, #136
 2375 02e6 5B00     		lsls	r3, r3, #1
 2376 02e8 FA52     		strh	r2, [r7, r3]
 2377 02ea 60E7     		b	.L132
 2378              	.LVL197:
 2379              	.L283:
 2380              	.LBB84:
 697:../../../../../../Middlewares/Third_Party/LoRaWAN/Mac/region/RegionEU868.c ****                     }
 2381              		.loc 1 697 0
 2382 02ec 8022     		movs	r2, #128
 2383 02ee 9201     		lsls	r2, r2, #6
 2384 02f0 1343     		orrs	r3, r2
 2385              	.LVL198:
 695:../../../../../../Middlewares/Third_Party/LoRaWAN/Mac/region/RegionEU868.c ****                     {
 2386              		.loc 1 695 0
 2387 02f2 A822     		movs	r2, #168
 2388 02f4 BA58     		ldr	r2, [r7, r2]
 2389 02f6 002A     		cmp	r2, #0
 2390 02f8 D3D1     		bne	.L168
 2391 02fa D5E7     		b	.L281
 2392              	.L285:
 2393              		.align	2
 2394              	.L284:
 2395 02fc 00000000 		.word	NvmCtx
 2396              	.LBE84:
 2397              		.cfi_endproc
 2398              	.LFE54:
 2399              		.size	RegionEU868LinkAdrReq, .-RegionEU868LinkAdrReq
 2400              		.section	.text.RegionEU868RxParamSetupReq,"ax",%progbits
 2401              		.align	1
 2402              		.p2align 2,,3
 2403              		.global	RegionEU868RxParamSetupReq
 2404              		.syntax unified
 2405              		.code	16
 2406              		.thumb_func
 2407              		.fpu softvfp
 2408              		.type	RegionEU868RxParamSetupReq, %function
 2409              	RegionEU868RxParamSetupReq:
 2410              	.LFB55:
 756:../../../../../../Middlewares/Third_Party/LoRaWAN/Mac/region/RegionEU868.c ****     uint8_t status = 0x07;
 2411              		.loc 1 756 0
 2412              		.cfi_startproc
 2413              		@ args = 0, pretend = 0, frame = 8
 2414              		@ frame_needed = 0, uses_anonymous_args = 0
 2415              	.LVL199:
ARM GAS  C:\Users\EBANO_~1\AppData\Local\Temp\ccJkfoGk.s 			page 67


 2416 0000 70B5     		push	{r4, r5, r6, lr}
 2417              	.LCFI22:
 2418              		.cfi_def_cfa_offset 16
 2419              		.cfi_offset 4, -16
 2420              		.cfi_offset 5, -12
 2421              		.cfi_offset 6, -8
 2422              		.cfi_offset 14, -4
 2423              	.LBB89:
 2424              	.LBB90:
 111:../../../../../../Middlewares/Third_Party/LoRaWAN/Mac/region/RegionEU868.c ****     {
 2425              		.loc 1 111 0
 2426 0002 1D4B     		ldr	r3, .L298
 2427              	.LBE90:
 2428              	.LBE89:
 761:../../../../../../Middlewares/Third_Party/LoRaWAN/Mac/region/RegionEU868.c ****     {
 2429              		.loc 1 761 0
 2430 0004 4568     		ldr	r5, [r0, #4]
 2431              	.LVL200:
 2432              	.LBB98:
 2433              	.LBB95:
 111:../../../../../../Middlewares/Third_Party/LoRaWAN/Mac/region/RegionEU868.c ****     {
 2434              		.loc 1 111 0
 2435 0006 9B6A     		ldr	r3, [r3, #40]
 2436              	.LBE95:
 2437              	.LBE98:
 756:../../../../../../Middlewares/Third_Party/LoRaWAN/Mac/region/RegionEU868.c ****     uint8_t status = 0x07;
 2438              		.loc 1 756 0
 2439 0008 82B0     		sub	sp, sp, #8
 2440              	.LCFI23:
 2441              		.cfi_def_cfa_offset 24
 756:../../../../../../Middlewares/Third_Party/LoRaWAN/Mac/region/RegionEU868.c ****     uint8_t status = 0x07;
 2442              		.loc 1 756 0
 2443 000a 0400     		movs	r4, r0
 2444              	.LBB99:
 2445              	.LBB96:
 111:../../../../../../Middlewares/Third_Party/LoRaWAN/Mac/region/RegionEU868.c ****     {
 2446              		.loc 1 111 0
 2447 000c 2800     		movs	r0, r5
 2448              	.LVL201:
 2449 000e 0193     		str	r3, [sp, #4]
 2450 0010 9847     		blx	r3
 2451              	.LVL202:
 2452 0012 0028     		cmp	r0, #0
 2453 0014 2CD0     		beq	.L294
 117:../../../../../../Middlewares/Third_Party/LoRaWAN/Mac/region/RegionEU868.c ****     {
 2454              		.loc 1 117 0
 2455 0016 194B     		ldr	r3, .L298+4
 2456 0018 194A     		ldr	r2, .L298+8
 2457 001a EB18     		adds	r3, r5, r3
 2458 001c 9342     		cmp	r3, r2
 2459 001e 0FD9     		bls	.L293
 129:../../../../../../Middlewares/Third_Party/LoRaWAN/Mac/region/RegionEU868.c ****     {
 2460              		.loc 1 129 0
 2461 0020 184B     		ldr	r3, .L298+12
 2462 0022 194A     		ldr	r2, .L298+16
 2463 0024 EB18     		adds	r3, r5, r3
 2464 0026 9342     		cmp	r3, r2
ARM GAS  C:\Users\EBANO_~1\AppData\Local\Temp\ccJkfoGk.s 			page 68


 2465 0028 0AD9     		bls	.L293
 2466              	.LVL203:
 2467              	.LBB91:
 2468              	.LBB92:
 133:../../../../../../Middlewares/Third_Party/LoRaWAN/Mac/region/RegionEU868.c ****     {
 2469              		.loc 1 133 0
 2470 002a 184B     		ldr	r3, .L298+20
 2471 002c 184A     		ldr	r2, .L298+24
 2472 002e EB18     		adds	r3, r5, r3
 2473 0030 9342     		cmp	r3, r2
 2474 0032 05D9     		bls	.L293
 137:../../../../../../Middlewares/Third_Party/LoRaWAN/Mac/region/RegionEU868.c ****     {
 2475              		.loc 1 137 0
 2476 0034 174B     		ldr	r3, .L298+28
 2477 0036 9C46     		mov	ip, r3
 2478 0038 174B     		ldr	r3, .L298+32
 2479 003a 6544     		add	r5, r5, ip
 2480              	.LVL204:
 2481 003c 9D42     		cmp	r5, r3
 2482 003e 17D8     		bhi	.L294
 2483              	.LVL205:
 2484              	.L293:
 133:../../../../../../Middlewares/Third_Party/LoRaWAN/Mac/region/RegionEU868.c ****     {
 2485              		.loc 1 133 0
 2486 0040 0525     		movs	r5, #5
 2487              	.LBE92:
 2488              	.LBE91:
 2489              	.LBE96:
 2490              	.LBE99:
 757:../../../../../../Middlewares/Third_Party/LoRaWAN/Mac/region/RegionEU868.c ****     uint8_t band = 0;
 2491              		.loc 1 757 0
 2492 0042 0726     		movs	r6, #7
 2493              	.L287:
 2494              	.LVL206:
 767:../../../../../../Middlewares/Third_Party/LoRaWAN/Mac/region/RegionEU868.c ****     {
 2495              		.loc 1 767 0
 2496 0044 0020     		movs	r0, #0
 2497 0046 0722     		movs	r2, #7
 2498 0048 2056     		ldrsb	r0, [r4, r0]
 2499 004a 0021     		movs	r1, #0
 2500 004c FFF7FEFF 		bl	RegionCommonValueInRange
 2501              	.LVL207:
 2502 0050 0028     		cmp	r0, #0
 2503 0052 00D0     		beq	.L288
 2504 0054 3500     		movs	r5, r6
 2505              	.L288:
 2506              	.LVL208:
 773:../../../../../../Middlewares/Third_Party/LoRaWAN/Mac/region/RegionEU868.c ****     {
 2507              		.loc 1 773 0
 2508 0056 0120     		movs	r0, #1
 2509 0058 0522     		movs	r2, #5
 2510 005a 2056     		ldrsb	r0, [r4, r0]
 2511 005c 0021     		movs	r1, #0
 2512 005e FFF7FEFF 		bl	RegionCommonValueInRange
 2513              	.LVL209:
 2514 0062 0028     		cmp	r0, #0
 2515 0064 01D1     		bne	.L289
ARM GAS  C:\Users\EBANO_~1\AppData\Local\Temp\ccJkfoGk.s 			page 69


 775:../../../../../../Middlewares/Third_Party/LoRaWAN/Mac/region/RegionEU868.c ****     }
 2516              		.loc 1 775 0
 2517 0066 FB23     		movs	r3, #251
 2518 0068 1D40     		ands	r5, r3
 2519              	.LVL210:
 2520              	.L289:
 779:../../../../../../Middlewares/Third_Party/LoRaWAN/Mac/region/RegionEU868.c **** 
 2521              		.loc 1 779 0
 2522 006a 2800     		movs	r0, r5
 2523 006c 02B0     		add	sp, sp, #8
 2524              		@ sp needed
 2525              	.LVL211:
 2526              	.LVL212:
 2527 006e 70BD     		pop	{r4, r5, r6, pc}
 2528              	.LVL213:
 2529              	.L294:
 2530              	.LBB100:
 2531              	.LBB97:
 2532              	.LBB94:
 2533              	.LBB93:
 137:../../../../../../Middlewares/Third_Party/LoRaWAN/Mac/region/RegionEU868.c ****     {
 2534              		.loc 1 137 0
 2535 0070 0425     		movs	r5, #4
 2536              	.LBE93:
 2537              	.LBE94:
 2538              	.LBE97:
 2539              	.LBE100:
 763:../../../../../../Middlewares/Third_Party/LoRaWAN/Mac/region/RegionEU868.c ****     }
 2540              		.loc 1 763 0
 2541 0072 0626     		movs	r6, #6
 2542 0074 E6E7     		b	.L287
 2543              	.L299:
 2544 0076 C046     		.align	2
 2545              	.L298:
 2546 0078 00000000 		.word	Radio
 2547 007c 40AA8FCC 		.word	-863000000
 2548 0080 00735500 		.word	5600000
 2549 0084 A0B038CC 		.word	-868700000
 2550 0088 20A10700 		.word	500000
 2551 008c 40022ECC 		.word	-869400000
 2552 0090 90D00300 		.word	250000
 2553 0094 606E29CC 		.word	-869700000
 2554 0098 E0930400 		.word	300000
 2555              		.cfi_endproc
 2556              	.LFE55:
 2557              		.size	RegionEU868RxParamSetupReq, .-RegionEU868RxParamSetupReq
 2558              		.section	.text.RegionEU868NewChannelReq,"ax",%progbits
 2559              		.align	1
 2560              		.p2align 2,,3
 2561              		.global	RegionEU868NewChannelReq
 2562              		.syntax unified
 2563              		.code	16
 2564              		.thumb_func
 2565              		.fpu softvfp
 2566              		.type	RegionEU868NewChannelReq, %function
 2567              	RegionEU868NewChannelReq:
 2568              	.LFB56:
ARM GAS  C:\Users\EBANO_~1\AppData\Local\Temp\ccJkfoGk.s 			page 70


 782:../../../../../../Middlewares/Third_Party/LoRaWAN/Mac/region/RegionEU868.c ****     uint8_t status = 0x03;
 2569              		.loc 1 782 0
 2570              		.cfi_startproc
 2571              		@ args = 0, pretend = 0, frame = 8
 2572              		@ frame_needed = 0, uses_anonymous_args = 0
 2573              	.LVL214:
 2574 0000 F0B5     		push	{r4, r5, r6, r7, lr}
 2575              	.LCFI24:
 2576              		.cfi_def_cfa_offset 20
 2577              		.cfi_offset 4, -20
 2578              		.cfi_offset 5, -16
 2579              		.cfi_offset 6, -12
 2580              		.cfi_offset 7, -8
 2581              		.cfi_offset 14, -4
 2582 0002 C646     		mov	lr, r8
 2583 0004 00B5     		push	{lr}
 2584              	.LCFI25:
 2585              		.cfi_def_cfa_offset 24
 2586              		.cfi_offset 8, -24
 787:../../../../../../Middlewares/Third_Party/LoRaWAN/Mac/region/RegionEU868.c ****     {
 2587              		.loc 1 787 0
 2588 0006 0468     		ldr	r4, [r0]
 782:../../../../../../Middlewares/Third_Party/LoRaWAN/Mac/region/RegionEU868.c ****     uint8_t status = 0x03;
 2589              		.loc 1 782 0
 2590 0008 82B0     		sub	sp, sp, #8
 2591              	.LCFI26:
 2592              		.cfi_def_cfa_offset 32
 787:../../../../../../Middlewares/Third_Party/LoRaWAN/Mac/region/RegionEU868.c ****     {
 2593              		.loc 1 787 0
 2594 000a 2368     		ldr	r3, [r4]
 2595 000c 0579     		ldrb	r5, [r0, #4]
 2596 000e 002B     		cmp	r3, #0
 2597 0010 06D1     		bne	.L301
 2598              	.LVL215:
 2599              	.LBB109:
 2600              	.LBB110:
1004:../../../../../../Middlewares/Third_Party/LoRaWAN/Mac/region/RegionEU868.c ****     {
 2601              		.loc 1 1004 0
 2602 0012 022D     		cmp	r5, #2
 2603 0014 3ED8     		bhi	.L334
 2604              	.LVL216:
 2605              	.L302:
 2606              	.LBE110:
 2607              	.LBE109:
 794:../../../../../../Middlewares/Third_Party/LoRaWAN/Mac/region/RegionEU868.c ****         }
 2608              		.loc 1 794 0
 2609 0016 0020     		movs	r0, #0
 2610              	.L328:
 832:../../../../../../Middlewares/Third_Party/LoRaWAN/Mac/region/RegionEU868.c **** 
 2611              		.loc 1 832 0
 2612 0018 02B0     		add	sp, sp, #8
 2613              		@ sp needed
 2614 001a 04BC     		pop	{r2}
 2615 001c 9046     		mov	r8, r2
 2616 001e F0BD     		pop	{r4, r5, r6, r7, pc}
 2617              	.LVL217:
 2618              	.L301:
ARM GAS  C:\Users\EBANO_~1\AppData\Local\Temp\ccJkfoGk.s 			page 71


