ARM GAS  C:\Users\EBANO_~1\AppData\Local\Temp\ccKJ5gfE.s 			page 1


   1              		.cpu cortex-m0plus
   2              		.eabi_attribute 20, 1
   3              		.eabi_attribute 21, 1
   4              		.eabi_attribute 23, 3
   5              		.eabi_attribute 24, 1
   6              		.eabi_attribute 25, 1
   7              		.eabi_attribute 26, 1
   8              		.eabi_attribute 30, 2
   9              		.eabi_attribute 34, 0
  10              		.eabi_attribute 18, 4
  11              		.file	"RegionCN779.c"
  12              		.text
  13              	.Ltext0:
  14              		.cfi_sections	.debug_frame
  15              		.section	.text.RegionCN779GetPhyParam,"ax",%progbits
  16              		.align	1
  17              		.p2align 2,,3
  18              		.global	RegionCN779GetPhyParam
  19              		.syntax unified
  20              		.code	16
  21              		.thumb_func
  22              		.fpu softvfp
  23              		.type	RegionCN779GetPhyParam, %function
  24              	RegionCN779GetPhyParam:
  25              	.LFB44:
  26              		.file 1 "../../../../../../Middlewares/Third_Party/LoRaWAN/Mac/region/RegionCN779.c"
   1:../../../../../../Middlewares/Third_Party/LoRaWAN/Mac/region/RegionCN779.c **** /*!
   2:../../../../../../Middlewares/Third_Party/LoRaWAN/Mac/region/RegionCN779.c ****  * \file      RegionCN779.c
   3:../../../../../../Middlewares/Third_Party/LoRaWAN/Mac/region/RegionCN779.c ****  *
   4:../../../../../../Middlewares/Third_Party/LoRaWAN/Mac/region/RegionCN779.c ****  * \brief     Region implementation for CN779
   5:../../../../../../Middlewares/Third_Party/LoRaWAN/Mac/region/RegionCN779.c ****  *
   6:../../../../../../Middlewares/Third_Party/LoRaWAN/Mac/region/RegionCN779.c ****  * \copyright Revised BSD License, see section \ref LICENSE.
   7:../../../../../../Middlewares/Third_Party/LoRaWAN/Mac/region/RegionCN779.c ****  *
   8:../../../../../../Middlewares/Third_Party/LoRaWAN/Mac/region/RegionCN779.c ****  * \code
   9:../../../../../../Middlewares/Third_Party/LoRaWAN/Mac/region/RegionCN779.c ****  *                ______                              _
  10:../../../../../../Middlewares/Third_Party/LoRaWAN/Mac/region/RegionCN779.c ****  *               / _____)             _              | |
  11:../../../../../../Middlewares/Third_Party/LoRaWAN/Mac/region/RegionCN779.c ****  *              ( (____  _____ ____ _| |_ _____  ____| |__
  12:../../../../../../Middlewares/Third_Party/LoRaWAN/Mac/region/RegionCN779.c ****  *               \____ \| ___ |    (_   _) ___ |/ ___)  _ \
  13:../../../../../../Middlewares/Third_Party/LoRaWAN/Mac/region/RegionCN779.c ****  *               _____) ) ____| | | || |_| ____( (___| | | |
  14:../../../../../../Middlewares/Third_Party/LoRaWAN/Mac/region/RegionCN779.c ****  *              (______/|_____)_|_|_| \__)_____)\____)_| |_|
  15:../../../../../../Middlewares/Third_Party/LoRaWAN/Mac/region/RegionCN779.c ****  *              (C)2013-2017 Semtech
  16:../../../../../../Middlewares/Third_Party/LoRaWAN/Mac/region/RegionCN779.c ****  *
  17:../../../../../../Middlewares/Third_Party/LoRaWAN/Mac/region/RegionCN779.c ****  *               ___ _____ _   ___ _  _____ ___  ___  ___ ___
  18:../../../../../../Middlewares/Third_Party/LoRaWAN/Mac/region/RegionCN779.c ****  *              / __|_   _/_\ / __| |/ / __/ _ \| _ \/ __| __|
  19:../../../../../../Middlewares/Third_Party/LoRaWAN/Mac/region/RegionCN779.c ****  *              \__ \ | |/ _ \ (__| ' <| _| (_) |   / (__| _|
  20:../../../../../../Middlewares/Third_Party/LoRaWAN/Mac/region/RegionCN779.c ****  *              |___/ |_/_/ \_\___|_|\_\_| \___/|_|_\\___|___|
  21:../../../../../../Middlewares/Third_Party/LoRaWAN/Mac/region/RegionCN779.c ****  *              embedded.connectivity.solutions===============
  22:../../../../../../Middlewares/Third_Party/LoRaWAN/Mac/region/RegionCN779.c ****  *
  23:../../../../../../Middlewares/Third_Party/LoRaWAN/Mac/region/RegionCN779.c ****  * \endcode
  24:../../../../../../Middlewares/Third_Party/LoRaWAN/Mac/region/RegionCN779.c ****  *
  25:../../../../../../Middlewares/Third_Party/LoRaWAN/Mac/region/RegionCN779.c ****  * \author    Miguel Luis ( Semtech )
  26:../../../../../../Middlewares/Third_Party/LoRaWAN/Mac/region/RegionCN779.c ****  *
  27:../../../../../../Middlewares/Third_Party/LoRaWAN/Mac/region/RegionCN779.c ****  * \author    Gregory Cristian ( Semtech )
  28:../../../../../../Middlewares/Third_Party/LoRaWAN/Mac/region/RegionCN779.c ****  *
  29:../../../../../../Middlewares/Third_Party/LoRaWAN/Mac/region/RegionCN779.c ****  * \author    Daniel Jaeckle ( STACKFORCE )
  30:../../../../../../Middlewares/Third_Party/LoRaWAN/Mac/region/RegionCN779.c **** */
  31:../../../../../../Middlewares/Third_Party/LoRaWAN/Mac/region/RegionCN779.c **** #include "utilities.h"
ARM GAS  C:\Users\EBANO_~1\AppData\Local\Temp\ccKJ5gfE.s 			page 2


  32:../../../../../../Middlewares/Third_Party/LoRaWAN/Mac/region/RegionCN779.c **** 
  33:../../../../../../Middlewares/Third_Party/LoRaWAN/Mac/region/RegionCN779.c **** #include "RegionCommon.h"
  34:../../../../../../Middlewares/Third_Party/LoRaWAN/Mac/region/RegionCN779.c **** #include "RegionCN779.h"
  35:../../../../../../Middlewares/Third_Party/LoRaWAN/Mac/region/RegionCN779.c **** #include "util_console.h"
  36:../../../../../../Middlewares/Third_Party/LoRaWAN/Mac/region/RegionCN779.c **** 
  37:../../../../../../Middlewares/Third_Party/LoRaWAN/Mac/region/RegionCN779.c **** // Definitions
  38:../../../../../../Middlewares/Third_Party/LoRaWAN/Mac/region/RegionCN779.c **** #define CHANNELS_MASK_SIZE              1
  39:../../../../../../Middlewares/Third_Party/LoRaWAN/Mac/region/RegionCN779.c **** 
  40:../../../../../../Middlewares/Third_Party/LoRaWAN/Mac/region/RegionCN779.c **** /*!
  41:../../../../../../Middlewares/Third_Party/LoRaWAN/Mac/region/RegionCN779.c ****  * Region specific context
  42:../../../../../../Middlewares/Third_Party/LoRaWAN/Mac/region/RegionCN779.c ****  */
  43:../../../../../../Middlewares/Third_Party/LoRaWAN/Mac/region/RegionCN779.c **** typedef struct sRegionCN779NvmCtx
  44:../../../../../../Middlewares/Third_Party/LoRaWAN/Mac/region/RegionCN779.c **** {
  45:../../../../../../Middlewares/Third_Party/LoRaWAN/Mac/region/RegionCN779.c ****     /*!
  46:../../../../../../Middlewares/Third_Party/LoRaWAN/Mac/region/RegionCN779.c ****      * LoRaMAC channels
  47:../../../../../../Middlewares/Third_Party/LoRaWAN/Mac/region/RegionCN779.c ****      */
  48:../../../../../../Middlewares/Third_Party/LoRaWAN/Mac/region/RegionCN779.c ****     ChannelParams_t Channels[ CN779_MAX_NB_CHANNELS ];
  49:../../../../../../Middlewares/Third_Party/LoRaWAN/Mac/region/RegionCN779.c ****     /*!
  50:../../../../../../Middlewares/Third_Party/LoRaWAN/Mac/region/RegionCN779.c ****      * LoRaMac bands
  51:../../../../../../Middlewares/Third_Party/LoRaWAN/Mac/region/RegionCN779.c ****      */
  52:../../../../../../Middlewares/Third_Party/LoRaWAN/Mac/region/RegionCN779.c ****     Band_t Bands[ CN779_MAX_NB_BANDS ];
  53:../../../../../../Middlewares/Third_Party/LoRaWAN/Mac/region/RegionCN779.c ****     /*!
  54:../../../../../../Middlewares/Third_Party/LoRaWAN/Mac/region/RegionCN779.c ****      * LoRaMac channels mask
  55:../../../../../../Middlewares/Third_Party/LoRaWAN/Mac/region/RegionCN779.c ****      */
  56:../../../../../../Middlewares/Third_Party/LoRaWAN/Mac/region/RegionCN779.c ****     uint16_t ChannelsMask[ CHANNELS_MASK_SIZE ];
  57:../../../../../../Middlewares/Third_Party/LoRaWAN/Mac/region/RegionCN779.c ****     /*!
  58:../../../../../../Middlewares/Third_Party/LoRaWAN/Mac/region/RegionCN779.c ****      * LoRaMac channels default mask
  59:../../../../../../Middlewares/Third_Party/LoRaWAN/Mac/region/RegionCN779.c ****      */
  60:../../../../../../Middlewares/Third_Party/LoRaWAN/Mac/region/RegionCN779.c ****     uint16_t ChannelsDefaultMask[ CHANNELS_MASK_SIZE ];
  61:../../../../../../Middlewares/Third_Party/LoRaWAN/Mac/region/RegionCN779.c **** }RegionCN779NvmCtx_t;
  62:../../../../../../Middlewares/Third_Party/LoRaWAN/Mac/region/RegionCN779.c **** 
  63:../../../../../../Middlewares/Third_Party/LoRaWAN/Mac/region/RegionCN779.c **** /*
  64:../../../../../../Middlewares/Third_Party/LoRaWAN/Mac/region/RegionCN779.c ****  * Non-volatile module context.
  65:../../../../../../Middlewares/Third_Party/LoRaWAN/Mac/region/RegionCN779.c ****  */
  66:../../../../../../Middlewares/Third_Party/LoRaWAN/Mac/region/RegionCN779.c **** static RegionCN779NvmCtx_t NvmCtx;
  67:../../../../../../Middlewares/Third_Party/LoRaWAN/Mac/region/RegionCN779.c **** 
  68:../../../../../../Middlewares/Third_Party/LoRaWAN/Mac/region/RegionCN779.c **** // Static functions
  69:../../../../../../Middlewares/Third_Party/LoRaWAN/Mac/region/RegionCN779.c **** static int8_t GetNextLowerTxDr( int8_t dr, int8_t minDr )
  70:../../../../../../Middlewares/Third_Party/LoRaWAN/Mac/region/RegionCN779.c **** {
  71:../../../../../../Middlewares/Third_Party/LoRaWAN/Mac/region/RegionCN779.c ****     uint8_t nextLowerDr = 0;
  72:../../../../../../Middlewares/Third_Party/LoRaWAN/Mac/region/RegionCN779.c **** 
  73:../../../../../../Middlewares/Third_Party/LoRaWAN/Mac/region/RegionCN779.c ****     if( dr == minDr )
  74:../../../../../../Middlewares/Third_Party/LoRaWAN/Mac/region/RegionCN779.c ****     {
  75:../../../../../../Middlewares/Third_Party/LoRaWAN/Mac/region/RegionCN779.c ****         nextLowerDr = minDr;
  76:../../../../../../Middlewares/Third_Party/LoRaWAN/Mac/region/RegionCN779.c ****     }
  77:../../../../../../Middlewares/Third_Party/LoRaWAN/Mac/region/RegionCN779.c ****     else
  78:../../../../../../Middlewares/Third_Party/LoRaWAN/Mac/region/RegionCN779.c ****     {
  79:../../../../../../Middlewares/Third_Party/LoRaWAN/Mac/region/RegionCN779.c ****         nextLowerDr = dr - 1;
  80:../../../../../../Middlewares/Third_Party/LoRaWAN/Mac/region/RegionCN779.c ****     }
  81:../../../../../../Middlewares/Third_Party/LoRaWAN/Mac/region/RegionCN779.c ****     return nextLowerDr;
  82:../../../../../../Middlewares/Third_Party/LoRaWAN/Mac/region/RegionCN779.c **** }
  83:../../../../../../Middlewares/Third_Party/LoRaWAN/Mac/region/RegionCN779.c **** 
  84:../../../../../../Middlewares/Third_Party/LoRaWAN/Mac/region/RegionCN779.c **** static uint32_t GetBandwidth( uint32_t drIndex )
  85:../../../../../../Middlewares/Third_Party/LoRaWAN/Mac/region/RegionCN779.c **** {
  86:../../../../../../Middlewares/Third_Party/LoRaWAN/Mac/region/RegionCN779.c ****     switch( BandwidthsCN779[drIndex] )
  87:../../../../../../Middlewares/Third_Party/LoRaWAN/Mac/region/RegionCN779.c ****     {
  88:../../../../../../Middlewares/Third_Party/LoRaWAN/Mac/region/RegionCN779.c ****         default:
ARM GAS  C:\Users\EBANO_~1\AppData\Local\Temp\ccKJ5gfE.s 			page 3


  89:../../../../../../Middlewares/Third_Party/LoRaWAN/Mac/region/RegionCN779.c ****         case 125000:
  90:../../../../../../Middlewares/Third_Party/LoRaWAN/Mac/region/RegionCN779.c ****             return 0;
  91:../../../../../../Middlewares/Third_Party/LoRaWAN/Mac/region/RegionCN779.c ****         case 250000:
  92:../../../../../../Middlewares/Third_Party/LoRaWAN/Mac/region/RegionCN779.c ****             return 1;
  93:../../../../../../Middlewares/Third_Party/LoRaWAN/Mac/region/RegionCN779.c ****         case 500000:
  94:../../../../../../Middlewares/Third_Party/LoRaWAN/Mac/region/RegionCN779.c ****             return 2;
  95:../../../../../../Middlewares/Third_Party/LoRaWAN/Mac/region/RegionCN779.c ****     }
  96:../../../../../../Middlewares/Third_Party/LoRaWAN/Mac/region/RegionCN779.c **** }
  97:../../../../../../Middlewares/Third_Party/LoRaWAN/Mac/region/RegionCN779.c **** 
  98:../../../../../../Middlewares/Third_Party/LoRaWAN/Mac/region/RegionCN779.c **** static int8_t LimitTxPower( int8_t txPower, int8_t maxBandTxPower, int8_t datarate, uint16_t* chann
  99:../../../../../../Middlewares/Third_Party/LoRaWAN/Mac/region/RegionCN779.c **** {
 100:../../../../../../Middlewares/Third_Party/LoRaWAN/Mac/region/RegionCN779.c ****     int8_t txPowerResult = txPower;
 101:../../../../../../Middlewares/Third_Party/LoRaWAN/Mac/region/RegionCN779.c **** 
 102:../../../../../../Middlewares/Third_Party/LoRaWAN/Mac/region/RegionCN779.c ****     // Limit tx power to the band max
 103:../../../../../../Middlewares/Third_Party/LoRaWAN/Mac/region/RegionCN779.c ****     txPowerResult =  MAX( txPower, maxBandTxPower );
 104:../../../../../../Middlewares/Third_Party/LoRaWAN/Mac/region/RegionCN779.c **** 
 105:../../../../../../Middlewares/Third_Party/LoRaWAN/Mac/region/RegionCN779.c ****     return txPowerResult;
 106:../../../../../../Middlewares/Third_Party/LoRaWAN/Mac/region/RegionCN779.c **** }
 107:../../../../../../Middlewares/Third_Party/LoRaWAN/Mac/region/RegionCN779.c **** 
 108:../../../../../../Middlewares/Third_Party/LoRaWAN/Mac/region/RegionCN779.c **** static bool VerifyRfFreq( uint32_t freq )
 109:../../../../../../Middlewares/Third_Party/LoRaWAN/Mac/region/RegionCN779.c **** {
 110:../../../../../../Middlewares/Third_Party/LoRaWAN/Mac/region/RegionCN779.c ****     // Check radio driver support
 111:../../../../../../Middlewares/Third_Party/LoRaWAN/Mac/region/RegionCN779.c ****     if( Radio.CheckRfFrequency( freq ) == false )
 112:../../../../../../Middlewares/Third_Party/LoRaWAN/Mac/region/RegionCN779.c ****     {
 113:../../../../../../Middlewares/Third_Party/LoRaWAN/Mac/region/RegionCN779.c ****         return false;
 114:../../../../../../Middlewares/Third_Party/LoRaWAN/Mac/region/RegionCN779.c ****     }
 115:../../../../../../Middlewares/Third_Party/LoRaWAN/Mac/region/RegionCN779.c **** 
 116:../../../../../../Middlewares/Third_Party/LoRaWAN/Mac/region/RegionCN779.c ****     if( ( freq < 779500000 ) || ( freq > 786500000 ) )
 117:../../../../../../Middlewares/Third_Party/LoRaWAN/Mac/region/RegionCN779.c ****     {
 118:../../../../../../Middlewares/Third_Party/LoRaWAN/Mac/region/RegionCN779.c ****         return false;
 119:../../../../../../Middlewares/Third_Party/LoRaWAN/Mac/region/RegionCN779.c ****     }
 120:../../../../../../Middlewares/Third_Party/LoRaWAN/Mac/region/RegionCN779.c ****     return true;
 121:../../../../../../Middlewares/Third_Party/LoRaWAN/Mac/region/RegionCN779.c **** }
 122:../../../../../../Middlewares/Third_Party/LoRaWAN/Mac/region/RegionCN779.c **** 
 123:../../../../../../Middlewares/Third_Party/LoRaWAN/Mac/region/RegionCN779.c **** static uint8_t CountNbOfEnabledChannels( bool joined, uint8_t datarate, uint16_t* channelsMask, Cha
 124:../../../../../../Middlewares/Third_Party/LoRaWAN/Mac/region/RegionCN779.c **** {
 125:../../../../../../Middlewares/Third_Party/LoRaWAN/Mac/region/RegionCN779.c ****     uint8_t nbEnabledChannels = 0;
 126:../../../../../../Middlewares/Third_Party/LoRaWAN/Mac/region/RegionCN779.c ****     uint8_t delayTransmission = 0;
 127:../../../../../../Middlewares/Third_Party/LoRaWAN/Mac/region/RegionCN779.c **** 
 128:../../../../../../Middlewares/Third_Party/LoRaWAN/Mac/region/RegionCN779.c ****     for( uint8_t i = 0, k = 0; i < CN779_MAX_NB_CHANNELS; i += 16, k++ )
 129:../../../../../../Middlewares/Third_Party/LoRaWAN/Mac/region/RegionCN779.c ****     {
 130:../../../../../../Middlewares/Third_Party/LoRaWAN/Mac/region/RegionCN779.c ****         for( uint8_t j = 0; j < 16; j++ )
 131:../../../../../../Middlewares/Third_Party/LoRaWAN/Mac/region/RegionCN779.c ****         {
 132:../../../../../../Middlewares/Third_Party/LoRaWAN/Mac/region/RegionCN779.c ****             if( ( channelsMask[k] & ( 1 << j ) ) != 0 )
 133:../../../../../../Middlewares/Third_Party/LoRaWAN/Mac/region/RegionCN779.c ****             {
 134:../../../../../../Middlewares/Third_Party/LoRaWAN/Mac/region/RegionCN779.c ****                 if( channels[i + j].Frequency == 0 )
 135:../../../../../../Middlewares/Third_Party/LoRaWAN/Mac/region/RegionCN779.c ****                 { // Check if the channel is enabled
 136:../../../../../../Middlewares/Third_Party/LoRaWAN/Mac/region/RegionCN779.c ****                     continue;
 137:../../../../../../Middlewares/Third_Party/LoRaWAN/Mac/region/RegionCN779.c ****                 }
 138:../../../../../../Middlewares/Third_Party/LoRaWAN/Mac/region/RegionCN779.c ****                 if( joined == false )
 139:../../../../../../Middlewares/Third_Party/LoRaWAN/Mac/region/RegionCN779.c ****                 {
 140:../../../../../../Middlewares/Third_Party/LoRaWAN/Mac/region/RegionCN779.c ****                     if( ( CN779_JOIN_CHANNELS & ( 1 << j ) ) == 0 )
 141:../../../../../../Middlewares/Third_Party/LoRaWAN/Mac/region/RegionCN779.c ****                     {
 142:../../../../../../Middlewares/Third_Party/LoRaWAN/Mac/region/RegionCN779.c ****                         continue;
 143:../../../../../../Middlewares/Third_Party/LoRaWAN/Mac/region/RegionCN779.c ****                     }
 144:../../../../../../Middlewares/Third_Party/LoRaWAN/Mac/region/RegionCN779.c ****                 }
 145:../../../../../../Middlewares/Third_Party/LoRaWAN/Mac/region/RegionCN779.c ****                 if( RegionCommonValueInRange( datarate, channels[i + j].DrRange.Fields.Min,
ARM GAS  C:\Users\EBANO_~1\AppData\Local\Temp\ccKJ5gfE.s 			page 4


 146:../../../../../../Middlewares/Third_Party/LoRaWAN/Mac/region/RegionCN779.c ****                                               channels[i + j].DrRange.Fields.Max ) == false )
 147:../../../../../../Middlewares/Third_Party/LoRaWAN/Mac/region/RegionCN779.c ****                 { // Check if the current channel selection supports the given datarate
 148:../../../../../../Middlewares/Third_Party/LoRaWAN/Mac/region/RegionCN779.c ****                     continue;
 149:../../../../../../Middlewares/Third_Party/LoRaWAN/Mac/region/RegionCN779.c ****                 }
 150:../../../../../../Middlewares/Third_Party/LoRaWAN/Mac/region/RegionCN779.c ****                 if( bands[channels[i + j].Band].TimeOff > 0 )
 151:../../../../../../Middlewares/Third_Party/LoRaWAN/Mac/region/RegionCN779.c ****                 { // Check if the band is available for transmission
 152:../../../../../../Middlewares/Third_Party/LoRaWAN/Mac/region/RegionCN779.c ****                     delayTransmission++;
 153:../../../../../../Middlewares/Third_Party/LoRaWAN/Mac/region/RegionCN779.c ****                     continue;
 154:../../../../../../Middlewares/Third_Party/LoRaWAN/Mac/region/RegionCN779.c ****                 }
 155:../../../../../../Middlewares/Third_Party/LoRaWAN/Mac/region/RegionCN779.c ****                 enabledChannels[nbEnabledChannels++] = i + j;
 156:../../../../../../Middlewares/Third_Party/LoRaWAN/Mac/region/RegionCN779.c ****             }
 157:../../../../../../Middlewares/Third_Party/LoRaWAN/Mac/region/RegionCN779.c ****         }
 158:../../../../../../Middlewares/Third_Party/LoRaWAN/Mac/region/RegionCN779.c ****     }
 159:../../../../../../Middlewares/Third_Party/LoRaWAN/Mac/region/RegionCN779.c **** 
 160:../../../../../../Middlewares/Third_Party/LoRaWAN/Mac/region/RegionCN779.c ****     *delayTx = delayTransmission;
 161:../../../../../../Middlewares/Third_Party/LoRaWAN/Mac/region/RegionCN779.c ****     return nbEnabledChannels;
 162:../../../../../../Middlewares/Third_Party/LoRaWAN/Mac/region/RegionCN779.c **** }
 163:../../../../../../Middlewares/Third_Party/LoRaWAN/Mac/region/RegionCN779.c **** 
 164:../../../../../../Middlewares/Third_Party/LoRaWAN/Mac/region/RegionCN779.c **** PhyParam_t RegionCN779GetPhyParam( GetPhyParams_t* getPhy )
 165:../../../../../../Middlewares/Third_Party/LoRaWAN/Mac/region/RegionCN779.c **** {
  27              		.loc 1 165 0
  28              		.cfi_startproc
  29              		@ args = 0, pretend = 0, frame = 8
  30              		@ frame_needed = 0, uses_anonymous_args = 0
  31              	.LVL0:
 166:../../../../../../Middlewares/Third_Party/LoRaWAN/Mac/region/RegionCN779.c ****     PhyParam_t phyParam = { 0 };
  32              		.loc 1 166 0
  33 0000 0023     		movs	r3, #0
 165:../../../../../../Middlewares/Third_Party/LoRaWAN/Mac/region/RegionCN779.c ****     PhyParam_t phyParam = { 0 };
  34              		.loc 1 165 0
  35 0002 00B5     		push	{lr}
  36              	.LCFI0:
  37              		.cfi_def_cfa_offset 4
  38              		.cfi_offset 14, -4
  39 0004 83B0     		sub	sp, sp, #12
  40              	.LCFI1:
  41              		.cfi_def_cfa_offset 16
  42              		.loc 1 166 0
  43 0006 0093     		str	r3, [sp]
 167:../../../../../../Middlewares/Third_Party/LoRaWAN/Mac/region/RegionCN779.c **** 
 168:../../../../../../Middlewares/Third_Party/LoRaWAN/Mac/region/RegionCN779.c ****     switch( getPhy->Attribute )
  44              		.loc 1 168 0
  45 0008 0378     		ldrb	r3, [r0]
  46 000a 0A3B     		subs	r3, r3, #10
  47 000c DBB2     		uxtb	r3, r3
  48 000e 2A2B     		cmp	r3, #42
  49 0010 05D8     		bhi	.L2
  50 0012 324A     		ldr	r2, .L31
  51 0014 9B00     		lsls	r3, r3, #2
  52 0016 D358     		ldr	r3, [r2, r3]
  53 0018 9F46     		mov	pc, r3
  54              		.section	.rodata
  55              		.align	2
  56              	.L4:
  57 0000 BC000000 		.word	.L3
  58 0004 B6000000 		.word	.L5
  59 0008 AA000000 		.word	.L6
ARM GAS  C:\Users\EBANO_~1\AppData\Local\Temp\ccKJ5gfE.s 			page 5


  60 000c 9C000000 		.word	.L7
  61 0010 96000000 		.word	.L8
  62 0014 90000000 		.word	.L9
  63 0018 88000000 		.word	.L10
  64 001c 80000000 		.word	.L11
  65 0020 7A000000 		.word	.L12
  66 0024 74000000 		.word	.L13
  67 0028 6C000000 		.word	.L14
  68 002c 56000000 		.word	.L15
  69 0030 1E000000 		.word	.L2
  70 0034 4A000000 		.word	.L16
  71 0038 1E000000 		.word	.L2
  72 003c 3E000000 		.word	.L17
  73 0040 38000000 		.word	.L18
  74 0044 1A000000 		.word	.L19
  75 0048 32000000 		.word	.L20
  76 004c 1E000000 		.word	.L2
  77 0050 1E000000 		.word	.L2
  78 0054 44000000 		.word	.L21
  79 0058 50000000 		.word	.L22
  80 005c C2000000 		.word	.L23
  81 0060 1E000000 		.word	.L2
  82 0064 1E000000 		.word	.L2
  83 0068 1E000000 		.word	.L2
  84 006c 1E000000 		.word	.L2
  85 0070 1E000000 		.word	.L2
  86 0074 1E000000 		.word	.L2
  87 0078 1E000000 		.word	.L2
  88 007c 1E000000 		.word	.L2
  89 0080 1E000000 		.word	.L2
  90 0084 1E000000 		.word	.L2
  91 0088 1E000000 		.word	.L2
  92 008c 1E000000 		.word	.L2
  93 0090 1E000000 		.word	.L2
  94 0094 D4000000 		.word	.L24
  95 0098 2A000000 		.word	.L25
  96 009c 24000000 		.word	.L26
  97 00a0 1E000000 		.word	.L2
  98 00a4 1E000000 		.word	.L2
  99 00a8 24000000 		.word	.L26
 100              		.section	.text.RegionCN779GetPhyParam
 101              	.L19:
 169:../../../../../../Middlewares/Third_Party/LoRaWAN/Mac/region/RegionCN779.c ****     {
 170:../../../../../../Middlewares/Third_Party/LoRaWAN/Mac/region/RegionCN779.c ****         case PHY_MIN_RX_DR:
 171:../../../../../../Middlewares/Third_Party/LoRaWAN/Mac/region/RegionCN779.c ****         {
 172:../../../../../../Middlewares/Third_Party/LoRaWAN/Mac/region/RegionCN779.c ****             phyParam.Value = CN779_RX_MIN_DATARATE;
 173:../../../../../../Middlewares/Third_Party/LoRaWAN/Mac/region/RegionCN779.c ****             break;
 174:../../../../../../Middlewares/Third_Party/LoRaWAN/Mac/region/RegionCN779.c ****         }
 175:../../../../../../Middlewares/Third_Party/LoRaWAN/Mac/region/RegionCN779.c ****         case PHY_MIN_TX_DR:
 176:../../../../../../Middlewares/Third_Party/LoRaWAN/Mac/region/RegionCN779.c ****         {
 177:../../../../../../Middlewares/Third_Party/LoRaWAN/Mac/region/RegionCN779.c ****             phyParam.Value = CN779_TX_MIN_DATARATE;
 178:../../../../../../Middlewares/Third_Party/LoRaWAN/Mac/region/RegionCN779.c ****             break;
 179:../../../../../../Middlewares/Third_Party/LoRaWAN/Mac/region/RegionCN779.c ****         }
 180:../../../../../../Middlewares/Third_Party/LoRaWAN/Mac/region/RegionCN779.c ****         case PHY_DEF_TX_DR:
 181:../../../../../../Middlewares/Third_Party/LoRaWAN/Mac/region/RegionCN779.c ****         {
 182:../../../../../../Middlewares/Third_Party/LoRaWAN/Mac/region/RegionCN779.c ****             phyParam.Value = CN779_DEFAULT_DATARATE;
 183:../../../../../../Middlewares/Third_Party/LoRaWAN/Mac/region/RegionCN779.c ****             break;
ARM GAS  C:\Users\EBANO_~1\AppData\Local\Temp\ccKJ5gfE.s 			page 6


 184:../../../../../../Middlewares/Third_Party/LoRaWAN/Mac/region/RegionCN779.c ****         }
 185:../../../../../../Middlewares/Third_Party/LoRaWAN/Mac/region/RegionCN779.c ****         case PHY_NEXT_LOWER_TX_DR:
 186:../../../../../../Middlewares/Third_Party/LoRaWAN/Mac/region/RegionCN779.c ****         {
 187:../../../../../../Middlewares/Third_Party/LoRaWAN/Mac/region/RegionCN779.c ****             phyParam.Value = GetNextLowerTxDr( getPhy->Datarate, CN779_TX_MIN_DATARATE );
 188:../../../../../../Middlewares/Third_Party/LoRaWAN/Mac/region/RegionCN779.c ****             break;
 189:../../../../../../Middlewares/Third_Party/LoRaWAN/Mac/region/RegionCN779.c ****         }
 190:../../../../../../Middlewares/Third_Party/LoRaWAN/Mac/region/RegionCN779.c ****         case PHY_MAX_TX_POWER:
 191:../../../../../../Middlewares/Third_Party/LoRaWAN/Mac/region/RegionCN779.c ****         {
 192:../../../../../../Middlewares/Third_Party/LoRaWAN/Mac/region/RegionCN779.c ****             phyParam.Value = CN779_MAX_TX_POWER;
 193:../../../../../../Middlewares/Third_Party/LoRaWAN/Mac/region/RegionCN779.c ****             break;
 194:../../../../../../Middlewares/Third_Party/LoRaWAN/Mac/region/RegionCN779.c ****         }
 195:../../../../../../Middlewares/Third_Party/LoRaWAN/Mac/region/RegionCN779.c ****         case PHY_DEF_TX_POWER:
 196:../../../../../../Middlewares/Third_Party/LoRaWAN/Mac/region/RegionCN779.c ****         {
 197:../../../../../../Middlewares/Third_Party/LoRaWAN/Mac/region/RegionCN779.c ****             phyParam.Value = CN779_DEFAULT_TX_POWER;
 198:../../../../../../Middlewares/Third_Party/LoRaWAN/Mac/region/RegionCN779.c ****             break;
 199:../../../../../../Middlewares/Third_Party/LoRaWAN/Mac/region/RegionCN779.c ****         }
 200:../../../../../../Middlewares/Third_Party/LoRaWAN/Mac/region/RegionCN779.c ****         case PHY_DEF_ADR_ACK_LIMIT:
 201:../../../../../../Middlewares/Third_Party/LoRaWAN/Mac/region/RegionCN779.c ****         {
 202:../../../../../../Middlewares/Third_Party/LoRaWAN/Mac/region/RegionCN779.c ****             phyParam.Value = CN779_ADR_ACK_LIMIT;
 203:../../../../../../Middlewares/Third_Party/LoRaWAN/Mac/region/RegionCN779.c ****             break;
 204:../../../../../../Middlewares/Third_Party/LoRaWAN/Mac/region/RegionCN779.c ****         }
 205:../../../../../../Middlewares/Third_Party/LoRaWAN/Mac/region/RegionCN779.c ****         case PHY_DEF_ADR_ACK_DELAY:
 206:../../../../../../Middlewares/Third_Party/LoRaWAN/Mac/region/RegionCN779.c ****         {
 207:../../../../../../Middlewares/Third_Party/LoRaWAN/Mac/region/RegionCN779.c ****             phyParam.Value = CN779_ADR_ACK_DELAY;
 208:../../../../../../Middlewares/Third_Party/LoRaWAN/Mac/region/RegionCN779.c ****             break;
 209:../../../../../../Middlewares/Third_Party/LoRaWAN/Mac/region/RegionCN779.c ****         }
 210:../../../../../../Middlewares/Third_Party/LoRaWAN/Mac/region/RegionCN779.c ****         case PHY_MAX_PAYLOAD:
 211:../../../../../../Middlewares/Third_Party/LoRaWAN/Mac/region/RegionCN779.c ****         {
 212:../../../../../../Middlewares/Third_Party/LoRaWAN/Mac/region/RegionCN779.c ****             phyParam.Value = MaxPayloadOfDatarateCN779[getPhy->Datarate];
 213:../../../../../../Middlewares/Third_Party/LoRaWAN/Mac/region/RegionCN779.c ****             break;
 214:../../../../../../Middlewares/Third_Party/LoRaWAN/Mac/region/RegionCN779.c ****         }
 215:../../../../../../Middlewares/Third_Party/LoRaWAN/Mac/region/RegionCN779.c ****         case PHY_MAX_PAYLOAD_REPEATER:
 216:../../../../../../Middlewares/Third_Party/LoRaWAN/Mac/region/RegionCN779.c ****         {
 217:../../../../../../Middlewares/Third_Party/LoRaWAN/Mac/region/RegionCN779.c ****             phyParam.Value = MaxPayloadOfDatarateRepeaterCN779[getPhy->Datarate];
 218:../../../../../../Middlewares/Third_Party/LoRaWAN/Mac/region/RegionCN779.c ****             break;
 219:../../../../../../Middlewares/Third_Party/LoRaWAN/Mac/region/RegionCN779.c ****         }
 220:../../../../../../Middlewares/Third_Party/LoRaWAN/Mac/region/RegionCN779.c ****         case PHY_DUTY_CYCLE:
 221:../../../../../../Middlewares/Third_Party/LoRaWAN/Mac/region/RegionCN779.c ****         {
 222:../../../../../../Middlewares/Third_Party/LoRaWAN/Mac/region/RegionCN779.c ****             phyParam.Value = CN779_DUTY_CYCLE_ENABLED;
 223:../../../../../../Middlewares/Third_Party/LoRaWAN/Mac/region/RegionCN779.c ****             break;
 224:../../../../../../Middlewares/Third_Party/LoRaWAN/Mac/region/RegionCN779.c ****         }
 225:../../../../../../Middlewares/Third_Party/LoRaWAN/Mac/region/RegionCN779.c ****         case PHY_MAX_RX_WINDOW:
 226:../../../../../../Middlewares/Third_Party/LoRaWAN/Mac/region/RegionCN779.c ****         {
 227:../../../../../../Middlewares/Third_Party/LoRaWAN/Mac/region/RegionCN779.c ****             phyParam.Value = CN779_MAX_RX_WINDOW;
 228:../../../../../../Middlewares/Third_Party/LoRaWAN/Mac/region/RegionCN779.c ****             break;
 229:../../../../../../Middlewares/Third_Party/LoRaWAN/Mac/region/RegionCN779.c ****         }
 230:../../../../../../Middlewares/Third_Party/LoRaWAN/Mac/region/RegionCN779.c ****         case PHY_RECEIVE_DELAY1:
 231:../../../../../../Middlewares/Third_Party/LoRaWAN/Mac/region/RegionCN779.c ****         {
 232:../../../../../../Middlewares/Third_Party/LoRaWAN/Mac/region/RegionCN779.c ****             phyParam.Value = CN779_RECEIVE_DELAY1;
 233:../../../../../../Middlewares/Third_Party/LoRaWAN/Mac/region/RegionCN779.c ****             break;
 234:../../../../../../Middlewares/Third_Party/LoRaWAN/Mac/region/RegionCN779.c ****         }
 235:../../../../../../Middlewares/Third_Party/LoRaWAN/Mac/region/RegionCN779.c ****         case PHY_RECEIVE_DELAY2:
 236:../../../../../../Middlewares/Third_Party/LoRaWAN/Mac/region/RegionCN779.c ****         {
 237:../../../../../../Middlewares/Third_Party/LoRaWAN/Mac/region/RegionCN779.c ****             phyParam.Value = CN779_RECEIVE_DELAY2;
 238:../../../../../../Middlewares/Third_Party/LoRaWAN/Mac/region/RegionCN779.c ****             break;
 239:../../../../../../Middlewares/Third_Party/LoRaWAN/Mac/region/RegionCN779.c ****         }
 240:../../../../../../Middlewares/Third_Party/LoRaWAN/Mac/region/RegionCN779.c ****         case PHY_JOIN_ACCEPT_DELAY1:
ARM GAS  C:\Users\EBANO_~1\AppData\Local\Temp\ccKJ5gfE.s 			page 7


 241:../../../../../../Middlewares/Third_Party/LoRaWAN/Mac/region/RegionCN779.c ****         {
 242:../../../../../../Middlewares/Third_Party/LoRaWAN/Mac/region/RegionCN779.c ****             phyParam.Value = CN779_JOIN_ACCEPT_DELAY1;
 243:../../../../../../Middlewares/Third_Party/LoRaWAN/Mac/region/RegionCN779.c ****             break;
 244:../../../../../../Middlewares/Third_Party/LoRaWAN/Mac/region/RegionCN779.c ****         }
 245:../../../../../../Middlewares/Third_Party/LoRaWAN/Mac/region/RegionCN779.c ****         case PHY_JOIN_ACCEPT_DELAY2:
 246:../../../../../../Middlewares/Third_Party/LoRaWAN/Mac/region/RegionCN779.c ****         {
 247:../../../../../../Middlewares/Third_Party/LoRaWAN/Mac/region/RegionCN779.c ****             phyParam.Value = CN779_JOIN_ACCEPT_DELAY2;
 248:../../../../../../Middlewares/Third_Party/LoRaWAN/Mac/region/RegionCN779.c ****             break;
 249:../../../../../../Middlewares/Third_Party/LoRaWAN/Mac/region/RegionCN779.c ****         }
 250:../../../../../../Middlewares/Third_Party/LoRaWAN/Mac/region/RegionCN779.c ****         case PHY_MAX_FCNT_GAP:
 251:../../../../../../Middlewares/Third_Party/LoRaWAN/Mac/region/RegionCN779.c ****         {
 252:../../../../../../Middlewares/Third_Party/LoRaWAN/Mac/region/RegionCN779.c ****             phyParam.Value = CN779_MAX_FCNT_GAP;
 253:../../../../../../Middlewares/Third_Party/LoRaWAN/Mac/region/RegionCN779.c ****             break;
 254:../../../../../../Middlewares/Third_Party/LoRaWAN/Mac/region/RegionCN779.c ****         }
 255:../../../../../../Middlewares/Third_Party/LoRaWAN/Mac/region/RegionCN779.c ****         case PHY_ACK_TIMEOUT:
 256:../../../../../../Middlewares/Third_Party/LoRaWAN/Mac/region/RegionCN779.c ****         {
 257:../../../../../../Middlewares/Third_Party/LoRaWAN/Mac/region/RegionCN779.c ****             phyParam.Value = ( CN779_ACKTIMEOUT + randr( -CN779_ACK_TIMEOUT_RND, CN779_ACK_TIMEOUT_
 258:../../../../../../Middlewares/Third_Party/LoRaWAN/Mac/region/RegionCN779.c ****             break;
 259:../../../../../../Middlewares/Third_Party/LoRaWAN/Mac/region/RegionCN779.c ****         }
 260:../../../../../../Middlewares/Third_Party/LoRaWAN/Mac/region/RegionCN779.c ****         case PHY_DEF_DR1_OFFSET:
 261:../../../../../../Middlewares/Third_Party/LoRaWAN/Mac/region/RegionCN779.c ****         {
 262:../../../../../../Middlewares/Third_Party/LoRaWAN/Mac/region/RegionCN779.c ****             phyParam.Value = CN779_DEFAULT_RX1_DR_OFFSET;
 263:../../../../../../Middlewares/Third_Party/LoRaWAN/Mac/region/RegionCN779.c ****             break;
 264:../../../../../../Middlewares/Third_Party/LoRaWAN/Mac/region/RegionCN779.c ****         }
 265:../../../../../../Middlewares/Third_Party/LoRaWAN/Mac/region/RegionCN779.c ****         case PHY_DEF_RX2_FREQUENCY:
 266:../../../../../../Middlewares/Third_Party/LoRaWAN/Mac/region/RegionCN779.c ****         {
 267:../../../../../../Middlewares/Third_Party/LoRaWAN/Mac/region/RegionCN779.c ****             phyParam.Value = CN779_RX_WND_2_FREQ;
 268:../../../../../../Middlewares/Third_Party/LoRaWAN/Mac/region/RegionCN779.c ****             break;
 269:../../../../../../Middlewares/Third_Party/LoRaWAN/Mac/region/RegionCN779.c ****         }
 270:../../../../../../Middlewares/Third_Party/LoRaWAN/Mac/region/RegionCN779.c ****         case PHY_DEF_RX2_DR:
 271:../../../../../../Middlewares/Third_Party/LoRaWAN/Mac/region/RegionCN779.c ****         {
 272:../../../../../../Middlewares/Third_Party/LoRaWAN/Mac/region/RegionCN779.c ****             phyParam.Value = CN779_RX_WND_2_DR;
 273:../../../../../../Middlewares/Third_Party/LoRaWAN/Mac/region/RegionCN779.c ****             break;
 274:../../../../../../Middlewares/Third_Party/LoRaWAN/Mac/region/RegionCN779.c ****         }
 275:../../../../../../Middlewares/Third_Party/LoRaWAN/Mac/region/RegionCN779.c ****         case PHY_CHANNELS_MASK:
 276:../../../../../../Middlewares/Third_Party/LoRaWAN/Mac/region/RegionCN779.c ****         {
 277:../../../../../../Middlewares/Third_Party/LoRaWAN/Mac/region/RegionCN779.c ****             phyParam.ChannelsMask = NvmCtx.ChannelsMask;
 278:../../../../../../Middlewares/Third_Party/LoRaWAN/Mac/region/RegionCN779.c ****             break;
 279:../../../../../../Middlewares/Third_Party/LoRaWAN/Mac/region/RegionCN779.c ****         }
 280:../../../../../../Middlewares/Third_Party/LoRaWAN/Mac/region/RegionCN779.c ****         case PHY_CHANNELS_DEFAULT_MASK:
 281:../../../../../../Middlewares/Third_Party/LoRaWAN/Mac/region/RegionCN779.c ****         {
 282:../../../../../../Middlewares/Third_Party/LoRaWAN/Mac/region/RegionCN779.c ****             phyParam.ChannelsMask = NvmCtx.ChannelsDefaultMask;
 283:../../../../../../Middlewares/Third_Party/LoRaWAN/Mac/region/RegionCN779.c ****             break;
 284:../../../../../../Middlewares/Third_Party/LoRaWAN/Mac/region/RegionCN779.c ****         }
 285:../../../../../../Middlewares/Third_Party/LoRaWAN/Mac/region/RegionCN779.c ****         case PHY_MAX_NB_CHANNELS:
 286:../../../../../../Middlewares/Third_Party/LoRaWAN/Mac/region/RegionCN779.c ****         {
 287:../../../../../../Middlewares/Third_Party/LoRaWAN/Mac/region/RegionCN779.c ****             phyParam.Value = CN779_MAX_NB_CHANNELS;
 102              		.loc 1 287 0
 103 001a 1023     		movs	r3, #16
 104 001c 0093     		str	r3, [sp]
 105              	.LVL1:
 106              	.L2:
 288:../../../../../../Middlewares/Third_Party/LoRaWAN/Mac/region/RegionCN779.c ****             break;
 289:../../../../../../Middlewares/Third_Party/LoRaWAN/Mac/region/RegionCN779.c ****         }
 290:../../../../../../Middlewares/Third_Party/LoRaWAN/Mac/region/RegionCN779.c ****         case PHY_CHANNELS:
 291:../../../../../../Middlewares/Third_Party/LoRaWAN/Mac/region/RegionCN779.c ****         {
 292:../../../../../../Middlewares/Third_Party/LoRaWAN/Mac/region/RegionCN779.c ****             phyParam.Channels = NvmCtx.Channels;
ARM GAS  C:\Users\EBANO_~1\AppData\Local\Temp\ccKJ5gfE.s 			page 8


 293:../../../../../../Middlewares/Third_Party/LoRaWAN/Mac/region/RegionCN779.c ****             break;
 294:../../../../../../Middlewares/Third_Party/LoRaWAN/Mac/region/RegionCN779.c ****         }
 295:../../../../../../Middlewares/Third_Party/LoRaWAN/Mac/region/RegionCN779.c ****         case PHY_DEF_UPLINK_DWELL_TIME:
 296:../../../../../../Middlewares/Third_Party/LoRaWAN/Mac/region/RegionCN779.c ****         case PHY_DEF_DOWNLINK_DWELL_TIME:
 297:../../../../../../Middlewares/Third_Party/LoRaWAN/Mac/region/RegionCN779.c ****         {
 298:../../../../../../Middlewares/Third_Party/LoRaWAN/Mac/region/RegionCN779.c ****             phyParam.Value = 0;
 299:../../../../../../Middlewares/Third_Party/LoRaWAN/Mac/region/RegionCN779.c ****             break;
 300:../../../../../../Middlewares/Third_Party/LoRaWAN/Mac/region/RegionCN779.c ****         }
 301:../../../../../../Middlewares/Third_Party/LoRaWAN/Mac/region/RegionCN779.c ****         case PHY_DEF_MAX_EIRP:
 302:../../../../../../Middlewares/Third_Party/LoRaWAN/Mac/region/RegionCN779.c ****         {
 303:../../../../../../Middlewares/Third_Party/LoRaWAN/Mac/region/RegionCN779.c ****             phyParam.fValue = CN779_DEFAULT_MAX_EIRP;
 304:../../../../../../Middlewares/Third_Party/LoRaWAN/Mac/region/RegionCN779.c ****             break;
 305:../../../../../../Middlewares/Third_Party/LoRaWAN/Mac/region/RegionCN779.c ****         }
 306:../../../../../../Middlewares/Third_Party/LoRaWAN/Mac/region/RegionCN779.c ****         case PHY_DEF_ANTENNA_GAIN:
 307:../../../../../../Middlewares/Third_Party/LoRaWAN/Mac/region/RegionCN779.c ****         {
 308:../../../../../../Middlewares/Third_Party/LoRaWAN/Mac/region/RegionCN779.c ****             phyParam.fValue = CN779_DEFAULT_ANTENNA_GAIN;
 309:../../../../../../Middlewares/Third_Party/LoRaWAN/Mac/region/RegionCN779.c ****             break;
 310:../../../../../../Middlewares/Third_Party/LoRaWAN/Mac/region/RegionCN779.c ****         }
 311:../../../../../../Middlewares/Third_Party/LoRaWAN/Mac/region/RegionCN779.c ****         case PHY_BEACON_CHANNEL_FREQ:
 312:../../../../../../Middlewares/Third_Party/LoRaWAN/Mac/region/RegionCN779.c ****         {
 313:../../../../../../Middlewares/Third_Party/LoRaWAN/Mac/region/RegionCN779.c ****             phyParam.Value = CN779_BEACON_CHANNEL_FREQ;
 314:../../../../../../Middlewares/Third_Party/LoRaWAN/Mac/region/RegionCN779.c ****             break;
 315:../../../../../../Middlewares/Third_Party/LoRaWAN/Mac/region/RegionCN779.c ****         }
 316:../../../../../../Middlewares/Third_Party/LoRaWAN/Mac/region/RegionCN779.c ****         case PHY_BEACON_FORMAT:
 317:../../../../../../Middlewares/Third_Party/LoRaWAN/Mac/region/RegionCN779.c ****         {
 318:../../../../../../Middlewares/Third_Party/LoRaWAN/Mac/region/RegionCN779.c ****             phyParam.BeaconFormat.BeaconSize = CN779_BEACON_SIZE;
 319:../../../../../../Middlewares/Third_Party/LoRaWAN/Mac/region/RegionCN779.c ****             phyParam.BeaconFormat.Rfu1Size = CN779_RFU1_SIZE;
 320:../../../../../../Middlewares/Third_Party/LoRaWAN/Mac/region/RegionCN779.c ****             phyParam.BeaconFormat.Rfu2Size = CN779_RFU2_SIZE;
 321:../../../../../../Middlewares/Third_Party/LoRaWAN/Mac/region/RegionCN779.c ****             break;
 322:../../../../../../Middlewares/Third_Party/LoRaWAN/Mac/region/RegionCN779.c ****         }
 323:../../../../../../Middlewares/Third_Party/LoRaWAN/Mac/region/RegionCN779.c ****         case PHY_BEACON_CHANNEL_DR:
 324:../../../../../../Middlewares/Third_Party/LoRaWAN/Mac/region/RegionCN779.c ****         {
 325:../../../../../../Middlewares/Third_Party/LoRaWAN/Mac/region/RegionCN779.c ****             phyParam.Value = CN779_BEACON_CHANNEL_DR;
 326:../../../../../../Middlewares/Third_Party/LoRaWAN/Mac/region/RegionCN779.c ****             break;
 327:../../../../../../Middlewares/Third_Party/LoRaWAN/Mac/region/RegionCN779.c ****         }
 328:../../../../../../Middlewares/Third_Party/LoRaWAN/Mac/region/RegionCN779.c ****         case PHY_PING_SLOT_CHANNEL_DR:
 329:../../../../../../Middlewares/Third_Party/LoRaWAN/Mac/region/RegionCN779.c ****         {
 330:../../../../../../Middlewares/Third_Party/LoRaWAN/Mac/region/RegionCN779.c ****             phyParam.Value = CN779_PING_SLOT_CHANNEL_DR;
 331:../../../../../../Middlewares/Third_Party/LoRaWAN/Mac/region/RegionCN779.c ****             break;
 332:../../../../../../Middlewares/Third_Party/LoRaWAN/Mac/region/RegionCN779.c ****         }
 333:../../../../../../Middlewares/Third_Party/LoRaWAN/Mac/region/RegionCN779.c ****         default:
 334:../../../../../../Middlewares/Third_Party/LoRaWAN/Mac/region/RegionCN779.c ****         {
 335:../../../../../../Middlewares/Third_Party/LoRaWAN/Mac/region/RegionCN779.c ****             break;
 336:../../../../../../Middlewares/Third_Party/LoRaWAN/Mac/region/RegionCN779.c ****         }
 337:../../../../../../Middlewares/Third_Party/LoRaWAN/Mac/region/RegionCN779.c ****     }
 338:../../../../../../Middlewares/Third_Party/LoRaWAN/Mac/region/RegionCN779.c **** 
 339:../../../../../../Middlewares/Third_Party/LoRaWAN/Mac/region/RegionCN779.c ****     return phyParam;
 340:../../../../../../Middlewares/Third_Party/LoRaWAN/Mac/region/RegionCN779.c **** }
 107              		.loc 1 340 0
 108 001e 0098     		ldr	r0, [sp]
 109 0020 03B0     		add	sp, sp, #12
 110              		@ sp needed
 111 0022 00BD     		pop	{pc}
 112              	.LVL2:
 113              	.L26:
 325:../../../../../../Middlewares/Third_Party/LoRaWAN/Mac/region/RegionCN779.c ****             break;
 114              		.loc 1 325 0
ARM GAS  C:\Users\EBANO_~1\AppData\Local\Temp\ccKJ5gfE.s 			page 9


 115 0024 0323     		movs	r3, #3
 116 0026 0093     		str	r3, [sp]
 326:../../../../../../Middlewares/Third_Party/LoRaWAN/Mac/region/RegionCN779.c ****         }
 117              		.loc 1 326 0
 118 0028 F9E7     		b	.L2
 119              	.L25:
 318:../../../../../../Middlewares/Third_Party/LoRaWAN/Mac/region/RegionCN779.c ****             phyParam.BeaconFormat.Rfu1Size = CN779_RFU1_SIZE;
 120              		.loc 1 318 0
 121 002a 6A46     		mov	r2, sp
 122 002c 2C4B     		ldr	r3, .L31+4
 123 002e 1380     		strh	r3, [r2]
 321:../../../../../../Middlewares/Third_Party/LoRaWAN/Mac/region/RegionCN779.c ****         }
 124              		.loc 1 321 0
 125 0030 F5E7     		b	.L2
 126              	.L20:
 292:../../../../../../Middlewares/Third_Party/LoRaWAN/Mac/region/RegionCN779.c ****             break;
 127              		.loc 1 292 0
 128 0032 2C4B     		ldr	r3, .L31+8
 129 0034 0093     		str	r3, [sp]
 293:../../../../../../Middlewares/Third_Party/LoRaWAN/Mac/region/RegionCN779.c ****         }
 130              		.loc 1 293 0
 131 0036 F2E7     		b	.L2
 132              	.L18:
 282:../../../../../../Middlewares/Third_Party/LoRaWAN/Mac/region/RegionCN779.c ****             break;
 133              		.loc 1 282 0
 134 0038 2B4B     		ldr	r3, .L31+12
 135 003a 0093     		str	r3, [sp]
 283:../../../../../../Middlewares/Third_Party/LoRaWAN/Mac/region/RegionCN779.c ****         }
 136              		.loc 1 283 0
 137 003c EFE7     		b	.L2
 138              	.L17:
 277:../../../../../../Middlewares/Third_Party/LoRaWAN/Mac/region/RegionCN779.c ****             break;
 139              		.loc 1 277 0
 140 003e 2B4B     		ldr	r3, .L31+16
 141 0040 0093     		str	r3, [sp]
 278:../../../../../../Middlewares/Third_Party/LoRaWAN/Mac/region/RegionCN779.c ****         }
 142              		.loc 1 278 0
 143 0042 ECE7     		b	.L2
 144              	.L21:
 303:../../../../../../Middlewares/Third_Party/LoRaWAN/Mac/region/RegionCN779.c ****             break;
 145              		.loc 1 303 0
 146 0044 2A4B     		ldr	r3, .L31+20
 147 0046 0093     		str	r3, [sp]
 304:../../../../../../Middlewares/Third_Party/LoRaWAN/Mac/region/RegionCN779.c ****         }
 148              		.loc 1 304 0
 149 0048 E9E7     		b	.L2
 150              	.L16:
 267:../../../../../../Middlewares/Third_Party/LoRaWAN/Mac/region/RegionCN779.c ****             break;
 151              		.loc 1 267 0
 152 004a 2A4B     		ldr	r3, .L31+24
 153 004c 0093     		str	r3, [sp]
 268:../../../../../../Middlewares/Third_Party/LoRaWAN/Mac/region/RegionCN779.c ****         }
 154              		.loc 1 268 0
 155 004e E6E7     		b	.L2
 156              	.L22:
 308:../../../../../../Middlewares/Third_Party/LoRaWAN/Mac/region/RegionCN779.c ****             break;
 157              		.loc 1 308 0
ARM GAS  C:\Users\EBANO_~1\AppData\Local\Temp\ccKJ5gfE.s 			page 10


 158 0050 294B     		ldr	r3, .L31+28
 159 0052 0093     		str	r3, [sp]
 309:../../../../../../Middlewares/Third_Party/LoRaWAN/Mac/region/RegionCN779.c ****         }
 160              		.loc 1 309 0
 161 0054 E3E7     		b	.L2
 162              	.L15:
 257:../../../../../../Middlewares/Third_Party/LoRaWAN/Mac/region/RegionCN779.c ****             break;
 163              		.loc 1 257 0
 164 0056 FA21     		movs	r1, #250
 165 0058 2848     		ldr	r0, .L31+32
 166              	.LVL3:
 167 005a 8900     		lsls	r1, r1, #2
 168 005c FFF7FEFF 		bl	randr
 169              	.LVL4:
 170 0060 FA23     		movs	r3, #250
 171 0062 DB00     		lsls	r3, r3, #3
 172 0064 9C46     		mov	ip, r3
 173 0066 6044     		add	r0, r0, ip
 174 0068 0090     		str	r0, [sp]
 258:../../../../../../Middlewares/Third_Party/LoRaWAN/Mac/region/RegionCN779.c ****         }
 175              		.loc 1 258 0
 176 006a D8E7     		b	.L2
 177              	.LVL5:
 178              	.L14:
 252:../../../../../../Middlewares/Third_Party/LoRaWAN/Mac/region/RegionCN779.c ****             break;
 179              		.loc 1 252 0
 180 006c 8023     		movs	r3, #128
 181 006e DB01     		lsls	r3, r3, #7
 182 0070 0093     		str	r3, [sp]
 253:../../../../../../Middlewares/Third_Party/LoRaWAN/Mac/region/RegionCN779.c ****         }
 183              		.loc 1 253 0
 184 0072 D4E7     		b	.L2
 185              	.L13:
 247:../../../../../../Middlewares/Third_Party/LoRaWAN/Mac/region/RegionCN779.c ****             break;
 186              		.loc 1 247 0
 187 0074 224B     		ldr	r3, .L31+36
 188 0076 0093     		str	r3, [sp]
 248:../../../../../../Middlewares/Third_Party/LoRaWAN/Mac/region/RegionCN779.c ****         }
 189              		.loc 1 248 0
 190 0078 D1E7     		b	.L2
 191              	.L12:
 242:../../../../../../Middlewares/Third_Party/LoRaWAN/Mac/region/RegionCN779.c ****             break;
 192              		.loc 1 242 0
 193 007a 224B     		ldr	r3, .L31+40
 194 007c 0093     		str	r3, [sp]
 243:../../../../../../Middlewares/Third_Party/LoRaWAN/Mac/region/RegionCN779.c ****         }
 195              		.loc 1 243 0
 196 007e CEE7     		b	.L2
 197              	.L11:
 237:../../../../../../Middlewares/Third_Party/LoRaWAN/Mac/region/RegionCN779.c ****             break;
 198              		.loc 1 237 0
 199 0080 FA23     		movs	r3, #250
 200 0082 DB00     		lsls	r3, r3, #3
 201 0084 0093     		str	r3, [sp]
 238:../../../../../../Middlewares/Third_Party/LoRaWAN/Mac/region/RegionCN779.c ****         }
 202              		.loc 1 238 0
 203 0086 CAE7     		b	.L2
ARM GAS  C:\Users\EBANO_~1\AppData\Local\Temp\ccKJ5gfE.s 			page 11


 204              	.L10:
 232:../../../../../../Middlewares/Third_Party/LoRaWAN/Mac/region/RegionCN779.c ****             break;
 205              		.loc 1 232 0
 206 0088 FA23     		movs	r3, #250
 207 008a 9B00     		lsls	r3, r3, #2
 208 008c 0093     		str	r3, [sp]
 233:../../../../../../Middlewares/Third_Party/LoRaWAN/Mac/region/RegionCN779.c ****         }
 209              		.loc 1 233 0
 210 008e C6E7     		b	.L2
 211              	.L9:
 227:../../../../../../Middlewares/Third_Party/LoRaWAN/Mac/region/RegionCN779.c ****             break;
 212              		.loc 1 227 0
 213 0090 1D4B     		ldr	r3, .L31+44
 214 0092 0093     		str	r3, [sp]
 228:../../../../../../Middlewares/Third_Party/LoRaWAN/Mac/region/RegionCN779.c ****         }
 215              		.loc 1 228 0
 216 0094 C3E7     		b	.L2
 217              	.L8:
 222:../../../../../../Middlewares/Third_Party/LoRaWAN/Mac/region/RegionCN779.c ****             break;
 218              		.loc 1 222 0
 219 0096 0123     		movs	r3, #1
 220 0098 0093     		str	r3, [sp]
 223:../../../../../../Middlewares/Third_Party/LoRaWAN/Mac/region/RegionCN779.c ****         }
 221              		.loc 1 223 0
 222 009a C0E7     		b	.L2
 223              	.L7:
 217:../../../../../../Middlewares/Third_Party/LoRaWAN/Mac/region/RegionCN779.c ****             break;
 224              		.loc 1 217 0
 225 009c 0122     		movs	r2, #1
 226 009e 1B4B     		ldr	r3, .L31+48
 227 00a0 8256     		ldrsb	r2, [r0, r2]
 228 00a2 9B18     		adds	r3, r3, r2
 229 00a4 1B7A     		ldrb	r3, [r3, #8]
 230 00a6 0093     		str	r3, [sp]
 218:../../../../../../Middlewares/Third_Party/LoRaWAN/Mac/region/RegionCN779.c ****         }
 231              		.loc 1 218 0
 232 00a8 B9E7     		b	.L2
 233              	.L6:
 212:../../../../../../Middlewares/Third_Party/LoRaWAN/Mac/region/RegionCN779.c ****             break;
 234              		.loc 1 212 0
 235 00aa 0123     		movs	r3, #1
 236 00ac 174A     		ldr	r2, .L31+48
 237 00ae C356     		ldrsb	r3, [r0, r3]
 238 00b0 D35C     		ldrb	r3, [r2, r3]
 239 00b2 0093     		str	r3, [sp]
 213:../../../../../../Middlewares/Third_Party/LoRaWAN/Mac/region/RegionCN779.c ****         }
 240              		.loc 1 213 0
 241 00b4 B3E7     		b	.L2
 242              	.L5:
 207:../../../../../../Middlewares/Third_Party/LoRaWAN/Mac/region/RegionCN779.c ****             break;
 243              		.loc 1 207 0
 244 00b6 2023     		movs	r3, #32
 245 00b8 0093     		str	r3, [sp]
 208:../../../../../../Middlewares/Third_Party/LoRaWAN/Mac/region/RegionCN779.c ****         }
 246              		.loc 1 208 0
 247 00ba B0E7     		b	.L2
 248              	.L3:
ARM GAS  C:\Users\EBANO_~1\AppData\Local\Temp\ccKJ5gfE.s 			page 12


 202:../../../../../../Middlewares/Third_Party/LoRaWAN/Mac/region/RegionCN779.c ****             break;
 249              		.loc 1 202 0
 250 00bc 4023     		movs	r3, #64
 251 00be 0093     		str	r3, [sp]
 203:../../../../../../Middlewares/Third_Party/LoRaWAN/Mac/region/RegionCN779.c ****         }
 252              		.loc 1 203 0
 253 00c0 ADE7     		b	.L2
 254              	.L23:
 187:../../../../../../Middlewares/Third_Party/LoRaWAN/Mac/region/RegionCN779.c ****             break;
 255              		.loc 1 187 0
 256 00c2 0123     		movs	r3, #1
 257 00c4 C356     		ldrsb	r3, [r0, r3]
 258              	.LVL6:
 259              	.LBB22:
 260              	.LBB23:
  73:../../../../../../Middlewares/Third_Party/LoRaWAN/Mac/region/RegionCN779.c ****     {
 261              		.loc 1 73 0
 262 00c6 0022     		movs	r2, #0
 263 00c8 002B     		cmp	r3, #0
 264 00ca 01D0     		beq	.L27
 265              	.LVL7:
  79:../../../../../../Middlewares/Third_Party/LoRaWAN/Mac/region/RegionCN779.c ****     }
 266              		.loc 1 79 0
 267 00cc 013B     		subs	r3, r3, #1
 268              	.LVL8:
 269 00ce 5AB2     		sxtb	r2, r3
 270              	.LVL9:
 271              	.L27:
 272              	.LBE23:
 273              	.LBE22:
 187:../../../../../../Middlewares/Third_Party/LoRaWAN/Mac/region/RegionCN779.c ****             break;
 274              		.loc 1 187 0
 275 00d0 0092     		str	r2, [sp]
 188:../../../../../../Middlewares/Third_Party/LoRaWAN/Mac/region/RegionCN779.c ****         }
 276              		.loc 1 188 0
 277 00d2 A4E7     		b	.L2
 278              	.L24:
 313:../../../../../../Middlewares/Third_Party/LoRaWAN/Mac/region/RegionCN779.c ****             break;
 279              		.loc 1 313 0
 280 00d4 0E4B     		ldr	r3, .L31+52
 281 00d6 0093     		str	r3, [sp]
 314:../../../../../../Middlewares/Third_Party/LoRaWAN/Mac/region/RegionCN779.c ****         }
 282              		.loc 1 314 0
 283 00d8 A1E7     		b	.L2
 284              	.L32:
 285 00da C046     		.align	2
 286              	.L31:
 287 00dc 00000000 		.word	.L4
 288 00e0 11020000 		.word	529
 289 00e4 00000000 		.word	NvmCtx
 290 00e8 D2000000 		.word	NvmCtx+210
 291 00ec D0000000 		.word	NvmCtx+208
 292 00f0 66664241 		.word	1094870630
 293 00f4 8068D92E 		.word	786000000
 294 00f8 9A990940 		.word	1074370970
 295 00fc 18FCFFFF 		.word	-1000
 296 0100 70170000 		.word	6000
ARM GAS  C:\Users\EBANO_~1\AppData\Local\Temp\ccKJ5gfE.s 			page 13


 297 0104 88130000 		.word	5000
 298 0108 B80B0000 		.word	3000
 299 010c 00010000 		.word	.LANCHOR0
 300 0110 4026CA2E 		.word	785000000
 301              		.cfi_endproc
 302              	.LFE44:
 303              		.size	RegionCN779GetPhyParam, .-RegionCN779GetPhyParam
 304              		.section	.text.RegionCN779SetBandTxDone,"ax",%progbits
 305              		.align	1
 306              		.p2align 2,,3
 307              		.global	RegionCN779SetBandTxDone
 308              		.syntax unified
 309              		.code	16
 310              		.thumb_func
 311              		.fpu softvfp
 312              		.type	RegionCN779SetBandTxDone, %function
 313              	RegionCN779SetBandTxDone:
 314              	.LFB45:
 341:../../../../../../Middlewares/Third_Party/LoRaWAN/Mac/region/RegionCN779.c **** 
 342:../../../../../../Middlewares/Third_Party/LoRaWAN/Mac/region/RegionCN779.c **** void RegionCN779SetBandTxDone( SetBandTxDoneParams_t* txDone )
 343:../../../../../../Middlewares/Third_Party/LoRaWAN/Mac/region/RegionCN779.c **** {
 315              		.loc 1 343 0
 316              		.cfi_startproc
 317              		@ args = 0, pretend = 0, frame = 0
 318              		@ frame_needed = 0, uses_anonymous_args = 0
 319              	.LVL10:
 344:../../../../../../Middlewares/Third_Party/LoRaWAN/Mac/region/RegionCN779.c ****     RegionCommonSetBandTxDone( txDone->Joined, &NvmCtx.Bands[NvmCtx.Channels[txDone->Channel].Band]
 320              		.loc 1 344 0
 321 0000 0178     		ldrb	r1, [r0]
 343:../../../../../../Middlewares/Third_Party/LoRaWAN/Mac/region/RegionCN779.c ****     RegionCommonSetBandTxDone( txDone->Joined, &NvmCtx.Bands[NvmCtx.Channels[txDone->Channel].Band]
 322              		.loc 1 343 0
 323 0002 10B5     		push	{r4, lr}
 324              	.LCFI2:
 325              		.cfi_def_cfa_offset 8
 326              		.cfi_offset 4, -8
 327              		.cfi_offset 14, -4
 328              		.loc 1 344 0
 329 0004 4B00     		lsls	r3, r1, #1
 330 0006 064C     		ldr	r4, .L34
 331 0008 5B18     		adds	r3, r3, r1
 332 000a 9B00     		lsls	r3, r3, #2
 333 000c E318     		adds	r3, r4, r3
 334 000e 597A     		ldrb	r1, [r3, #9]
 335 0010 4268     		ldr	r2, [r0, #4]
 336 0012 0C31     		adds	r1, r1, #12
 337 0014 0901     		lsls	r1, r1, #4
 338 0016 0919     		adds	r1, r1, r4
 339 0018 4078     		ldrb	r0, [r0, #1]
 340              	.LVL11:
 341 001a FFF7FEFF 		bl	RegionCommonSetBandTxDone
 342              	.LVL12:
 345:../../../../../../Middlewares/Third_Party/LoRaWAN/Mac/region/RegionCN779.c **** }
 343              		.loc 1 345 0
 344              		@ sp needed
 345 001e 10BD     		pop	{r4, pc}
 346              	.L35:
 347              		.align	2
ARM GAS  C:\Users\EBANO_~1\AppData\Local\Temp\ccKJ5gfE.s 			page 14


 348              	.L34:
 349 0020 00000000 		.word	NvmCtx
 350              		.cfi_endproc
 351              	.LFE45:
 352              		.size	RegionCN779SetBandTxDone, .-RegionCN779SetBandTxDone
 353              		.section	.text.RegionCN779InitDefaults,"ax",%progbits
 354              		.align	1
 355              		.p2align 2,,3
 356              		.global	RegionCN779InitDefaults
 357              		.syntax unified
 358              		.code	16
 359              		.thumb_func
 360              		.fpu softvfp
 361              		.type	RegionCN779InitDefaults, %function
 362              	RegionCN779InitDefaults:
 363              	.LFB46:
 346:../../../../../../Middlewares/Third_Party/LoRaWAN/Mac/region/RegionCN779.c **** 
 347:../../../../../../Middlewares/Third_Party/LoRaWAN/Mac/region/RegionCN779.c **** void RegionCN779InitDefaults( InitDefaultsParams_t* params )
 348:../../../../../../Middlewares/Third_Party/LoRaWAN/Mac/region/RegionCN779.c **** {
 364              		.loc 1 348 0
 365              		.cfi_startproc
 366              		@ args = 0, pretend = 0, frame = 16
 367              		@ frame_needed = 0, uses_anonymous_args = 0
 368              	.LVL13:
 369 0000 F0B5     		push	{r4, r5, r6, r7, lr}
 370              	.LCFI3:
 371              		.cfi_def_cfa_offset 20
 372              		.cfi_offset 4, -20
 373              		.cfi_offset 5, -16
 374              		.cfi_offset 6, -12
 375              		.cfi_offset 7, -8
 376              		.cfi_offset 14, -4
 377 0002 85B0     		sub	sp, sp, #20
 378              	.LCFI4:
 379              		.cfi_def_cfa_offset 40
 349:../../../../../../Middlewares/Third_Party/LoRaWAN/Mac/region/RegionCN779.c ****     Band_t bands[CN779_MAX_NB_BANDS] =
 380              		.loc 1 349 0
 381 0004 6423     		movs	r3, #100
 382 0006 6A46     		mov	r2, sp
 383 0008 1380     		strh	r3, [r2]
 384 000a 0023     		movs	r3, #0
 385 000c 9370     		strb	r3, [r2, #2]
 386 000e 0193     		str	r3, [sp, #4]
 387 0010 0293     		str	r3, [sp, #8]
 388 0012 0393     		str	r3, [sp, #12]
 350:../../../../../../Middlewares/Third_Party/LoRaWAN/Mac/region/RegionCN779.c ****     {
 351:../../../../../../Middlewares/Third_Party/LoRaWAN/Mac/region/RegionCN779.c ****         CN779_BAND0
 352:../../../../../../Middlewares/Third_Party/LoRaWAN/Mac/region/RegionCN779.c ****     };
 353:../../../../../../Middlewares/Third_Party/LoRaWAN/Mac/region/RegionCN779.c **** 
 354:../../../../../../Middlewares/Third_Party/LoRaWAN/Mac/region/RegionCN779.c ****     switch( params->Type )
 389              		.loc 1 354 0
 390 0014 0379     		ldrb	r3, [r0, #4]
 391 0016 012B     		cmp	r3, #1
 392 0018 2ED0     		beq	.L38
 393 001a 002B     		cmp	r3, #0
 394 001c 0AD0     		beq	.L39
 395 001e 022B     		cmp	r3, #2
ARM GAS  C:\Users\EBANO_~1\AppData\Local\Temp\ccKJ5gfE.s 			page 15


 396 0020 06D1     		bne	.L36
 355:../../../../../../Middlewares/Third_Party/LoRaWAN/Mac/region/RegionCN779.c ****     {
 356:../../../../../../Middlewares/Third_Party/LoRaWAN/Mac/region/RegionCN779.c ****         case INIT_TYPE_INIT:
 357:../../../../../../Middlewares/Third_Party/LoRaWAN/Mac/region/RegionCN779.c ****         {
 358:../../../../../../Middlewares/Third_Party/LoRaWAN/Mac/region/RegionCN779.c ****             // Initialize bands
 359:../../../../../../Middlewares/Third_Party/LoRaWAN/Mac/region/RegionCN779.c ****             memcpy1( ( uint8_t* )NvmCtx.Bands, ( uint8_t* )bands, sizeof( Band_t ) * CN779_MAX_NB_B
 360:../../../../../../Middlewares/Third_Party/LoRaWAN/Mac/region/RegionCN779.c **** 
 361:../../../../../../Middlewares/Third_Party/LoRaWAN/Mac/region/RegionCN779.c ****             // Channels
 362:../../../../../../Middlewares/Third_Party/LoRaWAN/Mac/region/RegionCN779.c ****             NvmCtx.Channels[0] = ( ChannelParams_t ) CN779_LC1;
 363:../../../../../../Middlewares/Third_Party/LoRaWAN/Mac/region/RegionCN779.c ****             NvmCtx.Channels[1] = ( ChannelParams_t ) CN779_LC2;
 364:../../../../../../Middlewares/Third_Party/LoRaWAN/Mac/region/RegionCN779.c ****             NvmCtx.Channels[2] = ( ChannelParams_t ) CN779_LC3;
 365:../../../../../../Middlewares/Third_Party/LoRaWAN/Mac/region/RegionCN779.c **** 
 366:../../../../../../Middlewares/Third_Party/LoRaWAN/Mac/region/RegionCN779.c ****             // Initialize the channels default mask
 367:../../../../../../Middlewares/Third_Party/LoRaWAN/Mac/region/RegionCN779.c ****             NvmCtx.ChannelsDefaultMask[0] = LC( 1 ) + LC( 2 ) + LC( 3 );
 368:../../../../../../Middlewares/Third_Party/LoRaWAN/Mac/region/RegionCN779.c ****             // Update the channels mask
 369:../../../../../../Middlewares/Third_Party/LoRaWAN/Mac/region/RegionCN779.c ****             RegionCommonChanMaskCopy( NvmCtx.ChannelsMask, NvmCtx.ChannelsDefaultMask, 1 );
 370:../../../../../../Middlewares/Third_Party/LoRaWAN/Mac/region/RegionCN779.c ****             break;
 371:../../../../../../Middlewares/Third_Party/LoRaWAN/Mac/region/RegionCN779.c ****         }
 372:../../../../../../Middlewares/Third_Party/LoRaWAN/Mac/region/RegionCN779.c ****         case INIT_TYPE_RESTORE_CTX:
 373:../../../../../../Middlewares/Third_Party/LoRaWAN/Mac/region/RegionCN779.c ****         {
 374:../../../../../../Middlewares/Third_Party/LoRaWAN/Mac/region/RegionCN779.c ****             if( params->NvmCtx != 0 )
 397              		.loc 1 374 0
 398 0022 0168     		ldr	r1, [r0]
 399 0024 0029     		cmp	r1, #0
 400 0026 03D0     		beq	.L36
 375:../../../../../../Middlewares/Third_Party/LoRaWAN/Mac/region/RegionCN779.c ****             {
 376:../../../../../../Middlewares/Third_Party/LoRaWAN/Mac/region/RegionCN779.c ****                 memcpy1( (uint8_t*) &NvmCtx, (uint8_t*) params->NvmCtx, sizeof( NvmCtx ) );
 401              		.loc 1 376 0
 402 0028 D422     		movs	r2, #212
 403 002a 1748     		ldr	r0, .L44
 404              	.LVL14:
 405 002c FFF7FEFF 		bl	memcpy1
 406              	.LVL15:
 407              	.L36:
 377:../../../../../../Middlewares/Third_Party/LoRaWAN/Mac/region/RegionCN779.c ****             }
 378:../../../../../../Middlewares/Third_Party/LoRaWAN/Mac/region/RegionCN779.c ****             break;
 379:../../../../../../Middlewares/Third_Party/LoRaWAN/Mac/region/RegionCN779.c ****         }
 380:../../../../../../Middlewares/Third_Party/LoRaWAN/Mac/region/RegionCN779.c ****         case INIT_TYPE_RESTORE_DEFAULT_CHANNELS:
 381:../../../../../../Middlewares/Third_Party/LoRaWAN/Mac/region/RegionCN779.c ****         {
 382:../../../../../../Middlewares/Third_Party/LoRaWAN/Mac/region/RegionCN779.c ****             // Restore channels default mask
 383:../../../../../../Middlewares/Third_Party/LoRaWAN/Mac/region/RegionCN779.c ****             NvmCtx.ChannelsMask[0] |= NvmCtx.ChannelsDefaultMask[0];
 384:../../../../../../Middlewares/Third_Party/LoRaWAN/Mac/region/RegionCN779.c ****             break;
 385:../../../../../../Middlewares/Third_Party/LoRaWAN/Mac/region/RegionCN779.c ****         }
 386:../../../../../../Middlewares/Third_Party/LoRaWAN/Mac/region/RegionCN779.c ****         default:
 387:../../../../../../Middlewares/Third_Party/LoRaWAN/Mac/region/RegionCN779.c ****         {
 388:../../../../../../Middlewares/Third_Party/LoRaWAN/Mac/region/RegionCN779.c ****             break;
 389:../../../../../../Middlewares/Third_Party/LoRaWAN/Mac/region/RegionCN779.c ****         }
 390:../../../../../../Middlewares/Third_Party/LoRaWAN/Mac/region/RegionCN779.c ****     }
 391:../../../../../../Middlewares/Third_Party/LoRaWAN/Mac/region/RegionCN779.c **** }
 408              		.loc 1 391 0
 409 0030 05B0     		add	sp, sp, #20
 410              		@ sp needed
 411 0032 F0BD     		pop	{r4, r5, r6, r7, pc}
 412              	.LVL16:
 413              	.L39:
 359:../../../../../../Middlewares/Third_Party/LoRaWAN/Mac/region/RegionCN779.c **** 
 414              		.loc 1 359 0
ARM GAS  C:\Users\EBANO_~1\AppData\Local\Temp\ccKJ5gfE.s 			page 16


 415 0034 154C     		ldr	r4, .L44+4
 416 0036 6946     		mov	r1, sp
 417 0038 2000     		movs	r0, r4
 418              	.LVL17:
 419 003a 1022     		movs	r2, #16
 420 003c FFF7FEFF 		bl	memcpy1
 421              	.LVL18:
 362:../../../../../../Middlewares/Third_Party/LoRaWAN/Mac/region/RegionCN779.c ****             NvmCtx.Channels[1] = ( ChannelParams_t ) CN779_LC2;
 422              		.loc 1 362 0
 423 0040 2200     		movs	r2, r4
 424 0042 134B     		ldr	r3, .L44+8
 425 0044 C03A     		subs	r2, r2, #192
 426 0046 1900     		movs	r1, r3
 427 0048 1000     		movs	r0, r2
 428 004a 1031     		adds	r1, r1, #16
 429 004c E0C9     		ldmia	r1!, {r5, r6, r7}
 430 004e E0C0     		stmia	r0!, {r5, r6, r7}
 363:../../../../../../Middlewares/Third_Party/LoRaWAN/Mac/region/RegionCN779.c ****             NvmCtx.Channels[2] = ( ChannelParams_t ) CN779_LC3;
 431              		.loc 1 363 0
 432 0050 1900     		movs	r1, r3
 433 0052 1C31     		adds	r1, r1, #28
 434 0054 E0C9     		ldmia	r1!, {r5, r6, r7}
 435 0056 E0C0     		stmia	r0!, {r5, r6, r7}
 364:../../../../../../Middlewares/Third_Party/LoRaWAN/Mac/region/RegionCN779.c **** 
 436              		.loc 1 364 0
 437 0058 2100     		movs	r1, r4
 438 005a 2833     		adds	r3, r3, #40
 439 005c A839     		subs	r1, r1, #168
 440 005e 61CB     		ldmia	r3!, {r0, r5, r6}
 441 0060 61C1     		stmia	r1!, {r0, r5, r6}
 367:../../../../../../Middlewares/Third_Party/LoRaWAN/Mac/region/RegionCN779.c ****             // Update the channels mask
 442              		.loc 1 367 0
 443 0062 D223     		movs	r3, #210
 444 0064 0721     		movs	r1, #7
 369:../../../../../../Middlewares/Third_Party/LoRaWAN/Mac/region/RegionCN779.c ****             break;
 445              		.loc 1 369 0
 446 0066 2000     		movs	r0, r4
 367:../../../../../../Middlewares/Third_Party/LoRaWAN/Mac/region/RegionCN779.c ****             // Update the channels mask
 447              		.loc 1 367 0
 448 0068 D152     		strh	r1, [r2, r3]
 369:../../../../../../Middlewares/Third_Party/LoRaWAN/Mac/region/RegionCN779.c ****             break;
 449              		.loc 1 369 0
 450 006a 2100     		movs	r1, r4
 451 006c 1030     		adds	r0, r0, #16
 452 006e 1231     		adds	r1, r1, #18
 453 0070 0122     		movs	r2, #1
 454 0072 FFF7FEFF 		bl	RegionCommonChanMaskCopy
 455              	.LVL19:
 370:../../../../../../Middlewares/Third_Party/LoRaWAN/Mac/region/RegionCN779.c ****         }
 456              		.loc 1 370 0
 457 0076 DBE7     		b	.L36
 458              	.LVL20:
 459              	.L38:
 383:../../../../../../Middlewares/Third_Party/LoRaWAN/Mac/region/RegionCN779.c ****             break;
 460              		.loc 1 383 0
 461 0078 D021     		movs	r1, #208
 462 007a D220     		movs	r0, #210
ARM GAS  C:\Users\EBANO_~1\AppData\Local\Temp\ccKJ5gfE.s 			page 17


 463              	.LVL21:
 464 007c 024B     		ldr	r3, .L44
 465 007e 5A5A     		ldrh	r2, [r3, r1]
 466 0080 185A     		ldrh	r0, [r3, r0]
 467 0082 0243     		orrs	r2, r0
 468 0084 5A52     		strh	r2, [r3, r1]
 469              		.loc 1 391 0
 470 0086 D3E7     		b	.L36
 471              	.L45:
 472              		.align	2
 473              	.L44:
 474 0088 00000000 		.word	NvmCtx
 475 008c C0000000 		.word	NvmCtx+192
 476 0090 00010000 		.word	.LANCHOR0
 477              		.cfi_endproc
 478              	.LFE46:
 479              		.size	RegionCN779InitDefaults, .-RegionCN779InitDefaults
 480              		.section	.text.RegionCN779GetNvmCtx,"ax",%progbits
 481              		.align	1
 482              		.p2align 2,,3
 483              		.global	RegionCN779GetNvmCtx
 484              		.syntax unified
 485              		.code	16
 486              		.thumb_func
 487              		.fpu softvfp
 488              		.type	RegionCN779GetNvmCtx, %function
 489              	RegionCN779GetNvmCtx:
 490              	.LFB47:
 392:../../../../../../Middlewares/Third_Party/LoRaWAN/Mac/region/RegionCN779.c **** 
 393:../../../../../../Middlewares/Third_Party/LoRaWAN/Mac/region/RegionCN779.c **** void* RegionCN779GetNvmCtx( GetNvmCtxParams_t* params )
 394:../../../../../../Middlewares/Third_Party/LoRaWAN/Mac/region/RegionCN779.c **** {
 491              		.loc 1 394 0
 492              		.cfi_startproc
 493              		@ args = 0, pretend = 0, frame = 0
 494              		@ frame_needed = 0, uses_anonymous_args = 0
 495              		@ link register save eliminated.
 496              	.LVL22:
 395:../../../../../../Middlewares/Third_Party/LoRaWAN/Mac/region/RegionCN779.c ****     params->nvmCtxSize = sizeof( RegionCN779NvmCtx_t );
 497              		.loc 1 395 0
 498 0000 D423     		movs	r3, #212
 396:../../../../../../Middlewares/Third_Party/LoRaWAN/Mac/region/RegionCN779.c ****     return &NvmCtx;
 397:../../../../../../Middlewares/Third_Party/LoRaWAN/Mac/region/RegionCN779.c **** }
 499              		.loc 1 397 0
 500              		@ sp needed
 395:../../../../../../Middlewares/Third_Party/LoRaWAN/Mac/region/RegionCN779.c ****     params->nvmCtxSize = sizeof( RegionCN779NvmCtx_t );
 501              		.loc 1 395 0
 502 0002 0360     		str	r3, [r0]
 503              		.loc 1 397 0
 504 0004 0048     		ldr	r0, .L47
 505              	.LVL23:
 506 0006 7047     		bx	lr
 507              	.L48:
 508              		.align	2
 509              	.L47:
 510 0008 00000000 		.word	NvmCtx
 511              		.cfi_endproc
 512              	.LFE47:
ARM GAS  C:\Users\EBANO_~1\AppData\Local\Temp\ccKJ5gfE.s 			page 18


 513              		.size	RegionCN779GetNvmCtx, .-RegionCN779GetNvmCtx
 514              		.section	.text.RegionCN779Verify,"ax",%progbits
 515              		.align	1
 516              		.p2align 2,,3
 517              		.global	RegionCN779Verify
 518              		.syntax unified
 519              		.code	16
 520              		.thumb_func
 521              		.fpu softvfp
 522              		.type	RegionCN779Verify, %function
 523              	RegionCN779Verify:
 524              	.LFB48:
 398:../../../../../../Middlewares/Third_Party/LoRaWAN/Mac/region/RegionCN779.c **** 
 399:../../../../../../Middlewares/Third_Party/LoRaWAN/Mac/region/RegionCN779.c **** bool RegionCN779Verify( VerifyParams_t* verify, PhyAttribute_t phyAttribute )
 400:../../../../../../Middlewares/Third_Party/LoRaWAN/Mac/region/RegionCN779.c **** {
 525              		.loc 1 400 0
 526              		.cfi_startproc
 527              		@ args = 0, pretend = 0, frame = 0
 528              		@ frame_needed = 0, uses_anonymous_args = 0
 529              	.LVL24:
 401:../../../../../../Middlewares/Third_Party/LoRaWAN/Mac/region/RegionCN779.c ****     switch( phyAttribute )
 530              		.loc 1 401 0
 531 0000 0439     		subs	r1, r1, #4
 532              	.LVL25:
 533 0002 C9B2     		uxtb	r1, r1
 400:../../../../../../Middlewares/Third_Party/LoRaWAN/Mac/region/RegionCN779.c ****     switch( phyAttribute )
 534              		.loc 1 400 0
 535 0004 10B5     		push	{r4, lr}
 536              	.LCFI5:
 537              		.cfi_def_cfa_offset 8
 538              		.cfi_offset 4, -8
 539              		.cfi_offset 14, -4
 540              		.loc 1 401 0
 541 0006 0A29     		cmp	r1, #10
 542 0008 19D8     		bhi	.L50
 543 000a 0E4B     		ldr	r3, .L57
 544 000c 8900     		lsls	r1, r1, #2
 545 000e 5B58     		ldr	r3, [r3, r1]
 546 0010 9F46     		mov	pc, r3
 547              		.section	.rodata
 548              		.align	2
 549              	.L52:
 550 00ac 26000000 		.word	.L51
 551 00b0 12000000 		.word	.L54
 552 00b4 26000000 		.word	.L51
 553 00b8 3E000000 		.word	.L50
 554 00bc 12000000 		.word	.L54
 555 00c0 12000000 		.word	.L54
 556 00c4 3E000000 		.word	.L50
 557 00c8 3E000000 		.word	.L50
 558 00cc 3E000000 		.word	.L50
 559 00d0 3E000000 		.word	.L50
 560 00d4 3A000000 		.word	.L56
 561              		.section	.text.RegionCN779Verify
 562              	.L54:
 402:../../../../../../Middlewares/Third_Party/LoRaWAN/Mac/region/RegionCN779.c ****     {
 403:../../../../../../Middlewares/Third_Party/LoRaWAN/Mac/region/RegionCN779.c ****         case PHY_TX_DR:
ARM GAS  C:\Users\EBANO_~1\AppData\Local\Temp\ccKJ5gfE.s 			page 19


 404:../../../../../../Middlewares/Third_Party/LoRaWAN/Mac/region/RegionCN779.c ****         {
 405:../../../../../../Middlewares/Third_Party/LoRaWAN/Mac/region/RegionCN779.c ****             return RegionCommonValueInRange( verify->DatarateParams.Datarate, CN779_TX_MIN_DATARATE
 406:../../../../../../Middlewares/Third_Party/LoRaWAN/Mac/region/RegionCN779.c ****         }
 407:../../../../../../Middlewares/Third_Party/LoRaWAN/Mac/region/RegionCN779.c ****         case PHY_DEF_TX_DR:
 408:../../../../../../Middlewares/Third_Party/LoRaWAN/Mac/region/RegionCN779.c ****         {
 409:../../../../../../Middlewares/Third_Party/LoRaWAN/Mac/region/RegionCN779.c ****             return RegionCommonValueInRange( verify->DatarateParams.Datarate, DR_0, DR_5 );
 410:../../../../../../Middlewares/Third_Party/LoRaWAN/Mac/region/RegionCN779.c ****         }
 411:../../../../../../Middlewares/Third_Party/LoRaWAN/Mac/region/RegionCN779.c ****         case PHY_RX_DR:
 412:../../../../../../Middlewares/Third_Party/LoRaWAN/Mac/region/RegionCN779.c ****         {
 413:../../../../../../Middlewares/Third_Party/LoRaWAN/Mac/region/RegionCN779.c ****             return RegionCommonValueInRange( verify->DatarateParams.Datarate, CN779_RX_MIN_DATARATE
 414:../../../../../../Middlewares/Third_Party/LoRaWAN/Mac/region/RegionCN779.c ****         }
 415:../../../../../../Middlewares/Third_Party/LoRaWAN/Mac/region/RegionCN779.c ****         case PHY_DEF_TX_POWER:
 416:../../../../../../Middlewares/Third_Party/LoRaWAN/Mac/region/RegionCN779.c ****         case PHY_TX_POWER:
 417:../../../../../../Middlewares/Third_Party/LoRaWAN/Mac/region/RegionCN779.c ****         {
 418:../../../../../../Middlewares/Third_Party/LoRaWAN/Mac/region/RegionCN779.c ****             // Remark: switched min and max!
 419:../../../../../../Middlewares/Third_Party/LoRaWAN/Mac/region/RegionCN779.c ****             return RegionCommonValueInRange( verify->TxPower, CN779_MAX_TX_POWER, CN779_MIN_TX_POWE
 563              		.loc 1 419 0
 564 0012 0078     		ldrb	r0, [r0]
 565              	.LVL26:
 566 0014 0522     		movs	r2, #5
 567 0016 40B2     		sxtb	r0, r0
 568 0018 0021     		movs	r1, #0
 569 001a FFF7FEFF 		bl	RegionCommonValueInRange
 570              	.LVL27:
 571 001e 431E     		subs	r3, r0, #1
 572 0020 9841     		sbcs	r0, r0, r3
 573 0022 C0B2     		uxtb	r0, r0
 574              	.L55:
 420:../../../../../../Middlewares/Third_Party/LoRaWAN/Mac/region/RegionCN779.c ****         }
 421:../../../../../../Middlewares/Third_Party/LoRaWAN/Mac/region/RegionCN779.c ****         case PHY_DUTY_CYCLE:
 422:../../../../../../Middlewares/Third_Party/LoRaWAN/Mac/region/RegionCN779.c ****         {
 423:../../../../../../Middlewares/Third_Party/LoRaWAN/Mac/region/RegionCN779.c ****             return CN779_DUTY_CYCLE_ENABLED;
 424:../../../../../../Middlewares/Third_Party/LoRaWAN/Mac/region/RegionCN779.c ****         }
 425:../../../../../../Middlewares/Third_Party/LoRaWAN/Mac/region/RegionCN779.c ****         default:
 426:../../../../../../Middlewares/Third_Party/LoRaWAN/Mac/region/RegionCN779.c ****             return false;
 427:../../../../../../Middlewares/Third_Party/LoRaWAN/Mac/region/RegionCN779.c ****     }
 428:../../../../../../Middlewares/Third_Party/LoRaWAN/Mac/region/RegionCN779.c **** }
 575              		.loc 1 428 0
 576              		@ sp needed
 577 0024 10BD     		pop	{r4, pc}
 578              	.LVL28:
 579              	.L51:
 405:../../../../../../Middlewares/Third_Party/LoRaWAN/Mac/region/RegionCN779.c ****         }
 580              		.loc 1 405 0
 581 0026 0078     		ldrb	r0, [r0]
 582              	.LVL29:
 583 0028 0722     		movs	r2, #7
 584 002a 40B2     		sxtb	r0, r0
 585 002c 0021     		movs	r1, #0
 586 002e FFF7FEFF 		bl	RegionCommonValueInRange
 587              	.LVL30:
 588 0032 431E     		subs	r3, r0, #1
 589 0034 9841     		sbcs	r0, r0, r3
 590 0036 C0B2     		uxtb	r0, r0
 591 0038 F4E7     		b	.L55
 592              	.LVL31:
 593              	.L56:
ARM GAS  C:\Users\EBANO_~1\AppData\Local\Temp\ccKJ5gfE.s 			page 20


 423:../../../../../../Middlewares/Third_Party/LoRaWAN/Mac/region/RegionCN779.c ****         }
 594              		.loc 1 423 0
 595 003a 0120     		movs	r0, #1
 596              	.LVL32:
 597 003c F2E7     		b	.L55
 598              	.LVL33:
 599              	.L50:
 426:../../../../../../Middlewares/Third_Party/LoRaWAN/Mac/region/RegionCN779.c ****     }
 600              		.loc 1 426 0
 601 003e 0020     		movs	r0, #0
 602              	.LVL34:
 603 0040 F0E7     		b	.L55
 604              	.L58:
 605 0042 C046     		.align	2
 606              	.L57:
 607 0044 AC000000 		.word	.L52
 608              		.cfi_endproc
 609              	.LFE48:
 610              		.size	RegionCN779Verify, .-RegionCN779Verify
 611              		.section	.text.RegionCN779ApplyCFList,"ax",%progbits
 612              		.align	1
 613              		.p2align 2,,3
 614              		.global	RegionCN779ApplyCFList
 615              		.syntax unified
 616              		.code	16
 617              		.thumb_func
 618              		.fpu softvfp
 619              		.type	RegionCN779ApplyCFList, %function
 620              	RegionCN779ApplyCFList:
 621              	.LFB49:
 429:../../../../../../Middlewares/Third_Party/LoRaWAN/Mac/region/RegionCN779.c **** 
 430:../../../../../../Middlewares/Third_Party/LoRaWAN/Mac/region/RegionCN779.c **** void RegionCN779ApplyCFList( ApplyCFListParams_t* applyCFList )
 431:../../../../../../Middlewares/Third_Party/LoRaWAN/Mac/region/RegionCN779.c **** {
 622              		.loc 1 431 0
 623              		.cfi_startproc
 624              		@ args = 0, pretend = 0, frame = 24
 625              		@ frame_needed = 0, uses_anonymous_args = 0
 626              	.LVL35:
 627 0000 F0B5     		push	{r4, r5, r6, r7, lr}
 628              	.LCFI6:
 629              		.cfi_def_cfa_offset 20
 630              		.cfi_offset 4, -20
 631              		.cfi_offset 5, -16
 632              		.cfi_offset 6, -12
 633              		.cfi_offset 7, -8
 634              		.cfi_offset 14, -4
 635 0002 5746     		mov	r7, r10
 636 0004 DE46     		mov	lr, fp
 637 0006 4E46     		mov	r6, r9
 638 0008 4546     		mov	r5, r8
 432:../../../../../../Middlewares/Third_Party/LoRaWAN/Mac/region/RegionCN779.c ****     ChannelParams_t newChannel;
 433:../../../../../../Middlewares/Third_Party/LoRaWAN/Mac/region/RegionCN779.c ****     ChannelAddParams_t channelAdd;
 434:../../../../../../Middlewares/Third_Party/LoRaWAN/Mac/region/RegionCN779.c ****     ChannelRemoveParams_t channelRemove;
 435:../../../../../../Middlewares/Third_Party/LoRaWAN/Mac/region/RegionCN779.c **** 
 436:../../../../../../Middlewares/Third_Party/LoRaWAN/Mac/region/RegionCN779.c ****     // Setup default datarate range
 437:../../../../../../Middlewares/Third_Party/LoRaWAN/Mac/region/RegionCN779.c ****     newChannel.DrRange.Value = ( DR_5 << 4 ) | DR_0;
 639              		.loc 1 437 0
ARM GAS  C:\Users\EBANO_~1\AppData\Local\Temp\ccKJ5gfE.s 			page 21


 640 000a 5023     		movs	r3, #80
 431:../../../../../../Middlewares/Third_Party/LoRaWAN/Mac/region/RegionCN779.c ****     ChannelParams_t newChannel;
 641              		.loc 1 431 0
 642 000c E0B5     		push	{r5, r6, r7, lr}
 643              	.LCFI7:
 644              		.cfi_def_cfa_offset 36
 645              		.cfi_offset 8, -36
 646              		.cfi_offset 9, -32
 647              		.cfi_offset 10, -28
 648              		.cfi_offset 11, -24
 649 000e 87B0     		sub	sp, sp, #28
 650              	.LCFI8:
 651              		.cfi_def_cfa_offset 64
 652              		.loc 1 437 0
 653 0010 03AC     		add	r4, sp, #12
 654 0012 2372     		strb	r3, [r4, #8]
 438:../../../../../../Middlewares/Third_Party/LoRaWAN/Mac/region/RegionCN779.c **** 
 439:../../../../../../Middlewares/Third_Party/LoRaWAN/Mac/region/RegionCN779.c ****     // Size of the optional CF list
 440:../../../../../../Middlewares/Third_Party/LoRaWAN/Mac/region/RegionCN779.c ****     if( applyCFList->Size != 16 )
 655              		.loc 1 440 0
 656 0014 0379     		ldrb	r3, [r0, #4]
 431:../../../../../../Middlewares/Third_Party/LoRaWAN/Mac/region/RegionCN779.c ****     ChannelParams_t newChannel;
 657              		.loc 1 431 0
 658 0016 0700     		movs	r7, r0
 659              		.loc 1 440 0
 660 0018 102B     		cmp	r3, #16
 661 001a 06D0     		beq	.L76
 662              	.LVL36:
 663              	.L59:
 441:../../../../../../Middlewares/Third_Party/LoRaWAN/Mac/region/RegionCN779.c ****     {
 442:../../../../../../Middlewares/Third_Party/LoRaWAN/Mac/region/RegionCN779.c ****         return;
 443:../../../../../../Middlewares/Third_Party/LoRaWAN/Mac/region/RegionCN779.c ****     }
 444:../../../../../../Middlewares/Third_Party/LoRaWAN/Mac/region/RegionCN779.c **** 
 445:../../../../../../Middlewares/Third_Party/LoRaWAN/Mac/region/RegionCN779.c ****     // Last byte CFListType must be 0 to indicate the CFList contains a list of frequencies
 446:../../../../../../Middlewares/Third_Party/LoRaWAN/Mac/region/RegionCN779.c ****     if( applyCFList->Payload[15] != 0 )
 447:../../../../../../Middlewares/Third_Party/LoRaWAN/Mac/region/RegionCN779.c ****     {
 448:../../../../../../Middlewares/Third_Party/LoRaWAN/Mac/region/RegionCN779.c ****         return;
 449:../../../../../../Middlewares/Third_Party/LoRaWAN/Mac/region/RegionCN779.c ****     }
 450:../../../../../../Middlewares/Third_Party/LoRaWAN/Mac/region/RegionCN779.c **** 
 451:../../../../../../Middlewares/Third_Party/LoRaWAN/Mac/region/RegionCN779.c ****     // Last byte is RFU, don't take it into account
 452:../../../../../../Middlewares/Third_Party/LoRaWAN/Mac/region/RegionCN779.c ****     for( uint8_t i = 0, chanIdx = CN779_NUMB_DEFAULT_CHANNELS; chanIdx < CN779_MAX_NB_CHANNELS; i+=
 453:../../../../../../Middlewares/Third_Party/LoRaWAN/Mac/region/RegionCN779.c ****     {
 454:../../../../../../Middlewares/Third_Party/LoRaWAN/Mac/region/RegionCN779.c ****         if( chanIdx < ( CN779_NUMB_CHANNELS_CF_LIST + CN779_NUMB_DEFAULT_CHANNELS ) )
 455:../../../../../../Middlewares/Third_Party/LoRaWAN/Mac/region/RegionCN779.c ****         {
 456:../../../../../../Middlewares/Third_Party/LoRaWAN/Mac/region/RegionCN779.c ****             // Channel frequency
 457:../../../../../../Middlewares/Third_Party/LoRaWAN/Mac/region/RegionCN779.c ****             newChannel.Frequency = (uint32_t) applyCFList->Payload[i];
 458:../../../../../../Middlewares/Third_Party/LoRaWAN/Mac/region/RegionCN779.c ****             newChannel.Frequency |= ( (uint32_t) applyCFList->Payload[i + 1] << 8 );
 459:../../../../../../Middlewares/Third_Party/LoRaWAN/Mac/region/RegionCN779.c ****             newChannel.Frequency |= ( (uint32_t) applyCFList->Payload[i + 2] << 16 );
 460:../../../../../../Middlewares/Third_Party/LoRaWAN/Mac/region/RegionCN779.c ****             newChannel.Frequency *= 100;
 461:../../../../../../Middlewares/Third_Party/LoRaWAN/Mac/region/RegionCN779.c **** 
 462:../../../../../../Middlewares/Third_Party/LoRaWAN/Mac/region/RegionCN779.c ****             // Initialize alternative frequency to 0
 463:../../../../../../Middlewares/Third_Party/LoRaWAN/Mac/region/RegionCN779.c ****             newChannel.Rx1Frequency = 0;
 464:../../../../../../Middlewares/Third_Party/LoRaWAN/Mac/region/RegionCN779.c ****         }
 465:../../../../../../Middlewares/Third_Party/LoRaWAN/Mac/region/RegionCN779.c ****         else
 466:../../../../../../Middlewares/Third_Party/LoRaWAN/Mac/region/RegionCN779.c ****         {
 467:../../../../../../Middlewares/Third_Party/LoRaWAN/Mac/region/RegionCN779.c ****             newChannel.Frequency = 0;
 468:../../../../../../Middlewares/Third_Party/LoRaWAN/Mac/region/RegionCN779.c ****             newChannel.DrRange.Value = 0;
ARM GAS  C:\Users\EBANO_~1\AppData\Local\Temp\ccKJ5gfE.s 			page 22


 469:../../../../../../Middlewares/Third_Party/LoRaWAN/Mac/region/RegionCN779.c ****             newChannel.Rx1Frequency = 0;
 470:../../../../../../Middlewares/Third_Party/LoRaWAN/Mac/region/RegionCN779.c ****         }
 471:../../../../../../Middlewares/Third_Party/LoRaWAN/Mac/region/RegionCN779.c **** 
 472:../../../../../../Middlewares/Third_Party/LoRaWAN/Mac/region/RegionCN779.c ****         if( newChannel.Frequency != 0 )
 473:../../../../../../Middlewares/Third_Party/LoRaWAN/Mac/region/RegionCN779.c ****         {
 474:../../../../../../Middlewares/Third_Party/LoRaWAN/Mac/region/RegionCN779.c ****             channelAdd.NewChannel = &newChannel;
 475:../../../../../../Middlewares/Third_Party/LoRaWAN/Mac/region/RegionCN779.c ****             channelAdd.ChannelId = chanIdx;
 476:../../../../../../Middlewares/Third_Party/LoRaWAN/Mac/region/RegionCN779.c **** 
 477:../../../../../../Middlewares/Third_Party/LoRaWAN/Mac/region/RegionCN779.c ****             // Try to add all channels
 478:../../../../../../Middlewares/Third_Party/LoRaWAN/Mac/region/RegionCN779.c ****             RegionCN779ChannelAdd( &channelAdd );
 479:../../../../../../Middlewares/Third_Party/LoRaWAN/Mac/region/RegionCN779.c ****         }
 480:../../../../../../Middlewares/Third_Party/LoRaWAN/Mac/region/RegionCN779.c ****         else
 481:../../../../../../Middlewares/Third_Party/LoRaWAN/Mac/region/RegionCN779.c ****         {
 482:../../../../../../Middlewares/Third_Party/LoRaWAN/Mac/region/RegionCN779.c ****             channelRemove.ChannelId = chanIdx;
 483:../../../../../../Middlewares/Third_Party/LoRaWAN/Mac/region/RegionCN779.c **** 
 484:../../../../../../Middlewares/Third_Party/LoRaWAN/Mac/region/RegionCN779.c ****             RegionCN779ChannelsRemove( &channelRemove );
 485:../../../../../../Middlewares/Third_Party/LoRaWAN/Mac/region/RegionCN779.c ****         }
 486:../../../../../../Middlewares/Third_Party/LoRaWAN/Mac/region/RegionCN779.c ****     }
 487:../../../../../../Middlewares/Third_Party/LoRaWAN/Mac/region/RegionCN779.c **** }
 664              		.loc 1 487 0
 665 001c 07B0     		add	sp, sp, #28
 666              		@ sp needed
 667              	.LVL37:
 668 001e 3CBC     		pop	{r2, r3, r4, r5}
 669 0020 9046     		mov	r8, r2
 670 0022 9946     		mov	r9, r3
 671 0024 A246     		mov	r10, r4
 672 0026 AB46     		mov	fp, r5
 673 0028 F0BD     		pop	{r4, r5, r6, r7, pc}
 674              	.LVL38:
 675              	.L76:
 446:../../../../../../Middlewares/Third_Party/LoRaWAN/Mac/region/RegionCN779.c ****     {
 676              		.loc 1 446 0
 677 002a 0368     		ldr	r3, [r0]
 678 002c DB7B     		ldrb	r3, [r3, #15]
 679 002e 002B     		cmp	r3, #0
 680 0030 F4D1     		bne	.L59
 681              	.LBB31:
 682              	.LBB32:
 683              	.LBB33:
 488:../../../../../../Middlewares/Third_Party/LoRaWAN/Mac/region/RegionCN779.c **** 
 489:../../../../../../Middlewares/Third_Party/LoRaWAN/Mac/region/RegionCN779.c **** bool RegionCN779ChanMaskSet( ChanMaskSetParams_t* chanMaskSet )
 490:../../../../../../Middlewares/Third_Party/LoRaWAN/Mac/region/RegionCN779.c **** {
 491:../../../../../../Middlewares/Third_Party/LoRaWAN/Mac/region/RegionCN779.c ****     switch( chanMaskSet->ChannelsMaskType )
 492:../../../../../../Middlewares/Third_Party/LoRaWAN/Mac/region/RegionCN779.c ****     {
 493:../../../../../../Middlewares/Third_Party/LoRaWAN/Mac/region/RegionCN779.c ****         case CHANNELS_MASK:
 494:../../../../../../Middlewares/Third_Party/LoRaWAN/Mac/region/RegionCN779.c ****         {
 495:../../../../../../Middlewares/Third_Party/LoRaWAN/Mac/region/RegionCN779.c ****             RegionCommonChanMaskCopy( NvmCtx.ChannelsMask, chanMaskSet->ChannelsMaskIn, 1 );
 496:../../../../../../Middlewares/Third_Party/LoRaWAN/Mac/region/RegionCN779.c ****             break;
 497:../../../../../../Middlewares/Third_Party/LoRaWAN/Mac/region/RegionCN779.c ****         }
 498:../../../../../../Middlewares/Third_Party/LoRaWAN/Mac/region/RegionCN779.c ****         case CHANNELS_DEFAULT_MASK:
 499:../../../../../../Middlewares/Third_Party/LoRaWAN/Mac/region/RegionCN779.c ****         {
 500:../../../../../../Middlewares/Third_Party/LoRaWAN/Mac/region/RegionCN779.c ****             RegionCommonChanMaskCopy( NvmCtx.ChannelsDefaultMask, chanMaskSet->ChannelsMaskIn, 1 );
 501:../../../../../../Middlewares/Third_Party/LoRaWAN/Mac/region/RegionCN779.c ****             break;
 502:../../../../../../Middlewares/Third_Party/LoRaWAN/Mac/region/RegionCN779.c ****         }
 503:../../../../../../Middlewares/Third_Party/LoRaWAN/Mac/region/RegionCN779.c ****         default:
 504:../../../../../../Middlewares/Third_Party/LoRaWAN/Mac/region/RegionCN779.c ****             return false;
ARM GAS  C:\Users\EBANO_~1\AppData\Local\Temp\ccKJ5gfE.s 			page 23


 505:../../../../../../Middlewares/Third_Party/LoRaWAN/Mac/region/RegionCN779.c ****     }
 506:../../../../../../Middlewares/Third_Party/LoRaWAN/Mac/region/RegionCN779.c ****     return true;
 507:../../../../../../Middlewares/Third_Party/LoRaWAN/Mac/region/RegionCN779.c **** }
 508:../../../../../../Middlewares/Third_Party/LoRaWAN/Mac/region/RegionCN779.c **** 
 509:../../../../../../Middlewares/Third_Party/LoRaWAN/Mac/region/RegionCN779.c **** void RegionCN779ComputeRxWindowParameters( int8_t datarate, uint8_t minRxSymbols, uint32_t rxError,
 510:../../../../../../Middlewares/Third_Party/LoRaWAN/Mac/region/RegionCN779.c **** {
 511:../../../../../../Middlewares/Third_Party/LoRaWAN/Mac/region/RegionCN779.c ****     double tSymbol = 0.0;
 512:../../../../../../Middlewares/Third_Party/LoRaWAN/Mac/region/RegionCN779.c **** 
 513:../../../../../../Middlewares/Third_Party/LoRaWAN/Mac/region/RegionCN779.c ****     // Get the datarate, perform a boundary check
 514:../../../../../../Middlewares/Third_Party/LoRaWAN/Mac/region/RegionCN779.c ****     rxConfigParams->Datarate = MIN( datarate, CN779_RX_MAX_DATARATE );
 515:../../../../../../Middlewares/Third_Party/LoRaWAN/Mac/region/RegionCN779.c ****     rxConfigParams->Bandwidth = GetBandwidth( rxConfigParams->Datarate );
 516:../../../../../../Middlewares/Third_Party/LoRaWAN/Mac/region/RegionCN779.c **** 
 517:../../../../../../Middlewares/Third_Party/LoRaWAN/Mac/region/RegionCN779.c ****     if( rxConfigParams->Datarate == DR_7 )
 518:../../../../../../Middlewares/Third_Party/LoRaWAN/Mac/region/RegionCN779.c ****     { // FSK
 519:../../../../../../Middlewares/Third_Party/LoRaWAN/Mac/region/RegionCN779.c ****         tSymbol = RegionCommonComputeSymbolTimeFsk( DataratesCN779[rxConfigParams->Datarate] );
 520:../../../../../../Middlewares/Third_Party/LoRaWAN/Mac/region/RegionCN779.c ****     }
 521:../../../../../../Middlewares/Third_Party/LoRaWAN/Mac/region/RegionCN779.c ****     else
 522:../../../../../../Middlewares/Third_Party/LoRaWAN/Mac/region/RegionCN779.c ****     { // LoRa
 523:../../../../../../Middlewares/Third_Party/LoRaWAN/Mac/region/RegionCN779.c ****         tSymbol = RegionCommonComputeSymbolTimeLoRa( DataratesCN779[rxConfigParams->Datarate], Band
 524:../../../../../../Middlewares/Third_Party/LoRaWAN/Mac/region/RegionCN779.c ****     }
 525:../../../../../../Middlewares/Third_Party/LoRaWAN/Mac/region/RegionCN779.c **** 
 526:../../../../../../Middlewares/Third_Party/LoRaWAN/Mac/region/RegionCN779.c ****     RegionCommonComputeRxWindowParameters( tSymbol, minRxSymbols, rxError, Radio.GetWakeupTime( ), 
 527:../../../../../../Middlewares/Third_Party/LoRaWAN/Mac/region/RegionCN779.c **** }
 528:../../../../../../Middlewares/Third_Party/LoRaWAN/Mac/region/RegionCN779.c **** 
 529:../../../../../../Middlewares/Third_Party/LoRaWAN/Mac/region/RegionCN779.c **** bool RegionCN779RxConfig( RxConfigParams_t* rxConfig, int8_t* datarate )
 530:../../../../../../Middlewares/Third_Party/LoRaWAN/Mac/region/RegionCN779.c **** {
 531:../../../../../../Middlewares/Third_Party/LoRaWAN/Mac/region/RegionCN779.c ****     RadioModems_t modem;
 532:../../../../../../Middlewares/Third_Party/LoRaWAN/Mac/region/RegionCN779.c ****     int8_t dr = rxConfig->Datarate;
 533:../../../../../../Middlewares/Third_Party/LoRaWAN/Mac/region/RegionCN779.c ****     uint8_t maxPayload = 0;
 534:../../../../../../Middlewares/Third_Party/LoRaWAN/Mac/region/RegionCN779.c ****     int8_t phyDr = 0;
 535:../../../../../../Middlewares/Third_Party/LoRaWAN/Mac/region/RegionCN779.c ****     uint32_t frequency = rxConfig->Frequency;
 536:../../../../../../Middlewares/Third_Party/LoRaWAN/Mac/region/RegionCN779.c **** 
 537:../../../../../../Middlewares/Third_Party/LoRaWAN/Mac/region/RegionCN779.c ****     if( Radio.GetStatus( ) != RF_IDLE )
 538:../../../../../../Middlewares/Third_Party/LoRaWAN/Mac/region/RegionCN779.c ****     {
 539:../../../../../../Middlewares/Third_Party/LoRaWAN/Mac/region/RegionCN779.c ****         return false;
 540:../../../../../../Middlewares/Third_Party/LoRaWAN/Mac/region/RegionCN779.c ****     }
 541:../../../../../../Middlewares/Third_Party/LoRaWAN/Mac/region/RegionCN779.c **** 
 542:../../../../../../Middlewares/Third_Party/LoRaWAN/Mac/region/RegionCN779.c ****     if( rxConfig->RxSlot == RX_SLOT_WIN_1 )
 543:../../../../../../Middlewares/Third_Party/LoRaWAN/Mac/region/RegionCN779.c ****     {
 544:../../../../../../Middlewares/Third_Party/LoRaWAN/Mac/region/RegionCN779.c ****         // Apply window 1 frequency
 545:../../../../../../Middlewares/Third_Party/LoRaWAN/Mac/region/RegionCN779.c ****         frequency = NvmCtx.Channels[rxConfig->Channel].Frequency;
 546:../../../../../../Middlewares/Third_Party/LoRaWAN/Mac/region/RegionCN779.c ****         // Apply the alternative RX 1 window frequency, if it is available
 547:../../../../../../Middlewares/Third_Party/LoRaWAN/Mac/region/RegionCN779.c ****         if( NvmCtx.Channels[rxConfig->Channel].Rx1Frequency != 0 )
 548:../../../../../../Middlewares/Third_Party/LoRaWAN/Mac/region/RegionCN779.c ****         {
 549:../../../../../../Middlewares/Third_Party/LoRaWAN/Mac/region/RegionCN779.c ****             frequency = NvmCtx.Channels[rxConfig->Channel].Rx1Frequency;
 550:../../../../../../Middlewares/Third_Party/LoRaWAN/Mac/region/RegionCN779.c ****         }
 551:../../../../../../Middlewares/Third_Party/LoRaWAN/Mac/region/RegionCN779.c ****     }
 552:../../../../../../Middlewares/Third_Party/LoRaWAN/Mac/region/RegionCN779.c **** 
 553:../../../../../../Middlewares/Third_Party/LoRaWAN/Mac/region/RegionCN779.c ****     // Read the physical datarate from the datarates table
 554:../../../../../../Middlewares/Third_Party/LoRaWAN/Mac/region/RegionCN779.c ****     phyDr = DataratesCN779[dr];
 555:../../../../../../Middlewares/Third_Party/LoRaWAN/Mac/region/RegionCN779.c **** 
 556:../../../../../../Middlewares/Third_Party/LoRaWAN/Mac/region/RegionCN779.c ****     Radio.SetChannel( frequency );
 557:../../../../../../Middlewares/Third_Party/LoRaWAN/Mac/region/RegionCN779.c **** 
 558:../../../../../../Middlewares/Third_Party/LoRaWAN/Mac/region/RegionCN779.c ****     // Radio configuration
 559:../../../../../../Middlewares/Third_Party/LoRaWAN/Mac/region/RegionCN779.c ****     if( dr == DR_7 )
 560:../../../../../../Middlewares/Third_Party/LoRaWAN/Mac/region/RegionCN779.c ****     {
 561:../../../../../../Middlewares/Third_Party/LoRaWAN/Mac/region/RegionCN779.c ****         modem = MODEM_FSK;
ARM GAS  C:\Users\EBANO_~1\AppData\Local\Temp\ccKJ5gfE.s 			page 24


 562:../../../../../../Middlewares/Third_Party/LoRaWAN/Mac/region/RegionCN779.c ****         Radio.SetRxConfig( modem, 50000, phyDr * 1000, 0, 83333, 5, rxConfig->WindowTimeout, false,
 563:../../../../../../Middlewares/Third_Party/LoRaWAN/Mac/region/RegionCN779.c ****     }
 564:../../../../../../Middlewares/Third_Party/LoRaWAN/Mac/region/RegionCN779.c ****     else
 565:../../../../../../Middlewares/Third_Party/LoRaWAN/Mac/region/RegionCN779.c ****     {
 566:../../../../../../Middlewares/Third_Party/LoRaWAN/Mac/region/RegionCN779.c ****         modem = MODEM_LORA;
 567:../../../../../../Middlewares/Third_Party/LoRaWAN/Mac/region/RegionCN779.c ****         Radio.SetRxConfig( modem, rxConfig->Bandwidth, phyDr, 1, 0, 8, rxConfig->WindowTimeout, fal
 568:../../../../../../Middlewares/Third_Party/LoRaWAN/Mac/region/RegionCN779.c ****     }
 569:../../../../../../Middlewares/Third_Party/LoRaWAN/Mac/region/RegionCN779.c **** 
 570:../../../../../../Middlewares/Third_Party/LoRaWAN/Mac/region/RegionCN779.c ****     if( rxConfig->RepeaterSupport == true )
 571:../../../../../../Middlewares/Third_Party/LoRaWAN/Mac/region/RegionCN779.c ****     {
 572:../../../../../../Middlewares/Third_Party/LoRaWAN/Mac/region/RegionCN779.c ****         maxPayload = MaxPayloadOfDatarateRepeaterCN779[dr];
 573:../../../../../../Middlewares/Third_Party/LoRaWAN/Mac/region/RegionCN779.c ****     }
 574:../../../../../../Middlewares/Third_Party/LoRaWAN/Mac/region/RegionCN779.c ****     else
 575:../../../../../../Middlewares/Third_Party/LoRaWAN/Mac/region/RegionCN779.c ****     {
 576:../../../../../../Middlewares/Third_Party/LoRaWAN/Mac/region/RegionCN779.c ****         maxPayload = MaxPayloadOfDatarateCN779[dr];
 577:../../../../../../Middlewares/Third_Party/LoRaWAN/Mac/region/RegionCN779.c ****     }
 578:../../../../../../Middlewares/Third_Party/LoRaWAN/Mac/region/RegionCN779.c ****     Radio.SetMaxPayloadLength( modem, maxPayload + LORA_MAC_FRMPAYLOAD_OVERHEAD );
 579:../../../../../../Middlewares/Third_Party/LoRaWAN/Mac/region/RegionCN779.c ****     TVL1( PRINTF( "RX on freq %d Hz at DR %d\n\r", frequency, dr );)
 580:../../../../../../Middlewares/Third_Party/LoRaWAN/Mac/region/RegionCN779.c **** 
 581:../../../../../../Middlewares/Third_Party/LoRaWAN/Mac/region/RegionCN779.c ****     *datarate = (uint8_t) dr;
 582:../../../../../../Middlewares/Third_Party/LoRaWAN/Mac/region/RegionCN779.c ****     return true;
 583:../../../../../../Middlewares/Third_Party/LoRaWAN/Mac/region/RegionCN779.c **** }
 584:../../../../../../Middlewares/Third_Party/LoRaWAN/Mac/region/RegionCN779.c **** 
 585:../../../../../../Middlewares/Third_Party/LoRaWAN/Mac/region/RegionCN779.c **** bool RegionCN779TxConfig( TxConfigParams_t* txConfig, int8_t* txPower, TimerTime_t* txTimeOnAir )
 586:../../../../../../Middlewares/Third_Party/LoRaWAN/Mac/region/RegionCN779.c **** {
 587:../../../../../../Middlewares/Third_Party/LoRaWAN/Mac/region/RegionCN779.c ****     RadioModems_t modem;
 588:../../../../../../Middlewares/Third_Party/LoRaWAN/Mac/region/RegionCN779.c ****     int8_t phyDr = DataratesCN779[txConfig->Datarate];
 589:../../../../../../Middlewares/Third_Party/LoRaWAN/Mac/region/RegionCN779.c ****     int8_t txPowerLimited = LimitTxPower( txConfig->TxPower, NvmCtx.Bands[NvmCtx.Channels[txConfig-
 590:../../../../../../Middlewares/Third_Party/LoRaWAN/Mac/region/RegionCN779.c ****     uint32_t bandwidth = GetBandwidth( txConfig->Datarate );
 591:../../../../../../Middlewares/Third_Party/LoRaWAN/Mac/region/RegionCN779.c ****     int8_t phyTxPower = 0;
 592:../../../../../../Middlewares/Third_Party/LoRaWAN/Mac/region/RegionCN779.c **** 
 593:../../../../../../Middlewares/Third_Party/LoRaWAN/Mac/region/RegionCN779.c ****     // Calculate physical TX power
 594:../../../../../../Middlewares/Third_Party/LoRaWAN/Mac/region/RegionCN779.c ****     phyTxPower = RegionCommonComputeTxPower( txPowerLimited, txConfig->MaxEirp, txConfig->AntennaGa
 595:../../../../../../Middlewares/Third_Party/LoRaWAN/Mac/region/RegionCN779.c **** 
 596:../../../../../../Middlewares/Third_Party/LoRaWAN/Mac/region/RegionCN779.c ****     // Setup the radio frequency
 597:../../../../../../Middlewares/Third_Party/LoRaWAN/Mac/region/RegionCN779.c ****     Radio.SetChannel( NvmCtx.Channels[txConfig->Channel].Frequency );
 598:../../../../../../Middlewares/Third_Party/LoRaWAN/Mac/region/RegionCN779.c **** 
 599:../../../../../../Middlewares/Third_Party/LoRaWAN/Mac/region/RegionCN779.c ****     if( txConfig->Datarate == DR_7 )
 600:../../../../../../Middlewares/Third_Party/LoRaWAN/Mac/region/RegionCN779.c ****     { // High Speed FSK channel
 601:../../../../../../Middlewares/Third_Party/LoRaWAN/Mac/region/RegionCN779.c ****         modem = MODEM_FSK;
 602:../../../../../../Middlewares/Third_Party/LoRaWAN/Mac/region/RegionCN779.c ****         Radio.SetTxConfig( modem, phyTxPower, 25000, bandwidth, phyDr * 1000, 0, 5, false, true, 0,
 603:../../../../../../Middlewares/Third_Party/LoRaWAN/Mac/region/RegionCN779.c ****     }
 604:../../../../../../Middlewares/Third_Party/LoRaWAN/Mac/region/RegionCN779.c ****     else
 605:../../../../../../Middlewares/Third_Party/LoRaWAN/Mac/region/RegionCN779.c ****     {
 606:../../../../../../Middlewares/Third_Party/LoRaWAN/Mac/region/RegionCN779.c ****         modem = MODEM_LORA;
 607:../../../../../../Middlewares/Third_Party/LoRaWAN/Mac/region/RegionCN779.c ****         Radio.SetTxConfig( modem, phyTxPower, 0, bandwidth, phyDr, 1, 8, false, true, 0, 0, false, 
 608:../../../../../../Middlewares/Third_Party/LoRaWAN/Mac/region/RegionCN779.c ****     }
 609:../../../../../../Middlewares/Third_Party/LoRaWAN/Mac/region/RegionCN779.c ****     TVL1( PRINTF( "TX on freq %d Hz at DR %d\n\r", NvmCtx.Channels[txConfig->Channel].Frequency, tx
 610:../../../../../../Middlewares/Third_Party/LoRaWAN/Mac/region/RegionCN779.c **** 
 611:../../../../../../Middlewares/Third_Party/LoRaWAN/Mac/region/RegionCN779.c ****     // Setup maximum payload lenght of the radio driver
 612:../../../../../../Middlewares/Third_Party/LoRaWAN/Mac/region/RegionCN779.c ****     Radio.SetMaxPayloadLength( modem, txConfig->PktLen );
 613:../../../../../../Middlewares/Third_Party/LoRaWAN/Mac/region/RegionCN779.c ****     // Get the time-on-air of the next tx frame
 614:../../../../../../Middlewares/Third_Party/LoRaWAN/Mac/region/RegionCN779.c ****     *txTimeOnAir = Radio.TimeOnAir( modem, txConfig->PktLen );
 615:../../../../../../Middlewares/Third_Party/LoRaWAN/Mac/region/RegionCN779.c **** 
 616:../../../../../../Middlewares/Third_Party/LoRaWAN/Mac/region/RegionCN779.c ****     *txPower = txPowerLimited;
 617:../../../../../../Middlewares/Third_Party/LoRaWAN/Mac/region/RegionCN779.c ****     return true;
 618:../../../../../../Middlewares/Third_Party/LoRaWAN/Mac/region/RegionCN779.c **** }
ARM GAS  C:\Users\EBANO_~1\AppData\Local\Temp\ccKJ5gfE.s 			page 25


 619:../../../../../../Middlewares/Third_Party/LoRaWAN/Mac/region/RegionCN779.c **** 
 620:../../../../../../Middlewares/Third_Party/LoRaWAN/Mac/region/RegionCN779.c **** uint8_t RegionCN779LinkAdrReq( LinkAdrReqParams_t* linkAdrReq, int8_t* drOut, int8_t* txPowOut, uin
 621:../../../../../../Middlewares/Third_Party/LoRaWAN/Mac/region/RegionCN779.c **** {
 622:../../../../../../Middlewares/Third_Party/LoRaWAN/Mac/region/RegionCN779.c ****     uint8_t status = 0x07;
 623:../../../../../../Middlewares/Third_Party/LoRaWAN/Mac/region/RegionCN779.c ****     RegionCommonLinkAdrParams_t linkAdrParams;
 624:../../../../../../Middlewares/Third_Party/LoRaWAN/Mac/region/RegionCN779.c ****     uint8_t nextIndex = 0;
 625:../../../../../../Middlewares/Third_Party/LoRaWAN/Mac/region/RegionCN779.c ****     uint8_t bytesProcessed = 0;
 626:../../../../../../Middlewares/Third_Party/LoRaWAN/Mac/region/RegionCN779.c ****     uint16_t chMask = 0;
 627:../../../../../../Middlewares/Third_Party/LoRaWAN/Mac/region/RegionCN779.c ****     GetPhyParams_t getPhy;
 628:../../../../../../Middlewares/Third_Party/LoRaWAN/Mac/region/RegionCN779.c ****     PhyParam_t phyParam;
 629:../../../../../../Middlewares/Third_Party/LoRaWAN/Mac/region/RegionCN779.c ****     RegionCommonLinkAdrReqVerifyParams_t linkAdrVerifyParams;
 630:../../../../../../Middlewares/Third_Party/LoRaWAN/Mac/region/RegionCN779.c **** 
 631:../../../../../../Middlewares/Third_Party/LoRaWAN/Mac/region/RegionCN779.c ****     while( bytesProcessed < linkAdrReq->PayloadSize )
 632:../../../../../../Middlewares/Third_Party/LoRaWAN/Mac/region/RegionCN779.c ****     {
 633:../../../../../../Middlewares/Third_Party/LoRaWAN/Mac/region/RegionCN779.c ****         // Get ADR request parameters
 634:../../../../../../Middlewares/Third_Party/LoRaWAN/Mac/region/RegionCN779.c ****         nextIndex = RegionCommonParseLinkAdrReq( &( linkAdrReq->Payload[bytesProcessed] ), &linkAdr
 635:../../../../../../Middlewares/Third_Party/LoRaWAN/Mac/region/RegionCN779.c **** 
 636:../../../../../../Middlewares/Third_Party/LoRaWAN/Mac/region/RegionCN779.c ****         if( nextIndex == 0 )
 637:../../../../../../Middlewares/Third_Party/LoRaWAN/Mac/region/RegionCN779.c ****             break; // break loop, since no more request has been found
 638:../../../../../../Middlewares/Third_Party/LoRaWAN/Mac/region/RegionCN779.c **** 
 639:../../../../../../Middlewares/Third_Party/LoRaWAN/Mac/region/RegionCN779.c ****         // Update bytes processed
 640:../../../../../../Middlewares/Third_Party/LoRaWAN/Mac/region/RegionCN779.c ****         bytesProcessed += nextIndex;
 641:../../../../../../Middlewares/Third_Party/LoRaWAN/Mac/region/RegionCN779.c **** 
 642:../../../../../../Middlewares/Third_Party/LoRaWAN/Mac/region/RegionCN779.c ****         // Revert status, as we only check the last ADR request for the channel mask KO
 643:../../../../../../Middlewares/Third_Party/LoRaWAN/Mac/region/RegionCN779.c ****         status = 0x07;
 644:../../../../../../Middlewares/Third_Party/LoRaWAN/Mac/region/RegionCN779.c **** 
 645:../../../../../../Middlewares/Third_Party/LoRaWAN/Mac/region/RegionCN779.c ****         // Setup temporary channels mask
 646:../../../../../../Middlewares/Third_Party/LoRaWAN/Mac/region/RegionCN779.c ****         chMask = linkAdrParams.ChMask;
 647:../../../../../../Middlewares/Third_Party/LoRaWAN/Mac/region/RegionCN779.c **** 
 648:../../../../../../Middlewares/Third_Party/LoRaWAN/Mac/region/RegionCN779.c ****         // Verify channels mask
 649:../../../../../../Middlewares/Third_Party/LoRaWAN/Mac/region/RegionCN779.c ****         if( ( linkAdrParams.ChMaskCtrl == 0 ) && ( chMask == 0 ) )
 650:../../../../../../Middlewares/Third_Party/LoRaWAN/Mac/region/RegionCN779.c ****         {
 651:../../../../../../Middlewares/Third_Party/LoRaWAN/Mac/region/RegionCN779.c ****             status &= 0xFE; // Channel mask KO
 652:../../../../../../Middlewares/Third_Party/LoRaWAN/Mac/region/RegionCN779.c ****         }
 653:../../../../../../Middlewares/Third_Party/LoRaWAN/Mac/region/RegionCN779.c ****         else if( ( ( linkAdrParams.ChMaskCtrl >= 1 ) && ( linkAdrParams.ChMaskCtrl <= 5 )) ||
 654:../../../../../../Middlewares/Third_Party/LoRaWAN/Mac/region/RegionCN779.c ****                 ( linkAdrParams.ChMaskCtrl >= 7 ) )
 655:../../../../../../Middlewares/Third_Party/LoRaWAN/Mac/region/RegionCN779.c ****         {
 656:../../../../../../Middlewares/Third_Party/LoRaWAN/Mac/region/RegionCN779.c ****             // RFU
 657:../../../../../../Middlewares/Third_Party/LoRaWAN/Mac/region/RegionCN779.c ****             status &= 0xFE; // Channel mask KO
 658:../../../../../../Middlewares/Third_Party/LoRaWAN/Mac/region/RegionCN779.c ****         }
 659:../../../../../../Middlewares/Third_Party/LoRaWAN/Mac/region/RegionCN779.c ****         else
 660:../../../../../../Middlewares/Third_Party/LoRaWAN/Mac/region/RegionCN779.c ****         {
 661:../../../../../../Middlewares/Third_Party/LoRaWAN/Mac/region/RegionCN779.c ****             for( uint8_t i = 0; i < CN779_MAX_NB_CHANNELS; i++ )
 662:../../../../../../Middlewares/Third_Party/LoRaWAN/Mac/region/RegionCN779.c ****             {
 663:../../../../../../Middlewares/Third_Party/LoRaWAN/Mac/region/RegionCN779.c ****                 if( linkAdrParams.ChMaskCtrl == 6 )
 664:../../../../../../Middlewares/Third_Party/LoRaWAN/Mac/region/RegionCN779.c ****                 {
 665:../../../../../../Middlewares/Third_Party/LoRaWAN/Mac/region/RegionCN779.c ****                     if( NvmCtx.Channels[i].Frequency != 0 )
 666:../../../../../../Middlewares/Third_Party/LoRaWAN/Mac/region/RegionCN779.c ****                     {
 667:../../../../../../Middlewares/Third_Party/LoRaWAN/Mac/region/RegionCN779.c ****                         chMask |= 1 << i;
 668:../../../../../../Middlewares/Third_Party/LoRaWAN/Mac/region/RegionCN779.c ****                     }
 669:../../../../../../Middlewares/Third_Party/LoRaWAN/Mac/region/RegionCN779.c ****                 }
 670:../../../../../../Middlewares/Third_Party/LoRaWAN/Mac/region/RegionCN779.c ****                 else
 671:../../../../../../Middlewares/Third_Party/LoRaWAN/Mac/region/RegionCN779.c ****                 {
 672:../../../../../../Middlewares/Third_Party/LoRaWAN/Mac/region/RegionCN779.c ****                     if( ( ( chMask & ( 1 << i ) ) != 0 ) &&
 673:../../../../../../Middlewares/Third_Party/LoRaWAN/Mac/region/RegionCN779.c ****                         ( NvmCtx.Channels[i].Frequency == 0 ) )
 674:../../../../../../Middlewares/Third_Party/LoRaWAN/Mac/region/RegionCN779.c ****                     {// Trying to enable an undefined channel
 675:../../../../../../Middlewares/Third_Party/LoRaWAN/Mac/region/RegionCN779.c ****                         status &= 0xFE; // Channel mask KO
ARM GAS  C:\Users\EBANO_~1\AppData\Local\Temp\ccKJ5gfE.s 			page 26


 676:../../../../../../Middlewares/Third_Party/LoRaWAN/Mac/region/RegionCN779.c ****                     }
 677:../../../../../../Middlewares/Third_Party/LoRaWAN/Mac/region/RegionCN779.c ****                 }
 678:../../../../../../Middlewares/Third_Party/LoRaWAN/Mac/region/RegionCN779.c ****             }
 679:../../../../../../Middlewares/Third_Party/LoRaWAN/Mac/region/RegionCN779.c ****         }
 680:../../../../../../Middlewares/Third_Party/LoRaWAN/Mac/region/RegionCN779.c ****     }
 681:../../../../../../Middlewares/Third_Party/LoRaWAN/Mac/region/RegionCN779.c **** 
 682:../../../../../../Middlewares/Third_Party/LoRaWAN/Mac/region/RegionCN779.c ****     // Get the minimum possible datarate
 683:../../../../../../Middlewares/Third_Party/LoRaWAN/Mac/region/RegionCN779.c ****     getPhy.Attribute = PHY_MIN_TX_DR;
 684:../../../../../../Middlewares/Third_Party/LoRaWAN/Mac/region/RegionCN779.c ****     getPhy.UplinkDwellTime = linkAdrReq->UplinkDwellTime;
 685:../../../../../../Middlewares/Third_Party/LoRaWAN/Mac/region/RegionCN779.c ****     phyParam = RegionCN779GetPhyParam( &getPhy );
 686:../../../../../../Middlewares/Third_Party/LoRaWAN/Mac/region/RegionCN779.c **** 
 687:../../../../../../Middlewares/Third_Party/LoRaWAN/Mac/region/RegionCN779.c ****     linkAdrVerifyParams.Status = status;
 688:../../../../../../Middlewares/Third_Party/LoRaWAN/Mac/region/RegionCN779.c ****     linkAdrVerifyParams.AdrEnabled = linkAdrReq->AdrEnabled;
 689:../../../../../../Middlewares/Third_Party/LoRaWAN/Mac/region/RegionCN779.c ****     linkAdrVerifyParams.Datarate = linkAdrParams.Datarate;
 690:../../../../../../Middlewares/Third_Party/LoRaWAN/Mac/region/RegionCN779.c ****     linkAdrVerifyParams.TxPower = linkAdrParams.TxPower;
 691:../../../../../../Middlewares/Third_Party/LoRaWAN/Mac/region/RegionCN779.c ****     linkAdrVerifyParams.NbRep = linkAdrParams.NbRep;
 692:../../../../../../Middlewares/Third_Party/LoRaWAN/Mac/region/RegionCN779.c ****     linkAdrVerifyParams.CurrentDatarate = linkAdrReq->CurrentDatarate;
 693:../../../../../../Middlewares/Third_Party/LoRaWAN/Mac/region/RegionCN779.c ****     linkAdrVerifyParams.CurrentTxPower = linkAdrReq->CurrentTxPower;
 694:../../../../../../Middlewares/Third_Party/LoRaWAN/Mac/region/RegionCN779.c ****     linkAdrVerifyParams.CurrentNbRep = linkAdrReq->CurrentNbRep;
 695:../../../../../../Middlewares/Third_Party/LoRaWAN/Mac/region/RegionCN779.c ****     linkAdrVerifyParams.NbChannels = CN779_MAX_NB_CHANNELS;
 696:../../../../../../Middlewares/Third_Party/LoRaWAN/Mac/region/RegionCN779.c ****     linkAdrVerifyParams.ChannelsMask = &chMask;
 697:../../../../../../Middlewares/Third_Party/LoRaWAN/Mac/region/RegionCN779.c ****     linkAdrVerifyParams.MinDatarate = ( int8_t )phyParam.Value;
 698:../../../../../../Middlewares/Third_Party/LoRaWAN/Mac/region/RegionCN779.c ****     linkAdrVerifyParams.MaxDatarate = CN779_TX_MAX_DATARATE;
 699:../../../../../../Middlewares/Third_Party/LoRaWAN/Mac/region/RegionCN779.c ****     linkAdrVerifyParams.Channels = NvmCtx.Channels;
 700:../../../../../../Middlewares/Third_Party/LoRaWAN/Mac/region/RegionCN779.c ****     linkAdrVerifyParams.MinTxPower = CN779_MIN_TX_POWER;
 701:../../../../../../Middlewares/Third_Party/LoRaWAN/Mac/region/RegionCN779.c ****     linkAdrVerifyParams.MaxTxPower = CN779_MAX_TX_POWER;
 702:../../../../../../Middlewares/Third_Party/LoRaWAN/Mac/region/RegionCN779.c ****     linkAdrVerifyParams.Version = linkAdrReq->Version;
 703:../../../../../../Middlewares/Third_Party/LoRaWAN/Mac/region/RegionCN779.c **** 
 704:../../../../../../Middlewares/Third_Party/LoRaWAN/Mac/region/RegionCN779.c ****     // Verify the parameters and update, if necessary
 705:../../../../../../Middlewares/Third_Party/LoRaWAN/Mac/region/RegionCN779.c ****     status = RegionCommonLinkAdrReqVerifyParams( &linkAdrVerifyParams, &linkAdrParams.Datarate, &li
 706:../../../../../../Middlewares/Third_Party/LoRaWAN/Mac/region/RegionCN779.c **** 
 707:../../../../../../Middlewares/Third_Party/LoRaWAN/Mac/region/RegionCN779.c ****     // Update channelsMask if everything is correct
 708:../../../../../../Middlewares/Third_Party/LoRaWAN/Mac/region/RegionCN779.c ****     if( status == 0x07 )
 709:../../../../../../Middlewares/Third_Party/LoRaWAN/Mac/region/RegionCN779.c ****     {
 710:../../../../../../Middlewares/Third_Party/LoRaWAN/Mac/region/RegionCN779.c ****         // Set the channels mask to a default value
 711:../../../../../../Middlewares/Third_Party/LoRaWAN/Mac/region/RegionCN779.c ****         memset1( ( uint8_t* ) NvmCtx.ChannelsMask, 0, sizeof( NvmCtx.ChannelsMask ) );
 712:../../../../../../Middlewares/Third_Party/LoRaWAN/Mac/region/RegionCN779.c ****         // Update the channels mask
 713:../../../../../../Middlewares/Third_Party/LoRaWAN/Mac/region/RegionCN779.c ****         NvmCtx.ChannelsMask[0] = chMask;
 714:../../../../../../Middlewares/Third_Party/LoRaWAN/Mac/region/RegionCN779.c ****     }
 715:../../../../../../Middlewares/Third_Party/LoRaWAN/Mac/region/RegionCN779.c **** 
 716:../../../../../../Middlewares/Third_Party/LoRaWAN/Mac/region/RegionCN779.c ****     // Update status variables
 717:../../../../../../Middlewares/Third_Party/LoRaWAN/Mac/region/RegionCN779.c ****     *drOut = linkAdrParams.Datarate;
 718:../../../../../../Middlewares/Third_Party/LoRaWAN/Mac/region/RegionCN779.c ****     *txPowOut = linkAdrParams.TxPower;
 719:../../../../../../Middlewares/Third_Party/LoRaWAN/Mac/region/RegionCN779.c ****     *nbRepOut = linkAdrParams.NbRep;
 720:../../../../../../Middlewares/Third_Party/LoRaWAN/Mac/region/RegionCN779.c ****     *nbBytesParsed = bytesProcessed;
 721:../../../../../../Middlewares/Third_Party/LoRaWAN/Mac/region/RegionCN779.c **** 
 722:../../../../../../Middlewares/Third_Party/LoRaWAN/Mac/region/RegionCN779.c ****     return status;
 723:../../../../../../Middlewares/Third_Party/LoRaWAN/Mac/region/RegionCN779.c **** }
 724:../../../../../../Middlewares/Third_Party/LoRaWAN/Mac/region/RegionCN779.c **** 
 725:../../../../../../Middlewares/Third_Party/LoRaWAN/Mac/region/RegionCN779.c **** uint8_t RegionCN779RxParamSetupReq( RxParamSetupReqParams_t* rxParamSetupReq )
 726:../../../../../../Middlewares/Third_Party/LoRaWAN/Mac/region/RegionCN779.c **** {
 727:../../../../../../Middlewares/Third_Party/LoRaWAN/Mac/region/RegionCN779.c ****     uint8_t status = 0x07;
 728:../../../../../../Middlewares/Third_Party/LoRaWAN/Mac/region/RegionCN779.c **** 
 729:../../../../../../Middlewares/Third_Party/LoRaWAN/Mac/region/RegionCN779.c ****     // Verify radio frequency
 730:../../../../../../Middlewares/Third_Party/LoRaWAN/Mac/region/RegionCN779.c ****     if( VerifyRfFreq( rxParamSetupReq->Frequency ) == false )
 731:../../../../../../Middlewares/Third_Party/LoRaWAN/Mac/region/RegionCN779.c ****     {
 732:../../../../../../Middlewares/Third_Party/LoRaWAN/Mac/region/RegionCN779.c ****         status &= 0xFE; // Channel frequency KO
ARM GAS  C:\Users\EBANO_~1\AppData\Local\Temp\ccKJ5gfE.s 			page 27


 733:../../../../../../Middlewares/Third_Party/LoRaWAN/Mac/region/RegionCN779.c ****     }
 734:../../../../../../Middlewares/Third_Party/LoRaWAN/Mac/region/RegionCN779.c **** 
 735:../../../../../../Middlewares/Third_Party/LoRaWAN/Mac/region/RegionCN779.c ****     // Verify datarate
 736:../../../../../../Middlewares/Third_Party/LoRaWAN/Mac/region/RegionCN779.c ****     if( RegionCommonValueInRange( rxParamSetupReq->Datarate, CN779_RX_MIN_DATARATE, CN779_RX_MAX_DA
 737:../../../../../../Middlewares/Third_Party/LoRaWAN/Mac/region/RegionCN779.c ****     {
 738:../../../../../../Middlewares/Third_Party/LoRaWAN/Mac/region/RegionCN779.c ****         status &= 0xFD; // Datarate KO
 739:../../../../../../Middlewares/Third_Party/LoRaWAN/Mac/region/RegionCN779.c ****     }
 740:../../../../../../Middlewares/Third_Party/LoRaWAN/Mac/region/RegionCN779.c **** 
 741:../../../../../../Middlewares/Third_Party/LoRaWAN/Mac/region/RegionCN779.c ****     // Verify datarate offset
 742:../../../../../../Middlewares/Third_Party/LoRaWAN/Mac/region/RegionCN779.c ****     if( RegionCommonValueInRange( rxParamSetupReq->DrOffset, CN779_MIN_RX1_DR_OFFSET, CN779_MAX_RX1
 743:../../../../../../Middlewares/Third_Party/LoRaWAN/Mac/region/RegionCN779.c ****     {
 744:../../../../../../Middlewares/Third_Party/LoRaWAN/Mac/region/RegionCN779.c ****         status &= 0xFB; // Rx1DrOffset range KO
 745:../../../../../../Middlewares/Third_Party/LoRaWAN/Mac/region/RegionCN779.c ****     }
 746:../../../../../../Middlewares/Third_Party/LoRaWAN/Mac/region/RegionCN779.c **** 
 747:../../../../../../Middlewares/Third_Party/LoRaWAN/Mac/region/RegionCN779.c ****     return status;
 748:../../../../../../Middlewares/Third_Party/LoRaWAN/Mac/region/RegionCN779.c **** }
 749:../../../../../../Middlewares/Third_Party/LoRaWAN/Mac/region/RegionCN779.c **** 
 750:../../../../../../Middlewares/Third_Party/LoRaWAN/Mac/region/RegionCN779.c **** uint8_t RegionCN779NewChannelReq( NewChannelReqParams_t* newChannelReq )
 751:../../../../../../Middlewares/Third_Party/LoRaWAN/Mac/region/RegionCN779.c **** {
 752:../../../../../../Middlewares/Third_Party/LoRaWAN/Mac/region/RegionCN779.c ****     uint8_t status = 0x03;
 753:../../../../../../Middlewares/Third_Party/LoRaWAN/Mac/region/RegionCN779.c ****     ChannelAddParams_t channelAdd;
 754:../../../../../../Middlewares/Third_Party/LoRaWAN/Mac/region/RegionCN779.c ****     ChannelRemoveParams_t channelRemove;
 755:../../../../../../Middlewares/Third_Party/LoRaWAN/Mac/region/RegionCN779.c **** 
 756:../../../../../../Middlewares/Third_Party/LoRaWAN/Mac/region/RegionCN779.c ****     if( newChannelReq->NewChannel->Frequency == 0 )
 757:../../../../../../Middlewares/Third_Party/LoRaWAN/Mac/region/RegionCN779.c ****     {
 758:../../../../../../Middlewares/Third_Party/LoRaWAN/Mac/region/RegionCN779.c ****         channelRemove.ChannelId = newChannelReq->ChannelId;
 759:../../../../../../Middlewares/Third_Party/LoRaWAN/Mac/region/RegionCN779.c **** 
 760:../../../../../../Middlewares/Third_Party/LoRaWAN/Mac/region/RegionCN779.c ****         // Remove
 761:../../../../../../Middlewares/Third_Party/LoRaWAN/Mac/region/RegionCN779.c ****         if( RegionCN779ChannelsRemove( &channelRemove ) == false )
 762:../../../../../../Middlewares/Third_Party/LoRaWAN/Mac/region/RegionCN779.c ****         {
 763:../../../../../../Middlewares/Third_Party/LoRaWAN/Mac/region/RegionCN779.c ****             status &= 0xFC;
 764:../../../../../../Middlewares/Third_Party/LoRaWAN/Mac/region/RegionCN779.c ****         }
 765:../../../../../../Middlewares/Third_Party/LoRaWAN/Mac/region/RegionCN779.c ****     }
 766:../../../../../../Middlewares/Third_Party/LoRaWAN/Mac/region/RegionCN779.c ****     else
 767:../../../../../../Middlewares/Third_Party/LoRaWAN/Mac/region/RegionCN779.c ****     {
 768:../../../../../../Middlewares/Third_Party/LoRaWAN/Mac/region/RegionCN779.c ****         channelAdd.NewChannel = newChannelReq->NewChannel;
 769:../../../../../../Middlewares/Third_Party/LoRaWAN/Mac/region/RegionCN779.c ****         channelAdd.ChannelId = newChannelReq->ChannelId;
 770:../../../../../../Middlewares/Third_Party/LoRaWAN/Mac/region/RegionCN779.c **** 
 771:../../../../../../Middlewares/Third_Party/LoRaWAN/Mac/region/RegionCN779.c ****         switch( RegionCN779ChannelAdd( &channelAdd ) )
 772:../../../../../../Middlewares/Third_Party/LoRaWAN/Mac/region/RegionCN779.c ****         {
 773:../../../../../../Middlewares/Third_Party/LoRaWAN/Mac/region/RegionCN779.c ****             case LORAMAC_STATUS_OK:
 774:../../../../../../Middlewares/Third_Party/LoRaWAN/Mac/region/RegionCN779.c ****             {
 775:../../../../../../Middlewares/Third_Party/LoRaWAN/Mac/region/RegionCN779.c ****                 break;
 776:../../../../../../Middlewares/Third_Party/LoRaWAN/Mac/region/RegionCN779.c ****             }
 777:../../../../../../Middlewares/Third_Party/LoRaWAN/Mac/region/RegionCN779.c ****             case LORAMAC_STATUS_FREQUENCY_INVALID:
 778:../../../../../../Middlewares/Third_Party/LoRaWAN/Mac/region/RegionCN779.c ****             {
 779:../../../../../../Middlewares/Third_Party/LoRaWAN/Mac/region/RegionCN779.c ****                 status &= 0xFE;
 780:../../../../../../Middlewares/Third_Party/LoRaWAN/Mac/region/RegionCN779.c ****                 break;
 781:../../../../../../Middlewares/Third_Party/LoRaWAN/Mac/region/RegionCN779.c ****             }
 782:../../../../../../Middlewares/Third_Party/LoRaWAN/Mac/region/RegionCN779.c ****             case LORAMAC_STATUS_DATARATE_INVALID:
 783:../../../../../../Middlewares/Third_Party/LoRaWAN/Mac/region/RegionCN779.c ****             {
 784:../../../../../../Middlewares/Third_Party/LoRaWAN/Mac/region/RegionCN779.c ****                 status &= 0xFD;
 785:../../../../../../Middlewares/Third_Party/LoRaWAN/Mac/region/RegionCN779.c ****                 break;
 786:../../../../../../Middlewares/Third_Party/LoRaWAN/Mac/region/RegionCN779.c ****             }
 787:../../../../../../Middlewares/Third_Party/LoRaWAN/Mac/region/RegionCN779.c ****             case LORAMAC_STATUS_FREQ_AND_DR_INVALID:
 788:../../../../../../Middlewares/Third_Party/LoRaWAN/Mac/region/RegionCN779.c ****             {
 789:../../../../../../Middlewares/Third_Party/LoRaWAN/Mac/region/RegionCN779.c ****                 status &= 0xFC;
ARM GAS  C:\Users\EBANO_~1\AppData\Local\Temp\ccKJ5gfE.s 			page 28


 790:../../../../../../Middlewares/Third_Party/LoRaWAN/Mac/region/RegionCN779.c ****                 break;
 791:../../../../../../Middlewares/Third_Party/LoRaWAN/Mac/region/RegionCN779.c ****             }
 792:../../../../../../Middlewares/Third_Party/LoRaWAN/Mac/region/RegionCN779.c ****             default:
 793:../../../../../../Middlewares/Third_Party/LoRaWAN/Mac/region/RegionCN779.c ****             {
 794:../../../../../../Middlewares/Third_Party/LoRaWAN/Mac/region/RegionCN779.c ****                 status &= 0xFC;
 795:../../../../../../Middlewares/Third_Party/LoRaWAN/Mac/region/RegionCN779.c ****                 break;
 796:../../../../../../Middlewares/Third_Party/LoRaWAN/Mac/region/RegionCN779.c ****             }
 797:../../../../../../Middlewares/Third_Party/LoRaWAN/Mac/region/RegionCN779.c ****         }
 798:../../../../../../Middlewares/Third_Party/LoRaWAN/Mac/region/RegionCN779.c ****     }
 799:../../../../../../Middlewares/Third_Party/LoRaWAN/Mac/region/RegionCN779.c **** 
 800:../../../../../../Middlewares/Third_Party/LoRaWAN/Mac/region/RegionCN779.c ****     return status;
 801:../../../../../../Middlewares/Third_Party/LoRaWAN/Mac/region/RegionCN779.c **** }
 802:../../../../../../Middlewares/Third_Party/LoRaWAN/Mac/region/RegionCN779.c **** 
 803:../../../../../../Middlewares/Third_Party/LoRaWAN/Mac/region/RegionCN779.c **** int8_t RegionCN779TxParamSetupReq( TxParamSetupReqParams_t* txParamSetupReq )
 804:../../../../../../Middlewares/Third_Party/LoRaWAN/Mac/region/RegionCN779.c **** {
 805:../../../../../../Middlewares/Third_Party/LoRaWAN/Mac/region/RegionCN779.c ****     return -1;
 806:../../../../../../Middlewares/Third_Party/LoRaWAN/Mac/region/RegionCN779.c **** }
 807:../../../../../../Middlewares/Third_Party/LoRaWAN/Mac/region/RegionCN779.c **** 
 808:../../../../../../Middlewares/Third_Party/LoRaWAN/Mac/region/RegionCN779.c **** uint8_t RegionCN779DlChannelReq( DlChannelReqParams_t* dlChannelReq )
 809:../../../../../../Middlewares/Third_Party/LoRaWAN/Mac/region/RegionCN779.c **** {
 810:../../../../../../Middlewares/Third_Party/LoRaWAN/Mac/region/RegionCN779.c ****     uint8_t status = 0x03;
 811:../../../../../../Middlewares/Third_Party/LoRaWAN/Mac/region/RegionCN779.c **** 
 812:../../../../../../Middlewares/Third_Party/LoRaWAN/Mac/region/RegionCN779.c ****     // Verify if the frequency is supported
 813:../../../../../../Middlewares/Third_Party/LoRaWAN/Mac/region/RegionCN779.c ****     if( VerifyRfFreq( dlChannelReq->Rx1Frequency ) == false )
 814:../../../../../../Middlewares/Third_Party/LoRaWAN/Mac/region/RegionCN779.c ****     {
 815:../../../../../../Middlewares/Third_Party/LoRaWAN/Mac/region/RegionCN779.c ****         status &= 0xFE;
 816:../../../../../../Middlewares/Third_Party/LoRaWAN/Mac/region/RegionCN779.c ****     }
 817:../../../../../../Middlewares/Third_Party/LoRaWAN/Mac/region/RegionCN779.c **** 
 818:../../../../../../Middlewares/Third_Party/LoRaWAN/Mac/region/RegionCN779.c ****     // Verify if an uplink frequency exists
 819:../../../../../../Middlewares/Third_Party/LoRaWAN/Mac/region/RegionCN779.c ****     if( NvmCtx.Channels[dlChannelReq->ChannelId].Frequency == 0 )
 820:../../../../../../Middlewares/Third_Party/LoRaWAN/Mac/region/RegionCN779.c ****     {
 821:../../../../../../Middlewares/Third_Party/LoRaWAN/Mac/region/RegionCN779.c ****         status &= 0xFD;
 822:../../../../../../Middlewares/Third_Party/LoRaWAN/Mac/region/RegionCN779.c ****     }
 823:../../../../../../Middlewares/Third_Party/LoRaWAN/Mac/region/RegionCN779.c **** 
 824:../../../../../../Middlewares/Third_Party/LoRaWAN/Mac/region/RegionCN779.c ****     // Apply Rx1 frequency, if the status is OK
 825:../../../../../../Middlewares/Third_Party/LoRaWAN/Mac/region/RegionCN779.c ****     if( status == 0x03 )
 826:../../../../../../Middlewares/Third_Party/LoRaWAN/Mac/region/RegionCN779.c ****     {
 827:../../../../../../Middlewares/Third_Party/LoRaWAN/Mac/region/RegionCN779.c ****         NvmCtx.Channels[dlChannelReq->ChannelId].Rx1Frequency = dlChannelReq->Rx1Frequency;
 828:../../../../../../Middlewares/Third_Party/LoRaWAN/Mac/region/RegionCN779.c ****     }
 829:../../../../../../Middlewares/Third_Party/LoRaWAN/Mac/region/RegionCN779.c **** 
 830:../../../../../../Middlewares/Third_Party/LoRaWAN/Mac/region/RegionCN779.c ****     return status;
 831:../../../../../../Middlewares/Third_Party/LoRaWAN/Mac/region/RegionCN779.c **** }
 832:../../../../../../Middlewares/Third_Party/LoRaWAN/Mac/region/RegionCN779.c **** 
 833:../../../../../../Middlewares/Third_Party/LoRaWAN/Mac/region/RegionCN779.c **** int8_t RegionCN779AlternateDr( int8_t currentDr, AlternateDrType_t type )
 834:../../../../../../Middlewares/Third_Party/LoRaWAN/Mac/region/RegionCN779.c **** {
 835:../../../../../../Middlewares/Third_Party/LoRaWAN/Mac/region/RegionCN779.c ****     return currentDr;
 836:../../../../../../Middlewares/Third_Party/LoRaWAN/Mac/region/RegionCN779.c **** }
 837:../../../../../../Middlewares/Third_Party/LoRaWAN/Mac/region/RegionCN779.c **** 
 838:../../../../../../Middlewares/Third_Party/LoRaWAN/Mac/region/RegionCN779.c **** void RegionCN779CalcBackOff( CalcBackOffParams_t* calcBackOff )
 839:../../../../../../Middlewares/Third_Party/LoRaWAN/Mac/region/RegionCN779.c **** {
 840:../../../../../../Middlewares/Third_Party/LoRaWAN/Mac/region/RegionCN779.c ****     RegionCommonCalcBackOffParams_t calcBackOffParams;
 841:../../../../../../Middlewares/Third_Party/LoRaWAN/Mac/region/RegionCN779.c **** 
 842:../../../../../../Middlewares/Third_Party/LoRaWAN/Mac/region/RegionCN779.c ****     calcBackOffParams.Channels = NvmCtx.Channels;
 843:../../../../../../Middlewares/Third_Party/LoRaWAN/Mac/region/RegionCN779.c ****     calcBackOffParams.Bands = NvmCtx.Bands;
 844:../../../../../../Middlewares/Third_Party/LoRaWAN/Mac/region/RegionCN779.c ****     calcBackOffParams.LastTxIsJoinRequest = calcBackOff->LastTxIsJoinRequest;
 845:../../../../../../Middlewares/Third_Party/LoRaWAN/Mac/region/RegionCN779.c ****     calcBackOffParams.Joined = calcBackOff->Joined;
 846:../../../../../../Middlewares/Third_Party/LoRaWAN/Mac/region/RegionCN779.c ****     calcBackOffParams.DutyCycleEnabled = calcBackOff->DutyCycleEnabled;
ARM GAS  C:\Users\EBANO_~1\AppData\Local\Temp\ccKJ5gfE.s 			page 29


 847:../../../../../../Middlewares/Third_Party/LoRaWAN/Mac/region/RegionCN779.c ****     calcBackOffParams.Channel = calcBackOff->Channel;
 848:../../../../../../Middlewares/Third_Party/LoRaWAN/Mac/region/RegionCN779.c ****     calcBackOffParams.ElapsedTime = calcBackOff->ElapsedTime;
 849:../../../../../../Middlewares/Third_Party/LoRaWAN/Mac/region/RegionCN779.c ****     calcBackOffParams.TxTimeOnAir = calcBackOff->TxTimeOnAir;
 850:../../../../../../Middlewares/Third_Party/LoRaWAN/Mac/region/RegionCN779.c **** 
 851:../../../../../../Middlewares/Third_Party/LoRaWAN/Mac/region/RegionCN779.c ****     RegionCommonCalcBackOff( &calcBackOffParams );
 852:../../../../../../Middlewares/Third_Party/LoRaWAN/Mac/region/RegionCN779.c **** }
 853:../../../../../../Middlewares/Third_Party/LoRaWAN/Mac/region/RegionCN779.c **** 
 854:../../../../../../Middlewares/Third_Party/LoRaWAN/Mac/region/RegionCN779.c **** LoRaMacStatus_t RegionCN779NextChannel( NextChanParams_t* nextChanParams, uint8_t* channel, TimerTi
 855:../../../../../../Middlewares/Third_Party/LoRaWAN/Mac/region/RegionCN779.c **** {
 856:../../../../../../Middlewares/Third_Party/LoRaWAN/Mac/region/RegionCN779.c ****     uint8_t nbEnabledChannels = 0;
 857:../../../../../../Middlewares/Third_Party/LoRaWAN/Mac/region/RegionCN779.c ****     uint8_t delayTx = 0;
 858:../../../../../../Middlewares/Third_Party/LoRaWAN/Mac/region/RegionCN779.c ****     uint8_t enabledChannels[CN779_MAX_NB_CHANNELS] = { 0 };
 859:../../../../../../Middlewares/Third_Party/LoRaWAN/Mac/region/RegionCN779.c ****     TimerTime_t nextTxDelay = 0;
 860:../../../../../../Middlewares/Third_Party/LoRaWAN/Mac/region/RegionCN779.c **** 
 861:../../../../../../Middlewares/Third_Party/LoRaWAN/Mac/region/RegionCN779.c ****     if( RegionCommonCountChannels( NvmCtx.ChannelsMask, 0, 1 ) == 0 )
 862:../../../../../../Middlewares/Third_Party/LoRaWAN/Mac/region/RegionCN779.c ****     { // Reactivate default channels
 863:../../../../../../Middlewares/Third_Party/LoRaWAN/Mac/region/RegionCN779.c ****         NvmCtx.ChannelsMask[0] |= LC( 1 ) + LC( 2 ) + LC( 3 );
 864:../../../../../../Middlewares/Third_Party/LoRaWAN/Mac/region/RegionCN779.c ****     }
 865:../../../../../../Middlewares/Third_Party/LoRaWAN/Mac/region/RegionCN779.c **** 
 866:../../../../../../Middlewares/Third_Party/LoRaWAN/Mac/region/RegionCN779.c ****     if( nextChanParams->AggrTimeOff <= TimerGetElapsedTime( nextChanParams->LastAggrTx ) )
 867:../../../../../../Middlewares/Third_Party/LoRaWAN/Mac/region/RegionCN779.c ****     {
 868:../../../../../../Middlewares/Third_Party/LoRaWAN/Mac/region/RegionCN779.c ****         // Reset Aggregated time off
 869:../../../../../../Middlewares/Third_Party/LoRaWAN/Mac/region/RegionCN779.c ****         *aggregatedTimeOff = 0;
 870:../../../../../../Middlewares/Third_Party/LoRaWAN/Mac/region/RegionCN779.c **** 
 871:../../../../../../Middlewares/Third_Party/LoRaWAN/Mac/region/RegionCN779.c ****         // Update bands Time OFF
 872:../../../../../../Middlewares/Third_Party/LoRaWAN/Mac/region/RegionCN779.c ****         nextTxDelay = RegionCommonUpdateBandTimeOff( nextChanParams->Joined, nextChanParams->DutyCy
 873:../../../../../../Middlewares/Third_Party/LoRaWAN/Mac/region/RegionCN779.c **** 
 874:../../../../../../Middlewares/Third_Party/LoRaWAN/Mac/region/RegionCN779.c ****         // Search how many channels are enabled
 875:../../../../../../Middlewares/Third_Party/LoRaWAN/Mac/region/RegionCN779.c ****         nbEnabledChannels = CountNbOfEnabledChannels( nextChanParams->Joined, nextChanParams->Datar
 876:../../../../../../Middlewares/Third_Party/LoRaWAN/Mac/region/RegionCN779.c ****                                                       NvmCtx.ChannelsMask, NvmCtx.Channels,
 877:../../../../../../Middlewares/Third_Party/LoRaWAN/Mac/region/RegionCN779.c ****                                                       NvmCtx.Bands, enabledChannels, &delayTx );
 878:../../../../../../Middlewares/Third_Party/LoRaWAN/Mac/region/RegionCN779.c ****     }
 879:../../../../../../Middlewares/Third_Party/LoRaWAN/Mac/region/RegionCN779.c ****     else
 880:../../../../../../Middlewares/Third_Party/LoRaWAN/Mac/region/RegionCN779.c ****     {
 881:../../../../../../Middlewares/Third_Party/LoRaWAN/Mac/region/RegionCN779.c ****         delayTx++;
 882:../../../../../../Middlewares/Third_Party/LoRaWAN/Mac/region/RegionCN779.c ****         nextTxDelay = nextChanParams->AggrTimeOff - TimerGetElapsedTime( nextChanParams->LastAggrTx
 883:../../../../../../Middlewares/Third_Party/LoRaWAN/Mac/region/RegionCN779.c ****     }
 884:../../../../../../Middlewares/Third_Party/LoRaWAN/Mac/region/RegionCN779.c **** 
 885:../../../../../../Middlewares/Third_Party/LoRaWAN/Mac/region/RegionCN779.c ****     if( nbEnabledChannels > 0 )
 886:../../../../../../Middlewares/Third_Party/LoRaWAN/Mac/region/RegionCN779.c ****     {
 887:../../../../../../Middlewares/Third_Party/LoRaWAN/Mac/region/RegionCN779.c ****         // We found a valid channel
 888:../../../../../../Middlewares/Third_Party/LoRaWAN/Mac/region/RegionCN779.c ****         *channel = enabledChannels[randr( 0, nbEnabledChannels - 1 )];
 889:../../../../../../Middlewares/Third_Party/LoRaWAN/Mac/region/RegionCN779.c **** 
 890:../../../../../../Middlewares/Third_Party/LoRaWAN/Mac/region/RegionCN779.c ****         *time = 0;
 891:../../../../../../Middlewares/Third_Party/LoRaWAN/Mac/region/RegionCN779.c ****         return LORAMAC_STATUS_OK;
 892:../../../../../../Middlewares/Third_Party/LoRaWAN/Mac/region/RegionCN779.c ****     }
 893:../../../../../../Middlewares/Third_Party/LoRaWAN/Mac/region/RegionCN779.c ****     else
 894:../../../../../../Middlewares/Third_Party/LoRaWAN/Mac/region/RegionCN779.c ****     {
 895:../../../../../../Middlewares/Third_Party/LoRaWAN/Mac/region/RegionCN779.c ****         if( delayTx > 0 )
 896:../../../../../../Middlewares/Third_Party/LoRaWAN/Mac/region/RegionCN779.c ****         {
 897:../../../../../../Middlewares/Third_Party/LoRaWAN/Mac/region/RegionCN779.c ****             // Delay transmission due to AggregatedTimeOff or to a band time off
 898:../../../../../../Middlewares/Third_Party/LoRaWAN/Mac/region/RegionCN779.c ****             *time = nextTxDelay;
 899:../../../../../../Middlewares/Third_Party/LoRaWAN/Mac/region/RegionCN779.c ****             return LORAMAC_STATUS_DUTYCYCLE_RESTRICTED;
 900:../../../../../../Middlewares/Third_Party/LoRaWAN/Mac/region/RegionCN779.c ****         }
 901:../../../../../../Middlewares/Third_Party/LoRaWAN/Mac/region/RegionCN779.c ****         // Datarate not supported by any channel, restore defaults
 902:../../../../../../Middlewares/Third_Party/LoRaWAN/Mac/region/RegionCN779.c ****         NvmCtx.ChannelsMask[0] |= LC( 1 ) + LC( 2 ) + LC( 3 );
 903:../../../../../../Middlewares/Third_Party/LoRaWAN/Mac/region/RegionCN779.c ****         *time = 0;
ARM GAS  C:\Users\EBANO_~1\AppData\Local\Temp\ccKJ5gfE.s 			page 30


 904:../../../../../../Middlewares/Third_Party/LoRaWAN/Mac/region/RegionCN779.c ****         return LORAMAC_STATUS_NO_CHANNEL_FOUND;
 905:../../../../../../Middlewares/Third_Party/LoRaWAN/Mac/region/RegionCN779.c ****     }
 906:../../../../../../Middlewares/Third_Party/LoRaWAN/Mac/region/RegionCN779.c **** }
 907:../../../../../../Middlewares/Third_Party/LoRaWAN/Mac/region/RegionCN779.c **** 
 908:../../../../../../Middlewares/Third_Party/LoRaWAN/Mac/region/RegionCN779.c **** LoRaMacStatus_t RegionCN779ChannelAdd( ChannelAddParams_t* channelAdd )
 909:../../../../../../Middlewares/Third_Party/LoRaWAN/Mac/region/RegionCN779.c **** {
 910:../../../../../../Middlewares/Third_Party/LoRaWAN/Mac/region/RegionCN779.c ****     bool drInvalid = false;
 911:../../../../../../Middlewares/Third_Party/LoRaWAN/Mac/region/RegionCN779.c ****     bool freqInvalid = false;
 912:../../../../../../Middlewares/Third_Party/LoRaWAN/Mac/region/RegionCN779.c ****     uint8_t id = channelAdd->ChannelId;
 913:../../../../../../Middlewares/Third_Party/LoRaWAN/Mac/region/RegionCN779.c **** 
 914:../../../../../../Middlewares/Third_Party/LoRaWAN/Mac/region/RegionCN779.c ****     if( id < CN779_NUMB_DEFAULT_CHANNELS )
 915:../../../../../../Middlewares/Third_Party/LoRaWAN/Mac/region/RegionCN779.c ****     {
 916:../../../../../../Middlewares/Third_Party/LoRaWAN/Mac/region/RegionCN779.c ****         return LORAMAC_STATUS_FREQ_AND_DR_INVALID;
 917:../../../../../../Middlewares/Third_Party/LoRaWAN/Mac/region/RegionCN779.c ****     }
 918:../../../../../../Middlewares/Third_Party/LoRaWAN/Mac/region/RegionCN779.c **** 
 919:../../../../../../Middlewares/Third_Party/LoRaWAN/Mac/region/RegionCN779.c ****     if( id >= CN779_MAX_NB_CHANNELS )
 920:../../../../../../Middlewares/Third_Party/LoRaWAN/Mac/region/RegionCN779.c ****     {
 921:../../../../../../Middlewares/Third_Party/LoRaWAN/Mac/region/RegionCN779.c ****         return LORAMAC_STATUS_PARAMETER_INVALID;
 922:../../../../../../Middlewares/Third_Party/LoRaWAN/Mac/region/RegionCN779.c ****     }
 923:../../../../../../Middlewares/Third_Party/LoRaWAN/Mac/region/RegionCN779.c **** 
 924:../../../../../../Middlewares/Third_Party/LoRaWAN/Mac/region/RegionCN779.c ****     // Validate the datarate range
 925:../../../../../../Middlewares/Third_Party/LoRaWAN/Mac/region/RegionCN779.c ****     if( RegionCommonValueInRange( channelAdd->NewChannel->DrRange.Fields.Min, CN779_TX_MIN_DATARATE
 926:../../../../../../Middlewares/Third_Party/LoRaWAN/Mac/region/RegionCN779.c ****     {
 927:../../../../../../Middlewares/Third_Party/LoRaWAN/Mac/region/RegionCN779.c ****         drInvalid = true;
 928:../../../../../../Middlewares/Third_Party/LoRaWAN/Mac/region/RegionCN779.c ****     }
 929:../../../../../../Middlewares/Third_Party/LoRaWAN/Mac/region/RegionCN779.c ****     if( RegionCommonValueInRange( channelAdd->NewChannel->DrRange.Fields.Max, CN779_TX_MIN_DATARATE
 930:../../../../../../Middlewares/Third_Party/LoRaWAN/Mac/region/RegionCN779.c ****     {
 931:../../../../../../Middlewares/Third_Party/LoRaWAN/Mac/region/RegionCN779.c ****         drInvalid = true;
 932:../../../../../../Middlewares/Third_Party/LoRaWAN/Mac/region/RegionCN779.c ****     }
 933:../../../../../../Middlewares/Third_Party/LoRaWAN/Mac/region/RegionCN779.c ****     if( channelAdd->NewChannel->DrRange.Fields.Min > channelAdd->NewChannel->DrRange.Fields.Max )
 934:../../../../../../Middlewares/Third_Party/LoRaWAN/Mac/region/RegionCN779.c ****     {
 935:../../../../../../Middlewares/Third_Party/LoRaWAN/Mac/region/RegionCN779.c ****         drInvalid = true;
 936:../../../../../../Middlewares/Third_Party/LoRaWAN/Mac/region/RegionCN779.c ****     }
 937:../../../../../../Middlewares/Third_Party/LoRaWAN/Mac/region/RegionCN779.c **** 
 938:../../../../../../Middlewares/Third_Party/LoRaWAN/Mac/region/RegionCN779.c ****     // Check frequency
 939:../../../../../../Middlewares/Third_Party/LoRaWAN/Mac/region/RegionCN779.c ****     if( freqInvalid == false )
 940:../../../../../../Middlewares/Third_Party/LoRaWAN/Mac/region/RegionCN779.c ****     {
 941:../../../../../../Middlewares/Third_Party/LoRaWAN/Mac/region/RegionCN779.c ****         if( VerifyRfFreq( channelAdd->NewChannel->Frequency ) == false )
 942:../../../../../../Middlewares/Third_Party/LoRaWAN/Mac/region/RegionCN779.c ****         {
 943:../../../../../../Middlewares/Third_Party/LoRaWAN/Mac/region/RegionCN779.c ****             freqInvalid = true;
 944:../../../../../../Middlewares/Third_Party/LoRaWAN/Mac/region/RegionCN779.c ****         }
 945:../../../../../../Middlewares/Third_Party/LoRaWAN/Mac/region/RegionCN779.c ****     }
 946:../../../../../../Middlewares/Third_Party/LoRaWAN/Mac/region/RegionCN779.c **** 
 947:../../../../../../Middlewares/Third_Party/LoRaWAN/Mac/region/RegionCN779.c ****     // Check status
 948:../../../../../../Middlewares/Third_Party/LoRaWAN/Mac/region/RegionCN779.c ****     if( ( drInvalid == true ) && ( freqInvalid == true ) )
 949:../../../../../../Middlewares/Third_Party/LoRaWAN/Mac/region/RegionCN779.c ****     {
 950:../../../../../../Middlewares/Third_Party/LoRaWAN/Mac/region/RegionCN779.c ****         return LORAMAC_STATUS_FREQ_AND_DR_INVALID;
 951:../../../../../../Middlewares/Third_Party/LoRaWAN/Mac/region/RegionCN779.c ****     }
 952:../../../../../../Middlewares/Third_Party/LoRaWAN/Mac/region/RegionCN779.c ****     if( drInvalid == true )
 953:../../../../../../Middlewares/Third_Party/LoRaWAN/Mac/region/RegionCN779.c ****     {
 954:../../../../../../Middlewares/Third_Party/LoRaWAN/Mac/region/RegionCN779.c ****         return LORAMAC_STATUS_DATARATE_INVALID;
 955:../../../../../../Middlewares/Third_Party/LoRaWAN/Mac/region/RegionCN779.c ****     }
 956:../../../../../../Middlewares/Third_Party/LoRaWAN/Mac/region/RegionCN779.c ****     if( freqInvalid == true )
 957:../../../../../../Middlewares/Third_Party/LoRaWAN/Mac/region/RegionCN779.c ****     {
 958:../../../../../../Middlewares/Third_Party/LoRaWAN/Mac/region/RegionCN779.c ****         return LORAMAC_STATUS_FREQUENCY_INVALID;
 959:../../../../../../Middlewares/Third_Party/LoRaWAN/Mac/region/RegionCN779.c ****     }
 960:../../../../../../Middlewares/Third_Party/LoRaWAN/Mac/region/RegionCN779.c **** 
ARM GAS  C:\Users\EBANO_~1\AppData\Local\Temp\ccKJ5gfE.s 			page 31


 961:../../../../../../Middlewares/Third_Party/LoRaWAN/Mac/region/RegionCN779.c ****     memcpy1( ( uint8_t* ) &(NvmCtx.Channels[id]), ( uint8_t* ) channelAdd->NewChannel, sizeof( NvmC
 962:../../../../../../Middlewares/Third_Party/LoRaWAN/Mac/region/RegionCN779.c ****     NvmCtx.Channels[id].Band = 0;
 963:../../../../../../Middlewares/Third_Party/LoRaWAN/Mac/region/RegionCN779.c ****     NvmCtx.ChannelsMask[0] |= ( 1 << id );
 964:../../../../../../Middlewares/Third_Party/LoRaWAN/Mac/region/RegionCN779.c ****     return LORAMAC_STATUS_OK;
 965:../../../../../../Middlewares/Third_Party/LoRaWAN/Mac/region/RegionCN779.c **** }
 966:../../../../../../Middlewares/Third_Party/LoRaWAN/Mac/region/RegionCN779.c **** 
 967:../../../../../../Middlewares/Third_Party/LoRaWAN/Mac/region/RegionCN779.c **** bool RegionCN779ChannelsRemove( ChannelRemoveParams_t* channelRemove  )
 968:../../../../../../Middlewares/Third_Party/LoRaWAN/Mac/region/RegionCN779.c **** {
 969:../../../../../../Middlewares/Third_Party/LoRaWAN/Mac/region/RegionCN779.c ****     uint8_t id = channelRemove->ChannelId;
 970:../../../../../../Middlewares/Third_Party/LoRaWAN/Mac/region/RegionCN779.c **** 
 971:../../../../../../Middlewares/Third_Party/LoRaWAN/Mac/region/RegionCN779.c ****     if( id < CN779_NUMB_DEFAULT_CHANNELS )
 972:../../../../../../Middlewares/Third_Party/LoRaWAN/Mac/region/RegionCN779.c ****     {
 973:../../../../../../Middlewares/Third_Party/LoRaWAN/Mac/region/RegionCN779.c ****         return false;
 974:../../../../../../Middlewares/Third_Party/LoRaWAN/Mac/region/RegionCN779.c ****     }
 975:../../../../../../Middlewares/Third_Party/LoRaWAN/Mac/region/RegionCN779.c **** 
 976:../../../../../../Middlewares/Third_Party/LoRaWAN/Mac/region/RegionCN779.c ****     // Remove the channel from the list of channels
 977:../../../../../../Middlewares/Third_Party/LoRaWAN/Mac/region/RegionCN779.c ****     NvmCtx.Channels[id] = ( ChannelParams_t ){ 0, 0, { 0 }, 0 };
 684              		.loc 1 977 0
 685 0032 3F4B     		ldr	r3, .L77
 686              	.LBE33:
 687              	.LBE32:
 688              	.LBE31:
 689 0034 0126     		movs	r6, #1
 690              	.LBB46:
 691              	.LBB36:
 692              	.LBB34:
 693 0036 9946     		mov	r9, r3
 694 0038 3E4B     		ldr	r3, .L77+4
 695              	.LBE34:
 696              	.LBE36:
 697              	.LBE46:
 698 003a 0325     		movs	r5, #3
 699 003c 9B46     		mov	fp, r3
 700 003e 14E0     		b	.L67
 701              	.LVL39:
 702              	.L61:
 703              	.LBB47:
 467:../../../../../../Middlewares/Third_Party/LoRaWAN/Mac/region/RegionCN779.c ****             newChannel.DrRange.Value = 0;
 704              		.loc 1 467 0
 705 0040 0023     		movs	r3, #0
 706              	.LVL40:
 707 0042 2360     		str	r3, [r4]
 468:../../../../../../Middlewares/Third_Party/LoRaWAN/Mac/region/RegionCN779.c ****             newChannel.Rx1Frequency = 0;
 708              		.loc 1 468 0
 709 0044 2372     		strb	r3, [r4, #8]
 469:../../../../../../Middlewares/Third_Party/LoRaWAN/Mac/region/RegionCN779.c ****         }
 710              		.loc 1 469 0
 711 0046 6360     		str	r3, [r4, #4]
 712              	.L63:
 713              	.LVL41:
 714              	.LBB37:
 715              	.LBB35:
 716              		.loc 1 977 0
 717 0048 6800     		lsls	r0, r5, #1
 718 004a 4019     		adds	r0, r0, r5
 719 004c 8000     		lsls	r0, r0, #2
 720 004e 0C22     		movs	r2, #12
ARM GAS  C:\Users\EBANO_~1\AppData\Local\Temp\ccKJ5gfE.s 			page 32


 721 0050 0021     		movs	r1, #0
 722 0052 4844     		add	r0, r0, r9
 723 0054 FFF7FEFF 		bl	memset
 724              	.LVL42:
 978:../../../../../../Middlewares/Third_Party/LoRaWAN/Mac/region/RegionCN779.c **** 
 979:../../../../../../Middlewares/Third_Party/LoRaWAN/Mac/region/RegionCN779.c ****     return RegionCommonChanDisable( NvmCtx.ChannelsMask, id, CN779_MAX_NB_CHANNELS );
 725              		.loc 1 979 0
 726 0058 1022     		movs	r2, #16
 727 005a 4146     		mov	r1, r8
 728 005c 3648     		ldr	r0, .L77+8
 729 005e FFF7FEFF 		bl	RegionCommonChanDisable
 730              	.LVL43:
 731              	.L65:
 732 0062 0336     		adds	r6, r6, #3
 733              	.LVL44:
 734 0064 0135     		adds	r5, r5, #1
 735              	.LVL45:
 736              	.LBE35:
 737              	.LBE37:
 452:../../../../../../Middlewares/Third_Party/LoRaWAN/Mac/region/RegionCN779.c ****     {
 738              		.loc 1 452 0 discriminator 2
 739 0066 282E     		cmp	r6, #40
 740 0068 D8D0     		beq	.L59
 741              	.L67:
 742 006a EBB2     		uxtb	r3, r5
 743 006c 9846     		mov	r8, r3
 744              	.LVL46:
 454:../../../../../../Middlewares/Third_Party/LoRaWAN/Mac/region/RegionCN779.c ****         {
 745              		.loc 1 454 0
 746 006e 072D     		cmp	r5, #7
 747 0070 E6D8     		bhi	.L61
 457:../../../../../../Middlewares/Third_Party/LoRaWAN/Mac/region/RegionCN779.c ****             newChannel.Frequency |= ( (uint32_t) applyCFList->Payload[i + 1] << 8 );
 748              		.loc 1 457 0
 749 0072 3B68     		ldr	r3, [r7]
 750              	.LVL47:
 751 0074 9A19     		adds	r2, r3, r6
 752 0076 511E     		subs	r1, r2, #1
 753 0078 0978     		ldrb	r1, [r1]
 754 007a 2160     		str	r1, [r4]
 458:../../../../../../Middlewares/Third_Party/LoRaWAN/Mac/region/RegionCN779.c ****             newChannel.Frequency |= ( (uint32_t) applyCFList->Payload[i + 2] << 16 );
 755              		.loc 1 458 0
 756 007c 9B5D     		ldrb	r3, [r3, r6]
 757 007e 1B02     		lsls	r3, r3, #8
 758 0080 0B43     		orrs	r3, r1
 759 0082 2360     		str	r3, [r4]
 459:../../../../../../Middlewares/Third_Party/LoRaWAN/Mac/region/RegionCN779.c ****             newChannel.Frequency *= 100;
 760              		.loc 1 459 0
 761 0084 5278     		ldrb	r2, [r2, #1]
 762 0086 1204     		lsls	r2, r2, #16
 763 0088 1343     		orrs	r3, r2
 460:../../../../../../Middlewares/Third_Party/LoRaWAN/Mac/region/RegionCN779.c **** 
 764              		.loc 1 460 0
 765 008a 6422     		movs	r2, #100
 766 008c 5343     		muls	r3, r2
 463:../../../../../../Middlewares/Third_Party/LoRaWAN/Mac/region/RegionCN779.c ****         }
 767              		.loc 1 463 0
 768 008e 0022     		movs	r2, #0
ARM GAS  C:\Users\EBANO_~1\AppData\Local\Temp\ccKJ5gfE.s 			page 33


 460:../../../../../../Middlewares/Third_Party/LoRaWAN/Mac/region/RegionCN779.c **** 
 769              		.loc 1 460 0
 770 0090 2360     		str	r3, [r4]
 463:../../../../../../Middlewares/Third_Party/LoRaWAN/Mac/region/RegionCN779.c ****         }
 771              		.loc 1 463 0
 772 0092 6260     		str	r2, [r4, #4]
 472:../../../../../../Middlewares/Third_Party/LoRaWAN/Mac/region/RegionCN779.c ****         {
 773              		.loc 1 472 0
 774 0094 002B     		cmp	r3, #0
 775 0096 D7D0     		beq	.L63
 776              	.LVL48:
 777              	.LBB38:
 778              	.LBB39:
 925:../../../../../../Middlewares/Third_Party/LoRaWAN/Mac/region/RegionCN779.c ****     {
 779              		.loc 1 925 0
 780 0098 207A     		ldrb	r0, [r4, #8]
 781 009a 0722     		movs	r2, #7
 782 009c 0007     		lsls	r0, r0, #28
 783 009e 0021     		movs	r1, #0
 784 00a0 0017     		asrs	r0, r0, #28
 785 00a2 FFF7FEFF 		bl	RegionCommonValueInRange
 786              	.LVL49:
 787 00a6 8046     		mov	r8, r0
 788              	.LVL50:
 929:../../../../../../Middlewares/Third_Party/LoRaWAN/Mac/region/RegionCN779.c ****     {
 789              		.loc 1 929 0
 790 00a8 0820     		movs	r0, #8
 791 00aa 2056     		ldrsb	r0, [r4, r0]
 792 00ac 0722     		movs	r2, #7
 793 00ae 0011     		asrs	r0, r0, #4
 794 00b0 0021     		movs	r1, #0
 795 00b2 FFF7FEFF 		bl	RegionCommonValueInRange
 796              	.LVL51:
 931:../../../../../../Middlewares/Third_Party/LoRaWAN/Mac/region/RegionCN779.c ****     }
 797              		.loc 1 931 0
 798 00b6 0123     		movs	r3, #1
 799 00b8 9A46     		mov	r10, r3
 929:../../../../../../Middlewares/Third_Party/LoRaWAN/Mac/region/RegionCN779.c ****     {
 800              		.loc 1 929 0
 801 00ba 0028     		cmp	r0, #0
 802 00bc 04D0     		beq	.L68
 925:../../../../../../Middlewares/Third_Party/LoRaWAN/Mac/region/RegionCN779.c ****     {
 803              		.loc 1 925 0
 804 00be 4346     		mov	r3, r8
 805 00c0 5A42     		rsbs	r2, r3, #0
 806 00c2 5341     		adcs	r3, r3, r2
 807 00c4 DBB2     		uxtb	r3, r3
 808 00c6 9A46     		mov	r10, r3
 809              	.L68:
 810              	.LVL52:
 811 00c8 2368     		ldr	r3, [r4]
 812 00ca 9846     		mov	r8, r3
 813 00cc 5B46     		mov	r3, fp
 814 00ce 9B6A     		ldr	r3, [r3, #40]
 815              	.LBB40:
 816              	.LBB41:
 111:../../../../../../Middlewares/Third_Party/LoRaWAN/Mac/region/RegionCN779.c ****     {
ARM GAS  C:\Users\EBANO_~1\AppData\Local\Temp\ccKJ5gfE.s 			page 34


 817              		.loc 1 111 0
 818 00d0 4046     		mov	r0, r8
 819 00d2 0193     		str	r3, [sp, #4]
 820              	.LBE41:
 821              	.LBE40:
 933:../../../../../../Middlewares/Third_Party/LoRaWAN/Mac/region/RegionCN779.c ****     {
 822              		.loc 1 933 0
 823 00d4 237A     		ldrb	r3, [r4, #8]
 824 00d6 1A07     		lsls	r2, r3, #28
 825 00d8 5BB2     		sxtb	r3, r3
 826 00da 1217     		asrs	r2, r2, #28
 827 00dc 1B11     		asrs	r3, r3, #4
 828 00de 9A42     		cmp	r2, r3
 829 00e0 23DC     		bgt	.L64
 830              	.LVL53:
 831              	.LBB44:
 832              	.LBB42:
 111:../../../../../../Middlewares/Third_Party/LoRaWAN/Mac/region/RegionCN779.c ****     {
 833              		.loc 1 111 0
 834 00e2 019B     		ldr	r3, [sp, #4]
 835 00e4 9847     		blx	r3
 836              	.LVL54:
 837 00e6 0028     		cmp	r0, #0
 838 00e8 BBD0     		beq	.L65
 116:../../../../../../Middlewares/Third_Party/LoRaWAN/Mac/region/RegionCN779.c ****     {
 839              		.loc 1 116 0
 840 00ea 144A     		ldr	r2, .L77+12
 841 00ec 144B     		ldr	r3, .L77+16
 842 00ee 4244     		add	r2, r2, r8
 843 00f0 9A42     		cmp	r2, r3
 844 00f2 B6D8     		bhi	.L65
 845              	.LBE42:
 846              	.LBE44:
 948:../../../../../../Middlewares/Third_Party/LoRaWAN/Mac/region/RegionCN779.c ****     {
 847              		.loc 1 948 0
 848 00f4 5346     		mov	r3, r10
 849 00f6 002B     		cmp	r3, #0
 850 00f8 B3D1     		bne	.L65
 961:../../../../../../Middlewares/Third_Party/LoRaWAN/Mac/region/RegionCN779.c ****     NvmCtx.Channels[id].Band = 0;
 851              		.loc 1 961 0
 852 00fa 0D4B     		ldr	r3, .L77
 853 00fc 6800     		lsls	r0, r5, #1
 854 00fe 9846     		mov	r8, r3
 855 0100 4019     		adds	r0, r0, r5
 856 0102 8000     		lsls	r0, r0, #2
 857 0104 0C22     		movs	r2, #12
 858 0106 2100     		movs	r1, r4
 859 0108 4044     		add	r0, r0, r8
 860 010a FFF7FEFF 		bl	memcpy1
 861              	.LVL55:
 962:../../../../../../Middlewares/Third_Party/LoRaWAN/Mac/region/RegionCN779.c ****     NvmCtx.ChannelsMask[0] |= ( 1 << id );
 862              		.loc 1 962 0
 863 010e 4246     		mov	r2, r8
 864 0110 5146     		mov	r1, r10
 865 0112 B300     		lsls	r3, r6, #2
 866 0114 2933     		adds	r3, r3, #41
 867 0116 D154     		strb	r1, [r2, r3]
ARM GAS  C:\Users\EBANO_~1\AppData\Local\Temp\ccKJ5gfE.s 			page 35


 963:../../../../../../Middlewares/Third_Party/LoRaWAN/Mac/region/RegionCN779.c ****     return LORAMAC_STATUS_OK;
 868              		.loc 1 963 0
 869 0118 0122     		movs	r2, #1
 870 011a D021     		movs	r1, #208
 871 011c 4346     		mov	r3, r8
 872 011e AA40     		lsls	r2, r2, r5
 873 0120 5B5A     		ldrh	r3, [r3, r1]
 874 0122 1343     		orrs	r3, r2
 875 0124 4246     		mov	r2, r8
 876 0126 5352     		strh	r3, [r2, r1]
 877 0128 9BE7     		b	.L65
 878              	.L64:
 879              	.LVL56:
 880              	.LBB45:
 881              	.LBB43:
 111:../../../../../../Middlewares/Third_Party/LoRaWAN/Mac/region/RegionCN779.c ****     {
 882              		.loc 1 111 0
 883 012a 019B     		ldr	r3, [sp, #4]
 884 012c 9847     		blx	r3
 885              	.LVL57:
 886 012e 98E7     		b	.L65
 887              	.L78:
 888              		.align	2
 889              	.L77:
 890 0130 00000000 		.word	NvmCtx
 891 0134 00000000 		.word	Radio
 892 0138 D0000000 		.word	NvmCtx+208
 893 013c 20C689D1 		.word	-779500000
 894 0140 C0CF6A00 		.word	7000000
 895              	.LBE43:
 896              	.LBE45:
 897              	.LBE39:
 898              	.LBE38:
 899              	.LBE47:
 900              		.cfi_endproc
 901              	.LFE49:
 902              		.size	RegionCN779ApplyCFList, .-RegionCN779ApplyCFList
 903              		.section	.text.RegionCN779ChanMaskSet,"ax",%progbits
 904              		.align	1
 905              		.p2align 2,,3
 906              		.global	RegionCN779ChanMaskSet
 907              		.syntax unified
 908              		.code	16
 909              		.thumb_func
 910              		.fpu softvfp
 911              		.type	RegionCN779ChanMaskSet, %function
 912              	RegionCN779ChanMaskSet:
 913              	.LFB50:
 490:../../../../../../Middlewares/Third_Party/LoRaWAN/Mac/region/RegionCN779.c ****     switch( chanMaskSet->ChannelsMaskType )
 914              		.loc 1 490 0
 915              		.cfi_startproc
 916              		@ args = 0, pretend = 0, frame = 0
 917              		@ frame_needed = 0, uses_anonymous_args = 0
 918              	.LVL58:
 919 0000 10B5     		push	{r4, lr}
 920              	.LCFI9:
 921              		.cfi_def_cfa_offset 8
ARM GAS  C:\Users\EBANO_~1\AppData\Local\Temp\ccKJ5gfE.s 			page 36


 922              		.cfi_offset 4, -8
 923              		.cfi_offset 14, -4
 491:../../../../../../Middlewares/Third_Party/LoRaWAN/Mac/region/RegionCN779.c ****     {
 924              		.loc 1 491 0
 925 0002 0379     		ldrb	r3, [r0, #4]
 926 0004 002B     		cmp	r3, #0
 927 0006 0AD0     		beq	.L81
 928 0008 012B     		cmp	r3, #1
 929 000a 01D0     		beq	.L82
 504:../../../../../../Middlewares/Third_Party/LoRaWAN/Mac/region/RegionCN779.c ****     }
 930              		.loc 1 504 0
 931 000c 0020     		movs	r0, #0
 932              	.LVL59:
 933              	.L80:
 507:../../../../../../Middlewares/Third_Party/LoRaWAN/Mac/region/RegionCN779.c **** 
 934              		.loc 1 507 0
 935              		@ sp needed
 936 000e 10BD     		pop	{r4, pc}
 937              	.LVL60:
 938              	.L82:
 500:../../../../../../Middlewares/Third_Party/LoRaWAN/Mac/region/RegionCN779.c ****             break;
 939              		.loc 1 500 0
 940 0010 0168     		ldr	r1, [r0]
 941 0012 0122     		movs	r2, #1
 942 0014 0548     		ldr	r0, .L85
 943              	.LVL61:
 944 0016 FFF7FEFF 		bl	RegionCommonChanMaskCopy
 945              	.LVL62:
 506:../../../../../../Middlewares/Third_Party/LoRaWAN/Mac/region/RegionCN779.c **** }
 946              		.loc 1 506 0
 947 001a 0120     		movs	r0, #1
 501:../../../../../../Middlewares/Third_Party/LoRaWAN/Mac/region/RegionCN779.c ****         }
 948              		.loc 1 501 0
 949 001c F7E7     		b	.L80
 950              	.LVL63:
 951              	.L81:
 495:../../../../../../Middlewares/Third_Party/LoRaWAN/Mac/region/RegionCN779.c ****             break;
 952              		.loc 1 495 0
 953 001e 0168     		ldr	r1, [r0]
 954 0020 0122     		movs	r2, #1
 955 0022 0348     		ldr	r0, .L85+4
 956              	.LVL64:
 957 0024 FFF7FEFF 		bl	RegionCommonChanMaskCopy
 958              	.LVL65:
 506:../../../../../../Middlewares/Third_Party/LoRaWAN/Mac/region/RegionCN779.c **** }
 959              		.loc 1 506 0
 960 0028 0120     		movs	r0, #1
 496:../../../../../../Middlewares/Third_Party/LoRaWAN/Mac/region/RegionCN779.c ****         }
 961              		.loc 1 496 0
 962 002a F0E7     		b	.L80
 963              	.L86:
 964              		.align	2
 965              	.L85:
 966 002c D2000000 		.word	NvmCtx+210
 967 0030 D0000000 		.word	NvmCtx+208
 968              		.cfi_endproc
 969              	.LFE50:
ARM GAS  C:\Users\EBANO_~1\AppData\Local\Temp\ccKJ5gfE.s 			page 37


 970              		.size	RegionCN779ChanMaskSet, .-RegionCN779ChanMaskSet
 971              		.section	.text.RegionCN779ComputeRxWindowParameters,"ax",%progbits
 972              		.align	1
 973              		.p2align 2,,3
 974              		.global	RegionCN779ComputeRxWindowParameters
 975              		.syntax unified
 976              		.code	16
 977              		.thumb_func
 978              		.fpu softvfp
 979              		.type	RegionCN779ComputeRxWindowParameters, %function
 980              	RegionCN779ComputeRxWindowParameters:
 981              	.LFB51:
 510:../../../../../../Middlewares/Third_Party/LoRaWAN/Mac/region/RegionCN779.c ****     double tSymbol = 0.0;
 982              		.loc 1 510 0
 983              		.cfi_startproc
 984              		@ args = 0, pretend = 0, frame = 8
 985              		@ frame_needed = 0, uses_anonymous_args = 0
 986              	.LVL66:
 987 0000 F0B5     		push	{r4, r5, r6, r7, lr}
 988              	.LCFI10:
 989              		.cfi_def_cfa_offset 20
 990              		.cfi_offset 4, -20
 991              		.cfi_offset 5, -16
 992              		.cfi_offset 6, -12
 993              		.cfi_offset 7, -8
 994              		.cfi_offset 14, -4
 995 0002 C646     		mov	lr, r8
 996 0004 00B5     		push	{lr}
 997              	.LCFI11:
 998              		.cfi_def_cfa_offset 24
 999              		.cfi_offset 8, -24
 1000 0006 1C00     		movs	r4, r3
 1001 0008 86B0     		sub	sp, sp, #24
 1002              	.LCFI12:
 1003              		.cfi_def_cfa_offset 48
 510:../../../../../../Middlewares/Third_Party/LoRaWAN/Mac/region/RegionCN779.c ****     double tSymbol = 0.0;
 1004              		.loc 1 510 0
 1005 000a 0D00     		movs	r5, r1
 1006 000c 9046     		mov	r8, r2
 514:../../../../../../Middlewares/Third_Party/LoRaWAN/Mac/region/RegionCN779.c ****     rxConfigParams->Bandwidth = GetBandwidth( rxConfigParams->Datarate );
 1007              		.loc 1 514 0
 1008 000e 031C     		adds	r3, r0, #0
 1009              	.LVL67:
 1010 0010 0728     		cmp	r0, #7
 1011 0012 00DD     		ble	.L88
 1012 0014 0723     		movs	r3, #7
 1013              	.L88:
 1014 0016 5EB2     		sxtb	r6, r3
 1015              	.LBB48:
 1016              	.LBB49:
  86:../../../../../../Middlewares/Third_Party/LoRaWAN/Mac/region/RegionCN779.c ****     {
 1017              		.loc 1 86 0
 1018 0018 1A4A     		ldr	r2, .L96
 1019              	.LVL68:
 1020 001a B100     		lsls	r1, r6, #2
 1021              	.LVL69:
 1022              	.LBE49:
ARM GAS  C:\Users\EBANO_~1\AppData\Local\Temp\ccKJ5gfE.s 			page 38


 1023              	.LBE48:
 514:../../../../../../Middlewares/Third_Party/LoRaWAN/Mac/region/RegionCN779.c ****     rxConfigParams->Bandwidth = GetBandwidth( rxConfigParams->Datarate );
 1024              		.loc 1 514 0
 1025 001c 6370     		strb	r3, [r4, #1]
 1026              	.LVL70:
 1027              	.LBB52:
 1028              	.LBB50:
  86:../../../../../../Middlewares/Third_Party/LoRaWAN/Mac/region/RegionCN779.c ****     {
 1029              		.loc 1 86 0
 1030 001e 1A4F     		ldr	r7, .L96+4
 1031 0020 5358     		ldr	r3, [r2, r1]
 1032 0022 BB42     		cmp	r3, r7
 1033 0024 24D0     		beq	.L94
 1034 0026 194F     		ldr	r7, .L96+8
 1035 0028 BC46     		mov	ip, r7
 1036 002a 6344     		add	r3, r3, ip
 1037 002c 5F42     		rsbs	r7, r3, #0
 1038 002e 7B41     		adcs	r3, r3, r7
 1039 0030 5B00     		lsls	r3, r3, #1
 1040              	.LBE50:
 1041              	.LBE52:
 515:../../../../../../Middlewares/Third_Party/LoRaWAN/Mac/region/RegionCN779.c **** 
 1042              		.loc 1 515 0
 1043 0032 A370     		strb	r3, [r4, #2]
 517:../../../../../../Middlewares/Third_Party/LoRaWAN/Mac/region/RegionCN779.c ****     { // FSK
 1044              		.loc 1 517 0
 1045 0034 0628     		cmp	r0, #6
 1046 0036 1FDC     		bgt	.L95
 1047              	.L92:
 523:../../../../../../Middlewares/Third_Party/LoRaWAN/Mac/region/RegionCN779.c ****     }
 1048              		.loc 1 523 0
 1049 0038 2023     		movs	r3, #32
 1050 003a 5158     		ldr	r1, [r2, r1]
 1051 003c 9219     		adds	r2, r2, r6
 1052 003e D05C     		ldrb	r0, [r2, r3]
 1053              	.LVL71:
 1054 0040 FFF7FEFF 		bl	RegionCommonComputeSymbolTimeLoRa
 1055              	.LVL72:
 1056 0044 0600     		movs	r6, r0
 1057 0046 0F00     		movs	r7, r1
 1058              	.LVL73:
 1059              	.L93:
 526:../../../../../../Middlewares/Third_Party/LoRaWAN/Mac/region/RegionCN779.c **** }
 1060              		.loc 1 526 0
 1061 0048 114B     		ldr	r3, .L96+12
 1062 004a 5B6E     		ldr	r3, [r3, #100]
 1063 004c 0593     		str	r3, [sp, #20]
 1064 004e 9847     		blx	r3
 1065              	.LVL74:
 1066 0050 2300     		movs	r3, r4
 1067 0052 0834     		adds	r4, r4, #8
 1068              	.LVL75:
 1069 0054 0C33     		adds	r3, r3, #12
 1070              	.LVL76:
 1071 0056 0293     		str	r3, [sp, #8]
 1072 0058 0090     		str	r0, [sp]
 1073 005a 0194     		str	r4, [sp, #4]
ARM GAS  C:\Users\EBANO_~1\AppData\Local\Temp\ccKJ5gfE.s 			page 39


 1074 005c 4346     		mov	r3, r8
 1075              	.LVL77:
 1076 005e 2A00     		movs	r2, r5
 1077 0060 3000     		movs	r0, r6
 1078 0062 3900     		movs	r1, r7
 1079 0064 FFF7FEFF 		bl	RegionCommonComputeRxWindowParameters
 1080              	.LVL78:
 527:../../../../../../Middlewares/Third_Party/LoRaWAN/Mac/region/RegionCN779.c **** 
 1081              		.loc 1 527 0
 1082 0068 06B0     		add	sp, sp, #24
 1083              		@ sp needed
 1084              	.LVL79:
 1085              	.LVL80:
 1086              	.LVL81:
 1087 006a 04BC     		pop	{r2}
 1088 006c 9046     		mov	r8, r2
 1089 006e F0BD     		pop	{r4, r5, r6, r7, pc}
 1090              	.LVL82:
 1091              	.L94:
 1092              	.LBB53:
 1093              	.LBB51:
  86:../../../../../../Middlewares/Third_Party/LoRaWAN/Mac/region/RegionCN779.c ****     {
 1094              		.loc 1 86 0
 1095 0070 0123     		movs	r3, #1
 1096              	.LBE51:
 1097              	.LBE53:
 515:../../../../../../Middlewares/Third_Party/LoRaWAN/Mac/region/RegionCN779.c **** 
 1098              		.loc 1 515 0
 1099 0072 A370     		strb	r3, [r4, #2]
 517:../../../../../../Middlewares/Third_Party/LoRaWAN/Mac/region/RegionCN779.c ****     { // FSK
 1100              		.loc 1 517 0
 1101 0074 0628     		cmp	r0, #6
 1102 0076 DFDD     		ble	.L92
 1103              	.L95:
 519:../../../../../../Middlewares/Third_Party/LoRaWAN/Mac/region/RegionCN779.c ****     }
 1104              		.loc 1 519 0
 1105 0078 3220     		movs	r0, #50
 1106              	.LVL83:
 1107 007a FFF7FEFF 		bl	RegionCommonComputeSymbolTimeFsk
 1108              	.LVL84:
 1109 007e 0600     		movs	r6, r0
 1110 0080 0F00     		movs	r7, r1
 1111              	.LVL85:
 1112 0082 E1E7     		b	.L93
 1113              	.L97:
 1114              		.align	2
 1115              	.L96:
 1116 0084 D8000000 		.word	.LANCHOR1
 1117 0088 90D00300 		.word	250000
 1118 008c E05EF8FF 		.word	-500000
 1119 0090 00000000 		.word	Radio
 1120              		.cfi_endproc
 1121              	.LFE51:
 1122              		.size	RegionCN779ComputeRxWindowParameters, .-RegionCN779ComputeRxWindowParameters
 1123              		.section	.text.RegionCN779RxConfig,"ax",%progbits
 1124              		.align	1
 1125              		.p2align 2,,3
ARM GAS  C:\Users\EBANO_~1\AppData\Local\Temp\ccKJ5gfE.s 			page 40


 1126              		.global	RegionCN779RxConfig
 1127              		.syntax unified
 1128              		.code	16
 1129              		.thumb_func
 1130              		.fpu softvfp
 1131              		.type	RegionCN779RxConfig, %function
 1132              	RegionCN779RxConfig:
 1133              	.LFB52:
 530:../../../../../../Middlewares/Third_Party/LoRaWAN/Mac/region/RegionCN779.c ****     RadioModems_t modem;
 1134              		.loc 1 530 0
 1135              		.cfi_startproc
 1136              		@ args = 0, pretend = 0, frame = 8
 1137              		@ frame_needed = 0, uses_anonymous_args = 0
 1138              	.LVL86:
 1139 0000 F0B5     		push	{r4, r5, r6, r7, lr}
 1140              	.LCFI13:
 1141              		.cfi_def_cfa_offset 20
 1142              		.cfi_offset 4, -20
 1143              		.cfi_offset 5, -16
 1144              		.cfi_offset 6, -12
 1145              		.cfi_offset 7, -8
 1146              		.cfi_offset 14, -4
 1147 0002 D646     		mov	lr, r10
 1148 0004 4646     		mov	r6, r8
 1149 0006 4F46     		mov	r7, r9
 1150 0008 C0B5     		push	{r6, r7, lr}
 1151              	.LCFI14:
 1152              		.cfi_def_cfa_offset 32
 1153              		.cfi_offset 8, -32
 1154              		.cfi_offset 9, -28
 1155              		.cfi_offset 10, -24
 532:../../../../../../Middlewares/Third_Party/LoRaWAN/Mac/region/RegionCN779.c ****     uint8_t maxPayload = 0;
 1156              		.loc 1 532 0
 1157 000a 0126     		movs	r6, #1
 535:../../../../../../Middlewares/Third_Party/LoRaWAN/Mac/region/RegionCN779.c **** 
 1158              		.loc 1 535 0
 1159 000c 4368     		ldr	r3, [r0, #4]
 537:../../../../../../Middlewares/Third_Party/LoRaWAN/Mac/region/RegionCN779.c ****     {
 1160              		.loc 1 537 0
 1161 000e 394D     		ldr	r5, .L108
 535:../../../../../../Middlewares/Third_Party/LoRaWAN/Mac/region/RegionCN779.c **** 
 1162              		.loc 1 535 0
 1163 0010 9846     		mov	r8, r3
 537:../../../../../../Middlewares/Third_Party/LoRaWAN/Mac/region/RegionCN779.c ****     {
 1164              		.loc 1 537 0
 1165 0012 EB68     		ldr	r3, [r5, #12]
 530:../../../../../../Middlewares/Third_Party/LoRaWAN/Mac/region/RegionCN779.c ****     RadioModems_t modem;
 1166              		.loc 1 530 0
 1167 0014 8CB0     		sub	sp, sp, #48
 1168              	.LCFI15:
 1169              		.cfi_def_cfa_offset 80
 532:../../../../../../Middlewares/Third_Party/LoRaWAN/Mac/region/RegionCN779.c ****     uint8_t maxPayload = 0;
 1170              		.loc 1 532 0
 1171 0016 8657     		ldrsb	r6, [r0, r6]
 1172              	.LVL87:
 530:../../../../../../Middlewares/Third_Party/LoRaWAN/Mac/region/RegionCN779.c ****     RadioModems_t modem;
 1173              		.loc 1 530 0
ARM GAS  C:\Users\EBANO_~1\AppData\Local\Temp\ccKJ5gfE.s 			page 41


 1174 0018 0400     		movs	r4, r0
 537:../../../../../../Middlewares/Third_Party/LoRaWAN/Mac/region/RegionCN779.c ****     {
 1175              		.loc 1 537 0
 1176 001a 0B93     		str	r3, [sp, #44]
 530:../../../../../../Middlewares/Third_Party/LoRaWAN/Mac/region/RegionCN779.c ****     RadioModems_t modem;
 1177              		.loc 1 530 0
 1178 001c 8A46     		mov	r10, r1
 537:../../../../../../Middlewares/Third_Party/LoRaWAN/Mac/region/RegionCN779.c ****     {
 1179              		.loc 1 537 0
 1180 001e 9847     		blx	r3
 1181              	.LVL88:
 539:../../../../../../Middlewares/Third_Party/LoRaWAN/Mac/region/RegionCN779.c ****     }
 1182              		.loc 1 539 0
 1183 0020 0023     		movs	r3, #0
 537:../../../../../../Middlewares/Third_Party/LoRaWAN/Mac/region/RegionCN779.c ****     {
 1184              		.loc 1 537 0
 1185 0022 0028     		cmp	r0, #0
 1186 0024 3ED1     		bne	.L99
 542:../../../../../../Middlewares/Third_Party/LoRaWAN/Mac/region/RegionCN779.c ****     {
 1187              		.loc 1 542 0
 1188 0026 E37C     		ldrb	r3, [r4, #19]
 1189 0028 002B     		cmp	r3, #0
 1190 002a 0AD1     		bne	.L100
 545:../../../../../../Middlewares/Third_Party/LoRaWAN/Mac/region/RegionCN779.c ****         // Apply the alternative RX 1 window frequency, if it is available
 1191              		.loc 1 545 0
 1192 002c 2178     		ldrb	r1, [r4]
 1193 002e 324A     		ldr	r2, .L108+4
 1194 0030 4B00     		lsls	r3, r1, #1
 1195 0032 5B18     		adds	r3, r3, r1
 1196 0034 9B00     		lsls	r3, r3, #2
 1197 0036 9958     		ldr	r1, [r3, r2]
 1198              	.LVL89:
 547:../../../../../../Middlewares/Third_Party/LoRaWAN/Mac/region/RegionCN779.c ****         {
 1199              		.loc 1 547 0
 1200 0038 D318     		adds	r3, r2, r3
 1201 003a 5B68     		ldr	r3, [r3, #4]
 1202 003c 9846     		mov	r8, r3
 1203 003e 002B     		cmp	r3, #0
 1204 0040 56D0     		beq	.L106
 1205              	.LVL90:
 1206              	.L100:
 554:../../../../../../Middlewares/Third_Party/LoRaWAN/Mac/region/RegionCN779.c **** 
 1207              		.loc 1 554 0
 1208 0042 2022     		movs	r2, #32
 1209 0044 2D4B     		ldr	r3, .L108+8
 556:../../../../../../Middlewares/Third_Party/LoRaWAN/Mac/region/RegionCN779.c **** 
 1210              		.loc 1 556 0
 1211 0046 4046     		mov	r0, r8
 554:../../../../../../Middlewares/Third_Party/LoRaWAN/Mac/region/RegionCN779.c **** 
 1212              		.loc 1 554 0
 1213 0048 9B19     		adds	r3, r3, r6
 1214 004a 9B56     		ldrsb	r3, [r3, r2]
 1215 004c 9946     		mov	r9, r3
 1216              	.LVL91:
 556:../../../../../../Middlewares/Third_Party/LoRaWAN/Mac/region/RegionCN779.c **** 
 1217              		.loc 1 556 0
 1218 004e 6B69     		ldr	r3, [r5, #20]
ARM GAS  C:\Users\EBANO_~1\AppData\Local\Temp\ccKJ5gfE.s 			page 42


 1219 0050 0B93     		str	r3, [sp, #44]
 1220 0052 9847     		blx	r3
 1221              	.LVL92:
 1222 0054 2B6A     		ldr	r3, [r5, #32]
 1223 0056 0B93     		str	r3, [sp, #44]
 1224 0058 1F00     		movs	r7, r3
 559:../../../../../../Middlewares/Third_Party/LoRaWAN/Mac/region/RegionCN779.c ****     {
 1225              		.loc 1 559 0
 1226 005a 072E     		cmp	r6, #7
 1227 005c 2CD0     		beq	.L107
 1228              	.LVL93:
 567:../../../../../../Middlewares/Third_Party/LoRaWAN/Mac/region/RegionCN779.c ****     }
 1229              		.loc 1 567 0
 1230 005e A37C     		ldrb	r3, [r4, #18]
 1231 0060 2289     		ldrh	r2, [r4, #8]
 1232 0062 0993     		str	r3, [sp, #36]
 1233 0064 0123     		movs	r3, #1
 1234 0066 0292     		str	r2, [sp, #8]
 1235 0068 0893     		str	r3, [sp, #32]
 1236 006a 0822     		movs	r2, #8
 1237 006c 0023     		movs	r3, #0
 1238 006e 0192     		str	r2, [sp, #4]
 1239 0070 0793     		str	r3, [sp, #28]
 1240 0072 0693     		str	r3, [sp, #24]
 1241 0074 0593     		str	r3, [sp, #20]
 1242 0076 0493     		str	r3, [sp, #16]
 1243 0078 0393     		str	r3, [sp, #12]
 1244 007a 0093     		str	r3, [sp]
 1245 007c 0120     		movs	r0, #1
 1246 007e A178     		ldrb	r1, [r4, #2]
 1247 0080 0133     		adds	r3, r3, #1
 1248 0082 4A46     		mov	r2, r9
 1249 0084 B847     		blx	r7
 1250              	.LVL94:
 566:../../../../../../Middlewares/Third_Party/LoRaWAN/Mac/region/RegionCN779.c ****         Radio.SetRxConfig( modem, rxConfig->Bandwidth, phyDr, 1, 0, 8, rxConfig->WindowTimeout, fal
 1251              		.loc 1 566 0
 1252 0086 0120     		movs	r0, #1
 1253              	.LVL95:
 1254              	.L102:
 570:../../../../../../Middlewares/Third_Party/LoRaWAN/Mac/region/RegionCN779.c ****     {
 1255              		.loc 1 570 0
 1256 0088 637C     		ldrb	r3, [r4, #17]
 1257 008a 002B     		cmp	r3, #0
 1258 008c 11D0     		beq	.L103
 572:../../../../../../Middlewares/Third_Party/LoRaWAN/Mac/region/RegionCN779.c ****     }
 1259              		.loc 1 572 0
 1260 008e 1C4B     		ldr	r3, .L108+12
 1261 0090 9B19     		adds	r3, r3, r6
 1262 0092 197A     		ldrb	r1, [r3, #8]
 1263              	.LVL96:
 1264              	.L104:
 578:../../../../../../Middlewares/Third_Party/LoRaWAN/Mac/region/RegionCN779.c ****     TVL1( PRINTF( "RX on freq %d Hz at DR %d\n\r", frequency, dr );)
 1265              		.loc 1 578 0
 1266 0094 EB6D     		ldr	r3, [r5, #92]
 1267 0096 0D31     		adds	r1, r1, #13
 1268              	.LVL97:
 1269 0098 C9B2     		uxtb	r1, r1
ARM GAS  C:\Users\EBANO_~1\AppData\Local\Temp\ccKJ5gfE.s 			page 43


 1270 009a 0B93     		str	r3, [sp, #44]
 1271 009c 9847     		blx	r3
 1272              	.LVL98:
 581:../../../../../../Middlewares/Third_Party/LoRaWAN/Mac/region/RegionCN779.c ****     return true;
 1273              		.loc 1 581 0
 1274 009e 5346     		mov	r3, r10
 1275 00a0 1E70     		strb	r6, [r3]
 582:../../../../../../Middlewares/Third_Party/LoRaWAN/Mac/region/RegionCN779.c **** }
 1276              		.loc 1 582 0
 1277 00a2 0123     		movs	r3, #1
 1278              	.LVL99:
 1279              	.L99:
 583:../../../../../../Middlewares/Third_Party/LoRaWAN/Mac/region/RegionCN779.c **** 
 1280              		.loc 1 583 0
 1281 00a4 1800     		movs	r0, r3
 1282 00a6 0CB0     		add	sp, sp, #48
 1283              		@ sp needed
 1284              	.LVL100:
 1285              	.LVL101:
 1286              	.LVL102:
 1287              	.LVL103:
 1288 00a8 1CBC     		pop	{r2, r3, r4}
 1289 00aa 9046     		mov	r8, r2
 1290 00ac 9946     		mov	r9, r3
 1291 00ae A246     		mov	r10, r4
 1292 00b0 F0BD     		pop	{r4, r5, r6, r7, pc}
 1293              	.LVL104:
 1294              	.L103:
 576:../../../../../../Middlewares/Third_Party/LoRaWAN/Mac/region/RegionCN779.c ****     }
 1295              		.loc 1 576 0
 1296 00b2 134B     		ldr	r3, .L108+12
 1297 00b4 995D     		ldrb	r1, [r3, r6]
 1298              	.LVL105:
 1299 00b6 EDE7     		b	.L104
 1300              	.LVL106:
 1301              	.L107:
 562:../../../../../../Middlewares/Third_Party/LoRaWAN/Mac/region/RegionCN779.c ****     }
 1302              		.loc 1 562 0
 1303 00b8 4B46     		mov	r3, r9
 1304 00ba 5A01     		lsls	r2, r3, #5
 1305 00bc D21A     		subs	r2, r2, r3
 1306 00be A37C     		ldrb	r3, [r4, #18]
 1307 00c0 0121     		movs	r1, #1
 1308 00c2 0993     		str	r3, [sp, #36]
 1309 00c4 0023     		movs	r3, #0
 1310 00c6 0893     		str	r3, [sp, #32]
 1311 00c8 0793     		str	r3, [sp, #28]
 1312 00ca 0693     		str	r3, [sp, #24]
 1313 00cc 0493     		str	r3, [sp, #16]
 1314 00ce 0393     		str	r3, [sp, #12]
 1315 00d0 2389     		ldrh	r3, [r4, #8]
 1316 00d2 9200     		lsls	r2, r2, #2
 1317 00d4 0293     		str	r3, [sp, #8]
 1318 00d6 0523     		movs	r3, #5
 1319 00d8 0193     		str	r3, [sp, #4]
 1320 00da 0A4B     		ldr	r3, .L108+16
 1321 00dc 4A44     		add	r2, r2, r9
ARM GAS  C:\Users\EBANO_~1\AppData\Local\Temp\ccKJ5gfE.s 			page 44


 1322 00de 0591     		str	r1, [sp, #20]
 1323 00e0 0093     		str	r3, [sp]
 1324 00e2 0020     		movs	r0, #0
 1325 00e4 D200     		lsls	r2, r2, #3
 1326 00e6 0023     		movs	r3, #0
 1327 00e8 0749     		ldr	r1, .L108+20
 1328 00ea B847     		blx	r7
 1329              	.LVL107:
 561:../../../../../../Middlewares/Third_Party/LoRaWAN/Mac/region/RegionCN779.c ****         Radio.SetRxConfig( modem, 50000, phyDr * 1000, 0, 83333, 5, rxConfig->WindowTimeout, false,
 1330              		.loc 1 561 0
 1331 00ec 0020     		movs	r0, #0
 1332 00ee CBE7     		b	.L102
 1333              	.LVL108:
 1334              	.L106:
 545:../../../../../../Middlewares/Third_Party/LoRaWAN/Mac/region/RegionCN779.c ****         // Apply the alternative RX 1 window frequency, if it is available
 1335              		.loc 1 545 0
 1336 00f0 8846     		mov	r8, r1
 1337 00f2 A6E7     		b	.L100
 1338              	.L109:
 1339              		.align	2
 1340              	.L108:
 1341 00f4 00000000 		.word	Radio
 1342 00f8 00000000 		.word	NvmCtx
 1343 00fc D8000000 		.word	.LANCHOR1
 1344 0100 00010000 		.word	.LANCHOR0
 1345 0104 85450100 		.word	83333
 1346 0108 50C30000 		.word	50000
 1347              		.cfi_endproc
 1348              	.LFE52:
 1349              		.size	RegionCN779RxConfig, .-RegionCN779RxConfig
 1350              		.section	.text.RegionCN779TxConfig,"ax",%progbits
 1351              		.align	1
 1352              		.p2align 2,,3
 1353              		.global	RegionCN779TxConfig
 1354              		.syntax unified
 1355              		.code	16
 1356              		.thumb_func
 1357              		.fpu softvfp
 1358              		.type	RegionCN779TxConfig, %function
 1359              	RegionCN779TxConfig:
 1360              	.LFB53:
 586:../../../../../../Middlewares/Third_Party/LoRaWAN/Mac/region/RegionCN779.c ****     RadioModems_t modem;
 1361              		.loc 1 586 0
 1362              		.cfi_startproc
 1363              		@ args = 0, pretend = 0, frame = 8
 1364              		@ frame_needed = 0, uses_anonymous_args = 0
 1365              	.LVL109:
 1366 0000 F0B5     		push	{r4, r5, r6, r7, lr}
 1367              	.LCFI16:
 1368              		.cfi_def_cfa_offset 20
 1369              		.cfi_offset 4, -20
 1370              		.cfi_offset 5, -16
 1371              		.cfi_offset 6, -12
 1372              		.cfi_offset 7, -8
 1373              		.cfi_offset 14, -4
 1374 0002 4546     		mov	r5, r8
 1375 0004 5746     		mov	r7, r10
ARM GAS  C:\Users\EBANO_~1\AppData\Local\Temp\ccKJ5gfE.s 			page 45


 1376 0006 4E46     		mov	r6, r9
 1377 0008 DE46     		mov	lr, fp
 1378 000a 9046     		mov	r8, r2
 588:../../../../../../Middlewares/Third_Party/LoRaWAN/Mac/region/RegionCN779.c ****     int8_t txPowerLimited = LimitTxPower( txConfig->TxPower, NvmCtx.Bands[NvmCtx.Channels[txConfig-
 1379              		.loc 1 588 0
 1380 000c 0122     		movs	r2, #1
 1381              	.LVL110:
 586:../../../../../../Middlewares/Third_Party/LoRaWAN/Mac/region/RegionCN779.c ****     RadioModems_t modem;
 1382              		.loc 1 586 0
 1383 000e 0400     		movs	r4, r0
 588:../../../../../../Middlewares/Third_Party/LoRaWAN/Mac/region/RegionCN779.c ****     int8_t txPowerLimited = LimitTxPower( txConfig->TxPower, NvmCtx.Bands[NvmCtx.Channels[txConfig-
 1384              		.loc 1 588 0
 1385 0010 2023     		movs	r3, #32
 586:../../../../../../Middlewares/Third_Party/LoRaWAN/Mac/region/RegionCN779.c ****     RadioModems_t modem;
 1386              		.loc 1 586 0
 1387 0012 E0B5     		push	{r5, r6, r7, lr}
 1388              	.LCFI17:
 1389              		.cfi_def_cfa_offset 36
 1390              		.cfi_offset 8, -36
 1391              		.cfi_offset 9, -32
 1392              		.cfi_offset 10, -28
 1393              		.cfi_offset 11, -24
 1394 0014 8DB0     		sub	sp, sp, #52
 1395              	.LCFI18:
 1396              		.cfi_def_cfa_offset 88
 586:../../../../../../Middlewares/Third_Party/LoRaWAN/Mac/region/RegionCN779.c ****     RadioModems_t modem;
 1397              		.loc 1 586 0
 1398 0016 0A91     		str	r1, [sp, #40]
 588:../../../../../../Middlewares/Third_Party/LoRaWAN/Mac/region/RegionCN779.c ****     int8_t txPowerLimited = LimitTxPower( txConfig->TxPower, NvmCtx.Bands[NvmCtx.Channels[txConfig-
 1399              		.loc 1 588 0
 1400 0018 8256     		ldrsb	r2, [r0, r2]
 1401 001a 4149     		ldr	r1, .L119
 1402              	.LVL111:
 589:../../../../../../Middlewares/Third_Party/LoRaWAN/Mac/region/RegionCN779.c ****     uint32_t bandwidth = GetBandwidth( txConfig->Datarate );
 1403              		.loc 1 589 0
 1404 001c 414D     		ldr	r5, .L119+4
 588:../../../../../../Middlewares/Third_Party/LoRaWAN/Mac/region/RegionCN779.c ****     int8_t txPowerLimited = LimitTxPower( txConfig->TxPower, NvmCtx.Bands[NvmCtx.Channels[txConfig-
 1405              		.loc 1 588 0
 1406 001e 8818     		adds	r0, r1, r2
 1407              	.LVL112:
 1408 0020 C656     		ldrsb	r6, [r0, r3]
 1409              	.LVL113:
 589:../../../../../../Middlewares/Third_Party/LoRaWAN/Mac/region/RegionCN779.c ****     uint32_t bandwidth = GetBandwidth( txConfig->Datarate );
 1410              		.loc 1 589 0
 1411 0022 2078     		ldrb	r0, [r4]
 1412              	.LVL114:
 1413 0024 4300     		lsls	r3, r0, #1
 1414 0026 1B18     		adds	r3, r3, r0
 1415              	.LBB54:
 1416              	.LBB55:
 103:../../../../../../Middlewares/Third_Party/LoRaWAN/Mac/region/RegionCN779.c **** 
 1417              		.loc 1 103 0
 1418 0028 A078     		ldrb	r0, [r4, #2]
 1419              	.LVL115:
 1420              	.LBE55:
 1421              	.LBE54:
 589:../../../../../../Middlewares/Third_Party/LoRaWAN/Mac/region/RegionCN779.c ****     uint32_t bandwidth = GetBandwidth( txConfig->Datarate );
ARM GAS  C:\Users\EBANO_~1\AppData\Local\Temp\ccKJ5gfE.s 			page 46


 1422              		.loc 1 589 0
 1423 002a 9B00     		lsls	r3, r3, #2
 1424              	.LBB60:
 1425              	.LBB56:
 103:../../../../../../Middlewares/Third_Party/LoRaWAN/Mac/region/RegionCN779.c **** 
 1426              		.loc 1 103 0
 1427 002c 8446     		mov	ip, r0
 1428 002e 6746     		mov	r7, ip
 1429              	.LBE56:
 1430              	.LBE60:
 589:../../../../../../Middlewares/Third_Party/LoRaWAN/Mac/region/RegionCN779.c ****     uint32_t bandwidth = GetBandwidth( txConfig->Datarate );
 1431              		.loc 1 589 0
 1432 0030 EB18     		adds	r3, r5, r3
 1433 0032 5B7A     		ldrb	r3, [r3, #9]
 1434              	.LBB61:
 1435              	.LBB57:
 103:../../../../../../Middlewares/Third_Party/LoRaWAN/Mac/region/RegionCN779.c **** 
 1436              		.loc 1 103 0
 1437 0034 7FB2     		sxtb	r7, r7
 1438              	.LBE57:
 1439              	.LBE61:
 589:../../../../../../Middlewares/Third_Party/LoRaWAN/Mac/region/RegionCN779.c ****     uint32_t bandwidth = GetBandwidth( txConfig->Datarate );
 1440              		.loc 1 589 0
 1441 0036 0C33     		adds	r3, r3, #12
 1442 0038 1B01     		lsls	r3, r3, #4
 1443 003a EB18     		adds	r3, r5, r3
 1444              	.LBB62:
 1445              	.LBB58:
 103:../../../../../../Middlewares/Third_Party/LoRaWAN/Mac/region/RegionCN779.c **** 
 1446              		.loc 1 103 0
 1447 003c 9B78     		ldrb	r3, [r3, #2]
 1448 003e 181C     		adds	r0, r3, #0
 1449 0040 5BB2     		sxtb	r3, r3
 1450 0042 BB42     		cmp	r3, r7
 1451 0044 00DA     		bge	.L111
 1452 0046 6046     		mov	r0, ip
 1453              	.L111:
 1454 0048 43B2     		sxtb	r3, r0
 1455              	.LBE58:
 1456              	.LBE62:
 1457              	.LBB63:
 1458              	.LBB64:
  86:../../../../../../Middlewares/Third_Party/LoRaWAN/Mac/region/RegionCN779.c ****     {
 1459              		.loc 1 86 0
 1460 004a 9200     		lsls	r2, r2, #2
 1461              	.LVL116:
 1462              	.LBE64:
 1463              	.LBE63:
 1464              	.LBB67:
 1465              	.LBB59:
 103:../../../../../../Middlewares/Third_Party/LoRaWAN/Mac/region/RegionCN779.c **** 
 1466              		.loc 1 103 0
 1467 004c 9946     		mov	r9, r3
 1468              	.LVL117:
 1469              	.LBE59:
 1470              	.LBE67:
 1471              	.LBB68:
ARM GAS  C:\Users\EBANO_~1\AppData\Local\Temp\ccKJ5gfE.s 			page 47


 1472              	.LBB65:
  86:../../../../../../Middlewares/Third_Party/LoRaWAN/Mac/region/RegionCN779.c ****     {
 1473              		.loc 1 86 0
 1474 004e 8B58     		ldr	r3, [r1, r2]
 1475 0050 354A     		ldr	r2, .L119+8
 1476 0052 9342     		cmp	r3, r2
 1477 0054 46D0     		beq	.L117
  90:../../../../../../Middlewares/Third_Party/LoRaWAN/Mac/region/RegionCN779.c ****         case 250000:
 1478              		.loc 1 90 0
 1479 0056 354A     		ldr	r2, .L119+12
 1480 0058 9446     		mov	ip, r2
 1481 005a 6344     		add	r3, r3, ip
 1482 005c 5A42     		rsbs	r2, r3, #0
 1483 005e 5341     		adcs	r3, r3, r2
 1484 0060 5B00     		lsls	r3, r3, #1
 1485 0062 9A46     		mov	r10, r3
 1486              	.L113:
 1487              	.LVL118:
 1488              	.LBE65:
 1489              	.LBE68:
 594:../../../../../../Middlewares/Third_Party/LoRaWAN/Mac/region/RegionCN779.c **** 
 1490              		.loc 1 594 0
 1491 0064 A268     		ldr	r2, [r4, #8]
 1492 0066 6168     		ldr	r1, [r4, #4]
 1493 0068 4846     		mov	r0, r9
 1494 006a FFF7FEFF 		bl	RegionCommonComputeTxPower
 1495              	.LVL119:
 597:../../../../../../Middlewares/Third_Party/LoRaWAN/Mac/region/RegionCN779.c **** 
 1496              		.loc 1 597 0
 1497 006e 2278     		ldrb	r2, [r4]
 594:../../../../../../Middlewares/Third_Party/LoRaWAN/Mac/region/RegionCN779.c **** 
 1498              		.loc 1 594 0
 1499 0070 8346     		mov	fp, r0
 1500              	.LVL120:
 597:../../../../../../Middlewares/Third_Party/LoRaWAN/Mac/region/RegionCN779.c **** 
 1501              		.loc 1 597 0
 1502 0072 5300     		lsls	r3, r2, #1
 1503 0074 9B18     		adds	r3, r3, r2
 1504 0076 9B00     		lsls	r3, r3, #2
 1505 0078 E858     		ldr	r0, [r5, r3]
 1506 007a 2D4D     		ldr	r5, .L119+16
 1507 007c 6B69     		ldr	r3, [r5, #20]
 1508 007e 0B93     		str	r3, [sp, #44]
 1509 0080 9847     		blx	r3
 1510              	.LVL121:
 1511 0082 6B6A     		ldr	r3, [r5, #36]
 1512 0084 0B93     		str	r3, [sp, #44]
 599:../../../../../../Middlewares/Third_Party/LoRaWAN/Mac/region/RegionCN779.c ****     { // High Speed FSK channel
 1513              		.loc 1 599 0
 1514 0086 0123     		movs	r3, #1
 1515 0088 E356     		ldrsb	r3, [r4, r3]
 1516 008a 072B     		cmp	r3, #7
 1517 008c 2DD0     		beq	.L118
 1518              	.LVL122:
 607:../../../../../../Middlewares/Third_Party/LoRaWAN/Mac/region/RegionCN779.c ****     }
 1519              		.loc 1 607 0
 1520 008e 294B     		ldr	r3, .L119+20
ARM GAS  C:\Users\EBANO_~1\AppData\Local\Temp\ccKJ5gfE.s 			page 48


 1521 0090 0122     		movs	r2, #1
 1522 0092 0893     		str	r3, [sp, #32]
 1523 0094 0023     		movs	r3, #0
 1524 0096 0793     		str	r3, [sp, #28]
 1525 0098 0693     		str	r3, [sp, #24]
 1526 009a 0593     		str	r3, [sp, #20]
 1527 009c 0393     		str	r3, [sp, #12]
 1528 009e 0833     		adds	r3, r3, #8
 1529 00a0 0492     		str	r2, [sp, #16]
 1530 00a2 0293     		str	r3, [sp, #8]
 1531 00a4 0192     		str	r2, [sp, #4]
 1532 00a6 0096     		str	r6, [sp]
 1533 00a8 5346     		mov	r3, r10
 1534 00aa 0B9E     		ldr	r6, [sp, #44]
 1535              	.LVL123:
 1536 00ac 0022     		movs	r2, #0
 1537 00ae 5946     		mov	r1, fp
 1538 00b0 0120     		movs	r0, #1
 1539 00b2 B047     		blx	r6
 1540              	.LVL124:
 606:../../../../../../Middlewares/Third_Party/LoRaWAN/Mac/region/RegionCN779.c ****         Radio.SetTxConfig( modem, phyTxPower, 0, bandwidth, phyDr, 1, 8, false, true, 0, 0, false, 
 1541              		.loc 1 606 0
 1542 00b4 0126     		movs	r6, #1
 1543              	.LVL125:
 1544              	.L116:
 612:../../../../../../Middlewares/Third_Party/LoRaWAN/Mac/region/RegionCN779.c ****     // Get the time-on-air of the next tx frame
 1545              		.loc 1 612 0
 1546 00b6 EB6D     		ldr	r3, [r5, #92]
 1547 00b8 217B     		ldrb	r1, [r4, #12]
 1548 00ba 3000     		movs	r0, r6
 1549 00bc 0B93     		str	r3, [sp, #44]
 1550 00be 9847     		blx	r3
 1551              	.LVL126:
 614:../../../../../../Middlewares/Third_Party/LoRaWAN/Mac/region/RegionCN779.c **** 
 1552              		.loc 1 614 0
 1553 00c0 EB6A     		ldr	r3, [r5, #44]
 1554 00c2 217B     		ldrb	r1, [r4, #12]
 1555 00c4 3000     		movs	r0, r6
 1556 00c6 0B93     		str	r3, [sp, #44]
 1557 00c8 9847     		blx	r3
 1558              	.LVL127:
 1559 00ca 4346     		mov	r3, r8
 1560 00cc 1860     		str	r0, [r3]
 616:../../../../../../Middlewares/Third_Party/LoRaWAN/Mac/region/RegionCN779.c ****     return true;
 1561              		.loc 1 616 0
 1562 00ce 4B46     		mov	r3, r9
 618:../../../../../../Middlewares/Third_Party/LoRaWAN/Mac/region/RegionCN779.c **** 
 1563              		.loc 1 618 0
 1564 00d0 0120     		movs	r0, #1
 616:../../../../../../Middlewares/Third_Party/LoRaWAN/Mac/region/RegionCN779.c ****     return true;
 1565              		.loc 1 616 0
 1566 00d2 0A9A     		ldr	r2, [sp, #40]
 1567 00d4 1370     		strb	r3, [r2]
 618:../../../../../../Middlewares/Third_Party/LoRaWAN/Mac/region/RegionCN779.c **** 
 1568              		.loc 1 618 0
 1569 00d6 0DB0     		add	sp, sp, #52
 1570              		@ sp needed
ARM GAS  C:\Users\EBANO_~1\AppData\Local\Temp\ccKJ5gfE.s 			page 49


 1571              	.LVL128:
 1572              	.LVL129:
 1573              	.LVL130:
 1574              	.LVL131:
 1575 00d8 3CBC     		pop	{r2, r3, r4, r5}
 1576 00da 9046     		mov	r8, r2
 1577 00dc 9946     		mov	r9, r3
 1578 00de A246     		mov	r10, r4
 1579 00e0 AB46     		mov	fp, r5
 1580 00e2 F0BD     		pop	{r4, r5, r6, r7, pc}
 1581              	.LVL132:
 1582              	.L117:
 1583              	.LBB69:
 1584              	.LBB66:
  92:../../../../../../Middlewares/Third_Party/LoRaWAN/Mac/region/RegionCN779.c ****         case 500000:
 1585              		.loc 1 92 0
 1586 00e4 0123     		movs	r3, #1
 1587              	.LVL133:
 1588 00e6 9A46     		mov	r10, r3
 1589 00e8 BCE7     		b	.L113
 1590              	.LVL134:
 1591              	.L118:
 1592              	.LBE66:
 1593              	.LBE69:
 602:../../../../../../Middlewares/Third_Party/LoRaWAN/Mac/region/RegionCN779.c ****     }
 1594              		.loc 1 602 0
 1595 00ea 124B     		ldr	r3, .L119+20
 1596 00ec 0122     		movs	r2, #1
 1597 00ee 0893     		str	r3, [sp, #32]
 1598 00f0 0023     		movs	r3, #0
 1599 00f2 0793     		str	r3, [sp, #28]
 1600 00f4 0693     		str	r3, [sp, #24]
 1601 00f6 0593     		str	r3, [sp, #20]
 1602 00f8 0393     		str	r3, [sp, #12]
 1603 00fa 0193     		str	r3, [sp, #4]
 1604 00fc 7301     		lsls	r3, r6, #5
 1605 00fe 9B1B     		subs	r3, r3, r6
 1606 0100 9B00     		lsls	r3, r3, #2
 1607 0102 9E19     		adds	r6, r3, r6
 1608              	.LVL135:
 1609 0104 0492     		str	r2, [sp, #16]
 1610 0106 F600     		lsls	r6, r6, #3
 1611 0108 0432     		adds	r2, r2, #4
 1612 010a 0292     		str	r2, [sp, #8]
 1613 010c 0096     		str	r6, [sp]
 1614 010e 5346     		mov	r3, r10
 1615 0110 0B9E     		ldr	r6, [sp, #44]
 1616 0112 094A     		ldr	r2, .L119+24
 1617 0114 5946     		mov	r1, fp
 1618 0116 0020     		movs	r0, #0
 1619 0118 B047     		blx	r6
 1620              	.LVL136:
 601:../../../../../../Middlewares/Third_Party/LoRaWAN/Mac/region/RegionCN779.c ****         Radio.SetTxConfig( modem, phyTxPower, 25000, bandwidth, phyDr * 1000, 0, 5, false, true, 0,
 1621              		.loc 1 601 0
 1622 011a 0026     		movs	r6, #0
 1623 011c CBE7     		b	.L116
 1624              	.L120:
ARM GAS  C:\Users\EBANO_~1\AppData\Local\Temp\ccKJ5gfE.s 			page 50


 1625 011e C046     		.align	2
 1626              	.L119:
 1627 0120 D8000000 		.word	.LANCHOR1
 1628 0124 00000000 		.word	NvmCtx
 1629 0128 90D00300 		.word	250000
 1630 012c E05EF8FF 		.word	-500000
 1631 0130 00000000 		.word	Radio
 1632 0134 B80B0000 		.word	3000
 1633 0138 A8610000 		.word	25000
 1634              		.cfi_endproc
 1635              	.LFE53:
 1636              		.size	RegionCN779TxConfig, .-RegionCN779TxConfig
 1637              		.section	.text.RegionCN779LinkAdrReq,"ax",%progbits
 1638              		.align	1
 1639              		.p2align 2,,3
 1640              		.global	RegionCN779LinkAdrReq
 1641              		.syntax unified
 1642              		.code	16
 1643              		.thumb_func
 1644              		.fpu softvfp
 1645              		.type	RegionCN779LinkAdrReq, %function
 1646              	RegionCN779LinkAdrReq:
 1647              	.LFB54:
 621:../../../../../../Middlewares/Third_Party/LoRaWAN/Mac/region/RegionCN779.c ****     uint8_t status = 0x07;
 1648              		.loc 1 621 0
 1649              		.cfi_startproc
 1650              		@ args = 4, pretend = 0, frame = 56
 1651              		@ frame_needed = 0, uses_anonymous_args = 0
 1652              	.LVL137:
 1653 0000 F0B5     		push	{r4, r5, r6, r7, lr}
 1654              	.LCFI19:
 1655              		.cfi_def_cfa_offset 20
 1656              		.cfi_offset 4, -20
 1657              		.cfi_offset 5, -16
 1658              		.cfi_offset 6, -12
 1659              		.cfi_offset 7, -8
 1660              		.cfi_offset 14, -4
 1661 0002 5746     		mov	r7, r10
 1662 0004 4E46     		mov	r6, r9
 1663 0006 4546     		mov	r5, r8
 1664 0008 DE46     		mov	lr, fp
 1665 000a E0B5     		push	{r5, r6, r7, lr}
 1666              	.LCFI20:
 1667              		.cfi_def_cfa_offset 36
 1668              		.cfi_offset 8, -36
 1669              		.cfi_offset 9, -32
 1670              		.cfi_offset 10, -28
 1671              		.cfi_offset 11, -24
 1672 000c 8FB0     		sub	sp, sp, #60
 1673              	.LCFI21:
 1674              		.cfi_def_cfa_offset 96
 621:../../../../../../Middlewares/Third_Party/LoRaWAN/Mac/region/RegionCN779.c ****     uint8_t status = 0x07;
 1675              		.loc 1 621 0
 1676 000e 0193     		str	r3, [sp, #4]
 626:../../../../../../Middlewares/Third_Party/LoRaWAN/Mac/region/RegionCN779.c ****     GetPhyParams_t getPhy;
 1677              		.loc 1 626 0
 1678 0010 0023     		movs	r3, #0
ARM GAS  C:\Users\EBANO_~1\AppData\Local\Temp\ccKJ5gfE.s 			page 51


 1679              	.LVL138:
 621:../../../../../../Middlewares/Third_Party/LoRaWAN/Mac/region/RegionCN779.c ****     uint8_t status = 0x07;
 1680              		.loc 1 621 0
 1681 0012 9246     		mov	r10, r2
 626:../../../../../../Middlewares/Third_Party/LoRaWAN/Mac/region/RegionCN779.c ****     GetPhyParams_t getPhy;
 1682              		.loc 1 626 0
 1683 0014 02AA     		add	r2, sp, #8
 1684              	.LVL139:
 1685 0016 D380     		strh	r3, [r2, #6]
 622:../../../../../../Middlewares/Third_Party/LoRaWAN/Mac/region/RegionCN779.c ****     RegionCommonLinkAdrParams_t linkAdrParams;
 1686              		.loc 1 622 0
 1687 0018 0733     		adds	r3, r3, #7
 621:../../../../../../Middlewares/Third_Party/LoRaWAN/Mac/region/RegionCN779.c ****     uint8_t status = 0x07;
 1688              		.loc 1 621 0
 1689 001a 0600     		movs	r6, r0
 1690 001c 8B46     		mov	fp, r1
 625:../../../../../../Middlewares/Third_Party/LoRaWAN/Mac/region/RegionCN779.c ****     uint16_t chMask = 0;
 1691              		.loc 1 625 0
 1692 001e 0024     		movs	r4, #0
 622:../../../../../../Middlewares/Third_Party/LoRaWAN/Mac/region/RegionCN779.c ****     RegionCommonLinkAdrParams_t linkAdrParams;
 1693              		.loc 1 622 0
 1694 0020 9946     		mov	r9, r3
 1695              	.LBB75:
 665:../../../../../../Middlewares/Third_Party/LoRaWAN/Mac/region/RegionCN779.c ****                     {
 1696              		.loc 1 665 0
 1697 0022 9846     		mov	r8, r3
 1698 0024 B44F     		ldr	r7, .L277
 1699 0026 04AD     		add	r5, sp, #16
 1700              	.LVL140:
 1701              	.L122:
 1702              	.LBE75:
 631:../../../../../../Middlewares/Third_Party/LoRaWAN/Mac/region/RegionCN779.c ****     {
 1703              		.loc 1 631 0
 1704 0028 337A     		ldrb	r3, [r6, #8]
 1705 002a A342     		cmp	r3, r4
 1706 002c 00D8     		bhi	.LCB1564
 1707 002e 93E0     		b	.L167	@long jump
 1708              	.LCB1564:
 1709              	.L166:
 634:../../../../../../Middlewares/Third_Party/LoRaWAN/Mac/region/RegionCN779.c **** 
 1710              		.loc 1 634 0
 1711 0030 7368     		ldr	r3, [r6, #4]
 1712 0032 2900     		movs	r1, r5
 1713 0034 1819     		adds	r0, r3, r4
 1714 0036 FFF7FEFF 		bl	RegionCommonParseLinkAdrReq
 1715              	.LVL141:
 636:../../../../../../Middlewares/Third_Party/LoRaWAN/Mac/region/RegionCN779.c ****             break; // break loop, since no more request has been found
 1716              		.loc 1 636 0
 1717 003a 0028     		cmp	r0, #0
 1718 003c 00D1     		bne	.LCB1576
 1719 003e 8BE0     		b	.L167	@long jump
 1720              	.LCB1576:
 646:../../../../../../Middlewares/Third_Party/LoRaWAN/Mac/region/RegionCN779.c **** 
 1721              		.loc 1 646 0
 1722 0040 AB88     		ldrh	r3, [r5, #4]
 1723 0042 02AA     		add	r2, sp, #8
 1724 0044 D380     		strh	r3, [r2, #6]
ARM GAS  C:\Users\EBANO_~1\AppData\Local\Temp\ccKJ5gfE.s 			page 52


 649:../../../../../../Middlewares/Third_Party/LoRaWAN/Mac/region/RegionCN779.c ****         {
 1725              		.loc 1 649 0
 1726 0046 EA78     		ldrb	r2, [r5, #3]
 640:../../../../../../Middlewares/Third_Party/LoRaWAN/Mac/region/RegionCN779.c **** 
 1727              		.loc 1 640 0
 1728 0048 2418     		adds	r4, r4, r0
 1729              	.LVL142:
 1730 004a E4B2     		uxtb	r4, r4
 1731              	.LVL143:
 646:../../../../../../Middlewares/Third_Party/LoRaWAN/Mac/region/RegionCN779.c **** 
 1732              		.loc 1 646 0
 1733 004c 181C     		adds	r0, r3, #0
 1734              	.LVL144:
 649:../../../../../../Middlewares/Third_Party/LoRaWAN/Mac/region/RegionCN779.c ****         {
 1735              		.loc 1 649 0
 1736 004e 002A     		cmp	r2, #0
 1737 0050 00D0     		beq	.LCB1589
 1738 0052 BFE0     		b	.L126	@long jump
 1739              	.LCB1589:
 651:../../../../../../Middlewares/Third_Party/LoRaWAN/Mac/region/RegionCN779.c ****         }
 1740              		.loc 1 651 0 discriminator 1
 1741 0054 0632     		adds	r2, r2, #6
 1742 0056 9146     		mov	r9, r2
 649:../../../../../../Middlewares/Third_Party/LoRaWAN/Mac/region/RegionCN779.c ****         {
 1743              		.loc 1 649 0 discriminator 1
 1744 0058 002B     		cmp	r3, #0
 1745 005a E5D0     		beq	.L122
 1746              	.LVL145:
 1747              	.LBB76:
 672:../../../../../../Middlewares/Third_Party/LoRaWAN/Mac/region/RegionCN779.c ****                         ( NvmCtx.Channels[i].Frequency == 0 ) )
 1748              		.loc 1 672 0
 1749 005c 0722     		movs	r2, #7
 1750 005e 9146     		mov	r9, r2
 1751 0060 DA07     		lsls	r2, r3, #31
 1752 0062 04D5     		bpl	.L130
 1753 0064 3A68     		ldr	r2, [r7]
 1754 0066 511E     		subs	r1, r2, #1
 1755 0068 8A41     		sbcs	r2, r2, r1
 1756 006a 0632     		adds	r2, r2, #6
 1757 006c 9146     		mov	r9, r2
 1758              	.L130:
 1759              	.LVL146:
 1760 006e 9A07     		lsls	r2, r3, #30
 1761 0070 04D5     		bpl	.L131
 1762 0072 FA68     		ldr	r2, [r7, #12]
 1763 0074 002A     		cmp	r2, #0
 1764 0076 01D1     		bne	.L131
 675:../../../../../../Middlewares/Third_Party/LoRaWAN/Mac/region/RegionCN779.c ****                     }
 1765              		.loc 1 675 0
 1766 0078 0632     		adds	r2, r2, #6
 1767 007a 9146     		mov	r9, r2
 1768              	.LVL147:
 1769              	.L131:
 672:../../../../../../Middlewares/Third_Party/LoRaWAN/Mac/region/RegionCN779.c ****                         ( NvmCtx.Channels[i].Frequency == 0 ) )
 1770              		.loc 1 672 0
 1771 007c 5A07     		lsls	r2, r3, #29
 1772 007e 04D5     		bpl	.L132
ARM GAS  C:\Users\EBANO_~1\AppData\Local\Temp\ccKJ5gfE.s 			page 53


 1773 0080 BA69     		ldr	r2, [r7, #24]
 1774 0082 002A     		cmp	r2, #0
 1775 0084 01D1     		bne	.L132
 675:../../../../../../Middlewares/Third_Party/LoRaWAN/Mac/region/RegionCN779.c ****                     }
 1776              		.loc 1 675 0
 1777 0086 0632     		adds	r2, r2, #6
 1778 0088 9146     		mov	r9, r2
 1779              	.LVL148:
 1780              	.L132:
 672:../../../../../../Middlewares/Third_Party/LoRaWAN/Mac/region/RegionCN779.c ****                         ( NvmCtx.Channels[i].Frequency == 0 ) )
 1781              		.loc 1 672 0
 1782 008a 1A07     		lsls	r2, r3, #28
 1783 008c 04D5     		bpl	.L133
 1784 008e 7A6A     		ldr	r2, [r7, #36]
 1785 0090 002A     		cmp	r2, #0
 1786 0092 01D1     		bne	.L133
 675:../../../../../../Middlewares/Third_Party/LoRaWAN/Mac/region/RegionCN779.c ****                     }
 1787              		.loc 1 675 0
 1788 0094 0632     		adds	r2, r2, #6
 1789 0096 9146     		mov	r9, r2
 1790              	.LVL149:
 1791              	.L133:
 672:../../../../../../Middlewares/Third_Party/LoRaWAN/Mac/region/RegionCN779.c ****                         ( NvmCtx.Channels[i].Frequency == 0 ) )
 1792              		.loc 1 672 0
 1793 0098 DA06     		lsls	r2, r3, #27
 1794 009a 04D5     		bpl	.L134
 1795 009c 3A6B     		ldr	r2, [r7, #48]
 1796 009e 002A     		cmp	r2, #0
 1797 00a0 01D1     		bne	.L134
 675:../../../../../../Middlewares/Third_Party/LoRaWAN/Mac/region/RegionCN779.c ****                     }
 1798              		.loc 1 675 0
 1799 00a2 0632     		adds	r2, r2, #6
 1800 00a4 9146     		mov	r9, r2
 1801              	.LVL150:
 1802              	.L134:
 672:../../../../../../Middlewares/Third_Party/LoRaWAN/Mac/region/RegionCN779.c ****                         ( NvmCtx.Channels[i].Frequency == 0 ) )
 1803              		.loc 1 672 0
 1804 00a6 9A06     		lsls	r2, r3, #26
 1805 00a8 04D5     		bpl	.L135
 1806 00aa FA6B     		ldr	r2, [r7, #60]
 1807 00ac 002A     		cmp	r2, #0
 1808 00ae 01D1     		bne	.L135
 675:../../../../../../Middlewares/Third_Party/LoRaWAN/Mac/region/RegionCN779.c ****                     }
 1809              		.loc 1 675 0
 1810 00b0 0632     		adds	r2, r2, #6
 1811 00b2 9146     		mov	r9, r2
 1812              	.LVL151:
 1813              	.L135:
 672:../../../../../../Middlewares/Third_Party/LoRaWAN/Mac/region/RegionCN779.c ****                         ( NvmCtx.Channels[i].Frequency == 0 ) )
 1814              		.loc 1 672 0
 1815 00b4 5A06     		lsls	r2, r3, #25
 1816 00b6 04D5     		bpl	.L136
 1817 00b8 BA6C     		ldr	r2, [r7, #72]
 1818 00ba 002A     		cmp	r2, #0
 1819 00bc 01D1     		bne	.L136
 675:../../../../../../Middlewares/Third_Party/LoRaWAN/Mac/region/RegionCN779.c ****                     }
 1820              		.loc 1 675 0
ARM GAS  C:\Users\EBANO_~1\AppData\Local\Temp\ccKJ5gfE.s 			page 54


 1821 00be 0632     		adds	r2, r2, #6
 1822 00c0 9146     		mov	r9, r2
 1823              	.LVL152:
 1824              	.L136:
 672:../../../../../../Middlewares/Third_Party/LoRaWAN/Mac/region/RegionCN779.c ****                         ( NvmCtx.Channels[i].Frequency == 0 ) )
 1825              		.loc 1 672 0
 1826 00c2 1A06     		lsls	r2, r3, #24
 1827 00c4 04D5     		bpl	.L137
 1828 00c6 7A6D     		ldr	r2, [r7, #84]
 1829 00c8 002A     		cmp	r2, #0
 1830 00ca 01D1     		bne	.L137
 675:../../../../../../Middlewares/Third_Party/LoRaWAN/Mac/region/RegionCN779.c ****                     }
 1831              		.loc 1 675 0
 1832 00cc 0632     		adds	r2, r2, #6
 1833 00ce 9146     		mov	r9, r2
 1834              	.LVL153:
 1835              	.L137:
 672:../../../../../../Middlewares/Third_Party/LoRaWAN/Mac/region/RegionCN779.c ****                         ( NvmCtx.Channels[i].Frequency == 0 ) )
 1836              		.loc 1 672 0
 1837 00d0 DA05     		lsls	r2, r3, #23
 1838 00d2 04D5     		bpl	.L138
 1839 00d4 3A6E     		ldr	r2, [r7, #96]
 1840 00d6 002A     		cmp	r2, #0
 1841 00d8 01D1     		bne	.L138
 675:../../../../../../Middlewares/Third_Party/LoRaWAN/Mac/region/RegionCN779.c ****                     }
 1842              		.loc 1 675 0
 1843 00da 0632     		adds	r2, r2, #6
 1844 00dc 9146     		mov	r9, r2
 1845              	.LVL154:
 1846              	.L138:
 672:../../../../../../Middlewares/Third_Party/LoRaWAN/Mac/region/RegionCN779.c ****                         ( NvmCtx.Channels[i].Frequency == 0 ) )
 1847              		.loc 1 672 0
 1848 00de 9A05     		lsls	r2, r3, #22
 1849 00e0 04D5     		bpl	.L139
 1850 00e2 FA6E     		ldr	r2, [r7, #108]
 1851 00e4 002A     		cmp	r2, #0
 1852 00e6 01D1     		bne	.L139
 675:../../../../../../Middlewares/Third_Party/LoRaWAN/Mac/region/RegionCN779.c ****                     }
 1853              		.loc 1 675 0
 1854 00e8 0632     		adds	r2, r2, #6
 1855 00ea 9146     		mov	r9, r2
 1856              	.LVL155:
 1857              	.L139:
 672:../../../../../../Middlewares/Third_Party/LoRaWAN/Mac/region/RegionCN779.c ****                         ( NvmCtx.Channels[i].Frequency == 0 ) )
 1858              		.loc 1 672 0
 1859 00ec 5A05     		lsls	r2, r3, #21
 1860 00ee 04D5     		bpl	.L140
 1861 00f0 BA6F     		ldr	r2, [r7, #120]
 1862 00f2 002A     		cmp	r2, #0
 1863 00f4 01D1     		bne	.L140
 675:../../../../../../Middlewares/Third_Party/LoRaWAN/Mac/region/RegionCN779.c ****                     }
 1864              		.loc 1 675 0
 1865 00f6 0632     		adds	r2, r2, #6
 1866 00f8 9146     		mov	r9, r2
 1867              	.LVL156:
 1868              	.L140:
 672:../../../../../../Middlewares/Third_Party/LoRaWAN/Mac/region/RegionCN779.c ****                         ( NvmCtx.Channels[i].Frequency == 0 ) )
ARM GAS  C:\Users\EBANO_~1\AppData\Local\Temp\ccKJ5gfE.s 			page 55


 1869              		.loc 1 672 0
 1870 00fa 1A05     		lsls	r2, r3, #20
 1871 00fc 05D5     		bpl	.L141
 673:../../../../../../Middlewares/Third_Party/LoRaWAN/Mac/region/RegionCN779.c ****                     {// Trying to enable an undefined channel
 1872              		.loc 1 673 0
 1873 00fe 8422     		movs	r2, #132
 672:../../../../../../Middlewares/Third_Party/LoRaWAN/Mac/region/RegionCN779.c ****                         ( NvmCtx.Channels[i].Frequency == 0 ) )
 1874              		.loc 1 672 0
 1875 0100 BA58     		ldr	r2, [r7, r2]
 1876 0102 002A     		cmp	r2, #0
 1877 0104 01D1     		bne	.L141
 675:../../../../../../Middlewares/Third_Party/LoRaWAN/Mac/region/RegionCN779.c ****                     }
 1878              		.loc 1 675 0
 1879 0106 0632     		adds	r2, r2, #6
 1880 0108 9146     		mov	r9, r2
 1881              	.LVL157:
 1882              	.L141:
 672:../../../../../../Middlewares/Third_Party/LoRaWAN/Mac/region/RegionCN779.c ****                         ( NvmCtx.Channels[i].Frequency == 0 ) )
 1883              		.loc 1 672 0
 1884 010a DA04     		lsls	r2, r3, #19
 1885 010c 05D5     		bpl	.L142
 673:../../../../../../Middlewares/Third_Party/LoRaWAN/Mac/region/RegionCN779.c ****                     {// Trying to enable an undefined channel
 1886              		.loc 1 673 0
 1887 010e 9022     		movs	r2, #144
 672:../../../../../../Middlewares/Third_Party/LoRaWAN/Mac/region/RegionCN779.c ****                         ( NvmCtx.Channels[i].Frequency == 0 ) )
 1888              		.loc 1 672 0
 1889 0110 BA58     		ldr	r2, [r7, r2]
 1890 0112 002A     		cmp	r2, #0
 1891 0114 01D1     		bne	.L142
 675:../../../../../../Middlewares/Third_Party/LoRaWAN/Mac/region/RegionCN779.c ****                     }
 1892              		.loc 1 675 0
 1893 0116 0632     		adds	r2, r2, #6
 1894 0118 9146     		mov	r9, r2
 1895              	.LVL158:
 1896              	.L142:
 672:../../../../../../Middlewares/Third_Party/LoRaWAN/Mac/region/RegionCN779.c ****                         ( NvmCtx.Channels[i].Frequency == 0 ) )
 1897              		.loc 1 672 0
 1898 011a 9A04     		lsls	r2, r3, #18
 1899 011c 05D5     		bpl	.L143
 673:../../../../../../Middlewares/Third_Party/LoRaWAN/Mac/region/RegionCN779.c ****                     {// Trying to enable an undefined channel
 1900              		.loc 1 673 0
 1901 011e 9C22     		movs	r2, #156
 672:../../../../../../Middlewares/Third_Party/LoRaWAN/Mac/region/RegionCN779.c ****                         ( NvmCtx.Channels[i].Frequency == 0 ) )
 1902              		.loc 1 672 0
 1903 0120 BA58     		ldr	r2, [r7, r2]
 1904 0122 002A     		cmp	r2, #0
 1905 0124 01D1     		bne	.L143
 675:../../../../../../Middlewares/Third_Party/LoRaWAN/Mac/region/RegionCN779.c ****                     }
 1906              		.loc 1 675 0
 1907 0126 0632     		adds	r2, r2, #6
 1908 0128 9146     		mov	r9, r2
 1909              	.LVL159:
 1910              	.L143:
 672:../../../../../../Middlewares/Third_Party/LoRaWAN/Mac/region/RegionCN779.c ****                         ( NvmCtx.Channels[i].Frequency == 0 ) )
 1911              		.loc 1 672 0
 1912 012a 5A04     		lsls	r2, r3, #17
 1913 012c 05D5     		bpl	.L144
ARM GAS  C:\Users\EBANO_~1\AppData\Local\Temp\ccKJ5gfE.s 			page 56


 673:../../../../../../Middlewares/Third_Party/LoRaWAN/Mac/region/RegionCN779.c ****                     {// Trying to enable an undefined channel
 1914              		.loc 1 673 0
 1915 012e A822     		movs	r2, #168
 672:../../../../../../Middlewares/Third_Party/LoRaWAN/Mac/region/RegionCN779.c ****                         ( NvmCtx.Channels[i].Frequency == 0 ) )
 1916              		.loc 1 672 0
 1917 0130 BA58     		ldr	r2, [r7, r2]
 1918 0132 002A     		cmp	r2, #0
 1919 0134 01D1     		bne	.L144
 675:../../../../../../Middlewares/Third_Party/LoRaWAN/Mac/region/RegionCN779.c ****                     }
 1920              		.loc 1 675 0
 1921 0136 0632     		adds	r2, r2, #6
 1922 0138 9146     		mov	r9, r2
 1923              	.LVL160:
 1924              	.L144:
 672:../../../../../../Middlewares/Third_Party/LoRaWAN/Mac/region/RegionCN779.c ****                         ( NvmCtx.Channels[i].Frequency == 0 ) )
 1925              		.loc 1 672 0
 1926 013a 1BB2     		sxth	r3, r3
 1927 013c 002B     		cmp	r3, #0
 1928 013e 00DB     		blt	.LCB1839
 1929 0140 72E7     		b	.L122	@long jump
 1930              	.LCB1839:
 673:../../../../../../Middlewares/Third_Party/LoRaWAN/Mac/region/RegionCN779.c ****                     {// Trying to enable an undefined channel
 1931              		.loc 1 673 0
 1932 0142 B423     		movs	r3, #180
 672:../../../../../../Middlewares/Third_Party/LoRaWAN/Mac/region/RegionCN779.c ****                         ( NvmCtx.Channels[i].Frequency == 0 ) )
 1933              		.loc 1 672 0
 1934 0144 FB58     		ldr	r3, [r7, r3]
 1935 0146 002B     		cmp	r3, #0
 1936 0148 00D0     		beq	.LCB1843
 1937 014a 6DE7     		b	.L122	@long jump
 1938              	.LCB1843:
 675:../../../../../../Middlewares/Third_Party/LoRaWAN/Mac/region/RegionCN779.c ****                     }
 1939              		.loc 1 675 0
 1940 014c 0633     		adds	r3, r3, #6
 1941 014e 9946     		mov	r9, r3
 1942              	.LVL161:
 1943              	.LBE76:
 631:../../../../../../Middlewares/Third_Party/LoRaWAN/Mac/region/RegionCN779.c ****     {
 1944              		.loc 1 631 0
 1945 0150 337A     		ldrb	r3, [r6, #8]
 1946 0152 A342     		cmp	r3, r4
 1947 0154 00D9     		bls	.LCB1852
 1948 0156 6BE7     		b	.L166	@long jump
 1949              	.LCB1852:
 1950              	.LVL162:
 1951              	.L167:
 687:../../../../../../Middlewares/Third_Party/LoRaWAN/Mac/region/RegionCN779.c ****     linkAdrVerifyParams.AdrEnabled = linkAdrReq->AdrEnabled;
 1952              		.loc 1 687 0
 1953 0158 4B46     		mov	r3, r9
 1954 015a 06A8     		add	r0, sp, #24
 1955 015c 0371     		strb	r3, [r0, #4]
 688:../../../../../../Middlewares/Third_Party/LoRaWAN/Mac/region/RegionCN779.c ****     linkAdrVerifyParams.Datarate = linkAdrParams.Datarate;
 1956              		.loc 1 688 0
 1957 015e B37A     		ldrb	r3, [r6, #10]
 705:../../../../../../Middlewares/Third_Party/LoRaWAN/Mac/region/RegionCN779.c **** 
 1958              		.loc 1 705 0
 1959 0160 02A9     		add	r1, sp, #8
ARM GAS  C:\Users\EBANO_~1\AppData\Local\Temp\ccKJ5gfE.s 			page 57


 688:../../../../../../Middlewares/Third_Party/LoRaWAN/Mac/region/RegionCN779.c ****     linkAdrVerifyParams.Datarate = linkAdrParams.Datarate;
 1960              		.loc 1 688 0
 1961 0162 4371     		strb	r3, [r0, #5]
 689:../../../../../../Middlewares/Third_Party/LoRaWAN/Mac/region/RegionCN779.c ****     linkAdrVerifyParams.TxPower = linkAdrParams.TxPower;
 1962              		.loc 1 689 0
 1963 0164 6B78     		ldrb	r3, [r5, #1]
 705:../../../../../../Middlewares/Third_Party/LoRaWAN/Mac/region/RegionCN779.c **** 
 1964              		.loc 1 705 0
 1965 0166 8C46     		mov	ip, r1
 689:../../../../../../Middlewares/Third_Party/LoRaWAN/Mac/region/RegionCN779.c ****     linkAdrVerifyParams.TxPower = linkAdrParams.TxPower;
 1966              		.loc 1 689 0
 1967 0168 8371     		strb	r3, [r0, #6]
 690:../../../../../../Middlewares/Third_Party/LoRaWAN/Mac/region/RegionCN779.c ****     linkAdrVerifyParams.NbRep = linkAdrParams.NbRep;
 1968              		.loc 1 690 0
 1969 016a AB78     		ldrb	r3, [r5, #2]
 705:../../../../../../Middlewares/Third_Party/LoRaWAN/Mac/region/RegionCN779.c **** 
 1970              		.loc 1 705 0
 1971 016c 0A22     		movs	r2, #10
 690:../../../../../../Middlewares/Third_Party/LoRaWAN/Mac/region/RegionCN779.c ****     linkAdrVerifyParams.NbRep = linkAdrParams.NbRep;
 1972              		.loc 1 690 0
 1973 016e C371     		strb	r3, [r0, #7]
 691:../../../../../../Middlewares/Third_Party/LoRaWAN/Mac/region/RegionCN779.c ****     linkAdrVerifyParams.CurrentDatarate = linkAdrReq->CurrentDatarate;
 1974              		.loc 1 691 0
 1975 0170 2B78     		ldrb	r3, [r5]
 705:../../../../../../Middlewares/Third_Party/LoRaWAN/Mac/region/RegionCN779.c **** 
 1976              		.loc 1 705 0
 1977 0172 0921     		movs	r1, #9
 691:../../../../../../Middlewares/Third_Party/LoRaWAN/Mac/region/RegionCN779.c ****     linkAdrVerifyParams.CurrentDatarate = linkAdrReq->CurrentDatarate;
 1978              		.loc 1 691 0
 1979 0174 0372     		strb	r3, [r0, #8]
 692:../../../../../../Middlewares/Third_Party/LoRaWAN/Mac/region/RegionCN779.c ****     linkAdrVerifyParams.CurrentTxPower = linkAdrReq->CurrentTxPower;
 1980              		.loc 1 692 0
 1981 0176 F37A     		ldrb	r3, [r6, #11]
 705:../../../../../../Middlewares/Third_Party/LoRaWAN/Mac/region/RegionCN779.c **** 
 1982              		.loc 1 705 0
 1983 0178 6244     		add	r2, r2, ip
 692:../../../../../../Middlewares/Third_Party/LoRaWAN/Mac/region/RegionCN779.c ****     linkAdrVerifyParams.CurrentTxPower = linkAdrReq->CurrentTxPower;
 1984              		.loc 1 692 0
 1985 017a 4372     		strb	r3, [r0, #9]
 693:../../../../../../Middlewares/Third_Party/LoRaWAN/Mac/region/RegionCN779.c ****     linkAdrVerifyParams.CurrentNbRep = linkAdrReq->CurrentNbRep;
 1986              		.loc 1 693 0
 1987 017c 337B     		ldrb	r3, [r6, #12]
 705:../../../../../../Middlewares/Third_Party/LoRaWAN/Mac/region/RegionCN779.c **** 
 1988              		.loc 1 705 0
 1989 017e 6144     		add	r1, r1, ip
 693:../../../../../../Middlewares/Third_Party/LoRaWAN/Mac/region/RegionCN779.c ****     linkAdrVerifyParams.CurrentNbRep = linkAdrReq->CurrentNbRep;
 1990              		.loc 1 693 0
 1991 0180 8372     		strb	r3, [r0, #10]
 694:../../../../../../Middlewares/Third_Party/LoRaWAN/Mac/region/RegionCN779.c ****     linkAdrVerifyParams.NbChannels = CN779_MAX_NB_CHANNELS;
 1992              		.loc 1 694 0
 1993 0182 737B     		ldrb	r3, [r6, #13]
 699:../../../../../../Middlewares/Third_Party/LoRaWAN/Mac/region/RegionCN779.c ****     linkAdrVerifyParams.MinTxPower = CN779_MIN_TX_POWER;
 1994              		.loc 1 699 0
 1995 0184 8761     		str	r7, [r0, #24]
 694:../../../../../../Middlewares/Third_Party/LoRaWAN/Mac/region/RegionCN779.c ****     linkAdrVerifyParams.NbChannels = CN779_MAX_NB_CHANNELS;
 1996              		.loc 1 694 0
 1997 0186 C372     		strb	r3, [r0, #11]
ARM GAS  C:\Users\EBANO_~1\AppData\Local\Temp\ccKJ5gfE.s 			page 58


 695:../../../../../../Middlewares/Third_Party/LoRaWAN/Mac/region/RegionCN779.c ****     linkAdrVerifyParams.ChannelsMask = &chMask;
 1998              		.loc 1 695 0
 1999 0188 1023     		movs	r3, #16
 2000 018a 0373     		strb	r3, [r0, #12]
 696:../../../../../../Middlewares/Third_Party/LoRaWAN/Mac/region/RegionCN779.c ****     linkAdrVerifyParams.MinDatarate = ( int8_t )phyParam.Value;
 2001              		.loc 1 696 0
 2002 018c 02AB     		add	r3, sp, #8
 2003 018e 0633     		adds	r3, r3, #6
 2004 0190 0361     		str	r3, [r0, #16]
 697:../../../../../../Middlewares/Third_Party/LoRaWAN/Mac/region/RegionCN779.c ****     linkAdrVerifyParams.MaxDatarate = CN779_TX_MAX_DATARATE;
 2005              		.loc 1 697 0
 2006 0192 E023     		movs	r3, #224
 2007 0194 DB00     		lsls	r3, r3, #3
 2008 0196 8382     		strh	r3, [r0, #20]
 700:../../../../../../Middlewares/Third_Party/LoRaWAN/Mac/region/RegionCN779.c ****     linkAdrVerifyParams.MaxTxPower = CN779_MAX_TX_POWER;
 2009              		.loc 1 700 0
 2010 0198 0523     		movs	r3, #5
 2011 019a 8383     		strh	r3, [r0, #28]
 702:../../../../../../Middlewares/Third_Party/LoRaWAN/Mac/region/RegionCN779.c **** 
 2012              		.loc 1 702 0
 2013 019c 3368     		ldr	r3, [r6]
 2014 019e 0693     		str	r3, [sp, #24]
 705:../../../../../../Middlewares/Third_Party/LoRaWAN/Mac/region/RegionCN779.c **** 
 2015              		.loc 1 705 0
 2016 01a0 2B00     		movs	r3, r5
 2017 01a2 FFF7FEFF 		bl	RegionCommonLinkAdrReqVerifyParams
 2018              	.LVL163:
 2019 01a6 0600     		movs	r6, r0
 2020              	.LVL164:
 708:../../../../../../Middlewares/Third_Party/LoRaWAN/Mac/region/RegionCN779.c ****     {
 2021              		.loc 1 708 0
 2022 01a8 0728     		cmp	r0, #7
 2023 01aa 00D1     		bne	.LCB1903
 2024 01ac 91E0     		b	.L275	@long jump
 2025              	.LCB1903:
 2026              	.LVL165:
 2027              	.L125:
 717:../../../../../../Middlewares/Third_Party/LoRaWAN/Mac/region/RegionCN779.c ****     *txPowOut = linkAdrParams.TxPower;
 2028              		.loc 1 717 0
 2029 01ae 5A46     		mov	r2, fp
 2030 01b0 6B78     		ldrb	r3, [r5, #1]
 723:../../../../../../Middlewares/Third_Party/LoRaWAN/Mac/region/RegionCN779.c **** 
 2031              		.loc 1 723 0
 2032 01b2 3000     		movs	r0, r6
 717:../../../../../../Middlewares/Third_Party/LoRaWAN/Mac/region/RegionCN779.c ****     *txPowOut = linkAdrParams.TxPower;
 2033              		.loc 1 717 0
 2034 01b4 1370     		strb	r3, [r2]
 718:../../../../../../Middlewares/Third_Party/LoRaWAN/Mac/region/RegionCN779.c ****     *nbRepOut = linkAdrParams.NbRep;
 2035              		.loc 1 718 0
 2036 01b6 5246     		mov	r2, r10
 2037 01b8 AB78     		ldrb	r3, [r5, #2]
 2038 01ba 1370     		strb	r3, [r2]
 719:../../../../../../Middlewares/Third_Party/LoRaWAN/Mac/region/RegionCN779.c ****     *nbBytesParsed = bytesProcessed;
 2039              		.loc 1 719 0
 2040 01bc 2B78     		ldrb	r3, [r5]
 2041 01be 019A     		ldr	r2, [sp, #4]
 2042 01c0 1370     		strb	r3, [r2]
ARM GAS  C:\Users\EBANO_~1\AppData\Local\Temp\ccKJ5gfE.s 			page 59


 720:../../../../../../Middlewares/Third_Party/LoRaWAN/Mac/region/RegionCN779.c **** 
 2043              		.loc 1 720 0
 2044 01c2 189B     		ldr	r3, [sp, #96]
 2045 01c4 1C70     		strb	r4, [r3]
 723:../../../../../../Middlewares/Third_Party/LoRaWAN/Mac/region/RegionCN779.c **** 
 2046              		.loc 1 723 0
 2047 01c6 0FB0     		add	sp, sp, #60
 2048              		@ sp needed
 2049              	.LVL166:
 2050              	.LVL167:
 2051              	.LVL168:
 2052 01c8 3CBC     		pop	{r2, r3, r4, r5}
 2053 01ca 9046     		mov	r8, r2
 2054 01cc 9946     		mov	r9, r3
 2055 01ce A246     		mov	r10, r4
 2056 01d0 AB46     		mov	fp, r5
 2057 01d2 F0BD     		pop	{r4, r5, r6, r7, pc}
 2058              	.LVL169:
 2059              	.L126:
 651:../../../../../../Middlewares/Third_Party/LoRaWAN/Mac/region/RegionCN779.c ****         }
 2060              		.loc 1 651 0
 2061 01d4 0621     		movs	r1, #6
 2062 01d6 8946     		mov	r9, r1
 653:../../../../../../Middlewares/Third_Party/LoRaWAN/Mac/region/RegionCN779.c ****                 ( linkAdrParams.ChMaskCtrl >= 7 ) )
 2063              		.loc 1 653 0
 2064 01d8 511E     		subs	r1, r2, #1
 2065 01da 0429     		cmp	r1, #4
 2066 01dc 00D8     		bhi	.LCB1954
 2067 01de 23E7     		b	.L122	@long jump
 2068              	.LCB1954:
 653:../../../../../../Middlewares/Third_Party/LoRaWAN/Mac/region/RegionCN779.c ****                 ( linkAdrParams.ChMaskCtrl >= 7 ) )
 2069              		.loc 1 653 0 is_stmt 0 discriminator 1
 2070 01e0 062A     		cmp	r2, #6
 2071 01e2 00D0     		beq	.LCB1956
 2072 01e4 20E7     		b	.L122	@long jump
 2073              	.LCB1956:
 2074              	.LVL170:
 2075              	.LBB77:
 665:../../../../../../Middlewares/Third_Party/LoRaWAN/Mac/region/RegionCN779.c ****                     {
 2076              		.loc 1 665 0 is_stmt 1
 2077 01e6 3968     		ldr	r1, [r7]
 2078 01e8 0022     		movs	r2, #0
 2079 01ea 0029     		cmp	r1, #0
 2080 01ec 02D0     		beq	.L147
 667:../../../../../../Middlewares/Third_Party/LoRaWAN/Mac/region/RegionCN779.c ****                     }
 2081              		.loc 1 667 0
 2082 01ee 0123     		movs	r3, #1
 2083 01f0 0132     		adds	r2, r2, #1
 2084 01f2 0343     		orrs	r3, r0
 2085              	.L147:
 2086              	.LVL171:
 665:../../../../../../Middlewares/Third_Party/LoRaWAN/Mac/region/RegionCN779.c ****                     {
 2087              		.loc 1 665 0
 2088 01f4 F968     		ldr	r1, [r7, #12]
 2089 01f6 0029     		cmp	r1, #0
 2090 01f8 02D0     		beq	.L148
 667:../../../../../../Middlewares/Third_Party/LoRaWAN/Mac/region/RegionCN779.c ****                     }
ARM GAS  C:\Users\EBANO_~1\AppData\Local\Temp\ccKJ5gfE.s 			page 60


 2091              		.loc 1 667 0
 2092 01fa 0222     		movs	r2, #2
 2093 01fc 1343     		orrs	r3, r2
 2094 01fe 0122     		movs	r2, #1
 2095              	.L148:
 2096              	.LVL172:
 665:../../../../../../Middlewares/Third_Party/LoRaWAN/Mac/region/RegionCN779.c ****                     {
 2097              		.loc 1 665 0
 2098 0200 B969     		ldr	r1, [r7, #24]
 2099 0202 0029     		cmp	r1, #0
 2100 0204 02D0     		beq	.L149
 667:../../../../../../Middlewares/Third_Party/LoRaWAN/Mac/region/RegionCN779.c ****                     }
 2101              		.loc 1 667 0
 2102 0206 0422     		movs	r2, #4
 2103 0208 1343     		orrs	r3, r2
 2104 020a 0122     		movs	r2, #1
 2105              	.L149:
 2106              	.LVL173:
 665:../../../../../../Middlewares/Third_Party/LoRaWAN/Mac/region/RegionCN779.c ****                     {
 2107              		.loc 1 665 0
 2108 020c 796A     		ldr	r1, [r7, #36]
 2109 020e 0029     		cmp	r1, #0
 2110 0210 02D0     		beq	.L150
 667:../../../../../../Middlewares/Third_Party/LoRaWAN/Mac/region/RegionCN779.c ****                     }
 2111              		.loc 1 667 0
 2112 0212 0822     		movs	r2, #8
 2113 0214 1343     		orrs	r3, r2
 2114 0216 0122     		movs	r2, #1
 2115              	.L150:
 2116              	.LVL174:
 665:../../../../../../Middlewares/Third_Party/LoRaWAN/Mac/region/RegionCN779.c ****                     {
 2117              		.loc 1 665 0
 2118 0218 396B     		ldr	r1, [r7, #48]
 2119 021a 0029     		cmp	r1, #0
 2120 021c 02D0     		beq	.L151
 667:../../../../../../Middlewares/Third_Party/LoRaWAN/Mac/region/RegionCN779.c ****                     }
 2121              		.loc 1 667 0
 2122 021e 1022     		movs	r2, #16
 2123 0220 1343     		orrs	r3, r2
 2124 0222 0122     		movs	r2, #1
 2125              	.L151:
 2126              	.LVL175:
 665:../../../../../../Middlewares/Third_Party/LoRaWAN/Mac/region/RegionCN779.c ****                     {
 2127              		.loc 1 665 0
 2128 0224 F96B     		ldr	r1, [r7, #60]
 2129 0226 0029     		cmp	r1, #0
 2130 0228 02D0     		beq	.L152
 667:../../../../../../Middlewares/Third_Party/LoRaWAN/Mac/region/RegionCN779.c ****                     }
 2131              		.loc 1 667 0
 2132 022a 2022     		movs	r2, #32
 2133 022c 1343     		orrs	r3, r2
 2134 022e 0122     		movs	r2, #1
 2135              	.L152:
 2136              	.LVL176:
 665:../../../../../../Middlewares/Third_Party/LoRaWAN/Mac/region/RegionCN779.c ****                     {
 2137              		.loc 1 665 0
 2138 0230 B96C     		ldr	r1, [r7, #72]
ARM GAS  C:\Users\EBANO_~1\AppData\Local\Temp\ccKJ5gfE.s 			page 61


 2139 0232 0029     		cmp	r1, #0
 2140 0234 02D0     		beq	.L153
 667:../../../../../../Middlewares/Third_Party/LoRaWAN/Mac/region/RegionCN779.c ****                     }
 2141              		.loc 1 667 0
 2142 0236 4022     		movs	r2, #64
 2143 0238 1343     		orrs	r3, r2
 2144 023a 0122     		movs	r2, #1
 2145              	.L153:
 2146              	.LVL177:
 665:../../../../../../Middlewares/Third_Party/LoRaWAN/Mac/region/RegionCN779.c ****                     {
 2147              		.loc 1 665 0
 2148 023c 796D     		ldr	r1, [r7, #84]
 2149 023e 0029     		cmp	r1, #0
 2150 0240 02D0     		beq	.L154
 667:../../../../../../Middlewares/Third_Party/LoRaWAN/Mac/region/RegionCN779.c ****                     }
 2151              		.loc 1 667 0
 2152 0242 8022     		movs	r2, #128
 2153 0244 1343     		orrs	r3, r2
 2154 0246 0122     		movs	r2, #1
 2155              	.L154:
 2156              	.LVL178:
 665:../../../../../../Middlewares/Third_Party/LoRaWAN/Mac/region/RegionCN779.c ****                     {
 2157              		.loc 1 665 0
 2158 0248 396E     		ldr	r1, [r7, #96]
 2159 024a 0029     		cmp	r1, #0
 2160 024c 03D0     		beq	.L155
 667:../../../../../../Middlewares/Third_Party/LoRaWAN/Mac/region/RegionCN779.c ****                     }
 2161              		.loc 1 667 0
 2162 024e 8022     		movs	r2, #128
 2163 0250 5200     		lsls	r2, r2, #1
 2164 0252 1343     		orrs	r3, r2
 2165 0254 FF3A     		subs	r2, r2, #255
 2166              	.L155:
 2167              	.LVL179:
 665:../../../../../../Middlewares/Third_Party/LoRaWAN/Mac/region/RegionCN779.c ****                     {
 2168              		.loc 1 665 0
 2169 0256 F96E     		ldr	r1, [r7, #108]
 2170 0258 0029     		cmp	r1, #0
 2171 025a 03D0     		beq	.L156
 667:../../../../../../Middlewares/Third_Party/LoRaWAN/Mac/region/RegionCN779.c ****                     }
 2172              		.loc 1 667 0
 2173 025c 8022     		movs	r2, #128
 2174 025e 9200     		lsls	r2, r2, #2
 2175 0260 1343     		orrs	r3, r2
 2176 0262 0122     		movs	r2, #1
 2177              	.L156:
 2178              	.LVL180:
 665:../../../../../../Middlewares/Third_Party/LoRaWAN/Mac/region/RegionCN779.c ****                     {
 2179              		.loc 1 665 0
 2180 0264 B96F     		ldr	r1, [r7, #120]
 2181 0266 0029     		cmp	r1, #0
 2182 0268 03D0     		beq	.L157
 667:../../../../../../Middlewares/Third_Party/LoRaWAN/Mac/region/RegionCN779.c ****                     }
 2183              		.loc 1 667 0
 2184 026a 8022     		movs	r2, #128
 2185 026c D200     		lsls	r2, r2, #3
 2186 026e 1343     		orrs	r3, r2
ARM GAS  C:\Users\EBANO_~1\AppData\Local\Temp\ccKJ5gfE.s 			page 62


 2187 0270 0122     		movs	r2, #1
 2188              	.L157:
 2189              	.LVL181:
 665:../../../../../../Middlewares/Third_Party/LoRaWAN/Mac/region/RegionCN779.c ****                     {
 2190              		.loc 1 665 0
 2191 0272 8421     		movs	r1, #132
 2192 0274 7958     		ldr	r1, [r7, r1]
 2193 0276 0029     		cmp	r1, #0
 2194 0278 03D0     		beq	.L158
 667:../../../../../../Middlewares/Third_Party/LoRaWAN/Mac/region/RegionCN779.c ****                     }
 2195              		.loc 1 667 0
 2196 027a 8022     		movs	r2, #128
 2197 027c 1201     		lsls	r2, r2, #4
 2198 027e 1343     		orrs	r3, r2
 2199 0280 0122     		movs	r2, #1
 2200              	.L158:
 2201              	.LVL182:
 665:../../../../../../Middlewares/Third_Party/LoRaWAN/Mac/region/RegionCN779.c ****                     {
 2202              		.loc 1 665 0
 2203 0282 9021     		movs	r1, #144
 2204 0284 7958     		ldr	r1, [r7, r1]
 2205 0286 0029     		cmp	r1, #0
 2206 0288 03D0     		beq	.L159
 667:../../../../../../Middlewares/Third_Party/LoRaWAN/Mac/region/RegionCN779.c ****                     }
 2207              		.loc 1 667 0
 2208 028a 8022     		movs	r2, #128
 2209 028c 5201     		lsls	r2, r2, #5
 2210 028e 1343     		orrs	r3, r2
 2211 0290 0122     		movs	r2, #1
 2212              	.L159:
 2213              	.LVL183:
 665:../../../../../../Middlewares/Third_Party/LoRaWAN/Mac/region/RegionCN779.c ****                     {
 2214              		.loc 1 665 0
 2215 0292 9C21     		movs	r1, #156
 2216 0294 7958     		ldr	r1, [r7, r1]
 2217 0296 0029     		cmp	r1, #0
 2218 0298 26D1     		bne	.L276
 2219              	.LVL184:
 2220 029a A821     		movs	r1, #168
 2221 029c 7958     		ldr	r1, [r7, r1]
 2222 029e 0029     		cmp	r1, #0
 2223 02a0 0DD0     		beq	.L164
 2224              	.L161:
 667:../../../../../../Middlewares/Third_Party/LoRaWAN/Mac/region/RegionCN779.c ****                     }
 2225              		.loc 1 667 0
 2226 02a2 8022     		movs	r2, #128
 2227 02a4 D201     		lsls	r2, r2, #7
 2228 02a6 1343     		orrs	r3, r2
 2229              	.L274:
 2230              	.LVL185:
 665:../../../../../../Middlewares/Third_Party/LoRaWAN/Mac/region/RegionCN779.c ****                     {
 2231              		.loc 1 665 0
 2232 02a8 B422     		movs	r2, #180
 2233 02aa BA58     		ldr	r2, [r7, r2]
 2234 02ac 002A     		cmp	r2, #0
 2235 02ae 02D0     		beq	.L163
 2236              	.L162:
ARM GAS  C:\Users\EBANO_~1\AppData\Local\Temp\ccKJ5gfE.s 			page 63


 667:../../../../../../Middlewares/Third_Party/LoRaWAN/Mac/region/RegionCN779.c ****                     }
 2237              		.loc 1 667 0
 2238 02b0 8022     		movs	r2, #128
 2239 02b2 1202     		lsls	r2, r2, #8
 2240 02b4 1343     		orrs	r3, r2
 2241              	.LVL186:
 2242              	.L163:
 2243 02b6 02AA     		add	r2, sp, #8
 2244 02b8 D380     		strh	r3, [r2, #6]
 665:../../../../../../Middlewares/Third_Party/LoRaWAN/Mac/region/RegionCN779.c ****                     {
 2245              		.loc 1 665 0
 2246 02ba C146     		mov	r9, r8
 2247 02bc B4E6     		b	.L122
 2248              	.LVL187:
 2249              	.L164:
 2250 02be B421     		movs	r1, #180
 2251 02c0 7958     		ldr	r1, [r7, r1]
 2252 02c2 0029     		cmp	r1, #0
 2253 02c4 F4D1     		bne	.L162
 2254              	.LVL188:
 2255 02c6 0721     		movs	r1, #7
 2256 02c8 8946     		mov	r9, r1
 2257 02ca 002A     		cmp	r2, #0
 2258 02cc 00D1     		bne	.LCB2174
 2259 02ce ABE6     		b	.L122	@long jump
 2260              	.LCB2174:
 2261 02d0 F1E7     		b	.L163
 2262              	.LVL189:
 2263              	.L275:
 2264              	.LBE77:
 711:../../../../../../Middlewares/Third_Party/LoRaWAN/Mac/region/RegionCN779.c ****         // Update the channels mask
 2265              		.loc 1 711 0
 2266 02d2 3800     		movs	r0, r7
 2267              	.LVL190:
 2268 02d4 0222     		movs	r2, #2
 2269 02d6 D030     		adds	r0, r0, #208
 2270 02d8 0021     		movs	r1, #0
 2271 02da FFF7FEFF 		bl	memset1
 2272              	.LVL191:
 713:../../../../../../Middlewares/Third_Party/LoRaWAN/Mac/region/RegionCN779.c ****     }
 2273              		.loc 1 713 0
 2274 02de 02AB     		add	r3, sp, #8
 2275 02e0 DA88     		ldrh	r2, [r3, #6]
 2276 02e2 D023     		movs	r3, #208
 2277 02e4 FA52     		strh	r2, [r7, r3]
 2278 02e6 62E7     		b	.L125
 2279              	.LVL192:
 2280              	.L276:
 2281              	.LBB78:
 667:../../../../../../Middlewares/Third_Party/LoRaWAN/Mac/region/RegionCN779.c ****                     }
 2282              		.loc 1 667 0
 2283 02e8 8022     		movs	r2, #128
 2284 02ea 9201     		lsls	r2, r2, #6
 2285 02ec 1343     		orrs	r3, r2
 2286              	.LVL193:
 665:../../../../../../Middlewares/Third_Party/LoRaWAN/Mac/region/RegionCN779.c ****                     {
 2287              		.loc 1 665 0
ARM GAS  C:\Users\EBANO_~1\AppData\Local\Temp\ccKJ5gfE.s 			page 64


 2288 02ee A822     		movs	r2, #168
 2289 02f0 BA58     		ldr	r2, [r7, r2]
 2290 02f2 002A     		cmp	r2, #0
 2291 02f4 D5D1     		bne	.L161
 2292 02f6 D7E7     		b	.L274
 2293              	.L278:
 2294              		.align	2
 2295              	.L277:
 2296 02f8 00000000 		.word	NvmCtx
 2297              	.LBE78:
 2298              		.cfi_endproc
 2299              	.LFE54:
 2300              		.size	RegionCN779LinkAdrReq, .-RegionCN779LinkAdrReq
 2301              		.section	.text.RegionCN779RxParamSetupReq,"ax",%progbits
 2302              		.align	1
 2303              		.p2align 2,,3
 2304              		.global	RegionCN779RxParamSetupReq
 2305              		.syntax unified
 2306              		.code	16
 2307              		.thumb_func
 2308              		.fpu softvfp
 2309              		.type	RegionCN779RxParamSetupReq, %function
 2310              	RegionCN779RxParamSetupReq:
 2311              	.LFB55:
 726:../../../../../../Middlewares/Third_Party/LoRaWAN/Mac/region/RegionCN779.c ****     uint8_t status = 0x07;
 2312              		.loc 1 726 0
 2313              		.cfi_startproc
 2314              		@ args = 0, pretend = 0, frame = 8
 2315              		@ frame_needed = 0, uses_anonymous_args = 0
 2316              	.LVL194:
 2317 0000 70B5     		push	{r4, r5, r6, lr}
 2318              	.LCFI22:
 2319              		.cfi_def_cfa_offset 16
 2320              		.cfi_offset 4, -16
 2321              		.cfi_offset 5, -12
 2322              		.cfi_offset 6, -8
 2323              		.cfi_offset 14, -4
 2324              	.LBB79:
 2325              	.LBB80:
 111:../../../../../../Middlewares/Third_Party/LoRaWAN/Mac/region/RegionCN779.c ****     {
 2326              		.loc 1 111 0
 2327 0002 154B     		ldr	r3, .L289
 2328              	.LBE80:
 2329              	.LBE79:
 730:../../../../../../Middlewares/Third_Party/LoRaWAN/Mac/region/RegionCN779.c ****     {
 2330              		.loc 1 730 0
 2331 0004 4568     		ldr	r5, [r0, #4]
 2332              	.LVL195:
 2333              	.LBB84:
 2334              	.LBB81:
 111:../../../../../../Middlewares/Third_Party/LoRaWAN/Mac/region/RegionCN779.c ****     {
 2335              		.loc 1 111 0
 2336 0006 9B6A     		ldr	r3, [r3, #40]
 2337              	.LBE81:
 2338              	.LBE84:
 726:../../../../../../Middlewares/Third_Party/LoRaWAN/Mac/region/RegionCN779.c ****     uint8_t status = 0x07;
 2339              		.loc 1 726 0
ARM GAS  C:\Users\EBANO_~1\AppData\Local\Temp\ccKJ5gfE.s 			page 65


 2340 0008 82B0     		sub	sp, sp, #8
 2341              	.LCFI23:
 2342              		.cfi_def_cfa_offset 24
 726:../../../../../../Middlewares/Third_Party/LoRaWAN/Mac/region/RegionCN779.c ****     uint8_t status = 0x07;
 2343              		.loc 1 726 0
 2344 000a 0400     		movs	r4, r0
 2345              	.LBB85:
 2346              	.LBB82:
 111:../../../../../../Middlewares/Third_Party/LoRaWAN/Mac/region/RegionCN779.c ****     {
 2347              		.loc 1 111 0
 2348 000c 2800     		movs	r0, r5
 2349              	.LVL196:
 2350 000e 0193     		str	r3, [sp, #4]
 2351 0010 9847     		blx	r3
 2352              	.LVL197:
 2353 0012 0028     		cmp	r0, #0
 2354 0014 05D0     		beq	.L284
 116:../../../../../../Middlewares/Third_Party/LoRaWAN/Mac/region/RegionCN779.c ****     {
 2355              		.loc 1 116 0
 2356 0016 114B     		ldr	r3, .L289+4
 2357 0018 9C46     		mov	ip, r3
 2358 001a 114B     		ldr	r3, .L289+8
 2359 001c 6544     		add	r5, r5, ip
 2360              	.LVL198:
 2361 001e 9D42     		cmp	r5, r3
 2362 0020 17D9     		bls	.L288
 2363              	.LVL199:
 2364              	.L284:
 2365 0022 0425     		movs	r5, #4
 2366              	.LBE82:
 2367              	.LBE85:
 732:../../../../../../Middlewares/Third_Party/LoRaWAN/Mac/region/RegionCN779.c ****     }
 2368              		.loc 1 732 0
 2369 0024 0626     		movs	r6, #6
 2370              	.L280:
 2371              	.LVL200:
 736:../../../../../../Middlewares/Third_Party/LoRaWAN/Mac/region/RegionCN779.c ****     {
 2372              		.loc 1 736 0
 2373 0026 0020     		movs	r0, #0
 2374 0028 0722     		movs	r2, #7
 2375 002a 2056     		ldrsb	r0, [r4, r0]
 2376 002c 0021     		movs	r1, #0
 2377 002e FFF7FEFF 		bl	RegionCommonValueInRange
 2378              	.LVL201:
 2379 0032 0028     		cmp	r0, #0
 2380 0034 00D0     		beq	.L281
 2381 0036 3500     		movs	r5, r6
 2382              	.L281:
 2383              	.LVL202:
 742:../../../../../../Middlewares/Third_Party/LoRaWAN/Mac/region/RegionCN779.c ****     {
 2384              		.loc 1 742 0
 2385 0038 0120     		movs	r0, #1
 2386 003a 0522     		movs	r2, #5
 2387 003c 2056     		ldrsb	r0, [r4, r0]
 2388 003e 0021     		movs	r1, #0
 2389 0040 FFF7FEFF 		bl	RegionCommonValueInRange
 2390              	.LVL203:
ARM GAS  C:\Users\EBANO_~1\AppData\Local\Temp\ccKJ5gfE.s 			page 66


 2391 0044 0028     		cmp	r0, #0
 2392 0046 01D1     		bne	.L282
 744:../../../../../../Middlewares/Third_Party/LoRaWAN/Mac/region/RegionCN779.c ****     }
 2393              		.loc 1 744 0
 2394 0048 FB23     		movs	r3, #251
 2395 004a 1D40     		ands	r5, r3
 2396              	.LVL204:
 2397              	.L282:
 748:../../../../../../Middlewares/Third_Party/LoRaWAN/Mac/region/RegionCN779.c **** 
 2398              		.loc 1 748 0
 2399 004c 2800     		movs	r0, r5
 2400 004e 02B0     		add	sp, sp, #8
 2401              		@ sp needed
 2402              	.LVL205:
 2403              	.LVL206:
 2404 0050 70BD     		pop	{r4, r5, r6, pc}
 2405              	.LVL207:
 2406              	.L288:
 2407              	.LBB86:
 2408              	.LBB83:
 116:../../../../../../Middlewares/Third_Party/LoRaWAN/Mac/region/RegionCN779.c ****     {
 2409              		.loc 1 116 0
 2410 0052 0525     		movs	r5, #5
 2411              	.LVL208:
 2412              	.LBE83:
 2413              	.LBE86:
 727:../../../../../../Middlewares/Third_Party/LoRaWAN/Mac/region/RegionCN779.c **** 
 2414              		.loc 1 727 0
 2415 0054 0726     		movs	r6, #7
 2416 0056 E6E7     		b	.L280
 2417              	.L290:
 2418              		.align	2
 2419              	.L289:
 2420 0058 00000000 		.word	Radio
 2421 005c 20C689D1 		.word	-779500000
 2422 0060 C0CF6A00 		.word	7000000
 2423              		.cfi_endproc
 2424              	.LFE55:
 2425              		.size	RegionCN779RxParamSetupReq, .-RegionCN779RxParamSetupReq
 2426              		.section	.text.RegionCN779NewChannelReq,"ax",%progbits
 2427              		.align	1
 2428              		.p2align 2,,3
 2429              		.global	RegionCN779NewChannelReq
 2430              		.syntax unified
 2431              		.code	16
 2432              		.thumb_func
 2433              		.fpu softvfp
 2434              		.type	RegionCN779NewChannelReq, %function
 2435              	RegionCN779NewChannelReq:
 2436              	.LFB56:
 751:../../../../../../Middlewares/Third_Party/LoRaWAN/Mac/region/RegionCN779.c ****     uint8_t status = 0x03;
 2437              		.loc 1 751 0
 2438              		.cfi_startproc
 2439              		@ args = 0, pretend = 0, frame = 8
 2440              		@ frame_needed = 0, uses_anonymous_args = 0
 2441              	.LVL209:
 2442 0000 F0B5     		push	{r4, r5, r6, r7, lr}
ARM GAS  C:\Users\EBANO_~1\AppData\Local\Temp\ccKJ5gfE.s 			page 67


 2443              	.LCFI24:
 2444              		.cfi_def_cfa_offset 20
 2445              		.cfi_offset 4, -20
 2446              		.cfi_offset 5, -16
 2447              		.cfi_offset 6, -12
 2448              		.cfi_offset 7, -8
 2449              		.cfi_offset 14, -4
 2450 0002 C646     		mov	lr, r8
 2451 0004 00B5     		push	{lr}
 2452              	.LCFI25:
 2453              		.cfi_def_cfa_offset 24
 2454              		.cfi_offset 8, -24
 756:../../../../../../Middlewares/Third_Party/LoRaWAN/Mac/region/RegionCN779.c ****     {
 2455              		.loc 1 756 0
 2456 0006 0468     		ldr	r4, [r0]
 751:../../../../../../Middlewares/Third_Party/LoRaWAN/Mac/region/RegionCN779.c ****     uint8_t status = 0x03;
 2457              		.loc 1 751 0
 2458 0008 82B0     		sub	sp, sp, #8
 2459              	.LCFI26:
 2460              		.cfi_def_cfa_offset 32
 756:../../../../../../Middlewares/Third_Party/LoRaWAN/Mac/region/RegionCN779.c ****     {
 2461              		.loc 1 756 0
 2462 000a 2368     		ldr	r3, [r4]
 2463 000c 0579     		ldrb	r5, [r0, #4]
 2464 000e 002B     		cmp	r3, #0
 2465 0010 06D1     		bne	.L292
 2466              	.LVL210:
 2467              	.LBB93:
 2468              	.LBB94:
 971:../../../../../../Middlewares/Third_Party/LoRaWAN/Mac/region/RegionCN779.c ****     {
 2469              		.loc 1 971 0
 2470 0012 022D     		cmp	r5, #2
 2471 0014 4AD8     		bhi	.L311
 2472              	.LVL211:
 2473              	.L293:
 2474              	.LBE94:
 2475              	.LBE93:
 763:../../../../../../Middlewares/Third_Party/LoRaWAN/Mac/region/RegionCN779.c ****         }
 2476              		.loc 1 763 0
 2477 0016 0020     		movs	r0, #0
 2478              	.L306:
 801:../../../../../../Middlewares/Third_Party/LoRaWAN/Mac/region/RegionCN779.c **** 
 2479              		.loc 1 801 0
 2480 0018 02B0     		add	sp, sp, #8
 2481              		@ sp needed
 2482 001a 04BC     		pop	{r2}
 2483 001c 9046     		mov	r8, r2
 2484 001e F0BD     		pop	{r4, r5, r6, r7, pc}
 2485              	.LVL212:
 2486              	.L292:
 2487              	.LBB96:
 2488              	.LBB97:
 914:../../../../../../Middlewares/Third_Party/LoRaWAN/Mac/region/RegionCN779.c ****     {
 2489              		.loc 1 914 0
 2490 0020 EB1E     		subs	r3, r5, #3
 2491 0022 0C2B     		cmp	r3, #12
 2492 0024 F7D8     		bhi	.L293
ARM GAS  C:\Users\EBANO_~1\AppData\Local\Temp\ccKJ5gfE.s 			page 68


 925:../../../../../../Middlewares/Third_Party/LoRaWAN/Mac/region/RegionCN779.c ****     {
 2493              		.loc 1 925 0
 2494 0026 207A     		ldrb	r0, [r4, #8]
 2495              	.LVL213:
 2496 0028 0722     		movs	r2, #7
 2497 002a 0007     		lsls	r0, r0, #28
 2498 002c 0021     		movs	r1, #0
 2499 002e 0017     		asrs	r0, r0, #28
 2500 0030 FFF7FEFF 		bl	RegionCommonValueInRange
 2501              	.LVL214:
 2502 0034 0600     		movs	r6, r0
 2503              	.LVL215:
 929:../../../../../../Middlewares/Third_Party/LoRaWAN/Mac/region/RegionCN779.c ****     {
 2504              		.loc 1 929 0
 2505 0036 0820     		movs	r0, #8
 2506 0038 2056     		ldrsb	r0, [r4, r0]
 2507 003a 0722     		movs	r2, #7
 2508 003c 0011     		asrs	r0, r0, #4
 2509 003e 0021     		movs	r1, #0
 2510 0040 FFF7FEFF 		bl	RegionCommonValueInRange
 2511              	.LVL216:
 931:../../../../../../Middlewares/Third_Party/LoRaWAN/Mac/region/RegionCN779.c ****     }
 2512              		.loc 1 931 0
 2513 0044 0127     		movs	r7, #1
 929:../../../../../../Middlewares/Third_Party/LoRaWAN/Mac/region/RegionCN779.c ****     {
 2514              		.loc 1 929 0
 2515 0046 0028     		cmp	r0, #0
 2516 0048 02D0     		beq	.L295
 925:../../../../../../Middlewares/Third_Party/LoRaWAN/Mac/region/RegionCN779.c ****     {
 2517              		.loc 1 925 0
 2518 004a 7742     		rsbs	r7, r6, #0
 2519 004c 7741     		adcs	r7, r7, r6
 2520              	.LVL217:
 2521 004e FFB2     		uxtb	r7, r7
 2522              	.L295:
 2523              	.LVL218:
 2524 0050 294B     		ldr	r3, .L312
 2525 0052 2668     		ldr	r6, [r4]
 2526 0054 9B6A     		ldr	r3, [r3, #40]
 2527              	.LBB98:
 2528              	.LBB99:
 111:../../../../../../Middlewares/Third_Party/LoRaWAN/Mac/region/RegionCN779.c ****     {
 2529              		.loc 1 111 0
 2530 0056 3000     		movs	r0, r6
 2531 0058 0193     		str	r3, [sp, #4]
 2532              	.LBE99:
 2533              	.LBE98:
 933:../../../../../../Middlewares/Third_Party/LoRaWAN/Mac/region/RegionCN779.c ****     {
 2534              		.loc 1 933 0
 2535 005a 237A     		ldrb	r3, [r4, #8]
 2536 005c 1A07     		lsls	r2, r3, #28
 2537 005e 5BB2     		sxtb	r3, r3
 2538 0060 1217     		asrs	r2, r2, #28
 2539 0062 1B11     		asrs	r3, r3, #4
 2540 0064 9A42     		cmp	r2, r3
 2541 0066 39DC     		bgt	.L296
 2542              	.LVL219:
ARM GAS  C:\Users\EBANO_~1\AppData\Local\Temp\ccKJ5gfE.s 			page 69


 2543              	.LBB102:
 2544              	.LBB100:
 111:../../../../../../Middlewares/Third_Party/LoRaWAN/Mac/region/RegionCN779.c ****     {
 2545              		.loc 1 111 0
 2546 0068 019B     		ldr	r3, [sp, #4]
 2547 006a 9847     		blx	r3
 2548              	.LVL220:
 2549 006c 0028     		cmp	r0, #0
 2550 006e 31D0     		beq	.L297
 116:../../../../../../Middlewares/Third_Party/LoRaWAN/Mac/region/RegionCN779.c ****     {
 2551              		.loc 1 116 0
 2552 0070 224B     		ldr	r3, .L312+4
 2553 0072 9C46     		mov	ip, r3
 2554 0074 224B     		ldr	r3, .L312+8
 2555 0076 6644     		add	r6, r6, ip
 2556 0078 9E42     		cmp	r6, r3
 2557 007a 2BD8     		bhi	.L297
 2558              	.LBE100:
 2559              	.LBE102:
 948:../../../../../../Middlewares/Third_Party/LoRaWAN/Mac/region/RegionCN779.c ****     {
 2560              		.loc 1 948 0
 2561 007c 002F     		cmp	r7, #0
 2562 007e 38D1     		bne	.L301
 961:../../../../../../Middlewares/Third_Party/LoRaWAN/Mac/region/RegionCN779.c ****     NvmCtx.Channels[id].Band = 0;
 2563              		.loc 1 961 0
 2564 0080 204B     		ldr	r3, .L312+12
 2565 0082 6E00     		lsls	r6, r5, #1
 2566 0084 9846     		mov	r8, r3
 2567 0086 7619     		adds	r6, r6, r5
 2568 0088 B600     		lsls	r6, r6, #2
 2569 008a 4644     		add	r6, r6, r8
 2570 008c 0C22     		movs	r2, #12
 2571 008e 2100     		movs	r1, r4
 2572 0090 3000     		movs	r0, r6
 2573 0092 FFF7FEFF 		bl	memcpy1
 2574              	.LVL221:
 963:../../../../../../Middlewares/Third_Party/LoRaWAN/Mac/region/RegionCN779.c ****     return LORAMAC_STATUS_OK;
 2575              		.loc 1 963 0
 2576 0096 0122     		movs	r2, #1
 2577 0098 D021     		movs	r1, #208
 2578 009a 4346     		mov	r3, r8
 2579 009c AA40     		lsls	r2, r2, r5
 962:../../../../../../Middlewares/Third_Party/LoRaWAN/Mac/region/RegionCN779.c ****     NvmCtx.ChannelsMask[0] |= ( 1 << id );
 2580              		.loc 1 962 0
 2581 009e 7772     		strb	r7, [r6, #9]
 963:../../../../../../Middlewares/Third_Party/LoRaWAN/Mac/region/RegionCN779.c ****     return LORAMAC_STATUS_OK;
 2582              		.loc 1 963 0
 2583 00a0 5B5A     		ldrh	r3, [r3, r1]
 2584              	.LBE97:
 2585              	.LBE96:
 752:../../../../../../Middlewares/Third_Party/LoRaWAN/Mac/region/RegionCN779.c ****     ChannelAddParams_t channelAdd;
 2586              		.loc 1 752 0
 2587 00a2 0320     		movs	r0, #3
 2588              	.LBB107:
 2589              	.LBB104:
 963:../../../../../../Middlewares/Third_Party/LoRaWAN/Mac/region/RegionCN779.c ****     return LORAMAC_STATUS_OK;
 2590              		.loc 1 963 0
ARM GAS  C:\Users\EBANO_~1\AppData\Local\Temp\ccKJ5gfE.s 			page 70


 2591 00a4 1343     		orrs	r3, r2
 2592 00a6 4246     		mov	r2, r8
 2593 00a8 5352     		strh	r3, [r2, r1]
 2594              	.LVL222:
 2595              	.LBE104:
 2596              	.LBE107:
 800:../../../../../../Middlewares/Third_Party/LoRaWAN/Mac/region/RegionCN779.c **** }
 2597              		.loc 1 800 0
 2598 00aa B5E7     		b	.L306
 2599              	.LVL223:
 2600              	.L311:
 2601              	.LBB108:
 2602              	.LBB95:
 977:../../../../../../Middlewares/Third_Party/LoRaWAN/Mac/region/RegionCN779.c **** 
 2603              		.loc 1 977 0
 2604 00ac 6800     		lsls	r0, r5, #1
 2605              	.LVL224:
 2606 00ae 154C     		ldr	r4, .L312+12
 2607 00b0 4019     		adds	r0, r0, r5
 2608 00b2 8000     		lsls	r0, r0, #2
 2609 00b4 0C22     		movs	r2, #12
 2610 00b6 0021     		movs	r1, #0
 2611 00b8 2018     		adds	r0, r4, r0
 2612 00ba FFF7FEFF 		bl	memset
 2613              	.LVL225:
 2614              		.loc 1 979 0
 2615 00be 2000     		movs	r0, r4
 2616 00c0 1022     		movs	r2, #16
 2617 00c2 D030     		adds	r0, r0, #208
 2618 00c4 2900     		movs	r1, r5
 2619 00c6 FFF7FEFF 		bl	RegionCommonChanDisable
 2620              	.LVL226:
 2621 00ca 0300     		movs	r3, r0
 2622              	.LVL227:
 2623              	.LBE95:
 2624              	.LBE108:
 752:../../../../../../Middlewares/Third_Party/LoRaWAN/Mac/region/RegionCN779.c ****     ChannelAddParams_t channelAdd;
 2625              		.loc 1 752 0
 2626 00cc 0320     		movs	r0, #3
 761:../../../../../../Middlewares/Third_Party/LoRaWAN/Mac/region/RegionCN779.c ****         {
 2627              		.loc 1 761 0
 2628 00ce 002B     		cmp	r3, #0
 2629 00d0 A2D1     		bne	.L306
 2630 00d2 A0E7     		b	.L293
 2631              	.LVL228:
 2632              	.L297:
 2633              	.LBB109:
 2634              	.LBB105:
 948:../../../../../../Middlewares/Third_Party/LoRaWAN/Mac/region/RegionCN779.c ****     {
 2635              		.loc 1 948 0
 2636 00d4 002F     		cmp	r7, #0
 2637 00d6 9ED1     		bne	.L293
 2638              	.LBE105:
 2639              	.LBE109:
 779:../../../../../../Middlewares/Third_Party/LoRaWAN/Mac/region/RegionCN779.c ****                 break;
 2640              		.loc 1 779 0
 2641 00d8 0220     		movs	r0, #2
ARM GAS  C:\Users\EBANO_~1\AppData\Local\Temp\ccKJ5gfE.s 			page 71


 2642 00da 9DE7     		b	.L306
 2643              	.LVL229:
 2644              	.L296:
 2645              	.LBB110:
 2646              	.LBB106:
 2647              	.LBB103:
 2648              	.LBB101:
 111:../../../../../../Middlewares/Third_Party/LoRaWAN/Mac/region/RegionCN779.c ****     {
 2649              		.loc 1 111 0
 2650 00dc 019B     		ldr	r3, [sp, #4]
 2651 00de 9847     		blx	r3
 2652              	.LVL230:
 2653 00e0 0028     		cmp	r0, #0
 2654 00e2 98D0     		beq	.L293
 116:../../../../../../Middlewares/Third_Party/LoRaWAN/Mac/region/RegionCN779.c ****     {
 2655              		.loc 1 116 0
 2656 00e4 054B     		ldr	r3, .L312+4
 2657 00e6 9C46     		mov	ip, r3
 2658 00e8 054B     		ldr	r3, .L312+8
 2659 00ea 6644     		add	r6, r6, ip
 2660 00ec 9E42     		cmp	r6, r3
 2661 00ee 00D9     		bls	.LCB2593
 2662 00f0 91E7     		b	.L293	@long jump
 2663              	.LCB2593:
 2664              	.LVL231:
 2665              	.L301:
 2666              	.LBE101:
 2667              	.LBE103:
 2668              	.LBE106:
 2669              	.LBE110:
 784:../../../../../../Middlewares/Third_Party/LoRaWAN/Mac/region/RegionCN779.c ****                 break;
 2670              		.loc 1 784 0
 2671 00f2 0120     		movs	r0, #1
 2672 00f4 90E7     		b	.L306
 2673              	.L313:
 2674 00f6 C046     		.align	2
 2675              	.L312:
 2676 00f8 00000000 		.word	Radio
 2677 00fc 20C689D1 		.word	-779500000
 2678 0100 C0CF6A00 		.word	7000000
 2679 0104 00000000 		.word	NvmCtx
 2680              		.cfi_endproc
 2681              	.LFE56:
 2682              		.size	RegionCN779NewChannelReq, .-RegionCN779NewChannelReq
 2683              		.section	.text.RegionCN779TxParamSetupReq,"ax",%progbits
 2684              		.align	1
 2685              		.p2align 2,,3
 2686              		.global	RegionCN779TxParamSetupReq
 2687              		.syntax unified
 2688              		.code	16
 2689              		.thumb_func
 2690              		.fpu softvfp
 2691              		.type	RegionCN779TxParamSetupReq, %function
 2692              	RegionCN779TxParamSetupReq:
 2693              	.LFB57:
 804:../../../../../../Middlewares/Third_Party/LoRaWAN/Mac/region/RegionCN779.c ****     return -1;
 2694              		.loc 1 804 0
ARM GAS  C:\Users\EBANO_~1\AppData\Local\Temp\ccKJ5gfE.s 			page 72


 2695              		.cfi_startproc
 2696              		@ args = 0, pretend = 0, frame = 0
 2697              		@ frame_needed = 0, uses_anonymous_args = 0
 2698              		@ link register save eliminated.
 2699              	.LVL232:
 805:../../../../../../Middlewares/Third_Party/LoRaWAN/Mac/region/RegionCN779.c **** }
 2700              		.loc 1 805 0
 2701 0000 0120     		movs	r0, #1
 2702              	.LVL233:
 806:../../../../../../Middlewares/Third_Party/LoRaWAN/Mac/region/RegionCN779.c **** 
 2703              		.loc 1 806 0
 2704              		@ sp needed
 2705 0002 4042     		rsbs	r0, r0, #0
 2706 0004 7047     		bx	lr
 2707              		.cfi_endproc
 2708              	.LFE57:
 2709              		.size	RegionCN779TxParamSetupReq, .-RegionCN779TxParamSetupReq
 2710 0006 C046     		.section	.text.RegionCN779DlChannelReq,"ax",%progbits
 2711              		.align	1
 2712              		.p2align 2,,3
 2713              		.global	RegionCN779DlChannelReq
 2714              		.syntax unified
 2715              		.code	16
 2716              		.thumb_func
 2717              		.fpu softvfp
 2718              		.type	RegionCN779DlChannelReq, %function
 2719              	RegionCN779DlChannelReq:
 2720              	.LFB58:
 809:../../../../../../Middlewares/Third_Party/LoRaWAN/Mac/region/RegionCN779.c ****     uint8_t status = 0x03;
 2721              		.loc 1 809 0
 2722              		.cfi_startproc
 2723              		@ args = 0, pretend = 0, frame = 8
 2724              		@ frame_needed = 0, uses_anonymous_args = 0
 2725              	.LVL234:
 2726 0000 30B5     		push	{r4, r5, lr}
 2727              	.LCFI27:
 2728              		.cfi_def_cfa_offset 12
 2729              		.cfi_offset 4, -12
 2730              		.cfi_offset 5, -8
 2731              		.cfi_offset 14, -4
 2732              	.LBB111:
 2733              	.LBB112:
 111:../../../../../../Middlewares/Third_Party/LoRaWAN/Mac/region/RegionCN779.c ****     {
 2734              		.loc 1 111 0
 2735 0002 174B     		ldr	r3, .L327
 2736              	.LBE112:
 2737              	.LBE111:
 813:../../../../../../Middlewares/Third_Party/LoRaWAN/Mac/region/RegionCN779.c ****     {
 2738              		.loc 1 813 0
 2739 0004 4468     		ldr	r4, [r0, #4]
 2740              	.LVL235:
 2741              	.LBB115:
 2742              	.LBB113:
 111:../../../../../../Middlewares/Third_Party/LoRaWAN/Mac/region/RegionCN779.c ****     {
 2743              		.loc 1 111 0
 2744 0006 9B6A     		ldr	r3, [r3, #40]
 2745              	.LBE113:
ARM GAS  C:\Users\EBANO_~1\AppData\Local\Temp\ccKJ5gfE.s 			page 73


 2746              	.LBE115:
 809:../../../../../../Middlewares/Third_Party/LoRaWAN/Mac/region/RegionCN779.c ****     uint8_t status = 0x03;
 2747              		.loc 1 809 0
 2748 0008 83B0     		sub	sp, sp, #12
 2749              	.LCFI28:
 2750              		.cfi_def_cfa_offset 24
 809:../../../../../../Middlewares/Third_Party/LoRaWAN/Mac/region/RegionCN779.c ****     uint8_t status = 0x03;
 2751              		.loc 1 809 0
 2752 000a 0500     		movs	r5, r0
 2753              	.LBB116:
 2754              	.LBB114:
 111:../../../../../../Middlewares/Third_Party/LoRaWAN/Mac/region/RegionCN779.c ****     {
 2755              		.loc 1 111 0
 2756 000c 2000     		movs	r0, r4
 2757              	.LVL236:
 2758 000e 0193     		str	r3, [sp, #4]
 2759 0010 9847     		blx	r3
 2760              	.LVL237:
 2761 0012 0028     		cmp	r0, #0
 2762 0014 19D0     		beq	.L316
 116:../../../../../../Middlewares/Third_Party/LoRaWAN/Mac/region/RegionCN779.c ****     {
 2763              		.loc 1 116 0
 2764 0016 1348     		ldr	r0, .L327+4
 2765 0018 2978     		ldrb	r1, [r5]
 2766 001a 8446     		mov	ip, r0
 2767 001c 4B00     		lsls	r3, r1, #1
 2768 001e 5B18     		adds	r3, r3, r1
 2769 0020 114A     		ldr	r2, .L327+8
 2770 0022 1248     		ldr	r0, .L327+12
 2771 0024 9B00     		lsls	r3, r3, #2
 2772 0026 6444     		add	r4, r4, ip
 2773              	.LVL238:
 2774 0028 9958     		ldr	r1, [r3, r2]
 2775 002a 8442     		cmp	r4, r0
 2776 002c 05D9     		bls	.L326
 2777              	.LVL239:
 2778              	.LBE114:
 2779              	.LBE116:
 815:../../../../../../Middlewares/Third_Party/LoRaWAN/Mac/region/RegionCN779.c ****     }
 2780              		.loc 1 815 0
 2781 002e 0800     		movs	r0, r1
 2782 0030 411E     		subs	r1, r0, #1
 2783 0032 8841     		sbcs	r0, r0, r1
 2784 0034 4000     		lsls	r0, r0, #1
 2785              	.LVL240:
 2786              	.L320:
 831:../../../../../../Middlewares/Third_Party/LoRaWAN/Mac/region/RegionCN779.c **** 
 2787              		.loc 1 831 0
 2788 0036 03B0     		add	sp, sp, #12
 2789              		@ sp needed
 2790              	.LVL241:
 2791 0038 30BD     		pop	{r4, r5, pc}
 2792              	.LVL242:
 2793              	.L326:
 819:../../../../../../Middlewares/Third_Party/LoRaWAN/Mac/region/RegionCN779.c ****     {
 2794              		.loc 1 819 0
 2795 003a 0120     		movs	r0, #1
ARM GAS  C:\Users\EBANO_~1\AppData\Local\Temp\ccKJ5gfE.s 			page 74


 2796 003c 0029     		cmp	r1, #0
 2797 003e FAD0     		beq	.L320
 827:../../../../../../Middlewares/Third_Party/LoRaWAN/Mac/region/RegionCN779.c ****     }
 2798              		.loc 1 827 0
 2799 0040 D318     		adds	r3, r2, r3
 2800 0042 6A68     		ldr	r2, [r5, #4]
 2801 0044 0320     		movs	r0, #3
 2802 0046 5A60     		str	r2, [r3, #4]
 2803 0048 F5E7     		b	.L320
 2804              	.LVL243:
 2805              	.L316:
 819:../../../../../../Middlewares/Third_Party/LoRaWAN/Mac/region/RegionCN779.c ****     {
 2806              		.loc 1 819 0
 2807 004a 2A78     		ldrb	r2, [r5]
 2808 004c 5300     		lsls	r3, r2, #1
 2809 004e 9B18     		adds	r3, r3, r2
 2810 0050 054A     		ldr	r2, .L327+8
 2811 0052 9B00     		lsls	r3, r3, #2
 2812 0054 9858     		ldr	r0, [r3, r2]
 2813 0056 431E     		subs	r3, r0, #1
 2814 0058 9841     		sbcs	r0, r0, r3
 2815 005a 4000     		lsls	r0, r0, #1
 2816 005c EBE7     		b	.L320
 2817              	.L328:
 2818 005e C046     		.align	2
 2819              	.L327:
 2820 0060 00000000 		.word	Radio
 2821 0064 20C689D1 		.word	-779500000
 2822 0068 00000000 		.word	NvmCtx
 2823 006c C0CF6A00 		.word	7000000
 2824              		.cfi_endproc
 2825              	.LFE58:
 2826              		.size	RegionCN779DlChannelReq, .-RegionCN779DlChannelReq
 2827              		.section	.text.RegionCN779AlternateDr,"ax",%progbits
 2828              		.align	1
 2829              		.p2align 2,,3
 2830              		.global	RegionCN779AlternateDr
 2831              		.syntax unified
 2832              		.code	16
 2833              		.thumb_func
 2834              		.fpu softvfp
 2835              		.type	RegionCN779AlternateDr, %function
 2836              	RegionCN779AlternateDr:
 2837              	.LFB59:
 834:../../../../../../Middlewares/Third_Party/LoRaWAN/Mac/region/RegionCN779.c ****     return currentDr;
 2838              		.loc 1 834 0
 2839              		.cfi_startproc
 2840              		@ args = 0, pretend = 0, frame = 0
 2841              		@ frame_needed = 0, uses_anonymous_args = 0
 2842              		@ link register save eliminated.
 2843              	.LVL244:
 836:../../../../../../Middlewares/Third_Party/LoRaWAN/Mac/region/RegionCN779.c **** 
 2844              		.loc 1 836 0
 2845              		@ sp needed
 2846 0000 7047     		bx	lr
 2847              		.cfi_endproc
 2848              	.LFE59:
ARM GAS  C:\Users\EBANO_~1\AppData\Local\Temp\ccKJ5gfE.s 			page 75


 2849              		.size	RegionCN779AlternateDr, .-RegionCN779AlternateDr
 2850 0002 C046     		.section	.text.RegionCN779CalcBackOff,"ax",%progbits
 2851              		.align	1
 2852              		.p2align 2,,3
 2853              		.global	RegionCN779CalcBackOff
 2854              		.syntax unified
 2855              		.code	16
 2856              		.thumb_func
 2857              		.fpu softvfp
 2858              		.type	RegionCN779CalcBackOff, %function
 2859              	RegionCN779CalcBackOff:
 2860              	.LFB60:
 839:../../../../../../Middlewares/Third_Party/LoRaWAN/Mac/region/RegionCN779.c ****     RegionCommonCalcBackOffParams_t calcBackOffParams;
 2861              		.loc 1 839 0
 2862              		.cfi_startproc
 2863              		@ args = 0, pretend = 0, frame = 24
 2864              		@ frame_needed = 0, uses_anonymous_args = 0
 2865              	.LVL245:
 2866 0000 00B5     		push	{lr}
 2867              	.LCFI29:
 2868              		.cfi_def_cfa_offset 4
 2869              		.cfi_offset 14, -4
 842:../../../../../../Middlewares/Third_Party/LoRaWAN/Mac/region/RegionCN779.c ****     calcBackOffParams.Bands = NvmCtx.Bands;
 2870              		.loc 1 842 0
 2871 0002 0B4A     		ldr	r2, .L331
 839:../../../../../../Middlewares/Third_Party/LoRaWAN/Mac/region/RegionCN779.c ****     RegionCommonCalcBackOffParams_t calcBackOffParams;
 2872              		.loc 1 839 0
 2873 0004 87B0     		sub	sp, sp, #28
 2874              	.LCFI30:
 2875              		.cfi_def_cfa_offset 32
 842:../../../../../../Middlewares/Third_Party/LoRaWAN/Mac/region/RegionCN779.c ****     calcBackOffParams.Bands = NvmCtx.Bands;
 2876              		.loc 1 842 0
 2877 0006 0192     		str	r2, [sp, #4]
 843:../../../../../../Middlewares/Third_Party/LoRaWAN/Mac/region/RegionCN779.c ****     calcBackOffParams.LastTxIsJoinRequest = calcBackOff->LastTxIsJoinRequest;
 2878              		.loc 1 843 0
 2879 0008 C032     		adds	r2, r2, #192
 2880 000a 0292     		str	r2, [sp, #8]
 844:../../../../../../Middlewares/Third_Party/LoRaWAN/Mac/region/RegionCN779.c ****     calcBackOffParams.Joined = calcBackOff->Joined;
 2881              		.loc 1 844 0
 2882 000c 4278     		ldrb	r2, [r0, #1]
 842:../../../../../../Middlewares/Third_Party/LoRaWAN/Mac/region/RegionCN779.c ****     calcBackOffParams.Bands = NvmCtx.Bands;
 2883              		.loc 1 842 0
 2884 000e 01AB     		add	r3, sp, #4
 844:../../../../../../Middlewares/Third_Party/LoRaWAN/Mac/region/RegionCN779.c ****     calcBackOffParams.Joined = calcBackOff->Joined;
 2885              		.loc 1 844 0
 2886 0010 1A72     		strb	r2, [r3, #8]
 845:../../../../../../Middlewares/Third_Party/LoRaWAN/Mac/region/RegionCN779.c ****     calcBackOffParams.DutyCycleEnabled = calcBackOff->DutyCycleEnabled;
 2887              		.loc 1 845 0
 2888 0012 0278     		ldrb	r2, [r0]
 2889 0014 5A72     		strb	r2, [r3, #9]
 846:../../../../../../Middlewares/Third_Party/LoRaWAN/Mac/region/RegionCN779.c ****     calcBackOffParams.Channel = calcBackOff->Channel;
 2890              		.loc 1 846 0
 2891 0016 8278     		ldrb	r2, [r0, #2]
 2892 0018 9A72     		strb	r2, [r3, #10]
 847:../../../../../../Middlewares/Third_Party/LoRaWAN/Mac/region/RegionCN779.c ****     calcBackOffParams.ElapsedTime = calcBackOff->ElapsedTime;
 2893              		.loc 1 847 0
 2894 001a C278     		ldrb	r2, [r0, #3]
ARM GAS  C:\Users\EBANO_~1\AppData\Local\Temp\ccKJ5gfE.s 			page 76


 2895 001c DA72     		strb	r2, [r3, #11]
 848:../../../../../../Middlewares/Third_Party/LoRaWAN/Mac/region/RegionCN779.c ****     calcBackOffParams.TxTimeOnAir = calcBackOff->TxTimeOnAir;
 2896              		.loc 1 848 0
 2897 001e 4268     		ldr	r2, [r0, #4]
 2898 0020 0492     		str	r2, [sp, #16]
 849:../../../../../../Middlewares/Third_Party/LoRaWAN/Mac/region/RegionCN779.c **** 
 2899              		.loc 1 849 0
 2900 0022 8268     		ldr	r2, [r0, #8]
 851:../../../../../../Middlewares/Third_Party/LoRaWAN/Mac/region/RegionCN779.c **** }
 2901              		.loc 1 851 0
 2902 0024 1800     		movs	r0, r3
 2903              	.LVL246:
 849:../../../../../../Middlewares/Third_Party/LoRaWAN/Mac/region/RegionCN779.c **** 
 2904              		.loc 1 849 0
 2905 0026 0592     		str	r2, [sp, #20]
 851:../../../../../../Middlewares/Third_Party/LoRaWAN/Mac/region/RegionCN779.c **** }
 2906              		.loc 1 851 0
 2907 0028 FFF7FEFF 		bl	RegionCommonCalcBackOff
 2908              	.LVL247:
 852:../../../../../../Middlewares/Third_Party/LoRaWAN/Mac/region/RegionCN779.c **** 
 2909              		.loc 1 852 0
 2910 002c 07B0     		add	sp, sp, #28
 2911              		@ sp needed
 2912 002e 00BD     		pop	{pc}
 2913              	.L332:
 2914              		.align	2
 2915              	.L331:
 2916 0030 00000000 		.word	NvmCtx
 2917              		.cfi_endproc
 2918              	.LFE60:
 2919              		.size	RegionCN779CalcBackOff, .-RegionCN779CalcBackOff
 2920              		.section	.text.RegionCN779NextChannel,"ax",%progbits
 2921              		.align	1
 2922              		.p2align 2,,3
 2923              		.global	RegionCN779NextChannel
 2924              		.syntax unified
 2925              		.code	16
 2926              		.thumb_func
 2927              		.fpu softvfp
 2928              		.type	RegionCN779NextChannel, %function
 2929              	RegionCN779NextChannel:
 2930              	.LFB61:
 855:../../../../../../Middlewares/Third_Party/LoRaWAN/Mac/region/RegionCN779.c ****     uint8_t nbEnabledChannels = 0;
 2931              		.loc 1 855 0
 2932              		.cfi_startproc
 2933              		@ args = 0, pretend = 0, frame = 40
 2934              		@ frame_needed = 0, uses_anonymous_args = 0
 2935              	.LVL248:
 2936 0000 F0B5     		push	{r4, r5, r6, r7, lr}
 2937              	.LCFI31:
 2938              		.cfi_def_cfa_offset 20
 2939              		.cfi_offset 4, -20
 2940              		.cfi_offset 5, -16
 2941              		.cfi_offset 6, -12
 2942              		.cfi_offset 7, -8
 2943              		.cfi_offset 14, -4
 2944 0002 DE46     		mov	lr, fp
ARM GAS  C:\Users\EBANO_~1\AppData\Local\Temp\ccKJ5gfE.s 			page 77


 2945 0004 4E46     		mov	r6, r9
 2946 0006 4546     		mov	r5, r8
 2947 0008 5746     		mov	r7, r10
 2948 000a E0B5     		push	{r5, r6, r7, lr}
 2949              	.LCFI32:
 2950              		.cfi_def_cfa_offset 36
 2951              		.cfi_offset 8, -36
 2952              		.cfi_offset 9, -32
 2953              		.cfi_offset 10, -28
 2954              		.cfi_offset 11, -24
 2955 000c 8BB0     		sub	sp, sp, #44
 2956              	.LCFI33:
 2957              		.cfi_def_cfa_offset 80
 855:../../../../../../Middlewares/Third_Party/LoRaWAN/Mac/region/RegionCN779.c ****     uint8_t nbEnabledChannels = 0;
 2958              		.loc 1 855 0
 2959 000e 0491     		str	r1, [sp, #16]
 2960 0010 0400     		movs	r4, r0
 858:../../../../../../Middlewares/Third_Party/LoRaWAN/Mac/region/RegionCN779.c ****     TimerTime_t nextTxDelay = 0;
 2961              		.loc 1 858 0
 2962 0012 0021     		movs	r1, #0
 2963              	.LVL249:
 855:../../../../../../Middlewares/Third_Party/LoRaWAN/Mac/region/RegionCN779.c ****     uint8_t nbEnabledChannels = 0;
 2964              		.loc 1 855 0
 2965 0014 9346     		mov	fp, r2
 858:../../../../../../Middlewares/Third_Party/LoRaWAN/Mac/region/RegionCN779.c ****     TimerTime_t nextTxDelay = 0;
 2966              		.loc 1 858 0
 2967 0016 06A8     		add	r0, sp, #24
 2968              	.LVL250:
 2969 0018 1022     		movs	r2, #16
 2970              	.LVL251:
 855:../../../../../../Middlewares/Third_Party/LoRaWAN/Mac/region/RegionCN779.c ****     uint8_t nbEnabledChannels = 0;
 2971              		.loc 1 855 0
 2972 001a 1E00     		movs	r6, r3
 858:../../../../../../Middlewares/Third_Party/LoRaWAN/Mac/region/RegionCN779.c ****     TimerTime_t nextTxDelay = 0;
 2973              		.loc 1 858 0
 2974 001c FFF7FEFF 		bl	memset
 2975              	.LVL252:
 861:../../../../../../Middlewares/Third_Party/LoRaWAN/Mac/region/RegionCN779.c ****     { // Reactivate default channels
 2976              		.loc 1 861 0
 2977 0020 644D     		ldr	r5, .L372
 2978 0022 0122     		movs	r2, #1
 2979 0024 0021     		movs	r1, #0
 2980 0026 2800     		movs	r0, r5
 2981 0028 FFF7FEFF 		bl	RegionCommonCountChannels
 2982              	.LVL253:
 2983 002c 0028     		cmp	r0, #0
 2984 002e 05D1     		bne	.L334
 863:../../../../../../Middlewares/Third_Party/LoRaWAN/Mac/region/RegionCN779.c ****     }
 2985              		.loc 1 863 0
 2986 0030 D022     		movs	r2, #208
 2987 0032 0721     		movs	r1, #7
 2988 0034 D03D     		subs	r5, r5, #208
 2989 0036 AB5A     		ldrh	r3, [r5, r2]
 2990 0038 0B43     		orrs	r3, r1
 2991 003a AB52     		strh	r3, [r5, r2]
 2992              	.L334:
 866:../../../../../../Middlewares/Third_Party/LoRaWAN/Mac/region/RegionCN779.c ****     {
ARM GAS  C:\Users\EBANO_~1\AppData\Local\Temp\ccKJ5gfE.s 			page 78


 2993              		.loc 1 866 0
 2994 003c 6068     		ldr	r0, [r4, #4]
 2995 003e 2568     		ldr	r5, [r4]
 2996 0040 FFF7FEFF 		bl	TimerGetElapsedTime
 2997              	.LVL254:
 2998 0044 8542     		cmp	r5, r0
 2999 0046 62D8     		bhi	.L335
 869:../../../../../../Middlewares/Third_Party/LoRaWAN/Mac/region/RegionCN779.c **** 
 3000              		.loc 1 869 0
 3001 0048 0023     		movs	r3, #0
 872:../../../../../../Middlewares/Third_Party/LoRaWAN/Mac/region/RegionCN779.c **** 
 3002              		.loc 1 872 0
 3003 004a 5B4D     		ldr	r5, .L372+4
 869:../../../../../../Middlewares/Third_Party/LoRaWAN/Mac/region/RegionCN779.c **** 
 3004              		.loc 1 869 0
 3005 004c 3360     		str	r3, [r6]
 872:../../../../../../Middlewares/Third_Party/LoRaWAN/Mac/region/RegionCN779.c **** 
 3006              		.loc 1 872 0
 3007 004e A17A     		ldrb	r1, [r4, #10]
 3008 0050 0133     		adds	r3, r3, #1
 3009 0052 607A     		ldrb	r0, [r4, #9]
 3010 0054 2A00     		movs	r2, r5
 3011 0056 FFF7FEFF 		bl	RegionCommonUpdateBandTimeOff
 3012              	.LVL255:
 875:../../../../../../Middlewares/Third_Party/LoRaWAN/Mac/region/RegionCN779.c ****                                                       NvmCtx.ChannelsMask, NvmCtx.Channels,
 3013              		.loc 1 875 0
 3014 005a 0823     		movs	r3, #8
 872:../../../../../../Middlewares/Third_Party/LoRaWAN/Mac/region/RegionCN779.c **** 
 3015              		.loc 1 872 0
 3016 005c 0390     		str	r0, [sp, #12]
 3017              	.LVL256:
 875:../../../../../../Middlewares/Third_Party/LoRaWAN/Mac/region/RegionCN779.c ****                                                       NvmCtx.ChannelsMask, NvmCtx.Channels,
 3018              		.loc 1 875 0
 3019 005e E356     		ldrsb	r3, [r4, r3]
 3020 0060 0193     		str	r3, [sp, #4]
 3021              	.LVL257:
 3022 0062 637A     		ldrb	r3, [r4, #9]
 3023 0064 002B     		cmp	r3, #0
 3024 0066 5DD1     		bne	.L336
 3025 0068 C03D     		subs	r5, r5, #192
 3026              	.LVL258:
 3027              	.LBB121:
 3028              	.LBB122:
 126:../../../../../../Middlewares/Third_Party/LoRaWAN/Mac/region/RegionCN779.c **** 
 3029              		.loc 1 126 0
 3030 006a 0293     		str	r3, [sp, #8]
 125:../../../../../../Middlewares/Third_Party/LoRaWAN/Mac/region/RegionCN779.c ****     uint8_t delayTransmission = 0;
 3031              		.loc 1 125 0
 3032 006c 9846     		mov	r8, r3
 3033              	.LBB123:
 3034              	.LBB124:
 132:../../../../../../Middlewares/Third_Party/LoRaWAN/Mac/region/RegionCN779.c ****             {
 3035              		.loc 1 132 0
 3036 006e D033     		adds	r3, r3, #208
 3037              	.LBE124:
 3038              	.LBE123:
 3039              	.LBE122:
ARM GAS  C:\Users\EBANO_~1\AppData\Local\Temp\ccKJ5gfE.s 			page 79


 3040              	.LBE121:
 875:../../../../../../Middlewares/Third_Party/LoRaWAN/Mac/region/RegionCN779.c ****                                                       NvmCtx.ChannelsMask, NvmCtx.Channels,
 3041              		.loc 1 875 0
 3042 0070 0024     		movs	r4, #0
 3043              	.LVL259:
 3044 0072 2E00     		movs	r6, r5
 3045              	.LVL260:
 3046              	.LBB134:
 3047              	.LBB131:
 3048              	.LBB128:
 3049              	.LBB125:
 132:../../../../../../Middlewares/Third_Party/LoRaWAN/Mac/region/RegionCN779.c ****             {
 3050              		.loc 1 132 0
 3051 0074 9A46     		mov	r10, r3
 3052 0076 0127     		movs	r7, #1
 3053 0078 0BE0     		b	.L339
 3054              	.LVL261:
 3055              	.L338:
 155:../../../../../../Middlewares/Third_Party/LoRaWAN/Mac/region/RegionCN779.c ****             }
 3056              		.loc 1 155 0
 3057 007a 4346     		mov	r3, r8
 3058 007c 0133     		adds	r3, r3, #1
 3059              	.LVL262:
 3060 007e 4146     		mov	r1, r8
 3061 0080 4846     		mov	r0, r9
 3062 0082 DBB2     		uxtb	r3, r3
 3063 0084 9846     		mov	r8, r3
 3064 0086 06AA     		add	r2, sp, #24
 3065              	.LVL263:
 3066 0088 5054     		strb	r0, [r2, r1]
 3067              	.LVL264:
 3068              	.L337:
 3069 008a 0134     		adds	r4, r4, #1
 3070              	.LVL265:
 3071 008c 0C35     		adds	r5, r5, #12
 130:../../../../../../Middlewares/Third_Party/LoRaWAN/Mac/region/RegionCN779.c ****         {
 3072              		.loc 1 130 0
 3073 008e 102C     		cmp	r4, #16
 3074 0090 27D0     		beq	.L340
 3075              	.LVL266:
 3076              	.L339:
 3077 0092 E3B2     		uxtb	r3, r4
 3078 0094 9946     		mov	r9, r3
 3079              	.LVL267:
 132:../../../../../../Middlewares/Third_Party/LoRaWAN/Mac/region/RegionCN779.c ****             {
 3080              		.loc 1 132 0
 3081 0096 5346     		mov	r3, r10
 3082 0098 F35A     		ldrh	r3, [r6, r3]
 3083 009a 2341     		asrs	r3, r3, r4
 3084 009c 1F42     		tst	r7, r3
 3085 009e F4D0     		beq	.L337
 134:../../../../../../Middlewares/Third_Party/LoRaWAN/Mac/region/RegionCN779.c ****                 { // Check if the channel is enabled
 3086              		.loc 1 134 0
 3087 00a0 2B68     		ldr	r3, [r5]
 3088 00a2 002B     		cmp	r3, #0
 3089 00a4 F1D0     		beq	.L337
 140:../../../../../../Middlewares/Third_Party/LoRaWAN/Mac/region/RegionCN779.c ****                     {
ARM GAS  C:\Users\EBANO_~1\AppData\Local\Temp\ccKJ5gfE.s 			page 80


 3090              		.loc 1 140 0
 3091 00a6 0723     		movs	r3, #7
 3092 00a8 2341     		asrs	r3, r3, r4
 3093 00aa 1F42     		tst	r7, r3
 3094 00ac EDD0     		beq	.L337
 146:../../../../../../Middlewares/Third_Party/LoRaWAN/Mac/region/RegionCN779.c ****                 { // Check if the current channel selection supports the given datarate
 3095              		.loc 1 146 0
 3096 00ae 297A     		ldrb	r1, [r5, #8]
 145:../../../../../../Middlewares/Third_Party/LoRaWAN/Mac/region/RegionCN779.c ****                                               channels[i + j].DrRange.Fields.Max ) == false )
 3097              		.loc 1 145 0
 3098 00b0 0198     		ldr	r0, [sp, #4]
 146:../../../../../../Middlewares/Third_Party/LoRaWAN/Mac/region/RegionCN779.c ****                 { // Check if the current channel selection supports the given datarate
 3099              		.loc 1 146 0
 3100 00b2 4AB2     		sxtb	r2, r1
 145:../../../../../../Middlewares/Third_Party/LoRaWAN/Mac/region/RegionCN779.c ****                                               channels[i + j].DrRange.Fields.Max ) == false )
 3101              		.loc 1 145 0
 3102 00b4 0907     		lsls	r1, r1, #28
 3103 00b6 1211     		asrs	r2, r2, #4
 3104 00b8 0917     		asrs	r1, r1, #28
 3105 00ba FFF7FEFF 		bl	RegionCommonValueInRange
 3106              	.LVL268:
 3107 00be 0028     		cmp	r0, #0
 3108 00c0 E3D0     		beq	.L337
 150:../../../../../../Middlewares/Third_Party/LoRaWAN/Mac/region/RegionCN779.c ****                 { // Check if the band is available for transmission
 3109              		.loc 1 150 0
 3110 00c2 3200     		movs	r2, r6
 3111 00c4 6B7A     		ldrb	r3, [r5, #9]
 3112 00c6 C032     		adds	r2, r2, #192
 3113 00c8 1B01     		lsls	r3, r3, #4
 3114 00ca 9B18     		adds	r3, r3, r2
 3115 00cc DB68     		ldr	r3, [r3, #12]
 3116 00ce 002B     		cmp	r3, #0
 3117 00d0 D3D0     		beq	.L338
 152:../../../../../../Middlewares/Third_Party/LoRaWAN/Mac/region/RegionCN779.c ****                     continue;
 3118              		.loc 1 152 0
 3119 00d2 029B     		ldr	r3, [sp, #8]
 3120 00d4 0134     		adds	r4, r4, #1
 3121 00d6 0133     		adds	r3, r3, #1
 3122 00d8 DBB2     		uxtb	r3, r3
 3123 00da 0293     		str	r3, [sp, #8]
 3124              	.LVL269:
 3125 00dc 0C35     		adds	r5, r5, #12
 130:../../../../../../Middlewares/Third_Party/LoRaWAN/Mac/region/RegionCN779.c ****         {
 3126              		.loc 1 130 0
 3127 00de 102C     		cmp	r4, #16
 3128 00e0 D7D1     		bne	.L339
 3129              	.LVL270:
 3130              	.L340:
 3131              	.LBE125:
 3132              	.LBE128:
 3133              	.LBE131:
 3134              	.LBE134:
 885:../../../../../../Middlewares/Third_Party/LoRaWAN/Mac/region/RegionCN779.c ****     {
 3135              		.loc 1 885 0
 3136 00e2 4346     		mov	r3, r8
 3137 00e4 002B     		cmp	r3, #0
 3138 00e6 57D1     		bne	.L371
ARM GAS  C:\Users\EBANO_~1\AppData\Local\Temp\ccKJ5gfE.s 			page 81


 895:../../../../../../Middlewares/Third_Party/LoRaWAN/Mac/region/RegionCN779.c ****         {
 3139              		.loc 1 895 0
 3140 00e8 029B     		ldr	r3, [sp, #8]
 3141 00ea 002B     		cmp	r3, #0
 3142 00ec 15D1     		bne	.L347
 902:../../../../../../Middlewares/Third_Party/LoRaWAN/Mac/region/RegionCN779.c ****         *time = 0;
 3143              		.loc 1 902 0
 3144 00ee D022     		movs	r2, #208
 3145 00f0 0721     		movs	r1, #7
 3146 00f2 B35A     		ldrh	r3, [r6, r2]
 904:../../../../../../Middlewares/Third_Party/LoRaWAN/Mac/region/RegionCN779.c ****     }
 3147              		.loc 1 904 0
 3148 00f4 0C20     		movs	r0, #12
 902:../../../../../../Middlewares/Third_Party/LoRaWAN/Mac/region/RegionCN779.c ****         *time = 0;
 3149              		.loc 1 902 0
 3150 00f6 0B43     		orrs	r3, r1
 3151 00f8 B352     		strh	r3, [r6, r2]
 903:../../../../../../Middlewares/Third_Party/LoRaWAN/Mac/region/RegionCN779.c ****         return LORAMAC_STATUS_NO_CHANNEL_FOUND;
 3152              		.loc 1 903 0
 3153 00fa 5B46     		mov	r3, fp
 3154 00fc 029A     		ldr	r2, [sp, #8]
 3155 00fe 1A60     		str	r2, [r3]
 3156              	.LVL271:
 3157              	.L348:
 906:../../../../../../Middlewares/Third_Party/LoRaWAN/Mac/region/RegionCN779.c **** 
 3158              		.loc 1 906 0
 3159 0100 0BB0     		add	sp, sp, #44
 3160              		@ sp needed
 3161              	.LVL272:
 3162 0102 3CBC     		pop	{r2, r3, r4, r5}
 3163 0104 9046     		mov	r8, r2
 3164 0106 9946     		mov	r9, r3
 3165 0108 A246     		mov	r10, r4
 3166 010a AB46     		mov	fp, r5
 3167 010c F0BD     		pop	{r4, r5, r6, r7, pc}
 3168              	.LVL273:
 3169              	.L335:
 882:../../../../../../Middlewares/Third_Party/LoRaWAN/Mac/region/RegionCN779.c ****     }
 3170              		.loc 1 882 0
 3171 010e 6068     		ldr	r0, [r4, #4]
 3172 0110 2568     		ldr	r5, [r4]
 3173 0112 FFF7FEFF 		bl	TimerGetElapsedTime
 3174              	.LVL274:
 3175 0116 2B1A     		subs	r3, r5, r0
 3176 0118 0393     		str	r3, [sp, #12]
 3177              	.LVL275:
 3178              	.L347:
 898:../../../../../../Middlewares/Third_Party/LoRaWAN/Mac/region/RegionCN779.c ****             return LORAMAC_STATUS_DUTYCYCLE_RESTRICTED;
 3179              		.loc 1 898 0
 3180 011a 5B46     		mov	r3, fp
 3181 011c 039A     		ldr	r2, [sp, #12]
 899:../../../../../../Middlewares/Third_Party/LoRaWAN/Mac/region/RegionCN779.c ****         }
 3182              		.loc 1 899 0
 3183 011e 0B20     		movs	r0, #11
 898:../../../../../../Middlewares/Third_Party/LoRaWAN/Mac/region/RegionCN779.c ****             return LORAMAC_STATUS_DUTYCYCLE_RESTRICTED;
 3184              		.loc 1 898 0
 3185 0120 1A60     		str	r2, [r3]
ARM GAS  C:\Users\EBANO_~1\AppData\Local\Temp\ccKJ5gfE.s 			page 82


 899:../../../../../../Middlewares/Third_Party/LoRaWAN/Mac/region/RegionCN779.c ****         }
 3186              		.loc 1 899 0
 3187 0122 EDE7     		b	.L348
 3188              	.LVL276:
 3189              	.L336:
 3190              	.LBB135:
 3191              	.LBB132:
 126:../../../../../../Middlewares/Third_Party/LoRaWAN/Mac/region/RegionCN779.c **** 
 3192              		.loc 1 126 0
 3193 0124 0023     		movs	r3, #0
 3194 0126 2F00     		movs	r7, r5
 3195 0128 0293     		str	r3, [sp, #8]
 125:../../../../../../Middlewares/Third_Party/LoRaWAN/Mac/region/RegionCN779.c ****     uint8_t delayTransmission = 0;
 3196              		.loc 1 125 0
 3197 012a 9846     		mov	r8, r3
 3198              	.LBB129:
 3199              	.LBB126:
 132:../../../../../../Middlewares/Third_Party/LoRaWAN/Mac/region/RegionCN779.c ****             {
 3200              		.loc 1 132 0
 3201 012c D033     		adds	r3, r3, #208
 3202 012e C03F     		subs	r7, r7, #192
 3203 0130 9A46     		mov	r10, r3
 3204 0132 CF3B     		subs	r3, r3, #207
 3205              	.LBE126:
 3206              	.LBE129:
 3207              	.LBE132:
 3208              	.LBE135:
 875:../../../../../../Middlewares/Third_Party/LoRaWAN/Mac/region/RegionCN779.c ****                                                       NvmCtx.ChannelsMask, NvmCtx.Channels,
 3209              		.loc 1 875 0
 3210 0134 0024     		movs	r4, #0
 3211              	.LVL277:
 3212 0136 3E00     		movs	r6, r7
 3213              	.LVL278:
 3214              	.LBB136:
 3215              	.LBB133:
 3216              	.LBB130:
 3217              	.LBB127:
 132:../../../../../../Middlewares/Third_Party/LoRaWAN/Mac/region/RegionCN779.c ****             {
 3218              		.loc 1 132 0
 3219 0138 9946     		mov	r9, r3
 150:../../../../../../Middlewares/Third_Party/LoRaWAN/Mac/region/RegionCN779.c ****                 { // Check if the band is available for transmission
 3220              		.loc 1 150 0
 3221 013a 0595     		str	r5, [sp, #20]
 3222 013c 03E0     		b	.L342
 3223              	.LVL279:
 3224              	.L343:
 3225 013e 0134     		adds	r4, r4, #1
 3226              	.LVL280:
 3227 0140 0C37     		adds	r7, r7, #12
 130:../../../../../../Middlewares/Third_Party/LoRaWAN/Mac/region/RegionCN779.c ****         {
 3228              		.loc 1 130 0
 3229 0142 102C     		cmp	r4, #16
 3230 0144 CDD0     		beq	.L340
 3231              	.LVL281:
 3232              	.L342:
 132:../../../../../../Middlewares/Third_Party/LoRaWAN/Mac/region/RegionCN779.c ****             {
 3233              		.loc 1 132 0
ARM GAS  C:\Users\EBANO_~1\AppData\Local\Temp\ccKJ5gfE.s 			page 83


 3234 0146 5346     		mov	r3, r10
 3235 0148 F35A     		ldrh	r3, [r6, r3]
 3236 014a 4A46     		mov	r2, r9
 3237 014c 2341     		asrs	r3, r3, r4
 3238 014e E5B2     		uxtb	r5, r4
 3239              	.LVL282:
 3240 0150 1A42     		tst	r2, r3
 3241 0152 F4D0     		beq	.L343
 134:../../../../../../Middlewares/Third_Party/LoRaWAN/Mac/region/RegionCN779.c ****                 { // Check if the channel is enabled
 3242              		.loc 1 134 0
 3243 0154 3B68     		ldr	r3, [r7]
 3244 0156 002B     		cmp	r3, #0
 3245 0158 F1D0     		beq	.L343
 146:../../../../../../Middlewares/Third_Party/LoRaWAN/Mac/region/RegionCN779.c ****                 { // Check if the current channel selection supports the given datarate
 3246              		.loc 1 146 0
 3247 015a 397A     		ldrb	r1, [r7, #8]
 145:../../../../../../Middlewares/Third_Party/LoRaWAN/Mac/region/RegionCN779.c ****                                               channels[i + j].DrRange.Fields.Max ) == false )
 3248              		.loc 1 145 0
 3249 015c 0198     		ldr	r0, [sp, #4]
 146:../../../../../../Middlewares/Third_Party/LoRaWAN/Mac/region/RegionCN779.c ****                 { // Check if the current channel selection supports the given datarate
 3250              		.loc 1 146 0
 3251 015e 4AB2     		sxtb	r2, r1
 145:../../../../../../Middlewares/Third_Party/LoRaWAN/Mac/region/RegionCN779.c ****                                               channels[i + j].DrRange.Fields.Max ) == false )
 3252              		.loc 1 145 0
 3253 0160 0907     		lsls	r1, r1, #28
 3254 0162 1211     		asrs	r2, r2, #4
 3255 0164 0917     		asrs	r1, r1, #28
 3256 0166 FFF7FEFF 		bl	RegionCommonValueInRange
 3257              	.LVL283:
 3258 016a 0028     		cmp	r0, #0
 3259 016c E7D0     		beq	.L343
 150:../../../../../../Middlewares/Third_Party/LoRaWAN/Mac/region/RegionCN779.c ****                 { // Check if the band is available for transmission
 3260              		.loc 1 150 0
 3261 016e 059A     		ldr	r2, [sp, #20]
 3262 0170 7B7A     		ldrb	r3, [r7, #9]
 3263 0172 9446     		mov	ip, r2
 3264 0174 1B01     		lsls	r3, r3, #4
 3265 0176 6344     		add	r3, r3, ip
 3266 0178 DB68     		ldr	r3, [r3, #12]
 3267 017a 002B     		cmp	r3, #0
 3268 017c 07D1     		bne	.L344
 155:../../../../../../Middlewares/Third_Party/LoRaWAN/Mac/region/RegionCN779.c ****             }
 3269              		.loc 1 155 0
 3270 017e 4346     		mov	r3, r8
 3271 0180 4146     		mov	r1, r8
 3272 0182 0133     		adds	r3, r3, #1
 3273              	.LVL284:
 3274 0184 06AA     		add	r2, sp, #24
 3275              	.LVL285:
 3276 0186 DBB2     		uxtb	r3, r3
 3277 0188 5554     		strb	r5, [r2, r1]
 3278 018a 9846     		mov	r8, r3
 3279 018c D7E7     		b	.L343
 3280              	.LVL286:
 3281              	.L344:
 152:../../../../../../Middlewares/Third_Party/LoRaWAN/Mac/region/RegionCN779.c ****                     continue;
 3282              		.loc 1 152 0
ARM GAS  C:\Users\EBANO_~1\AppData\Local\Temp\ccKJ5gfE.s 			page 84


 3283 018e 029B     		ldr	r3, [sp, #8]
 3284 0190 0133     		adds	r3, r3, #1
 3285 0192 DBB2     		uxtb	r3, r3
 3286 0194 0293     		str	r3, [sp, #8]
 3287              	.LVL287:
 3288 0196 D2E7     		b	.L343
 3289              	.LVL288:
 3290              	.L371:
 3291              	.LBE127:
 3292              	.LBE130:
 3293              	.LBE133:
 3294              	.LBE136:
 888:../../../../../../Middlewares/Third_Party/LoRaWAN/Mac/region/RegionCN779.c **** 
 3295              		.loc 1 888 0
 3296 0198 4146     		mov	r1, r8
 3297 019a 0020     		movs	r0, #0
 3298 019c 0139     		subs	r1, r1, #1
 3299 019e FFF7FEFF 		bl	randr
 3300              	.LVL289:
 3301 01a2 06AB     		add	r3, sp, #24
 3302 01a4 1B5C     		ldrb	r3, [r3, r0]
 3303 01a6 049A     		ldr	r2, [sp, #16]
 891:../../../../../../Middlewares/Third_Party/LoRaWAN/Mac/region/RegionCN779.c ****     }
 3304              		.loc 1 891 0
 3305 01a8 0020     		movs	r0, #0
 888:../../../../../../Middlewares/Third_Party/LoRaWAN/Mac/region/RegionCN779.c **** 
 3306              		.loc 1 888 0
 3307 01aa 1370     		strb	r3, [r2]
 890:../../../../../../Middlewares/Third_Party/LoRaWAN/Mac/region/RegionCN779.c ****         return LORAMAC_STATUS_OK;
 3308              		.loc 1 890 0
 3309 01ac 0023     		movs	r3, #0
 3310 01ae 5A46     		mov	r2, fp
 3311 01b0 1360     		str	r3, [r2]
 891:../../../../../../Middlewares/Third_Party/LoRaWAN/Mac/region/RegionCN779.c ****     }
 3312              		.loc 1 891 0
 3313 01b2 A5E7     		b	.L348
 3314              	.L373:
 3315              		.align	2
 3316              	.L372:
 3317 01b4 D0000000 		.word	NvmCtx+208
 3318 01b8 C0000000 		.word	NvmCtx+192
 3319              		.cfi_endproc
 3320              	.LFE61:
 3321              		.size	RegionCN779NextChannel, .-RegionCN779NextChannel
 3322              		.section	.text.RegionCN779ChannelAdd,"ax",%progbits
 3323              		.align	1
 3324              		.p2align 2,,3
 3325              		.global	RegionCN779ChannelAdd
 3326              		.syntax unified
 3327              		.code	16
 3328              		.thumb_func
 3329              		.fpu softvfp
 3330              		.type	RegionCN779ChannelAdd, %function
 3331              	RegionCN779ChannelAdd:
 3332              	.LFB62:
 909:../../../../../../Middlewares/Third_Party/LoRaWAN/Mac/region/RegionCN779.c ****     bool drInvalid = false;
 3333              		.loc 1 909 0
ARM GAS  C:\Users\EBANO_~1\AppData\Local\Temp\ccKJ5gfE.s 			page 85


 3334              		.cfi_startproc
 3335              		@ args = 0, pretend = 0, frame = 8
 3336              		@ frame_needed = 0, uses_anonymous_args = 0
 3337              	.LVL290:
 3338 0000 F0B5     		push	{r4, r5, r6, r7, lr}
 3339              	.LCFI34:
 3340              		.cfi_def_cfa_offset 20
 3341              		.cfi_offset 4, -20
 3342              		.cfi_offset 5, -16
 3343              		.cfi_offset 6, -12
 3344              		.cfi_offset 7, -8
 3345              		.cfi_offset 14, -4
 912:../../../../../../Middlewares/Third_Party/LoRaWAN/Mac/region/RegionCN779.c **** 
 3346              		.loc 1 912 0
 3347 0002 0579     		ldrb	r5, [r0, #4]
 3348              	.LVL291:
 909:../../../../../../Middlewares/Third_Party/LoRaWAN/Mac/region/RegionCN779.c ****     bool drInvalid = false;
 3349              		.loc 1 909 0
 3350 0004 83B0     		sub	sp, sp, #12
 3351              	.LCFI35:
 3352              		.cfi_def_cfa_offset 32
 909:../../../../../../Middlewares/Third_Party/LoRaWAN/Mac/region/RegionCN779.c ****     bool drInvalid = false;
 3353              		.loc 1 909 0
 3354 0006 0400     		movs	r4, r0
 914:../../../../../../Middlewares/Third_Party/LoRaWAN/Mac/region/RegionCN779.c ****     {
 3355              		.loc 1 914 0
 3356 0008 022D     		cmp	r5, #2
 3357 000a 36D9     		bls	.L380
 921:../../../../../../Middlewares/Third_Party/LoRaWAN/Mac/region/RegionCN779.c ****     }
 3358              		.loc 1 921 0
 3359 000c 0320     		movs	r0, #3
 3360              	.LVL292:
 919:../../../../../../Middlewares/Third_Party/LoRaWAN/Mac/region/RegionCN779.c ****     {
 3361              		.loc 1 919 0
 3362 000e 0F2D     		cmp	r5, #15
 3363 0010 27D8     		bhi	.L387
 925:../../../../../../Middlewares/Third_Party/LoRaWAN/Mac/region/RegionCN779.c ****     {
 3364              		.loc 1 925 0
 3365 0012 2368     		ldr	r3, [r4]
 3366 0014 0722     		movs	r2, #7
 3367 0016 187A     		ldrb	r0, [r3, #8]
 3368 0018 0021     		movs	r1, #0
 3369 001a 0007     		lsls	r0, r0, #28
 3370 001c 0017     		asrs	r0, r0, #28
 3371 001e FFF7FEFF 		bl	RegionCommonValueInRange
 3372              	.LVL293:
 3373 0022 0600     		movs	r6, r0
 3374              	.LVL294:
 929:../../../../../../Middlewares/Third_Party/LoRaWAN/Mac/region/RegionCN779.c ****     {
 3375              		.loc 1 929 0
 3376 0024 0820     		movs	r0, #8
 3377 0026 2368     		ldr	r3, [r4]
 3378 0028 0722     		movs	r2, #7
 3379 002a 1856     		ldrsb	r0, [r3, r0]
 3380 002c 0021     		movs	r1, #0
 3381 002e 0011     		asrs	r0, r0, #4
 3382 0030 FFF7FEFF 		bl	RegionCommonValueInRange
ARM GAS  C:\Users\EBANO_~1\AppData\Local\Temp\ccKJ5gfE.s 			page 86


 3383              	.LVL295:
 931:../../../../../../Middlewares/Third_Party/LoRaWAN/Mac/region/RegionCN779.c ****     }
 3384              		.loc 1 931 0
 3385 0034 0127     		movs	r7, #1
 929:../../../../../../Middlewares/Third_Party/LoRaWAN/Mac/region/RegionCN779.c ****     {
 3386              		.loc 1 929 0
 3387 0036 0028     		cmp	r0, #0
 3388 0038 21D1     		bne	.L390
 3389              	.LVL296:
 3390              	.L377:
 933:../../../../../../Middlewares/Third_Party/LoRaWAN/Mac/region/RegionCN779.c ****     {
 3391              		.loc 1 933 0
 3392 003a 2368     		ldr	r3, [r4]
 3393 003c 224A     		ldr	r2, .L391
 3394 003e 1E68     		ldr	r6, [r3]
 3395 0040 926A     		ldr	r2, [r2, #40]
 3396 0042 1B7A     		ldrb	r3, [r3, #8]
 3397 0044 0192     		str	r2, [sp, #4]
 3398 0046 1A07     		lsls	r2, r3, #28
 3399 0048 5BB2     		sxtb	r3, r3
 3400 004a 1217     		asrs	r2, r2, #28
 3401 004c 1B11     		asrs	r3, r3, #4
 3402              	.LBB137:
 3403              	.LBB138:
 111:../../../../../../Middlewares/Third_Party/LoRaWAN/Mac/region/RegionCN779.c ****     {
 3404              		.loc 1 111 0
 3405 004e 3000     		movs	r0, r6
 3406              	.LBE138:
 3407              	.LBE137:
 933:../../../../../../Middlewares/Third_Party/LoRaWAN/Mac/region/RegionCN779.c ****     {
 3408              		.loc 1 933 0
 3409 0050 9A42     		cmp	r2, r3
 3410 0052 08DC     		bgt	.L378
 3411              	.LVL297:
 3412              	.LBB142:
 3413              	.LBB139:
 111:../../../../../../Middlewares/Third_Party/LoRaWAN/Mac/region/RegionCN779.c ****     {
 3414              		.loc 1 111 0
 3415 0054 019B     		ldr	r3, [sp, #4]
 3416 0056 9847     		blx	r3
 3417              	.LVL298:
 3418 0058 0028     		cmp	r0, #0
 3419 005a 14D1     		bne	.L379
 3420              	.LVL299:
 3421              	.LBE139:
 3422              	.LBE142:
 948:../../../../../../Middlewares/Third_Party/LoRaWAN/Mac/region/RegionCN779.c ****     {
 3423              		.loc 1 948 0
 3424 005c 002F     		cmp	r7, #0
 3425 005e 0CD1     		bne	.L380
 958:../../../../../../Middlewares/Third_Party/LoRaWAN/Mac/region/RegionCN779.c ****     }
 3426              		.loc 1 958 0
 3427 0060 0430     		adds	r0, r0, #4
 3428              	.LVL300:
 3429              	.L387:
 965:../../../../../../Middlewares/Third_Party/LoRaWAN/Mac/region/RegionCN779.c **** 
 3430              		.loc 1 965 0
ARM GAS  C:\Users\EBANO_~1\AppData\Local\Temp\ccKJ5gfE.s 			page 87


 3431 0062 03B0     		add	sp, sp, #12
 3432              		@ sp needed
 3433              	.LVL301:
 3434 0064 F0BD     		pop	{r4, r5, r6, r7, pc}
 3435              	.LVL302:
 3436              	.L378:
 3437              	.LBB143:
 3438              	.LBB140:
 111:../../../../../../Middlewares/Third_Party/LoRaWAN/Mac/region/RegionCN779.c ****     {
 3439              		.loc 1 111 0
 3440 0066 019B     		ldr	r3, [sp, #4]
 3441 0068 9847     		blx	r3
 3442              	.LVL303:
 3443 006a 0028     		cmp	r0, #0
 3444 006c 05D0     		beq	.L380
 116:../../../../../../Middlewares/Third_Party/LoRaWAN/Mac/region/RegionCN779.c ****     {
 3445              		.loc 1 116 0
 3446 006e 174B     		ldr	r3, .L391+4
 3447 0070 9C46     		mov	ip, r3
 3448 0072 174B     		ldr	r3, .L391+8
 3449 0074 6644     		add	r6, r6, ip
 3450 0076 9E42     		cmp	r6, r3
 3451 0078 0FD9     		bls	.L381
 3452              	.LVL304:
 3453              	.L380:
 3454              	.LBE140:
 3455              	.LBE143:
 916:../../../../../../Middlewares/Third_Party/LoRaWAN/Mac/region/RegionCN779.c ****     }
 3456              		.loc 1 916 0
 3457 007a 0620     		movs	r0, #6
 3458 007c F1E7     		b	.L387
 3459              	.LVL305:
 3460              	.L390:
 925:../../../../../../Middlewares/Third_Party/LoRaWAN/Mac/region/RegionCN779.c ****     {
 3461              		.loc 1 925 0
 3462 007e 7742     		rsbs	r7, r6, #0
 3463 0080 7741     		adcs	r7, r7, r6
 3464              	.LVL306:
 3465 0082 FFB2     		uxtb	r7, r7
 3466 0084 D9E7     		b	.L377
 3467              	.LVL307:
 3468              	.L379:
 3469              	.LBB144:
 3470              	.LBB141:
 116:../../../../../../Middlewares/Third_Party/LoRaWAN/Mac/region/RegionCN779.c ****     {
 3471              		.loc 1 116 0
 3472 0086 114B     		ldr	r3, .L391+4
 3473 0088 9C46     		mov	ip, r3
 3474 008a 114B     		ldr	r3, .L391+8
 3475 008c 6644     		add	r6, r6, ip
 3476 008e 9E42     		cmp	r6, r3
 3477 0090 05D9     		bls	.L382
 3478              	.LVL308:
 3479              	.LBE141:
 3480              	.LBE144:
 948:../../../../../../Middlewares/Third_Party/LoRaWAN/Mac/region/RegionCN779.c ****     {
 3481              		.loc 1 948 0
ARM GAS  C:\Users\EBANO_~1\AppData\Local\Temp\ccKJ5gfE.s 			page 88


 3482 0092 002F     		cmp	r7, #0
 3483 0094 F1D1     		bne	.L380
 958:../../../../../../Middlewares/Third_Party/LoRaWAN/Mac/region/RegionCN779.c ****     }
 3484              		.loc 1 958 0
 3485 0096 0420     		movs	r0, #4
 3486 0098 E3E7     		b	.L387
 3487              	.LVL309:
 3488              	.L381:
 954:../../../../../../Middlewares/Third_Party/LoRaWAN/Mac/region/RegionCN779.c ****     }
 3489              		.loc 1 954 0
 3490 009a 0520     		movs	r0, #5
 3491 009c E1E7     		b	.L387
 3492              	.LVL310:
 3493              	.L382:
 948:../../../../../../Middlewares/Third_Party/LoRaWAN/Mac/region/RegionCN779.c ****     {
 3494              		.loc 1 948 0
 3495 009e 002F     		cmp	r7, #0
 3496 00a0 FBD1     		bne	.L381
 961:../../../../../../Middlewares/Third_Party/LoRaWAN/Mac/region/RegionCN779.c ****     NvmCtx.Channels[id].Band = 0;
 3497              		.loc 1 961 0
 3498 00a2 2168     		ldr	r1, [r4]
 3499 00a4 6C00     		lsls	r4, r5, #1
 3500              	.LVL311:
 3501 00a6 0B4E     		ldr	r6, .L391+12
 3502 00a8 6419     		adds	r4, r4, r5
 3503 00aa A400     		lsls	r4, r4, #2
 3504 00ac A419     		adds	r4, r4, r6
 3505 00ae 0C22     		movs	r2, #12
 3506 00b0 2000     		movs	r0, r4
 3507 00b2 FFF7FEFF 		bl	memcpy1
 3508              	.LVL312:
 963:../../../../../../Middlewares/Third_Party/LoRaWAN/Mac/region/RegionCN779.c ****     return LORAMAC_STATUS_OK;
 3509              		.loc 1 963 0
 3510 00b6 0122     		movs	r2, #1
 3511 00b8 D021     		movs	r1, #208
 3512 00ba AA40     		lsls	r2, r2, r5
 962:../../../../../../Middlewares/Third_Party/LoRaWAN/Mac/region/RegionCN779.c ****     NvmCtx.ChannelsMask[0] |= ( 1 << id );
 3513              		.loc 1 962 0
 3514 00bc 6772     		strb	r7, [r4, #9]
 963:../../../../../../Middlewares/Third_Party/LoRaWAN/Mac/region/RegionCN779.c ****     return LORAMAC_STATUS_OK;
 3515              		.loc 1 963 0
 3516 00be 735A     		ldrh	r3, [r6, r1]
 964:../../../../../../Middlewares/Third_Party/LoRaWAN/Mac/region/RegionCN779.c **** }
 3517              		.loc 1 964 0
 3518 00c0 0020     		movs	r0, #0
 963:../../../../../../Middlewares/Third_Party/LoRaWAN/Mac/region/RegionCN779.c ****     return LORAMAC_STATUS_OK;
 3519              		.loc 1 963 0
 3520 00c2 1343     		orrs	r3, r2
 3521 00c4 7352     		strh	r3, [r6, r1]
 964:../../../../../../Middlewares/Third_Party/LoRaWAN/Mac/region/RegionCN779.c **** }
 3522              		.loc 1 964 0
 3523 00c6 CCE7     		b	.L387
 3524              	.L392:
 3525              		.align	2
 3526              	.L391:
 3527 00c8 00000000 		.word	Radio
 3528 00cc 20C689D1 		.word	-779500000
ARM GAS  C:\Users\EBANO_~1\AppData\Local\Temp\ccKJ5gfE.s 			page 89


 3529 00d0 C0CF6A00 		.word	7000000
 3530 00d4 00000000 		.word	NvmCtx
 3531              		.cfi_endproc
 3532              	.LFE62:
 3533              		.size	RegionCN779ChannelAdd, .-RegionCN779ChannelAdd
 3534              		.section	.text.RegionCN779ChannelsRemove,"ax",%progbits
 3535              		.align	1
 3536              		.p2align 2,,3
 3537              		.global	RegionCN779ChannelsRemove
 3538              		.syntax unified
 3539              		.code	16
 3540              		.thumb_func
 3541              		.fpu softvfp
 3542              		.type	RegionCN779ChannelsRemove, %function
 3543              	RegionCN779ChannelsRemove:
 3544              	.LFB63:
 968:../../../../../../Middlewares/Third_Party/LoRaWAN/Mac/region/RegionCN779.c ****     uint8_t id = channelRemove->ChannelId;
 3545              		.loc 1 968 0
 3546              		.cfi_startproc
 3547              		@ args = 0, pretend = 0, frame = 0
 3548              		@ frame_needed = 0, uses_anonymous_args = 0
 3549              	.LVL313:
 3550 0000 70B5     		push	{r4, r5, r6, lr}
 3551              	.LCFI36:
 3552              		.cfi_def_cfa_offset 16
 3553              		.cfi_offset 4, -16
 3554              		.cfi_offset 5, -12
 3555              		.cfi_offset 6, -8
 3556              		.cfi_offset 14, -4
 969:../../../../../../Middlewares/Third_Party/LoRaWAN/Mac/region/RegionCN779.c **** 
 3557              		.loc 1 969 0
 3558 0002 0478     		ldrb	r4, [r0]
 3559              	.LVL314:
 973:../../../../../../Middlewares/Third_Party/LoRaWAN/Mac/region/RegionCN779.c ****     }
 3560              		.loc 1 973 0
 3561 0004 0020     		movs	r0, #0
 3562              	.LVL315:
 971:../../../../../../Middlewares/Third_Party/LoRaWAN/Mac/region/RegionCN779.c ****     {
 3563              		.loc 1 971 0
 3564 0006 022C     		cmp	r4, #2
 3565 0008 0ED9     		bls	.L394
 977:../../../../../../Middlewares/Third_Party/LoRaWAN/Mac/region/RegionCN779.c **** 
 3566              		.loc 1 977 0
 3567 000a 6000     		lsls	r0, r4, #1
 3568 000c 074D     		ldr	r5, .L396
 3569 000e 0019     		adds	r0, r0, r4
 3570 0010 8000     		lsls	r0, r0, #2
 3571 0012 0C22     		movs	r2, #12
 3572 0014 0021     		movs	r1, #0
 3573 0016 2818     		adds	r0, r5, r0
 3574 0018 FFF7FEFF 		bl	memset
 3575              	.LVL316:
 3576              		.loc 1 979 0
 3577 001c 2800     		movs	r0, r5
 3578 001e 1022     		movs	r2, #16
 3579 0020 D030     		adds	r0, r0, #208
 3580 0022 2100     		movs	r1, r4
ARM GAS  C:\Users\EBANO_~1\AppData\Local\Temp\ccKJ5gfE.s 			page 90


 3581 0024 FFF7FEFF 		bl	RegionCommonChanDisable
 3582              	.LVL317:
 3583              	.L394:
 980:../../../../../../Middlewares/Third_Party/LoRaWAN/Mac/region/RegionCN779.c **** }
 3584              		.loc 1 980 0
 3585              		@ sp needed
 3586              	.LVL318:
 3587 0028 70BD     		pop	{r4, r5, r6, pc}
 3588              	.L397:
 3589 002a C046     		.align	2
 3590              	.L396:
 3591 002c 00000000 		.word	NvmCtx
 3592              		.cfi_endproc
 3593              	.LFE63:
 3594              		.size	RegionCN779ChannelsRemove, .-RegionCN779ChannelsRemove
 3595              		.section	.text.RegionCN779SetContinuousWave,"ax",%progbits
 3596              		.align	1
 3597              		.p2align 2,,3
 3598              		.global	RegionCN779SetContinuousWave
 3599              		.syntax unified
 3600              		.code	16
 3601              		.thumb_func
 3602              		.fpu softvfp
 3603              		.type	RegionCN779SetContinuousWave, %function
 3604              	RegionCN779SetContinuousWave:
 3605              	.LFB64:
 981:../../../../../../Middlewares/Third_Party/LoRaWAN/Mac/region/RegionCN779.c **** 
 982:../../../../../../Middlewares/Third_Party/LoRaWAN/Mac/region/RegionCN779.c **** void RegionCN779SetContinuousWave( ContinuousWaveParams_t* continuousWave )
 983:../../../../../../Middlewares/Third_Party/LoRaWAN/Mac/region/RegionCN779.c **** {
 3606              		.loc 1 983 0
 3607              		.cfi_startproc
 3608              		@ args = 0, pretend = 0, frame = 8
 3609              		@ frame_needed = 0, uses_anonymous_args = 0
 3610              	.LVL319:
 3611 0000 F0B5     		push	{r4, r5, r6, r7, lr}
 3612              	.LCFI37:
 3613              		.cfi_def_cfa_offset 20
 3614              		.cfi_offset 4, -20
 3615              		.cfi_offset 5, -16
 3616              		.cfi_offset 6, -12
 3617              		.cfi_offset 7, -8
 3618              		.cfi_offset 14, -4
 3619 0002 0400     		movs	r4, r0
 984:../../../../../../Middlewares/Third_Party/LoRaWAN/Mac/region/RegionCN779.c ****     int8_t txPowerLimited = LimitTxPower( continuousWave->TxPower, NvmCtx.Bands[NvmCtx.Channels[con
 3620              		.loc 1 984 0
 3621 0004 0278     		ldrb	r2, [r0]
 3622              	.LVL320:
 985:../../../../../../Middlewares/Third_Party/LoRaWAN/Mac/region/RegionCN779.c ****     int8_t phyTxPower = 0;
 986:../../../../../../Middlewares/Third_Party/LoRaWAN/Mac/region/RegionCN779.c ****     uint32_t frequency = NvmCtx.Channels[continuousWave->Channel].Frequency;
 3623              		.loc 1 986 0
 3624 0006 1048     		ldr	r0, .L400
 3625              	.LVL321:
 3626 0008 5300     		lsls	r3, r2, #1
 3627 000a 9B18     		adds	r3, r3, r2
 3628 000c 9B00     		lsls	r3, r3, #2
 3629 000e 1D58     		ldr	r5, [r3, r0]
 3630              	.LVL322:
ARM GAS  C:\Users\EBANO_~1\AppData\Local\Temp\ccKJ5gfE.s 			page 91


 984:../../../../../../Middlewares/Third_Party/LoRaWAN/Mac/region/RegionCN779.c ****     int8_t txPowerLimited = LimitTxPower( continuousWave->TxPower, NvmCtx.Bands[NvmCtx.Channels[con
 3631              		.loc 1 984 0
 3632 0010 C318     		adds	r3, r0, r3
 3633 0012 5B7A     		ldrb	r3, [r3, #9]
 3634              	.LBB145:
 3635              	.LBB146:
 103:../../../../../../Middlewares/Third_Party/LoRaWAN/Mac/region/RegionCN779.c **** 
 3636              		.loc 1 103 0
 3637 0014 A678     		ldrb	r6, [r4, #2]
 3638              	.LBE146:
 3639              	.LBE145:
 984:../../../../../../Middlewares/Third_Party/LoRaWAN/Mac/region/RegionCN779.c ****     int8_t txPowerLimited = LimitTxPower( continuousWave->TxPower, NvmCtx.Bands[NvmCtx.Channels[con
 3640              		.loc 1 984 0
 3641 0016 0C33     		adds	r3, r3, #12
 3642 0018 1B01     		lsls	r3, r3, #4
 3643 001a C018     		adds	r0, r0, r3
 3644              	.LBB149:
 3645              	.LBB147:
 103:../../../../../../Middlewares/Third_Party/LoRaWAN/Mac/region/RegionCN779.c **** 
 3646              		.loc 1 103 0
 3647 001c 8378     		ldrb	r3, [r0, #2]
 3648 001e 77B2     		sxtb	r7, r6
 3649 0020 181C     		adds	r0, r3, #0
 3650 0022 5BB2     		sxtb	r3, r3
 3651              	.LBE147:
 3652              	.LBE149:
 983:../../../../../../Middlewares/Third_Party/LoRaWAN/Mac/region/RegionCN779.c ****     int8_t txPowerLimited = LimitTxPower( continuousWave->TxPower, NvmCtx.Bands[NvmCtx.Channels[con
 3653              		.loc 1 983 0
 3654 0024 83B0     		sub	sp, sp, #12
 3655              	.LCFI38:
 3656              		.cfi_def_cfa_offset 32
 987:../../../../../../Middlewares/Third_Party/LoRaWAN/Mac/region/RegionCN779.c **** 
 988:../../../../../../Middlewares/Third_Party/LoRaWAN/Mac/region/RegionCN779.c ****     // Calculate physical TX power
 989:../../../../../../Middlewares/Third_Party/LoRaWAN/Mac/region/RegionCN779.c ****     phyTxPower = RegionCommonComputeTxPower( txPowerLimited, continuousWave->MaxEirp, continuousWav
 3657              		.loc 1 989 0
 3658 0026 A268     		ldr	r2, [r4, #8]
 3659 0028 6168     		ldr	r1, [r4, #4]
 3660              	.LBB150:
 3661              	.LBB148:
 103:../../../../../../Middlewares/Third_Party/LoRaWAN/Mac/region/RegionCN779.c **** 
 3662              		.loc 1 103 0
 3663 002a BB42     		cmp	r3, r7
 3664 002c 00DA     		bge	.L399
 3665 002e 301C     		adds	r0, r6, #0
 3666              	.L399:
 3667              	.LBE148:
 3668              	.LBE150:
 3669              		.loc 1 989 0
 3670 0030 40B2     		sxtb	r0, r0
 3671 0032 FFF7FEFF 		bl	RegionCommonComputeTxPower
 3672              	.LVL323:
 990:../../../../../../Middlewares/Third_Party/LoRaWAN/Mac/region/RegionCN779.c **** 
 991:../../../../../../Middlewares/Third_Party/LoRaWAN/Mac/region/RegionCN779.c ****     Radio.SetTxContinuousWave( frequency, phyTxPower, continuousWave->Timeout );
 3673              		.loc 1 991 0
 3674 0036 054B     		ldr	r3, .L400+4
 989:../../../../../../Middlewares/Third_Party/LoRaWAN/Mac/region/RegionCN779.c **** 
 3675              		.loc 1 989 0
ARM GAS  C:\Users\EBANO_~1\AppData\Local\Temp\ccKJ5gfE.s 			page 92


 3676 0038 0100     		movs	r1, r0
 3677              	.LVL324:
 3678              		.loc 1 991 0
 3679 003a 5B6C     		ldr	r3, [r3, #68]
 3680 003c A289     		ldrh	r2, [r4, #12]
 3681 003e 2800     		movs	r0, r5
 3682 0040 0193     		str	r3, [sp, #4]
 3683 0042 9847     		blx	r3
 3684              	.LVL325:
 992:../../../../../../Middlewares/Third_Party/LoRaWAN/Mac/region/RegionCN779.c **** }
 3685              		.loc 1 992 0
 3686 0044 03B0     		add	sp, sp, #12
 3687              		@ sp needed
 3688              	.LVL326:
 3689              	.LVL327:
 3690 0046 F0BD     		pop	{r4, r5, r6, r7, pc}
 3691              	.L401:
 3692              		.align	2
 3693              	.L400:
 3694 0048 00000000 		.word	NvmCtx
 3695 004c 00000000 		.word	Radio
 3696              		.cfi_endproc
 3697              	.LFE64:
 3698              		.size	RegionCN779SetContinuousWave, .-RegionCN779SetContinuousWave
 3699              		.section	.text.RegionCN779ApplyDrOffset,"ax",%progbits
 3700              		.align	1
 3701              		.p2align 2,,3
 3702              		.global	RegionCN779ApplyDrOffset
 3703              		.syntax unified
 3704              		.code	16
 3705              		.thumb_func
 3706              		.fpu softvfp
 3707              		.type	RegionCN779ApplyDrOffset, %function
 3708              	RegionCN779ApplyDrOffset:
 3709              	.LFB65:
 993:../../../../../../Middlewares/Third_Party/LoRaWAN/Mac/region/RegionCN779.c **** 
 994:../../../../../../Middlewares/Third_Party/LoRaWAN/Mac/region/RegionCN779.c **** uint8_t RegionCN779ApplyDrOffset( uint8_t downlinkDwellTime, int8_t dr, int8_t drOffset )
 995:../../../../../../Middlewares/Third_Party/LoRaWAN/Mac/region/RegionCN779.c **** {
 3710              		.loc 1 995 0
 3711              		.cfi_startproc
 3712              		@ args = 0, pretend = 0, frame = 0
 3713              		@ frame_needed = 0, uses_anonymous_args = 0
 3714              		@ link register save eliminated.
 3715              	.LVL328:
 996:../../../../../../Middlewares/Third_Party/LoRaWAN/Mac/region/RegionCN779.c ****     int8_t datarate = dr - drOffset;
 3716              		.loc 1 996 0
 3717 0000 891A     		subs	r1, r1, r2
 3718              	.LVL329:
 3719 0002 49B2     		sxtb	r1, r1
 3720              	.LVL330:
 997:../../../../../../Middlewares/Third_Party/LoRaWAN/Mac/region/RegionCN779.c **** 
 998:../../../../../../Middlewares/Third_Party/LoRaWAN/Mac/region/RegionCN779.c ****     if( datarate < 0 )
 999:../../../../../../Middlewares/Third_Party/LoRaWAN/Mac/region/RegionCN779.c ****     {
1000:../../../../../../Middlewares/Third_Party/LoRaWAN/Mac/region/RegionCN779.c ****         datarate = DR_0;
1001:../../../../../../Middlewares/Third_Party/LoRaWAN/Mac/region/RegionCN779.c ****     }
1002:../../../../../../Middlewares/Third_Party/LoRaWAN/Mac/region/RegionCN779.c ****     return datarate;
 3721              		.loc 1 1002 0
ARM GAS  C:\Users\EBANO_~1\AppData\Local\Temp\ccKJ5gfE.s 			page 93


 3722 0004 C843     		mvns	r0, r1
 3723              	.LVL331:
 3724 0006 C017     		asrs	r0, r0, #31
 3725 0008 0840     		ands	r0, r1
 3726 000a C0B2     		uxtb	r0, r0
1003:../../../../../../Middlewares/Third_Party/LoRaWAN/Mac/region/RegionCN779.c **** }
 3727              		.loc 1 1003 0
 3728              		@ sp needed
 3729 000c 7047     		bx	lr
 3730              		.cfi_endproc
 3731              	.LFE65:
 3732              		.size	RegionCN779ApplyDrOffset, .-RegionCN779ApplyDrOffset
 3733 000e C046     		.section	.text.RegionCN779RxBeaconSetup,"ax",%progbits
 3734              		.align	1
 3735              		.p2align 2,,3
 3736              		.global	RegionCN779RxBeaconSetup
 3737              		.syntax unified
 3738              		.code	16
 3739              		.thumb_func
 3740              		.fpu softvfp
 3741              		.type	RegionCN779RxBeaconSetup, %function
 3742              	RegionCN779RxBeaconSetup:
 3743              	.LFB66:
1004:../../../../../../Middlewares/Third_Party/LoRaWAN/Mac/region/RegionCN779.c **** 
1005:../../../../../../Middlewares/Third_Party/LoRaWAN/Mac/region/RegionCN779.c **** void RegionCN779RxBeaconSetup( RxBeaconSetup_t* rxBeaconSetup, uint8_t* outDr )
1006:../../../../../../Middlewares/Third_Party/LoRaWAN/Mac/region/RegionCN779.c **** {
 3744              		.loc 1 1006 0
 3745              		.cfi_startproc
 3746              		@ args = 0, pretend = 0, frame = 24
 3747              		@ frame_needed = 0, uses_anonymous_args = 0
 3748              	.LVL332:
 3749 0000 10B5     		push	{r4, lr}
 3750              	.LCFI39:
 3751              		.cfi_def_cfa_offset 8
 3752              		.cfi_offset 4, -8
 3753              		.cfi_offset 14, -4
1007:../../../../../../Middlewares/Third_Party/LoRaWAN/Mac/region/RegionCN779.c ****     RegionCommonRxBeaconSetupParams_t regionCommonRxBeaconSetup;
1008:../../../../../../Middlewares/Third_Party/LoRaWAN/Mac/region/RegionCN779.c **** 
1009:../../../../../../Middlewares/Third_Party/LoRaWAN/Mac/region/RegionCN779.c ****     regionCommonRxBeaconSetup.Datarates = DataratesCN779;
 3754              		.loc 1 1009 0
 3755 0002 0B4A     		ldr	r2, .L405
1006:../../../../../../Middlewares/Third_Party/LoRaWAN/Mac/region/RegionCN779.c ****     RegionCommonRxBeaconSetupParams_t regionCommonRxBeaconSetup;
 3756              		.loc 1 1006 0
 3757 0004 86B0     		sub	sp, sp, #24
 3758              	.LCFI40:
 3759              		.cfi_def_cfa_offset 32
 3760              		.loc 1 1009 0
 3761 0006 2032     		adds	r2, r2, #32
 3762 0008 0192     		str	r2, [sp, #4]
1010:../../../../../../Middlewares/Third_Party/LoRaWAN/Mac/region/RegionCN779.c ****     regionCommonRxBeaconSetup.Frequency = rxBeaconSetup->Frequency;
 3763              		.loc 1 1010 0
 3764 000a 8268     		ldr	r2, [r0, #8]
1009:../../../../../../Middlewares/Third_Party/LoRaWAN/Mac/region/RegionCN779.c ****     regionCommonRxBeaconSetup.Frequency = rxBeaconSetup->Frequency;
 3765              		.loc 1 1009 0
 3766 000c 01AB     		add	r3, sp, #4
 3767              		.loc 1 1010 0
 3768 000e 0292     		str	r2, [sp, #8]
ARM GAS  C:\Users\EBANO_~1\AppData\Local\Temp\ccKJ5gfE.s 			page 94


1011:../../../../../../Middlewares/Third_Party/LoRaWAN/Mac/region/RegionCN779.c ****     regionCommonRxBeaconSetup.BeaconSize = CN779_BEACON_SIZE;
 3769              		.loc 1 1011 0
 3770 0010 084A     		ldr	r2, .L405+4
1006:../../../../../../Middlewares/Third_Party/LoRaWAN/Mac/region/RegionCN779.c ****     RegionCommonRxBeaconSetupParams_t regionCommonRxBeaconSetup;
 3771              		.loc 1 1006 0
 3772 0012 0C00     		movs	r4, r1
 3773              		.loc 1 1011 0
 3774 0014 1A81     		strh	r2, [r3, #8]
1012:../../../../../../Middlewares/Third_Party/LoRaWAN/Mac/region/RegionCN779.c ****     regionCommonRxBeaconSetup.BeaconDatarate = CN779_BEACON_CHANNEL_DR;
 3775              		.loc 1 1012 0
 3776 0016 0022     		movs	r2, #0
 3777 0018 9A72     		strb	r2, [r3, #10]
1013:../../../../../../Middlewares/Third_Party/LoRaWAN/Mac/region/RegionCN779.c ****     regionCommonRxBeaconSetup.BeaconChannelBW = CN779_BEACON_CHANNEL_BW;
1014:../../../../../../Middlewares/Third_Party/LoRaWAN/Mac/region/RegionCN779.c ****     regionCommonRxBeaconSetup.RxTime = rxBeaconSetup->RxTime;
 3778              		.loc 1 1014 0
 3779 001a 4268     		ldr	r2, [r0, #4]
 3780 001c 0492     		str	r2, [sp, #16]
1015:../../../../../../Middlewares/Third_Party/LoRaWAN/Mac/region/RegionCN779.c ****     regionCommonRxBeaconSetup.SymbolTimeout = rxBeaconSetup->SymbolTimeout;
 3781              		.loc 1 1015 0
 3782 001e 0288     		ldrh	r2, [r0]
1016:../../../../../../Middlewares/Third_Party/LoRaWAN/Mac/region/RegionCN779.c **** 
1017:../../../../../../Middlewares/Third_Party/LoRaWAN/Mac/region/RegionCN779.c ****     RegionCommonRxBeaconSetup( &regionCommonRxBeaconSetup );
 3783              		.loc 1 1017 0
 3784 0020 1800     		movs	r0, r3
 3785              	.LVL333:
1015:../../../../../../Middlewares/Third_Party/LoRaWAN/Mac/region/RegionCN779.c ****     regionCommonRxBeaconSetup.SymbolTimeout = rxBeaconSetup->SymbolTimeout;
 3786              		.loc 1 1015 0
 3787 0022 1A82     		strh	r2, [r3, #16]
 3788              		.loc 1 1017 0
 3789 0024 FFF7FEFF 		bl	RegionCommonRxBeaconSetup
 3790              	.LVL334:
1018:../../../../../../Middlewares/Third_Party/LoRaWAN/Mac/region/RegionCN779.c **** 
1019:../../../../../../Middlewares/Third_Party/LoRaWAN/Mac/region/RegionCN779.c ****     // Store downlink datarate
1020:../../../../../../Middlewares/Third_Party/LoRaWAN/Mac/region/RegionCN779.c ****     *outDr = CN779_BEACON_CHANNEL_DR;
 3791              		.loc 1 1020 0
 3792 0028 0323     		movs	r3, #3
 3793 002a 2370     		strb	r3, [r4]
1021:../../../../../../Middlewares/Third_Party/LoRaWAN/Mac/region/RegionCN779.c **** }
 3794              		.loc 1 1021 0
 3795 002c 06B0     		add	sp, sp, #24
 3796              		@ sp needed
 3797              	.LVL335:
 3798 002e 10BD     		pop	{r4, pc}
 3799              	.L406:
 3800              		.align	2
 3801              	.L405:
 3802 0030 D8000000 		.word	.LANCHOR1
 3803 0034 11030000 		.word	785
 3804              		.cfi_endproc
 3805              	.LFE66:
 3806              		.size	RegionCN779RxBeaconSetup, .-RegionCN779RxBeaconSetup
 3807              		.bss
 3808              		.align	2
 3809              		.type	NvmCtx, %object
 3810              		.size	NvmCtx, 212
 3811              	NvmCtx:
 3812 0000 00000000 		.space	212
ARM GAS  C:\Users\EBANO_~1\AppData\Local\Temp\ccKJ5gfE.s 			page 95


 3812      00000000 
 3812      00000000 
 3812      00000000 
 3812      00000000 
 3813              		.section	.rodata
 3814              		.align	2
 3815              		.set	.LANCHOR1,. + 0
 3816              		.type	BandwidthsCN779, %object
 3817              		.size	BandwidthsCN779, 32
 3818              	BandwidthsCN779:
 3819 00d8 48E80100 		.word	125000
 3820 00dc 48E80100 		.word	125000
 3821 00e0 48E80100 		.word	125000
 3822 00e4 48E80100 		.word	125000
 3823 00e8 48E80100 		.word	125000
 3824 00ec 48E80100 		.word	125000
 3825 00f0 90D00300 		.word	250000
 3826 00f4 00000000 		.word	0
 3827              		.type	DataratesCN779, %object
 3828              		.size	DataratesCN779, 8
 3829              	DataratesCN779:
 3830 00f8 0C       		.byte	12
 3831 00f9 0B       		.byte	11
 3832 00fa 0A       		.byte	10
 3833 00fb 09       		.byte	9
 3834 00fc 08       		.byte	8
 3835 00fd 07       		.byte	7
 3836 00fe 07       		.byte	7
 3837 00ff 32       		.byte	50
 3838              		.align	2
 3839              		.set	.LANCHOR0,. + 0
 3840              		.type	MaxPayloadOfDatarateCN779, %object
 3841              		.size	MaxPayloadOfDatarateCN779, 8
 3842              	MaxPayloadOfDatarateCN779:
 3843 0100 33       		.byte	51
 3844 0101 33       		.byte	51
 3845 0102 33       		.byte	51
 3846 0103 73       		.byte	115
 3847 0104 F2       		.byte	-14
 3848 0105 F2       		.byte	-14
 3849 0106 F2       		.byte	-14
 3850 0107 F2       		.byte	-14
 3851              		.type	MaxPayloadOfDatarateRepeaterCN779, %object
 3852              		.size	MaxPayloadOfDatarateRepeaterCN779, 8
 3853              	MaxPayloadOfDatarateRepeaterCN779:
 3854 0108 33       		.byte	51
 3855 0109 33       		.byte	51
 3856 010a 33       		.byte	51
 3857 010b 73       		.byte	115
 3858 010c DE       		.byte	-34
 3859 010d DE       		.byte	-34
 3860 010e DE       		.byte	-34
 3861 010f DE       		.byte	-34
 3862              	.LC0:
 3863 0110 E039762E 		.word	779500000
 3864 0114 00000000 		.word	0
 3865 0118 50       		.byte	80
ARM GAS  C:\Users\EBANO_~1\AppData\Local\Temp\ccKJ5gfE.s 			page 96


 3866 0119 00       		.byte	0
 3867 011a 0000     		.space	2
 3868              	.LC1:
 3869 011c 2047792E 		.word	779700000
 3870 0120 00000000 		.word	0
 3871 0124 50       		.byte	80
 3872 0125 00       		.byte	0
 3873 0126 0000     		.space	2
 3874              	.LC2:
 3875 0128 60547C2E 		.word	779900000
 3876 012c 00000000 		.word	0
 3877 0130 50       		.byte	80
 3878 0131 00       		.byte	0
 3879 0132 0000     		.space	2
 3880              		.text
 3881              	.Letext0:
 3882              		.file 2 "c:\\program files (x86)\\gnu tools arm embedded\\7 2018-q2-update\\arm-none-eabi\\include
 3883              		.file 3 "c:\\program files (x86)\\gnu tools arm embedded\\7 2018-q2-update\\arm-none-eabi\\include
 3884              		.file 4 "../../../../../../Drivers/CMSIS/Device/ST/STM32L0xx/Include/system_stm32l0xx.h"
 3885              		.file 5 "c:\\program files (x86)\\gnu tools arm embedded\\7 2018-q2-update\\lib\\gcc\\arm-none-eab
 3886              		.file 6 "c:\\program files (x86)\\gnu tools arm embedded\\7 2018-q2-update\\arm-none-eabi\\include
 3887              		.file 7 "c:\\program files (x86)\\gnu tools arm embedded\\7 2018-q2-update\\arm-none-eabi\\include
 3888              		.file 8 "c:\\program files (x86)\\gnu tools arm embedded\\7 2018-q2-update\\arm-none-eabi\\include
 3889              		.file 9 "c:\\program files (x86)\\gnu tools arm embedded\\7 2018-q2-update\\arm-none-eabi\\include
 3890              		.file 10 "../../../../../../Middlewares/Third_Party/LoRaWAN/Utilities/utilities.h"
 3891              		.file 11 "../../../../../../Middlewares/Third_Party/LoRaWAN/Mac/LoRaMacTypes.h"
 3892              		.file 12 "c:\\program files (x86)\\gnu tools arm embedded\\7 2018-q2-update\\arm-none-eabi\\includ
 3893              		.file 13 "../../../../../../Middlewares/Third_Party/LoRaWAN/Phy/radio.h"
 3894              		.file 14 "../../../../../../Middlewares/Third_Party/LoRaWAN/Mac/LoRaMac.h"
 3895              		.file 15 "../../../../../../Middlewares/Third_Party/LoRaWAN/Mac/region/Region.h"
 3896              		.file 16 "../../../../../../Middlewares/Third_Party/LoRaWAN/Mac/region/RegionCommon.h"
 3897              		.file 17 "../../../../../../Middlewares/Third_Party/LoRaWAN/Mac/region/RegionCN779.h"
 3898              		.file 18 "../../../../../../Middlewares/Third_Party/LoRaWAN/Utilities/timeServer.h"
 3899              		.file 19 "<built-in>"
 3900              		.section	.debug_info,"",%progbits
 3901              	.Ldebug_info0:
 3902 0000 7D330000 		.4byte	0x337d
 3903 0004 0200     		.2byte	0x2
 3904 0006 00000000 		.4byte	.Ldebug_abbrev0
 3905 000a 04       		.byte	0x4
 3906 000b 01       		.uleb128 0x1
 3907 000c 40090000 		.4byte	.LASF560
 3908 0010 0C       		.byte	0xc
 3909 0011 FE170000 		.4byte	.LASF561
 3910 0015 B4070000 		.4byte	.LASF562
 3911 0019 38020000 		.4byte	.Ldebug_ranges0+0x238
 3912 001d 00000000 		.4byte	0
 3913 0021 00000000 		.4byte	0
 3914 0025 00000000 		.4byte	.Ldebug_line0
 3915 0029 02       		.uleb128 0x2
 3916 002a 01       		.byte	0x1
 3917 002b 06       		.byte	0x6
 3918 002c 07120000 		.4byte	.LASF2
 3919 0030 03       		.uleb128 0x3
 3920 0031 5D200000 		.4byte	.LASF0
 3921 0035 02       		.byte	0x2
 3922 0036 29       		.byte	0x29
ARM GAS  C:\Users\EBANO_~1\AppData\Local\Temp\ccKJ5gfE.s 			page 97


 3923 0037 29000000 		.4byte	0x29
 3924 003b 03       		.uleb128 0x3
 3925 003c A4000000 		.4byte	.LASF1
 3926 0040 02       		.byte	0x2
 3927 0041 2B       		.byte	0x2b
 3928 0042 46000000 		.4byte	0x46
 3929 0046 02       		.uleb128 0x2
 3930 0047 01       		.byte	0x1
 3931 0048 08       		.byte	0x8
 3932 0049 67070000 		.4byte	.LASF3
 3933 004d 03       		.uleb128 0x3
 3934 004e C0050000 		.4byte	.LASF4
 3935 0052 02       		.byte	0x2
 3936 0053 37       		.byte	0x37
 3937 0054 58000000 		.4byte	0x58
 3938 0058 02       		.uleb128 0x2
 3939 0059 02       		.byte	0x2
 3940 005a 05       		.byte	0x5
 3941 005b EF200000 		.4byte	.LASF5
 3942 005f 03       		.uleb128 0x3
 3943 0060 D6050000 		.4byte	.LASF6
 3944 0064 02       		.byte	0x2
 3945 0065 39       		.byte	0x39
 3946 0066 6A000000 		.4byte	0x6a
 3947 006a 02       		.uleb128 0x2
 3948 006b 02       		.byte	0x2
 3949 006c 07       		.byte	0x7
 3950 006d F4110000 		.4byte	.LASF7
 3951 0071 03       		.uleb128 0x3
 3952 0072 2D1A0000 		.4byte	.LASF8
 3953 0076 02       		.byte	0x2
 3954 0077 4D       		.byte	0x4d
 3955 0078 7C000000 		.4byte	0x7c
 3956 007c 02       		.uleb128 0x2
 3957 007d 04       		.byte	0x4
 3958 007e 05       		.byte	0x5
 3959 007f F7130000 		.4byte	.LASF9
 3960 0083 03       		.uleb128 0x3
 3961 0084 401A0000 		.4byte	.LASF10
 3962 0088 02       		.byte	0x2
 3963 0089 4F       		.byte	0x4f
 3964 008a 8E000000 		.4byte	0x8e
 3965 008e 02       		.uleb128 0x2
 3966 008f 04       		.byte	0x4
 3967 0090 07       		.byte	0x7
 3968 0091 7E150000 		.4byte	.LASF11
 3969 0095 02       		.uleb128 0x2
 3970 0096 08       		.byte	0x8
 3971 0097 05       		.byte	0x5
 3972 0098 6B1E0000 		.4byte	.LASF12
 3973 009c 02       		.uleb128 0x2
 3974 009d 08       		.byte	0x8
 3975 009e 07       		.byte	0x7
 3976 009f EE1B0000 		.4byte	.LASF13
 3977 00a3 04       		.uleb128 0x4
 3978 00a4 04       		.byte	0x4
 3979 00a5 05       		.byte	0x5
ARM GAS  C:\Users\EBANO_~1\AppData\Local\Temp\ccKJ5gfE.s 			page 98


 3980 00a6 696E7400 		.ascii	"int\000"
 3981 00aa 02       		.uleb128 0x2
 3982 00ab 04       		.byte	0x4
 3983 00ac 07       		.byte	0x7
 3984 00ad 7E200000 		.4byte	.LASF14
 3985 00b1 03       		.uleb128 0x3
 3986 00b2 0C110000 		.4byte	.LASF15
 3987 00b6 03       		.byte	0x3
 3988 00b7 14       		.byte	0x14
 3989 00b8 30000000 		.4byte	0x30
 3990 00bc 03       		.uleb128 0x3
 3991 00bd 610B0000 		.4byte	.LASF16
 3992 00c1 03       		.byte	0x3
 3993 00c2 18       		.byte	0x18
 3994 00c3 3B000000 		.4byte	0x3b
 3995 00c7 05       		.uleb128 0x5
 3996 00c8 BC000000 		.4byte	0xbc
 3997 00cc 03       		.uleb128 0x3
 3998 00cd D5110000 		.4byte	.LASF17
 3999 00d1 03       		.byte	0x3
 4000 00d2 20       		.byte	0x20
 4001 00d3 4D000000 		.4byte	0x4d
 4002 00d7 03       		.uleb128 0x3
 4003 00d8 49010000 		.4byte	.LASF18
 4004 00dc 03       		.byte	0x3
 4005 00dd 24       		.byte	0x24
 4006 00de 5F000000 		.4byte	0x5f
 4007 00e2 03       		.uleb128 0x3
 4008 00e3 09030000 		.4byte	.LASF19
 4009 00e7 03       		.byte	0x3
 4010 00e8 2C       		.byte	0x2c
 4011 00e9 71000000 		.4byte	0x71
 4012 00ed 03       		.uleb128 0x3
 4013 00ee B9140000 		.4byte	.LASF20
 4014 00f2 03       		.byte	0x3
 4015 00f3 30       		.byte	0x30
 4016 00f4 83000000 		.4byte	0x83
 4017 00f8 05       		.uleb128 0x5
 4018 00f9 ED000000 		.4byte	0xed
 4019 00fd 06       		.uleb128 0x6
 4020 00fe BE120000 		.4byte	.LASF21
 4021 0102 04       		.byte	0x4
 4022 0103 4A       		.byte	0x4a
 4023 0104 ED000000 		.4byte	0xed
 4024 0108 01       		.byte	0x1
 4025 0109 01       		.byte	0x1
 4026 010a 07       		.uleb128 0x7
 4027 010b C7000000 		.4byte	0xc7
 4028 010f 1A010000 		.4byte	0x11a
 4029 0113 08       		.uleb128 0x8
 4030 0114 AA000000 		.4byte	0xaa
 4031 0118 0F       		.byte	0xf
 4032 0119 00       		.byte	0
 4033 011a 05       		.uleb128 0x5
 4034 011b 0A010000 		.4byte	0x10a
 4035 011f 06       		.uleb128 0x6
 4036 0120 1F1F0000 		.4byte	.LASF22
ARM GAS  C:\Users\EBANO_~1\AppData\Local\Temp\ccKJ5gfE.s 			page 99


 4037 0124 04       		.byte	0x4
 4038 0125 4D       		.byte	0x4d
 4039 0126 1A010000 		.4byte	0x11a
 4040 012a 01       		.byte	0x1
 4041 012b 01       		.byte	0x1
 4042 012c 07       		.uleb128 0x7
 4043 012d C7000000 		.4byte	0xc7
 4044 0131 3C010000 		.4byte	0x13c
 4045 0135 08       		.uleb128 0x8
 4046 0136 AA000000 		.4byte	0xaa
 4047 013a 07       		.byte	0x7
 4048 013b 00       		.byte	0
 4049 013c 05       		.uleb128 0x5
 4050 013d 2C010000 		.4byte	0x12c
 4051 0141 06       		.uleb128 0x6
 4052 0142 47160000 		.4byte	.LASF23
 4053 0146 04       		.byte	0x4
 4054 0147 4E       		.byte	0x4e
 4055 0148 3C010000 		.4byte	0x13c
 4056 014c 01       		.byte	0x1
 4057 014d 01       		.byte	0x1
 4058 014e 07       		.uleb128 0x7
 4059 014f C7000000 		.4byte	0xc7
 4060 0153 5E010000 		.4byte	0x15e
 4061 0157 08       		.uleb128 0x8
 4062 0158 AA000000 		.4byte	0xaa
 4063 015c 08       		.byte	0x8
 4064 015d 00       		.byte	0
 4065 015e 05       		.uleb128 0x5
 4066 015f 4E010000 		.4byte	0x14e
 4067 0163 06       		.uleb128 0x6
 4068 0164 87190000 		.4byte	.LASF24
 4069 0168 04       		.byte	0x4
 4070 0169 4F       		.byte	0x4f
 4071 016a 5E010000 		.4byte	0x15e
 4072 016e 01       		.byte	0x1
 4073 016f 01       		.byte	0x1
 4074 0170 03       		.uleb128 0x3
 4075 0171 430B0000 		.4byte	.LASF25
 4076 0175 05       		.byte	0x5
 4077 0176 D8       		.byte	0xd8
 4078 0177 AA000000 		.4byte	0xaa
 4079 017b 02       		.uleb128 0x2
 4080 017c 08       		.byte	0x8
 4081 017d 04       		.byte	0x4
 4082 017e 3C150000 		.4byte	.LASF26
 4083 0182 09       		.uleb128 0x9
 4084 0183 04       		.byte	0x4
 4085 0184 03       		.uleb128 0x3
 4086 0185 7D050000 		.4byte	.LASF27
 4087 0189 06       		.byte	0x6
 4088 018a 22       		.byte	0x22
 4089 018b 8F010000 		.4byte	0x18f
 4090 018f 0A       		.uleb128 0xa
 4091 0190 04       		.byte	0x4
 4092 0191 95010000 		.4byte	0x195
 4093 0195 0B       		.uleb128 0xb
ARM GAS  C:\Users\EBANO_~1\AppData\Local\Temp\ccKJ5gfE.s 			page 100


 4094 0196 6C040000 		.4byte	.LASF134
 4095 019a 01       		.byte	0x1
 4096 019b 03       		.uleb128 0x3
 4097 019c 160B0000 		.4byte	.LASF28
 4098 01a0 07       		.byte	0x7
 4099 01a1 2C       		.byte	0x2c
 4100 01a2 7C000000 		.4byte	0x7c
 4101 01a6 03       		.uleb128 0x3
 4102 01a7 AB190000 		.4byte	.LASF29
 4103 01ab 07       		.byte	0x7
 4104 01ac 72       		.byte	0x72
 4105 01ad 7C000000 		.4byte	0x7c
 4106 01b1 0C       		.uleb128 0xc
 4107 01b2 330D0000 		.4byte	.LASF30
 4108 01b6 05       		.byte	0x5
 4109 01b7 6501     		.2byte	0x165
 4110 01b9 AA000000 		.4byte	0xaa
 4111 01bd 0D       		.uleb128 0xd
 4112 01be 04       		.byte	0x4
 4113 01bf 07       		.byte	0x7
 4114 01c0 A6       		.byte	0xa6
 4115 01c1 DC010000 		.4byte	0x1dc
 4116 01c5 0E       		.uleb128 0xe
 4117 01c6 4F130000 		.4byte	.LASF31
 4118 01ca 07       		.byte	0x7
 4119 01cb A8       		.byte	0xa8
 4120 01cc B1010000 		.4byte	0x1b1
 4121 01d0 0E       		.uleb128 0xe
 4122 01d1 D90C0000 		.4byte	.LASF32
 4123 01d5 07       		.byte	0x7
 4124 01d6 A9       		.byte	0xa9
 4125 01d7 DC010000 		.4byte	0x1dc
 4126 01db 00       		.byte	0
 4127 01dc 07       		.uleb128 0x7
 4128 01dd 46000000 		.4byte	0x46
 4129 01e1 EC010000 		.4byte	0x1ec
 4130 01e5 08       		.uleb128 0x8
 4131 01e6 AA000000 		.4byte	0xaa
 4132 01ea 03       		.byte	0x3
 4133 01eb 00       		.byte	0
 4134 01ec 0F       		.uleb128 0xf
 4135 01ed 08       		.byte	0x8
 4136 01ee 07       		.byte	0x7
 4137 01ef A3       		.byte	0xa3
 4138 01f0 11020000 		.4byte	0x211
 4139 01f4 10       		.uleb128 0x10
 4140 01f5 590B0000 		.4byte	.LASF33
 4141 01f9 07       		.byte	0x7
 4142 01fa A5       		.byte	0xa5
 4143 01fb A3000000 		.4byte	0xa3
 4144 01ff 02       		.byte	0x2
 4145 0200 23       		.byte	0x23
 4146 0201 00       		.uleb128 0
 4147 0202 10       		.uleb128 0x10
 4148 0203 731A0000 		.4byte	.LASF34
 4149 0207 07       		.byte	0x7
 4150 0208 AA       		.byte	0xaa
ARM GAS  C:\Users\EBANO_~1\AppData\Local\Temp\ccKJ5gfE.s 			page 101


 4151 0209 BD010000 		.4byte	0x1bd
 4152 020d 02       		.byte	0x2
 4153 020e 23       		.byte	0x23
 4154 020f 04       		.uleb128 0x4
 4155 0210 00       		.byte	0
 4156 0211 03       		.uleb128 0x3
 4157 0212 0A1A0000 		.4byte	.LASF35
 4158 0216 07       		.byte	0x7
 4159 0217 AB       		.byte	0xab
 4160 0218 EC010000 		.4byte	0x1ec
 4161 021c 03       		.uleb128 0x3
 4162 021d C11D0000 		.4byte	.LASF36
 4163 0221 07       		.byte	0x7
 4164 0222 AF       		.byte	0xaf
 4165 0223 84010000 		.4byte	0x184
 4166 0227 03       		.uleb128 0x3
 4167 0228 38110000 		.4byte	.LASF37
 4168 022c 08       		.byte	0x8
 4169 022d 16       		.byte	0x16
 4170 022e 8E000000 		.4byte	0x8e
 4171 0232 11       		.uleb128 0x11
 4172 0233 0A170000 		.4byte	.LASF42
 4173 0237 18       		.byte	0x18
 4174 0238 08       		.byte	0x8
 4175 0239 2F       		.byte	0x2f
 4176 023a 91020000 		.4byte	0x291
 4177 023e 10       		.uleb128 0x10
 4178 023f 8D0E0000 		.4byte	.LASF38
 4179 0243 08       		.byte	0x8
 4180 0244 31       		.byte	0x31
 4181 0245 91020000 		.4byte	0x291
 4182 0249 02       		.byte	0x2
 4183 024a 23       		.byte	0x23
 4184 024b 00       		.uleb128 0
 4185 024c 12       		.uleb128 0x12
 4186 024d 5F6B00   		.ascii	"_k\000"
 4187 0250 08       		.byte	0x8
 4188 0251 32       		.byte	0x32
 4189 0252 A3000000 		.4byte	0xa3
 4190 0256 02       		.byte	0x2
 4191 0257 23       		.byte	0x23
 4192 0258 04       		.uleb128 0x4
 4193 0259 10       		.uleb128 0x10
 4194 025a 01150000 		.4byte	.LASF39
 4195 025e 08       		.byte	0x8
 4196 025f 32       		.byte	0x32
 4197 0260 A3000000 		.4byte	0xa3
 4198 0264 02       		.byte	0x2
 4199 0265 23       		.byte	0x23
 4200 0266 08       		.uleb128 0x8
 4201 0267 10       		.uleb128 0x10
 4202 0268 57200000 		.4byte	.LASF40
 4203 026c 08       		.byte	0x8
 4204 026d 32       		.byte	0x32
 4205 026e A3000000 		.4byte	0xa3
 4206 0272 02       		.byte	0x2
 4207 0273 23       		.byte	0x23
ARM GAS  C:\Users\EBANO_~1\AppData\Local\Temp\ccKJ5gfE.s 			page 102


 4208 0274 0C       		.uleb128 0xc
 4209 0275 10       		.uleb128 0x10
 4210 0276 9F070000 		.4byte	.LASF41
 4211 027a 08       		.byte	0x8
 4212 027b 32       		.byte	0x32
 4213 027c A3000000 		.4byte	0xa3
 4214 0280 02       		.byte	0x2
 4215 0281 23       		.byte	0x23
 4216 0282 10       		.uleb128 0x10
 4217 0283 12       		.uleb128 0x12
 4218 0284 5F7800   		.ascii	"_x\000"
 4219 0287 08       		.byte	0x8
 4220 0288 33       		.byte	0x33
 4221 0289 97020000 		.4byte	0x297
 4222 028d 02       		.byte	0x2
 4223 028e 23       		.byte	0x23
 4224 028f 14       		.uleb128 0x14
 4225 0290 00       		.byte	0
 4226 0291 0A       		.uleb128 0xa
 4227 0292 04       		.byte	0x4
 4228 0293 32020000 		.4byte	0x232
 4229 0297 07       		.uleb128 0x7
 4230 0298 27020000 		.4byte	0x227
 4231 029c A7020000 		.4byte	0x2a7
 4232 02a0 08       		.uleb128 0x8
 4233 02a1 AA000000 		.4byte	0xaa
 4234 02a5 00       		.byte	0
 4235 02a6 00       		.byte	0
 4236 02a7 11       		.uleb128 0x11
 4237 02a8 2A050000 		.4byte	.LASF43
 4238 02ac 24       		.byte	0x24
 4239 02ad 08       		.byte	0x8
 4240 02ae 37       		.byte	0x37
 4241 02af 32030000 		.4byte	0x332
 4242 02b3 10       		.uleb128 0x10
 4243 02b4 29100000 		.4byte	.LASF44
 4244 02b8 08       		.byte	0x8
 4245 02b9 39       		.byte	0x39
 4246 02ba A3000000 		.4byte	0xa3
 4247 02be 02       		.byte	0x2
 4248 02bf 23       		.byte	0x23
 4249 02c0 00       		.uleb128 0
 4250 02c1 10       		.uleb128 0x10
 4251 02c2 66200000 		.4byte	.LASF45
 4252 02c6 08       		.byte	0x8
 4253 02c7 3A       		.byte	0x3a
 4254 02c8 A3000000 		.4byte	0xa3
 4255 02cc 02       		.byte	0x2
 4256 02cd 23       		.byte	0x23
 4257 02ce 04       		.uleb128 0x4
 4258 02cf 10       		.uleb128 0x10
 4259 02d0 EF0C0000 		.4byte	.LASF46
 4260 02d4 08       		.byte	0x8
 4261 02d5 3B       		.byte	0x3b
 4262 02d6 A3000000 		.4byte	0xa3
 4263 02da 02       		.byte	0x2
 4264 02db 23       		.byte	0x23
ARM GAS  C:\Users\EBANO_~1\AppData\Local\Temp\ccKJ5gfE.s 			page 103


 4265 02dc 08       		.uleb128 0x8
 4266 02dd 10       		.uleb128 0x10
 4267 02de EF0D0000 		.4byte	.LASF47
 4268 02e2 08       		.byte	0x8
 4269 02e3 3C       		.byte	0x3c
 4270 02e4 A3000000 		.4byte	0xa3
 4271 02e8 02       		.byte	0x2
 4272 02e9 23       		.byte	0x23
 4273 02ea 0C       		.uleb128 0xc
 4274 02eb 10       		.uleb128 0x10
 4275 02ec 19010000 		.4byte	.LASF48
 4276 02f0 08       		.byte	0x8
 4277 02f1 3D       		.byte	0x3d
 4278 02f2 A3000000 		.4byte	0xa3
 4279 02f6 02       		.byte	0x2
 4280 02f7 23       		.byte	0x23
 4281 02f8 10       		.uleb128 0x10
 4282 02f9 10       		.uleb128 0x10
 4283 02fa 02090000 		.4byte	.LASF49
 4284 02fe 08       		.byte	0x8
 4285 02ff 3E       		.byte	0x3e
 4286 0300 A3000000 		.4byte	0xa3
 4287 0304 02       		.byte	0x2
 4288 0305 23       		.byte	0x23
 4289 0306 14       		.uleb128 0x14
 4290 0307 10       		.uleb128 0x10
 4291 0308 0D070000 		.4byte	.LASF50
 4292 030c 08       		.byte	0x8
 4293 030d 3F       		.byte	0x3f
 4294 030e A3000000 		.4byte	0xa3
 4295 0312 02       		.byte	0x2
 4296 0313 23       		.byte	0x23
 4297 0314 18       		.uleb128 0x18
 4298 0315 10       		.uleb128 0x10
 4299 0316 4B050000 		.4byte	.LASF51
 4300 031a 08       		.byte	0x8
 4301 031b 40       		.byte	0x40
 4302 031c A3000000 		.4byte	0xa3
 4303 0320 02       		.byte	0x2
 4304 0321 23       		.byte	0x23
 4305 0322 1C       		.uleb128 0x1c
 4306 0323 10       		.uleb128 0x10
 4307 0324 17070000 		.4byte	.LASF52
 4308 0328 08       		.byte	0x8
 4309 0329 41       		.byte	0x41
 4310 032a A3000000 		.4byte	0xa3
 4311 032e 02       		.byte	0x2
 4312 032f 23       		.byte	0x23
 4313 0330 20       		.uleb128 0x20
 4314 0331 00       		.byte	0
 4315 0332 13       		.uleb128 0x13
 4316 0333 32100000 		.4byte	.LASF53
 4317 0337 0801     		.2byte	0x108
 4318 0339 08       		.byte	0x8
 4319 033a 4A       		.byte	0x4a
 4320 033b 7B030000 		.4byte	0x37b
 4321 033f 10       		.uleb128 0x10
ARM GAS  C:\Users\EBANO_~1\AppData\Local\Temp\ccKJ5gfE.s 			page 104


 4322 0340 F90D0000 		.4byte	.LASF54
 4323 0344 08       		.byte	0x8
 4324 0345 4B       		.byte	0x4b
 4325 0346 7B030000 		.4byte	0x37b
 4326 034a 02       		.byte	0x2
 4327 034b 23       		.byte	0x23
 4328 034c 00       		.uleb128 0
 4329 034d 10       		.uleb128 0x10
 4330 034e D4060000 		.4byte	.LASF55
 4331 0352 08       		.byte	0x8
 4332 0353 4C       		.byte	0x4c
 4333 0354 7B030000 		.4byte	0x37b
 4334 0358 03       		.byte	0x3
 4335 0359 23       		.byte	0x23
 4336 035a 8001     		.uleb128 0x80
 4337 035c 10       		.uleb128 0x10
 4338 035d 22010000 		.4byte	.LASF56
 4339 0361 08       		.byte	0x8
 4340 0362 4E       		.byte	0x4e
 4341 0363 27020000 		.4byte	0x227
 4342 0367 03       		.byte	0x3
 4343 0368 23       		.byte	0x23
 4344 0369 8002     		.uleb128 0x100
 4345 036b 10       		.uleb128 0x10
 4346 036c 8B1A0000 		.4byte	.LASF57
 4347 0370 08       		.byte	0x8
 4348 0371 51       		.byte	0x51
 4349 0372 27020000 		.4byte	0x227
 4350 0376 03       		.byte	0x3
 4351 0377 23       		.byte	0x23
 4352 0378 8402     		.uleb128 0x104
 4353 037a 00       		.byte	0
 4354 037b 07       		.uleb128 0x7
 4355 037c 82010000 		.4byte	0x182
 4356 0380 8B030000 		.4byte	0x38b
 4357 0384 08       		.uleb128 0x8
 4358 0385 AA000000 		.4byte	0xaa
 4359 0389 1F       		.byte	0x1f
 4360 038a 00       		.byte	0
 4361 038b 13       		.uleb128 0x13
 4362 038c FF000000 		.4byte	.LASF58
 4363 0390 9001     		.2byte	0x190
 4364 0392 08       		.byte	0x8
 4365 0393 5D       		.byte	0x5d
 4366 0394 D2030000 		.4byte	0x3d2
 4367 0398 10       		.uleb128 0x10
 4368 0399 8D0E0000 		.4byte	.LASF38
 4369 039d 08       		.byte	0x8
 4370 039e 5E       		.byte	0x5e
 4371 039f D2030000 		.4byte	0x3d2
 4372 03a3 02       		.byte	0x2
 4373 03a4 23       		.byte	0x23
 4374 03a5 00       		.uleb128 0
 4375 03a6 10       		.uleb128 0x10
 4376 03a7 30010000 		.4byte	.LASF59
 4377 03ab 08       		.byte	0x8
 4378 03ac 5F       		.byte	0x5f
ARM GAS  C:\Users\EBANO_~1\AppData\Local\Temp\ccKJ5gfE.s 			page 105


 4379 03ad A3000000 		.4byte	0xa3
 4380 03b1 02       		.byte	0x2
 4381 03b2 23       		.byte	0x23
 4382 03b3 04       		.uleb128 0x4
 4383 03b4 10       		.uleb128 0x10
 4384 03b5 F4190000 		.4byte	.LASF60
 4385 03b9 08       		.byte	0x8
 4386 03ba 61       		.byte	0x61
 4387 03bb D8030000 		.4byte	0x3d8
 4388 03bf 02       		.byte	0x2
 4389 03c0 23       		.byte	0x23
 4390 03c1 08       		.uleb128 0x8
 4391 03c2 10       		.uleb128 0x10
 4392 03c3 32100000 		.4byte	.LASF53
 4393 03c7 08       		.byte	0x8
 4394 03c8 62       		.byte	0x62
 4395 03c9 32030000 		.4byte	0x332
 4396 03cd 03       		.byte	0x3
 4397 03ce 23       		.byte	0x23
 4398 03cf 8801     		.uleb128 0x88
 4399 03d1 00       		.byte	0
 4400 03d2 0A       		.uleb128 0xa
 4401 03d3 04       		.byte	0x4
 4402 03d4 8B030000 		.4byte	0x38b
 4403 03d8 07       		.uleb128 0x7
 4404 03d9 E8030000 		.4byte	0x3e8
 4405 03dd E8030000 		.4byte	0x3e8
 4406 03e1 08       		.uleb128 0x8
 4407 03e2 AA000000 		.4byte	0xaa
 4408 03e6 1F       		.byte	0x1f
 4409 03e7 00       		.byte	0
 4410 03e8 0A       		.uleb128 0xa
 4411 03e9 04       		.byte	0x4
 4412 03ea EE030000 		.4byte	0x3ee
 4413 03ee 14       		.uleb128 0x14
 4414 03ef 01       		.byte	0x1
 4415 03f0 11       		.uleb128 0x11
 4416 03f1 EA120000 		.4byte	.LASF61
 4417 03f5 08       		.byte	0x8
 4418 03f6 08       		.byte	0x8
 4419 03f7 75       		.byte	0x75
 4420 03f8 19040000 		.4byte	0x419
 4421 03fc 10       		.uleb128 0x10
 4422 03fd C6040000 		.4byte	.LASF62
 4423 0401 08       		.byte	0x8
 4424 0402 76       		.byte	0x76
 4425 0403 19040000 		.4byte	0x419
 4426 0407 02       		.byte	0x2
 4427 0408 23       		.byte	0x23
 4428 0409 00       		.uleb128 0
 4429 040a 10       		.uleb128 0x10
 4430 040b 55080000 		.4byte	.LASF63
 4431 040f 08       		.byte	0x8
 4432 0410 77       		.byte	0x77
 4433 0411 A3000000 		.4byte	0xa3
 4434 0415 02       		.byte	0x2
 4435 0416 23       		.byte	0x23
ARM GAS  C:\Users\EBANO_~1\AppData\Local\Temp\ccKJ5gfE.s 			page 106


 4436 0417 04       		.uleb128 0x4
 4437 0418 00       		.byte	0
 4438 0419 0A       		.uleb128 0xa
 4439 041a 04       		.byte	0x4
 4440 041b 46000000 		.4byte	0x46
 4441 041f 11       		.uleb128 0x11
 4442 0420 DB190000 		.4byte	.LASF64
 4443 0424 68       		.byte	0x68
 4444 0425 08       		.byte	0x8
 4445 0426 B5       		.byte	0xb5
 4446 0427 79050000 		.4byte	0x579
 4447 042b 12       		.uleb128 0x12
 4448 042c 5F7000   		.ascii	"_p\000"
 4449 042f 08       		.byte	0x8
 4450 0430 B6       		.byte	0xb6
 4451 0431 19040000 		.4byte	0x419
 4452 0435 02       		.byte	0x2
 4453 0436 23       		.byte	0x23
 4454 0437 00       		.uleb128 0
 4455 0438 12       		.uleb128 0x12
 4456 0439 5F7200   		.ascii	"_r\000"
 4457 043c 08       		.byte	0x8
 4458 043d B7       		.byte	0xb7
 4459 043e A3000000 		.4byte	0xa3
 4460 0442 02       		.byte	0x2
 4461 0443 23       		.byte	0x23
 4462 0444 04       		.uleb128 0x4
 4463 0445 12       		.uleb128 0x12
 4464 0446 5F7700   		.ascii	"_w\000"
 4465 0449 08       		.byte	0x8
 4466 044a B8       		.byte	0xb8
 4467 044b A3000000 		.4byte	0xa3
 4468 044f 02       		.byte	0x2
 4469 0450 23       		.byte	0x23
 4470 0451 08       		.uleb128 0x8
 4471 0452 10       		.uleb128 0x10
 4472 0453 94010000 		.4byte	.LASF65
 4473 0457 08       		.byte	0x8
 4474 0458 B9       		.byte	0xb9
 4475 0459 58000000 		.4byte	0x58
 4476 045d 02       		.byte	0x2
 4477 045e 23       		.byte	0x23
 4478 045f 0C       		.uleb128 0xc
 4479 0460 10       		.uleb128 0x10
 4480 0461 C6190000 		.4byte	.LASF66
 4481 0465 08       		.byte	0x8
 4482 0466 BA       		.byte	0xba
 4483 0467 58000000 		.4byte	0x58
 4484 046b 02       		.byte	0x2
 4485 046c 23       		.byte	0x23
 4486 046d 0E       		.uleb128 0xe
 4487 046e 12       		.uleb128 0x12
 4488 046f 5F626600 		.ascii	"_bf\000"
 4489 0473 08       		.byte	0x8
 4490 0474 BB       		.byte	0xbb
 4491 0475 F0030000 		.4byte	0x3f0
 4492 0479 02       		.byte	0x2
ARM GAS  C:\Users\EBANO_~1\AppData\Local\Temp\ccKJ5gfE.s 			page 107


 4493 047a 23       		.byte	0x23
 4494 047b 10       		.uleb128 0x10
 4495 047c 10       		.uleb128 0x10
 4496 047d 8E030000 		.4byte	.LASF67
 4497 0481 08       		.byte	0x8
 4498 0482 BC       		.byte	0xbc
 4499 0483 A3000000 		.4byte	0xa3
 4500 0487 02       		.byte	0x2
 4501 0488 23       		.byte	0x23
 4502 0489 18       		.uleb128 0x18
 4503 048a 10       		.uleb128 0x10
 4504 048b DA0E0000 		.4byte	.LASF68
 4505 048f 08       		.byte	0x8
 4506 0490 C3       		.byte	0xc3
 4507 0491 82010000 		.4byte	0x182
 4508 0495 02       		.byte	0x2
 4509 0496 23       		.byte	0x23
 4510 0497 1C       		.uleb128 0x1c
 4511 0498 10       		.uleb128 0x10
 4512 0499 2B210000 		.4byte	.LASF69
 4513 049d 08       		.byte	0x8
 4514 049e C5       		.byte	0xc5
 4515 049f 13070000 		.4byte	0x713
 4516 04a3 02       		.byte	0x2
 4517 04a4 23       		.byte	0x23
 4518 04a5 20       		.uleb128 0x20
 4519 04a6 10       		.uleb128 0x10
 4520 04a7 63080000 		.4byte	.LASF70
 4521 04ab 08       		.byte	0x8
 4522 04ac C7       		.byte	0xc7
 4523 04ad 3E070000 		.4byte	0x73e
 4524 04b1 02       		.byte	0x2
 4525 04b2 23       		.byte	0x23
 4526 04b3 24       		.uleb128 0x24
 4527 04b4 10       		.uleb128 0x10
 4528 04b5 C2110000 		.4byte	.LASF71
 4529 04b9 08       		.byte	0x8
 4530 04ba CA       		.byte	0xca
 4531 04bb 63070000 		.4byte	0x763
 4532 04bf 02       		.byte	0x2
 4533 04c0 23       		.byte	0x23
 4534 04c1 28       		.uleb128 0x28
 4535 04c2 10       		.uleb128 0x10
 4536 04c3 E2150000 		.4byte	.LASF72
 4537 04c7 08       		.byte	0x8
 4538 04c8 CB       		.byte	0xcb
 4539 04c9 7E070000 		.4byte	0x77e
 4540 04cd 02       		.byte	0x2
 4541 04ce 23       		.byte	0x23
 4542 04cf 2C       		.uleb128 0x2c
 4543 04d0 12       		.uleb128 0x12
 4544 04d1 5F756200 		.ascii	"_ub\000"
 4545 04d5 08       		.byte	0x8
 4546 04d6 CE       		.byte	0xce
 4547 04d7 F0030000 		.4byte	0x3f0
 4548 04db 02       		.byte	0x2
 4549 04dc 23       		.byte	0x23
ARM GAS  C:\Users\EBANO_~1\AppData\Local\Temp\ccKJ5gfE.s 			page 108


 4550 04dd 30       		.uleb128 0x30
 4551 04de 12       		.uleb128 0x12
 4552 04df 5F757000 		.ascii	"_up\000"
 4553 04e3 08       		.byte	0x8
 4554 04e4 CF       		.byte	0xcf
 4555 04e5 19040000 		.4byte	0x419
 4556 04e9 02       		.byte	0x2
 4557 04ea 23       		.byte	0x23
 4558 04eb 38       		.uleb128 0x38
 4559 04ec 12       		.uleb128 0x12
 4560 04ed 5F757200 		.ascii	"_ur\000"
 4561 04f1 08       		.byte	0x8
 4562 04f2 D0       		.byte	0xd0
 4563 04f3 A3000000 		.4byte	0xa3
 4564 04f7 02       		.byte	0x2
 4565 04f8 23       		.byte	0x23
 4566 04f9 3C       		.uleb128 0x3c
 4567 04fa 10       		.uleb128 0x10
 4568 04fb F1180000 		.4byte	.LASF73
 4569 04ff 08       		.byte	0x8
 4570 0500 D3       		.byte	0xd3
 4571 0501 84070000 		.4byte	0x784
 4572 0505 02       		.byte	0x2
 4573 0506 23       		.byte	0x23
 4574 0507 40       		.uleb128 0x40
 4575 0508 10       		.uleb128 0x10
 4576 0509 25020000 		.4byte	.LASF74
 4577 050d 08       		.byte	0x8
 4578 050e D4       		.byte	0xd4
 4579 050f 94070000 		.4byte	0x794
 4580 0513 02       		.byte	0x2
 4581 0514 23       		.byte	0x23
 4582 0515 43       		.uleb128 0x43
 4583 0516 12       		.uleb128 0x12
 4584 0517 5F6C6200 		.ascii	"_lb\000"
 4585 051b 08       		.byte	0x8
 4586 051c D7       		.byte	0xd7
 4587 051d F0030000 		.4byte	0x3f0
 4588 0521 02       		.byte	0x2
 4589 0522 23       		.byte	0x23
 4590 0523 44       		.uleb128 0x44
 4591 0524 10       		.uleb128 0x10
 4592 0525 D9180000 		.4byte	.LASF75
 4593 0529 08       		.byte	0x8
 4594 052a DA       		.byte	0xda
 4595 052b A3000000 		.4byte	0xa3
 4596 052f 02       		.byte	0x2
 4597 0530 23       		.byte	0x23
 4598 0531 4C       		.uleb128 0x4c
 4599 0532 10       		.uleb128 0x10
 4600 0533 B6120000 		.4byte	.LASF76
 4601 0537 08       		.byte	0x8
 4602 0538 DB       		.byte	0xdb
 4603 0539 9B010000 		.4byte	0x19b
 4604 053d 02       		.byte	0x2
 4605 053e 23       		.byte	0x23
 4606 053f 50       		.uleb128 0x50
ARM GAS  C:\Users\EBANO_~1\AppData\Local\Temp\ccKJ5gfE.s 			page 109


 4607 0540 10       		.uleb128 0x10
 4608 0541 DD030000 		.4byte	.LASF77
 4609 0545 08       		.byte	0x8
 4610 0546 DE       		.byte	0xde
 4611 0547 98050000 		.4byte	0x598
 4612 054b 02       		.byte	0x2
 4613 054c 23       		.byte	0x23
 4614 054d 54       		.uleb128 0x54
 4615 054e 10       		.uleb128 0x10
 4616 054f 1F020000 		.4byte	.LASF78
 4617 0553 08       		.byte	0x8
 4618 0554 E2       		.byte	0xe2
 4619 0555 1C020000 		.4byte	0x21c
 4620 0559 02       		.byte	0x2
 4621 055a 23       		.byte	0x23
 4622 055b 58       		.uleb128 0x58
 4623 055c 10       		.uleb128 0x10
 4624 055d EA000000 		.4byte	.LASF79
 4625 0561 08       		.byte	0x8
 4626 0562 E4       		.byte	0xe4
 4627 0563 11020000 		.4byte	0x211
 4628 0567 02       		.byte	0x2
 4629 0568 23       		.byte	0x23
 4630 0569 5C       		.uleb128 0x5c
 4631 056a 10       		.uleb128 0x10
 4632 056b B91E0000 		.4byte	.LASF80
 4633 056f 08       		.byte	0x8
 4634 0570 E5       		.byte	0xe5
 4635 0571 A3000000 		.4byte	0xa3
 4636 0575 02       		.byte	0x2
 4637 0576 23       		.byte	0x23
 4638 0577 64       		.uleb128 0x64
 4639 0578 00       		.byte	0
 4640 0579 15       		.uleb128 0x15
 4641 057a 01       		.byte	0x1
 4642 057b A3000000 		.4byte	0xa3
 4643 057f 98050000 		.4byte	0x598
 4644 0583 16       		.uleb128 0x16
 4645 0584 98050000 		.4byte	0x598
 4646 0588 16       		.uleb128 0x16
 4647 0589 82010000 		.4byte	0x182
 4648 058d 16       		.uleb128 0x16
 4649 058e 01070000 		.4byte	0x701
 4650 0592 16       		.uleb128 0x16
 4651 0593 A3000000 		.4byte	0xa3
 4652 0597 00       		.byte	0
 4653 0598 0A       		.uleb128 0xa
 4654 0599 04       		.byte	0x4
 4655 059a A3050000 		.4byte	0x5a3
 4656 059e 05       		.uleb128 0x5
 4657 059f 98050000 		.4byte	0x598
 4658 05a3 17       		.uleb128 0x17
 4659 05a4 73040000 		.4byte	.LASF81
 4660 05a8 2804     		.2byte	0x428
 4661 05aa 08       		.byte	0x8
 4662 05ab 6002     		.2byte	0x260
 4663 05ad 01070000 		.4byte	0x701
ARM GAS  C:\Users\EBANO_~1\AppData\Local\Temp\ccKJ5gfE.s 			page 110


 4664 05b1 18       		.uleb128 0x18
 4665 05b2 CC0D0000 		.4byte	.LASF82
 4666 05b6 08       		.byte	0x8
 4667 05b7 6202     		.2byte	0x262
 4668 05b9 A3000000 		.4byte	0xa3
 4669 05bd 02       		.byte	0x2
 4670 05be 23       		.byte	0x23
 4671 05bf 00       		.uleb128 0
 4672 05c0 18       		.uleb128 0x18
 4673 05c1 970A0000 		.4byte	.LASF83
 4674 05c5 08       		.byte	0x8
 4675 05c6 6702     		.2byte	0x267
 4676 05c8 F1070000 		.4byte	0x7f1
 4677 05cc 02       		.byte	0x2
 4678 05cd 23       		.byte	0x23
 4679 05ce 04       		.uleb128 0x4
 4680 05cf 18       		.uleb128 0x18
 4681 05d0 75070000 		.4byte	.LASF84
 4682 05d4 08       		.byte	0x8
 4683 05d5 6702     		.2byte	0x267
 4684 05d7 F1070000 		.4byte	0x7f1
 4685 05db 02       		.byte	0x2
 4686 05dc 23       		.byte	0x23
 4687 05dd 08       		.uleb128 0x8
 4688 05de 18       		.uleb128 0x18
 4689 05df B5060000 		.4byte	.LASF85
 4690 05e3 08       		.byte	0x8
 4691 05e4 6702     		.2byte	0x267
 4692 05e6 F1070000 		.4byte	0x7f1
 4693 05ea 02       		.byte	0x2
 4694 05eb 23       		.byte	0x23
 4695 05ec 0C       		.uleb128 0xc
 4696 05ed 18       		.uleb128 0x18
 4697 05ee 2B010000 		.4byte	.LASF86
 4698 05f2 08       		.byte	0x8
 4699 05f3 6902     		.2byte	0x269
 4700 05f5 A3000000 		.4byte	0xa3
 4701 05f9 02       		.byte	0x2
 4702 05fa 23       		.byte	0x23
 4703 05fb 10       		.uleb128 0x10
 4704 05fc 18       		.uleb128 0x18
 4705 05fd 82140000 		.4byte	.LASF87
 4706 0601 08       		.byte	0x8
 4707 0602 6A02     		.2byte	0x26a
 4708 0604 0C0A0000 		.4byte	0xa0c
 4709 0608 02       		.byte	0x2
 4710 0609 23       		.byte	0x23
 4711 060a 14       		.uleb128 0x14
 4712 060b 18       		.uleb128 0x18
 4713 060c 221D0000 		.4byte	.LASF88
 4714 0610 08       		.byte	0x8
 4715 0611 6D02     		.2byte	0x26d
 4716 0613 A3000000 		.4byte	0xa3
 4717 0617 02       		.byte	0x2
 4718 0618 23       		.byte	0x23
 4719 0619 30       		.uleb128 0x30
 4720 061a 18       		.uleb128 0x18
ARM GAS  C:\Users\EBANO_~1\AppData\Local\Temp\ccKJ5gfE.s 			page 111


 4721 061b E41E0000 		.4byte	.LASF89
 4722 061f 08       		.byte	0x8
 4723 0620 6E02     		.2byte	0x26e
 4724 0622 220A0000 		.4byte	0xa22
 4725 0626 02       		.byte	0x2
 4726 0627 23       		.byte	0x23
 4727 0628 34       		.uleb128 0x34
 4728 0629 18       		.uleb128 0x18
 4729 062a 721D0000 		.4byte	.LASF90
 4730 062e 08       		.byte	0x8
 4731 062f 7002     		.2byte	0x270
 4732 0631 A3000000 		.4byte	0xa3
 4733 0635 02       		.byte	0x2
 4734 0636 23       		.byte	0x23
 4735 0637 38       		.uleb128 0x38
 4736 0638 18       		.uleb128 0x18
 4737 0639 4F190000 		.4byte	.LASF91
 4738 063d 08       		.byte	0x8
 4739 063e 7202     		.2byte	0x272
 4740 0640 340A0000 		.4byte	0xa34
 4741 0644 02       		.byte	0x2
 4742 0645 23       		.byte	0x23
 4743 0646 3C       		.uleb128 0x3c
 4744 0647 18       		.uleb128 0x18
 4745 0648 BD060000 		.4byte	.LASF92
 4746 064c 08       		.byte	0x8
 4747 064d 7502     		.2byte	0x275
 4748 064f 91020000 		.4byte	0x291
 4749 0653 02       		.byte	0x2
 4750 0654 23       		.byte	0x23
 4751 0655 40       		.uleb128 0x40
 4752 0656 18       		.uleb128 0x18
 4753 0657 AB060000 		.4byte	.LASF93
 4754 065b 08       		.byte	0x8
 4755 065c 7602     		.2byte	0x276
 4756 065e A3000000 		.4byte	0xa3
 4757 0662 02       		.byte	0x2
 4758 0663 23       		.byte	0x23
 4759 0664 44       		.uleb128 0x44
 4760 0665 18       		.uleb128 0x18
 4761 0666 C51A0000 		.4byte	.LASF94
 4762 066a 08       		.byte	0x8
 4763 066b 7702     		.2byte	0x277
 4764 066d 91020000 		.4byte	0x291
 4765 0671 02       		.byte	0x2
 4766 0672 23       		.byte	0x23
 4767 0673 48       		.uleb128 0x48
 4768 0674 18       		.uleb128 0x18
 4769 0675 9C120000 		.4byte	.LASF95
 4770 0679 08       		.byte	0x8
 4771 067a 7802     		.2byte	0x278
 4772 067c 3A0A0000 		.4byte	0xa3a
 4773 0680 02       		.byte	0x2
 4774 0681 23       		.byte	0x23
 4775 0682 4C       		.uleb128 0x4c
 4776 0683 18       		.uleb128 0x18
 4777 0684 C1010000 		.4byte	.LASF96
ARM GAS  C:\Users\EBANO_~1\AppData\Local\Temp\ccKJ5gfE.s 			page 112


 4778 0688 08       		.byte	0x8
 4779 0689 7B02     		.2byte	0x27b
 4780 068b A3000000 		.4byte	0xa3
 4781 068f 02       		.byte	0x2
 4782 0690 23       		.byte	0x23
 4783 0691 50       		.uleb128 0x50
 4784 0692 18       		.uleb128 0x18
 4785 0693 1E0C0000 		.4byte	.LASF97
 4786 0697 08       		.byte	0x8
 4787 0698 7C02     		.2byte	0x27c
 4788 069a 01070000 		.4byte	0x701
 4789 069e 02       		.byte	0x2
 4790 069f 23       		.byte	0x23
 4791 06a0 54       		.uleb128 0x54
 4792 06a1 18       		.uleb128 0x18
 4793 06a2 3A0D0000 		.4byte	.LASF98
 4794 06a6 08       		.byte	0x8
 4795 06a7 9F02     		.2byte	0x29f
 4796 06a9 EA090000 		.4byte	0x9ea
 4797 06ad 02       		.byte	0x2
 4798 06ae 23       		.byte	0x23
 4799 06af 58       		.uleb128 0x58
 4800 06b0 18       		.uleb128 0x18
 4801 06b1 FF000000 		.4byte	.LASF58
 4802 06b5 08       		.byte	0x8
 4803 06b6 A302     		.2byte	0x2a3
 4804 06b8 D2030000 		.4byte	0x3d2
 4805 06bc 03       		.byte	0x3
 4806 06bd 23       		.byte	0x23
 4807 06be C802     		.uleb128 0x148
 4808 06c0 18       		.uleb128 0x18
 4809 06c1 70170000 		.4byte	.LASF99
 4810 06c5 08       		.byte	0x8
 4811 06c6 A402     		.2byte	0x2a4
 4812 06c8 8B030000 		.4byte	0x38b
 4813 06cc 03       		.byte	0x3
 4814 06cd 23       		.byte	0x23
 4815 06ce CC02     		.uleb128 0x14c
 4816 06d0 18       		.uleb128 0x18
 4817 06d1 EA010000 		.4byte	.LASF100
 4818 06d5 08       		.byte	0x8
 4819 06d6 A802     		.2byte	0x2a8
 4820 06d8 4C0A0000 		.4byte	0xa4c
 4821 06dc 03       		.byte	0x3
 4822 06dd 23       		.byte	0x23
 4823 06de DC05     		.uleb128 0x2dc
 4824 06e0 18       		.uleb128 0x18
 4825 06e1 1C190000 		.4byte	.LASF101
 4826 06e5 08       		.byte	0x8
 4827 06e6 AD02     		.2byte	0x2ad
 4828 06e8 B0070000 		.4byte	0x7b0
 4829 06ec 03       		.byte	0x3
 4830 06ed 23       		.byte	0x23
 4831 06ee E005     		.uleb128 0x2e0
 4832 06f0 18       		.uleb128 0x18
 4833 06f1 C1040000 		.4byte	.LASF102
 4834 06f5 08       		.byte	0x8
ARM GAS  C:\Users\EBANO_~1\AppData\Local\Temp\ccKJ5gfE.s 			page 113


 4835 06f6 AF02     		.2byte	0x2af
 4836 06f8 580A0000 		.4byte	0xa58
 4837 06fc 03       		.byte	0x3
 4838 06fd 23       		.byte	0x23
 4839 06fe EC05     		.uleb128 0x2ec
 4840 0700 00       		.byte	0
 4841 0701 0A       		.uleb128 0xa
 4842 0702 04       		.byte	0x4
 4843 0703 07070000 		.4byte	0x707
 4844 0707 02       		.uleb128 0x2
 4845 0708 01       		.byte	0x1
 4846 0709 08       		.byte	0x8
 4847 070a FA150000 		.4byte	.LASF103
 4848 070e 05       		.uleb128 0x5
 4849 070f 07070000 		.4byte	0x707
 4850 0713 0A       		.uleb128 0xa
 4851 0714 04       		.byte	0x4
 4852 0715 79050000 		.4byte	0x579
 4853 0719 15       		.uleb128 0x15
 4854 071a 01       		.byte	0x1
 4855 071b A3000000 		.4byte	0xa3
 4856 071f 38070000 		.4byte	0x738
 4857 0723 16       		.uleb128 0x16
 4858 0724 98050000 		.4byte	0x598
 4859 0728 16       		.uleb128 0x16
 4860 0729 82010000 		.4byte	0x182
 4861 072d 16       		.uleb128 0x16
 4862 072e 38070000 		.4byte	0x738
 4863 0732 16       		.uleb128 0x16
 4864 0733 A3000000 		.4byte	0xa3
 4865 0737 00       		.byte	0
 4866 0738 0A       		.uleb128 0xa
 4867 0739 04       		.byte	0x4
 4868 073a 0E070000 		.4byte	0x70e
 4869 073e 0A       		.uleb128 0xa
 4870 073f 04       		.byte	0x4
 4871 0740 19070000 		.4byte	0x719
 4872 0744 15       		.uleb128 0x15
 4873 0745 01       		.byte	0x1
 4874 0746 A6010000 		.4byte	0x1a6
 4875 074a 63070000 		.4byte	0x763
 4876 074e 16       		.uleb128 0x16
 4877 074f 98050000 		.4byte	0x598
 4878 0753 16       		.uleb128 0x16
 4879 0754 82010000 		.4byte	0x182
 4880 0758 16       		.uleb128 0x16
 4881 0759 A6010000 		.4byte	0x1a6
 4882 075d 16       		.uleb128 0x16
 4883 075e A3000000 		.4byte	0xa3
 4884 0762 00       		.byte	0
 4885 0763 0A       		.uleb128 0xa
 4886 0764 04       		.byte	0x4
 4887 0765 44070000 		.4byte	0x744
 4888 0769 15       		.uleb128 0x15
 4889 076a 01       		.byte	0x1
 4890 076b A3000000 		.4byte	0xa3
 4891 076f 7E070000 		.4byte	0x77e
ARM GAS  C:\Users\EBANO_~1\AppData\Local\Temp\ccKJ5gfE.s 			page 114


 4892 0773 16       		.uleb128 0x16
 4893 0774 98050000 		.4byte	0x598
 4894 0778 16       		.uleb128 0x16
 4895 0779 82010000 		.4byte	0x182
 4896 077d 00       		.byte	0
 4897 077e 0A       		.uleb128 0xa
 4898 077f 04       		.byte	0x4
 4899 0780 69070000 		.4byte	0x769
 4900 0784 07       		.uleb128 0x7
 4901 0785 46000000 		.4byte	0x46
 4902 0789 94070000 		.4byte	0x794
 4903 078d 08       		.uleb128 0x8
 4904 078e AA000000 		.4byte	0xaa
 4905 0792 02       		.byte	0x2
 4906 0793 00       		.byte	0
 4907 0794 07       		.uleb128 0x7
 4908 0795 46000000 		.4byte	0x46
 4909 0799 A4070000 		.4byte	0x7a4
 4910 079d 08       		.uleb128 0x8
 4911 079e AA000000 		.4byte	0xaa
 4912 07a2 00       		.byte	0
 4913 07a3 00       		.byte	0
 4914 07a4 0C       		.uleb128 0xc
 4915 07a5 F81F0000 		.4byte	.LASF104
 4916 07a9 08       		.byte	0x8
 4917 07aa 1F01     		.2byte	0x11f
 4918 07ac 1F040000 		.4byte	0x41f
 4919 07b0 19       		.uleb128 0x19
 4920 07b1 1B160000 		.4byte	.LASF105
 4921 07b5 0C       		.byte	0xc
 4922 07b6 08       		.byte	0x8
 4923 07b7 2301     		.2byte	0x123
 4924 07b9 EB070000 		.4byte	0x7eb
 4925 07bd 18       		.uleb128 0x18
 4926 07be 8D0E0000 		.4byte	.LASF38
 4927 07c2 08       		.byte	0x8
 4928 07c3 2501     		.2byte	0x125
 4929 07c5 EB070000 		.4byte	0x7eb
 4930 07c9 02       		.byte	0x2
 4931 07ca 23       		.byte	0x23
 4932 07cb 00       		.uleb128 0
 4933 07cc 18       		.uleb128 0x18
 4934 07cd 580D0000 		.4byte	.LASF106
 4935 07d1 08       		.byte	0x8
 4936 07d2 2601     		.2byte	0x126
 4937 07d4 A3000000 		.4byte	0xa3
 4938 07d8 02       		.byte	0x2
 4939 07d9 23       		.byte	0x23
 4940 07da 04       		.uleb128 0x4
 4941 07db 18       		.uleb128 0x18
 4942 07dc 7C140000 		.4byte	.LASF107
 4943 07e0 08       		.byte	0x8
 4944 07e1 2701     		.2byte	0x127
 4945 07e3 F1070000 		.4byte	0x7f1
 4946 07e7 02       		.byte	0x2
 4947 07e8 23       		.byte	0x23
 4948 07e9 08       		.uleb128 0x8
ARM GAS  C:\Users\EBANO_~1\AppData\Local\Temp\ccKJ5gfE.s 			page 115


 4949 07ea 00       		.byte	0
 4950 07eb 0A       		.uleb128 0xa
 4951 07ec 04       		.byte	0x4
 4952 07ed B0070000 		.4byte	0x7b0
 4953 07f1 0A       		.uleb128 0xa
 4954 07f2 04       		.byte	0x4
 4955 07f3 A4070000 		.4byte	0x7a4
 4956 07f7 19       		.uleb128 0x19
 4957 07f8 55210000 		.4byte	.LASF108
 4958 07fc 0E       		.byte	0xe
 4959 07fd 08       		.byte	0x8
 4960 07fe 3F01     		.2byte	0x13f
 4961 0800 32080000 		.4byte	0x832
 4962 0804 18       		.uleb128 0x18
 4963 0805 B0110000 		.4byte	.LASF109
 4964 0809 08       		.byte	0x8
 4965 080a 4001     		.2byte	0x140
 4966 080c 32080000 		.4byte	0x832
 4967 0810 02       		.byte	0x2
 4968 0811 23       		.byte	0x23
 4969 0812 00       		.uleb128 0
 4970 0813 18       		.uleb128 0x18
 4971 0814 D8090000 		.4byte	.LASF110
 4972 0818 08       		.byte	0x8
 4973 0819 4101     		.2byte	0x141
 4974 081b 32080000 		.4byte	0x832
 4975 081f 02       		.byte	0x2
 4976 0820 23       		.byte	0x23
 4977 0821 06       		.uleb128 0x6
 4978 0822 18       		.uleb128 0x18
 4979 0823 11030000 		.4byte	.LASF111
 4980 0827 08       		.byte	0x8
 4981 0828 4201     		.2byte	0x142
 4982 082a 6A000000 		.4byte	0x6a
 4983 082e 02       		.byte	0x2
 4984 082f 23       		.byte	0x23
 4985 0830 0C       		.uleb128 0xc
 4986 0831 00       		.byte	0
 4987 0832 07       		.uleb128 0x7
 4988 0833 6A000000 		.4byte	0x6a
 4989 0837 42080000 		.4byte	0x842
 4990 083b 08       		.uleb128 0x8
 4991 083c AA000000 		.4byte	0xaa
 4992 0840 02       		.byte	0x2
 4993 0841 00       		.byte	0
 4994 0842 1A       		.uleb128 0x1a
 4995 0843 D0       		.byte	0xd0
 4996 0844 08       		.byte	0x8
 4997 0845 8002     		.2byte	0x280
 4998 0847 72090000 		.4byte	0x972
 4999 084b 18       		.uleb128 0x18
 5000 084c F4050000 		.4byte	.LASF112
 5001 0850 08       		.byte	0x8
 5002 0851 8202     		.2byte	0x282
 5003 0853 AA000000 		.4byte	0xaa
 5004 0857 02       		.byte	0x2
 5005 0858 23       		.byte	0x23
ARM GAS  C:\Users\EBANO_~1\AppData\Local\Temp\ccKJ5gfE.s 			page 116


 5006 0859 00       		.uleb128 0
 5007 085a 18       		.uleb128 0x18
 5008 085b 85110000 		.4byte	.LASF113
 5009 085f 08       		.byte	0x8
 5010 0860 8302     		.2byte	0x283
 5011 0862 01070000 		.4byte	0x701
 5012 0866 02       		.byte	0x2
 5013 0867 23       		.byte	0x23
 5014 0868 04       		.uleb128 0x4
 5015 0869 18       		.uleb128 0x18
 5016 086a 36130000 		.4byte	.LASF114
 5017 086e 08       		.byte	0x8
 5018 086f 8402     		.2byte	0x284
 5019 0871 72090000 		.4byte	0x972
 5020 0875 02       		.byte	0x2
 5021 0876 23       		.byte	0x23
 5022 0877 08       		.uleb128 0x8
 5023 0878 18       		.uleb128 0x18
 5024 0879 4A0B0000 		.4byte	.LASF115
 5025 087d 08       		.byte	0x8
 5026 087e 8502     		.2byte	0x285
 5027 0880 A7020000 		.4byte	0x2a7
 5028 0884 02       		.byte	0x2
 5029 0885 23       		.byte	0x23
 5030 0886 24       		.uleb128 0x24
 5031 0887 18       		.uleb128 0x18
 5032 0888 331C0000 		.4byte	.LASF116
 5033 088c 08       		.byte	0x8
 5034 088d 8602     		.2byte	0x286
 5035 088f A3000000 		.4byte	0xa3
 5036 0893 02       		.byte	0x2
 5037 0894 23       		.byte	0x23
 5038 0895 48       		.uleb128 0x48
 5039 0896 18       		.uleb128 0x18
 5040 0897 A1140000 		.4byte	.LASF117
 5041 089b 08       		.byte	0x8
 5042 089c 8702     		.2byte	0x287
 5043 089e 9C000000 		.4byte	0x9c
 5044 08a2 02       		.byte	0x2
 5045 08a3 23       		.byte	0x23
 5046 08a4 50       		.uleb128 0x50
 5047 08a5 18       		.uleb128 0x18
 5048 08a6 8B200000 		.4byte	.LASF118
 5049 08aa 08       		.byte	0x8
 5050 08ab 8802     		.2byte	0x288
 5051 08ad F7070000 		.4byte	0x7f7
 5052 08b1 02       		.byte	0x2
 5053 08b2 23       		.byte	0x23
 5054 08b3 58       		.uleb128 0x58
 5055 08b4 18       		.uleb128 0x18
 5056 08b5 0F190000 		.4byte	.LASF119
 5057 08b9 08       		.byte	0x8
 5058 08ba 8902     		.2byte	0x289
 5059 08bc 11020000 		.4byte	0x211
 5060 08c0 02       		.byte	0x2
 5061 08c1 23       		.byte	0x23
 5062 08c2 68       		.uleb128 0x68
ARM GAS  C:\Users\EBANO_~1\AppData\Local\Temp\ccKJ5gfE.s 			page 117


 5063 08c3 18       		.uleb128 0x18
 5064 08c4 D2040000 		.4byte	.LASF120
 5065 08c8 08       		.byte	0x8
 5066 08c9 8A02     		.2byte	0x28a
 5067 08cb 11020000 		.4byte	0x211
 5068 08cf 02       		.byte	0x2
 5069 08d0 23       		.byte	0x23
 5070 08d1 70       		.uleb128 0x70
 5071 08d2 18       		.uleb128 0x18
 5072 08d3 00140000 		.4byte	.LASF121
 5073 08d7 08       		.byte	0x8
 5074 08d8 8B02     		.2byte	0x28b
 5075 08da 11020000 		.4byte	0x211
 5076 08de 02       		.byte	0x2
 5077 08df 23       		.byte	0x23
 5078 08e0 78       		.uleb128 0x78
 5079 08e1 18       		.uleb128 0x18
 5080 08e2 F1120000 		.4byte	.LASF122
 5081 08e6 08       		.byte	0x8
 5082 08e7 8C02     		.2byte	0x28c
 5083 08e9 82090000 		.4byte	0x982
 5084 08ed 03       		.byte	0x3
 5085 08ee 23       		.byte	0x23
 5086 08ef 8001     		.uleb128 0x80
 5087 08f1 18       		.uleb128 0x18
 5088 08f2 CE0E0000 		.4byte	.LASF123
 5089 08f6 08       		.byte	0x8
 5090 08f7 8D02     		.2byte	0x28d
 5091 08f9 92090000 		.4byte	0x992
 5092 08fd 03       		.byte	0x3
 5093 08fe 23       		.byte	0x23
 5094 08ff 8801     		.uleb128 0x88
 5095 0901 18       		.uleb128 0x18
 5096 0902 BD170000 		.4byte	.LASF124
 5097 0906 08       		.byte	0x8
 5098 0907 8E02     		.2byte	0x28e
 5099 0909 A3000000 		.4byte	0xa3
 5100 090d 03       		.byte	0x3
 5101 090e 23       		.byte	0x23
 5102 090f A001     		.uleb128 0xa0
 5103 0911 18       		.uleb128 0x18
 5104 0912 150A0000 		.4byte	.LASF125
 5105 0916 08       		.byte	0x8
 5106 0917 8F02     		.2byte	0x28f
 5107 0919 11020000 		.4byte	0x211
 5108 091d 03       		.byte	0x3
 5109 091e 23       		.byte	0x23
 5110 091f A401     		.uleb128 0xa4
 5111 0921 18       		.uleb128 0x18
 5112 0922 E00C0000 		.4byte	.LASF126
 5113 0926 08       		.byte	0x8
 5114 0927 9002     		.2byte	0x290
 5115 0929 11020000 		.4byte	0x211
 5116 092d 03       		.byte	0x3
 5117 092e 23       		.byte	0x23
 5118 092f AC01     		.uleb128 0xac
 5119 0931 18       		.uleb128 0x18
ARM GAS  C:\Users\EBANO_~1\AppData\Local\Temp\ccKJ5gfE.s 			page 118


 5120 0932 8E070000 		.4byte	.LASF127
 5121 0936 08       		.byte	0x8
 5122 0937 9102     		.2byte	0x291
 5123 0939 11020000 		.4byte	0x211
 5124 093d 03       		.byte	0x3
 5125 093e 23       		.byte	0x23
 5126 093f B401     		.uleb128 0xb4
 5127 0941 18       		.uleb128 0x18
 5128 0942 9C100000 		.4byte	.LASF128
 5129 0946 08       		.byte	0x8
 5130 0947 9202     		.2byte	0x292
 5131 0949 11020000 		.4byte	0x211
 5132 094d 03       		.byte	0x3
 5133 094e 23       		.byte	0x23
 5134 094f BC01     		.uleb128 0xbc
 5135 0951 18       		.uleb128 0x18
 5136 0952 60130000 		.4byte	.LASF129
 5137 0956 08       		.byte	0x8
 5138 0957 9302     		.2byte	0x293
 5139 0959 11020000 		.4byte	0x211
 5140 095d 03       		.byte	0x3
 5141 095e 23       		.byte	0x23
 5142 095f C401     		.uleb128 0xc4
 5143 0961 18       		.uleb128 0x18
 5144 0962 151A0000 		.4byte	.LASF130
 5145 0966 08       		.byte	0x8
 5146 0967 9402     		.2byte	0x294
 5147 0969 A3000000 		.4byte	0xa3
 5148 096d 03       		.byte	0x3
 5149 096e 23       		.byte	0x23
 5150 096f CC01     		.uleb128 0xcc
 5151 0971 00       		.byte	0
 5152 0972 07       		.uleb128 0x7
 5153 0973 07070000 		.4byte	0x707
 5154 0977 82090000 		.4byte	0x982
 5155 097b 08       		.uleb128 0x8
 5156 097c AA000000 		.4byte	0xaa
 5157 0980 19       		.byte	0x19
 5158 0981 00       		.byte	0
 5159 0982 07       		.uleb128 0x7
 5160 0983 07070000 		.4byte	0x707
 5161 0987 92090000 		.4byte	0x992
 5162 098b 08       		.uleb128 0x8
 5163 098c AA000000 		.4byte	0xaa
 5164 0990 07       		.byte	0x7
 5165 0991 00       		.byte	0
 5166 0992 07       		.uleb128 0x7
 5167 0993 07070000 		.4byte	0x707
 5168 0997 A2090000 		.4byte	0x9a2
 5169 099b 08       		.uleb128 0x8
 5170 099c AA000000 		.4byte	0xaa
 5171 09a0 17       		.byte	0x17
 5172 09a1 00       		.byte	0
 5173 09a2 1A       		.uleb128 0x1a
 5174 09a3 F0       		.byte	0xf0
 5175 09a4 08       		.byte	0x8
 5176 09a5 9902     		.2byte	0x299
ARM GAS  C:\Users\EBANO_~1\AppData\Local\Temp\ccKJ5gfE.s 			page 119


 5177 09a7 CA090000 		.4byte	0x9ca
 5178 09ab 18       		.uleb128 0x18
 5179 09ac 9A140000 		.4byte	.LASF131
 5180 09b0 08       		.byte	0x8
 5181 09b1 9C02     		.2byte	0x29c
 5182 09b3 CA090000 		.4byte	0x9ca
 5183 09b7 02       		.byte	0x2
 5184 09b8 23       		.byte	0x23
 5185 09b9 00       		.uleb128 0
 5186 09ba 18       		.uleb128 0x18
 5187 09bb AC0A0000 		.4byte	.LASF132
 5188 09bf 08       		.byte	0x8
 5189 09c0 9D02     		.2byte	0x29d
 5190 09c2 DA090000 		.4byte	0x9da
 5191 09c6 02       		.byte	0x2
 5192 09c7 23       		.byte	0x23
 5193 09c8 78       		.uleb128 0x78
 5194 09c9 00       		.byte	0
 5195 09ca 07       		.uleb128 0x7
 5196 09cb 19040000 		.4byte	0x419
 5197 09cf DA090000 		.4byte	0x9da
 5198 09d3 08       		.uleb128 0x8
 5199 09d4 AA000000 		.4byte	0xaa
 5200 09d8 1D       		.byte	0x1d
 5201 09d9 00       		.byte	0
 5202 09da 07       		.uleb128 0x7
 5203 09db AA000000 		.4byte	0xaa
 5204 09df EA090000 		.4byte	0x9ea
 5205 09e3 08       		.uleb128 0x8
 5206 09e4 AA000000 		.4byte	0xaa
 5207 09e8 1D       		.byte	0x1d
 5208 09e9 00       		.byte	0
 5209 09ea 1B       		.uleb128 0x1b
 5210 09eb F0       		.byte	0xf0
 5211 09ec 08       		.byte	0x8
 5212 09ed 7E02     		.2byte	0x27e
 5213 09ef 0C0A0000 		.4byte	0xa0c
 5214 09f3 1C       		.uleb128 0x1c
 5215 09f4 73040000 		.4byte	.LASF81
 5216 09f8 08       		.byte	0x8
 5217 09f9 9502     		.2byte	0x295
 5218 09fb 42080000 		.4byte	0x842
 5219 09ff 1C       		.uleb128 0x1c
 5220 0a00 2B020000 		.4byte	.LASF133
 5221 0a04 08       		.byte	0x8
 5222 0a05 9E02     		.2byte	0x29e
 5223 0a07 A2090000 		.4byte	0x9a2
 5224 0a0b 00       		.byte	0
 5225 0a0c 07       		.uleb128 0x7
 5226 0a0d 07070000 		.4byte	0x707
 5227 0a11 1C0A0000 		.4byte	0xa1c
 5228 0a15 08       		.uleb128 0x8
 5229 0a16 AA000000 		.4byte	0xaa
 5230 0a1a 18       		.byte	0x18
 5231 0a1b 00       		.byte	0
 5232 0a1c 0B       		.uleb128 0xb
 5233 0a1d 24190000 		.4byte	.LASF135
ARM GAS  C:\Users\EBANO_~1\AppData\Local\Temp\ccKJ5gfE.s 			page 120


 5234 0a21 01       		.byte	0x1
 5235 0a22 0A       		.uleb128 0xa
 5236 0a23 04       		.byte	0x4
 5237 0a24 1C0A0000 		.4byte	0xa1c
 5238 0a28 1D       		.uleb128 0x1d
 5239 0a29 01       		.byte	0x1
 5240 0a2a 340A0000 		.4byte	0xa34
 5241 0a2e 16       		.uleb128 0x16
 5242 0a2f 98050000 		.4byte	0x598
 5243 0a33 00       		.byte	0
 5244 0a34 0A       		.uleb128 0xa
 5245 0a35 04       		.byte	0x4
 5246 0a36 280A0000 		.4byte	0xa28
 5247 0a3a 0A       		.uleb128 0xa
 5248 0a3b 04       		.byte	0x4
 5249 0a3c 91020000 		.4byte	0x291
 5250 0a40 1D       		.uleb128 0x1d
 5251 0a41 01       		.byte	0x1
 5252 0a42 4C0A0000 		.4byte	0xa4c
 5253 0a46 16       		.uleb128 0x16
 5254 0a47 A3000000 		.4byte	0xa3
 5255 0a4b 00       		.byte	0
 5256 0a4c 0A       		.uleb128 0xa
 5257 0a4d 04       		.byte	0x4
 5258 0a4e 520A0000 		.4byte	0xa52
 5259 0a52 0A       		.uleb128 0xa
 5260 0a53 04       		.byte	0x4
 5261 0a54 400A0000 		.4byte	0xa40
 5262 0a58 07       		.uleb128 0x7
 5263 0a59 A4070000 		.4byte	0x7a4
 5264 0a5d 680A0000 		.4byte	0xa68
 5265 0a61 08       		.uleb128 0x8
 5266 0a62 AA000000 		.4byte	0xaa
 5267 0a66 02       		.byte	0x2
 5268 0a67 00       		.byte	0
 5269 0a68 1E       		.uleb128 0x1e
 5270 0a69 CD180000 		.4byte	.LASF136
 5271 0a6d 08       		.byte	0x8
 5272 0a6e 2E03     		.2byte	0x32e
 5273 0a70 98050000 		.4byte	0x598
 5274 0a74 01       		.byte	0x1
 5275 0a75 01       		.byte	0x1
 5276 0a76 1E       		.uleb128 0x1e
 5277 0a77 011D0000 		.4byte	.LASF137
 5278 0a7b 08       		.byte	0x8
 5279 0a7c 2F03     		.2byte	0x32f
 5280 0a7e 9E050000 		.4byte	0x59e
 5281 0a82 01       		.byte	0x1
 5282 0a83 01       		.byte	0x1
 5283 0a84 0A       		.uleb128 0xa
 5284 0a85 04       		.byte	0x4
 5285 0a86 BC000000 		.4byte	0xbc
 5286 0a8a 06       		.uleb128 0x6
 5287 0a8b 48150000 		.4byte	.LASF138
 5288 0a8f 09       		.byte	0x9
 5289 0a90 63       		.byte	0x63
 5290 0a91 01070000 		.4byte	0x701
ARM GAS  C:\Users\EBANO_~1\AppData\Local\Temp\ccKJ5gfE.s 			page 121


 5291 0a95 01       		.byte	0x1
 5292 0a96 01       		.byte	0x1
 5293 0a97 03       		.uleb128 0x3
 5294 0a98 371B0000 		.4byte	.LASF139
 5295 0a9c 0A       		.byte	0xa
 5296 0a9d 3D       		.byte	0x3d
 5297 0a9e ED000000 		.4byte	0xed
 5298 0aa2 11       		.uleb128 0x11
 5299 0aa3 1D0B0000 		.4byte	.LASF140
 5300 0aa7 04       		.byte	0x4
 5301 0aa8 0A       		.byte	0xa
 5302 0aa9 5F       		.byte	0x5f
 5303 0aaa E70A0000 		.4byte	0xae7
 5304 0aae 12       		.uleb128 0x12
 5305 0aaf 52667500 		.ascii	"Rfu\000"
 5306 0ab3 0A       		.byte	0xa
 5307 0ab4 61       		.byte	0x61
 5308 0ab5 BC000000 		.4byte	0xbc
 5309 0ab9 02       		.byte	0x2
 5310 0aba 23       		.byte	0x23
 5311 0abb 00       		.uleb128 0
 5312 0abc 10       		.uleb128 0x10
 5313 0abd 6F000000 		.4byte	.LASF141
 5314 0ac1 0A       		.byte	0xa
 5315 0ac2 62       		.byte	0x62
 5316 0ac3 BC000000 		.4byte	0xbc
 5317 0ac7 02       		.byte	0x2
 5318 0ac8 23       		.byte	0x23
 5319 0ac9 01       		.uleb128 0x1
 5320 0aca 10       		.uleb128 0x10
 5321 0acb BE020000 		.4byte	.LASF142
 5322 0acf 0A       		.byte	0xa
 5323 0ad0 63       		.byte	0x63
 5324 0ad1 BC000000 		.4byte	0xbc
 5325 0ad5 02       		.byte	0x2
 5326 0ad6 23       		.byte	0x23
 5327 0ad7 02       		.uleb128 0x2
 5328 0ad8 10       		.uleb128 0x10
 5329 0ad9 DF1C0000 		.4byte	.LASF143
 5330 0add 0A       		.byte	0xa
 5331 0ade 64       		.byte	0x64
 5332 0adf BC000000 		.4byte	0xbc
 5333 0ae3 02       		.byte	0x2
 5334 0ae4 23       		.byte	0x23
 5335 0ae5 03       		.uleb128 0x3
 5336 0ae6 00       		.byte	0
 5337 0ae7 1F       		.uleb128 0x1f
 5338 0ae8 310B0000 		.4byte	.LASF205
 5339 0aec 04       		.byte	0x4
 5340 0aed 0A       		.byte	0xa
 5341 0aee 5D       		.byte	0x5d
 5342 0aef 0A0B0000 		.4byte	0xb0a
 5343 0af3 0E       		.uleb128 0xe
 5344 0af4 66110000 		.4byte	.LASF144
 5345 0af8 0A       		.byte	0xa
 5346 0af9 65       		.byte	0x65
 5347 0afa A20A0000 		.4byte	0xaa2
ARM GAS  C:\Users\EBANO_~1\AppData\Local\Temp\ccKJ5gfE.s 			page 122


 5348 0afe 0E       		.uleb128 0xe
 5349 0aff 90200000 		.4byte	.LASF145
 5350 0b03 0A       		.byte	0xa
 5351 0b04 66       		.byte	0x66
 5352 0b05 ED000000 		.4byte	0xed
 5353 0b09 00       		.byte	0
 5354 0b0a 03       		.uleb128 0x3
 5355 0b0b 270B0000 		.4byte	.LASF146
 5356 0b0f 0A       		.byte	0xa
 5357 0b10 67       		.byte	0x67
 5358 0b11 E70A0000 		.4byte	0xae7
 5359 0b15 02       		.uleb128 0x2
 5360 0b16 01       		.byte	0x1
 5361 0b17 02       		.byte	0x2
 5362 0b18 CD000000 		.4byte	.LASF147
 5363 0b1c 19       		.uleb128 0x19
 5364 0b1d AC0B0000 		.4byte	.LASF148
 5365 0b21 10       		.byte	0x10
 5366 0b22 0B       		.byte	0xb
 5367 0b23 D301     		.2byte	0x1d3
 5368 0b25 750B0000 		.4byte	0xb75
 5369 0b29 18       		.uleb128 0x18
 5370 0b2a 8E020000 		.4byte	.LASF149
 5371 0b2e 0B       		.byte	0xb
 5372 0b2f D801     		.2byte	0x1d8
 5373 0b31 D7000000 		.4byte	0xd7
 5374 0b35 02       		.byte	0x2
 5375 0b36 23       		.byte	0x23
 5376 0b37 00       		.uleb128 0
 5377 0b38 18       		.uleb128 0x18
 5378 0b39 2E030000 		.4byte	.LASF150
 5379 0b3d 0B       		.byte	0xb
 5380 0b3e DC01     		.2byte	0x1dc
 5381 0b40 B1000000 		.4byte	0xb1
 5382 0b44 02       		.byte	0x2
 5383 0b45 23       		.byte	0x23
 5384 0b46 02       		.uleb128 0x2
 5385 0b47 18       		.uleb128 0x18
 5386 0b48 421C0000 		.4byte	.LASF151
 5387 0b4c 0B       		.byte	0xb
 5388 0b4d E001     		.2byte	0x1e0
 5389 0b4f 970A0000 		.4byte	0xa97
 5390 0b53 02       		.byte	0x2
 5391 0b54 23       		.byte	0x23
 5392 0b55 04       		.uleb128 0x4
 5393 0b56 18       		.uleb128 0x18
 5394 0b57 16050000 		.4byte	.LASF152
 5395 0b5b 0B       		.byte	0xb
 5396 0b5c E401     		.2byte	0x1e4
 5397 0b5e 970A0000 		.4byte	0xa97
 5398 0b62 02       		.byte	0x2
 5399 0b63 23       		.byte	0x23
 5400 0b64 08       		.uleb128 0x8
 5401 0b65 18       		.uleb128 0x18
 5402 0b66 5F070000 		.4byte	.LASF153
 5403 0b6a 0B       		.byte	0xb
 5404 0b6b E801     		.2byte	0x1e8
ARM GAS  C:\Users\EBANO_~1\AppData\Local\Temp\ccKJ5gfE.s 			page 123


 5405 0b6d 970A0000 		.4byte	0xa97
 5406 0b71 02       		.byte	0x2
 5407 0b72 23       		.byte	0x23
 5408 0b73 0C       		.uleb128 0xc
 5409 0b74 00       		.byte	0
 5410 0b75 0C       		.uleb128 0xc
 5411 0b76 F6020000 		.4byte	.LASF154
 5412 0b7a 0B       		.byte	0xb
 5413 0b7b E901     		.2byte	0x1e9
 5414 0b7d 1C0B0000 		.4byte	0xb1c
 5415 0b81 06       		.uleb128 0x6
 5416 0b82 C61B0000 		.4byte	.LASF155
 5417 0b86 0C       		.byte	0xc
 5418 0b87 9A       		.byte	0x9a
 5419 0b88 7C000000 		.4byte	0x7c
 5420 0b8c 01       		.byte	0x1
 5421 0b8d 01       		.byte	0x1
 5422 0b8e 06       		.uleb128 0x6
 5423 0b8f 3E040000 		.4byte	.LASF156
 5424 0b93 0C       		.byte	0xc
 5425 0b94 9B       		.byte	0x9b
 5426 0b95 A3000000 		.4byte	0xa3
 5427 0b99 01       		.byte	0x1
 5428 0b9a 01       		.byte	0x1
 5429 0b9b 07       		.uleb128 0x7
 5430 0b9c 01070000 		.4byte	0x701
 5431 0ba0 AB0B0000 		.4byte	0xbab
 5432 0ba4 08       		.uleb128 0x8
 5433 0ba5 AA000000 		.4byte	0xaa
 5434 0ba9 01       		.byte	0x1
 5435 0baa 00       		.byte	0
 5436 0bab 06       		.uleb128 0x6
 5437 0bac 2F0F0000 		.4byte	.LASF157
 5438 0bb0 0C       		.byte	0xc
 5439 0bb1 9E       		.byte	0x9e
 5440 0bb2 9B0B0000 		.4byte	0xb9b
 5441 0bb6 01       		.byte	0x1
 5442 0bb7 01       		.byte	0x1
 5443 0bb8 20       		.uleb128 0x20
 5444 0bb9 07       		.byte	0x7
 5445 0bba 01       		.byte	0x1
 5446 0bbb 46000000 		.4byte	0x46
 5447 0bbf 0D       		.byte	0xd
 5448 0bc0 21       		.byte	0x21
 5449 0bc1 D20B0000 		.4byte	0xbd2
 5450 0bc5 21       		.uleb128 0x21
 5451 0bc6 F90C0000 		.4byte	.LASF158
 5452 0bca 00       		.byte	0
 5453 0bcb 21       		.uleb128 0x21
 5454 0bcc E31B0000 		.4byte	.LASF159
 5455 0bd0 01       		.byte	0x1
 5456 0bd1 00       		.byte	0
 5457 0bd2 03       		.uleb128 0x3
 5458 0bd3 8D0D0000 		.4byte	.LASF160
 5459 0bd7 0D       		.byte	0xd
 5460 0bd8 24       		.byte	0x24
 5461 0bd9 B80B0000 		.4byte	0xbb8
ARM GAS  C:\Users\EBANO_~1\AppData\Local\Temp\ccKJ5gfE.s 			page 124


 5462 0bdd 20       		.uleb128 0x20
 5463 0bde 07       		.byte	0x7
 5464 0bdf 01       		.byte	0x1
 5465 0be0 46000000 		.4byte	0x46
 5466 0be4 0D       		.byte	0xd
 5467 0be5 2A       		.byte	0x2a
 5468 0be6 030C0000 		.4byte	0xc03
 5469 0bea 21       		.uleb128 0x21
 5470 0beb 26030000 		.4byte	.LASF161
 5471 0bef 00       		.byte	0
 5472 0bf0 21       		.uleb128 0x21
 5473 0bf1 7F0F0000 		.4byte	.LASF162
 5474 0bf5 01       		.byte	0x1
 5475 0bf6 21       		.uleb128 0x21
 5476 0bf7 D21A0000 		.4byte	.LASF163
 5477 0bfb 02       		.byte	0x2
 5478 0bfc 21       		.uleb128 0x21
 5479 0bfd 14160000 		.4byte	.LASF164
 5480 0c01 03       		.byte	0x3
 5481 0c02 00       		.byte	0
 5482 0c03 03       		.uleb128 0x3
 5483 0c04 BB100000 		.4byte	.LASF165
 5484 0c08 0D       		.byte	0xd
 5485 0c09 2F       		.byte	0x2f
 5486 0c0a DD0B0000 		.4byte	0xbdd
 5487 0c0e 0F       		.uleb128 0xf
 5488 0c0f 1C       		.byte	0x1c
 5489 0c10 0D       		.byte	0xd
 5490 0c11 34       		.byte	0x34
 5491 0c12 790C0000 		.4byte	0xc79
 5492 0c16 10       		.uleb128 0x10
 5493 0c17 E2080000 		.4byte	.LASF166
 5494 0c1b 0D       		.byte	0xd
 5495 0c1c 39       		.byte	0x39
 5496 0c1d E8030000 		.4byte	0x3e8
 5497 0c21 02       		.byte	0x2
 5498 0c22 23       		.byte	0x23
 5499 0c23 00       		.uleb128 0
 5500 0c24 10       		.uleb128 0x10
 5501 0c25 84020000 		.4byte	.LASF167
 5502 0c29 0D       		.byte	0xd
 5503 0c2a 3D       		.byte	0x3d
 5504 0c2b E8030000 		.4byte	0x3e8
 5505 0c2f 02       		.byte	0x2
 5506 0c30 23       		.byte	0x23
 5507 0c31 04       		.uleb128 0x4
 5508 0c32 10       		.uleb128 0x10
 5509 0c33 900A0000 		.4byte	.LASF168
 5510 0c37 0D       		.byte	0xd
 5511 0c38 48       		.byte	0x48
 5512 0c39 940C0000 		.4byte	0xc94
 5513 0c3d 02       		.byte	0x2
 5514 0c3e 23       		.byte	0x23
 5515 0c3f 08       		.uleb128 0x8
 5516 0c40 10       		.uleb128 0x10
 5517 0c41 55020000 		.4byte	.LASF169
 5518 0c45 0D       		.byte	0xd
ARM GAS  C:\Users\EBANO_~1\AppData\Local\Temp\ccKJ5gfE.s 			page 125


 5519 0c46 4C       		.byte	0x4c
 5520 0c47 E8030000 		.4byte	0x3e8
 5521 0c4b 02       		.byte	0x2
 5522 0c4c 23       		.byte	0x23
 5523 0c4d 0C       		.uleb128 0xc
 5524 0c4e 10       		.uleb128 0x10
 5525 0c4f 41010000 		.4byte	.LASF170
 5526 0c53 0D       		.byte	0xd
 5527 0c54 50       		.byte	0x50
 5528 0c55 E8030000 		.4byte	0x3e8
 5529 0c59 02       		.byte	0x2
 5530 0c5a 23       		.byte	0x23
 5531 0c5b 10       		.uleb128 0x10
 5532 0c5c 10       		.uleb128 0x10
 5533 0c5d 930E0000 		.4byte	.LASF171
 5534 0c61 0D       		.byte	0xd
 5535 0c62 56       		.byte	0x56
 5536 0c63 A60C0000 		.4byte	0xca6
 5537 0c67 02       		.byte	0x2
 5538 0c68 23       		.byte	0x23
 5539 0c69 14       		.uleb128 0x14
 5540 0c6a 10       		.uleb128 0x10
 5541 0c6b DC1E0000 		.4byte	.LASF172
 5542 0c6f 0D       		.byte	0xd
 5543 0c70 5D       		.byte	0x5d
 5544 0c71 B80C0000 		.4byte	0xcb8
 5545 0c75 02       		.byte	0x2
 5546 0c76 23       		.byte	0x23
 5547 0c77 18       		.uleb128 0x18
 5548 0c78 00       		.byte	0
 5549 0c79 1D       		.uleb128 0x1d
 5550 0c7a 01       		.byte	0x1
 5551 0c7b 940C0000 		.4byte	0xc94
 5552 0c7f 16       		.uleb128 0x16
 5553 0c80 840A0000 		.4byte	0xa84
 5554 0c84 16       		.uleb128 0x16
 5555 0c85 D7000000 		.4byte	0xd7
 5556 0c89 16       		.uleb128 0x16
 5557 0c8a CC000000 		.4byte	0xcc
 5558 0c8e 16       		.uleb128 0x16
 5559 0c8f B1000000 		.4byte	0xb1
 5560 0c93 00       		.byte	0
 5561 0c94 0A       		.uleb128 0xa
 5562 0c95 04       		.byte	0x4
 5563 0c96 790C0000 		.4byte	0xc79
 5564 0c9a 1D       		.uleb128 0x1d
 5565 0c9b 01       		.byte	0x1
 5566 0c9c A60C0000 		.4byte	0xca6
 5567 0ca0 16       		.uleb128 0x16
 5568 0ca1 BC000000 		.4byte	0xbc
 5569 0ca5 00       		.byte	0
 5570 0ca6 0A       		.uleb128 0xa
 5571 0ca7 04       		.byte	0x4
 5572 0ca8 9A0C0000 		.4byte	0xc9a
 5573 0cac 1D       		.uleb128 0x1d
 5574 0cad 01       		.byte	0x1
 5575 0cae B80C0000 		.4byte	0xcb8
ARM GAS  C:\Users\EBANO_~1\AppData\Local\Temp\ccKJ5gfE.s 			page 126


 5576 0cb2 16       		.uleb128 0x16
 5577 0cb3 150B0000 		.4byte	0xb15
 5578 0cb7 00       		.byte	0
 5579 0cb8 0A       		.uleb128 0xa
 5580 0cb9 04       		.byte	0x4
 5581 0cba AC0C0000 		.4byte	0xcac
 5582 0cbe 03       		.uleb128 0x3
 5583 0cbf 181E0000 		.4byte	.LASF173
 5584 0cc3 0D       		.byte	0xd
 5585 0cc4 5E       		.byte	0x5e
 5586 0cc5 0E0C0000 		.4byte	0xc0e
 5587 0cc9 11       		.uleb128 0x11
 5588 0cca AD030000 		.4byte	.LASF174
 5589 0cce 74       		.byte	0x74
 5590 0ccf 0D       		.byte	0xd
 5591 0cd0 63       		.byte	0x63
 5592 0cd1 7D0E0000 		.4byte	0xe7d
 5593 0cd5 10       		.uleb128 0x10
 5594 0cd6 78120000 		.4byte	.LASF175
 5595 0cda 0D       		.byte	0xd
 5596 0cdb 68       		.byte	0x68
 5597 0cdc E8030000 		.4byte	0x3e8
 5598 0ce0 02       		.byte	0x2
 5599 0ce1 23       		.byte	0x23
 5600 0ce2 00       		.uleb128 0
 5601 0ce3 10       		.uleb128 0x10
 5602 0ce4 86080000 		.4byte	.LASF176
 5603 0ce8 0D       		.byte	0xd
 5604 0ce9 6C       		.byte	0x6c
 5605 0cea E8030000 		.4byte	0x3e8
 5606 0cee 02       		.byte	0x2
 5607 0cef 23       		.byte	0x23
 5608 0cf0 04       		.uleb128 0x4
 5609 0cf1 10       		.uleb128 0x10
 5610 0cf2 551C0000 		.4byte	.LASF177
 5611 0cf6 0D       		.byte	0xd
 5612 0cf7 73       		.byte	0x73
 5613 0cf8 980E0000 		.4byte	0xe98
 5614 0cfc 02       		.byte	0x2
 5615 0cfd 23       		.byte	0x23
 5616 0cfe 08       		.uleb128 0x8
 5617 0cff 10       		.uleb128 0x10
 5618 0d00 D30F0000 		.4byte	.LASF178
 5619 0d04 0D       		.byte	0xd
 5620 0d05 79       		.byte	0x79
 5621 0d06 A40E0000 		.4byte	0xea4
 5622 0d0a 02       		.byte	0x2
 5623 0d0b 23       		.byte	0x23
 5624 0d0c 0C       		.uleb128 0xc
 5625 0d0d 10       		.uleb128 0x10
 5626 0d0e 8F080000 		.4byte	.LASF179
 5627 0d12 0D       		.byte	0xd
 5628 0d13 7F       		.byte	0x7f
 5629 0d14 B60E0000 		.4byte	0xeb6
 5630 0d18 02       		.byte	0x2
 5631 0d19 23       		.byte	0x23
 5632 0d1a 10       		.uleb128 0x10
ARM GAS  C:\Users\EBANO_~1\AppData\Local\Temp\ccKJ5gfE.s 			page 127


 5633 0d1b 10       		.uleb128 0x10
 5634 0d1c 52170000 		.4byte	.LASF180
 5635 0d20 0D       		.byte	0xd
 5636 0d21 85       		.byte	0x85
 5637 0d22 C80E0000 		.4byte	0xec8
 5638 0d26 02       		.byte	0x2
 5639 0d27 23       		.byte	0x23
 5640 0d28 14       		.uleb128 0x14
 5641 0d29 10       		.uleb128 0x10
 5642 0d2a D4150000 		.4byte	.LASF181
 5643 0d2e 0D       		.byte	0xd
 5644 0d2f 90       		.byte	0x90
 5645 0d30 ED0E0000 		.4byte	0xeed
 5646 0d34 02       		.byte	0x2
 5647 0d35 23       		.byte	0x23
 5648 0d36 18       		.uleb128 0x18
 5649 0d37 10       		.uleb128 0x10
 5650 0d38 C00A0000 		.4byte	.LASF182
 5651 0d3c 0D       		.byte	0xd
 5652 0d3d 9B       		.byte	0x9b
 5653 0d3e F90E0000 		.4byte	0xef9
 5654 0d42 02       		.byte	0x2
 5655 0d43 23       		.byte	0x23
 5656 0d44 1C       		.uleb128 0x1c
 5657 0d45 10       		.uleb128 0x10
 5658 0d46 1F210000 		.4byte	.LASF183
 5659 0d4a 0D       		.byte	0xd
 5660 0d4b C3       		.byte	0xc3
 5661 0d4c 4C0F0000 		.4byte	0xf4c
 5662 0d50 02       		.byte	0x2
 5663 0d51 23       		.byte	0x23
 5664 0d52 20       		.uleb128 0x20
 5665 0d53 10       		.uleb128 0x10
 5666 0d54 F40F0000 		.4byte	.LASF184
 5667 0d58 0D       		.byte	0xd
 5668 0d59 ED       		.byte	0xed
 5669 0d5a 9A0F0000 		.4byte	0xf9a
 5670 0d5e 02       		.byte	0x2
 5671 0d5f 23       		.byte	0x23
 5672 0d60 24       		.uleb128 0x24
 5673 0d61 10       		.uleb128 0x10
 5674 0d62 92110000 		.4byte	.LASF185
 5675 0d66 0D       		.byte	0xd
 5676 0d67 F8       		.byte	0xf8
 5677 0d68 B00F0000 		.4byte	0xfb0
 5678 0d6c 02       		.byte	0x2
 5679 0d6d 23       		.byte	0x23
 5680 0d6e 28       		.uleb128 0x28
 5681 0d6f 18       		.uleb128 0x18
 5682 0d70 E0120000 		.4byte	.LASF186
 5683 0d74 0D       		.byte	0xd
 5684 0d75 0301     		.2byte	0x103
 5685 0d77 CB0F0000 		.4byte	0xfcb
 5686 0d7b 02       		.byte	0x2
 5687 0d7c 23       		.byte	0x23
 5688 0d7d 2C       		.uleb128 0x2c
 5689 0d7e 18       		.uleb128 0x18
ARM GAS  C:\Users\EBANO_~1\AppData\Local\Temp\ccKJ5gfE.s 			page 128


 5690 0d7f 9A1D0000 		.4byte	.LASF187
 5691 0d83 0D       		.byte	0xd
 5692 0d84 0B01     		.2byte	0x10b
 5693 0d86 E20F0000 		.4byte	0xfe2
 5694 0d8a 02       		.byte	0x2
 5695 0d8b 23       		.byte	0x23
 5696 0d8c 30       		.uleb128 0x30
 5697 0d8d 18       		.uleb128 0x18
 5698 0d8e 3F0D0000 		.4byte	.LASF188
 5699 0d92 0D       		.byte	0xd
 5700 0d93 0F01     		.2byte	0x10f
 5701 0d95 E8030000 		.4byte	0x3e8
 5702 0d99 02       		.byte	0x2
 5703 0d9a 23       		.byte	0x23
 5704 0d9b 34       		.uleb128 0x34
 5705 0d9c 18       		.uleb128 0x18
 5706 0d9d AD040000 		.4byte	.LASF189
 5707 0da1 0D       		.byte	0xd
 5708 0da2 1301     		.2byte	0x113
 5709 0da4 E8030000 		.4byte	0x3e8
 5710 0da8 02       		.byte	0x2
 5711 0da9 23       		.byte	0x23
 5712 0daa 38       		.uleb128 0x38
 5713 0dab 22       		.uleb128 0x22
 5714 0dac 527800   		.ascii	"Rx\000"
 5715 0daf 0D       		.byte	0xd
 5716 0db0 1901     		.2byte	0x119
 5717 0db2 C80E0000 		.4byte	0xec8
 5718 0db6 02       		.byte	0x2
 5719 0db7 23       		.byte	0x23
 5720 0db8 3C       		.uleb128 0x3c
 5721 0db9 18       		.uleb128 0x18
 5722 0dba F7090000 		.4byte	.LASF190
 5723 0dbe 0D       		.byte	0xd
 5724 0dbf 1D01     		.2byte	0x11d
 5725 0dc1 E8030000 		.4byte	0x3e8
 5726 0dc5 02       		.byte	0x2
 5727 0dc6 23       		.byte	0x23
 5728 0dc7 40       		.uleb128 0x40
 5729 0dc8 18       		.uleb128 0x18
 5730 0dc9 0F150000 		.4byte	.LASF191
 5731 0dcd 0D       		.byte	0xd
 5732 0dce 2501     		.2byte	0x125
 5733 0dd0 FE0F0000 		.4byte	0xffe
 5734 0dd4 02       		.byte	0x2
 5735 0dd5 23       		.byte	0x23
 5736 0dd6 44       		.uleb128 0x44
 5737 0dd7 18       		.uleb128 0x18
 5738 0dd8 DE1B0000 		.4byte	.LASF192
 5739 0ddc 0D       		.byte	0xd
 5740 0ddd 2B01     		.2byte	0x12b
 5741 0ddf 14100000 		.4byte	0x1014
 5742 0de3 02       		.byte	0x2
 5743 0de4 23       		.byte	0x23
 5744 0de5 48       		.uleb128 0x48
 5745 0de6 18       		.uleb128 0x18
 5746 0de7 CC040000 		.4byte	.LASF193
ARM GAS  C:\Users\EBANO_~1\AppData\Local\Temp\ccKJ5gfE.s 			page 129


 5747 0deb 0D       		.byte	0xd
 5748 0dec 3201     		.2byte	0x132
 5749 0dee 2B100000 		.4byte	0x102b
 5750 0df2 02       		.byte	0x2
 5751 0df3 23       		.byte	0x23
 5752 0df4 4C       		.uleb128 0x4c
 5753 0df5 18       		.uleb128 0x18
 5754 0df6 25050000 		.4byte	.LASF194
 5755 0dfa 0D       		.byte	0xd
 5756 0dfb 3901     		.2byte	0x139
 5757 0dfd 41100000 		.4byte	0x1041
 5758 0e01 02       		.byte	0x2
 5759 0e02 23       		.byte	0x23
 5760 0e03 50       		.uleb128 0x50
 5761 0e04 18       		.uleb128 0x18
 5762 0e05 35010000 		.4byte	.LASF195
 5763 0e09 0D       		.byte	0xd
 5764 0e0a 4101     		.2byte	0x141
 5765 0e0c 5D100000 		.4byte	0x105d
 5766 0e10 02       		.byte	0x2
 5767 0e11 23       		.byte	0x23
 5768 0e12 54       		.uleb128 0x54
 5769 0e13 18       		.uleb128 0x18
 5770 0e14 52010000 		.4byte	.LASF196
 5771 0e18 0D       		.byte	0xd
 5772 0e19 4901     		.2byte	0x149
 5773 0e1b 5D100000 		.4byte	0x105d
 5774 0e1f 02       		.byte	0x2
 5775 0e20 23       		.byte	0x23
 5776 0e21 58       		.uleb128 0x58
 5777 0e22 18       		.uleb128 0x18
 5778 0e23 1D040000 		.4byte	.LASF197
 5779 0e27 0D       		.byte	0xd
 5780 0e28 5001     		.2byte	0x150
 5781 0e2a 74100000 		.4byte	0x1074
 5782 0e2e 02       		.byte	0x2
 5783 0e2f 23       		.byte	0x23
 5784 0e30 5C       		.uleb128 0x5c
 5785 0e31 18       		.uleb128 0x18
 5786 0e32 E9150000 		.4byte	.LASF198
 5787 0e36 0D       		.byte	0xd
 5788 0e37 5801     		.2byte	0x158
 5789 0e39 B80C0000 		.4byte	0xcb8
 5790 0e3d 02       		.byte	0x2
 5791 0e3e 23       		.byte	0x23
 5792 0e3f 60       		.uleb128 0x60
 5793 0e40 18       		.uleb128 0x18
 5794 0e41 911F0000 		.4byte	.LASF199
 5795 0e45 0D       		.byte	0xd
 5796 0e46 5E01     		.2byte	0x15e
 5797 0e48 F90E0000 		.4byte	0xef9
 5798 0e4c 02       		.byte	0x2
 5799 0e4d 23       		.byte	0x23
 5800 0e4e 64       		.uleb128 0x64
 5801 0e4f 18       		.uleb128 0x18
 5802 0e50 55160000 		.4byte	.LASF200
 5803 0e54 0D       		.byte	0xd
ARM GAS  C:\Users\EBANO_~1\AppData\Local\Temp\ccKJ5gfE.s 			page 130


 5804 0e55 6201     		.2byte	0x162
 5805 0e57 E8030000 		.4byte	0x3e8
 5806 0e5b 02       		.byte	0x2
 5807 0e5c 23       		.byte	0x23
 5808 0e5d 68       		.uleb128 0x68
 5809 0e5e 18       		.uleb128 0x18
 5810 0e5f B6050000 		.4byte	.LASF201
 5811 0e63 0D       		.byte	0xd
 5812 0e64 6E01     		.2byte	0x16e
 5813 0e66 C80E0000 		.4byte	0xec8
 5814 0e6a 02       		.byte	0x2
 5815 0e6b 23       		.byte	0x23
 5816 0e6c 6C       		.uleb128 0x6c
 5817 0e6d 18       		.uleb128 0x18
 5818 0e6e 8D0C0000 		.4byte	.LASF202
 5819 0e72 0D       		.byte	0xd
 5820 0e73 7701     		.2byte	0x177
 5821 0e75 8B100000 		.4byte	0x108b
 5822 0e79 02       		.byte	0x2
 5823 0e7a 23       		.byte	0x23
 5824 0e7b 70       		.uleb128 0x70
 5825 0e7c 00       		.byte	0
 5826 0e7d 05       		.uleb128 0x5
 5827 0e7e C90C0000 		.4byte	0xcc9
 5828 0e82 15       		.uleb128 0x15
 5829 0e83 01       		.byte	0x1
 5830 0e84 ED000000 		.4byte	0xed
 5831 0e88 920E0000 		.4byte	0xe92
 5832 0e8c 16       		.uleb128 0x16
 5833 0e8d 920E0000 		.4byte	0xe92
 5834 0e91 00       		.byte	0
 5835 0e92 0A       		.uleb128 0xa
 5836 0e93 04       		.byte	0x4
 5837 0e94 BE0C0000 		.4byte	0xcbe
 5838 0e98 0A       		.uleb128 0xa
 5839 0e99 04       		.byte	0x4
 5840 0e9a 820E0000 		.4byte	0xe82
 5841 0e9e 23       		.uleb128 0x23
 5842 0e9f 01       		.byte	0x1
 5843 0ea0 030C0000 		.4byte	0xc03
 5844 0ea4 0A       		.uleb128 0xa
 5845 0ea5 04       		.byte	0x4
 5846 0ea6 9E0E0000 		.4byte	0xe9e
 5847 0eaa 1D       		.uleb128 0x1d
 5848 0eab 01       		.byte	0x1
 5849 0eac B60E0000 		.4byte	0xeb6
 5850 0eb0 16       		.uleb128 0x16
 5851 0eb1 D20B0000 		.4byte	0xbd2
 5852 0eb5 00       		.byte	0
 5853 0eb6 0A       		.uleb128 0xa
 5854 0eb7 04       		.byte	0x4
 5855 0eb8 AA0E0000 		.4byte	0xeaa
 5856 0ebc 1D       		.uleb128 0x1d
 5857 0ebd 01       		.byte	0x1
 5858 0ebe C80E0000 		.4byte	0xec8
 5859 0ec2 16       		.uleb128 0x16
 5860 0ec3 ED000000 		.4byte	0xed
ARM GAS  C:\Users\EBANO_~1\AppData\Local\Temp\ccKJ5gfE.s 			page 131


 5861 0ec7 00       		.byte	0
 5862 0ec8 0A       		.uleb128 0xa
 5863 0ec9 04       		.byte	0x4
 5864 0eca BC0E0000 		.4byte	0xebc
 5865 0ece 15       		.uleb128 0x15
 5866 0ecf 01       		.byte	0x1
 5867 0ed0 150B0000 		.4byte	0xb15
 5868 0ed4 ED0E0000 		.4byte	0xeed
 5869 0ed8 16       		.uleb128 0x16
 5870 0ed9 D20B0000 		.4byte	0xbd2
 5871 0edd 16       		.uleb128 0x16
 5872 0ede ED000000 		.4byte	0xed
 5873 0ee2 16       		.uleb128 0x16
 5874 0ee3 CC000000 		.4byte	0xcc
 5875 0ee7 16       		.uleb128 0x16
 5876 0ee8 ED000000 		.4byte	0xed
 5877 0eec 00       		.byte	0
 5878 0eed 0A       		.uleb128 0xa
 5879 0eee 04       		.byte	0x4
 5880 0eef CE0E0000 		.4byte	0xece
 5881 0ef3 23       		.uleb128 0x23
 5882 0ef4 01       		.byte	0x1
 5883 0ef5 ED000000 		.4byte	0xed
 5884 0ef9 0A       		.uleb128 0xa
 5885 0efa 04       		.byte	0x4
 5886 0efb F30E0000 		.4byte	0xef3
 5887 0eff 1D       		.uleb128 0x1d
 5888 0f00 01       		.byte	0x1
 5889 0f01 4C0F0000 		.4byte	0xf4c
 5890 0f05 16       		.uleb128 0x16
 5891 0f06 D20B0000 		.4byte	0xbd2
 5892 0f0a 16       		.uleb128 0x16
 5893 0f0b ED000000 		.4byte	0xed
 5894 0f0f 16       		.uleb128 0x16
 5895 0f10 ED000000 		.4byte	0xed
 5896 0f14 16       		.uleb128 0x16
 5897 0f15 BC000000 		.4byte	0xbc
 5898 0f19 16       		.uleb128 0x16
 5899 0f1a ED000000 		.4byte	0xed
 5900 0f1e 16       		.uleb128 0x16
 5901 0f1f D7000000 		.4byte	0xd7
 5902 0f23 16       		.uleb128 0x16
 5903 0f24 D7000000 		.4byte	0xd7
 5904 0f28 16       		.uleb128 0x16
 5905 0f29 150B0000 		.4byte	0xb15
 5906 0f2d 16       		.uleb128 0x16
 5907 0f2e BC000000 		.4byte	0xbc
 5908 0f32 16       		.uleb128 0x16
 5909 0f33 150B0000 		.4byte	0xb15
 5910 0f37 16       		.uleb128 0x16
 5911 0f38 150B0000 		.4byte	0xb15
 5912 0f3c 16       		.uleb128 0x16
 5913 0f3d BC000000 		.4byte	0xbc
 5914 0f41 16       		.uleb128 0x16
 5915 0f42 150B0000 		.4byte	0xb15
 5916 0f46 16       		.uleb128 0x16
 5917 0f47 150B0000 		.4byte	0xb15
ARM GAS  C:\Users\EBANO_~1\AppData\Local\Temp\ccKJ5gfE.s 			page 132


 5918 0f4b 00       		.byte	0
 5919 0f4c 0A       		.uleb128 0xa
 5920 0f4d 04       		.byte	0x4
 5921 0f4e FF0E0000 		.4byte	0xeff
 5922 0f52 1D       		.uleb128 0x1d
 5923 0f53 01       		.byte	0x1
 5924 0f54 9A0F0000 		.4byte	0xf9a
 5925 0f58 16       		.uleb128 0x16
 5926 0f59 D20B0000 		.4byte	0xbd2
 5927 0f5d 16       		.uleb128 0x16
 5928 0f5e B1000000 		.4byte	0xb1
 5929 0f62 16       		.uleb128 0x16
 5930 0f63 ED000000 		.4byte	0xed
 5931 0f67 16       		.uleb128 0x16
 5932 0f68 ED000000 		.4byte	0xed
 5933 0f6c 16       		.uleb128 0x16
 5934 0f6d ED000000 		.4byte	0xed
 5935 0f71 16       		.uleb128 0x16
 5936 0f72 BC000000 		.4byte	0xbc
 5937 0f76 16       		.uleb128 0x16
 5938 0f77 D7000000 		.4byte	0xd7
 5939 0f7b 16       		.uleb128 0x16
 5940 0f7c 150B0000 		.4byte	0xb15
 5941 0f80 16       		.uleb128 0x16
 5942 0f81 150B0000 		.4byte	0xb15
 5943 0f85 16       		.uleb128 0x16
 5944 0f86 150B0000 		.4byte	0xb15
 5945 0f8a 16       		.uleb128 0x16
 5946 0f8b BC000000 		.4byte	0xbc
 5947 0f8f 16       		.uleb128 0x16
 5948 0f90 150B0000 		.4byte	0xb15
 5949 0f94 16       		.uleb128 0x16
 5950 0f95 ED000000 		.4byte	0xed
 5951 0f99 00       		.byte	0
 5952 0f9a 0A       		.uleb128 0xa
 5953 0f9b 04       		.byte	0x4
 5954 0f9c 520F0000 		.4byte	0xf52
 5955 0fa0 15       		.uleb128 0x15
 5956 0fa1 01       		.byte	0x1
 5957 0fa2 150B0000 		.4byte	0xb15
 5958 0fa6 B00F0000 		.4byte	0xfb0
 5959 0faa 16       		.uleb128 0x16
 5960 0fab ED000000 		.4byte	0xed
 5961 0faf 00       		.byte	0
 5962 0fb0 0A       		.uleb128 0xa
 5963 0fb1 04       		.byte	0x4
 5964 0fb2 A00F0000 		.4byte	0xfa0
 5965 0fb6 15       		.uleb128 0x15
 5966 0fb7 01       		.byte	0x1
 5967 0fb8 ED000000 		.4byte	0xed
 5968 0fbc CB0F0000 		.4byte	0xfcb
 5969 0fc0 16       		.uleb128 0x16
 5970 0fc1 D20B0000 		.4byte	0xbd2
 5971 0fc5 16       		.uleb128 0x16
 5972 0fc6 BC000000 		.4byte	0xbc
 5973 0fca 00       		.byte	0
 5974 0fcb 0A       		.uleb128 0xa
ARM GAS  C:\Users\EBANO_~1\AppData\Local\Temp\ccKJ5gfE.s 			page 133


 5975 0fcc 04       		.byte	0x4
 5976 0fcd B60F0000 		.4byte	0xfb6
 5977 0fd1 1D       		.uleb128 0x1d
 5978 0fd2 01       		.byte	0x1
 5979 0fd3 E20F0000 		.4byte	0xfe2
 5980 0fd7 16       		.uleb128 0x16
 5981 0fd8 840A0000 		.4byte	0xa84
 5982 0fdc 16       		.uleb128 0x16
 5983 0fdd BC000000 		.4byte	0xbc
 5984 0fe1 00       		.byte	0
 5985 0fe2 0A       		.uleb128 0xa
 5986 0fe3 04       		.byte	0x4
 5987 0fe4 D10F0000 		.4byte	0xfd1
 5988 0fe8 1D       		.uleb128 0x1d
 5989 0fe9 01       		.byte	0x1
 5990 0fea FE0F0000 		.4byte	0xffe
 5991 0fee 16       		.uleb128 0x16
 5992 0fef ED000000 		.4byte	0xed
 5993 0ff3 16       		.uleb128 0x16
 5994 0ff4 B1000000 		.4byte	0xb1
 5995 0ff8 16       		.uleb128 0x16
 5996 0ff9 D7000000 		.4byte	0xd7
 5997 0ffd 00       		.byte	0
 5998 0ffe 0A       		.uleb128 0xa
 5999 0fff 04       		.byte	0x4
 6000 1000 E80F0000 		.4byte	0xfe8
 6001 1004 15       		.uleb128 0x15
 6002 1005 01       		.byte	0x1
 6003 1006 CC000000 		.4byte	0xcc
 6004 100a 14100000 		.4byte	0x1014
 6005 100e 16       		.uleb128 0x16
 6006 100f D20B0000 		.4byte	0xbd2
 6007 1013 00       		.byte	0
 6008 1014 0A       		.uleb128 0xa
 6009 1015 04       		.byte	0x4
 6010 1016 04100000 		.4byte	0x1004
 6011 101a 1D       		.uleb128 0x1d
 6012 101b 01       		.byte	0x1
 6013 101c 2B100000 		.4byte	0x102b
 6014 1020 16       		.uleb128 0x16
 6015 1021 D7000000 		.4byte	0xd7
 6016 1025 16       		.uleb128 0x16
 6017 1026 BC000000 		.4byte	0xbc
 6018 102a 00       		.byte	0
 6019 102b 0A       		.uleb128 0xa
 6020 102c 04       		.byte	0x4
 6021 102d 1A100000 		.4byte	0x101a
 6022 1031 15       		.uleb128 0x15
 6023 1032 01       		.byte	0x1
 6024 1033 BC000000 		.4byte	0xbc
 6025 1037 41100000 		.4byte	0x1041
 6026 103b 16       		.uleb128 0x16
 6027 103c D7000000 		.4byte	0xd7
 6028 1040 00       		.byte	0
 6029 1041 0A       		.uleb128 0xa
 6030 1042 04       		.byte	0x4
 6031 1043 31100000 		.4byte	0x1031
ARM GAS  C:\Users\EBANO_~1\AppData\Local\Temp\ccKJ5gfE.s 			page 134


 6032 1047 1D       		.uleb128 0x1d
 6033 1048 01       		.byte	0x1
 6034 1049 5D100000 		.4byte	0x105d
 6035 104d 16       		.uleb128 0x16
 6036 104e D7000000 		.4byte	0xd7
 6037 1052 16       		.uleb128 0x16
 6038 1053 840A0000 		.4byte	0xa84
 6039 1057 16       		.uleb128 0x16
 6040 1058 BC000000 		.4byte	0xbc
 6041 105c 00       		.byte	0
 6042 105d 0A       		.uleb128 0xa
 6043 105e 04       		.byte	0x4
 6044 105f 47100000 		.4byte	0x1047
 6045 1063 1D       		.uleb128 0x1d
 6046 1064 01       		.byte	0x1
 6047 1065 74100000 		.4byte	0x1074
 6048 1069 16       		.uleb128 0x16
 6049 106a D20B0000 		.4byte	0xbd2
 6050 106e 16       		.uleb128 0x16
 6051 106f BC000000 		.4byte	0xbc
 6052 1073 00       		.byte	0
 6053 1074 0A       		.uleb128 0xa
 6054 1075 04       		.byte	0x4
 6055 1076 63100000 		.4byte	0x1063
 6056 107a 1D       		.uleb128 0x1d
 6057 107b 01       		.byte	0x1
 6058 107c 8B100000 		.4byte	0x108b
 6059 1080 16       		.uleb128 0x16
 6060 1081 ED000000 		.4byte	0xed
 6061 1085 16       		.uleb128 0x16
 6062 1086 ED000000 		.4byte	0xed
 6063 108a 00       		.byte	0
 6064 108b 0A       		.uleb128 0xa
 6065 108c 04       		.byte	0x4
 6066 108d 7A100000 		.4byte	0x107a
 6067 1091 1E       		.uleb128 0x1e
 6068 1092 3A090000 		.4byte	.LASF203
 6069 1096 0D       		.byte	0xd
 6070 1097 8001     		.2byte	0x180
 6071 1099 7D0E0000 		.4byte	0xe7d
 6072 109d 01       		.byte	0x1
 6073 109e 01       		.byte	0x1
 6074 109f 11       		.uleb128 0x11
 6075 10a0 631F0000 		.4byte	.LASF204
 6076 10a4 01       		.byte	0x1
 6077 10a5 0E       		.byte	0xe
 6078 10a6 B4       		.byte	0xb4
 6079 10a7 CE100000 		.4byte	0x10ce
 6080 10ab 24       		.uleb128 0x24
 6081 10ac 4D696E00 		.ascii	"Min\000"
 6082 10b0 0E       		.byte	0xe
 6083 10b1 BD       		.byte	0xbd
 6084 10b2 B1000000 		.4byte	0xb1
 6085 10b6 01       		.byte	0x1
 6086 10b7 04       		.byte	0x4
 6087 10b8 04       		.byte	0x4
 6088 10b9 02       		.byte	0x2
ARM GAS  C:\Users\EBANO_~1\AppData\Local\Temp\ccKJ5gfE.s 			page 135


 6089 10ba 23       		.byte	0x23
 6090 10bb 00       		.uleb128 0
 6091 10bc 24       		.uleb128 0x24
 6092 10bd 4D617800 		.ascii	"Max\000"
 6093 10c1 0E       		.byte	0xe
 6094 10c2 C5       		.byte	0xc5
 6095 10c3 B1000000 		.4byte	0xb1
 6096 10c7 01       		.byte	0x1
 6097 10c8 04       		.byte	0x4
 6098 10c9 00       		.byte	0
 6099 10ca 02       		.byte	0x2
 6100 10cb 23       		.byte	0x23
 6101 10cc 00       		.uleb128 0
 6102 10cd 00       		.byte	0
 6103 10ce 1F       		.uleb128 0x1f
 6104 10cf 0C090000 		.4byte	.LASF206
 6105 10d3 01       		.byte	0x1
 6106 10d4 0E       		.byte	0xe
 6107 10d5 AB       		.byte	0xab
 6108 10d6 F1100000 		.4byte	0x10f1
 6109 10da 0E       		.uleb128 0xe
 6110 10db 90200000 		.4byte	.LASF145
 6111 10df 0E       		.byte	0xe
 6112 10e0 B0       		.byte	0xb0
 6113 10e1 B1000000 		.4byte	0xb1
 6114 10e5 0E       		.uleb128 0xe
 6115 10e6 66110000 		.4byte	.LASF144
 6116 10ea 0E       		.byte	0xe
 6117 10eb C6       		.byte	0xc6
 6118 10ec 9F100000 		.4byte	0x109f
 6119 10f0 00       		.byte	0
 6120 10f1 03       		.uleb128 0x3
 6121 10f2 A4070000 		.4byte	.LASF207
 6122 10f6 0E       		.byte	0xe
 6123 10f7 C7       		.byte	0xc7
 6124 10f8 CE100000 		.4byte	0x10ce
 6125 10fc 11       		.uleb128 0x11
 6126 10fd CC190000 		.4byte	.LASF208
 6127 1101 0C       		.byte	0xc
 6128 1102 0E       		.byte	0xe
 6129 1103 CC       		.byte	0xcc
 6130 1104 41110000 		.4byte	0x1141
 6131 1108 10       		.uleb128 0x10
 6132 1109 E51C0000 		.4byte	.LASF209
 6133 110d 0E       		.byte	0xe
 6134 110e D1       		.byte	0xd1
 6135 110f ED000000 		.4byte	0xed
 6136 1113 02       		.byte	0x2
 6137 1114 23       		.byte	0x23
 6138 1115 00       		.uleb128 0
 6139 1116 10       		.uleb128 0x10
 6140 1117 C8110000 		.4byte	.LASF210
 6141 111b 0E       		.byte	0xe
 6142 111c D5       		.byte	0xd5
 6143 111d ED000000 		.4byte	0xed
 6144 1121 02       		.byte	0x2
 6145 1122 23       		.byte	0x23
ARM GAS  C:\Users\EBANO_~1\AppData\Local\Temp\ccKJ5gfE.s 			page 136


 6146 1123 04       		.uleb128 0x4
 6147 1124 10       		.uleb128 0x10
 6148 1125 85050000 		.4byte	.LASF211
 6149 1129 0E       		.byte	0xe
 6150 112a D9       		.byte	0xd9
 6151 112b F1100000 		.4byte	0x10f1
 6152 112f 02       		.byte	0x2
 6153 1130 23       		.byte	0x23
 6154 1131 08       		.uleb128 0x8
 6155 1132 10       		.uleb128 0x10
 6156 1133 15090000 		.4byte	.LASF212
 6157 1137 0E       		.byte	0xe
 6158 1138 DD       		.byte	0xdd
 6159 1139 BC000000 		.4byte	0xbc
 6160 113d 02       		.byte	0x2
 6161 113e 23       		.byte	0x23
 6162 113f 09       		.uleb128 0x9
 6163 1140 00       		.byte	0
 6164 1141 03       		.uleb128 0x3
 6165 1142 00100000 		.4byte	.LASF213
 6166 1146 0E       		.byte	0xe
 6167 1147 DE       		.byte	0xde
 6168 1148 FC100000 		.4byte	0x10fc
 6169 114c 25       		.uleb128 0x25
 6170 114d 0F0C0000 		.4byte	.LASF221
 6171 1151 07       		.byte	0x7
 6172 1152 01       		.byte	0x1
 6173 1153 46000000 		.4byte	0x46
 6174 1157 0E       		.byte	0xe
 6175 1158 F6       		.byte	0xf6
 6176 1159 7C110000 		.4byte	0x117c
 6177 115d 21       		.uleb128 0x21
 6178 115e 61190000 		.4byte	.LASF214
 6179 1162 00       		.byte	0
 6180 1163 21       		.uleb128 0x21
 6181 1164 6F190000 		.4byte	.LASF215
 6182 1168 01       		.byte	0x1
 6183 1169 21       		.uleb128 0x21
 6184 116a 00000000 		.4byte	.LASF216
 6185 116e 02       		.byte	0x2
 6186 116f 21       		.uleb128 0x21
 6187 1170 FF1F0000 		.4byte	.LASF217
 6188 1174 03       		.byte	0x3
 6189 1175 21       		.uleb128 0x21
 6190 1176 720C0000 		.4byte	.LASF218
 6191 117a 04       		.byte	0x4
 6192 117b 00       		.byte	0
 6193 117c 0C       		.uleb128 0xc
 6194 117d 6F0F0000 		.4byte	.LASF219
 6195 1181 0E       		.byte	0xe
 6196 1182 0C01     		.2byte	0x10c
 6197 1184 4C110000 		.4byte	0x114c
 6198 1188 02       		.uleb128 0x2
 6199 1189 04       		.byte	0x4
 6200 118a 04       		.byte	0x4
 6201 118b AE070000 		.4byte	.LASF220
 6202 118f 0A       		.uleb128 0xa
ARM GAS  C:\Users\EBANO_~1\AppData\Local\Temp\ccKJ5gfE.s 			page 137


 6203 1190 04       		.byte	0x4
 6204 1191 41110000 		.4byte	0x1141
 6205 1195 0A       		.uleb128 0xa
 6206 1196 04       		.byte	0x4
 6207 1197 D7000000 		.4byte	0xd7
 6208 119b 26       		.uleb128 0x26
 6209 119c 54040000 		.4byte	.LASF222
 6210 11a0 07       		.byte	0x7
 6211 11a1 01       		.byte	0x1
 6212 11a2 46000000 		.4byte	0x46
 6213 11a6 0E       		.byte	0xe
 6214 11a7 2508     		.2byte	0x825
 6215 11a9 38120000 		.4byte	0x1238
 6216 11ad 21       		.uleb128 0x21
 6217 11ae 9A170000 		.4byte	.LASF223
 6218 11b2 00       		.byte	0
 6219 11b3 21       		.uleb128 0x21
 6220 11b4 10100000 		.4byte	.LASF224
 6221 11b8 01       		.byte	0x1
 6222 11b9 21       		.uleb128 0x21
 6223 11ba 96200000 		.4byte	.LASF225
 6224 11be 02       		.byte	0x2
 6225 11bf 21       		.uleb128 0x21
 6226 11c0 9F080000 		.4byte	.LASF226
 6227 11c4 03       		.byte	0x3
 6228 11c5 21       		.uleb128 0x21
 6229 11c6 B1160000 		.4byte	.LASF227
 6230 11ca 04       		.byte	0x4
 6231 11cb 21       		.uleb128 0x21
 6232 11cc EC1E0000 		.4byte	.LASF228
 6233 11d0 05       		.byte	0x5
 6234 11d1 21       		.uleb128 0x21
 6235 11d2 791E0000 		.4byte	.LASF229
 6236 11d6 06       		.byte	0x6
 6237 11d7 21       		.uleb128 0x21
 6238 11d8 C9010000 		.4byte	.LASF230
 6239 11dc 07       		.byte	0x7
 6240 11dd 21       		.uleb128 0x21
 6241 11de 43070000 		.4byte	.LASF231
 6242 11e2 08       		.byte	0x8
 6243 11e3 21       		.uleb128 0x21
 6244 11e4 4B0F0000 		.4byte	.LASF232
 6245 11e8 09       		.byte	0x9
 6246 11e9 21       		.uleb128 0x21
 6247 11ea C6200000 		.4byte	.LASF233
 6248 11ee 0A       		.byte	0xa
 6249 11ef 21       		.uleb128 0x21
 6250 11f0 7A040000 		.4byte	.LASF234
 6251 11f4 0B       		.byte	0xb
 6252 11f5 21       		.uleb128 0x21
 6253 11f6 931A0000 		.4byte	.LASF235
 6254 11fa 0C       		.byte	0xc
 6255 11fb 21       		.uleb128 0x21
 6256 11fc 13110000 		.4byte	.LASF236
 6257 1200 0D       		.byte	0xd
 6258 1201 21       		.uleb128 0x21
 6259 1202 40100000 		.4byte	.LASF237
ARM GAS  C:\Users\EBANO_~1\AppData\Local\Temp\ccKJ5gfE.s 			page 138


 6260 1206 0E       		.byte	0xe
 6261 1207 21       		.uleb128 0x21
 6262 1208 2D200000 		.4byte	.LASF238
 6263 120c 0F       		.byte	0xf
 6264 120d 21       		.uleb128 0x21
 6265 120e D61D0000 		.4byte	.LASF239
 6266 1212 10       		.byte	0x10
 6267 1213 21       		.uleb128 0x21
 6268 1214 39030000 		.4byte	.LASF240
 6269 1218 11       		.byte	0x11
 6270 1219 21       		.uleb128 0x21
 6271 121a 510A0000 		.4byte	.LASF241
 6272 121e 12       		.byte	0x12
 6273 121f 21       		.uleb128 0x21
 6274 1220 6D0D0000 		.4byte	.LASF242
 6275 1224 13       		.byte	0x13
 6276 1225 21       		.uleb128 0x21
 6277 1226 9C1E0000 		.4byte	.LASF243
 6278 122a 14       		.byte	0x14
 6279 122b 21       		.uleb128 0x21
 6280 122c AA1C0000 		.4byte	.LASF244
 6281 1230 15       		.byte	0x15
 6282 1231 21       		.uleb128 0x21
 6283 1232 8D0F0000 		.4byte	.LASF245
 6284 1236 16       		.byte	0x16
 6285 1237 00       		.byte	0
 6286 1238 0C       		.uleb128 0xc
 6287 1239 4E1E0000 		.4byte	.LASF246
 6288 123d 0E       		.byte	0xe
 6289 123e 8508     		.2byte	0x885
 6290 1240 9B110000 		.4byte	0x119b
 6291 1244 27       		.uleb128 0x27
 6292 1245 AF1F0000 		.4byte	.LASF431
 6293 1249 0E       		.byte	0xe
 6294 124a 2509     		.2byte	0x925
 6295 124c 1A010000 		.4byte	0x11a
 6296 1250 10       		.byte	0x10
 6297 1251 08       		.byte	0x8
 6298 1252 0A       		.byte	0xa
 6299 1253 0C       		.byte	0xc
 6300 1254 0D       		.byte	0xd
 6301 1255 0E       		.byte	0xe
 6302 1256 10       		.byte	0x10
 6303 1257 12       		.byte	0x12
 6304 1258 14       		.byte	0x14
 6305 1259 15       		.byte	0x15
 6306 125a 18       		.byte	0x18
 6307 125b 1A       		.byte	0x1a
 6308 125c 1B       		.byte	0x1b
 6309 125d 1D       		.byte	0x1d
 6310 125e 1E       		.byte	0x1e
 6311 125f 21       		.byte	0x21
 6312 1260 24       		.byte	0x24
 6313 1261 26       		.uleb128 0x26
 6314 1262 47080000 		.4byte	.LASF247
 6315 1266 07       		.byte	0x7
 6316 1267 01       		.byte	0x1
ARM GAS  C:\Users\EBANO_~1\AppData\Local\Temp\ccKJ5gfE.s 			page 139


 6317 1268 46000000 		.4byte	0x46
 6318 126c 0F       		.byte	0xf
 6319 126d 1202     		.2byte	0x212
 6320 126f B2130000 		.4byte	0x13b2
 6321 1273 21       		.uleb128 0x21
 6322 1274 9E0A0000 		.4byte	.LASF248
 6323 1278 00       		.byte	0
 6324 1279 21       		.uleb128 0x21
 6325 127a B20B0000 		.4byte	.LASF249
 6326 127e 01       		.byte	0x1
 6327 127f 21       		.uleb128 0x21
 6328 1280 D01B0000 		.4byte	.LASF250
 6329 1284 02       		.byte	0x2
 6330 1285 21       		.uleb128 0x21
 6331 1286 DD0F0000 		.4byte	.LASF251
 6332 128a 03       		.byte	0x3
 6333 128b 21       		.uleb128 0x21
 6334 128c A11B0000 		.4byte	.LASF252
 6335 1290 04       		.byte	0x4
 6336 1291 21       		.uleb128 0x21
 6337 1292 A3160000 		.4byte	.LASF253
 6338 1296 05       		.byte	0x5
 6339 1297 21       		.uleb128 0x21
 6340 1298 5C050000 		.4byte	.LASF254
 6341 129c 06       		.byte	0x6
 6342 129d 21       		.uleb128 0x21
 6343 129e 100E0000 		.4byte	.LASF255
 6344 12a2 07       		.byte	0x7
 6345 12a3 21       		.uleb128 0x21
 6346 12a4 2C170000 		.4byte	.LASF256
 6347 12a8 08       		.byte	0x8
 6348 12a9 21       		.uleb128 0x21
 6349 12aa AC170000 		.4byte	.LASF257
 6350 12ae 09       		.byte	0x9
 6351 12af 21       		.uleb128 0x21
 6352 12b0 97030000 		.4byte	.LASF258
 6353 12b4 0A       		.byte	0xa
 6354 12b5 21       		.uleb128 0x21
 6355 12b6 86100000 		.4byte	.LASF259
 6356 12ba 0B       		.byte	0xb
 6357 12bb 21       		.uleb128 0x21
 6358 12bc 230D0000 		.4byte	.LASF260
 6359 12c0 0C       		.byte	0xc
 6360 12c1 21       		.uleb128 0x21
 6361 12c2 E01A0000 		.4byte	.LASF261
 6362 12c6 0D       		.byte	0xd
 6363 12c7 21       		.uleb128 0x21
 6364 12c8 27130000 		.4byte	.LASF262
 6365 12cc 0E       		.byte	0xe
 6366 12cd 21       		.uleb128 0x21
 6367 12ce 040B0000 		.4byte	.LASF263
 6368 12d2 0F       		.byte	0xf
 6369 12d3 21       		.uleb128 0x21
 6370 12d4 090F0000 		.4byte	.LASF264
 6371 12d8 10       		.byte	0x10
 6372 12d9 21       		.uleb128 0x21
 6373 12da 1C0F0000 		.4byte	.LASF265
ARM GAS  C:\Users\EBANO_~1\AppData\Local\Temp\ccKJ5gfE.s 			page 140


 6374 12de 11       		.byte	0x11
 6375 12df 21       		.uleb128 0x21
 6376 12e0 38000000 		.4byte	.LASF266
 6377 12e4 12       		.byte	0x12
 6378 12e5 21       		.uleb128 0x21
 6379 12e6 4F000000 		.4byte	.LASF267
 6380 12ea 13       		.byte	0x13
 6381 12eb 21       		.uleb128 0x21
 6382 12ec 79180000 		.4byte	.LASF268
 6383 12f0 14       		.byte	0x14
 6384 12f1 21       		.uleb128 0x21
 6385 12f2 4B1A0000 		.4byte	.LASF269
 6386 12f6 15       		.byte	0x15
 6387 12f7 21       		.uleb128 0x21
 6388 12f8 E1050000 		.4byte	.LASF270
 6389 12fc 16       		.byte	0x16
 6390 12fd 21       		.uleb128 0x21
 6391 12fe 27080000 		.4byte	.LASF271
 6392 1302 17       		.byte	0x17
 6393 1303 21       		.uleb128 0x21
 6394 1304 E20E0000 		.4byte	.LASF272
 6395 1308 18       		.byte	0x18
 6396 1309 21       		.uleb128 0x21
 6397 130a CD1C0000 		.4byte	.LASF273
 6398 130e 19       		.byte	0x19
 6399 130f 21       		.uleb128 0x21
 6400 1310 28060000 		.4byte	.LASF274
 6401 1314 1A       		.byte	0x1a
 6402 1315 21       		.uleb128 0x21
 6403 1316 52150000 		.4byte	.LASF275
 6404 131a 1B       		.byte	0x1b
 6405 131b 21       		.uleb128 0x21
 6406 131c 2D1F0000 		.4byte	.LASF276
 6407 1320 1C       		.byte	0x1c
 6408 1321 21       		.uleb128 0x21
 6409 1322 49180000 		.4byte	.LASF277
 6410 1326 1D       		.byte	0x1d
 6411 1327 21       		.uleb128 0x21
 6412 1328 420E0000 		.4byte	.LASF278
 6413 132c 1E       		.byte	0x1e
 6414 132d 21       		.uleb128 0x21
 6415 132e FE180000 		.4byte	.LASF279
 6416 1332 1F       		.byte	0x1f
 6417 1333 21       		.uleb128 0x21
 6418 1334 FF150000 		.4byte	.LASF280
 6419 1338 20       		.byte	0x20
 6420 1339 21       		.uleb128 0x21
 6421 133a 270E0000 		.4byte	.LASF281
 6422 133e 21       		.byte	0x21
 6423 133f 21       		.uleb128 0x21
 6424 1340 EA170000 		.4byte	.LASF282
 6425 1344 22       		.byte	0x22
 6426 1345 21       		.uleb128 0x21
 6427 1346 FF010000 		.4byte	.LASF283
 6428 134a 23       		.byte	0x23
 6429 134b 21       		.uleb128 0x21
 6430 134c 9E020000 		.4byte	.LASF284
ARM GAS  C:\Users\EBANO_~1\AppData\Local\Temp\ccKJ5gfE.s 			page 141


 6431 1350 24       		.byte	0x24
 6432 1351 21       		.uleb128 0x21
 6433 1352 99060000 		.4byte	.LASF285
 6434 1356 25       		.byte	0x25
 6435 1357 21       		.uleb128 0x21
 6436 1358 6D110000 		.4byte	.LASF286
 6437 135c 26       		.byte	0x26
 6438 135d 21       		.uleb128 0x21
 6439 135e D30D0000 		.4byte	.LASF287
 6440 1362 27       		.byte	0x27
 6441 1363 21       		.uleb128 0x21
 6442 1364 F20B0000 		.4byte	.LASF288
 6443 1368 28       		.byte	0x28
 6444 1369 21       		.uleb128 0x21
 6445 136a 6A0E0000 		.4byte	.LASF289
 6446 136e 29       		.byte	0x29
 6447 136f 21       		.uleb128 0x21
 6448 1370 690B0000 		.4byte	.LASF290
 6449 1374 2A       		.byte	0x2a
 6450 1375 21       		.uleb128 0x21
 6451 1376 F9200000 		.4byte	.LASF291
 6452 137a 2B       		.byte	0x2b
 6453 137b 21       		.uleb128 0x21
 6454 137c 8D050000 		.4byte	.LASF292
 6455 1380 2C       		.byte	0x2c
 6456 1381 21       		.uleb128 0x21
 6457 1382 C11E0000 		.4byte	.LASF293
 6458 1386 2D       		.byte	0x2d
 6459 1387 21       		.uleb128 0x21
 6460 1388 F91A0000 		.4byte	.LASF294
 6461 138c 2E       		.byte	0x2e
 6462 138d 21       		.uleb128 0x21
 6463 138e D2170000 		.4byte	.LASF295
 6464 1392 2F       		.byte	0x2f
 6465 1393 21       		.uleb128 0x21
 6466 1394 07010000 		.4byte	.LASF296
 6467 1398 30       		.byte	0x30
 6468 1399 21       		.uleb128 0x21
 6469 139a 40110000 		.4byte	.LASF297
 6470 139e 31       		.byte	0x31
 6471 139f 21       		.uleb128 0x21
 6472 13a0 8F0B0000 		.4byte	.LASF298
 6473 13a4 32       		.byte	0x32
 6474 13a5 21       		.uleb128 0x21
 6475 13a6 DD110000 		.4byte	.LASF299
 6476 13aa 33       		.byte	0x33
 6477 13ab 21       		.uleb128 0x21
 6478 13ac 9F1D0000 		.4byte	.LASF300
 6479 13b0 34       		.byte	0x34
 6480 13b1 00       		.byte	0
 6481 13b2 0C       		.uleb128 0xc
 6482 13b3 75020000 		.4byte	.LASF301
 6483 13b7 0F       		.byte	0xf
 6484 13b8 EE02     		.2byte	0x2ee
 6485 13ba 61120000 		.4byte	0x1261
 6486 13be 26       		.uleb128 0x26
 6487 13bf 7D190000 		.4byte	.LASF302
ARM GAS  C:\Users\EBANO_~1\AppData\Local\Temp\ccKJ5gfE.s 			page 142


 6488 13c3 07       		.byte	0x7
 6489 13c4 01       		.byte	0x1
 6490 13c5 46000000 		.4byte	0x46
 6491 13c9 0F       		.byte	0xf
 6492 13ca F302     		.2byte	0x2f3
 6493 13cc E3130000 		.4byte	0x13e3
 6494 13d0 21       		.uleb128 0x21
 6495 13d1 010E0000 		.4byte	.LASF303
 6496 13d5 00       		.byte	0
 6497 13d6 21       		.uleb128 0x21
 6498 13d7 4F1D0000 		.4byte	.LASF304
 6499 13db 01       		.byte	0x1
 6500 13dc 21       		.uleb128 0x21
 6501 13dd 6B1B0000 		.4byte	.LASF305
 6502 13e1 02       		.byte	0x2
 6503 13e2 00       		.byte	0
 6504 13e3 0C       		.uleb128 0xc
 6505 13e4 E0040000 		.4byte	.LASF306
 6506 13e8 0F       		.byte	0xf
 6507 13e9 0203     		.2byte	0x302
 6508 13eb BE130000 		.4byte	0x13be
 6509 13ef 26       		.uleb128 0x26
 6510 13f0 C6150000 		.4byte	.LASF307
 6511 13f4 07       		.byte	0x7
 6512 13f5 01       		.byte	0x1
 6513 13f6 46000000 		.4byte	0x46
 6514 13fa 0F       		.byte	0xf
 6515 13fb 0403     		.2byte	0x304
 6516 13fd 0E140000 		.4byte	0x140e
 6517 1401 21       		.uleb128 0x21
 6518 1402 48140000 		.4byte	.LASF308
 6519 1406 00       		.byte	0
 6520 1407 21       		.uleb128 0x21
 6521 1408 63180000 		.4byte	.LASF309
 6522 140c 01       		.byte	0x1
 6523 140d 00       		.byte	0
 6524 140e 0C       		.uleb128 0xc
 6525 140f B2010000 		.4byte	.LASF310
 6526 1413 0F       		.byte	0xf
 6527 1414 0E03     		.2byte	0x30e
 6528 1416 EF130000 		.4byte	0x13ef
 6529 141a 19       		.uleb128 0x19
 6530 141b AE000000 		.4byte	.LASF311
 6531 141f 03       		.byte	0x3
 6532 1420 0F       		.byte	0xf
 6533 1421 1303     		.2byte	0x313
 6534 1423 55140000 		.4byte	0x1455
 6535 1427 18       		.uleb128 0x18
 6536 1428 12040000 		.4byte	.LASF312
 6537 142c 0F       		.byte	0xf
 6538 142d 1803     		.2byte	0x318
 6539 142f BC000000 		.4byte	0xbc
 6540 1433 02       		.byte	0x2
 6541 1434 23       		.byte	0x23
 6542 1435 00       		.uleb128 0
 6543 1436 18       		.uleb128 0x18
 6544 1437 66000000 		.4byte	.LASF313
ARM GAS  C:\Users\EBANO_~1\AppData\Local\Temp\ccKJ5gfE.s 			page 143


 6545 143b 0F       		.byte	0xf
 6546 143c 1C03     		.2byte	0x31c
 6547 143e BC000000 		.4byte	0xbc
 6548 1442 02       		.byte	0x2
 6549 1443 23       		.byte	0x23
 6550 1444 01       		.uleb128 0x1
 6551 1445 18       		.uleb128 0x18
 6552 1446 EB0F0000 		.4byte	.LASF314
 6553 144a 0F       		.byte	0xf
 6554 144b 2003     		.2byte	0x320
 6555 144d BC000000 		.4byte	0xbc
 6556 1451 02       		.byte	0x2
 6557 1452 23       		.byte	0x23
 6558 1453 02       		.uleb128 0x2
 6559 1454 00       		.byte	0
 6560 1455 0C       		.uleb128 0xc
 6561 1456 1E1A0000 		.4byte	.LASF315
 6562 145a 0F       		.byte	0xf
 6563 145b 2103     		.2byte	0x321
 6564 145d 1A140000 		.4byte	0x141a
 6565 1461 28       		.uleb128 0x28
 6566 1462 5D170000 		.4byte	.LASF316
 6567 1466 04       		.byte	0x4
 6568 1467 0F       		.byte	0xf
 6569 1468 2603     		.2byte	0x326
 6570 146a AB140000 		.4byte	0x14ab
 6571 146e 1C       		.uleb128 0x1c
 6572 146f 90200000 		.4byte	.LASF145
 6573 1473 0F       		.byte	0xf
 6574 1474 2B03     		.2byte	0x32b
 6575 1476 ED000000 		.4byte	0xed
 6576 147a 1C       		.uleb128 0x1c
 6577 147b 301B0000 		.4byte	.LASF317
 6578 147f 0F       		.byte	0xf
 6579 1480 2F03     		.2byte	0x32f
 6580 1482 88110000 		.4byte	0x1188
 6581 1486 1C       		.uleb128 0x1c
 6582 1487 8D1D0000 		.4byte	.LASF318
 6583 148b 0F       		.byte	0xf
 6584 148c 3303     		.2byte	0x333
 6585 148e 95110000 		.4byte	0x1195
 6586 1492 1C       		.uleb128 0x1c
 6587 1493 9B0D0000 		.4byte	.LASF319
 6588 1497 0F       		.byte	0xf
 6589 1498 3703     		.2byte	0x337
 6590 149a 8F110000 		.4byte	0x118f
 6591 149e 1C       		.uleb128 0x1c
 6592 149f B70F0000 		.4byte	.LASF320
 6593 14a3 0F       		.byte	0xf
 6594 14a4 3B03     		.2byte	0x33b
 6595 14a6 55140000 		.4byte	0x1455
 6596 14aa 00       		.byte	0
 6597 14ab 0C       		.uleb128 0xc
 6598 14ac FB120000 		.4byte	.LASF321
 6599 14b0 0F       		.byte	0xf
 6600 14b1 3C03     		.2byte	0x33c
 6601 14b3 61140000 		.4byte	0x1461
ARM GAS  C:\Users\EBANO_~1\AppData\Local\Temp\ccKJ5gfE.s 			page 144


 6602 14b7 19       		.uleb128 0x19
 6603 14b8 5F0D0000 		.4byte	.LASF322
 6604 14bc 04       		.byte	0x4
 6605 14bd 0F       		.byte	0xf
 6606 14be 4103     		.2byte	0x341
 6607 14c0 01150000 		.4byte	0x1501
 6608 14c4 18       		.uleb128 0x18
 6609 14c5 3D080000 		.4byte	.LASF323
 6610 14c9 0F       		.byte	0xf
 6611 14ca 4603     		.2byte	0x346
 6612 14cc B2130000 		.4byte	0x13b2
 6613 14d0 02       		.byte	0x2
 6614 14d1 23       		.byte	0x23
 6615 14d2 00       		.uleb128 0
 6616 14d3 18       		.uleb128 0x18
 6617 14d4 B81D0000 		.4byte	.LASF324
 6618 14d8 0F       		.byte	0xf
 6619 14d9 4C03     		.2byte	0x34c
 6620 14db B1000000 		.4byte	0xb1
 6621 14df 02       		.byte	0x2
 6622 14e0 23       		.byte	0x23
 6623 14e1 01       		.uleb128 0x1
 6624 14e2 18       		.uleb128 0x18
 6625 14e3 5B1A0000 		.4byte	.LASF325
 6626 14e7 0F       		.byte	0xf
 6627 14e8 5303     		.2byte	0x353
 6628 14ea BC000000 		.4byte	0xbc
 6629 14ee 02       		.byte	0x2
 6630 14ef 23       		.byte	0x23
 6631 14f0 02       		.uleb128 0x2
 6632 14f1 18       		.uleb128 0x18
 6633 14f2 CE120000 		.4byte	.LASF326
 6634 14f6 0F       		.byte	0xf
 6635 14f7 5A03     		.2byte	0x35a
 6636 14f9 BC000000 		.4byte	0xbc
 6637 14fd 02       		.byte	0x2
 6638 14fe 23       		.byte	0x23
 6639 14ff 03       		.uleb128 0x3
 6640 1500 00       		.byte	0
 6641 1501 0C       		.uleb128 0xc
 6642 1502 9E040000 		.4byte	.LASF327
 6643 1506 0F       		.byte	0xf
 6644 1507 5B03     		.2byte	0x35b
 6645 1509 B7140000 		.4byte	0x14b7
 6646 150d 19       		.uleb128 0x19
 6647 150e 06130000 		.4byte	.LASF328
 6648 1512 08       		.byte	0x8
 6649 1513 0F       		.byte	0xf
 6650 1514 6003     		.2byte	0x360
 6651 1516 48150000 		.4byte	0x1548
 6652 151a 18       		.uleb128 0x18
 6653 151b BE190000 		.4byte	.LASF329
 6654 151f 0F       		.byte	0xf
 6655 1520 6503     		.2byte	0x365
 6656 1522 BC000000 		.4byte	0xbc
 6657 1526 02       		.byte	0x2
 6658 1527 23       		.byte	0x23
ARM GAS  C:\Users\EBANO_~1\AppData\Local\Temp\ccKJ5gfE.s 			page 145


 6659 1528 00       		.uleb128 0
 6660 1529 18       		.uleb128 0x18
 6661 152a 05110000 		.4byte	.LASF330
 6662 152e 0F       		.byte	0xf
 6663 152f 6903     		.2byte	0x369
 6664 1531 150B0000 		.4byte	0xb15
 6665 1535 02       		.byte	0x2
 6666 1536 23       		.byte	0x23
 6667 1537 01       		.uleb128 0x1
 6668 1538 18       		.uleb128 0x18
 6669 1539 16050000 		.4byte	.LASF152
 6670 153d 0F       		.byte	0xf
 6671 153e 6D03     		.2byte	0x36d
 6672 1540 970A0000 		.4byte	0xa97
 6673 1544 02       		.byte	0x2
 6674 1545 23       		.byte	0x23
 6675 1546 04       		.uleb128 0x4
 6676 1547 00       		.byte	0
 6677 1548 0C       		.uleb128 0xc
 6678 1549 A40D0000 		.4byte	.LASF331
 6679 154d 0F       		.byte	0xf
 6680 154e 6E03     		.2byte	0x36e
 6681 1550 0D150000 		.4byte	0x150d
 6682 1554 19       		.uleb128 0x19
 6683 1555 8A180000 		.4byte	.LASF332
 6684 1559 08       		.byte	0x8
 6685 155a 0F       		.byte	0xf
 6686 155b 7303     		.2byte	0x373
 6687 155d 80150000 		.4byte	0x1580
 6688 1561 18       		.uleb128 0x18
 6689 1562 4C1F0000 		.4byte	.LASF333
 6690 1566 0F       		.byte	0xf
 6691 1567 7803     		.2byte	0x378
 6692 1569 82010000 		.4byte	0x182
 6693 156d 02       		.byte	0x2
 6694 156e 23       		.byte	0x23
 6695 156f 00       		.uleb128 0
 6696 1570 18       		.uleb128 0x18
 6697 1571 CF0A0000 		.4byte	.LASF334
 6698 1575 0F       		.byte	0xf
 6699 1576 7C03     		.2byte	0x37c
 6700 1578 E3130000 		.4byte	0x13e3
 6701 157c 02       		.byte	0x2
 6702 157d 23       		.byte	0x23
 6703 157e 04       		.uleb128 0x4
 6704 157f 00       		.byte	0
 6705 1580 0C       		.uleb128 0xc
 6706 1581 420C0000 		.4byte	.LASF335
 6707 1585 0F       		.byte	0xf
 6708 1586 7D03     		.2byte	0x37d
 6709 1588 54150000 		.4byte	0x1554
 6710 158c 19       		.uleb128 0x19
 6711 158d 7D070000 		.4byte	.LASF336
 6712 1591 04       		.byte	0x4
 6713 1592 0F       		.byte	0xf
 6714 1593 8203     		.2byte	0x382
 6715 1595 A9150000 		.4byte	0x15a9
ARM GAS  C:\Users\EBANO_~1\AppData\Local\Temp\ccKJ5gfE.s 			page 146


 6716 1599 18       		.uleb128 0x18
 6717 159a B50A0000 		.4byte	.LASF337
 6718 159e 0F       		.byte	0xf
 6719 159f 8703     		.2byte	0x387
 6720 15a1 70010000 		.4byte	0x170
 6721 15a5 02       		.byte	0x2
 6722 15a6 23       		.byte	0x23
 6723 15a7 00       		.uleb128 0
 6724 15a8 00       		.byte	0
 6725 15a9 0C       		.uleb128 0xc
 6726 15aa 2A120000 		.4byte	.LASF338
 6727 15ae 0F       		.byte	0xf
 6728 15af 8803     		.2byte	0x388
 6729 15b1 8C150000 		.4byte	0x158c
 6730 15b5 19       		.uleb128 0x19
 6731 15b6 18060000 		.4byte	.LASF339
 6732 15ba 03       		.byte	0x3
 6733 15bb 0F       		.byte	0xf
 6734 15bc 9B03     		.2byte	0x39b
 6735 15be F0150000 		.4byte	0x15f0
 6736 15c2 18       		.uleb128 0x18
 6737 15c3 B81D0000 		.4byte	.LASF324
 6738 15c7 0F       		.byte	0xf
 6739 15c8 A003     		.2byte	0x3a0
 6740 15ca B1000000 		.4byte	0xb1
 6741 15ce 02       		.byte	0x2
 6742 15cf 23       		.byte	0x23
 6743 15d0 00       		.uleb128 0
 6744 15d1 18       		.uleb128 0x18
 6745 15d2 CE120000 		.4byte	.LASF326
 6746 15d6 0F       		.byte	0xf
 6747 15d7 A403     		.2byte	0x3a4
 6748 15d9 BC000000 		.4byte	0xbc
 6749 15dd 02       		.byte	0x2
 6750 15de 23       		.byte	0x23
 6751 15df 01       		.uleb128 0x1
 6752 15e0 18       		.uleb128 0x18
 6753 15e1 5B1A0000 		.4byte	.LASF325
 6754 15e5 0F       		.byte	0xf
 6755 15e6 A803     		.2byte	0x3a8
 6756 15e8 BC000000 		.4byte	0xbc
 6757 15ec 02       		.byte	0x2
 6758 15ed 23       		.byte	0x23
 6759 15ee 02       		.uleb128 0x2
 6760 15ef 00       		.byte	0
 6761 15f0 28       		.uleb128 0x28
 6762 15f1 1F200000 		.4byte	.LASF340
 6763 15f5 03       		.byte	0x3
 6764 15f6 0F       		.byte	0xf
 6765 15f7 8E03     		.2byte	0x38e
 6766 15f9 22160000 		.4byte	0x1622
 6767 15fd 1C       		.uleb128 0x1c
 6768 15fe CA1A0000 		.4byte	.LASF341
 6769 1602 0F       		.byte	0xf
 6770 1603 9303     		.2byte	0x393
 6771 1605 B1000000 		.4byte	0xb1
 6772 1609 1C       		.uleb128 0x1c
ARM GAS  C:\Users\EBANO_~1\AppData\Local\Temp\ccKJ5gfE.s 			page 147


 6773 160a 261B0000 		.4byte	.LASF342
 6774 160e 0F       		.byte	0xf
 6775 160f 9703     		.2byte	0x397
 6776 1611 150B0000 		.4byte	0xb15
 6777 1615 1C       		.uleb128 0x1c
 6778 1616 AF020000 		.4byte	.LASF343
 6779 161a 0F       		.byte	0xf
 6780 161b A903     		.2byte	0x3a9
 6781 161d B5150000 		.4byte	0x15b5
 6782 1621 00       		.byte	0
 6783 1622 0C       		.uleb128 0xc
 6784 1623 6F200000 		.4byte	.LASF344
 6785 1627 0F       		.byte	0xf
 6786 1628 AA03     		.2byte	0x3aa
 6787 162a F0150000 		.4byte	0x15f0
 6788 162e 19       		.uleb128 0x19
 6789 162f 450D0000 		.4byte	.LASF345
 6790 1633 08       		.byte	0x8
 6791 1634 0F       		.byte	0xf
 6792 1635 AF03     		.2byte	0x3af
 6793 1637 5A160000 		.4byte	0x165a
 6794 163b 18       		.uleb128 0x18
 6795 163c FC0A0000 		.4byte	.LASF346
 6796 1640 0F       		.byte	0xf
 6797 1641 B403     		.2byte	0x3b4
 6798 1643 840A0000 		.4byte	0xa84
 6799 1647 02       		.byte	0x2
 6800 1648 23       		.byte	0x23
 6801 1649 00       		.uleb128 0
 6802 164a 18       		.uleb128 0x18
 6803 164b 24100000 		.4byte	.LASF347
 6804 164f 0F       		.byte	0xf
 6805 1650 B803     		.2byte	0x3b8
 6806 1652 BC000000 		.4byte	0xbc
 6807 1656 02       		.byte	0x2
 6808 1657 23       		.byte	0x23
 6809 1658 04       		.uleb128 0x4
 6810 1659 00       		.byte	0
 6811 165a 0C       		.uleb128 0xc
 6812 165b 0F0D0000 		.4byte	.LASF348
 6813 165f 0F       		.byte	0xf
 6814 1660 B903     		.2byte	0x3b9
 6815 1662 2E160000 		.4byte	0x162e
 6816 1666 19       		.uleb128 0x19
 6817 1667 0C1F0000 		.4byte	.LASF349
 6818 166b 08       		.byte	0x8
 6819 166c 0F       		.byte	0xf
 6820 166d BE03     		.2byte	0x3be
 6821 166f 92160000 		.4byte	0x1692
 6822 1673 18       		.uleb128 0x18
 6823 1674 8B170000 		.4byte	.LASF350
 6824 1678 0F       		.byte	0xf
 6825 1679 C303     		.2byte	0x3c3
 6826 167b 95110000 		.4byte	0x1195
 6827 167f 02       		.byte	0x2
 6828 1680 23       		.byte	0x23
 6829 1681 00       		.uleb128 0
ARM GAS  C:\Users\EBANO_~1\AppData\Local\Temp\ccKJ5gfE.s 			page 148


 6830 1682 18       		.uleb128 0x18
 6831 1683 F9190000 		.4byte	.LASF351
 6832 1687 0F       		.byte	0xf
 6833 1688 C703     		.2byte	0x3c7
 6834 168a 0E140000 		.4byte	0x140e
 6835 168e 02       		.byte	0x2
 6836 168f 23       		.byte	0x23
 6837 1690 04       		.uleb128 0x4
 6838 1691 00       		.byte	0
 6839 1692 0C       		.uleb128 0xc
 6840 1693 370F0000 		.4byte	.LASF352
 6841 1697 0F       		.byte	0xf
 6842 1698 C803     		.2byte	0x3c8
 6843 169a 66160000 		.4byte	0x1666
 6844 169e 19       		.uleb128 0x19
 6845 169f 56110000 		.4byte	.LASF353
 6846 16a3 14       		.byte	0x14
 6847 16a4 0F       		.byte	0xf
 6848 16a5 CD03     		.2byte	0x3cd
 6849 16a7 51170000 		.4byte	0x1751
 6850 16ab 18       		.uleb128 0x18
 6851 16ac BE190000 		.4byte	.LASF329
 6852 16b0 0F       		.byte	0xf
 6853 16b1 D203     		.2byte	0x3d2
 6854 16b3 BC000000 		.4byte	0xbc
 6855 16b7 02       		.byte	0x2
 6856 16b8 23       		.byte	0x23
 6857 16b9 00       		.uleb128 0
 6858 16ba 18       		.uleb128 0x18
 6859 16bb B81D0000 		.4byte	.LASF324
 6860 16bf 0F       		.byte	0xf
 6861 16c0 D603     		.2byte	0x3d6
 6862 16c2 B1000000 		.4byte	0xb1
 6863 16c6 02       		.byte	0x2
 6864 16c7 23       		.byte	0x23
 6865 16c8 01       		.uleb128 0x1
 6866 16c9 18       		.uleb128 0x18
 6867 16ca 1C1B0000 		.4byte	.LASF354
 6868 16ce 0F       		.byte	0xf
 6869 16cf DA03     		.2byte	0x3da
 6870 16d1 BC000000 		.4byte	0xbc
 6871 16d5 02       		.byte	0x2
 6872 16d6 23       		.byte	0x23
 6873 16d7 02       		.uleb128 0x2
 6874 16d8 18       		.uleb128 0x18
 6875 16d9 95020000 		.4byte	.LASF355
 6876 16dd 0F       		.byte	0xf
 6877 16de DE03     		.2byte	0x3de
 6878 16e0 B1000000 		.4byte	0xb1
 6879 16e4 02       		.byte	0x2
 6880 16e5 23       		.byte	0x23
 6881 16e6 03       		.uleb128 0x3
 6882 16e7 18       		.uleb128 0x18
 6883 16e8 E51C0000 		.4byte	.LASF209
 6884 16ec 0F       		.byte	0xf
 6885 16ed E203     		.2byte	0x3e2
 6886 16ef ED000000 		.4byte	0xed
ARM GAS  C:\Users\EBANO_~1\AppData\Local\Temp\ccKJ5gfE.s 			page 149


 6887 16f3 02       		.byte	0x2
 6888 16f4 23       		.byte	0x23
 6889 16f5 04       		.uleb128 0x4
 6890 16f6 18       		.uleb128 0x18
 6891 16f7 2C090000 		.4byte	.LASF356
 6892 16fb 0F       		.byte	0xf
 6893 16fc E603     		.2byte	0x3e6
 6894 16fe ED000000 		.4byte	0xed
 6895 1702 02       		.byte	0x2
 6896 1703 23       		.byte	0x23
 6897 1704 08       		.uleb128 0x8
 6898 1705 18       		.uleb128 0x18
 6899 1706 71060000 		.4byte	.LASF357
 6900 170a 0F       		.byte	0xf
 6901 170b EA03     		.2byte	0x3ea
 6902 170d E2000000 		.4byte	0xe2
 6903 1711 02       		.byte	0x2
 6904 1712 23       		.byte	0x23
 6905 1713 0C       		.uleb128 0xc
 6906 1714 18       		.uleb128 0x18
 6907 1715 CE120000 		.4byte	.LASF326
 6908 1719 0F       		.byte	0xf
 6909 171a EE03     		.2byte	0x3ee
 6910 171c BC000000 		.4byte	0xbc
 6911 1720 02       		.byte	0x2
 6912 1721 23       		.byte	0x23
 6913 1722 10       		.uleb128 0x10
 6914 1723 18       		.uleb128 0x18
 6915 1724 620C0000 		.4byte	.LASF358
 6916 1728 0F       		.byte	0xf
 6917 1729 F203     		.2byte	0x3f2
 6918 172b 150B0000 		.4byte	0xb15
 6919 172f 02       		.byte	0x2
 6920 1730 23       		.byte	0x23
 6921 1731 11       		.uleb128 0x11
 6922 1732 18       		.uleb128 0x18
 6923 1733 5E1B0000 		.4byte	.LASF359
 6924 1737 0F       		.byte	0xf
 6925 1738 F603     		.2byte	0x3f6
 6926 173a 150B0000 		.4byte	0xb15
 6927 173e 02       		.byte	0x2
 6928 173f 23       		.byte	0x23
 6929 1740 12       		.uleb128 0x12
 6930 1741 18       		.uleb128 0x18
 6931 1742 98080000 		.4byte	.LASF360
 6932 1746 0F       		.byte	0xf
 6933 1747 FA03     		.2byte	0x3fa
 6934 1749 7C110000 		.4byte	0x117c
 6935 174d 02       		.byte	0x2
 6936 174e 23       		.byte	0x23
 6937 174f 13       		.uleb128 0x13
 6938 1750 00       		.byte	0
 6939 1751 0C       		.uleb128 0xc
 6940 1752 BC000000 		.4byte	.LASF361
 6941 1756 0F       		.byte	0xf
 6942 1757 FB03     		.2byte	0x3fb
 6943 1759 9E160000 		.4byte	0x169e
ARM GAS  C:\Users\EBANO_~1\AppData\Local\Temp\ccKJ5gfE.s 			page 150


 6944 175d 19       		.uleb128 0x19
 6945 175e AB100000 		.4byte	.LASF362
 6946 1762 10       		.byte	0x10
 6947 1763 0F       		.byte	0xf
 6948 1764 0004     		.2byte	0x400
 6949 1766 C5170000 		.4byte	0x17c5
 6950 176a 18       		.uleb128 0x18
 6951 176b BE190000 		.4byte	.LASF329
 6952 176f 0F       		.byte	0xf
 6953 1770 0504     		.2byte	0x405
 6954 1772 BC000000 		.4byte	0xbc
 6955 1776 02       		.byte	0x2
 6956 1777 23       		.byte	0x23
 6957 1778 00       		.uleb128 0
 6958 1779 18       		.uleb128 0x18
 6959 177a B81D0000 		.4byte	.LASF324
 6960 177e 0F       		.byte	0xf
 6961 177f 0904     		.2byte	0x409
 6962 1781 B1000000 		.4byte	0xb1
 6963 1785 02       		.byte	0x2
 6964 1786 23       		.byte	0x23
 6965 1787 01       		.uleb128 0x1
 6966 1788 18       		.uleb128 0x18
 6967 1789 CA1A0000 		.4byte	.LASF341
 6968 178d 0F       		.byte	0xf
 6969 178e 0D04     		.2byte	0x40d
 6970 1790 B1000000 		.4byte	0xb1
 6971 1794 02       		.byte	0x2
 6972 1795 23       		.byte	0x23
 6973 1796 02       		.uleb128 0x2
 6974 1797 18       		.uleb128 0x18
 6975 1798 31040000 		.4byte	.LASF363
 6976 179c 0F       		.byte	0xf
 6977 179d 1104     		.2byte	0x411
 6978 179f 88110000 		.4byte	0x1188
 6979 17a3 02       		.byte	0x2
 6980 17a4 23       		.byte	0x23
 6981 17a5 04       		.uleb128 0x4
 6982 17a6 18       		.uleb128 0x18
 6983 17a7 1B130000 		.4byte	.LASF364
 6984 17ab 0F       		.byte	0xf
 6985 17ac 1504     		.2byte	0x415
 6986 17ae 88110000 		.4byte	0x1188
 6987 17b2 02       		.byte	0x2
 6988 17b3 23       		.byte	0x23
 6989 17b4 08       		.uleb128 0x8
 6990 17b5 18       		.uleb128 0x18
 6991 17b6 CC0F0000 		.4byte	.LASF365
 6992 17ba 0F       		.byte	0xf
 6993 17bb 1904     		.2byte	0x419
 6994 17bd D7000000 		.4byte	0xd7
 6995 17c1 02       		.byte	0x2
 6996 17c2 23       		.byte	0x23
 6997 17c3 0C       		.uleb128 0xc
 6998 17c4 00       		.byte	0
 6999 17c5 0C       		.uleb128 0xc
 7000 17c6 B5200000 		.4byte	.LASF366
ARM GAS  C:\Users\EBANO_~1\AppData\Local\Temp\ccKJ5gfE.s 			page 151


 7001 17ca 0F       		.byte	0xf
 7002 17cb 1A04     		.2byte	0x41a
 7003 17cd 5D170000 		.4byte	0x175d
 7004 17d1 19       		.uleb128 0x19
 7005 17d2 1A090000 		.4byte	.LASF367
 7006 17d6 10       		.byte	0x10
 7007 17d7 0F       		.byte	0xf
 7008 17d8 1F04     		.2byte	0x41f
 7009 17da 57180000 		.4byte	0x1857
 7010 17de 18       		.uleb128 0x18
 7011 17df 5B080000 		.4byte	.LASF368
 7012 17e3 0F       		.byte	0xf
 7013 17e4 2404     		.2byte	0x424
 7014 17e6 0A0B0000 		.4byte	0xb0a
 7015 17ea 02       		.byte	0x2
 7016 17eb 23       		.byte	0x23
 7017 17ec 00       		.uleb128 0
 7018 17ed 18       		.uleb128 0x18
 7019 17ee FC0A0000 		.4byte	.LASF346
 7020 17f2 0F       		.byte	0xf
 7021 17f3 2804     		.2byte	0x428
 7022 17f5 840A0000 		.4byte	0xa84
 7023 17f9 02       		.byte	0x2
 7024 17fa 23       		.byte	0x23
 7025 17fb 04       		.uleb128 0x4
 7026 17fc 18       		.uleb128 0x18
 7027 17fd B6110000 		.4byte	.LASF369
 7028 1801 0F       		.byte	0xf
 7029 1802 2C04     		.2byte	0x42c
 7030 1804 BC000000 		.4byte	0xbc
 7031 1808 02       		.byte	0x2
 7032 1809 23       		.byte	0x23
 7033 180a 08       		.uleb128 0x8
 7034 180b 18       		.uleb128 0x18
 7035 180c 5B1A0000 		.4byte	.LASF325
 7036 1810 0F       		.byte	0xf
 7037 1811 3004     		.2byte	0x430
 7038 1813 BC000000 		.4byte	0xbc
 7039 1817 02       		.byte	0x2
 7040 1818 23       		.byte	0x23
 7041 1819 09       		.uleb128 0x9
 7042 181a 18       		.uleb128 0x18
 7043 181b F4010000 		.4byte	.LASF370
 7044 181f 0F       		.byte	0xf
 7045 1820 3404     		.2byte	0x434
 7046 1822 150B0000 		.4byte	0xb15
 7047 1826 02       		.byte	0x2
 7048 1827 23       		.byte	0x23
 7049 1828 0A       		.uleb128 0xa
 7050 1829 18       		.uleb128 0x18
 7051 182a EC0A0000 		.4byte	.LASF371
 7052 182e 0F       		.byte	0xf
 7053 182f 3804     		.2byte	0x438
 7054 1831 B1000000 		.4byte	0xb1
 7055 1835 02       		.byte	0x2
 7056 1836 23       		.byte	0x23
 7057 1837 0B       		.uleb128 0xb
ARM GAS  C:\Users\EBANO_~1\AppData\Local\Temp\ccKJ5gfE.s 			page 152


 7058 1838 18       		.uleb128 0x18
 7059 1839 33140000 		.4byte	.LASF372
 7060 183d 0F       		.byte	0xf
 7061 183e 3C04     		.2byte	0x43c
 7062 1840 B1000000 		.4byte	0xb1
 7063 1844 02       		.byte	0x2
 7064 1845 23       		.byte	0x23
 7065 1846 0C       		.uleb128 0xc
 7066 1847 18       		.uleb128 0x18
 7067 1848 5E1E0000 		.4byte	.LASF373
 7068 184c 0F       		.byte	0xf
 7069 184d 4004     		.2byte	0x440
 7070 184f BC000000 		.4byte	0xbc
 7071 1853 02       		.byte	0x2
 7072 1854 23       		.byte	0x23
 7073 1855 0D       		.uleb128 0xd
 7074 1856 00       		.byte	0
 7075 1857 0C       		.uleb128 0xc
 7076 1858 D71F0000 		.4byte	.LASF374
 7077 185c 0F       		.byte	0xf
 7078 185d 4104     		.2byte	0x441
 7079 185f D1170000 		.4byte	0x17d1
 7080 1863 19       		.uleb128 0x19
 7081 1864 5F030000 		.4byte	.LASF375
 7082 1868 08       		.byte	0x8
 7083 1869 0F       		.byte	0xf
 7084 186a 4604     		.2byte	0x446
 7085 186c 9E180000 		.4byte	0x189e
 7086 1870 18       		.uleb128 0x18
 7087 1871 B81D0000 		.4byte	.LASF324
 7088 1875 0F       		.byte	0xf
 7089 1876 4B04     		.2byte	0x44b
 7090 1878 B1000000 		.4byte	0xb1
 7091 187c 02       		.byte	0x2
 7092 187d 23       		.byte	0x23
 7093 187e 00       		.uleb128 0
 7094 187f 18       		.uleb128 0x18
 7095 1880 95020000 		.4byte	.LASF355
 7096 1884 0F       		.byte	0xf
 7097 1885 4F04     		.2byte	0x44f
 7098 1887 B1000000 		.4byte	0xb1
 7099 188b 02       		.byte	0x2
 7100 188c 23       		.byte	0x23
 7101 188d 01       		.uleb128 0x1
 7102 188e 18       		.uleb128 0x18
 7103 188f E51C0000 		.4byte	.LASF209
 7104 1893 0F       		.byte	0xf
 7105 1894 5304     		.2byte	0x453
 7106 1896 ED000000 		.4byte	0xed
 7107 189a 02       		.byte	0x2
 7108 189b 23       		.byte	0x23
 7109 189c 04       		.uleb128 0x4
 7110 189d 00       		.byte	0
 7111 189e 0C       		.uleb128 0xc
 7112 189f BD030000 		.4byte	.LASF376
 7113 18a3 0F       		.byte	0xf
 7114 18a4 5404     		.2byte	0x454
ARM GAS  C:\Users\EBANO_~1\AppData\Local\Temp\ccKJ5gfE.s 			page 153


 7115 18a6 63180000 		.4byte	0x1863
 7116 18aa 19       		.uleb128 0x19
 7117 18ab 000A0000 		.4byte	.LASF377
 7118 18af 08       		.byte	0x8
 7119 18b0 0F       		.byte	0xf
 7120 18b1 5904     		.2byte	0x459
 7121 18b3 D6180000 		.4byte	0x18d6
 7122 18b7 18       		.uleb128 0x18
 7123 18b8 3B1D0000 		.4byte	.LASF378
 7124 18bc 0F       		.byte	0xf
 7125 18bd 5E04     		.2byte	0x45e
 7126 18bf 8F110000 		.4byte	0x118f
 7127 18c3 02       		.byte	0x2
 7128 18c4 23       		.byte	0x23
 7129 18c5 00       		.uleb128 0
 7130 18c6 18       		.uleb128 0x18
 7131 18c7 55030000 		.4byte	.LASF379
 7132 18cb 0F       		.byte	0xf
 7133 18cc 6204     		.2byte	0x462
 7134 18ce B1000000 		.4byte	0xb1
 7135 18d2 02       		.byte	0x2
 7136 18d3 23       		.byte	0x23
 7137 18d4 04       		.uleb128 0x4
 7138 18d5 00       		.byte	0
 7139 18d6 0C       		.uleb128 0xc
 7140 18d7 7A0A0000 		.4byte	.LASF380
 7141 18db 0F       		.byte	0xf
 7142 18dc 6304     		.2byte	0x463
 7143 18de AA180000 		.4byte	0x18aa
 7144 18e2 19       		.uleb128 0x19
 7145 18e3 13120000 		.4byte	.LASF381
 7146 18e7 03       		.byte	0x3
 7147 18e8 0F       		.byte	0xf
 7148 18e9 6804     		.2byte	0x468
 7149 18eb 1D190000 		.4byte	0x191d
 7150 18ef 18       		.uleb128 0x18
 7151 18f0 5B1A0000 		.4byte	.LASF325
 7152 18f4 0F       		.byte	0xf
 7153 18f5 6D04     		.2byte	0x46d
 7154 18f7 BC000000 		.4byte	0xbc
 7155 18fb 02       		.byte	0x2
 7156 18fc 23       		.byte	0x23
 7157 18fd 00       		.uleb128 0
 7158 18fe 18       		.uleb128 0x18
 7159 18ff CE120000 		.4byte	.LASF326
 7160 1903 0F       		.byte	0xf
 7161 1904 7104     		.2byte	0x471
 7162 1906 BC000000 		.4byte	0xbc
 7163 190a 02       		.byte	0x2
 7164 190b 23       		.byte	0x23
 7165 190c 01       		.uleb128 0x1
 7166 190d 18       		.uleb128 0x18
 7167 190e 31040000 		.4byte	.LASF363
 7168 1912 0F       		.byte	0xf
 7169 1913 7504     		.2byte	0x475
 7170 1915 BC000000 		.4byte	0xbc
 7171 1919 02       		.byte	0x2
ARM GAS  C:\Users\EBANO_~1\AppData\Local\Temp\ccKJ5gfE.s 			page 154


 7172 191a 23       		.byte	0x23
 7173 191b 02       		.uleb128 0x2
 7174 191c 00       		.byte	0
 7175 191d 0C       		.uleb128 0xc
 7176 191e 66150000 		.4byte	.LASF382
 7177 1922 0F       		.byte	0xf
 7178 1923 7604     		.2byte	0x476
 7179 1925 E2180000 		.4byte	0x18e2
 7180 1929 19       		.uleb128 0x19
 7181 192a C31F0000 		.4byte	.LASF383
 7182 192e 08       		.byte	0x8
 7183 192f 0F       		.byte	0xf
 7184 1930 7B04     		.2byte	0x47b
 7185 1932 55190000 		.4byte	0x1955
 7186 1936 18       		.uleb128 0x18
 7187 1937 55030000 		.4byte	.LASF379
 7188 193b 0F       		.byte	0xf
 7189 193c 8004     		.2byte	0x480
 7190 193e BC000000 		.4byte	0xbc
 7191 1942 02       		.byte	0x2
 7192 1943 23       		.byte	0x23
 7193 1944 00       		.uleb128 0
 7194 1945 18       		.uleb128 0x18
 7195 1946 C8110000 		.4byte	.LASF210
 7196 194a 0F       		.byte	0xf
 7197 194b 8404     		.2byte	0x484
 7198 194d ED000000 		.4byte	0xed
 7199 1951 02       		.byte	0x2
 7200 1952 23       		.byte	0x23
 7201 1953 04       		.uleb128 0x4
 7202 1954 00       		.byte	0
 7203 1955 0C       		.uleb128 0xc
 7204 1956 43120000 		.4byte	.LASF384
 7205 195a 0F       		.byte	0xf
 7206 195b 8504     		.2byte	0x485
 7207 195d 29190000 		.4byte	0x1929
 7208 1961 26       		.uleb128 0x26
 7209 1962 6A080000 		.4byte	.LASF385
 7210 1966 07       		.byte	0x7
 7211 1967 01       		.byte	0x1
 7212 1968 46000000 		.4byte	0x46
 7213 196c 0F       		.byte	0xf
 7214 196d 8A04     		.2byte	0x48a
 7215 196f 80190000 		.4byte	0x1980
 7216 1973 21       		.uleb128 0x21
 7217 1974 12170000 		.4byte	.LASF386
 7218 1978 00       		.byte	0
 7219 1979 21       		.uleb128 0x21
 7220 197a A20F0000 		.4byte	.LASF387
 7221 197e 01       		.byte	0x1
 7222 197f 00       		.byte	0
 7223 1980 0C       		.uleb128 0xc
 7224 1981 B41B0000 		.4byte	.LASF388
 7225 1985 0F       		.byte	0xf
 7226 1986 9404     		.2byte	0x494
 7227 1988 61190000 		.4byte	0x1961
 7228 198c 19       		.uleb128 0x19
ARM GAS  C:\Users\EBANO_~1\AppData\Local\Temp\ccKJ5gfE.s 			page 155


 7229 198d FA060000 		.4byte	.LASF389
 7230 1991 0C       		.byte	0xc
 7231 1992 0F       		.byte	0xf
 7232 1993 9904     		.2byte	0x499
 7233 1995 F4190000 		.4byte	0x19f4
 7234 1999 18       		.uleb128 0x18
 7235 199a 05110000 		.4byte	.LASF330
 7236 199e 0F       		.byte	0xf
 7237 199f 9E04     		.2byte	0x49e
 7238 19a1 150B0000 		.4byte	0xb15
 7239 19a5 02       		.byte	0x2
 7240 19a6 23       		.byte	0x23
 7241 19a7 00       		.uleb128 0
 7242 19a8 18       		.uleb128 0x18
 7243 19a9 7F210000 		.4byte	.LASF390
 7244 19ad 0F       		.byte	0xf
 7245 19ae A204     		.2byte	0x4a2
 7246 19b0 150B0000 		.4byte	0xb15
 7247 19b4 02       		.byte	0x2
 7248 19b5 23       		.byte	0x23
 7249 19b6 01       		.uleb128 0x1
 7250 19b7 18       		.uleb128 0x18
 7251 19b8 71130000 		.4byte	.LASF391
 7252 19bc 0F       		.byte	0xf
 7253 19bd A604     		.2byte	0x4a6
 7254 19bf 150B0000 		.4byte	0xb15
 7255 19c3 02       		.byte	0x2
 7256 19c4 23       		.byte	0x23
 7257 19c5 02       		.uleb128 0x2
 7258 19c6 18       		.uleb128 0x18
 7259 19c7 BE190000 		.4byte	.LASF329
 7260 19cb 0F       		.byte	0xf
 7261 19cc AA04     		.2byte	0x4aa
 7262 19ce BC000000 		.4byte	0xbc
 7263 19d2 02       		.byte	0x2
 7264 19d3 23       		.byte	0x23
 7265 19d4 03       		.uleb128 0x3
 7266 19d5 18       		.uleb128 0x18
 7267 19d6 5E0E0000 		.4byte	.LASF392
 7268 19da 0F       		.byte	0xf
 7269 19db AE04     		.2byte	0x4ae
 7270 19dd 970A0000 		.4byte	0xa97
 7271 19e1 02       		.byte	0x2
 7272 19e2 23       		.byte	0x23
 7273 19e3 04       		.uleb128 0x4
 7274 19e4 18       		.uleb128 0x18
 7275 19e5 13020000 		.4byte	.LASF393
 7276 19e9 0F       		.byte	0xf
 7277 19ea B204     		.2byte	0x4b2
 7278 19ec 970A0000 		.4byte	0xa97
 7279 19f0 02       		.byte	0x2
 7280 19f1 23       		.byte	0x23
 7281 19f2 08       		.uleb128 0x8
 7282 19f3 00       		.byte	0
 7283 19f4 0C       		.uleb128 0xc
 7284 19f5 33160000 		.4byte	.LASF394
 7285 19f9 0F       		.byte	0xf
ARM GAS  C:\Users\EBANO_~1\AppData\Local\Temp\ccKJ5gfE.s 			page 156


 7286 19fa B304     		.2byte	0x4b3
 7287 19fc 8C190000 		.4byte	0x198c
 7288 1a00 19       		.uleb128 0x19
 7289 1a01 9F1F0000 		.4byte	.LASF395
 7290 1a05 0C       		.byte	0xc
 7291 1a06 0F       		.byte	0xf
 7292 1a07 B804     		.2byte	0x4b8
 7293 1a09 591A0000 		.4byte	0x1a59
 7294 1a0d 18       		.uleb128 0x18
 7295 1a0e FD020000 		.4byte	.LASF396
 7296 1a12 0F       		.byte	0xf
 7297 1a13 BD04     		.2byte	0x4bd
 7298 1a15 970A0000 		.4byte	0xa97
 7299 1a19 02       		.byte	0x2
 7300 1a1a 23       		.byte	0x23
 7301 1a1b 00       		.uleb128 0
 7302 1a1c 18       		.uleb128 0x18
 7303 1a1d 39020000 		.4byte	.LASF397
 7304 1a21 0F       		.byte	0xf
 7305 1a22 C104     		.2byte	0x4c1
 7306 1a24 970A0000 		.4byte	0xa97
 7307 1a28 02       		.byte	0x2
 7308 1a29 23       		.byte	0x23
 7309 1a2a 04       		.uleb128 0x4
 7310 1a2b 18       		.uleb128 0x18
 7311 1a2c B81D0000 		.4byte	.LASF324
 7312 1a30 0F       		.byte	0xf
 7313 1a31 C504     		.2byte	0x4c5
 7314 1a33 B1000000 		.4byte	0xb1
 7315 1a37 02       		.byte	0x2
 7316 1a38 23       		.byte	0x23
 7317 1a39 08       		.uleb128 0x8
 7318 1a3a 18       		.uleb128 0x18
 7319 1a3b 05110000 		.4byte	.LASF330
 7320 1a3f 0F       		.byte	0xf
 7321 1a40 C904     		.2byte	0x4c9
 7322 1a42 150B0000 		.4byte	0xb15
 7323 1a46 02       		.byte	0x2
 7324 1a47 23       		.byte	0x23
 7325 1a48 09       		.uleb128 0x9
 7326 1a49 18       		.uleb128 0x18
 7327 1a4a 71130000 		.4byte	.LASF391
 7328 1a4e 0F       		.byte	0xf
 7329 1a4f CD04     		.2byte	0x4cd
 7330 1a51 150B0000 		.4byte	0xb15
 7331 1a55 02       		.byte	0x2
 7332 1a56 23       		.byte	0x23
 7333 1a57 0A       		.uleb128 0xa
 7334 1a58 00       		.byte	0
 7335 1a59 0C       		.uleb128 0xc
 7336 1a5a 44020000 		.4byte	.LASF398
 7337 1a5e 0F       		.byte	0xf
 7338 1a5f CE04     		.2byte	0x4ce
 7339 1a61 001A0000 		.4byte	0x1a00
 7340 1a65 19       		.uleb128 0x19
 7341 1a66 6B050000 		.4byte	.LASF399
 7342 1a6a 08       		.byte	0x8
ARM GAS  C:\Users\EBANO_~1\AppData\Local\Temp\ccKJ5gfE.s 			page 157


 7343 1a6b 0F       		.byte	0xf
 7344 1a6c D304     		.2byte	0x4d3
 7345 1a6e 911A0000 		.4byte	0x1a91
 7346 1a72 18       		.uleb128 0x18
 7347 1a73 3B1D0000 		.4byte	.LASF378
 7348 1a77 0F       		.byte	0xf
 7349 1a78 D804     		.2byte	0x4d8
 7350 1a7a 8F110000 		.4byte	0x118f
 7351 1a7e 02       		.byte	0x2
 7352 1a7f 23       		.byte	0x23
 7353 1a80 00       		.uleb128 0
 7354 1a81 18       		.uleb128 0x18
 7355 1a82 55030000 		.4byte	.LASF379
 7356 1a86 0F       		.byte	0xf
 7357 1a87 DC04     		.2byte	0x4dc
 7358 1a89 BC000000 		.4byte	0xbc
 7359 1a8d 02       		.byte	0x2
 7360 1a8e 23       		.byte	0x23
 7361 1a8f 04       		.uleb128 0x4
 7362 1a90 00       		.byte	0
 7363 1a91 0C       		.uleb128 0xc
 7364 1a92 65120000 		.4byte	.LASF400
 7365 1a96 0F       		.byte	0xf
 7366 1a97 DD04     		.2byte	0x4dd
 7367 1a99 651A0000 		.4byte	0x1a65
 7368 1a9d 19       		.uleb128 0x19
 7369 1a9e 681C0000 		.4byte	.LASF401
 7370 1aa2 01       		.byte	0x1
 7371 1aa3 0F       		.byte	0xf
 7372 1aa4 E204     		.2byte	0x4e2
 7373 1aa6 BA1A0000 		.4byte	0x1aba
 7374 1aaa 18       		.uleb128 0x18
 7375 1aab 55030000 		.4byte	.LASF379
 7376 1aaf 0F       		.byte	0xf
 7377 1ab0 E704     		.2byte	0x4e7
 7378 1ab2 BC000000 		.4byte	0xbc
 7379 1ab6 02       		.byte	0x2
 7380 1ab7 23       		.byte	0x23
 7381 1ab8 00       		.uleb128 0
 7382 1ab9 00       		.byte	0
 7383 1aba 0C       		.uleb128 0xc
 7384 1abb CC080000 		.4byte	.LASF402
 7385 1abf 0F       		.byte	0xf
 7386 1ac0 E804     		.2byte	0x4e8
 7387 1ac2 9D1A0000 		.4byte	0x1a9d
 7388 1ac6 19       		.uleb128 0x19
 7389 1ac7 7D1C0000 		.4byte	.LASF403
 7390 1acb 10       		.byte	0x10
 7391 1acc 0F       		.byte	0xf
 7392 1acd ED04     		.2byte	0x4ed
 7393 1acf 2E1B0000 		.4byte	0x1b2e
 7394 1ad3 18       		.uleb128 0x18
 7395 1ad4 BE190000 		.4byte	.LASF329
 7396 1ad8 0F       		.byte	0xf
 7397 1ad9 F204     		.2byte	0x4f2
 7398 1adb BC000000 		.4byte	0xbc
 7399 1adf 02       		.byte	0x2
ARM GAS  C:\Users\EBANO_~1\AppData\Local\Temp\ccKJ5gfE.s 			page 158


 7400 1ae0 23       		.byte	0x23
 7401 1ae1 00       		.uleb128 0
 7402 1ae2 18       		.uleb128 0x18
 7403 1ae3 B81D0000 		.4byte	.LASF324
 7404 1ae7 0F       		.byte	0xf
 7405 1ae8 F604     		.2byte	0x4f6
 7406 1aea B1000000 		.4byte	0xb1
 7407 1aee 02       		.byte	0x2
 7408 1aef 23       		.byte	0x23
 7409 1af0 01       		.uleb128 0x1
 7410 1af1 18       		.uleb128 0x18
 7411 1af2 CA1A0000 		.4byte	.LASF341
 7412 1af6 0F       		.byte	0xf
 7413 1af7 FA04     		.2byte	0x4fa
 7414 1af9 B1000000 		.4byte	0xb1
 7415 1afd 02       		.byte	0x2
 7416 1afe 23       		.byte	0x23
 7417 1aff 02       		.uleb128 0x2
 7418 1b00 18       		.uleb128 0x18
 7419 1b01 31040000 		.4byte	.LASF363
 7420 1b05 0F       		.byte	0xf
 7421 1b06 FE04     		.2byte	0x4fe
 7422 1b08 88110000 		.4byte	0x1188
 7423 1b0c 02       		.byte	0x2
 7424 1b0d 23       		.byte	0x23
 7425 1b0e 04       		.uleb128 0x4
 7426 1b0f 18       		.uleb128 0x18
 7427 1b10 1B130000 		.4byte	.LASF364
 7428 1b14 0F       		.byte	0xf
 7429 1b15 0205     		.2byte	0x502
 7430 1b17 88110000 		.4byte	0x1188
 7431 1b1b 02       		.byte	0x2
 7432 1b1c 23       		.byte	0x23
 7433 1b1d 08       		.uleb128 0x8
 7434 1b1e 18       		.uleb128 0x18
 7435 1b1f C70A0000 		.4byte	.LASF404
 7436 1b23 0F       		.byte	0xf
 7437 1b24 0605     		.2byte	0x506
 7438 1b26 D7000000 		.4byte	0xd7
 7439 1b2a 02       		.byte	0x2
 7440 1b2b 23       		.byte	0x23
 7441 1b2c 0C       		.uleb128 0xc
 7442 1b2d 00       		.byte	0
 7443 1b2e 0C       		.uleb128 0xc
 7444 1b2f EA140000 		.4byte	.LASF405
 7445 1b33 0F       		.byte	0xf
 7446 1b34 0705     		.2byte	0x507
 7447 1b36 C61A0000 		.4byte	0x1ac6
 7448 1b3a 19       		.uleb128 0x19
 7449 1b3b 5C060000 		.4byte	.LASF406
 7450 1b3f 0C       		.byte	0xc
 7451 1b40 0F       		.byte	0xf
 7452 1b41 0C05     		.2byte	0x50c
 7453 1b43 751B0000 		.4byte	0x1b75
 7454 1b47 18       		.uleb128 0x18
 7455 1b48 141D0000 		.4byte	.LASF407
 7456 1b4c 0F       		.byte	0xf
ARM GAS  C:\Users\EBANO_~1\AppData\Local\Temp\ccKJ5gfE.s 			page 159


 7457 1b4d 1105     		.2byte	0x511
 7458 1b4f D7000000 		.4byte	0xd7
 7459 1b53 02       		.byte	0x2
 7460 1b54 23       		.byte	0x23
 7461 1b55 00       		.uleb128 0
 7462 1b56 18       		.uleb128 0x18
 7463 1b57 020F0000 		.4byte	.LASF408
 7464 1b5b 0F       		.byte	0xf
 7465 1b5c 1505     		.2byte	0x515
 7466 1b5e ED000000 		.4byte	0xed
 7467 1b62 02       		.byte	0x2
 7468 1b63 23       		.byte	0x23
 7469 1b64 04       		.uleb128 0x4
 7470 1b65 18       		.uleb128 0x18
 7471 1b66 E51C0000 		.4byte	.LASF209
 7472 1b6a 0F       		.byte	0xf
 7473 1b6b 1905     		.2byte	0x519
 7474 1b6d ED000000 		.4byte	0xed
 7475 1b71 02       		.byte	0x2
 7476 1b72 23       		.byte	0x23
 7477 1b73 08       		.uleb128 0x8
 7478 1b74 00       		.byte	0
 7479 1b75 0C       		.uleb128 0xc
 7480 1b76 531F0000 		.4byte	.LASF409
 7481 1b7a 0F       		.byte	0xf
 7482 1b7b 1A05     		.2byte	0x51a
 7483 1b7d 3A1B0000 		.4byte	0x1b3a
 7484 1b81 11       		.uleb128 0x11
 7485 1b82 431B0000 		.4byte	.LASF410
 7486 1b86 06       		.byte	0x6
 7487 1b87 10       		.byte	0x10
 7488 1b88 2B       		.byte	0x2b
 7489 1b89 D41B0000 		.4byte	0x1bd4
 7490 1b8d 10       		.uleb128 0x10
 7491 1b8e BB040000 		.4byte	.LASF411
 7492 1b92 10       		.byte	0x10
 7493 1b93 30       		.byte	0x30
 7494 1b94 BC000000 		.4byte	0xbc
 7495 1b98 02       		.byte	0x2
 7496 1b99 23       		.byte	0x23
 7497 1b9a 00       		.uleb128 0
 7498 1b9b 10       		.uleb128 0x10
 7499 1b9c B81D0000 		.4byte	.LASF324
 7500 1ba0 10       		.byte	0x10
 7501 1ba1 34       		.byte	0x34
 7502 1ba2 B1000000 		.4byte	0xb1
 7503 1ba6 02       		.byte	0x2
 7504 1ba7 23       		.byte	0x23
 7505 1ba8 01       		.uleb128 0x1
 7506 1ba9 10       		.uleb128 0x10
 7507 1baa CA1A0000 		.4byte	.LASF341
 7508 1bae 10       		.byte	0x10
 7509 1baf 38       		.byte	0x38
 7510 1bb0 B1000000 		.4byte	0xb1
 7511 1bb4 02       		.byte	0x2
 7512 1bb5 23       		.byte	0x23
 7513 1bb6 02       		.uleb128 0x2
ARM GAS  C:\Users\EBANO_~1\AppData\Local\Temp\ccKJ5gfE.s 			page 160


 7514 1bb7 10       		.uleb128 0x10
 7515 1bb8 7B080000 		.4byte	.LASF412
 7516 1bbc 10       		.byte	0x10
 7517 1bbd 3C       		.byte	0x3c
 7518 1bbe BC000000 		.4byte	0xbc
 7519 1bc2 02       		.byte	0x2
 7520 1bc3 23       		.byte	0x23
 7521 1bc4 03       		.uleb128 0x3
 7522 1bc5 10       		.uleb128 0x10
 7523 1bc6 E80D0000 		.4byte	.LASF413
 7524 1bca 10       		.byte	0x10
 7525 1bcb 40       		.byte	0x40
 7526 1bcc D7000000 		.4byte	0xd7
 7527 1bd0 02       		.byte	0x2
 7528 1bd1 23       		.byte	0x23
 7529 1bd2 04       		.uleb128 0x4
 7530 1bd3 00       		.byte	0
 7531 1bd4 03       		.uleb128 0x3
 7532 1bd5 260C0000 		.4byte	.LASF414
 7533 1bd9 10       		.byte	0x10
 7534 1bda 41       		.byte	0x41
 7535 1bdb 811B0000 		.4byte	0x1b81
 7536 1bdf 11       		.uleb128 0x11
 7537 1be0 14000000 		.4byte	.LASF415
 7538 1be4 20       		.byte	0x20
 7539 1be5 10       		.byte	0x10
 7540 1be6 43       		.byte	0x43
 7541 1be7 CC1C0000 		.4byte	0x1ccc
 7542 1beb 10       		.uleb128 0x10
 7543 1bec 5B080000 		.4byte	.LASF368
 7544 1bf0 10       		.byte	0x10
 7545 1bf1 48       		.byte	0x48
 7546 1bf2 0A0B0000 		.4byte	0xb0a
 7547 1bf6 02       		.byte	0x2
 7548 1bf7 23       		.byte	0x23
 7549 1bf8 00       		.uleb128 0
 7550 1bf9 10       		.uleb128 0x10
 7551 1bfa C2140000 		.4byte	.LASF416
 7552 1bfe 10       		.byte	0x10
 7553 1bff 4C       		.byte	0x4c
 7554 1c00 BC000000 		.4byte	0xbc
 7555 1c04 02       		.byte	0x2
 7556 1c05 23       		.byte	0x23
 7557 1c06 04       		.uleb128 0x4
 7558 1c07 10       		.uleb128 0x10
 7559 1c08 F4010000 		.4byte	.LASF370
 7560 1c0c 10       		.byte	0x10
 7561 1c0d 50       		.byte	0x50
 7562 1c0e 150B0000 		.4byte	0xb15
 7563 1c12 02       		.byte	0x2
 7564 1c13 23       		.byte	0x23
 7565 1c14 05       		.uleb128 0x5
 7566 1c15 10       		.uleb128 0x10
 7567 1c16 B81D0000 		.4byte	.LASF324
 7568 1c1a 10       		.byte	0x10
 7569 1c1b 54       		.byte	0x54
 7570 1c1c B1000000 		.4byte	0xb1
ARM GAS  C:\Users\EBANO_~1\AppData\Local\Temp\ccKJ5gfE.s 			page 161


 7571 1c20 02       		.byte	0x2
 7572 1c21 23       		.byte	0x23
 7573 1c22 06       		.uleb128 0x6
 7574 1c23 10       		.uleb128 0x10
 7575 1c24 CA1A0000 		.4byte	.LASF341
 7576 1c28 10       		.byte	0x10
 7577 1c29 58       		.byte	0x58
 7578 1c2a B1000000 		.4byte	0xb1
 7579 1c2e 02       		.byte	0x2
 7580 1c2f 23       		.byte	0x23
 7581 1c30 07       		.uleb128 0x7
 7582 1c31 10       		.uleb128 0x10
 7583 1c32 BB040000 		.4byte	.LASF411
 7584 1c36 10       		.byte	0x10
 7585 1c37 5C       		.byte	0x5c
 7586 1c38 BC000000 		.4byte	0xbc
 7587 1c3c 02       		.byte	0x2
 7588 1c3d 23       		.byte	0x23
 7589 1c3e 08       		.uleb128 0x8
 7590 1c3f 10       		.uleb128 0x10
 7591 1c40 EC0A0000 		.4byte	.LASF371
 7592 1c44 10       		.byte	0x10
 7593 1c45 60       		.byte	0x60
 7594 1c46 B1000000 		.4byte	0xb1
 7595 1c4a 02       		.byte	0x2
 7596 1c4b 23       		.byte	0x23
 7597 1c4c 09       		.uleb128 0x9
 7598 1c4d 10       		.uleb128 0x10
 7599 1c4e 33140000 		.4byte	.LASF372
 7600 1c52 10       		.byte	0x10
 7601 1c53 64       		.byte	0x64
 7602 1c54 B1000000 		.4byte	0xb1
 7603 1c58 02       		.byte	0x2
 7604 1c59 23       		.byte	0x23
 7605 1c5a 0A       		.uleb128 0xa
 7606 1c5b 10       		.uleb128 0x10
 7607 1c5c 5E1E0000 		.4byte	.LASF373
 7608 1c60 10       		.byte	0x10
 7609 1c61 68       		.byte	0x68
 7610 1c62 B1000000 		.4byte	0xb1
 7611 1c66 02       		.byte	0x2
 7612 1c67 23       		.byte	0x23
 7613 1c68 0B       		.uleb128 0xb
 7614 1c69 10       		.uleb128 0x10
 7615 1c6a 570C0000 		.4byte	.LASF417
 7616 1c6e 10       		.byte	0x10
 7617 1c6f 6C       		.byte	0x6c
 7618 1c70 BC000000 		.4byte	0xbc
 7619 1c74 02       		.byte	0x2
 7620 1c75 23       		.byte	0x23
 7621 1c76 0C       		.uleb128 0xc
 7622 1c77 10       		.uleb128 0x10
 7623 1c78 8D1D0000 		.4byte	.LASF318
 7624 1c7c 10       		.byte	0x10
 7625 1c7d 70       		.byte	0x70
 7626 1c7e 95110000 		.4byte	0x1195
 7627 1c82 02       		.byte	0x2
ARM GAS  C:\Users\EBANO_~1\AppData\Local\Temp\ccKJ5gfE.s 			page 162


 7628 1c83 23       		.byte	0x23
 7629 1c84 10       		.uleb128 0x10
 7630 1c85 10       		.uleb128 0x10
 7631 1c86 48040000 		.4byte	.LASF418
 7632 1c8a 10       		.byte	0x10
 7633 1c8b 74       		.byte	0x74
 7634 1c8c B1000000 		.4byte	0xb1
 7635 1c90 02       		.byte	0x2
 7636 1c91 23       		.byte	0x23
 7637 1c92 14       		.uleb128 0x14
 7638 1c93 10       		.uleb128 0x10
 7639 1c94 C0080000 		.4byte	.LASF419
 7640 1c98 10       		.byte	0x10
 7641 1c99 78       		.byte	0x78
 7642 1c9a B1000000 		.4byte	0xb1
 7643 1c9e 02       		.byte	0x2
 7644 1c9f 23       		.byte	0x23
 7645 1ca0 15       		.uleb128 0x15
 7646 1ca1 10       		.uleb128 0x10
 7647 1ca2 9B0D0000 		.4byte	.LASF319
 7648 1ca6 10       		.byte	0x10
 7649 1ca7 7C       		.byte	0x7c
 7650 1ca8 8F110000 		.4byte	0x118f
 7651 1cac 02       		.byte	0x2
 7652 1cad 23       		.byte	0x23
 7653 1cae 18       		.uleb128 0x18
 7654 1caf 10       		.uleb128 0x10
 7655 1cb0 C4020000 		.4byte	.LASF420
 7656 1cb4 10       		.byte	0x10
 7657 1cb5 80       		.byte	0x80
 7658 1cb6 B1000000 		.4byte	0xb1
 7659 1cba 02       		.byte	0x2
 7660 1cbb 23       		.byte	0x23
 7661 1cbc 1C       		.uleb128 0x1c
 7662 1cbd 10       		.uleb128 0x10
 7663 1cbe 0B050000 		.4byte	.LASF421
 7664 1cc2 10       		.byte	0x10
 7665 1cc3 84       		.byte	0x84
 7666 1cc4 B1000000 		.4byte	0xb1
 7667 1cc8 02       		.byte	0x2
 7668 1cc9 23       		.byte	0x23
 7669 1cca 1D       		.uleb128 0x1d
 7670 1ccb 00       		.byte	0
 7671 1ccc 03       		.uleb128 0x3
 7672 1ccd 0E140000 		.4byte	.LASF422
 7673 1cd1 10       		.byte	0x10
 7674 1cd2 85       		.byte	0x85
 7675 1cd3 DF1B0000 		.4byte	0x1bdf
 7676 1cd7 11       		.uleb128 0x11
 7677 1cd8 9E180000 		.4byte	.LASF423
 7678 1cdc 14       		.byte	0x14
 7679 1cdd 10       		.byte	0x10
 7680 1cde 87       		.byte	0x87
 7681 1cdf 541D0000 		.4byte	0x1d54
 7682 1ce3 10       		.uleb128 0x10
 7683 1ce4 9B0D0000 		.4byte	.LASF319
 7684 1ce8 10       		.byte	0x10
ARM GAS  C:\Users\EBANO_~1\AppData\Local\Temp\ccKJ5gfE.s 			page 163


 7685 1ce9 8C       		.byte	0x8c
 7686 1cea 8F110000 		.4byte	0x118f
 7687 1cee 02       		.byte	0x2
 7688 1cef 23       		.byte	0x23
 7689 1cf0 00       		.uleb128 0
 7690 1cf1 10       		.uleb128 0x10
 7691 1cf2 42140000 		.4byte	.LASF424
 7692 1cf6 10       		.byte	0x10
 7693 1cf7 90       		.byte	0x90
 7694 1cf8 541D0000 		.4byte	0x1d54
 7695 1cfc 02       		.byte	0x2
 7696 1cfd 23       		.byte	0x23
 7697 1cfe 04       		.uleb128 0x4
 7698 1cff 10       		.uleb128 0x10
 7699 1d00 7F210000 		.4byte	.LASF390
 7700 1d04 10       		.byte	0x10
 7701 1d05 94       		.byte	0x94
 7702 1d06 150B0000 		.4byte	0xb15
 7703 1d0a 02       		.byte	0x2
 7704 1d0b 23       		.byte	0x23
 7705 1d0c 08       		.uleb128 0x8
 7706 1d0d 10       		.uleb128 0x10
 7707 1d0e 05110000 		.4byte	.LASF330
 7708 1d12 10       		.byte	0x10
 7709 1d13 98       		.byte	0x98
 7710 1d14 150B0000 		.4byte	0xb15
 7711 1d18 02       		.byte	0x2
 7712 1d19 23       		.byte	0x23
 7713 1d1a 09       		.uleb128 0x9
 7714 1d1b 10       		.uleb128 0x10
 7715 1d1c 71130000 		.4byte	.LASF391
 7716 1d20 10       		.byte	0x10
 7717 1d21 9C       		.byte	0x9c
 7718 1d22 150B0000 		.4byte	0xb15
 7719 1d26 02       		.byte	0x2
 7720 1d27 23       		.byte	0x23
 7721 1d28 0A       		.uleb128 0xa
 7722 1d29 10       		.uleb128 0x10
 7723 1d2a BE190000 		.4byte	.LASF329
 7724 1d2e 10       		.byte	0x10
 7725 1d2f A0       		.byte	0xa0
 7726 1d30 BC000000 		.4byte	0xbc
 7727 1d34 02       		.byte	0x2
 7728 1d35 23       		.byte	0x23
 7729 1d36 0B       		.uleb128 0xb
 7730 1d37 10       		.uleb128 0x10
 7731 1d38 5E0E0000 		.4byte	.LASF392
 7732 1d3c 10       		.byte	0x10
 7733 1d3d A4       		.byte	0xa4
 7734 1d3e 970A0000 		.4byte	0xa97
 7735 1d42 02       		.byte	0x2
 7736 1d43 23       		.byte	0x23
 7737 1d44 0C       		.uleb128 0xc
 7738 1d45 10       		.uleb128 0x10
 7739 1d46 13020000 		.4byte	.LASF393
 7740 1d4a 10       		.byte	0x10
 7741 1d4b A8       		.byte	0xa8
ARM GAS  C:\Users\EBANO_~1\AppData\Local\Temp\ccKJ5gfE.s 			page 164


 7742 1d4c 970A0000 		.4byte	0xa97
 7743 1d50 02       		.byte	0x2
 7744 1d51 23       		.byte	0x23
 7745 1d52 10       		.uleb128 0x10
 7746 1d53 00       		.byte	0
 7747 1d54 0A       		.uleb128 0xa
 7748 1d55 04       		.byte	0x4
 7749 1d56 750B0000 		.4byte	0xb75
 7750 1d5a 03       		.uleb128 0x3
 7751 1d5b 811B0000 		.4byte	.LASF425
 7752 1d5f 10       		.byte	0x10
 7753 1d60 A9       		.byte	0xa9
 7754 1d61 D71C0000 		.4byte	0x1cd7
 7755 1d65 11       		.uleb128 0x11
 7756 1d66 F1030000 		.4byte	.LASF426
 7757 1d6a 14       		.byte	0x14
 7758 1d6b 10       		.byte	0x10
 7759 1d6c AB       		.byte	0xab
 7760 1d6d D41D0000 		.4byte	0x1dd4
 7761 1d71 10       		.uleb128 0x10
 7762 1d72 9A000000 		.4byte	.LASF427
 7763 1d76 10       		.byte	0x10
 7764 1d77 B0       		.byte	0xb0
 7765 1d78 D41D0000 		.4byte	0x1dd4
 7766 1d7c 02       		.byte	0x2
 7767 1d7d 23       		.byte	0x23
 7768 1d7e 00       		.uleb128 0
 7769 1d7f 10       		.uleb128 0x10
 7770 1d80 E51C0000 		.4byte	.LASF209
 7771 1d84 10       		.byte	0x10
 7772 1d85 B4       		.byte	0xb4
 7773 1d86 ED000000 		.4byte	0xed
 7774 1d8a 02       		.byte	0x2
 7775 1d8b 23       		.byte	0x23
 7776 1d8c 04       		.uleb128 0x4
 7777 1d8d 10       		.uleb128 0x10
 7778 1d8e 12040000 		.4byte	.LASF312
 7779 1d92 10       		.byte	0x10
 7780 1d93 B8       		.byte	0xb8
 7781 1d94 BC000000 		.4byte	0xbc
 7782 1d98 02       		.byte	0x2
 7783 1d99 23       		.byte	0x23
 7784 1d9a 08       		.uleb128 0x8
 7785 1d9b 10       		.uleb128 0x10
 7786 1d9c C5060000 		.4byte	.LASF428
 7787 1da0 10       		.byte	0x10
 7788 1da1 BC       		.byte	0xbc
 7789 1da2 BC000000 		.4byte	0xbc
 7790 1da6 02       		.byte	0x2
 7791 1da7 23       		.byte	0x23
 7792 1da8 09       		.uleb128 0x9
 7793 1da9 10       		.uleb128 0x10
 7794 1daa A6120000 		.4byte	.LASF429
 7795 1dae 10       		.byte	0x10
 7796 1daf C0       		.byte	0xc0
 7797 1db0 BC000000 		.4byte	0xbc
 7798 1db4 02       		.byte	0x2
ARM GAS  C:\Users\EBANO_~1\AppData\Local\Temp\ccKJ5gfE.s 			page 165


 7799 1db5 23       		.byte	0x23
 7800 1db6 0A       		.uleb128 0xa
 7801 1db7 10       		.uleb128 0x10
 7802 1db8 020F0000 		.4byte	.LASF408
 7803 1dbc 10       		.byte	0x10
 7804 1dbd C4       		.byte	0xc4
 7805 1dbe ED000000 		.4byte	0xed
 7806 1dc2 02       		.byte	0x2
 7807 1dc3 23       		.byte	0x23
 7808 1dc4 0C       		.uleb128 0xc
 7809 1dc5 10       		.uleb128 0x10
 7810 1dc6 141D0000 		.4byte	.LASF407
 7811 1dca 10       		.byte	0x10
 7812 1dcb C8       		.byte	0xc8
 7813 1dcc D7000000 		.4byte	0xd7
 7814 1dd0 02       		.byte	0x2
 7815 1dd1 23       		.byte	0x23
 7816 1dd2 10       		.uleb128 0x10
 7817 1dd3 00       		.byte	0
 7818 1dd4 0A       		.uleb128 0xa
 7819 1dd5 04       		.byte	0x4
 7820 1dd6 C7000000 		.4byte	0xc7
 7821 1dda 03       		.uleb128 0x3
 7822 1ddb 72010000 		.4byte	.LASF430
 7823 1ddf 10       		.byte	0x10
 7824 1de0 C9       		.byte	0xc9
 7825 1de1 651D0000 		.4byte	0x1d65
 7826 1de5 29       		.uleb128 0x29
 7827 1de6 7B160000 		.4byte	.LASF432
 7828 1dea 11       		.byte	0x11
 7829 1deb 0C01     		.2byte	0x10c
 7830 1ded 3C010000 		.4byte	0x13c
 7831 1df1 05       		.byte	0x5
 7832 1df2 03       		.byte	0x3
 7833 1df3 F8000000 		.4byte	DataratesCN779
 7834 1df7 07       		.uleb128 0x7
 7835 1df8 F8000000 		.4byte	0xf8
 7836 1dfc 071E0000 		.4byte	0x1e07
 7837 1e00 08       		.uleb128 0x8
 7838 1e01 AA000000 		.4byte	0xaa
 7839 1e05 07       		.byte	0x7
 7840 1e06 00       		.byte	0
 7841 1e07 05       		.uleb128 0x5
 7842 1e08 F71D0000 		.4byte	0x1df7
 7843 1e0c 29       		.uleb128 0x29
 7844 1e0d BD180000 		.4byte	.LASF433
 7845 1e11 11       		.byte	0x11
 7846 1e12 1101     		.2byte	0x111
 7847 1e14 071E0000 		.4byte	0x1e07
 7848 1e18 05       		.byte	0x5
 7849 1e19 03       		.byte	0x3
 7850 1e1a D8000000 		.4byte	BandwidthsCN779
 7851 1e1e 29       		.uleb128 0x29
 7852 1e1f E0060000 		.4byte	.LASF434
 7853 1e23 11       		.byte	0x11
 7854 1e24 1601     		.2byte	0x116
 7855 1e26 3C010000 		.4byte	0x13c
ARM GAS  C:\Users\EBANO_~1\AppData\Local\Temp\ccKJ5gfE.s 			page 166


 7856 1e2a 05       		.byte	0x5
 7857 1e2b 03       		.byte	0x3
 7858 1e2c 00010000 		.4byte	MaxPayloadOfDatarateCN779
 7859 1e30 29       		.uleb128 0x29
 7860 1e31 78000000 		.4byte	.LASF435
 7861 1e35 11       		.byte	0x11
 7862 1e36 1B01     		.2byte	0x11b
 7863 1e38 3C010000 		.4byte	0x13c
 7864 1e3c 05       		.byte	0x5
 7865 1e3d 03       		.byte	0x3
 7866 1e3e 08010000 		.4byte	MaxPayloadOfDatarateRepeaterCN779
 7867 1e42 11       		.uleb128 0x11
 7868 1e43 C60C0000 		.4byte	.LASF436
 7869 1e47 D4       		.byte	0xd4
 7870 1e48 01       		.byte	0x1
 7871 1e49 2B       		.byte	0x2b
 7872 1e4a 8A1E0000 		.4byte	0x1e8a
 7873 1e4e 10       		.uleb128 0x10
 7874 1e4f 9B0D0000 		.4byte	.LASF319
 7875 1e53 01       		.byte	0x1
 7876 1e54 30       		.byte	0x30
 7877 1e55 8A1E0000 		.4byte	0x1e8a
 7878 1e59 02       		.byte	0x2
 7879 1e5a 23       		.byte	0x23
 7880 1e5b 00       		.uleb128 0
 7881 1e5c 10       		.uleb128 0x10
 7882 1e5d 42140000 		.4byte	.LASF424
 7883 1e61 01       		.byte	0x1
 7884 1e62 34       		.byte	0x34
 7885 1e63 9A1E0000 		.4byte	0x1e9a
 7886 1e67 03       		.byte	0x3
 7887 1e68 23       		.byte	0x23
 7888 1e69 C001     		.uleb128 0xc0
 7889 1e6b 10       		.uleb128 0x10
 7890 1e6c 8D1D0000 		.4byte	.LASF318
 7891 1e70 01       		.byte	0x1
 7892 1e71 38       		.byte	0x38
 7893 1e72 AA1E0000 		.4byte	0x1eaa
 7894 1e76 03       		.byte	0x3
 7895 1e77 23       		.byte	0x23
 7896 1e78 D001     		.uleb128 0xd0
 7897 1e7a 10       		.uleb128 0x10
 7898 1e7b 90150000 		.4byte	.LASF437
 7899 1e7f 01       		.byte	0x1
 7900 1e80 3C       		.byte	0x3c
 7901 1e81 AA1E0000 		.4byte	0x1eaa
 7902 1e85 03       		.byte	0x3
 7903 1e86 23       		.byte	0x23
 7904 1e87 D201     		.uleb128 0xd2
 7905 1e89 00       		.byte	0
 7906 1e8a 07       		.uleb128 0x7
 7907 1e8b 41110000 		.4byte	0x1141
 7908 1e8f 9A1E0000 		.4byte	0x1e9a
 7909 1e93 08       		.uleb128 0x8
 7910 1e94 AA000000 		.4byte	0xaa
 7911 1e98 0F       		.byte	0xf
 7912 1e99 00       		.byte	0
ARM GAS  C:\Users\EBANO_~1\AppData\Local\Temp\ccKJ5gfE.s 			page 167


 7913 1e9a 07       		.uleb128 0x7
 7914 1e9b 750B0000 		.4byte	0xb75
 7915 1e9f AA1E0000 		.4byte	0x1eaa
 7916 1ea3 08       		.uleb128 0x8
 7917 1ea4 AA000000 		.4byte	0xaa
 7918 1ea8 00       		.byte	0
 7919 1ea9 00       		.byte	0
 7920 1eaa 07       		.uleb128 0x7
 7921 1eab D7000000 		.4byte	0xd7
 7922 1eaf BA1E0000 		.4byte	0x1eba
 7923 1eb3 08       		.uleb128 0x8
 7924 1eb4 AA000000 		.4byte	0xaa
 7925 1eb8 00       		.byte	0
 7926 1eb9 00       		.byte	0
 7927 1eba 03       		.uleb128 0x3
 7928 1ebb DE0B0000 		.4byte	.LASF438
 7929 1ebf 01       		.byte	0x1
 7930 1ec0 3D       		.byte	0x3d
 7931 1ec1 421E0000 		.4byte	0x1e42
 7932 1ec5 2A       		.uleb128 0x2a
 7933 1ec6 4C1F0000 		.4byte	.LASF333
 7934 1eca 01       		.byte	0x1
 7935 1ecb 42       		.byte	0x42
 7936 1ecc BA1E0000 		.4byte	0x1eba
 7937 1ed0 05       		.byte	0x5
 7938 1ed1 03       		.byte	0x3
 7939 1ed2 00000000 		.4byte	NvmCtx
 7940 1ed6 2B       		.uleb128 0x2b
 7941 1ed7 01       		.byte	0x1
 7942 1ed8 63140000 		.4byte	.LASF445
 7943 1edc 01       		.byte	0x1
 7944 1edd ED03     		.2byte	0x3ed
 7945 1edf 01       		.byte	0x1
 7946 1ee0 00000000 		.4byte	.LFB66
 7947 1ee4 38000000 		.4byte	.LFE66
 7948 1ee8 00000000 		.4byte	.LLST113
 7949 1eec 01       		.byte	0x1
 7950 1eed 311F0000 		.4byte	0x1f31
 7951 1ef1 2C       		.uleb128 0x2c
 7952 1ef2 5A1C0000 		.4byte	.LASF439
 7953 1ef6 01       		.byte	0x1
 7954 1ef7 ED03     		.2byte	0x3ed
 7955 1ef9 311F0000 		.4byte	0x1f31
 7956 1efd 2C000000 		.4byte	.LLST114
 7957 1f01 2C       		.uleb128 0x2c
 7958 1f02 210E0000 		.4byte	.LASF440
 7959 1f06 01       		.byte	0x1
 7960 1f07 ED03     		.2byte	0x3ed
 7961 1f09 840A0000 		.4byte	0xa84
 7962 1f0d 4D000000 		.4byte	.LLST115
 7963 1f11 29       		.uleb128 0x29
 7964 1f12 341E0000 		.4byte	.LASF441
 7965 1f16 01       		.byte	0x1
 7966 1f17 EF03     		.2byte	0x3ef
 7967 1f19 DA1D0000 		.4byte	0x1dda
 7968 1f1d 02       		.byte	0x2
 7969 1f1e 91       		.byte	0x91
ARM GAS  C:\Users\EBANO_~1\AppData\Local\Temp\ccKJ5gfE.s 			page 168


 7970 1f1f 64       		.sleb128 -28
 7971 1f20 2D       		.uleb128 0x2d
 7972 1f21 28000000 		.4byte	.LVL334
 7973 1f25 78320000 		.4byte	0x3278
 7974 1f29 2E       		.uleb128 0x2e
 7975 1f2a 01       		.byte	0x1
 7976 1f2b 50       		.byte	0x50
 7977 1f2c 02       		.byte	0x2
 7978 1f2d 91       		.byte	0x91
 7979 1f2e 64       		.sleb128 -28
 7980 1f2f 00       		.byte	0
 7981 1f30 00       		.byte	0
 7982 1f31 0A       		.uleb128 0xa
 7983 1f32 04       		.byte	0x4
 7984 1f33 751B0000 		.4byte	0x1b75
 7985 1f37 2F       		.uleb128 0x2f
 7986 1f38 01       		.byte	0x1
 7987 1f39 23150000 		.4byte	.LASF457
 7988 1f3d 01       		.byte	0x1
 7989 1f3e E203     		.2byte	0x3e2
 7990 1f40 01       		.byte	0x1
 7991 1f41 BC000000 		.4byte	0xbc
 7992 1f45 00000000 		.4byte	.LFB65
 7993 1f49 0E000000 		.4byte	.LFE65
 7994 1f4d 02       		.byte	0x2
 7995 1f4e 7D       		.byte	0x7d
 7996 1f4f 00       		.sleb128 0
 7997 1f50 01       		.byte	0x1
 7998 1f51 9D1F0000 		.4byte	0x1f9d
 7999 1f55 2C       		.uleb128 0x2c
 8000 1f56 B31A0000 		.4byte	.LASF442
 8001 1f5a 01       		.byte	0x1
 8002 1f5b E203     		.2byte	0x3e2
 8003 1f5d BC000000 		.4byte	0xbc
 8004 1f61 79000000 		.4byte	.LLST111
 8005 1f65 30       		.uleb128 0x30
 8006 1f66 647200   		.ascii	"dr\000"
 8007 1f69 01       		.byte	0x1
 8008 1f6a E203     		.2byte	0x3e2
 8009 1f6c B1000000 		.4byte	0xb1
 8010 1f70 9A000000 		.4byte	.LLST112
 8011 1f74 31       		.uleb128 0x31
 8012 1f75 E6200000 		.4byte	.LASF443
 8013 1f79 01       		.byte	0x1
 8014 1f7a E203     		.2byte	0x3e2
 8015 1f7c B1000000 		.4byte	0xb1
 8016 1f80 01       		.byte	0x1
 8017 1f81 52       		.byte	0x52
 8018 1f82 29       		.uleb128 0x29
 8019 1f83 EB040000 		.4byte	.LASF444
 8020 1f87 01       		.byte	0x1
 8021 1f88 E403     		.2byte	0x3e4
 8022 1f8a B1000000 		.4byte	0xb1
 8023 1f8e 0D       		.byte	0xd
 8024 1f8f 71       		.byte	0x71
 8025 1f90 00       		.sleb128 0
 8026 1f91 12       		.byte	0x12
ARM GAS  C:\Users\EBANO_~1\AppData\Local\Temp\ccKJ5gfE.s 			page 169


 8027 1f92 30       		.byte	0x30
 8028 1f93 16       		.byte	0x16
 8029 1f94 14       		.byte	0x14
 8030 1f95 2B       		.byte	0x2b
 8031 1f96 28       		.byte	0x28
 8032 1f97 0100     		.2byte	0x1
 8033 1f99 16       		.byte	0x16
 8034 1f9a 13       		.byte	0x13
 8035 1f9b 9F       		.byte	0x9f
 8036 1f9c 00       		.byte	0
 8037 1f9d 2B       		.uleb128 0x2b
 8038 1f9e 01       		.byte	0x1
 8039 1f9f 7F120000 		.4byte	.LASF446
 8040 1fa3 01       		.byte	0x1
 8041 1fa4 D603     		.2byte	0x3d6
 8042 1fa6 01       		.byte	0x1
 8043 1fa7 00000000 		.4byte	.LFB64
 8044 1fab 50000000 		.4byte	.LFE64
 8045 1faf BB000000 		.4byte	.LLST106
 8046 1fb3 01       		.byte	0x1
 8047 1fb4 49200000 		.4byte	0x2049
 8048 1fb8 2C       		.uleb128 0x2c
 8049 1fb9 42060000 		.4byte	.LASF447
 8050 1fbd 01       		.byte	0x1
 8051 1fbe D603     		.2byte	0x3d6
 8052 1fc0 49200000 		.4byte	0x2049
 8053 1fc4 E7000000 		.4byte	.LLST107
 8054 1fc8 32       		.uleb128 0x32
 8055 1fc9 A6130000 		.4byte	.LASF450
 8056 1fcd 01       		.byte	0x1
 8057 1fce D803     		.2byte	0x3d8
 8058 1fd0 B1000000 		.4byte	0xb1
 8059 1fd4 33       		.uleb128 0x33
 8060 1fd5 51060000 		.4byte	.LASF448
 8061 1fd9 01       		.byte	0x1
 8062 1fda D903     		.2byte	0x3d9
 8063 1fdc B1000000 		.4byte	0xb1
 8064 1fe0 13010000 		.4byte	.LLST108
 8065 1fe4 33       		.uleb128 0x33
 8066 1fe5 15200000 		.4byte	.LASF449
 8067 1fe9 01       		.byte	0x1
 8068 1fea DA03     		.2byte	0x3da
 8069 1fec ED000000 		.4byte	0xed
 8070 1ff0 32010000 		.4byte	.LLST109
 8071 1ff4 34       		.uleb128 0x34
 8072 1ff5 43300000 		.4byte	0x3043
 8073 1ff9 14000000 		.4byte	.LBB145
 8074 1ffd 18020000 		.4byte	.Ldebug_ranges0+0x218
 8075 2001 01       		.byte	0x1
 8076 2002 D803     		.2byte	0x3d8
 8077 2004 33200000 		.4byte	0x2033
 8078 2008 35       		.uleb128 0x35
 8079 2009 6A300000 		.4byte	0x306a
 8080 200d 45010000 		.4byte	.LLST110
 8081 2011 36       		.uleb128 0x36
 8082 2012 75300000 		.4byte	0x3075
 8083 2016 06       		.byte	0x6
ARM GAS  C:\Users\EBANO_~1\AppData\Local\Temp\ccKJ5gfE.s 			page 170


 8084 2017 03       		.byte	0x3
 8085 2018 D0000000 		.4byte	NvmCtx+208
 8086 201c 9F       		.byte	0x9f
 8087 201d 37       		.uleb128 0x37
 8088 201e 5F300000 		.4byte	0x305f
 8089 2022 37       		.uleb128 0x37
 8090 2023 54300000 		.4byte	0x3054
 8091 2027 38       		.uleb128 0x38
 8092 2028 18020000 		.4byte	.Ldebug_ranges0+0x218
 8093 202c 39       		.uleb128 0x39
 8094 202d 80300000 		.4byte	0x3080
 8095 2031 00       		.byte	0
 8096 2032 00       		.byte	0
 8097 2033 3A       		.uleb128 0x3a
 8098 2034 36000000 		.4byte	.LVL323
 8099 2038 86320000 		.4byte	0x3286
 8100 203c 3B       		.uleb128 0x3b
 8101 203d 44000000 		.4byte	.LVL325
 8102 2041 2E       		.uleb128 0x2e
 8103 2042 01       		.byte	0x1
 8104 2043 50       		.byte	0x50
 8105 2044 02       		.byte	0x2
 8106 2045 75       		.byte	0x75
 8107 2046 00       		.sleb128 0
 8108 2047 00       		.byte	0
 8109 2048 00       		.byte	0
 8110 2049 0A       		.uleb128 0xa
 8111 204a 04       		.byte	0x4
 8112 204b 2E1B0000 		.4byte	0x1b2e
 8113 204f 3C       		.uleb128 0x3c
 8114 2050 01       		.byte	0x1
 8115 2051 35190000 		.4byte	.LASF451
 8116 2055 01       		.byte	0x1
 8117 2056 C703     		.2byte	0x3c7
 8118 2058 01       		.byte	0x1
 8119 2059 150B0000 		.4byte	0xb15
 8120 205d 01       		.byte	0x1
 8121 205e 7A200000 		.4byte	0x207a
 8122 2062 3D       		.uleb128 0x3d
 8123 2063 EA1F0000 		.4byte	.LASF453
 8124 2067 01       		.byte	0x1
 8125 2068 C703     		.2byte	0x3c7
 8126 206a 7A200000 		.4byte	0x207a
 8127 206e 3E       		.uleb128 0x3e
 8128 206f 696400   		.ascii	"id\000"
 8129 2072 01       		.byte	0x1
 8130 2073 C903     		.2byte	0x3c9
 8131 2075 BC000000 		.4byte	0xbc
 8132 2079 00       		.byte	0
 8133 207a 0A       		.uleb128 0xa
 8134 207b 04       		.byte	0x4
 8135 207c BA1A0000 		.4byte	0x1aba
 8136 2080 3C       		.uleb128 0x3c
 8137 2081 01       		.byte	0x1
 8138 2082 D4130000 		.4byte	.LASF452
 8139 2086 01       		.byte	0x1
 8140 2087 8C03     		.2byte	0x38c
ARM GAS  C:\Users\EBANO_~1\AppData\Local\Temp\ccKJ5gfE.s 			page 171


 8141 2089 01       		.byte	0x1
 8142 208a 38120000 		.4byte	0x1238
 8143 208e 01       		.byte	0x1
 8144 208f C3200000 		.4byte	0x20c3
 8145 2093 3D       		.uleb128 0x3d
 8146 2094 55130000 		.4byte	.LASF454
 8147 2098 01       		.byte	0x1
 8148 2099 8C03     		.2byte	0x38c
 8149 209b C3200000 		.4byte	0x20c3
 8150 209f 32       		.uleb128 0x32
 8151 20a0 75210000 		.4byte	.LASF455
 8152 20a4 01       		.byte	0x1
 8153 20a5 8E03     		.2byte	0x38e
 8154 20a7 150B0000 		.4byte	0xb15
 8155 20ab 32       		.uleb128 0x32
 8156 20ac 31210000 		.4byte	.LASF456
 8157 20b0 01       		.byte	0x1
 8158 20b1 8F03     		.2byte	0x38f
 8159 20b3 150B0000 		.4byte	0xb15
 8160 20b7 3E       		.uleb128 0x3e
 8161 20b8 696400   		.ascii	"id\000"
 8162 20bb 01       		.byte	0x1
 8163 20bc 9003     		.2byte	0x390
 8164 20be BC000000 		.4byte	0xbc
 8165 20c2 00       		.byte	0
 8166 20c3 0A       		.uleb128 0xa
 8167 20c4 04       		.byte	0x4
 8168 20c5 911A0000 		.4byte	0x1a91
 8169 20c9 3F       		.uleb128 0x3f
 8170 20ca 01       		.byte	0x1
 8171 20cb F4040000 		.4byte	.LASF458
 8172 20cf 01       		.byte	0x1
 8173 20d0 5603     		.2byte	0x356
 8174 20d2 01       		.byte	0x1
 8175 20d3 38120000 		.4byte	0x1238
 8176 20d7 00000000 		.4byte	.LFB61
 8177 20db BC010000 		.4byte	.LFE61
 8178 20df 65010000 		.4byte	.LLST77
 8179 20e3 01       		.byte	0x1
 8180 20e4 A9220000 		.4byte	0x22a9
 8181 20e8 2C       		.uleb128 0x2c
 8182 20e9 E2180000 		.4byte	.LASF459
 8183 20ed 01       		.byte	0x1
 8184 20ee 5603     		.2byte	0x356
 8185 20f0 A9220000 		.4byte	0x22a9
 8186 20f4 9E010000 		.4byte	.LLST78
 8187 20f8 2C       		.uleb128 0x2c
 8188 20f9 C40F0000 		.4byte	.LASF460
 8189 20fd 01       		.byte	0x1
 8190 20fe 5603     		.2byte	0x356
 8191 2100 840A0000 		.4byte	0xa84
 8192 2104 FC010000 		.4byte	.LLST79
 8193 2108 2C       		.uleb128 0x2c
 8194 2109 320A0000 		.4byte	.LASF461
 8195 210d 01       		.byte	0x1
 8196 210e 5603     		.2byte	0x356
 8197 2110 AF220000 		.4byte	0x22af
ARM GAS  C:\Users\EBANO_~1\AppData\Local\Temp\ccKJ5gfE.s 			page 172


 8198 2114 1B020000 		.4byte	.LLST80
 8199 2118 2C       		.uleb128 0x2c
 8200 2119 BA0D0000 		.4byte	.LASF462
 8201 211d 01       		.byte	0x1
 8202 211e 5603     		.2byte	0x356
 8203 2120 AF220000 		.4byte	0x22af
 8204 2124 52020000 		.4byte	.LLST81
 8205 2128 33       		.uleb128 0x33
 8206 2129 21160000 		.4byte	.LASF463
 8207 212d 01       		.byte	0x1
 8208 212e 5803     		.2byte	0x358
 8209 2130 BC000000 		.4byte	0xbc
 8210 2134 B0020000 		.4byte	.LLST82
 8211 2138 33       		.uleb128 0x33
 8212 2139 22070000 		.4byte	.LASF464
 8213 213d 01       		.byte	0x1
 8214 213e 5903     		.2byte	0x359
 8215 2140 BC000000 		.4byte	0xbc
 8216 2144 DC020000 		.4byte	.LLST83
 8217 2148 29       		.uleb128 0x29
 8218 2149 7B1A0000 		.4byte	.LASF465
 8219 214d 01       		.byte	0x1
 8220 214e 5A03     		.2byte	0x35a
 8221 2150 B5220000 		.4byte	0x22b5
 8222 2154 02       		.byte	0x2
 8223 2155 91       		.byte	0x91
 8224 2156 48       		.sleb128 -56
 8225 2157 33       		.uleb128 0x33
 8226 2158 D2160000 		.4byte	.LASF466
 8227 215c 01       		.byte	0x1
 8228 215d 5B03     		.2byte	0x35b
 8229 215f 970A0000 		.4byte	0xa97
 8230 2163 22030000 		.4byte	.LLST84
 8231 2167 34       		.uleb128 0x34
 8232 2168 922F0000 		.4byte	0x2f92
 8233 216c 6A000000 		.4byte	.LBB121
 8234 2170 A0010000 		.4byte	.Ldebug_ranges0+0x1a0
 8235 2174 01       		.byte	0x1
 8236 2175 6B03     		.2byte	0x36b
 8237 2177 2C220000 		.4byte	0x222c
 8238 217b 35       		.uleb128 0x35
 8239 217c B92F0000 		.4byte	0x2fb9
 8240 2180 7F030000 		.4byte	.LLST85
 8241 2184 35       		.uleb128 0x35
 8242 2185 C42F0000 		.4byte	0x2fc4
 8243 2189 A7030000 		.4byte	.LLST86
 8244 218d 35       		.uleb128 0x35
 8245 218e CF2F0000 		.4byte	0x2fcf
 8246 2192 CF030000 		.4byte	.LLST87
 8247 2196 35       		.uleb128 0x35
 8248 2197 E52F0000 		.4byte	0x2fe5
 8249 219b 09040000 		.4byte	.LLST88
 8250 219f 35       		.uleb128 0x35
 8251 21a0 DA2F0000 		.4byte	0x2fda
 8252 21a4 31040000 		.4byte	.LLST89
 8253 21a8 35       		.uleb128 0x35
 8254 21a9 AE2F0000 		.4byte	0x2fae
ARM GAS  C:\Users\EBANO_~1\AppData\Local\Temp\ccKJ5gfE.s 			page 173


 8255 21ad 83040000 		.4byte	.LLST90
 8256 21b1 35       		.uleb128 0x35
 8257 21b2 A32F0000 		.4byte	0x2fa3
 8258 21b6 A5040000 		.4byte	.LLST91
 8259 21ba 38       		.uleb128 0x38
 8260 21bb A0010000 		.4byte	.Ldebug_ranges0+0x1a0
 8261 21bf 40       		.uleb128 0x40
 8262 21c0 F02F0000 		.4byte	0x2ff0
 8263 21c4 ED040000 		.4byte	.LLST92
 8264 21c8 40       		.uleb128 0x40
 8265 21c9 FB2F0000 		.4byte	0x2ffb
 8266 21cd 65050000 		.4byte	.LLST93
 8267 21d1 41       		.uleb128 0x41
 8268 21d2 06300000 		.4byte	0x3006
 8269 21d6 C8010000 		.4byte	.Ldebug_ranges0+0x1c8
 8270 21da 40       		.uleb128 0x40
 8271 21db 07300000 		.4byte	0x3007
 8272 21df B9050000 		.4byte	.LLST94
 8273 21e3 40       		.uleb128 0x40
 8274 21e4 10300000 		.4byte	0x3010
 8275 21e8 B9050000 		.4byte	.LLST94
 8276 21ec 41       		.uleb128 0x41
 8277 21ed 19300000 		.4byte	0x3019
 8278 21f1 C8010000 		.4byte	.Ldebug_ranges0+0x1c8
 8279 21f5 40       		.uleb128 0x40
 8280 21f6 1A300000 		.4byte	0x301a
 8281 21fa D9050000 		.4byte	.LLST96
 8282 21fe 42       		.uleb128 0x42
 8283 21ff BE000000 		.4byte	.LVL268
 8284 2203 94320000 		.4byte	0x3294
 8285 2207 15220000 		.4byte	0x2215
 8286 220b 2E       		.uleb128 0x2e
 8287 220c 01       		.byte	0x1
 8288 220d 50       		.byte	0x50
 8289 220e 05       		.byte	0x5
 8290 220f 91       		.byte	0x91
 8291 2210 B47F     		.sleb128 -76
 8292 2212 94       		.byte	0x94
 8293 2213 01       		.byte	0x1
 8294 2214 00       		.byte	0
 8295 2215 2D       		.uleb128 0x2d
 8296 2216 6A010000 		.4byte	.LVL283
 8297 221a 94320000 		.4byte	0x3294
 8298 221e 2E       		.uleb128 0x2e
 8299 221f 01       		.byte	0x1
 8300 2220 50       		.byte	0x50
 8301 2221 05       		.byte	0x5
 8302 2222 91       		.byte	0x91
 8303 2223 B47F     		.sleb128 -76
 8304 2225 94       		.byte	0x94
 8305 2226 01       		.byte	0x1
 8306 2227 00       		.byte	0
 8307 2228 00       		.byte	0
 8308 2229 00       		.byte	0
 8309 222a 00       		.byte	0
 8310 222b 00       		.byte	0
 8311 222c 42       		.uleb128 0x42
ARM GAS  C:\Users\EBANO_~1\AppData\Local\Temp\ccKJ5gfE.s 			page 174


 8312 222d 20000000 		.4byte	.LVL252
 8313 2231 A1320000 		.4byte	0x32a1
 8314 2235 4A220000 		.4byte	0x224a
 8315 2239 2E       		.uleb128 0x2e
 8316 223a 01       		.byte	0x1
 8317 223b 50       		.byte	0x50
 8318 223c 02       		.byte	0x2
 8319 223d 91       		.byte	0x91
 8320 223e 48       		.sleb128 -56
 8321 223f 2E       		.uleb128 0x2e
 8322 2240 01       		.byte	0x1
 8323 2241 51       		.byte	0x51
 8324 2242 01       		.byte	0x1
 8325 2243 30       		.byte	0x30
 8326 2244 2E       		.uleb128 0x2e
 8327 2245 01       		.byte	0x1
 8328 2246 52       		.byte	0x52
 8329 2247 01       		.byte	0x1
 8330 2248 40       		.byte	0x40
 8331 2249 00       		.byte	0
 8332 224a 42       		.uleb128 0x42
 8333 224b 2C000000 		.4byte	.LVL253
 8334 224f B2320000 		.4byte	0x32b2
 8335 2253 68220000 		.4byte	0x2268
 8336 2257 2E       		.uleb128 0x2e
 8337 2258 01       		.byte	0x1
 8338 2259 50       		.byte	0x50
 8339 225a 02       		.byte	0x2
 8340 225b 75       		.byte	0x75
 8341 225c 00       		.sleb128 0
 8342 225d 2E       		.uleb128 0x2e
 8343 225e 01       		.byte	0x1
 8344 225f 51       		.byte	0x51
 8345 2260 01       		.byte	0x1
 8346 2261 30       		.byte	0x30
 8347 2262 2E       		.uleb128 0x2e
 8348 2263 01       		.byte	0x1
 8349 2264 52       		.byte	0x52
 8350 2265 01       		.byte	0x1
 8351 2266 31       		.byte	0x31
 8352 2267 00       		.byte	0
 8353 2268 3A       		.uleb128 0x3a
 8354 2269 44000000 		.4byte	.LVL254
 8355 226d C0320000 		.4byte	0x32c0
 8356 2271 42       		.uleb128 0x42
 8357 2272 5A000000 		.4byte	.LVL255
 8358 2276 CD320000 		.4byte	0x32cd
 8359 227a 8A220000 		.4byte	0x228a
 8360 227e 2E       		.uleb128 0x2e
 8361 227f 01       		.byte	0x1
 8362 2280 52       		.byte	0x52
 8363 2281 02       		.byte	0x2
 8364 2282 75       		.byte	0x75
 8365 2283 00       		.sleb128 0
 8366 2284 2E       		.uleb128 0x2e
 8367 2285 01       		.byte	0x1
 8368 2286 53       		.byte	0x53
ARM GAS  C:\Users\EBANO_~1\AppData\Local\Temp\ccKJ5gfE.s 			page 175


 8369 2287 01       		.byte	0x1
 8370 2288 31       		.byte	0x31
 8371 2289 00       		.byte	0
 8372 228a 3A       		.uleb128 0x3a
 8373 228b 16010000 		.4byte	.LVL274
 8374 228f C0320000 		.4byte	0x32c0
 8375 2293 2D       		.uleb128 0x2d
 8376 2294 A2010000 		.4byte	.LVL289
 8377 2298 DB320000 		.4byte	0x32db
 8378 229c 2E       		.uleb128 0x2e
 8379 229d 01       		.byte	0x1
 8380 229e 50       		.byte	0x50
 8381 229f 01       		.byte	0x1
 8382 22a0 30       		.byte	0x30
 8383 22a1 2E       		.uleb128 0x2e
 8384 22a2 01       		.byte	0x1
 8385 22a3 51       		.byte	0x51
 8386 22a4 02       		.byte	0x2
 8387 22a5 78       		.byte	0x78
 8388 22a6 7F       		.sleb128 -1
 8389 22a7 00       		.byte	0
 8390 22a8 00       		.byte	0
 8391 22a9 0A       		.uleb128 0xa
 8392 22aa 04       		.byte	0x4
 8393 22ab 591A0000 		.4byte	0x1a59
 8394 22af 0A       		.uleb128 0xa
 8395 22b0 04       		.byte	0x4
 8396 22b1 970A0000 		.4byte	0xa97
 8397 22b5 07       		.uleb128 0x7
 8398 22b6 BC000000 		.4byte	0xbc
 8399 22ba C5220000 		.4byte	0x22c5
 8400 22be 08       		.uleb128 0x8
 8401 22bf AA000000 		.4byte	0xaa
 8402 22c3 0F       		.byte	0xf
 8403 22c4 00       		.byte	0
 8404 22c5 2B       		.uleb128 0x2b
 8405 22c6 01       		.byte	0x1
 8406 22c7 01060000 		.4byte	.LASF467
 8407 22cb 01       		.byte	0x1
 8408 22cc 4603     		.2byte	0x346
 8409 22ce 01       		.byte	0x1
 8410 22cf 00000000 		.4byte	.LFB60
 8411 22d3 34000000 		.4byte	.LFE60
 8412 22d7 4E060000 		.4byte	.LLST75
 8413 22db 01       		.byte	0x1
 8414 22dc 10230000 		.4byte	0x2310
 8415 22e0 2C       		.uleb128 0x2c
 8416 22e1 030D0000 		.4byte	.LASF468
 8417 22e5 01       		.byte	0x1
 8418 22e6 4603     		.2byte	0x346
 8419 22e8 10230000 		.4byte	0x2310
 8420 22ec 7A060000 		.4byte	.LLST76
 8421 22f0 29       		.uleb128 0x29
 8422 22f1 3A1F0000 		.4byte	.LASF469
 8423 22f5 01       		.byte	0x1
 8424 22f6 4803     		.2byte	0x348
 8425 22f8 5A1D0000 		.4byte	0x1d5a
ARM GAS  C:\Users\EBANO_~1\AppData\Local\Temp\ccKJ5gfE.s 			page 176


 8426 22fc 02       		.byte	0x2
 8427 22fd 91       		.byte	0x91
 8428 22fe 64       		.sleb128 -28
 8429 22ff 2D       		.uleb128 0x2d
 8430 2300 2C000000 		.4byte	.LVL247
 8431 2304 E8320000 		.4byte	0x32e8
 8432 2308 2E       		.uleb128 0x2e
 8433 2309 01       		.byte	0x1
 8434 230a 50       		.byte	0x50
 8435 230b 02       		.byte	0x2
 8436 230c 91       		.byte	0x91
 8437 230d 64       		.sleb128 -28
 8438 230e 00       		.byte	0
 8439 230f 00       		.byte	0
 8440 2310 0A       		.uleb128 0xa
 8441 2311 04       		.byte	0x4
 8442 2312 F4190000 		.4byte	0x19f4
 8443 2316 2F       		.uleb128 0x2f
 8444 2317 01       		.byte	0x1
 8445 2318 FB1D0000 		.4byte	.LASF470
 8446 231c 01       		.byte	0x1
 8447 231d 4103     		.2byte	0x341
 8448 231f 01       		.byte	0x1
 8449 2320 B1000000 		.4byte	0xb1
 8450 2324 00000000 		.4byte	.LFB59
 8451 2328 02000000 		.4byte	.LFE59
 8452 232c 02       		.byte	0x2
 8453 232d 7D       		.byte	0x7d
 8454 232e 00       		.sleb128 0
 8455 232f 01       		.byte	0x1
 8456 2330 51230000 		.4byte	0x2351
 8457 2334 31       		.uleb128 0x31
 8458 2335 82130000 		.4byte	.LASF471
 8459 2339 01       		.byte	0x1
 8460 233a 4103     		.2byte	0x341
 8461 233c B1000000 		.4byte	0xb1
 8462 2340 01       		.byte	0x1
 8463 2341 50       		.byte	0x50
 8464 2342 31       		.uleb128 0x31
 8465 2343 66050000 		.4byte	.LASF472
 8466 2347 01       		.byte	0x1
 8467 2348 4103     		.2byte	0x341
 8468 234a 80190000 		.4byte	0x1980
 8469 234e 01       		.byte	0x1
 8470 234f 51       		.byte	0x51
 8471 2350 00       		.byte	0
 8472 2351 3F       		.uleb128 0x3f
 8473 2352 01       		.byte	0x1
 8474 2353 D40A0000 		.4byte	.LASF473
 8475 2357 01       		.byte	0x1
 8476 2358 2803     		.2byte	0x328
 8477 235a 01       		.byte	0x1
 8478 235b BC000000 		.4byte	0xbc
 8479 235f 00000000 		.4byte	.LFB58
 8480 2363 70000000 		.4byte	.LFE58
 8481 2367 9B060000 		.4byte	.LLST71
 8482 236b 01       		.byte	0x1
ARM GAS  C:\Users\EBANO_~1\AppData\Local\Temp\ccKJ5gfE.s 			page 177


 8483 236c B7230000 		.4byte	0x23b7
 8484 2370 2C       		.uleb128 0x2c
 8485 2371 A3110000 		.4byte	.LASF474
 8486 2375 01       		.byte	0x1
 8487 2376 2803     		.2byte	0x328
 8488 2378 B7230000 		.4byte	0x23b7
 8489 237c C7060000 		.4byte	.LLST72
 8490 2380 33       		.uleb128 0x33
 8491 2381 3C120000 		.4byte	.LASF475
 8492 2385 01       		.byte	0x1
 8493 2386 2A03     		.2byte	0x32a
 8494 2388 BC000000 		.4byte	0xbc
 8495 238c FE060000 		.4byte	.LLST73
 8496 2390 43       		.uleb128 0x43
 8497 2391 26300000 		.4byte	0x3026
 8498 2395 02000000 		.4byte	.LBB111
 8499 2399 80010000 		.4byte	.Ldebug_ranges0+0x180
 8500 239d 01       		.byte	0x1
 8501 239e 2D03     		.2byte	0x32d
 8502 23a0 35       		.uleb128 0x35
 8503 23a1 37300000 		.4byte	0x3037
 8504 23a5 36070000 		.4byte	.LLST74
 8505 23a9 3B       		.uleb128 0x3b
 8506 23aa 12000000 		.4byte	.LVL237
 8507 23ae 2E       		.uleb128 0x2e
 8508 23af 01       		.byte	0x1
 8509 23b0 50       		.byte	0x50
 8510 23b1 02       		.byte	0x2
 8511 23b2 74       		.byte	0x74
 8512 23b3 00       		.sleb128 0
 8513 23b4 00       		.byte	0
 8514 23b5 00       		.byte	0
 8515 23b6 00       		.byte	0
 8516 23b7 0A       		.uleb128 0xa
 8517 23b8 04       		.byte	0x4
 8518 23b9 55190000 		.4byte	0x1955
 8519 23bd 2F       		.uleb128 0x2f
 8520 23be 01       		.byte	0x1
 8521 23bf 7E060000 		.4byte	.LASF476
 8522 23c3 01       		.byte	0x1
 8523 23c4 2303     		.2byte	0x323
 8524 23c6 01       		.byte	0x1
 8525 23c7 B1000000 		.4byte	0xb1
 8526 23cb 00000000 		.4byte	.LFB57
 8527 23cf 06000000 		.4byte	.LFE57
 8528 23d3 02       		.byte	0x2
 8529 23d4 7D       		.byte	0x7d
 8530 23d5 00       		.sleb128 0
 8531 23d6 01       		.byte	0x1
 8532 23d7 EC230000 		.4byte	0x23ec
 8533 23db 2C       		.uleb128 0x2c
 8534 23dc 7D1D0000 		.4byte	.LASF477
 8535 23e0 01       		.byte	0x1
 8536 23e1 2303     		.2byte	0x323
 8537 23e3 EC230000 		.4byte	0x23ec
 8538 23e7 76070000 		.4byte	.LLST70
 8539 23eb 00       		.byte	0
ARM GAS  C:\Users\EBANO_~1\AppData\Local\Temp\ccKJ5gfE.s 			page 178


 8540 23ec 0A       		.uleb128 0xa
 8541 23ed 04       		.byte	0x4
 8542 23ee 1D190000 		.4byte	0x191d
 8543 23f2 3F       		.uleb128 0x3f
 8544 23f3 01       		.byte	0x1
 8545 23f4 39170000 		.4byte	.LASF478
 8546 23f8 01       		.byte	0x1
 8547 23f9 EE02     		.2byte	0x2ee
 8548 23fb 01       		.byte	0x1
 8549 23fc BC000000 		.4byte	0xbc
 8550 2400 00000000 		.4byte	.LFB56
 8551 2404 08010000 		.4byte	.LFE56
 8552 2408 97070000 		.4byte	.LLST62
 8553 240c 01       		.byte	0x1
 8554 240d 71250000 		.4byte	0x2571
 8555 2411 2C       		.uleb128 0x2c
 8556 2412 CF020000 		.4byte	.LASF479
 8557 2416 01       		.byte	0x1
 8558 2417 EE02     		.2byte	0x2ee
 8559 2419 71250000 		.4byte	0x2571
 8560 241d CF070000 		.4byte	.LLST63
 8561 2421 44       		.uleb128 0x44
 8562 2422 3C120000 		.4byte	.LASF475
 8563 2426 01       		.byte	0x1
 8564 2427 F002     		.2byte	0x2f0
 8565 2429 BC000000 		.4byte	0xbc
 8566 242d 03       		.byte	0x3
 8567 242e 32       		.uleb128 0x32
 8568 242f 55130000 		.4byte	.LASF454
 8569 2433 01       		.byte	0x1
 8570 2434 F102     		.2byte	0x2f1
 8571 2436 911A0000 		.4byte	0x1a91
 8572 243a 32       		.uleb128 0x32
 8573 243b EA1F0000 		.4byte	.LASF453
 8574 243f 01       		.byte	0x1
 8575 2440 F202     		.2byte	0x2f2
 8576 2442 BA1A0000 		.4byte	0x1aba
 8577 2446 34       		.uleb128 0x34
 8578 2447 4F200000 		.4byte	0x204f
 8579 244b 12000000 		.4byte	.LBB93
 8580 244f 20010000 		.4byte	.Ldebug_ranges0+0x120
 8581 2453 01       		.byte	0x1
 8582 2454 F902     		.2byte	0x2f9
 8583 2456 B7240000 		.4byte	0x24b7
 8584 245a 35       		.uleb128 0x35
 8585 245b 62200000 		.4byte	0x2062
 8586 245f 22080000 		.4byte	.LLST64
 8587 2463 38       		.uleb128 0x38
 8588 2464 20010000 		.4byte	.Ldebug_ranges0+0x120
 8589 2468 40       		.uleb128 0x40
 8590 2469 6E200000 		.4byte	0x206e
 8591 246d 4A080000 		.4byte	.LLST65
 8592 2471 42       		.uleb128 0x42
 8593 2472 BE000000 		.4byte	.LVL225
 8594 2476 A1320000 		.4byte	0x32a1
 8595 247a 99240000 		.4byte	0x2499
 8596 247e 2E       		.uleb128 0x2e
ARM GAS  C:\Users\EBANO_~1\AppData\Local\Temp\ccKJ5gfE.s 			page 179


 8597 247f 01       		.byte	0x1
 8598 2480 50       		.byte	0x50
 8599 2481 0C       		.byte	0xc
 8600 2482 75       		.byte	0x75
 8601 2483 00       		.sleb128 0
 8602 2484 31       		.byte	0x31
 8603 2485 24       		.byte	0x24
 8604 2486 75       		.byte	0x75
 8605 2487 00       		.sleb128 0
 8606 2488 22       		.byte	0x22
 8607 2489 32       		.byte	0x32
 8608 248a 24       		.byte	0x24
 8609 248b 74       		.byte	0x74
 8610 248c 00       		.sleb128 0
 8611 248d 22       		.byte	0x22
 8612 248e 2E       		.uleb128 0x2e
 8613 248f 01       		.byte	0x1
 8614 2490 51       		.byte	0x51
 8615 2491 01       		.byte	0x1
 8616 2492 30       		.byte	0x30
 8617 2493 2E       		.uleb128 0x2e
 8618 2494 01       		.byte	0x1
 8619 2495 52       		.byte	0x52
 8620 2496 01       		.byte	0x1
 8621 2497 3C       		.byte	0x3c
 8622 2498 00       		.byte	0
 8623 2499 2D       		.uleb128 0x2d
 8624 249a CA000000 		.4byte	.LVL226
 8625 249e F6320000 		.4byte	0x32f6
 8626 24a2 2E       		.uleb128 0x2e
 8627 24a3 01       		.byte	0x1
 8628 24a4 50       		.byte	0x50
 8629 24a5 03       		.byte	0x3
 8630 24a6 74       		.byte	0x74
 8631 24a7 D001     		.sleb128 208
 8632 24a9 2E       		.uleb128 0x2e
 8633 24aa 01       		.byte	0x1
 8634 24ab 51       		.byte	0x51
 8635 24ac 02       		.byte	0x2
 8636 24ad 75       		.byte	0x75
 8637 24ae 00       		.sleb128 0
 8638 24af 2E       		.uleb128 0x2e
 8639 24b0 01       		.byte	0x1
 8640 24b1 52       		.byte	0x52
 8641 24b2 01       		.byte	0x1
 8642 24b3 40       		.byte	0x40
 8643 24b4 00       		.byte	0
 8644 24b5 00       		.byte	0
 8645 24b6 00       		.byte	0
 8646 24b7 43       		.uleb128 0x43
 8647 24b8 80200000 		.4byte	0x2080
 8648 24bc 20000000 		.4byte	.LBB96
 8649 24c0 38010000 		.4byte	.Ldebug_ranges0+0x138
 8650 24c4 01       		.byte	0x1
 8651 24c5 0303     		.2byte	0x303
 8652 24c7 35       		.uleb128 0x35
 8653 24c8 93200000 		.4byte	0x2093
ARM GAS  C:\Users\EBANO_~1\AppData\Local\Temp\ccKJ5gfE.s 			page 180


 8654 24cc 79080000 		.4byte	.LLST66
 8655 24d0 38       		.uleb128 0x38
 8656 24d1 38010000 		.4byte	.Ldebug_ranges0+0x138
 8657 24d5 40       		.uleb128 0x40
 8658 24d6 9F200000 		.4byte	0x209f
 8659 24da A1080000 		.4byte	.LLST67
 8660 24de 40       		.uleb128 0x40
 8661 24df AB200000 		.4byte	0x20ab
 8662 24e3 E8080000 		.4byte	.LLST68
 8663 24e7 40       		.uleb128 0x40
 8664 24e8 B7200000 		.4byte	0x20b7
 8665 24ec 14090000 		.4byte	.LLST69
 8666 24f0 34       		.uleb128 0x34
 8667 24f1 26300000 		.4byte	0x3026
 8668 24f5 56000000 		.4byte	.LBB98
 8669 24f9 60010000 		.4byte	.Ldebug_ranges0+0x160
 8670 24fd 01       		.byte	0x1
 8671 24fe AD03     		.2byte	0x3ad
 8672 2500 23250000 		.4byte	0x2523
 8673 2504 37       		.uleb128 0x37
 8674 2505 37300000 		.4byte	0x3037
 8675 2509 45       		.uleb128 0x45
 8676 250a 6C000000 		.4byte	.LVL220
 8677 250e 19250000 		.4byte	0x2519
 8678 2512 2E       		.uleb128 0x2e
 8679 2513 01       		.byte	0x1
 8680 2514 50       		.byte	0x50
 8681 2515 02       		.byte	0x2
 8682 2516 76       		.byte	0x76
 8683 2517 00       		.sleb128 0
 8684 2518 00       		.byte	0
 8685 2519 46       		.uleb128 0x46
 8686 251a E0000000 		.4byte	.LVL230
 8687 251e 03       		.byte	0x3
 8688 251f 91       		.byte	0x91
 8689 2520 64       		.sleb128 -28
 8690 2521 06       		.byte	0x6
 8691 2522 00       		.byte	0
 8692 2523 42       		.uleb128 0x42
 8693 2524 34000000 		.4byte	.LVL214
 8694 2528 94320000 		.4byte	0x3294
 8695 252c 3B250000 		.4byte	0x253b
 8696 2530 2E       		.uleb128 0x2e
 8697 2531 01       		.byte	0x1
 8698 2532 51       		.byte	0x51
 8699 2533 01       		.byte	0x1
 8700 2534 30       		.byte	0x30
 8701 2535 2E       		.uleb128 0x2e
 8702 2536 01       		.byte	0x1
 8703 2537 52       		.byte	0x52
 8704 2538 01       		.byte	0x1
 8705 2539 37       		.byte	0x37
 8706 253a 00       		.byte	0
 8707 253b 42       		.uleb128 0x42
 8708 253c 44000000 		.4byte	.LVL216
 8709 2540 94320000 		.4byte	0x3294
 8710 2544 53250000 		.4byte	0x2553
ARM GAS  C:\Users\EBANO_~1\AppData\Local\Temp\ccKJ5gfE.s 			page 181


 8711 2548 2E       		.uleb128 0x2e
 8712 2549 01       		.byte	0x1
 8713 254a 51       		.byte	0x51
 8714 254b 01       		.byte	0x1
 8715 254c 30       		.byte	0x30
 8716 254d 2E       		.uleb128 0x2e
 8717 254e 01       		.byte	0x1
 8718 254f 52       		.byte	0x52
 8719 2550 01       		.byte	0x1
 8720 2551 37       		.byte	0x37
 8721 2552 00       		.byte	0
 8722 2553 2D       		.uleb128 0x2d
 8723 2554 96000000 		.4byte	.LVL221
 8724 2558 04330000 		.4byte	0x3304
 8725 255c 2E       		.uleb128 0x2e
 8726 255d 01       		.byte	0x1
 8727 255e 50       		.byte	0x50
 8728 255f 02       		.byte	0x2
 8729 2560 76       		.byte	0x76
 8730 2561 00       		.sleb128 0
 8731 2562 2E       		.uleb128 0x2e
 8732 2563 01       		.byte	0x1
 8733 2564 51       		.byte	0x51
 8734 2565 02       		.byte	0x2
 8735 2566 74       		.byte	0x74
 8736 2567 00       		.sleb128 0
 8737 2568 2E       		.uleb128 0x2e
 8738 2569 01       		.byte	0x1
 8739 256a 52       		.byte	0x52
 8740 256b 01       		.byte	0x1
 8741 256c 3C       		.byte	0x3c
 8742 256d 00       		.byte	0
 8743 256e 00       		.byte	0
 8744 256f 00       		.byte	0
 8745 2570 00       		.byte	0
 8746 2571 0A       		.uleb128 0xa
 8747 2572 04       		.byte	0x4
 8748 2573 D6180000 		.4byte	0x18d6
 8749 2577 3F       		.uleb128 0x3f
 8750 2578 01       		.byte	0x1
 8751 2579 AB0C0000 		.4byte	.LASF480
 8752 257d 01       		.byte	0x1
 8753 257e D502     		.2byte	0x2d5
 8754 2580 01       		.byte	0x1
 8755 2581 BC000000 		.4byte	0xbc
 8756 2585 00000000 		.4byte	.LFB55
 8757 2589 64000000 		.4byte	.LFE55
 8758 258d 37090000 		.4byte	.LLST58
 8759 2591 01       		.byte	0x1
 8760 2592 0D260000 		.4byte	0x260d
 8761 2596 2C       		.uleb128 0x2c
 8762 2597 16030000 		.4byte	.LASF481
 8763 259b 01       		.byte	0x1
 8764 259c D502     		.2byte	0x2d5
 8765 259e 0D260000 		.4byte	0x260d
 8766 25a2 63090000 		.4byte	.LLST59
 8767 25a6 33       		.uleb128 0x33
ARM GAS  C:\Users\EBANO_~1\AppData\Local\Temp\ccKJ5gfE.s 			page 182


 8768 25a7 3C120000 		.4byte	.LASF475
 8769 25ab 01       		.byte	0x1
 8770 25ac D702     		.2byte	0x2d7
 8771 25ae BC000000 		.4byte	0xbc
 8772 25b2 9A090000 		.4byte	.LLST60
 8773 25b6 34       		.uleb128 0x34
 8774 25b7 26300000 		.4byte	0x3026
 8775 25bb 02000000 		.4byte	.LBB79
 8776 25bf F8000000 		.4byte	.Ldebug_ranges0+0xf8
 8777 25c3 01       		.byte	0x1
 8778 25c4 DA02     		.2byte	0x2da
 8779 25c6 E0250000 		.4byte	0x25e0
 8780 25ca 35       		.uleb128 0x35
 8781 25cb 37300000 		.4byte	0x3037
 8782 25cf D0090000 		.4byte	.LLST61
 8783 25d3 3B       		.uleb128 0x3b
 8784 25d4 12000000 		.4byte	.LVL197
 8785 25d8 2E       		.uleb128 0x2e
 8786 25d9 01       		.byte	0x1
 8787 25da 50       		.byte	0x50
 8788 25db 02       		.byte	0x2
 8789 25dc 75       		.byte	0x75
 8790 25dd 00       		.sleb128 0
 8791 25de 00       		.byte	0
 8792 25df 00       		.byte	0
 8793 25e0 42       		.uleb128 0x42
 8794 25e1 32000000 		.4byte	.LVL201
 8795 25e5 94320000 		.4byte	0x3294
 8796 25e9 F8250000 		.4byte	0x25f8
 8797 25ed 2E       		.uleb128 0x2e
 8798 25ee 01       		.byte	0x1
 8799 25ef 51       		.byte	0x51
 8800 25f0 01       		.byte	0x1
 8801 25f1 30       		.byte	0x30
 8802 25f2 2E       		.uleb128 0x2e
 8803 25f3 01       		.byte	0x1
 8804 25f4 52       		.byte	0x52
 8805 25f5 01       		.byte	0x1
 8806 25f6 37       		.byte	0x37
 8807 25f7 00       		.byte	0
 8808 25f8 2D       		.uleb128 0x2d
 8809 25f9 44000000 		.4byte	.LVL203
 8810 25fd 94320000 		.4byte	0x3294
 8811 2601 2E       		.uleb128 0x2e
 8812 2602 01       		.byte	0x1
 8813 2603 51       		.byte	0x51
 8814 2604 01       		.byte	0x1
 8815 2605 30       		.byte	0x30
 8816 2606 2E       		.uleb128 0x2e
 8817 2607 01       		.byte	0x1
 8818 2608 52       		.byte	0x52
 8819 2609 01       		.byte	0x1
 8820 260a 35       		.byte	0x35
 8821 260b 00       		.byte	0
 8822 260c 00       		.byte	0
 8823 260d 0A       		.uleb128 0xa
 8824 260e 04       		.byte	0x4
ARM GAS  C:\Users\EBANO_~1\AppData\Local\Temp\ccKJ5gfE.s 			page 183


 8825 260f 9E180000 		.4byte	0x189e
 8826 2613 3F       		.uleb128 0x3f
 8827 2614 01       		.byte	0x1
 8828 2615 5F020000 		.4byte	.LASF482
 8829 2619 01       		.byte	0x1
 8830 261a 6C02     		.2byte	0x26c
 8831 261c 01       		.byte	0x1
 8832 261d BC000000 		.4byte	0xbc
 8833 2621 00000000 		.4byte	.LFB54
 8834 2625 FC020000 		.4byte	.LFE54
 8835 2629 050A0000 		.4byte	.LLST49
 8836 262d 01       		.byte	0x1
 8837 262e 6A270000 		.4byte	0x276a
 8838 2632 2C       		.uleb128 0x2c
 8839 2633 FA100000 		.4byte	.LASF483
 8840 2637 01       		.byte	0x1
 8841 2638 6C02     		.2byte	0x26c
 8842 263a 6A270000 		.4byte	0x276a
 8843 263e 3E0A0000 		.4byte	.LLST50
 8844 2642 2C       		.uleb128 0x2c
 8845 2643 2F190000 		.4byte	.LASF484
 8846 2647 01       		.byte	0x1
 8847 2648 6C02     		.2byte	0x26c
 8848 264a 70270000 		.4byte	0x2770
 8849 264e 8E0A0000 		.4byte	.LLST51
 8850 2652 2C       		.uleb128 0x2c
 8851 2653 67170000 		.4byte	.LASF485
 8852 2657 01       		.byte	0x1
 8853 2658 6C02     		.2byte	0x26c
 8854 265a 70270000 		.4byte	0x2770
 8855 265e C50A0000 		.4byte	.LLST52
 8856 2662 2C       		.uleb128 0x2c
 8857 2663 69100000 		.4byte	.LASF486
 8858 2667 01       		.byte	0x1
 8859 2668 6C02     		.2byte	0x26c
 8860 266a 840A0000 		.4byte	0xa84
 8861 266e FC0A0000 		.4byte	.LLST53
 8862 2672 31       		.uleb128 0x31
 8863 2673 A50E0000 		.4byte	.LASF487
 8864 2677 01       		.byte	0x1
 8865 2678 6C02     		.2byte	0x26c
 8866 267a 840A0000 		.4byte	0xa84
 8867 267e 02       		.byte	0x2
 8868 267f 91       		.byte	0x91
 8869 2680 00       		.sleb128 0
 8870 2681 33       		.uleb128 0x33
 8871 2682 3C120000 		.4byte	.LASF475
 8872 2686 01       		.byte	0x1
 8873 2687 6E02     		.2byte	0x26e
 8874 2689 BC000000 		.4byte	0xbc
 8875 268d 1C0B0000 		.4byte	.LLST54
 8876 2691 29       		.uleb128 0x29
 8877 2692 261E0000 		.4byte	.LASF488
 8878 2696 01       		.byte	0x1
 8879 2697 6F02     		.2byte	0x26f
 8880 2699 D41B0000 		.4byte	0x1bd4
 8881 269d 03       		.byte	0x3
ARM GAS  C:\Users\EBANO_~1\AppData\Local\Temp\ccKJ5gfE.s 			page 184


 8882 269e 91       		.byte	0x91
 8883 269f B07F     		.sleb128 -80
 8884 26a1 33       		.uleb128 0x33
 8885 26a2 ED090000 		.4byte	.LASF489
 8886 26a6 01       		.byte	0x1
 8887 26a7 7002     		.2byte	0x270
 8888 26a9 BC000000 		.4byte	0xbc
 8889 26ad 800B0000 		.4byte	.LLST55
 8890 26b1 33       		.uleb128 0x33
 8891 26b2 9C0C0000 		.4byte	.LASF490
 8892 26b6 01       		.byte	0x1
 8893 26b7 7102     		.2byte	0x271
 8894 26b9 BC000000 		.4byte	0xbc
 8895 26bd 9F0B0000 		.4byte	.LLST56
 8896 26c1 29       		.uleb128 0x29
 8897 26c2 730A0000 		.4byte	.LASF491
 8898 26c6 01       		.byte	0x1
 8899 26c7 7202     		.2byte	0x272
 8900 26c9 D7000000 		.4byte	0xd7
 8901 26cd 03       		.byte	0x3
 8902 26ce 91       		.byte	0x91
 8903 26cf AE7F     		.sleb128 -82
 8904 26d1 32       		.uleb128 0x32
 8905 26d2 F7180000 		.4byte	.LASF492
 8906 26d6 01       		.byte	0x1
 8907 26d7 7302     		.2byte	0x273
 8908 26d9 01150000 		.4byte	0x1501
 8909 26dd 32       		.uleb128 0x32
 8910 26de 63040000 		.4byte	.LASF493
 8911 26e2 01       		.byte	0x1
 8912 26e3 7402     		.2byte	0x274
 8913 26e5 AB140000 		.4byte	0x14ab
 8914 26e9 29       		.uleb128 0x29
 8915 26ea 1F1C0000 		.4byte	.LASF494
 8916 26ee 01       		.byte	0x1
 8917 26ef 7502     		.2byte	0x275
 8918 26f1 CC1C0000 		.4byte	0x1ccc
 8919 26f5 03       		.byte	0x3
 8920 26f6 91       		.byte	0x91
 8921 26f7 B87F     		.sleb128 -72
 8922 26f9 47       		.uleb128 0x47
 8923 26fa D0000000 		.4byte	.Ldebug_ranges0+0xd0
 8924 26fe 11270000 		.4byte	0x2711
 8925 2702 48       		.uleb128 0x48
 8926 2703 6900     		.ascii	"i\000"
 8927 2705 01       		.byte	0x1
 8928 2706 9502     		.2byte	0x295
 8929 2708 BC000000 		.4byte	0xbc
 8930 270c E00B0000 		.4byte	.LLST57
 8931 2710 00       		.byte	0
 8932 2711 42       		.uleb128 0x42
 8933 2712 3A000000 		.4byte	.LVL141
 8934 2716 11330000 		.4byte	0x3311
 8935 271a 25270000 		.4byte	0x2725
 8936 271e 2E       		.uleb128 0x2e
 8937 271f 01       		.byte	0x1
 8938 2720 51       		.byte	0x51
ARM GAS  C:\Users\EBANO_~1\AppData\Local\Temp\ccKJ5gfE.s 			page 185


 8939 2721 02       		.byte	0x2
 8940 2722 75       		.byte	0x75
 8941 2723 00       		.sleb128 0
 8942 2724 00       		.byte	0
 8943 2725 42       		.uleb128 0x42
 8944 2726 A6010000 		.4byte	.LVL163
 8945 272a 1F330000 		.4byte	0x331f
 8946 272e 4E270000 		.4byte	0x274e
 8947 2732 2E       		.uleb128 0x2e
 8948 2733 01       		.byte	0x1
 8949 2734 50       		.byte	0x50
 8950 2735 03       		.byte	0x3
 8951 2736 91       		.byte	0x91
 8952 2737 B87F     		.sleb128 -72
 8953 2739 2E       		.uleb128 0x2e
 8954 273a 01       		.byte	0x1
 8955 273b 51       		.byte	0x51
 8956 273c 03       		.byte	0x3
 8957 273d 91       		.byte	0x91
 8958 273e B17F     		.sleb128 -79
 8959 2740 2E       		.uleb128 0x2e
 8960 2741 01       		.byte	0x1
 8961 2742 52       		.byte	0x52
 8962 2743 03       		.byte	0x3
 8963 2744 91       		.byte	0x91
 8964 2745 B27F     		.sleb128 -78
 8965 2747 2E       		.uleb128 0x2e
 8966 2748 01       		.byte	0x1
 8967 2749 53       		.byte	0x53
 8968 274a 02       		.byte	0x2
 8969 274b 75       		.byte	0x75
 8970 274c 00       		.sleb128 0
 8971 274d 00       		.byte	0
 8972 274e 2D       		.uleb128 0x2d
 8973 274f DE020000 		.4byte	.LVL191
 8974 2753 2D330000 		.4byte	0x332d
 8975 2757 2E       		.uleb128 0x2e
 8976 2758 01       		.byte	0x1
 8977 2759 50       		.byte	0x50
 8978 275a 03       		.byte	0x3
 8979 275b 77       		.byte	0x77
 8980 275c D001     		.sleb128 208
 8981 275e 2E       		.uleb128 0x2e
 8982 275f 01       		.byte	0x1
 8983 2760 51       		.byte	0x51
 8984 2761 01       		.byte	0x1
 8985 2762 30       		.byte	0x30
 8986 2763 2E       		.uleb128 0x2e
 8987 2764 01       		.byte	0x1
 8988 2765 52       		.byte	0x52
 8989 2766 01       		.byte	0x1
 8990 2767 32       		.byte	0x32
 8991 2768 00       		.byte	0
 8992 2769 00       		.byte	0
 8993 276a 0A       		.uleb128 0xa
 8994 276b 04       		.byte	0x4
 8995 276c 57180000 		.4byte	0x1857
ARM GAS  C:\Users\EBANO_~1\AppData\Local\Temp\ccKJ5gfE.s 			page 186


 8996 2770 0A       		.uleb128 0xa
 8997 2771 04       		.byte	0x4
 8998 2772 B1000000 		.4byte	0xb1
 8999 2776 3F       		.uleb128 0x3f
 9000 2777 01       		.byte	0x1
 9001 2778 72100000 		.4byte	.LASF495
 9002 277c 01       		.byte	0x1
 9003 277d 4902     		.2byte	0x249
 9004 277f 01       		.byte	0x1
 9005 2780 150B0000 		.4byte	0xb15
 9006 2784 00000000 		.4byte	.LFB53
 9007 2788 3C010000 		.4byte	.LFE53
 9008 278c 980D0000 		.4byte	.LLST38
 9009 2790 01       		.byte	0x1
 9010 2791 60290000 		.4byte	0x2960
 9011 2795 2C       		.uleb128 0x2c
 9012 2796 AB1B0000 		.4byte	.LASF496
 9013 279a 01       		.byte	0x1
 9014 279b 4902     		.2byte	0x249
 9015 279d 60290000 		.4byte	0x2960
 9016 27a1 D10D0000 		.4byte	.LLST39
 9017 27a5 2C       		.uleb128 0x2c
 9018 27a6 F2100000 		.4byte	.LASF497
 9019 27aa 01       		.byte	0x1
 9020 27ab 4902     		.2byte	0x249
 9021 27ad 70270000 		.4byte	0x2770
 9022 27b1 080E0000 		.4byte	.LLST40
 9023 27b5 2C       		.uleb128 0x2c
 9024 27b6 43130000 		.4byte	.LASF498
 9025 27ba 01       		.byte	0x1
 9026 27bb 4902     		.2byte	0x249
 9027 27bd AF220000 		.4byte	0x22af
 9028 27c1 270E0000 		.4byte	.LLST41
 9029 27c5 33       		.uleb128 0x33
 9030 27c6 121E0000 		.4byte	.LASF499
 9031 27ca 01       		.byte	0x1
 9032 27cb 4B02     		.2byte	0x24b
 9033 27cd D20B0000 		.4byte	0xbd2
 9034 27d1 5E0E0000 		.4byte	.LLST42
 9035 27d5 33       		.uleb128 0x33
 9036 27d6 B5040000 		.4byte	.LASF500
 9037 27da 01       		.byte	0x1
 9038 27db 4C02     		.2byte	0x24c
 9039 27dd B1000000 		.4byte	0xb1
 9040 27e1 890E0000 		.4byte	.LLST43
 9041 27e5 32       		.uleb128 0x32
 9042 27e6 A6130000 		.4byte	.LASF450
 9043 27ea 01       		.byte	0x1
 9044 27eb 4D02     		.2byte	0x24d
 9045 27ed B1000000 		.4byte	0xb1
 9046 27f1 32       		.uleb128 0x32
 9047 27f2 E3190000 		.4byte	.LASF501
 9048 27f6 01       		.byte	0x1
 9049 27f7 4E02     		.2byte	0x24e
 9050 27f9 ED000000 		.4byte	0xed
 9051 27fd 33       		.uleb128 0x33
 9052 27fe 51060000 		.4byte	.LASF448
ARM GAS  C:\Users\EBANO_~1\AppData\Local\Temp\ccKJ5gfE.s 			page 187


 9053 2802 01       		.byte	0x1
 9054 2803 4F02     		.2byte	0x24f
 9055 2805 B1000000 		.4byte	0xb1
 9056 2809 B30E0000 		.4byte	.LLST44
 9057 280d 34       		.uleb128 0x34
 9058 280e 43300000 		.4byte	0x3043
 9059 2812 28000000 		.4byte	.LBB54
 9060 2816 80000000 		.4byte	.Ldebug_ranges0+0x80
 9061 281a 01       		.byte	0x1
 9062 281b 4D02     		.2byte	0x24d
 9063 281d 58280000 		.4byte	0x2858
 9064 2821 35       		.uleb128 0x35
 9065 2822 6A300000 		.4byte	0x306a
 9066 2826 DD0E0000 		.4byte	.LLST45
 9067 282a 36       		.uleb128 0x36
 9068 282b 75300000 		.4byte	0x3075
 9069 282f 06       		.byte	0x6
 9070 2830 03       		.byte	0x3
 9071 2831 D0000000 		.4byte	NvmCtx+208
 9072 2835 9F       		.byte	0x9f
 9073 2836 35       		.uleb128 0x35
 9074 2837 5F300000 		.4byte	0x305f
 9075 283b 170F0000 		.4byte	.LLST46
 9076 283f 35       		.uleb128 0x35
 9077 2840 54300000 		.4byte	0x3054
 9078 2844 920F0000 		.4byte	.LLST47
 9079 2848 38       		.uleb128 0x38
 9080 2849 80000000 		.4byte	.Ldebug_ranges0+0x80
 9081 284d 40       		.uleb128 0x40
 9082 284e 80300000 		.4byte	0x3080
 9083 2852 920F0000 		.4byte	.LLST47
 9084 2856 00       		.byte	0
 9085 2857 00       		.byte	0
 9086 2858 34       		.uleb128 0x34
 9087 2859 8C300000 		.4byte	0x308c
 9088 285d 4A000000 		.4byte	.LBB63
 9089 2861 B0000000 		.4byte	.Ldebug_ranges0+0xb0
 9090 2865 01       		.byte	0x1
 9091 2866 4E02     		.2byte	0x24e
 9092 2868 72280000 		.4byte	0x2872
 9093 286c 37       		.uleb128 0x37
 9094 286d 9D300000 		.4byte	0x309d
 9095 2871 00       		.byte	0
 9096 2872 42       		.uleb128 0x42
 9097 2873 6E000000 		.4byte	.LVL119
 9098 2877 86320000 		.4byte	0x3286
 9099 287b 86280000 		.4byte	0x2886
 9100 287f 2E       		.uleb128 0x2e
 9101 2880 01       		.byte	0x1
 9102 2881 50       		.byte	0x50
 9103 2882 02       		.byte	0x2
 9104 2883 79       		.byte	0x79
 9105 2884 00       		.sleb128 0
 9106 2885 00       		.byte	0
 9107 2886 46       		.uleb128 0x46
 9108 2887 82000000 		.4byte	.LVL121
 9109 288b 03       		.byte	0x3
ARM GAS  C:\Users\EBANO_~1\AppData\Local\Temp\ccKJ5gfE.s 			page 188


 9110 288c 75       		.byte	0x75
 9111 288d 14       		.sleb128 20
 9112 288e 06       		.byte	0x6
 9113 288f 49       		.uleb128 0x49
 9114 2890 B4000000 		.4byte	.LVL124
 9115 2894 02       		.byte	0x2
 9116 2895 76       		.byte	0x76
 9117 2896 00       		.sleb128 0
 9118 2897 E4280000 		.4byte	0x28e4
 9119 289b 2E       		.uleb128 0x2e
 9120 289c 01       		.byte	0x1
 9121 289d 50       		.byte	0x50
 9122 289e 01       		.byte	0x1
 9123 289f 31       		.byte	0x31
 9124 28a0 2E       		.uleb128 0x2e
 9125 28a1 01       		.byte	0x1
 9126 28a2 51       		.byte	0x51
 9127 28a3 02       		.byte	0x2
 9128 28a4 7B       		.byte	0x7b
 9129 28a5 00       		.sleb128 0
 9130 28a6 2E       		.uleb128 0x2e
 9131 28a7 01       		.byte	0x1
 9132 28a8 52       		.byte	0x52
 9133 28a9 01       		.byte	0x1
 9134 28aa 30       		.byte	0x30
 9135 28ab 2E       		.uleb128 0x2e
 9136 28ac 01       		.byte	0x1
 9137 28ad 53       		.byte	0x53
 9138 28ae 02       		.byte	0x2
 9139 28af 7A       		.byte	0x7a
 9140 28b0 00       		.sleb128 0
 9141 28b1 2E       		.uleb128 0x2e
 9142 28b2 02       		.byte	0x2
 9143 28b3 7D       		.byte	0x7d
 9144 28b4 04       		.sleb128 4
 9145 28b5 01       		.byte	0x1
 9146 28b6 31       		.byte	0x31
 9147 28b7 2E       		.uleb128 0x2e
 9148 28b8 02       		.byte	0x2
 9149 28b9 7D       		.byte	0x7d
 9150 28ba 08       		.sleb128 8
 9151 28bb 01       		.byte	0x1
 9152 28bc 38       		.byte	0x38
 9153 28bd 2E       		.uleb128 0x2e
 9154 28be 02       		.byte	0x2
 9155 28bf 7D       		.byte	0x7d
 9156 28c0 0C       		.sleb128 12
 9157 28c1 01       		.byte	0x1
 9158 28c2 30       		.byte	0x30
 9159 28c3 2E       		.uleb128 0x2e
 9160 28c4 02       		.byte	0x2
 9161 28c5 7D       		.byte	0x7d
 9162 28c6 10       		.sleb128 16
 9163 28c7 01       		.byte	0x1
 9164 28c8 31       		.byte	0x31
 9165 28c9 2E       		.uleb128 0x2e
 9166 28ca 02       		.byte	0x2
ARM GAS  C:\Users\EBANO_~1\AppData\Local\Temp\ccKJ5gfE.s 			page 189


 9167 28cb 7D       		.byte	0x7d
 9168 28cc 14       		.sleb128 20
 9169 28cd 01       		.byte	0x1
 9170 28ce 30       		.byte	0x30
 9171 28cf 2E       		.uleb128 0x2e
 9172 28d0 02       		.byte	0x2
 9173 28d1 7D       		.byte	0x7d
 9174 28d2 18       		.sleb128 24
 9175 28d3 01       		.byte	0x1
 9176 28d4 30       		.byte	0x30
 9177 28d5 2E       		.uleb128 0x2e
 9178 28d6 02       		.byte	0x2
 9179 28d7 7D       		.byte	0x7d
 9180 28d8 1C       		.sleb128 28
 9181 28d9 01       		.byte	0x1
 9182 28da 30       		.byte	0x30
 9183 28db 2E       		.uleb128 0x2e
 9184 28dc 02       		.byte	0x2
 9185 28dd 7D       		.byte	0x7d
 9186 28de 20       		.sleb128 32
 9187 28df 03       		.byte	0x3
 9188 28e0 0A       		.byte	0xa
 9189 28e1 B80B     		.2byte	0xbb8
 9190 28e3 00       		.byte	0
 9191 28e4 49       		.uleb128 0x49
 9192 28e5 C0000000 		.4byte	.LVL126
 9193 28e9 03       		.byte	0x3
 9194 28ea 91       		.byte	0x91
 9195 28eb 54       		.sleb128 -44
 9196 28ec 06       		.byte	0x6
 9197 28ed F8280000 		.4byte	0x28f8
 9198 28f1 2E       		.uleb128 0x2e
 9199 28f2 01       		.byte	0x1
 9200 28f3 50       		.byte	0x50
 9201 28f4 02       		.byte	0x2
 9202 28f5 76       		.byte	0x76
 9203 28f6 00       		.sleb128 0
 9204 28f7 00       		.byte	0
 9205 28f8 49       		.uleb128 0x49
 9206 28f9 CA000000 		.4byte	.LVL127
 9207 28fd 03       		.byte	0x3
 9208 28fe 91       		.byte	0x91
 9209 28ff 54       		.sleb128 -44
 9210 2900 06       		.byte	0x6
 9211 2901 0C290000 		.4byte	0x290c
 9212 2905 2E       		.uleb128 0x2e
 9213 2906 01       		.byte	0x1
 9214 2907 50       		.byte	0x50
 9215 2908 02       		.byte	0x2
 9216 2909 76       		.byte	0x76
 9217 290a 00       		.sleb128 0
 9218 290b 00       		.byte	0
 9219 290c 4A       		.uleb128 0x4a
 9220 290d 1A010000 		.4byte	.LVL136
 9221 2911 02       		.byte	0x2
 9222 2912 76       		.byte	0x76
 9223 2913 00       		.sleb128 0
ARM GAS  C:\Users\EBANO_~1\AppData\Local\Temp\ccKJ5gfE.s 			page 190


 9224 2914 2E       		.uleb128 0x2e
 9225 2915 01       		.byte	0x1
 9226 2916 50       		.byte	0x50
 9227 2917 01       		.byte	0x1
 9228 2918 30       		.byte	0x30
 9229 2919 2E       		.uleb128 0x2e
 9230 291a 01       		.byte	0x1
 9231 291b 51       		.byte	0x51
 9232 291c 02       		.byte	0x2
 9233 291d 7B       		.byte	0x7b
 9234 291e 00       		.sleb128 0
 9235 291f 2E       		.uleb128 0x2e
 9236 2920 01       		.byte	0x1
 9237 2921 52       		.byte	0x52
 9238 2922 03       		.byte	0x3
 9239 2923 0A       		.byte	0xa
 9240 2924 A861     		.2byte	0x61a8
 9241 2926 2E       		.uleb128 0x2e
 9242 2927 01       		.byte	0x1
 9243 2928 53       		.byte	0x53
 9244 2929 02       		.byte	0x2
 9245 292a 7A       		.byte	0x7a
 9246 292b 00       		.sleb128 0
 9247 292c 2E       		.uleb128 0x2e
 9248 292d 02       		.byte	0x2
 9249 292e 7D       		.byte	0x7d
 9250 292f 04       		.sleb128 4
 9251 2930 01       		.byte	0x1
 9252 2931 30       		.byte	0x30
 9253 2932 2E       		.uleb128 0x2e
 9254 2933 02       		.byte	0x2
 9255 2934 7D       		.byte	0x7d
 9256 2935 08       		.sleb128 8
 9257 2936 01       		.byte	0x1
 9258 2937 35       		.byte	0x35
 9259 2938 2E       		.uleb128 0x2e
 9260 2939 02       		.byte	0x2
 9261 293a 7D       		.byte	0x7d
 9262 293b 0C       		.sleb128 12
 9263 293c 01       		.byte	0x1
 9264 293d 30       		.byte	0x30
 9265 293e 2E       		.uleb128 0x2e
 9266 293f 02       		.byte	0x2
 9267 2940 7D       		.byte	0x7d
 9268 2941 10       		.sleb128 16
 9269 2942 01       		.byte	0x1
 9270 2943 31       		.byte	0x31
 9271 2944 2E       		.uleb128 0x2e
 9272 2945 02       		.byte	0x2
 9273 2946 7D       		.byte	0x7d
 9274 2947 14       		.sleb128 20
 9275 2948 01       		.byte	0x1
 9276 2949 30       		.byte	0x30
 9277 294a 2E       		.uleb128 0x2e
 9278 294b 02       		.byte	0x2
 9279 294c 7D       		.byte	0x7d
 9280 294d 18       		.sleb128 24
ARM GAS  C:\Users\EBANO_~1\AppData\Local\Temp\ccKJ5gfE.s 			page 191


 9281 294e 01       		.byte	0x1
 9282 294f 30       		.byte	0x30
 9283 2950 2E       		.uleb128 0x2e
 9284 2951 02       		.byte	0x2
 9285 2952 7D       		.byte	0x7d
 9286 2953 1C       		.sleb128 28
 9287 2954 01       		.byte	0x1
 9288 2955 30       		.byte	0x30
 9289 2956 2E       		.uleb128 0x2e
 9290 2957 02       		.byte	0x2
 9291 2958 7D       		.byte	0x7d
 9292 2959 20       		.sleb128 32
 9293 295a 03       		.byte	0x3
 9294 295b 0A       		.byte	0xa
 9295 295c B80B     		.2byte	0xbb8
 9296 295e 00       		.byte	0
 9297 295f 00       		.byte	0
 9298 2960 0A       		.uleb128 0xa
 9299 2961 04       		.byte	0x4
 9300 2962 C5170000 		.4byte	0x17c5
 9301 2966 3F       		.uleb128 0x3f
 9302 2967 01       		.byte	0x1
 9303 2968 B30E0000 		.4byte	.LASF502
 9304 296c 01       		.byte	0x1
 9305 296d 1102     		.2byte	0x211
 9306 296f 01       		.byte	0x1
 9307 2970 150B0000 		.4byte	0xb15
 9308 2974 00000000 		.4byte	.LFB52
 9309 2978 0C010000 		.4byte	.LFE52
 9310 297c A60F0000 		.4byte	.LLST30
 9311 2980 01       		.byte	0x1
 9312 2981 C52A0000 		.4byte	0x2ac5
 9313 2985 2C       		.uleb128 0x2c
 9314 2986 371A0000 		.4byte	.LASF503
 9315 298a 01       		.byte	0x1
 9316 298b 1102     		.2byte	0x211
 9317 298d C52A0000 		.4byte	0x2ac5
 9318 2991 DF0F0000 		.4byte	.LLST31
 9319 2995 2C       		.uleb128 0x2c
 9320 2996 EB040000 		.4byte	.LASF444
 9321 299a 01       		.byte	0x1
 9322 299b 1102     		.2byte	0x211
 9323 299d 70270000 		.4byte	0x2770
 9324 29a1 16100000 		.4byte	.LLST32
 9325 29a5 33       		.uleb128 0x33
 9326 29a6 121E0000 		.4byte	.LASF499
 9327 29aa 01       		.byte	0x1
 9328 29ab 1302     		.2byte	0x213
 9329 29ad D20B0000 		.4byte	0xbd2
 9330 29b1 4D100000 		.4byte	.LLST33
 9331 29b5 48       		.uleb128 0x48
 9332 29b6 647200   		.ascii	"dr\000"
 9333 29b9 01       		.byte	0x1
 9334 29ba 1402     		.2byte	0x214
 9335 29bc B1000000 		.4byte	0xb1
 9336 29c0 83100000 		.4byte	.LLST34
 9337 29c4 33       		.uleb128 0x33
ARM GAS  C:\Users\EBANO_~1\AppData\Local\Temp\ccKJ5gfE.s 			page 192


 9338 29c5 C9130000 		.4byte	.LASF504
 9339 29c9 01       		.byte	0x1
 9340 29ca 1502     		.2byte	0x215
 9341 29cc BC000000 		.4byte	0xbc
 9342 29d0 A1100000 		.4byte	.LLST35
 9343 29d4 33       		.uleb128 0x33
 9344 29d5 B5040000 		.4byte	.LASF500
 9345 29d9 01       		.byte	0x1
 9346 29da 1602     		.2byte	0x216
 9347 29dc B1000000 		.4byte	0xb1
 9348 29e0 E3100000 		.4byte	.LLST36
 9349 29e4 33       		.uleb128 0x33
 9350 29e5 15200000 		.4byte	.LASF449
 9351 29e9 01       		.byte	0x1
 9352 29ea 1702     		.2byte	0x217
 9353 29ec ED000000 		.4byte	0xed
 9354 29f0 19110000 		.4byte	.LLST37
 9355 29f4 46       		.uleb128 0x46
 9356 29f5 20000000 		.4byte	.LVL88
 9357 29f9 03       		.byte	0x3
 9358 29fa 75       		.byte	0x75
 9359 29fb 0C       		.sleb128 12
 9360 29fc 06       		.byte	0x6
 9361 29fd 49       		.uleb128 0x49
 9362 29fe 54000000 		.4byte	.LVL92
 9363 2a02 03       		.byte	0x3
 9364 2a03 91       		.byte	0x91
 9365 2a04 5C       		.sleb128 -36
 9366 2a05 06       		.byte	0x6
 9367 2a06 112A0000 		.4byte	0x2a11
 9368 2a0a 2E       		.uleb128 0x2e
 9369 2a0b 01       		.byte	0x1
 9370 2a0c 50       		.byte	0x50
 9371 2a0d 02       		.byte	0x2
 9372 2a0e 78       		.byte	0x78
 9373 2a0f 00       		.sleb128 0
 9374 2a10 00       		.byte	0
 9375 2a11 49       		.uleb128 0x49
 9376 2a12 86000000 		.4byte	.LVL94
 9377 2a16 02       		.byte	0x2
 9378 2a17 77       		.byte	0x77
 9379 2a18 00       		.sleb128 0
 9380 2a19 5E2A0000 		.4byte	0x2a5e
 9381 2a1d 2E       		.uleb128 0x2e
 9382 2a1e 01       		.byte	0x1
 9383 2a1f 50       		.byte	0x50
 9384 2a20 01       		.byte	0x1
 9385 2a21 31       		.byte	0x31
 9386 2a22 2E       		.uleb128 0x2e
 9387 2a23 01       		.byte	0x1
 9388 2a24 52       		.byte	0x52
 9389 2a25 02       		.byte	0x2
 9390 2a26 79       		.byte	0x79
 9391 2a27 00       		.sleb128 0
 9392 2a28 2E       		.uleb128 0x2e
 9393 2a29 01       		.byte	0x1
 9394 2a2a 53       		.byte	0x53
ARM GAS  C:\Users\EBANO_~1\AppData\Local\Temp\ccKJ5gfE.s 			page 193


 9395 2a2b 01       		.byte	0x1
 9396 2a2c 31       		.byte	0x31
 9397 2a2d 2E       		.uleb128 0x2e
 9398 2a2e 02       		.byte	0x2
 9399 2a2f 7D       		.byte	0x7d
 9400 2a30 00       		.sleb128 0
 9401 2a31 01       		.byte	0x1
 9402 2a32 30       		.byte	0x30
 9403 2a33 2E       		.uleb128 0x2e
 9404 2a34 02       		.byte	0x2
 9405 2a35 7D       		.byte	0x7d
 9406 2a36 04       		.sleb128 4
 9407 2a37 01       		.byte	0x1
 9408 2a38 38       		.byte	0x38
 9409 2a39 2E       		.uleb128 0x2e
 9410 2a3a 02       		.byte	0x2
 9411 2a3b 7D       		.byte	0x7d
 9412 2a3c 0C       		.sleb128 12
 9413 2a3d 01       		.byte	0x1
 9414 2a3e 30       		.byte	0x30
 9415 2a3f 2E       		.uleb128 0x2e
 9416 2a40 02       		.byte	0x2
 9417 2a41 7D       		.byte	0x7d
 9418 2a42 10       		.sleb128 16
 9419 2a43 01       		.byte	0x1
 9420 2a44 30       		.byte	0x30
 9421 2a45 2E       		.uleb128 0x2e
 9422 2a46 02       		.byte	0x2
 9423 2a47 7D       		.byte	0x7d
 9424 2a48 14       		.sleb128 20
 9425 2a49 01       		.byte	0x1
 9426 2a4a 30       		.byte	0x30
 9427 2a4b 2E       		.uleb128 0x2e
 9428 2a4c 02       		.byte	0x2
 9429 2a4d 7D       		.byte	0x7d
 9430 2a4e 18       		.sleb128 24
 9431 2a4f 01       		.byte	0x1
 9432 2a50 30       		.byte	0x30
 9433 2a51 2E       		.uleb128 0x2e
 9434 2a52 02       		.byte	0x2
 9435 2a53 7D       		.byte	0x7d
 9436 2a54 1C       		.sleb128 28
 9437 2a55 01       		.byte	0x1
 9438 2a56 30       		.byte	0x30
 9439 2a57 2E       		.uleb128 0x2e
 9440 2a58 02       		.byte	0x2
 9441 2a59 7D       		.byte	0x7d
 9442 2a5a 20       		.sleb128 32
 9443 2a5b 01       		.byte	0x1
 9444 2a5c 31       		.byte	0x31
 9445 2a5d 00       		.byte	0
 9446 2a5e 46       		.uleb128 0x46
 9447 2a5f 9E000000 		.4byte	.LVL98
 9448 2a63 03       		.byte	0x3
 9449 2a64 91       		.byte	0x91
 9450 2a65 5C       		.sleb128 -36
 9451 2a66 06       		.byte	0x6
ARM GAS  C:\Users\EBANO_~1\AppData\Local\Temp\ccKJ5gfE.s 			page 194


 9452 2a67 3B       		.uleb128 0x3b
 9453 2a68 EC000000 		.4byte	.LVL107
 9454 2a6c 2E       		.uleb128 0x2e
 9455 2a6d 01       		.byte	0x1
 9456 2a6e 50       		.byte	0x50
 9457 2a6f 01       		.byte	0x1
 9458 2a70 30       		.byte	0x30
 9459 2a71 2E       		.uleb128 0x2e
 9460 2a72 01       		.byte	0x1
 9461 2a73 51       		.byte	0x51
 9462 2a74 03       		.byte	0x3
 9463 2a75 0A       		.byte	0xa
 9464 2a76 50C3     		.2byte	0xc350
 9465 2a78 2E       		.uleb128 0x2e
 9466 2a79 01       		.byte	0x1
 9467 2a7a 52       		.byte	0x52
 9468 2a7b 0E       		.byte	0xe
 9469 2a7c 79       		.byte	0x79
 9470 2a7d 00       		.sleb128 0
 9471 2a7e 35       		.byte	0x35
 9472 2a7f 24       		.byte	0x24
 9473 2a80 79       		.byte	0x79
 9474 2a81 00       		.sleb128 0
 9475 2a82 1C       		.byte	0x1c
 9476 2a83 32       		.byte	0x32
 9477 2a84 24       		.byte	0x24
 9478 2a85 79       		.byte	0x79
 9479 2a86 00       		.sleb128 0
 9480 2a87 22       		.byte	0x22
 9481 2a88 33       		.byte	0x33
 9482 2a89 24       		.byte	0x24
 9483 2a8a 2E       		.uleb128 0x2e
 9484 2a8b 01       		.byte	0x1
 9485 2a8c 53       		.byte	0x53
 9486 2a8d 01       		.byte	0x1
 9487 2a8e 30       		.byte	0x30
 9488 2a8f 2E       		.uleb128 0x2e
 9489 2a90 02       		.byte	0x2
 9490 2a91 7D       		.byte	0x7d
 9491 2a92 00       		.sleb128 0
 9492 2a93 05       		.byte	0x5
 9493 2a94 0C       		.byte	0xc
 9494 2a95 85450100 		.4byte	0x14585
 9495 2a99 2E       		.uleb128 0x2e
 9496 2a9a 02       		.byte	0x2
 9497 2a9b 7D       		.byte	0x7d
 9498 2a9c 04       		.sleb128 4
 9499 2a9d 01       		.byte	0x1
 9500 2a9e 35       		.byte	0x35
 9501 2a9f 2E       		.uleb128 0x2e
 9502 2aa0 02       		.byte	0x2
 9503 2aa1 7D       		.byte	0x7d
 9504 2aa2 0C       		.sleb128 12
 9505 2aa3 01       		.byte	0x1
 9506 2aa4 30       		.byte	0x30
 9507 2aa5 2E       		.uleb128 0x2e
 9508 2aa6 02       		.byte	0x2
ARM GAS  C:\Users\EBANO_~1\AppData\Local\Temp\ccKJ5gfE.s 			page 195


 9509 2aa7 7D       		.byte	0x7d
 9510 2aa8 10       		.sleb128 16
 9511 2aa9 01       		.byte	0x1
 9512 2aaa 30       		.byte	0x30
 9513 2aab 2E       		.uleb128 0x2e
 9514 2aac 02       		.byte	0x2
 9515 2aad 7D       		.byte	0x7d
 9516 2aae 14       		.sleb128 20
 9517 2aaf 01       		.byte	0x1
 9518 2ab0 31       		.byte	0x31
 9519 2ab1 2E       		.uleb128 0x2e
 9520 2ab2 02       		.byte	0x2
 9521 2ab3 7D       		.byte	0x7d
 9522 2ab4 18       		.sleb128 24
 9523 2ab5 01       		.byte	0x1
 9524 2ab6 30       		.byte	0x30
 9525 2ab7 2E       		.uleb128 0x2e
 9526 2ab8 02       		.byte	0x2
 9527 2ab9 7D       		.byte	0x7d
 9528 2aba 1C       		.sleb128 28
 9529 2abb 01       		.byte	0x1
 9530 2abc 30       		.byte	0x30
 9531 2abd 2E       		.uleb128 0x2e
 9532 2abe 02       		.byte	0x2
 9533 2abf 7D       		.byte	0x7d
 9534 2ac0 20       		.sleb128 32
 9535 2ac1 01       		.byte	0x1
 9536 2ac2 30       		.byte	0x30
 9537 2ac3 00       		.byte	0
 9538 2ac4 00       		.byte	0
 9539 2ac5 0A       		.uleb128 0xa
 9540 2ac6 04       		.byte	0x4
 9541 2ac7 51170000 		.4byte	0x1751
 9542 2acb 2B       		.uleb128 0x2b
 9543 2acc 01       		.byte	0x1
 9544 2acd E5160000 		.4byte	.LASF505
 9545 2ad1 01       		.byte	0x1
 9546 2ad2 FD01     		.2byte	0x1fd
 9547 2ad4 01       		.byte	0x1
 9548 2ad5 00000000 		.4byte	.LFB51
 9549 2ad9 94000000 		.4byte	.LFE51
 9550 2add 58110000 		.4byte	.LLST24
 9551 2ae1 01       		.byte	0x1
 9552 2ae2 B92B0000 		.4byte	0x2bb9
 9553 2ae6 2C       		.uleb128 0x2c
 9554 2ae7 EB040000 		.4byte	.LASF444
 9555 2aeb 01       		.byte	0x1
 9556 2aec FD01     		.2byte	0x1fd
 9557 2aee B1000000 		.4byte	0xb1
 9558 2af2 90110000 		.4byte	.LLST25
 9559 2af6 2C       		.uleb128 0x2c
 9560 2af7 8D140000 		.4byte	.LASF506
 9561 2afb 01       		.byte	0x1
 9562 2afc FD01     		.2byte	0x1fd
 9563 2afe BC000000 		.4byte	0xbc
 9564 2b02 CA110000 		.4byte	.LLST26
 9565 2b06 2C       		.uleb128 0x2c
ARM GAS  C:\Users\EBANO_~1\AppData\Local\Temp\ccKJ5gfE.s 			page 196


 9566 2b07 59190000 		.4byte	.LASF507
 9567 2b0b 01       		.byte	0x1
 9568 2b0c FD01     		.2byte	0x1fd
 9569 2b0e ED000000 		.4byte	0xed
 9570 2b12 EB110000 		.4byte	.LLST27
 9571 2b16 2C       		.uleb128 0x2c
 9572 2b17 230A0000 		.4byte	.LASF508
 9573 2b1b 01       		.byte	0x1
 9574 2b1c FD01     		.2byte	0x1fd
 9575 2b1e C52A0000 		.4byte	0x2ac5
 9576 2b22 22120000 		.4byte	.LLST28
 9577 2b26 33       		.uleb128 0x33
 9578 2b27 6B1A0000 		.4byte	.LASF509
 9579 2b2b 01       		.byte	0x1
 9580 2b2c FF01     		.2byte	0x1ff
 9581 2b2e B92B0000 		.4byte	0x2bb9
 9582 2b32 8E120000 		.4byte	.LLST29
 9583 2b36 34       		.uleb128 0x34
 9584 2b37 8C300000 		.4byte	0x308c
 9585 2b3b 18000000 		.4byte	.LBB48
 9586 2b3f 60000000 		.4byte	.Ldebug_ranges0+0x60
 9587 2b43 01       		.byte	0x1
 9588 2b44 0302     		.2byte	0x203
 9589 2b46 502B0000 		.4byte	0x2b50
 9590 2b4a 37       		.uleb128 0x37
 9591 2b4b 9D300000 		.4byte	0x309d
 9592 2b4f 00       		.byte	0
 9593 2b50 42       		.uleb128 0x42
 9594 2b51 44000000 		.4byte	.LVL72
 9595 2b55 3A330000 		.4byte	0x333a
 9596 2b59 7B2B0000 		.4byte	0x2b7b
 9597 2b5d 2E       		.uleb128 0x2e
 9598 2b5e 01       		.byte	0x1
 9599 2b5f 50       		.byte	0x50
 9600 2b60 0A       		.byte	0xa
 9601 2b61 76       		.byte	0x76
 9602 2b62 00       		.sleb128 0
 9603 2b63 03       		.byte	0x3
 9604 2b64 F8000000 		.4byte	.LANCHOR1+32
 9605 2b68 22       		.byte	0x22
 9606 2b69 94       		.byte	0x94
 9607 2b6a 01       		.byte	0x1
 9608 2b6b 2E       		.uleb128 0x2e
 9609 2b6c 01       		.byte	0x1
 9610 2b6d 51       		.byte	0x51
 9611 2b6e 0B       		.byte	0xb
 9612 2b6f 76       		.byte	0x76
 9613 2b70 00       		.sleb128 0
 9614 2b71 32       		.byte	0x32
 9615 2b72 24       		.byte	0x24
 9616 2b73 03       		.byte	0x3
 9617 2b74 D8000000 		.4byte	.LANCHOR1
 9618 2b78 22       		.byte	0x22
 9619 2b79 06       		.byte	0x6
 9620 2b7a 00       		.byte	0
 9621 2b7b 4B       		.uleb128 0x4b
 9622 2b7c 50000000 		.4byte	.LVL74
ARM GAS  C:\Users\EBANO_~1\AppData\Local\Temp\ccKJ5gfE.s 			page 197


 9623 2b80 42       		.uleb128 0x42
 9624 2b81 68000000 		.4byte	.LVL78
 9625 2b85 48330000 		.4byte	0x3348
 9626 2b89 A82B0000 		.4byte	0x2ba8
 9627 2b8d 2E       		.uleb128 0x2e
 9628 2b8e 01       		.byte	0x1
 9629 2b8f 52       		.byte	0x52
 9630 2b90 02       		.byte	0x2
 9631 2b91 75       		.byte	0x75
 9632 2b92 00       		.sleb128 0
 9633 2b93 2E       		.uleb128 0x2e
 9634 2b94 01       		.byte	0x1
 9635 2b95 53       		.byte	0x53
 9636 2b96 02       		.byte	0x2
 9637 2b97 78       		.byte	0x78
 9638 2b98 00       		.sleb128 0
 9639 2b99 2E       		.uleb128 0x2e
 9640 2b9a 02       		.byte	0x2
 9641 2b9b 7D       		.byte	0x7d
 9642 2b9c 04       		.sleb128 4
 9643 2b9d 02       		.byte	0x2
 9644 2b9e 74       		.byte	0x74
 9645 2b9f 00       		.sleb128 0
 9646 2ba0 2E       		.uleb128 0x2e
 9647 2ba1 02       		.byte	0x2
 9648 2ba2 7D       		.byte	0x7d
 9649 2ba3 08       		.sleb128 8
 9650 2ba4 02       		.byte	0x2
 9651 2ba5 74       		.byte	0x74
 9652 2ba6 04       		.sleb128 4
 9653 2ba7 00       		.byte	0
 9654 2ba8 2D       		.uleb128 0x2d
 9655 2ba9 7E000000 		.4byte	.LVL84
 9656 2bad 56330000 		.4byte	0x3356
 9657 2bb1 2E       		.uleb128 0x2e
 9658 2bb2 01       		.byte	0x1
 9659 2bb3 50       		.byte	0x50
 9660 2bb4 02       		.byte	0x2
 9661 2bb5 08       		.byte	0x8
 9662 2bb6 32       		.byte	0x32
 9663 2bb7 00       		.byte	0
 9664 2bb8 00       		.byte	0
 9665 2bb9 02       		.uleb128 0x2
 9666 2bba 08       		.byte	0x8
 9667 2bbb 04       		.byte	0x4
 9668 2bbc ED190000 		.4byte	.LASF510
 9669 2bc0 3F       		.uleb128 0x3f
 9670 2bc1 01       		.byte	0x1
 9671 2bc2 931C0000 		.4byte	.LASF511
 9672 2bc6 01       		.byte	0x1
 9673 2bc7 E901     		.2byte	0x1e9
 9674 2bc9 01       		.byte	0x1
 9675 2bca 150B0000 		.4byte	0xb15
 9676 2bce 00000000 		.4byte	.LFB50
 9677 2bd2 34000000 		.4byte	.LFE50
 9678 2bd6 DE120000 		.4byte	.LLST22
 9679 2bda 01       		.byte	0x1
ARM GAS  C:\Users\EBANO_~1\AppData\Local\Temp\ccKJ5gfE.s 			page 198


 9680 2bdb 242C0000 		.4byte	0x2c24
 9681 2bdf 2C       		.uleb128 0x2c
 9682 2be0 F3000000 		.4byte	.LASF512
 9683 2be4 01       		.byte	0x1
 9684 2be5 E901     		.2byte	0x1e9
 9685 2be7 242C0000 		.4byte	0x2c24
 9686 2beb FE120000 		.4byte	.LLST23
 9687 2bef 42       		.uleb128 0x42
 9688 2bf0 1A000000 		.4byte	.LVL62
 9689 2bf4 64330000 		.4byte	0x3364
 9690 2bf8 0B2C0000 		.4byte	0x2c0b
 9691 2bfc 2E       		.uleb128 0x2e
 9692 2bfd 01       		.byte	0x1
 9693 2bfe 50       		.byte	0x50
 9694 2bff 05       		.byte	0x5
 9695 2c00 03       		.byte	0x3
 9696 2c01 D2000000 		.4byte	NvmCtx+210
 9697 2c05 2E       		.uleb128 0x2e
 9698 2c06 01       		.byte	0x1
 9699 2c07 52       		.byte	0x52
 9700 2c08 01       		.byte	0x1
 9701 2c09 31       		.byte	0x31
 9702 2c0a 00       		.byte	0
 9703 2c0b 2D       		.uleb128 0x2d
 9704 2c0c 28000000 		.4byte	.LVL65
 9705 2c10 64330000 		.4byte	0x3364
 9706 2c14 2E       		.uleb128 0x2e
 9707 2c15 01       		.byte	0x1
 9708 2c16 50       		.byte	0x50
 9709 2c17 05       		.byte	0x5
 9710 2c18 03       		.byte	0x3
 9711 2c19 D0000000 		.4byte	NvmCtx+208
 9712 2c1d 2E       		.uleb128 0x2e
 9713 2c1e 01       		.byte	0x1
 9714 2c1f 52       		.byte	0x52
 9715 2c20 01       		.byte	0x1
 9716 2c21 31       		.byte	0x31
 9717 2c22 00       		.byte	0
 9718 2c23 00       		.byte	0
 9719 2c24 0A       		.uleb128 0xa
 9720 2c25 04       		.byte	0x4
 9721 2c26 92160000 		.4byte	0x1692
 9722 2c2a 2B       		.uleb128 0x2b
 9723 2c2b 01       		.byte	0x1
 9724 2c2c D3000000 		.4byte	.LASF513
 9725 2c30 01       		.byte	0x1
 9726 2c31 AE01     		.2byte	0x1ae
 9727 2c33 01       		.byte	0x1
 9728 2c34 00000000 		.4byte	.LFB49
 9729 2c38 44010000 		.4byte	.LFE49
 9730 2c3c 51130000 		.4byte	.LLST13
 9731 2c40 01       		.byte	0x1
 9732 2c41 E32D0000 		.4byte	0x2de3
 9733 2c45 2C       		.uleb128 0x2c
 9734 2c46 CA050000 		.4byte	.LASF514
 9735 2c4a 01       		.byte	0x1
 9736 2c4b AE01     		.2byte	0x1ae
ARM GAS  C:\Users\EBANO_~1\AppData\Local\Temp\ccKJ5gfE.s 			page 199


 9737 2c4d E32D0000 		.4byte	0x2de3
 9738 2c51 8A130000 		.4byte	.LLST14
 9739 2c55 29       		.uleb128 0x29
 9740 2c56 B3190000 		.4byte	.LASF515
 9741 2c5a 01       		.byte	0x1
 9742 2c5b B001     		.2byte	0x1b0
 9743 2c5d 41110000 		.4byte	0x1141
 9744 2c61 02       		.byte	0x2
 9745 2c62 91       		.byte	0x91
 9746 2c63 4C       		.sleb128 -52
 9747 2c64 32       		.uleb128 0x32
 9748 2c65 55130000 		.4byte	.LASF454
 9749 2c69 01       		.byte	0x1
 9750 2c6a B101     		.2byte	0x1b1
 9751 2c6c 911A0000 		.4byte	0x1a91
 9752 2c70 32       		.uleb128 0x32
 9753 2c71 EA1F0000 		.4byte	.LASF453
 9754 2c75 01       		.byte	0x1
 9755 2c76 B201     		.2byte	0x1b2
 9756 2c78 BA1A0000 		.4byte	0x1aba
 9757 2c7c 38       		.uleb128 0x38
 9758 2c7d 00000000 		.4byte	.Ldebug_ranges0+0
 9759 2c81 48       		.uleb128 0x48
 9760 2c82 6900     		.ascii	"i\000"
 9761 2c84 01       		.byte	0x1
 9762 2c85 C401     		.2byte	0x1c4
 9763 2c87 BC000000 		.4byte	0xbc
 9764 2c8b CC130000 		.4byte	.LLST15
 9765 2c8f 33       		.uleb128 0x33
 9766 2c90 D5030000 		.4byte	.LASF516
 9767 2c94 01       		.byte	0x1
 9768 2c95 C401     		.2byte	0x1c4
 9769 2c97 BC000000 		.4byte	0xbc
 9770 2c9b FB130000 		.4byte	.LLST16
 9771 2c9f 34       		.uleb128 0x34
 9772 2ca0 4F200000 		.4byte	0x204f
 9773 2ca4 32000000 		.4byte	.LBB32
 9774 2ca8 20000000 		.4byte	.Ldebug_ranges0+0x20
 9775 2cac 01       		.byte	0x1
 9776 2cad E401     		.2byte	0x1e4
 9777 2caf 122D0000 		.4byte	0x2d12
 9778 2cb3 35       		.uleb128 0x35
 9779 2cb4 62200000 		.4byte	0x2062
 9780 2cb8 47140000 		.4byte	.LLST17
 9781 2cbc 38       		.uleb128 0x38
 9782 2cbd 20000000 		.4byte	.Ldebug_ranges0+0x20
 9783 2cc1 40       		.uleb128 0x40
 9784 2cc2 6E200000 		.4byte	0x206e
 9785 2cc6 5F140000 		.4byte	.LLST18
 9786 2cca 42       		.uleb128 0x42
 9787 2ccb 58000000 		.4byte	.LVL42
 9788 2ccf A1320000 		.4byte	0x32a1
 9789 2cd3 F22C0000 		.4byte	0x2cf2
 9790 2cd7 2E       		.uleb128 0x2e
 9791 2cd8 01       		.byte	0x1
 9792 2cd9 50       		.byte	0x50
 9793 2cda 0C       		.byte	0xc
ARM GAS  C:\Users\EBANO_~1\AppData\Local\Temp\ccKJ5gfE.s 			page 200


 9794 2cdb 75       		.byte	0x75
 9795 2cdc 00       		.sleb128 0
 9796 2cdd 31       		.byte	0x31
 9797 2cde 24       		.byte	0x24
 9798 2cdf 75       		.byte	0x75
 9799 2ce0 00       		.sleb128 0
 9800 2ce1 22       		.byte	0x22
 9801 2ce2 32       		.byte	0x32
 9802 2ce3 24       		.byte	0x24
 9803 2ce4 79       		.byte	0x79
 9804 2ce5 00       		.sleb128 0
 9805 2ce6 22       		.byte	0x22
 9806 2ce7 2E       		.uleb128 0x2e
 9807 2ce8 01       		.byte	0x1
 9808 2ce9 51       		.byte	0x51
 9809 2cea 01       		.byte	0x1
 9810 2ceb 30       		.byte	0x30
 9811 2cec 2E       		.uleb128 0x2e
 9812 2ced 01       		.byte	0x1
 9813 2cee 52       		.byte	0x52
 9814 2cef 01       		.byte	0x1
 9815 2cf0 3C       		.byte	0x3c
 9816 2cf1 00       		.byte	0
 9817 2cf2 2D       		.uleb128 0x2d
 9818 2cf3 62000000 		.4byte	.LVL43
 9819 2cf7 F6320000 		.4byte	0x32f6
 9820 2cfb 2E       		.uleb128 0x2e
 9821 2cfc 01       		.byte	0x1
 9822 2cfd 50       		.byte	0x50
 9823 2cfe 05       		.byte	0x5
 9824 2cff 03       		.byte	0x3
 9825 2d00 D0000000 		.4byte	NvmCtx+208
 9826 2d04 2E       		.uleb128 0x2e
 9827 2d05 01       		.byte	0x1
 9828 2d06 51       		.byte	0x51
 9829 2d07 02       		.byte	0x2
 9830 2d08 78       		.byte	0x78
 9831 2d09 00       		.sleb128 0
 9832 2d0a 2E       		.uleb128 0x2e
 9833 2d0b 01       		.byte	0x1
 9834 2d0c 52       		.byte	0x52
 9835 2d0d 01       		.byte	0x1
 9836 2d0e 40       		.byte	0x40
 9837 2d0f 00       		.byte	0
 9838 2d10 00       		.byte	0
 9839 2d11 00       		.byte	0
 9840 2d12 4C       		.uleb128 0x4c
 9841 2d13 80200000 		.4byte	0x2080
 9842 2d17 98000000 		.4byte	.LBB38
 9843 2d1b 44010000 		.4byte	.LBE38
 9844 2d1f 01       		.byte	0x1
 9845 2d20 DE01     		.2byte	0x1de
 9846 2d22 36       		.uleb128 0x36
 9847 2d23 93200000 		.4byte	0x2093
 9848 2d27 06       		.byte	0x6
 9849 2d28 F2       		.byte	0xf2
 9850 2d29 642C0000 		.4byte	.Ldebug_info0+11364
ARM GAS  C:\Users\EBANO_~1\AppData\Local\Temp\ccKJ5gfE.s 			page 201


 9851 2d2d 00       		.sleb128 0
 9852 2d2e 4D       		.uleb128 0x4d
 9853 2d2f 98000000 		.4byte	.LBB39
 9854 2d33 44010000 		.4byte	.LBE39
 9855 2d37 40       		.uleb128 0x40
 9856 2d38 9F200000 		.4byte	0x209f
 9857 2d3c 72140000 		.4byte	.LLST19
 9858 2d40 4E       		.uleb128 0x4e
 9859 2d41 AB200000 		.4byte	0x20ab
 9860 2d45 00       		.byte	0
 9861 2d46 40       		.uleb128 0x40
 9862 2d47 B7200000 		.4byte	0x20b7
 9863 2d4b AE140000 		.4byte	.LLST20
 9864 2d4f 34       		.uleb128 0x34
 9865 2d50 26300000 		.4byte	0x3026
 9866 2d54 D0000000 		.4byte	.LBB40
 9867 2d58 40000000 		.4byte	.Ldebug_ranges0+0x40
 9868 2d5c 01       		.byte	0x1
 9869 2d5d AD03     		.2byte	0x3ad
 9870 2d5f 8A2D0000 		.4byte	0x2d8a
 9871 2d63 35       		.uleb128 0x35
 9872 2d64 37300000 		.4byte	0x3037
 9873 2d68 CC140000 		.4byte	.LLST21
 9874 2d6c 49       		.uleb128 0x49
 9875 2d6d E6000000 		.4byte	.LVL54
 9876 2d71 03       		.byte	0x3
 9877 2d72 7B       		.byte	0x7b
 9878 2d73 28       		.sleb128 40
 9879 2d74 06       		.byte	0x6
 9880 2d75 802D0000 		.4byte	0x2d80
 9881 2d79 2E       		.uleb128 0x2e
 9882 2d7a 01       		.byte	0x1
 9883 2d7b 50       		.byte	0x50
 9884 2d7c 02       		.byte	0x2
 9885 2d7d 78       		.byte	0x78
 9886 2d7e 00       		.sleb128 0
 9887 2d7f 00       		.byte	0
 9888 2d80 46       		.uleb128 0x46
 9889 2d81 2E010000 		.4byte	.LVL57
 9890 2d85 03       		.byte	0x3
 9891 2d86 91       		.byte	0x91
 9892 2d87 44       		.sleb128 -60
 9893 2d88 06       		.byte	0x6
 9894 2d89 00       		.byte	0
 9895 2d8a 42       		.uleb128 0x42
 9896 2d8b A6000000 		.4byte	.LVL49
 9897 2d8f 94320000 		.4byte	0x3294
 9898 2d93 A22D0000 		.4byte	0x2da2
 9899 2d97 2E       		.uleb128 0x2e
 9900 2d98 01       		.byte	0x1
 9901 2d99 51       		.byte	0x51
 9902 2d9a 01       		.byte	0x1
 9903 2d9b 30       		.byte	0x30
 9904 2d9c 2E       		.uleb128 0x2e
 9905 2d9d 01       		.byte	0x1
 9906 2d9e 52       		.byte	0x52
 9907 2d9f 01       		.byte	0x1
ARM GAS  C:\Users\EBANO_~1\AppData\Local\Temp\ccKJ5gfE.s 			page 202


 9908 2da0 37       		.byte	0x37
 9909 2da1 00       		.byte	0
 9910 2da2 42       		.uleb128 0x42
 9911 2da3 B6000000 		.4byte	.LVL51
 9912 2da7 94320000 		.4byte	0x3294
 9913 2dab BA2D0000 		.4byte	0x2dba
 9914 2daf 2E       		.uleb128 0x2e
 9915 2db0 01       		.byte	0x1
 9916 2db1 51       		.byte	0x51
 9917 2db2 01       		.byte	0x1
 9918 2db3 30       		.byte	0x30
 9919 2db4 2E       		.uleb128 0x2e
 9920 2db5 01       		.byte	0x1
 9921 2db6 52       		.byte	0x52
 9922 2db7 01       		.byte	0x1
 9923 2db8 37       		.byte	0x37
 9924 2db9 00       		.byte	0
 9925 2dba 2D       		.uleb128 0x2d
 9926 2dbb 0E010000 		.4byte	.LVL55
 9927 2dbf 04330000 		.4byte	0x3304
 9928 2dc3 2E       		.uleb128 0x2e
 9929 2dc4 01       		.byte	0x1
 9930 2dc5 50       		.byte	0x50
 9931 2dc6 0C       		.byte	0xc
 9932 2dc7 75       		.byte	0x75
 9933 2dc8 00       		.sleb128 0
 9934 2dc9 31       		.byte	0x31
 9935 2dca 24       		.byte	0x24
 9936 2dcb 75       		.byte	0x75
 9937 2dcc 00       		.sleb128 0
 9938 2dcd 22       		.byte	0x22
 9939 2dce 32       		.byte	0x32
 9940 2dcf 24       		.byte	0x24
 9941 2dd0 78       		.byte	0x78
 9942 2dd1 00       		.sleb128 0
 9943 2dd2 22       		.byte	0x22
 9944 2dd3 2E       		.uleb128 0x2e
 9945 2dd4 01       		.byte	0x1
 9946 2dd5 51       		.byte	0x51
 9947 2dd6 02       		.byte	0x2
 9948 2dd7 74       		.byte	0x74
 9949 2dd8 00       		.sleb128 0
 9950 2dd9 2E       		.uleb128 0x2e
 9951 2dda 01       		.byte	0x1
 9952 2ddb 52       		.byte	0x52
 9953 2ddc 01       		.byte	0x1
 9954 2ddd 3C       		.byte	0x3c
 9955 2dde 00       		.byte	0
 9956 2ddf 00       		.byte	0
 9957 2de0 00       		.byte	0
 9958 2de1 00       		.byte	0
 9959 2de2 00       		.byte	0
 9960 2de3 0A       		.uleb128 0xa
 9961 2de4 04       		.byte	0x4
 9962 2de5 5A160000 		.4byte	0x165a
 9963 2de9 3F       		.uleb128 0x3f
 9964 2dea 01       		.byte	0x1
ARM GAS  C:\Users\EBANO_~1\AppData\Local\Temp\ccKJ5gfE.s 			page 203


 9965 2deb 79170000 		.4byte	.LASF517
 9966 2def 01       		.byte	0x1
 9967 2df0 8F01     		.2byte	0x18f
 9968 2df2 01       		.byte	0x1
 9969 2df3 150B0000 		.4byte	0xb15
 9970 2df7 00000000 		.4byte	.LFB48
 9971 2dfb 48000000 		.4byte	.LFE48
 9972 2dff EC140000 		.4byte	.LLST10
 9973 2e03 01       		.byte	0x1
 9974 2e04 552E0000 		.4byte	0x2e55
 9975 2e08 2C       		.uleb128 0x2c
 9976 2e09 76030000 		.4byte	.LASF518
 9977 2e0d 01       		.byte	0x1
 9978 2e0e 8F01     		.2byte	0x18f
 9979 2e10 552E0000 		.4byte	0x2e55
 9980 2e14 0C150000 		.4byte	.LLST11
 9981 2e18 2C       		.uleb128 0x2c
 9982 2e19 AC140000 		.4byte	.LASF519
 9983 2e1d 01       		.byte	0x1
 9984 2e1e 8F01     		.2byte	0x18f
 9985 2e20 B2130000 		.4byte	0x13b2
 9986 2e24 78150000 		.4byte	.LLST12
 9987 2e28 42       		.uleb128 0x42
 9988 2e29 1E000000 		.4byte	.LVL27
 9989 2e2d 94320000 		.4byte	0x3294
 9990 2e31 402E0000 		.4byte	0x2e40
 9991 2e35 2E       		.uleb128 0x2e
 9992 2e36 01       		.byte	0x1
 9993 2e37 51       		.byte	0x51
 9994 2e38 01       		.byte	0x1
 9995 2e39 30       		.byte	0x30
 9996 2e3a 2E       		.uleb128 0x2e
 9997 2e3b 01       		.byte	0x1
 9998 2e3c 52       		.byte	0x52
 9999 2e3d 01       		.byte	0x1
 10000 2e3e 35       		.byte	0x35
 10001 2e3f 00       		.byte	0
 10002 2e40 2D       		.uleb128 0x2d
 10003 2e41 32000000 		.4byte	.LVL30
 10004 2e45 94320000 		.4byte	0x3294
 10005 2e49 2E       		.uleb128 0x2e
 10006 2e4a 01       		.byte	0x1
 10007 2e4b 51       		.byte	0x51
 10008 2e4c 01       		.byte	0x1
 10009 2e4d 30       		.byte	0x30
 10010 2e4e 2E       		.uleb128 0x2e
 10011 2e4f 01       		.byte	0x1
 10012 2e50 52       		.byte	0x52
 10013 2e51 01       		.byte	0x1
 10014 2e52 37       		.byte	0x37
 10015 2e53 00       		.byte	0
 10016 2e54 00       		.byte	0
 10017 2e55 0A       		.uleb128 0xa
 10018 2e56 04       		.byte	0x4
 10019 2e57 22160000 		.4byte	0x1622
 10020 2e5b 2F       		.uleb128 0x2f
 10021 2e5c 01       		.byte	0x1
ARM GAS  C:\Users\EBANO_~1\AppData\Local\Temp\ccKJ5gfE.s 			page 204


 10022 2e5d 5D010000 		.4byte	.LASF520
 10023 2e61 01       		.byte	0x1
 10024 2e62 8901     		.2byte	0x189
 10025 2e64 01       		.byte	0x1
 10026 2e65 82010000 		.4byte	0x182
 10027 2e69 00000000 		.4byte	.LFB47
 10028 2e6d 0C000000 		.4byte	.LFE47
 10029 2e71 02       		.byte	0x2
 10030 2e72 7D       		.byte	0x7d
 10031 2e73 00       		.sleb128 0
 10032 2e74 01       		.byte	0x1
 10033 2e75 8A2E0000 		.4byte	0x2e8a
 10034 2e79 2C       		.uleb128 0x2c
 10035 2e7a C70E0000 		.4byte	.LASF521
 10036 2e7e 01       		.byte	0x1
 10037 2e7f 8901     		.2byte	0x189
 10038 2e81 8A2E0000 		.4byte	0x2e8a
 10039 2e85 99150000 		.4byte	.LLST9
 10040 2e89 00       		.byte	0
 10041 2e8a 0A       		.uleb128 0xa
 10042 2e8b 04       		.byte	0x4
 10043 2e8c A9150000 		.4byte	0x15a9
 10044 2e90 2B       		.uleb128 0x2b
 10045 2e91 01       		.byte	0x1
 10046 2e92 5D210000 		.4byte	.LASF522
 10047 2e96 01       		.byte	0x1
 10048 2e97 5B01     		.2byte	0x15b
 10049 2e99 01       		.byte	0x1
 10050 2e9a 00000000 		.4byte	.LFB46
 10051 2e9e 94000000 		.4byte	.LFE46
 10052 2ea2 BA150000 		.4byte	.LLST7
 10053 2ea6 01       		.byte	0x1
 10054 2ea7 222F0000 		.4byte	0x2f22
 10055 2eab 2C       		.uleb128 0x2c
 10056 2eac C70E0000 		.4byte	.LASF521
 10057 2eb0 01       		.byte	0x1
 10058 2eb1 5B01     		.2byte	0x15b
 10059 2eb3 222F0000 		.4byte	0x2f22
 10060 2eb7 E6150000 		.4byte	.LLST8
 10061 2ebb 29       		.uleb128 0x29
 10062 2ebc 09150000 		.4byte	.LASF523
 10063 2ec0 01       		.byte	0x1
 10064 2ec1 5D01     		.2byte	0x15d
 10065 2ec3 9A1E0000 		.4byte	0x1e9a
 10066 2ec7 02       		.byte	0x2
 10067 2ec8 91       		.byte	0x91
 10068 2ec9 58       		.sleb128 -40
 10069 2eca 42       		.uleb128 0x42
 10070 2ecb 30000000 		.4byte	.LVL15
 10071 2ecf 04330000 		.4byte	0x3304
 10072 2ed3 E72E0000 		.4byte	0x2ee7
 10073 2ed7 2E       		.uleb128 0x2e
 10074 2ed8 01       		.byte	0x1
 10075 2ed9 50       		.byte	0x50
 10076 2eda 05       		.byte	0x5
 10077 2edb 03       		.byte	0x3
 10078 2edc 00000000 		.4byte	NvmCtx
ARM GAS  C:\Users\EBANO_~1\AppData\Local\Temp\ccKJ5gfE.s 			page 205


 10079 2ee0 2E       		.uleb128 0x2e
 10080 2ee1 01       		.byte	0x1
 10081 2ee2 52       		.byte	0x52
 10082 2ee3 02       		.byte	0x2
 10083 2ee4 08       		.byte	0x8
 10084 2ee5 D4       		.byte	0xd4
 10085 2ee6 00       		.byte	0
 10086 2ee7 42       		.uleb128 0x42
 10087 2ee8 40000000 		.4byte	.LVL18
 10088 2eec 04330000 		.4byte	0x3304
 10089 2ef0 062F0000 		.4byte	0x2f06
 10090 2ef4 2E       		.uleb128 0x2e
 10091 2ef5 01       		.byte	0x1
 10092 2ef6 50       		.byte	0x50
 10093 2ef7 02       		.byte	0x2
 10094 2ef8 74       		.byte	0x74
 10095 2ef9 00       		.sleb128 0
 10096 2efa 2E       		.uleb128 0x2e
 10097 2efb 01       		.byte	0x1
 10098 2efc 51       		.byte	0x51
 10099 2efd 02       		.byte	0x2
 10100 2efe 7D       		.byte	0x7d
 10101 2eff 00       		.sleb128 0
 10102 2f00 2E       		.uleb128 0x2e
 10103 2f01 01       		.byte	0x1
 10104 2f02 52       		.byte	0x52
 10105 2f03 01       		.byte	0x1
 10106 2f04 40       		.byte	0x40
 10107 2f05 00       		.byte	0
 10108 2f06 2D       		.uleb128 0x2d
 10109 2f07 76000000 		.4byte	.LVL19
 10110 2f0b 64330000 		.4byte	0x3364
 10111 2f0f 2E       		.uleb128 0x2e
 10112 2f10 01       		.byte	0x1
 10113 2f11 50       		.byte	0x50
 10114 2f12 02       		.byte	0x2
 10115 2f13 74       		.byte	0x74
 10116 2f14 10       		.sleb128 16
 10117 2f15 2E       		.uleb128 0x2e
 10118 2f16 01       		.byte	0x1
 10119 2f17 51       		.byte	0x51
 10120 2f18 02       		.byte	0x2
 10121 2f19 74       		.byte	0x74
 10122 2f1a 12       		.sleb128 18
 10123 2f1b 2E       		.uleb128 0x2e
 10124 2f1c 01       		.byte	0x1
 10125 2f1d 52       		.byte	0x52
 10126 2f1e 01       		.byte	0x1
 10127 2f1f 31       		.byte	0x31
 10128 2f20 00       		.byte	0
 10129 2f21 00       		.byte	0
 10130 2f22 0A       		.uleb128 0xa
 10131 2f23 04       		.byte	0x4
 10132 2f24 80150000 		.4byte	0x1580
 10133 2f28 2B       		.uleb128 0x2b
 10134 2f29 01       		.byte	0x1
 10135 2f2a DD020000 		.4byte	.LASF524
ARM GAS  C:\Users\EBANO_~1\AppData\Local\Temp\ccKJ5gfE.s 			page 206


 10136 2f2e 01       		.byte	0x1
 10137 2f2f 5601     		.2byte	0x156
 10138 2f31 01       		.byte	0x1
 10139 2f32 00000000 		.4byte	.LFB45
 10140 2f36 24000000 		.4byte	.LFE45
 10141 2f3a 39160000 		.4byte	.LLST5
 10142 2f3e 01       		.byte	0x1
 10143 2f3f 5D2F0000 		.4byte	0x2f5d
 10144 2f43 2C       		.uleb128 0x2c
 10145 2f44 55050000 		.4byte	.LASF525
 10146 2f48 01       		.byte	0x1
 10147 2f49 5601     		.2byte	0x156
 10148 2f4b 5D2F0000 		.4byte	0x2f5d
 10149 2f4f 59160000 		.4byte	.LLST6
 10150 2f53 3A       		.uleb128 0x3a
 10151 2f54 1E000000 		.4byte	.LVL12
 10152 2f58 72330000 		.4byte	0x3372
 10153 2f5c 00       		.byte	0
 10154 2f5d 0A       		.uleb128 0xa
 10155 2f5e 04       		.byte	0x4
 10156 2f5f 48150000 		.4byte	0x1548
 10157 2f63 4F       		.uleb128 0x4f
 10158 2f64 01       		.byte	0x1
 10159 2f65 9B010000 		.4byte	.LASF526
 10160 2f69 01       		.byte	0x1
 10161 2f6a A4       		.byte	0xa4
 10162 2f6b 01       		.byte	0x1
 10163 2f6c AB140000 		.4byte	0x14ab
 10164 2f70 01       		.byte	0x1
 10165 2f71 8C2F0000 		.4byte	0x2f8c
 10166 2f75 50       		.uleb128 0x50
 10167 2f76 F7180000 		.4byte	.LASF492
 10168 2f7a 01       		.byte	0x1
 10169 2f7b A4       		.byte	0xa4
 10170 2f7c 8C2F0000 		.4byte	0x2f8c
 10171 2f80 51       		.uleb128 0x51
 10172 2f81 63040000 		.4byte	.LASF493
 10173 2f85 01       		.byte	0x1
 10174 2f86 A6       		.byte	0xa6
 10175 2f87 AB140000 		.4byte	0x14ab
 10176 2f8b 00       		.byte	0
 10177 2f8c 0A       		.uleb128 0xa
 10178 2f8d 04       		.byte	0x4
 10179 2f8e 01150000 		.4byte	0x1501
 10180 2f92 52       		.uleb128 0x52
 10181 2f93 E9080000 		.4byte	.LASF531
 10182 2f97 01       		.byte	0x1
 10183 2f98 7B       		.byte	0x7b
 10184 2f99 01       		.byte	0x1
 10185 2f9a BC000000 		.4byte	0xbc
 10186 2f9e 01       		.byte	0x1
 10187 2f9f 26300000 		.4byte	0x3026
 10188 2fa3 50       		.uleb128 0x50
 10189 2fa4 DE160000 		.4byte	.LASF527
 10190 2fa8 01       		.byte	0x1
 10191 2fa9 7B       		.byte	0x7b
 10192 2faa 150B0000 		.4byte	0xb15
ARM GAS  C:\Users\EBANO_~1\AppData\Local\Temp\ccKJ5gfE.s 			page 207


 10193 2fae 50       		.uleb128 0x50
 10194 2faf EB040000 		.4byte	.LASF444
 10195 2fb3 01       		.byte	0x1
 10196 2fb4 7B       		.byte	0x7b
 10197 2fb5 BC000000 		.4byte	0xbc
 10198 2fb9 50       		.uleb128 0x50
 10199 2fba EA130000 		.4byte	.LASF528
 10200 2fbe 01       		.byte	0x1
 10201 2fbf 7B       		.byte	0x7b
 10202 2fc0 95110000 		.4byte	0x1195
 10203 2fc4 50       		.uleb128 0x50
 10204 2fc5 461D0000 		.4byte	.LASF529
 10205 2fc9 01       		.byte	0x1
 10206 2fca 7B       		.byte	0x7b
 10207 2fcb 8F110000 		.4byte	0x118f
 10208 2fcf 50       		.uleb128 0x50
 10209 2fd0 09150000 		.4byte	.LASF523
 10210 2fd4 01       		.byte	0x1
 10211 2fd5 7B       		.byte	0x7b
 10212 2fd6 541D0000 		.4byte	0x1d54
 10213 2fda 50       		.uleb128 0x50
 10214 2fdb 7B1A0000 		.4byte	.LASF465
 10215 2fdf 01       		.byte	0x1
 10216 2fe0 7B       		.byte	0x7b
 10217 2fe1 840A0000 		.4byte	0xa84
 10218 2fe5 50       		.uleb128 0x50
 10219 2fe6 22070000 		.4byte	.LASF464
 10220 2fea 01       		.byte	0x1
 10221 2feb 7B       		.byte	0x7b
 10222 2fec 840A0000 		.4byte	0xa84
 10223 2ff0 51       		.uleb128 0x51
 10224 2ff1 21160000 		.4byte	.LASF463
 10225 2ff5 01       		.byte	0x1
 10226 2ff6 7D       		.byte	0x7d
 10227 2ff7 BC000000 		.4byte	0xbc
 10228 2ffb 51       		.uleb128 0x51
 10229 2ffc EF1C0000 		.4byte	.LASF530
 10230 3000 01       		.byte	0x1
 10231 3001 7E       		.byte	0x7e
 10232 3002 BC000000 		.4byte	0xbc
 10233 3006 53       		.uleb128 0x53
 10234 3007 54       		.uleb128 0x54
 10235 3008 6900     		.ascii	"i\000"
 10236 300a 01       		.byte	0x1
 10237 300b 80       		.byte	0x80
 10238 300c BC000000 		.4byte	0xbc
 10239 3010 54       		.uleb128 0x54
 10240 3011 6B00     		.ascii	"k\000"
 10241 3013 01       		.byte	0x1
 10242 3014 80       		.byte	0x80
 10243 3015 BC000000 		.4byte	0xbc
 10244 3019 53       		.uleb128 0x53
 10245 301a 54       		.uleb128 0x54
 10246 301b 6A00     		.ascii	"j\000"
 10247 301d 01       		.byte	0x1
 10248 301e 82       		.byte	0x82
 10249 301f BC000000 		.4byte	0xbc
ARM GAS  C:\Users\EBANO_~1\AppData\Local\Temp\ccKJ5gfE.s 			page 208


 10250 3023 00       		.byte	0
 10251 3024 00       		.byte	0
 10252 3025 00       		.byte	0
 10253 3026 52       		.uleb128 0x52
 10254 3027 56140000 		.4byte	.LASF532
 10255 302b 01       		.byte	0x1
 10256 302c 6C       		.byte	0x6c
 10257 302d 01       		.byte	0x1
 10258 302e 150B0000 		.4byte	0xb15
 10259 3032 01       		.byte	0x1
 10260 3033 43300000 		.4byte	0x3043
 10261 3037 50       		.uleb128 0x50
 10262 3038 39040000 		.4byte	.LASF533
 10263 303c 01       		.byte	0x1
 10264 303d 6C       		.byte	0x6c
 10265 303e ED000000 		.4byte	0xed
 10266 3042 00       		.byte	0
 10267 3043 52       		.uleb128 0x52
 10268 3044 58120000 		.4byte	.LASF534
 10269 3048 01       		.byte	0x1
 10270 3049 62       		.byte	0x62
 10271 304a 01       		.byte	0x1
 10272 304b B1000000 		.4byte	0xb1
 10273 304f 01       		.byte	0x1
 10274 3050 8C300000 		.4byte	0x308c
 10275 3054 50       		.uleb128 0x50
 10276 3055 F2100000 		.4byte	.LASF497
 10277 3059 01       		.byte	0x1
 10278 305a 62       		.byte	0x62
 10279 305b B1000000 		.4byte	0xb1
 10280 305f 50       		.uleb128 0x50
 10281 3060 DE090000 		.4byte	.LASF535
 10282 3064 01       		.byte	0x1
 10283 3065 62       		.byte	0x62
 10284 3066 B1000000 		.4byte	0xb1
 10285 306a 50       		.uleb128 0x50
 10286 306b EB040000 		.4byte	.LASF444
 10287 306f 01       		.byte	0x1
 10288 3070 62       		.byte	0x62
 10289 3071 B1000000 		.4byte	0xb1
 10290 3075 50       		.uleb128 0x50
 10291 3076 EA130000 		.4byte	.LASF528
 10292 307a 01       		.byte	0x1
 10293 307b 62       		.byte	0x62
 10294 307c 95110000 		.4byte	0x1195
 10295 3080 51       		.uleb128 0x51
 10296 3081 E3030000 		.4byte	.LASF536
 10297 3085 01       		.byte	0x1
 10298 3086 64       		.byte	0x64
 10299 3087 B1000000 		.4byte	0xb1
 10300 308b 00       		.byte	0
 10301 308c 52       		.uleb128 0x52
 10302 308d 1F170000 		.4byte	.LASF537
 10303 3091 01       		.byte	0x1
 10304 3092 54       		.byte	0x54
 10305 3093 01       		.byte	0x1
 10306 3094 ED000000 		.4byte	0xed
ARM GAS  C:\Users\EBANO_~1\AppData\Local\Temp\ccKJ5gfE.s 			page 209


 10307 3098 01       		.byte	0x1
 10308 3099 A9300000 		.4byte	0x30a9
 10309 309d 50       		.uleb128 0x50
 10310 309e 3B0B0000 		.4byte	.LASF538
 10311 30a2 01       		.byte	0x1
 10312 30a3 54       		.byte	0x54
 10313 30a4 ED000000 		.4byte	0xed
 10314 30a8 00       		.byte	0
 10315 30a9 52       		.uleb128 0x52
 10316 30aa F10E0000 		.4byte	.LASF539
 10317 30ae 01       		.byte	0x1
 10318 30af 45       		.byte	0x45
 10319 30b0 01       		.byte	0x1
 10320 30b1 B1000000 		.4byte	0xb1
 10321 30b5 01       		.byte	0x1
 10322 30b6 DB300000 		.4byte	0x30db
 10323 30ba 55       		.uleb128 0x55
 10324 30bb 647200   		.ascii	"dr\000"
 10325 30be 01       		.byte	0x1
 10326 30bf 45       		.byte	0x45
 10327 30c0 B1000000 		.4byte	0xb1
 10328 30c4 50       		.uleb128 0x50
 10329 30c5 3C0E0000 		.4byte	.LASF540
 10330 30c9 01       		.byte	0x1
 10331 30ca 45       		.byte	0x45
 10332 30cb B1000000 		.4byte	0xb1
 10333 30cf 51       		.uleb128 0x51
 10334 30d0 CA1D0000 		.4byte	.LASF541
 10335 30d4 01       		.byte	0x1
 10336 30d5 47       		.byte	0x47
 10337 30d6 BC000000 		.4byte	0xbc
 10338 30da 00       		.byte	0
 10339 30db 56       		.uleb128 0x56
 10340 30dc 632F0000 		.4byte	0x2f63
 10341 30e0 00000000 		.4byte	.LFB44
 10342 30e4 14010000 		.4byte	.LFE44
 10343 30e8 7A160000 		.4byte	.LLST0
 10344 30ec 01       		.byte	0x1
 10345 30ed 54310000 		.4byte	0x3154
 10346 30f1 35       		.uleb128 0x35
 10347 30f2 752F0000 		.4byte	0x2f75
 10348 30f6 A6160000 		.4byte	.LLST1
 10349 30fa 57       		.uleb128 0x57
 10350 30fb 802F0000 		.4byte	0x2f80
 10351 30ff 02       		.byte	0x2
 10352 3100 91       		.byte	0x91
 10353 3101 70       		.sleb128 -16
 10354 3102 58       		.uleb128 0x58
 10355 3103 A9300000 		.4byte	0x30a9
 10356 3107 C6000000 		.4byte	.LBB22
 10357 310b D0000000 		.4byte	.LBE22
 10358 310f 01       		.byte	0x1
 10359 3110 BB       		.byte	0xbb
 10360 3111 3B310000 		.4byte	0x313b
 10361 3115 35       		.uleb128 0x35
 10362 3116 C4300000 		.4byte	0x30c4
 10363 311a EB160000 		.4byte	.LLST2
ARM GAS  C:\Users\EBANO_~1\AppData\Local\Temp\ccKJ5gfE.s 			page 210


 10364 311e 35       		.uleb128 0x35
 10365 311f BA300000 		.4byte	0x30ba
 10366 3123 FF160000 		.4byte	.LLST3
 10367 3127 4D       		.uleb128 0x4d
 10368 3128 C6000000 		.4byte	.LBB23
 10369 312c D0000000 		.4byte	.LBE23
 10370 3130 40       		.uleb128 0x40
 10371 3131 CF300000 		.4byte	0x30cf
 10372 3135 1F170000 		.4byte	.LLST4
 10373 3139 00       		.byte	0
 10374 313a 00       		.byte	0
 10375 313b 2D       		.uleb128 0x2d
 10376 313c 60000000 		.4byte	.LVL4
 10377 3140 DB320000 		.4byte	0x32db
 10378 3144 2E       		.uleb128 0x2e
 10379 3145 01       		.byte	0x1
 10380 3146 50       		.byte	0x50
 10381 3147 03       		.byte	0x3
 10382 3148 0B       		.byte	0xb
 10383 3149 18FC     		.2byte	0xfc18
 10384 314b 2E       		.uleb128 0x2e
 10385 314c 01       		.byte	0x1
 10386 314d 51       		.byte	0x51
 10387 314e 03       		.byte	0x3
 10388 314f 0A       		.byte	0xa
 10389 3150 E803     		.2byte	0x3e8
 10390 3152 00       		.byte	0
 10391 3153 00       		.byte	0
 10392 3154 56       		.uleb128 0x56
 10393 3155 80200000 		.4byte	0x2080
 10394 3159 00000000 		.4byte	.LFB62
 10395 315d D8000000 		.4byte	.LFE62
 10396 3161 4D170000 		.4byte	.LLST97
 10397 3165 01       		.byte	0x1
 10398 3166 0B320000 		.4byte	0x320b
 10399 316a 35       		.uleb128 0x35
 10400 316b 93200000 		.4byte	0x2093
 10401 316f 79170000 		.4byte	.LLST98
 10402 3173 40       		.uleb128 0x40
 10403 3174 9F200000 		.4byte	0x209f
 10404 3178 BE170000 		.4byte	.LLST99
 10405 317c 40       		.uleb128 0x40
 10406 317d AB200000 		.4byte	0x20ab
 10407 3181 21180000 		.4byte	.LLST100
 10408 3185 40       		.uleb128 0x40
 10409 3186 B7200000 		.4byte	0x20b7
 10410 318a 71180000 		.4byte	.LLST101
 10411 318e 34       		.uleb128 0x34
 10412 318f 26300000 		.4byte	0x3026
 10413 3193 4E000000 		.4byte	.LBB137
 10414 3197 F0010000 		.4byte	.Ldebug_ranges0+0x1f0
 10415 319b 01       		.byte	0x1
 10416 319c AD03     		.2byte	0x3ad
 10417 319e C5310000 		.4byte	0x31c5
 10418 31a2 35       		.uleb128 0x35
 10419 31a3 37300000 		.4byte	0x3037
 10420 31a7 8F180000 		.4byte	.LLST102
ARM GAS  C:\Users\EBANO_~1\AppData\Local\Temp\ccKJ5gfE.s 			page 211


 10421 31ab 45       		.uleb128 0x45
 10422 31ac 58000000 		.4byte	.LVL298
 10423 31b0 BB310000 		.4byte	0x31bb
 10424 31b4 2E       		.uleb128 0x2e
 10425 31b5 01       		.byte	0x1
 10426 31b6 50       		.byte	0x50
 10427 31b7 02       		.byte	0x2
 10428 31b8 76       		.byte	0x76
 10429 31b9 00       		.sleb128 0
 10430 31ba 00       		.byte	0
 10431 31bb 46       		.uleb128 0x46
 10432 31bc 6A000000 		.4byte	.LVL303
 10433 31c0 03       		.byte	0x3
 10434 31c1 91       		.byte	0x91
 10435 31c2 64       		.sleb128 -28
 10436 31c3 06       		.byte	0x6
 10437 31c4 00       		.byte	0
 10438 31c5 42       		.uleb128 0x42
 10439 31c6 22000000 		.4byte	.LVL293
 10440 31ca 94320000 		.4byte	0x3294
 10441 31ce DD310000 		.4byte	0x31dd
 10442 31d2 2E       		.uleb128 0x2e
 10443 31d3 01       		.byte	0x1
 10444 31d4 51       		.byte	0x51
 10445 31d5 01       		.byte	0x1
 10446 31d6 30       		.byte	0x30
 10447 31d7 2E       		.uleb128 0x2e
 10448 31d8 01       		.byte	0x1
 10449 31d9 52       		.byte	0x52
 10450 31da 01       		.byte	0x1
 10451 31db 37       		.byte	0x37
 10452 31dc 00       		.byte	0
 10453 31dd 42       		.uleb128 0x42
 10454 31de 34000000 		.4byte	.LVL295
 10455 31e2 94320000 		.4byte	0x3294
 10456 31e6 F5310000 		.4byte	0x31f5
 10457 31ea 2E       		.uleb128 0x2e
 10458 31eb 01       		.byte	0x1
 10459 31ec 51       		.byte	0x51
 10460 31ed 01       		.byte	0x1
 10461 31ee 30       		.byte	0x30
 10462 31ef 2E       		.uleb128 0x2e
 10463 31f0 01       		.byte	0x1
 10464 31f1 52       		.byte	0x52
 10465 31f2 01       		.byte	0x1
 10466 31f3 37       		.byte	0x37
 10467 31f4 00       		.byte	0
 10468 31f5 2D       		.uleb128 0x2d
 10469 31f6 B6000000 		.4byte	.LVL312
 10470 31fa 04330000 		.4byte	0x3304
 10471 31fe 2E       		.uleb128 0x2e
 10472 31ff 01       		.byte	0x1
 10473 3200 50       		.byte	0x50
 10474 3201 02       		.byte	0x2
 10475 3202 74       		.byte	0x74
 10476 3203 00       		.sleb128 0
 10477 3204 2E       		.uleb128 0x2e
ARM GAS  C:\Users\EBANO_~1\AppData\Local\Temp\ccKJ5gfE.s 			page 212


 10478 3205 01       		.byte	0x1
 10479 3206 52       		.byte	0x52
 10480 3207 01       		.byte	0x1
 10481 3208 3C       		.byte	0x3c
 10482 3209 00       		.byte	0
 10483 320a 00       		.byte	0
 10484 320b 56       		.uleb128 0x56
 10485 320c 4F200000 		.4byte	0x204f
 10486 3210 00000000 		.4byte	.LFB63
 10487 3214 30000000 		.4byte	.LFE63
 10488 3218 B1180000 		.4byte	.LLST103
 10489 321c 01       		.byte	0x1
 10490 321d 78320000 		.4byte	0x3278
 10491 3221 35       		.uleb128 0x35
 10492 3222 62200000 		.4byte	0x2062
 10493 3226 D1180000 		.4byte	.LLST104
 10494 322a 40       		.uleb128 0x40
 10495 322b 6E200000 		.4byte	0x206e
 10496 322f F2180000 		.4byte	.LLST105
 10497 3233 42       		.uleb128 0x42
 10498 3234 1C000000 		.4byte	.LVL316
 10499 3238 A1320000 		.4byte	0x32a1
 10500 323c 5B320000 		.4byte	0x325b
 10501 3240 2E       		.uleb128 0x2e
 10502 3241 01       		.byte	0x1
 10503 3242 50       		.byte	0x50
 10504 3243 0C       		.byte	0xc
 10505 3244 74       		.byte	0x74
 10506 3245 00       		.sleb128 0
 10507 3246 31       		.byte	0x31
 10508 3247 24       		.byte	0x24
 10509 3248 74       		.byte	0x74
 10510 3249 00       		.sleb128 0
 10511 324a 22       		.byte	0x22
 10512 324b 32       		.byte	0x32
 10513 324c 24       		.byte	0x24
 10514 324d 75       		.byte	0x75
 10515 324e 00       		.sleb128 0
 10516 324f 22       		.byte	0x22
 10517 3250 2E       		.uleb128 0x2e
 10518 3251 01       		.byte	0x1
 10519 3252 51       		.byte	0x51
 10520 3253 01       		.byte	0x1
 10521 3254 30       		.byte	0x30
 10522 3255 2E       		.uleb128 0x2e
 10523 3256 01       		.byte	0x1
 10524 3257 52       		.byte	0x52
 10525 3258 01       		.byte	0x1
 10526 3259 3C       		.byte	0x3c
 10527 325a 00       		.byte	0
 10528 325b 2D       		.uleb128 0x2d
 10529 325c 28000000 		.4byte	.LVL317
 10530 3260 F6320000 		.4byte	0x32f6
 10531 3264 2E       		.uleb128 0x2e
 10532 3265 01       		.byte	0x1
 10533 3266 50       		.byte	0x50
 10534 3267 03       		.byte	0x3
ARM GAS  C:\Users\EBANO_~1\AppData\Local\Temp\ccKJ5gfE.s 			page 213


 10535 3268 75       		.byte	0x75
 10536 3269 D001     		.sleb128 208
 10537 326b 2E       		.uleb128 0x2e
 10538 326c 01       		.byte	0x1
 10539 326d 51       		.byte	0x51
 10540 326e 02       		.byte	0x2
 10541 326f 74       		.byte	0x74
 10542 3270 00       		.sleb128 0
 10543 3271 2E       		.uleb128 0x2e
 10544 3272 01       		.byte	0x1
 10545 3273 52       		.byte	0x52
 10546 3274 01       		.byte	0x1
 10547 3275 40       		.byte	0x40
 10548 3276 00       		.byte	0
 10549 3277 00       		.byte	0
 10550 3278 59       		.uleb128 0x59
 10551 3279 01       		.byte	0x1
 10552 327a 01       		.byte	0x1
 10553 327b 051C0000 		.4byte	.LASF542
 10554 327f 051C0000 		.4byte	.LASF542
 10555 3283 10       		.byte	0x10
 10556 3284 9F01     		.2byte	0x19f
 10557 3286 59       		.uleb128 0x59
 10558 3287 01       		.byte	0x1
 10559 3288 01       		.byte	0x1
 10560 3289 60160000 		.4byte	.LASF543
 10561 328d 60160000 		.4byte	.LASF543
 10562 3291 10       		.byte	0x10
 10563 3292 9101     		.2byte	0x191
 10564 3294 5A       		.uleb128 0x5a
 10565 3295 01       		.byte	0x1
 10566 3296 01       		.byte	0x1
 10567 3297 8A160000 		.4byte	.LASF544
 10568 329b 8A160000 		.4byte	.LASF544
 10569 329f 10       		.byte	0x10
 10570 32a0 E1       		.byte	0xe1
 10571 32a1 5B       		.uleb128 0x5b
 10572 32a2 01       		.byte	0x1
 10573 32a3 01       		.byte	0x1
 10574 32a4 C8100000 		.4byte	.LASF563
 10575 32a8 7D030000 		.4byte	.LASF564
 10576 32ac 13       		.byte	0x13
 10577 32ad 00       		.byte	0
 10578 32ae C8100000 		.4byte	.LASF563
 10579 32b2 59       		.uleb128 0x59
 10580 32b3 01       		.byte	0x1
 10581 32b4 01       		.byte	0x1
 10582 32b5 370A0000 		.4byte	.LASF545
 10583 32b9 370A0000 		.4byte	.LASF545
 10584 32bd 10       		.byte	0x10
 10585 32be 1201     		.2byte	0x112
 10586 32c0 5A       		.uleb128 0x5a
 10587 32c1 01       		.byte	0x1
 10588 32c2 01       		.byte	0x1
 10589 32c3 B5130000 		.4byte	.LASF546
 10590 32c7 B5130000 		.4byte	.LASF546
 10591 32cb 12       		.byte	0x12
ARM GAS  C:\Users\EBANO_~1\AppData\Local\Temp\ccKJ5gfE.s 			page 214


 10592 32cc 94       		.byte	0x94
 10593 32cd 59       		.uleb128 0x59
 10594 32ce 01       		.byte	0x1
 10595 32cf 01       		.byte	0x1
 10596 32d0 C00B0000 		.4byte	.LASF547
 10597 32d4 C00B0000 		.4byte	.LASF547
 10598 32d8 10       		.byte	0x10
 10599 32d9 3A01     		.2byte	0x13a
 10600 32db 5A       		.uleb128 0x5a
 10601 32dc 01       		.byte	0x1
 10602 32dd 01       		.byte	0x1
 10603 32de 33020000 		.4byte	.LASF548
 10604 32e2 33020000 		.4byte	.LASF548
 10605 32e6 0A       		.byte	0xa
 10606 32e7 77       		.byte	0x77
 10607 32e8 59       		.uleb128 0x59
 10608 32e9 01       		.byte	0x1
 10609 32ea 01       		.byte	0x1
 10610 32eb 93190000 		.4byte	.LASF549
 10611 32ef 93190000 		.4byte	.LASF549
 10612 32f3 10       		.byte	0x10
 10613 32f4 9801     		.2byte	0x198
 10614 32f6 59       		.uleb128 0x59
 10615 32f7 01       		.byte	0x1
 10616 32f8 01       		.byte	0x1
 10617 32f9 3D210000 		.4byte	.LASF550
 10618 32fd 3D210000 		.4byte	.LASF550
 10619 3301 10       		.byte	0x10
 10620 3302 0401     		.2byte	0x104
 10621 3304 5A       		.uleb128 0x5a
 10622 3305 01       		.byte	0x1
 10623 3306 01       		.byte	0x1
 10624 3307 B5030000 		.4byte	.LASF551
 10625 330b B5030000 		.4byte	.LASF551
 10626 330f 0A       		.byte	0xa
 10627 3310 89       		.byte	0x89
 10628 3311 59       		.uleb128 0x59
 10629 3312 01       		.byte	0x1
 10630 3313 01       		.byte	0x1
 10631 3314 2F050000 		.4byte	.LASF552
 10632 3318 2F050000 		.4byte	.LASF552
 10633 331c 10       		.byte	0x10
 10634 331d 4801     		.2byte	0x148
 10635 331f 59       		.uleb128 0x59
 10636 3320 01       		.byte	0x1
 10637 3321 01       		.byte	0x1
 10638 3322 CF100000 		.4byte	.LASF553
 10639 3326 CF100000 		.4byte	.LASF553
 10640 332a 10       		.byte	0x10
 10641 332b 5801     		.2byte	0x158
 10642 332d 5A       		.uleb128 0x5a
 10643 332e 01       		.byte	0x1
 10644 332f 01       		.byte	0x1
 10645 3330 CA170000 		.4byte	.LASF554
 10646 3334 CA170000 		.4byte	.LASF554
 10647 3338 0A       		.byte	0xa
 10648 3339 9D       		.byte	0x9d
ARM GAS  C:\Users\EBANO_~1\AppData\Local\Temp\ccKJ5gfE.s 			page 215


 10649 333a 59       		.uleb128 0x59
 10650 333b 01       		.byte	0x1
 10651 333c 01       		.byte	0x1
 10652 333d A4150000 		.4byte	.LASF555
 10653 3341 A4150000 		.4byte	.LASF555
 10654 3345 10       		.byte	0x10
 10655 3346 6301     		.2byte	0x163
 10656 3348 59       		.uleb128 0x59
 10657 3349 01       		.byte	0x1
 10658 334a 01       		.byte	0x1
 10659 334b 6B1F0000 		.4byte	.LASF556
 10660 334f 6B1F0000 		.4byte	.LASF556
 10661 3353 10       		.byte	0x10
 10662 3354 8001     		.2byte	0x180
 10663 3356 59       		.uleb128 0x59
 10664 3357 01       		.byte	0x1
 10665 3358 01       		.byte	0x1
 10666 3359 C9140000 		.4byte	.LASF557
 10667 335d C9140000 		.4byte	.LASF557
 10668 3361 10       		.byte	0x10
 10669 3362 6E01     		.2byte	0x16e
 10670 3364 59       		.uleb128 0x59
 10671 3365 01       		.byte	0x1
 10672 3366 01       		.byte	0x1
 10673 3367 2A070000 		.4byte	.LASF558
 10674 336b 2A070000 		.4byte	.LASF558
 10675 336f 10       		.byte	0x10
 10676 3370 1E01     		.2byte	0x11e
 10677 3372 59       		.uleb128 0x59
 10678 3373 01       		.byte	0x1
 10679 3374 01       		.byte	0x1
 10680 3375 8C130000 		.4byte	.LASF559
 10681 3379 8C130000 		.4byte	.LASF559
 10682 337d 10       		.byte	0x10
 10683 337e 2A01     		.2byte	0x12a
 10684 3380 00       		.byte	0
 10685              		.section	.debug_abbrev,"",%progbits
 10686              	.Ldebug_abbrev0:
 10687 0000 01       		.uleb128 0x1
 10688 0001 11       		.uleb128 0x11
 10689 0002 01       		.byte	0x1
 10690 0003 25       		.uleb128 0x25
 10691 0004 0E       		.uleb128 0xe
 10692 0005 13       		.uleb128 0x13
 10693 0006 0B       		.uleb128 0xb
 10694 0007 03       		.uleb128 0x3
 10695 0008 0E       		.uleb128 0xe
 10696 0009 1B       		.uleb128 0x1b
 10697 000a 0E       		.uleb128 0xe
 10698 000b 55       		.uleb128 0x55
 10699 000c 06       		.uleb128 0x6
 10700 000d 11       		.uleb128 0x11
 10701 000e 01       		.uleb128 0x1
 10702 000f 52       		.uleb128 0x52
 10703 0010 01       		.uleb128 0x1
 10704 0011 10       		.uleb128 0x10
 10705 0012 06       		.uleb128 0x6
ARM GAS  C:\Users\EBANO_~1\AppData\Local\Temp\ccKJ5gfE.s 			page 216


 10706 0013 00       		.byte	0
 10707 0014 00       		.byte	0
 10708 0015 02       		.uleb128 0x2
 10709 0016 24       		.uleb128 0x24
 10710 0017 00       		.byte	0
 10711 0018 0B       		.uleb128 0xb
 10712 0019 0B       		.uleb128 0xb
 10713 001a 3E       		.uleb128 0x3e
 10714 001b 0B       		.uleb128 0xb
 10715 001c 03       		.uleb128 0x3
 10716 001d 0E       		.uleb128 0xe
 10717 001e 00       		.byte	0
 10718 001f 00       		.byte	0
 10719 0020 03       		.uleb128 0x3
 10720 0021 16       		.uleb128 0x16
 10721 0022 00       		.byte	0
 10722 0023 03       		.uleb128 0x3
 10723 0024 0E       		.uleb128 0xe
 10724 0025 3A       		.uleb128 0x3a
 10725 0026 0B       		.uleb128 0xb
 10726 0027 3B       		.uleb128 0x3b
 10727 0028 0B       		.uleb128 0xb
 10728 0029 49       		.uleb128 0x49
 10729 002a 13       		.uleb128 0x13
 10730 002b 00       		.byte	0
 10731 002c 00       		.byte	0
 10732 002d 04       		.uleb128 0x4
 10733 002e 24       		.uleb128 0x24
 10734 002f 00       		.byte	0
 10735 0030 0B       		.uleb128 0xb
 10736 0031 0B       		.uleb128 0xb
 10737 0032 3E       		.uleb128 0x3e
 10738 0033 0B       		.uleb128 0xb
 10739 0034 03       		.uleb128 0x3
 10740 0035 08       		.uleb128 0x8
 10741 0036 00       		.byte	0
 10742 0037 00       		.byte	0
 10743 0038 05       		.uleb128 0x5
 10744 0039 26       		.uleb128 0x26
 10745 003a 00       		.byte	0
 10746 003b 49       		.uleb128 0x49
 10747 003c 13       		.uleb128 0x13
 10748 003d 00       		.byte	0
 10749 003e 00       		.byte	0
 10750 003f 06       		.uleb128 0x6
 10751 0040 34       		.uleb128 0x34
 10752 0041 00       		.byte	0
 10753 0042 03       		.uleb128 0x3
 10754 0043 0E       		.uleb128 0xe
 10755 0044 3A       		.uleb128 0x3a
 10756 0045 0B       		.uleb128 0xb
 10757 0046 3B       		.uleb128 0x3b
 10758 0047 0B       		.uleb128 0xb
 10759 0048 49       		.uleb128 0x49
 10760 0049 13       		.uleb128 0x13
 10761 004a 3F       		.uleb128 0x3f
 10762 004b 0C       		.uleb128 0xc
ARM GAS  C:\Users\EBANO_~1\AppData\Local\Temp\ccKJ5gfE.s 			page 217


 10763 004c 3C       		.uleb128 0x3c
 10764 004d 0C       		.uleb128 0xc
 10765 004e 00       		.byte	0
 10766 004f 00       		.byte	0
 10767 0050 07       		.uleb128 0x7
 10768 0051 01       		.uleb128 0x1
 10769 0052 01       		.byte	0x1
 10770 0053 49       		.uleb128 0x49
 10771 0054 13       		.uleb128 0x13
 10772 0055 01       		.uleb128 0x1
 10773 0056 13       		.uleb128 0x13
 10774 0057 00       		.byte	0
 10775 0058 00       		.byte	0
 10776 0059 08       		.uleb128 0x8
 10777 005a 21       		.uleb128 0x21
 10778 005b 00       		.byte	0
 10779 005c 49       		.uleb128 0x49
 10780 005d 13       		.uleb128 0x13
 10781 005e 2F       		.uleb128 0x2f
 10782 005f 0B       		.uleb128 0xb
 10783 0060 00       		.byte	0
 10784 0061 00       		.byte	0
 10785 0062 09       		.uleb128 0x9
 10786 0063 0F       		.uleb128 0xf
 10787 0064 00       		.byte	0
 10788 0065 0B       		.uleb128 0xb
 10789 0066 0B       		.uleb128 0xb
 10790 0067 00       		.byte	0
 10791 0068 00       		.byte	0
 10792 0069 0A       		.uleb128 0xa
 10793 006a 0F       		.uleb128 0xf
 10794 006b 00       		.byte	0
 10795 006c 0B       		.uleb128 0xb
 10796 006d 0B       		.uleb128 0xb
 10797 006e 49       		.uleb128 0x49
 10798 006f 13       		.uleb128 0x13
 10799 0070 00       		.byte	0
 10800 0071 00       		.byte	0
 10801 0072 0B       		.uleb128 0xb
 10802 0073 13       		.uleb128 0x13
 10803 0074 00       		.byte	0
 10804 0075 03       		.uleb128 0x3
 10805 0076 0E       		.uleb128 0xe
 10806 0077 3C       		.uleb128 0x3c
 10807 0078 0C       		.uleb128 0xc
 10808 0079 00       		.byte	0
 10809 007a 00       		.byte	0
 10810 007b 0C       		.uleb128 0xc
 10811 007c 16       		.uleb128 0x16
 10812 007d 00       		.byte	0
 10813 007e 03       		.uleb128 0x3
 10814 007f 0E       		.uleb128 0xe
 10815 0080 3A       		.uleb128 0x3a
 10816 0081 0B       		.uleb128 0xb
 10817 0082 3B       		.uleb128 0x3b
 10818 0083 05       		.uleb128 0x5
 10819 0084 49       		.uleb128 0x49
ARM GAS  C:\Users\EBANO_~1\AppData\Local\Temp\ccKJ5gfE.s 			page 218


 10820 0085 13       		.uleb128 0x13
 10821 0086 00       		.byte	0
 10822 0087 00       		.byte	0
 10823 0088 0D       		.uleb128 0xd
 10824 0089 17       		.uleb128 0x17
 10825 008a 01       		.byte	0x1
 10826 008b 0B       		.uleb128 0xb
 10827 008c 0B       		.uleb128 0xb
 10828 008d 3A       		.uleb128 0x3a
 10829 008e 0B       		.uleb128 0xb
 10830 008f 3B       		.uleb128 0x3b
 10831 0090 0B       		.uleb128 0xb
 10832 0091 01       		.uleb128 0x1
 10833 0092 13       		.uleb128 0x13
 10834 0093 00       		.byte	0
 10835 0094 00       		.byte	0
 10836 0095 0E       		.uleb128 0xe
 10837 0096 0D       		.uleb128 0xd
 10838 0097 00       		.byte	0
 10839 0098 03       		.uleb128 0x3
 10840 0099 0E       		.uleb128 0xe
 10841 009a 3A       		.uleb128 0x3a
 10842 009b 0B       		.uleb128 0xb
 10843 009c 3B       		.uleb128 0x3b
 10844 009d 0B       		.uleb128 0xb
 10845 009e 49       		.uleb128 0x49
 10846 009f 13       		.uleb128 0x13
 10847 00a0 00       		.byte	0
 10848 00a1 00       		.byte	0
 10849 00a2 0F       		.uleb128 0xf
 10850 00a3 13       		.uleb128 0x13
 10851 00a4 01       		.byte	0x1
 10852 00a5 0B       		.uleb128 0xb
 10853 00a6 0B       		.uleb128 0xb
 10854 00a7 3A       		.uleb128 0x3a
 10855 00a8 0B       		.uleb128 0xb
 10856 00a9 3B       		.uleb128 0x3b
 10857 00aa 0B       		.uleb128 0xb
 10858 00ab 01       		.uleb128 0x1
 10859 00ac 13       		.uleb128 0x13
 10860 00ad 00       		.byte	0
 10861 00ae 00       		.byte	0
 10862 00af 10       		.uleb128 0x10
 10863 00b0 0D       		.uleb128 0xd
 10864 00b1 00       		.byte	0
 10865 00b2 03       		.uleb128 0x3
 10866 00b3 0E       		.uleb128 0xe
 10867 00b4 3A       		.uleb128 0x3a
 10868 00b5 0B       		.uleb128 0xb
 10869 00b6 3B       		.uleb128 0x3b
 10870 00b7 0B       		.uleb128 0xb
 10871 00b8 49       		.uleb128 0x49
 10872 00b9 13       		.uleb128 0x13
 10873 00ba 38       		.uleb128 0x38
 10874 00bb 0A       		.uleb128 0xa
 10875 00bc 00       		.byte	0
 10876 00bd 00       		.byte	0
ARM GAS  C:\Users\EBANO_~1\AppData\Local\Temp\ccKJ5gfE.s 			page 219


 10877 00be 11       		.uleb128 0x11
 10878 00bf 13       		.uleb128 0x13
 10879 00c0 01       		.byte	0x1
 10880 00c1 03       		.uleb128 0x3
 10881 00c2 0E       		.uleb128 0xe
 10882 00c3 0B       		.uleb128 0xb
 10883 00c4 0B       		.uleb128 0xb
 10884 00c5 3A       		.uleb128 0x3a
 10885 00c6 0B       		.uleb128 0xb
 10886 00c7 3B       		.uleb128 0x3b
 10887 00c8 0B       		.uleb128 0xb
 10888 00c9 01       		.uleb128 0x1
 10889 00ca 13       		.uleb128 0x13
 10890 00cb 00       		.byte	0
 10891 00cc 00       		.byte	0
 10892 00cd 12       		.uleb128 0x12
 10893 00ce 0D       		.uleb128 0xd
 10894 00cf 00       		.byte	0
 10895 00d0 03       		.uleb128 0x3
 10896 00d1 08       		.uleb128 0x8
 10897 00d2 3A       		.uleb128 0x3a
 10898 00d3 0B       		.uleb128 0xb
 10899 00d4 3B       		.uleb128 0x3b
 10900 00d5 0B       		.uleb128 0xb
 10901 00d6 49       		.uleb128 0x49
 10902 00d7 13       		.uleb128 0x13
 10903 00d8 38       		.uleb128 0x38
 10904 00d9 0A       		.uleb128 0xa
 10905 00da 00       		.byte	0
 10906 00db 00       		.byte	0
 10907 00dc 13       		.uleb128 0x13
 10908 00dd 13       		.uleb128 0x13
 10909 00de 01       		.byte	0x1
 10910 00df 03       		.uleb128 0x3
 10911 00e0 0E       		.uleb128 0xe
 10912 00e1 0B       		.uleb128 0xb
 10913 00e2 05       		.uleb128 0x5
 10914 00e3 3A       		.uleb128 0x3a
 10915 00e4 0B       		.uleb128 0xb
 10916 00e5 3B       		.uleb128 0x3b
 10917 00e6 0B       		.uleb128 0xb
 10918 00e7 01       		.uleb128 0x1
 10919 00e8 13       		.uleb128 0x13
 10920 00e9 00       		.byte	0
 10921 00ea 00       		.byte	0
 10922 00eb 14       		.uleb128 0x14
 10923 00ec 15       		.uleb128 0x15
 10924 00ed 00       		.byte	0
 10925 00ee 27       		.uleb128 0x27
 10926 00ef 0C       		.uleb128 0xc
 10927 00f0 00       		.byte	0
 10928 00f1 00       		.byte	0
 10929 00f2 15       		.uleb128 0x15
 10930 00f3 15       		.uleb128 0x15
 10931 00f4 01       		.byte	0x1
 10932 00f5 27       		.uleb128 0x27
 10933 00f6 0C       		.uleb128 0xc
ARM GAS  C:\Users\EBANO_~1\AppData\Local\Temp\ccKJ5gfE.s 			page 220


 10934 00f7 49       		.uleb128 0x49
 10935 00f8 13       		.uleb128 0x13
 10936 00f9 01       		.uleb128 0x1
 10937 00fa 13       		.uleb128 0x13
 10938 00fb 00       		.byte	0
 10939 00fc 00       		.byte	0
 10940 00fd 16       		.uleb128 0x16
 10941 00fe 05       		.uleb128 0x5
 10942 00ff 00       		.byte	0
 10943 0100 49       		.uleb128 0x49
 10944 0101 13       		.uleb128 0x13
 10945 0102 00       		.byte	0
 10946 0103 00       		.byte	0
 10947 0104 17       		.uleb128 0x17
 10948 0105 13       		.uleb128 0x13
 10949 0106 01       		.byte	0x1
 10950 0107 03       		.uleb128 0x3
 10951 0108 0E       		.uleb128 0xe
 10952 0109 0B       		.uleb128 0xb
 10953 010a 05       		.uleb128 0x5
 10954 010b 3A       		.uleb128 0x3a
 10955 010c 0B       		.uleb128 0xb
 10956 010d 3B       		.uleb128 0x3b
 10957 010e 05       		.uleb128 0x5
 10958 010f 01       		.uleb128 0x1
 10959 0110 13       		.uleb128 0x13
 10960 0111 00       		.byte	0
 10961 0112 00       		.byte	0
 10962 0113 18       		.uleb128 0x18
 10963 0114 0D       		.uleb128 0xd
 10964 0115 00       		.byte	0
 10965 0116 03       		.uleb128 0x3
 10966 0117 0E       		.uleb128 0xe
 10967 0118 3A       		.uleb128 0x3a
 10968 0119 0B       		.uleb128 0xb
 10969 011a 3B       		.uleb128 0x3b
 10970 011b 05       		.uleb128 0x5
 10971 011c 49       		.uleb128 0x49
 10972 011d 13       		.uleb128 0x13
 10973 011e 38       		.uleb128 0x38
 10974 011f 0A       		.uleb128 0xa
 10975 0120 00       		.byte	0
 10976 0121 00       		.byte	0
 10977 0122 19       		.uleb128 0x19
 10978 0123 13       		.uleb128 0x13
 10979 0124 01       		.byte	0x1
 10980 0125 03       		.uleb128 0x3
 10981 0126 0E       		.uleb128 0xe
 10982 0127 0B       		.uleb128 0xb
 10983 0128 0B       		.uleb128 0xb
 10984 0129 3A       		.uleb128 0x3a
 10985 012a 0B       		.uleb128 0xb
 10986 012b 3B       		.uleb128 0x3b
 10987 012c 05       		.uleb128 0x5
 10988 012d 01       		.uleb128 0x1
 10989 012e 13       		.uleb128 0x13
 10990 012f 00       		.byte	0
ARM GAS  C:\Users\EBANO_~1\AppData\Local\Temp\ccKJ5gfE.s 			page 221


 10991 0130 00       		.byte	0
 10992 0131 1A       		.uleb128 0x1a
 10993 0132 13       		.uleb128 0x13
 10994 0133 01       		.byte	0x1
 10995 0134 0B       		.uleb128 0xb
 10996 0135 0B       		.uleb128 0xb
 10997 0136 3A       		.uleb128 0x3a
 10998 0137 0B       		.uleb128 0xb
 10999 0138 3B       		.uleb128 0x3b
 11000 0139 05       		.uleb128 0x5
 11001 013a 01       		.uleb128 0x1
 11002 013b 13       		.uleb128 0x13
 11003 013c 00       		.byte	0
 11004 013d 00       		.byte	0
 11005 013e 1B       		.uleb128 0x1b
 11006 013f 17       		.uleb128 0x17
 11007 0140 01       		.byte	0x1
 11008 0141 0B       		.uleb128 0xb
 11009 0142 0B       		.uleb128 0xb
 11010 0143 3A       		.uleb128 0x3a
 11011 0144 0B       		.uleb128 0xb
 11012 0145 3B       		.uleb128 0x3b
 11013 0146 05       		.uleb128 0x5
 11014 0147 01       		.uleb128 0x1
 11015 0148 13       		.uleb128 0x13
 11016 0149 00       		.byte	0
 11017 014a 00       		.byte	0
 11018 014b 1C       		.uleb128 0x1c
 11019 014c 0D       		.uleb128 0xd
 11020 014d 00       		.byte	0
 11021 014e 03       		.uleb128 0x3
 11022 014f 0E       		.uleb128 0xe
 11023 0150 3A       		.uleb128 0x3a
 11024 0151 0B       		.uleb128 0xb
 11025 0152 3B       		.uleb128 0x3b
 11026 0153 05       		.uleb128 0x5
 11027 0154 49       		.uleb128 0x49
 11028 0155 13       		.uleb128 0x13
 11029 0156 00       		.byte	0
 11030 0157 00       		.byte	0
 11031 0158 1D       		.uleb128 0x1d
 11032 0159 15       		.uleb128 0x15
 11033 015a 01       		.byte	0x1
 11034 015b 27       		.uleb128 0x27
 11035 015c 0C       		.uleb128 0xc
 11036 015d 01       		.uleb128 0x1
 11037 015e 13       		.uleb128 0x13
 11038 015f 00       		.byte	0
 11039 0160 00       		.byte	0
 11040 0161 1E       		.uleb128 0x1e
 11041 0162 34       		.uleb128 0x34
 11042 0163 00       		.byte	0
 11043 0164 03       		.uleb128 0x3
 11044 0165 0E       		.uleb128 0xe
 11045 0166 3A       		.uleb128 0x3a
 11046 0167 0B       		.uleb128 0xb
 11047 0168 3B       		.uleb128 0x3b
ARM GAS  C:\Users\EBANO_~1\AppData\Local\Temp\ccKJ5gfE.s 			page 222


 11048 0169 05       		.uleb128 0x5
 11049 016a 49       		.uleb128 0x49
 11050 016b 13       		.uleb128 0x13
 11051 016c 3F       		.uleb128 0x3f
 11052 016d 0C       		.uleb128 0xc
 11053 016e 3C       		.uleb128 0x3c
 11054 016f 0C       		.uleb128 0xc
 11055 0170 00       		.byte	0
 11056 0171 00       		.byte	0
 11057 0172 1F       		.uleb128 0x1f
 11058 0173 17       		.uleb128 0x17
 11059 0174 01       		.byte	0x1
 11060 0175 03       		.uleb128 0x3
 11061 0176 0E       		.uleb128 0xe
 11062 0177 0B       		.uleb128 0xb
 11063 0178 0B       		.uleb128 0xb
 11064 0179 3A       		.uleb128 0x3a
 11065 017a 0B       		.uleb128 0xb
 11066 017b 3B       		.uleb128 0x3b
 11067 017c 0B       		.uleb128 0xb
 11068 017d 01       		.uleb128 0x1
 11069 017e 13       		.uleb128 0x13
 11070 017f 00       		.byte	0
 11071 0180 00       		.byte	0
 11072 0181 20       		.uleb128 0x20
 11073 0182 04       		.uleb128 0x4
 11074 0183 01       		.byte	0x1
 11075 0184 3E       		.uleb128 0x3e
 11076 0185 0B       		.uleb128 0xb
 11077 0186 0B       		.uleb128 0xb
 11078 0187 0B       		.uleb128 0xb
 11079 0188 49       		.uleb128 0x49
 11080 0189 13       		.uleb128 0x13
 11081 018a 3A       		.uleb128 0x3a
 11082 018b 0B       		.uleb128 0xb
 11083 018c 3B       		.uleb128 0x3b
 11084 018d 0B       		.uleb128 0xb
 11085 018e 01       		.uleb128 0x1
 11086 018f 13       		.uleb128 0x13
 11087 0190 00       		.byte	0
 11088 0191 00       		.byte	0
 11089 0192 21       		.uleb128 0x21
 11090 0193 28       		.uleb128 0x28
 11091 0194 00       		.byte	0
 11092 0195 03       		.uleb128 0x3
 11093 0196 0E       		.uleb128 0xe
 11094 0197 1C       		.uleb128 0x1c
 11095 0198 0B       		.uleb128 0xb
 11096 0199 00       		.byte	0
 11097 019a 00       		.byte	0
 11098 019b 22       		.uleb128 0x22
 11099 019c 0D       		.uleb128 0xd
 11100 019d 00       		.byte	0
 11101 019e 03       		.uleb128 0x3
 11102 019f 08       		.uleb128 0x8
 11103 01a0 3A       		.uleb128 0x3a
 11104 01a1 0B       		.uleb128 0xb
ARM GAS  C:\Users\EBANO_~1\AppData\Local\Temp\ccKJ5gfE.s 			page 223


 11105 01a2 3B       		.uleb128 0x3b
 11106 01a3 05       		.uleb128 0x5
 11107 01a4 49       		.uleb128 0x49
 11108 01a5 13       		.uleb128 0x13
 11109 01a6 38       		.uleb128 0x38
 11110 01a7 0A       		.uleb128 0xa
 11111 01a8 00       		.byte	0
 11112 01a9 00       		.byte	0
 11113 01aa 23       		.uleb128 0x23
 11114 01ab 15       		.uleb128 0x15
 11115 01ac 00       		.byte	0
 11116 01ad 27       		.uleb128 0x27
 11117 01ae 0C       		.uleb128 0xc
 11118 01af 49       		.uleb128 0x49
 11119 01b0 13       		.uleb128 0x13
 11120 01b1 00       		.byte	0
 11121 01b2 00       		.byte	0
 11122 01b3 24       		.uleb128 0x24
 11123 01b4 0D       		.uleb128 0xd
 11124 01b5 00       		.byte	0
 11125 01b6 03       		.uleb128 0x3
 11126 01b7 08       		.uleb128 0x8
 11127 01b8 3A       		.uleb128 0x3a
 11128 01b9 0B       		.uleb128 0xb
 11129 01ba 3B       		.uleb128 0x3b
 11130 01bb 0B       		.uleb128 0xb
 11131 01bc 49       		.uleb128 0x49
 11132 01bd 13       		.uleb128 0x13
 11133 01be 0B       		.uleb128 0xb
 11134 01bf 0B       		.uleb128 0xb
 11135 01c0 0D       		.uleb128 0xd
 11136 01c1 0B       		.uleb128 0xb
 11137 01c2 0C       		.uleb128 0xc
 11138 01c3 0B       		.uleb128 0xb
 11139 01c4 38       		.uleb128 0x38
 11140 01c5 0A       		.uleb128 0xa
 11141 01c6 00       		.byte	0
 11142 01c7 00       		.byte	0
 11143 01c8 25       		.uleb128 0x25
 11144 01c9 04       		.uleb128 0x4
 11145 01ca 01       		.byte	0x1
 11146 01cb 03       		.uleb128 0x3
 11147 01cc 0E       		.uleb128 0xe
 11148 01cd 3E       		.uleb128 0x3e
 11149 01ce 0B       		.uleb128 0xb
 11150 01cf 0B       		.uleb128 0xb
 11151 01d0 0B       		.uleb128 0xb
 11152 01d1 49       		.uleb128 0x49
 11153 01d2 13       		.uleb128 0x13
 11154 01d3 3A       		.uleb128 0x3a
 11155 01d4 0B       		.uleb128 0xb
 11156 01d5 3B       		.uleb128 0x3b
 11157 01d6 0B       		.uleb128 0xb
 11158 01d7 01       		.uleb128 0x1
 11159 01d8 13       		.uleb128 0x13
 11160 01d9 00       		.byte	0
 11161 01da 00       		.byte	0
ARM GAS  C:\Users\EBANO_~1\AppData\Local\Temp\ccKJ5gfE.s 			page 224


 11162 01db 26       		.uleb128 0x26
 11163 01dc 04       		.uleb128 0x4
 11164 01dd 01       		.byte	0x1
 11165 01de 03       		.uleb128 0x3
 11166 01df 0E       		.uleb128 0xe
 11167 01e0 3E       		.uleb128 0x3e
 11168 01e1 0B       		.uleb128 0xb
 11169 01e2 0B       		.uleb128 0xb
 11170 01e3 0B       		.uleb128 0xb
 11171 01e4 49       		.uleb128 0x49
 11172 01e5 13       		.uleb128 0x13
 11173 01e6 3A       		.uleb128 0x3a
 11174 01e7 0B       		.uleb128 0xb
 11175 01e8 3B       		.uleb128 0x3b
 11176 01e9 05       		.uleb128 0x5
 11177 01ea 01       		.uleb128 0x1
 11178 01eb 13       		.uleb128 0x13
 11179 01ec 00       		.byte	0
 11180 01ed 00       		.byte	0
 11181 01ee 27       		.uleb128 0x27
 11182 01ef 34       		.uleb128 0x34
 11183 01f0 00       		.byte	0
 11184 01f1 03       		.uleb128 0x3
 11185 01f2 0E       		.uleb128 0xe
 11186 01f3 3A       		.uleb128 0x3a
 11187 01f4 0B       		.uleb128 0xb
 11188 01f5 3B       		.uleb128 0x3b
 11189 01f6 05       		.uleb128 0x5
 11190 01f7 49       		.uleb128 0x49
 11191 01f8 13       		.uleb128 0x13
 11192 01f9 1C       		.uleb128 0x1c
 11193 01fa 0A       		.uleb128 0xa
 11194 01fb 00       		.byte	0
 11195 01fc 00       		.byte	0
 11196 01fd 28       		.uleb128 0x28
 11197 01fe 17       		.uleb128 0x17
 11198 01ff 01       		.byte	0x1
 11199 0200 03       		.uleb128 0x3
 11200 0201 0E       		.uleb128 0xe
 11201 0202 0B       		.uleb128 0xb
 11202 0203 0B       		.uleb128 0xb
 11203 0204 3A       		.uleb128 0x3a
 11204 0205 0B       		.uleb128 0xb
 11205 0206 3B       		.uleb128 0x3b
 11206 0207 05       		.uleb128 0x5
 11207 0208 01       		.uleb128 0x1
 11208 0209 13       		.uleb128 0x13
 11209 020a 00       		.byte	0
 11210 020b 00       		.byte	0
 11211 020c 29       		.uleb128 0x29
 11212 020d 34       		.uleb128 0x34
 11213 020e 00       		.byte	0
 11214 020f 03       		.uleb128 0x3
 11215 0210 0E       		.uleb128 0xe
 11216 0211 3A       		.uleb128 0x3a
 11217 0212 0B       		.uleb128 0xb
 11218 0213 3B       		.uleb128 0x3b
ARM GAS  C:\Users\EBANO_~1\AppData\Local\Temp\ccKJ5gfE.s 			page 225


 11219 0214 05       		.uleb128 0x5
 11220 0215 49       		.uleb128 0x49
 11221 0216 13       		.uleb128 0x13
 11222 0217 02       		.uleb128 0x2
 11223 0218 0A       		.uleb128 0xa
 11224 0219 00       		.byte	0
 11225 021a 00       		.byte	0
 11226 021b 2A       		.uleb128 0x2a
 11227 021c 34       		.uleb128 0x34
 11228 021d 00       		.byte	0
 11229 021e 03       		.uleb128 0x3
 11230 021f 0E       		.uleb128 0xe
 11231 0220 3A       		.uleb128 0x3a
 11232 0221 0B       		.uleb128 0xb
 11233 0222 3B       		.uleb128 0x3b
 11234 0223 0B       		.uleb128 0xb
 11235 0224 49       		.uleb128 0x49
 11236 0225 13       		.uleb128 0x13
 11237 0226 02       		.uleb128 0x2
 11238 0227 0A       		.uleb128 0xa
 11239 0228 00       		.byte	0
 11240 0229 00       		.byte	0
 11241 022a 2B       		.uleb128 0x2b
 11242 022b 2E       		.uleb128 0x2e
 11243 022c 01       		.byte	0x1
 11244 022d 3F       		.uleb128 0x3f
 11245 022e 0C       		.uleb128 0xc
 11246 022f 03       		.uleb128 0x3
 11247 0230 0E       		.uleb128 0xe
 11248 0231 3A       		.uleb128 0x3a
 11249 0232 0B       		.uleb128 0xb
 11250 0233 3B       		.uleb128 0x3b
 11251 0234 05       		.uleb128 0x5
 11252 0235 27       		.uleb128 0x27
 11253 0236 0C       		.uleb128 0xc
 11254 0237 11       		.uleb128 0x11
 11255 0238 01       		.uleb128 0x1
 11256 0239 12       		.uleb128 0x12
 11257 023a 01       		.uleb128 0x1
 11258 023b 40       		.uleb128 0x40
 11259 023c 06       		.uleb128 0x6
 11260 023d 9742     		.uleb128 0x2117
 11261 023f 0C       		.uleb128 0xc
 11262 0240 01       		.uleb128 0x1
 11263 0241 13       		.uleb128 0x13
 11264 0242 00       		.byte	0
 11265 0243 00       		.byte	0
 11266 0244 2C       		.uleb128 0x2c
 11267 0245 05       		.uleb128 0x5
 11268 0246 00       		.byte	0
 11269 0247 03       		.uleb128 0x3
 11270 0248 0E       		.uleb128 0xe
 11271 0249 3A       		.uleb128 0x3a
 11272 024a 0B       		.uleb128 0xb
 11273 024b 3B       		.uleb128 0x3b
 11274 024c 05       		.uleb128 0x5
 11275 024d 49       		.uleb128 0x49
ARM GAS  C:\Users\EBANO_~1\AppData\Local\Temp\ccKJ5gfE.s 			page 226


 11276 024e 13       		.uleb128 0x13
 11277 024f 02       		.uleb128 0x2
 11278 0250 06       		.uleb128 0x6
 11279 0251 00       		.byte	0
 11280 0252 00       		.byte	0
 11281 0253 2D       		.uleb128 0x2d
 11282 0254 898201   		.uleb128 0x4109
 11283 0257 01       		.byte	0x1
 11284 0258 11       		.uleb128 0x11
 11285 0259 01       		.uleb128 0x1
 11286 025a 31       		.uleb128 0x31
 11287 025b 13       		.uleb128 0x13
 11288 025c 00       		.byte	0
 11289 025d 00       		.byte	0
 11290 025e 2E       		.uleb128 0x2e
 11291 025f 8A8201   		.uleb128 0x410a
 11292 0262 00       		.byte	0
 11293 0263 02       		.uleb128 0x2
 11294 0264 0A       		.uleb128 0xa
 11295 0265 9142     		.uleb128 0x2111
 11296 0267 0A       		.uleb128 0xa
 11297 0268 00       		.byte	0
 11298 0269 00       		.byte	0
 11299 026a 2F       		.uleb128 0x2f
 11300 026b 2E       		.uleb128 0x2e
 11301 026c 01       		.byte	0x1
 11302 026d 3F       		.uleb128 0x3f
 11303 026e 0C       		.uleb128 0xc
 11304 026f 03       		.uleb128 0x3
 11305 0270 0E       		.uleb128 0xe
 11306 0271 3A       		.uleb128 0x3a
 11307 0272 0B       		.uleb128 0xb
 11308 0273 3B       		.uleb128 0x3b
 11309 0274 05       		.uleb128 0x5
 11310 0275 27       		.uleb128 0x27
 11311 0276 0C       		.uleb128 0xc
 11312 0277 49       		.uleb128 0x49
 11313 0278 13       		.uleb128 0x13
 11314 0279 11       		.uleb128 0x11
 11315 027a 01       		.uleb128 0x1
 11316 027b 12       		.uleb128 0x12
 11317 027c 01       		.uleb128 0x1
 11318 027d 40       		.uleb128 0x40
 11319 027e 0A       		.uleb128 0xa
 11320 027f 9742     		.uleb128 0x2117
 11321 0281 0C       		.uleb128 0xc
 11322 0282 01       		.uleb128 0x1
 11323 0283 13       		.uleb128 0x13
 11324 0284 00       		.byte	0
 11325 0285 00       		.byte	0
 11326 0286 30       		.uleb128 0x30
 11327 0287 05       		.uleb128 0x5
 11328 0288 00       		.byte	0
 11329 0289 03       		.uleb128 0x3
 11330 028a 08       		.uleb128 0x8
 11331 028b 3A       		.uleb128 0x3a
 11332 028c 0B       		.uleb128 0xb
ARM GAS  C:\Users\EBANO_~1\AppData\Local\Temp\ccKJ5gfE.s 			page 227


 11333 028d 3B       		.uleb128 0x3b
 11334 028e 05       		.uleb128 0x5
 11335 028f 49       		.uleb128 0x49
 11336 0290 13       		.uleb128 0x13
 11337 0291 02       		.uleb128 0x2
 11338 0292 06       		.uleb128 0x6
 11339 0293 00       		.byte	0
 11340 0294 00       		.byte	0
 11341 0295 31       		.uleb128 0x31
 11342 0296 05       		.uleb128 0x5
 11343 0297 00       		.byte	0
 11344 0298 03       		.uleb128 0x3
 11345 0299 0E       		.uleb128 0xe
 11346 029a 3A       		.uleb128 0x3a
 11347 029b 0B       		.uleb128 0xb
 11348 029c 3B       		.uleb128 0x3b
 11349 029d 05       		.uleb128 0x5
 11350 029e 49       		.uleb128 0x49
 11351 029f 13       		.uleb128 0x13
 11352 02a0 02       		.uleb128 0x2
 11353 02a1 0A       		.uleb128 0xa
 11354 02a2 00       		.byte	0
 11355 02a3 00       		.byte	0
 11356 02a4 32       		.uleb128 0x32
 11357 02a5 34       		.uleb128 0x34
 11358 02a6 00       		.byte	0
 11359 02a7 03       		.uleb128 0x3
 11360 02a8 0E       		.uleb128 0xe
 11361 02a9 3A       		.uleb128 0x3a
 11362 02aa 0B       		.uleb128 0xb
 11363 02ab 3B       		.uleb128 0x3b
 11364 02ac 05       		.uleb128 0x5
 11365 02ad 49       		.uleb128 0x49
 11366 02ae 13       		.uleb128 0x13
 11367 02af 00       		.byte	0
 11368 02b0 00       		.byte	0
 11369 02b1 33       		.uleb128 0x33
 11370 02b2 34       		.uleb128 0x34
 11371 02b3 00       		.byte	0
 11372 02b4 03       		.uleb128 0x3
 11373 02b5 0E       		.uleb128 0xe
 11374 02b6 3A       		.uleb128 0x3a
 11375 02b7 0B       		.uleb128 0xb
 11376 02b8 3B       		.uleb128 0x3b
 11377 02b9 05       		.uleb128 0x5
 11378 02ba 49       		.uleb128 0x49
 11379 02bb 13       		.uleb128 0x13
 11380 02bc 02       		.uleb128 0x2
 11381 02bd 06       		.uleb128 0x6
 11382 02be 00       		.byte	0
 11383 02bf 00       		.byte	0
 11384 02c0 34       		.uleb128 0x34
 11385 02c1 1D       		.uleb128 0x1d
 11386 02c2 01       		.byte	0x1
 11387 02c3 31       		.uleb128 0x31
 11388 02c4 13       		.uleb128 0x13
 11389 02c5 52       		.uleb128 0x52
ARM GAS  C:\Users\EBANO_~1\AppData\Local\Temp\ccKJ5gfE.s 			page 228


 11390 02c6 01       		.uleb128 0x1
 11391 02c7 55       		.uleb128 0x55
 11392 02c8 06       		.uleb128 0x6
 11393 02c9 58       		.uleb128 0x58
 11394 02ca 0B       		.uleb128 0xb
 11395 02cb 59       		.uleb128 0x59
 11396 02cc 05       		.uleb128 0x5
 11397 02cd 01       		.uleb128 0x1
 11398 02ce 13       		.uleb128 0x13
 11399 02cf 00       		.byte	0
 11400 02d0 00       		.byte	0
 11401 02d1 35       		.uleb128 0x35
 11402 02d2 05       		.uleb128 0x5
 11403 02d3 00       		.byte	0
 11404 02d4 31       		.uleb128 0x31
 11405 02d5 13       		.uleb128 0x13
 11406 02d6 02       		.uleb128 0x2
 11407 02d7 06       		.uleb128 0x6
 11408 02d8 00       		.byte	0
 11409 02d9 00       		.byte	0
 11410 02da 36       		.uleb128 0x36
 11411 02db 05       		.uleb128 0x5
 11412 02dc 00       		.byte	0
 11413 02dd 31       		.uleb128 0x31
 11414 02de 13       		.uleb128 0x13
 11415 02df 02       		.uleb128 0x2
 11416 02e0 0A       		.uleb128 0xa
 11417 02e1 00       		.byte	0
 11418 02e2 00       		.byte	0
 11419 02e3 37       		.uleb128 0x37
 11420 02e4 05       		.uleb128 0x5
 11421 02e5 00       		.byte	0
 11422 02e6 31       		.uleb128 0x31
 11423 02e7 13       		.uleb128 0x13
 11424 02e8 00       		.byte	0
 11425 02e9 00       		.byte	0
 11426 02ea 38       		.uleb128 0x38
 11427 02eb 0B       		.uleb128 0xb
 11428 02ec 01       		.byte	0x1
 11429 02ed 55       		.uleb128 0x55
 11430 02ee 06       		.uleb128 0x6
 11431 02ef 00       		.byte	0
 11432 02f0 00       		.byte	0
 11433 02f1 39       		.uleb128 0x39
 11434 02f2 34       		.uleb128 0x34
 11435 02f3 00       		.byte	0
 11436 02f4 31       		.uleb128 0x31
 11437 02f5 13       		.uleb128 0x13
 11438 02f6 00       		.byte	0
 11439 02f7 00       		.byte	0
 11440 02f8 3A       		.uleb128 0x3a
 11441 02f9 898201   		.uleb128 0x4109
 11442 02fc 00       		.byte	0
 11443 02fd 11       		.uleb128 0x11
 11444 02fe 01       		.uleb128 0x1
 11445 02ff 31       		.uleb128 0x31
 11446 0300 13       		.uleb128 0x13
ARM GAS  C:\Users\EBANO_~1\AppData\Local\Temp\ccKJ5gfE.s 			page 229


 11447 0301 00       		.byte	0
 11448 0302 00       		.byte	0
 11449 0303 3B       		.uleb128 0x3b
 11450 0304 898201   		.uleb128 0x4109
 11451 0307 01       		.byte	0x1
 11452 0308 11       		.uleb128 0x11
 11453 0309 01       		.uleb128 0x1
 11454 030a 00       		.byte	0
 11455 030b 00       		.byte	0
 11456 030c 3C       		.uleb128 0x3c
 11457 030d 2E       		.uleb128 0x2e
 11458 030e 01       		.byte	0x1
 11459 030f 3F       		.uleb128 0x3f
 11460 0310 0C       		.uleb128 0xc
 11461 0311 03       		.uleb128 0x3
 11462 0312 0E       		.uleb128 0xe
 11463 0313 3A       		.uleb128 0x3a
 11464 0314 0B       		.uleb128 0xb
 11465 0315 3B       		.uleb128 0x3b
 11466 0316 05       		.uleb128 0x5
 11467 0317 27       		.uleb128 0x27
 11468 0318 0C       		.uleb128 0xc
 11469 0319 49       		.uleb128 0x49
 11470 031a 13       		.uleb128 0x13
 11471 031b 20       		.uleb128 0x20
 11472 031c 0B       		.uleb128 0xb
 11473 031d 01       		.uleb128 0x1
 11474 031e 13       		.uleb128 0x13
 11475 031f 00       		.byte	0
 11476 0320 00       		.byte	0
 11477 0321 3D       		.uleb128 0x3d
 11478 0322 05       		.uleb128 0x5
 11479 0323 00       		.byte	0
 11480 0324 03       		.uleb128 0x3
 11481 0325 0E       		.uleb128 0xe
 11482 0326 3A       		.uleb128 0x3a
 11483 0327 0B       		.uleb128 0xb
 11484 0328 3B       		.uleb128 0x3b
 11485 0329 05       		.uleb128 0x5
 11486 032a 49       		.uleb128 0x49
 11487 032b 13       		.uleb128 0x13
 11488 032c 00       		.byte	0
 11489 032d 00       		.byte	0
 11490 032e 3E       		.uleb128 0x3e
 11491 032f 34       		.uleb128 0x34
 11492 0330 00       		.byte	0
 11493 0331 03       		.uleb128 0x3
 11494 0332 08       		.uleb128 0x8
 11495 0333 3A       		.uleb128 0x3a
 11496 0334 0B       		.uleb128 0xb
 11497 0335 3B       		.uleb128 0x3b
 11498 0336 05       		.uleb128 0x5
 11499 0337 49       		.uleb128 0x49
 11500 0338 13       		.uleb128 0x13
 11501 0339 00       		.byte	0
 11502 033a 00       		.byte	0
 11503 033b 3F       		.uleb128 0x3f
ARM GAS  C:\Users\EBANO_~1\AppData\Local\Temp\ccKJ5gfE.s 			page 230


 11504 033c 2E       		.uleb128 0x2e
 11505 033d 01       		.byte	0x1
 11506 033e 3F       		.uleb128 0x3f
 11507 033f 0C       		.uleb128 0xc
 11508 0340 03       		.uleb128 0x3
 11509 0341 0E       		.uleb128 0xe
 11510 0342 3A       		.uleb128 0x3a
 11511 0343 0B       		.uleb128 0xb
 11512 0344 3B       		.uleb128 0x3b
 11513 0345 05       		.uleb128 0x5
 11514 0346 27       		.uleb128 0x27
 11515 0347 0C       		.uleb128 0xc
 11516 0348 49       		.uleb128 0x49
 11517 0349 13       		.uleb128 0x13
 11518 034a 11       		.uleb128 0x11
 11519 034b 01       		.uleb128 0x1
 11520 034c 12       		.uleb128 0x12
 11521 034d 01       		.uleb128 0x1
 11522 034e 40       		.uleb128 0x40
 11523 034f 06       		.uleb128 0x6
 11524 0350 9742     		.uleb128 0x2117
 11525 0352 0C       		.uleb128 0xc
 11526 0353 01       		.uleb128 0x1
 11527 0354 13       		.uleb128 0x13
 11528 0355 00       		.byte	0
 11529 0356 00       		.byte	0
 11530 0357 40       		.uleb128 0x40
 11531 0358 34       		.uleb128 0x34
 11532 0359 00       		.byte	0
 11533 035a 31       		.uleb128 0x31
 11534 035b 13       		.uleb128 0x13
 11535 035c 02       		.uleb128 0x2
 11536 035d 06       		.uleb128 0x6
 11537 035e 00       		.byte	0
 11538 035f 00       		.byte	0
 11539 0360 41       		.uleb128 0x41
 11540 0361 0B       		.uleb128 0xb
 11541 0362 01       		.byte	0x1
 11542 0363 31       		.uleb128 0x31
 11543 0364 13       		.uleb128 0x13
 11544 0365 55       		.uleb128 0x55
 11545 0366 06       		.uleb128 0x6
 11546 0367 00       		.byte	0
 11547 0368 00       		.byte	0
 11548 0369 42       		.uleb128 0x42
 11549 036a 898201   		.uleb128 0x4109
 11550 036d 01       		.byte	0x1
 11551 036e 11       		.uleb128 0x11
 11552 036f 01       		.uleb128 0x1
 11553 0370 31       		.uleb128 0x31
 11554 0371 13       		.uleb128 0x13
 11555 0372 01       		.uleb128 0x1
 11556 0373 13       		.uleb128 0x13
 11557 0374 00       		.byte	0
 11558 0375 00       		.byte	0
 11559 0376 43       		.uleb128 0x43
 11560 0377 1D       		.uleb128 0x1d
ARM GAS  C:\Users\EBANO_~1\AppData\Local\Temp\ccKJ5gfE.s 			page 231


 11561 0378 01       		.byte	0x1
 11562 0379 31       		.uleb128 0x31
 11563 037a 13       		.uleb128 0x13
 11564 037b 52       		.uleb128 0x52
 11565 037c 01       		.uleb128 0x1
 11566 037d 55       		.uleb128 0x55
 11567 037e 06       		.uleb128 0x6
 11568 037f 58       		.uleb128 0x58
 11569 0380 0B       		.uleb128 0xb
 11570 0381 59       		.uleb128 0x59
 11571 0382 05       		.uleb128 0x5
 11572 0383 00       		.byte	0
 11573 0384 00       		.byte	0
 11574 0385 44       		.uleb128 0x44
 11575 0386 34       		.uleb128 0x34
 11576 0387 00       		.byte	0
 11577 0388 03       		.uleb128 0x3
 11578 0389 0E       		.uleb128 0xe
 11579 038a 3A       		.uleb128 0x3a
 11580 038b 0B       		.uleb128 0xb
 11581 038c 3B       		.uleb128 0x3b
 11582 038d 05       		.uleb128 0x5
 11583 038e 49       		.uleb128 0x49
 11584 038f 13       		.uleb128 0x13
 11585 0390 1C       		.uleb128 0x1c
 11586 0391 0B       		.uleb128 0xb
 11587 0392 00       		.byte	0
 11588 0393 00       		.byte	0
 11589 0394 45       		.uleb128 0x45
 11590 0395 898201   		.uleb128 0x4109
 11591 0398 01       		.byte	0x1
 11592 0399 11       		.uleb128 0x11
 11593 039a 01       		.uleb128 0x1
 11594 039b 01       		.uleb128 0x1
 11595 039c 13       		.uleb128 0x13
 11596 039d 00       		.byte	0
 11597 039e 00       		.byte	0
 11598 039f 46       		.uleb128 0x46
 11599 03a0 898201   		.uleb128 0x4109
 11600 03a3 00       		.byte	0
 11601 03a4 11       		.uleb128 0x11
 11602 03a5 01       		.uleb128 0x1
 11603 03a6 9342     		.uleb128 0x2113
 11604 03a8 0A       		.uleb128 0xa
 11605 03a9 00       		.byte	0
 11606 03aa 00       		.byte	0
 11607 03ab 47       		.uleb128 0x47
 11608 03ac 0B       		.uleb128 0xb
 11609 03ad 01       		.byte	0x1
 11610 03ae 55       		.uleb128 0x55
 11611 03af 06       		.uleb128 0x6
 11612 03b0 01       		.uleb128 0x1
 11613 03b1 13       		.uleb128 0x13
 11614 03b2 00       		.byte	0
 11615 03b3 00       		.byte	0
 11616 03b4 48       		.uleb128 0x48
 11617 03b5 34       		.uleb128 0x34
ARM GAS  C:\Users\EBANO_~1\AppData\Local\Temp\ccKJ5gfE.s 			page 232


 11618 03b6 00       		.byte	0
 11619 03b7 03       		.uleb128 0x3
 11620 03b8 08       		.uleb128 0x8
 11621 03b9 3A       		.uleb128 0x3a
 11622 03ba 0B       		.uleb128 0xb
 11623 03bb 3B       		.uleb128 0x3b
 11624 03bc 05       		.uleb128 0x5
 11625 03bd 49       		.uleb128 0x49
 11626 03be 13       		.uleb128 0x13
 11627 03bf 02       		.uleb128 0x2
 11628 03c0 06       		.uleb128 0x6
 11629 03c1 00       		.byte	0
 11630 03c2 00       		.byte	0
 11631 03c3 49       		.uleb128 0x49
 11632 03c4 898201   		.uleb128 0x4109
 11633 03c7 01       		.byte	0x1
 11634 03c8 11       		.uleb128 0x11
 11635 03c9 01       		.uleb128 0x1
 11636 03ca 9342     		.uleb128 0x2113
 11637 03cc 0A       		.uleb128 0xa
 11638 03cd 01       		.uleb128 0x1
 11639 03ce 13       		.uleb128 0x13
 11640 03cf 00       		.byte	0
 11641 03d0 00       		.byte	0
 11642 03d1 4A       		.uleb128 0x4a
 11643 03d2 898201   		.uleb128 0x4109
 11644 03d5 01       		.byte	0x1
 11645 03d6 11       		.uleb128 0x11
 11646 03d7 01       		.uleb128 0x1
 11647 03d8 9342     		.uleb128 0x2113
 11648 03da 0A       		.uleb128 0xa
 11649 03db 00       		.byte	0
 11650 03dc 00       		.byte	0
 11651 03dd 4B       		.uleb128 0x4b
 11652 03de 898201   		.uleb128 0x4109
 11653 03e1 00       		.byte	0
 11654 03e2 11       		.uleb128 0x11
 11655 03e3 01       		.uleb128 0x1
 11656 03e4 00       		.byte	0
 11657 03e5 00       		.byte	0
 11658 03e6 4C       		.uleb128 0x4c
 11659 03e7 1D       		.uleb128 0x1d
 11660 03e8 01       		.byte	0x1
 11661 03e9 31       		.uleb128 0x31
 11662 03ea 13       		.uleb128 0x13
 11663 03eb 11       		.uleb128 0x11
 11664 03ec 01       		.uleb128 0x1
 11665 03ed 12       		.uleb128 0x12
 11666 03ee 01       		.uleb128 0x1
 11667 03ef 58       		.uleb128 0x58
 11668 03f0 0B       		.uleb128 0xb
 11669 03f1 59       		.uleb128 0x59
 11670 03f2 05       		.uleb128 0x5
 11671 03f3 00       		.byte	0
 11672 03f4 00       		.byte	0
 11673 03f5 4D       		.uleb128 0x4d
 11674 03f6 0B       		.uleb128 0xb
ARM GAS  C:\Users\EBANO_~1\AppData\Local\Temp\ccKJ5gfE.s 			page 233


 11675 03f7 01       		.byte	0x1
 11676 03f8 11       		.uleb128 0x11
 11677 03f9 01       		.uleb128 0x1
 11678 03fa 12       		.uleb128 0x12
 11679 03fb 01       		.uleb128 0x1
 11680 03fc 00       		.byte	0
 11681 03fd 00       		.byte	0
 11682 03fe 4E       		.uleb128 0x4e
 11683 03ff 34       		.uleb128 0x34
 11684 0400 00       		.byte	0
 11685 0401 31       		.uleb128 0x31
 11686 0402 13       		.uleb128 0x13
 11687 0403 1C       		.uleb128 0x1c
 11688 0404 0B       		.uleb128 0xb
 11689 0405 00       		.byte	0
 11690 0406 00       		.byte	0
 11691 0407 4F       		.uleb128 0x4f
 11692 0408 2E       		.uleb128 0x2e
 11693 0409 01       		.byte	0x1
 11694 040a 3F       		.uleb128 0x3f
 11695 040b 0C       		.uleb128 0xc
 11696 040c 03       		.uleb128 0x3
 11697 040d 0E       		.uleb128 0xe
 11698 040e 3A       		.uleb128 0x3a
 11699 040f 0B       		.uleb128 0xb
 11700 0410 3B       		.uleb128 0x3b
 11701 0411 0B       		.uleb128 0xb
 11702 0412 27       		.uleb128 0x27
 11703 0413 0C       		.uleb128 0xc
 11704 0414 49       		.uleb128 0x49
 11705 0415 13       		.uleb128 0x13
 11706 0416 20       		.uleb128 0x20
 11707 0417 0B       		.uleb128 0xb
 11708 0418 01       		.uleb128 0x1
 11709 0419 13       		.uleb128 0x13
 11710 041a 00       		.byte	0
 11711 041b 00       		.byte	0
 11712 041c 50       		.uleb128 0x50
 11713 041d 05       		.uleb128 0x5
 11714 041e 00       		.byte	0
 11715 041f 03       		.uleb128 0x3
 11716 0420 0E       		.uleb128 0xe
 11717 0421 3A       		.uleb128 0x3a
 11718 0422 0B       		.uleb128 0xb
 11719 0423 3B       		.uleb128 0x3b
 11720 0424 0B       		.uleb128 0xb
 11721 0425 49       		.uleb128 0x49
 11722 0426 13       		.uleb128 0x13
 11723 0427 00       		.byte	0
 11724 0428 00       		.byte	0
 11725 0429 51       		.uleb128 0x51
 11726 042a 34       		.uleb128 0x34
 11727 042b 00       		.byte	0
 11728 042c 03       		.uleb128 0x3
 11729 042d 0E       		.uleb128 0xe
 11730 042e 3A       		.uleb128 0x3a
 11731 042f 0B       		.uleb128 0xb
ARM GAS  C:\Users\EBANO_~1\AppData\Local\Temp\ccKJ5gfE.s 			page 234


 11732 0430 3B       		.uleb128 0x3b
 11733 0431 0B       		.uleb128 0xb
 11734 0432 49       		.uleb128 0x49
 11735 0433 13       		.uleb128 0x13
 11736 0434 00       		.byte	0
 11737 0435 00       		.byte	0
 11738 0436 52       		.uleb128 0x52
 11739 0437 2E       		.uleb128 0x2e
 11740 0438 01       		.byte	0x1
 11741 0439 03       		.uleb128 0x3
 11742 043a 0E       		.uleb128 0xe
 11743 043b 3A       		.uleb128 0x3a
 11744 043c 0B       		.uleb128 0xb
 11745 043d 3B       		.uleb128 0x3b
 11746 043e 0B       		.uleb128 0xb
 11747 043f 27       		.uleb128 0x27
 11748 0440 0C       		.uleb128 0xc
 11749 0441 49       		.uleb128 0x49
 11750 0442 13       		.uleb128 0x13
 11751 0443 20       		.uleb128 0x20
 11752 0444 0B       		.uleb128 0xb
 11753 0445 01       		.uleb128 0x1
 11754 0446 13       		.uleb128 0x13
 11755 0447 00       		.byte	0
 11756 0448 00       		.byte	0
 11757 0449 53       		.uleb128 0x53
 11758 044a 0B       		.uleb128 0xb
 11759 044b 01       		.byte	0x1
 11760 044c 00       		.byte	0
 11761 044d 00       		.byte	0
 11762 044e 54       		.uleb128 0x54
 11763 044f 34       		.uleb128 0x34
 11764 0450 00       		.byte	0
 11765 0451 03       		.uleb128 0x3
 11766 0452 08       		.uleb128 0x8
 11767 0453 3A       		.uleb128 0x3a
 11768 0454 0B       		.uleb128 0xb
 11769 0455 3B       		.uleb128 0x3b
 11770 0456 0B       		.uleb128 0xb
 11771 0457 49       		.uleb128 0x49
 11772 0458 13       		.uleb128 0x13
 11773 0459 00       		.byte	0
 11774 045a 00       		.byte	0
 11775 045b 55       		.uleb128 0x55
 11776 045c 05       		.uleb128 0x5
 11777 045d 00       		.byte	0
 11778 045e 03       		.uleb128 0x3
 11779 045f 08       		.uleb128 0x8
 11780 0460 3A       		.uleb128 0x3a
 11781 0461 0B       		.uleb128 0xb
 11782 0462 3B       		.uleb128 0x3b
 11783 0463 0B       		.uleb128 0xb
 11784 0464 49       		.uleb128 0x49
 11785 0465 13       		.uleb128 0x13
 11786 0466 00       		.byte	0
 11787 0467 00       		.byte	0
 11788 0468 56       		.uleb128 0x56
ARM GAS  C:\Users\EBANO_~1\AppData\Local\Temp\ccKJ5gfE.s 			page 235


 11789 0469 2E       		.uleb128 0x2e
 11790 046a 01       		.byte	0x1
 11791 046b 31       		.uleb128 0x31
 11792 046c 13       		.uleb128 0x13
 11793 046d 11       		.uleb128 0x11
 11794 046e 01       		.uleb128 0x1
 11795 046f 12       		.uleb128 0x12
 11796 0470 01       		.uleb128 0x1
 11797 0471 40       		.uleb128 0x40
 11798 0472 06       		.uleb128 0x6
 11799 0473 9742     		.uleb128 0x2117
 11800 0475 0C       		.uleb128 0xc
 11801 0476 01       		.uleb128 0x1
 11802 0477 13       		.uleb128 0x13
 11803 0478 00       		.byte	0
 11804 0479 00       		.byte	0
 11805 047a 57       		.uleb128 0x57
 11806 047b 34       		.uleb128 0x34
 11807 047c 00       		.byte	0
 11808 047d 31       		.uleb128 0x31
 11809 047e 13       		.uleb128 0x13
 11810 047f 02       		.uleb128 0x2
 11811 0480 0A       		.uleb128 0xa
 11812 0481 00       		.byte	0
 11813 0482 00       		.byte	0
 11814 0483 58       		.uleb128 0x58
 11815 0484 1D       		.uleb128 0x1d
 11816 0485 01       		.byte	0x1
 11817 0486 31       		.uleb128 0x31
 11818 0487 13       		.uleb128 0x13
 11819 0488 11       		.uleb128 0x11
 11820 0489 01       		.uleb128 0x1
 11821 048a 12       		.uleb128 0x12
 11822 048b 01       		.uleb128 0x1
 11823 048c 58       		.uleb128 0x58
 11824 048d 0B       		.uleb128 0xb
 11825 048e 59       		.uleb128 0x59
 11826 048f 0B       		.uleb128 0xb
 11827 0490 01       		.uleb128 0x1
 11828 0491 13       		.uleb128 0x13
 11829 0492 00       		.byte	0
 11830 0493 00       		.byte	0
 11831 0494 59       		.uleb128 0x59
 11832 0495 2E       		.uleb128 0x2e
 11833 0496 00       		.byte	0
 11834 0497 3F       		.uleb128 0x3f
 11835 0498 0C       		.uleb128 0xc
 11836 0499 3C       		.uleb128 0x3c
 11837 049a 0C       		.uleb128 0xc
 11838 049b 8740     		.uleb128 0x2007
 11839 049d 0E       		.uleb128 0xe
 11840 049e 03       		.uleb128 0x3
 11841 049f 0E       		.uleb128 0xe
 11842 04a0 3A       		.uleb128 0x3a
 11843 04a1 0B       		.uleb128 0xb
 11844 04a2 3B       		.uleb128 0x3b
 11845 04a3 05       		.uleb128 0x5
ARM GAS  C:\Users\EBANO_~1\AppData\Local\Temp\ccKJ5gfE.s 			page 236


 11846 04a4 00       		.byte	0
 11847 04a5 00       		.byte	0
 11848 04a6 5A       		.uleb128 0x5a
 11849 04a7 2E       		.uleb128 0x2e
 11850 04a8 00       		.byte	0
 11851 04a9 3F       		.uleb128 0x3f
 11852 04aa 0C       		.uleb128 0xc
 11853 04ab 3C       		.uleb128 0x3c
 11854 04ac 0C       		.uleb128 0xc
 11855 04ad 8740     		.uleb128 0x2007
 11856 04af 0E       		.uleb128 0xe
 11857 04b0 03       		.uleb128 0x3
 11858 04b1 0E       		.uleb128 0xe
 11859 04b2 3A       		.uleb128 0x3a
 11860 04b3 0B       		.uleb128 0xb
 11861 04b4 3B       		.uleb128 0x3b
 11862 04b5 0B       		.uleb128 0xb
 11863 04b6 00       		.byte	0
 11864 04b7 00       		.byte	0
 11865 04b8 5B       		.uleb128 0x5b
 11866 04b9 2E       		.uleb128 0x2e
 11867 04ba 00       		.byte	0
 11868 04bb 3F       		.uleb128 0x3f
 11869 04bc 0C       		.uleb128 0xc
 11870 04bd 3C       		.uleb128 0x3c
 11871 04be 0C       		.uleb128 0xc
 11872 04bf 8740     		.uleb128 0x2007
 11873 04c1 0E       		.uleb128 0xe
 11874 04c2 03       		.uleb128 0x3
 11875 04c3 0E       		.uleb128 0xe
 11876 04c4 3A       		.uleb128 0x3a
 11877 04c5 0B       		.uleb128 0xb
 11878 04c6 3B       		.uleb128 0x3b
 11879 04c7 0B       		.uleb128 0xb
 11880 04c8 8740     		.uleb128 0x2007
 11881 04ca 0E       		.uleb128 0xe
 11882 04cb 00       		.byte	0
 11883 04cc 00       		.byte	0
 11884 04cd 00       		.byte	0
 11885              		.section	.debug_loc,"",%progbits
 11886              	.Ldebug_loc0:
 11887              	.LLST113:
 11888 0000 00000000 		.4byte	.LFB66
 11889 0004 02000000 		.4byte	.LCFI39
 11890 0008 0200     		.2byte	0x2
 11891 000a 7D       		.byte	0x7d
 11892 000b 00       		.sleb128 0
 11893 000c 02000000 		.4byte	.LCFI39
 11894 0010 06000000 		.4byte	.LCFI40
 11895 0014 0200     		.2byte	0x2
 11896 0016 7D       		.byte	0x7d
 11897 0017 08       		.sleb128 8
 11898 0018 06000000 		.4byte	.LCFI40
 11899 001c 38000000 		.4byte	.LFE66
 11900 0020 0200     		.2byte	0x2
 11901 0022 7D       		.byte	0x7d
 11902 0023 20       		.sleb128 32
ARM GAS  C:\Users\EBANO_~1\AppData\Local\Temp\ccKJ5gfE.s 			page 237


 11903 0024 00000000 		.4byte	0
 11904 0028 00000000 		.4byte	0
 11905              	.LLST114:
 11906 002c 00000000 		.4byte	.LVL332
 11907 0030 22000000 		.4byte	.LVL333
 11908 0034 0100     		.2byte	0x1
 11909 0036 50       		.byte	0x50
 11910 0037 22000000 		.4byte	.LVL333
 11911 003b 38000000 		.4byte	.LFE66
 11912 003f 0400     		.2byte	0x4
 11913 0041 F3       		.byte	0xf3
 11914 0042 01       		.uleb128 0x1
 11915 0043 50       		.byte	0x50
 11916 0044 9F       		.byte	0x9f
 11917 0045 00000000 		.4byte	0
 11918 0049 00000000 		.4byte	0
 11919              	.LLST115:
 11920 004d 00000000 		.4byte	.LVL332
 11921 0051 27000000 		.4byte	.LVL334-1
 11922 0055 0100     		.2byte	0x1
 11923 0057 51       		.byte	0x51
 11924 0058 27000000 		.4byte	.LVL334-1
 11925 005c 2E000000 		.4byte	.LVL335
 11926 0060 0100     		.2byte	0x1
 11927 0062 54       		.byte	0x54
 11928 0063 2E000000 		.4byte	.LVL335
 11929 0067 38000000 		.4byte	.LFE66
 11930 006b 0400     		.2byte	0x4
 11931 006d F3       		.byte	0xf3
 11932 006e 01       		.uleb128 0x1
 11933 006f 51       		.byte	0x51
 11934 0070 9F       		.byte	0x9f
 11935 0071 00000000 		.4byte	0
 11936 0075 00000000 		.4byte	0
 11937              	.LLST111:
 11938 0079 00000000 		.4byte	.LVL328
 11939 007d 06000000 		.4byte	.LVL331
 11940 0081 0100     		.2byte	0x1
 11941 0083 50       		.byte	0x50
 11942 0084 06000000 		.4byte	.LVL331
 11943 0088 0E000000 		.4byte	.LFE65
 11944 008c 0400     		.2byte	0x4
 11945 008e F3       		.byte	0xf3
 11946 008f 01       		.uleb128 0x1
 11947 0090 50       		.byte	0x50
 11948 0091 9F       		.byte	0x9f
 11949 0092 00000000 		.4byte	0
 11950 0096 00000000 		.4byte	0
 11951              	.LLST112:
 11952 009a 00000000 		.4byte	.LVL328
 11953 009e 02000000 		.4byte	.LVL329
 11954 00a2 0100     		.2byte	0x1
 11955 00a4 51       		.byte	0x51
 11956 00a5 02000000 		.4byte	.LVL329
 11957 00a9 0E000000 		.4byte	.LFE65
 11958 00ad 0400     		.2byte	0x4
 11959 00af F3       		.byte	0xf3
ARM GAS  C:\Users\EBANO_~1\AppData\Local\Temp\ccKJ5gfE.s 			page 238


 11960 00b0 01       		.uleb128 0x1
 11961 00b1 51       		.byte	0x51
 11962 00b2 9F       		.byte	0x9f
 11963 00b3 00000000 		.4byte	0
 11964 00b7 00000000 		.4byte	0
 11965              	.LLST106:
 11966 00bb 00000000 		.4byte	.LFB64
 11967 00bf 02000000 		.4byte	.LCFI37
 11968 00c3 0200     		.2byte	0x2
 11969 00c5 7D       		.byte	0x7d
 11970 00c6 00       		.sleb128 0
 11971 00c7 02000000 		.4byte	.LCFI37
 11972 00cb 26000000 		.4byte	.LCFI38
 11973 00cf 0200     		.2byte	0x2
 11974 00d1 7D       		.byte	0x7d
 11975 00d2 14       		.sleb128 20
 11976 00d3 26000000 		.4byte	.LCFI38
 11977 00d7 50000000 		.4byte	.LFE64
 11978 00db 0200     		.2byte	0x2
 11979 00dd 7D       		.byte	0x7d
 11980 00de 20       		.sleb128 32
 11981 00df 00000000 		.4byte	0
 11982 00e3 00000000 		.4byte	0
 11983              	.LLST107:
 11984 00e7 00000000 		.4byte	.LVL319
 11985 00eb 08000000 		.4byte	.LVL321
 11986 00ef 0100     		.2byte	0x1
 11987 00f1 50       		.byte	0x50
 11988 00f2 08000000 		.4byte	.LVL321
 11989 00f6 46000000 		.4byte	.LVL326
 11990 00fa 0100     		.2byte	0x1
 11991 00fc 54       		.byte	0x54
 11992 00fd 46000000 		.4byte	.LVL326
 11993 0101 50000000 		.4byte	.LFE64
 11994 0105 0400     		.2byte	0x4
 11995 0107 F3       		.byte	0xf3
 11996 0108 01       		.uleb128 0x1
 11997 0109 50       		.byte	0x50
 11998 010a 9F       		.byte	0x9f
 11999 010b 00000000 		.4byte	0
 12000 010f 00000000 		.4byte	0
 12001              	.LLST108:
 12002 0113 06000000 		.4byte	.LVL320
 12003 0117 3A000000 		.4byte	.LVL324
 12004 011b 0200     		.2byte	0x2
 12005 011d 30       		.byte	0x30
 12006 011e 9F       		.byte	0x9f
 12007 011f 3A000000 		.4byte	.LVL324
 12008 0123 43000000 		.4byte	.LVL325-1
 12009 0127 0100     		.2byte	0x1
 12010 0129 51       		.byte	0x51
 12011 012a 00000000 		.4byte	0
 12012 012e 00000000 		.4byte	0
 12013              	.LLST109:
 12014 0132 10000000 		.4byte	.LVL322
 12015 0136 46000000 		.4byte	.LVL327
 12016 013a 0100     		.2byte	0x1
ARM GAS  C:\Users\EBANO_~1\AppData\Local\Temp\ccKJ5gfE.s 			page 239


 12017 013c 55       		.byte	0x55
 12018 013d 00000000 		.4byte	0
 12019 0141 00000000 		.4byte	0
 12020              	.LLST110:
 12021 0145 06000000 		.4byte	.LVL320
 12022 0149 08000000 		.4byte	.LVL321
 12023 014d 0200     		.2byte	0x2
 12024 014f 70       		.byte	0x70
 12025 0150 01       		.sleb128 1
 12026 0151 08000000 		.4byte	.LVL321
 12027 0155 35000000 		.4byte	.LVL323-1
 12028 0159 0200     		.2byte	0x2
 12029 015b 74       		.byte	0x74
 12030 015c 01       		.sleb128 1
 12031 015d 00000000 		.4byte	0
 12032 0161 00000000 		.4byte	0
 12033              	.LLST77:
 12034 0165 00000000 		.4byte	.LFB61
 12035 0169 02000000 		.4byte	.LCFI31
 12036 016d 0200     		.2byte	0x2
 12037 016f 7D       		.byte	0x7d
 12038 0170 00       		.sleb128 0
 12039 0171 02000000 		.4byte	.LCFI31
 12040 0175 0C000000 		.4byte	.LCFI32
 12041 0179 0200     		.2byte	0x2
 12042 017b 7D       		.byte	0x7d
 12043 017c 14       		.sleb128 20
 12044 017d 0C000000 		.4byte	.LCFI32
 12045 0181 0E000000 		.4byte	.LCFI33
 12046 0185 0200     		.2byte	0x2
 12047 0187 7D       		.byte	0x7d
 12048 0188 24       		.sleb128 36
 12049 0189 0E000000 		.4byte	.LCFI33
 12050 018d BC010000 		.4byte	.LFE61
 12051 0191 0300     		.2byte	0x3
 12052 0193 7D       		.byte	0x7d
 12053 0194 D000     		.sleb128 80
 12054 0196 00000000 		.4byte	0
 12055 019a 00000000 		.4byte	0
 12056              	.LLST78:
 12057 019e 00000000 		.4byte	.LVL248
 12058 01a2 18000000 		.4byte	.LVL250
 12059 01a6 0100     		.2byte	0x1
 12060 01a8 50       		.byte	0x50
 12061 01a9 18000000 		.4byte	.LVL250
 12062 01ad 72000000 		.4byte	.LVL259
 12063 01b1 0100     		.2byte	0x1
 12064 01b3 54       		.byte	0x54
 12065 01b4 72000000 		.4byte	.LVL259
 12066 01b8 0E010000 		.4byte	.LVL273
 12067 01bc 0400     		.2byte	0x4
 12068 01be F3       		.byte	0xf3
 12069 01bf 01       		.uleb128 0x1
 12070 01c0 50       		.byte	0x50
 12071 01c1 9F       		.byte	0x9f
 12072 01c2 0E010000 		.4byte	.LVL273
 12073 01c6 1A010000 		.4byte	.LVL275
ARM GAS  C:\Users\EBANO_~1\AppData\Local\Temp\ccKJ5gfE.s 			page 240


 12074 01ca 0100     		.2byte	0x1
 12075 01cc 54       		.byte	0x54
 12076 01cd 1A010000 		.4byte	.LVL275
 12077 01d1 24010000 		.4byte	.LVL276
 12078 01d5 0400     		.2byte	0x4
 12079 01d7 F3       		.byte	0xf3
 12080 01d8 01       		.uleb128 0x1
 12081 01d9 50       		.byte	0x50
 12082 01da 9F       		.byte	0x9f
 12083 01db 24010000 		.4byte	.LVL276
 12084 01df 36010000 		.4byte	.LVL277
 12085 01e3 0100     		.2byte	0x1
 12086 01e5 54       		.byte	0x54
 12087 01e6 36010000 		.4byte	.LVL277
 12088 01ea BC010000 		.4byte	.LFE61
 12089 01ee 0400     		.2byte	0x4
 12090 01f0 F3       		.byte	0xf3
 12091 01f1 01       		.uleb128 0x1
 12092 01f2 50       		.byte	0x50
 12093 01f3 9F       		.byte	0x9f
 12094 01f4 00000000 		.4byte	0
 12095 01f8 00000000 		.4byte	0
 12096              	.LLST79:
 12097 01fc 00000000 		.4byte	.LVL248
 12098 0200 14000000 		.4byte	.LVL249
 12099 0204 0100     		.2byte	0x1
 12100 0206 51       		.byte	0x51
 12101 0207 14000000 		.4byte	.LVL249
 12102 020b BC010000 		.4byte	.LFE61
 12103 020f 0200     		.2byte	0x2
 12104 0211 91       		.byte	0x91
 12105 0212 40       		.sleb128 -64
 12106 0213 00000000 		.4byte	0
 12107 0217 00000000 		.4byte	0
 12108              	.LLST80:
 12109 021b 00000000 		.4byte	.LVL248
 12110 021f 1A000000 		.4byte	.LVL251
 12111 0223 0100     		.2byte	0x1
 12112 0225 52       		.byte	0x52
 12113 0226 1A000000 		.4byte	.LVL251
 12114 022a 02010000 		.4byte	.LVL272
 12115 022e 0100     		.2byte	0x1
 12116 0230 5B       		.byte	0x5b
 12117 0231 02010000 		.4byte	.LVL272
 12118 0235 0E010000 		.4byte	.LVL273
 12119 0239 0400     		.2byte	0x4
 12120 023b F3       		.byte	0xf3
 12121 023c 01       		.uleb128 0x1
 12122 023d 52       		.byte	0x52
 12123 023e 9F       		.byte	0x9f
 12124 023f 0E010000 		.4byte	.LVL273
 12125 0243 BC010000 		.4byte	.LFE61
 12126 0247 0100     		.2byte	0x1
 12127 0249 5B       		.byte	0x5b
 12128 024a 00000000 		.4byte	0
 12129 024e 00000000 		.4byte	0
 12130              	.LLST81:
ARM GAS  C:\Users\EBANO_~1\AppData\Local\Temp\ccKJ5gfE.s 			page 241


 12131 0252 00000000 		.4byte	.LVL248
 12132 0256 1F000000 		.4byte	.LVL252-1
 12133 025a 0100     		.2byte	0x1
 12134 025c 53       		.byte	0x53
 12135 025d 1F000000 		.4byte	.LVL252-1
 12136 0261 74000000 		.4byte	.LVL260
 12137 0265 0100     		.2byte	0x1
 12138 0267 56       		.byte	0x56
 12139 0268 74000000 		.4byte	.LVL260
 12140 026c 0E010000 		.4byte	.LVL273
 12141 0270 0400     		.2byte	0x4
 12142 0272 F3       		.byte	0xf3
 12143 0273 01       		.uleb128 0x1
 12144 0274 53       		.byte	0x53
 12145 0275 9F       		.byte	0x9f
 12146 0276 0E010000 		.4byte	.LVL273
 12147 027a 1A010000 		.4byte	.LVL275
 12148 027e 0100     		.2byte	0x1
 12149 0280 56       		.byte	0x56
 12150 0281 1A010000 		.4byte	.LVL275
 12151 0285 24010000 		.4byte	.LVL276
 12152 0289 0400     		.2byte	0x4
 12153 028b F3       		.byte	0xf3
 12154 028c 01       		.uleb128 0x1
 12155 028d 53       		.byte	0x53
 12156 028e 9F       		.byte	0x9f
 12157 028f 24010000 		.4byte	.LVL276
 12158 0293 38010000 		.4byte	.LVL278
 12159 0297 0100     		.2byte	0x1
 12160 0299 56       		.byte	0x56
 12161 029a 38010000 		.4byte	.LVL278
 12162 029e BC010000 		.4byte	.LFE61
 12163 02a2 0400     		.2byte	0x4
 12164 02a4 F3       		.byte	0xf3
 12165 02a5 01       		.uleb128 0x1
 12166 02a6 53       		.byte	0x53
 12167 02a7 9F       		.byte	0x9f
 12168 02a8 00000000 		.4byte	0
 12169 02ac 00000000 		.4byte	0
 12170              	.LLST82:
 12171 02b0 00000000 		.4byte	.LVL248
 12172 02b4 E2000000 		.4byte	.LVL270
 12173 02b8 0200     		.2byte	0x2
 12174 02ba 30       		.byte	0x30
 12175 02bb 9F       		.byte	0x9f
 12176 02bc 0E010000 		.4byte	.LVL273
 12177 02c0 1A010000 		.4byte	.LVL275
 12178 02c4 0200     		.2byte	0x2
 12179 02c6 30       		.byte	0x30
 12180 02c7 9F       		.byte	0x9f
 12181 02c8 24010000 		.4byte	.LVL276
 12182 02cc 98010000 		.4byte	.LVL288
 12183 02d0 0200     		.2byte	0x2
 12184 02d2 30       		.byte	0x30
 12185 02d3 9F       		.byte	0x9f
 12186 02d4 00000000 		.4byte	0
 12187 02d8 00000000 		.4byte	0
ARM GAS  C:\Users\EBANO_~1\AppData\Local\Temp\ccKJ5gfE.s 			page 242


 12188              	.LLST83:
 12189 02dc 00000000 		.4byte	.LVL248
 12190 02e0 E2000000 		.4byte	.LVL270
 12191 02e4 0200     		.2byte	0x2
 12192 02e6 30       		.byte	0x30
 12193 02e7 9F       		.byte	0x9f
 12194 02e8 E2000000 		.4byte	.LVL270
 12195 02ec 00010000 		.4byte	.LVL271
 12196 02f0 0300     		.2byte	0x3
 12197 02f2 91       		.byte	0x91
 12198 02f3 B87F     		.sleb128 -72
 12199 02f5 0E010000 		.4byte	.LVL273
 12200 02f9 1A010000 		.4byte	.LVL275
 12201 02fd 0200     		.2byte	0x2
 12202 02ff 31       		.byte	0x31
 12203 0300 9F       		.byte	0x9f
 12204 0301 24010000 		.4byte	.LVL276
 12205 0305 98010000 		.4byte	.LVL288
 12206 0309 0200     		.2byte	0x2
 12207 030b 30       		.byte	0x30
 12208 030c 9F       		.byte	0x9f
 12209 030d 98010000 		.4byte	.LVL288
 12210 0311 BC010000 		.4byte	.LFE61
 12211 0315 0300     		.2byte	0x3
 12212 0317 91       		.byte	0x91
 12213 0318 B87F     		.sleb128 -72
 12214 031a 00000000 		.4byte	0
 12215 031e 00000000 		.4byte	0
 12216              	.LLST84:
 12217 0322 20000000 		.4byte	.LVL252
 12218 0326 5E000000 		.4byte	.LVL256
 12219 032a 0200     		.2byte	0x2
 12220 032c 30       		.byte	0x30
 12221 032d 9F       		.byte	0x9f
 12222 032e 5E000000 		.4byte	.LVL256
 12223 0332 7A000000 		.4byte	.LVL261
 12224 0336 0100     		.2byte	0x1
 12225 0338 50       		.byte	0x50
 12226 0339 7A000000 		.4byte	.LVL261
 12227 033d 0E010000 		.4byte	.LVL273
 12228 0341 0300     		.2byte	0x3
 12229 0343 91       		.byte	0x91
 12230 0344 BC7F     		.sleb128 -68
 12231 0346 0E010000 		.4byte	.LVL273
 12232 034a 1A010000 		.4byte	.LVL275
 12233 034e 0200     		.2byte	0x2
 12234 0350 30       		.byte	0x30
 12235 0351 9F       		.byte	0x9f
 12236 0352 1A010000 		.4byte	.LVL275
 12237 0356 24010000 		.4byte	.LVL276
 12238 035a 0300     		.2byte	0x3
 12239 035c 91       		.byte	0x91
 12240 035d BC7F     		.sleb128 -68
 12241 035f 24010000 		.4byte	.LVL276
 12242 0363 3E010000 		.4byte	.LVL279
 12243 0367 0100     		.2byte	0x1
 12244 0369 50       		.byte	0x50
ARM GAS  C:\Users\EBANO_~1\AppData\Local\Temp\ccKJ5gfE.s 			page 243


 12245 036a 3E010000 		.4byte	.LVL279
 12246 036e BC010000 		.4byte	.LFE61
 12247 0372 0300     		.2byte	0x3
 12248 0374 91       		.byte	0x91
 12249 0375 BC7F     		.sleb128 -68
 12250 0377 00000000 		.4byte	0
 12251 037b 00000000 		.4byte	0
 12252              	.LLST85:
 12253 037f 62000000 		.4byte	.LVL257
 12254 0383 E2000000 		.4byte	.LVL270
 12255 0387 0600     		.2byte	0x6
 12256 0389 03       		.byte	0x3
 12257 038a D0000000 		.4byte	NvmCtx+208
 12258 038e 9F       		.byte	0x9f
 12259 038f 24010000 		.4byte	.LVL276
 12260 0393 98010000 		.4byte	.LVL288
 12261 0397 0600     		.2byte	0x6
 12262 0399 03       		.byte	0x3
 12263 039a D0000000 		.4byte	NvmCtx+208
 12264 039e 9F       		.byte	0x9f
 12265 039f 00000000 		.4byte	0
 12266 03a3 00000000 		.4byte	0
 12267              	.LLST86:
 12268 03a7 62000000 		.4byte	.LVL257
 12269 03ab E2000000 		.4byte	.LVL270
 12270 03af 0600     		.2byte	0x6
 12271 03b1 03       		.byte	0x3
 12272 03b2 00000000 		.4byte	NvmCtx
 12273 03b6 9F       		.byte	0x9f
 12274 03b7 24010000 		.4byte	.LVL276
 12275 03bb 98010000 		.4byte	.LVL288
 12276 03bf 0600     		.2byte	0x6
 12277 03c1 03       		.byte	0x3
 12278 03c2 00000000 		.4byte	NvmCtx
 12279 03c6 9F       		.byte	0x9f
 12280 03c7 00000000 		.4byte	0
 12281 03cb 00000000 		.4byte	0
 12282              	.LLST87:
 12283 03cf 62000000 		.4byte	.LVL257
 12284 03d3 6A000000 		.4byte	.LVL258
 12285 03d7 0100     		.2byte	0x1
 12286 03d9 55       		.byte	0x55
 12287 03da 6A000000 		.4byte	.LVL258
 12288 03de E2000000 		.4byte	.LVL270
 12289 03e2 0600     		.2byte	0x6
 12290 03e4 03       		.byte	0x3
 12291 03e5 C0000000 		.4byte	NvmCtx+192
 12292 03e9 9F       		.byte	0x9f
 12293 03ea 24010000 		.4byte	.LVL276
 12294 03ee 3E010000 		.4byte	.LVL279
 12295 03f2 0100     		.2byte	0x1
 12296 03f4 55       		.byte	0x55
 12297 03f5 3E010000 		.4byte	.LVL279
 12298 03f9 98010000 		.4byte	.LVL288
 12299 03fd 0200     		.2byte	0x2
 12300 03ff 91       		.byte	0x91
 12301 0400 44       		.sleb128 -60
ARM GAS  C:\Users\EBANO_~1\AppData\Local\Temp\ccKJ5gfE.s 			page 244


 12302 0401 00000000 		.4byte	0
 12303 0405 00000000 		.4byte	0
 12304              	.LLST88:
 12305 0409 62000000 		.4byte	.LVL257
 12306 040d E2000000 		.4byte	.LVL270
 12307 0411 0600     		.2byte	0x6
 12308 0413 F2       		.byte	0xf2
 12309 0414 38210000 		.4byte	.Ldebug_info0+8504
 12310 0418 00       		.sleb128 0
 12311 0419 24010000 		.4byte	.LVL276
 12312 041d 98010000 		.4byte	.LVL288
 12313 0421 0600     		.2byte	0x6
 12314 0423 F2       		.byte	0xf2
 12315 0424 38210000 		.4byte	.Ldebug_info0+8504
 12316 0428 00       		.sleb128 0
 12317 0429 00000000 		.4byte	0
 12318 042d 00000000 		.4byte	0
 12319              	.LLST89:
 12320 0431 62000000 		.4byte	.LVL257
 12321 0435 88000000 		.4byte	.LVL263
 12322 0439 0300     		.2byte	0x3
 12323 043b 91       		.byte	0x91
 12324 043c 48       		.sleb128 -56
 12325 043d 9F       		.byte	0x9f
 12326 043e 88000000 		.4byte	.LVL263
 12327 0442 8A000000 		.4byte	.LVL264
 12328 0446 0100     		.2byte	0x1
 12329 0448 52       		.byte	0x52
 12330 0449 8A000000 		.4byte	.LVL264
 12331 044d E2000000 		.4byte	.LVL270
 12332 0451 0300     		.2byte	0x3
 12333 0453 91       		.byte	0x91
 12334 0454 48       		.sleb128 -56
 12335 0455 9F       		.byte	0x9f
 12336 0456 24010000 		.4byte	.LVL276
 12337 045a 86010000 		.4byte	.LVL285
 12338 045e 0300     		.2byte	0x3
 12339 0460 91       		.byte	0x91
 12340 0461 48       		.sleb128 -56
 12341 0462 9F       		.byte	0x9f
 12342 0463 86010000 		.4byte	.LVL285
 12343 0467 8E010000 		.4byte	.LVL286
 12344 046b 0100     		.2byte	0x1
 12345 046d 52       		.byte	0x52
 12346 046e 8E010000 		.4byte	.LVL286
 12347 0472 98010000 		.4byte	.LVL288
 12348 0476 0300     		.2byte	0x3
 12349 0478 91       		.byte	0x91
 12350 0479 48       		.sleb128 -56
 12351 047a 9F       		.byte	0x9f
 12352 047b 00000000 		.4byte	0
 12353 047f 00000000 		.4byte	0
 12354              	.LLST90:
 12355 0483 62000000 		.4byte	.LVL257
 12356 0487 E2000000 		.4byte	.LVL270
 12357 048b 0300     		.2byte	0x3
 12358 048d 91       		.byte	0x91
ARM GAS  C:\Users\EBANO_~1\AppData\Local\Temp\ccKJ5gfE.s 			page 245


 12359 048e B47F     		.sleb128 -76
 12360 0490 24010000 		.4byte	.LVL276
 12361 0494 98010000 		.4byte	.LVL288
 12362 0498 0300     		.2byte	0x3
 12363 049a 91       		.byte	0x91
 12364 049b B47F     		.sleb128 -76
 12365 049d 00000000 		.4byte	0
 12366 04a1 00000000 		.4byte	0
 12367              	.LLST91:
 12368 04a5 62000000 		.4byte	.LVL257
 12369 04a9 72000000 		.4byte	.LVL259
 12370 04ad 0200     		.2byte	0x2
 12371 04af 74       		.byte	0x74
 12372 04b0 09       		.sleb128 9
 12373 04b1 72000000 		.4byte	.LVL259
 12374 04b5 7A000000 		.4byte	.LVL261
 12375 04b9 0100     		.2byte	0x1
 12376 04bb 58       		.byte	0x58
 12377 04bc 7A000000 		.4byte	.LVL261
 12378 04c0 E2000000 		.4byte	.LVL270
 12379 04c4 0400     		.2byte	0x4
 12380 04c6 7A       		.byte	0x7a
 12381 04c7 B07E     		.sleb128 -208
 12382 04c9 9F       		.byte	0x9f
 12383 04ca 24010000 		.4byte	.LVL276
 12384 04ce 36010000 		.4byte	.LVL277
 12385 04d2 0200     		.2byte	0x2
 12386 04d4 74       		.byte	0x74
 12387 04d5 09       		.sleb128 9
 12388 04d6 36010000 		.4byte	.LVL277
 12389 04da 3E010000 		.4byte	.LVL279
 12390 04de 0500     		.2byte	0x5
 12391 04e0 F3       		.byte	0xf3
 12392 04e1 01       		.uleb128 0x1
 12393 04e2 50       		.byte	0x50
 12394 04e3 23       		.byte	0x23
 12395 04e4 09       		.uleb128 0x9
 12396 04e5 00000000 		.4byte	0
 12397 04e9 00000000 		.4byte	0
 12398              	.LLST92:
 12399 04ed 62000000 		.4byte	.LVL257
 12400 04f1 7A000000 		.4byte	.LVL261
 12401 04f5 0200     		.2byte	0x2
 12402 04f7 30       		.byte	0x30
 12403 04f8 9F       		.byte	0x9f
 12404 04f9 7A000000 		.4byte	.LVL261
 12405 04fd 7E000000 		.4byte	.LVL262
 12406 0501 0100     		.2byte	0x1
 12407 0503 58       		.byte	0x58
 12408 0504 7E000000 		.4byte	.LVL262
 12409 0508 8A000000 		.4byte	.LVL264
 12410 050c 0100     		.2byte	0x1
 12411 050e 53       		.byte	0x53
 12412 050f 8A000000 		.4byte	.LVL264
 12413 0513 92000000 		.4byte	.LVL266
 12414 0517 0100     		.2byte	0x1
 12415 0519 58       		.byte	0x58
ARM GAS  C:\Users\EBANO_~1\AppData\Local\Temp\ccKJ5gfE.s 			page 246


 12416 051a 96000000 		.4byte	.LVL267
 12417 051e E2000000 		.4byte	.LVL270
 12418 0522 0100     		.2byte	0x1
 12419 0524 58       		.byte	0x58
 12420 0525 24010000 		.4byte	.LVL276
 12421 0529 3E010000 		.4byte	.LVL279
 12422 052d 0200     		.2byte	0x2
 12423 052f 30       		.byte	0x30
 12424 0530 9F       		.byte	0x9f
 12425 0531 3E010000 		.4byte	.LVL279
 12426 0535 46010000 		.4byte	.LVL281
 12427 0539 0100     		.2byte	0x1
 12428 053b 58       		.byte	0x58
 12429 053c 50010000 		.4byte	.LVL282
 12430 0540 84010000 		.4byte	.LVL284
 12431 0544 0100     		.2byte	0x1
 12432 0546 58       		.byte	0x58
 12433 0547 84010000 		.4byte	.LVL284
 12434 054b 8E010000 		.4byte	.LVL286
 12435 054f 0100     		.2byte	0x1
 12436 0551 53       		.byte	0x53
 12437 0552 8E010000 		.4byte	.LVL286
 12438 0556 98010000 		.4byte	.LVL288
 12439 055a 0100     		.2byte	0x1
 12440 055c 58       		.byte	0x58
 12441 055d 00000000 		.4byte	0
 12442 0561 00000000 		.4byte	0
 12443              	.LLST93:
 12444 0565 62000000 		.4byte	.LVL257
 12445 0569 7A000000 		.4byte	.LVL261
 12446 056d 0200     		.2byte	0x2
 12447 056f 30       		.byte	0x30
 12448 0570 9F       		.byte	0x9f
 12449 0571 7A000000 		.4byte	.LVL261
 12450 0575 92000000 		.4byte	.LVL266
 12451 0579 0300     		.2byte	0x3
 12452 057b 91       		.byte	0x91
 12453 057c B87F     		.sleb128 -72
 12454 057e 96000000 		.4byte	.LVL267
 12455 0582 E2000000 		.4byte	.LVL270
 12456 0586 0300     		.2byte	0x3
 12457 0588 91       		.byte	0x91
 12458 0589 B87F     		.sleb128 -72
 12459 058b 24010000 		.4byte	.LVL276
 12460 058f 3E010000 		.4byte	.LVL279
 12461 0593 0200     		.2byte	0x2
 12462 0595 30       		.byte	0x30
 12463 0596 9F       		.byte	0x9f
 12464 0597 3E010000 		.4byte	.LVL279
 12465 059b 46010000 		.4byte	.LVL281
 12466 059f 0300     		.2byte	0x3
 12467 05a1 91       		.byte	0x91
 12468 05a2 B87F     		.sleb128 -72
 12469 05a4 50010000 		.4byte	.LVL282
 12470 05a8 98010000 		.4byte	.LVL288
 12471 05ac 0300     		.2byte	0x3
 12472 05ae 91       		.byte	0x91
ARM GAS  C:\Users\EBANO_~1\AppData\Local\Temp\ccKJ5gfE.s 			page 247


 12473 05af B87F     		.sleb128 -72
 12474 05b1 00000000 		.4byte	0
 12475 05b5 00000000 		.4byte	0
 12476              	.LLST94:
 12477 05b9 62000000 		.4byte	.LVL257
 12478 05bd E2000000 		.4byte	.LVL270
 12479 05c1 0200     		.2byte	0x2
 12480 05c3 30       		.byte	0x30
 12481 05c4 9F       		.byte	0x9f
 12482 05c5 24010000 		.4byte	.LVL276
 12483 05c9 98010000 		.4byte	.LVL288
 12484 05cd 0200     		.2byte	0x2
 12485 05cf 30       		.byte	0x30
 12486 05d0 9F       		.byte	0x9f
 12487 05d1 00000000 		.4byte	0
 12488 05d5 00000000 		.4byte	0
 12489              	.LLST96:
 12490 05d9 62000000 		.4byte	.LVL257
 12491 05dd 7A000000 		.4byte	.LVL261
 12492 05e1 0200     		.2byte	0x2
 12493 05e3 30       		.byte	0x30
 12494 05e4 9F       		.byte	0x9f
 12495 05e5 7A000000 		.4byte	.LVL261
 12496 05e9 8A000000 		.4byte	.LVL264
 12497 05ed 0100     		.2byte	0x1
 12498 05ef 59       		.byte	0x59
 12499 05f0 8A000000 		.4byte	.LVL264
 12500 05f4 8C000000 		.4byte	.LVL265
 12501 05f8 0300     		.2byte	0x3
 12502 05fa 74       		.byte	0x74
 12503 05fb 01       		.sleb128 1
 12504 05fc 9F       		.byte	0x9f
 12505 05fd 8C000000 		.4byte	.LVL265
 12506 0601 92000000 		.4byte	.LVL266
 12507 0605 0300     		.2byte	0x3
 12508 0607 79       		.byte	0x79
 12509 0608 01       		.sleb128 1
 12510 0609 9F       		.byte	0x9f
 12511 060a 96000000 		.4byte	.LVL267
 12512 060e DC000000 		.4byte	.LVL269
 12513 0612 0100     		.2byte	0x1
 12514 0614 59       		.byte	0x59
 12515 0615 24010000 		.4byte	.LVL276
 12516 0619 3E010000 		.4byte	.LVL279
 12517 061d 0200     		.2byte	0x2
 12518 061f 30       		.byte	0x30
 12519 0620 9F       		.byte	0x9f
 12520 0621 3E010000 		.4byte	.LVL279
 12521 0625 40010000 		.4byte	.LVL280
 12522 0629 0300     		.2byte	0x3
 12523 062b 74       		.byte	0x74
 12524 062c 01       		.sleb128 1
 12525 062d 9F       		.byte	0x9f
 12526 062e 40010000 		.4byte	.LVL280
 12527 0632 46010000 		.4byte	.LVL281
 12528 0636 0300     		.2byte	0x3
 12529 0638 75       		.byte	0x75
ARM GAS  C:\Users\EBANO_~1\AppData\Local\Temp\ccKJ5gfE.s 			page 248


 12530 0639 01       		.sleb128 1
 12531 063a 9F       		.byte	0x9f
 12532 063b 50010000 		.4byte	.LVL282
 12533 063f 98010000 		.4byte	.LVL288
 12534 0643 0100     		.2byte	0x1
 12535 0645 55       		.byte	0x55
 12536 0646 00000000 		.4byte	0
 12537 064a 00000000 		.4byte	0
 12538              	.LLST75:
 12539 064e 00000000 		.4byte	.LFB60
 12540 0652 02000000 		.4byte	.LCFI29
 12541 0656 0200     		.2byte	0x2
 12542 0658 7D       		.byte	0x7d
 12543 0659 00       		.sleb128 0
 12544 065a 02000000 		.4byte	.LCFI29
 12545 065e 06000000 		.4byte	.LCFI30
 12546 0662 0200     		.2byte	0x2
 12547 0664 7D       		.byte	0x7d
 12548 0665 04       		.sleb128 4
 12549 0666 06000000 		.4byte	.LCFI30
 12550 066a 34000000 		.4byte	.LFE60
 12551 066e 0200     		.2byte	0x2
 12552 0670 7D       		.byte	0x7d
 12553 0671 20       		.sleb128 32
 12554 0672 00000000 		.4byte	0
 12555 0676 00000000 		.4byte	0
 12556              	.LLST76:
 12557 067a 00000000 		.4byte	.LVL245
 12558 067e 26000000 		.4byte	.LVL246
 12559 0682 0100     		.2byte	0x1
 12560 0684 50       		.byte	0x50
 12561 0685 26000000 		.4byte	.LVL246
 12562 0689 34000000 		.4byte	.LFE60
 12563 068d 0400     		.2byte	0x4
 12564 068f F3       		.byte	0xf3
 12565 0690 01       		.uleb128 0x1
 12566 0691 50       		.byte	0x50
 12567 0692 9F       		.byte	0x9f
 12568 0693 00000000 		.4byte	0
 12569 0697 00000000 		.4byte	0
 12570              	.LLST71:
 12571 069b 00000000 		.4byte	.LFB58
 12572 069f 02000000 		.4byte	.LCFI27
 12573 06a3 0200     		.2byte	0x2
 12574 06a5 7D       		.byte	0x7d
 12575 06a6 00       		.sleb128 0
 12576 06a7 02000000 		.4byte	.LCFI27
 12577 06ab 0A000000 		.4byte	.LCFI28
 12578 06af 0200     		.2byte	0x2
 12579 06b1 7D       		.byte	0x7d
 12580 06b2 0C       		.sleb128 12
 12581 06b3 0A000000 		.4byte	.LCFI28
 12582 06b7 70000000 		.4byte	.LFE58
 12583 06bb 0200     		.2byte	0x2
 12584 06bd 7D       		.byte	0x7d
 12585 06be 18       		.sleb128 24
 12586 06bf 00000000 		.4byte	0
ARM GAS  C:\Users\EBANO_~1\AppData\Local\Temp\ccKJ5gfE.s 			page 249


 12587 06c3 00000000 		.4byte	0
 12588              	.LLST72:
 12589 06c7 00000000 		.4byte	.LVL234
 12590 06cb 0E000000 		.4byte	.LVL236
 12591 06cf 0100     		.2byte	0x1
 12592 06d1 50       		.byte	0x50
 12593 06d2 0E000000 		.4byte	.LVL236
 12594 06d6 38000000 		.4byte	.LVL241
 12595 06da 0100     		.2byte	0x1
 12596 06dc 55       		.byte	0x55
 12597 06dd 38000000 		.4byte	.LVL241
 12598 06e1 3A000000 		.4byte	.LVL242
 12599 06e5 0400     		.2byte	0x4
 12600 06e7 F3       		.byte	0xf3
 12601 06e8 01       		.uleb128 0x1
 12602 06e9 50       		.byte	0x50
 12603 06ea 9F       		.byte	0x9f
 12604 06eb 3A000000 		.4byte	.LVL242
 12605 06ef 70000000 		.4byte	.LFE58
 12606 06f3 0100     		.2byte	0x1
 12607 06f5 55       		.byte	0x55
 12608 06f6 00000000 		.4byte	0
 12609 06fa 00000000 		.4byte	0
 12610              	.LLST73:
 12611 06fe 00000000 		.4byte	.LVL234
 12612 0702 2E000000 		.4byte	.LVL239
 12613 0706 0200     		.2byte	0x2
 12614 0708 33       		.byte	0x33
 12615 0709 9F       		.byte	0x9f
 12616 070a 2E000000 		.4byte	.LVL239
 12617 070e 36000000 		.4byte	.LVL240
 12618 0712 0200     		.2byte	0x2
 12619 0714 32       		.byte	0x32
 12620 0715 9F       		.byte	0x9f
 12621 0716 3A000000 		.4byte	.LVL242
 12622 071a 4A000000 		.4byte	.LVL243
 12623 071e 0200     		.2byte	0x2
 12624 0720 33       		.byte	0x33
 12625 0721 9F       		.byte	0x9f
 12626 0722 4A000000 		.4byte	.LVL243
 12627 0726 70000000 		.4byte	.LFE58
 12628 072a 0200     		.2byte	0x2
 12629 072c 32       		.byte	0x32
 12630 072d 9F       		.byte	0x9f
 12631 072e 00000000 		.4byte	0
 12632 0732 00000000 		.4byte	0
 12633              	.LLST74:
 12634 0736 06000000 		.4byte	.LVL235
 12635 073a 28000000 		.4byte	.LVL238
 12636 073e 0100     		.2byte	0x1
 12637 0740 54       		.byte	0x54
 12638 0741 28000000 		.4byte	.LVL238
 12639 0745 2E000000 		.4byte	.LVL239
 12640 0749 0700     		.2byte	0x7
 12641 074b 74       		.byte	0x74
 12642 074c E0F3D8F3 		.sleb128 779500000
 12642      02
ARM GAS  C:\Users\EBANO_~1\AppData\Local\Temp\ccKJ5gfE.s 			page 250


 12643 0751 9F       		.byte	0x9f
 12644 0752 3A000000 		.4byte	.LVL242
 12645 0756 4A000000 		.4byte	.LVL243
 12646 075a 0700     		.2byte	0x7
 12647 075c 74       		.byte	0x74
 12648 075d E0F3D8F3 		.sleb128 779500000
 12648      02
 12649 0762 9F       		.byte	0x9f
 12650 0763 4A000000 		.4byte	.LVL243
 12651 0767 70000000 		.4byte	.LFE58
 12652 076b 0100     		.2byte	0x1
 12653 076d 54       		.byte	0x54
 12654 076e 00000000 		.4byte	0
 12655 0772 00000000 		.4byte	0
 12656              	.LLST70:
 12657 0776 00000000 		.4byte	.LVL232
 12658 077a 02000000 		.4byte	.LVL233
 12659 077e 0100     		.2byte	0x1
 12660 0780 50       		.byte	0x50
 12661 0781 02000000 		.4byte	.LVL233
 12662 0785 06000000 		.4byte	.LFE57
 12663 0789 0400     		.2byte	0x4
 12664 078b F3       		.byte	0xf3
 12665 078c 01       		.uleb128 0x1
 12666 078d 50       		.byte	0x50
 12667 078e 9F       		.byte	0x9f
 12668 078f 00000000 		.4byte	0
 12669 0793 00000000 		.4byte	0
 12670              	.LLST62:
 12671 0797 00000000 		.4byte	.LFB56
 12672 079b 02000000 		.4byte	.LCFI24
 12673 079f 0200     		.2byte	0x2
 12674 07a1 7D       		.byte	0x7d
 12675 07a2 00       		.sleb128 0
 12676 07a3 02000000 		.4byte	.LCFI24
 12677 07a7 06000000 		.4byte	.LCFI25
 12678 07ab 0200     		.2byte	0x2
 12679 07ad 7D       		.byte	0x7d
 12680 07ae 14       		.sleb128 20
 12681 07af 06000000 		.4byte	.LCFI25
 12682 07b3 0A000000 		.4byte	.LCFI26
 12683 07b7 0200     		.2byte	0x2
 12684 07b9 7D       		.byte	0x7d
 12685 07ba 18       		.sleb128 24
 12686 07bb 0A000000 		.4byte	.LCFI26
 12687 07bf 08010000 		.4byte	.LFE56
 12688 07c3 0200     		.2byte	0x2
 12689 07c5 7D       		.byte	0x7d
 12690 07c6 20       		.sleb128 32
 12691 07c7 00000000 		.4byte	0
 12692 07cb 00000000 		.4byte	0
 12693              	.LLST63:
 12694 07cf 00000000 		.4byte	.LVL209
 12695 07d3 16000000 		.4byte	.LVL211
 12696 07d7 0100     		.2byte	0x1
 12697 07d9 50       		.byte	0x50
 12698 07da 16000000 		.4byte	.LVL211
ARM GAS  C:\Users\EBANO_~1\AppData\Local\Temp\ccKJ5gfE.s 			page 251


 12699 07de 20000000 		.4byte	.LVL212
 12700 07e2 0400     		.2byte	0x4
 12701 07e4 F3       		.byte	0xf3
 12702 07e5 01       		.uleb128 0x1
 12703 07e6 50       		.byte	0x50
 12704 07e7 9F       		.byte	0x9f
 12705 07e8 20000000 		.4byte	.LVL212
 12706 07ec 28000000 		.4byte	.LVL213
 12707 07f0 0100     		.2byte	0x1
 12708 07f2 50       		.byte	0x50
 12709 07f3 28000000 		.4byte	.LVL213
 12710 07f7 AC000000 		.4byte	.LVL223
 12711 07fb 0400     		.2byte	0x4
 12712 07fd F3       		.byte	0xf3
 12713 07fe 01       		.uleb128 0x1
 12714 07ff 50       		.byte	0x50
 12715 0800 9F       		.byte	0x9f
 12716 0801 AC000000 		.4byte	.LVL223
 12717 0805 AE000000 		.4byte	.LVL224
 12718 0809 0100     		.2byte	0x1
 12719 080b 50       		.byte	0x50
 12720 080c AE000000 		.4byte	.LVL224
 12721 0810 08010000 		.4byte	.LFE56
 12722 0814 0400     		.2byte	0x4
 12723 0816 F3       		.byte	0xf3
 12724 0817 01       		.uleb128 0x1
 12725 0818 50       		.byte	0x50
 12726 0819 9F       		.byte	0x9f
 12727 081a 00000000 		.4byte	0
 12728 081e 00000000 		.4byte	0
 12729              	.LLST64:
 12730 0822 12000000 		.4byte	.LVL210
 12731 0826 16000000 		.4byte	.LVL211
 12732 082a 0600     		.2byte	0x6
 12733 082c F2       		.byte	0xf2
 12734 082d 3A240000 		.4byte	.Ldebug_info0+9274
 12735 0831 00       		.sleb128 0
 12736 0832 AC000000 		.4byte	.LVL223
 12737 0836 CC000000 		.4byte	.LVL227
 12738 083a 0600     		.2byte	0x6
 12739 083c F2       		.byte	0xf2
 12740 083d 3A240000 		.4byte	.Ldebug_info0+9274
 12741 0841 00       		.sleb128 0
 12742 0842 00000000 		.4byte	0
 12743 0846 00000000 		.4byte	0
 12744              	.LLST65:
 12745 084a 12000000 		.4byte	.LVL210
 12746 084e 16000000 		.4byte	.LVL211
 12747 0852 0200     		.2byte	0x2
 12748 0854 70       		.byte	0x70
 12749 0855 04       		.sleb128 4
 12750 0856 AC000000 		.4byte	.LVL223
 12751 085a AE000000 		.4byte	.LVL224
 12752 085e 0200     		.2byte	0x2
 12753 0860 70       		.byte	0x70
 12754 0861 04       		.sleb128 4
 12755 0862 AE000000 		.4byte	.LVL224
ARM GAS  C:\Users\EBANO_~1\AppData\Local\Temp\ccKJ5gfE.s 			page 252


 12756 0866 BD000000 		.4byte	.LVL225-1
 12757 086a 0500     		.2byte	0x5
 12758 086c F3       		.byte	0xf3
 12759 086d 01       		.uleb128 0x1
 12760 086e 50       		.byte	0x50
 12761 086f 23       		.byte	0x23
 12762 0870 04       		.uleb128 0x4
 12763 0871 00000000 		.4byte	0
 12764 0875 00000000 		.4byte	0
 12765              	.LLST66:
 12766 0879 20000000 		.4byte	.LVL212
 12767 087d AA000000 		.4byte	.LVL222
 12768 0881 0600     		.2byte	0x6
 12769 0883 F2       		.byte	0xf2
 12770 0884 2E240000 		.4byte	.Ldebug_info0+9262
 12771 0888 00       		.sleb128 0
 12772 0889 D4000000 		.4byte	.LVL228
 12773 088d 08010000 		.4byte	.LFE56
 12774 0891 0600     		.2byte	0x6
 12775 0893 F2       		.byte	0xf2
 12776 0894 2E240000 		.4byte	.Ldebug_info0+9262
 12777 0898 00       		.sleb128 0
 12778 0899 00000000 		.4byte	0
 12779 089d 00000000 		.4byte	0
 12780              	.LLST67:
 12781 08a1 20000000 		.4byte	.LVL212
 12782 08a5 36000000 		.4byte	.LVL215
 12783 08a9 0200     		.2byte	0x2
 12784 08ab 30       		.byte	0x30
 12785 08ac 9F       		.byte	0x9f
 12786 08ad 36000000 		.4byte	.LVL215
 12787 08b1 4E000000 		.4byte	.LVL217
 12788 08b5 0700     		.2byte	0x7
 12789 08b7 76       		.byte	0x76
 12790 08b8 00       		.sleb128 0
 12791 08b9 48       		.byte	0x48
 12792 08ba 24       		.byte	0x24
 12793 08bb 30       		.byte	0x30
 12794 08bc 29       		.byte	0x29
 12795 08bd 9F       		.byte	0x9f
 12796 08be 50000000 		.4byte	.LVL218
 12797 08c2 AA000000 		.4byte	.LVL222
 12798 08c6 0100     		.2byte	0x1
 12799 08c8 57       		.byte	0x57
 12800 08c9 D4000000 		.4byte	.LVL228
 12801 08cd DC000000 		.4byte	.LVL229
 12802 08d1 0100     		.2byte	0x1
 12803 08d3 57       		.byte	0x57
 12804 08d4 DC000000 		.4byte	.LVL229
 12805 08d8 F2000000 		.4byte	.LVL231
 12806 08dc 0200     		.2byte	0x2
 12807 08de 31       		.byte	0x31
 12808 08df 9F       		.byte	0x9f
 12809 08e0 00000000 		.4byte	0
 12810 08e4 00000000 		.4byte	0
 12811              	.LLST68:
 12812 08e8 20000000 		.4byte	.LVL212
ARM GAS  C:\Users\EBANO_~1\AppData\Local\Temp\ccKJ5gfE.s 			page 253


 12813 08ec AA000000 		.4byte	.LVL222
 12814 08f0 0200     		.2byte	0x2
 12815 08f2 30       		.byte	0x30
 12816 08f3 9F       		.byte	0x9f
 12817 08f4 D4000000 		.4byte	.LVL228
 12818 08f8 DC000000 		.4byte	.LVL229
 12819 08fc 0200     		.2byte	0x2
 12820 08fe 31       		.byte	0x31
 12821 08ff 9F       		.byte	0x9f
 12822 0900 DC000000 		.4byte	.LVL229
 12823 0904 08010000 		.4byte	.LFE56
 12824 0908 0200     		.2byte	0x2
 12825 090a 30       		.byte	0x30
 12826 090b 9F       		.byte	0x9f
 12827 090c 00000000 		.4byte	0
 12828 0910 00000000 		.4byte	0
 12829              	.LLST69:
 12830 0914 20000000 		.4byte	.LVL212
 12831 0918 28000000 		.4byte	.LVL213
 12832 091c 0200     		.2byte	0x2
 12833 091e 70       		.byte	0x70
 12834 091f 04       		.sleb128 4
 12835 0920 28000000 		.4byte	.LVL213
 12836 0924 33000000 		.4byte	.LVL214-1
 12837 0928 0500     		.2byte	0x5
 12838 092a F3       		.byte	0xf3
 12839 092b 01       		.uleb128 0x1
 12840 092c 50       		.byte	0x50
 12841 092d 23       		.byte	0x23
 12842 092e 04       		.uleb128 0x4
 12843 092f 00000000 		.4byte	0
 12844 0933 00000000 		.4byte	0
 12845              	.LLST58:
 12846 0937 00000000 		.4byte	.LFB55
 12847 093b 02000000 		.4byte	.LCFI22
 12848 093f 0200     		.2byte	0x2
 12849 0941 7D       		.byte	0x7d
 12850 0942 00       		.sleb128 0
 12851 0943 02000000 		.4byte	.LCFI22
 12852 0947 0A000000 		.4byte	.LCFI23
 12853 094b 0200     		.2byte	0x2
 12854 094d 7D       		.byte	0x7d
 12855 094e 10       		.sleb128 16
 12856 094f 0A000000 		.4byte	.LCFI23
 12857 0953 64000000 		.4byte	.LFE55
 12858 0957 0200     		.2byte	0x2
 12859 0959 7D       		.byte	0x7d
 12860 095a 18       		.sleb128 24
 12861 095b 00000000 		.4byte	0
 12862 095f 00000000 		.4byte	0
 12863              	.LLST59:
 12864 0963 00000000 		.4byte	.LVL194
 12865 0967 0E000000 		.4byte	.LVL196
 12866 096b 0100     		.2byte	0x1
 12867 096d 50       		.byte	0x50
 12868 096e 0E000000 		.4byte	.LVL196
 12869 0972 50000000 		.4byte	.LVL205
ARM GAS  C:\Users\EBANO_~1\AppData\Local\Temp\ccKJ5gfE.s 			page 254


 12870 0976 0100     		.2byte	0x1
 12871 0978 54       		.byte	0x54
 12872 0979 50000000 		.4byte	.LVL205
 12873 097d 52000000 		.4byte	.LVL207
 12874 0981 0400     		.2byte	0x4
 12875 0983 F3       		.byte	0xf3
 12876 0984 01       		.uleb128 0x1
 12877 0985 50       		.byte	0x50
 12878 0986 9F       		.byte	0x9f
 12879 0987 52000000 		.4byte	.LVL207
 12880 098b 64000000 		.4byte	.LFE55
 12881 098f 0100     		.2byte	0x1
 12882 0991 54       		.byte	0x54
 12883 0992 00000000 		.4byte	0
 12884 0996 00000000 		.4byte	0
 12885              	.LLST60:
 12886 099a 00000000 		.4byte	.LVL194
 12887 099e 26000000 		.4byte	.LVL200
 12888 09a2 0200     		.2byte	0x2
 12889 09a4 37       		.byte	0x37
 12890 09a5 9F       		.byte	0x9f
 12891 09a6 26000000 		.4byte	.LVL200
 12892 09aa 38000000 		.4byte	.LVL202
 12893 09ae 0100     		.2byte	0x1
 12894 09b0 56       		.byte	0x56
 12895 09b1 38000000 		.4byte	.LVL202
 12896 09b5 50000000 		.4byte	.LVL206
 12897 09b9 0100     		.2byte	0x1
 12898 09bb 55       		.byte	0x55
 12899 09bc 52000000 		.4byte	.LVL207
 12900 09c0 64000000 		.4byte	.LFE55
 12901 09c4 0200     		.2byte	0x2
 12902 09c6 37       		.byte	0x37
 12903 09c7 9F       		.byte	0x9f
 12904 09c8 00000000 		.4byte	0
 12905 09cc 00000000 		.4byte	0
 12906              	.LLST61:
 12907 09d0 06000000 		.4byte	.LVL195
 12908 09d4 1E000000 		.4byte	.LVL198
 12909 09d8 0100     		.2byte	0x1
 12910 09da 55       		.byte	0x55
 12911 09db 1E000000 		.4byte	.LVL198
 12912 09df 22000000 		.4byte	.LVL199
 12913 09e3 0700     		.2byte	0x7
 12914 09e5 75       		.byte	0x75
 12915 09e6 E0F3D8F3 		.sleb128 779500000
 12915      02
 12916 09eb 9F       		.byte	0x9f
 12917 09ec 52000000 		.4byte	.LVL207
 12918 09f0 54000000 		.4byte	.LVL208
 12919 09f4 0700     		.2byte	0x7
 12920 09f6 75       		.byte	0x75
 12921 09f7 E0F3D8F3 		.sleb128 779500000
 12921      02
 12922 09fc 9F       		.byte	0x9f
 12923 09fd 00000000 		.4byte	0
 12924 0a01 00000000 		.4byte	0
ARM GAS  C:\Users\EBANO_~1\AppData\Local\Temp\ccKJ5gfE.s 			page 255


 12925              	.LLST49:
 12926 0a05 00000000 		.4byte	.LFB54
 12927 0a09 02000000 		.4byte	.LCFI19
 12928 0a0d 0200     		.2byte	0x2
 12929 0a0f 7D       		.byte	0x7d
 12930 0a10 00       		.sleb128 0
 12931 0a11 02000000 		.4byte	.LCFI19
 12932 0a15 0C000000 		.4byte	.LCFI20
 12933 0a19 0200     		.2byte	0x2
 12934 0a1b 7D       		.byte	0x7d
 12935 0a1c 14       		.sleb128 20
 12936 0a1d 0C000000 		.4byte	.LCFI20
 12937 0a21 0E000000 		.4byte	.LCFI21
 12938 0a25 0200     		.2byte	0x2
 12939 0a27 7D       		.byte	0x7d
 12940 0a28 24       		.sleb128 36
 12941 0a29 0E000000 		.4byte	.LCFI21
 12942 0a2d FC020000 		.4byte	.LFE54
 12943 0a31 0300     		.2byte	0x3
 12944 0a33 7D       		.byte	0x7d
 12945 0a34 E000     		.sleb128 96
 12946 0a36 00000000 		.4byte	0
 12947 0a3a 00000000 		.4byte	0
 12948              	.LLST50:
 12949 0a3e 00000000 		.4byte	.LVL137
 12950 0a42 28000000 		.4byte	.LVL140
 12951 0a46 0100     		.2byte	0x1
 12952 0a48 50       		.byte	0x50
 12953 0a49 28000000 		.4byte	.LVL140
 12954 0a4d A8010000 		.4byte	.LVL164
 12955 0a51 0100     		.2byte	0x1
 12956 0a53 56       		.byte	0x56
 12957 0a54 A8010000 		.4byte	.LVL164
 12958 0a58 D4010000 		.4byte	.LVL169
 12959 0a5c 0400     		.2byte	0x4
 12960 0a5e F3       		.byte	0xf3
 12961 0a5f 01       		.uleb128 0x1
 12962 0a60 50       		.byte	0x50
 12963 0a61 9F       		.byte	0x9f
 12964 0a62 D4010000 		.4byte	.LVL169
 12965 0a66 D2020000 		.4byte	.LVL189
 12966 0a6a 0100     		.2byte	0x1
 12967 0a6c 56       		.byte	0x56
 12968 0a6d D2020000 		.4byte	.LVL189
 12969 0a71 E8020000 		.4byte	.LVL192
 12970 0a75 0400     		.2byte	0x4
 12971 0a77 F3       		.byte	0xf3
 12972 0a78 01       		.uleb128 0x1
 12973 0a79 50       		.byte	0x50
 12974 0a7a 9F       		.byte	0x9f
 12975 0a7b E8020000 		.4byte	.LVL192
 12976 0a7f FC020000 		.4byte	.LFE54
 12977 0a83 0100     		.2byte	0x1
 12978 0a85 56       		.byte	0x56
 12979 0a86 00000000 		.4byte	0
 12980 0a8a 00000000 		.4byte	0
 12981              	.LLST51:
ARM GAS  C:\Users\EBANO_~1\AppData\Local\Temp\ccKJ5gfE.s 			page 256


 12982 0a8e 00000000 		.4byte	.LVL137
 12983 0a92 28000000 		.4byte	.LVL140
 12984 0a96 0100     		.2byte	0x1
 12985 0a98 51       		.byte	0x51
 12986 0a99 28000000 		.4byte	.LVL140
 12987 0a9d C8010000 		.4byte	.LVL168
 12988 0aa1 0100     		.2byte	0x1
 12989 0aa3 5B       		.byte	0x5b
 12990 0aa4 C8010000 		.4byte	.LVL168
 12991 0aa8 D4010000 		.4byte	.LVL169
 12992 0aac 0400     		.2byte	0x4
 12993 0aae F3       		.byte	0xf3
 12994 0aaf 01       		.uleb128 0x1
 12995 0ab0 51       		.byte	0x51
 12996 0ab1 9F       		.byte	0x9f
 12997 0ab2 D4010000 		.4byte	.LVL169
 12998 0ab6 FC020000 		.4byte	.LFE54
 12999 0aba 0100     		.2byte	0x1
 13000 0abc 5B       		.byte	0x5b
 13001 0abd 00000000 		.4byte	0
 13002 0ac1 00000000 		.4byte	0
 13003              	.LLST52:
 13004 0ac5 00000000 		.4byte	.LVL137
 13005 0ac9 16000000 		.4byte	.LVL139
 13006 0acd 0100     		.2byte	0x1
 13007 0acf 52       		.byte	0x52
 13008 0ad0 16000000 		.4byte	.LVL139
 13009 0ad4 C8010000 		.4byte	.LVL167
 13010 0ad8 0100     		.2byte	0x1
 13011 0ada 5A       		.byte	0x5a
 13012 0adb C8010000 		.4byte	.LVL167
 13013 0adf D4010000 		.4byte	.LVL169
 13014 0ae3 0400     		.2byte	0x4
 13015 0ae5 F3       		.byte	0xf3
 13016 0ae6 01       		.uleb128 0x1
 13017 0ae7 52       		.byte	0x52
 13018 0ae8 9F       		.byte	0x9f
 13019 0ae9 D4010000 		.4byte	.LVL169
 13020 0aed FC020000 		.4byte	.LFE54
 13021 0af1 0100     		.2byte	0x1
 13022 0af3 5A       		.byte	0x5a
 13023 0af4 00000000 		.4byte	0
 13024 0af8 00000000 		.4byte	0
 13025              	.LLST53:
 13026 0afc 00000000 		.4byte	.LVL137
 13027 0b00 12000000 		.4byte	.LVL138
 13028 0b04 0100     		.2byte	0x1
 13029 0b06 53       		.byte	0x53
 13030 0b07 12000000 		.4byte	.LVL138
 13031 0b0b FC020000 		.4byte	.LFE54
 13032 0b0f 0300     		.2byte	0x3
 13033 0b11 91       		.byte	0x91
 13034 0b12 A47F     		.sleb128 -92
 13035 0b14 00000000 		.4byte	0
 13036 0b18 00000000 		.4byte	0
 13037              	.LLST54:
 13038 0b1c 00000000 		.4byte	.LVL137
ARM GAS  C:\Users\EBANO_~1\AppData\Local\Temp\ccKJ5gfE.s 			page 257


 13039 0b20 28000000 		.4byte	.LVL140
 13040 0b24 0200     		.2byte	0x2
 13041 0b26 37       		.byte	0x37
 13042 0b27 9F       		.byte	0x9f
 13043 0b28 28000000 		.4byte	.LVL140
 13044 0b2c 4C000000 		.4byte	.LVL143
 13045 0b30 0100     		.2byte	0x1
 13046 0b32 59       		.byte	0x59
 13047 0b33 4C000000 		.4byte	.LVL143
 13048 0b37 6E000000 		.4byte	.LVL146
 13049 0b3b 0200     		.2byte	0x2
 13050 0b3d 37       		.byte	0x37
 13051 0b3e 9F       		.byte	0x9f
 13052 0b3f 6E000000 		.4byte	.LVL146
 13053 0b43 A8010000 		.4byte	.LVL164
 13054 0b47 0100     		.2byte	0x1
 13055 0b49 59       		.byte	0x59
 13056 0b4a A8010000 		.4byte	.LVL164
 13057 0b4e AE010000 		.4byte	.LVL165
 13058 0b52 0100     		.2byte	0x1
 13059 0b54 50       		.byte	0x50
 13060 0b55 D4010000 		.4byte	.LVL169
 13061 0b59 D2020000 		.4byte	.LVL189
 13062 0b5d 0200     		.2byte	0x2
 13063 0b5f 37       		.byte	0x37
 13064 0b60 9F       		.byte	0x9f
 13065 0b61 D2020000 		.4byte	.LVL189
 13066 0b65 D4020000 		.4byte	.LVL190
 13067 0b69 0100     		.2byte	0x1
 13068 0b6b 50       		.byte	0x50
 13069 0b6c E8020000 		.4byte	.LVL192
 13070 0b70 FC020000 		.4byte	.LFE54
 13071 0b74 0200     		.2byte	0x2
 13072 0b76 37       		.byte	0x37
 13073 0b77 9F       		.byte	0x9f
 13074 0b78 00000000 		.4byte	0
 13075 0b7c 00000000 		.4byte	0
 13076              	.LLST55:
 13077 0b80 00000000 		.4byte	.LVL137
 13078 0b84 28000000 		.4byte	.LVL140
 13079 0b88 0200     		.2byte	0x2
 13080 0b8a 30       		.byte	0x30
 13081 0b8b 9F       		.byte	0x9f
 13082 0b8c 3A000000 		.4byte	.LVL141
 13083 0b90 4E000000 		.4byte	.LVL144
 13084 0b94 0100     		.2byte	0x1
 13085 0b96 50       		.byte	0x50
 13086 0b97 00000000 		.4byte	0
 13087 0b9b 00000000 		.4byte	0
 13088              	.LLST56:
 13089 0b9f 00000000 		.4byte	.LVL137
 13090 0ba3 28000000 		.4byte	.LVL140
 13091 0ba7 0200     		.2byte	0x2
 13092 0ba9 30       		.byte	0x30
 13093 0baa 9F       		.byte	0x9f
 13094 0bab 28000000 		.4byte	.LVL140
 13095 0baf 4A000000 		.4byte	.LVL142
ARM GAS  C:\Users\EBANO_~1\AppData\Local\Temp\ccKJ5gfE.s 			page 258


 13096 0bb3 0100     		.2byte	0x1
 13097 0bb5 54       		.byte	0x54
 13098 0bb6 4C000000 		.4byte	.LVL143
 13099 0bba C8010000 		.4byte	.LVL166
 13100 0bbe 0100     		.2byte	0x1
 13101 0bc0 54       		.byte	0x54
 13102 0bc1 C8010000 		.4byte	.LVL166
 13103 0bc5 D4010000 		.4byte	.LVL169
 13104 0bc9 0200     		.2byte	0x2
 13105 0bcb 73       		.byte	0x73
 13106 0bcc 00       		.sleb128 0
 13107 0bcd D4010000 		.4byte	.LVL169
 13108 0bd1 FC020000 		.4byte	.LFE54
 13109 0bd5 0100     		.2byte	0x1
 13110 0bd7 54       		.byte	0x54
 13111 0bd8 00000000 		.4byte	0
 13112 0bdc 00000000 		.4byte	0
 13113              	.LLST57:
 13114 0be0 5C000000 		.4byte	.LVL145
 13115 0be4 6E000000 		.4byte	.LVL146
 13116 0be8 0200     		.2byte	0x2
 13117 0bea 30       		.byte	0x30
 13118 0beb 9F       		.byte	0x9f
 13119 0bec 6E000000 		.4byte	.LVL146
 13120 0bf0 7C000000 		.4byte	.LVL147
 13121 0bf4 0200     		.2byte	0x2
 13122 0bf6 31       		.byte	0x31
 13123 0bf7 9F       		.byte	0x9f
 13124 0bf8 7C000000 		.4byte	.LVL147
 13125 0bfc 8A000000 		.4byte	.LVL148
 13126 0c00 0200     		.2byte	0x2
 13127 0c02 32       		.byte	0x32
 13128 0c03 9F       		.byte	0x9f
 13129 0c04 8A000000 		.4byte	.LVL148
 13130 0c08 98000000 		.4byte	.LVL149
 13131 0c0c 0200     		.2byte	0x2
 13132 0c0e 33       		.byte	0x33
 13133 0c0f 9F       		.byte	0x9f
 13134 0c10 98000000 		.4byte	.LVL149
 13135 0c14 A6000000 		.4byte	.LVL150
 13136 0c18 0200     		.2byte	0x2
 13137 0c1a 34       		.byte	0x34
 13138 0c1b 9F       		.byte	0x9f
 13139 0c1c A6000000 		.4byte	.LVL150
 13140 0c20 B4000000 		.4byte	.LVL151
 13141 0c24 0200     		.2byte	0x2
 13142 0c26 35       		.byte	0x35
 13143 0c27 9F       		.byte	0x9f
 13144 0c28 B4000000 		.4byte	.LVL151
 13145 0c2c C2000000 		.4byte	.LVL152
 13146 0c30 0200     		.2byte	0x2
 13147 0c32 36       		.byte	0x36
 13148 0c33 9F       		.byte	0x9f
 13149 0c34 C2000000 		.4byte	.LVL152
 13150 0c38 D0000000 		.4byte	.LVL153
 13151 0c3c 0200     		.2byte	0x2
 13152 0c3e 37       		.byte	0x37
ARM GAS  C:\Users\EBANO_~1\AppData\Local\Temp\ccKJ5gfE.s 			page 259


 13153 0c3f 9F       		.byte	0x9f
 13154 0c40 D0000000 		.4byte	.LVL153
 13155 0c44 DE000000 		.4byte	.LVL154
 13156 0c48 0200     		.2byte	0x2
 13157 0c4a 38       		.byte	0x38
 13158 0c4b 9F       		.byte	0x9f
 13159 0c4c DE000000 		.4byte	.LVL154
 13160 0c50 EC000000 		.4byte	.LVL155
 13161 0c54 0200     		.2byte	0x2
 13162 0c56 39       		.byte	0x39
 13163 0c57 9F       		.byte	0x9f
 13164 0c58 EC000000 		.4byte	.LVL155
 13165 0c5c FA000000 		.4byte	.LVL156
 13166 0c60 0200     		.2byte	0x2
 13167 0c62 3A       		.byte	0x3a
 13168 0c63 9F       		.byte	0x9f
 13169 0c64 FA000000 		.4byte	.LVL156
 13170 0c68 0A010000 		.4byte	.LVL157
 13171 0c6c 0200     		.2byte	0x2
 13172 0c6e 3B       		.byte	0x3b
 13173 0c6f 9F       		.byte	0x9f
 13174 0c70 0A010000 		.4byte	.LVL157
 13175 0c74 1A010000 		.4byte	.LVL158
 13176 0c78 0200     		.2byte	0x2
 13177 0c7a 3C       		.byte	0x3c
 13178 0c7b 9F       		.byte	0x9f
 13179 0c7c 1A010000 		.4byte	.LVL158
 13180 0c80 2A010000 		.4byte	.LVL159
 13181 0c84 0200     		.2byte	0x2
 13182 0c86 3D       		.byte	0x3d
 13183 0c87 9F       		.byte	0x9f
 13184 0c88 2A010000 		.4byte	.LVL159
 13185 0c8c 3A010000 		.4byte	.LVL160
 13186 0c90 0200     		.2byte	0x2
 13187 0c92 3E       		.byte	0x3e
 13188 0c93 9F       		.byte	0x9f
 13189 0c94 3A010000 		.4byte	.LVL160
 13190 0c98 58010000 		.4byte	.LVL162
 13191 0c9c 0200     		.2byte	0x2
 13192 0c9e 3F       		.byte	0x3f
 13193 0c9f 9F       		.byte	0x9f
 13194 0ca0 E6010000 		.4byte	.LVL170
 13195 0ca4 F4010000 		.4byte	.LVL171
 13196 0ca8 0200     		.2byte	0x2
 13197 0caa 30       		.byte	0x30
 13198 0cab 9F       		.byte	0x9f
 13199 0cac F4010000 		.4byte	.LVL171
 13200 0cb0 00020000 		.4byte	.LVL172
 13201 0cb4 0200     		.2byte	0x2
 13202 0cb6 31       		.byte	0x31
 13203 0cb7 9F       		.byte	0x9f
 13204 0cb8 00020000 		.4byte	.LVL172
 13205 0cbc 0C020000 		.4byte	.LVL173
 13206 0cc0 0200     		.2byte	0x2
 13207 0cc2 32       		.byte	0x32
 13208 0cc3 9F       		.byte	0x9f
 13209 0cc4 0C020000 		.4byte	.LVL173
ARM GAS  C:\Users\EBANO_~1\AppData\Local\Temp\ccKJ5gfE.s 			page 260


 13210 0cc8 18020000 		.4byte	.LVL174
 13211 0ccc 0200     		.2byte	0x2
 13212 0cce 33       		.byte	0x33
 13213 0ccf 9F       		.byte	0x9f
 13214 0cd0 18020000 		.4byte	.LVL174
 13215 0cd4 24020000 		.4byte	.LVL175
 13216 0cd8 0200     		.2byte	0x2
 13217 0cda 34       		.byte	0x34
 13218 0cdb 9F       		.byte	0x9f
 13219 0cdc 24020000 		.4byte	.LVL175
 13220 0ce0 30020000 		.4byte	.LVL176
 13221 0ce4 0200     		.2byte	0x2
 13222 0ce6 35       		.byte	0x35
 13223 0ce7 9F       		.byte	0x9f
 13224 0ce8 30020000 		.4byte	.LVL176
 13225 0cec 3C020000 		.4byte	.LVL177
 13226 0cf0 0200     		.2byte	0x2
 13227 0cf2 36       		.byte	0x36
 13228 0cf3 9F       		.byte	0x9f
 13229 0cf4 3C020000 		.4byte	.LVL177
 13230 0cf8 48020000 		.4byte	.LVL178
 13231 0cfc 0200     		.2byte	0x2
 13232 0cfe 37       		.byte	0x37
 13233 0cff 9F       		.byte	0x9f
 13234 0d00 48020000 		.4byte	.LVL178
 13235 0d04 56020000 		.4byte	.LVL179
 13236 0d08 0200     		.2byte	0x2
 13237 0d0a 38       		.byte	0x38
 13238 0d0b 9F       		.byte	0x9f
 13239 0d0c 56020000 		.4byte	.LVL179
 13240 0d10 64020000 		.4byte	.LVL180
 13241 0d14 0200     		.2byte	0x2
 13242 0d16 39       		.byte	0x39
 13243 0d17 9F       		.byte	0x9f
 13244 0d18 64020000 		.4byte	.LVL180
 13245 0d1c 72020000 		.4byte	.LVL181
 13246 0d20 0200     		.2byte	0x2
 13247 0d22 3A       		.byte	0x3a
 13248 0d23 9F       		.byte	0x9f
 13249 0d24 72020000 		.4byte	.LVL181
 13250 0d28 82020000 		.4byte	.LVL182
 13251 0d2c 0200     		.2byte	0x2
 13252 0d2e 3B       		.byte	0x3b
 13253 0d2f 9F       		.byte	0x9f
 13254 0d30 82020000 		.4byte	.LVL182
 13255 0d34 92020000 		.4byte	.LVL183
 13256 0d38 0200     		.2byte	0x2
 13257 0d3a 3C       		.byte	0x3c
 13258 0d3b 9F       		.byte	0x9f
 13259 0d3c 92020000 		.4byte	.LVL183
 13260 0d40 9A020000 		.4byte	.LVL184
 13261 0d44 0200     		.2byte	0x2
 13262 0d46 3D       		.byte	0x3d
 13263 0d47 9F       		.byte	0x9f
 13264 0d48 9A020000 		.4byte	.LVL184
 13265 0d4c A8020000 		.4byte	.LVL185
 13266 0d50 0200     		.2byte	0x2
ARM GAS  C:\Users\EBANO_~1\AppData\Local\Temp\ccKJ5gfE.s 			page 261


 13267 0d52 3E       		.byte	0x3e
 13268 0d53 9F       		.byte	0x9f
 13269 0d54 A8020000 		.4byte	.LVL185
 13270 0d58 B6020000 		.4byte	.LVL186
 13271 0d5c 0200     		.2byte	0x2
 13272 0d5e 3F       		.byte	0x3f
 13273 0d5f 9F       		.byte	0x9f
 13274 0d60 BE020000 		.4byte	.LVL187
 13275 0d64 C6020000 		.4byte	.LVL188
 13276 0d68 0200     		.2byte	0x2
 13277 0d6a 3F       		.byte	0x3f
 13278 0d6b 9F       		.byte	0x9f
 13279 0d6c C6020000 		.4byte	.LVL188
 13280 0d70 D2020000 		.4byte	.LVL189
 13281 0d74 0200     		.2byte	0x2
 13282 0d76 40       		.byte	0x40
 13283 0d77 9F       		.byte	0x9f
 13284 0d78 E8020000 		.4byte	.LVL192
 13285 0d7c EE020000 		.4byte	.LVL193
 13286 0d80 0200     		.2byte	0x2
 13287 0d82 3D       		.byte	0x3d
 13288 0d83 9F       		.byte	0x9f
 13289 0d84 EE020000 		.4byte	.LVL193
 13290 0d88 FC020000 		.4byte	.LFE54
 13291 0d8c 0200     		.2byte	0x2
 13292 0d8e 3E       		.byte	0x3e
 13293 0d8f 9F       		.byte	0x9f
 13294 0d90 00000000 		.4byte	0
 13295 0d94 00000000 		.4byte	0
 13296              	.LLST38:
 13297 0d98 00000000 		.4byte	.LFB53
 13298 0d9c 02000000 		.4byte	.LCFI16
 13299 0da0 0200     		.2byte	0x2
 13300 0da2 7D       		.byte	0x7d
 13301 0da3 00       		.sleb128 0
 13302 0da4 02000000 		.4byte	.LCFI16
 13303 0da8 14000000 		.4byte	.LCFI17
 13304 0dac 0200     		.2byte	0x2
 13305 0dae 7D       		.byte	0x7d
 13306 0daf 14       		.sleb128 20
 13307 0db0 14000000 		.4byte	.LCFI17
 13308 0db4 16000000 		.4byte	.LCFI18
 13309 0db8 0200     		.2byte	0x2
 13310 0dba 7D       		.byte	0x7d
 13311 0dbb 24       		.sleb128 36
 13312 0dbc 16000000 		.4byte	.LCFI18
 13313 0dc0 3C010000 		.4byte	.LFE53
 13314 0dc4 0300     		.2byte	0x3
 13315 0dc6 7D       		.byte	0x7d
 13316 0dc7 D800     		.sleb128 88
 13317 0dc9 00000000 		.4byte	0
 13318 0dcd 00000000 		.4byte	0
 13319              	.LLST39:
 13320 0dd1 00000000 		.4byte	.LVL109
 13321 0dd5 20000000 		.4byte	.LVL112
 13322 0dd9 0100     		.2byte	0x1
 13323 0ddb 50       		.byte	0x50
ARM GAS  C:\Users\EBANO_~1\AppData\Local\Temp\ccKJ5gfE.s 			page 262


 13324 0ddc 20000000 		.4byte	.LVL112
 13325 0de0 D8000000 		.4byte	.LVL128
 13326 0de4 0100     		.2byte	0x1
 13327 0de6 54       		.byte	0x54
 13328 0de7 D8000000 		.4byte	.LVL128
 13329 0deb E4000000 		.4byte	.LVL132
 13330 0def 0400     		.2byte	0x4
 13331 0df1 F3       		.byte	0xf3
 13332 0df2 01       		.uleb128 0x1
 13333 0df3 50       		.byte	0x50
 13334 0df4 9F       		.byte	0x9f
 13335 0df5 E4000000 		.4byte	.LVL132
 13336 0df9 3C010000 		.4byte	.LFE53
 13337 0dfd 0100     		.2byte	0x1
 13338 0dff 54       		.byte	0x54
 13339 0e00 00000000 		.4byte	0
 13340 0e04 00000000 		.4byte	0
 13341              	.LLST40:
 13342 0e08 00000000 		.4byte	.LVL109
 13343 0e0c 1C000000 		.4byte	.LVL111
 13344 0e10 0100     		.2byte	0x1
 13345 0e12 51       		.byte	0x51
 13346 0e13 1C000000 		.4byte	.LVL111
 13347 0e17 3C010000 		.4byte	.LFE53
 13348 0e1b 0200     		.2byte	0x2
 13349 0e1d 91       		.byte	0x91
 13350 0e1e 50       		.sleb128 -48
 13351 0e1f 00000000 		.4byte	0
 13352 0e23 00000000 		.4byte	0
 13353              	.LLST41:
 13354 0e27 00000000 		.4byte	.LVL109
 13355 0e2b 0E000000 		.4byte	.LVL110
 13356 0e2f 0100     		.2byte	0x1
 13357 0e31 52       		.byte	0x52
 13358 0e32 0E000000 		.4byte	.LVL110
 13359 0e36 D8000000 		.4byte	.LVL130
 13360 0e3a 0100     		.2byte	0x1
 13361 0e3c 58       		.byte	0x58
 13362 0e3d D8000000 		.4byte	.LVL130
 13363 0e41 E4000000 		.4byte	.LVL132
 13364 0e45 0400     		.2byte	0x4
 13365 0e47 F3       		.byte	0xf3
 13366 0e48 01       		.uleb128 0x1
 13367 0e49 52       		.byte	0x52
 13368 0e4a 9F       		.byte	0x9f
 13369 0e4b E4000000 		.4byte	.LVL132
 13370 0e4f 3C010000 		.4byte	.LFE53
 13371 0e53 0100     		.2byte	0x1
 13372 0e55 58       		.byte	0x58
 13373 0e56 00000000 		.4byte	0
 13374 0e5a 00000000 		.4byte	0
 13375              	.LLST42:
 13376 0e5e 8E000000 		.4byte	.LVL122
 13377 0e62 B6000000 		.4byte	.LVL125
 13378 0e66 0200     		.2byte	0x2
 13379 0e68 31       		.byte	0x31
 13380 0e69 9F       		.byte	0x9f
ARM GAS  C:\Users\EBANO_~1\AppData\Local\Temp\ccKJ5gfE.s 			page 263


 13381 0e6a B6000000 		.4byte	.LVL125
 13382 0e6e D8000000 		.4byte	.LVL129
 13383 0e72 0100     		.2byte	0x1
 13384 0e74 56       		.byte	0x56
 13385 0e75 EA000000 		.4byte	.LVL134
 13386 0e79 3C010000 		.4byte	.LFE53
 13387 0e7d 0200     		.2byte	0x2
 13388 0e7f 30       		.byte	0x30
 13389 0e80 9F       		.byte	0x9f
 13390 0e81 00000000 		.4byte	0
 13391 0e85 00000000 		.4byte	0
 13392              	.LLST43:
 13393 0e89 22000000 		.4byte	.LVL113
 13394 0e8d AC000000 		.4byte	.LVL123
 13395 0e91 0100     		.2byte	0x1
 13396 0e93 56       		.byte	0x56
 13397 0e94 AC000000 		.4byte	.LVL123
 13398 0e98 B3000000 		.4byte	.LVL124-1
 13399 0e9c 0200     		.2byte	0x2
 13400 0e9e 7D       		.byte	0x7d
 13401 0e9f 00       		.sleb128 0
 13402 0ea0 E4000000 		.4byte	.LVL132
 13403 0ea4 04010000 		.4byte	.LVL135
 13404 0ea8 0100     		.2byte	0x1
 13405 0eaa 56       		.byte	0x56
 13406 0eab 00000000 		.4byte	0
 13407 0eaf 00000000 		.4byte	0
 13408              	.LLST44:
 13409 0eb3 64000000 		.4byte	.LVL118
 13410 0eb7 72000000 		.4byte	.LVL120
 13411 0ebb 0200     		.2byte	0x2
 13412 0ebd 30       		.byte	0x30
 13413 0ebe 9F       		.byte	0x9f
 13414 0ebf 72000000 		.4byte	.LVL120
 13415 0ec3 D8000000 		.4byte	.LVL131
 13416 0ec7 0100     		.2byte	0x1
 13417 0ec9 5B       		.byte	0x5b
 13418 0eca EA000000 		.4byte	.LVL134
 13419 0ece 3C010000 		.4byte	.LFE53
 13420 0ed2 0100     		.2byte	0x1
 13421 0ed4 5B       		.byte	0x5b
 13422 0ed5 00000000 		.4byte	0
 13423 0ed9 00000000 		.4byte	0
 13424              	.LLST45:
 13425 0edd 22000000 		.4byte	.LVL113
 13426 0ee1 4C000000 		.4byte	.LVL116
 13427 0ee5 0100     		.2byte	0x1
 13428 0ee7 52       		.byte	0x52
 13429 0ee8 4C000000 		.4byte	.LVL116
 13430 0eec 6D000000 		.4byte	.LVL119-1
 13431 0ef0 0200     		.2byte	0x2
 13432 0ef2 74       		.byte	0x74
 13433 0ef3 01       		.sleb128 1
 13434 0ef4 E4000000 		.4byte	.LVL132
 13435 0ef8 E6000000 		.4byte	.LVL133
 13436 0efc 0200     		.2byte	0x2
 13437 0efe 74       		.byte	0x74
ARM GAS  C:\Users\EBANO_~1\AppData\Local\Temp\ccKJ5gfE.s 			page 264


 13438 0eff 01       		.sleb128 1
 13439 0f00 E6000000 		.4byte	.LVL133
 13440 0f04 EA000000 		.4byte	.LVL134
 13441 0f08 0500     		.2byte	0x5
 13442 0f0a 74       		.byte	0x74
 13443 0f0b 00       		.sleb128 0
 13444 0f0c 73       		.byte	0x73
 13445 0f0d 00       		.sleb128 0
 13446 0f0e 22       		.byte	0x22
 13447 0f0f 00000000 		.4byte	0
 13448 0f13 00000000 		.4byte	0
 13449              	.LLST46:
 13450 0f17 22000000 		.4byte	.LVL113
 13451 0f1b 24000000 		.4byte	.LVL114
 13452 0f1f 1E00     		.2byte	0x1e
 13453 0f21 74       		.byte	0x74
 13454 0f22 00       		.sleb128 0
 13455 0f23 94       		.byte	0x94
 13456 0f24 01       		.byte	0x1
 13457 0f25 08       		.byte	0x8
 13458 0f26 FF       		.byte	0xff
 13459 0f27 1A       		.byte	0x1a
 13460 0f28 3C       		.byte	0x3c
 13461 0f29 1E       		.byte	0x1e
 13462 0f2a 03       		.byte	0x3
 13463 0f2b 09000000 		.4byte	NvmCtx+9
 13464 0f2f 22       		.byte	0x22
 13465 0f30 94       		.byte	0x94
 13466 0f31 01       		.byte	0x1
 13467 0f32 08       		.byte	0x8
 13468 0f33 FF       		.byte	0xff
 13469 0f34 1A       		.byte	0x1a
 13470 0f35 23       		.byte	0x23
 13471 0f36 0C       		.uleb128 0xc
 13472 0f37 34       		.byte	0x34
 13473 0f38 24       		.byte	0x24
 13474 0f39 03       		.byte	0x3
 13475 0f3a 02000000 		.4byte	NvmCtx+2
 13476 0f3e 22       		.byte	0x22
 13477 0f3f 24000000 		.4byte	.LVL114
 13478 0f43 2A000000 		.4byte	.LVL115
 13479 0f47 1900     		.2byte	0x19
 13480 0f49 70       		.byte	0x70
 13481 0f4a 00       		.sleb128 0
 13482 0f4b 3C       		.byte	0x3c
 13483 0f4c 1E       		.byte	0x1e
 13484 0f4d 03       		.byte	0x3
 13485 0f4e 09000000 		.4byte	NvmCtx+9
 13486 0f52 22       		.byte	0x22
 13487 0f53 94       		.byte	0x94
 13488 0f54 01       		.byte	0x1
 13489 0f55 08       		.byte	0x8
 13490 0f56 FF       		.byte	0xff
 13491 0f57 1A       		.byte	0x1a
 13492 0f58 23       		.byte	0x23
 13493 0f59 0C       		.uleb128 0xc
 13494 0f5a 34       		.byte	0x34
ARM GAS  C:\Users\EBANO_~1\AppData\Local\Temp\ccKJ5gfE.s 			page 265


 13495 0f5b 24       		.byte	0x24
 13496 0f5c 03       		.byte	0x3
 13497 0f5d 02000000 		.4byte	NvmCtx+2
 13498 0f61 22       		.byte	0x22
 13499 0f62 2A000000 		.4byte	.LVL115
 13500 0f66 4E000000 		.4byte	.LVL117
 13501 0f6a 1E00     		.2byte	0x1e
 13502 0f6c 74       		.byte	0x74
 13503 0f6d 00       		.sleb128 0
 13504 0f6e 94       		.byte	0x94
 13505 0f6f 01       		.byte	0x1
 13506 0f70 08       		.byte	0x8
 13507 0f71 FF       		.byte	0xff
 13508 0f72 1A       		.byte	0x1a
 13509 0f73 3C       		.byte	0x3c
 13510 0f74 1E       		.byte	0x1e
 13511 0f75 03       		.byte	0x3
 13512 0f76 09000000 		.4byte	NvmCtx+9
 13513 0f7a 22       		.byte	0x22
 13514 0f7b 94       		.byte	0x94
 13515 0f7c 01       		.byte	0x1
 13516 0f7d 08       		.byte	0x8
 13517 0f7e FF       		.byte	0xff
 13518 0f7f 1A       		.byte	0x1a
 13519 0f80 23       		.byte	0x23
 13520 0f81 0C       		.uleb128 0xc
 13521 0f82 34       		.byte	0x34
 13522 0f83 24       		.byte	0x24
 13523 0f84 03       		.byte	0x3
 13524 0f85 02000000 		.4byte	NvmCtx+2
 13525 0f89 22       		.byte	0x22
 13526 0f8a 00000000 		.4byte	0
 13527 0f8e 00000000 		.4byte	0
 13528              	.LLST47:
 13529 0f92 22000000 		.4byte	.LVL113
 13530 0f96 4E000000 		.4byte	.LVL117
 13531 0f9a 0200     		.2byte	0x2
 13532 0f9c 74       		.byte	0x74
 13533 0f9d 02       		.sleb128 2
 13534 0f9e 00000000 		.4byte	0
 13535 0fa2 00000000 		.4byte	0
 13536              	.LLST30:
 13537 0fa6 00000000 		.4byte	.LFB52
 13538 0faa 02000000 		.4byte	.LCFI13
 13539 0fae 0200     		.2byte	0x2
 13540 0fb0 7D       		.byte	0x7d
 13541 0fb1 00       		.sleb128 0
 13542 0fb2 02000000 		.4byte	.LCFI13
 13543 0fb6 0A000000 		.4byte	.LCFI14
 13544 0fba 0200     		.2byte	0x2
 13545 0fbc 7D       		.byte	0x7d
 13546 0fbd 14       		.sleb128 20
 13547 0fbe 0A000000 		.4byte	.LCFI14
 13548 0fc2 16000000 		.4byte	.LCFI15
 13549 0fc6 0200     		.2byte	0x2
 13550 0fc8 7D       		.byte	0x7d
 13551 0fc9 20       		.sleb128 32
ARM GAS  C:\Users\EBANO_~1\AppData\Local\Temp\ccKJ5gfE.s 			page 266


 13552 0fca 16000000 		.4byte	.LCFI15
 13553 0fce 0C010000 		.4byte	.LFE52
 13554 0fd2 0300     		.2byte	0x3
 13555 0fd4 7D       		.byte	0x7d
 13556 0fd5 D000     		.sleb128 80
 13557 0fd7 00000000 		.4byte	0
 13558 0fdb 00000000 		.4byte	0
 13559              	.LLST31:
 13560 0fdf 00000000 		.4byte	.LVL86
 13561 0fe3 1F000000 		.4byte	.LVL88-1
 13562 0fe7 0100     		.2byte	0x1
 13563 0fe9 50       		.byte	0x50
 13564 0fea 1F000000 		.4byte	.LVL88-1
 13565 0fee A8000000 		.4byte	.LVL100
 13566 0ff2 0100     		.2byte	0x1
 13567 0ff4 54       		.byte	0x54
 13568 0ff5 A8000000 		.4byte	.LVL100
 13569 0ff9 B2000000 		.4byte	.LVL104
 13570 0ffd 0400     		.2byte	0x4
 13571 0fff F3       		.byte	0xf3
 13572 1000 01       		.uleb128 0x1
 13573 1001 50       		.byte	0x50
 13574 1002 9F       		.byte	0x9f
 13575 1003 B2000000 		.4byte	.LVL104
 13576 1007 0C010000 		.4byte	.LFE52
 13577 100b 0100     		.2byte	0x1
 13578 100d 54       		.byte	0x54
 13579 100e 00000000 		.4byte	0
 13580 1012 00000000 		.4byte	0
 13581              	.LLST32:
 13582 1016 00000000 		.4byte	.LVL86
 13583 101a 1F000000 		.4byte	.LVL88-1
 13584 101e 0100     		.2byte	0x1
 13585 1020 51       		.byte	0x51
 13586 1021 1F000000 		.4byte	.LVL88-1
 13587 1025 A8000000 		.4byte	.LVL103
 13588 1029 0100     		.2byte	0x1
 13589 102b 5A       		.byte	0x5a
 13590 102c A8000000 		.4byte	.LVL103
 13591 1030 B2000000 		.4byte	.LVL104
 13592 1034 0400     		.2byte	0x4
 13593 1036 F3       		.byte	0xf3
 13594 1037 01       		.uleb128 0x1
 13595 1038 51       		.byte	0x51
 13596 1039 9F       		.byte	0x9f
 13597 103a B2000000 		.4byte	.LVL104
 13598 103e 0C010000 		.4byte	.LFE52
 13599 1042 0100     		.2byte	0x1
 13600 1044 5A       		.byte	0x5a
 13601 1045 00000000 		.4byte	0
 13602 1049 00000000 		.4byte	0
 13603              	.LLST33:
 13604 104d 5E000000 		.4byte	.LVL93
 13605 1051 88000000 		.4byte	.LVL95
 13606 1055 0200     		.2byte	0x2
 13607 1057 31       		.byte	0x31
 13608 1058 9F       		.byte	0x9f
ARM GAS  C:\Users\EBANO_~1\AppData\Local\Temp\ccKJ5gfE.s 			page 267


 13609 1059 88000000 		.4byte	.LVL95
 13610 105d 9D000000 		.4byte	.LVL98-1
 13611 1061 0100     		.2byte	0x1
 13612 1063 50       		.byte	0x50
 13613 1064 B2000000 		.4byte	.LVL104
 13614 1068 B8000000 		.4byte	.LVL106
 13615 106c 0100     		.2byte	0x1
 13616 106e 50       		.byte	0x50
 13617 106f B8000000 		.4byte	.LVL106
 13618 1073 F0000000 		.4byte	.LVL108
 13619 1077 0200     		.2byte	0x2
 13620 1079 30       		.byte	0x30
 13621 107a 9F       		.byte	0x9f
 13622 107b 00000000 		.4byte	0
 13623 107f 00000000 		.4byte	0
 13624              	.LLST34:
 13625 1083 18000000 		.4byte	.LVL87
 13626 1087 A8000000 		.4byte	.LVL101
 13627 108b 0100     		.2byte	0x1
 13628 108d 56       		.byte	0x56
 13629 108e B2000000 		.4byte	.LVL104
 13630 1092 0C010000 		.4byte	.LFE52
 13631 1096 0100     		.2byte	0x1
 13632 1098 56       		.byte	0x56
 13633 1099 00000000 		.4byte	0
 13634 109d 00000000 		.4byte	0
 13635              	.LLST35:
 13636 10a1 18000000 		.4byte	.LVL87
 13637 10a5 94000000 		.4byte	.LVL96
 13638 10a9 0200     		.2byte	0x2
 13639 10ab 30       		.byte	0x30
 13640 10ac 9F       		.byte	0x9f
 13641 10ad 94000000 		.4byte	.LVL96
 13642 10b1 98000000 		.4byte	.LVL97
 13643 10b5 0100     		.2byte	0x1
 13644 10b7 51       		.byte	0x51
 13645 10b8 B2000000 		.4byte	.LVL104
 13646 10bc B6000000 		.4byte	.LVL105
 13647 10c0 0200     		.2byte	0x2
 13648 10c2 30       		.byte	0x30
 13649 10c3 9F       		.byte	0x9f
 13650 10c4 B6000000 		.4byte	.LVL105
 13651 10c8 B8000000 		.4byte	.LVL106
 13652 10cc 0100     		.2byte	0x1
 13653 10ce 51       		.byte	0x51
 13654 10cf B8000000 		.4byte	.LVL106
 13655 10d3 0C010000 		.4byte	.LFE52
 13656 10d7 0200     		.2byte	0x2
 13657 10d9 30       		.byte	0x30
 13658 10da 9F       		.byte	0x9f
 13659 10db 00000000 		.4byte	0
 13660 10df 00000000 		.4byte	0
 13661              	.LLST36:
 13662 10e3 18000000 		.4byte	.LVL87
 13663 10e7 4E000000 		.4byte	.LVL91
 13664 10eb 0200     		.2byte	0x2
 13665 10ed 30       		.byte	0x30
ARM GAS  C:\Users\EBANO_~1\AppData\Local\Temp\ccKJ5gfE.s 			page 268


 13666 10ee 9F       		.byte	0x9f
 13667 10ef 4E000000 		.4byte	.LVL91
 13668 10f3 A4000000 		.4byte	.LVL99
 13669 10f7 0100     		.2byte	0x1
 13670 10f9 59       		.byte	0x59
 13671 10fa B2000000 		.4byte	.LVL104
 13672 10fe F0000000 		.4byte	.LVL108
 13673 1102 0100     		.2byte	0x1
 13674 1104 59       		.byte	0x59
 13675 1105 F0000000 		.4byte	.LVL108
 13676 1109 0C010000 		.4byte	.LFE52
 13677 110d 0200     		.2byte	0x2
 13678 110f 30       		.byte	0x30
 13679 1110 9F       		.byte	0x9f
 13680 1111 00000000 		.4byte	0
 13681 1115 00000000 		.4byte	0
 13682              	.LLST37:
 13683 1119 18000000 		.4byte	.LVL87
 13684 111d 38000000 		.4byte	.LVL89
 13685 1121 0100     		.2byte	0x1
 13686 1123 58       		.byte	0x58
 13687 1124 38000000 		.4byte	.LVL89
 13688 1128 42000000 		.4byte	.LVL90
 13689 112c 0100     		.2byte	0x1
 13690 112e 51       		.byte	0x51
 13691 112f 42000000 		.4byte	.LVL90
 13692 1133 A8000000 		.4byte	.LVL102
 13693 1137 0100     		.2byte	0x1
 13694 1139 58       		.byte	0x58
 13695 113a B2000000 		.4byte	.LVL104
 13696 113e F0000000 		.4byte	.LVL108
 13697 1142 0100     		.2byte	0x1
 13698 1144 58       		.byte	0x58
 13699 1145 F0000000 		.4byte	.LVL108
 13700 1149 0C010000 		.4byte	.LFE52
 13701 114d 0100     		.2byte	0x1
 13702 114f 51       		.byte	0x51
 13703 1150 00000000 		.4byte	0
 13704 1154 00000000 		.4byte	0
 13705              	.LLST24:
 13706 1158 00000000 		.4byte	.LFB51
 13707 115c 02000000 		.4byte	.LCFI10
 13708 1160 0200     		.2byte	0x2
 13709 1162 7D       		.byte	0x7d
 13710 1163 00       		.sleb128 0
 13711 1164 02000000 		.4byte	.LCFI10
 13712 1168 06000000 		.4byte	.LCFI11
 13713 116c 0200     		.2byte	0x2
 13714 116e 7D       		.byte	0x7d
 13715 116f 14       		.sleb128 20
 13716 1170 06000000 		.4byte	.LCFI11
 13717 1174 0A000000 		.4byte	.LCFI12
 13718 1178 0200     		.2byte	0x2
 13719 117a 7D       		.byte	0x7d
 13720 117b 18       		.sleb128 24
 13721 117c 0A000000 		.4byte	.LCFI12
 13722 1180 94000000 		.4byte	.LFE51
ARM GAS  C:\Users\EBANO_~1\AppData\Local\Temp\ccKJ5gfE.s 			page 269


 13723 1184 0200     		.2byte	0x2
 13724 1186 7D       		.byte	0x7d
 13725 1187 30       		.sleb128 48
 13726 1188 00000000 		.4byte	0
 13727 118c 00000000 		.4byte	0
 13728              	.LLST25:
 13729 1190 00000000 		.4byte	.LVL66
 13730 1194 40000000 		.4byte	.LVL71
 13731 1198 0100     		.2byte	0x1
 13732 119a 50       		.byte	0x50
 13733 119b 40000000 		.4byte	.LVL71
 13734 119f 70000000 		.4byte	.LVL82
 13735 11a3 0400     		.2byte	0x4
 13736 11a5 F3       		.byte	0xf3
 13737 11a6 01       		.uleb128 0x1
 13738 11a7 50       		.byte	0x50
 13739 11a8 9F       		.byte	0x9f
 13740 11a9 70000000 		.4byte	.LVL82
 13741 11ad 7A000000 		.4byte	.LVL83
 13742 11b1 0100     		.2byte	0x1
 13743 11b3 50       		.byte	0x50
 13744 11b4 7A000000 		.4byte	.LVL83
 13745 11b8 94000000 		.4byte	.LFE51
 13746 11bc 0400     		.2byte	0x4
 13747 11be F3       		.byte	0xf3
 13748 11bf 01       		.uleb128 0x1
 13749 11c0 50       		.byte	0x50
 13750 11c1 9F       		.byte	0x9f
 13751 11c2 00000000 		.4byte	0
 13752 11c6 00000000 		.4byte	0
 13753              	.LLST26:
 13754 11ca 00000000 		.4byte	.LVL66
 13755 11ce 1C000000 		.4byte	.LVL69
 13756 11d2 0100     		.2byte	0x1
 13757 11d4 51       		.byte	0x51
 13758 11d5 1C000000 		.4byte	.LVL69
 13759 11d9 94000000 		.4byte	.LFE51
 13760 11dd 0400     		.2byte	0x4
 13761 11df F3       		.byte	0xf3
 13762 11e0 01       		.uleb128 0x1
 13763 11e1 51       		.byte	0x51
 13764 11e2 9F       		.byte	0x9f
 13765 11e3 00000000 		.4byte	0
 13766 11e7 00000000 		.4byte	0
 13767              	.LLST27:
 13768 11eb 00000000 		.4byte	.LVL66
 13769 11ef 1A000000 		.4byte	.LVL68
 13770 11f3 0100     		.2byte	0x1
 13771 11f5 52       		.byte	0x52
 13772 11f6 1A000000 		.4byte	.LVL68
 13773 11fa 6A000000 		.4byte	.LVL81
 13774 11fe 0100     		.2byte	0x1
 13775 1200 58       		.byte	0x58
 13776 1201 6A000000 		.4byte	.LVL81
 13777 1205 70000000 		.4byte	.LVL82
 13778 1209 0400     		.2byte	0x4
 13779 120b F3       		.byte	0xf3
ARM GAS  C:\Users\EBANO_~1\AppData\Local\Temp\ccKJ5gfE.s 			page 270


 13780 120c 01       		.uleb128 0x1
 13781 120d 52       		.byte	0x52
 13782 120e 9F       		.byte	0x9f
 13783 120f 70000000 		.4byte	.LVL82
 13784 1213 94000000 		.4byte	.LFE51
 13785 1217 0100     		.2byte	0x1
 13786 1219 58       		.byte	0x58
 13787 121a 00000000 		.4byte	0
 13788 121e 00000000 		.4byte	0
 13789              	.LLST28:
 13790 1222 00000000 		.4byte	.LVL66
 13791 1226 10000000 		.4byte	.LVL67
 13792 122a 0100     		.2byte	0x1
 13793 122c 53       		.byte	0x53
 13794 122d 10000000 		.4byte	.LVL67
 13795 1231 54000000 		.4byte	.LVL75
 13796 1235 0100     		.2byte	0x1
 13797 1237 54       		.byte	0x54
 13798 1238 54000000 		.4byte	.LVL75
 13799 123c 56000000 		.4byte	.LVL76
 13800 1240 0100     		.2byte	0x1
 13801 1242 53       		.byte	0x53
 13802 1243 56000000 		.4byte	.LVL76
 13803 1247 5E000000 		.4byte	.LVL77
 13804 124b 0300     		.2byte	0x3
 13805 124d 73       		.byte	0x73
 13806 124e 74       		.sleb128 -12
 13807 124f 9F       		.byte	0x9f
 13808 1250 5E000000 		.4byte	.LVL77
 13809 1254 67000000 		.4byte	.LVL78-1
 13810 1258 0600     		.2byte	0x6
 13811 125a 91       		.byte	0x91
 13812 125b 58       		.sleb128 -40
 13813 125c 06       		.byte	0x6
 13814 125d 3C       		.byte	0x3c
 13815 125e 1C       		.byte	0x1c
 13816 125f 9F       		.byte	0x9f
 13817 1260 67000000 		.4byte	.LVL78-1
 13818 1264 6A000000 		.4byte	.LVL79
 13819 1268 0300     		.2byte	0x3
 13820 126a 74       		.byte	0x74
 13821 126b 78       		.sleb128 -8
 13822 126c 9F       		.byte	0x9f
 13823 126d 6A000000 		.4byte	.LVL79
 13824 1271 70000000 		.4byte	.LVL82
 13825 1275 0400     		.2byte	0x4
 13826 1277 F3       		.byte	0xf3
 13827 1278 01       		.uleb128 0x1
 13828 1279 53       		.byte	0x53
 13829 127a 9F       		.byte	0x9f
 13830 127b 70000000 		.4byte	.LVL82
 13831 127f 94000000 		.4byte	.LFE51
 13832 1283 0100     		.2byte	0x1
 13833 1285 54       		.byte	0x54
 13834 1286 00000000 		.4byte	0
 13835 128a 00000000 		.4byte	0
 13836              	.LLST29:
ARM GAS  C:\Users\EBANO_~1\AppData\Local\Temp\ccKJ5gfE.s 			page 271


 13837 128e 00000000 		.4byte	.LVL66
 13838 1292 48000000 		.4byte	.LVL73
 13839 1296 0A00     		.2byte	0xa
 13840 1298 9E       		.byte	0x9e
 13841 1299 08       		.uleb128 0x8
 13842 129a 00000000 		.4byte	0
 13843 129e 00000000 		.4byte	0
 13844 12a2 48000000 		.4byte	.LVL73
 13845 12a6 6A000000 		.4byte	.LVL80
 13846 12aa 0600     		.2byte	0x6
 13847 12ac 56       		.byte	0x56
 13848 12ad 93       		.byte	0x93
 13849 12ae 04       		.uleb128 0x4
 13850 12af 57       		.byte	0x57
 13851 12b0 93       		.byte	0x93
 13852 12b1 04       		.uleb128 0x4
 13853 12b2 70000000 		.4byte	.LVL82
 13854 12b6 82000000 		.4byte	.LVL85
 13855 12ba 0A00     		.2byte	0xa
 13856 12bc 9E       		.byte	0x9e
 13857 12bd 08       		.uleb128 0x8
 13858 12be 00000000 		.4byte	0
 13859 12c2 00000000 		.4byte	0
 13860 12c6 82000000 		.4byte	.LVL85
 13861 12ca 94000000 		.4byte	.LFE51
 13862 12ce 0600     		.2byte	0x6
 13863 12d0 56       		.byte	0x56
 13864 12d1 93       		.byte	0x93
 13865 12d2 04       		.uleb128 0x4
 13866 12d3 57       		.byte	0x57
 13867 12d4 93       		.byte	0x93
 13868 12d5 04       		.uleb128 0x4
 13869 12d6 00000000 		.4byte	0
 13870 12da 00000000 		.4byte	0
 13871              	.LLST22:
 13872 12de 00000000 		.4byte	.LFB50
 13873 12e2 02000000 		.4byte	.LCFI9
 13874 12e6 0200     		.2byte	0x2
 13875 12e8 7D       		.byte	0x7d
 13876 12e9 00       		.sleb128 0
 13877 12ea 02000000 		.4byte	.LCFI9
 13878 12ee 34000000 		.4byte	.LFE50
 13879 12f2 0200     		.2byte	0x2
 13880 12f4 7D       		.byte	0x7d
 13881 12f5 08       		.sleb128 8
 13882 12f6 00000000 		.4byte	0
 13883 12fa 00000000 		.4byte	0
 13884              	.LLST23:
 13885 12fe 00000000 		.4byte	.LVL58
 13886 1302 0E000000 		.4byte	.LVL59
 13887 1306 0100     		.2byte	0x1
 13888 1308 50       		.byte	0x50
 13889 1309 0E000000 		.4byte	.LVL59
 13890 130d 10000000 		.4byte	.LVL60
 13891 1311 0400     		.2byte	0x4
 13892 1313 F3       		.byte	0xf3
 13893 1314 01       		.uleb128 0x1
ARM GAS  C:\Users\EBANO_~1\AppData\Local\Temp\ccKJ5gfE.s 			page 272


 13894 1315 50       		.byte	0x50
 13895 1316 9F       		.byte	0x9f
 13896 1317 10000000 		.4byte	.LVL60
 13897 131b 16000000 		.4byte	.LVL61
 13898 131f 0100     		.2byte	0x1
 13899 1321 50       		.byte	0x50
 13900 1322 16000000 		.4byte	.LVL61
 13901 1326 1E000000 		.4byte	.LVL63
 13902 132a 0400     		.2byte	0x4
 13903 132c F3       		.byte	0xf3
 13904 132d 01       		.uleb128 0x1
 13905 132e 50       		.byte	0x50
 13906 132f 9F       		.byte	0x9f
 13907 1330 1E000000 		.4byte	.LVL63
 13908 1334 24000000 		.4byte	.LVL64
 13909 1338 0100     		.2byte	0x1
 13910 133a 50       		.byte	0x50
 13911 133b 24000000 		.4byte	.LVL64
 13912 133f 34000000 		.4byte	.LFE50
 13913 1343 0400     		.2byte	0x4
 13914 1345 F3       		.byte	0xf3
 13915 1346 01       		.uleb128 0x1
 13916 1347 50       		.byte	0x50
 13917 1348 9F       		.byte	0x9f
 13918 1349 00000000 		.4byte	0
 13919 134d 00000000 		.4byte	0
 13920              	.LLST13:
 13921 1351 00000000 		.4byte	.LFB49
 13922 1355 02000000 		.4byte	.LCFI6
 13923 1359 0200     		.2byte	0x2
 13924 135b 7D       		.byte	0x7d
 13925 135c 00       		.sleb128 0
 13926 135d 02000000 		.4byte	.LCFI6
 13927 1361 0E000000 		.4byte	.LCFI7
 13928 1365 0200     		.2byte	0x2
 13929 1367 7D       		.byte	0x7d
 13930 1368 14       		.sleb128 20
 13931 1369 0E000000 		.4byte	.LCFI7
 13932 136d 10000000 		.4byte	.LCFI8
 13933 1371 0200     		.2byte	0x2
 13934 1373 7D       		.byte	0x7d
 13935 1374 24       		.sleb128 36
 13936 1375 10000000 		.4byte	.LCFI8
 13937 1379 44010000 		.4byte	.LFE49
 13938 137d 0300     		.2byte	0x3
 13939 137f 7D       		.byte	0x7d
 13940 1380 C000     		.sleb128 64
 13941 1382 00000000 		.4byte	0
 13942 1386 00000000 		.4byte	0
 13943              	.LLST14:
 13944 138a 00000000 		.4byte	.LVL35
 13945 138e 1C000000 		.4byte	.LVL36
 13946 1392 0100     		.2byte	0x1
 13947 1394 50       		.byte	0x50
 13948 1395 1C000000 		.4byte	.LVL36
 13949 1399 1E000000 		.4byte	.LVL37
 13950 139d 0100     		.2byte	0x1
ARM GAS  C:\Users\EBANO_~1\AppData\Local\Temp\ccKJ5gfE.s 			page 273


 13951 139f 57       		.byte	0x57
 13952 13a0 1E000000 		.4byte	.LVL37
 13953 13a4 2A000000 		.4byte	.LVL38
 13954 13a8 0400     		.2byte	0x4
 13955 13aa F3       		.byte	0xf3
 13956 13ab 01       		.uleb128 0x1
 13957 13ac 50       		.byte	0x50
 13958 13ad 9F       		.byte	0x9f
 13959 13ae 2A000000 		.4byte	.LVL38
 13960 13b2 40000000 		.4byte	.LVL39
 13961 13b6 0100     		.2byte	0x1
 13962 13b8 50       		.byte	0x50
 13963 13b9 40000000 		.4byte	.LVL39
 13964 13bd 44010000 		.4byte	.LFE49
 13965 13c1 0100     		.2byte	0x1
 13966 13c3 57       		.byte	0x57
 13967 13c4 00000000 		.4byte	0
 13968 13c8 00000000 		.4byte	0
 13969              	.LLST15:
 13970 13cc 40000000 		.4byte	.LVL39
 13971 13d0 62000000 		.4byte	.LVL43
 13972 13d4 0300     		.2byte	0x3
 13973 13d6 76       		.byte	0x76
 13974 13d7 7F       		.sleb128 -1
 13975 13d8 9F       		.byte	0x9f
 13976 13d9 62000000 		.4byte	.LVL43
 13977 13dd 64000000 		.4byte	.LVL44
 13978 13e1 0300     		.2byte	0x3
 13979 13e3 76       		.byte	0x76
 13980 13e4 02       		.sleb128 2
 13981 13e5 9F       		.byte	0x9f
 13982 13e6 6E000000 		.4byte	.LVL46
 13983 13ea 44010000 		.4byte	.LFE49
 13984 13ee 0300     		.2byte	0x3
 13985 13f0 76       		.byte	0x76
 13986 13f1 7F       		.sleb128 -1
 13987 13f2 9F       		.byte	0x9f
 13988 13f3 00000000 		.4byte	0
 13989 13f7 00000000 		.4byte	0
 13990              	.LLST16:
 13991 13fb 40000000 		.4byte	.LVL39
 13992 13ff 42000000 		.4byte	.LVL40
 13993 1403 0100     		.2byte	0x1
 13994 1405 53       		.byte	0x53
 13995 1406 42000000 		.4byte	.LVL40
 13996 140a 62000000 		.4byte	.LVL43
 13997 140e 0100     		.2byte	0x1
 13998 1410 58       		.byte	0x58
 13999 1411 62000000 		.4byte	.LVL43
 14000 1415 66000000 		.4byte	.LVL45
 14001 1419 0300     		.2byte	0x3
 14002 141b 75       		.byte	0x75
 14003 141c 01       		.sleb128 1
 14004 141d 9F       		.byte	0x9f
 14005 141e 6E000000 		.4byte	.LVL46
 14006 1422 74000000 		.4byte	.LVL47
 14007 1426 0100     		.2byte	0x1
ARM GAS  C:\Users\EBANO_~1\AppData\Local\Temp\ccKJ5gfE.s 			page 274


 14008 1428 53       		.byte	0x53
 14009 1429 74000000 		.4byte	.LVL47
 14010 142d A8000000 		.4byte	.LVL50
 14011 1431 0100     		.2byte	0x1
 14012 1433 58       		.byte	0x58
 14013 1434 A8000000 		.4byte	.LVL50
 14014 1438 44010000 		.4byte	.LFE49
 14015 143c 0100     		.2byte	0x1
 14016 143e 55       		.byte	0x55
 14017 143f 00000000 		.4byte	0
 14018 1443 00000000 		.4byte	0
 14019              	.LLST17:
 14020 1447 48000000 		.4byte	.LVL41
 14021 144b 62000000 		.4byte	.LVL43
 14022 144f 0600     		.2byte	0x6
 14023 1451 F2       		.byte	0xf2
 14024 1452 702C0000 		.4byte	.Ldebug_info0+11376
 14025 1456 00       		.sleb128 0
 14026 1457 00000000 		.4byte	0
 14027 145b 00000000 		.4byte	0
 14028              	.LLST18:
 14029 145f 48000000 		.4byte	.LVL41
 14030 1463 62000000 		.4byte	.LVL43
 14031 1467 0100     		.2byte	0x1
 14032 1469 58       		.byte	0x58
 14033 146a 00000000 		.4byte	0
 14034 146e 00000000 		.4byte	0
 14035              	.LLST19:
 14036 1472 98000000 		.4byte	.LVL48
 14037 1476 A8000000 		.4byte	.LVL50
 14038 147a 0200     		.2byte	0x2
 14039 147c 30       		.byte	0x30
 14040 147d 9F       		.byte	0x9f
 14041 147e A8000000 		.4byte	.LVL50
 14042 1482 C8000000 		.4byte	.LVL52
 14043 1486 0700     		.2byte	0x7
 14044 1488 78       		.byte	0x78
 14045 1489 00       		.sleb128 0
 14046 148a 48       		.byte	0x48
 14047 148b 24       		.byte	0x24
 14048 148c 30       		.byte	0x30
 14049 148d 29       		.byte	0x29
 14050 148e 9F       		.byte	0x9f
 14051 148f C8000000 		.4byte	.LVL52
 14052 1493 2A010000 		.4byte	.LVL56
 14053 1497 0100     		.2byte	0x1
 14054 1499 5A       		.byte	0x5a
 14055 149a 2A010000 		.4byte	.LVL56
 14056 149e 44010000 		.4byte	.LFE49
 14057 14a2 0200     		.2byte	0x2
 14058 14a4 31       		.byte	0x31
 14059 14a5 9F       		.byte	0x9f
 14060 14a6 00000000 		.4byte	0
 14061 14aa 00000000 		.4byte	0
 14062              	.LLST20:
 14063 14ae 98000000 		.4byte	.LVL48
 14064 14b2 A8000000 		.4byte	.LVL50
ARM GAS  C:\Users\EBANO_~1\AppData\Local\Temp\ccKJ5gfE.s 			page 275


 14065 14b6 0100     		.2byte	0x1
 14066 14b8 58       		.byte	0x58
 14067 14b9 A8000000 		.4byte	.LVL50
 14068 14bd 44010000 		.4byte	.LFE49
 14069 14c1 0100     		.2byte	0x1
 14070 14c3 55       		.byte	0x55
 14071 14c4 00000000 		.4byte	0
 14072 14c8 00000000 		.4byte	0
 14073              	.LLST21:
 14074 14cc E2000000 		.4byte	.LVL53
 14075 14d0 E5000000 		.4byte	.LVL54-1
 14076 14d4 0200     		.2byte	0x2
 14077 14d6 74       		.byte	0x74
 14078 14d7 00       		.sleb128 0
 14079 14d8 2A010000 		.4byte	.LVL56
 14080 14dc 2D010000 		.4byte	.LVL57-1
 14081 14e0 0200     		.2byte	0x2
 14082 14e2 74       		.byte	0x74
 14083 14e3 00       		.sleb128 0
 14084 14e4 00000000 		.4byte	0
 14085 14e8 00000000 		.4byte	0
 14086              	.LLST10:
 14087 14ec 00000000 		.4byte	.LFB48
 14088 14f0 06000000 		.4byte	.LCFI5
 14089 14f4 0200     		.2byte	0x2
 14090 14f6 7D       		.byte	0x7d
 14091 14f7 00       		.sleb128 0
 14092 14f8 06000000 		.4byte	.LCFI5
 14093 14fc 48000000 		.4byte	.LFE48
 14094 1500 0200     		.2byte	0x2
 14095 1502 7D       		.byte	0x7d
 14096 1503 08       		.sleb128 8
 14097 1504 00000000 		.4byte	0
 14098 1508 00000000 		.4byte	0
 14099              	.LLST11:
 14100 150c 00000000 		.4byte	.LVL24
 14101 1510 14000000 		.4byte	.LVL26
 14102 1514 0100     		.2byte	0x1
 14103 1516 50       		.byte	0x50
 14104 1517 14000000 		.4byte	.LVL26
 14105 151b 26000000 		.4byte	.LVL28
 14106 151f 0400     		.2byte	0x4
 14107 1521 F3       		.byte	0xf3
 14108 1522 01       		.uleb128 0x1
 14109 1523 50       		.byte	0x50
 14110 1524 9F       		.byte	0x9f
 14111 1525 26000000 		.4byte	.LVL28
 14112 1529 28000000 		.4byte	.LVL29
 14113 152d 0100     		.2byte	0x1
 14114 152f 50       		.byte	0x50
 14115 1530 28000000 		.4byte	.LVL29
 14116 1534 3A000000 		.4byte	.LVL31
 14117 1538 0400     		.2byte	0x4
 14118 153a F3       		.byte	0xf3
 14119 153b 01       		.uleb128 0x1
 14120 153c 50       		.byte	0x50
 14121 153d 9F       		.byte	0x9f
ARM GAS  C:\Users\EBANO_~1\AppData\Local\Temp\ccKJ5gfE.s 			page 276


 14122 153e 3A000000 		.4byte	.LVL31
 14123 1542 3C000000 		.4byte	.LVL32
 14124 1546 0100     		.2byte	0x1
 14125 1548 50       		.byte	0x50
 14126 1549 3C000000 		.4byte	.LVL32
 14127 154d 3E000000 		.4byte	.LVL33
 14128 1551 0400     		.2byte	0x4
 14129 1553 F3       		.byte	0xf3
 14130 1554 01       		.uleb128 0x1
 14131 1555 50       		.byte	0x50
 14132 1556 9F       		.byte	0x9f
 14133 1557 3E000000 		.4byte	.LVL33
 14134 155b 40000000 		.4byte	.LVL34
 14135 155f 0100     		.2byte	0x1
 14136 1561 50       		.byte	0x50
 14137 1562 40000000 		.4byte	.LVL34
 14138 1566 48000000 		.4byte	.LFE48
 14139 156a 0400     		.2byte	0x4
 14140 156c F3       		.byte	0xf3
 14141 156d 01       		.uleb128 0x1
 14142 156e 50       		.byte	0x50
 14143 156f 9F       		.byte	0x9f
 14144 1570 00000000 		.4byte	0
 14145 1574 00000000 		.4byte	0
 14146              	.LLST12:
 14147 1578 00000000 		.4byte	.LVL24
 14148 157c 02000000 		.4byte	.LVL25
 14149 1580 0100     		.2byte	0x1
 14150 1582 51       		.byte	0x51
 14151 1583 02000000 		.4byte	.LVL25
 14152 1587 48000000 		.4byte	.LFE48
 14153 158b 0400     		.2byte	0x4
 14154 158d F3       		.byte	0xf3
 14155 158e 01       		.uleb128 0x1
 14156 158f 51       		.byte	0x51
 14157 1590 9F       		.byte	0x9f
 14158 1591 00000000 		.4byte	0
 14159 1595 00000000 		.4byte	0
 14160              	.LLST9:
 14161 1599 00000000 		.4byte	.LVL22
 14162 159d 06000000 		.4byte	.LVL23
 14163 15a1 0100     		.2byte	0x1
 14164 15a3 50       		.byte	0x50
 14165 15a4 06000000 		.4byte	.LVL23
 14166 15a8 0C000000 		.4byte	.LFE47
 14167 15ac 0400     		.2byte	0x4
 14168 15ae F3       		.byte	0xf3
 14169 15af 01       		.uleb128 0x1
 14170 15b0 50       		.byte	0x50
 14171 15b1 9F       		.byte	0x9f
 14172 15b2 00000000 		.4byte	0
 14173 15b6 00000000 		.4byte	0
 14174              	.LLST7:
 14175 15ba 00000000 		.4byte	.LFB46
 14176 15be 02000000 		.4byte	.LCFI3
 14177 15c2 0200     		.2byte	0x2
 14178 15c4 7D       		.byte	0x7d
ARM GAS  C:\Users\EBANO_~1\AppData\Local\Temp\ccKJ5gfE.s 			page 277


 14179 15c5 00       		.sleb128 0
 14180 15c6 02000000 		.4byte	.LCFI3
 14181 15ca 04000000 		.4byte	.LCFI4
 14182 15ce 0200     		.2byte	0x2
 14183 15d0 7D       		.byte	0x7d
 14184 15d1 14       		.sleb128 20
 14185 15d2 04000000 		.4byte	.LCFI4
 14186 15d6 94000000 		.4byte	.LFE46
 14187 15da 0200     		.2byte	0x2
 14188 15dc 7D       		.byte	0x7d
 14189 15dd 28       		.sleb128 40
 14190 15de 00000000 		.4byte	0
 14191 15e2 00000000 		.4byte	0
 14192              	.LLST8:
 14193 15e6 00000000 		.4byte	.LVL13
 14194 15ea 2C000000 		.4byte	.LVL14
 14195 15ee 0100     		.2byte	0x1
 14196 15f0 50       		.byte	0x50
 14197 15f1 2C000000 		.4byte	.LVL14
 14198 15f5 34000000 		.4byte	.LVL16
 14199 15f9 0400     		.2byte	0x4
 14200 15fb F3       		.byte	0xf3
 14201 15fc 01       		.uleb128 0x1
 14202 15fd 50       		.byte	0x50
 14203 15fe 9F       		.byte	0x9f
 14204 15ff 34000000 		.4byte	.LVL16
 14205 1603 3A000000 		.4byte	.LVL17
 14206 1607 0100     		.2byte	0x1
 14207 1609 50       		.byte	0x50
 14208 160a 3A000000 		.4byte	.LVL17
 14209 160e 78000000 		.4byte	.LVL20
 14210 1612 0400     		.2byte	0x4
 14211 1614 F3       		.byte	0xf3
 14212 1615 01       		.uleb128 0x1
 14213 1616 50       		.byte	0x50
 14214 1617 9F       		.byte	0x9f
 14215 1618 78000000 		.4byte	.LVL20
 14216 161c 7C000000 		.4byte	.LVL21
 14217 1620 0100     		.2byte	0x1
 14218 1622 50       		.byte	0x50
 14219 1623 7C000000 		.4byte	.LVL21
 14220 1627 94000000 		.4byte	.LFE46
 14221 162b 0400     		.2byte	0x4
 14222 162d F3       		.byte	0xf3
 14223 162e 01       		.uleb128 0x1
 14224 162f 50       		.byte	0x50
 14225 1630 9F       		.byte	0x9f
 14226 1631 00000000 		.4byte	0
 14227 1635 00000000 		.4byte	0
 14228              	.LLST5:
 14229 1639 00000000 		.4byte	.LFB45
 14230 163d 04000000 		.4byte	.LCFI2
 14231 1641 0200     		.2byte	0x2
 14232 1643 7D       		.byte	0x7d
 14233 1644 00       		.sleb128 0
 14234 1645 04000000 		.4byte	.LCFI2
 14235 1649 24000000 		.4byte	.LFE45
ARM GAS  C:\Users\EBANO_~1\AppData\Local\Temp\ccKJ5gfE.s 			page 278


 14236 164d 0200     		.2byte	0x2
 14237 164f 7D       		.byte	0x7d
 14238 1650 08       		.sleb128 8
 14239 1651 00000000 		.4byte	0
 14240 1655 00000000 		.4byte	0
 14241              	.LLST6:
 14242 1659 00000000 		.4byte	.LVL10
 14243 165d 1A000000 		.4byte	.LVL11
 14244 1661 0100     		.2byte	0x1
 14245 1663 50       		.byte	0x50
 14246 1664 1A000000 		.4byte	.LVL11
 14247 1668 24000000 		.4byte	.LFE45
 14248 166c 0400     		.2byte	0x4
 14249 166e F3       		.byte	0xf3
 14250 166f 01       		.uleb128 0x1
 14251 1670 50       		.byte	0x50
 14252 1671 9F       		.byte	0x9f
 14253 1672 00000000 		.4byte	0
 14254 1676 00000000 		.4byte	0
 14255              	.LLST0:
 14256 167a 00000000 		.4byte	.LFB44
 14257 167e 04000000 		.4byte	.LCFI0
 14258 1682 0200     		.2byte	0x2
 14259 1684 7D       		.byte	0x7d
 14260 1685 00       		.sleb128 0
 14261 1686 04000000 		.4byte	.LCFI0
 14262 168a 06000000 		.4byte	.LCFI1
 14263 168e 0200     		.2byte	0x2
 14264 1690 7D       		.byte	0x7d
 14265 1691 04       		.sleb128 4
 14266 1692 06000000 		.4byte	.LCFI1
 14267 1696 14010000 		.4byte	.LFE44
 14268 169a 0200     		.2byte	0x2
 14269 169c 7D       		.byte	0x7d
 14270 169d 10       		.sleb128 16
 14271 169e 00000000 		.4byte	0
 14272 16a2 00000000 		.4byte	0
 14273              	.LLST1:
 14274 16a6 00000000 		.4byte	.LVL0
 14275 16aa 1E000000 		.4byte	.LVL1
 14276 16ae 0100     		.2byte	0x1
 14277 16b0 50       		.byte	0x50
 14278 16b1 1E000000 		.4byte	.LVL1
 14279 16b5 24000000 		.4byte	.LVL2
 14280 16b9 0400     		.2byte	0x4
 14281 16bb F3       		.byte	0xf3
 14282 16bc 01       		.uleb128 0x1
 14283 16bd 50       		.byte	0x50
 14284 16be 9F       		.byte	0x9f
 14285 16bf 24000000 		.4byte	.LVL2
 14286 16c3 5A000000 		.4byte	.LVL3
 14287 16c7 0100     		.2byte	0x1
 14288 16c9 50       		.byte	0x50
 14289 16ca 5A000000 		.4byte	.LVL3
 14290 16ce 6C000000 		.4byte	.LVL5
 14291 16d2 0400     		.2byte	0x4
 14292 16d4 F3       		.byte	0xf3
ARM GAS  C:\Users\EBANO_~1\AppData\Local\Temp\ccKJ5gfE.s 			page 279


 14293 16d5 01       		.uleb128 0x1
 14294 16d6 50       		.byte	0x50
 14295 16d7 9F       		.byte	0x9f
 14296 16d8 6C000000 		.4byte	.LVL5
 14297 16dc 14010000 		.4byte	.LFE44
 14298 16e0 0100     		.2byte	0x1
 14299 16e2 50       		.byte	0x50
 14300 16e3 00000000 		.4byte	0
 14301 16e7 00000000 		.4byte	0
 14302              	.LLST2:
 14303 16eb C6000000 		.4byte	.LVL6
 14304 16ef D0000000 		.4byte	.LVL9
 14305 16f3 0200     		.2byte	0x2
 14306 16f5 30       		.byte	0x30
 14307 16f6 9F       		.byte	0x9f
 14308 16f7 00000000 		.4byte	0
 14309 16fb 00000000 		.4byte	0
 14310              	.LLST3:
 14311 16ff C6000000 		.4byte	.LVL6
 14312 1703 CE000000 		.4byte	.LVL8
 14313 1707 0100     		.2byte	0x1
 14314 1709 53       		.byte	0x53
 14315 170a CE000000 		.4byte	.LVL8
 14316 170e D0000000 		.4byte	.LVL9
 14317 1712 0300     		.2byte	0x3
 14318 1714 73       		.byte	0x73
 14319 1715 01       		.sleb128 1
 14320 1716 9F       		.byte	0x9f
 14321 1717 00000000 		.4byte	0
 14322 171b 00000000 		.4byte	0
 14323              	.LLST4:
 14324 171f C6000000 		.4byte	.LVL6
 14325 1723 CC000000 		.4byte	.LVL7
 14326 1727 0200     		.2byte	0x2
 14327 1729 30       		.byte	0x30
 14328 172a 9F       		.byte	0x9f
 14329 172b CC000000 		.4byte	.LVL7
 14330 172f CE000000 		.4byte	.LVL8
 14331 1733 0300     		.2byte	0x3
 14332 1735 73       		.byte	0x73
 14333 1736 7F       		.sleb128 -1
 14334 1737 9F       		.byte	0x9f
 14335 1738 CE000000 		.4byte	.LVL8
 14336 173c D0000000 		.4byte	.LVL9
 14337 1740 0300     		.2byte	0x3
 14338 1742 73       		.byte	0x73
 14339 1743 00       		.sleb128 0
 14340 1744 9F       		.byte	0x9f
 14341 1745 00000000 		.4byte	0
 14342 1749 00000000 		.4byte	0
 14343              	.LLST97:
 14344 174d 00000000 		.4byte	.LFB62
 14345 1751 02000000 		.4byte	.LCFI34
 14346 1755 0200     		.2byte	0x2
 14347 1757 7D       		.byte	0x7d
 14348 1758 00       		.sleb128 0
 14349 1759 02000000 		.4byte	.LCFI34
ARM GAS  C:\Users\EBANO_~1\AppData\Local\Temp\ccKJ5gfE.s 			page 280


 14350 175d 06000000 		.4byte	.LCFI35
 14351 1761 0200     		.2byte	0x2
 14352 1763 7D       		.byte	0x7d
 14353 1764 14       		.sleb128 20
 14354 1765 06000000 		.4byte	.LCFI35
 14355 1769 D8000000 		.4byte	.LFE62
 14356 176d 0200     		.2byte	0x2
 14357 176f 7D       		.byte	0x7d
 14358 1770 20       		.sleb128 32
 14359 1771 00000000 		.4byte	0
 14360 1775 00000000 		.4byte	0
 14361              	.LLST98:
 14362 1779 00000000 		.4byte	.LVL290
 14363 177d 0E000000 		.4byte	.LVL292
 14364 1781 0100     		.2byte	0x1
 14365 1783 50       		.byte	0x50
 14366 1784 0E000000 		.4byte	.LVL292
 14367 1788 62000000 		.4byte	.LVL300
 14368 178c 0100     		.2byte	0x1
 14369 178e 54       		.byte	0x54
 14370 178f 62000000 		.4byte	.LVL300
 14371 1793 66000000 		.4byte	.LVL302
 14372 1797 0400     		.2byte	0x4
 14373 1799 F3       		.byte	0xf3
 14374 179a 01       		.uleb128 0x1
 14375 179b 50       		.byte	0x50
 14376 179c 9F       		.byte	0x9f
 14377 179d 66000000 		.4byte	.LVL302
 14378 17a1 A6000000 		.4byte	.LVL311
 14379 17a5 0100     		.2byte	0x1
 14380 17a7 54       		.byte	0x54
 14381 17a8 A6000000 		.4byte	.LVL311
 14382 17ac D8000000 		.4byte	.LFE62
 14383 17b0 0400     		.2byte	0x4
 14384 17b2 F3       		.byte	0xf3
 14385 17b3 01       		.uleb128 0x1
 14386 17b4 50       		.byte	0x50
 14387 17b5 9F       		.byte	0x9f
 14388 17b6 00000000 		.4byte	0
 14389 17ba 00000000 		.4byte	0
 14390              	.LLST99:
 14391 17be 00000000 		.4byte	.LVL290
 14392 17c2 24000000 		.4byte	.LVL294
 14393 17c6 0200     		.2byte	0x2
 14394 17c8 30       		.byte	0x30
 14395 17c9 9F       		.byte	0x9f
 14396 17ca 24000000 		.4byte	.LVL294
 14397 17ce 3A000000 		.4byte	.LVL296
 14398 17d2 0700     		.2byte	0x7
 14399 17d4 76       		.byte	0x76
 14400 17d5 00       		.sleb128 0
 14401 17d6 48       		.byte	0x48
 14402 17d7 24       		.byte	0x24
 14403 17d8 30       		.byte	0x30
 14404 17d9 29       		.byte	0x29
 14405 17da 9F       		.byte	0x9f
 14406 17db 3A000000 		.4byte	.LVL296
ARM GAS  C:\Users\EBANO_~1\AppData\Local\Temp\ccKJ5gfE.s 			page 281


 14407 17df 62000000 		.4byte	.LVL300
 14408 17e3 0100     		.2byte	0x1
 14409 17e5 57       		.byte	0x57
 14410 17e6 66000000 		.4byte	.LVL302
 14411 17ea 7A000000 		.4byte	.LVL304
 14412 17ee 0200     		.2byte	0x2
 14413 17f0 31       		.byte	0x31
 14414 17f1 9F       		.byte	0x9f
 14415 17f2 7E000000 		.4byte	.LVL305
 14416 17f6 82000000 		.4byte	.LVL306
 14417 17fa 0700     		.2byte	0x7
 14418 17fc 76       		.byte	0x76
 14419 17fd 00       		.sleb128 0
 14420 17fe 48       		.byte	0x48
 14421 17ff 24       		.byte	0x24
 14422 1800 30       		.byte	0x30
 14423 1801 29       		.byte	0x29
 14424 1802 9F       		.byte	0x9f
 14425 1803 86000000 		.4byte	.LVL307
 14426 1807 9A000000 		.4byte	.LVL309
 14427 180b 0100     		.2byte	0x1
 14428 180d 57       		.byte	0x57
 14429 180e 9E000000 		.4byte	.LVL310
 14430 1812 D8000000 		.4byte	.LFE62
 14431 1816 0100     		.2byte	0x1
 14432 1818 57       		.byte	0x57
 14433 1819 00000000 		.4byte	0
 14434 181d 00000000 		.4byte	0
 14435              	.LLST100:
 14436 1821 00000000 		.4byte	.LVL290
 14437 1825 5C000000 		.4byte	.LVL299
 14438 1829 0200     		.2byte	0x2
 14439 182b 30       		.byte	0x30
 14440 182c 9F       		.byte	0x9f
 14441 182d 5C000000 		.4byte	.LVL299
 14442 1831 62000000 		.4byte	.LVL300
 14443 1835 0200     		.2byte	0x2
 14444 1837 31       		.byte	0x31
 14445 1838 9F       		.byte	0x9f
 14446 1839 66000000 		.4byte	.LVL302
 14447 183d 7A000000 		.4byte	.LVL304
 14448 1841 0200     		.2byte	0x2
 14449 1843 30       		.byte	0x30
 14450 1844 9F       		.byte	0x9f
 14451 1845 7E000000 		.4byte	.LVL305
 14452 1849 92000000 		.4byte	.LVL308
 14453 184d 0200     		.2byte	0x2
 14454 184f 30       		.byte	0x30
 14455 1850 9F       		.byte	0x9f
 14456 1851 92000000 		.4byte	.LVL308
 14457 1855 9A000000 		.4byte	.LVL309
 14458 1859 0200     		.2byte	0x2
 14459 185b 31       		.byte	0x31
 14460 185c 9F       		.byte	0x9f
 14461 185d 9A000000 		.4byte	.LVL309
 14462 1861 D8000000 		.4byte	.LFE62
 14463 1865 0200     		.2byte	0x2
ARM GAS  C:\Users\EBANO_~1\AppData\Local\Temp\ccKJ5gfE.s 			page 282


 14464 1867 30       		.byte	0x30
 14465 1868 9F       		.byte	0x9f
 14466 1869 00000000 		.4byte	0
 14467 186d 00000000 		.4byte	0
 14468              	.LLST101:
 14469 1871 04000000 		.4byte	.LVL291
 14470 1875 64000000 		.4byte	.LVL301
 14471 1879 0100     		.2byte	0x1
 14472 187b 55       		.byte	0x55
 14473 187c 66000000 		.4byte	.LVL302
 14474 1880 D8000000 		.4byte	.LFE62
 14475 1884 0100     		.2byte	0x1
 14476 1886 55       		.byte	0x55
 14477 1887 00000000 		.4byte	0
 14478 188b 00000000 		.4byte	0
 14479              	.LLST102:
 14480 188f 54000000 		.4byte	.LVL297
 14481 1893 57000000 		.4byte	.LVL298-1
 14482 1897 0300     		.2byte	0x3
 14483 1899 74       		.byte	0x74
 14484 189a 00       		.sleb128 0
 14485 189b 06       		.byte	0x6
 14486 189c 66000000 		.4byte	.LVL302
 14487 18a0 69000000 		.4byte	.LVL303-1
 14488 18a4 0300     		.2byte	0x3
 14489 18a6 74       		.byte	0x74
 14490 18a7 00       		.sleb128 0
 14491 18a8 06       		.byte	0x6
 14492 18a9 00000000 		.4byte	0
 14493 18ad 00000000 		.4byte	0
 14494              	.LLST103:
 14495 18b1 00000000 		.4byte	.LFB63
 14496 18b5 02000000 		.4byte	.LCFI36
 14497 18b9 0200     		.2byte	0x2
 14498 18bb 7D       		.byte	0x7d
 14499 18bc 00       		.sleb128 0
 14500 18bd 02000000 		.4byte	.LCFI36
 14501 18c1 30000000 		.4byte	.LFE63
 14502 18c5 0200     		.2byte	0x2
 14503 18c7 7D       		.byte	0x7d
 14504 18c8 10       		.sleb128 16
 14505 18c9 00000000 		.4byte	0
 14506 18cd 00000000 		.4byte	0
 14507              	.LLST104:
 14508 18d1 00000000 		.4byte	.LVL313
 14509 18d5 06000000 		.4byte	.LVL315
 14510 18d9 0100     		.2byte	0x1
 14511 18db 50       		.byte	0x50
 14512 18dc 06000000 		.4byte	.LVL315
 14513 18e0 30000000 		.4byte	.LFE63
 14514 18e4 0400     		.2byte	0x4
 14515 18e6 F3       		.byte	0xf3
 14516 18e7 01       		.uleb128 0x1
 14517 18e8 50       		.byte	0x50
 14518 18e9 9F       		.byte	0x9f
 14519 18ea 00000000 		.4byte	0
 14520 18ee 00000000 		.4byte	0
ARM GAS  C:\Users\EBANO_~1\AppData\Local\Temp\ccKJ5gfE.s 			page 283


 14521              	.LLST105:
 14522 18f2 04000000 		.4byte	.LVL314
 14523 18f6 28000000 		.4byte	.LVL318
 14524 18fa 0100     		.2byte	0x1
 14525 18fc 54       		.byte	0x54
 14526 18fd 00000000 		.4byte	0
 14527 1901 00000000 		.4byte	0
 14528              		.section	.debug_aranges,"",%progbits
 14529 0000 CC000000 		.4byte	0xcc
 14530 0004 0200     		.2byte	0x2
 14531 0006 00000000 		.4byte	.Ldebug_info0
 14532 000a 04       		.byte	0x4
 14533 000b 00       		.byte	0
 14534 000c 0000     		.2byte	0
 14535 000e 0000     		.2byte	0
 14536 0010 00000000 		.4byte	.LFB44
 14537 0014 14010000 		.4byte	.LFE44-.LFB44
 14538 0018 00000000 		.4byte	.LFB45
 14539 001c 24000000 		.4byte	.LFE45-.LFB45
 14540 0020 00000000 		.4byte	.LFB46
 14541 0024 94000000 		.4byte	.LFE46-.LFB46
 14542 0028 00000000 		.4byte	.LFB47
 14543 002c 0C000000 		.4byte	.LFE47-.LFB47
 14544 0030 00000000 		.4byte	.LFB48
 14545 0034 48000000 		.4byte	.LFE48-.LFB48
 14546 0038 00000000 		.4byte	.LFB49
 14547 003c 44010000 		.4byte	.LFE49-.LFB49
 14548 0040 00000000 		.4byte	.LFB50
 14549 0044 34000000 		.4byte	.LFE50-.LFB50
 14550 0048 00000000 		.4byte	.LFB51
 14551 004c 94000000 		.4byte	.LFE51-.LFB51
 14552 0050 00000000 		.4byte	.LFB52
 14553 0054 0C010000 		.4byte	.LFE52-.LFB52
 14554 0058 00000000 		.4byte	.LFB53
 14555 005c 3C010000 		.4byte	.LFE53-.LFB53
 14556 0060 00000000 		.4byte	.LFB54
 14557 0064 FC020000 		.4byte	.LFE54-.LFB54
 14558 0068 00000000 		.4byte	.LFB55
 14559 006c 64000000 		.4byte	.LFE55-.LFB55
 14560 0070 00000000 		.4byte	.LFB56
 14561 0074 08010000 		.4byte	.LFE56-.LFB56
 14562 0078 00000000 		.4byte	.LFB57
 14563 007c 06000000 		.4byte	.LFE57-.LFB57
 14564 0080 00000000 		.4byte	.LFB58
 14565 0084 70000000 		.4byte	.LFE58-.LFB58
 14566 0088 00000000 		.4byte	.LFB59
 14567 008c 02000000 		.4byte	.LFE59-.LFB59
 14568 0090 00000000 		.4byte	.LFB60
 14569 0094 34000000 		.4byte	.LFE60-.LFB60
 14570 0098 00000000 		.4byte	.LFB61
 14571 009c BC010000 		.4byte	.LFE61-.LFB61
 14572 00a0 00000000 		.4byte	.LFB62
 14573 00a4 D8000000 		.4byte	.LFE62-.LFB62
 14574 00a8 00000000 		.4byte	.LFB63
 14575 00ac 30000000 		.4byte	.LFE63-.LFB63
 14576 00b0 00000000 		.4byte	.LFB64
 14577 00b4 50000000 		.4byte	.LFE64-.LFB64
ARM GAS  C:\Users\EBANO_~1\AppData\Local\Temp\ccKJ5gfE.s 			page 284


 14578 00b8 00000000 		.4byte	.LFB65
 14579 00bc 0E000000 		.4byte	.LFE65-.LFB65
 14580 00c0 00000000 		.4byte	.LFB66
 14581 00c4 38000000 		.4byte	.LFE66-.LFB66
 14582 00c8 00000000 		.4byte	0
 14583 00cc 00000000 		.4byte	0
 14584              		.section	.debug_ranges,"",%progbits
 14585              	.Ldebug_ranges0:
 14586 0000 32000000 		.4byte	.LBB31
 14587 0004 34000000 		.4byte	.LBE31
 14588 0008 36000000 		.4byte	.LBB46
 14589 000c 3A000000 		.4byte	.LBE46
 14590 0010 40000000 		.4byte	.LBB47
 14591 0014 44010000 		.4byte	.LBE47
 14592 0018 00000000 		.4byte	0
 14593 001c 00000000 		.4byte	0
 14594 0020 32000000 		.4byte	.LBB32
 14595 0024 34000000 		.4byte	.LBE32
 14596 0028 36000000 		.4byte	.LBB36
 14597 002c 3A000000 		.4byte	.LBE36
 14598 0030 48000000 		.4byte	.LBB37
 14599 0034 66000000 		.4byte	.LBE37
 14600 0038 00000000 		.4byte	0
 14601 003c 00000000 		.4byte	0
 14602 0040 D0000000 		.4byte	.LBB40
 14603 0044 D4000000 		.4byte	.LBE40
 14604 0048 E2000000 		.4byte	.LBB44
 14605 004c F4000000 		.4byte	.LBE44
 14606 0050 2A010000 		.4byte	.LBB45
 14607 0054 44010000 		.4byte	.LBE45
 14608 0058 00000000 		.4byte	0
 14609 005c 00000000 		.4byte	0
 14610 0060 18000000 		.4byte	.LBB48
 14611 0064 1C000000 		.4byte	.LBE48
 14612 0068 1E000000 		.4byte	.LBB52
 14613 006c 32000000 		.4byte	.LBE52
 14614 0070 70000000 		.4byte	.LBB53
 14615 0074 72000000 		.4byte	.LBE53
 14616 0078 00000000 		.4byte	0
 14617 007c 00000000 		.4byte	0
 14618 0080 28000000 		.4byte	.LBB54
 14619 0084 2A000000 		.4byte	.LBE54
 14620 0088 2C000000 		.4byte	.LBB60
 14621 008c 30000000 		.4byte	.LBE60
 14622 0090 34000000 		.4byte	.LBB61
 14623 0094 36000000 		.4byte	.LBE61
 14624 0098 3C000000 		.4byte	.LBB62
 14625 009c 4A000000 		.4byte	.LBE62
 14626 00a0 4C000000 		.4byte	.LBB67
 14627 00a4 4E000000 		.4byte	.LBE67
 14628 00a8 00000000 		.4byte	0
 14629 00ac 00000000 		.4byte	0
 14630 00b0 4A000000 		.4byte	.LBB63
 14631 00b4 4C000000 		.4byte	.LBE63
 14632 00b8 4E000000 		.4byte	.LBB68
 14633 00bc 64000000 		.4byte	.LBE68
 14634 00c0 E4000000 		.4byte	.LBB69
ARM GAS  C:\Users\EBANO_~1\AppData\Local\Temp\ccKJ5gfE.s 			page 285


 14635 00c4 EA000000 		.4byte	.LBE69
 14636 00c8 00000000 		.4byte	0
 14637 00cc 00000000 		.4byte	0
 14638 00d0 22000000 		.4byte	.LBB75
 14639 00d4 28000000 		.4byte	.LBE75
 14640 00d8 5C000000 		.4byte	.LBB76
 14641 00dc 50010000 		.4byte	.LBE76
 14642 00e0 E6010000 		.4byte	.LBB77
 14643 00e4 D2020000 		.4byte	.LBE77
 14644 00e8 E8020000 		.4byte	.LBB78
 14645 00ec FC020000 		.4byte	.LBE78
 14646 00f0 00000000 		.4byte	0
 14647 00f4 00000000 		.4byte	0
 14648 00f8 02000000 		.4byte	.LBB79
 14649 00fc 04000000 		.4byte	.LBE79
 14650 0100 06000000 		.4byte	.LBB84
 14651 0104 08000000 		.4byte	.LBE84
 14652 0108 0C000000 		.4byte	.LBB85
 14653 010c 24000000 		.4byte	.LBE85
 14654 0110 52000000 		.4byte	.LBB86
 14655 0114 54000000 		.4byte	.LBE86
 14656 0118 00000000 		.4byte	0
 14657 011c 00000000 		.4byte	0
 14658 0120 12000000 		.4byte	.LBB93
 14659 0124 16000000 		.4byte	.LBE93
 14660 0128 AC000000 		.4byte	.LBB108
 14661 012c CC000000 		.4byte	.LBE108
 14662 0130 00000000 		.4byte	0
 14663 0134 00000000 		.4byte	0
 14664 0138 20000000 		.4byte	.LBB96
 14665 013c A2000000 		.4byte	.LBE96
 14666 0140 A4000000 		.4byte	.LBB107
 14667 0144 AA000000 		.4byte	.LBE107
 14668 0148 D4000000 		.4byte	.LBB109
 14669 014c D8000000 		.4byte	.LBE109
 14670 0150 DC000000 		.4byte	.LBB110
 14671 0154 F2000000 		.4byte	.LBE110
 14672 0158 00000000 		.4byte	0
 14673 015c 00000000 		.4byte	0
 14674 0160 56000000 		.4byte	.LBB98
 14675 0164 5A000000 		.4byte	.LBE98
 14676 0168 68000000 		.4byte	.LBB102
 14677 016c 7C000000 		.4byte	.LBE102
 14678 0170 DC000000 		.4byte	.LBB103
 14679 0174 F2000000 		.4byte	.LBE103
 14680 0178 00000000 		.4byte	0
 14681 017c 00000000 		.4byte	0
 14682 0180 02000000 		.4byte	.LBB111
 14683 0184 04000000 		.4byte	.LBE111
 14684 0188 06000000 		.4byte	.LBB115
 14685 018c 08000000 		.4byte	.LBE115
 14686 0190 0C000000 		.4byte	.LBB116
 14687 0194 2E000000 		.4byte	.LBE116
 14688 0198 00000000 		.4byte	0
 14689 019c 00000000 		.4byte	0
 14690 01a0 6A000000 		.4byte	.LBB121
 14691 01a4 70000000 		.4byte	.LBE121
ARM GAS  C:\Users\EBANO_~1\AppData\Local\Temp\ccKJ5gfE.s 			page 286


 14692 01a8 74000000 		.4byte	.LBB134
 14693 01ac E2000000 		.4byte	.LBE134
 14694 01b0 24010000 		.4byte	.LBB135
 14695 01b4 34010000 		.4byte	.LBE135
 14696 01b8 38010000 		.4byte	.LBB136
 14697 01bc 98010000 		.4byte	.LBE136
 14698 01c0 00000000 		.4byte	0
 14699 01c4 00000000 		.4byte	0
 14700 01c8 6E000000 		.4byte	.LBB123
 14701 01cc 70000000 		.4byte	.LBE123
 14702 01d0 74000000 		.4byte	.LBB128
 14703 01d4 E2000000 		.4byte	.LBE128
 14704 01d8 2C010000 		.4byte	.LBB129
 14705 01dc 34010000 		.4byte	.LBE129
 14706 01e0 38010000 		.4byte	.LBB130
 14707 01e4 98010000 		.4byte	.LBE130
 14708 01e8 00000000 		.4byte	0
 14709 01ec 00000000 		.4byte	0
 14710 01f0 4E000000 		.4byte	.LBB137
 14711 01f4 50000000 		.4byte	.LBE137
 14712 01f8 54000000 		.4byte	.LBB142
 14713 01fc 5C000000 		.4byte	.LBE142
 14714 0200 66000000 		.4byte	.LBB143
 14715 0204 7A000000 		.4byte	.LBE143
 14716 0208 86000000 		.4byte	.LBB144
 14717 020c 92000000 		.4byte	.LBE144
 14718 0210 00000000 		.4byte	0
 14719 0214 00000000 		.4byte	0
 14720 0218 14000000 		.4byte	.LBB145
 14721 021c 16000000 		.4byte	.LBE145
 14722 0220 1C000000 		.4byte	.LBB149
 14723 0224 24000000 		.4byte	.LBE149
 14724 0228 2A000000 		.4byte	.LBB150
 14725 022c 30000000 		.4byte	.LBE150
 14726 0230 00000000 		.4byte	0
 14727 0234 00000000 		.4byte	0
 14728 0238 00000000 		.4byte	.LFB44
 14729 023c 14010000 		.4byte	.LFE44
 14730 0240 00000000 		.4byte	.LFB45
 14731 0244 24000000 		.4byte	.LFE45
 14732 0248 00000000 		.4byte	.LFB46
 14733 024c 94000000 		.4byte	.LFE46
 14734 0250 00000000 		.4byte	.LFB47
 14735 0254 0C000000 		.4byte	.LFE47
 14736 0258 00000000 		.4byte	.LFB48
 14737 025c 48000000 		.4byte	.LFE48
 14738 0260 00000000 		.4byte	.LFB49
 14739 0264 44010000 		.4byte	.LFE49
 14740 0268 00000000 		.4byte	.LFB50
 14741 026c 34000000 		.4byte	.LFE50
 14742 0270 00000000 		.4byte	.LFB51
 14743 0274 94000000 		.4byte	.LFE51
 14744 0278 00000000 		.4byte	.LFB52
 14745 027c 0C010000 		.4byte	.LFE52
 14746 0280 00000000 		.4byte	.LFB53
 14747 0284 3C010000 		.4byte	.LFE53
 14748 0288 00000000 		.4byte	.LFB54
ARM GAS  C:\Users\EBANO_~1\AppData\Local\Temp\ccKJ5gfE.s 			page 287


 14749 028c FC020000 		.4byte	.LFE54
 14750 0290 00000000 		.4byte	.LFB55
 14751 0294 64000000 		.4byte	.LFE55
 14752 0298 00000000 		.4byte	.LFB56
 14753 029c 08010000 		.4byte	.LFE56
 14754 02a0 00000000 		.4byte	.LFB57
 14755 02a4 06000000 		.4byte	.LFE57
 14756 02a8 00000000 		.4byte	.LFB58
 14757 02ac 70000000 		.4byte	.LFE58
 14758 02b0 00000000 		.4byte	.LFB59
 14759 02b4 02000000 		.4byte	.LFE59
 14760 02b8 00000000 		.4byte	.LFB60
 14761 02bc 34000000 		.4byte	.LFE60
 14762 02c0 00000000 		.4byte	.LFB61
 14763 02c4 BC010000 		.4byte	.LFE61
 14764 02c8 00000000 		.4byte	.LFB62
 14765 02cc D8000000 		.4byte	.LFE62
 14766 02d0 00000000 		.4byte	.LFB63
 14767 02d4 30000000 		.4byte	.LFE63
 14768 02d8 00000000 		.4byte	.LFB64
 14769 02dc 50000000 		.4byte	.LFE64
 14770 02e0 00000000 		.4byte	.LFB65
 14771 02e4 0E000000 		.4byte	.LFE65
 14772 02e8 00000000 		.4byte	.LFB66
 14773 02ec 38000000 		.4byte	.LFE66
 14774 02f0 00000000 		.4byte	0
 14775 02f4 00000000 		.4byte	0
 14776              		.section	.debug_line,"",%progbits
 14777              	.Ldebug_line0:
 14778 0000 2B090000 		.section	.debug_str,"MS",%progbits,1
 14778      0200B303 
 14778      00000201 
 14778      FB0E0D00 
 14778      01010101 
 14779              	.LASF216:
 14780 0000 52585F53 		.ascii	"RX_SLOT_WIN_CLASS_C\000"
 14780      4C4F545F 
 14780      57494E5F 
 14780      434C4153 
 14780      535F4300 
 14781              	.LASF415:
 14782 0014 73526567 		.ascii	"sRegionCommonLinkAdrReqVerifyParams\000"
 14782      696F6E43 
 14782      6F6D6D6F 
 14782      6E4C696E 
 14782      6B416472 
 14783              	.LASF266:
 14784 0038 5048595F 		.ascii	"PHY_JOIN_ACCEPT_DELAY1\000"
 14784      4A4F494E 
 14784      5F414343 
 14784      4550545F 
 14784      44454C41 
 14785              	.LASF267:
 14786 004f 5048595F 		.ascii	"PHY_JOIN_ACCEPT_DELAY2\000"
 14786      4A4F494E 
 14786      5F414343 
 14786      4550545F 
ARM GAS  C:\Users\EBANO_~1\AppData\Local\Temp\ccKJ5gfE.s 			page 288


 14786      44454C41 
 14787              	.LASF313:
 14788 0066 52667531 		.ascii	"Rfu1Size\000"
 14788      53697A65 
 14788      00
 14789              	.LASF141:
 14790 006f 52657669 		.ascii	"Revision\000"
 14790      73696F6E 
 14790      00
 14791              	.LASF435:
 14792 0078 4D617850 		.ascii	"MaxPayloadOfDatarateRepeaterCN779\000"
 14792      61796C6F 
 14792      61644F66 
 14792      44617461 
 14792      72617465 
 14793              	.LASF427:
 14794 009a 44617461 		.ascii	"Datarates\000"
 14794      72617465 
 14794      7300
 14795              	.LASF1:
 14796 00a4 5F5F7569 		.ascii	"__uint8_t\000"
 14796      6E74385F 
 14796      7400
 14797              	.LASF311:
 14798 00ae 73426561 		.ascii	"sBeaconFormat\000"
 14798      636F6E46 
 14798      6F726D61 
 14798      7400
 14799              	.LASF361:
 14800 00bc 5278436F 		.ascii	"RxConfigParams_t\000"
 14800      6E666967 
 14800      50617261 
 14800      6D735F74 
 14800      00
 14801              	.LASF147:
 14802 00cd 5F426F6F 		.ascii	"_Bool\000"
 14802      6C00
 14803              	.LASF513:
 14804 00d3 52656769 		.ascii	"RegionCN779ApplyCFList\000"
 14804      6F6E434E 
 14804      37373941 
 14804      70706C79 
 14804      43464C69 
 14805              	.LASF79:
 14806 00ea 5F6D6273 		.ascii	"_mbstate\000"
 14806      74617465 
 14806      00
 14807              	.LASF512:
 14808 00f3 6368616E 		.ascii	"chanMaskSet\000"
 14808      4D61736B 
 14808      53657400 
 14809              	.LASF58:
 14810 00ff 5F617465 		.ascii	"_atexit\000"
 14810      78697400 
 14811              	.LASF296:
 14812 0107 5048595F 		.ascii	"PHY_BEACON_FORMAT\000"
 14812      42454143 
ARM GAS  C:\Users\EBANO_~1\AppData\Local\Temp\ccKJ5gfE.s 			page 289


 14812      4F4E5F46 
 14812      4F524D41 
 14812      5400
 14813              	.LASF48:
 14814 0119 5F5F746D 		.ascii	"__tm_mon\000"
 14814      5F6D6F6E 
 14814      00
 14815              	.LASF56:
 14816 0122 5F666E74 		.ascii	"_fntypes\000"
 14816      79706573 
 14816      00
 14817              	.LASF86:
 14818 012b 5F696E63 		.ascii	"_inc\000"
 14818      00
 14819              	.LASF59:
 14820 0130 5F696E64 		.ascii	"_ind\000"
 14820      00
 14821              	.LASF195:
 14822 0135 57726974 		.ascii	"WriteBuffer\000"
 14822      65427566 
 14822      66657200 
 14823              	.LASF170:
 14824 0141 52784572 		.ascii	"RxError\000"
 14824      726F7200 
 14825              	.LASF18:
 14826 0149 75696E74 		.ascii	"uint16_t\000"
 14826      31365F74 
 14826      00
 14827              	.LASF196:
 14828 0152 52656164 		.ascii	"ReadBuffer\000"
 14828      42756666 
 14828      657200
 14829              	.LASF520:
 14830 015d 52656769 		.ascii	"RegionCN779GetNvmCtx\000"
 14830      6F6E434E 
 14830      37373947 
 14830      65744E76 
 14830      6D437478 
 14831              	.LASF430:
 14832 0172 52656769 		.ascii	"RegionCommonRxBeaconSetupParams_t\000"
 14832      6F6E436F 
 14832      6D6D6F6E 
 14832      52784265 
 14832      61636F6E 
 14833              	.LASF65:
 14834 0194 5F666C61 		.ascii	"_flags\000"
 14834      677300
 14835              	.LASF526:
 14836 019b 52656769 		.ascii	"RegionCN779GetPhyParam\000"
 14836      6F6E434E 
 14836      37373947 
 14836      65745068 
 14836      79506172 
 14837              	.LASF310:
 14838 01b2 4368616E 		.ascii	"ChannelsMask_t\000"
 14838      6E656C73 
 14838      4D61736B 
ARM GAS  C:\Users\EBANO_~1\AppData\Local\Temp\ccKJ5gfE.s 			page 290


 14838      5F7400
 14839              	.LASF96:
 14840 01c1 5F637674 		.ascii	"_cvtlen\000"
 14840      6C656E00 
 14841              	.LASF230:
 14842 01c9 4C4F5241 		.ascii	"LORAMAC_STATUS_NO_NETWORK_JOINED\000"
 14842      4D41435F 
 14842      53544154 
 14842      55535F4E 
 14842      4F5F4E45 
 14843              	.LASF100:
 14844 01ea 5F736967 		.ascii	"_sig_func\000"
 14844      5F66756E 
 14844      6300
 14845              	.LASF370:
 14846 01f4 41647245 		.ascii	"AdrEnabled\000"
 14846      6E61626C 
 14846      656400
 14847              	.LASF283:
 14848 01ff 5048595F 		.ascii	"PHY_BEACON_RESERVED\000"
 14848      42454143 
 14848      4F4E5F52 
 14848      45534552 
 14848      56454400 
 14849              	.LASF393:
 14850 0213 54785469 		.ascii	"TxTimeOnAir\000"
 14850      6D654F6E 
 14850      41697200 
 14851              	.LASF78:
 14852 021f 5F6C6F63 		.ascii	"_lock\000"
 14852      6B00
 14853              	.LASF74:
 14854 0225 5F6E6275 		.ascii	"_nbuf\000"
 14854      6600
 14855              	.LASF133:
 14856 022b 5F756E75 		.ascii	"_unused\000"
 14856      73656400 
 14857              	.LASF548:
 14858 0233 72616E64 		.ascii	"randr\000"
 14858      7200
 14859              	.LASF397:
 14860 0239 4C617374 		.ascii	"LastAggrTx\000"
 14860      41676772 
 14860      547800
 14861              	.LASF398:
 14862 0244 4E657874 		.ascii	"NextChanParams_t\000"
 14862      4368616E 
 14862      50617261 
 14862      6D735F74 
 14862      00
 14863              	.LASF169:
 14864 0255 52785469 		.ascii	"RxTimeout\000"
 14864      6D656F75 
 14864      7400
 14865              	.LASF482:
 14866 025f 52656769 		.ascii	"RegionCN779LinkAdrReq\000"
 14866      6F6E434E 
ARM GAS  C:\Users\EBANO_~1\AppData\Local\Temp\ccKJ5gfE.s 			page 291


 14866      3737394C 
 14866      696E6B41 
 14866      64725265 
 14867              	.LASF301:
 14868 0275 50687941 		.ascii	"PhyAttribute_t\000"
 14868      74747269 
 14868      62757465 
 14868      5F7400
 14869              	.LASF167:
 14870 0284 54785469 		.ascii	"TxTimeout\000"
 14870      6D656F75 
 14870      7400
 14871              	.LASF149:
 14872 028e 44437963 		.ascii	"DCycle\000"
 14872      6C6500
 14873              	.LASF355:
 14874 0295 44724F66 		.ascii	"DrOffset\000"
 14874      66736574 
 14874      00
 14875              	.LASF284:
 14876 029e 5048595F 		.ascii	"PHY_BEACON_GUARD\000"
 14876      42454143 
 14876      4F4E5F47 
 14876      55415244 
 14876      00
 14877              	.LASF343:
 14878 02af 44617461 		.ascii	"DatarateParams\000"
 14878      72617465 
 14878      50617261 
 14878      6D7300
 14879              	.LASF142:
 14880 02be 4D696E6F 		.ascii	"Minor\000"
 14880      7200
 14881              	.LASF420:
 14882 02c4 4D696E54 		.ascii	"MinTxPower\000"
 14882      78506F77 
 14882      657200
 14883              	.LASF479:
 14884 02cf 6E657743 		.ascii	"newChannelReq\000"
 14884      68616E6E 
 14884      656C5265 
 14884      7100
 14885              	.LASF524:
 14886 02dd 52656769 		.ascii	"RegionCN779SetBandTxDone\000"
 14886      6F6E434E 
 14886      37373953 
 14886      65744261 
 14886      6E645478 
 14887              	.LASF154:
 14888 02f6 42616E64 		.ascii	"Band_t\000"
 14888      5F7400
 14889              	.LASF396:
 14890 02fd 41676772 		.ascii	"AggrTimeOff\000"
 14890      54696D65 
 14890      4F666600 
 14891              	.LASF19:
 14892 0309 696E7433 		.ascii	"int32_t\000"
ARM GAS  C:\Users\EBANO_~1\AppData\Local\Temp\ccKJ5gfE.s 			page 292


 14892      325F7400 
 14893              	.LASF111:
 14894 0311 5F616464 		.ascii	"_add\000"
 14894      00
 14895              	.LASF481:
 14896 0316 72785061 		.ascii	"rxParamSetupReq\000"
 14896      72616D53 
 14896      65747570 
 14896      52657100 
 14897              	.LASF161:
 14898 0326 52465F49 		.ascii	"RF_IDLE\000"
 14898      444C4500 
 14899              	.LASF150:
 14900 032e 54784D61 		.ascii	"TxMaxPower\000"
 14900      78506F77 
 14900      657200
 14901              	.LASF240:
 14902 0339 4C4F5241 		.ascii	"LORAMAC_STATUS_CRYPTO_ERROR\000"
 14902      4D41435F 
 14902      53544154 
 14902      55535F43 
 14902      52595054 
 14903              	.LASF379:
 14904 0355 4368616E 		.ascii	"ChannelId\000"
 14904      6E656C49 
 14904      6400
 14905              	.LASF375:
 14906 035f 73527850 		.ascii	"sRxParamSetupReqParams\000"
 14906      6172616D 
 14906      53657475 
 14906      70526571 
 14906      50617261 
 14907              	.LASF518:
 14908 0376 76657269 		.ascii	"verify\000"
 14908      667900
 14909              	.LASF564:
 14910 037d 5F5F6275 		.ascii	"__builtin_memset\000"
 14910      696C7469 
 14910      6E5F6D65 
 14910      6D736574 
 14910      00
 14911              	.LASF67:
 14912 038e 5F6C6266 		.ascii	"_lbfsize\000"
 14912      73697A65 
 14912      00
 14913              	.LASF258:
 14914 0397 5048595F 		.ascii	"PHY_DEF_ADR_ACK_LIMIT\000"
 14914      4445465F 
 14914      4144525F 
 14914      41434B5F 
 14914      4C494D49 
 14915              	.LASF174:
 14916 03ad 52616469 		.ascii	"Radio_s\000"
 14916      6F5F7300 
 14917              	.LASF551:
 14918 03b5 6D656D63 		.ascii	"memcpy1\000"
 14918      70793100 
ARM GAS  C:\Users\EBANO_~1\AppData\Local\Temp\ccKJ5gfE.s 			page 293


 14919              	.LASF376:
 14920 03bd 52785061 		.ascii	"RxParamSetupReqParams_t\000"
 14920      72616D53 
 14920      65747570 
 14920      52657150 
 14920      6172616D 
 14921              	.LASF516:
 14922 03d5 6368616E 		.ascii	"chanIdx\000"
 14922      49647800 
 14923              	.LASF77:
 14924 03dd 5F646174 		.ascii	"_data\000"
 14924      6100
 14925              	.LASF536:
 14926 03e3 7478506F 		.ascii	"txPowerResult\000"
 14926      77657252 
 14926      6573756C 
 14926      7400
 14927              	.LASF426:
 14928 03f1 73526567 		.ascii	"sRegionCommonRxBeaconSetupParams\000"
 14928      696F6E43 
 14928      6F6D6D6F 
 14928      6E527842 
 14928      6561636F 
 14929              	.LASF312:
 14930 0412 42656163 		.ascii	"BeaconSize\000"
 14930      6F6E5369 
 14930      7A6500
 14931              	.LASF197:
 14932 041d 5365744D 		.ascii	"SetMaxPayloadLength\000"
 14932      61785061 
 14932      796C6F61 
 14932      644C656E 
 14932      67746800 
 14933              	.LASF363:
 14934 0431 4D617845 		.ascii	"MaxEirp\000"
 14934      69727000 
 14935              	.LASF533:
 14936 0439 66726571 		.ascii	"freq\000"
 14936      00
 14937              	.LASF156:
 14938 043e 5F646179 		.ascii	"_daylight\000"
 14938      6C696768 
 14938      7400
 14939              	.LASF418:
 14940 0448 4D696E44 		.ascii	"MinDatarate\000"
 14940      61746172 
 14940      61746500 
 14941              	.LASF222:
 14942 0454 654C6F52 		.ascii	"eLoRaMacStatus\000"
 14942      614D6163 
 14942      53746174 
 14942      757300
 14943              	.LASF493:
 14944 0463 70687950 		.ascii	"phyParam\000"
 14944      6172616D 
 14944      00
 14945              	.LASF134:
ARM GAS  C:\Users\EBANO_~1\AppData\Local\Temp\ccKJ5gfE.s 			page 294


 14946 046c 5F5F6C6F 		.ascii	"__lock\000"
 14946      636B00
 14947              	.LASF81:
 14948 0473 5F726565 		.ascii	"_reent\000"
 14948      6E7400
 14949              	.LASF234:
 14950 047a 4C4F5241 		.ascii	"LORAMAC_STATUS_DUTYCYCLE_RESTRICTED\000"
 14950      4D41435F 
 14950      53544154 
 14950      55535F44 
 14950      55545943 
 14951              	.LASF327:
 14952 049e 47657450 		.ascii	"GetPhyParams_t\000"
 14952      68795061 
 14952      72616D73 
 14952      5F7400
 14953              	.LASF189:
 14954 04ad 5374616E 		.ascii	"Standby\000"
 14954      64627900 
 14955              	.LASF500:
 14956 04b5 70687944 		.ascii	"phyDr\000"
 14956      7200
 14957              	.LASF411:
 14958 04bb 4E625265 		.ascii	"NbRep\000"
 14958      7000
 14959              	.LASF102:
 14960 04c1 5F5F7366 		.ascii	"__sf\000"
 14960      00
 14961              	.LASF62:
 14962 04c6 5F626173 		.ascii	"_base\000"
 14962      6500
 14963              	.LASF193:
 14964 04cc 57726974 		.ascii	"Write\000"
 14964      6500
 14965              	.LASF120:
 14966 04d2 5F6D6274 		.ascii	"_mbtowc_state\000"
 14966      6F77635F 
 14966      73746174 
 14966      6500
 14967              	.LASF306:
 14968 04e0 496E6974 		.ascii	"InitType_t\000"
 14968      54797065 
 14968      5F7400
 14969              	.LASF444:
 14970 04eb 64617461 		.ascii	"datarate\000"
 14970      72617465 
 14970      00
 14971              	.LASF458:
 14972 04f4 52656769 		.ascii	"RegionCN779NextChannel\000"
 14972      6F6E434E 
 14972      3737394E 
 14972      65787443 
 14972      68616E6E 
 14973              	.LASF421:
 14974 050b 4D617854 		.ascii	"MaxTxPower\000"
 14974      78506F77 
 14974      657200
ARM GAS  C:\Users\EBANO_~1\AppData\Local\Temp\ccKJ5gfE.s 			page 295


 14975              	.LASF152:
 14976 0516 4C617374 		.ascii	"LastTxDoneTime\000"
 14976      5478446F 
 14976      6E655469 
 14976      6D6500
 14977              	.LASF194:
 14978 0525 52656164 		.ascii	"Read\000"
 14978      00
 14979              	.LASF43:
 14980 052a 5F5F746D 		.ascii	"__tm\000"
 14980      00
 14981              	.LASF552:
 14982 052f 52656769 		.ascii	"RegionCommonParseLinkAdrReq\000"
 14982      6F6E436F 
 14982      6D6D6F6E 
 14982      50617273 
 14982      654C696E 
 14983              	.LASF51:
 14984 054b 5F5F746D 		.ascii	"__tm_yday\000"
 14984      5F796461 
 14984      7900
 14985              	.LASF525:
 14986 0555 7478446F 		.ascii	"txDone\000"
 14986      6E6500
 14987              	.LASF254:
 14988 055c 5048595F 		.ascii	"PHY_RX_DR\000"
 14988      52585F44 
 14988      5200
 14989              	.LASF472:
 14990 0566 74797065 		.ascii	"type\000"
 14990      00
 14991              	.LASF399:
 14992 056b 73436861 		.ascii	"sChannelAddParams\000"
 14992      6E6E656C 
 14992      41646450 
 14992      6172616D 
 14992      7300
 14993              	.LASF27:
 14994 057d 5F4C4F43 		.ascii	"_LOCK_T\000"
 14994      4B5F5400 
 14995              	.LASF211:
 14996 0585 44725261 		.ascii	"DrRange\000"
 14996      6E676500 
 14997              	.LASF292:
 14998 058d 5048595F 		.ascii	"PHY_PING_SLOT_SYMBOL_TO_EXPANSION_FACTOR\000"
 14998      50494E47 
 14998      5F534C4F 
 14998      545F5359 
 14998      4D424F4C 
 14999              	.LASF201:
 15000 05b6 5278426F 		.ascii	"RxBoosted\000"
 15000      6F737465 
 15000      6400
 15001              	.LASF4:
 15002 05c0 5F5F696E 		.ascii	"__int16_t\000"
 15002      7431365F 
 15002      7400
ARM GAS  C:\Users\EBANO_~1\AppData\Local\Temp\ccKJ5gfE.s 			page 296


 15003              	.LASF514:
 15004 05ca 6170706C 		.ascii	"applyCFList\000"
 15004      7943464C 
 15004      69737400 
 15005              	.LASF6:
 15006 05d6 5F5F7569 		.ascii	"__uint16_t\000"
 15006      6E743136 
 15006      5F7400
 15007              	.LASF270:
 15008 05e1 5048595F 		.ascii	"PHY_DEF_DR1_OFFSET\000"
 15008      4445465F 
 15008      4452315F 
 15008      4F464653 
 15008      455400
 15009              	.LASF112:
 15010 05f4 5F756E75 		.ascii	"_unused_rand\000"
 15010      7365645F 
 15010      72616E64 
 15010      00
 15011              	.LASF467:
 15012 0601 52656769 		.ascii	"RegionCN779CalcBackOff\000"
 15012      6F6E434E 
 15012      37373943 
 15012      616C6342 
 15012      61636B4F 
 15013              	.LASF339:
 15014 0618 73446174 		.ascii	"sDatarateParams\000"
 15014      61726174 
 15014      65506172 
 15014      616D7300 
 15015              	.LASF274:
 15016 0628 5048595F 		.ascii	"PHY_CHANNELS_DEFAULT_MASK\000"
 15016      4348414E 
 15016      4E454C53 
 15016      5F444546 
 15016      41554C54 
 15017              	.LASF447:
 15018 0642 636F6E74 		.ascii	"continuousWave\000"
 15018      696E756F 
 15018      75735761 
 15018      766500
 15019              	.LASF448:
 15020 0651 70687954 		.ascii	"phyTxPower\000"
 15020      78506F77 
 15020      657200
 15021              	.LASF406:
 15022 065c 73527842 		.ascii	"sRxBeaconSetupParams\000"
 15022      6561636F 
 15022      6E536574 
 15022      75705061 
 15022      72616D73 
 15023              	.LASF357:
 15024 0671 57696E64 		.ascii	"WindowOffset\000"
 15024      6F774F66 
 15024      66736574 
 15024      00
 15025              	.LASF476:
ARM GAS  C:\Users\EBANO_~1\AppData\Local\Temp\ccKJ5gfE.s 			page 297


 15026 067e 52656769 		.ascii	"RegionCN779TxParamSetupReq\000"
 15026      6F6E434E 
 15026      37373954 
 15026      78506172 
 15026      616D5365 
 15027              	.LASF285:
 15028 0699 5048595F 		.ascii	"PHY_BEACON_WINDOW\000"
 15028      42454143 
 15028      4F4E5F57 
 15028      494E444F 
 15028      5700
 15029              	.LASF93:
 15030 06ab 5F726573 		.ascii	"_result_k\000"
 15030      756C745F 
 15030      6B00
 15031              	.LASF85:
 15032 06b5 5F737464 		.ascii	"_stderr\000"
 15032      65727200 
 15033              	.LASF92:
 15034 06bd 5F726573 		.ascii	"_result\000"
 15034      756C7400 
 15035              	.LASF428:
 15036 06c5 42656163 		.ascii	"BeaconDatarate\000"
 15036      6F6E4461 
 15036      74617261 
 15036      746500
 15037              	.LASF55:
 15038 06d4 5F64736F 		.ascii	"_dso_handle\000"
 15038      5F68616E 
 15038      646C6500 
 15039              	.LASF434:
 15040 06e0 4D617850 		.ascii	"MaxPayloadOfDatarateCN779\000"
 15040      61796C6F 
 15040      61644F66 
 15040      44617461 
 15040      72617465 
 15041              	.LASF389:
 15042 06fa 7343616C 		.ascii	"sCalcBackOffParams\000"
 15042      63426163 
 15042      6B4F6666 
 15042      50617261 
 15042      6D7300
 15043              	.LASF50:
 15044 070d 5F5F746D 		.ascii	"__tm_wday\000"
 15044      5F776461 
 15044      7900
 15045              	.LASF52:
 15046 0717 5F5F746D 		.ascii	"__tm_isdst\000"
 15046      5F697364 
 15046      737400
 15047              	.LASF464:
 15048 0722 64656C61 		.ascii	"delayTx\000"
 15048      79547800 
 15049              	.LASF558:
 15050 072a 52656769 		.ascii	"RegionCommonChanMaskCopy\000"
 15050      6F6E436F 
 15050      6D6D6F6E 
ARM GAS  C:\Users\EBANO_~1\AppData\Local\Temp\ccKJ5gfE.s 			page 298


 15050      4368616E 
 15050      4D61736B 
 15051              	.LASF231:
 15052 0743 4C4F5241 		.ascii	"LORAMAC_STATUS_LENGTH_ERROR\000"
 15052      4D41435F 
 15052      53544154 
 15052      55535F4C 
 15052      454E4754 
 15053              	.LASF153:
 15054 075f 54696D65 		.ascii	"TimeOff\000"
 15054      4F666600 
 15055              	.LASF3:
 15056 0767 756E7369 		.ascii	"unsigned char\000"
 15056      676E6564 
 15056      20636861 
 15056      7200
 15057              	.LASF84:
 15058 0775 5F737464 		.ascii	"_stdout\000"
 15058      6F757400 
 15059              	.LASF336:
 15060 077d 73476574 		.ascii	"sGetNvmCtxParams\000"
 15060      4E766D43 
 15060      74785061 
 15060      72616D73 
 15060      00
 15061              	.LASF127:
 15062 078e 5F6D6273 		.ascii	"_mbsrtowcs_state\000"
 15062      72746F77 
 15062      63735F73 
 15062      74617465 
 15062      00
 15063              	.LASF41:
 15064 079f 5F776473 		.ascii	"_wds\000"
 15064      00
 15065              	.LASF207:
 15066 07a4 44725261 		.ascii	"DrRange_t\000"
 15066      6E67655F 
 15066      7400
 15067              	.LASF220:
 15068 07ae 666C6F61 		.ascii	"float\000"
 15068      7400
 15069              	.LASF562:
 15070 07b4 443A5C67 		.ascii	"D:\\git_pessoal\\keil_gcc\\STM32CubeExpansion_LRWAN"
 15070      69745F70 
 15070      6573736F 
 15070      616C5C6B 
 15070      65696C5F 
 15071 07e4 5F56312E 		.ascii	"_V1.2.1\\Projects\\B-L072Z-LRWAN1\\Applications\\Lo"
 15071      322E315C 
 15071      50726F6A 
 15071      65637473 
 15071      5C422D4C 
 15072 0813 52615C45 		.ascii	"Ra\\End_Node\\MDK-ARM\000"
 15072      6E645F4E 
 15072      6F64655C 
 15072      4D444B2D 
 15072      41524D00 
ARM GAS  C:\Users\EBANO_~1\AppData\Local\Temp\ccKJ5gfE.s 			page 299


 15073              	.LASF271:
 15074 0827 5048595F 		.ascii	"PHY_DEF_RX2_FREQUENCY\000"
 15074      4445465F 
 15074      5258325F 
 15074      46524551 
 15074      55454E43 
 15075              	.LASF323:
 15076 083d 41747472 		.ascii	"Attribute\000"
 15076      69627574 
 15076      6500
 15077              	.LASF247:
 15078 0847 65506879 		.ascii	"ePhyAttribute\000"
 15078      41747472 
 15078      69627574 
 15078      6500
 15079              	.LASF63:
 15080 0855 5F73697A 		.ascii	"_size\000"
 15080      6500
 15081              	.LASF368:
 15082 085b 56657273 		.ascii	"Version\000"
 15082      696F6E00 
 15083              	.LASF70:
 15084 0863 5F777269 		.ascii	"_write\000"
 15084      746500
 15085              	.LASF385:
 15086 086a 65416C74 		.ascii	"eAlternateDrType\000"
 15086      65726E61 
 15086      74654472 
 15086      54797065 
 15086      00
 15087              	.LASF412:
 15088 087b 43684D61 		.ascii	"ChMaskCtrl\000"
 15088      736B4374 
 15088      726C00
 15089              	.LASF176:
 15090 0886 496F4465 		.ascii	"IoDeInit\000"
 15090      496E6974 
 15090      00
 15091              	.LASF179:
 15092 088f 5365744D 		.ascii	"SetModem\000"
 15092      6F64656D 
 15092      00
 15093              	.LASF360:
 15094 0898 5278536C 		.ascii	"RxSlot\000"
 15094      6F7400
 15095              	.LASF226:
 15096 089f 4C4F5241 		.ascii	"LORAMAC_STATUS_PARAMETER_INVALID\000"
 15096      4D41435F 
 15096      53544154 
 15096      55535F50 
 15096      4152414D 
 15097              	.LASF419:
 15098 08c0 4D617844 		.ascii	"MaxDatarate\000"
 15098      61746172 
 15098      61746500 
 15099              	.LASF402:
 15100 08cc 4368616E 		.ascii	"ChannelRemoveParams_t\000"
ARM GAS  C:\Users\EBANO_~1\AppData\Local\Temp\ccKJ5gfE.s 			page 300


 15100      6E656C52 
 15100      656D6F76 
 15100      65506172 
 15100      616D735F 
 15101              	.LASF166:
 15102 08e2 5478446F 		.ascii	"TxDone\000"
 15102      6E6500
 15103              	.LASF531:
 15104 08e9 436F756E 		.ascii	"CountNbOfEnabledChannels\000"
 15104      744E624F 
 15104      66456E61 
 15104      626C6564 
 15104      4368616E 
 15105              	.LASF49:
 15106 0902 5F5F746D 		.ascii	"__tm_year\000"
 15106      5F796561 
 15106      7200
 15107              	.LASF206:
 15108 090c 75447252 		.ascii	"uDrRange\000"
 15108      616E6765 
 15108      00
 15109              	.LASF212:
 15110 0915 42616E64 		.ascii	"Band\000"
 15110      00
 15111              	.LASF367:
 15112 091a 734C696E 		.ascii	"sLinkAdrReqParams\000"
 15112      6B416472 
 15112      52657150 
 15112      6172616D 
 15112      7300
 15113              	.LASF356:
 15114 092c 57696E64 		.ascii	"WindowTimeout\000"
 15114      6F775469 
 15114      6D656F75 
 15114      7400
 15115              	.LASF203:
 15116 093a 52616469 		.ascii	"Radio\000"
 15116      6F00
 15117              	.LASF560:
 15118 0940 474E5520 		.ascii	"GNU C11 7.3.1 20180622 (release) [ARM/embedded-7-br"
 15118      43313120 
 15118      372E332E 
 15118      31203230 
 15118      31383036 
 15119 0973 616E6368 		.ascii	"anch revision 261907] -mcpu=cortex-m0plus -mthumb -"
 15119      20726576 
 15119      6973696F 
 15119      6E203236 
 15119      31393037 
 15120 09a6 6D666C6F 		.ascii	"mfloat-abi=soft -gdwarf-2 -O3 -ffunction-sections\000"
 15120      61742D61 
 15120      62693D73 
 15120      6F667420 
 15120      2D676477 
 15121              	.LASF110:
 15122 09d8 5F6D756C 		.ascii	"_mult\000"
 15122      7400
ARM GAS  C:\Users\EBANO_~1\AppData\Local\Temp\ccKJ5gfE.s 			page 301


 15123              	.LASF535:
 15124 09de 6D617842 		.ascii	"maxBandTxPower\000"
 15124      616E6454 
 15124      78506F77 
 15124      657200
 15125              	.LASF489:
 15126 09ed 6E657874 		.ascii	"nextIndex\000"
 15126      496E6465 
 15126      7800
 15127              	.LASF190:
 15128 09f7 53746172 		.ascii	"StartCad\000"
 15128      74436164 
 15128      00
 15129              	.LASF377:
 15130 0a00 734E6577 		.ascii	"sNewChannelReqParams\000"
 15130      4368616E 
 15130      6E656C52 
 15130      65715061 
 15130      72616D73 
 15131              	.LASF125:
 15132 0a15 5F6D6272 		.ascii	"_mbrlen_state\000"
 15132      6C656E5F 
 15132      73746174 
 15132      6500
 15133              	.LASF508:
 15134 0a23 7278436F 		.ascii	"rxConfigParams\000"
 15134      6E666967 
 15134      50617261 
 15134      6D7300
 15135              	.LASF461:
 15136 0a32 74696D65 		.ascii	"time\000"
 15136      00
 15137              	.LASF545:
 15138 0a37 52656769 		.ascii	"RegionCommonCountChannels\000"
 15138      6F6E436F 
 15138      6D6D6F6E 
 15138      436F756E 
 15138      74436861 
 15139              	.LASF241:
 15140 0a51 4C4F5241 		.ascii	"LORAMAC_STATUS_FCNT_HANDLER_ERROR\000"
 15140      4D41435F 
 15140      53544154 
 15140      55535F46 
 15140      434E545F 
 15141              	.LASF491:
 15142 0a73 63684D61 		.ascii	"chMask\000"
 15142      736B00
 15143              	.LASF380:
 15144 0a7a 4E657743 		.ascii	"NewChannelReqParams_t\000"
 15144      68616E6E 
 15144      656C5265 
 15144      71506172 
 15144      616D735F 
 15145              	.LASF168:
 15146 0a90 5278446F 		.ascii	"RxDone\000"
 15146      6E6500
 15147              	.LASF83:
ARM GAS  C:\Users\EBANO_~1\AppData\Local\Temp\ccKJ5gfE.s 			page 302


 15148 0a97 5F737464 		.ascii	"_stdin\000"
 15148      696E00
 15149              	.LASF248:
 15150 0a9e 5048595F 		.ascii	"PHY_MIN_RX_DR\000"
 15150      4D494E5F 
 15150      52585F44 
 15150      5200
 15151              	.LASF132:
 15152 0aac 5F6E6D61 		.ascii	"_nmalloc\000"
 15152      6C6C6F63 
 15152      00
 15153              	.LASF337:
 15154 0ab5 6E766D43 		.ascii	"nvmCtxSize\000"
 15154      74785369 
 15154      7A6500
 15155              	.LASF182:
 15156 0ac0 52616E64 		.ascii	"Random\000"
 15156      6F6D00
 15157              	.LASF404:
 15158 0ac7 54696D65 		.ascii	"Timeout\000"
 15158      6F757400 
 15159              	.LASF334:
 15160 0acf 54797065 		.ascii	"Type\000"
 15160      00
 15161              	.LASF473:
 15162 0ad4 52656769 		.ascii	"RegionCN779DlChannelReq\000"
 15162      6F6E434E 
 15162      37373944 
 15162      6C436861 
 15162      6E6E656C 
 15163              	.LASF371:
 15164 0aec 43757272 		.ascii	"CurrentDatarate\000"
 15164      656E7444 
 15164      61746172 
 15164      61746500 
 15165              	.LASF346:
 15166 0afc 5061796C 		.ascii	"Payload\000"
 15166      6F616400 
 15167              	.LASF263:
 15168 0b04 5048595F 		.ascii	"PHY_MAX_RX_WINDOW\000"
 15168      4D41585F 
 15168      52585F57 
 15168      494E444F 
 15168      5700
 15169              	.LASF28:
 15170 0b16 5F6F6666 		.ascii	"_off_t\000"
 15170      5F7400
 15171              	.LASF140:
 15172 0b1d 56657273 		.ascii	"Version_s\000"
 15172      696F6E5F 
 15172      7300
 15173              	.LASF146:
 15174 0b27 56657273 		.ascii	"Version_t\000"
 15174      696F6E5F 
 15174      7400
 15175              	.LASF205:
 15176 0b31 56657273 		.ascii	"Version_u\000"
ARM GAS  C:\Users\EBANO_~1\AppData\Local\Temp\ccKJ5gfE.s 			page 303


 15176      696F6E5F 
 15176      7500
 15177              	.LASF538:
 15178 0b3b 6472496E 		.ascii	"drIndex\000"
 15178      64657800 
 15179              	.LASF25:
 15180 0b43 73697A65 		.ascii	"size_t\000"
 15180      5F7400
 15181              	.LASF115:
 15182 0b4a 5F6C6F63 		.ascii	"_localtime_buf\000"
 15182      616C7469 
 15182      6D655F62 
 15182      756600
 15183              	.LASF33:
 15184 0b59 5F5F636F 		.ascii	"__count\000"
 15184      756E7400 
 15185              	.LASF16:
 15186 0b61 75696E74 		.ascii	"uint8_t\000"
 15186      385F7400 
 15187              	.LASF290:
 15188 0b69 5048595F 		.ascii	"PHY_PING_SLOT_SYMBOL_TO_EXPANSION_MAX\000"
 15188      50494E47 
 15188      5F534C4F 
 15188      545F5359 
 15188      4D424F4C 
 15189              	.LASF298:
 15190 0b8f 5048595F 		.ascii	"PHY_BEACON_CHANNEL_STEPWIDTH\000"
 15190      42454143 
 15190      4F4E5F43 
 15190      48414E4E 
 15190      454C5F53 
 15191              	.LASF148:
 15192 0bac 7342616E 		.ascii	"sBand\000"
 15192      6400
 15193              	.LASF249:
 15194 0bb2 5048595F 		.ascii	"PHY_MIN_TX_DR\000"
 15194      4D494E5F 
 15194      54585F44 
 15194      5200
 15195              	.LASF547:
 15196 0bc0 52656769 		.ascii	"RegionCommonUpdateBandTimeOff\000"
 15196      6F6E436F 
 15196      6D6D6F6E 
 15196      55706461 
 15196      74654261 
 15197              	.LASF438:
 15198 0bde 52656769 		.ascii	"RegionCN779NvmCtx_t\000"
 15198      6F6E434E 
 15198      3737394E 
 15198      766D4374 
 15198      785F7400 
 15199              	.LASF288:
 15200 0bf2 5048595F 		.ascii	"PHY_BEACON_SYMBOL_TO_DEFAULT\000"
 15200      42454143 
 15200      4F4E5F53 
 15200      594D424F 
 15200      4C5F544F 
ARM GAS  C:\Users\EBANO_~1\AppData\Local\Temp\ccKJ5gfE.s 			page 304


 15201              	.LASF221:
 15202 0c0f 654C6F52 		.ascii	"eLoRaMacRxSlot\000"
 15202      614D6163 
 15202      5278536C 
 15202      6F7400
 15203              	.LASF97:
 15204 0c1e 5F637674 		.ascii	"_cvtbuf\000"
 15204      62756600 
 15205              	.LASF414:
 15206 0c26 52656769 		.ascii	"RegionCommonLinkAdrParams_t\000"
 15206      6F6E436F 
 15206      6D6D6F6E 
 15206      4C696E6B 
 15206      41647250 
 15207              	.LASF335:
 15208 0c42 496E6974 		.ascii	"InitDefaultsParams_t\000"
 15208      44656661 
 15208      756C7473 
 15208      50617261 
 15208      6D735F74 
 15209              	.LASF417:
 15210 0c57 4E624368 		.ascii	"NbChannels\000"
 15210      616E6E65 
 15210      6C7300
 15211              	.LASF358:
 15212 0c62 52657065 		.ascii	"RepeaterSupport\000"
 15212      61746572 
 15212      53757070 
 15212      6F727400 
 15213              	.LASF218:
 15214 0c72 52585F53 		.ascii	"RX_SLOT_WIN_MULTICAST_SLOT\000"
 15214      4C4F545F 
 15214      57494E5F 
 15214      4D554C54 
 15214      49434153 
 15215              	.LASF202:
 15216 0c8d 53657452 		.ascii	"SetRxDutyCycle\000"
 15216      78447574 
 15216      79437963 
 15216      6C6500
 15217              	.LASF490:
 15218 0c9c 62797465 		.ascii	"bytesProcessed\000"
 15218      7350726F 
 15218      63657373 
 15218      656400
 15219              	.LASF480:
 15220 0cab 52656769 		.ascii	"RegionCN779RxParamSetupReq\000"
 15220      6F6E434E 
 15220      37373952 
 15220      78506172 
 15220      616D5365 
 15221              	.LASF436:
 15222 0cc6 73526567 		.ascii	"sRegionCN779NvmCtx\000"
 15222      696F6E43 
 15222      4E373739 
 15222      4E766D43 
 15222      747800
ARM GAS  C:\Users\EBANO_~1\AppData\Local\Temp\ccKJ5gfE.s 			page 305


 15223              	.LASF32:
 15224 0cd9 5F5F7763 		.ascii	"__wchb\000"
 15224      686200
 15225              	.LASF126:
 15226 0ce0 5F6D6272 		.ascii	"_mbrtowc_state\000"
 15226      746F7763 
 15226      5F737461 
 15226      746500
 15227              	.LASF46:
 15228 0cef 5F5F746D 		.ascii	"__tm_hour\000"
 15228      5F686F75 
 15228      7200
 15229              	.LASF158:
 15230 0cf9 4D4F4445 		.ascii	"MODEM_FSK\000"
 15230      4D5F4653 
 15230      4B00
 15231              	.LASF468:
 15232 0d03 63616C63 		.ascii	"calcBackOff\000"
 15232      4261636B 
 15232      4F666600 
 15233              	.LASF348:
 15234 0d0f 4170706C 		.ascii	"ApplyCFListParams_t\000"
 15234      7943464C 
 15234      69737450 
 15234      6172616D 
 15234      735F7400 
 15235              	.LASF260:
 15236 0d23 5048595F 		.ascii	"PHY_MAX_PAYLOAD\000"
 15236      4D41585F 
 15236      5041594C 
 15236      4F414400 
 15237              	.LASF30:
 15238 0d33 77696E74 		.ascii	"wint_t\000"
 15238      5F7400
 15239              	.LASF98:
 15240 0d3a 5F6E6577 		.ascii	"_new\000"
 15240      00
 15241              	.LASF188:
 15242 0d3f 536C6565 		.ascii	"Sleep\000"
 15242      7000
 15243              	.LASF345:
 15244 0d45 73417070 		.ascii	"sApplyCFListParams\000"
 15244      6C794346 
 15244      4C697374 
 15244      50617261 
 15244      6D7300
 15245              	.LASF106:
 15246 0d58 5F6E696F 		.ascii	"_niobs\000"
 15246      627300
 15247              	.LASF322:
 15248 0d5f 73476574 		.ascii	"sGetPhyParams\000"
 15248      50687950 
 15248      6172616D 
 15248      7300
 15249              	.LASF242:
 15250 0d6d 4C4F5241 		.ascii	"LORAMAC_STATUS_MAC_COMMAD_ERROR\000"
 15250      4D41435F 
ARM GAS  C:\Users\EBANO_~1\AppData\Local\Temp\ccKJ5gfE.s 			page 306


 15250      53544154 
 15250      55535F4D 
 15250      41435F43 
 15251              	.LASF160:
 15252 0d8d 52616469 		.ascii	"RadioModems_t\000"
 15252      6F4D6F64 
 15252      656D735F 
 15252      7400
 15253              	.LASF319:
 15254 0d9b 4368616E 		.ascii	"Channels\000"
 15254      6E656C73 
 15254      00
 15255              	.LASF331:
 15256 0da4 53657442 		.ascii	"SetBandTxDoneParams_t\000"
 15256      616E6454 
 15256      78446F6E 
 15256      65506172 
 15256      616D735F 
 15257              	.LASF462:
 15258 0dba 61676772 		.ascii	"aggregatedTimeOff\000"
 15258      65676174 
 15258      65645469 
 15258      6D654F66 
 15258      6600
 15259              	.LASF82:
 15260 0dcc 5F657272 		.ascii	"_errno\000"
 15260      6E6F00
 15261              	.LASF287:
 15262 0dd3 5048595F 		.ascii	"PHY_PING_SLOT_WINDOW\000"
 15262      50494E47 
 15262      5F534C4F 
 15262      545F5749 
 15262      4E444F57 
 15263              	.LASF413:
 15264 0de8 43684D61 		.ascii	"ChMask\000"
 15264      736B00
 15265              	.LASF47:
 15266 0def 5F5F746D 		.ascii	"__tm_mday\000"
 15266      5F6D6461 
 15266      7900
 15267              	.LASF54:
 15268 0df9 5F666E61 		.ascii	"_fnargs\000"
 15268      72677300 
 15269              	.LASF303:
 15270 0e01 494E4954 		.ascii	"INIT_TYPE_INIT\000"
 15270      5F545950 
 15270      455F494E 
 15270      495400
 15271              	.LASF255:
 15272 0e10 5048595F 		.ascii	"PHY_MAX_TX_POWER\000"
 15272      4D41585F 
 15272      54585F50 
 15272      4F574552 
 15272      00
 15273              	.LASF440:
 15274 0e21 6F757444 		.ascii	"outDr\000"
 15274      7200
ARM GAS  C:\Users\EBANO_~1\AppData\Local\Temp\ccKJ5gfE.s 			page 307


 15275              	.LASF281:
 15276 0e27 5048595F 		.ascii	"PHY_NEXT_LOWER_TX_DR\000"
 15276      4E455854 
 15276      5F4C4F57 
 15276      45525F54 
 15276      585F4452 
 15277              	.LASF540:
 15278 0e3c 6D696E44 		.ascii	"minDr\000"
 15278      7200
 15279              	.LASF278:
 15280 0e42 5048595F 		.ascii	"PHY_DEF_DOWNLINK_DWELL_TIME\000"
 15280      4445465F 
 15280      444F574E 
 15280      4C494E4B 
 15280      5F445745 
 15281              	.LASF392:
 15282 0e5e 456C6170 		.ascii	"ElapsedTime\000"
 15282      73656454 
 15282      696D6500 
 15283              	.LASF289:
 15284 0e6a 5048595F 		.ascii	"PHY_BEACON_SYMBOL_TO_EXPANSION_MAX\000"
 15284      42454143 
 15284      4F4E5F53 
 15284      594D424F 
 15284      4C5F544F 
 15285              	.LASF38:
 15286 0e8d 5F6E6578 		.ascii	"_next\000"
 15286      7400
 15287              	.LASF171:
 15288 0e93 46687373 		.ascii	"FhssChangeChannel\000"
 15288      4368616E 
 15288      67654368 
 15288      616E6E65 
 15288      6C00
 15289              	.LASF487:
 15290 0ea5 6E624279 		.ascii	"nbBytesParsed\000"
 15290      74657350 
 15290      61727365 
 15290      6400
 15291              	.LASF502:
 15292 0eb3 52656769 		.ascii	"RegionCN779RxConfig\000"
 15292      6F6E434E 
 15292      37373952 
 15292      78436F6E 
 15292      66696700 
 15293              	.LASF521:
 15294 0ec7 70617261 		.ascii	"params\000"
 15294      6D7300
 15295              	.LASF123:
 15296 0ece 5F736967 		.ascii	"_signal_buf\000"
 15296      6E616C5F 
 15296      62756600 
 15297              	.LASF68:
 15298 0eda 5F636F6F 		.ascii	"_cookie\000"
 15298      6B696500 
 15299              	.LASF272:
 15300 0ee2 5048595F 		.ascii	"PHY_DEF_RX2_DR\000"
ARM GAS  C:\Users\EBANO_~1\AppData\Local\Temp\ccKJ5gfE.s 			page 308


 15300      4445465F 
 15300      5258325F 
 15300      445200
 15301              	.LASF539:
 15302 0ef1 4765744E 		.ascii	"GetNextLowerTxDr\000"
 15302      6578744C 
 15302      6F776572 
 15302      54784472 
 15302      00
 15303              	.LASF408:
 15304 0f02 52785469 		.ascii	"RxTime\000"
 15304      6D6500
 15305              	.LASF264:
 15306 0f09 5048595F 		.ascii	"PHY_RECEIVE_DELAY1\000"
 15306      52454345 
 15306      4956455F 
 15306      44454C41 
 15306      593100
 15307              	.LASF265:
 15308 0f1c 5048595F 		.ascii	"PHY_RECEIVE_DELAY2\000"
 15308      52454345 
 15308      4956455F 
 15308      44454C41 
 15308      593200
 15309              	.LASF157:
 15310 0f2f 5F747A6E 		.ascii	"_tzname\000"
 15310      616D6500 
 15311              	.LASF352:
 15312 0f37 4368616E 		.ascii	"ChanMaskSetParams_t\000"
 15312      4D61736B 
 15312      53657450 
 15312      6172616D 
 15312      735F7400 
 15313              	.LASF232:
 15314 0f4b 4C4F5241 		.ascii	"LORAMAC_STATUS_REGION_NOT_SUPPORTED\000"
 15314      4D41435F 
 15314      53544154 
 15314      55535F52 
 15314      4547494F 
 15315              	.LASF219:
 15316 0f6f 4C6F5261 		.ascii	"LoRaMacRxSlot_t\000"
 15316      4D616352 
 15316      78536C6F 
 15316      745F7400 
 15317              	.LASF162:
 15318 0f7f 52465F52 		.ascii	"RF_RX_RUNNING\000"
 15318      585F5255 
 15318      4E4E494E 
 15318      4700
 15319              	.LASF245:
 15320 0f8d 4C4F5241 		.ascii	"LORAMAC_STATUS_ERROR\000"
 15320      4D41435F 
 15320      53544154 
 15320      55535F45 
 15320      52524F52 
 15321              	.LASF387:
 15322 0fa2 414C5445 		.ascii	"ALTERNATE_DR_RESTORE\000"
ARM GAS  C:\Users\EBANO_~1\AppData\Local\Temp\ccKJ5gfE.s 			page 309


 15322      524E4154 
 15322      455F4452 
 15322      5F524553 
 15322      544F5245 
 15323              	.LASF320:
 15324 0fb7 42656163 		.ascii	"BeaconFormat\000"
 15324      6F6E466F 
 15324      726D6174 
 15324      00
 15325              	.LASF460:
 15326 0fc4 6368616E 		.ascii	"channel\000"
 15326      6E656C00 
 15327              	.LASF365:
 15328 0fcc 506B744C 		.ascii	"PktLen\000"
 15328      656E00
 15329              	.LASF178:
 15330 0fd3 47657453 		.ascii	"GetStatus\000"
 15330      74617475 
 15330      7300
 15331              	.LASF251:
 15332 0fdd 5048595F 		.ascii	"PHY_MAX_TX_DR\000"
 15332      4D41585F 
 15332      54585F44 
 15332      5200
 15333              	.LASF314:
 15334 0feb 52667532 		.ascii	"Rfu2Size\000"
 15334      53697A65 
 15334      00
 15335              	.LASF184:
 15336 0ff4 53657454 		.ascii	"SetTxConfig\000"
 15336      78436F6E 
 15336      66696700 
 15337              	.LASF213:
 15338 1000 4368616E 		.ascii	"ChannelParams_t\000"
 15338      6E656C50 
 15338      6172616D 
 15338      735F7400 
 15339              	.LASF224:
 15340 1010 4C4F5241 		.ascii	"LORAMAC_STATUS_BUSY\000"
 15340      4D41435F 
 15340      53544154 
 15340      55535F42 
 15340      55535900 
 15341              	.LASF347:
 15342 1024 53697A65 		.ascii	"Size\000"
 15342      00
 15343              	.LASF44:
 15344 1029 5F5F746D 		.ascii	"__tm_sec\000"
 15344      5F736563 
 15344      00
 15345              	.LASF53:
 15346 1032 5F6F6E5F 		.ascii	"_on_exit_args\000"
 15346      65786974 
 15346      5F617267 
 15346      7300
 15347              	.LASF237:
 15348 1040 4C4F5241 		.ascii	"LORAMAC_STATUS_BUSY_BEACON_RESERVED_TIME\000"
ARM GAS  C:\Users\EBANO_~1\AppData\Local\Temp\ccKJ5gfE.s 			page 310


 15348      4D41435F 
 15348      53544154 
 15348      55535F42 
 15348      5553595F 
 15349              	.LASF486:
 15350 1069 6E625265 		.ascii	"nbRepOut\000"
 15350      704F7574 
 15350      00
 15351              	.LASF495:
 15352 1072 52656769 		.ascii	"RegionCN779TxConfig\000"
 15352      6F6E434E 
 15352      37373954 
 15352      78436F6E 
 15352      66696700 
 15353              	.LASF259:
 15354 1086 5048595F 		.ascii	"PHY_DEF_ADR_ACK_DELAY\000"
 15354      4445465F 
 15354      4144525F 
 15354      41434B5F 
 15354      44454C41 
 15355              	.LASF128:
 15356 109c 5F776372 		.ascii	"_wcrtomb_state\000"
 15356      746F6D62 
 15356      5F737461 
 15356      746500
 15357              	.LASF362:
 15358 10ab 73547843 		.ascii	"sTxConfigParams\000"
 15358      6F6E6669 
 15358      67506172 
 15358      616D7300 
 15359              	.LASF165:
 15360 10bb 52616469 		.ascii	"RadioState_t\000"
 15360      6F537461 
 15360      74655F74 
 15360      00
 15361              	.LASF563:
 15362 10c8 6D656D73 		.ascii	"memset\000"
 15362      657400
 15363              	.LASF553:
 15364 10cf 52656769 		.ascii	"RegionCommonLinkAdrReqVerifyParams\000"
 15364      6F6E436F 
 15364      6D6D6F6E 
 15364      4C696E6B 
 15364      41647252 
 15365              	.LASF497:
 15366 10f2 7478506F 		.ascii	"txPower\000"
 15366      77657200 
 15367              	.LASF483:
 15368 10fa 6C696E6B 		.ascii	"linkAdrReq\000"
 15368      41647252 
 15368      657100
 15369              	.LASF330:
 15370 1105 4A6F696E 		.ascii	"Joined\000"
 15370      656400
 15371              	.LASF15:
 15372 110c 696E7438 		.ascii	"int8_t\000"
 15372      5F7400
ARM GAS  C:\Users\EBANO_~1\AppData\Local\Temp\ccKJ5gfE.s 			page 311


 15373              	.LASF236:
 15374 1113 4C4F5241 		.ascii	"LORAMAC_STATUS_NO_FREE_CHANNEL_FOUND\000"
 15374      4D41435F 
 15374      53544154 
 15374      55535F4E 
 15374      4F5F4652 
 15375              	.LASF37:
 15376 1138 5F5F554C 		.ascii	"__ULong\000"
 15376      6F6E6700 
 15377              	.LASF297:
 15378 1140 5048595F 		.ascii	"PHY_BEACON_CHANNEL_DR\000"
 15378      42454143 
 15378      4F4E5F43 
 15378      48414E4E 
 15378      454C5F44 
 15379              	.LASF353:
 15380 1156 73527843 		.ascii	"sRxConfigParams\000"
 15380      6F6E6669 
 15380      67506172 
 15380      616D7300 
 15381              	.LASF144:
 15382 1166 4669656C 		.ascii	"Fields\000"
 15382      647300
 15383              	.LASF286:
 15384 116d 5048595F 		.ascii	"PHY_BEACON_WINDOW_SLOTS\000"
 15384      42454143 
 15384      4F4E5F57 
 15384      494E444F 
 15384      575F534C 
 15385              	.LASF113:
 15386 1185 5F737472 		.ascii	"_strtok_last\000"
 15386      746F6B5F 
 15386      6C617374 
 15386      00
 15387              	.LASF185:
 15388 1192 43686563 		.ascii	"CheckRfFrequency\000"
 15388      6B526646 
 15388      72657175 
 15388      656E6379 
 15388      00
 15389              	.LASF474:
 15390 11a3 646C4368 		.ascii	"dlChannelReq\000"
 15390      616E6E65 
 15390      6C526571 
 15390      00
 15391              	.LASF109:
 15392 11b0 5F736565 		.ascii	"_seed\000"
 15392      6400
 15393              	.LASF369:
 15394 11b6 5061796C 		.ascii	"PayloadSize\000"
 15394      6F616453 
 15394      697A6500 
 15395              	.LASF71:
 15396 11c2 5F736565 		.ascii	"_seek\000"
 15396      6B00
 15397              	.LASF210:
 15398 11c8 52783146 		.ascii	"Rx1Frequency\000"
ARM GAS  C:\Users\EBANO_~1\AppData\Local\Temp\ccKJ5gfE.s 			page 312


 15398      72657175 
 15398      656E6379 
 15398      00
 15399              	.LASF17:
 15400 11d5 696E7431 		.ascii	"int16_t\000"
 15400      365F7400 
 15401              	.LASF299:
 15402 11dd 5048595F 		.ascii	"PHY_BEACON_NB_CHANNELS\000"
 15402      42454143 
 15402      4F4E5F4E 
 15402      425F4348 
 15402      414E4E45 
 15403              	.LASF7:
 15404 11f4 73686F72 		.ascii	"short unsigned int\000"
 15404      7420756E 
 15404      7369676E 
 15404      65642069 
 15404      6E7400
 15405              	.LASF2:
 15406 1207 7369676E 		.ascii	"signed char\000"
 15406      65642063 
 15406      68617200 
 15407              	.LASF381:
 15408 1213 73547850 		.ascii	"sTxParamSetupReqParams\000"
 15408      6172616D 
 15408      53657475 
 15408      70526571 
 15408      50617261 
 15409              	.LASF338:
 15410 122a 4765744E 		.ascii	"GetNvmCtxParams_t\000"
 15410      766D4374 
 15410      78506172 
 15410      616D735F 
 15410      7400
 15411              	.LASF475:
 15412 123c 73746174 		.ascii	"status\000"
 15412      757300
 15413              	.LASF384:
 15414 1243 446C4368 		.ascii	"DlChannelReqParams_t\000"
 15414      616E6E65 
 15414      6C526571 
 15414      50617261 
 15414      6D735F74 
 15415              	.LASF534:
 15416 1258 4C696D69 		.ascii	"LimitTxPower\000"
 15416      74547850 
 15416      6F776572 
 15416      00
 15417              	.LASF400:
 15418 1265 4368616E 		.ascii	"ChannelAddParams_t\000"
 15418      6E656C41 
 15418      64645061 
 15418      72616D73 
 15418      5F7400
 15419              	.LASF175:
 15420 1278 496F496E 		.ascii	"IoInit\000"
 15420      697400
ARM GAS  C:\Users\EBANO_~1\AppData\Local\Temp\ccKJ5gfE.s 			page 313


 15421              	.LASF446:
 15422 127f 52656769 		.ascii	"RegionCN779SetContinuousWave\000"
 15422      6F6E434E 
 15422      37373953 
 15422      6574436F 
 15422      6E74696E 
 15423              	.LASF95:
 15424 129c 5F667265 		.ascii	"_freelist\000"
 15424      656C6973 
 15424      7400
 15425              	.LASF429:
 15426 12a6 42656163 		.ascii	"BeaconChannelBW\000"
 15426      6F6E4368 
 15426      616E6E65 
 15426      6C425700 
 15427              	.LASF76:
 15428 12b6 5F6F6666 		.ascii	"_offset\000"
 15428      73657400 
 15429              	.LASF21:
 15430 12be 53797374 		.ascii	"SystemCoreClock\000"
 15430      656D436F 
 15430      7265436C 
 15430      6F636B00 
 15431              	.LASF326:
 15432 12ce 446F776E 		.ascii	"DownlinkDwellTime\000"
 15432      6C696E6B 
 15432      4477656C 
 15432      6C54696D 
 15432      6500
 15433              	.LASF186:
 15434 12e0 54696D65 		.ascii	"TimeOnAir\000"
 15434      4F6E4169 
 15434      7200
 15435              	.LASF61:
 15436 12ea 5F5F7362 		.ascii	"__sbuf\000"
 15436      756600
 15437              	.LASF122:
 15438 12f1 5F6C3634 		.ascii	"_l64a_buf\000"
 15438      615F6275 
 15438      6600
 15439              	.LASF321:
 15440 12fb 50687950 		.ascii	"PhyParam_t\000"
 15440      6172616D 
 15440      5F7400
 15441              	.LASF328:
 15442 1306 73536574 		.ascii	"sSetBandTxDoneParams\000"
 15442      42616E64 
 15442      5478446F 
 15442      6E655061 
 15442      72616D73 
 15443              	.LASF364:
 15444 131b 416E7465 		.ascii	"AntennaGain\000"
 15444      6E6E6147 
 15444      61696E00 
 15445              	.LASF262:
 15446 1327 5048595F 		.ascii	"PHY_DUTY_CYCLE\000"
 15446      44555459 
ARM GAS  C:\Users\EBANO_~1\AppData\Local\Temp\ccKJ5gfE.s 			page 314


 15446      5F435943 
 15446      4C4500
 15447              	.LASF114:
 15448 1336 5F617363 		.ascii	"_asctime_buf\000"
 15448      74696D65 
 15448      5F627566 
 15448      00
 15449              	.LASF498:
 15450 1343 74785469 		.ascii	"txTimeOnAir\000"
 15450      6D654F6E 
 15450      41697200 
 15451              	.LASF31:
 15452 134f 5F5F7763 		.ascii	"__wch\000"
 15452      6800
 15453              	.LASF454:
 15454 1355 6368616E 		.ascii	"channelAdd\000"
 15454      6E656C41 
 15454      646400
 15455              	.LASF129:
 15456 1360 5F776373 		.ascii	"_wcsrtombs_state\000"
 15456      72746F6D 
 15456      62735F73 
 15456      74617465 
 15456      00
 15457              	.LASF391:
 15458 1371 44757479 		.ascii	"DutyCycleEnabled\000"
 15458      4379636C 
 15458      65456E61 
 15458      626C6564 
 15458      00
 15459              	.LASF471:
 15460 1382 63757272 		.ascii	"currentDr\000"
 15460      656E7444 
 15460      7200
 15461              	.LASF559:
 15462 138c 52656769 		.ascii	"RegionCommonSetBandTxDone\000"
 15462      6F6E436F 
 15462      6D6D6F6E 
 15462      53657442 
 15462      616E6454 
 15463              	.LASF450:
 15464 13a6 7478506F 		.ascii	"txPowerLimited\000"
 15464      7765724C 
 15464      696D6974 
 15464      656400
 15465              	.LASF546:
 15466 13b5 54696D65 		.ascii	"TimerGetElapsedTime\000"
 15466      72476574 
 15466      456C6170 
 15466      73656454 
 15466      696D6500 
 15467              	.LASF504:
 15468 13c9 6D617850 		.ascii	"maxPayload\000"
 15468      61796C6F 
 15468      616400
 15469              	.LASF452:
 15470 13d4 52656769 		.ascii	"RegionCN779ChannelAdd\000"
ARM GAS  C:\Users\EBANO_~1\AppData\Local\Temp\ccKJ5gfE.s 			page 315


 15470      6F6E434E 
 15470      37373943 
 15470      68616E6E 
 15470      656C4164 
 15471              	.LASF528:
 15472 13ea 6368616E 		.ascii	"channelsMask\000"
 15472      6E656C73 
 15472      4D61736B 
 15472      00
 15473              	.LASF9:
 15474 13f7 6C6F6E67 		.ascii	"long int\000"
 15474      20696E74 
 15474      00
 15475              	.LASF121:
 15476 1400 5F776374 		.ascii	"_wctomb_state\000"
 15476      6F6D625F 
 15476      73746174 
 15476      6500
 15477              	.LASF422:
 15478 140e 52656769 		.ascii	"RegionCommonLinkAdrReqVerifyParams_t\000"
 15478      6F6E436F 
 15478      6D6D6F6E 
 15478      4C696E6B 
 15478      41647252 
 15479              	.LASF372:
 15480 1433 43757272 		.ascii	"CurrentTxPower\000"
 15480      656E7454 
 15480      78506F77 
 15480      657200
 15481              	.LASF424:
 15482 1442 42616E64 		.ascii	"Bands\000"
 15482      7300
 15483              	.LASF308:
 15484 1448 4348414E 		.ascii	"CHANNELS_MASK\000"
 15484      4E454C53 
 15484      5F4D4153 
 15484      4B00
 15485              	.LASF532:
 15486 1456 56657269 		.ascii	"VerifyRfFreq\000"
 15486      66795266 
 15486      46726571 
 15486      00
 15487              	.LASF445:
 15488 1463 52656769 		.ascii	"RegionCN779RxBeaconSetup\000"
 15488      6F6E434E 
 15488      37373952 
 15488      78426561 
 15488      636F6E53 
 15489              	.LASF107:
 15490 147c 5F696F62 		.ascii	"_iobs\000"
 15490      7300
 15491              	.LASF87:
 15492 1482 5F656D65 		.ascii	"_emergency\000"
 15492      7267656E 
 15492      637900
 15493              	.LASF506:
 15494 148d 6D696E52 		.ascii	"minRxSymbols\000"
ARM GAS  C:\Users\EBANO_~1\AppData\Local\Temp\ccKJ5gfE.s 			page 316


 15494      7853796D 
 15494      626F6C73 
 15494      00
 15495              	.LASF131:
 15496 149a 5F6E6578 		.ascii	"_nextf\000"
 15496      746600
 15497              	.LASF117:
 15498 14a1 5F72616E 		.ascii	"_rand_next\000"
 15498      645F6E65 
 15498      787400
 15499              	.LASF519:
 15500 14ac 70687941 		.ascii	"phyAttribute\000"
 15500      74747269 
 15500      62757465 
 15500      00
 15501              	.LASF20:
 15502 14b9 75696E74 		.ascii	"uint32_t\000"
 15502      33325F74 
 15502      00
 15503              	.LASF416:
 15504 14c2 53746174 		.ascii	"Status\000"
 15504      757300
 15505              	.LASF557:
 15506 14c9 52656769 		.ascii	"RegionCommonComputeSymbolTimeFsk\000"
 15506      6F6E436F 
 15506      6D6D6F6E 
 15506      436F6D70 
 15506      75746553 
 15507              	.LASF405:
 15508 14ea 436F6E74 		.ascii	"ContinuousWaveParams_t\000"
 15508      696E756F 
 15508      75735761 
 15508      76655061 
 15508      72616D73 
 15509              	.LASF39:
 15510 1501 5F6D6178 		.ascii	"_maxwds\000"
 15510      77647300 
 15511              	.LASF523:
 15512 1509 62616E64 		.ascii	"bands\000"
 15512      7300
 15513              	.LASF191:
 15514 150f 53657454 		.ascii	"SetTxContinuousWave\000"
 15514      78436F6E 
 15514      74696E75 
 15514      6F757357 
 15514      61766500 
 15515              	.LASF457:
 15516 1523 52656769 		.ascii	"RegionCN779ApplyDrOffset\000"
 15516      6F6E434E 
 15516      37373941 
 15516      70706C79 
 15516      44724F66 
 15517              	.LASF26:
 15518 153c 6C6F6E67 		.ascii	"long double\000"
 15518      20646F75 
 15518      626C6500 
 15519              	.LASF138:
ARM GAS  C:\Users\EBANO_~1\AppData\Local\Temp\ccKJ5gfE.s 			page 317


 15520 1548 7375626F 		.ascii	"suboptarg\000"
 15520      70746172 
 15520      6700
 15521              	.LASF275:
 15522 1552 5048595F 		.ascii	"PHY_MAX_NB_CHANNELS\000"
 15522      4D41585F 
 15522      4E425F43 
 15522      48414E4E 
 15522      454C5300 
 15523              	.LASF382:
 15524 1566 54785061 		.ascii	"TxParamSetupReqParams_t\000"
 15524      72616D53 
 15524      65747570 
 15524      52657150 
 15524      6172616D 
 15525              	.LASF11:
 15526 157e 6C6F6E67 		.ascii	"long unsigned int\000"
 15526      20756E73 
 15526      69676E65 
 15526      6420696E 
 15526      7400
 15527              	.LASF437:
 15528 1590 4368616E 		.ascii	"ChannelsDefaultMask\000"
 15528      6E656C73 
 15528      44656661 
 15528      756C744D 
 15528      61736B00 
 15529              	.LASF555:
 15530 15a4 52656769 		.ascii	"RegionCommonComputeSymbolTimeLoRa\000"
 15530      6F6E436F 
 15530      6D6D6F6E 
 15530      436F6D70 
 15530      75746553 
 15531              	.LASF307:
 15532 15c6 65436861 		.ascii	"eChannelsMask\000"
 15532      6E6E656C 
 15532      734D6173 
 15532      6B00
 15533              	.LASF181:
 15534 15d4 49734368 		.ascii	"IsChannelFree\000"
 15534      616E6E65 
 15534      6C467265 
 15534      6500
 15535              	.LASF72:
 15536 15e2 5F636C6F 		.ascii	"_close\000"
 15536      736500
 15537              	.LASF198:
 15538 15e9 53657450 		.ascii	"SetPublicNetwork\000"
 15538      75626C69 
 15538      634E6574 
 15538      776F726B 
 15538      00
 15539              	.LASF103:
 15540 15fa 63686172 		.ascii	"char\000"
 15540      00
 15541              	.LASF280:
 15542 15ff 5048595F 		.ascii	"PHY_DEF_ANTENNA_GAIN\000"
ARM GAS  C:\Users\EBANO_~1\AppData\Local\Temp\ccKJ5gfE.s 			page 318


 15542      4445465F 
 15542      414E5445 
 15542      4E4E415F 
 15542      4741494E 
 15543              	.LASF164:
 15544 1614 52465F43 		.ascii	"RF_CAD\000"
 15544      414400
 15545              	.LASF105:
 15546 161b 5F676C75 		.ascii	"_glue\000"
 15546      6500
 15547              	.LASF463:
 15548 1621 6E62456E 		.ascii	"nbEnabledChannels\000"
 15548      61626C65 
 15548      64436861 
 15548      6E6E656C 
 15548      7300
 15549              	.LASF394:
 15550 1633 43616C63 		.ascii	"CalcBackOffParams_t\000"
 15550      4261636B 
 15550      4F666650 
 15550      6172616D 
 15550      735F7400 
 15551              	.LASF23:
 15552 1647 41504250 		.ascii	"APBPrescTable\000"
 15552      72657363 
 15552      5461626C 
 15552      6500
 15553              	.LASF200:
 15554 1655 49727150 		.ascii	"IrqProcess\000"
 15554      726F6365 
 15554      737300
 15555              	.LASF543:
 15556 1660 52656769 		.ascii	"RegionCommonComputeTxPower\000"
 15556      6F6E436F 
 15556      6D6D6F6E 
 15556      436F6D70 
 15556      75746554 
 15557              	.LASF432:
 15558 167b 44617461 		.ascii	"DataratesCN779\000"
 15558      72617465 
 15558      73434E37 
 15558      373900
 15559              	.LASF544:
 15560 168a 52656769 		.ascii	"RegionCommonValueInRange\000"
 15560      6F6E436F 
 15560      6D6D6F6E 
 15560      56616C75 
 15560      65496E52 
 15561              	.LASF253:
 15562 16a3 5048595F 		.ascii	"PHY_DEF_TX_DR\000"
 15562      4445465F 
 15562      54585F44 
 15562      5200
 15563              	.LASF227:
 15564 16b1 4C4F5241 		.ascii	"LORAMAC_STATUS_FREQUENCY_INVALID\000"
 15564      4D41435F 
 15564      53544154 
ARM GAS  C:\Users\EBANO_~1\AppData\Local\Temp\ccKJ5gfE.s 			page 319


 15564      55535F46 
 15564      52455155 
 15565              	.LASF466:
 15566 16d2 6E657874 		.ascii	"nextTxDelay\000"
 15566      54784465 
 15566      6C617900 
 15567              	.LASF527:
 15568 16de 6A6F696E 		.ascii	"joined\000"
 15568      656400
 15569              	.LASF505:
 15570 16e5 52656769 		.ascii	"RegionCN779ComputeRxWindowParameters\000"
 15570      6F6E434E 
 15570      37373943 
 15570      6F6D7075 
 15570      74655278 
 15571              	.LASF42:
 15572 170a 5F426967 		.ascii	"_Bigint\000"
 15572      696E7400 
 15573              	.LASF386:
 15574 1712 414C5445 		.ascii	"ALTERNATE_DR\000"
 15574      524E4154 
 15574      455F4452 
 15574      00
 15575              	.LASF537:
 15576 171f 47657442 		.ascii	"GetBandwidth\000"
 15576      616E6477 
 15576      69647468 
 15576      00
 15577              	.LASF256:
 15578 172c 5048595F 		.ascii	"PHY_TX_POWER\000"
 15578      54585F50 
 15578      4F574552 
 15578      00
 15579              	.LASF478:
 15580 1739 52656769 		.ascii	"RegionCN779NewChannelReq\000"
 15580      6F6E434E 
 15580      3737394E 
 15580      65774368 
 15580      616E6E65 
 15581              	.LASF180:
 15582 1752 53657443 		.ascii	"SetChannel\000"
 15582      68616E6E 
 15582      656C00
 15583              	.LASF316:
 15584 175d 75506879 		.ascii	"uPhyParam\000"
 15584      50617261 
 15584      6D00
 15585              	.LASF485:
 15586 1767 7478506F 		.ascii	"txPowOut\000"
 15586      774F7574 
 15586      00
 15587              	.LASF99:
 15588 1770 5F617465 		.ascii	"_atexit0\000"
 15588      78697430 
 15588      00
 15589              	.LASF517:
 15590 1779 52656769 		.ascii	"RegionCN779Verify\000"
ARM GAS  C:\Users\EBANO_~1\AppData\Local\Temp\ccKJ5gfE.s 			page 320


 15590      6F6E434E 
 15590      37373956 
 15590      65726966 
 15590      7900
 15591              	.LASF350:
 15592 178b 4368616E 		.ascii	"ChannelsMaskIn\000"
 15592      6E656C73 
 15592      4D61736B 
 15592      496E00
 15593              	.LASF223:
 15594 179a 4C4F5241 		.ascii	"LORAMAC_STATUS_OK\000"
 15594      4D41435F 
 15594      53544154 
 15594      55535F4F 
 15594      4B00
 15595              	.LASF257:
 15596 17ac 5048595F 		.ascii	"PHY_DEF_TX_POWER\000"
 15596      4445465F 
 15596      54585F50 
 15596      4F574552 
 15596      00
 15597              	.LASF124:
 15598 17bd 5F676574 		.ascii	"_getdate_err\000"
 15598      64617465 
 15598      5F657272 
 15598      00
 15599              	.LASF554:
 15600 17ca 6D656D73 		.ascii	"memset1\000"
 15600      65743100 
 15601              	.LASF295:
 15602 17d2 5048595F 		.ascii	"PHY_BEACON_CHANNEL_FREQ\000"
 15602      42454143 
 15602      4F4E5F43 
 15602      48414E4E 
 15602      454C5F46 
 15603              	.LASF282:
 15604 17ea 5048595F 		.ascii	"PHY_BEACON_INTERVAL\000"
 15604      42454143 
 15604      4F4E5F49 
 15604      4E544552 
 15604      56414C00 
 15605              	.LASF561:
 15606 17fe 2E2E2F2E 		.ascii	"../../../../../../Middlewares/Third_Party/LoRaWAN/M"
 15606      2E2F2E2E 
 15606      2F2E2E2F 
 15606      2E2E2F2E 
 15606      2E2F4D69 
 15607 1831 61632F72 		.ascii	"ac/region/RegionCN779.c\000"
 15607      6567696F 
 15607      6E2F5265 
 15607      67696F6E 
 15607      434E3737 
 15608              	.LASF277:
 15609 1849 5048595F 		.ascii	"PHY_DEF_UPLINK_DWELL_TIME\000"
 15609      4445465F 
 15609      55504C49 
 15609      4E4B5F44 
ARM GAS  C:\Users\EBANO_~1\AppData\Local\Temp\ccKJ5gfE.s 			page 321


 15609      57454C4C 
 15610              	.LASF309:
 15611 1863 4348414E 		.ascii	"CHANNELS_DEFAULT_MASK\000"
 15611      4E454C53 
 15611      5F444546 
 15611      41554C54 
 15611      5F4D4153 
 15612              	.LASF268:
 15613 1879 5048595F 		.ascii	"PHY_MAX_FCNT_GAP\000"
 15613      4D41585F 
 15613      46434E54 
 15613      5F474150 
 15613      00
 15614              	.LASF332:
 15615 188a 73496E69 		.ascii	"sInitDefaultsParams\000"
 15615      74446566 
 15615      61756C74 
 15615      73506172 
 15615      616D7300 
 15616              	.LASF423:
 15617 189e 73526567 		.ascii	"sRegionCommonCalcBackOffParams\000"
 15617      696F6E43 
 15617      6F6D6D6F 
 15617      6E43616C 
 15617      63426163 
 15618              	.LASF433:
 15619 18bd 42616E64 		.ascii	"BandwidthsCN779\000"
 15619      77696474 
 15619      6873434E 
 15619      37373900 
 15620              	.LASF136:
 15621 18cd 5F696D70 		.ascii	"_impure_ptr\000"
 15621      7572655F 
 15621      70747200 
 15622              	.LASF75:
 15623 18d9 5F626C6B 		.ascii	"_blksize\000"
 15623      73697A65 
 15623      00
 15624              	.LASF459:
 15625 18e2 6E657874 		.ascii	"nextChanParams\000"
 15625      4368616E 
 15625      50617261 
 15625      6D7300
 15626              	.LASF73:
 15627 18f1 5F756275 		.ascii	"_ubuf\000"
 15627      6600
 15628              	.LASF492:
 15629 18f7 67657450 		.ascii	"getPhy\000"
 15629      687900
 15630              	.LASF279:
 15631 18fe 5048595F 		.ascii	"PHY_DEF_MAX_EIRP\000"
 15631      4445465F 
 15631      4D41585F 
 15631      45495250 
 15631      00
 15632              	.LASF119:
 15633 190f 5F6D626C 		.ascii	"_mblen_state\000"
ARM GAS  C:\Users\EBANO_~1\AppData\Local\Temp\ccKJ5gfE.s 			page 322


 15633      656E5F73 
 15633      74617465 
 15633      00
 15634              	.LASF101:
 15635 191c 5F5F7367 		.ascii	"__sglue\000"
 15635      6C756500 
 15636              	.LASF135:
 15637 1924 5F5F6C6F 		.ascii	"__locale_t\000"
 15637      63616C65 
 15637      5F7400
 15638              	.LASF484:
 15639 192f 64724F75 		.ascii	"drOut\000"
 15639      7400
 15640              	.LASF451:
 15641 1935 52656769 		.ascii	"RegionCN779ChannelsRemove\000"
 15641      6F6E434E 
 15641      37373943 
 15641      68616E6E 
 15641      656C7352 
 15642              	.LASF91:
 15643 194f 5F5F636C 		.ascii	"__cleanup\000"
 15643      65616E75 
 15643      7000
 15644              	.LASF507:
 15645 1959 72784572 		.ascii	"rxError\000"
 15645      726F7200 
 15646              	.LASF214:
 15647 1961 52585F53 		.ascii	"RX_SLOT_WIN_1\000"
 15647      4C4F545F 
 15647      57494E5F 
 15647      3100
 15648              	.LASF215:
 15649 196f 52585F53 		.ascii	"RX_SLOT_WIN_2\000"
 15649      4C4F545F 
 15649      57494E5F 
 15649      3200
 15650              	.LASF302:
 15651 197d 65496E69 		.ascii	"eInitType\000"
 15651      74547970 
 15651      6500
 15652              	.LASF24:
 15653 1987 504C4C4D 		.ascii	"PLLMulTable\000"
 15653      756C5461 
 15653      626C6500 
 15654              	.LASF549:
 15655 1993 52656769 		.ascii	"RegionCommonCalcBackOff\000"
 15655      6F6E436F 
 15655      6D6D6F6E 
 15655      43616C63 
 15655      4261636B 
 15656              	.LASF29:
 15657 19ab 5F66706F 		.ascii	"_fpos_t\000"
 15657      735F7400 
 15658              	.LASF515:
 15659 19b3 6E657743 		.ascii	"newChannel\000"
 15659      68616E6E 
 15659      656C00
ARM GAS  C:\Users\EBANO_~1\AppData\Local\Temp\ccKJ5gfE.s 			page 323


 15660              	.LASF329:
 15661 19be 4368616E 		.ascii	"Channel\000"
 15661      6E656C00 
 15662              	.LASF66:
 15663 19c6 5F66696C 		.ascii	"_file\000"
 15663      6500
 15664              	.LASF208:
 15665 19cc 73436861 		.ascii	"sChannelParams\000"
 15665      6E6E656C 
 15665      50617261 
 15665      6D7300
 15666              	.LASF64:
 15667 19db 5F5F7346 		.ascii	"__sFILE\000"
 15667      494C4500 
 15668              	.LASF501:
 15669 19e3 62616E64 		.ascii	"bandwidth\000"
 15669      77696474 
 15669      6800
 15670              	.LASF510:
 15671 19ed 646F7562 		.ascii	"double\000"
 15671      6C6500
 15672              	.LASF60:
 15673 19f4 5F666E73 		.ascii	"_fns\000"
 15673      00
 15674              	.LASF351:
 15675 19f9 4368616E 		.ascii	"ChannelsMaskType\000"
 15675      6E656C73 
 15675      4D61736B 
 15675      54797065 
 15675      00
 15676              	.LASF35:
 15677 1a0a 5F6D6273 		.ascii	"_mbstate_t\000"
 15677      74617465 
 15677      5F7400
 15678              	.LASF130:
 15679 1a15 5F685F65 		.ascii	"_h_errno\000"
 15679      72726E6F 
 15679      00
 15680              	.LASF315:
 15681 1a1e 42656163 		.ascii	"BeaconFormat_t\000"
 15681      6F6E466F 
 15681      726D6174 
 15681      5F7400
 15682              	.LASF8:
 15683 1a2d 5F5F696E 		.ascii	"__int32_t\000"
 15683      7433325F 
 15683      7400
 15684              	.LASF503:
 15685 1a37 7278436F 		.ascii	"rxConfig\000"
 15685      6E666967 
 15685      00
 15686              	.LASF10:
 15687 1a40 5F5F7569 		.ascii	"__uint32_t\000"
 15687      6E743332 
 15687      5F7400
 15688              	.LASF269:
 15689 1a4b 5048595F 		.ascii	"PHY_ACK_TIMEOUT\000"
ARM GAS  C:\Users\EBANO_~1\AppData\Local\Temp\ccKJ5gfE.s 			page 324


 15689      41434B5F 
 15689      54494D45 
 15689      4F555400 
 15690              	.LASF325:
 15691 1a5b 55706C69 		.ascii	"UplinkDwellTime\000"
 15691      6E6B4477 
 15691      656C6C54 
 15691      696D6500 
 15692              	.LASF509:
 15693 1a6b 7453796D 		.ascii	"tSymbol\000"
 15693      626F6C00 
 15694              	.LASF34:
 15695 1a73 5F5F7661 		.ascii	"__value\000"
 15695      6C756500 
 15696              	.LASF465:
 15697 1a7b 656E6162 		.ascii	"enabledChannels\000"
 15697      6C656443 
 15697      68616E6E 
 15697      656C7300 
 15698              	.LASF57:
 15699 1a8b 5F69735F 		.ascii	"_is_cxa\000"
 15699      63786100 
 15700              	.LASF235:
 15701 1a93 4C4F5241 		.ascii	"LORAMAC_STATUS_NO_CHANNEL_FOUND\000"
 15701      4D41435F 
 15701      53544154 
 15701      55535F4E 
 15701      4F5F4348 
 15702              	.LASF442:
 15703 1ab3 646F776E 		.ascii	"downlinkDwellTime\000"
 15703      6C696E6B 
 15703      4477656C 
 15703      6C54696D 
 15703      6500
 15704              	.LASF94:
 15705 1ac5 5F703573 		.ascii	"_p5s\000"
 15705      00
 15706              	.LASF341:
 15707 1aca 5478506F 		.ascii	"TxPower\000"
 15707      77657200 
 15708              	.LASF163:
 15709 1ad2 52465F54 		.ascii	"RF_TX_RUNNING\000"
 15709      585F5255 
 15709      4E4E494E 
 15709      4700
 15710              	.LASF261:
 15711 1ae0 5048595F 		.ascii	"PHY_MAX_PAYLOAD_REPEATER\000"
 15711      4D41585F 
 15711      5041594C 
 15711      4F41445F 
 15711      52455045 
 15712              	.LASF294:
 15713 1af9 5048595F 		.ascii	"PHY_BEACON_DELAY_BEACON_TIMING_ANS\000"
 15713      42454143 
 15713      4F4E5F44 
 15713      454C4159 
 15713      5F424541 
ARM GAS  C:\Users\EBANO_~1\AppData\Local\Temp\ccKJ5gfE.s 			page 325


 15714              	.LASF354:
 15715 1b1c 42616E64 		.ascii	"Bandwidth\000"
 15715      77696474 
 15715      6800
 15716              	.LASF342:
 15717 1b26 44757479 		.ascii	"DutyCycle\000"
 15717      4379636C 
 15717      6500
 15718              	.LASF317:
 15719 1b30 6656616C 		.ascii	"fValue\000"
 15719      756500
 15720              	.LASF139:
 15721 1b37 54696D65 		.ascii	"TimerTime_t\000"
 15721      7254696D 
 15721      655F7400 
 15722              	.LASF410:
 15723 1b43 73526567 		.ascii	"sRegionCommonLinkAdrParams\000"
 15723      696F6E43 
 15723      6F6D6D6F 
 15723      6E4C696E 
 15723      6B416472 
 15724              	.LASF359:
 15725 1b5e 5278436F 		.ascii	"RxContinuous\000"
 15725      6E74696E 
 15725      756F7573 
 15725      00
 15726              	.LASF305:
 15727 1b6b 494E4954 		.ascii	"INIT_TYPE_RESTORE_CTX\000"
 15727      5F545950 
 15727      455F5245 
 15727      53544F52 
 15727      455F4354 
 15728              	.LASF425:
 15729 1b81 52656769 		.ascii	"RegionCommonCalcBackOffParams_t\000"
 15729      6F6E436F 
 15729      6D6D6F6E 
 15729      43616C63 
 15729      4261636B 
 15730              	.LASF252:
 15731 1ba1 5048595F 		.ascii	"PHY_TX_DR\000"
 15731      54585F44 
 15731      5200
 15732              	.LASF496:
 15733 1bab 7478436F 		.ascii	"txConfig\000"
 15733      6E666967 
 15733      00
 15734              	.LASF388:
 15735 1bb4 416C7465 		.ascii	"AlternateDrType_t\000"
 15735      726E6174 
 15735      65447254 
 15735      7970655F 
 15735      7400
 15736              	.LASF155:
 15737 1bc6 5F74696D 		.ascii	"_timezone\000"
 15737      657A6F6E 
 15737      6500
 15738              	.LASF250:
ARM GAS  C:\Users\EBANO_~1\AppData\Local\Temp\ccKJ5gfE.s 			page 326


 15739 1bd0 5048595F 		.ascii	"PHY_MAX_RX_DR\000"
 15739      4D41585F 
 15739      52585F44 
 15739      5200
 15740              	.LASF192:
 15741 1bde 52737369 		.ascii	"Rssi\000"
 15741      00
 15742              	.LASF159:
 15743 1be3 4D4F4445 		.ascii	"MODEM_LORA\000"
 15743      4D5F4C4F 
 15743      524100
 15744              	.LASF13:
 15745 1bee 6C6F6E67 		.ascii	"long long unsigned int\000"
 15745      206C6F6E 
 15745      6720756E 
 15745      7369676E 
 15745      65642069 
 15746              	.LASF542:
 15747 1c05 52656769 		.ascii	"RegionCommonRxBeaconSetup\000"
 15747      6F6E436F 
 15747      6D6D6F6E 
 15747      52784265 
 15747      61636F6E 
 15748              	.LASF494:
 15749 1c1f 6C696E6B 		.ascii	"linkAdrVerifyParams\000"
 15749      41647256 
 15749      65726966 
 15749      79506172 
 15749      616D7300 
 15750              	.LASF116:
 15751 1c33 5F67616D 		.ascii	"_gamma_signgam\000"
 15751      6D615F73 
 15751      69676E67 
 15751      616D00
 15752              	.LASF151:
 15753 1c42 4C617374 		.ascii	"LastJoinTxDoneTime\000"
 15753      4A6F696E 
 15753      5478446F 
 15753      6E655469 
 15753      6D6500
 15754              	.LASF177:
 15755 1c55 496E6974 		.ascii	"Init\000"
 15755      00
 15756              	.LASF439:
 15757 1c5a 72784265 		.ascii	"rxBeaconSetup\000"
 15757      61636F6E 
 15757      53657475 
 15757      7000
 15758              	.LASF401:
 15759 1c68 73436861 		.ascii	"sChannelRemoveParams\000"
 15759      6E6E656C 
 15759      52656D6F 
 15759      76655061 
 15759      72616D73 
 15760              	.LASF403:
 15761 1c7d 73436F6E 		.ascii	"sContinuousWaveParams\000"
 15761      74696E75 
ARM GAS  C:\Users\EBANO_~1\AppData\Local\Temp\ccKJ5gfE.s 			page 327


 15761      6F757357 
 15761      61766550 
 15761      6172616D 
 15762              	.LASF511:
 15763 1c93 52656769 		.ascii	"RegionCN779ChanMaskSet\000"
 15763      6F6E434E 
 15763      37373943 
 15763      68616E4D 
 15763      61736B53 
 15764              	.LASF244:
 15765 1caa 4C4F5241 		.ascii	"LORAMAC_STATUS_CONFIRM_QUEUE_ERROR\000"
 15765      4D41435F 
 15765      53544154 
 15765      55535F43 
 15765      4F4E4649 
 15766              	.LASF273:
 15767 1ccd 5048595F 		.ascii	"PHY_CHANNELS_MASK\000"
 15767      4348414E 
 15767      4E454C53 
 15767      5F4D4153 
 15767      4B00
 15768              	.LASF143:
 15769 1cdf 4D616A6F 		.ascii	"Major\000"
 15769      7200
 15770              	.LASF209:
 15771 1ce5 46726571 		.ascii	"Frequency\000"
 15771      75656E63 
 15771      7900
 15772              	.LASF530:
 15773 1cef 64656C61 		.ascii	"delayTransmission\000"
 15773      79547261 
 15773      6E736D69 
 15773      7373696F 
 15773      6E00
 15774              	.LASF137:
 15775 1d01 5F676C6F 		.ascii	"_global_impure_ptr\000"
 15775      62616C5F 
 15775      696D7075 
 15775      72655F70 
 15775      747200
 15776              	.LASF407:
 15777 1d14 53796D62 		.ascii	"SymbolTimeout\000"
 15777      6F6C5469 
 15777      6D656F75 
 15777      7400
 15778              	.LASF88:
 15779 1d22 5F756E73 		.ascii	"_unspecified_locale_info\000"
 15779      70656369 
 15779      66696564 
 15779      5F6C6F63 
 15779      616C655F 
 15780              	.LASF378:
 15781 1d3b 4E657743 		.ascii	"NewChannel\000"
 15781      68616E6E 
 15781      656C00
 15782              	.LASF529:
 15783 1d46 6368616E 		.ascii	"channels\000"
ARM GAS  C:\Users\EBANO_~1\AppData\Local\Temp\ccKJ5gfE.s 			page 328


 15783      6E656C73 
 15783      00
 15784              	.LASF304:
 15785 1d4f 494E4954 		.ascii	"INIT_TYPE_RESTORE_DEFAULT_CHANNELS\000"
 15785      5F545950 
 15785      455F5245 
 15785      53544F52 
 15785      455F4445 
 15786              	.LASF90:
 15787 1d72 5F5F7364 		.ascii	"__sdidinit\000"
 15787      6964696E 
 15787      697400
 15788              	.LASF477:
 15789 1d7d 74785061 		.ascii	"txParamSetupReq\000"
 15789      72616D53 
 15789      65747570 
 15789      52657100 
 15790              	.LASF318:
 15791 1d8d 4368616E 		.ascii	"ChannelsMask\000"
 15791      6E656C73 
 15791      4D61736B 
 15791      00
 15792              	.LASF187:
 15793 1d9a 53656E64 		.ascii	"Send\000"
 15793      00
 15794              	.LASF300:
 15795 1d9f 5048595F 		.ascii	"PHY_PING_SLOT_CHANNEL_DR\000"
 15795      50494E47 
 15795      5F534C4F 
 15795      545F4348 
 15795      414E4E45 
 15796              	.LASF324:
 15797 1db8 44617461 		.ascii	"Datarate\000"
 15797      72617465 
 15797      00
 15798              	.LASF36:
 15799 1dc1 5F666C6F 		.ascii	"_flock_t\000"
 15799      636B5F74 
 15799      00
 15800              	.LASF541:
 15801 1dca 6E657874 		.ascii	"nextLowerDr\000"
 15801      4C6F7765 
 15801      72447200 
 15802              	.LASF239:
 15803 1dd6 4C4F5241 		.ascii	"LORAMAC_STATUS_BUSY_UPLINK_COLLISION\000"
 15803      4D41435F 
 15803      53544154 
 15803      55535F42 
 15803      5553595F 
 15804              	.LASF470:
 15805 1dfb 52656769 		.ascii	"RegionCN779AlternateDr\000"
 15805      6F6E434E 
 15805      37373941 
 15805      6C746572 
 15805      6E617465 
 15806              	.LASF499:
 15807 1e12 6D6F6465 		.ascii	"modem\000"
ARM GAS  C:\Users\EBANO_~1\AppData\Local\Temp\ccKJ5gfE.s 			page 329


 15807      6D00
 15808              	.LASF173:
 15809 1e18 52616469 		.ascii	"RadioEvents_t\000"
 15809      6F457665 
 15809      6E74735F 
 15809      7400
 15810              	.LASF488:
 15811 1e26 6C696E6B 		.ascii	"linkAdrParams\000"
 15811      41647250 
 15811      6172616D 
 15811      7300
 15812              	.LASF441:
 15813 1e34 72656769 		.ascii	"regionCommonRxBeaconSetup\000"
 15813      6F6E436F 
 15813      6D6D6F6E 
 15813      52784265 
 15813      61636F6E 
 15814              	.LASF246:
 15815 1e4e 4C6F5261 		.ascii	"LoRaMacStatus_t\000"
 15815      4D616353 
 15815      74617475 
 15815      735F7400 
 15816              	.LASF373:
 15817 1e5e 43757272 		.ascii	"CurrentNbRep\000"
 15817      656E744E 
 15817      62526570 
 15817      00
 15818              	.LASF12:
 15819 1e6b 6C6F6E67 		.ascii	"long long int\000"
 15819      206C6F6E 
 15819      6720696E 
 15819      7400
 15820              	.LASF229:
 15821 1e79 4C4F5241 		.ascii	"LORAMAC_STATUS_FREQ_AND_DR_INVALID\000"
 15821      4D41435F 
 15821      53544154 
 15821      55535F46 
 15821      5245515F 
 15822              	.LASF243:
 15823 1e9c 4C4F5241 		.ascii	"LORAMAC_STATUS_CLASS_B_ERROR\000"
 15823      4D41435F 
 15823      53544154 
 15823      55535F43 
 15823      4C415353 
 15824              	.LASF80:
 15825 1eb9 5F666C61 		.ascii	"_flags2\000"
 15825      67733200 
 15826              	.LASF293:
 15827 1ec1 5048595F 		.ascii	"PHY_MAX_BEACON_LESS_PERIOD\000"
 15827      4D41585F 
 15827      42454143 
 15827      4F4E5F4C 
 15827      4553535F 
 15828              	.LASF172:
 15829 1edc 43616444 		.ascii	"CadDone\000"
 15829      6F6E6500 
 15830              	.LASF89:
ARM GAS  C:\Users\EBANO_~1\AppData\Local\Temp\ccKJ5gfE.s 			page 330


 15831 1ee4 5F6C6F63 		.ascii	"_locale\000"
 15831      616C6500 
 15832              	.LASF228:
 15833 1eec 4C4F5241 		.ascii	"LORAMAC_STATUS_DATARATE_INVALID\000"
 15833      4D41435F 
 15833      53544154 
 15833      55535F44 
 15833      41544152 
 15834              	.LASF349:
 15835 1f0c 73436861 		.ascii	"sChanMaskSetParams\000"
 15835      6E4D6173 
 15835      6B536574 
 15835      50617261 
 15835      6D7300
 15836              	.LASF22:
 15837 1f1f 41484250 		.ascii	"AHBPrescTable\000"
 15837      72657363 
 15837      5461626C 
 15837      6500
 15838              	.LASF276:
 15839 1f2d 5048595F 		.ascii	"PHY_CHANNELS\000"
 15839      4348414E 
 15839      4E454C53 
 15839      00
 15840              	.LASF469:
 15841 1f3a 63616C63 		.ascii	"calcBackOffParams\000"
 15841      4261636B 
 15841      4F666650 
 15841      6172616D 
 15841      7300
 15842              	.LASF333:
 15843 1f4c 4E766D43 		.ascii	"NvmCtx\000"
 15843      747800
 15844              	.LASF409:
 15845 1f53 52784265 		.ascii	"RxBeaconSetup_t\000"
 15845      61636F6E 
 15845      53657475 
 15845      705F7400 
 15846              	.LASF204:
 15847 1f63 73466965 		.ascii	"sFields\000"
 15847      6C647300 
 15848              	.LASF556:
 15849 1f6b 52656769 		.ascii	"RegionCommonComputeRxWindowParameters\000"
 15849      6F6E436F 
 15849      6D6D6F6E 
 15849      436F6D70 
 15849      75746552 
 15850              	.LASF199:
 15851 1f91 47657457 		.ascii	"GetWakeupTime\000"
 15851      616B6575 
 15851      7054696D 
 15851      6500
 15852              	.LASF395:
 15853 1f9f 734E6578 		.ascii	"sNextChanParams\000"
 15853      74436861 
 15853      6E506172 
 15853      616D7300 
ARM GAS  C:\Users\EBANO_~1\AppData\Local\Temp\ccKJ5gfE.s 			page 331


 15854              	.LASF431:
 15855 1faf 4C6F5261 		.ascii	"LoRaMacMaxEirpTable\000"
 15855      4D61634D 
 15855      61784569 
 15855      72705461 
 15855      626C6500 
 15856              	.LASF383:
 15857 1fc3 73446C43 		.ascii	"sDlChannelReqParams\000"
 15857      68616E6E 
 15857      656C5265 
 15857      71506172 
 15857      616D7300 
 15858              	.LASF374:
 15859 1fd7 4C696E6B 		.ascii	"LinkAdrReqParams_t\000"
 15859      41647252 
 15859      65715061 
 15859      72616D73 
 15859      5F7400
 15860              	.LASF453:
 15861 1fea 6368616E 		.ascii	"channelRemove\000"
 15861      6E656C52 
 15861      656D6F76 
 15861      6500
 15862              	.LASF104:
 15863 1ff8 5F5F4649 		.ascii	"__FILE\000"
 15863      4C4500
 15864              	.LASF217:
 15865 1fff 52585F53 		.ascii	"RX_SLOT_WIN_PING_SLOT\000"
 15865      4C4F545F 
 15865      57494E5F 
 15865      50494E47 
 15865      5F534C4F 
 15866              	.LASF449:
 15867 2015 66726571 		.ascii	"frequency\000"
 15867      75656E63 
 15867      7900
 15868              	.LASF340:
 15869 201f 75566572 		.ascii	"uVerifyParams\000"
 15869      69667950 
 15869      6172616D 
 15869      7300
 15870              	.LASF238:
 15871 202d 4C4F5241 		.ascii	"LORAMAC_STATUS_BUSY_PING_SLOT_WINDOW_TIME\000"
 15871      4D41435F 
 15871      53544154 
 15871      55535F42 
 15871      5553595F 
 15872              	.LASF40:
 15873 2057 5F736967 		.ascii	"_sign\000"
 15873      6E00
 15874              	.LASF0:
 15875 205d 5F5F696E 		.ascii	"__int8_t\000"
 15875      74385F74 
 15875      00
 15876              	.LASF45:
 15877 2066 5F5F746D 		.ascii	"__tm_min\000"
 15877      5F6D696E 
ARM GAS  C:\Users\EBANO_~1\AppData\Local\Temp\ccKJ5gfE.s 			page 332


 15877      00
 15878              	.LASF344:
 15879 206f 56657269 		.ascii	"VerifyParams_t\000"
 15879      66795061 
 15879      72616D73 
 15879      5F7400
 15880              	.LASF14:
 15881 207e 756E7369 		.ascii	"unsigned int\000"
 15881      676E6564 
 15881      20696E74 
 15881      00
 15882              	.LASF118:
 15883 208b 5F723438 		.ascii	"_r48\000"
 15883      00
 15884              	.LASF145:
 15885 2090 56616C75 		.ascii	"Value\000"
 15885      6500
 15886              	.LASF225:
 15887 2096 4C4F5241 		.ascii	"LORAMAC_STATUS_SERVICE_UNKNOWN\000"
 15887      4D41435F 
 15887      53544154 
 15887      55535F53 
 15887      45525649 
 15888              	.LASF366:
 15889 20b5 5478436F 		.ascii	"TxConfigParams_t\000"
 15889      6E666967 
 15889      50617261 
 15889      6D735F74 
 15889      00
 15890              	.LASF233:
 15891 20c6 4C4F5241 		.ascii	"LORAMAC_STATUS_SKIPPED_APP_DATA\000"
 15891      4D41435F 
 15891      53544154 
 15891      55535F53 
 15891      4B495050 
 15892              	.LASF443:
 15893 20e6 64724F66 		.ascii	"drOffset\000"
 15893      66736574 
 15893      00
 15894              	.LASF5:
 15895 20ef 73686F72 		.ascii	"short int\000"
 15895      7420696E 
 15895      7400
 15896              	.LASF291:
 15897 20f9 5048595F 		.ascii	"PHY_BEACON_SYMBOL_TO_EXPANSION_FACTOR\000"
 15897      42454143 
 15897      4F4E5F53 
 15897      594D424F 
 15897      4C5F544F 
 15898              	.LASF183:
 15899 211f 53657452 		.ascii	"SetRxConfig\000"
 15899      78436F6E 
 15899      66696700 
 15900              	.LASF69:
 15901 212b 5F726561 		.ascii	"_read\000"
 15901      6400
 15902              	.LASF456:
ARM GAS  C:\Users\EBANO_~1\AppData\Local\Temp\ccKJ5gfE.s 			page 333


 15903 2131 66726571 		.ascii	"freqInvalid\000"
 15903      496E7661 
 15903      6C696400 
 15904              	.LASF550:
 15905 213d 52656769 		.ascii	"RegionCommonChanDisable\000"
 15905      6F6E436F 
 15905      6D6D6F6E 
 15905      4368616E 
 15905      44697361 
 15906              	.LASF108:
 15907 2155 5F72616E 		.ascii	"_rand48\000"
 15907      64343800 
 15908              	.LASF522:
 15909 215d 52656769 		.ascii	"RegionCN779InitDefaults\000"
 15909      6F6E434E 
 15909      37373949 
 15909      6E697444 
 15909      65666175 
 15910              	.LASF455:
 15911 2175 6472496E 		.ascii	"drInvalid\000"
 15911      76616C69 
 15911      6400
 15912              	.LASF390:
 15913 217f 4C617374 		.ascii	"LastTxIsJoinRequest\000"
 15913      54784973 
 15913      4A6F696E 
 15913      52657175 
 15913      65737400 
 15914              		.ident	"GCC: (GNU Tools for Arm Embedded Processors 7-2018-q2-update) 7.3.1 20180622 (release) [AR
ARM GAS  C:\Users\EBANO_~1\AppData\Local\Temp\ccKJ5gfE.s 			page 334


DEFINED SYMBOLS
                            *ABS*:00000000 RegionCN779.c
C:\Users\EBANO_~1\AppData\Local\Temp\ccKJ5gfE.s:16     .text.RegionCN779GetPhyParam:00000000 $t
C:\Users\EBANO_~1\AppData\Local\Temp\ccKJ5gfE.s:24     .text.RegionCN779GetPhyParam:00000000 RegionCN779GetPhyParam
C:\Users\EBANO_~1\AppData\Local\Temp\ccKJ5gfE.s:55     .rodata:00000000 $d
C:\Users\EBANO_~1\AppData\Local\Temp\ccKJ5gfE.s:287    .text.RegionCN779GetPhyParam:000000dc $d
C:\Users\EBANO_~1\AppData\Local\Temp\ccKJ5gfE.s:3811   .bss:00000000 NvmCtx
C:\Users\EBANO_~1\AppData\Local\Temp\ccKJ5gfE.s:305    .text.RegionCN779SetBandTxDone:00000000 $t
C:\Users\EBANO_~1\AppData\Local\Temp\ccKJ5gfE.s:313    .text.RegionCN779SetBandTxDone:00000000 RegionCN779SetBandTxDone
C:\Users\EBANO_~1\AppData\Local\Temp\ccKJ5gfE.s:349    .text.RegionCN779SetBandTxDone:00000020 $d
C:\Users\EBANO_~1\AppData\Local\Temp\ccKJ5gfE.s:354    .text.RegionCN779InitDefaults:00000000 $t
C:\Users\EBANO_~1\AppData\Local\Temp\ccKJ5gfE.s:362    .text.RegionCN779InitDefaults:00000000 RegionCN779InitDefaults
C:\Users\EBANO_~1\AppData\Local\Temp\ccKJ5gfE.s:474    .text.RegionCN779InitDefaults:00000088 $d
C:\Users\EBANO_~1\AppData\Local\Temp\ccKJ5gfE.s:481    .text.RegionCN779GetNvmCtx:00000000 $t
C:\Users\EBANO_~1\AppData\Local\Temp\ccKJ5gfE.s:489    .text.RegionCN779GetNvmCtx:00000000 RegionCN779GetNvmCtx
C:\Users\EBANO_~1\AppData\Local\Temp\ccKJ5gfE.s:510    .text.RegionCN779GetNvmCtx:00000008 $d
C:\Users\EBANO_~1\AppData\Local\Temp\ccKJ5gfE.s:515    .text.RegionCN779Verify:00000000 $t
C:\Users\EBANO_~1\AppData\Local\Temp\ccKJ5gfE.s:523    .text.RegionCN779Verify:00000000 RegionCN779Verify
C:\Users\EBANO_~1\AppData\Local\Temp\ccKJ5gfE.s:607    .text.RegionCN779Verify:00000044 $d
C:\Users\EBANO_~1\AppData\Local\Temp\ccKJ5gfE.s:612    .text.RegionCN779ApplyCFList:00000000 $t
C:\Users\EBANO_~1\AppData\Local\Temp\ccKJ5gfE.s:620    .text.RegionCN779ApplyCFList:00000000 RegionCN779ApplyCFList
C:\Users\EBANO_~1\AppData\Local\Temp\ccKJ5gfE.s:890    .text.RegionCN779ApplyCFList:00000130 $d
C:\Users\EBANO_~1\AppData\Local\Temp\ccKJ5gfE.s:904    .text.RegionCN779ChanMaskSet:00000000 $t
C:\Users\EBANO_~1\AppData\Local\Temp\ccKJ5gfE.s:912    .text.RegionCN779ChanMaskSet:00000000 RegionCN779ChanMaskSet
C:\Users\EBANO_~1\AppData\Local\Temp\ccKJ5gfE.s:966    .text.RegionCN779ChanMaskSet:0000002c $d
C:\Users\EBANO_~1\AppData\Local\Temp\ccKJ5gfE.s:972    .text.RegionCN779ComputeRxWindowParameters:00000000 $t
C:\Users\EBANO_~1\AppData\Local\Temp\ccKJ5gfE.s:980    .text.RegionCN779ComputeRxWindowParameters:00000000 RegionCN779ComputeRxWindowParameters
C:\Users\EBANO_~1\AppData\Local\Temp\ccKJ5gfE.s:1116   .text.RegionCN779ComputeRxWindowParameters:00000084 $d
C:\Users\EBANO_~1\AppData\Local\Temp\ccKJ5gfE.s:1124   .text.RegionCN779RxConfig:00000000 $t
C:\Users\EBANO_~1\AppData\Local\Temp\ccKJ5gfE.s:1132   .text.RegionCN779RxConfig:00000000 RegionCN779RxConfig
C:\Users\EBANO_~1\AppData\Local\Temp\ccKJ5gfE.s:1341   .text.RegionCN779RxConfig:000000f4 $d
C:\Users\EBANO_~1\AppData\Local\Temp\ccKJ5gfE.s:1351   .text.RegionCN779TxConfig:00000000 $t
C:\Users\EBANO_~1\AppData\Local\Temp\ccKJ5gfE.s:1359   .text.RegionCN779TxConfig:00000000 RegionCN779TxConfig
C:\Users\EBANO_~1\AppData\Local\Temp\ccKJ5gfE.s:1627   .text.RegionCN779TxConfig:00000120 $d
C:\Users\EBANO_~1\AppData\Local\Temp\ccKJ5gfE.s:1638   .text.RegionCN779LinkAdrReq:00000000 $t
C:\Users\EBANO_~1\AppData\Local\Temp\ccKJ5gfE.s:1646   .text.RegionCN779LinkAdrReq:00000000 RegionCN779LinkAdrReq
C:\Users\EBANO_~1\AppData\Local\Temp\ccKJ5gfE.s:2296   .text.RegionCN779LinkAdrReq:000002f8 $d
C:\Users\EBANO_~1\AppData\Local\Temp\ccKJ5gfE.s:2302   .text.RegionCN779RxParamSetupReq:00000000 $t
C:\Users\EBANO_~1\AppData\Local\Temp\ccKJ5gfE.s:2310   .text.RegionCN779RxParamSetupReq:00000000 RegionCN779RxParamSetupReq
C:\Users\EBANO_~1\AppData\Local\Temp\ccKJ5gfE.s:2420   .text.RegionCN779RxParamSetupReq:00000058 $d
C:\Users\EBANO_~1\AppData\Local\Temp\ccKJ5gfE.s:2427   .text.RegionCN779NewChannelReq:00000000 $t
C:\Users\EBANO_~1\AppData\Local\Temp\ccKJ5gfE.s:2435   .text.RegionCN779NewChannelReq:00000000 RegionCN779NewChannelReq
C:\Users\EBANO_~1\AppData\Local\Temp\ccKJ5gfE.s:2676   .text.RegionCN779NewChannelReq:000000f8 $d
C:\Users\EBANO_~1\AppData\Local\Temp\ccKJ5gfE.s:2684   .text.RegionCN779TxParamSetupReq:00000000 $t
C:\Users\EBANO_~1\AppData\Local\Temp\ccKJ5gfE.s:2692   .text.RegionCN779TxParamSetupReq:00000000 RegionCN779TxParamSetupReq
C:\Users\EBANO_~1\AppData\Local\Temp\ccKJ5gfE.s:2711   .text.RegionCN779DlChannelReq:00000000 $t
C:\Users\EBANO_~1\AppData\Local\Temp\ccKJ5gfE.s:2719   .text.RegionCN779DlChannelReq:00000000 RegionCN779DlChannelReq
C:\Users\EBANO_~1\AppData\Local\Temp\ccKJ5gfE.s:2820   .text.RegionCN779DlChannelReq:00000060 $d
C:\Users\EBANO_~1\AppData\Local\Temp\ccKJ5gfE.s:2828   .text.RegionCN779AlternateDr:00000000 $t
C:\Users\EBANO_~1\AppData\Local\Temp\ccKJ5gfE.s:2836   .text.RegionCN779AlternateDr:00000000 RegionCN779AlternateDr
C:\Users\EBANO_~1\AppData\Local\Temp\ccKJ5gfE.s:2851   .text.RegionCN779CalcBackOff:00000000 $t
C:\Users\EBANO_~1\AppData\Local\Temp\ccKJ5gfE.s:2859   .text.RegionCN779CalcBackOff:00000000 RegionCN779CalcBackOff
C:\Users\EBANO_~1\AppData\Local\Temp\ccKJ5gfE.s:2916   .text.RegionCN779CalcBackOff:00000030 $d
C:\Users\EBANO_~1\AppData\Local\Temp\ccKJ5gfE.s:2921   .text.RegionCN779NextChannel:00000000 $t
C:\Users\EBANO_~1\AppData\Local\Temp\ccKJ5gfE.s:2929   .text.RegionCN779NextChannel:00000000 RegionCN779NextChannel
C:\Users\EBANO_~1\AppData\Local\Temp\ccKJ5gfE.s:3317   .text.RegionCN779NextChannel:000001b4 $d
C:\Users\EBANO_~1\AppData\Local\Temp\ccKJ5gfE.s:3323   .text.RegionCN779ChannelAdd:00000000 $t
ARM GAS  C:\Users\EBANO_~1\AppData\Local\Temp\ccKJ5gfE.s 			page 335


C:\Users\EBANO_~1\AppData\Local\Temp\ccKJ5gfE.s:3331   .text.RegionCN779ChannelAdd:00000000 RegionCN779ChannelAdd
C:\Users\EBANO_~1\AppData\Local\Temp\ccKJ5gfE.s:3527   .text.RegionCN779ChannelAdd:000000c8 $d
C:\Users\EBANO_~1\AppData\Local\Temp\ccKJ5gfE.s:3535   .text.RegionCN779ChannelsRemove:00000000 $t
C:\Users\EBANO_~1\AppData\Local\Temp\ccKJ5gfE.s:3543   .text.RegionCN779ChannelsRemove:00000000 RegionCN779ChannelsRemove
C:\Users\EBANO_~1\AppData\Local\Temp\ccKJ5gfE.s:3591   .text.RegionCN779ChannelsRemove:0000002c $d
C:\Users\EBANO_~1\AppData\Local\Temp\ccKJ5gfE.s:3596   .text.RegionCN779SetContinuousWave:00000000 $t
C:\Users\EBANO_~1\AppData\Local\Temp\ccKJ5gfE.s:3604   .text.RegionCN779SetContinuousWave:00000000 RegionCN779SetContinuousWave
C:\Users\EBANO_~1\AppData\Local\Temp\ccKJ5gfE.s:3694   .text.RegionCN779SetContinuousWave:00000048 $d
C:\Users\EBANO_~1\AppData\Local\Temp\ccKJ5gfE.s:3700   .text.RegionCN779ApplyDrOffset:00000000 $t
C:\Users\EBANO_~1\AppData\Local\Temp\ccKJ5gfE.s:3708   .text.RegionCN779ApplyDrOffset:00000000 RegionCN779ApplyDrOffset
C:\Users\EBANO_~1\AppData\Local\Temp\ccKJ5gfE.s:3734   .text.RegionCN779RxBeaconSetup:00000000 $t
C:\Users\EBANO_~1\AppData\Local\Temp\ccKJ5gfE.s:3742   .text.RegionCN779RxBeaconSetup:00000000 RegionCN779RxBeaconSetup
C:\Users\EBANO_~1\AppData\Local\Temp\ccKJ5gfE.s:3802   .text.RegionCN779RxBeaconSetup:00000030 $d
C:\Users\EBANO_~1\AppData\Local\Temp\ccKJ5gfE.s:3808   .bss:00000000 $d
C:\Users\EBANO_~1\AppData\Local\Temp\ccKJ5gfE.s:3818   .rodata:000000d8 BandwidthsCN779
C:\Users\EBANO_~1\AppData\Local\Temp\ccKJ5gfE.s:3829   .rodata:000000f8 DataratesCN779
C:\Users\EBANO_~1\AppData\Local\Temp\ccKJ5gfE.s:3842   .rodata:00000100 MaxPayloadOfDatarateCN779
C:\Users\EBANO_~1\AppData\Local\Temp\ccKJ5gfE.s:3853   .rodata:00000108 MaxPayloadOfDatarateRepeaterCN779

UNDEFINED SYMBOLS
randr
RegionCommonSetBandTxDone
memcpy1
RegionCommonChanMaskCopy
RegionCommonValueInRange
memset
RegionCommonChanDisable
Radio
RegionCommonComputeSymbolTimeLoRa
RegionCommonComputeRxWindowParameters
RegionCommonComputeSymbolTimeFsk
RegionCommonComputeTxPower
RegionCommonParseLinkAdrReq
RegionCommonLinkAdrReqVerifyParams
memset1
RegionCommonCalcBackOff
RegionCommonCountChannels
TimerGetElapsedTime
RegionCommonUpdateBandTimeOff
RegionCommonRxBeaconSetup
